; Listing generated by Microsoft (R) Optimizing Compiler Version 17.00.61219.0 

	TITLE	X:\GitHub\Renegade\Dragonade_RxD\scripts\da_deathmatch.cpp
	.686P
	.XMM
	include listing.inc
	.model	flat

INCLUDELIB MSVCRTD
INCLUDELIB OLDNAMES

PUBLIC	??1DAGameModeFactoryClass@@UAE@XZ		; DAGameModeFactoryClass::~DAGameModeFactoryClass
PUBLIC	??_GDAGameModeFactoryClass@@UAEPAXI@Z		; DAGameModeFactoryClass::`scalar deleting destructor'
PUBLIC	?Set_Factory@DAGameModeClass@@QAEXPBVDAGameModeFactoryClass@@@Z ; DAGameModeClass::Set_Factory
PUBLIC	??1DAGameModeClass@@UAE@XZ			; DAGameModeClass::~DAGameModeClass
PUBLIC	??0DAGameModeClass@@QAE@XZ			; DAGameModeClass::DAGameModeClass
PUBLIC	??_GDAGameModeClass@@UAEPAXI@Z			; DAGameModeClass::`scalar deleting destructor'
PUBLIC	?Init@DANullGameModeClass@@EAEXXZ		; DANullGameModeClass::Init
PUBLIC	??0DANullGameModeClass@@QAE@XZ			; DANullGameModeClass::DANullGameModeClass
PUBLIC	??1DANullGameModeClass@@UAE@XZ			; DANullGameModeClass::~DANullGameModeClass
PUBLIC	??_GDANullGameModeClass@@UAEPAXI@Z		; DANullGameModeClass::`scalar deleting destructor'
PUBLIC	??0?$DAGameModeRegistrant@VDANullGameModeClass@@@@QAE@PBD00@Z ; DAGameModeRegistrant<DANullGameModeClass>::DAGameModeRegistrant<DANullGameModeClass>
PUBLIC	?Create_Instance@?$DAGameModeRegistrant@VDANullGameModeClass@@@@UAEPAVDAGameModeClass@@XZ ; DAGameModeRegistrant<DANullGameModeClass>::Create_Instance
PUBLIC	??1?$DAGameModeRegistrant@VDANullGameModeClass@@@@UAE@XZ ; DAGameModeRegistrant<DANullGameModeClass>::~DAGameModeRegistrant<DANullGameModeClass>
PUBLIC	??_G?$DAGameModeRegistrant@VDANullGameModeClass@@@@UAEPAXI@Z ; DAGameModeRegistrant<DANullGameModeClass>::`scalar deleting destructor'
PUBLIC	??0DANullGameModeRegistrant@@QAE@PBD0@Z		; DANullGameModeRegistrant::DANullGameModeRegistrant
PUBLIC	??1DANullGameModeRegistrant@@UAE@XZ		; DANullGameModeRegistrant::~DANullGameModeRegistrant
PUBLIC	??_GDANullGameModeRegistrant@@UAEPAXI@Z		; DANullGameModeRegistrant::`scalar deleting destructor'
PUBLIC	??_7DAGameModeFactoryClass@@6B@			; DAGameModeFactoryClass::`vftable'
PUBLIC	??_7DAGameModeClass@@6B@			; DAGameModeClass::`vftable'
PUBLIC	??_7DANullGameModeClass@@6B@			; DANullGameModeClass::`vftable'
PUBLIC	??_7?$DAGameModeRegistrant@VDANullGameModeClass@@@@6B@ ; DAGameModeRegistrant<DANullGameModeClass>::`vftable'
PUBLIC	??_7DANullGameModeRegistrant@@6B@		; DANullGameModeRegistrant::`vftable'
PUBLIC	??_C@_0L@NKMACCB@Deathmatch?$AA@		; `string'
PUBLIC	??_C@_0EB@HGGNACEE@DAGameModeRegistrant?$DMclass?5DANul@ ; `string'
PUBLIC	??_C@_0DH@LBOBMIDI@x?3?2github?2renegade?2dragonade_rxd@ ; `string'
PUBLIC	??_C@_1GO@IKKPOACN@?$AAx?$AA?3?$AA?2?$AAg?$AAi?$AAt?$AAh?$AAu?$AAb?$AA?2?$AAr?$AAe?$AAn?$AAe?$AAg?$AAa?$AAd?$AAe?$AA?2?$AAd?$AAr?$AAa?$AAg?$AAo?$AAn?$AAa?$AAd?$AAe?$AA_?$AAr?$AAx?$AAd@ ; `string'
PUBLIC	??_C@_1M@HLGKFCJM@?$AAf?$AAa?$AAl?$AAs?$AAe?$AA?$AA@ ; `string'
PUBLIC	??_R4DAGameModeClass@@6B@			; DAGameModeClass::`RTTI Complete Object Locator'
PUBLIC	??_R0?AVDAGameModeClass@@@8			; DAGameModeClass `RTTI Type Descriptor'
PUBLIC	??_R3DAGameModeClass@@8				; DAGameModeClass::`RTTI Class Hierarchy Descriptor'
PUBLIC	??_R2DAGameModeClass@@8				; DAGameModeClass::`RTTI Base Class Array'
PUBLIC	??_R1A@?0A@EA@DAGameModeClass@@8		; DAGameModeClass::`RTTI Base Class Descriptor at (0,-1,0,64)'
PUBLIC	??_R4DAGameModeFactoryClass@@6B@		; DAGameModeFactoryClass::`RTTI Complete Object Locator'
PUBLIC	??_R0?AVDAGameModeFactoryClass@@@8		; DAGameModeFactoryClass `RTTI Type Descriptor'
PUBLIC	??_R3DAGameModeFactoryClass@@8			; DAGameModeFactoryClass::`RTTI Class Hierarchy Descriptor'
PUBLIC	??_R2DAGameModeFactoryClass@@8			; DAGameModeFactoryClass::`RTTI Base Class Array'
PUBLIC	??_R1A@?0A@EA@DAGameModeFactoryClass@@8		; DAGameModeFactoryClass::`RTTI Base Class Descriptor at (0,-1,0,64)'
PUBLIC	??_R4DANullGameModeClass@@6B@			; DANullGameModeClass::`RTTI Complete Object Locator'
PUBLIC	??_R0?AVDANullGameModeClass@@@8			; DANullGameModeClass `RTTI Type Descriptor'
PUBLIC	??_R3DANullGameModeClass@@8			; DANullGameModeClass::`RTTI Class Hierarchy Descriptor'
PUBLIC	??_R2DANullGameModeClass@@8			; DANullGameModeClass::`RTTI Base Class Array'
PUBLIC	??_R1A@?0A@EA@DANullGameModeClass@@8		; DANullGameModeClass::`RTTI Base Class Descriptor at (0,-1,0,64)'
PUBLIC	??_R4DANullGameModeRegistrant@@6B@		; DANullGameModeRegistrant::`RTTI Complete Object Locator'
PUBLIC	??_R0?AVDANullGameModeRegistrant@@@8		; DANullGameModeRegistrant `RTTI Type Descriptor'
PUBLIC	??_R3DANullGameModeRegistrant@@8		; DANullGameModeRegistrant::`RTTI Class Hierarchy Descriptor'
PUBLIC	??_R2DANullGameModeRegistrant@@8		; DANullGameModeRegistrant::`RTTI Base Class Array'
PUBLIC	??_R1A@?0A@EA@DANullGameModeRegistrant@@8	; DANullGameModeRegistrant::`RTTI Base Class Descriptor at (0,-1,0,64)'
PUBLIC	??_R1A@?0A@EA@?$DAGameModeRegistrant@VDANullGameModeClass@@@@8 ; DAGameModeRegistrant<DANullGameModeClass>::`RTTI Base Class Descriptor at (0,-1,0,64)'
PUBLIC	??_R0?AV?$DAGameModeRegistrant@VDANullGameModeClass@@@@@8 ; DAGameModeRegistrant<DANullGameModeClass> `RTTI Type Descriptor'
PUBLIC	??_R3?$DAGameModeRegistrant@VDANullGameModeClass@@@@8 ; DAGameModeRegistrant<DANullGameModeClass>::`RTTI Class Hierarchy Descriptor'
PUBLIC	??_R2?$DAGameModeRegistrant@VDANullGameModeClass@@@@8 ; DAGameModeRegistrant<DANullGameModeClass>::`RTTI Base Class Array'
PUBLIC	??_R4?$DAGameModeRegistrant@VDANullGameModeClass@@@@6B@ ; DAGameModeRegistrant<DANullGameModeClass>::`RTTI Complete Object Locator'
EXTRN	__purecall:PROC
EXTRN	??2@YAPAXI@Z:PROC				; operator new
EXTRN	??3@YAXPAX@Z:PROC				; operator delete
EXTRN	_atexit:PROC
EXTRN	__imp___wassert:PROC
EXTRN	?SetThreadTrackingInformation@@YAXPBDI0@Z:PROC	; SetThreadTrackingInformation
EXTRN	??0DAGameModeFactoryClass@@QAE@PBD00@Z:PROC	; DAGameModeFactoryClass::DAGameModeFactoryClass
EXTRN	??_EDAGameModeFactoryClass@@UAEPAXI@Z:PROC	; DAGameModeFactoryClass::`vector deleting destructor'
EXTRN	??_EDAGameModeClass@@UAEPAXI@Z:PROC		; DAGameModeClass::`vector deleting destructor'
EXTRN	??_EDANullGameModeClass@@UAEPAXI@Z:PROC		; DANullGameModeClass::`vector deleting destructor'
EXTRN	??_E?$DAGameModeRegistrant@VDANullGameModeClass@@@@UAEPAXI@Z:PROC ; DAGameModeRegistrant<DANullGameModeClass>::`vector deleting destructor'
EXTRN	??_EDANullGameModeRegistrant@@UAEPAXI@Z:PROC	; DANullGameModeRegistrant::`vector deleting destructor'
EXTRN	??_7type_info@@6B@:QWORD			; type_info::`vftable'
_BSS	SEGMENT
_NullGameModeRegistrant DB 014H DUP (?)
_BSS	ENDS
CRT$XCU	SEGMENT
_NullGameModeRegistrant$initializer$ DD FLAT:??__ENullGameModeRegistrant@@YAXXZ
CRT$XCU	ENDS
;	COMDAT ??_R4?$DAGameModeRegistrant@VDANullGameModeClass@@@@6B@
rdata$r	SEGMENT
??_R4?$DAGameModeRegistrant@VDANullGameModeClass@@@@6B@ DD 00H ; DAGameModeRegistrant<DANullGameModeClass>::`RTTI Complete Object Locator'
	DD	00H
	DD	00H
	DD	FLAT:??_R0?AV?$DAGameModeRegistrant@VDANullGameModeClass@@@@@8
	DD	FLAT:??_R3?$DAGameModeRegistrant@VDANullGameModeClass@@@@8
rdata$r	ENDS
;	COMDAT ??_R2?$DAGameModeRegistrant@VDANullGameModeClass@@@@8
rdata$r	SEGMENT
??_R2?$DAGameModeRegistrant@VDANullGameModeClass@@@@8 DD FLAT:??_R1A@?0A@EA@?$DAGameModeRegistrant@VDANullGameModeClass@@@@8 ; DAGameModeRegistrant<DANullGameModeClass>::`RTTI Base Class Array'
	DD	FLAT:??_R1A@?0A@EA@DAGameModeFactoryClass@@8
rdata$r	ENDS
;	COMDAT ??_R3?$DAGameModeRegistrant@VDANullGameModeClass@@@@8
rdata$r	SEGMENT
??_R3?$DAGameModeRegistrant@VDANullGameModeClass@@@@8 DD 00H ; DAGameModeRegistrant<DANullGameModeClass>::`RTTI Class Hierarchy Descriptor'
	DD	00H
	DD	02H
	DD	FLAT:??_R2?$DAGameModeRegistrant@VDANullGameModeClass@@@@8
rdata$r	ENDS
;	COMDAT ??_R0?AV?$DAGameModeRegistrant@VDANullGameModeClass@@@@@8
_DATA	SEGMENT
??_R0?AV?$DAGameModeRegistrant@VDANullGameModeClass@@@@@8 DD FLAT:??_7type_info@@6B@ ; DAGameModeRegistrant<DANullGameModeClass> `RTTI Type Descriptor'
	DD	00H
	DB	'.?AV?$DAGameModeRegistrant@VDANullGameModeClass@@@@', 00H
_DATA	ENDS
;	COMDAT ??_R1A@?0A@EA@?$DAGameModeRegistrant@VDANullGameModeClass@@@@8
rdata$r	SEGMENT
??_R1A@?0A@EA@?$DAGameModeRegistrant@VDANullGameModeClass@@@@8 DD FLAT:??_R0?AV?$DAGameModeRegistrant@VDANullGameModeClass@@@@@8 ; DAGameModeRegistrant<DANullGameModeClass>::`RTTI Base Class Descriptor at (0,-1,0,64)'
	DD	01H
	DD	00H
	DD	0ffffffffH
	DD	00H
	DD	040H
	DD	FLAT:??_R3?$DAGameModeRegistrant@VDANullGameModeClass@@@@8
rdata$r	ENDS
;	COMDAT ??_R1A@?0A@EA@DANullGameModeRegistrant@@8
rdata$r	SEGMENT
??_R1A@?0A@EA@DANullGameModeRegistrant@@8 DD FLAT:??_R0?AVDANullGameModeRegistrant@@@8 ; DANullGameModeRegistrant::`RTTI Base Class Descriptor at (0,-1,0,64)'
	DD	02H
	DD	00H
	DD	0ffffffffH
	DD	00H
	DD	040H
	DD	FLAT:??_R3DANullGameModeRegistrant@@8
rdata$r	ENDS
;	COMDAT ??_R2DANullGameModeRegistrant@@8
rdata$r	SEGMENT
??_R2DANullGameModeRegistrant@@8 DD FLAT:??_R1A@?0A@EA@DANullGameModeRegistrant@@8 ; DANullGameModeRegistrant::`RTTI Base Class Array'
	DD	FLAT:??_R1A@?0A@EA@?$DAGameModeRegistrant@VDANullGameModeClass@@@@8
	DD	FLAT:??_R1A@?0A@EA@DAGameModeFactoryClass@@8
rdata$r	ENDS
;	COMDAT ??_R3DANullGameModeRegistrant@@8
rdata$r	SEGMENT
??_R3DANullGameModeRegistrant@@8 DD 00H			; DANullGameModeRegistrant::`RTTI Class Hierarchy Descriptor'
	DD	00H
	DD	03H
	DD	FLAT:??_R2DANullGameModeRegistrant@@8
rdata$r	ENDS
;	COMDAT ??_R0?AVDANullGameModeRegistrant@@@8
_DATA	SEGMENT
??_R0?AVDANullGameModeRegistrant@@@8 DD FLAT:??_7type_info@@6B@ ; DANullGameModeRegistrant `RTTI Type Descriptor'
	DD	00H
	DB	'.?AVDANullGameModeRegistrant@@', 00H
_DATA	ENDS
;	COMDAT ??_R4DANullGameModeRegistrant@@6B@
rdata$r	SEGMENT
??_R4DANullGameModeRegistrant@@6B@ DD 00H		; DANullGameModeRegistrant::`RTTI Complete Object Locator'
	DD	00H
	DD	00H
	DD	FLAT:??_R0?AVDANullGameModeRegistrant@@@8
	DD	FLAT:??_R3DANullGameModeRegistrant@@8
rdata$r	ENDS
;	COMDAT ??_R1A@?0A@EA@DANullGameModeClass@@8
rdata$r	SEGMENT
??_R1A@?0A@EA@DANullGameModeClass@@8 DD FLAT:??_R0?AVDANullGameModeClass@@@8 ; DANullGameModeClass::`RTTI Base Class Descriptor at (0,-1,0,64)'
	DD	01H
	DD	00H
	DD	0ffffffffH
	DD	00H
	DD	040H
	DD	FLAT:??_R3DANullGameModeClass@@8
rdata$r	ENDS
;	COMDAT ??_R2DANullGameModeClass@@8
rdata$r	SEGMENT
??_R2DANullGameModeClass@@8 DD FLAT:??_R1A@?0A@EA@DANullGameModeClass@@8 ; DANullGameModeClass::`RTTI Base Class Array'
	DD	FLAT:??_R1A@?0A@EA@DAGameModeClass@@8
rdata$r	ENDS
;	COMDAT ??_R3DANullGameModeClass@@8
rdata$r	SEGMENT
??_R3DANullGameModeClass@@8 DD 00H			; DANullGameModeClass::`RTTI Class Hierarchy Descriptor'
	DD	00H
	DD	02H
	DD	FLAT:??_R2DANullGameModeClass@@8
rdata$r	ENDS
;	COMDAT ??_R0?AVDANullGameModeClass@@@8
_DATA	SEGMENT
??_R0?AVDANullGameModeClass@@@8 DD FLAT:??_7type_info@@6B@ ; DANullGameModeClass `RTTI Type Descriptor'
	DD	00H
	DB	'.?AVDANullGameModeClass@@', 00H
_DATA	ENDS
;	COMDAT ??_R4DANullGameModeClass@@6B@
rdata$r	SEGMENT
??_R4DANullGameModeClass@@6B@ DD 00H			; DANullGameModeClass::`RTTI Complete Object Locator'
	DD	00H
	DD	00H
	DD	FLAT:??_R0?AVDANullGameModeClass@@@8
	DD	FLAT:??_R3DANullGameModeClass@@8
rdata$r	ENDS
;	COMDAT ??_R1A@?0A@EA@DAGameModeFactoryClass@@8
rdata$r	SEGMENT
??_R1A@?0A@EA@DAGameModeFactoryClass@@8 DD FLAT:??_R0?AVDAGameModeFactoryClass@@@8 ; DAGameModeFactoryClass::`RTTI Base Class Descriptor at (0,-1,0,64)'
	DD	00H
	DD	00H
	DD	0ffffffffH
	DD	00H
	DD	040H
	DD	FLAT:??_R3DAGameModeFactoryClass@@8
rdata$r	ENDS
;	COMDAT ??_R2DAGameModeFactoryClass@@8
rdata$r	SEGMENT
??_R2DAGameModeFactoryClass@@8 DD FLAT:??_R1A@?0A@EA@DAGameModeFactoryClass@@8 ; DAGameModeFactoryClass::`RTTI Base Class Array'
rdata$r	ENDS
;	COMDAT ??_R3DAGameModeFactoryClass@@8
rdata$r	SEGMENT
??_R3DAGameModeFactoryClass@@8 DD 00H			; DAGameModeFactoryClass::`RTTI Class Hierarchy Descriptor'
	DD	00H
	DD	01H
	DD	FLAT:??_R2DAGameModeFactoryClass@@8
rdata$r	ENDS
;	COMDAT ??_R0?AVDAGameModeFactoryClass@@@8
_DATA	SEGMENT
??_R0?AVDAGameModeFactoryClass@@@8 DD FLAT:??_7type_info@@6B@ ; DAGameModeFactoryClass `RTTI Type Descriptor'
	DD	00H
	DB	'.?AVDAGameModeFactoryClass@@', 00H
_DATA	ENDS
;	COMDAT ??_R4DAGameModeFactoryClass@@6B@
rdata$r	SEGMENT
??_R4DAGameModeFactoryClass@@6B@ DD 00H			; DAGameModeFactoryClass::`RTTI Complete Object Locator'
	DD	00H
	DD	00H
	DD	FLAT:??_R0?AVDAGameModeFactoryClass@@@8
	DD	FLAT:??_R3DAGameModeFactoryClass@@8
rdata$r	ENDS
;	COMDAT ??_R1A@?0A@EA@DAGameModeClass@@8
rdata$r	SEGMENT
??_R1A@?0A@EA@DAGameModeClass@@8 DD FLAT:??_R0?AVDAGameModeClass@@@8 ; DAGameModeClass::`RTTI Base Class Descriptor at (0,-1,0,64)'
	DD	00H
	DD	00H
	DD	0ffffffffH
	DD	00H
	DD	040H
	DD	FLAT:??_R3DAGameModeClass@@8
rdata$r	ENDS
;	COMDAT ??_R2DAGameModeClass@@8
rdata$r	SEGMENT
??_R2DAGameModeClass@@8 DD FLAT:??_R1A@?0A@EA@DAGameModeClass@@8 ; DAGameModeClass::`RTTI Base Class Array'
rdata$r	ENDS
;	COMDAT ??_R3DAGameModeClass@@8
rdata$r	SEGMENT
??_R3DAGameModeClass@@8 DD 00H				; DAGameModeClass::`RTTI Class Hierarchy Descriptor'
	DD	00H
	DD	01H
	DD	FLAT:??_R2DAGameModeClass@@8
rdata$r	ENDS
;	COMDAT ??_R0?AVDAGameModeClass@@@8
_DATA	SEGMENT
??_R0?AVDAGameModeClass@@@8 DD FLAT:??_7type_info@@6B@	; DAGameModeClass `RTTI Type Descriptor'
	DD	00H
	DB	'.?AVDAGameModeClass@@', 00H
_DATA	ENDS
;	COMDAT ??_R4DAGameModeClass@@6B@
rdata$r	SEGMENT
??_R4DAGameModeClass@@6B@ DD 00H			; DAGameModeClass::`RTTI Complete Object Locator'
	DD	00H
	DD	00H
	DD	FLAT:??_R0?AVDAGameModeClass@@@8
	DD	FLAT:??_R3DAGameModeClass@@8
rdata$r	ENDS
;	COMDAT ??_C@_1M@HLGKFCJM@?$AAf?$AAa?$AAl?$AAs?$AAe?$AA?$AA@
CONST	SEGMENT
??_C@_1M@HLGKFCJM@?$AAf?$AAa?$AAl?$AAs?$AAe?$AA?$AA@ DB 'f', 00H, 'a', 00H
	DB	'l', 00H, 's', 00H, 'e', 00H, 00H, 00H	; `string'
CONST	ENDS
;	COMDAT ??_C@_1GO@IKKPOACN@?$AAx?$AA?3?$AA?2?$AAg?$AAi?$AAt?$AAh?$AAu?$AAb?$AA?2?$AAr?$AAe?$AAn?$AAe?$AAg?$AAa?$AAd?$AAe?$AA?2?$AAd?$AAr?$AAa?$AAg?$AAo?$AAn?$AAa?$AAd?$AAe?$AA_?$AAr?$AAx?$AAd@
CONST	SEGMENT
??_C@_1GO@IKKPOACN@?$AAx?$AA?3?$AA?2?$AAg?$AAi?$AAt?$AAh?$AAu?$AAb?$AA?2?$AAr?$AAe?$AAn?$AAe?$AAg?$AAa?$AAd?$AAe?$AA?2?$AAd?$AAr?$AAa?$AAg?$AAo?$AAn?$AAa?$AAd?$AAe?$AA_?$AAr?$AAx?$AAd@ DB 'x'
	DB	00H, ':', 00H, '\', 00H, 'g', 00H, 'i', 00H, 't', 00H, 'h', 00H
	DB	'u', 00H, 'b', 00H, '\', 00H, 'r', 00H, 'e', 00H, 'n', 00H, 'e'
	DB	00H, 'g', 00H, 'a', 00H, 'd', 00H, 'e', 00H, '\', 00H, 'd', 00H
	DB	'r', 00H, 'a', 00H, 'g', 00H, 'o', 00H, 'n', 00H, 'a', 00H, 'd'
	DB	00H, 'e', 00H, '_', 00H, 'r', 00H, 'x', 00H, 'd', 00H, '\', 00H
	DB	's', 00H, 'c', 00H, 'r', 00H, 'i', 00H, 'p', 00H, 't', 00H, 's'
	DB	00H, '\', 00H, 'd', 00H, 'a', 00H, '_', 00H, 'g', 00H, 'a', 00H
	DB	'm', 00H, 'e', 00H, 'm', 00H, 'o', 00H, 'd', 00H, 'e', 00H, '.'
	DB	00H, 'h', 00H, 00H, 00H			; `string'
CONST	ENDS
;	COMDAT ??_C@_0DH@LBOBMIDI@x?3?2github?2renegade?2dragonade_rxd@
CONST	SEGMENT
??_C@_0DH@LBOBMIDI@x?3?2github?2renegade?2dragonade_rxd@ DB 'x:\github\re'
	DB	'negade\dragonade_rxd\scripts\da_gamemode.h', 00H ; `string'
CONST	ENDS
;	COMDAT ??_C@_0EB@HGGNACEE@DAGameModeRegistrant?$DMclass?5DANul@
CONST	SEGMENT
??_C@_0EB@HGGNACEE@DAGameModeRegistrant?$DMclass?5DANul@ DB 'DAGameModeRe'
	DB	'gistrant<class DANullGameModeClass>::Create_Instance', 00H ; `string'
CONST	ENDS
;	COMDAT ??_C@_0L@NKMACCB@Deathmatch?$AA@
CONST	SEGMENT
??_C@_0L@NKMACCB@Deathmatch?$AA@ DB 'Deathmatch', 00H	; `string'
CONST	ENDS
;	COMDAT ??_7DANullGameModeRegistrant@@6B@
CONST	SEGMENT
??_7DANullGameModeRegistrant@@6B@ DD FLAT:??_R4DANullGameModeRegistrant@@6B@ ; DANullGameModeRegistrant::`vftable'
	DD	FLAT:??_EDANullGameModeRegistrant@@UAEPAXI@Z
	DD	FLAT:?Create_Instance@?$DAGameModeRegistrant@VDANullGameModeClass@@@@UAEPAVDAGameModeClass@@XZ
CONST	ENDS
;	COMDAT ??_7?$DAGameModeRegistrant@VDANullGameModeClass@@@@6B@
CONST	SEGMENT
??_7?$DAGameModeRegistrant@VDANullGameModeClass@@@@6B@ DD FLAT:??_R4?$DAGameModeRegistrant@VDANullGameModeClass@@@@6B@ ; DAGameModeRegistrant<DANullGameModeClass>::`vftable'
	DD	FLAT:??_E?$DAGameModeRegistrant@VDANullGameModeClass@@@@UAEPAXI@Z
	DD	FLAT:?Create_Instance@?$DAGameModeRegistrant@VDANullGameModeClass@@@@UAEPAVDAGameModeClass@@XZ
CONST	ENDS
;	COMDAT ??_7DANullGameModeClass@@6B@
CONST	SEGMENT
??_7DANullGameModeClass@@6B@ DD FLAT:??_R4DANullGameModeClass@@6B@ ; DANullGameModeClass::`vftable'
	DD	FLAT:?Init@DANullGameModeClass@@EAEXXZ
	DD	FLAT:??_EDANullGameModeClass@@UAEPAXI@Z
CONST	ENDS
;	COMDAT ??_7DAGameModeClass@@6B@
CONST	SEGMENT
??_7DAGameModeClass@@6B@ DD FLAT:??_R4DAGameModeClass@@6B@ ; DAGameModeClass::`vftable'
	DD	FLAT:__purecall
	DD	FLAT:??_EDAGameModeClass@@UAEPAXI@Z
CONST	ENDS
;	COMDAT ??_7DAGameModeFactoryClass@@6B@
CONST	SEGMENT
??_7DAGameModeFactoryClass@@6B@ DD FLAT:??_R4DAGameModeFactoryClass@@6B@ ; DAGameModeFactoryClass::`vftable'
	DD	FLAT:??_EDAGameModeFactoryClass@@UAEPAXI@Z
	DD	FLAT:__purecall
CONST	ENDS
; Function compile flags: /Odtp /ZI
;	COMDAT ??__FNullGameModeRegistrant@@YAXXZ
text$yd	SEGMENT
??__FNullGameModeRegistrant@@YAXXZ PROC			; `dynamic atexit destructor for 'NullGameModeRegistrant'', COMDAT
	push	ebp
	mov	ebp, esp
	sub	esp, 64					; 00000040H
	push	ebx
	push	esi
	push	edi
	mov	ecx, OFFSET _NullGameModeRegistrant
	call	??1DANullGameModeRegistrant@@UAE@XZ
	pop	edi
	pop	esi
	pop	ebx
	mov	esp, ebp
	pop	ebp
	ret	0
??__FNullGameModeRegistrant@@YAXXZ ENDP			; `dynamic atexit destructor for 'NullGameModeRegistrant''
text$yd	ENDS
; Function compile flags: /Odtp /ZI
; File x:\github\renegade\dragonade_rxd\scripts\da_deathmatch.cpp
;	COMDAT ??__ENullGameModeRegistrant@@YAXXZ
text$yc	SEGMENT
??__ENullGameModeRegistrant@@YAXXZ PROC			; `dynamic initializer for 'NullGameModeRegistrant'', COMDAT

; 18   : Register_Null_Game_Mode("Deathmatch","Deathmatch");

	push	ebp
	mov	ebp, esp
	sub	esp, 64					; 00000040H
	push	ebx
	push	esi
	push	edi
	push	OFFSET ??_C@_0L@NKMACCB@Deathmatch?$AA@
	push	OFFSET ??_C@_0L@NKMACCB@Deathmatch?$AA@
	mov	ecx, OFFSET _NullGameModeRegistrant
	call	??0DANullGameModeRegistrant@@QAE@PBD0@Z	; DANullGameModeRegistrant::DANullGameModeRegistrant
	push	OFFSET ??__FNullGameModeRegistrant@@YAXXZ ; `dynamic atexit destructor for 'NullGameModeRegistrant''
	call	_atexit
	add	esp, 4
	pop	edi
	pop	esi
	pop	ebx
	mov	esp, ebp
	pop	ebp
	ret	0
??__ENullGameModeRegistrant@@YAXXZ ENDP			; `dynamic initializer for 'NullGameModeRegistrant''
text$yc	ENDS
; Function compile flags: /Odtp /ZI
;	COMDAT ??_GDANullGameModeRegistrant@@UAEPAXI@Z
_TEXT	SEGMENT
_this$ = -4						; size = 4
___flags$ = 8						; size = 4
??_GDANullGameModeRegistrant@@UAEPAXI@Z PROC		; DANullGameModeRegistrant::`scalar deleting destructor', COMDAT
; _this$ = ecx
	push	ebp
	mov	ebp, esp
	sub	esp, 68					; 00000044H
	push	ebx
	push	esi
	push	edi
	mov	DWORD PTR _this$[ebp], ecx
	mov	ecx, DWORD PTR _this$[ebp]
	call	??1DANullGameModeRegistrant@@UAE@XZ
	mov	eax, DWORD PTR ___flags$[ebp]
	and	eax, 1
	je	SHORT $LN1@scalar
	mov	eax, DWORD PTR _this$[ebp]
	push	eax
	call	??3@YAXPAX@Z				; operator delete
	add	esp, 4
$LN1@scalar:
	mov	eax, DWORD PTR _this$[ebp]
	pop	edi
	pop	esi
	pop	ebx
	mov	esp, ebp
	pop	ebp
	ret	4
??_GDANullGameModeRegistrant@@UAEPAXI@Z ENDP		; DANullGameModeRegistrant::`scalar deleting destructor'
_TEXT	ENDS
; Function compile flags: /Odtp /ZI
;	COMDAT ??1DANullGameModeRegistrant@@UAE@XZ
_TEXT	SEGMENT
_this$ = -4						; size = 4
??1DANullGameModeRegistrant@@UAE@XZ PROC		; DANullGameModeRegistrant::~DANullGameModeRegistrant, COMDAT
; _this$ = ecx
	push	ebp
	mov	ebp, esp
	sub	esp, 68					; 00000044H
	push	ebx
	push	esi
	push	edi
	mov	DWORD PTR _this$[ebp], ecx
	mov	ecx, DWORD PTR _this$[ebp]
	call	??1?$DAGameModeRegistrant@VDANullGameModeClass@@@@UAE@XZ
	pop	edi
	pop	esi
	pop	ebx
	mov	esp, ebp
	pop	ebp
	ret	0
??1DANullGameModeRegistrant@@UAE@XZ ENDP		; DANullGameModeRegistrant::~DANullGameModeRegistrant
_TEXT	ENDS
; Function compile flags: /Odtp /ZI
; File x:\github\renegade\dragonade_rxd\scripts\da_gamemode.h
;	COMDAT ??0DANullGameModeRegistrant@@QAE@PBD0@Z
_TEXT	SEGMENT
_this$ = -4						; size = 4
_ShortName$ = 8						; size = 4
_LongName$ = 12						; size = 4
??0DANullGameModeRegistrant@@QAE@PBD0@Z PROC		; DANullGameModeRegistrant::DANullGameModeRegistrant, COMDAT
; _this$ = ecx

; 84   : 	DANullGameModeRegistrant(const char *ShortName,const char *LongName) : DAGameModeRegistrant<DANullGameModeClass>(ShortName,LongName,0) { }

	push	ebp
	mov	ebp, esp
	sub	esp, 68					; 00000044H
	push	ebx
	push	esi
	push	edi
	mov	DWORD PTR _this$[ebp], ecx
	push	0
	mov	eax, DWORD PTR _LongName$[ebp]
	push	eax
	mov	ecx, DWORD PTR _ShortName$[ebp]
	push	ecx
	mov	ecx, DWORD PTR _this$[ebp]
	call	??0?$DAGameModeRegistrant@VDANullGameModeClass@@@@QAE@PBD00@Z ; DAGameModeRegistrant<DANullGameModeClass>::DAGameModeRegistrant<DANullGameModeClass>
	mov	eax, DWORD PTR _this$[ebp]
	mov	DWORD PTR [eax], OFFSET ??_7DANullGameModeRegistrant@@6B@
	mov	eax, DWORD PTR _this$[ebp]
	pop	edi
	pop	esi
	pop	ebx
	mov	esp, ebp
	pop	ebp
	ret	8
??0DANullGameModeRegistrant@@QAE@PBD0@Z ENDP		; DANullGameModeRegistrant::DANullGameModeRegistrant
_TEXT	ENDS
; Function compile flags: /Odtp /ZI
;	COMDAT ??_G?$DAGameModeRegistrant@VDANullGameModeClass@@@@UAEPAXI@Z
_TEXT	SEGMENT
_this$ = -4						; size = 4
___flags$ = 8						; size = 4
??_G?$DAGameModeRegistrant@VDANullGameModeClass@@@@UAEPAXI@Z PROC ; DAGameModeRegistrant<DANullGameModeClass>::`scalar deleting destructor', COMDAT
; _this$ = ecx
	push	ebp
	mov	ebp, esp
	sub	esp, 68					; 00000044H
	push	ebx
	push	esi
	push	edi
	mov	DWORD PTR _this$[ebp], ecx
	mov	ecx, DWORD PTR _this$[ebp]
	call	??1?$DAGameModeRegistrant@VDANullGameModeClass@@@@UAE@XZ
	mov	eax, DWORD PTR ___flags$[ebp]
	and	eax, 1
	je	SHORT $LN1@scalar
	mov	eax, DWORD PTR _this$[ebp]
	push	eax
	call	??3@YAXPAX@Z				; operator delete
	add	esp, 4
$LN1@scalar:
	mov	eax, DWORD PTR _this$[ebp]
	pop	edi
	pop	esi
	pop	ebx
	mov	esp, ebp
	pop	ebp
	ret	4
??_G?$DAGameModeRegistrant@VDANullGameModeClass@@@@UAEPAXI@Z ENDP ; DAGameModeRegistrant<DANullGameModeClass>::`scalar deleting destructor'
_TEXT	ENDS
; Function compile flags: /Odtp /ZI
;	COMDAT ??1?$DAGameModeRegistrant@VDANullGameModeClass@@@@UAE@XZ
_TEXT	SEGMENT
_this$ = -4						; size = 4
??1?$DAGameModeRegistrant@VDANullGameModeClass@@@@UAE@XZ PROC ; DAGameModeRegistrant<DANullGameModeClass>::~DAGameModeRegistrant<DANullGameModeClass>, COMDAT
; _this$ = ecx
	push	ebp
	mov	ebp, esp
	sub	esp, 68					; 00000044H
	push	ebx
	push	esi
	push	edi
	mov	DWORD PTR _this$[ebp], ecx
	mov	ecx, DWORD PTR _this$[ebp]
	call	??1DAGameModeFactoryClass@@UAE@XZ	; DAGameModeFactoryClass::~DAGameModeFactoryClass
	pop	edi
	pop	esi
	pop	ebx
	mov	esp, ebp
	pop	ebp
	ret	0
??1?$DAGameModeRegistrant@VDANullGameModeClass@@@@UAE@XZ ENDP ; DAGameModeRegistrant<DANullGameModeClass>::~DAGameModeRegistrant<DANullGameModeClass>
_TEXT	ENDS
; Function compile flags: /Odtp /ZI
; File x:\github\renegade\dragonade_rxd\scripts\da_gamemode.h
;	COMDAT ?Create_Instance@?$DAGameModeRegistrant@VDANullGameModeClass@@@@UAEPAVDAGameModeClass@@XZ
_TEXT	SEGMENT
tv91 = -80						; size = 4
tv93 = -76						; size = 4
$T1 = -72						; size = 4
_this$ = -4						; size = 4
?Create_Instance@?$DAGameModeRegistrant@VDANullGameModeClass@@@@UAEPAVDAGameModeClass@@XZ PROC ; DAGameModeRegistrant<DANullGameModeClass>::Create_Instance, COMDAT
; _this$ = ecx

; 68   : 	virtual DAGameModeClass *Create_Instance() {

	push	ebp
	mov	ebp, esp
	sub	esp, 80					; 00000050H
	push	ebx
	push	esi
	push	edi
	mov	DWORD PTR _this$[ebp], ecx

; 69   : 		if (!Instance) {

	mov	eax, DWORD PTR _this$[ebp]
	cmp	DWORD PTR [eax+16], 0
	jne	$LN1@Create_Ins

; 70   : 			Instance = new T;

	push	OFFSET ??_C@_0EB@HGGNACEE@DAGameModeRegistrant?$DMclass?5DANul@
	push	70					; 00000046H
	push	OFFSET ??_C@_0DH@LBOBMIDI@x?3?2github?2renegade?2dragonade_rxd@
	call	?SetThreadTrackingInformation@@YAXPBDI0@Z ; SetThreadTrackingInformation
	add	esp, 12					; 0000000cH
	xor	eax, eax
	je	SHORT $LN7@Create_Ins
	xor	ecx, ecx
	jne	SHORT $LN4@Create_Ins
	push	70					; 00000046H
	push	OFFSET ??_C@_1GO@IKKPOACN@?$AAx?$AA?3?$AA?2?$AAg?$AAi?$AAt?$AAh?$AAu?$AAb?$AA?2?$AAr?$AAe?$AAn?$AAe?$AAg?$AAa?$AAd?$AAe?$AA?2?$AAd?$AAr?$AAa?$AAg?$AAo?$AAn?$AAa?$AAd?$AAe?$AA_?$AAr?$AAx?$AAd@
	push	OFFSET ??_C@_1M@HLGKFCJM@?$AAf?$AAa?$AAl?$AAs?$AAe?$AA?$AA@
	call	DWORD PTR __imp___wassert
	add	esp, 12					; 0000000cH
$LN4@Create_Ins:
	mov	DWORD PTR tv93[ebp], 0
	jmp	SHORT $LN8@Create_Ins
$LN7@Create_Ins:
	push	8
	call	??2@YAPAXI@Z				; operator new
	add	esp, 4
	mov	DWORD PTR $T1[ebp], eax
	cmp	DWORD PTR $T1[ebp], 0
	je	SHORT $LN5@Create_Ins
	mov	ecx, DWORD PTR $T1[ebp]
	call	??0DANullGameModeClass@@QAE@XZ
	mov	DWORD PTR tv91[ebp], eax
	jmp	SHORT $LN6@Create_Ins
$LN5@Create_Ins:
	mov	DWORD PTR tv91[ebp], 0
$LN6@Create_Ins:
	mov	eax, DWORD PTR tv91[ebp]
	mov	DWORD PTR tv93[ebp], eax
$LN8@Create_Ins:
	mov	ecx, DWORD PTR _this$[ebp]
	mov	edx, DWORD PTR tv93[ebp]
	mov	DWORD PTR [ecx+16], edx

; 71   : 			Instance->Set_Factory(this);

	mov	eax, DWORD PTR _this$[ebp]
	push	eax
	mov	ecx, DWORD PTR _this$[ebp]
	mov	ecx, DWORD PTR [ecx+16]
	call	?Set_Factory@DAGameModeClass@@QAEXPBVDAGameModeFactoryClass@@@Z ; DAGameModeClass::Set_Factory

; 72   : 			Instance->Init();

	mov	eax, DWORD PTR _this$[ebp]
	mov	ecx, DWORD PTR [eax+16]
	mov	edx, DWORD PTR _this$[ebp]
	mov	eax, DWORD PTR [ecx]
	mov	ecx, DWORD PTR [edx+16]
	mov	edx, DWORD PTR [eax]
	call	edx
$LN1@Create_Ins:

; 73   : 		}
; 74   : 		return Instance;

	mov	eax, DWORD PTR _this$[ebp]
	mov	eax, DWORD PTR [eax+16]

; 75   : 	}

	pop	edi
	pop	esi
	pop	ebx
	mov	esp, ebp
	pop	ebp
	ret	0
?Create_Instance@?$DAGameModeRegistrant@VDANullGameModeClass@@@@UAEPAVDAGameModeClass@@XZ ENDP ; DAGameModeRegistrant<DANullGameModeClass>::Create_Instance
_TEXT	ENDS
; Function compile flags: /Odtp /ZI
; File x:\github\renegade\dragonade_rxd\scripts\da_gamemode.h
;	COMDAT ??0?$DAGameModeRegistrant@VDANullGameModeClass@@@@QAE@PBD00@Z
_TEXT	SEGMENT
_this$ = -4						; size = 4
_ShortName$ = 8						; size = 4
_LongName$ = 12						; size = 4
_RequiredData$ = 16					; size = 4
??0?$DAGameModeRegistrant@VDANullGameModeClass@@@@QAE@PBD00@Z PROC ; DAGameModeRegistrant<DANullGameModeClass>::DAGameModeRegistrant<DANullGameModeClass>, COMDAT
; _this$ = ecx

; 67   : 	DAGameModeRegistrant(const char *ShortName,const char *LongName,const char *RequiredData = 0) : DAGameModeFactoryClass(ShortName,LongName,RequiredData) { }

	push	ebp
	mov	ebp, esp
	sub	esp, 68					; 00000044H
	push	ebx
	push	esi
	push	edi
	mov	DWORD PTR _this$[ebp], ecx
	mov	eax, DWORD PTR _RequiredData$[ebp]
	push	eax
	mov	ecx, DWORD PTR _LongName$[ebp]
	push	ecx
	mov	edx, DWORD PTR _ShortName$[ebp]
	push	edx
	mov	ecx, DWORD PTR _this$[ebp]
	call	??0DAGameModeFactoryClass@@QAE@PBD00@Z	; DAGameModeFactoryClass::DAGameModeFactoryClass
	mov	eax, DWORD PTR _this$[ebp]
	mov	DWORD PTR [eax], OFFSET ??_7?$DAGameModeRegistrant@VDANullGameModeClass@@@@6B@
	mov	eax, DWORD PTR _this$[ebp]
	pop	edi
	pop	esi
	pop	ebx
	mov	esp, ebp
	pop	ebp
	ret	12					; 0000000cH
??0?$DAGameModeRegistrant@VDANullGameModeClass@@@@QAE@PBD00@Z ENDP ; DAGameModeRegistrant<DANullGameModeClass>::DAGameModeRegistrant<DANullGameModeClass>
_TEXT	ENDS
; Function compile flags: /Odtp /ZI
;	COMDAT ??_GDANullGameModeClass@@UAEPAXI@Z
_TEXT	SEGMENT
_this$ = -4						; size = 4
___flags$ = 8						; size = 4
??_GDANullGameModeClass@@UAEPAXI@Z PROC			; DANullGameModeClass::`scalar deleting destructor', COMDAT
; _this$ = ecx
	push	ebp
	mov	ebp, esp
	sub	esp, 68					; 00000044H
	push	ebx
	push	esi
	push	edi
	mov	DWORD PTR _this$[ebp], ecx
	mov	ecx, DWORD PTR _this$[ebp]
	call	??1DANullGameModeClass@@UAE@XZ
	mov	eax, DWORD PTR ___flags$[ebp]
	and	eax, 1
	je	SHORT $LN1@scalar
	mov	eax, DWORD PTR _this$[ebp]
	push	eax
	call	??3@YAXPAX@Z				; operator delete
	add	esp, 4
$LN1@scalar:
	mov	eax, DWORD PTR _this$[ebp]
	pop	edi
	pop	esi
	pop	ebx
	mov	esp, ebp
	pop	ebp
	ret	4
??_GDANullGameModeClass@@UAEPAXI@Z ENDP			; DANullGameModeClass::`scalar deleting destructor'
_TEXT	ENDS
; Function compile flags: /Odtp /ZI
;	COMDAT ??1DANullGameModeClass@@UAE@XZ
_TEXT	SEGMENT
_this$ = -4						; size = 4
??1DANullGameModeClass@@UAE@XZ PROC			; DANullGameModeClass::~DANullGameModeClass, COMDAT
; _this$ = ecx
	push	ebp
	mov	ebp, esp
	sub	esp, 68					; 00000044H
	push	ebx
	push	esi
	push	edi
	mov	DWORD PTR _this$[ebp], ecx
	mov	ecx, DWORD PTR _this$[ebp]
	call	??1DAGameModeClass@@UAE@XZ		; DAGameModeClass::~DAGameModeClass
	pop	edi
	pop	esi
	pop	ebx
	mov	esp, ebp
	pop	ebp
	ret	0
??1DANullGameModeClass@@UAE@XZ ENDP			; DANullGameModeClass::~DANullGameModeClass
_TEXT	ENDS
; Function compile flags: /Odtp /ZI
;	COMDAT ??0DANullGameModeClass@@QAE@XZ
_TEXT	SEGMENT
_this$ = -4						; size = 4
??0DANullGameModeClass@@QAE@XZ PROC			; DANullGameModeClass::DANullGameModeClass, COMDAT
; _this$ = ecx
	push	ebp
	mov	ebp, esp
	sub	esp, 68					; 00000044H
	push	ebx
	push	esi
	push	edi
	mov	DWORD PTR _this$[ebp], ecx
	mov	ecx, DWORD PTR _this$[ebp]
	call	??0DAGameModeClass@@QAE@XZ
	mov	eax, DWORD PTR _this$[ebp]
	mov	DWORD PTR [eax], OFFSET ??_7DANullGameModeClass@@6B@
	mov	eax, DWORD PTR _this$[ebp]
	pop	edi
	pop	esi
	pop	ebx
	mov	esp, ebp
	pop	ebp
	ret	0
??0DANullGameModeClass@@QAE@XZ ENDP			; DANullGameModeClass::DANullGameModeClass
_TEXT	ENDS
; Function compile flags: /Odtp /ZI
; File x:\github\renegade\dragonade_rxd\scripts\da_gamemode.h
;	COMDAT ?Init@DANullGameModeClass@@EAEXXZ
_TEXT	SEGMENT
_this$ = -4						; size = 4
?Init@DANullGameModeClass@@EAEXXZ PROC			; DANullGameModeClass::Init, COMDAT
; _this$ = ecx

; 79   : 	virtual void Init() { }

	push	ebp
	mov	ebp, esp
	sub	esp, 68					; 00000044H
	push	ebx
	push	esi
	push	edi
	mov	DWORD PTR _this$[ebp], ecx
	pop	edi
	pop	esi
	pop	ebx
	mov	esp, ebp
	pop	ebp
	ret	0
?Init@DANullGameModeClass@@EAEXXZ ENDP			; DANullGameModeClass::Init
_TEXT	ENDS
; Function compile flags: /Odtp /ZI
;	COMDAT ??_GDAGameModeClass@@UAEPAXI@Z
_TEXT	SEGMENT
_this$ = -4						; size = 4
___flags$ = 8						; size = 4
??_GDAGameModeClass@@UAEPAXI@Z PROC			; DAGameModeClass::`scalar deleting destructor', COMDAT
; _this$ = ecx
	push	ebp
	mov	ebp, esp
	sub	esp, 68					; 00000044H
	push	ebx
	push	esi
	push	edi
	mov	DWORD PTR _this$[ebp], ecx
	mov	ecx, DWORD PTR _this$[ebp]
	call	??1DAGameModeClass@@UAE@XZ		; DAGameModeClass::~DAGameModeClass
	mov	eax, DWORD PTR ___flags$[ebp]
	and	eax, 1
	je	SHORT $LN1@scalar
	mov	eax, DWORD PTR _this$[ebp]
	push	eax
	call	??3@YAXPAX@Z				; operator delete
	add	esp, 4
$LN1@scalar:
	mov	eax, DWORD PTR _this$[ebp]
	pop	edi
	pop	esi
	pop	ebx
	mov	esp, ebp
	pop	ebp
	ret	4
??_GDAGameModeClass@@UAEPAXI@Z ENDP			; DAGameModeClass::`scalar deleting destructor'
_TEXT	ENDS
; Function compile flags: /Odtp /ZI
;	COMDAT ??0DAGameModeClass@@QAE@XZ
_TEXT	SEGMENT
_this$ = -4						; size = 4
??0DAGameModeClass@@QAE@XZ PROC				; DAGameModeClass::DAGameModeClass, COMDAT
; _this$ = ecx
	push	ebp
	mov	ebp, esp
	sub	esp, 68					; 00000044H
	push	ebx
	push	esi
	push	edi
	mov	DWORD PTR _this$[ebp], ecx
	mov	eax, DWORD PTR _this$[ebp]
	mov	DWORD PTR [eax], OFFSET ??_7DAGameModeClass@@6B@
	mov	eax, DWORD PTR _this$[ebp]
	pop	edi
	pop	esi
	pop	ebx
	mov	esp, ebp
	pop	ebp
	ret	0
??0DAGameModeClass@@QAE@XZ ENDP				; DAGameModeClass::DAGameModeClass
_TEXT	ENDS
; Function compile flags: /Odtp /ZI
; File x:\github\renegade\dragonade_rxd\scripts\da_gamemode.h
;	COMDAT ??1DAGameModeClass@@UAE@XZ
_TEXT	SEGMENT
_this$ = -4						; size = 4
??1DAGameModeClass@@UAE@XZ PROC				; DAGameModeClass::~DAGameModeClass, COMDAT
; _this$ = ecx

; 59   : 	virtual ~DAGameModeClass() { }

	push	ebp
	mov	ebp, esp
	sub	esp, 68					; 00000044H
	push	ebx
	push	esi
	push	edi
	mov	DWORD PTR _this$[ebp], ecx
	mov	eax, DWORD PTR _this$[ebp]
	mov	DWORD PTR [eax], OFFSET ??_7DAGameModeClass@@6B@
	pop	edi
	pop	esi
	pop	ebx
	mov	esp, ebp
	pop	ebp
	ret	0
??1DAGameModeClass@@UAE@XZ ENDP				; DAGameModeClass::~DAGameModeClass
_TEXT	ENDS
; Function compile flags: /Odtp /ZI
; File x:\github\renegade\dragonade_rxd\scripts\da_gamemode.h
;	COMDAT ?Set_Factory@DAGameModeClass@@QAEXPBVDAGameModeFactoryClass@@@Z
_TEXT	SEGMENT
_this$ = -4						; size = 4
_Factory$ = 8						; size = 4
?Set_Factory@DAGameModeClass@@QAEXPBVDAGameModeFactoryClass@@@Z PROC ; DAGameModeClass::Set_Factory, COMDAT
; _this$ = ecx

; 55   : 	inline void Set_Factory(const DAGameModeFactoryClass *Factory) {

	push	ebp
	mov	ebp, esp
	sub	esp, 68					; 00000044H
	push	ebx
	push	esi
	push	edi
	mov	DWORD PTR _this$[ebp], ecx

; 56   : 		this->Factory = Factory;

	mov	eax, DWORD PTR _this$[ebp]
	mov	ecx, DWORD PTR _Factory$[ebp]
	mov	DWORD PTR [eax+4], ecx

; 57   : 	}

	pop	edi
	pop	esi
	pop	ebx
	mov	esp, ebp
	pop	ebp
	ret	4
?Set_Factory@DAGameModeClass@@QAEXPBVDAGameModeFactoryClass@@@Z ENDP ; DAGameModeClass::Set_Factory
_TEXT	ENDS
; Function compile flags: /Odtp /ZI
;	COMDAT ??_GDAGameModeFactoryClass@@UAEPAXI@Z
_TEXT	SEGMENT
_this$ = -4						; size = 4
___flags$ = 8						; size = 4
??_GDAGameModeFactoryClass@@UAEPAXI@Z PROC		; DAGameModeFactoryClass::`scalar deleting destructor', COMDAT
; _this$ = ecx
	push	ebp
	mov	ebp, esp
	sub	esp, 68					; 00000044H
	push	ebx
	push	esi
	push	edi
	mov	DWORD PTR _this$[ebp], ecx
	mov	ecx, DWORD PTR _this$[ebp]
	call	??1DAGameModeFactoryClass@@UAE@XZ	; DAGameModeFactoryClass::~DAGameModeFactoryClass
	mov	eax, DWORD PTR ___flags$[ebp]
	and	eax, 1
	je	SHORT $LN1@scalar
	mov	eax, DWORD PTR _this$[ebp]
	push	eax
	call	??3@YAXPAX@Z				; operator delete
	add	esp, 4
$LN1@scalar:
	mov	eax, DWORD PTR _this$[ebp]
	pop	edi
	pop	esi
	pop	ebx
	mov	esp, ebp
	pop	ebp
	ret	4
??_GDAGameModeFactoryClass@@UAEPAXI@Z ENDP		; DAGameModeFactoryClass::`scalar deleting destructor'
_TEXT	ENDS
; Function compile flags: /Odtp /ZI
; File x:\github\renegade\dragonade_rxd\scripts\da_gamemode.h
;	COMDAT ??1DAGameModeFactoryClass@@UAE@XZ
_TEXT	SEGMENT
_this$ = -4						; size = 4
??1DAGameModeFactoryClass@@UAE@XZ PROC			; DAGameModeFactoryClass::~DAGameModeFactoryClass, COMDAT
; _this$ = ecx

; 22   : 	virtual ~DAGameModeFactoryClass() { }

	push	ebp
	mov	ebp, esp
	sub	esp, 68					; 00000044H
	push	ebx
	push	esi
	push	edi
	mov	DWORD PTR _this$[ebp], ecx
	mov	eax, DWORD PTR _this$[ebp]
	mov	DWORD PTR [eax], OFFSET ??_7DAGameModeFactoryClass@@6B@
	pop	edi
	pop	esi
	pop	ebx
	mov	esp, ebp
	pop	ebp
	ret	0
??1DAGameModeFactoryClass@@UAE@XZ ENDP			; DAGameModeFactoryClass::~DAGameModeFactoryClass
_TEXT	ENDS
END
