; Listing generated by Microsoft (R) Optimizing Compiler Version 17.00.61219.0 

	TITLE	X:\GitHub\Renegade\Dragonade_RxD\scripts\da_genericcrates.cpp
	.686P
	.XMM
	include listing.inc
	.model	flat

INCLUDELIB MSVCRTD
INCLUDELIB OLDNAMES

PUBLIC	??_C@_0BI@KOBJCCHA@DAUAVCrateObserverClass?$AA@	; `string'
CONST	SEGMENT
_PowerOnSounds DB 'M00EVAN_DSGN0007I1EVAN_snd.wav', 00H
	ORG $+19
	DB	'M00EVAG_DSGN0003I1EVAG_snd.wav', 00H
	ORG $+19
	DB	'M00EVAN_DSGN0006I1EVAN_snd.wav', 00H
	ORG $+19
	DB	'M00EVAG_DSGN0001I1EVAG_snd.wav', 00H
	ORG $+19
_PowerOffSounds DB 'M00EVAN_DSGN0069I1EVAN_snd.wav', 00H
	ORG $+19
	DB	'M00EVAG_DSGN0065I1EVAG_snd.wav', 00H
	ORG $+19
	DB	'M00EVAN_DSGN0068I1EVAN_snd.wav', 00H
	ORG $+19
	DB	'M00EVAG_DSGN0064I1EVAG_snd.wav', 00H
	ORG $+19
_DONT_MOVE_ARRIVED_DIST DD 0447a0000r		; 1000
CONST	ENDS
;	COMDAT ??_C@_0BI@KOBJCCHA@DAUAVCrateObserverClass?$AA@
CONST	SEGMENT
??_C@_0BI@KOBJCCHA@DAUAVCrateObserverClass?$AA@ DB 'DAUAVCrateObserverCla'
	DB	'ss', 00H					; `string'
CONST	ENDS
_DATA	SEGMENT
_DAUAVCrateObserverName DD FLAT:??_C@_0BI@KOBJCCHA@DAUAVCrateObserverClass?$AA@
_DATA	ENDS
PUBLIC	??_H@YGXPAXIHP6EPAX0@Z@Z			; `vector constructor iterator'
PUBLIC	??_I@YGXPAXIHP6EX0@Z@Z				; `vector destructor iterator'
PUBLIC	_acosf
PUBLIC	_asinf
PUBLIC	_atanf
PUBLIC	_atan2f
PUBLIC	_ceilf
PUBLIC	_cosf
PUBLIC	_floorf
PUBLIC	_sinf
PUBLIC	_sqrtf
PUBLIC	?acos@@YAMM@Z					; acos
PUBLIC	?asin@@YAMM@Z					; asin
PUBLIC	?atan@@YAMM@Z					; atan
PUBLIC	?atan2@@YAMMM@Z					; atan2
PUBLIC	?cos@@YAMM@Z					; cos
PUBLIC	?sin@@YAMM@Z					; sin
PUBLIC	?sqrt@@YAMM@Z					; sqrt
PUBLIC	??_U@YAPAXIPAX@Z				; operator new[]
PUBLIC	?Fabs@WWMath@@SAMM@Z				; WWMath::Fabs
PUBLIC	?Float_To_Int_Chop@WWMath@@SAHABM@Z		; WWMath::Float_To_Int_Chop
PUBLIC	?Float_To_Int_Floor@WWMath@@SAHABM@Z		; WWMath::Float_To_Int_Floor
PUBLIC	?Cos@WWMath@@SAMM@Z				; WWMath::Cos
PUBLIC	?Sin@WWMath@@SAMM@Z				; WWMath::Sin
PUBLIC	?Sqrt@WWMath@@SAMM@Z				; WWMath::Sqrt
PUBLIC	?Inv_Sqrt@WWMath@@SIMM@Z			; WWMath::Inv_Sqrt
PUBLIC	?Float_To_Long@WWMath@@SAJM@Z			; WWMath::Float_To_Long
PUBLIC	?Fast_Sin@WWMath@@SAMM@Z			; WWMath::Fast_Sin
PUBLIC	?Fast_Inv_Sin@WWMath@@SAMM@Z			; WWMath::Fast_Inv_Sin
PUBLIC	?Fast_Cos@WWMath@@SAMM@Z			; WWMath::Fast_Cos
PUBLIC	?Fast_Inv_Cos@WWMath@@SAMM@Z			; WWMath::Fast_Inv_Cos
PUBLIC	?Fast_Acos@WWMath@@SAMM@Z			; WWMath::Fast_Acos
PUBLIC	?Fast_Asin@WWMath@@SAMM@Z			; WWMath::Fast_Asin
PUBLIC	?Acos@WWMath@@SAMM@Z				; WWMath::Acos
PUBLIC	?Asin@WWMath@@SAMM@Z				; WWMath::Asin
PUBLIC	?Atan@WWMath@@SAMM@Z				; WWMath::Atan
PUBLIC	?Atan2@WWMath@@SAMMM@Z				; WWMath::Atan2
PUBLIC	?Sign@WWMath@@SAMM@Z				; WWMath::Sign
PUBLIC	?Ceil@WWMath@@SAMM@Z				; WWMath::Ceil
PUBLIC	?Floor@WWMath@@SAMM@Z				; WWMath::Floor
PUBLIC	?Fast_Is_Float_Positive@WWMath@@SA_NABM@Z	; WWMath::Fast_Is_Float_Positive
PUBLIC	?Random_Float@WWMath@@SAMMM@Z			; WWMath::Random_Float
PUBLIC	?Clamp@WWMath@@SAMMMM@Z				; WWMath::Clamp
PUBLIC	?Clamp@WWMath@@SANNNN@Z				; WWMath::Clamp
PUBLIC	?Clamp_Int@WWMath@@SAHHHH@Z			; WWMath::Clamp_Int
PUBLIC	?Wrap@WWMath@@SAMMMM@Z				; WWMath::Wrap
PUBLIC	?Wrap@WWMath@@SANNNN@Z				; WWMath::Wrap
PUBLIC	?Min@WWMath@@SAMMM@Z				; WWMath::Min
PUBLIC	?Max@WWMath@@SAMMM@Z				; WWMath::Max
PUBLIC	?Lerp@WWMath@@SAMMMM@Z				; WWMath::Lerp
PUBLIC	?Lerp@WWMath@@SANNNM@Z				; WWMath::Lerp
PUBLIC	?Lerp@WWMath@@SAHHHM@Z				; WWMath::Lerp
PUBLIC	?Float_To_Long@WWMath@@SAJN@Z			; WWMath::Float_To_Long
PUBLIC	?Unit_Float_To_Byte@WWMath@@SAEM@Z		; WWMath::Unit_Float_To_Byte
PUBLIC	?Byte_To_Unit_Float@WWMath@@SAME@Z		; WWMath::Byte_To_Unit_Float
PUBLIC	?Is_Valid_Float@WWMath@@SA_NM@Z			; WWMath::Is_Valid_Float
PUBLIC	?Is_Valid_Double@WWMath@@SA_NN@Z		; WWMath::Is_Valid_Double
PUBLIC	??4WWMath@@QAEAAV0@ABV0@@Z			; WWMath::operator=
PUBLIC	??B?$RefArrayHelper@M$0EAA@@@QAEPAMXZ		; RefArrayHelper<float,1024>::operator float *
PUBLIC	??0Vector3@@QAE@XZ				; Vector3::Vector3
PUBLIC	??0Vector3@@QAE@ABV0@@Z				; Vector3::Vector3
PUBLIC	??0Vector3@@QAE@MMM@Z				; Vector3::Vector3
PUBLIC	??4Vector3@@QAEAAV0@ABV0@@Z			; Vector3::operator=
PUBLIC	?Set@Vector3@@QAEXMMM@Z				; Vector3::Set
PUBLIC	??AVector3@@QAEAAMH@Z				; Vector3::operator[]
PUBLIC	??AVector3@@QBEABMH@Z				; Vector3::operator[]
PUBLIC	?Normalize@Vector3@@QAEXXZ			; Vector3::Normalize
PUBLIC	?Length@Vector3@@QBEMXZ				; Vector3::Length
PUBLIC	?Length2@Vector3@@QBEMXZ			; Vector3::Length2
PUBLIC	??YVector3@@QAEAAV0@ABV0@@Z			; Vector3::operator+=
PUBLIC	??ZVector3@@QAEAAV0@ABV0@@Z			; Vector3::operator-=
PUBLIC	??XVector3@@QAEAAV0@M@Z				; Vector3::operator*=
PUBLIC	??_0Vector3@@QAEAAV0@M@Z			; Vector3::operator/=
PUBLIC	??D@YA?AVVector3@@ABV0@M@Z			; operator*
PUBLIC	??D@YA?AVVector3@@MABV0@@Z			; operator*
PUBLIC	??H@YA?AVVector3@@ABV0@0@Z			; operator+
PUBLIC	??G@YA?AVVector3@@ABV0@0@Z			; operator-
PUBLIC	?Add@Vector3@@SAXABV1@0PAV1@@Z			; Vector3::Add
PUBLIC	?Subtract@Vector3@@SAXABV1@0PAV1@@Z		; Vector3::Subtract
PUBLIC	?Swap@@YAXAAVVector3@@0@Z			; Swap
PUBLIC	??0GameObjObserverClass@@QAE@XZ			; GameObjObserverClass::GameObjObserverClass
PUBLIC	??1GameObjObserverClass@@UAE@XZ			; GameObjObserverClass::~GameObjObserverClass
PUBLIC	?Set_ID@GameObjObserverClass@@QAEXH@Z		; GameObjObserverClass::Set_ID
PUBLIC	?Get_ID@GameObjObserverClass@@QAEHXZ		; GameObjObserverClass::Get_ID
PUBLIC	?Owner@GameObjObserverClass@@UAEPAVScriptableGameObj@@XZ ; GameObjObserverClass::Owner
PUBLIC	??0GameObjObserverClass@@QAE@ABV0@@Z		; GameObjObserverClass::GameObjObserverClass
PUBLIC	??4GameObjObserverClass@@QAEAAV0@ABV0@@Z	; GameObjObserverClass::operator=
PUBLIC	??_GGameObjObserverClass@@UAEPAXI@Z		; GameObjObserverClass::`scalar deleting destructor'
PUBLIC	??_EGameObjObserverClass@@UAEPAXI@Z		; GameObjObserverClass::`vector deleting destructor'
PUBLIC	??1ScriptClass@@UAE@XZ				; ScriptClass::~ScriptClass
PUBLIC	??0ScriptClass@@QAE@XZ				; ScriptClass::ScriptClass
PUBLIC	??0ScriptClass@@QAE@ABV0@@Z			; ScriptClass::ScriptClass
PUBLIC	??4ScriptClass@@QAEAAV0@ABV0@@Z			; ScriptClass::operator=
PUBLIC	??_GScriptClass@@UAEPAXI@Z			; ScriptClass::`scalar deleting destructor'
PUBLIC	??_EScriptClass@@UAEPAXI@Z			; ScriptClass::`vector deleting destructor'
PUBLIC	?SetFactory@ScriptImpClass@@QAEXPAVScriptFactory@@@Z ; ScriptImpClass::SetFactory
PUBLIC	?Created@ScriptImpClass@@UAEXPAVScriptableGameObj@@@Z ; ScriptImpClass::Created
PUBLIC	?Destroyed@ScriptImpClass@@UAEXPAVScriptableGameObj@@@Z ; ScriptImpClass::Destroyed
PUBLIC	?Killed@ScriptImpClass@@UAEXPAVScriptableGameObj@@0@Z ; ScriptImpClass::Killed
PUBLIC	?Damaged@ScriptImpClass@@UAEXPAVScriptableGameObj@@0M@Z ; ScriptImpClass::Damaged
PUBLIC	?Custom@ScriptImpClass@@UAEXPAVScriptableGameObj@@HH0@Z ; ScriptImpClass::Custom
PUBLIC	?Sound_Heard@ScriptImpClass@@UAEXPAVScriptableGameObj@@ABUCombatSound@@@Z ; ScriptImpClass::Sound_Heard
PUBLIC	?Enemy_Seen@ScriptImpClass@@UAEXPAVScriptableGameObj@@0@Z ; ScriptImpClass::Enemy_Seen
PUBLIC	?Action_Complete@ScriptImpClass@@UAEXPAVScriptableGameObj@@HW4ActionCompleteReason@@@Z ; ScriptImpClass::Action_Complete
PUBLIC	?Timer_Expired@ScriptImpClass@@UAEXPAVScriptableGameObj@@H@Z ; ScriptImpClass::Timer_Expired
PUBLIC	?Animation_Complete@ScriptImpClass@@UAEXPAVScriptableGameObj@@PBD@Z ; ScriptImpClass::Animation_Complete
PUBLIC	?Poked@ScriptImpClass@@UAEXPAVScriptableGameObj@@0@Z ; ScriptImpClass::Poked
PUBLIC	?Entered@ScriptImpClass@@UAEXPAVScriptableGameObj@@0@Z ; ScriptImpClass::Entered
PUBLIC	?Exited@ScriptImpClass@@UAEXPAVScriptableGameObj@@0@Z ; ScriptImpClass::Exited
PUBLIC	?Owner@ScriptImpClass@@UAEPAVScriptableGameObj@@XZ ; ScriptImpClass::Owner
PUBLIC	?Get_Owner_Ptr@ScriptImpClass@@UAEPAPAVScriptableGameObj@@XZ ; ScriptImpClass::Get_Owner_Ptr
PUBLIC	?Save_Data@ScriptImpClass@@UAEXAAVScriptSaver@@@Z ; ScriptImpClass::Save_Data
PUBLIC	?Load_Data@ScriptImpClass@@UAEXAAVScriptLoader@@@Z ; ScriptImpClass::Load_Data
PUBLIC	?Register_Auto_Save_Variables@ScriptImpClass@@UAEXXZ ; ScriptImpClass::Register_Auto_Save_Variables
PUBLIC	?Get_Parameter_Count@ScriptImpClass@@QAEHXZ	; ScriptImpClass::Get_Parameter_Count
PUBLIC	?Get_Int_Parameter@ScriptImpClass@@QAEHH@Z	; ScriptImpClass::Get_Int_Parameter
PUBLIC	?Get_Float_Parameter@ScriptImpClass@@QAEMH@Z	; ScriptImpClass::Get_Float_Parameter
PUBLIC	?Get_Bool_Parameter@ScriptImpClass@@QAE_NPBD@Z	; ScriptImpClass::Get_Bool_Parameter
PUBLIC	?Get_Bool_Parameter@ScriptImpClass@@QAE_NH@Z	; ScriptImpClass::Get_Bool_Parameter
PUBLIC	??0ScriptImpClass@@QAE@ABV0@@Z			; ScriptImpClass::ScriptImpClass
PUBLIC	??4ScriptImpClass@@QAEAAV0@ABV0@@Z		; ScriptImpClass::operator=
PUBLIC	??_GScriptImpClass@@UAEPAXI@Z			; ScriptImpClass::`scalar deleting destructor'
PUBLIC	??_EScriptImpClass@@UAEPAXI@Z			; ScriptImpClass::`vector deleting destructor'
PUBLIC	??0ScriptFactory@@QAE@ABV0@@Z			; ScriptFactory::ScriptFactory
PUBLIC	??4ScriptFactory@@QAEAAV0@ABV0@@Z		; ScriptFactory::operator=
PUBLIC	??_GScriptFactory@@UAEPAXI@Z			; ScriptFactory::`scalar deleting destructor'
PUBLIC	??_EScriptFactory@@UAEPAXI@Z			; ScriptFactory::`vector deleting destructor'
PUBLIC	??4ScriptRegistrar@@QAEAAV0@ABV0@@Z		; ScriptRegistrar::operator=
PUBLIC	?Is_Running@ThreadClass@@QAE_NXZ		; ThreadClass::Is_Running
PUBLIC	?Get_Current_Thread_ID@ThreadClass@@SAHXZ	; ThreadClass::Get_Current_Thread_ID
PUBLIC	?Get_Name@ThreadClass@@QAEPBDXZ			; ThreadClass::Get_Name
PUBLIC	??0ThreadClass@@QAE@ABV0@@Z			; ThreadClass::ThreadClass
PUBLIC	??4ThreadClass@@QAEAAV0@ABV0@@Z			; ThreadClass::operator=
PUBLIC	??_GThreadClass@@UAEPAXI@Z			; ThreadClass::`scalar deleting destructor'
PUBLIC	??_EThreadClass@@UAEPAXI@Z			; ThreadClass::`vector deleting destructor'
PUBLIC	??4CriticalSectionClass@@QAEAAV0@ABV0@@Z	; CriticalSectionClass::operator=
PUBLIC	?Enter@FastCriticalSectionClass@@AAEXXZ		; FastCriticalSectionClass::Enter
PUBLIC	?Leave@FastCriticalSectionClass@@AAEXXZ		; FastCriticalSectionClass::Leave
PUBLIC	??0LockClass@FastCriticalSectionClass@@QAE@AAV1@@Z ; FastCriticalSectionClass::LockClass::LockClass
PUBLIC	??1LockClass@FastCriticalSectionClass@@QAE@XZ	; FastCriticalSectionClass::LockClass::~LockClass
PUBLIC	??0FastCriticalSectionClass@@QAE@XZ		; FastCriticalSectionClass::FastCriticalSectionClass
PUBLIC	?Release_Ref@RefCountClass@@QAEXXZ		; RefCountClass::Release_Ref
PUBLIC	??0StringClass@@QAE@H_N@Z			; StringClass::StringClass
PUBLIC	??0StringClass@@QAE@ABV0@_N@Z			; StringClass::StringClass
PUBLIC	??1StringClass@@QAE@XZ				; StringClass::~StringClass
PUBLIC	??4StringClass@@QAEABV0@ABV0@@Z			; StringClass::operator=
PUBLIC	??BStringClass@@QBEPBDXZ			; StringClass::operator char const *
PUBLIC	?Get_Length@StringClass@@QBEHXZ			; StringClass::Get_Length
PUBLIC	?Store_Length@StringClass@@AAEXH@Z		; StringClass::Store_Length
PUBLIC	?Get_Header@StringClass@@ABEPAU_HEADER@1@XZ	; StringClass::Get_Header
PUBLIC	??_EStringClass@@QAEPAXI@Z			; StringClass::`vector deleting destructor'
PUBLIC	??1WideStringClass@@QAE@XZ			; WideStringClass::~WideStringClass
PUBLIC	??_EWideStringClass@@QAEPAXI@Z			; WideStringClass::`vector deleting destructor'
PUBLIC	??4ChunkLoadClass@@QAEAAV0@ABV0@@Z		; ChunkLoadClass::operator=
PUBLIC	?Set_Contains_Chunks@ChunkSaveClass@@QAEXXZ	; ChunkSaveClass::Set_Contains_Chunks
PUBLIC	??4ChunkSaveClass@@QAEAAV0@ABV0@@Z		; ChunkSaveClass::operator=
PUBLIC	?Is_Present@INIClass@@QBE_NPBD0@Z		; INIClass::Is_Present
PUBLIC	?Section_Present@INIClass@@QBE_NPBD@Z		; INIClass::Section_Present
PUBLIC	?Get_Section_List@INIClass@@QAEAAV?$List@PAUINISection@@@@XZ ; INIClass::Get_Section_List
PUBLIC	?Get_Section_Index@INIClass@@QAEAAV?$IndexClass@HPAUINISection@@@@XZ ; INIClass::Get_Section_Index
PUBLIC	?Get_File_Name@INIClass@@QAEPBDXZ		; INIClass::Get_File_Name
PUBLIC	??0INIClass@@QAE@ABV0@@Z			; INIClass::INIClass
PUBLIC	??4INIClass@@QAEAAV0@ABV0@@Z			; INIClass::operator=
PUBLIC	??_GINIClass@@UAEPAXI@Z				; INIClass::`scalar deleting destructor'
PUBLIC	??_EINIClass@@UAEPAXI@Z				; INIClass::`vector deleting destructor'
PUBLIC	??Cfile_auto_ptr@@QAEPAVFileClass@@XZ		; file_auto_ptr::operator->
PUBLIC	??Bfile_auto_ptr@@QAEPAVFileClass@@XZ		; file_auto_ptr::operator FileClass *
PUBLIC	??Dfile_auto_ptr@@QAEAAVFileClass@@XZ		; file_auto_ptr::operator*
PUBLIC	?get@file_auto_ptr@@QAEPAVFileClass@@XZ		; file_auto_ptr::get
PUBLIC	??4file_auto_ptr@@QAEAAV0@ABV0@@Z		; file_auto_ptr::operator=
PUBLIC	??0Vector4@@QAE@XZ				; Vector4::Vector4
PUBLIC	??0Vector4@@QAE@MMMM@Z				; Vector4::Vector4
PUBLIC	??4Vector4@@QAEAAV0@ABV0@@Z			; Vector4::operator=
PUBLIC	?Set@Vector4@@QAEXMMMM@Z			; Vector4::Set
PUBLIC	??AVector4@@QAEAAMH@Z				; Vector4::operator[]
PUBLIC	??AVector4@@QBEABMH@Z				; Vector4::operator[]
PUBLIC	??YVector4@@QAEAAV0@ABV0@@Z			; Vector4::operator+=
PUBLIC	??ZVector4@@QAEAAV0@ABV0@@Z			; Vector4::operator-=
PUBLIC	??XVector4@@QAEAAV0@M@Z				; Vector4::operator*=
PUBLIC	??AMatrix3D@@QAEAAVVector4@@H@Z			; Matrix3D::operator[]
PUBLIC	??AMatrix3D@@QBEABVVector4@@H@Z			; Matrix3D::operator[]
PUBLIC	??0Matrix3D@@QAE@_N@Z				; Matrix3D::Matrix3D
PUBLIC	??0Matrix3D@@QAE@QAM@Z				; Matrix3D::Matrix3D
PUBLIC	??0Matrix3D@@QAE@ABVVector3@@000@Z		; Matrix3D::Matrix3D
PUBLIC	??0Matrix3D@@QAE@ABVVector3@@M@Z		; Matrix3D::Matrix3D
PUBLIC	??0Matrix3D@@QAE@ABVVector3@@MM@Z		; Matrix3D::Matrix3D
PUBLIC	??0Matrix3D@@QAE@ABVMatrix3@@ABVVector3@@@Z	; Matrix3D::Matrix3D
PUBLIC	??0Matrix3D@@QAE@ABVQuaternion@@ABVVector3@@@Z	; Matrix3D::Matrix3D
PUBLIC	??0Matrix3D@@QAE@ABVVector3@@@Z			; Matrix3D::Matrix3D
PUBLIC	??0Matrix3D@@QAE@ABV0@@Z			; Matrix3D::Matrix3D
PUBLIC	??4Matrix3D@@QAEAAV0@ABV0@@Z			; Matrix3D::operator=
PUBLIC	?Set@Matrix3D@@QAEXQAM@Z			; Matrix3D::Set
PUBLIC	?Set@Matrix3D@@QAEXMMMMMMMMMMMM@Z		; Matrix3D::Set
PUBLIC	?Set@Matrix3D@@QAEXABVVector3@@000@Z		; Matrix3D::Set
PUBLIC	?Set@Matrix3D@@QAEXABVVector3@@M@Z		; Matrix3D::Set
PUBLIC	?Set@Matrix3D@@QAEXABVVector3@@MM@Z		; Matrix3D::Set
PUBLIC	?Set@Matrix3D@@QAEXABVVector3@@@Z		; Matrix3D::Set
PUBLIC	?Get_Translation@Matrix3D@@QBE?AVVector3@@XZ	; Matrix3D::Get_Translation
PUBLIC	?Get_Translation@Matrix3D@@QBEXPAVVector3@@@Z	; Matrix3D::Get_Translation
PUBLIC	?Set_Translation@Matrix3D@@QAEXABVVector3@@@Z	; Matrix3D::Set_Translation
PUBLIC	?Get_X_Translation@Matrix3D@@QBEMXZ		; Matrix3D::Get_X_Translation
PUBLIC	?Get_Y_Translation@Matrix3D@@QBEMXZ		; Matrix3D::Get_Y_Translation
PUBLIC	?Get_Z_Translation@Matrix3D@@QBEMXZ		; Matrix3D::Get_Z_Translation
PUBLIC	?Set_X_Translation@Matrix3D@@QAEXM@Z		; Matrix3D::Set_X_Translation
PUBLIC	?Set_Y_Translation@Matrix3D@@QAEXM@Z		; Matrix3D::Set_Y_Translation
PUBLIC	?Set_Z_Translation@Matrix3D@@QAEXM@Z		; Matrix3D::Set_Z_Translation
PUBLIC	?Adjust_Translation@Matrix3D@@QAEXABVVector3@@@Z ; Matrix3D::Adjust_Translation
PUBLIC	?Adjust_X_Translation@Matrix3D@@QAEXM@Z		; Matrix3D::Adjust_X_Translation
PUBLIC	?Adjust_Y_Translation@Matrix3D@@QAEXM@Z		; Matrix3D::Adjust_Y_Translation
PUBLIC	?Adjust_Z_Translation@Matrix3D@@QAEXM@Z		; Matrix3D::Adjust_Z_Translation
PUBLIC	?Make_Identity@Matrix3D@@QAEXXZ			; Matrix3D::Make_Identity
PUBLIC	?Translate@Matrix3D@@QAEXMMM@Z			; Matrix3D::Translate
PUBLIC	?Translate@Matrix3D@@QAEXABVVector3@@@Z		; Matrix3D::Translate
PUBLIC	?Translate_X@Matrix3D@@QAEXM@Z			; Matrix3D::Translate_X
PUBLIC	?Translate_Y@Matrix3D@@QAEXM@Z			; Matrix3D::Translate_Y
PUBLIC	?Translate_Z@Matrix3D@@QAEXM@Z			; Matrix3D::Translate_Z
PUBLIC	?Rotate_X@Matrix3D@@QAEXM@Z			; Matrix3D::Rotate_X
PUBLIC	?Rotate_Y@Matrix3D@@QAEXM@Z			; Matrix3D::Rotate_Y
PUBLIC	?Rotate_Z@Matrix3D@@QAEXM@Z			; Matrix3D::Rotate_Z
PUBLIC	?Rotate_X@Matrix3D@@QAEXMM@Z			; Matrix3D::Rotate_X
PUBLIC	?Rotate_Y@Matrix3D@@QAEXMM@Z			; Matrix3D::Rotate_Y
PUBLIC	?Rotate_Z@Matrix3D@@QAEXMM@Z			; Matrix3D::Rotate_Z
PUBLIC	?Scale@Matrix3D@@QAEXM@Z			; Matrix3D::Scale
PUBLIC	?Scale@Matrix3D@@QAEXMMM@Z			; Matrix3D::Scale
PUBLIC	?Scale@Matrix3D@@QAEXAAVVector3@@@Z		; Matrix3D::Scale
PUBLIC	?Pre_Rotate_X@Matrix3D@@QAEXM@Z			; Matrix3D::Pre_Rotate_X
PUBLIC	?Pre_Rotate_Y@Matrix3D@@QAEXM@Z			; Matrix3D::Pre_Rotate_Y
PUBLIC	?Pre_Rotate_Z@Matrix3D@@QAEXM@Z			; Matrix3D::Pre_Rotate_Z
PUBLIC	?Pre_Rotate_X@Matrix3D@@QAEXMM@Z		; Matrix3D::Pre_Rotate_X
PUBLIC	?Pre_Rotate_Y@Matrix3D@@QAEXMM@Z		; Matrix3D::Pre_Rotate_Y
PUBLIC	?Pre_Rotate_Z@Matrix3D@@QAEXMM@Z		; Matrix3D::Pre_Rotate_Z
PUBLIC	?In_Place_Pre_Rotate_X@Matrix3D@@QAEXM@Z	; Matrix3D::In_Place_Pre_Rotate_X
PUBLIC	?In_Place_Pre_Rotate_Y@Matrix3D@@QAEXM@Z	; Matrix3D::In_Place_Pre_Rotate_Y
PUBLIC	?In_Place_Pre_Rotate_Z@Matrix3D@@QAEXM@Z	; Matrix3D::In_Place_Pre_Rotate_Z
PUBLIC	?In_Place_Pre_Rotate_X@Matrix3D@@QAEXMM@Z	; Matrix3D::In_Place_Pre_Rotate_X
PUBLIC	?In_Place_Pre_Rotate_Y@Matrix3D@@QAEXMM@Z	; Matrix3D::In_Place_Pre_Rotate_Y
PUBLIC	?In_Place_Pre_Rotate_Z@Matrix3D@@QAEXMM@Z	; Matrix3D::In_Place_Pre_Rotate_Z
PUBLIC	?Transform_Vector@Matrix3D@@SAXABV1@ABVVector3@@PAV2@@Z ; Matrix3D::Transform_Vector
PUBLIC	?Get_X_Vector@Matrix3D@@QBE?AVVector3@@XZ	; Matrix3D::Get_X_Vector
PUBLIC	?Get_Y_Vector@Matrix3D@@QBE?AVVector3@@XZ	; Matrix3D::Get_Y_Vector
PUBLIC	?Get_Z_Vector@Matrix3D@@QBE?AVVector3@@XZ	; Matrix3D::Get_Z_Vector
PUBLIC	?Get_X_Vector@Matrix3D@@QBEXPAVVector3@@@Z	; Matrix3D::Get_X_Vector
PUBLIC	?Get_Y_Vector@Matrix3D@@QBEXPAVVector3@@@Z	; Matrix3D::Get_Y_Vector
PUBLIC	?Get_Z_Vector@Matrix3D@@QBEXPAVVector3@@@Z	; Matrix3D::Get_Z_Vector
PUBLIC	?Rotate_Vector@Matrix3D@@SAXABV1@ABVVector3@@PAV2@@Z ; Matrix3D::Rotate_Vector
PUBLIC	?Inverse_Transform_Vector@Matrix3D@@SAXABV1@ABVVector3@@PAV2@@Z ; Matrix3D::Inverse_Transform_Vector
PUBLIC	?Inverse_Rotate_Vector@Matrix3D@@SAXABV1@ABVVector3@@PAV2@@Z ; Matrix3D::Inverse_Rotate_Vector
PUBLIC	??0Matrix4@@QAE@XZ				; Matrix4::Matrix4
PUBLIC	??0Matrix4@@QAE@ABV0@@Z				; Matrix4::Matrix4
PUBLIC	??0Matrix4@@QAE@_N@Z				; Matrix4::Matrix4
PUBLIC	??0Matrix4@@QAE@ABVMatrix3D@@@Z			; Matrix4::Matrix4
PUBLIC	??0Matrix4@@QAE@ABVVector4@@000@Z		; Matrix4::Matrix4
PUBLIC	?Make_Identity@Matrix4@@QAEXXZ			; Matrix4::Make_Identity
PUBLIC	?Init@Matrix4@@QAEXABVMatrix3D@@@Z		; Matrix4::Init
PUBLIC	?Init@Matrix4@@QAEXABVVector4@@000@Z		; Matrix4::Init
PUBLIC	?Init_Ortho_OGL@Matrix4@@QAEXMMMMMM@Z		; Matrix4::Init_Ortho_OGL
PUBLIC	?Init_Perspective_OGL@Matrix4@@QAEXMMMM@Z	; Matrix4::Init_Perspective_OGL
PUBLIC	?Init_Perspective_OGL@Matrix4@@QAEXMMMMMM@Z	; Matrix4::Init_Perspective_OGL
PUBLIC	?Init_Ortho@Matrix4@@QAEXMMMMMM@Z		; Matrix4::Init_Ortho
PUBLIC	?Init_Perspective@Matrix4@@QAEXMMMMMM@Z		; Matrix4::Init_Perspective
PUBLIC	??AMatrix4@@QAEAAVVector4@@H@Z			; Matrix4::operator[]
PUBLIC	??AMatrix4@@QBEABVVector4@@H@Z			; Matrix4::operator[]
PUBLIC	?Transpose@Matrix4@@QBE?AV1@XZ			; Matrix4::Transpose
PUBLIC	?Determinant@Matrix4@@QBEMXZ			; Matrix4::Determinant
PUBLIC	?Inverse@Matrix4@@QBE?AV1@XZ			; Matrix4::Inverse
PUBLIC	??4Matrix4@@QAEAAV0@ABV0@@Z			; Matrix4::operator=
PUBLIC	??YMatrix4@@QAEAAV0@ABV0@@Z			; Matrix4::operator+=
PUBLIC	??ZMatrix4@@QAEAAV0@ABV0@@Z			; Matrix4::operator-=
PUBLIC	??XMatrix4@@QAEAAV0@M@Z				; Matrix4::operator*=
PUBLIC	??_0Matrix4@@QAEAAV0@M@Z			; Matrix4::operator/=
PUBLIC	?Transform_Vector@Matrix4@@SAXABV1@ABVVector3@@PAV2@@Z ; Matrix4::Transform_Vector
PUBLIC	?Transform_Vector@Matrix4@@SAXABV1@ABVVector3@@PAVVector4@@@Z ; Matrix4::Transform_Vector
PUBLIC	?Transform_Vector@Matrix4@@SAXABV1@ABVVector4@@PAV2@@Z ; Matrix4::Transform_Vector
PUBLIC	??0Matrix3@@QAE@XZ				; Matrix3::Matrix3
PUBLIC	??0Matrix3@@QAE@ABV0@@Z				; Matrix3::Matrix3
PUBLIC	??0Matrix3@@QAE@_N@Z				; Matrix3::Matrix3
PUBLIC	??0Matrix3@@QAE@ABVVector3@@00@Z		; Matrix3::Matrix3
PUBLIC	??0Matrix3@@QAE@MMMMMMMMM@Z			; Matrix3::Matrix3
PUBLIC	??0Matrix3@@QAE@ABVVector3@@M@Z			; Matrix3::Matrix3
PUBLIC	??0Matrix3@@QAE@ABVVector3@@MM@Z		; Matrix3::Matrix3
PUBLIC	??0Matrix3@@QAE@ABVQuaternion@@@Z		; Matrix3::Matrix3
PUBLIC	?Set@Matrix3@@QAEXABVVector3@@00@Z		; Matrix3::Set
PUBLIC	?Set@Matrix3@@QAEXMMMMMMMMM@Z			; Matrix3::Set
PUBLIC	?Set@Matrix3@@QAEXABVVector3@@M@Z		; Matrix3::Set
PUBLIC	?Set@Matrix3@@QAEXABVVector3@@MM@Z		; Matrix3::Set
PUBLIC	??AMatrix3@@QAEAAVVector3@@H@Z			; Matrix3::operator[]
PUBLIC	??AMatrix3@@QBEABVVector3@@H@Z			; Matrix3::operator[]
PUBLIC	?Transpose@Matrix3@@QBE?AV1@XZ			; Matrix3::Transpose
PUBLIC	?Determinant@Matrix3@@QBEMXZ			; Matrix3::Determinant
PUBLIC	??4Matrix3@@QAEAAV0@ABV0@@Z			; Matrix3::operator=
PUBLIC	??YMatrix3@@QAEAAV0@ABV0@@Z			; Matrix3::operator+=
PUBLIC	??ZMatrix3@@QAEAAV0@ABV0@@Z			; Matrix3::operator-=
PUBLIC	??XMatrix3@@QAEAAV0@M@Z				; Matrix3::operator*=
PUBLIC	??_0Matrix3@@QAEAAV0@M@Z			; Matrix3::operator/=
PUBLIC	?Make_Identity@Matrix3@@QAEXXZ			; Matrix3::Make_Identity
PUBLIC	?Rotate_X@Matrix3@@QAEXM@Z			; Matrix3::Rotate_X
PUBLIC	?Rotate_X@Matrix3@@QAEXMM@Z			; Matrix3::Rotate_X
PUBLIC	?Rotate_Y@Matrix3@@QAEXM@Z			; Matrix3::Rotate_Y
PUBLIC	?Rotate_Y@Matrix3@@QAEXMM@Z			; Matrix3::Rotate_Y
PUBLIC	?Rotate_Z@Matrix3@@QAEXM@Z			; Matrix3::Rotate_Z
PUBLIC	?Rotate_Z@Matrix3@@QAEXMM@Z			; Matrix3::Rotate_Z
PUBLIC	?Get_X_Rotation@Matrix3@@QBEMXZ			; Matrix3::Get_X_Rotation
PUBLIC	?Get_Y_Rotation@Matrix3@@QBEMXZ			; Matrix3::Get_Y_Rotation
PUBLIC	?Get_Z_Rotation@Matrix3@@QBEMXZ			; Matrix3::Get_Z_Rotation
PUBLIC	?Get_X_Vector@Matrix3@@QBE?AVVector3@@XZ	; Matrix3::Get_X_Vector
PUBLIC	?Get_Y_Vector@Matrix3@@QBE?AVVector3@@XZ	; Matrix3::Get_Y_Vector
PUBLIC	?Get_Z_Vector@Matrix3@@QBE?AVVector3@@XZ	; Matrix3::Get_Z_Vector
PUBLIC	?Get_X_Vector@Matrix3@@QBEXPAVVector3@@@Z	; Matrix3::Get_X_Vector
PUBLIC	?Get_Y_Vector@Matrix3@@QBEXPAVVector3@@@Z	; Matrix3::Get_Y_Vector
PUBLIC	?Get_Z_Vector@Matrix3@@QBEXPAVVector3@@@Z	; Matrix3::Get_Z_Vector
PUBLIC	??D@YA?AVVector3@@ABVMatrix3@@ABV0@@Z		; operator*
PUBLIC	?Add@Matrix3@@SAXABV1@0PAV1@@Z			; Matrix3::Add
PUBLIC	?Subtract@Matrix3@@SAXABV1@0PAV1@@Z		; Matrix3::Subtract
PUBLIC	?Rotate_Vector@Matrix3@@SAXABV1@ABVVector3@@PAV2@@Z ; Matrix3::Rotate_Vector
PUBLIC	?Transpose_Rotate_Vector@Matrix3@@SAXABV1@ABVVector3@@PAV2@@Z ; Matrix3::Transpose_Rotate_Vector
PUBLIC	?Rotate_AABox_Extent@Matrix3@@QAEXABVVector3@@PAV2@@Z ; Matrix3::Rotate_AABox_Extent
PUBLIC	?Inverse@Matrix3@@QBE?AV1@XZ			; Matrix3::Inverse
PUBLIC	?Is_Base_Powered@BaseControllerClass@@QBE_NXZ	; BaseControllerClass::Is_Base_Powered
PUBLIC	??4SysTimeClass@@QAEAAV0@ABV0@@Z		; SysTimeClass::operator=
PUBLIC	?Is_Valid@DataSafeHandleClass@@QBE_NXZ		; DataSafeHandleClass::Is_Valid
PUBLIC	??BDataSafeHandleClass@@QAEHXZ			; DataSafeHandleClass::operator int
PUBLIC	?Security_Check@GenericDataSafeClass@@KAXXZ	; GenericDataSafeClass::Security_Check
PUBLIC	?Security_Fault@GenericDataSafeClass@@KAXXZ	; GenericDataSafeClass::Security_Fault
PUBLIC	??B?$RefArray@PAVDataSafeEntryListClass@@$0CAAA@@@QAEPAPAVDataSafeEntryListClass@@XZ ; RefArray<DataSafeEntryListClass *,8192>::operator DataSafeEntryListClass * *
PUBLIC	?Get@?$DataSafeClass@H@@SA_NVDataSafeHandleClass@@AAPAH@Z ; DataSafeClass<int>::Get
PUBLIC	??0PostLoadableClass@@QAE@XZ			; PostLoadableClass::PostLoadableClass
PUBLIC	??1PostLoadableClass@@UAE@XZ			; PostLoadableClass::~PostLoadableClass
PUBLIC	?On_Post_Load@PostLoadableClass@@UAEXXZ		; PostLoadableClass::On_Post_Load
PUBLIC	?Is_Post_Load_Registered@PostLoadableClass@@QBE_NXZ ; PostLoadableClass::Is_Post_Load_Registered
PUBLIC	?Set_Post_Load_Registered@PostLoadableClass@@QAEX_N@Z ; PostLoadableClass::Set_Post_Load_Registered
PUBLIC	??0PostLoadableClass@@QAE@ABV0@@Z		; PostLoadableClass::PostLoadableClass
PUBLIC	??4PostLoadableClass@@QAEAAV0@ABV0@@Z		; PostLoadableClass::operator=
PUBLIC	??_GPostLoadableClass@@UAEPAXI@Z		; PostLoadableClass::`scalar deleting destructor'
PUBLIC	??_EPostLoadableClass@@UAEPAXI@Z		; PostLoadableClass::`vector deleting destructor'
PUBLIC	??CReferencerClass@@QAEPAVScriptableGameObj@@XZ	; ReferencerClass::operator->
PUBLIC	??0ReferencerClass@@QAE@XZ			; ReferencerClass::ReferencerClass
PUBLIC	??0ReferencerClass@@QAE@PAVScriptableGameObj@@@Z ; ReferencerClass::ReferencerClass
PUBLIC	?Get_Ptr@ReferencerClass@@QBEPAVScriptableGameObj@@XZ ; ReferencerClass::Get_Ptr
PUBLIC	?Set_Ptr@ReferencerClass@@QAEXPAVScriptableGameObj@@@Z ; ReferencerClass::Set_Ptr
PUBLIC	??0ReferencerClass@@QAE@ABV0@@Z			; ReferencerClass::ReferencerClass
PUBLIC	??_GReferencerClass@@UAEPAXI@Z			; ReferencerClass::`scalar deleting destructor'
PUBLIC	??_EReferencerClass@@UAEPAXI@Z			; ReferencerClass::`vector deleting destructor'
PUBLIC	?Get_Data@?$ReferenceableClass@VScriptableGameObj@@@@IBEPAVScriptableGameObj@@XZ ; ReferenceableClass<ScriptableGameObj>::Get_Data
PUBLIC	?Get_Observers@ScriptableGameObj@@QAEABV?$SimpleDynVecClass@PAVGameObjObserverClass@@@@XZ ; ScriptableGameObj::Get_Observers
PUBLIC	?Count@?$SimpleDynVecClass@PAVGameObjObserverClass@@@@QBEHXZ ; SimpleDynVecClass<GameObjObserverClass *>::Count
PUBLIC	??A?$SimpleDynVecClass@PAVGameObjObserverClass@@@@QBEABQAVGameObjObserverClass@@H@Z ; SimpleDynVecClass<GameObjObserverClass *>::operator[]
PUBLIC	??R?$SafeDataClass@M@@QBEAAMXZ			; SafeDataClass<float>::operator()
PUBLIC	??B?$SafeDataClass@M@@QBEMXZ			; SafeDataClass<float>::operator float
PUBLIC	?Get_Defense_Object@DamageableGameObj@@QAEPAVDefenseObjectClass@@XZ ; DamageableGameObj::Get_Defense_Object
PUBLIC	??0LineSegClass@@QAE@XZ				; LineSegClass::LineSegClass
PUBLIC	??0LineSegClass@@QAE@ABVVector3@@0@Z		; LineSegClass::LineSegClass
PUBLIC	??0LineSegClass@@QAE@ABVVector3@@0M@Z		; LineSegClass::LineSegClass
PUBLIC	??0LineSegClass@@QAE@ABV0@ABVMatrix3D@@@Z	; LineSegClass::LineSegClass
PUBLIC	?Set@LineSegClass@@QAEXABVVector3@@0@Z		; LineSegClass::Set
PUBLIC	?Set@LineSegClass@@QAEXABVVector3@@0M@Z		; LineSegClass::Set
PUBLIC	?Get_P0@LineSegClass@@QBEABVVector3@@XZ		; LineSegClass::Get_P0
PUBLIC	?Get_P1@LineSegClass@@QBEABVVector3@@XZ		; LineSegClass::Get_P1
PUBLIC	?Get_DP@LineSegClass@@QBEABVVector3@@XZ		; LineSegClass::Get_DP
PUBLIC	?Get_Dir@LineSegClass@@QBEABVVector3@@XZ	; LineSegClass::Get_Dir
PUBLIC	?Get_Length@LineSegClass@@QBEMXZ		; LineSegClass::Get_Length
PUBLIC	?Compute_Point@LineSegClass@@QBEXMPAVVector3@@@Z ; LineSegClass::Compute_Point
PUBLIC	?recalculate@LineSegClass@@IAEXXZ		; LineSegClass::recalculate
PUBLIC	??0LineSegClass@@QAE@ABV0@@Z			; LineSegClass::LineSegClass
PUBLIC	??4LineSegClass@@QAEAAV0@ABV0@@Z		; LineSegClass::operator=
PUBLIC	?Get_Position@PhysClass@@QBEXPAVVector3@@@Z	; PhysClass::Get_Position
PUBLIC	?Peek_Physical_Object@PhysicalGameObj@@QBEPAVPhysClass@@XZ ; PhysicalGameObj::Peek_Physical_Object
PUBLIC	?Get_Position@PhysicalGameObj@@QAE?AVVector3@@XZ ; PhysicalGameObj::Get_Position
PUBLIC	?Get_Radar_Blip_Shape_Type@PhysicalGameObj@@QAEHXZ ; PhysicalGameObj::Get_Radar_Blip_Shape_Type
PUBLIC	?Set_Radar_Blip_Shape_Type@PhysicalGameObj@@QAEXH@Z ; PhysicalGameObj::Set_Radar_Blip_Shape_Type
PUBLIC	??R?$SafeDataClass@H@@QBEAAHXZ			; SafeDataClass<int>::operator()
PUBLIC	??B?$SafeDataClass@H@@QBEHXZ			; SafeDataClass<int>::operator int
PUBLIC	?Get_Player_Data@SmartGameObj@@QAEPAVPlayerDataClass@@XZ ; SmartGameObj::Get_Player_Data
PUBLIC	?Get_Money@PlayerDataClass@@QBEMXZ		; PlayerDataClass::Get_Money
PUBLIC	?Get_Id@cPlayer@@QBEHXZ				; cPlayer::Get_Id
PUBLIC	?Get_Name@cPlayer@@QBEABVWideStringClass@@XZ	; cPlayer::Get_Name
PUBLIC	?Get_Player_Type@cPlayer@@QBEHXZ		; cPlayer::Get_Player_Type
PUBLIC	?Get_DA_Player@cPlayer@@QAEPAVDAPlayerClass@@XZ	; cPlayer::Get_DA_Player
PUBLIC	?Get_GameObj@cPlayer@@QBEPAVSoldierGameObj@@XZ	; cPlayer::Get_GameObj
PUBLIC	?Get_Radar_Mode@cGameData@@QBE?AW4RadarModeEnum@@XZ ; cGameData::Get_Radar_Mode
PUBLIC	?Get_Type@BuildingGameObjDef@@QBE?AW4BuildingType@BuildingConstants@@XZ ; BuildingGameObjDef::Get_Type
PUBLIC	??2?$AutoPoolClass@VGenericSLNode@@$0BAA@@@SAPAXIPBDI0@Z ; AutoPoolClass<GenericSLNode,256>::operator new
PUBLIC	??3?$AutoPoolClass@VGenericSLNode@@$0BAA@@@SAXPAX@Z ; AutoPoolClass<GenericSLNode,256>::operator delete
PUBLIC	??0GenericSLNode@@IAE@PAX@Z			; GenericSLNode::GenericSLNode
PUBLIC	??0JFW_Key_Hook_Base@@QAE@XZ			; JFW_Key_Hook_Base::JFW_Key_Hook_Base
PUBLIC	??0JFW_Key_Hook_Base@@QAE@ABV0@@Z		; JFW_Key_Hook_Base::JFW_Key_Hook_Base
PUBLIC	??4JFW_Key_Hook_Base@@QAEAAV0@ABV0@@Z		; JFW_Key_Hook_Base::operator=
PUBLIC	??_GJFW_Key_Hook_Base@@UAEPAXI@Z		; JFW_Key_Hook_Base::`scalar deleting destructor'
PUBLIC	??_EJFW_Key_Hook_Base@@UAEPAXI@Z		; JFW_Key_Hook_Base::`vector deleting destructor'
PUBLIC	??0?$SList@UKeyHookWrapperStruct@MultiKeyHookScriptImpClass@@@@QAE@XZ ; SList<MultiKeyHookScriptImpClass::KeyHookWrapperStruct>::SList<MultiKeyHookScriptImpClass::KeyHookWrapperStruct>
PUBLIC	??1?$SList@UKeyHookWrapperStruct@MultiKeyHookScriptImpClass@@@@UAE@XZ ; SList<MultiKeyHookScriptImpClass::KeyHookWrapperStruct>::~SList<MultiKeyHookScriptImpClass::KeyHookWrapperStruct>
PUBLIC	?Add_Head@?$SList@UKeyHookWrapperStruct@MultiKeyHookScriptImpClass@@@@UAE_NPAUKeyHookWrapperStruct@MultiKeyHookScriptImpClass@@@Z ; SList<MultiKeyHookScriptImpClass::KeyHookWrapperStruct>::Add_Head
PUBLIC	?Add_Head@?$SList@UKeyHookWrapperStruct@MultiKeyHookScriptImpClass@@@@UAE_NAAV1@@Z ; SList<MultiKeyHookScriptImpClass::KeyHookWrapperStruct>::Add_Head
PUBLIC	?Add_Tail@?$SList@UKeyHookWrapperStruct@MultiKeyHookScriptImpClass@@@@UAE_NPAUKeyHookWrapperStruct@MultiKeyHookScriptImpClass@@@Z ; SList<MultiKeyHookScriptImpClass::KeyHookWrapperStruct>::Add_Tail
PUBLIC	?Add_Tail@?$SList@UKeyHookWrapperStruct@MultiKeyHookScriptImpClass@@@@UAE_NAAV1@@Z ; SList<MultiKeyHookScriptImpClass::KeyHookWrapperStruct>::Add_Tail
PUBLIC	?Remove_Head@?$SList@UKeyHookWrapperStruct@MultiKeyHookScriptImpClass@@@@UAEPAUKeyHookWrapperStruct@MultiKeyHookScriptImpClass@@XZ ; SList<MultiKeyHookScriptImpClass::KeyHookWrapperStruct>::Remove_Head
PUBLIC	?Remove_Tail@?$SList@UKeyHookWrapperStruct@MultiKeyHookScriptImpClass@@@@UAEPAUKeyHookWrapperStruct@MultiKeyHookScriptImpClass@@XZ ; SList<MultiKeyHookScriptImpClass::KeyHookWrapperStruct>::Remove_Tail
PUBLIC	?Remove@?$SList@UKeyHookWrapperStruct@MultiKeyHookScriptImpClass@@@@UAE_NPBUKeyHookWrapperStruct@MultiKeyHookScriptImpClass@@@Z ; SList<MultiKeyHookScriptImpClass::KeyHookWrapperStruct>::Remove
PUBLIC	?Remove_All@?$SList@UKeyHookWrapperStruct@MultiKeyHookScriptImpClass@@@@UAEXXZ ; SList<MultiKeyHookScriptImpClass::KeyHookWrapperStruct>::Remove_All
PUBLIC	?Insert_Before@?$SList@UKeyHookWrapperStruct@MultiKeyHookScriptImpClass@@@@UAE_NPAUKeyHookWrapperStruct@MultiKeyHookScriptImpClass@@PBU23@@Z ; SList<MultiKeyHookScriptImpClass::KeyHookWrapperStruct>::Insert_Before
PUBLIC	?Insert_After@?$SList@UKeyHookWrapperStruct@MultiKeyHookScriptImpClass@@@@UAE_NPAUKeyHookWrapperStruct@MultiKeyHookScriptImpClass@@PBU23@@Z ; SList<MultiKeyHookScriptImpClass::KeyHookWrapperStruct>::Insert_After
PUBLIC	?Is_Empty@?$SList@UKeyHookWrapperStruct@MultiKeyHookScriptImpClass@@@@UBE_NXZ ; SList<MultiKeyHookScriptImpClass::KeyHookWrapperStruct>::Is_Empty
PUBLIC	?Get_Count@?$SList@UKeyHookWrapperStruct@MultiKeyHookScriptImpClass@@@@UBEIXZ ; SList<MultiKeyHookScriptImpClass::KeyHookWrapperStruct>::Get_Count
PUBLIC	??0?$SList@UKeyHookWrapperStruct@MultiKeyHookScriptImpClass@@@@QAE@ABV0@@Z ; SList<MultiKeyHookScriptImpClass::KeyHookWrapperStruct>::SList<MultiKeyHookScriptImpClass::KeyHookWrapperStruct>
PUBLIC	??4?$SList@UKeyHookWrapperStruct@MultiKeyHookScriptImpClass@@@@QAEAAV0@ABV0@@Z ; SList<MultiKeyHookScriptImpClass::KeyHookWrapperStruct>::operator=
PUBLIC	??_G?$SList@UKeyHookWrapperStruct@MultiKeyHookScriptImpClass@@@@UAEPAXI@Z ; SList<MultiKeyHookScriptImpClass::KeyHookWrapperStruct>::`scalar deleting destructor'
PUBLIC	??0MultiKeyHookScriptImpClass@@QAE@XZ		; MultiKeyHookScriptImpClass::MultiKeyHookScriptImpClass
PUBLIC	??1MultiKeyHookScriptImpClass@@UAE@XZ		; MultiKeyHookScriptImpClass::~MultiKeyHookScriptImpClass
PUBLIC	??0MultiKeyHookScriptImpClass@@QAE@ABV0@@Z	; MultiKeyHookScriptImpClass::MultiKeyHookScriptImpClass
PUBLIC	??4MultiKeyHookScriptImpClass@@QAEAAV0@ABV0@@Z	; MultiKeyHookScriptImpClass::operator=
PUBLIC	??_GMultiKeyHookScriptImpClass@@UAEPAXI@Z	; MultiKeyHookScriptImpClass::`scalar deleting destructor'
PUBLIC	??_EMultiKeyHookScriptImpClass@@UAEPAXI@Z	; MultiKeyHookScriptImpClass::`vector deleting destructor'
PUBLIC	??0JFW_Object_Created_Hook_Base@@QAE@XZ		; JFW_Object_Created_Hook_Base::JFW_Object_Created_Hook_Base
PUBLIC	??0JFW_Object_Created_Hook_Base@@QAE@ABV0@@Z	; JFW_Object_Created_Hook_Base::JFW_Object_Created_Hook_Base
PUBLIC	??4JFW_Object_Created_Hook_Base@@QAEAAV0@ABV0@@Z ; JFW_Object_Created_Hook_Base::operator=
PUBLIC	??_GJFW_Object_Created_Hook_Base@@UAEPAXI@Z	; JFW_Object_Created_Hook_Base::`scalar deleting destructor'
PUBLIC	??_EJFW_Object_Created_Hook_Base@@UAEPAXI@Z	; JFW_Object_Created_Hook_Base::`vector deleting destructor'
PUBLIC	??1CollideableObjClass@AnimCollisionManagerClass@@QAE@XZ ; AnimCollisionManagerClass::CollideableObjClass::~CollideableObjClass
PUBLIC	??_ECollideableObjClass@AnimCollisionManagerClass@@QAEPAXI@Z ; AnimCollisionManagerClass::CollideableObjClass::`vector deleting destructor'
PUBLIC	??0CollisionTestClass@@QAE@PAUCastResultStruct@@W4Collision_Type@@@Z ; CollisionTestClass::CollisionTestClass
PUBLIC	??0CollisionTestClass@@QAE@ABV0@@Z		; CollisionTestClass::CollisionTestClass
PUBLIC	??4CollisionTestClass@@QAEAAV0@ABV0@@Z		; CollisionTestClass::operator=
PUBLIC	?Cull@AABoxCollisionTestClass@@QAE_NABVVector3@@0@Z ; AABoxCollisionTestClass::Cull
PUBLIC	?Translate@AABoxCollisionTestClass@@QAEXABVVector3@@@Z ; AABoxCollisionTestClass::Translate
PUBLIC	?Cull@OBBoxCollisionTestClass@@QAE_NABVVector3@@0@Z ; OBBoxCollisionTestClass::Cull
PUBLIC	?Is_Power_Enabled@BuildingGameObj@@QBE_NXZ	; BuildingGameObj::Is_Power_Enabled
PUBLIC	?Is_Destroyed@BuildingGameObj@@QBE_NXZ		; BuildingGameObj::Is_Destroyed
PUBLIC	??4ArmorWarheadManager@@QAEAAV0@ABV0@@Z		; ArmorWarheadManager::operator=
PUBLIC	?Get_Vehicle@SoldierGameObj@@QAEPAVVehicleGameObj@@XZ ; SoldierGameObj::Get_Vehicle
PUBLIC	?Set_Is_Visible@SoldierGameObj@@QAEX_N@Z	; SoldierGameObj::Set_Is_Visible
PUBLIC	?Get_Player@SoldierGameObj@@QAEPAVcPlayer@@XZ	; SoldierGameObj::Get_Player
PUBLIC	?Get_Seat_Count@VehicleGameObjDef@@QBEHXZ	; VehicleGameObjDef::Get_Seat_Count
PUBLIC	?Get_Occupant@VehicleGameObj@@QAEPAVSoldierGameObj@@H@Z ; VehicleGameObj::Get_Occupant
PUBLIC	?Set_Is_Scripts_Visible@VehicleGameObj@@QAEX_N@Z ; VehicleGameObj::Set_Is_Scripts_Visible
PUBLIC	?Get_Is_Scripts_Visible@VehicleGameObj@@QAE_NXZ	; VehicleGameObj::Get_Is_Scripts_Visible
PUBLIC	??A?$VectorClass@PAVSoldierGameObj@@@@QAEAAPAVSoldierGameObj@@H@Z ; VectorClass<SoldierGameObj *>::operator[]
PUBLIC	?Get_Message_Prefix@DA@@SAABVStringClass@@XZ	; DA::Get_Message_Prefix
PUBLIC	?Get_Console_Function_List@DA@@SAAAV?$DynamicVectorClass@PAVConsoleFunctionClass@@@@XZ ; DA::Get_Console_Function_List
PUBLIC	??4DA@@QAEAAV0@ABV0@@Z				; DA::operator=
PUBLIC	??U@YA?AW4ObjectType@DAObjectEvent@@W401@0@Z	; operator|
PUBLIC	??4DAEventManager@@QAEAAV0@ABV0@@Z		; DAEventManager::operator=
PUBLIC	?Register_Event@DAEventClass@@QAEXW4Type@DAEvent@@H@Z ; DAEventClass::Register_Event
PUBLIC	?Unregister_Event@DAEventClass@@QAEXW4Type@DAEvent@@@Z ; DAEventClass::Unregister_Event
PUBLIC	?Clear_Events@DAEventClass@@QAEXXZ		; DAEventClass::Clear_Events
PUBLIC	?Register_Object_Event@DAEventClass@@QAEXW4Type@DAObjectEvent@@W4ObjectType@3@H@Z ; DAEventClass::Register_Object_Event
PUBLIC	?Unregister_Object_Event@DAEventClass@@QAEXW4Type@DAObjectEvent@@@Z ; DAEventClass::Unregister_Object_Event
PUBLIC	?Clear_Object_Events@DAEventClass@@QAEXXZ	; DAEventClass::Clear_Object_Events
PUBLIC	?Start_Timer@DAEventClass@@QAEXHM_NI@Z		; DAEventClass::Start_Timer
PUBLIC	?Stop_Timer@DAEventClass@@QAEXHI@Z		; DAEventClass::Stop_Timer
PUBLIC	?Is_Timer@DAEventClass@@QAE_NHI@Z		; DAEventClass::Is_Timer
PUBLIC	?Clear_Timers@DAEventClass@@QAEXXZ		; DAEventClass::Clear_Timers
PUBLIC	?Settings_Loaded_Event@DAEventClass@@UAEXXZ	; DAEventClass::Settings_Loaded_Event
PUBLIC	?Chat_Event@DAEventClass@@UAE_NPAVcPlayer@@W4TextMessageEnum@@PB_WH@Z ; DAEventClass::Chat_Event
PUBLIC	?Chat_Command_Event@DAEventClass@@UAE_NPAVcPlayer@@W4TextMessageEnum@@ABVStringClass@@ABVDATokenClass@@H@Z ; DAEventClass::Chat_Command_Event
PUBLIC	?Key_Hook_Event@DAEventClass@@UAE_NPAVcPlayer@@ABVStringClass@@@Z ; DAEventClass::Key_Hook_Event
PUBLIC	?Host_Chat_Event@DAEventClass@@UAE_NHW4TextMessageEnum@@PBD@Z ; DAEventClass::Host_Chat_Event
PUBLIC	?Radio_Event@DAEventClass@@UAE_NPAVcPlayer@@HHHW4AnnouncementEnum@@@Z ; DAEventClass::Radio_Event
PUBLIC	?Connection_Request_Event@DAEventClass@@UAE?AW4STATUS@ConnectionAcceptanceFilter@@AAUConnectionRequest@@AAVWideStringClass@@@Z ; DAEventClass::Connection_Request_Event
PUBLIC	?Player_Pre_Join_Event@DAEventClass@@UAEXAAUConnectionRequest@@@Z ; DAEventClass::Player_Pre_Join_Event
PUBLIC	?Player_Join_Event@DAEventClass@@UAEXPAVcPlayer@@@Z ; DAEventClass::Player_Join_Event
PUBLIC	?Player_Leave_Event@DAEventClass@@UAEXPAVcPlayer@@@Z ; DAEventClass::Player_Leave_Event
PUBLIC	?Player_Loaded_Event@DAEventClass@@UAEXPAVcPlayer@@@Z ; DAEventClass::Player_Loaded_Event
PUBLIC	?Name_Change_Event@DAEventClass@@UAEXPAVcPlayer@@@Z ; DAEventClass::Name_Change_Event
PUBLIC	?Level_Loaded_Event@DAEventClass@@UAEXXZ	; DAEventClass::Level_Loaded_Event
PUBLIC	?Remix_Event@DAEventClass@@UAEXXZ		; DAEventClass::Remix_Event
PUBLIC	?Rebalance_Event@DAEventClass@@UAEXXZ		; DAEventClass::Rebalance_Event
PUBLIC	?Swap_Event@DAEventClass@@UAEXXZ		; DAEventClass::Swap_Event
PUBLIC	?Game_Over_Event@DAEventClass@@UAEXXZ		; DAEventClass::Game_Over_Event
PUBLIC	?Console_Output_Event@DAEventClass@@UAEXPBD@Z	; DAEventClass::Console_Output_Event
PUBLIC	?Ren_Log_Event@DAEventClass@@UAEXPBD@Z		; DAEventClass::Ren_Log_Event
PUBLIC	?DA_Log_Event@DAEventClass@@UAEXPBD0@Z		; DAEventClass::DA_Log_Event
PUBLIC	?Character_Purchase_Request_Event@DAEventClass@@UAEHPAVBaseControllerClass@@PAVcPlayer@@AAMPBVSoldierGameObjDef@@@Z ; DAEventClass::Character_Purchase_Request_Event
PUBLIC	?Vehicle_Purchase_Request_Event@DAEventClass@@UAEHPAVBaseControllerClass@@PAVcPlayer@@AAMPBVVehicleGameObjDef@@@Z ; DAEventClass::Vehicle_Purchase_Request_Event
PUBLIC	?PowerUp_Purchase_Request_Event@DAEventClass@@UAEHPAVBaseControllerClass@@PAVcPlayer@@AAMPBVPowerUpGameObjDef@@@Z ; DAEventClass::PowerUp_Purchase_Request_Event
PUBLIC	?Custom_Purchase_Request_Event@DAEventClass@@UAEHPAVBaseControllerClass@@PAVcPlayer@@AAMI@Z ; DAEventClass::Custom_Purchase_Request_Event
PUBLIC	?Character_Purchase_Event@DAEventClass@@UAEXPAVcPlayer@@MPBVSoldierGameObjDef@@@Z ; DAEventClass::Character_Purchase_Event
PUBLIC	?Vehicle_Purchase_Event@DAEventClass@@UAEXPAVcPlayer@@MPBVVehicleGameObjDef@@@Z ; DAEventClass::Vehicle_Purchase_Event
PUBLIC	?PowerUp_Purchase_Event@DAEventClass@@UAEXPAVcPlayer@@MPBVPowerUpGameObjDef@@@Z ; DAEventClass::PowerUp_Purchase_Event
PUBLIC	?Custom_Purchase_Event@DAEventClass@@UAEXPAVcPlayer@@MI@Z ; DAEventClass::Custom_Purchase_Event
PUBLIC	?Refill_Event@DAEventClass@@UAE_NPAVcPlayer@@@Z	; DAEventClass::Refill_Event
PUBLIC	?Suicide_Event@DAEventClass@@UAE_NPAVcPlayer@@@Z ; DAEventClass::Suicide_Event
PUBLIC	?Team_Change_Request_Event@DAEventClass@@UAE_NPAVcPlayer@@@Z ; DAEventClass::Team_Change_Request_Event
PUBLIC	?Team_Change_Event@DAEventClass@@UAEXPAVcPlayer@@@Z ; DAEventClass::Team_Change_Event
PUBLIC	?Vehicle_Entry_Request_Event@DAEventClass@@UAE_NPAVVehicleGameObj@@PAVcPlayer@@AAH@Z ; DAEventClass::Vehicle_Entry_Request_Event
PUBLIC	?Vehicle_Enter_Event@DAEventClass@@UAEXPAVVehicleGameObj@@PAVcPlayer@@H@Z ; DAEventClass::Vehicle_Enter_Event
PUBLIC	?Vehicle_Exit_Event@DAEventClass@@UAEXPAVVehicleGameObj@@PAVcPlayer@@H@Z ; DAEventClass::Vehicle_Exit_Event
PUBLIC	?PowerUp_Grant_Request_Event@DAEventClass@@UAE_NPAVcPlayer@@PBVPowerUpGameObjDef@@PAVPowerUpGameObj@@@Z ; DAEventClass::PowerUp_Grant_Request_Event
PUBLIC	?PowerUp_Grant_Event@DAEventClass@@UAEXPAVcPlayer@@PBVPowerUpGameObjDef@@PAVPowerUpGameObj@@@Z ; DAEventClass::PowerUp_Grant_Event
PUBLIC	?Add_Weapon_Request_Event@DAEventClass@@UAE_NPAVcPlayer@@PBVWeaponDefinitionClass@@@Z ; DAEventClass::Add_Weapon_Request_Event
PUBLIC	?Add_Weapon_Event@DAEventClass@@UAEXPAVcPlayer@@PAVWeaponClass@@@Z ; DAEventClass::Add_Weapon_Event
PUBLIC	?Remove_Weapon_Event@DAEventClass@@UAEXPAVcPlayer@@PAVWeaponClass@@@Z ; DAEventClass::Remove_Weapon_Event
PUBLIC	?Clear_Weapons_Event@DAEventClass@@UAEXPAVcPlayer@@@Z ; DAEventClass::Clear_Weapons_Event
PUBLIC	?Beacon_Deploy_Event@DAEventClass@@UAEXPAVBeaconGameObj@@@Z ; DAEventClass::Beacon_Deploy_Event
PUBLIC	?Beacon_Detonate_Event@DAEventClass@@UAEXPAVBeaconGameObj@@@Z ; DAEventClass::Beacon_Detonate_Event
PUBLIC	?C4_Detonate_Request_Event@DAEventClass@@UAE_NPAVC4GameObj@@PAVSmartGameObj@@@Z ; DAEventClass::C4_Detonate_Request_Event
PUBLIC	?C4_Detonate_Event@DAEventClass@@UAEXPAVC4GameObj@@@Z ; DAEventClass::C4_Detonate_Event
PUBLIC	?Change_Character_Event@DAEventClass@@UAEXPAVcPlayer@@PBVSoldierGameObjDef@@@Z ; DAEventClass::Change_Character_Event
PUBLIC	?Vehicle_Flip_Event@DAEventClass@@UAE_NPAVVehicleGameObj@@@Z ; DAEventClass::Vehicle_Flip_Event
PUBLIC	?Request_Vehicle_Event@DAEventClass@@UAE_NPAVVehicleFactoryGameObj@@PBVVehicleGameObjDef@@PAVcPlayer@@MPAVSoldierGameObj@@@Z ; DAEventClass::Request_Vehicle_Event
PUBLIC	?Think@DAEventClass@@UAEXXZ			; DAEventClass::Think
PUBLIC	?Dialog_Event@DAEventClass@@UAEXPAVcPlayer@@W4DialogMessageType@@PAVScriptedDialogClass@@PAVScriptedControlClass@@@Z ; DAEventClass::Dialog_Event
PUBLIC	?Object_Created_Event@DAEventClass@@UAEXPAVScriptableGameObj@@@Z ; DAEventClass::Object_Created_Event
PUBLIC	?Stock_Client_Damage_Request_Event@DAEventClass@@UAE_NPAVDamageableGameObj@@PAVArmedGameObj@@MI@Z ; DAEventClass::Stock_Client_Damage_Request_Event
PUBLIC	?TT_Client_Damage_Request_Event@DAEventClass@@UAE_NPAVDamageableGameObj@@PAVArmedGameObj@@PBVAmmoDefinitionClass@@PBD@Z ; DAEventClass::TT_Client_Damage_Request_Event
PUBLIC	?Damage_Request_Event@DAEventClass@@UAE_NPAVDamageableGameObj@@PAVArmedGameObj@@AAMAAIMW4Type@DADamageType@@@Z ; DAEventClass::Damage_Request_Event
PUBLIC	?Damage_Event@DAEventClass@@UAEXPAVDamageableGameObj@@PAVArmedGameObj@@MIMW4Type@DADamageType@@@Z ; DAEventClass::Damage_Event
PUBLIC	?Kill_Event@DAEventClass@@UAEXPAVDamageableGameObj@@PAVArmedGameObj@@MIMW4Type@DADamageType@@@Z ; DAEventClass::Kill_Event
PUBLIC	?Custom_Event@DAEventClass@@UAEXPAVScriptableGameObj@@HH0@Z ; DAEventClass::Custom_Event
PUBLIC	?Poke_Event@DAEventClass@@UAEXPAVcPlayer@@PAVPhysicalGameObj@@@Z ; DAEventClass::Poke_Event
PUBLIC	?Zone_Enter_Event@DAEventClass@@UAEXPAVScriptZoneGameObj@@PAVPhysicalGameObj@@@Z ; DAEventClass::Zone_Enter_Event
PUBLIC	?Zone_Exit_Event@DAEventClass@@UAEXPAVScriptZoneGameObj@@PAVPhysicalGameObj@@@Z ; DAEventClass::Zone_Exit_Event
PUBLIC	?Object_Destroyed_Event@DAEventClass@@UAEXPAVScriptableGameObj@@@Z ; DAEventClass::Object_Destroyed_Event
PUBLIC	?Timer_Expired@DAEventClass@@UAEXHI@Z		; DAEventClass::Timer_Expired
PUBLIC	??1DAEventClass@@UAE@XZ				; DAEventClass::~DAEventClass
PUBLIC	??0DAEventClass@@QAE@XZ				; DAEventClass::DAEventClass
PUBLIC	??0DAEventClass@@QAE@ABV0@@Z			; DAEventClass::DAEventClass
PUBLIC	??4DAEventClass@@QAEAAV0@ABV0@@Z		; DAEventClass::operator=
PUBLIC	??_GDAEventClass@@UAEPAXI@Z			; DAEventClass::`scalar deleting destructor'
PUBLIC	??_EDAEventClass@@UAEPAXI@Z			; DAEventClass::`vector deleting destructor'
PUBLIC	??1DAGameObjObserverClass@@UAE@XZ		; DAGameObjObserverClass::~DAGameObjObserverClass
PUBLIC	?Destroyed@DAGameObjObserverClass@@UAEXPAVScriptableGameObj@@@Z ; DAGameObjObserverClass::Destroyed
PUBLIC	?Custom@DAGameObjObserverClass@@UAEXPAVScriptableGameObj@@HH0@Z ; DAGameObjObserverClass::Custom
PUBLIC	?Poked@DAGameObjObserverClass@@UAEXPAVScriptableGameObj@@0@Z ; DAGameObjObserverClass::Poked
PUBLIC	?Entered@DAGameObjObserverClass@@UAEXPAVScriptableGameObj@@0@Z ; DAGameObjObserverClass::Entered
PUBLIC	?Exited@DAGameObjObserverClass@@UAEXPAVScriptableGameObj@@0@Z ; DAGameObjObserverClass::Exited
PUBLIC	?Sound_Heard@DAGameObjObserverClass@@UAEXPAVScriptableGameObj@@ABUCombatSound@@@Z ; DAGameObjObserverClass::Sound_Heard
PUBLIC	?Enemy_Seen@DAGameObjObserverClass@@UAEXPAVScriptableGameObj@@0@Z ; DAGameObjObserverClass::Enemy_Seen
PUBLIC	?Action_Complete@DAGameObjObserverClass@@UAEXPAVScriptableGameObj@@HW4ActionCompleteReason@@@Z ; DAGameObjObserverClass::Action_Complete
PUBLIC	?Timer_Expired@DAGameObjObserverClass@@UAEXPAVScriptableGameObj@@H@Z ; DAGameObjObserverClass::Timer_Expired
PUBLIC	?Animation_Complete@DAGameObjObserverClass@@UAEXPAVScriptableGameObj@@PBD@Z ; DAGameObjObserverClass::Animation_Complete
PUBLIC	?Init@DAGameObjObserverClass@@UAEXXZ		; DAGameObjObserverClass::Init
PUBLIC	?Vehicle_Entry_Request@DAGameObjObserverClass@@UAE_NPAVcPlayer@@AAH@Z ; DAGameObjObserverClass::Vehicle_Entry_Request
PUBLIC	?Vehicle_Entry_Request@DAGameObjObserverClass@@UAE_NPAVVehicleGameObj@@AAH@Z ; DAGameObjObserverClass::Vehicle_Entry_Request
PUBLIC	?Vehicle_Enter@DAGameObjObserverClass@@UAEXPAVcPlayer@@H@Z ; DAGameObjObserverClass::Vehicle_Enter
PUBLIC	?Vehicle_Enter@DAGameObjObserverClass@@UAEXPAVVehicleGameObj@@H@Z ; DAGameObjObserverClass::Vehicle_Enter
PUBLIC	?Vehicle_Exit@DAGameObjObserverClass@@UAEXPAVcPlayer@@H@Z ; DAGameObjObserverClass::Vehicle_Exit
PUBLIC	?Vehicle_Exit@DAGameObjObserverClass@@UAEXPAVVehicleGameObj@@H@Z ; DAGameObjObserverClass::Vehicle_Exit
PUBLIC	?Vehicle_Flip@DAGameObjObserverClass@@UAE_NXZ	; DAGameObjObserverClass::Vehicle_Flip
PUBLIC	?Damage_Dealt_Request@DAGameObjObserverClass@@UAE_NPAVDamageableGameObj@@AAMAAIMW4Type@DADamageType@@@Z ; DAGameObjObserverClass::Damage_Dealt_Request
PUBLIC	?Damage_Received_Request@DAGameObjObserverClass@@UAE_NPAVArmedGameObj@@AAMAAIMW4Type@DADamageType@@@Z ; DAGameObjObserverClass::Damage_Received_Request
PUBLIC	?Damage_Dealt@DAGameObjObserverClass@@UAEXPAVDamageableGameObj@@MIMW4Type@DADamageType@@@Z ; DAGameObjObserverClass::Damage_Dealt
PUBLIC	?Damage_Received@DAGameObjObserverClass@@UAEXPAVArmedGameObj@@MIMW4Type@DADamageType@@@Z ; DAGameObjObserverClass::Damage_Received
PUBLIC	?Kill_Dealt@DAGameObjObserverClass@@UAEXPAVDamageableGameObj@@MIMW4Type@DADamageType@@@Z ; DAGameObjObserverClass::Kill_Dealt
PUBLIC	?Kill_Received@DAGameObjObserverClass@@UAEXPAVArmedGameObj@@MIMW4Type@DADamageType@@@Z ; DAGameObjObserverClass::Kill_Received
PUBLIC	?PowerUp_Grant_Request@DAGameObjObserverClass@@UAE_NPAVcPlayer@@@Z ; DAGameObjObserverClass::PowerUp_Grant_Request
PUBLIC	?PowerUp_Grant_Request@DAGameObjObserverClass@@UAE_NPBVPowerUpGameObjDef@@PAVPowerUpGameObj@@@Z ; DAGameObjObserverClass::PowerUp_Grant_Request
PUBLIC	?PowerUp_Grant@DAGameObjObserverClass@@UAEXPAVcPlayer@@@Z ; DAGameObjObserverClass::PowerUp_Grant
PUBLIC	?PowerUp_Grant@DAGameObjObserverClass@@UAEXPBVPowerUpGameObjDef@@PAVPowerUpGameObj@@@Z ; DAGameObjObserverClass::PowerUp_Grant
PUBLIC	?Add_Weapon_Request@DAGameObjObserverClass@@UAE_NPBVWeaponDefinitionClass@@@Z ; DAGameObjObserverClass::Add_Weapon_Request
PUBLIC	?Add_Weapon@DAGameObjObserverClass@@UAEXPAVWeaponClass@@@Z ; DAGameObjObserverClass::Add_Weapon
PUBLIC	?Remove_Weapon@DAGameObjObserverClass@@UAEXPAVWeaponClass@@@Z ; DAGameObjObserverClass::Remove_Weapon
PUBLIC	?Clear_Weapons@DAGameObjObserverClass@@UAEXXZ	; DAGameObjObserverClass::Clear_Weapons
PUBLIC	?Get_Owner@DAGameObjObserverClass@@QAEPAVScriptableGameObj@@XZ ; DAGameObjObserverClass::Get_Owner
PUBLIC	?Killed@DAGameObjObserverClass@@EAEXPAVScriptableGameObj@@0@Z ; DAGameObjObserverClass::Killed
PUBLIC	?Damaged@DAGameObjObserverClass@@EAEXPAVScriptableGameObj@@0M@Z ; DAGameObjObserverClass::Damaged
PUBLIC	?Created@DAGameObjObserverClass@@EAEXPAVScriptableGameObj@@@Z ; DAGameObjObserverClass::Created
PUBLIC	??0DAGameObjObserverClass@@QAE@XZ		; DAGameObjObserverClass::DAGameObjObserverClass
PUBLIC	??0DAGameObjObserverClass@@QAE@ABV0@@Z		; DAGameObjObserverClass::DAGameObjObserverClass
PUBLIC	??4DAGameObjObserverClass@@QAEAAV0@ABV0@@Z	; DAGameObjObserverClass::operator=
PUBLIC	??_GDAGameObjObserverClass@@UAEPAXI@Z		; DAGameObjObserverClass::`scalar deleting destructor'
PUBLIC	??_EDAGameObjObserverClass@@UAEPAXI@Z		; DAGameObjObserverClass::`vector deleting destructor'
PUBLIC	??_5@YA?AW4Flag@DAPlayerFlags@@AAW401@W401@@Z	; operator|=
PUBLIC	??_4@YA?AW4Flag@DAPlayerFlags@@AAW401@W401@@Z	; operator&=
PUBLIC	??S@YA?AW4Flag@DAPlayerFlags@@W401@@Z		; operator~
PUBLIC	?Get_Owner@DAPlayerClass@@QAEPAVcPlayer@@XZ	; DAPlayerClass::Get_Owner
PUBLIC	?Get_ID@DAPlayerClass@@QAEHXZ			; DAPlayerClass::Get_ID
PUBLIC	?Get_Name@DAPlayerClass@@QAEABVWideStringClass@@XZ ; DAPlayerClass::Get_Name
PUBLIC	?Get_GameObj@DAPlayerClass@@QAEPAVSoldierGameObj@@XZ ; DAPlayerClass::Get_GameObj
PUBLIC	?Get_Team@DAPlayerClass@@QAEHXZ			; DAPlayerClass::Get_Team
PUBLIC	??0?$VectorClass@PAVDAPlayerObserverClass@@@@QAE@ABV0@@Z ; VectorClass<DAPlayerObserverClass *>::VectorClass<DAPlayerObserverClass *>
PUBLIC	??4?$VectorClass@PAVDAPlayerObserverClass@@@@QAEAAV0@ABV0@@Z ; VectorClass<DAPlayerObserverClass *>::operator=
PUBLIC	??1?$VectorClass@PAVDAPlayerObserverClass@@@@UAE@XZ ; VectorClass<DAPlayerObserverClass *>::~VectorClass<DAPlayerObserverClass *>
PUBLIC	??A?$VectorClass@PAVDAPlayerObserverClass@@@@QAEAAPAVDAPlayerObserverClass@@H@Z ; VectorClass<DAPlayerObserverClass *>::operator[]
PUBLIC	??A?$VectorClass@PAVDAPlayerObserverClass@@@@QBEABQAVDAPlayerObserverClass@@H@Z ; VectorClass<DAPlayerObserverClass *>::operator[]
PUBLIC	??8?$VectorClass@PAVDAPlayerObserverClass@@@@UBE_NABV0@@Z ; VectorClass<DAPlayerObserverClass *>::operator==
PUBLIC	?Resize@?$VectorClass@PAVDAPlayerObserverClass@@@@UAE_NHPBQAVDAPlayerObserverClass@@@Z ; VectorClass<DAPlayerObserverClass *>::Resize
PUBLIC	?Clear@?$VectorClass@PAVDAPlayerObserverClass@@@@UAEXXZ ; VectorClass<DAPlayerObserverClass *>::Clear
PUBLIC	?Length@?$VectorClass@PAVDAPlayerObserverClass@@@@QBEHXZ ; VectorClass<DAPlayerObserverClass *>::Length
PUBLIC	?ID@?$VectorClass@PAVDAPlayerObserverClass@@@@UAEHPBQAVDAPlayerObserverClass@@@Z ; VectorClass<DAPlayerObserverClass *>::ID
PUBLIC	?ID@?$VectorClass@PAVDAPlayerObserverClass@@@@UAEHABQAVDAPlayerObserverClass@@@Z ; VectorClass<DAPlayerObserverClass *>::ID
PUBLIC	??_G?$VectorClass@PAVDAPlayerObserverClass@@@@UAEPAXI@Z ; VectorClass<DAPlayerObserverClass *>::`scalar deleting destructor'
PUBLIC	??0?$DynamicVectorClass@PAVDAPlayerObserverClass@@@@QAE@ABV0@@Z ; DynamicVectorClass<DAPlayerObserverClass *>::DynamicVectorClass<DAPlayerObserverClass *>
PUBLIC	??4?$DynamicVectorClass@PAVDAPlayerObserverClass@@@@QAEAAV0@ABV0@@Z ; DynamicVectorClass<DAPlayerObserverClass *>::operator=
PUBLIC	?Resize@?$DynamicVectorClass@PAVDAPlayerObserverClass@@@@UAE_NHPBQAVDAPlayerObserverClass@@@Z ; DynamicVectorClass<DAPlayerObserverClass *>::Resize
PUBLIC	?Clear@?$DynamicVectorClass@PAVDAPlayerObserverClass@@@@UAEXXZ ; DynamicVectorClass<DAPlayerObserverClass *>::Clear
PUBLIC	?Count@?$DynamicVectorClass@PAVDAPlayerObserverClass@@@@QBEHXZ ; DynamicVectorClass<DAPlayerObserverClass *>::Count
PUBLIC	?ID@?$DynamicVectorClass@PAVDAPlayerObserverClass@@@@UAEHPBQAVDAPlayerObserverClass@@@Z ; DynamicVectorClass<DAPlayerObserverClass *>::ID
PUBLIC	?ID@?$DynamicVectorClass@PAVDAPlayerObserverClass@@@@UAEHABQAVDAPlayerObserverClass@@@Z ; DynamicVectorClass<DAPlayerObserverClass *>::ID
PUBLIC	??1?$DynamicVectorClass@PAVDAPlayerObserverClass@@@@UAE@XZ ; DynamicVectorClass<DAPlayerObserverClass *>::~DynamicVectorClass<DAPlayerObserverClass *>
PUBLIC	??_G?$DynamicVectorClass@PAVDAPlayerObserverClass@@@@UAEPAXI@Z ; DynamicVectorClass<DAPlayerObserverClass *>::`scalar deleting destructor'
PUBLIC	??0?$VectorClass@PAVDAPlayerDataClass@@@@QAE@ABV0@@Z ; VectorClass<DAPlayerDataClass *>::VectorClass<DAPlayerDataClass *>
PUBLIC	??4?$VectorClass@PAVDAPlayerDataClass@@@@QAEAAV0@ABV0@@Z ; VectorClass<DAPlayerDataClass *>::operator=
PUBLIC	??1?$VectorClass@PAVDAPlayerDataClass@@@@UAE@XZ	; VectorClass<DAPlayerDataClass *>::~VectorClass<DAPlayerDataClass *>
PUBLIC	??A?$VectorClass@PAVDAPlayerDataClass@@@@QAEAAPAVDAPlayerDataClass@@H@Z ; VectorClass<DAPlayerDataClass *>::operator[]
PUBLIC	??A?$VectorClass@PAVDAPlayerDataClass@@@@QBEABQAVDAPlayerDataClass@@H@Z ; VectorClass<DAPlayerDataClass *>::operator[]
PUBLIC	??8?$VectorClass@PAVDAPlayerDataClass@@@@UBE_NABV0@@Z ; VectorClass<DAPlayerDataClass *>::operator==
PUBLIC	?Resize@?$VectorClass@PAVDAPlayerDataClass@@@@UAE_NHPBQAVDAPlayerDataClass@@@Z ; VectorClass<DAPlayerDataClass *>::Resize
PUBLIC	?Clear@?$VectorClass@PAVDAPlayerDataClass@@@@UAEXXZ ; VectorClass<DAPlayerDataClass *>::Clear
PUBLIC	?Length@?$VectorClass@PAVDAPlayerDataClass@@@@QBEHXZ ; VectorClass<DAPlayerDataClass *>::Length
PUBLIC	?ID@?$VectorClass@PAVDAPlayerDataClass@@@@UAEHPBQAVDAPlayerDataClass@@@Z ; VectorClass<DAPlayerDataClass *>::ID
PUBLIC	?ID@?$VectorClass@PAVDAPlayerDataClass@@@@UAEHABQAVDAPlayerDataClass@@@Z ; VectorClass<DAPlayerDataClass *>::ID
PUBLIC	??_G?$VectorClass@PAVDAPlayerDataClass@@@@UAEPAXI@Z ; VectorClass<DAPlayerDataClass *>::`scalar deleting destructor'
PUBLIC	??0?$DynamicVectorClass@PAVDAPlayerDataClass@@@@QAE@ABV0@@Z ; DynamicVectorClass<DAPlayerDataClass *>::DynamicVectorClass<DAPlayerDataClass *>
PUBLIC	??4?$DynamicVectorClass@PAVDAPlayerDataClass@@@@QAEAAV0@ABV0@@Z ; DynamicVectorClass<DAPlayerDataClass *>::operator=
PUBLIC	?Resize@?$DynamicVectorClass@PAVDAPlayerDataClass@@@@UAE_NHPBQAVDAPlayerDataClass@@@Z ; DynamicVectorClass<DAPlayerDataClass *>::Resize
PUBLIC	?Clear@?$DynamicVectorClass@PAVDAPlayerDataClass@@@@UAEXXZ ; DynamicVectorClass<DAPlayerDataClass *>::Clear
PUBLIC	?Count@?$DynamicVectorClass@PAVDAPlayerDataClass@@@@QBEHXZ ; DynamicVectorClass<DAPlayerDataClass *>::Count
PUBLIC	?ID@?$DynamicVectorClass@PAVDAPlayerDataClass@@@@UAEHPBQAVDAPlayerDataClass@@@Z ; DynamicVectorClass<DAPlayerDataClass *>::ID
PUBLIC	?ID@?$DynamicVectorClass@PAVDAPlayerDataClass@@@@UAEHABQAVDAPlayerDataClass@@@Z ; DynamicVectorClass<DAPlayerDataClass *>::ID
PUBLIC	??1?$DynamicVectorClass@PAVDAPlayerDataClass@@@@UAE@XZ ; DynamicVectorClass<DAPlayerDataClass *>::~DynamicVectorClass<DAPlayerDataClass *>
PUBLIC	??_G?$DynamicVectorClass@PAVDAPlayerDataClass@@@@UAEPAXI@Z ; DynamicVectorClass<DAPlayerDataClass *>::`scalar deleting destructor'
PUBLIC	??0?$VectorClass@PAUDAPlayerTagStruct@DAPlayerClass@@@@QAE@ABV0@@Z ; VectorClass<DAPlayerClass::DAPlayerTagStruct *>::VectorClass<DAPlayerClass::DAPlayerTagStruct *>
PUBLIC	??4?$VectorClass@PAUDAPlayerTagStruct@DAPlayerClass@@@@QAEAAV0@ABV0@@Z ; VectorClass<DAPlayerClass::DAPlayerTagStruct *>::operator=
PUBLIC	??1?$VectorClass@PAUDAPlayerTagStruct@DAPlayerClass@@@@UAE@XZ ; VectorClass<DAPlayerClass::DAPlayerTagStruct *>::~VectorClass<DAPlayerClass::DAPlayerTagStruct *>
PUBLIC	??A?$VectorClass@PAUDAPlayerTagStruct@DAPlayerClass@@@@QAEAAPAUDAPlayerTagStruct@DAPlayerClass@@H@Z ; VectorClass<DAPlayerClass::DAPlayerTagStruct *>::operator[]
PUBLIC	??A?$VectorClass@PAUDAPlayerTagStruct@DAPlayerClass@@@@QBEABQAUDAPlayerTagStruct@DAPlayerClass@@H@Z ; VectorClass<DAPlayerClass::DAPlayerTagStruct *>::operator[]
PUBLIC	??8?$VectorClass@PAUDAPlayerTagStruct@DAPlayerClass@@@@UBE_NABV0@@Z ; VectorClass<DAPlayerClass::DAPlayerTagStruct *>::operator==
PUBLIC	?Resize@?$VectorClass@PAUDAPlayerTagStruct@DAPlayerClass@@@@UAE_NHPBQAUDAPlayerTagStruct@DAPlayerClass@@@Z ; VectorClass<DAPlayerClass::DAPlayerTagStruct *>::Resize
PUBLIC	?Clear@?$VectorClass@PAUDAPlayerTagStruct@DAPlayerClass@@@@UAEXXZ ; VectorClass<DAPlayerClass::DAPlayerTagStruct *>::Clear
PUBLIC	?Length@?$VectorClass@PAUDAPlayerTagStruct@DAPlayerClass@@@@QBEHXZ ; VectorClass<DAPlayerClass::DAPlayerTagStruct *>::Length
PUBLIC	?ID@?$VectorClass@PAUDAPlayerTagStruct@DAPlayerClass@@@@UAEHPBQAUDAPlayerTagStruct@DAPlayerClass@@@Z ; VectorClass<DAPlayerClass::DAPlayerTagStruct *>::ID
PUBLIC	?ID@?$VectorClass@PAUDAPlayerTagStruct@DAPlayerClass@@@@UAEHABQAUDAPlayerTagStruct@DAPlayerClass@@@Z ; VectorClass<DAPlayerClass::DAPlayerTagStruct *>::ID
PUBLIC	??_G?$VectorClass@PAUDAPlayerTagStruct@DAPlayerClass@@@@UAEPAXI@Z ; VectorClass<DAPlayerClass::DAPlayerTagStruct *>::`scalar deleting destructor'
PUBLIC	??0?$DynamicVectorClass@PAUDAPlayerTagStruct@DAPlayerClass@@@@QAE@ABV0@@Z ; DynamicVectorClass<DAPlayerClass::DAPlayerTagStruct *>::DynamicVectorClass<DAPlayerClass::DAPlayerTagStruct *>
PUBLIC	??4?$DynamicVectorClass@PAUDAPlayerTagStruct@DAPlayerClass@@@@QAEAAV0@ABV0@@Z ; DynamicVectorClass<DAPlayerClass::DAPlayerTagStruct *>::operator=
PUBLIC	?Resize@?$DynamicVectorClass@PAUDAPlayerTagStruct@DAPlayerClass@@@@UAE_NHPBQAUDAPlayerTagStruct@DAPlayerClass@@@Z ; DynamicVectorClass<DAPlayerClass::DAPlayerTagStruct *>::Resize
PUBLIC	?Clear@?$DynamicVectorClass@PAUDAPlayerTagStruct@DAPlayerClass@@@@UAEXXZ ; DynamicVectorClass<DAPlayerClass::DAPlayerTagStruct *>::Clear
PUBLIC	?Count@?$DynamicVectorClass@PAUDAPlayerTagStruct@DAPlayerClass@@@@QBEHXZ ; DynamicVectorClass<DAPlayerClass::DAPlayerTagStruct *>::Count
PUBLIC	?ID@?$DynamicVectorClass@PAUDAPlayerTagStruct@DAPlayerClass@@@@UAEHPBQAUDAPlayerTagStruct@DAPlayerClass@@@Z ; DynamicVectorClass<DAPlayerClass::DAPlayerTagStruct *>::ID
PUBLIC	?ID@?$DynamicVectorClass@PAUDAPlayerTagStruct@DAPlayerClass@@@@UAEHABQAUDAPlayerTagStruct@DAPlayerClass@@@Z ; DynamicVectorClass<DAPlayerClass::DAPlayerTagStruct *>::ID
PUBLIC	??1?$DynamicVectorClass@PAUDAPlayerTagStruct@DAPlayerClass@@@@UAE@XZ ; DynamicVectorClass<DAPlayerClass::DAPlayerTagStruct *>::~DynamicVectorClass<DAPlayerClass::DAPlayerTagStruct *>
PUBLIC	??_G?$DynamicVectorClass@PAUDAPlayerTagStruct@DAPlayerClass@@@@UAEPAXI@Z ; DynamicVectorClass<DAPlayerClass::DAPlayerTagStruct *>::`scalar deleting destructor'
PUBLIC	??0DAPlayerClass@@QAE@ABV0@@Z			; DAPlayerClass::DAPlayerClass
PUBLIC	??4DAPlayerClass@@QAEAAV0@ABV0@@Z		; DAPlayerClass::operator=
PUBLIC	??0DAPlayerObserverClass@@QAE@XZ		; DAPlayerObserverClass::DAPlayerObserverClass
PUBLIC	?Get_Owner@DAPlayerObserverClass@@QAEPAVcPlayer@@XZ ; DAPlayerObserverClass::Get_Owner
PUBLIC	?Set_Owner@DAPlayerObserverClass@@QAEXPAVcPlayer@@@Z ; DAPlayerObserverClass::Set_Owner
PUBLIC	?Get_Flags@DAPlayerObserverClass@@QAE?AW4Flag@DAPlayerFlags@@XZ ; DAPlayerObserverClass::Get_Flags
PUBLIC	?Set_Flags@DAPlayerObserverClass@@QAEXW4Flag@DAPlayerFlags@@@Z ; DAPlayerObserverClass::Set_Flags
PUBLIC	?Add_Flag@DAPlayerObserverClass@@QAEXW4Flag@DAPlayerFlags@@@Z ; DAPlayerObserverClass::Add_Flag
PUBLIC	?Remove_Flag@DAPlayerObserverClass@@QAEXW4Flag@DAPlayerFlags@@@Z ; DAPlayerObserverClass::Remove_Flag
PUBLIC	?Has_Flag@DAPlayerObserverClass@@QAE_NW4Flag@DAPlayerFlags@@@Z ; DAPlayerObserverClass::Has_Flag
PUBLIC	?Get_ID@DAPlayerObserverClass@@QAEHXZ		; DAPlayerObserverClass::Get_ID
PUBLIC	?Get_Name@DAPlayerObserverClass@@QAEABVWideStringClass@@XZ ; DAPlayerObserverClass::Get_Name
PUBLIC	?Get_GameObj@DAPlayerObserverClass@@QAEPAVSoldierGameObj@@XZ ; DAPlayerObserverClass::Get_GameObj
PUBLIC	?Get_Team@DAPlayerObserverClass@@QAEHXZ		; DAPlayerObserverClass::Get_Team
PUBLIC	?Get_Timers@DAPlayerObserverClass@@QAEAAV?$DynamicVectorClass@PAUDAPlayerObserverTimerStruct@@@@XZ ; DAPlayerObserverClass::Get_Timers
PUBLIC	?Get_Chat_Commands@DAPlayerObserverClass@@QAEABV?$DynamicVectorClass@PAUDAPlayerObserverChatCommandStruct@@@@XZ ; DAPlayerObserverClass::Get_Chat_Commands
PUBLIC	?Get_Key_Hooks@DAPlayerObserverClass@@QAEABV?$DynamicVectorClass@PAUDAPlayerObserverKeyHookStruct@@@@XZ ; DAPlayerObserverClass::Get_Key_Hooks
PUBLIC	?Set_Delete_Pending@DAPlayerObserverClass@@QAEXXZ ; DAPlayerObserverClass::Set_Delete_Pending
PUBLIC	?Is_Delete_Pending@DAPlayerObserverClass@@QAE_NXZ ; DAPlayerObserverClass::Is_Delete_Pending
PUBLIC	??1DAPlayerObserverClass@@UAE@XZ		; DAPlayerObserverClass::~DAPlayerObserverClass
PUBLIC	?Init@DAPlayerObserverClass@@UAEXXZ		; DAPlayerObserverClass::Init
PUBLIC	?Join@DAPlayerObserverClass@@UAEXXZ		; DAPlayerObserverClass::Join
PUBLIC	?Leave@DAPlayerObserverClass@@UAEXXZ		; DAPlayerObserverClass::Leave
PUBLIC	?Level_Loaded@DAPlayerObserverClass@@UAEXXZ	; DAPlayerObserverClass::Level_Loaded
PUBLIC	?Player_Loaded@DAPlayerObserverClass@@UAEXXZ	; DAPlayerObserverClass::Player_Loaded
PUBLIC	?Name_Change@DAPlayerObserverClass@@UAEXXZ	; DAPlayerObserverClass::Name_Change
PUBLIC	?Team_Change@DAPlayerObserverClass@@UAEXXZ	; DAPlayerObserverClass::Team_Change
PUBLIC	?Character_Purchase_Request@DAPlayerObserverClass@@UAEHAAMPBVSoldierGameObjDef@@@Z ; DAPlayerObserverClass::Character_Purchase_Request
PUBLIC	?Vehicle_Purchase_Request@DAPlayerObserverClass@@UAEHAAMPBVVehicleGameObjDef@@@Z ; DAPlayerObserverClass::Vehicle_Purchase_Request
PUBLIC	?PowerUp_Purchase_Request@DAPlayerObserverClass@@UAEHAAMPBVPowerUpGameObjDef@@@Z ; DAPlayerObserverClass::PowerUp_Purchase_Request
PUBLIC	?Custom_Purchase_Request@DAPlayerObserverClass@@UAEHAAMI@Z ; DAPlayerObserverClass::Custom_Purchase_Request
PUBLIC	?Character_Purchase@DAPlayerObserverClass@@UAEXMPBVSoldierGameObjDef@@@Z ; DAPlayerObserverClass::Character_Purchase
PUBLIC	?Vehicle_Purchase@DAPlayerObserverClass@@UAEXMPBVVehicleGameObjDef@@@Z ; DAPlayerObserverClass::Vehicle_Purchase
PUBLIC	?PowerUp_Purchase@DAPlayerObserverClass@@UAEXMPBVPowerUpGameObjDef@@@Z ; DAPlayerObserverClass::PowerUp_Purchase
PUBLIC	?Custom_Purchase@DAPlayerObserverClass@@UAEXMI@Z ; DAPlayerObserverClass::Custom_Purchase
PUBLIC	?Vehicle_Entry_Request@DAPlayerObserverClass@@UAE_NPAVVehicleGameObj@@AAH@Z ; DAPlayerObserverClass::Vehicle_Entry_Request
PUBLIC	?Vehicle_Enter@DAPlayerObserverClass@@UAEXPAVVehicleGameObj@@H@Z ; DAPlayerObserverClass::Vehicle_Enter
PUBLIC	?Vehicle_Exit@DAPlayerObserverClass@@UAEXPAVVehicleGameObj@@H@Z ; DAPlayerObserverClass::Vehicle_Exit
PUBLIC	?PowerUp_Grant_Request@DAPlayerObserverClass@@UAE_NPBVPowerUpGameObjDef@@PAVPowerUpGameObj@@@Z ; DAPlayerObserverClass::PowerUp_Grant_Request
PUBLIC	?PowerUp_Grant@DAPlayerObserverClass@@UAEXPBVPowerUpGameObjDef@@PAVPowerUpGameObj@@@Z ; DAPlayerObserverClass::PowerUp_Grant
PUBLIC	?Add_Weapon_Request@DAPlayerObserverClass@@UAE_NPBVWeaponDefinitionClass@@@Z ; DAPlayerObserverClass::Add_Weapon_Request
PUBLIC	?Add_Weapon@DAPlayerObserverClass@@UAEXPAVWeaponClass@@@Z ; DAPlayerObserverClass::Add_Weapon
PUBLIC	?Remove_Weapon@DAPlayerObserverClass@@UAEXPAVWeaponClass@@@Z ; DAPlayerObserverClass::Remove_Weapon
PUBLIC	?Clear_Weapons@DAPlayerObserverClass@@UAEXXZ	; DAPlayerObserverClass::Clear_Weapons
PUBLIC	?C4_Detonate_Request@DAPlayerObserverClass@@UAE_NPAVC4GameObj@@@Z ; DAPlayerObserverClass::C4_Detonate_Request
PUBLIC	?C4_Detonate@DAPlayerObserverClass@@UAEXPAVC4GameObj@@@Z ; DAPlayerObserverClass::C4_Detonate
PUBLIC	?Change_Character@DAPlayerObserverClass@@UAEXPBVSoldierGameObjDef@@@Z ; DAPlayerObserverClass::Change_Character
PUBLIC	?Dialog_Message@DAPlayerObserverClass@@UAEXW4DialogMessageType@@PAVScriptedDialogClass@@PAVScriptedControlClass@@@Z ; DAPlayerObserverClass::Dialog_Message
PUBLIC	?Created@DAPlayerObserverClass@@UAEXXZ		; DAPlayerObserverClass::Created
PUBLIC	?Destroyed@DAPlayerObserverClass@@UAEXXZ	; DAPlayerObserverClass::Destroyed
PUBLIC	?Damage_Dealt_Request@DAPlayerObserverClass@@UAE_NPAVDamageableGameObj@@AAMAAIMW4Type@DADamageType@@@Z ; DAPlayerObserverClass::Damage_Dealt_Request
PUBLIC	?Damage_Received_Request@DAPlayerObserverClass@@UAE_NPAVArmedGameObj@@AAMAAIMW4Type@DADamageType@@@Z ; DAPlayerObserverClass::Damage_Received_Request
PUBLIC	?Damage_Dealt@DAPlayerObserverClass@@UAEXPAVDamageableGameObj@@MIMW4Type@DADamageType@@@Z ; DAPlayerObserverClass::Damage_Dealt
PUBLIC	?Damage_Received@DAPlayerObserverClass@@UAEXPAVArmedGameObj@@MIMW4Type@DADamageType@@@Z ; DAPlayerObserverClass::Damage_Received
PUBLIC	?Kill_Dealt@DAPlayerObserverClass@@UAEXPAVDamageableGameObj@@MIMW4Type@DADamageType@@@Z ; DAPlayerObserverClass::Kill_Dealt
PUBLIC	?Kill_Received@DAPlayerObserverClass@@UAEXPAVArmedGameObj@@MIMW4Type@DADamageType@@@Z ; DAPlayerObserverClass::Kill_Received
PUBLIC	?Custom@DAPlayerObserverClass@@UAEXPAVScriptableGameObj@@HH@Z ; DAPlayerObserverClass::Custom
PUBLIC	?Poked@DAPlayerObserverClass@@UAEXPAVcPlayer@@@Z ; DAPlayerObserverClass::Poked
PUBLIC	?Timer_Expired@DAPlayerObserverClass@@UAEXHI@Z	; DAPlayerObserverClass::Timer_Expired
PUBLIC	?Think@DAPlayerObserverClass@@UAEXXZ		; DAPlayerObserverClass::Think
PUBLIC	??0?$VectorClass@PAUDAPlayerObserverTimerStruct@@@@QAE@HPBQAUDAPlayerObserverTimerStruct@@@Z ; VectorClass<DAPlayerObserverTimerStruct *>::VectorClass<DAPlayerObserverTimerStruct *>
PUBLIC	??0?$VectorClass@PAUDAPlayerObserverTimerStruct@@@@QAE@ABV0@@Z ; VectorClass<DAPlayerObserverTimerStruct *>::VectorClass<DAPlayerObserverTimerStruct *>
PUBLIC	??4?$VectorClass@PAUDAPlayerObserverTimerStruct@@@@QAEAAV0@ABV0@@Z ; VectorClass<DAPlayerObserverTimerStruct *>::operator=
PUBLIC	??1?$VectorClass@PAUDAPlayerObserverTimerStruct@@@@UAE@XZ ; VectorClass<DAPlayerObserverTimerStruct *>::~VectorClass<DAPlayerObserverTimerStruct *>
PUBLIC	??A?$VectorClass@PAUDAPlayerObserverTimerStruct@@@@QAEAAPAUDAPlayerObserverTimerStruct@@H@Z ; VectorClass<DAPlayerObserverTimerStruct *>::operator[]
PUBLIC	??A?$VectorClass@PAUDAPlayerObserverTimerStruct@@@@QBEABQAUDAPlayerObserverTimerStruct@@H@Z ; VectorClass<DAPlayerObserverTimerStruct *>::operator[]
PUBLIC	??8?$VectorClass@PAUDAPlayerObserverTimerStruct@@@@UBE_NABV0@@Z ; VectorClass<DAPlayerObserverTimerStruct *>::operator==
PUBLIC	?Resize@?$VectorClass@PAUDAPlayerObserverTimerStruct@@@@UAE_NHPBQAUDAPlayerObserverTimerStruct@@@Z ; VectorClass<DAPlayerObserverTimerStruct *>::Resize
PUBLIC	?Clear@?$VectorClass@PAUDAPlayerObserverTimerStruct@@@@UAEXXZ ; VectorClass<DAPlayerObserverTimerStruct *>::Clear
PUBLIC	?Length@?$VectorClass@PAUDAPlayerObserverTimerStruct@@@@QBEHXZ ; VectorClass<DAPlayerObserverTimerStruct *>::Length
PUBLIC	?ID@?$VectorClass@PAUDAPlayerObserverTimerStruct@@@@UAEHPBQAUDAPlayerObserverTimerStruct@@@Z ; VectorClass<DAPlayerObserverTimerStruct *>::ID
PUBLIC	?ID@?$VectorClass@PAUDAPlayerObserverTimerStruct@@@@UAEHABQAUDAPlayerObserverTimerStruct@@@Z ; VectorClass<DAPlayerObserverTimerStruct *>::ID
PUBLIC	??_G?$VectorClass@PAUDAPlayerObserverTimerStruct@@@@UAEPAXI@Z ; VectorClass<DAPlayerObserverTimerStruct *>::`scalar deleting destructor'
PUBLIC	??0?$DynamicVectorClass@PAUDAPlayerObserverTimerStruct@@@@QAE@IPBQAUDAPlayerObserverTimerStruct@@@Z ; DynamicVectorClass<DAPlayerObserverTimerStruct *>::DynamicVectorClass<DAPlayerObserverTimerStruct *>
PUBLIC	??0?$DynamicVectorClass@PAUDAPlayerObserverTimerStruct@@@@QAE@ABV0@@Z ; DynamicVectorClass<DAPlayerObserverTimerStruct *>::DynamicVectorClass<DAPlayerObserverTimerStruct *>
PUBLIC	??4?$DynamicVectorClass@PAUDAPlayerObserverTimerStruct@@@@QAEAAV0@ABV0@@Z ; DynamicVectorClass<DAPlayerObserverTimerStruct *>::operator=
PUBLIC	?Resize@?$DynamicVectorClass@PAUDAPlayerObserverTimerStruct@@@@UAE_NHPBQAUDAPlayerObserverTimerStruct@@@Z ; DynamicVectorClass<DAPlayerObserverTimerStruct *>::Resize
PUBLIC	?Clear@?$DynamicVectorClass@PAUDAPlayerObserverTimerStruct@@@@UAEXXZ ; DynamicVectorClass<DAPlayerObserverTimerStruct *>::Clear
PUBLIC	?Count@?$DynamicVectorClass@PAUDAPlayerObserverTimerStruct@@@@QBEHXZ ; DynamicVectorClass<DAPlayerObserverTimerStruct *>::Count
PUBLIC	?ID@?$DynamicVectorClass@PAUDAPlayerObserverTimerStruct@@@@UAEHPBQAUDAPlayerObserverTimerStruct@@@Z ; DynamicVectorClass<DAPlayerObserverTimerStruct *>::ID
PUBLIC	?ID@?$DynamicVectorClass@PAUDAPlayerObserverTimerStruct@@@@UAEHABQAUDAPlayerObserverTimerStruct@@@Z ; DynamicVectorClass<DAPlayerObserverTimerStruct *>::ID
PUBLIC	??1?$DynamicVectorClass@PAUDAPlayerObserverTimerStruct@@@@UAE@XZ ; DynamicVectorClass<DAPlayerObserverTimerStruct *>::~DynamicVectorClass<DAPlayerObserverTimerStruct *>
PUBLIC	??_G?$DynamicVectorClass@PAUDAPlayerObserverTimerStruct@@@@UAEPAXI@Z ; DynamicVectorClass<DAPlayerObserverTimerStruct *>::`scalar deleting destructor'
PUBLIC	??0?$VectorClass@PAUDAPlayerObserverChatCommandStruct@@@@QAE@HPBQAUDAPlayerObserverChatCommandStruct@@@Z ; VectorClass<DAPlayerObserverChatCommandStruct *>::VectorClass<DAPlayerObserverChatCommandStruct *>
PUBLIC	??0?$VectorClass@PAUDAPlayerObserverChatCommandStruct@@@@QAE@ABV0@@Z ; VectorClass<DAPlayerObserverChatCommandStruct *>::VectorClass<DAPlayerObserverChatCommandStruct *>
PUBLIC	??4?$VectorClass@PAUDAPlayerObserverChatCommandStruct@@@@QAEAAV0@ABV0@@Z ; VectorClass<DAPlayerObserverChatCommandStruct *>::operator=
PUBLIC	??1?$VectorClass@PAUDAPlayerObserverChatCommandStruct@@@@UAE@XZ ; VectorClass<DAPlayerObserverChatCommandStruct *>::~VectorClass<DAPlayerObserverChatCommandStruct *>
PUBLIC	??A?$VectorClass@PAUDAPlayerObserverChatCommandStruct@@@@QAEAAPAUDAPlayerObserverChatCommandStruct@@H@Z ; VectorClass<DAPlayerObserverChatCommandStruct *>::operator[]
PUBLIC	??A?$VectorClass@PAUDAPlayerObserverChatCommandStruct@@@@QBEABQAUDAPlayerObserverChatCommandStruct@@H@Z ; VectorClass<DAPlayerObserverChatCommandStruct *>::operator[]
PUBLIC	??8?$VectorClass@PAUDAPlayerObserverChatCommandStruct@@@@UBE_NABV0@@Z ; VectorClass<DAPlayerObserverChatCommandStruct *>::operator==
PUBLIC	?Resize@?$VectorClass@PAUDAPlayerObserverChatCommandStruct@@@@UAE_NHPBQAUDAPlayerObserverChatCommandStruct@@@Z ; VectorClass<DAPlayerObserverChatCommandStruct *>::Resize
PUBLIC	?Clear@?$VectorClass@PAUDAPlayerObserverChatCommandStruct@@@@UAEXXZ ; VectorClass<DAPlayerObserverChatCommandStruct *>::Clear
PUBLIC	?Length@?$VectorClass@PAUDAPlayerObserverChatCommandStruct@@@@QBEHXZ ; VectorClass<DAPlayerObserverChatCommandStruct *>::Length
PUBLIC	?ID@?$VectorClass@PAUDAPlayerObserverChatCommandStruct@@@@UAEHPBQAUDAPlayerObserverChatCommandStruct@@@Z ; VectorClass<DAPlayerObserverChatCommandStruct *>::ID
PUBLIC	?ID@?$VectorClass@PAUDAPlayerObserverChatCommandStruct@@@@UAEHABQAUDAPlayerObserverChatCommandStruct@@@Z ; VectorClass<DAPlayerObserverChatCommandStruct *>::ID
PUBLIC	??_G?$VectorClass@PAUDAPlayerObserverChatCommandStruct@@@@UAEPAXI@Z ; VectorClass<DAPlayerObserverChatCommandStruct *>::`scalar deleting destructor'
PUBLIC	??0?$DynamicVectorClass@PAUDAPlayerObserverChatCommandStruct@@@@QAE@IPBQAUDAPlayerObserverChatCommandStruct@@@Z ; DynamicVectorClass<DAPlayerObserverChatCommandStruct *>::DynamicVectorClass<DAPlayerObserverChatCommandStruct *>
PUBLIC	??0?$DynamicVectorClass@PAUDAPlayerObserverChatCommandStruct@@@@QAE@ABV0@@Z ; DynamicVectorClass<DAPlayerObserverChatCommandStruct *>::DynamicVectorClass<DAPlayerObserverChatCommandStruct *>
PUBLIC	??4?$DynamicVectorClass@PAUDAPlayerObserverChatCommandStruct@@@@QAEAAV0@ABV0@@Z ; DynamicVectorClass<DAPlayerObserverChatCommandStruct *>::operator=
PUBLIC	?Resize@?$DynamicVectorClass@PAUDAPlayerObserverChatCommandStruct@@@@UAE_NHPBQAUDAPlayerObserverChatCommandStruct@@@Z ; DynamicVectorClass<DAPlayerObserverChatCommandStruct *>::Resize
PUBLIC	?Clear@?$DynamicVectorClass@PAUDAPlayerObserverChatCommandStruct@@@@UAEXXZ ; DynamicVectorClass<DAPlayerObserverChatCommandStruct *>::Clear
PUBLIC	?Count@?$DynamicVectorClass@PAUDAPlayerObserverChatCommandStruct@@@@QBEHXZ ; DynamicVectorClass<DAPlayerObserverChatCommandStruct *>::Count
PUBLIC	?ID@?$DynamicVectorClass@PAUDAPlayerObserverChatCommandStruct@@@@UAEHPBQAUDAPlayerObserverChatCommandStruct@@@Z ; DynamicVectorClass<DAPlayerObserverChatCommandStruct *>::ID
PUBLIC	?ID@?$DynamicVectorClass@PAUDAPlayerObserverChatCommandStruct@@@@UAEHABQAUDAPlayerObserverChatCommandStruct@@@Z ; DynamicVectorClass<DAPlayerObserverChatCommandStruct *>::ID
PUBLIC	??1?$DynamicVectorClass@PAUDAPlayerObserverChatCommandStruct@@@@UAE@XZ ; DynamicVectorClass<DAPlayerObserverChatCommandStruct *>::~DynamicVectorClass<DAPlayerObserverChatCommandStruct *>
PUBLIC	??_G?$DynamicVectorClass@PAUDAPlayerObserverChatCommandStruct@@@@UAEPAXI@Z ; DynamicVectorClass<DAPlayerObserverChatCommandStruct *>::`scalar deleting destructor'
PUBLIC	??0?$VectorClass@PAUDAPlayerObserverKeyHookStruct@@@@QAE@HPBQAUDAPlayerObserverKeyHookStruct@@@Z ; VectorClass<DAPlayerObserverKeyHookStruct *>::VectorClass<DAPlayerObserverKeyHookStruct *>
PUBLIC	??0?$VectorClass@PAUDAPlayerObserverKeyHookStruct@@@@QAE@ABV0@@Z ; VectorClass<DAPlayerObserverKeyHookStruct *>::VectorClass<DAPlayerObserverKeyHookStruct *>
PUBLIC	??4?$VectorClass@PAUDAPlayerObserverKeyHookStruct@@@@QAEAAV0@ABV0@@Z ; VectorClass<DAPlayerObserverKeyHookStruct *>::operator=
PUBLIC	??1?$VectorClass@PAUDAPlayerObserverKeyHookStruct@@@@UAE@XZ ; VectorClass<DAPlayerObserverKeyHookStruct *>::~VectorClass<DAPlayerObserverKeyHookStruct *>
PUBLIC	??A?$VectorClass@PAUDAPlayerObserverKeyHookStruct@@@@QAEAAPAUDAPlayerObserverKeyHookStruct@@H@Z ; VectorClass<DAPlayerObserverKeyHookStruct *>::operator[]
PUBLIC	??A?$VectorClass@PAUDAPlayerObserverKeyHookStruct@@@@QBEABQAUDAPlayerObserverKeyHookStruct@@H@Z ; VectorClass<DAPlayerObserverKeyHookStruct *>::operator[]
PUBLIC	??8?$VectorClass@PAUDAPlayerObserverKeyHookStruct@@@@UBE_NABV0@@Z ; VectorClass<DAPlayerObserverKeyHookStruct *>::operator==
PUBLIC	?Resize@?$VectorClass@PAUDAPlayerObserverKeyHookStruct@@@@UAE_NHPBQAUDAPlayerObserverKeyHookStruct@@@Z ; VectorClass<DAPlayerObserverKeyHookStruct *>::Resize
PUBLIC	?Clear@?$VectorClass@PAUDAPlayerObserverKeyHookStruct@@@@UAEXXZ ; VectorClass<DAPlayerObserverKeyHookStruct *>::Clear
PUBLIC	?Length@?$VectorClass@PAUDAPlayerObserverKeyHookStruct@@@@QBEHXZ ; VectorClass<DAPlayerObserverKeyHookStruct *>::Length
PUBLIC	?ID@?$VectorClass@PAUDAPlayerObserverKeyHookStruct@@@@UAEHPBQAUDAPlayerObserverKeyHookStruct@@@Z ; VectorClass<DAPlayerObserverKeyHookStruct *>::ID
PUBLIC	?ID@?$VectorClass@PAUDAPlayerObserverKeyHookStruct@@@@UAEHABQAUDAPlayerObserverKeyHookStruct@@@Z ; VectorClass<DAPlayerObserverKeyHookStruct *>::ID
PUBLIC	??_G?$VectorClass@PAUDAPlayerObserverKeyHookStruct@@@@UAEPAXI@Z ; VectorClass<DAPlayerObserverKeyHookStruct *>::`scalar deleting destructor'
PUBLIC	??0?$DynamicVectorClass@PAUDAPlayerObserverKeyHookStruct@@@@QAE@IPBQAUDAPlayerObserverKeyHookStruct@@@Z ; DynamicVectorClass<DAPlayerObserverKeyHookStruct *>::DynamicVectorClass<DAPlayerObserverKeyHookStruct *>
PUBLIC	??0?$DynamicVectorClass@PAUDAPlayerObserverKeyHookStruct@@@@QAE@ABV0@@Z ; DynamicVectorClass<DAPlayerObserverKeyHookStruct *>::DynamicVectorClass<DAPlayerObserverKeyHookStruct *>
PUBLIC	??4?$DynamicVectorClass@PAUDAPlayerObserverKeyHookStruct@@@@QAEAAV0@ABV0@@Z ; DynamicVectorClass<DAPlayerObserverKeyHookStruct *>::operator=
PUBLIC	?Resize@?$DynamicVectorClass@PAUDAPlayerObserverKeyHookStruct@@@@UAE_NHPBQAUDAPlayerObserverKeyHookStruct@@@Z ; DynamicVectorClass<DAPlayerObserverKeyHookStruct *>::Resize
PUBLIC	?Clear@?$DynamicVectorClass@PAUDAPlayerObserverKeyHookStruct@@@@UAEXXZ ; DynamicVectorClass<DAPlayerObserverKeyHookStruct *>::Clear
PUBLIC	?Count@?$DynamicVectorClass@PAUDAPlayerObserverKeyHookStruct@@@@QBEHXZ ; DynamicVectorClass<DAPlayerObserverKeyHookStruct *>::Count
PUBLIC	?ID@?$DynamicVectorClass@PAUDAPlayerObserverKeyHookStruct@@@@UAEHPBQAUDAPlayerObserverKeyHookStruct@@@Z ; DynamicVectorClass<DAPlayerObserverKeyHookStruct *>::ID
PUBLIC	?ID@?$DynamicVectorClass@PAUDAPlayerObserverKeyHookStruct@@@@UAEHABQAUDAPlayerObserverKeyHookStruct@@@Z ; DynamicVectorClass<DAPlayerObserverKeyHookStruct *>::ID
PUBLIC	??1?$DynamicVectorClass@PAUDAPlayerObserverKeyHookStruct@@@@UAE@XZ ; DynamicVectorClass<DAPlayerObserverKeyHookStruct *>::~DynamicVectorClass<DAPlayerObserverKeyHookStruct *>
PUBLIC	??_G?$DynamicVectorClass@PAUDAPlayerObserverKeyHookStruct@@@@UAEPAXI@Z ; DynamicVectorClass<DAPlayerObserverKeyHookStruct *>::`scalar deleting destructor'
PUBLIC	??0DAPlayerObserverClass@@QAE@ABV0@@Z		; DAPlayerObserverClass::DAPlayerObserverClass
PUBLIC	??4DAPlayerObserverClass@@QAEAAV0@ABV0@@Z	; DAPlayerObserverClass::operator=
PUBLIC	??_GDAPlayerObserverClass@@UAEPAXI@Z		; DAPlayerObserverClass::`scalar deleting destructor'
PUBLIC	??_EDAPlayerObserverClass@@UAEPAXI@Z		; DAPlayerObserverClass::`vector deleting destructor'
PUBLIC	??1DAPlayerDataFactoryClass@@UAE@XZ		; DAPlayerDataFactoryClass::~DAPlayerDataFactoryClass
PUBLIC	??0DAPlayerDataFactoryClass@@QAE@XZ		; DAPlayerDataFactoryClass::DAPlayerDataFactoryClass
PUBLIC	??0DAPlayerDataFactoryClass@@QAE@ABV0@@Z	; DAPlayerDataFactoryClass::DAPlayerDataFactoryClass
PUBLIC	??4DAPlayerDataFactoryClass@@QAEAAV0@ABV0@@Z	; DAPlayerDataFactoryClass::operator=
PUBLIC	??_GDAPlayerDataFactoryClass@@UAEPAXI@Z		; DAPlayerDataFactoryClass::`scalar deleting destructor'
PUBLIC	??_EDAPlayerDataFactoryClass@@UAEPAXI@Z		; DAPlayerDataFactoryClass::`vector deleting destructor'
PUBLIC	??1DAPlayerDataClass@@UAE@XZ			; DAPlayerDataClass::~DAPlayerDataClass
PUBLIC	?Get_Owner@DAPlayerDataClass@@QAEPAVcPlayer@@XZ	; DAPlayerDataClass::Get_Owner
PUBLIC	?Set_Owner@DAPlayerDataClass@@QAEXPAVcPlayer@@@Z ; DAPlayerDataClass::Set_Owner
PUBLIC	?Get_Factory@DAPlayerDataClass@@QAEPBVDAPlayerDataFactoryClass@@XZ ; DAPlayerDataClass::Get_Factory
PUBLIC	?Set_Factory@DAPlayerDataClass@@QAEXPBVDAPlayerDataFactoryClass@@@Z ; DAPlayerDataClass::Set_Factory
PUBLIC	?Get_ID@DAPlayerDataClass@@QAEHXZ		; DAPlayerDataClass::Get_ID
PUBLIC	?Get_Name@DAPlayerDataClass@@QAEABVWideStringClass@@XZ ; DAPlayerDataClass::Get_Name
PUBLIC	?Get_GameObj@DAPlayerDataClass@@QAEPAVSoldierGameObj@@XZ ; DAPlayerDataClass::Get_GameObj
PUBLIC	?Get_Team@DAPlayerDataClass@@QAEHXZ		; DAPlayerDataClass::Get_Team
PUBLIC	?Init@DAPlayerDataClass@@UAEXXZ			; DAPlayerDataClass::Init
PUBLIC	?Clear_Level@DAPlayerDataClass@@UAEXXZ		; DAPlayerDataClass::Clear_Level
PUBLIC	?Clear_Session@DAPlayerDataClass@@UAEXXZ	; DAPlayerDataClass::Clear_Session
PUBLIC	??0DAPlayerDataClass@@QAE@XZ			; DAPlayerDataClass::DAPlayerDataClass
PUBLIC	??0DAPlayerDataClass@@QAE@ABV0@@Z		; DAPlayerDataClass::DAPlayerDataClass
PUBLIC	??4DAPlayerDataClass@@QAEAAV0@ABV0@@Z		; DAPlayerDataClass::operator=
PUBLIC	??_GDAPlayerDataClass@@UAEPAXI@Z		; DAPlayerDataClass::`scalar deleting destructor'
PUBLIC	??_EDAPlayerDataClass@@UAEPAXI@Z		; DAPlayerDataClass::`vector deleting destructor'
PUBLIC	?Get_Name@DACrateModifierFactoryClass@@QBEPBDXZ	; DACrateModifierFactoryClass::Get_Name
PUBLIC	??1DACrateModifierClass@@UAE@XZ			; DACrateModifierClass::~DACrateModifierClass
PUBLIC	?Set_Factory@DACrateModifierClass@@QAEXPBVDACrateModifierFactoryClass@@@Z ; DACrateModifierClass::Set_Factory
PUBLIC	?Get_Factory@DACrateModifierClass@@QAEPBVDACrateModifierFactoryClass@@XZ ; DACrateModifierClass::Get_Factory
PUBLIC	?Get_Name@DACrateModifierClass@@QBEPBDXZ	; DACrateModifierClass::Get_Name
PUBLIC	??0DACrateModifierClass@@QAE@XZ			; DACrateModifierClass::DACrateModifierClass
PUBLIC	??0DACrateModifierClass@@QAE@ABV0@@Z		; DACrateModifierClass::DACrateModifierClass
PUBLIC	??4DACrateModifierClass@@QAEAAV0@ABV0@@Z	; DACrateModifierClass::operator=
PUBLIC	??_GDACrateModifierClass@@UAEPAXI@Z		; DACrateModifierClass::`scalar deleting destructor'
PUBLIC	??_EDACrateModifierClass@@UAEPAXI@Z		; DACrateModifierClass::`vector deleting destructor'
PUBLIC	??U@YA?AW4Type@DACrateType@@W401@0@Z		; operator|
PUBLIC	??1DACrateFactoryClass@@UAE@XZ			; DACrateFactoryClass::~DACrateFactoryClass
PUBLIC	?Get_Name@DACrateFactoryClass@@QBEPBDXZ		; DACrateFactoryClass::Get_Name
PUBLIC	?Get_Section@DACrateFactoryClass@@QBEPBDXZ	; DACrateFactoryClass::Get_Section
PUBLIC	??_GDACrateFactoryClass@@UAEPAXI@Z		; DACrateFactoryClass::`scalar deleting destructor'
PUBLIC	?Can_Activate@DACrateClass@@UAE_NPAVcPlayer@@@Z	; DACrateClass::Can_Activate
PUBLIC	??1DACrateClass@@UAE@XZ				; DACrateClass::~DACrateClass
PUBLIC	?Get_Cap_Odds@DACrateClass@@QBE_NXZ		; DACrateClass::Get_Cap_Odds
PUBLIC	?Get_Base_Odds@DACrateClass@@QBEMXZ		; DACrateClass::Get_Base_Odds
PUBLIC	?Get_Modified_Odds@DACrateClass@@QBEMXZ		; DACrateClass::Get_Modified_Odds
PUBLIC	?Get_Final_Odds@DACrateClass@@QBEMXZ		; DACrateClass::Get_Final_Odds
PUBLIC	?Set_Factory@DACrateClass@@QAEXPBVDACrateFactoryClass@@@Z ; DACrateClass::Set_Factory
PUBLIC	?Get_Factory@DACrateClass@@QBEPBVDACrateFactoryClass@@XZ ; DACrateClass::Get_Factory
PUBLIC	?Get_Name@DACrateClass@@QBEPBDXZ		; DACrateClass::Get_Name
PUBLIC	?Get_Section@DACrateClass@@QBEPBDXZ		; DACrateClass::Get_Section
PUBLIC	?Get_Type@DACrateClass@@QBE?AW4Type@DACrateType@@XZ ; DACrateClass::Get_Type
PUBLIC	??0?$VectorClass@PAVDACrateModifierClass@@@@QAE@HPBQAVDACrateModifierClass@@@Z ; VectorClass<DACrateModifierClass *>::VectorClass<DACrateModifierClass *>
PUBLIC	??0?$VectorClass@PAVDACrateModifierClass@@@@QAE@ABV0@@Z ; VectorClass<DACrateModifierClass *>::VectorClass<DACrateModifierClass *>
PUBLIC	??4?$VectorClass@PAVDACrateModifierClass@@@@QAEAAV0@ABV0@@Z ; VectorClass<DACrateModifierClass *>::operator=
PUBLIC	??1?$VectorClass@PAVDACrateModifierClass@@@@UAE@XZ ; VectorClass<DACrateModifierClass *>::~VectorClass<DACrateModifierClass *>
PUBLIC	??A?$VectorClass@PAVDACrateModifierClass@@@@QAEAAPAVDACrateModifierClass@@H@Z ; VectorClass<DACrateModifierClass *>::operator[]
PUBLIC	??A?$VectorClass@PAVDACrateModifierClass@@@@QBEABQAVDACrateModifierClass@@H@Z ; VectorClass<DACrateModifierClass *>::operator[]
PUBLIC	??8?$VectorClass@PAVDACrateModifierClass@@@@UBE_NABV0@@Z ; VectorClass<DACrateModifierClass *>::operator==
PUBLIC	?Resize@?$VectorClass@PAVDACrateModifierClass@@@@UAE_NHPBQAVDACrateModifierClass@@@Z ; VectorClass<DACrateModifierClass *>::Resize
PUBLIC	?Clear@?$VectorClass@PAVDACrateModifierClass@@@@UAEXXZ ; VectorClass<DACrateModifierClass *>::Clear
PUBLIC	?Length@?$VectorClass@PAVDACrateModifierClass@@@@QBEHXZ ; VectorClass<DACrateModifierClass *>::Length
PUBLIC	?ID@?$VectorClass@PAVDACrateModifierClass@@@@UAEHPBQAVDACrateModifierClass@@@Z ; VectorClass<DACrateModifierClass *>::ID
PUBLIC	?ID@?$VectorClass@PAVDACrateModifierClass@@@@UAEHABQAVDACrateModifierClass@@@Z ; VectorClass<DACrateModifierClass *>::ID
PUBLIC	??_G?$VectorClass@PAVDACrateModifierClass@@@@UAEPAXI@Z ; VectorClass<DACrateModifierClass *>::`scalar deleting destructor'
PUBLIC	??0?$DynamicVectorClass@PAVDACrateModifierClass@@@@QAE@IPBQAVDACrateModifierClass@@@Z ; DynamicVectorClass<DACrateModifierClass *>::DynamicVectorClass<DACrateModifierClass *>
PUBLIC	??0?$DynamicVectorClass@PAVDACrateModifierClass@@@@QAE@ABV0@@Z ; DynamicVectorClass<DACrateModifierClass *>::DynamicVectorClass<DACrateModifierClass *>
PUBLIC	??4?$DynamicVectorClass@PAVDACrateModifierClass@@@@QAEAAV0@ABV0@@Z ; DynamicVectorClass<DACrateModifierClass *>::operator=
PUBLIC	?Resize@?$DynamicVectorClass@PAVDACrateModifierClass@@@@UAE_NHPBQAVDACrateModifierClass@@@Z ; DynamicVectorClass<DACrateModifierClass *>::Resize
PUBLIC	?Clear@?$DynamicVectorClass@PAVDACrateModifierClass@@@@UAEXXZ ; DynamicVectorClass<DACrateModifierClass *>::Clear
PUBLIC	?Count@?$DynamicVectorClass@PAVDACrateModifierClass@@@@QBEHXZ ; DynamicVectorClass<DACrateModifierClass *>::Count
PUBLIC	?ID@?$DynamicVectorClass@PAVDACrateModifierClass@@@@UAEHPBQAVDACrateModifierClass@@@Z ; DynamicVectorClass<DACrateModifierClass *>::ID
PUBLIC	?ID@?$DynamicVectorClass@PAVDACrateModifierClass@@@@UAEHABQAVDACrateModifierClass@@@Z ; DynamicVectorClass<DACrateModifierClass *>::ID
PUBLIC	??1?$DynamicVectorClass@PAVDACrateModifierClass@@@@UAE@XZ ; DynamicVectorClass<DACrateModifierClass *>::~DynamicVectorClass<DACrateModifierClass *>
PUBLIC	??_G?$DynamicVectorClass@PAVDACrateModifierClass@@@@UAEPAXI@Z ; DynamicVectorClass<DACrateModifierClass *>::`scalar deleting destructor'
PUBLIC	??0DACrateClass@@QAE@XZ				; DACrateClass::DACrateClass
PUBLIC	??0DACrateClass@@QAE@ABV0@@Z			; DACrateClass::DACrateClass
PUBLIC	??4DACrateClass@@QAEAAV0@ABV0@@Z		; DACrateClass::operator=
PUBLIC	??_GDACrateClass@@UAEPAXI@Z			; DACrateClass::`scalar deleting destructor'
PUBLIC	??_EDACrateClass@@UAEPAXI@Z			; DACrateClass::`vector deleting destructor'
PUBLIC	?Head@?$SList@VBeaconGameObj@@@@QBEPAV?$SLNode@VBeaconGameObj@@@@XZ ; SList<BeaconGameObj>::Head
PUBLIC	?Head@?$SList@VSoldierGameObj@@@@QBEPAV?$SLNode@VSoldierGameObj@@@@XZ ; SList<SoldierGameObj>::Head
PUBLIC	?Head@?$SList@VVehicleGameObj@@@@QBEPAV?$SLNode@VVehicleGameObj@@@@XZ ; SList<VehicleGameObj>::Head
PUBLIC	?Head@?$SList@VBuildingGameObj@@@@QBEPAV?$SLNode@VBuildingGameObj@@@@XZ ; SList<BuildingGameObj>::Head
PUBLIC	?Activate@DAMoneyCrateClass@@EAEXPAVcPlayer@@@Z	; DAMoneyCrateClass::Activate
PUBLIC	??0DAMoneyCrateClass@@QAE@XZ			; DAMoneyCrateClass::DAMoneyCrateClass
PUBLIC	??1DAMoneyCrateClass@@UAE@XZ			; DAMoneyCrateClass::~DAMoneyCrateClass
PUBLIC	??_GDAMoneyCrateClass@@UAEPAXI@Z		; DAMoneyCrateClass::`scalar deleting destructor'
PUBLIC	??0?$DACrateRegistrant@VDAMoneyCrateClass@@@@QAE@PBDW4Type@DACrateType@@@Z ; DACrateRegistrant<DAMoneyCrateClass>::DACrateRegistrant<DAMoneyCrateClass>
PUBLIC	?Create_Instance@?$DACrateRegistrant@VDAMoneyCrateClass@@@@UAEPAVDACrateClass@@XZ ; DACrateRegistrant<DAMoneyCrateClass>::Create_Instance
PUBLIC	??1?$DACrateRegistrant@VDAMoneyCrateClass@@@@UAE@XZ ; DACrateRegistrant<DAMoneyCrateClass>::~DACrateRegistrant<DAMoneyCrateClass>
PUBLIC	??_G?$DACrateRegistrant@VDAMoneyCrateClass@@@@UAEPAXI@Z ; DACrateRegistrant<DAMoneyCrateClass>::`scalar deleting destructor'
PUBLIC	?Activate@DADeathCrateClass@@EAEXPAVcPlayer@@@Z	; DADeathCrateClass::Activate
PUBLIC	??0DADeathCrateClass@@QAE@XZ			; DADeathCrateClass::DADeathCrateClass
PUBLIC	??1DADeathCrateClass@@UAE@XZ			; DADeathCrateClass::~DADeathCrateClass
PUBLIC	??_GDADeathCrateClass@@UAEPAXI@Z		; DADeathCrateClass::`scalar deleting destructor'
PUBLIC	??0?$DACrateRegistrant@VDADeathCrateClass@@@@QAE@PBDW4Type@DACrateType@@@Z ; DACrateRegistrant<DADeathCrateClass>::DACrateRegistrant<DADeathCrateClass>
PUBLIC	?Create_Instance@?$DACrateRegistrant@VDADeathCrateClass@@@@UAEPAVDACrateClass@@XZ ; DACrateRegistrant<DADeathCrateClass>::Create_Instance
PUBLIC	??1?$DACrateRegistrant@VDADeathCrateClass@@@@UAE@XZ ; DACrateRegistrant<DADeathCrateClass>::~DACrateRegistrant<DADeathCrateClass>
PUBLIC	??_G?$DACrateRegistrant@VDADeathCrateClass@@@@UAEPAXI@Z ; DACrateRegistrant<DADeathCrateClass>::`scalar deleting destructor'
PUBLIC	?Activate@DAVeteranCrateClass@@EAEXPAVcPlayer@@@Z ; DAVeteranCrateClass::Activate
PUBLIC	?Can_Activate@DAVeteranCrateClass@@EAE_NPAVcPlayer@@@Z ; DAVeteranCrateClass::Can_Activate
PUBLIC	??0DAVeteranCrateClass@@QAE@XZ			; DAVeteranCrateClass::DAVeteranCrateClass
PUBLIC	??1DAVeteranCrateClass@@UAE@XZ			; DAVeteranCrateClass::~DAVeteranCrateClass
PUBLIC	??_GDAVeteranCrateClass@@UAEPAXI@Z		; DAVeteranCrateClass::`scalar deleting destructor'
PUBLIC	??0?$DACrateRegistrant@VDAVeteranCrateClass@@@@QAE@PBDW4Type@DACrateType@@@Z ; DACrateRegistrant<DAVeteranCrateClass>::DACrateRegistrant<DAVeteranCrateClass>
PUBLIC	?Create_Instance@?$DACrateRegistrant@VDAVeteranCrateClass@@@@UAEPAVDACrateClass@@XZ ; DACrateRegistrant<DAVeteranCrateClass>::Create_Instance
PUBLIC	??1?$DACrateRegistrant@VDAVeteranCrateClass@@@@UAE@XZ ; DACrateRegistrant<DAVeteranCrateClass>::~DACrateRegistrant<DAVeteranCrateClass>
PUBLIC	??_G?$DACrateRegistrant@VDAVeteranCrateClass@@@@UAEPAXI@Z ; DACrateRegistrant<DAVeteranCrateClass>::`scalar deleting destructor'
PUBLIC	?Activate@DAHealthCrateClass@@EAEXPAVcPlayer@@@Z ; DAHealthCrateClass::Activate
PUBLIC	??0DAHealthCrateClass@@QAE@XZ			; DAHealthCrateClass::DAHealthCrateClass
PUBLIC	??1DAHealthCrateClass@@UAE@XZ			; DAHealthCrateClass::~DAHealthCrateClass
PUBLIC	??_GDAHealthCrateClass@@UAEPAXI@Z		; DAHealthCrateClass::`scalar deleting destructor'
PUBLIC	??0?$DACrateRegistrant@VDAHealthCrateClass@@@@QAE@PBDW4Type@DACrateType@@@Z ; DACrateRegistrant<DAHealthCrateClass>::DACrateRegistrant<DAHealthCrateClass>
PUBLIC	?Create_Instance@?$DACrateRegistrant@VDAHealthCrateClass@@@@UAEPAVDACrateClass@@XZ ; DACrateRegistrant<DAHealthCrateClass>::Create_Instance
PUBLIC	??1?$DACrateRegistrant@VDAHealthCrateClass@@@@UAE@XZ ; DACrateRegistrant<DAHealthCrateClass>::~DACrateRegistrant<DAHealthCrateClass>
PUBLIC	??_G?$DACrateRegistrant@VDAHealthCrateClass@@@@UAEPAXI@Z ; DACrateRegistrant<DAHealthCrateClass>::`scalar deleting destructor'
PUBLIC	?Init@DAPowerCrateClass@@EAEXXZ			; DAPowerCrateClass::Init
PUBLIC	?Can_Activate@DAPowerCrateClass@@EAE_NPAVcPlayer@@@Z ; DAPowerCrateClass::Can_Activate
PUBLIC	?Activate@DAPowerCrateClass@@EAEXPAVcPlayer@@@Z	; DAPowerCrateClass::Activate
PUBLIC	?Game_Over_Event@DAPowerCrateClass@@EAEXXZ	; DAPowerCrateClass::Game_Over_Event
PUBLIC	?Timer_Expired@DAPowerCrateClass@@EAEXHI@Z	; DAPowerCrateClass::Timer_Expired
PUBLIC	??0DAPowerCrateClass@@QAE@XZ			; DAPowerCrateClass::DAPowerCrateClass
PUBLIC	??1DAPowerCrateClass@@UAE@XZ			; DAPowerCrateClass::~DAPowerCrateClass
PUBLIC	??_GDAPowerCrateClass@@UAEPAXI@Z		; DAPowerCrateClass::`scalar deleting destructor'
PUBLIC	?Next@?$SLNode@VBuildingGameObj@@@@QBEPAV1@XZ	; SLNode<BuildingGameObj>::Next
PUBLIC	?Data@?$SLNode@VBuildingGameObj@@@@QBEPAVBuildingGameObj@@XZ ; SLNode<BuildingGameObj>::Data
PUBLIC	??0?$DACrateRegistrant@VDAPowerCrateClass@@@@QAE@PBDW4Type@DACrateType@@@Z ; DACrateRegistrant<DAPowerCrateClass>::DACrateRegistrant<DAPowerCrateClass>
PUBLIC	?Create_Instance@?$DACrateRegistrant@VDAPowerCrateClass@@@@UAEPAVDACrateClass@@XZ ; DACrateRegistrant<DAPowerCrateClass>::Create_Instance
PUBLIC	??1?$DACrateRegistrant@VDAPowerCrateClass@@@@UAE@XZ ; DACrateRegistrant<DAPowerCrateClass>::~DACrateRegistrant<DAPowerCrateClass>
PUBLIC	??_G?$DACrateRegistrant@VDAPowerCrateClass@@@@UAEPAXI@Z ; DACrateRegistrant<DAPowerCrateClass>::`scalar deleting destructor'
PUBLIC	?Get_Name@DARegenerationCrateObserverClass@@EAEPBDXZ ; DARegenerationCrateObserverClass::Get_Name
PUBLIC	?Init@DARegenerationCrateObserverClass@@EAEXXZ	; DARegenerationCrateObserverClass::Init
PUBLIC	?Timer_Expired@DARegenerationCrateObserverClass@@EAEXPAVScriptableGameObj@@H@Z ; DARegenerationCrateObserverClass::Timer_Expired
PUBLIC	?Kill_Received@DARegenerationCrateObserverClass@@EAEXPAVArmedGameObj@@MIMW4Type@DADamageType@@@Z ; DARegenerationCrateObserverClass::Kill_Received
PUBLIC	??0DARegenerationCrateObserverClass@@QAE@XZ	; DARegenerationCrateObserverClass::DARegenerationCrateObserverClass
PUBLIC	??1DARegenerationCrateObserverClass@@UAE@XZ	; DARegenerationCrateObserverClass::~DARegenerationCrateObserverClass
PUBLIC	??_GDARegenerationCrateObserverClass@@UAEPAXI@Z	; DARegenerationCrateObserverClass::`scalar deleting destructor'
PUBLIC	?Can_Activate@DARegenerationCrateClass@@EAE_NPAVcPlayer@@@Z ; DARegenerationCrateClass::Can_Activate
PUBLIC	?Activate@DARegenerationCrateClass@@EAEXPAVcPlayer@@@Z ; DARegenerationCrateClass::Activate
PUBLIC	??0DARegenerationCrateClass@@QAE@XZ		; DARegenerationCrateClass::DARegenerationCrateClass
PUBLIC	??1DARegenerationCrateClass@@UAE@XZ		; DARegenerationCrateClass::~DARegenerationCrateClass
PUBLIC	??_GDARegenerationCrateClass@@UAEPAXI@Z		; DARegenerationCrateClass::`scalar deleting destructor'
PUBLIC	??0?$DACrateRegistrant@VDARegenerationCrateClass@@@@QAE@PBDW4Type@DACrateType@@@Z ; DACrateRegistrant<DARegenerationCrateClass>::DACrateRegistrant<DARegenerationCrateClass>
PUBLIC	?Create_Instance@?$DACrateRegistrant@VDARegenerationCrateClass@@@@UAEPAVDACrateClass@@XZ ; DACrateRegistrant<DARegenerationCrateClass>::Create_Instance
PUBLIC	??1?$DACrateRegistrant@VDARegenerationCrateClass@@@@UAE@XZ ; DACrateRegistrant<DARegenerationCrateClass>::~DACrateRegistrant<DARegenerationCrateClass>
PUBLIC	??_G?$DACrateRegistrant@VDARegenerationCrateClass@@@@UAEPAXI@Z ; DACrateRegistrant<DARegenerationCrateClass>::`scalar deleting destructor'
PUBLIC	?Can_Activate@DAIonStormCrateClass@@EAE_NPAVcPlayer@@@Z ; DAIonStormCrateClass::Can_Activate
PUBLIC	?Activate@DAIonStormCrateClass@@EAEXPAVcPlayer@@@Z ; DAIonStormCrateClass::Activate
PUBLIC	?Timer_Expired@DAIonStormCrateClass@@EAEXHI@Z	; DAIonStormCrateClass::Timer_Expired
PUBLIC	?Player_Join_Event@DAIonStormCrateClass@@EAEXPAVcPlayer@@@Z ; DAIonStormCrateClass::Player_Join_Event
PUBLIC	?Object_Created_Event@DAIonStormCrateClass@@EAEXPAVScriptableGameObj@@@Z ; DAIonStormCrateClass::Object_Created_Event
PUBLIC	?Game_Over_Event@DAIonStormCrateClass@@EAEXXZ	; DAIonStormCrateClass::Game_Over_Event
PUBLIC	??0DAIonStormCrateClass@@QAE@XZ			; DAIonStormCrateClass::DAIonStormCrateClass
PUBLIC	??1DAIonStormCrateClass@@UAE@XZ			; DAIonStormCrateClass::~DAIonStormCrateClass
PUBLIC	??_GDAIonStormCrateClass@@UAEPAXI@Z		; DAIonStormCrateClass::`scalar deleting destructor'
PUBLIC	??0?$DACrateRegistrant@VDAIonStormCrateClass@@@@QAE@PBDW4Type@DACrateType@@@Z ; DACrateRegistrant<DAIonStormCrateClass>::DACrateRegistrant<DAIonStormCrateClass>
PUBLIC	?Create_Instance@?$DACrateRegistrant@VDAIonStormCrateClass@@@@UAEPAVDACrateClass@@XZ ; DACrateRegistrant<DAIonStormCrateClass>::Create_Instance
PUBLIC	??1?$DACrateRegistrant@VDAIonStormCrateClass@@@@UAE@XZ ; DACrateRegistrant<DAIonStormCrateClass>::~DACrateRegistrant<DAIonStormCrateClass>
PUBLIC	??_G?$DACrateRegistrant@VDAIonStormCrateClass@@@@UAEPAXI@Z ; DACrateRegistrant<DAIonStormCrateClass>::`scalar deleting destructor'
PUBLIC	?Get_Observer_Name@DASpyCratePassengerObserverClass@@UAEPBDXZ ; DASpyCratePassengerObserverClass::Get_Observer_Name
PUBLIC	?Init@DASpyCratePassengerObserverClass@@UAEXXZ	; DASpyCratePassengerObserverClass::Init
PUBLIC	?Kill_Dealt@DASpyCratePassengerObserverClass@@UAEXPAVDamageableGameObj@@MIMW4Type@DADamageType@@@Z ; DASpyCratePassengerObserverClass::Kill_Dealt
PUBLIC	?Destroyed@DASpyCratePassengerObserverClass@@UAEXXZ ; DASpyCratePassengerObserverClass::Destroyed
PUBLIC	?Timer_Expired@DASpyCratePassengerObserverClass@@UAEXHI@Z ; DASpyCratePassengerObserverClass::Timer_Expired
PUBLIC	??0DASpyCratePassengerObserverClass@@QAE@XZ	; DASpyCratePassengerObserverClass::DASpyCratePassengerObserverClass
PUBLIC	??1DASpyCratePassengerObserverClass@@UAE@XZ	; DASpyCratePassengerObserverClass::~DASpyCratePassengerObserverClass
PUBLIC	??_GDASpyCratePassengerObserverClass@@UAEPAXI@Z	; DASpyCratePassengerObserverClass::`scalar deleting destructor'
PUBLIC	?Get_Name@DASpyCrateVehicleObserverClass@@EAEPBDXZ ; DASpyCrateVehicleObserverClass::Get_Name
PUBLIC	?Init@DASpyCrateVehicleObserverClass@@EAEXXZ	; DASpyCrateVehicleObserverClass::Init
PUBLIC	?Vehicle_Enter@DASpyCrateVehicleObserverClass@@EAEXPAVcPlayer@@H@Z ; DASpyCrateVehicleObserverClass::Vehicle_Enter
PUBLIC	??1DASpyCrateVehicleObserverClass@@EAE@XZ	; DASpyCrateVehicleObserverClass::~DASpyCrateVehicleObserverClass
PUBLIC	??0DASpyCrateVehicleObserverClass@@QAE@XZ	; DASpyCrateVehicleObserverClass::DASpyCrateVehicleObserverClass
PUBLIC	??_GDASpyCrateVehicleObserverClass@@EAEPAXI@Z	; DASpyCrateVehicleObserverClass::`scalar deleting destructor'
PUBLIC	?Get_Name@DASpyCrateSoldierObserverClass@@EAEPBDXZ ; DASpyCrateSoldierObserverClass::Get_Name
PUBLIC	?Init@DASpyCrateSoldierObserverClass@@EAEXXZ	; DASpyCrateSoldierObserverClass::Init
PUBLIC	?Kill_Dealt@DASpyCrateSoldierObserverClass@@EAEXPAVDamageableGameObj@@MIMW4Type@DADamageType@@@Z ; DASpyCrateSoldierObserverClass::Kill_Dealt
PUBLIC	??1DASpyCrateSoldierObserverClass@@EAE@XZ	; DASpyCrateSoldierObserverClass::~DASpyCrateSoldierObserverClass
PUBLIC	??0DASpyCrateSoldierObserverClass@@QAE@XZ	; DASpyCrateSoldierObserverClass::DASpyCrateSoldierObserverClass
PUBLIC	??_GDASpyCrateSoldierObserverClass@@EAEPAXI@Z	; DASpyCrateSoldierObserverClass::`scalar deleting destructor'
PUBLIC	?Can_Activate@DASpyCrateClass@@EAE_NPAVcPlayer@@@Z ; DASpyCrateClass::Can_Activate
PUBLIC	?Activate@DASpyCrateClass@@EAEXPAVcPlayer@@@Z	; DASpyCrateClass::Activate
PUBLIC	??0DASpyCrateClass@@QAE@XZ			; DASpyCrateClass::DASpyCrateClass
PUBLIC	??1DASpyCrateClass@@UAE@XZ			; DASpyCrateClass::~DASpyCrateClass
PUBLIC	??_GDASpyCrateClass@@UAEPAXI@Z			; DASpyCrateClass::`scalar deleting destructor'
PUBLIC	??0?$DACrateRegistrant@VDASpyCrateClass@@@@QAE@PBDW4Type@DACrateType@@@Z ; DACrateRegistrant<DASpyCrateClass>::DACrateRegistrant<DASpyCrateClass>
PUBLIC	?Create_Instance@?$DACrateRegistrant@VDASpyCrateClass@@@@UAEPAVDACrateClass@@XZ ; DACrateRegistrant<DASpyCrateClass>::Create_Instance
PUBLIC	??1?$DACrateRegistrant@VDASpyCrateClass@@@@UAE@XZ ; DACrateRegistrant<DASpyCrateClass>::~DACrateRegistrant<DASpyCrateClass>
PUBLIC	??_G?$DACrateRegistrant@VDASpyCrateClass@@@@UAEPAXI@Z ; DACrateRegistrant<DASpyCrateClass>::`scalar deleting destructor'
PUBLIC	?Get_Name@DAUAVCrateObserverClass@@UAEPBDXZ	; DAUAVCrateObserverClass::Get_Name
PUBLIC	??0DAUAVCrateObserverClass@@QAE@H@Z		; DAUAVCrateObserverClass::DAUAVCrateObserverClass
PUBLIC	?Init@DAUAVCrateObserverClass@@UAEXXZ		; DAUAVCrateObserverClass::Init
PUBLIC	?Set_Radar_Color@DAUAVCrateObserverClass@@QAEXXZ ; DAUAVCrateObserverClass::Set_Radar_Color
PUBLIC	?Timer_Expired@DAUAVCrateObserverClass@@UAEXPAVScriptableGameObj@@H@Z ; DAUAVCrateObserverClass::Timer_Expired
PUBLIC	?Vehicle_Enter@DAUAVCrateObserverClass@@UAEXPAVcPlayer@@H@Z ; DAUAVCrateObserverClass::Vehicle_Enter
PUBLIC	?Vehicle_Exit@DAUAVCrateObserverClass@@UAEXPAVcPlayer@@H@Z ; DAUAVCrateObserverClass::Vehicle_Exit
PUBLIC	?Kill_Received@DAUAVCrateObserverClass@@UAEXPAVArmedGameObj@@MIMW4Type@DADamageType@@@Z ; DAUAVCrateObserverClass::Kill_Received
PUBLIC	??1DAUAVCrateObserverClass@@UAE@XZ		; DAUAVCrateObserverClass::~DAUAVCrateObserverClass
PUBLIC	?Get_Team@DAUAVCrateObserverClass@@QAEHXZ	; DAUAVCrateObserverClass::Get_Team
PUBLIC	??_GDAUAVCrateObserverClass@@UAEPAXI@Z		; DAUAVCrateObserverClass::`scalar deleting destructor'
PUBLIC	?Init@DAUAVCrateClass@@EAEXXZ			; DAUAVCrateClass::Init
PUBLIC	?Can_Activate@DAUAVCrateClass@@EAE_NPAVcPlayer@@@Z ; DAUAVCrateClass::Can_Activate
PUBLIC	?Activate@DAUAVCrateClass@@EAEXPAVcPlayer@@@Z	; DAUAVCrateClass::Activate
PUBLIC	?Object_Created_Event@DAUAVCrateClass@@EAEXPAVScriptableGameObj@@@Z ; DAUAVCrateClass::Object_Created_Event
PUBLIC	?Game_Over_Event@DAUAVCrateClass@@EAEXXZ	; DAUAVCrateClass::Game_Over_Event
PUBLIC	?Timer_Expired@DAUAVCrateClass@@EAEXHI@Z	; DAUAVCrateClass::Timer_Expired
PUBLIC	??0DAUAVCrateClass@@QAE@XZ			; DAUAVCrateClass::DAUAVCrateClass
PUBLIC	??1DAUAVCrateClass@@UAE@XZ			; DAUAVCrateClass::~DAUAVCrateClass
PUBLIC	??_GDAUAVCrateClass@@UAEPAXI@Z			; DAUAVCrateClass::`scalar deleting destructor'
PUBLIC	?Next@?$SLNode@VSoldierGameObj@@@@QBEPAV1@XZ	; SLNode<SoldierGameObj>::Next
PUBLIC	?Data@?$SLNode@VSoldierGameObj@@@@QBEPAVSoldierGameObj@@XZ ; SLNode<SoldierGameObj>::Data
PUBLIC	?Next@?$SLNode@VVehicleGameObj@@@@QBEPAV1@XZ	; SLNode<VehicleGameObj>::Next
PUBLIC	?Data@?$SLNode@VVehicleGameObj@@@@QBEPAVVehicleGameObj@@XZ ; SLNode<VehicleGameObj>::Data
PUBLIC	?Next@?$SLNode@VBeaconGameObj@@@@QBEPAV1@XZ	; SLNode<BeaconGameObj>::Next
PUBLIC	?Data@?$SLNode@VBeaconGameObj@@@@QBEPAVBeaconGameObj@@XZ ; SLNode<BeaconGameObj>::Data
PUBLIC	?Head@?$SList@VSmartGameObj@@@@QBEPAV?$SLNode@VSmartGameObj@@@@XZ ; SList<SmartGameObj>::Head
PUBLIC	?Next@?$SLNode@VSmartGameObj@@@@QBEPAV1@XZ	; SLNode<SmartGameObj>::Next
PUBLIC	?Data@?$SLNode@VSmartGameObj@@@@QBEPAVSmartGameObj@@XZ ; SLNode<SmartGameObj>::Data
PUBLIC	??0?$DACrateRegistrant@VDAUAVCrateClass@@@@QAE@PBDW4Type@DACrateType@@@Z ; DACrateRegistrant<DAUAVCrateClass>::DACrateRegistrant<DAUAVCrateClass>
PUBLIC	?Create_Instance@?$DACrateRegistrant@VDAUAVCrateClass@@@@UAEPAVDACrateClass@@XZ ; DACrateRegistrant<DAUAVCrateClass>::Create_Instance
PUBLIC	??1?$DACrateRegistrant@VDAUAVCrateClass@@@@UAE@XZ ; DACrateRegistrant<DAUAVCrateClass>::~DACrateRegistrant<DAUAVCrateClass>
PUBLIC	??_G?$DACrateRegistrant@VDAUAVCrateClass@@@@UAEPAXI@Z ; DACrateRegistrant<DAUAVCrateClass>::`scalar deleting destructor'
PUBLIC	?Get_Name@DAKamikazeCrateObserverClass@@EAEPBDXZ ; DAKamikazeCrateObserverClass::Get_Name
PUBLIC	?Init@DAKamikazeCrateObserverClass@@EAEXXZ	; DAKamikazeCrateObserverClass::Init
PUBLIC	?Kill_Received@DAKamikazeCrateObserverClass@@EAEXPAVArmedGameObj@@MIMW4Type@DADamageType@@@Z ; DAKamikazeCrateObserverClass::Kill_Received
PUBLIC	?Destroyed@DAKamikazeCrateObserverClass@@EAEXPAVScriptableGameObj@@@Z ; DAKamikazeCrateObserverClass::Destroyed
PUBLIC	??0DAKamikazeCrateObserverClass@@QAE@XZ		; DAKamikazeCrateObserverClass::DAKamikazeCrateObserverClass
PUBLIC	??1DAKamikazeCrateObserverClass@@UAE@XZ		; DAKamikazeCrateObserverClass::~DAKamikazeCrateObserverClass
PUBLIC	??_GDAKamikazeCrateObserverClass@@UAEPAXI@Z	; DAKamikazeCrateObserverClass::`scalar deleting destructor'
PUBLIC	?Can_Activate@DAKamikazeCrateClass@@EAE_NPAVcPlayer@@@Z ; DAKamikazeCrateClass::Can_Activate
PUBLIC	?Activate@DAKamikazeCrateClass@@EAEXPAVcPlayer@@@Z ; DAKamikazeCrateClass::Activate
PUBLIC	??0DAKamikazeCrateClass@@QAE@XZ			; DAKamikazeCrateClass::DAKamikazeCrateClass
PUBLIC	??1DAKamikazeCrateClass@@UAE@XZ			; DAKamikazeCrateClass::~DAKamikazeCrateClass
PUBLIC	??_GDAKamikazeCrateClass@@UAEPAXI@Z		; DAKamikazeCrateClass::`scalar deleting destructor'
PUBLIC	??0?$DACrateRegistrant@VDAKamikazeCrateClass@@@@QAE@PBDW4Type@DACrateType@@@Z ; DACrateRegistrant<DAKamikazeCrateClass>::DACrateRegistrant<DAKamikazeCrateClass>
PUBLIC	?Create_Instance@?$DACrateRegistrant@VDAKamikazeCrateClass@@@@UAEPAVDACrateClass@@XZ ; DACrateRegistrant<DAKamikazeCrateClass>::Create_Instance
PUBLIC	??1?$DACrateRegistrant@VDAKamikazeCrateClass@@@@UAE@XZ ; DACrateRegistrant<DAKamikazeCrateClass>::~DACrateRegistrant<DAKamikazeCrateClass>
PUBLIC	??_G?$DACrateRegistrant@VDAKamikazeCrateClass@@@@UAEPAXI@Z ; DACrateRegistrant<DAKamikazeCrateClass>::`scalar deleting destructor'
PUBLIC	?Get_Name@DASecondWindCrateObserverClass@@EAEPBDXZ ; DASecondWindCrateObserverClass::Get_Name
PUBLIC	?Damage_Received@DASecondWindCrateObserverClass@@EAEXPAVArmedGameObj@@MIMW4Type@DADamageType@@@Z ; DASecondWindCrateObserverClass::Damage_Received
PUBLIC	??0DASecondWindCrateObserverClass@@QAE@XZ	; DASecondWindCrateObserverClass::DASecondWindCrateObserverClass
PUBLIC	??1DASecondWindCrateObserverClass@@UAE@XZ	; DASecondWindCrateObserverClass::~DASecondWindCrateObserverClass
PUBLIC	??_GDASecondWindCrateObserverClass@@UAEPAXI@Z	; DASecondWindCrateObserverClass::`scalar deleting destructor'
PUBLIC	?Can_Activate@DASecondWindCrateClass@@EAE_NPAVcPlayer@@@Z ; DASecondWindCrateClass::Can_Activate
PUBLIC	?Activate@DASecondWindCrateClass@@EAEXPAVcPlayer@@@Z ; DASecondWindCrateClass::Activate
PUBLIC	??0DASecondWindCrateClass@@QAE@XZ		; DASecondWindCrateClass::DASecondWindCrateClass
PUBLIC	??1DASecondWindCrateClass@@UAE@XZ		; DASecondWindCrateClass::~DASecondWindCrateClass
PUBLIC	??_GDASecondWindCrateClass@@UAEPAXI@Z		; DASecondWindCrateClass::`scalar deleting destructor'
PUBLIC	??0?$DACrateRegistrant@VDASecondWindCrateClass@@@@QAE@PBDW4Type@DACrateType@@@Z ; DACrateRegistrant<DASecondWindCrateClass>::DACrateRegistrant<DASecondWindCrateClass>
PUBLIC	?Create_Instance@?$DACrateRegistrant@VDASecondWindCrateClass@@@@UAEPAVDACrateClass@@XZ ; DACrateRegistrant<DASecondWindCrateClass>::Create_Instance
PUBLIC	??1?$DACrateRegistrant@VDASecondWindCrateClass@@@@UAE@XZ ; DACrateRegistrant<DASecondWindCrateClass>::~DACrateRegistrant<DASecondWindCrateClass>
PUBLIC	??_G?$DACrateRegistrant@VDASecondWindCrateClass@@@@UAEPAXI@Z ; DACrateRegistrant<DASecondWindCrateClass>::`scalar deleting destructor'
PUBLIC	?Can_Activate@DAStealthCrateClass@@EAE_NPAVcPlayer@@@Z ; DAStealthCrateClass::Can_Activate
PUBLIC	?Activate@DAStealthCrateClass@@EAEXPAVcPlayer@@@Z ; DAStealthCrateClass::Activate
PUBLIC	??0DAStealthCrateClass@@QAE@XZ			; DAStealthCrateClass::DAStealthCrateClass
PUBLIC	??1DAStealthCrateClass@@UAE@XZ			; DAStealthCrateClass::~DAStealthCrateClass
PUBLIC	??_GDAStealthCrateClass@@UAEPAXI@Z		; DAStealthCrateClass::`scalar deleting destructor'
PUBLIC	??0?$DACrateRegistrant@VDAStealthCrateClass@@@@QAE@PBDW4Type@DACrateType@@@Z ; DACrateRegistrant<DAStealthCrateClass>::DACrateRegistrant<DAStealthCrateClass>
PUBLIC	?Create_Instance@?$DACrateRegistrant@VDAStealthCrateClass@@@@UAEPAVDACrateClass@@XZ ; DACrateRegistrant<DAStealthCrateClass>::Create_Instance
PUBLIC	??1?$DACrateRegistrant@VDAStealthCrateClass@@@@UAE@XZ ; DACrateRegistrant<DAStealthCrateClass>::~DACrateRegistrant<DAStealthCrateClass>
PUBLIC	??_G?$DACrateRegistrant@VDAStealthCrateClass@@@@UAEPAXI@Z ; DACrateRegistrant<DAStealthCrateClass>::`scalar deleting destructor'
PUBLIC	?Set_Next@?$SLNode@UKeyHookWrapperStruct@MultiKeyHookScriptImpClass@@@@QAEXPAV1@@Z ; SLNode<MultiKeyHookScriptImpClass::KeyHookWrapperStruct>::Set_Next
PUBLIC	?Next@?$SLNode@UKeyHookWrapperStruct@MultiKeyHookScriptImpClass@@@@QBEPAV1@XZ ; SLNode<MultiKeyHookScriptImpClass::KeyHookWrapperStruct>::Next
PUBLIC	?Data@?$SLNode@UKeyHookWrapperStruct@MultiKeyHookScriptImpClass@@@@QBEPAUKeyHookWrapperStruct@MultiKeyHookScriptImpClass@@XZ ; SLNode<MultiKeyHookScriptImpClass::KeyHookWrapperStruct>::Data
PUBLIC	??0?$SLNode@UKeyHookWrapperStruct@MultiKeyHookScriptImpClass@@@@IAE@PAUKeyHookWrapperStruct@MultiKeyHookScriptImpClass@@@Z ; SLNode<MultiKeyHookScriptImpClass::KeyHookWrapperStruct>::SLNode<MultiKeyHookScriptImpClass::KeyHookWrapperStruct>
PUBLIC	??$move@AAPAVDAPlayerObserverClass@@@std@@YA$$QAPAVDAPlayerObserverClass@@AAPAV1@@Z ; std::move<DAPlayerObserverClass * &>
PUBLIC	??$move@AAPAVDAPlayerDataClass@@@std@@YA$$QAPAVDAPlayerDataClass@@AAPAV1@@Z ; std::move<DAPlayerDataClass * &>
PUBLIC	??$move@AAPAUDAPlayerTagStruct@DAPlayerClass@@@std@@YA$$QAPAUDAPlayerTagStruct@DAPlayerClass@@AAPAU12@@Z ; std::move<DAPlayerClass::DAPlayerTagStruct * &>
PUBLIC	??$move@AAPAUDAPlayerObserverTimerStruct@@@std@@YA$$QAPAUDAPlayerObserverTimerStruct@@AAPAU1@@Z ; std::move<DAPlayerObserverTimerStruct * &>
PUBLIC	??$move@AAPAUDAPlayerObserverChatCommandStruct@@@std@@YA$$QAPAUDAPlayerObserverChatCommandStruct@@AAPAU1@@Z ; std::move<DAPlayerObserverChatCommandStruct * &>
PUBLIC	??$move@AAPAUDAPlayerObserverKeyHookStruct@@@std@@YA$$QAPAUDAPlayerObserverKeyHookStruct@@AAPAU1@@Z ; std::move<DAPlayerObserverKeyHookStruct * &>
PUBLIC	??$move@AAPAVDACrateModifierClass@@@std@@YA$$QAPAVDACrateModifierClass@@AAPAV1@@Z ; std::move<DACrateModifierClass * &>
PUBLIC	?getInstance@?$Singleton@V?$ObjectPoolClass@VGenericSLNode@@$0BAA@@@@@SAAAV?$ObjectPoolClass@VGenericSLNode@@$0BAA@@@XZ ; Singleton<ObjectPoolClass<GenericSLNode,256> >::getInstance
PUBLIC	??0?$ObjectPoolClass@VGenericSLNode@@$0BAA@@@QAE@XZ ; ObjectPoolClass<GenericSLNode,256>::ObjectPoolClass<GenericSLNode,256>
PUBLIC	??1?$ObjectPoolClass@VGenericSLNode@@$0BAA@@@QAE@XZ ; ObjectPoolClass<GenericSLNode,256>::~ObjectPoolClass<GenericSLNode,256>
PUBLIC	?Allocate_Object_Memory@?$ObjectPoolClass@VGenericSLNode@@$0BAA@@@QAEPAVGenericSLNode@@XZ ; ObjectPoolClass<GenericSLNode,256>::Allocate_Object_Memory
PUBLIC	?Free_Object_Memory@?$ObjectPoolClass@VGenericSLNode@@$0BAA@@@QAEXAAVGenericSLNode@@@Z ; ObjectPoolClass<GenericSLNode,256>::Free_Object_Memory
PUBLIC	?writeDummyPattern@?$ObjectPoolClass@VGenericSLNode@@$0BAA@@@QAEXAAVGenericSLNode@@K@Z ; ObjectPoolClass<GenericSLNode,256>::writeDummyPattern
PUBLIC	??__Finstancex@?1??getInstance@?$Singleton@V?$ObjectPoolClass@VGenericSLNode@@$0BAA@@@@@SAAAV?$ObjectPoolClass@VGenericSLNode@@$0BAA@@@XZ@YAXXZ ; `Singleton<ObjectPoolClass<GenericSLNode,256> >::getInstance'::`2'::`dynamic atexit destructor for 'instancex''
PUBLIC	??B?$RefArray@D$03@@QAEPADXZ			; RefArray<char,4>::operator char *
PUBLIC	??B?$RefArray@V?$RefArray@D$03@@$07@@QAEPAV?$RefArray@D$03@@XZ ; RefArray<RefArray<char,4>,8>::operator RefArray<char,4> *
PUBLIC	?Get@?$DataSafeClass@M@@SA_NVDataSafeHandleClass@@AAPAM@Z ; DataSafeClass<float>::Get
PUBLIC	??_EDAPowerCrateClass@@WDE@AEPAXI@Z		; [thunk]:DAPowerCrateClass::`vector deleting destructor'
PUBLIC	??_EDAIonStormCrateClass@@WDE@AEPAXI@Z		; [thunk]:DAIonStormCrateClass::`vector deleting destructor'
PUBLIC	??_EDAUAVCrateClass@@WDE@AEPAXI@Z		; [thunk]:DAUAVCrateClass::`vector deleting destructor'
PUBLIC	??_7GameObjObserverClass@@6B@			; GameObjObserverClass::`vftable'
PUBLIC	??_7ScriptClass@@6B@				; ScriptClass::`vftable'
PUBLIC	??_7ScriptImpClass@@6B@				; ScriptImpClass::`vftable'
PUBLIC	??_7ScriptFactory@@6B@				; ScriptFactory::`vftable'
PUBLIC	??_7ThreadClass@@6B@				; ThreadClass::`vftable'
PUBLIC	??_C@_0DJ@NKJHEMPA@x?3?2github?2renegade?2dragonade_rxd@ ; `string'
PUBLIC	??_C@_1HC@JEIHKHFK@?$AAx?$AA?3?$AA?2?$AAg?$AAi?$AAt?$AAh?$AAu?$AAb?$AA?2?$AAr?$AAe?$AAn?$AAe?$AAg?$AAa?$AAd?$AAe?$AA?2?$AAd?$AAr?$AAa?$AAg?$AAo?$AAn?$AAa?$AAd?$AAe?$AA_?$AAr?$AAx?$AAd@ ; `string'
PUBLIC	??_C@_1M@HLGKFCJM@?$AAf?$AAa?$AAl?$AAs?$AAe?$AA?$AA@ ; `string'
PUBLIC	??_7INIClass@@6B@				; INIClass::`vftable'
PUBLIC	?_checking@?1??Security_Check@GenericDataSafeClass@@KAXXZ@4_NA ; `GenericDataSafeClass::Security_Check'::`2'::_checking
PUBLIC	?_calls@?1??Security_Check@GenericDataSafeClass@@KAXXZ@4KA ; `GenericDataSafeClass::Security_Check'::`2'::_calls
PUBLIC	??_7PostLoadableClass@@6B@			; PostLoadableClass::`vftable'
PUBLIC	??_7ReferencerClass@@6B@			; ReferencerClass::`vftable'
PUBLIC	??_7JFW_Key_Hook_Base@@6B@			; JFW_Key_Hook_Base::`vftable'
PUBLIC	??_7?$SList@UKeyHookWrapperStruct@MultiKeyHookScriptImpClass@@@@6B@ ; SList<MultiKeyHookScriptImpClass::KeyHookWrapperStruct>::`vftable'
PUBLIC	??_7MultiKeyHookScriptImpClass@@6B@		; MultiKeyHookScriptImpClass::`vftable'
PUBLIC	??_7JFW_Object_Created_Hook_Base@@6B@		; JFW_Object_Created_Hook_Base::`vftable'
PUBLIC	??_7DAEventClass@@6B@				; DAEventClass::`vftable'
PUBLIC	??_7DAGameObjObserverClass@@6B@			; DAGameObjObserverClass::`vftable'
PUBLIC	??_7?$VectorClass@PAVDAPlayerObserverClass@@@@6B@ ; VectorClass<DAPlayerObserverClass *>::`vftable'
PUBLIC	??_7?$DynamicVectorClass@PAVDAPlayerObserverClass@@@@6B@ ; DynamicVectorClass<DAPlayerObserverClass *>::`vftable'
PUBLIC	??_7?$VectorClass@PAVDAPlayerDataClass@@@@6B@	; VectorClass<DAPlayerDataClass *>::`vftable'
PUBLIC	??_7?$DynamicVectorClass@PAVDAPlayerDataClass@@@@6B@ ; DynamicVectorClass<DAPlayerDataClass *>::`vftable'
PUBLIC	??_7?$VectorClass@PAUDAPlayerTagStruct@DAPlayerClass@@@@6B@ ; VectorClass<DAPlayerClass::DAPlayerTagStruct *>::`vftable'
PUBLIC	??_7?$DynamicVectorClass@PAUDAPlayerTagStruct@DAPlayerClass@@@@6B@ ; DynamicVectorClass<DAPlayerClass::DAPlayerTagStruct *>::`vftable'
PUBLIC	??_7?$VectorClass@PAUDAPlayerObserverTimerStruct@@@@6B@ ; VectorClass<DAPlayerObserverTimerStruct *>::`vftable'
PUBLIC	??_7?$DynamicVectorClass@PAUDAPlayerObserverTimerStruct@@@@6B@ ; DynamicVectorClass<DAPlayerObserverTimerStruct *>::`vftable'
PUBLIC	??_7?$VectorClass@PAUDAPlayerObserverChatCommandStruct@@@@6B@ ; VectorClass<DAPlayerObserverChatCommandStruct *>::`vftable'
PUBLIC	??_7?$DynamicVectorClass@PAUDAPlayerObserverChatCommandStruct@@@@6B@ ; DynamicVectorClass<DAPlayerObserverChatCommandStruct *>::`vftable'
PUBLIC	??_7?$VectorClass@PAUDAPlayerObserverKeyHookStruct@@@@6B@ ; VectorClass<DAPlayerObserverKeyHookStruct *>::`vftable'
PUBLIC	??_7?$DynamicVectorClass@PAUDAPlayerObserverKeyHookStruct@@@@6B@ ; DynamicVectorClass<DAPlayerObserverKeyHookStruct *>::`vftable'
PUBLIC	??_7DAPlayerObserverClass@@6B@			; DAPlayerObserverClass::`vftable'
PUBLIC	??_7DAPlayerDataFactoryClass@@6B@		; DAPlayerDataFactoryClass::`vftable'
PUBLIC	??_7DAPlayerDataClass@@6B@			; DAPlayerDataClass::`vftable'
PUBLIC	??_7DACrateModifierClass@@6B@			; DACrateModifierClass::`vftable'
PUBLIC	??_7DACrateFactoryClass@@6B@			; DACrateFactoryClass::`vftable'
PUBLIC	??_7?$VectorClass@PAVDACrateModifierClass@@@@6B@ ; VectorClass<DACrateModifierClass *>::`vftable'
PUBLIC	??_7?$DynamicVectorClass@PAVDACrateModifierClass@@@@6B@ ; DynamicVectorClass<DACrateModifierClass *>::`vftable'
PUBLIC	??_7DACrateClass@@6B@				; DACrateClass::`vftable'
PUBLIC	??_7DAMoneyCrateClass@@6B@			; DAMoneyCrateClass::`vftable'
PUBLIC	??_C@_0DD@HIDGADDM@You?5have?5received?5?$CFd?5credits?5fro@ ; `string'
PUBLIC	??_7?$DACrateRegistrant@VDAMoneyCrateClass@@@@6B@ ; DACrateRegistrant<DAMoneyCrateClass>::`vftable'
PUBLIC	?DAMoneyCrateClassRegistrant@@3V?$DACrateRegistrant@VDAMoneyCrateClass@@@@A ; DAMoneyCrateClassRegistrant
PUBLIC	??_C@_05INIBOMDG@Money?$AA@			; `string'
PUBLIC	??_7DADeathCrateClass@@6B@			; DADeathCrateClass::`vftable'
PUBLIC	??_C@_04OHJIHAFH@None?$AA@			; `string'
PUBLIC	??_C@_0BJ@COJHDGPC@Explosion_Mine_Remote_01?$AA@ ; `string'
PUBLIC	??_C@_0EB@FFLJCGA@Some?5poor?5?$CFls?5player?5just?5got?5pw@ ; `string'
PUBLIC	??_7?$DACrateRegistrant@VDADeathCrateClass@@@@6B@ ; DACrateRegistrant<DADeathCrateClass>::`vftable'
PUBLIC	?DADeathCrateClassRegistrant@@3V?$DACrateRegistrant@VDADeathCrateClass@@@@A ; DADeathCrateClassRegistrant
PUBLIC	??_C@_05PGGAFPFO@Death?$AA@			; `string'
PUBLIC	??_7DAVeteranCrateClass@@6B@			; DAVeteranCrateClass::`vftable'
PUBLIC	??_C@_0DO@LIKJLBGH@You?8ve?5been?5awarded?5?$CF?42f?5veteran@ ; `string'
PUBLIC	??_C@_0CD@LALPFCNF@DAVeterancyPlayerDataObserverCla@ ; `string'
PUBLIC	??_7?$DACrateRegistrant@VDAVeteranCrateClass@@@@6B@ ; DACrateRegistrant<DAVeteranCrateClass>::`vftable'
PUBLIC	?DAVeteranCrateClassRegistrant@@3V?$DACrateRegistrant@VDAVeteranCrateClass@@@@A ; DAVeteranCrateClassRegistrant
PUBLIC	??_C@_07GCCGIBFG@Veteran?$AA@			; `string'
PUBLIC	??_7DAHealthCrateClass@@6B@			; DAHealthCrateClass::`vftable'
PUBLIC	??_C@_0DE@LHCOKCKC@The?5Health?5Crate?5has?5increased?5y@ ; `string'
PUBLIC	??_7?$DACrateRegistrant@VDAHealthCrateClass@@@@6B@ ; DACrateRegistrant<DAHealthCrateClass>::`vftable'
PUBLIC	?DAHealthCrateClassRegistrant@@3V?$DACrateRegistrant@VDAHealthCrateClass@@@@A ; DAHealthCrateClassRegistrant
PUBLIC	??_C@_06GGDALCBD@Health?$AA@			; `string'
PUBLIC	??_7DAPowerCrateClass@@6BDACrateClass@@@	; DAPowerCrateClass::`vftable'
PUBLIC	??_7DAPowerCrateClass@@6BDAEventClass@@@	; DAPowerCrateClass::`vftable'
PUBLIC	??_C@_0O@GPBILLL@JFW_Power_Off?$AA@		; `string'
PUBLIC	??_C@_0L@BDMKBABC@The?5?$CFs?5has?$AA@		; `string'
PUBLIC	??_C@_0O@KFGIOJGL@Defenses?5have?$AA@		; `string'
PUBLIC	??_C@_0EB@NMCDBABK@Power?5surge?5detected?5in?5the?5?$CFls?5@ ; `string'
PUBLIC	??_C@_02DKCKIIND@?$CFs?$AA@			; `string'
PUBLIC	??_C@_08CFKLJHLA@defenses?$AA@			; `string'
PUBLIC	??_C@_0FF@CFMJGLHB@Power?5surge?5detected?5in?5the?5?$CFls?5@ ; `string'
PUBLIC	??_C@_0BC@GEPLBFP@?$CFls?5base?5defenses?$AA@	; `string'
PUBLIC	??_C@_0CD@DIDFFDME@Power?5has?5been?5restored?5to?5the?5?$CF@ ; `string'
PUBLIC	??_C@_06PEDCBP@?$CFs?5has?$AA@			; `string'
PUBLIC	??_C@_0BH@FHJDDOEC@?$CFls?5base?5defenses?5have?$AA@ ; `string'
PUBLIC	??_C@_0BD@MFIIHJLG@The?5?$CFs?5lost?5power?4?$AA@ ; `string'
PUBLIC	??_7?$DACrateRegistrant@VDAPowerCrateClass@@@@6B@ ; DACrateRegistrant<DAPowerCrateClass>::`vftable'
PUBLIC	?DAPowerCrateClassRegistrant@@3V?$DACrateRegistrant@VDAPowerCrateClass@@@@A ; DAPowerCrateClassRegistrant
PUBLIC	??_C@_05PMCMDMKN@Power?$AA@			; `string'
PUBLIC	??_7DARegenerationCrateObserverClass@@6B@	; DARegenerationCrateObserverClass::`vftable'
PUBLIC	??_C@_0CB@HDJNIGDA@DARegenerationCrateObserverClass@ ; `string'
PUBLIC	??_7DARegenerationCrateClass@@6B@		; DARegenerationCrateClass::`vftable'
PUBLIC	??_C@_0FJ@KMAHIHOP@You?5picked?5up?5the?5Regeneration?5C@ ; `string'
PUBLIC	??_C@_0CD@CCDALCAN@DARegenerationCrateClass?3?3Activa@ ; `string'
PUBLIC	??_C@_0DO@NPGGNMDO@x?3?2github?2renegade?2dragonade_rxd@ ; `string'
PUBLIC	??_C@_1HM@LPOINNHP@?$AAx?$AA?3?$AA?2?$AAg?$AAi?$AAt?$AAh?$AAu?$AAb?$AA?2?$AAr?$AAe?$AAn?$AAe?$AAg?$AAa?$AAd?$AAe?$AA?2?$AAd?$AAr?$AAa?$AAg?$AAo?$AAn?$AAa?$AAd?$AAe?$AA_?$AAr?$AAx?$AAd@ ; `string'
PUBLIC	??_C@_0EP@HEBACJAM@You?5picked?5up?5the?5Regeneration?5C@ ; `string'
PUBLIC	??_7?$DACrateRegistrant@VDARegenerationCrateClass@@@@6B@ ; DACrateRegistrant<DARegenerationCrateClass>::`vftable'
PUBLIC	?DARegenerationCrateClassRegistrant@@3V?$DACrateRegistrant@VDARegenerationCrateClass@@@@A ; DARegenerationCrateClassRegistrant
PUBLIC	??_C@_0N@CBPBLBHG@Regeneration?$AA@		; `string'
PUBLIC	??_7DAIonStormCrateClass@@6BDACrateClass@@@	; DAIonStormCrateClass::`vftable'
PUBLIC	??_7DAIonStormCrateClass@@6BDAEventClass@@@	; DAIonStormCrateClass::`vftable'
PUBLIC	??_C@_0DD@NFNKGFDP@Detecting?5interference?5from?5appr@ ; `string'
PUBLIC	??_C@_0N@IPMHJFGC@Searching?4?4?4?$AA@		; `string'
PUBLIC	??_C@_0BP@NFDAJIJ@M00EVAN_DSGN0027I1EVAN_snd?4wav?$AA@ ; `string'
PUBLIC	??_C@_0BP@KMPBIDFN@M00EVAG_DSGN0031I1EVAG_snd?4wav?$AA@ ; `string'
PUBLIC	??_C@_0CE@NIOOFAGJ@Uplink?5established?4?5Please?5stand@ ; `string'
PUBLIC	??_C@_0CA@ONHPNCHJ@Re?9initializing?5HUD?5sub?9system?4?$AA@ ; `string'
PUBLIC	??_C@_0BP@NJGEKLCO@M00EVAN_DSGN0031I1EVAN_snd?4wav?$AA@ ; `string'
PUBLIC	??_C@_0BP@HIMAMPNK@M00EVAG_DSGN0035I1EVAG_snd?4wav?$AA@ ; `string'
PUBLIC	??_C@_0DC@EBDMHJCD@Uplink?5signal?5to?5global?5EVANet?5l@ ; `string'
PUBLIC	??_C@_0BP@IDLJGOLD@M00EVAN_DSGN0028I1EVAN_snd?4wav?$AA@ ; `string'
PUBLIC	??_C@_0BP@IFDJDHKP@M00EVAG_DSGN0032I1EVAG_snd?4wav?$AA@ ; `string'
PUBLIC	??_C@_0BM@LJKDOIJD@Unable?5to?5establish?5uplink?4?$AA@ ; `string'
PUBLIC	??_7?$DACrateRegistrant@VDAIonStormCrateClass@@@@6B@ ; DACrateRegistrant<DAIonStormCrateClass>::`vftable'
PUBLIC	?DAIonStormCrateClassRegistrant@@3V?$DACrateRegistrant@VDAIonStormCrateClass@@@@A ; DAIonStormCrateClassRegistrant
PUBLIC	??_C@_09JFPHAMFE@Ion?5Storm?$AA@		; `string'
PUBLIC	??_7DASpyCratePassengerObserverClass@@6B@	; DASpyCratePassengerObserverClass::`vftable'
PUBLIC	??_C@_0CB@LHGFJDED@DASpyCratePassengerObserverClass@ ; `string'
PUBLIC	??_C@_0BP@LOGMCPFO@DASpyCrateVehicleObserverClass?$AA@ ; `string'
PUBLIC	??_7DASpyCrateVehicleObserverClass@@6B@		; DASpyCrateVehicleObserverClass::`vftable'
PUBLIC	??_C@_0CF@OAJIGCHB@DASpyCrateVehicleObserverClass?3?3@ ; `string'
PUBLIC	??_C@_0CO@JFJDCMNG@DASpyCrateVehicleObserverClass?3?3@ ; `string'
PUBLIC	??_7DASpyCrateSoldierObserverClass@@6B@		; DASpyCrateSoldierObserverClass::`vftable'
PUBLIC	??_C@_0BP@EOKNILJO@DASpyCrateSoldierObserverClass?$AA@ ; `string'
PUBLIC	??_7DASpyCrateClass@@6B@			; DASpyCrateClass::`vftable'
PUBLIC	??_C@_0EB@GPKHBDIN@A?5?$CFls?5player?5just?5got?5the?5Spy?5Cr@ ; `string'
PUBLIC	??_C@_0BK@HPCOPPKO@DASpyCrateClass?3?3Activate?$AA@ ; `string'
PUBLIC	??_C@_0GH@GMELLEOK@Base?5defenses?5will?5ignore?5your?5c@ ; `string'
PUBLIC	??_C@_0BJ@HIKMPHIB@CnC_Nod_FlameThrower_2SF?$AA@ ; `string'
PUBLIC	??_C@_0BN@KMLCJCDK@CnC_Nod_FlameThrower_2SF_RxD?$AA@ ; `string'
PUBLIC	??_C@_0FG@OONKJEIA@Base?5defenses?5will?5ignore?5your?5c@ ; `string'
PUBLIC	??_7?$DACrateRegistrant@VDASpyCrateClass@@@@6B@	; DACrateRegistrant<DASpyCrateClass>::`vftable'
PUBLIC	?DASpyCrateClassRegistrant@@3V?$DACrateRegistrant@VDASpyCrateClass@@@@A ; DASpyCrateClassRegistrant
PUBLIC	??_C@_03KNAPCKEA@Spy?$AA@			; `string'
PUBLIC	??_7DAUAVCrateObserverClass@@6B@		; DAUAVCrateObserverClass::`vftable'
PUBLIC	??_C@_0BB@NHJNEILC@Invisible_Object?$AA@	; `string'
PUBLIC	??_C@_06BIJBOFNL@Origin?$AA@			; `string'
PUBLIC	??_7DAUAVCrateClass@@6BDACrateClass@@@		; DAUAVCrateClass::`vftable'
PUBLIC	??_7DAUAVCrateClass@@6BDAEventClass@@@		; DAUAVCrateClass::`vftable'
PUBLIC	??_C@_0FE@LAICLIJJ@A?5?$CFls?5player?5just?5picked?5up?5the?5@ ; `string'
PUBLIC	??_C@_0BK@DPCEHHN@DAUAVCrateClass?3?3Activate?$AA@ ; `string'
PUBLIC	??_C@_0CG@OGFGCMGA@DAUAVCrateClass?3?3Object_Created_@ ; `string'
PUBLIC	??_7?$DACrateRegistrant@VDAUAVCrateClass@@@@6B@	; DACrateRegistrant<DAUAVCrateClass>::`vftable'
PUBLIC	?DAUAVCrateClassRegistrant@@3V?$DACrateRegistrant@VDAUAVCrateClass@@@@A ; DAUAVCrateClassRegistrant
PUBLIC	??_C@_03LPNBMCFG@UAV?$AA@			; `string'
PUBLIC	??_7DAKamikazeCrateObserverClass@@6B@		; DAKamikazeCrateObserverClass::`vftable'
PUBLIC	??_C@_0BN@MMKIJCDP@DAKamikazeCrateObserverClass?$AA@ ; `string'
PUBLIC	??_C@_0BM@HFFMNHJD@Beacon_Ion_Cannon_Anim_Post?$AA@ ; `string'
PUBLIC	??_C@_0BB@HBAICPOK@Laser_NoBuilding?$AA@	; `string'
PUBLIC	??_7DAKamikazeCrateClass@@6B@			; DAKamikazeCrateClass::`vftable'
PUBLIC	??_C@_0FB@DPOLOFDL@Some?5crazy?5ass?5?$CFls?5player?5just?5p@ ; `string'
PUBLIC	??_C@_0GH@EKDCMPMC@You?5picked?5up?5the?5Kamikaze?5Crate@ ; `string'
PUBLIC	??_C@_0BP@LPHCMFIK@DAKamikazeCrateClass?3?3Activate?$AA@ ; `string'
PUBLIC	??_C@_0FO@KOPBCKHN@You?5picked?5up?5the?5Kamikaze?5Crate@ ; `string'
PUBLIC	??_7?$DACrateRegistrant@VDAKamikazeCrateClass@@@@6B@ ; DACrateRegistrant<DAKamikazeCrateClass>::`vftable'
PUBLIC	?DAKamikazeCrateClassRegistrant@@3V?$DACrateRegistrant@VDAKamikazeCrateClass@@@@A ; DAKamikazeCrateClassRegistrant
PUBLIC	??_C@_08LAHOABEH@Kamikaze?$AA@			; `string'
PUBLIC	??_7DASecondWindCrateObserverClass@@6B@		; DASecondWindCrateObserverClass::`vftable'
PUBLIC	??_C@_0BP@GHABMEMK@DASecondWindCrateObserverClass?$AA@ ; `string'
PUBLIC	??_C@_0BP@EGGNIKGD@M00EVAN_DSGN0022I1EVAN_SND?4wav?$AA@ ; `string'
PUBLIC	??_C@_0BP@OHMJOOJH@M00EVAG_DSGN0026I1EVAG_SND?4wav?$AA@ ; `string'
PUBLIC	??_C@_0P@BDLPIHIA@o_em_cross?4w3d?$AA@		; `string'
PUBLIC	??_7DASecondWindCrateClass@@6B@			; DASecondWindCrateClass::`vftable'
PUBLIC	??_C@_0CB@FELBIPBK@DASecondWindCrateClass?3?3Activate@ ; `string'
PUBLIC	??_C@_0FM@HJIEKGJM@You?5picked?5up?5the?5Second?5Wind?5Cr@ ; `string'
PUBLIC	??_C@_0FD@FEHHLFJK@You?5picked?5up?5the?5Second?5Wind?5Cr@ ; `string'
PUBLIC	??_7?$DACrateRegistrant@VDASecondWindCrateClass@@@@6B@ ; DACrateRegistrant<DASecondWindCrateClass>::`vftable'
PUBLIC	?DASecondWindCrateClassRegistrant@@3V?$DACrateRegistrant@VDASecondWindCrateClass@@@@A ; DASecondWindCrateClassRegistrant
PUBLIC	??_C@_0M@GFLHEGIC@Second?5Wind?$AA@		; `string'
PUBLIC	??_7DAStealthCrateClass@@6B@			; DAStealthCrateClass::`vftable'
PUBLIC	??_C@_0FF@OJBIOAPI@Your?5vehicle?5has?5been?5equipped?5w@ ; `string'
PUBLIC	??_C@_0EI@BFJHIODC@You?5have?5been?5equipped?5with?5a?5La@ ; `string'
PUBLIC	??_7?$DACrateRegistrant@VDAStealthCrateClass@@@@6B@ ; DACrateRegistrant<DAStealthCrateClass>::`vftable'
PUBLIC	?DAStealthCrateClassRegistrant@@3V?$DACrateRegistrant@VDAStealthCrateClass@@@@A ; DAStealthCrateClassRegistrant
PUBLIC	??_C@_07CKBEIJAH@Stealth?$AA@			; `string'
PUBLIC	??_C@_0EJ@ENMBJFB@SList?$DMstruct?5MultiKeyHookScriptI@ ; `string'
PUBLIC	??_C@_0DB@DFBFLIIO@x?3?2github?2renegade?2dragonade_rxd@ ; `string'
PUBLIC	??_C@_1GC@LJHGOLFN@?$AAx?$AA?3?$AA?2?$AAg?$AAi?$AAt?$AAh?$AAu?$AAb?$AA?2?$AAr?$AAe?$AAn?$AAe?$AAg?$AAa?$AAd?$AAe?$AA?2?$AAd?$AAr?$AAa?$AAg?$AAo?$AAn?$AAa?$AAd?$AAe?$AA_?$AAr?$AAx?$AAd@ ; `string'
PUBLIC	??_C@_0EJ@OIGECPDF@SList?$DMstruct?5MultiKeyHookScriptI@ ; `string'
PUBLIC	??_C@_0EM@PPENJFKC@SList?$DMstruct?5MultiKeyHookScriptI@ ; `string'
PUBLIC	??_C@_0EH@CGJBMJBC@SList?$DMstruct?5MultiKeyHookScriptI@ ; `string'
PUBLIC	??_C@_0EL@MPFHHNNA@SList?$DMstruct?5MultiKeyHookScriptI@ ; `string'
PUBLIC	??_C@_0EO@OJGPEJGC@SList?$DMstruct?5MultiKeyHookScriptI@ ; `string'
PUBLIC	??_C@_0EN@HIHNAGN@SList?$DMstruct?5MultiKeyHookScriptI@ ; `string'
PUBLIC	??_C@_0DD@ODCBLNCJ@VectorClass?$DMclass?5DAPlayerObserv@ ; `string'
PUBLIC	??_C@_0DC@JEMMOOD@VectorClass?$DMclass?5DAPlayerObserv@ ; `string'
PUBLIC	??_C@_0CP@DHEAPCNI@VectorClass?$DMclass?5DAPlayerDataCl@ ; `string'
PUBLIC	??_C@_0CO@NDDDNNIA@VectorClass?$DMclass?5DAPlayerDataCl@ ; `string'
PUBLIC	??_C@_0DP@CMFCBLKD@VectorClass?$DMstruct?5DAPlayerClass@ ; `string'
PUBLIC	??_C@_0DO@MAHPNNNF@VectorClass?$DMstruct?5DAPlayerClass@ ; `string'
PUBLIC	??_C@_0DK@BBINAFLN@VectorClass?$DMstruct?5DAPlayerObser@ ; `string'
PUBLIC	??_C@_0DJ@MHPEBELA@VectorClass?$DMstruct?5DAPlayerObser@ ; `string'
PUBLIC	??_C@_0EA@MBLDIHCA@VectorClass?$DMstruct?5DAPlayerObser@ ; `string'
PUBLIC	??_C@_0DP@JJGAHOFF@VectorClass?$DMstruct?5DAPlayerObser@ ; `string'
PUBLIC	??_C@_0DM@PKMANBOA@VectorClass?$DMstruct?5DAPlayerObser@ ; `string'
PUBLIC	??_C@_0DL@IEBGHGHF@VectorClass?$DMstruct?5DAPlayerObser@ ; `string'
PUBLIC	??_C@_0DC@OKBIFKKJ@VectorClass?$DMclass?5DACrateModifie@ ; `string'
PUBLIC	??_C@_0DB@IGOHGFOP@VectorClass?$DMclass?5DACrateModifie@ ; `string'
PUBLIC	??_C@_0DM@KMBHJNNN@DACrateRegistrant?$DMclass?5DAMoneyC@ ; `string'
PUBLIC	??_C@_0DE@FCAIFOBL@x?3?2github?2renegade?2dragonade_rxd@ ; `string'
PUBLIC	??_C@_1GI@FGJGNEID@?$AAx?$AA?3?$AA?2?$AAg?$AAi?$AAt?$AAh?$AAu?$AAb?$AA?2?$AAr?$AAe?$AAn?$AAe?$AAg?$AAa?$AAd?$AAe?$AA?2?$AAd?$AAr?$AAa?$AAg?$AAo?$AAn?$AAa?$AAd?$AAe?$AA_?$AAr?$AAx?$AAd@ ; `string'
PUBLIC	??_C@_0DM@IBGCHPCP@DACrateRegistrant?$DMclass?5DADeathC@ ; `string'
PUBLIC	??_C@_0DO@ENHNAMBO@DACrateRegistrant?$DMclass?5DAVetera@ ; `string'
PUBLIC	??_C@_0DN@BHHPIOHL@DACrateRegistrant?$DMclass?5DAHealth@ ; `string'
PUBLIC	??_C@_0DM@LDAJHKGP@DACrateRegistrant?$DMclass?5DAPowerC@ ; `string'
PUBLIC	??_C@_0ED@DAGPNKDE@DACrateRegistrant?$DMclass?5DARegene@ ; `string'
PUBLIC	??_C@_0DP@FENFJBNG@DACrateRegistrant?$DMclass?5DAIonSto@ ; `string'
PUBLIC	??_C@_0DK@EJGKHGAH@DACrateRegistrant?$DMclass?5DASpyCra@ ; `string'
PUBLIC	??_C@_0DK@ILLMNHKF@DACrateRegistrant?$DMclass?5DAUAVCra@ ; `string'
PUBLIC	??_C@_0DP@LEKLMNEK@DACrateRegistrant?$DMclass?5DAKamika@ ; `string'
PUBLIC	??_C@_0EB@JPKIHIAF@DACrateRegistrant?$DMclass?5DASecond@ ; `string'
PUBLIC	??_C@_0DO@FPIBBJPB@DACrateRegistrant?$DMclass?5DAStealt@ ; `string'
PUBLIC	??_C@_0DH@FMPAOODI@VectorClass?$DMclass?5DAPlayerObserv@ ; `string'
PUBLIC	??_C@_0DD@OELEBJCM@VectorClass?$DMclass?5DAPlayerDataCl@ ; `string'
PUBLIC	??_C@_0ED@MCIGMKB@VectorClass?$DMstruct?5DAPlayerClass@ ; `string'
PUBLIC	??_C@_0DP@IOIJJLDO@VectorClass?$DMstruct?5DAPlayerObser@ ; `string'
PUBLIC	??_C@_0DO@PEJOFHLG@VectorClass?$DMstruct?5DAPlayerObser@ ; `string'
PUBLIC	??_C@_0EF@EPICALKK@VectorClass?$DMstruct?5DAPlayerObser@ ; `string'
PUBLIC	??_C@_0EE@JOBDGIII@VectorClass?$DMstruct?5DAPlayerObser@ ; `string'
PUBLIC	??_C@_0EB@CCPEIKDO@VectorClass?$DMstruct?5DAPlayerObser@ ; `string'
PUBLIC	??_C@_0EA@DFHGBHJN@VectorClass?$DMstruct?5DAPlayerObser@ ; `string'
PUBLIC	??_C@_0DH@IEBHPHOF@VectorClass?$DMclass?5DACrateModifie@ ; `string'
PUBLIC	??_C@_0DG@GKFMKLDI@VectorClass?$DMclass?5DACrateModifie@ ; `string'
PUBLIC	?instancex@?1??getInstance@?$Singleton@V?$ObjectPoolClass@VGenericSLNode@@$0BAA@@@@@SAAAV?$ObjectPoolClass@VGenericSLNode@@$0BAA@@@XZ@4V3@A ; `Singleton<ObjectPoolClass<GenericSLNode,256> >::getInstance'::`2'::instancex
PUBLIC	??_B?1??getInstance@?$Singleton@V?$ObjectPoolClass@VGenericSLNode@@$0BAA@@@@@SAAAV?$ObjectPoolClass@VGenericSLNode@@$0BAA@@@XZ@51 ; `Singleton<ObjectPoolClass<GenericSLNode,256> >::getInstance'::`2'::`local static guard'
PUBLIC	??_C@_0EB@IOGKEECK@ObjectPoolClass?$DMclass?5GenericSLN@ ; `string'
PUBLIC	??_C@_0FF@NOANHENP@?$CFd?5memory?5leaks?5found?5in?5ObjectP@ ; `string'
PUBLIC	??_C@_0DL@BOENBDGI@ObjectPoolClass?$DMclass?5GenericSLN@ ; `string'
PUBLIC	?oh_dear@?7???R?$SafeDataClass@M@@QBEAAMXZ@4MA	; `SafeDataClass<float>::operator()'::`8'::oh_dear
PUBLIC	?oh_dear@?7???R?$SafeDataClass@H@@QBEAAHXZ@4HA	; `SafeDataClass<int>::operator()'::`8'::oh_dear
PUBLIC	??_R4ScriptFactory@@6B@				; ScriptFactory::`RTTI Complete Object Locator'
PUBLIC	??_R0?AVScriptFactory@@@8			; ScriptFactory `RTTI Type Descriptor'
PUBLIC	??_R3ScriptFactory@@8				; ScriptFactory::`RTTI Class Hierarchy Descriptor'
PUBLIC	??_R2ScriptFactory@@8				; ScriptFactory::`RTTI Base Class Array'
PUBLIC	??_R1A@?0A@EA@ScriptFactory@@8			; ScriptFactory::`RTTI Base Class Descriptor at (0,-1,0,64)'
PUBLIC	??_R4ScriptClass@@6B@				; ScriptClass::`RTTI Complete Object Locator'
PUBLIC	??_R0?AVScriptClass@@@8				; ScriptClass `RTTI Type Descriptor'
PUBLIC	??_R3ScriptClass@@8				; ScriptClass::`RTTI Class Hierarchy Descriptor'
PUBLIC	??_R2ScriptClass@@8				; ScriptClass::`RTTI Base Class Array'
PUBLIC	??_R1A@?0A@EA@ScriptClass@@8			; ScriptClass::`RTTI Base Class Descriptor at (0,-1,0,64)'
PUBLIC	??_R1A@?0A@EA@GameObjObserverClass@@8		; GameObjObserverClass::`RTTI Base Class Descriptor at (0,-1,0,64)'
PUBLIC	??_R0?AVGameObjObserverClass@@@8		; GameObjObserverClass `RTTI Type Descriptor'
PUBLIC	??_R3GameObjObserverClass@@8			; GameObjObserverClass::`RTTI Class Hierarchy Descriptor'
PUBLIC	??_R2GameObjObserverClass@@8			; GameObjObserverClass::`RTTI Base Class Array'
PUBLIC	??_R4GameObjObserverClass@@6B@			; GameObjObserverClass::`RTTI Complete Object Locator'
PUBLIC	??_R4ScriptImpClass@@6B@			; ScriptImpClass::`RTTI Complete Object Locator'
PUBLIC	??_R0?AVScriptImpClass@@@8			; ScriptImpClass `RTTI Type Descriptor'
PUBLIC	??_R3ScriptImpClass@@8				; ScriptImpClass::`RTTI Class Hierarchy Descriptor'
PUBLIC	??_R2ScriptImpClass@@8				; ScriptImpClass::`RTTI Base Class Array'
PUBLIC	??_R1A@?0A@EA@ScriptImpClass@@8			; ScriptImpClass::`RTTI Base Class Descriptor at (0,-1,0,64)'
PUBLIC	??_R4ThreadClass@@6B@				; ThreadClass::`RTTI Complete Object Locator'
PUBLIC	??_R0?AVThreadClass@@@8				; ThreadClass `RTTI Type Descriptor'
PUBLIC	??_R3ThreadClass@@8				; ThreadClass::`RTTI Class Hierarchy Descriptor'
PUBLIC	??_R2ThreadClass@@8				; ThreadClass::`RTTI Base Class Array'
PUBLIC	??_R1A@?0A@EA@ThreadClass@@8			; ThreadClass::`RTTI Base Class Descriptor at (0,-1,0,64)'
PUBLIC	??_R4INIClass@@6B@				; INIClass::`RTTI Complete Object Locator'
PUBLIC	??_R0?AVINIClass@@@8				; INIClass `RTTI Type Descriptor'
PUBLIC	??_R3INIClass@@8				; INIClass::`RTTI Class Hierarchy Descriptor'
PUBLIC	??_R2INIClass@@8				; INIClass::`RTTI Base Class Array'
PUBLIC	??_R1A@?0A@EA@INIClass@@8			; INIClass::`RTTI Base Class Descriptor at (0,-1,0,64)'
PUBLIC	??_R1A@?0A@EA@PostLoadableClass@@8		; PostLoadableClass::`RTTI Base Class Descriptor at (0,-1,0,64)'
PUBLIC	??_R0?AVPostLoadableClass@@@8			; PostLoadableClass `RTTI Type Descriptor'
PUBLIC	??_R3PostLoadableClass@@8			; PostLoadableClass::`RTTI Class Hierarchy Descriptor'
PUBLIC	??_R2PostLoadableClass@@8			; PostLoadableClass::`RTTI Base Class Array'
PUBLIC	??_R4PostLoadableClass@@6B@			; PostLoadableClass::`RTTI Complete Object Locator'
PUBLIC	??_R4ReferencerClass@@6B@			; ReferencerClass::`RTTI Complete Object Locator'
PUBLIC	??_R0?AVReferencerClass@@@8			; ReferencerClass `RTTI Type Descriptor'
PUBLIC	??_R3ReferencerClass@@8				; ReferencerClass::`RTTI Class Hierarchy Descriptor'
PUBLIC	??_R2ReferencerClass@@8				; ReferencerClass::`RTTI Base Class Array'
PUBLIC	??_R1A@?0A@EA@ReferencerClass@@8		; ReferencerClass::`RTTI Base Class Descriptor at (0,-1,0,64)'
PUBLIC	??_R4JFW_Key_Hook_Base@@6B@			; JFW_Key_Hook_Base::`RTTI Complete Object Locator'
PUBLIC	??_R0?AVJFW_Key_Hook_Base@@@8			; JFW_Key_Hook_Base `RTTI Type Descriptor'
PUBLIC	??_R3JFW_Key_Hook_Base@@8			; JFW_Key_Hook_Base::`RTTI Class Hierarchy Descriptor'
PUBLIC	??_R2JFW_Key_Hook_Base@@8			; JFW_Key_Hook_Base::`RTTI Base Class Array'
PUBLIC	??_R1A@?0A@EA@JFW_Key_Hook_Base@@8		; JFW_Key_Hook_Base::`RTTI Base Class Descriptor at (0,-1,0,64)'
PUBLIC	??_R4MultiKeyHookScriptImpClass@@6B@		; MultiKeyHookScriptImpClass::`RTTI Complete Object Locator'
PUBLIC	??_R0?AVMultiKeyHookScriptImpClass@@@8		; MultiKeyHookScriptImpClass `RTTI Type Descriptor'
PUBLIC	??_R3MultiKeyHookScriptImpClass@@8		; MultiKeyHookScriptImpClass::`RTTI Class Hierarchy Descriptor'
PUBLIC	??_R2MultiKeyHookScriptImpClass@@8		; MultiKeyHookScriptImpClass::`RTTI Base Class Array'
PUBLIC	??_R1A@?0A@EA@MultiKeyHookScriptImpClass@@8	; MultiKeyHookScriptImpClass::`RTTI Base Class Descriptor at (0,-1,0,64)'
PUBLIC	??_R4?$SList@UKeyHookWrapperStruct@MultiKeyHookScriptImpClass@@@@6B@ ; SList<MultiKeyHookScriptImpClass::KeyHookWrapperStruct>::`RTTI Complete Object Locator'
PUBLIC	??_R0?AV?$SList@UKeyHookWrapperStruct@MultiKeyHookScriptImpClass@@@@@8 ; SList<MultiKeyHookScriptImpClass::KeyHookWrapperStruct> `RTTI Type Descriptor'
PUBLIC	??_R3?$SList@UKeyHookWrapperStruct@MultiKeyHookScriptImpClass@@@@8 ; SList<MultiKeyHookScriptImpClass::KeyHookWrapperStruct>::`RTTI Class Hierarchy Descriptor'
PUBLIC	??_R2?$SList@UKeyHookWrapperStruct@MultiKeyHookScriptImpClass@@@@8 ; SList<MultiKeyHookScriptImpClass::KeyHookWrapperStruct>::`RTTI Base Class Array'
PUBLIC	??_R1A@?0A@EA@?$SList@UKeyHookWrapperStruct@MultiKeyHookScriptImpClass@@@@8 ; SList<MultiKeyHookScriptImpClass::KeyHookWrapperStruct>::`RTTI Base Class Descriptor at (0,-1,0,64)'
PUBLIC	??_R4JFW_Object_Created_Hook_Base@@6B@		; JFW_Object_Created_Hook_Base::`RTTI Complete Object Locator'
PUBLIC	??_R0?AVJFW_Object_Created_Hook_Base@@@8	; JFW_Object_Created_Hook_Base `RTTI Type Descriptor'
PUBLIC	??_R3JFW_Object_Created_Hook_Base@@8		; JFW_Object_Created_Hook_Base::`RTTI Class Hierarchy Descriptor'
PUBLIC	??_R2JFW_Object_Created_Hook_Base@@8		; JFW_Object_Created_Hook_Base::`RTTI Base Class Array'
PUBLIC	??_R1A@?0A@EA@JFW_Object_Created_Hook_Base@@8	; JFW_Object_Created_Hook_Base::`RTTI Base Class Descriptor at (0,-1,0,64)'
PUBLIC	??_R4DAEventClass@@6B@				; DAEventClass::`RTTI Complete Object Locator'
PUBLIC	??_R0?AVDAEventClass@@@8			; DAEventClass `RTTI Type Descriptor'
PUBLIC	??_R3DAEventClass@@8				; DAEventClass::`RTTI Class Hierarchy Descriptor'
PUBLIC	??_R2DAEventClass@@8				; DAEventClass::`RTTI Base Class Array'
PUBLIC	??_R1A@?0A@EA@DAEventClass@@8			; DAEventClass::`RTTI Base Class Descriptor at (0,-1,0,64)'
PUBLIC	??_R4DAGameObjObserverClass@@6B@		; DAGameObjObserverClass::`RTTI Complete Object Locator'
PUBLIC	??_R0?AVDAGameObjObserverClass@@@8		; DAGameObjObserverClass `RTTI Type Descriptor'
PUBLIC	??_R3DAGameObjObserverClass@@8			; DAGameObjObserverClass::`RTTI Class Hierarchy Descriptor'
PUBLIC	??_R2DAGameObjObserverClass@@8			; DAGameObjObserverClass::`RTTI Base Class Array'
PUBLIC	??_R1A@?0A@EA@DAGameObjObserverClass@@8		; DAGameObjObserverClass::`RTTI Base Class Descriptor at (0,-1,0,64)'
PUBLIC	??_R4DAPlayerDataFactoryClass@@6B@		; DAPlayerDataFactoryClass::`RTTI Complete Object Locator'
PUBLIC	??_R0?AVDAPlayerDataFactoryClass@@@8		; DAPlayerDataFactoryClass `RTTI Type Descriptor'
PUBLIC	??_R3DAPlayerDataFactoryClass@@8		; DAPlayerDataFactoryClass::`RTTI Class Hierarchy Descriptor'
PUBLIC	??_R2DAPlayerDataFactoryClass@@8		; DAPlayerDataFactoryClass::`RTTI Base Class Array'
PUBLIC	??_R1A@?0A@EA@DAPlayerDataFactoryClass@@8	; DAPlayerDataFactoryClass::`RTTI Base Class Descriptor at (0,-1,0,64)'
PUBLIC	??_R4DAPlayerObserverClass@@6B@			; DAPlayerObserverClass::`RTTI Complete Object Locator'
PUBLIC	??_R0?AVDAPlayerObserverClass@@@8		; DAPlayerObserverClass `RTTI Type Descriptor'
PUBLIC	??_R3DAPlayerObserverClass@@8			; DAPlayerObserverClass::`RTTI Class Hierarchy Descriptor'
PUBLIC	??_R2DAPlayerObserverClass@@8			; DAPlayerObserverClass::`RTTI Base Class Array'
PUBLIC	??_R1A@?0A@EA@DAPlayerObserverClass@@8		; DAPlayerObserverClass::`RTTI Base Class Descriptor at (0,-1,0,64)'
PUBLIC	??_R4DAPlayerDataClass@@6B@			; DAPlayerDataClass::`RTTI Complete Object Locator'
PUBLIC	??_R0?AVDAPlayerDataClass@@@8			; DAPlayerDataClass `RTTI Type Descriptor'
PUBLIC	??_R3DAPlayerDataClass@@8			; DAPlayerDataClass::`RTTI Class Hierarchy Descriptor'
PUBLIC	??_R2DAPlayerDataClass@@8			; DAPlayerDataClass::`RTTI Base Class Array'
PUBLIC	??_R1A@?0A@EA@DAPlayerDataClass@@8		; DAPlayerDataClass::`RTTI Base Class Descriptor at (0,-1,0,64)'
PUBLIC	??_R4?$DynamicVectorClass@PAVDAPlayerObserverClass@@@@6B@ ; DynamicVectorClass<DAPlayerObserverClass *>::`RTTI Complete Object Locator'
PUBLIC	??_R0?AV?$DynamicVectorClass@PAVDAPlayerObserverClass@@@@@8 ; DynamicVectorClass<DAPlayerObserverClass *> `RTTI Type Descriptor'
PUBLIC	??_R3?$DynamicVectorClass@PAVDAPlayerObserverClass@@@@8 ; DynamicVectorClass<DAPlayerObserverClass *>::`RTTI Class Hierarchy Descriptor'
PUBLIC	??_R2?$DynamicVectorClass@PAVDAPlayerObserverClass@@@@8 ; DynamicVectorClass<DAPlayerObserverClass *>::`RTTI Base Class Array'
PUBLIC	??_R1A@?0A@EA@?$DynamicVectorClass@PAVDAPlayerObserverClass@@@@8 ; DynamicVectorClass<DAPlayerObserverClass *>::`RTTI Base Class Descriptor at (0,-1,0,64)'
PUBLIC	??_R1A@?0A@EA@?$VectorClass@PAVDAPlayerObserverClass@@@@8 ; VectorClass<DAPlayerObserverClass *>::`RTTI Base Class Descriptor at (0,-1,0,64)'
PUBLIC	??_R0?AV?$VectorClass@PAVDAPlayerObserverClass@@@@@8 ; VectorClass<DAPlayerObserverClass *> `RTTI Type Descriptor'
PUBLIC	??_R3?$VectorClass@PAVDAPlayerObserverClass@@@@8 ; VectorClass<DAPlayerObserverClass *>::`RTTI Class Hierarchy Descriptor'
PUBLIC	??_R2?$VectorClass@PAVDAPlayerObserverClass@@@@8 ; VectorClass<DAPlayerObserverClass *>::`RTTI Base Class Array'
PUBLIC	??_R4?$VectorClass@PAVDAPlayerObserverClass@@@@6B@ ; VectorClass<DAPlayerObserverClass *>::`RTTI Complete Object Locator'
PUBLIC	??_R4?$DynamicVectorClass@PAVDAPlayerDataClass@@@@6B@ ; DynamicVectorClass<DAPlayerDataClass *>::`RTTI Complete Object Locator'
PUBLIC	??_R0?AV?$DynamicVectorClass@PAVDAPlayerDataClass@@@@@8 ; DynamicVectorClass<DAPlayerDataClass *> `RTTI Type Descriptor'
PUBLIC	??_R3?$DynamicVectorClass@PAVDAPlayerDataClass@@@@8 ; DynamicVectorClass<DAPlayerDataClass *>::`RTTI Class Hierarchy Descriptor'
PUBLIC	??_R2?$DynamicVectorClass@PAVDAPlayerDataClass@@@@8 ; DynamicVectorClass<DAPlayerDataClass *>::`RTTI Base Class Array'
PUBLIC	??_R1A@?0A@EA@?$DynamicVectorClass@PAVDAPlayerDataClass@@@@8 ; DynamicVectorClass<DAPlayerDataClass *>::`RTTI Base Class Descriptor at (0,-1,0,64)'
PUBLIC	??_R1A@?0A@EA@?$VectorClass@PAVDAPlayerDataClass@@@@8 ; VectorClass<DAPlayerDataClass *>::`RTTI Base Class Descriptor at (0,-1,0,64)'
PUBLIC	??_R0?AV?$VectorClass@PAVDAPlayerDataClass@@@@@8 ; VectorClass<DAPlayerDataClass *> `RTTI Type Descriptor'
PUBLIC	??_R3?$VectorClass@PAVDAPlayerDataClass@@@@8	; VectorClass<DAPlayerDataClass *>::`RTTI Class Hierarchy Descriptor'
PUBLIC	??_R2?$VectorClass@PAVDAPlayerDataClass@@@@8	; VectorClass<DAPlayerDataClass *>::`RTTI Base Class Array'
PUBLIC	??_R4?$VectorClass@PAVDAPlayerDataClass@@@@6B@	; VectorClass<DAPlayerDataClass *>::`RTTI Complete Object Locator'
PUBLIC	??_R4?$DynamicVectorClass@PAUDAPlayerTagStruct@DAPlayerClass@@@@6B@ ; DynamicVectorClass<DAPlayerClass::DAPlayerTagStruct *>::`RTTI Complete Object Locator'
PUBLIC	??_R0?AV?$DynamicVectorClass@PAUDAPlayerTagStruct@DAPlayerClass@@@@@8 ; DynamicVectorClass<DAPlayerClass::DAPlayerTagStruct *> `RTTI Type Descriptor'
PUBLIC	??_R3?$DynamicVectorClass@PAUDAPlayerTagStruct@DAPlayerClass@@@@8 ; DynamicVectorClass<DAPlayerClass::DAPlayerTagStruct *>::`RTTI Class Hierarchy Descriptor'
PUBLIC	??_R2?$DynamicVectorClass@PAUDAPlayerTagStruct@DAPlayerClass@@@@8 ; DynamicVectorClass<DAPlayerClass::DAPlayerTagStruct *>::`RTTI Base Class Array'
PUBLIC	??_R1A@?0A@EA@?$DynamicVectorClass@PAUDAPlayerTagStruct@DAPlayerClass@@@@8 ; DynamicVectorClass<DAPlayerClass::DAPlayerTagStruct *>::`RTTI Base Class Descriptor at (0,-1,0,64)'
PUBLIC	??_R1A@?0A@EA@?$VectorClass@PAUDAPlayerTagStruct@DAPlayerClass@@@@8 ; VectorClass<DAPlayerClass::DAPlayerTagStruct *>::`RTTI Base Class Descriptor at (0,-1,0,64)'
PUBLIC	??_R0?AV?$VectorClass@PAUDAPlayerTagStruct@DAPlayerClass@@@@@8 ; VectorClass<DAPlayerClass::DAPlayerTagStruct *> `RTTI Type Descriptor'
PUBLIC	??_R3?$VectorClass@PAUDAPlayerTagStruct@DAPlayerClass@@@@8 ; VectorClass<DAPlayerClass::DAPlayerTagStruct *>::`RTTI Class Hierarchy Descriptor'
PUBLIC	??_R2?$VectorClass@PAUDAPlayerTagStruct@DAPlayerClass@@@@8 ; VectorClass<DAPlayerClass::DAPlayerTagStruct *>::`RTTI Base Class Array'
PUBLIC	??_R4?$VectorClass@PAUDAPlayerTagStruct@DAPlayerClass@@@@6B@ ; VectorClass<DAPlayerClass::DAPlayerTagStruct *>::`RTTI Complete Object Locator'
PUBLIC	??_R4?$DynamicVectorClass@PAUDAPlayerObserverTimerStruct@@@@6B@ ; DynamicVectorClass<DAPlayerObserverTimerStruct *>::`RTTI Complete Object Locator'
PUBLIC	??_R0?AV?$DynamicVectorClass@PAUDAPlayerObserverTimerStruct@@@@@8 ; DynamicVectorClass<DAPlayerObserverTimerStruct *> `RTTI Type Descriptor'
PUBLIC	??_R3?$DynamicVectorClass@PAUDAPlayerObserverTimerStruct@@@@8 ; DynamicVectorClass<DAPlayerObserverTimerStruct *>::`RTTI Class Hierarchy Descriptor'
PUBLIC	??_R2?$DynamicVectorClass@PAUDAPlayerObserverTimerStruct@@@@8 ; DynamicVectorClass<DAPlayerObserverTimerStruct *>::`RTTI Base Class Array'
PUBLIC	??_R1A@?0A@EA@?$DynamicVectorClass@PAUDAPlayerObserverTimerStruct@@@@8 ; DynamicVectorClass<DAPlayerObserverTimerStruct *>::`RTTI Base Class Descriptor at (0,-1,0,64)'
PUBLIC	??_R1A@?0A@EA@?$VectorClass@PAUDAPlayerObserverTimerStruct@@@@8 ; VectorClass<DAPlayerObserverTimerStruct *>::`RTTI Base Class Descriptor at (0,-1,0,64)'
PUBLIC	??_R0?AV?$VectorClass@PAUDAPlayerObserverTimerStruct@@@@@8 ; VectorClass<DAPlayerObserverTimerStruct *> `RTTI Type Descriptor'
PUBLIC	??_R3?$VectorClass@PAUDAPlayerObserverTimerStruct@@@@8 ; VectorClass<DAPlayerObserverTimerStruct *>::`RTTI Class Hierarchy Descriptor'
PUBLIC	??_R2?$VectorClass@PAUDAPlayerObserverTimerStruct@@@@8 ; VectorClass<DAPlayerObserverTimerStruct *>::`RTTI Base Class Array'
PUBLIC	??_R4?$DynamicVectorClass@PAUDAPlayerObserverChatCommandStruct@@@@6B@ ; DynamicVectorClass<DAPlayerObserverChatCommandStruct *>::`RTTI Complete Object Locator'
PUBLIC	??_R0?AV?$DynamicVectorClass@PAUDAPlayerObserverChatCommandStruct@@@@@8 ; DynamicVectorClass<DAPlayerObserverChatCommandStruct *> `RTTI Type Descriptor'
PUBLIC	??_R3?$DynamicVectorClass@PAUDAPlayerObserverChatCommandStruct@@@@8 ; DynamicVectorClass<DAPlayerObserverChatCommandStruct *>::`RTTI Class Hierarchy Descriptor'
PUBLIC	??_R2?$DynamicVectorClass@PAUDAPlayerObserverChatCommandStruct@@@@8 ; DynamicVectorClass<DAPlayerObserverChatCommandStruct *>::`RTTI Base Class Array'
PUBLIC	??_R1A@?0A@EA@?$DynamicVectorClass@PAUDAPlayerObserverChatCommandStruct@@@@8 ; DynamicVectorClass<DAPlayerObserverChatCommandStruct *>::`RTTI Base Class Descriptor at (0,-1,0,64)'
PUBLIC	??_R1A@?0A@EA@?$VectorClass@PAUDAPlayerObserverChatCommandStruct@@@@8 ; VectorClass<DAPlayerObserverChatCommandStruct *>::`RTTI Base Class Descriptor at (0,-1,0,64)'
PUBLIC	??_R0?AV?$VectorClass@PAUDAPlayerObserverChatCommandStruct@@@@@8 ; VectorClass<DAPlayerObserverChatCommandStruct *> `RTTI Type Descriptor'
PUBLIC	??_R3?$VectorClass@PAUDAPlayerObserverChatCommandStruct@@@@8 ; VectorClass<DAPlayerObserverChatCommandStruct *>::`RTTI Class Hierarchy Descriptor'
PUBLIC	??_R2?$VectorClass@PAUDAPlayerObserverChatCommandStruct@@@@8 ; VectorClass<DAPlayerObserverChatCommandStruct *>::`RTTI Base Class Array'
PUBLIC	??_R4?$DynamicVectorClass@PAUDAPlayerObserverKeyHookStruct@@@@6B@ ; DynamicVectorClass<DAPlayerObserverKeyHookStruct *>::`RTTI Complete Object Locator'
PUBLIC	??_R0?AV?$DynamicVectorClass@PAUDAPlayerObserverKeyHookStruct@@@@@8 ; DynamicVectorClass<DAPlayerObserverKeyHookStruct *> `RTTI Type Descriptor'
PUBLIC	??_R3?$DynamicVectorClass@PAUDAPlayerObserverKeyHookStruct@@@@8 ; DynamicVectorClass<DAPlayerObserverKeyHookStruct *>::`RTTI Class Hierarchy Descriptor'
PUBLIC	??_R2?$DynamicVectorClass@PAUDAPlayerObserverKeyHookStruct@@@@8 ; DynamicVectorClass<DAPlayerObserverKeyHookStruct *>::`RTTI Base Class Array'
PUBLIC	??_R1A@?0A@EA@?$DynamicVectorClass@PAUDAPlayerObserverKeyHookStruct@@@@8 ; DynamicVectorClass<DAPlayerObserverKeyHookStruct *>::`RTTI Base Class Descriptor at (0,-1,0,64)'
PUBLIC	??_R1A@?0A@EA@?$VectorClass@PAUDAPlayerObserverKeyHookStruct@@@@8 ; VectorClass<DAPlayerObserverKeyHookStruct *>::`RTTI Base Class Descriptor at (0,-1,0,64)'
PUBLIC	??_R0?AV?$VectorClass@PAUDAPlayerObserverKeyHookStruct@@@@@8 ; VectorClass<DAPlayerObserverKeyHookStruct *> `RTTI Type Descriptor'
PUBLIC	??_R3?$VectorClass@PAUDAPlayerObserverKeyHookStruct@@@@8 ; VectorClass<DAPlayerObserverKeyHookStruct *>::`RTTI Class Hierarchy Descriptor'
PUBLIC	??_R2?$VectorClass@PAUDAPlayerObserverKeyHookStruct@@@@8 ; VectorClass<DAPlayerObserverKeyHookStruct *>::`RTTI Base Class Array'
PUBLIC	??_R4?$VectorClass@PAUDAPlayerObserverTimerStruct@@@@6B@ ; VectorClass<DAPlayerObserverTimerStruct *>::`RTTI Complete Object Locator'
PUBLIC	??_R4?$VectorClass@PAUDAPlayerObserverChatCommandStruct@@@@6B@ ; VectorClass<DAPlayerObserverChatCommandStruct *>::`RTTI Complete Object Locator'
PUBLIC	??_R4?$VectorClass@PAUDAPlayerObserverKeyHookStruct@@@@6B@ ; VectorClass<DAPlayerObserverKeyHookStruct *>::`RTTI Complete Object Locator'
PUBLIC	??_R4DACrateModifierClass@@6B@			; DACrateModifierClass::`RTTI Complete Object Locator'
PUBLIC	??_R0?AVDACrateModifierClass@@@8		; DACrateModifierClass `RTTI Type Descriptor'
PUBLIC	??_R3DACrateModifierClass@@8			; DACrateModifierClass::`RTTI Class Hierarchy Descriptor'
PUBLIC	??_R2DACrateModifierClass@@8			; DACrateModifierClass::`RTTI Base Class Array'
PUBLIC	??_R1A@?0A@EA@DACrateModifierClass@@8		; DACrateModifierClass::`RTTI Base Class Descriptor at (0,-1,0,64)'
PUBLIC	??_R4DACrateClass@@6B@				; DACrateClass::`RTTI Complete Object Locator'
PUBLIC	??_R0?AVDACrateClass@@@8			; DACrateClass `RTTI Type Descriptor'
PUBLIC	??_R3DACrateClass@@8				; DACrateClass::`RTTI Class Hierarchy Descriptor'
PUBLIC	??_R2DACrateClass@@8				; DACrateClass::`RTTI Base Class Array'
PUBLIC	??_R1A@?0A@EA@DACrateClass@@8			; DACrateClass::`RTTI Base Class Descriptor at (0,-1,0,64)'
PUBLIC	??_R4DACrateFactoryClass@@6B@			; DACrateFactoryClass::`RTTI Complete Object Locator'
PUBLIC	??_R0?AVDACrateFactoryClass@@@8			; DACrateFactoryClass `RTTI Type Descriptor'
PUBLIC	??_R3DACrateFactoryClass@@8			; DACrateFactoryClass::`RTTI Class Hierarchy Descriptor'
PUBLIC	??_R2DACrateFactoryClass@@8			; DACrateFactoryClass::`RTTI Base Class Array'
PUBLIC	??_R1A@?0A@EA@DACrateFactoryClass@@8		; DACrateFactoryClass::`RTTI Base Class Descriptor at (0,-1,0,64)'
PUBLIC	??_R4?$DynamicVectorClass@PAVDACrateModifierClass@@@@6B@ ; DynamicVectorClass<DACrateModifierClass *>::`RTTI Complete Object Locator'
PUBLIC	??_R0?AV?$DynamicVectorClass@PAVDACrateModifierClass@@@@@8 ; DynamicVectorClass<DACrateModifierClass *> `RTTI Type Descriptor'
PUBLIC	??_R3?$DynamicVectorClass@PAVDACrateModifierClass@@@@8 ; DynamicVectorClass<DACrateModifierClass *>::`RTTI Class Hierarchy Descriptor'
PUBLIC	??_R2?$DynamicVectorClass@PAVDACrateModifierClass@@@@8 ; DynamicVectorClass<DACrateModifierClass *>::`RTTI Base Class Array'
PUBLIC	??_R1A@?0A@EA@?$DynamicVectorClass@PAVDACrateModifierClass@@@@8 ; DynamicVectorClass<DACrateModifierClass *>::`RTTI Base Class Descriptor at (0,-1,0,64)'
PUBLIC	??_R1A@?0A@EA@?$VectorClass@PAVDACrateModifierClass@@@@8 ; VectorClass<DACrateModifierClass *>::`RTTI Base Class Descriptor at (0,-1,0,64)'
PUBLIC	??_R0?AV?$VectorClass@PAVDACrateModifierClass@@@@@8 ; VectorClass<DACrateModifierClass *> `RTTI Type Descriptor'
PUBLIC	??_R3?$VectorClass@PAVDACrateModifierClass@@@@8	; VectorClass<DACrateModifierClass *>::`RTTI Class Hierarchy Descriptor'
PUBLIC	??_R2?$VectorClass@PAVDACrateModifierClass@@@@8	; VectorClass<DACrateModifierClass *>::`RTTI Base Class Array'
PUBLIC	??_R4?$VectorClass@PAVDACrateModifierClass@@@@6B@ ; VectorClass<DACrateModifierClass *>::`RTTI Complete Object Locator'
PUBLIC	??_R4DAMoneyCrateClass@@6B@			; DAMoneyCrateClass::`RTTI Complete Object Locator'
PUBLIC	??_R0?AVDAMoneyCrateClass@@@8			; DAMoneyCrateClass `RTTI Type Descriptor'
PUBLIC	??_R3DAMoneyCrateClass@@8			; DAMoneyCrateClass::`RTTI Class Hierarchy Descriptor'
PUBLIC	??_R2DAMoneyCrateClass@@8			; DAMoneyCrateClass::`RTTI Base Class Array'
PUBLIC	??_R1A@?0A@EA@DAMoneyCrateClass@@8		; DAMoneyCrateClass::`RTTI Base Class Descriptor at (0,-1,0,64)'
PUBLIC	??_R4?$DACrateRegistrant@VDAMoneyCrateClass@@@@6B@ ; DACrateRegistrant<DAMoneyCrateClass>::`RTTI Complete Object Locator'
PUBLIC	??_R0?AV?$DACrateRegistrant@VDAMoneyCrateClass@@@@@8 ; DACrateRegistrant<DAMoneyCrateClass> `RTTI Type Descriptor'
PUBLIC	??_R3?$DACrateRegistrant@VDAMoneyCrateClass@@@@8 ; DACrateRegistrant<DAMoneyCrateClass>::`RTTI Class Hierarchy Descriptor'
PUBLIC	??_R2?$DACrateRegistrant@VDAMoneyCrateClass@@@@8 ; DACrateRegistrant<DAMoneyCrateClass>::`RTTI Base Class Array'
PUBLIC	??_R1A@?0A@EA@?$DACrateRegistrant@VDAMoneyCrateClass@@@@8 ; DACrateRegistrant<DAMoneyCrateClass>::`RTTI Base Class Descriptor at (0,-1,0,64)'
PUBLIC	??_R4DADeathCrateClass@@6B@			; DADeathCrateClass::`RTTI Complete Object Locator'
PUBLIC	??_R0?AVDADeathCrateClass@@@8			; DADeathCrateClass `RTTI Type Descriptor'
PUBLIC	??_R3DADeathCrateClass@@8			; DADeathCrateClass::`RTTI Class Hierarchy Descriptor'
PUBLIC	??_R2DADeathCrateClass@@8			; DADeathCrateClass::`RTTI Base Class Array'
PUBLIC	??_R1A@?0A@EA@DADeathCrateClass@@8		; DADeathCrateClass::`RTTI Base Class Descriptor at (0,-1,0,64)'
PUBLIC	??_R4?$DACrateRegistrant@VDADeathCrateClass@@@@6B@ ; DACrateRegistrant<DADeathCrateClass>::`RTTI Complete Object Locator'
PUBLIC	??_R0?AV?$DACrateRegistrant@VDADeathCrateClass@@@@@8 ; DACrateRegistrant<DADeathCrateClass> `RTTI Type Descriptor'
PUBLIC	??_R3?$DACrateRegistrant@VDADeathCrateClass@@@@8 ; DACrateRegistrant<DADeathCrateClass>::`RTTI Class Hierarchy Descriptor'
PUBLIC	??_R2?$DACrateRegistrant@VDADeathCrateClass@@@@8 ; DACrateRegistrant<DADeathCrateClass>::`RTTI Base Class Array'
PUBLIC	??_R1A@?0A@EA@?$DACrateRegistrant@VDADeathCrateClass@@@@8 ; DACrateRegistrant<DADeathCrateClass>::`RTTI Base Class Descriptor at (0,-1,0,64)'
PUBLIC	??_R4DAVeteranCrateClass@@6B@			; DAVeteranCrateClass::`RTTI Complete Object Locator'
PUBLIC	??_R0?AVDAVeteranCrateClass@@@8			; DAVeteranCrateClass `RTTI Type Descriptor'
PUBLIC	??_R3DAVeteranCrateClass@@8			; DAVeteranCrateClass::`RTTI Class Hierarchy Descriptor'
PUBLIC	??_R2DAVeteranCrateClass@@8			; DAVeteranCrateClass::`RTTI Base Class Array'
PUBLIC	??_R1A@?0A@EA@DAVeteranCrateClass@@8		; DAVeteranCrateClass::`RTTI Base Class Descriptor at (0,-1,0,64)'
PUBLIC	??_R4?$DACrateRegistrant@VDAVeteranCrateClass@@@@6B@ ; DACrateRegistrant<DAVeteranCrateClass>::`RTTI Complete Object Locator'
PUBLIC	??_R0?AV?$DACrateRegistrant@VDAVeteranCrateClass@@@@@8 ; DACrateRegistrant<DAVeteranCrateClass> `RTTI Type Descriptor'
PUBLIC	??_R3?$DACrateRegistrant@VDAVeteranCrateClass@@@@8 ; DACrateRegistrant<DAVeteranCrateClass>::`RTTI Class Hierarchy Descriptor'
PUBLIC	??_R2?$DACrateRegistrant@VDAVeteranCrateClass@@@@8 ; DACrateRegistrant<DAVeteranCrateClass>::`RTTI Base Class Array'
PUBLIC	??_R1A@?0A@EA@?$DACrateRegistrant@VDAVeteranCrateClass@@@@8 ; DACrateRegistrant<DAVeteranCrateClass>::`RTTI Base Class Descriptor at (0,-1,0,64)'
PUBLIC	??_R4DAHealthCrateClass@@6B@			; DAHealthCrateClass::`RTTI Complete Object Locator'
PUBLIC	??_R0?AVDAHealthCrateClass@@@8			; DAHealthCrateClass `RTTI Type Descriptor'
PUBLIC	??_R3DAHealthCrateClass@@8			; DAHealthCrateClass::`RTTI Class Hierarchy Descriptor'
PUBLIC	??_R2DAHealthCrateClass@@8			; DAHealthCrateClass::`RTTI Base Class Array'
PUBLIC	??_R1A@?0A@EA@DAHealthCrateClass@@8		; DAHealthCrateClass::`RTTI Base Class Descriptor at (0,-1,0,64)'
PUBLIC	??_R4?$DACrateRegistrant@VDAHealthCrateClass@@@@6B@ ; DACrateRegistrant<DAHealthCrateClass>::`RTTI Complete Object Locator'
PUBLIC	??_R0?AV?$DACrateRegistrant@VDAHealthCrateClass@@@@@8 ; DACrateRegistrant<DAHealthCrateClass> `RTTI Type Descriptor'
PUBLIC	??_R3?$DACrateRegistrant@VDAHealthCrateClass@@@@8 ; DACrateRegistrant<DAHealthCrateClass>::`RTTI Class Hierarchy Descriptor'
PUBLIC	??_R2?$DACrateRegistrant@VDAHealthCrateClass@@@@8 ; DACrateRegistrant<DAHealthCrateClass>::`RTTI Base Class Array'
PUBLIC	??_R1A@?0A@EA@?$DACrateRegistrant@VDAHealthCrateClass@@@@8 ; DACrateRegistrant<DAHealthCrateClass>::`RTTI Base Class Descriptor at (0,-1,0,64)'
PUBLIC	??_R4DAPowerCrateClass@@6BDACrateClass@@@	; DAPowerCrateClass::`RTTI Complete Object Locator'
PUBLIC	??_R0?AVDAPowerCrateClass@@@8			; DAPowerCrateClass `RTTI Type Descriptor'
PUBLIC	??_R3DAPowerCrateClass@@8			; DAPowerCrateClass::`RTTI Class Hierarchy Descriptor'
PUBLIC	??_R2DAPowerCrateClass@@8			; DAPowerCrateClass::`RTTI Base Class Array'
PUBLIC	??_R1A@?0A@EA@DAPowerCrateClass@@8		; DAPowerCrateClass::`RTTI Base Class Descriptor at (0,-1,0,64)'
PUBLIC	??_R1DE@?0A@EA@DAEventClass@@8			; DAEventClass::`RTTI Base Class Descriptor at (52,-1,0,64)'
PUBLIC	??_R4DAPowerCrateClass@@6BDAEventClass@@@	; DAPowerCrateClass::`RTTI Complete Object Locator'
PUBLIC	??_R4?$DACrateRegistrant@VDAPowerCrateClass@@@@6B@ ; DACrateRegistrant<DAPowerCrateClass>::`RTTI Complete Object Locator'
PUBLIC	??_R0?AV?$DACrateRegistrant@VDAPowerCrateClass@@@@@8 ; DACrateRegistrant<DAPowerCrateClass> `RTTI Type Descriptor'
PUBLIC	??_R3?$DACrateRegistrant@VDAPowerCrateClass@@@@8 ; DACrateRegistrant<DAPowerCrateClass>::`RTTI Class Hierarchy Descriptor'
PUBLIC	??_R2?$DACrateRegistrant@VDAPowerCrateClass@@@@8 ; DACrateRegistrant<DAPowerCrateClass>::`RTTI Base Class Array'
PUBLIC	??_R1A@?0A@EA@?$DACrateRegistrant@VDAPowerCrateClass@@@@8 ; DACrateRegistrant<DAPowerCrateClass>::`RTTI Base Class Descriptor at (0,-1,0,64)'
PUBLIC	??_R4DARegenerationCrateObserverClass@@6B@	; DARegenerationCrateObserverClass::`RTTI Complete Object Locator'
PUBLIC	??_R0?AVDARegenerationCrateObserverClass@@@8	; DARegenerationCrateObserverClass `RTTI Type Descriptor'
PUBLIC	??_R3DARegenerationCrateObserverClass@@8	; DARegenerationCrateObserverClass::`RTTI Class Hierarchy Descriptor'
PUBLIC	??_R2DARegenerationCrateObserverClass@@8	; DARegenerationCrateObserverClass::`RTTI Base Class Array'
PUBLIC	??_R1A@?0A@EA@DARegenerationCrateObserverClass@@8 ; DARegenerationCrateObserverClass::`RTTI Base Class Descriptor at (0,-1,0,64)'
PUBLIC	??_R4DARegenerationCrateClass@@6B@		; DARegenerationCrateClass::`RTTI Complete Object Locator'
PUBLIC	??_R0?AVDARegenerationCrateClass@@@8		; DARegenerationCrateClass `RTTI Type Descriptor'
PUBLIC	??_R3DARegenerationCrateClass@@8		; DARegenerationCrateClass::`RTTI Class Hierarchy Descriptor'
PUBLIC	??_R2DARegenerationCrateClass@@8		; DARegenerationCrateClass::`RTTI Base Class Array'
PUBLIC	??_R1A@?0A@EA@DARegenerationCrateClass@@8	; DARegenerationCrateClass::`RTTI Base Class Descriptor at (0,-1,0,64)'
PUBLIC	??_R4?$DACrateRegistrant@VDARegenerationCrateClass@@@@6B@ ; DACrateRegistrant<DARegenerationCrateClass>::`RTTI Complete Object Locator'
PUBLIC	??_R0?AV?$DACrateRegistrant@VDARegenerationCrateClass@@@@@8 ; DACrateRegistrant<DARegenerationCrateClass> `RTTI Type Descriptor'
PUBLIC	??_R3?$DACrateRegistrant@VDARegenerationCrateClass@@@@8 ; DACrateRegistrant<DARegenerationCrateClass>::`RTTI Class Hierarchy Descriptor'
PUBLIC	??_R2?$DACrateRegistrant@VDARegenerationCrateClass@@@@8 ; DACrateRegistrant<DARegenerationCrateClass>::`RTTI Base Class Array'
PUBLIC	??_R1A@?0A@EA@?$DACrateRegistrant@VDARegenerationCrateClass@@@@8 ; DACrateRegistrant<DARegenerationCrateClass>::`RTTI Base Class Descriptor at (0,-1,0,64)'
PUBLIC	??_R4DAIonStormCrateClass@@6BDACrateClass@@@	; DAIonStormCrateClass::`RTTI Complete Object Locator'
PUBLIC	??_R0?AVDAIonStormCrateClass@@@8		; DAIonStormCrateClass `RTTI Type Descriptor'
PUBLIC	??_R3DAIonStormCrateClass@@8			; DAIonStormCrateClass::`RTTI Class Hierarchy Descriptor'
PUBLIC	??_R2DAIonStormCrateClass@@8			; DAIonStormCrateClass::`RTTI Base Class Array'
PUBLIC	??_R1A@?0A@EA@DAIonStormCrateClass@@8		; DAIonStormCrateClass::`RTTI Base Class Descriptor at (0,-1,0,64)'
PUBLIC	??_R4DAIonStormCrateClass@@6BDAEventClass@@@	; DAIonStormCrateClass::`RTTI Complete Object Locator'
PUBLIC	??_R4?$DACrateRegistrant@VDAIonStormCrateClass@@@@6B@ ; DACrateRegistrant<DAIonStormCrateClass>::`RTTI Complete Object Locator'
PUBLIC	??_R0?AV?$DACrateRegistrant@VDAIonStormCrateClass@@@@@8 ; DACrateRegistrant<DAIonStormCrateClass> `RTTI Type Descriptor'
PUBLIC	??_R3?$DACrateRegistrant@VDAIonStormCrateClass@@@@8 ; DACrateRegistrant<DAIonStormCrateClass>::`RTTI Class Hierarchy Descriptor'
PUBLIC	??_R2?$DACrateRegistrant@VDAIonStormCrateClass@@@@8 ; DACrateRegistrant<DAIonStormCrateClass>::`RTTI Base Class Array'
PUBLIC	??_R1A@?0A@EA@?$DACrateRegistrant@VDAIonStormCrateClass@@@@8 ; DACrateRegistrant<DAIonStormCrateClass>::`RTTI Base Class Descriptor at (0,-1,0,64)'
PUBLIC	??_R4DASpyCratePassengerObserverClass@@6B@	; DASpyCratePassengerObserverClass::`RTTI Complete Object Locator'
PUBLIC	??_R0?AVDASpyCratePassengerObserverClass@@@8	; DASpyCratePassengerObserverClass `RTTI Type Descriptor'
PUBLIC	??_R3DASpyCratePassengerObserverClass@@8	; DASpyCratePassengerObserverClass::`RTTI Class Hierarchy Descriptor'
PUBLIC	??_R2DASpyCratePassengerObserverClass@@8	; DASpyCratePassengerObserverClass::`RTTI Base Class Array'
PUBLIC	??_R1A@?0A@EA@DASpyCratePassengerObserverClass@@8 ; DASpyCratePassengerObserverClass::`RTTI Base Class Descriptor at (0,-1,0,64)'
PUBLIC	??_R4DASpyCrateVehicleObserverClass@@6B@	; DASpyCrateVehicleObserverClass::`RTTI Complete Object Locator'
PUBLIC	??_R0?AVDASpyCrateVehicleObserverClass@@@8	; DASpyCrateVehicleObserverClass `RTTI Type Descriptor'
PUBLIC	??_R3DASpyCrateVehicleObserverClass@@8		; DASpyCrateVehicleObserverClass::`RTTI Class Hierarchy Descriptor'
PUBLIC	??_R2DASpyCrateVehicleObserverClass@@8		; DASpyCrateVehicleObserverClass::`RTTI Base Class Array'
PUBLIC	??_R1A@?0A@EA@DASpyCrateVehicleObserverClass@@8	; DASpyCrateVehicleObserverClass::`RTTI Base Class Descriptor at (0,-1,0,64)'
PUBLIC	??_R4DASpyCrateSoldierObserverClass@@6B@	; DASpyCrateSoldierObserverClass::`RTTI Complete Object Locator'
PUBLIC	??_R0?AVDASpyCrateSoldierObserverClass@@@8	; DASpyCrateSoldierObserverClass `RTTI Type Descriptor'
PUBLIC	??_R3DASpyCrateSoldierObserverClass@@8		; DASpyCrateSoldierObserverClass::`RTTI Class Hierarchy Descriptor'
PUBLIC	??_R2DASpyCrateSoldierObserverClass@@8		; DASpyCrateSoldierObserverClass::`RTTI Base Class Array'
PUBLIC	??_R1A@?0A@EA@DASpyCrateSoldierObserverClass@@8	; DASpyCrateSoldierObserverClass::`RTTI Base Class Descriptor at (0,-1,0,64)'
PUBLIC	??_R4DASpyCrateClass@@6B@			; DASpyCrateClass::`RTTI Complete Object Locator'
PUBLIC	??_R0?AVDASpyCrateClass@@@8			; DASpyCrateClass `RTTI Type Descriptor'
PUBLIC	??_R3DASpyCrateClass@@8				; DASpyCrateClass::`RTTI Class Hierarchy Descriptor'
PUBLIC	??_R2DASpyCrateClass@@8				; DASpyCrateClass::`RTTI Base Class Array'
PUBLIC	??_R1A@?0A@EA@DASpyCrateClass@@8		; DASpyCrateClass::`RTTI Base Class Descriptor at (0,-1,0,64)'
PUBLIC	??_R4?$DACrateRegistrant@VDASpyCrateClass@@@@6B@ ; DACrateRegistrant<DASpyCrateClass>::`RTTI Complete Object Locator'
PUBLIC	??_R0?AV?$DACrateRegistrant@VDASpyCrateClass@@@@@8 ; DACrateRegistrant<DASpyCrateClass> `RTTI Type Descriptor'
PUBLIC	??_R3?$DACrateRegistrant@VDASpyCrateClass@@@@8	; DACrateRegistrant<DASpyCrateClass>::`RTTI Class Hierarchy Descriptor'
PUBLIC	??_R2?$DACrateRegistrant@VDASpyCrateClass@@@@8	; DACrateRegistrant<DASpyCrateClass>::`RTTI Base Class Array'
PUBLIC	??_R1A@?0A@EA@?$DACrateRegistrant@VDASpyCrateClass@@@@8 ; DACrateRegistrant<DASpyCrateClass>::`RTTI Base Class Descriptor at (0,-1,0,64)'
PUBLIC	??_R4DAUAVCrateObserverClass@@6B@		; DAUAVCrateObserverClass::`RTTI Complete Object Locator'
PUBLIC	??_R0?AVDAUAVCrateObserverClass@@@8		; DAUAVCrateObserverClass `RTTI Type Descriptor'
PUBLIC	??_R3DAUAVCrateObserverClass@@8			; DAUAVCrateObserverClass::`RTTI Class Hierarchy Descriptor'
PUBLIC	??_R2DAUAVCrateObserverClass@@8			; DAUAVCrateObserverClass::`RTTI Base Class Array'
PUBLIC	??_R1A@?0A@EA@DAUAVCrateObserverClass@@8	; DAUAVCrateObserverClass::`RTTI Base Class Descriptor at (0,-1,0,64)'
PUBLIC	??_R4DAUAVCrateClass@@6BDACrateClass@@@		; DAUAVCrateClass::`RTTI Complete Object Locator'
PUBLIC	??_R0?AVDAUAVCrateClass@@@8			; DAUAVCrateClass `RTTI Type Descriptor'
PUBLIC	??_R3DAUAVCrateClass@@8				; DAUAVCrateClass::`RTTI Class Hierarchy Descriptor'
PUBLIC	??_R2DAUAVCrateClass@@8				; DAUAVCrateClass::`RTTI Base Class Array'
PUBLIC	??_R1A@?0A@EA@DAUAVCrateClass@@8		; DAUAVCrateClass::`RTTI Base Class Descriptor at (0,-1,0,64)'
PUBLIC	??_R4DAUAVCrateClass@@6BDAEventClass@@@		; DAUAVCrateClass::`RTTI Complete Object Locator'
PUBLIC	??_R4?$DACrateRegistrant@VDAUAVCrateClass@@@@6B@ ; DACrateRegistrant<DAUAVCrateClass>::`RTTI Complete Object Locator'
PUBLIC	??_R0?AV?$DACrateRegistrant@VDAUAVCrateClass@@@@@8 ; DACrateRegistrant<DAUAVCrateClass> `RTTI Type Descriptor'
PUBLIC	??_R3?$DACrateRegistrant@VDAUAVCrateClass@@@@8	; DACrateRegistrant<DAUAVCrateClass>::`RTTI Class Hierarchy Descriptor'
PUBLIC	??_R2?$DACrateRegistrant@VDAUAVCrateClass@@@@8	; DACrateRegistrant<DAUAVCrateClass>::`RTTI Base Class Array'
PUBLIC	??_R1A@?0A@EA@?$DACrateRegistrant@VDAUAVCrateClass@@@@8 ; DACrateRegistrant<DAUAVCrateClass>::`RTTI Base Class Descriptor at (0,-1,0,64)'
PUBLIC	??_R4DAKamikazeCrateObserverClass@@6B@		; DAKamikazeCrateObserverClass::`RTTI Complete Object Locator'
PUBLIC	??_R0?AVDAKamikazeCrateObserverClass@@@8	; DAKamikazeCrateObserverClass `RTTI Type Descriptor'
PUBLIC	??_R3DAKamikazeCrateObserverClass@@8		; DAKamikazeCrateObserverClass::`RTTI Class Hierarchy Descriptor'
PUBLIC	??_R2DAKamikazeCrateObserverClass@@8		; DAKamikazeCrateObserverClass::`RTTI Base Class Array'
PUBLIC	??_R1A@?0A@EA@DAKamikazeCrateObserverClass@@8	; DAKamikazeCrateObserverClass::`RTTI Base Class Descriptor at (0,-1,0,64)'
PUBLIC	??_R4DAKamikazeCrateClass@@6B@			; DAKamikazeCrateClass::`RTTI Complete Object Locator'
PUBLIC	??_R0?AVDAKamikazeCrateClass@@@8		; DAKamikazeCrateClass `RTTI Type Descriptor'
PUBLIC	??_R3DAKamikazeCrateClass@@8			; DAKamikazeCrateClass::`RTTI Class Hierarchy Descriptor'
PUBLIC	??_R2DAKamikazeCrateClass@@8			; DAKamikazeCrateClass::`RTTI Base Class Array'
PUBLIC	??_R1A@?0A@EA@DAKamikazeCrateClass@@8		; DAKamikazeCrateClass::`RTTI Base Class Descriptor at (0,-1,0,64)'
PUBLIC	??_R4?$DACrateRegistrant@VDAKamikazeCrateClass@@@@6B@ ; DACrateRegistrant<DAKamikazeCrateClass>::`RTTI Complete Object Locator'
PUBLIC	??_R0?AV?$DACrateRegistrant@VDAKamikazeCrateClass@@@@@8 ; DACrateRegistrant<DAKamikazeCrateClass> `RTTI Type Descriptor'
PUBLIC	??_R3?$DACrateRegistrant@VDAKamikazeCrateClass@@@@8 ; DACrateRegistrant<DAKamikazeCrateClass>::`RTTI Class Hierarchy Descriptor'
PUBLIC	??_R2?$DACrateRegistrant@VDAKamikazeCrateClass@@@@8 ; DACrateRegistrant<DAKamikazeCrateClass>::`RTTI Base Class Array'
PUBLIC	??_R1A@?0A@EA@?$DACrateRegistrant@VDAKamikazeCrateClass@@@@8 ; DACrateRegistrant<DAKamikazeCrateClass>::`RTTI Base Class Descriptor at (0,-1,0,64)'
PUBLIC	??_R4DASecondWindCrateObserverClass@@6B@	; DASecondWindCrateObserverClass::`RTTI Complete Object Locator'
PUBLIC	??_R0?AVDASecondWindCrateObserverClass@@@8	; DASecondWindCrateObserverClass `RTTI Type Descriptor'
PUBLIC	??_R3DASecondWindCrateObserverClass@@8		; DASecondWindCrateObserverClass::`RTTI Class Hierarchy Descriptor'
PUBLIC	??_R2DASecondWindCrateObserverClass@@8		; DASecondWindCrateObserverClass::`RTTI Base Class Array'
PUBLIC	??_R1A@?0A@EA@DASecondWindCrateObserverClass@@8	; DASecondWindCrateObserverClass::`RTTI Base Class Descriptor at (0,-1,0,64)'
PUBLIC	??_R4DASecondWindCrateClass@@6B@		; DASecondWindCrateClass::`RTTI Complete Object Locator'
PUBLIC	??_R0?AVDASecondWindCrateClass@@@8		; DASecondWindCrateClass `RTTI Type Descriptor'
PUBLIC	??_R3DASecondWindCrateClass@@8			; DASecondWindCrateClass::`RTTI Class Hierarchy Descriptor'
PUBLIC	??_R2DASecondWindCrateClass@@8			; DASecondWindCrateClass::`RTTI Base Class Array'
PUBLIC	??_R1A@?0A@EA@DASecondWindCrateClass@@8		; DASecondWindCrateClass::`RTTI Base Class Descriptor at (0,-1,0,64)'
PUBLIC	??_R4?$DACrateRegistrant@VDASecondWindCrateClass@@@@6B@ ; DACrateRegistrant<DASecondWindCrateClass>::`RTTI Complete Object Locator'
PUBLIC	??_R0?AV?$DACrateRegistrant@VDASecondWindCrateClass@@@@@8 ; DACrateRegistrant<DASecondWindCrateClass> `RTTI Type Descriptor'
PUBLIC	??_R3?$DACrateRegistrant@VDASecondWindCrateClass@@@@8 ; DACrateRegistrant<DASecondWindCrateClass>::`RTTI Class Hierarchy Descriptor'
PUBLIC	??_R2?$DACrateRegistrant@VDASecondWindCrateClass@@@@8 ; DACrateRegistrant<DASecondWindCrateClass>::`RTTI Base Class Array'
PUBLIC	??_R1A@?0A@EA@?$DACrateRegistrant@VDASecondWindCrateClass@@@@8 ; DACrateRegistrant<DASecondWindCrateClass>::`RTTI Base Class Descriptor at (0,-1,0,64)'
PUBLIC	??_R4DAStealthCrateClass@@6B@			; DAStealthCrateClass::`RTTI Complete Object Locator'
PUBLIC	??_R0?AVDAStealthCrateClass@@@8			; DAStealthCrateClass `RTTI Type Descriptor'
PUBLIC	??_R3DAStealthCrateClass@@8			; DAStealthCrateClass::`RTTI Class Hierarchy Descriptor'
PUBLIC	??_R2DAStealthCrateClass@@8			; DAStealthCrateClass::`RTTI Base Class Array'
PUBLIC	??_R1A@?0A@EA@DAStealthCrateClass@@8		; DAStealthCrateClass::`RTTI Base Class Descriptor at (0,-1,0,64)'
PUBLIC	??_R4?$DACrateRegistrant@VDAStealthCrateClass@@@@6B@ ; DACrateRegistrant<DAStealthCrateClass>::`RTTI Complete Object Locator'
PUBLIC	??_R0?AV?$DACrateRegistrant@VDAStealthCrateClass@@@@@8 ; DACrateRegistrant<DAStealthCrateClass> `RTTI Type Descriptor'
PUBLIC	??_R3?$DACrateRegistrant@VDAStealthCrateClass@@@@8 ; DACrateRegistrant<DAStealthCrateClass>::`RTTI Class Hierarchy Descriptor'
PUBLIC	??_R2?$DACrateRegistrant@VDAStealthCrateClass@@@@8 ; DACrateRegistrant<DAStealthCrateClass>::`RTTI Base Class Array'
PUBLIC	??_R1A@?0A@EA@?$DACrateRegistrant@VDAStealthCrateClass@@@@8 ; DACrateRegistrant<DAStealthCrateClass>::`RTTI Base Class Descriptor at (0,-1,0,64)'
PUBLIC	__real@00000000
PUBLIC	__real@0000000000000000
PUBLIC	__real@02081cea
PUBLIC	__real@3e800000
PUBLIC	__real@3f000000
PUBLIC	__real@3f79999a
PUBLIC	__real@3f800000
PUBLIC	__real@3f99999a
PUBLIC	__real@3fc90fdb
PUBLIC	__real@3fe0000000000000
PUBLIC	__real@3ff0000000000000
PUBLIC	__real@40000000
PUBLIC	__real@4000000000000000
PUBLIC	__real@40400000
PUBLIC	__real@40a00000
PUBLIC	__real@40c90fdb
PUBLIC	__real@40e00000
PUBLIC	__real@41200000
PUBLIC	__real@41700000
PUBLIC	__real@41b80000
PUBLIC	__real@41f00000
PUBLIC	__real@42540000
PUBLIC	__real@42700000
PUBLIC	__real@42960000
PUBLIC	__real@42b40000
PUBLIC	__real@42c80000
PUBLIC	__real@437f0000
PUBLIC	__real@43af0000
PUBLIC	__real@44000000
PUBLIC	__real@447a0000
PUBLIC	__real@44800000
PUBLIC	__real@47c34f80
PUBLIC	__real@bf800000
PUBLIC	__real@c0000000
PUBLIC	__xmm@80000000000000008000000000000000
PUBLIC	__xmm@80000000800000008000000080000000
EXTRN	__purecall:PROC
EXTRN	??2@YAPAXI@Z:PROC				; operator new
EXTRN	??3@YAXPAX@Z:PROC				; operator delete
EXTRN	_atexit:PROC
EXTRN	__imp___wassert:PROC
EXTRN	__imp__atof:PROC
EXTRN	__imp__ceil:PROC
EXTRN	__imp__atoi:PROC
EXTRN	??_V@YAXPAX@Z:PROC				; operator delete[]
EXTRN	??_U@YAPAXI@Z:PROC				; operator new[]
EXTRN	__imp__sprintf:PROC
EXTRN	__imp___stricmp:PROC
EXTRN	__imp__GetCurrentThreadId@0:PROC
EXTRN	__imp__OutputDebugStringA@4:PROC
EXTRN	?SetThreadTrackingInformation@@YAXPBDI0@Z:PROC	; SetThreadTrackingInformation
EXTRN	?Random_Float@WWMath@@SAMXZ:PROC		; WWMath::Random_Float
EXTRN	??0ScriptImpClass@@QAE@XZ:PROC			; ScriptImpClass::ScriptImpClass
EXTRN	??1ScriptImpClass@@UAE@XZ:PROC			; ScriptImpClass::~ScriptImpClass
EXTRN	?Get_Name@ScriptImpClass@@UAEPBDXZ:PROC		; ScriptImpClass::Get_Name
EXTRN	?Set_Parameters_String@ScriptImpClass@@UAEXPBD@Z:PROC ; ScriptImpClass::Set_Parameters_String
EXTRN	?Get_Parameters_String@ScriptImpClass@@UAEXPADI@Z:PROC ; ScriptImpClass::Get_Parameters_String
EXTRN	?Get_Parameter@ScriptImpClass@@QAEPBDH@Z:PROC	; ScriptImpClass::Get_Parameter
EXTRN	?Get_Int_Parameter@ScriptImpClass@@QAEHPBD@Z:PROC ; ScriptImpClass::Get_Int_Parameter
EXTRN	?Attach@ScriptImpClass@@MAEXPAVScriptableGameObj@@@Z:PROC ; ScriptImpClass::Attach
EXTRN	?Detach@ScriptImpClass@@MAEXPAVScriptableGameObj@@@Z:PROC ; ScriptImpClass::Detach
EXTRN	?Save@ScriptImpClass@@MAEXAAVScriptSaver@@@Z:PROC ; ScriptImpClass::Save
EXTRN	?Load@ScriptImpClass@@MAEXAAVScriptLoader@@@Z:PROC ; ScriptImpClass::Load
EXTRN	??1ScriptFactory@@UAE@XZ:PROC			; ScriptFactory::~ScriptFactory
EXTRN	??1ThreadClass@@UAE@XZ:PROC			; ThreadClass::~ThreadClass
EXTRN	__imp_?Format@StringClass@@QAAHPBDZZ:PROC
EXTRN	__imp_?Get_String@StringClass@@AAEXH_N@Z:PROC
EXTRN	__imp_?Uninitialised_Grow@StringClass@@AAEXH@Z:PROC
EXTRN	__imp_?Free_String@StringClass@@AAEXXZ:PROC
EXTRN	__imp_?Free_String@WideStringClass@@AAEXXZ:PROC
EXTRN	?Find_Entry@INIClass@@QBEPAUINIEntry@@PBD0@Z:PROC ; INIClass::Find_Entry
EXTRN	?Find_Section@INIClass@@QBEPAUINISection@@PBD@Z:PROC ; INIClass::Find_Section
EXTRN	??1INIClass@@UAE@XZ:PROC			; INIClass::~INIClass
EXTRN	?Find_Named_Definition@@YAPAVDefinitionClass@@PBD@Z:PROC ; Find_Named_Definition
EXTRN	?Set@Matrix3D@@QAEXABVMatrix3@@ABVVector3@@@Z:PROC ; Matrix3D::Set
EXTRN	?Set@Matrix3D@@QAEXABVQuaternion@@ABVVector3@@@Z:PROC ; Matrix3D::Set
EXTRN	?Set@Matrix3@@QAEXABVQuaternion@@@Z:PROC	; Matrix3::Set
EXTRN	?Find_Base@BaseControllerClass@@SAPAV1@H@Z:PROC	; BaseControllerClass::Find_Base
EXTRN	?Enable_Radar@BaseControllerClass@@QAEX_N@Z:PROC ; BaseControllerClass::Enable_Radar
EXTRN	?Check_Radar@BaseControllerClass@@QAEXXZ:PROC	; BaseControllerClass::Check_Radar
EXTRN	?Get@SysTimeClass@@QAEIXZ:PROC			; SysTimeClass::Get
EXTRN	?Get_Entry@GenericDataSafeClass@@SAPAVDataSafeEntryClass@@VDataSafeHandleClass@@@Z:PROC ; GenericDataSafeClass::Get_Entry
EXTRN	?Shuffle@GenericDataSafeClass@@KAX_N@Z:PROC	; GenericDataSafeClass::Shuffle
EXTRN	?Mem_Copy_Decrypt@GenericDataSafeClass@@KAXPAX0H_N@Z:PROC ; GenericDataSafeClass::Mem_Copy_Decrypt
EXTRN	?Say_Security_Fault@GenericDataSafeClass@@KAXXZ:PROC ; GenericDataSafeClass::Say_Security_Fault
EXTRN	??1ReferencerClass@@UAE@XZ:PROC			; ReferencerClass::~ReferencerClass
EXTRN	?On_Post_Load@ReferencerClass@@UAEXXZ:PROC	; ReferencerClass::On_Post_Load
EXTRN	??4ReferencerClass@@QAEAAV0@PAVScriptableGameObj@@@Z:PROC ; ReferencerClass::operator=
EXTRN	??4ReferencerClass@@QAEAAV0@ABV0@@Z:PROC	; ReferencerClass::operator=
EXTRN	??BReferencerClass@@QBEPAVScriptableGameObj@@XZ:PROC ; ReferencerClass::operator ScriptableGameObj *
EXTRN	?Add_Observer@ScriptableGameObj@@QAEXPAVGameObjObserverClass@@@Z:PROC ; ScriptableGameObj::Add_Observer
EXTRN	?Remove_Observer@ScriptableGameObj@@QAEXPBD@Z:PROC ; ScriptableGameObj::Remove_Observer
EXTRN	?Find_Observer@ScriptableGameObj@@QAEPAVGameObjObserverClass@@PBD@Z:PROC ; ScriptableGameObj::Find_Observer
EXTRN	?Set_Health@DefenseObjectClass@@QAEXM@Z:PROC	; DefenseObjectClass::Set_Health
EXTRN	?Add_Health@DefenseObjectClass@@QAEXM@Z:PROC	; DefenseObjectClass::Add_Health
EXTRN	?Get_Health@DefenseObjectClass@@QBEMXZ:PROC	; DefenseObjectClass::Get_Health
EXTRN	?Set_Health_Max@DefenseObjectClass@@QAEXM@Z:PROC ; DefenseObjectClass::Set_Health_Max
EXTRN	?Get_Health_Max@DefenseObjectClass@@QBEMXZ:PROC	; DefenseObjectClass::Get_Health_Max
EXTRN	?Set_Shield_Strength@DefenseObjectClass@@QAEXM@Z:PROC ; DefenseObjectClass::Set_Shield_Strength
EXTRN	?Add_Shield_Strength@DefenseObjectClass@@QAEXM@Z:PROC ; DefenseObjectClass::Add_Shield_Strength
EXTRN	?Get_Shield_Strength@DefenseObjectClass@@QBEMXZ:PROC ; DefenseObjectClass::Get_Shield_Strength
EXTRN	?Set_Shield_Strength_Max@DefenseObjectClass@@QAEXM@Z:PROC ; DefenseObjectClass::Set_Shield_Strength_Max
EXTRN	?Get_Shield_Strength_Max@DefenseObjectClass@@QBEMXZ:PROC ; DefenseObjectClass::Get_Shield_Strength_Max
EXTRN	?Set@LineSegClass@@QAEXABV1@ABVMatrix3D@@@Z:PROC ; LineSegClass::Set
EXTRN	?Is_Stealth_Enabled@SmartGameObj@@QAE_NXZ:PROC	; SmartGameObj::Is_Stealth_Enabled
EXTRN	?Is_Stealthed@SmartGameObj@@QBE_NXZ:PROC	; SmartGameObj::Is_Stealthed
EXTRN	?Find_Base_Defense@@YAPAVScriptableGameObj@@H@Z:PROC ; Find_Base_Defense
EXTRN	?The_Game@@YAPAVcGameData@@XZ:PROC		; The_Game
EXTRN	?Find_Power_Plant@@YAPAVScriptableGameObj@@H@Z:PROC ; Find_Power_Plant
EXTRN	?Find_Refinery@@YAPAVScriptableGameObj@@H@Z:PROC ; Find_Refinery
EXTRN	?Get_Wide_Team_Name@@YAPB_WH@Z:PROC		; Get_Wide_Team_Name
EXTRN	?Damage_All_Objects_Area@@YAXMPBDABVVector3@@MPAVScriptableGameObj@@2@Z:PROC ; Damage_All_Objects_Area
EXTRN	?Detach@JFW_Key_Hook_Base@@UAEXPAVScriptableGameObj@@@Z:PROC ; JFW_Key_Hook_Base::Detach
EXTRN	?Destroyed@JFW_Key_Hook_Base@@UAEXPAVScriptableGameObj@@@Z:PROC ; JFW_Key_Hook_Base::Destroyed
EXTRN	??1JFW_Key_Hook_Base@@UAE@XZ:PROC		; JFW_Key_Hook_Base::~JFW_Key_Hook_Base
EXTRN	?Detach@MultiKeyHookScriptImpClass@@UAEXPAVScriptableGameObj@@@Z:PROC ; MultiKeyHookScriptImpClass::Detach
EXTRN	?Destroyed@MultiKeyHookScriptImpClass@@UAEXPAVScriptableGameObj@@@Z:PROC ; MultiKeyHookScriptImpClass::Destroyed
EXTRN	??_E?$SList@UKeyHookWrapperStruct@MultiKeyHookScriptImpClass@@@@UAEPAXI@Z:PROC ; SList<MultiKeyHookScriptImpClass::KeyHookWrapperStruct>::`vector deleting destructor'
EXTRN	?Detach@JFW_Object_Created_Hook_Base@@UAEXPAVScriptableGameObj@@@Z:PROC ; JFW_Object_Created_Hook_Base::Detach
EXTRN	?Created@JFW_Object_Created_Hook_Base@@UAEXPAVScriptableGameObj@@@Z:PROC ; JFW_Object_Created_Hook_Base::Created
EXTRN	??1JFW_Object_Created_Hook_Base@@UAE@XZ:PROC	; JFW_Object_Created_Hook_Base::~JFW_Object_Created_Hook_Base
EXTRN	?Get_Definition@BuildingGameObj@@QBEABVBuildingGameObjDef@@XZ:PROC ; BuildingGameObj::Get_Definition
EXTRN	?Re_Init@SoldierGameObj@@QAEXABVSoldierGameObjDef@@@Z:PROC ; SoldierGameObj::Re_Init
EXTRN	?Get_Definition@VehicleGameObj@@QBEABVVehicleGameObjDef@@XZ:PROC ; VehicleGameObj::Get_Definition
EXTRN	?RxDMap@@YA_NXZ:PROC				; RxDMap
EXTRN	?Check_Stealth_ICON@@YAXHPBDH@Z:PROC		; Check_Stealth_ICON
EXTRN	?Send_Message_Player_By_ID@@YAXHIIIPBD@Z:PROC	; Send_Message_Player_By_ID
EXTRN	?Create_2D_WAV_Sound_Player_By_ID@@YAXHPBD@Z:PROC ; Create_2D_WAV_Sound_Player_By_ID
EXTRN	?Create_Object@@YAPAVPhysicalGameObj@@PBDABVVector3@@@Z:PROC ; Create_Object
EXTRN	?Enable_HUD@@YAX_N@Z:PROC			; Enable_HUD
EXTRN	?Enable_HUD_Player_By_ID@@YAXH_N@Z:PROC		; Enable_HUD_Player_By_ID
EXTRN	?Set_Fog_Enable_Player_By_ID@@YAXH_N@Z:PROC	; Set_Fog_Enable_Player_By_ID
EXTRN	?Set_Fog_Range_Player_By_ID@@YAXHMMM@Z:PROC	; Set_Fog_Range_Player_By_ID
EXTRN	?Reverse_Damage@@YAXPAVScriptableGameObj@@M@Z:PROC ; Reverse_Damage
EXTRN	?Host_Message@DA@@SAXPBDZZ:PROC			; DA::Host_Message
EXTRN	?Page_Player@DA@@SAXPAVcPlayer@@PBDZZ:PROC	; DA::Page_Player
EXTRN	?Get_Random_Int@@YAHHH@Z:PROC			; Get_Random_Int
EXTRN	?Get_Random_Float@@YAMMM@Z:PROC			; Get_Random_Float
EXTRN	?Register_Event@DAEventManager@@SAXPAVDAEventClass@@W4Type@DAEvent@@H@Z:PROC ; DAEventManager::Register_Event
EXTRN	?Unregister_Event@DAEventManager@@SAXPAVDAEventClass@@W4Type@DAEvent@@@Z:PROC ; DAEventManager::Unregister_Event
EXTRN	?Clear_Events@DAEventManager@@SAXPAVDAEventClass@@@Z:PROC ; DAEventManager::Clear_Events
EXTRN	?Register_Object_Event@DAEventManager@@SAXPAVDAEventClass@@W4Type@DAObjectEvent@@W4ObjectType@4@H@Z:PROC ; DAEventManager::Register_Object_Event
EXTRN	?Unregister_Object_Event@DAEventManager@@SAXPAVDAEventClass@@W4Type@DAObjectEvent@@@Z:PROC ; DAEventManager::Unregister_Object_Event
EXTRN	?Clear_Object_Events@DAEventManager@@SAXPAVDAEventClass@@@Z:PROC ; DAEventManager::Clear_Object_Events
EXTRN	?Start_Timer@DAEventManager@@SAXPAVDAEventClass@@HM_NI@Z:PROC ; DAEventManager::Start_Timer
EXTRN	?Stop_Timer@DAEventManager@@SAXPAVDAEventClass@@HI@Z:PROC ; DAEventManager::Stop_Timer
EXTRN	?Is_Timer@DAEventManager@@SA_NPAVDAEventClass@@HI@Z:PROC ; DAEventManager::Is_Timer
EXTRN	?Clear_Timers@DAEventManager@@SAXPAVDAEventClass@@@Z:PROC ; DAEventManager::Clear_Timers
EXTRN	?Clear_Chat_Commands@DAEventClass@@QAEXXZ:PROC	; DAEventClass::Clear_Chat_Commands
EXTRN	?Clear_Key_Hooks@DAEventClass@@QAEXXZ:PROC	; DAEventClass::Clear_Key_Hooks
EXTRN	?Start_Timer@DAGameObjObserverClass@@QAEXHM@Z:PROC ; DAGameObjObserverClass::Start_Timer
EXTRN	?Set_Delete_Pending@DAGameObjObserverClass@@QAEXXZ:PROC ; DAGameObjObserverClass::Set_Delete_Pending
EXTRN	?Owner@DAGameObjObserverClass@@EAEPAVScriptableGameObj@@XZ:PROC ; DAGameObjObserverClass::Owner
EXTRN	?Attach@DAGameObjObserverClass@@EAEXPAVScriptableGameObj@@@Z:PROC ; DAGameObjObserverClass::Attach
EXTRN	?Detach@DAGameObjObserverClass@@EAEXPAVScriptableGameObj@@@Z:PROC ; DAGameObjObserverClass::Detach
EXTRN	?Set_GameObj_Delete_Pending@DAGameObjManager@@SAXPAVScriptableGameObj@@@Z:PROC ; DAGameObjManager::Set_GameObj_Delete_Pending
EXTRN	?Add_Observer@DAPlayerClass@@QAEXPAVDAPlayerObserverClass@@@Z:PROC ; DAPlayerClass::Add_Observer
EXTRN	?Find_Observer@DAPlayerClass@@QAEPAVDAPlayerObserverClass@@PBD@Z:PROC ; DAPlayerClass::Find_Observer
EXTRN	?Get_Observers@DAPlayerClass@@QAEABV?$DynamicVectorClass@PAVDAPlayerObserverClass@@@@XZ:PROC ; DAPlayerClass::Get_Observers
EXTRN	??_E?$VectorClass@PAVDAPlayerObserverClass@@@@UAEPAXI@Z:PROC ; VectorClass<DAPlayerObserverClass *>::`vector deleting destructor'
EXTRN	??_E?$DynamicVectorClass@PAVDAPlayerObserverClass@@@@UAEPAXI@Z:PROC ; DynamicVectorClass<DAPlayerObserverClass *>::`vector deleting destructor'
EXTRN	??_E?$VectorClass@PAVDAPlayerDataClass@@@@UAEPAXI@Z:PROC ; VectorClass<DAPlayerDataClass *>::`vector deleting destructor'
EXTRN	??_E?$DynamicVectorClass@PAVDAPlayerDataClass@@@@UAEPAXI@Z:PROC ; DynamicVectorClass<DAPlayerDataClass *>::`vector deleting destructor'
EXTRN	??_E?$VectorClass@PAUDAPlayerTagStruct@DAPlayerClass@@@@UAEPAXI@Z:PROC ; VectorClass<DAPlayerClass::DAPlayerTagStruct *>::`vector deleting destructor'
EXTRN	??_E?$DynamicVectorClass@PAUDAPlayerTagStruct@DAPlayerClass@@@@UAEPAXI@Z:PROC ; DynamicVectorClass<DAPlayerClass::DAPlayerTagStruct *>::`vector deleting destructor'
EXTRN	?Start_Timer@DAPlayerObserverClass@@QAEXHM_NI@Z:PROC ; DAPlayerObserverClass::Start_Timer
EXTRN	?Clear_Timers@DAPlayerObserverClass@@QAEXXZ:PROC ; DAPlayerObserverClass::Clear_Timers
EXTRN	?Clear_Chat_Commands@DAPlayerObserverClass@@QAEXXZ:PROC ; DAPlayerObserverClass::Clear_Chat_Commands
EXTRN	?Clear_Key_Hooks@DAPlayerObserverClass@@QAEXXZ:PROC ; DAPlayerObserverClass::Clear_Key_Hooks
EXTRN	??_E?$VectorClass@PAUDAPlayerObserverTimerStruct@@@@UAEPAXI@Z:PROC ; VectorClass<DAPlayerObserverTimerStruct *>::`vector deleting destructor'
EXTRN	??_E?$DynamicVectorClass@PAUDAPlayerObserverTimerStruct@@@@UAEPAXI@Z:PROC ; DynamicVectorClass<DAPlayerObserverTimerStruct *>::`vector deleting destructor'
EXTRN	??_E?$VectorClass@PAUDAPlayerObserverChatCommandStruct@@@@UAEPAXI@Z:PROC ; VectorClass<DAPlayerObserverChatCommandStruct *>::`vector deleting destructor'
EXTRN	??_E?$DynamicVectorClass@PAUDAPlayerObserverChatCommandStruct@@@@UAEPAXI@Z:PROC ; DynamicVectorClass<DAPlayerObserverChatCommandStruct *>::`vector deleting destructor'
EXTRN	??_E?$VectorClass@PAUDAPlayerObserverKeyHookStruct@@@@UAEPAXI@Z:PROC ; VectorClass<DAPlayerObserverKeyHookStruct *>::`vector deleting destructor'
EXTRN	??_E?$DynamicVectorClass@PAUDAPlayerObserverKeyHookStruct@@@@UAEPAXI@Z:PROC ; DynamicVectorClass<DAPlayerObserverKeyHookStruct *>::`vector deleting destructor'
EXTRN	?Init@DACrateModifierClass@@UAEXPBD@Z:PROC	; DACrateModifierClass::Init
EXTRN	??0DACrateFactoryClass@@QAE@PBDW4Type@DACrateType@@@Z:PROC ; DACrateFactoryClass::DACrateFactoryClass
EXTRN	??_EDACrateFactoryClass@@UAEPAXI@Z:PROC		; DACrateFactoryClass::`vector deleting destructor'
EXTRN	?Init@DACrateClass@@UAEXXZ:PROC			; DACrateClass::Init
EXTRN	?Settings_Loaded@DACrateClass@@UAEXXZ:PROC	; DACrateClass::Settings_Loaded
EXTRN	?Calculate_Odds@DACrateClass@@UAEXPAVcPlayer@@@Z:PROC ; DACrateClass::Calculate_Odds
EXTRN	??_E?$VectorClass@PAVDACrateModifierClass@@@@UAEPAXI@Z:PROC ; VectorClass<DACrateModifierClass *>::`vector deleting destructor'
EXTRN	??_E?$DynamicVectorClass@PAVDACrateModifierClass@@@@UAEPAXI@Z:PROC ; DynamicVectorClass<DACrateModifierClass *>::`vector deleting destructor'
EXTRN	?Translate@DATranslationManager@@SAPBDPAVScriptableGameObj@@@Z:PROC ; DATranslationManager::Translate
EXTRN	?Translate_With_Team_Name@DATranslationManager@@SA?AVStringClass@@PAVScriptableGameObj@@@Z:PROC ; DATranslationManager::Translate_With_Team_Name
EXTRN	?Get_Vehicle_Owner@DAVehicleManager@@SAPAVcPlayer@@PAVScriptableGameObj@@@Z:PROC ; DAVehicleManager::Get_Vehicle_Owner
EXTRN	??_EDAMoneyCrateClass@@UAEPAXI@Z:PROC		; DAMoneyCrateClass::`vector deleting destructor'
EXTRN	??_E?$DACrateRegistrant@VDAMoneyCrateClass@@@@UAEPAXI@Z:PROC ; DACrateRegistrant<DAMoneyCrateClass>::`vector deleting destructor'
EXTRN	??_EDADeathCrateClass@@UAEPAXI@Z:PROC		; DADeathCrateClass::`vector deleting destructor'
EXTRN	??_E?$DACrateRegistrant@VDADeathCrateClass@@@@UAEPAXI@Z:PROC ; DACrateRegistrant<DADeathCrateClass>::`vector deleting destructor'
EXTRN	??_EDAVeteranCrateClass@@UAEPAXI@Z:PROC		; DAVeteranCrateClass::`vector deleting destructor'
EXTRN	??_E?$DACrateRegistrant@VDAVeteranCrateClass@@@@UAEPAXI@Z:PROC ; DACrateRegistrant<DAVeteranCrateClass>::`vector deleting destructor'
EXTRN	??_EDAHealthCrateClass@@UAEPAXI@Z:PROC		; DAHealthCrateClass::`vector deleting destructor'
EXTRN	??_E?$DACrateRegistrant@VDAHealthCrateClass@@@@UAEPAXI@Z:PROC ; DACrateRegistrant<DAHealthCrateClass>::`vector deleting destructor'
EXTRN	??_EDAPowerCrateClass@@UAEPAXI@Z:PROC		; DAPowerCrateClass::`vector deleting destructor'
EXTRN	??_E?$DACrateRegistrant@VDAPowerCrateClass@@@@UAEPAXI@Z:PROC ; DACrateRegistrant<DAPowerCrateClass>::`vector deleting destructor'
EXTRN	??_EDARegenerationCrateObserverClass@@UAEPAXI@Z:PROC ; DARegenerationCrateObserverClass::`vector deleting destructor'
EXTRN	??_EDARegenerationCrateClass@@UAEPAXI@Z:PROC	; DARegenerationCrateClass::`vector deleting destructor'
EXTRN	??_E?$DACrateRegistrant@VDARegenerationCrateClass@@@@UAEPAXI@Z:PROC ; DACrateRegistrant<DARegenerationCrateClass>::`vector deleting destructor'
EXTRN	??_EDAIonStormCrateClass@@UAEPAXI@Z:PROC	; DAIonStormCrateClass::`vector deleting destructor'
EXTRN	??_E?$DACrateRegistrant@VDAIonStormCrateClass@@@@UAEPAXI@Z:PROC ; DACrateRegistrant<DAIonStormCrateClass>::`vector deleting destructor'
EXTRN	??_EDASpyCratePassengerObserverClass@@UAEPAXI@Z:PROC ; DASpyCratePassengerObserverClass::`vector deleting destructor'
EXTRN	??_EDASpyCrateVehicleObserverClass@@EAEPAXI@Z:PROC ; DASpyCrateVehicleObserverClass::`vector deleting destructor'
EXTRN	??_EDASpyCrateSoldierObserverClass@@EAEPAXI@Z:PROC ; DASpyCrateSoldierObserverClass::`vector deleting destructor'
EXTRN	??_EDASpyCrateClass@@UAEPAXI@Z:PROC		; DASpyCrateClass::`vector deleting destructor'
EXTRN	??_E?$DACrateRegistrant@VDASpyCrateClass@@@@UAEPAXI@Z:PROC ; DACrateRegistrant<DASpyCrateClass>::`vector deleting destructor'
EXTRN	??_EDAUAVCrateObserverClass@@UAEPAXI@Z:PROC	; DAUAVCrateObserverClass::`vector deleting destructor'
EXTRN	??_EDAUAVCrateClass@@UAEPAXI@Z:PROC		; DAUAVCrateClass::`vector deleting destructor'
EXTRN	??_E?$DACrateRegistrant@VDAUAVCrateClass@@@@UAEPAXI@Z:PROC ; DACrateRegistrant<DAUAVCrateClass>::`vector deleting destructor'
EXTRN	??_EDAKamikazeCrateObserverClass@@UAEPAXI@Z:PROC ; DAKamikazeCrateObserverClass::`vector deleting destructor'
EXTRN	??_EDAKamikazeCrateClass@@UAEPAXI@Z:PROC	; DAKamikazeCrateClass::`vector deleting destructor'
EXTRN	??_E?$DACrateRegistrant@VDAKamikazeCrateClass@@@@UAEPAXI@Z:PROC ; DACrateRegistrant<DAKamikazeCrateClass>::`vector deleting destructor'
EXTRN	??_EDASecondWindCrateObserverClass@@UAEPAXI@Z:PROC ; DASecondWindCrateObserverClass::`vector deleting destructor'
EXTRN	??_EDASecondWindCrateClass@@UAEPAXI@Z:PROC	; DASecondWindCrateClass::`vector deleting destructor'
EXTRN	??_E?$DACrateRegistrant@VDASecondWindCrateClass@@@@UAEPAXI@Z:PROC ; DACrateRegistrant<DASecondWindCrateClass>::`vector deleting destructor'
EXTRN	??_EDAStealthCrateClass@@UAEPAXI@Z:PROC		; DAStealthCrateClass::`vector deleting destructor'
EXTRN	??_E?$DACrateRegistrant@VDAStealthCrateClass@@@@UAEPAXI@Z:PROC ; DACrateRegistrant<DAStealthCrateClass>::`vector deleting destructor'
EXTRN	__CIatan2:PROC
EXTRN	__libm_sse2_acos_precise:PROC
EXTRN	__libm_sse2_asin_precise:PROC
EXTRN	__libm_sse2_atan_precise:PROC
EXTRN	__libm_sse2_cos_precise:PROC
EXTRN	__libm_sse2_sin_precise:PROC
EXTRN	__libm_sse2_sqrt_precise:PROC
EXTRN	__libm_sse2_tan_precise:PROC
EXTRN	_floor:PROC
EXTRN	_memcpy:PROC
EXTRN	??_7type_info@@6B@:QWORD			; type_info::`vftable'
EXTRN	?_FastAcosTable@@3AAV?$RefArrayHelper@M$0EAA@@@A:DWORD ; _FastAcosTable
EXTRN	?_FastAsinTable@@3AAV?$RefArrayHelper@M$0EAA@@@A:DWORD ; _FastAsinTable
EXTRN	?_FastSinTable@@3AAV?$RefArrayHelper@M$0EAA@@@A:DWORD ; _FastSinTable
EXTRN	?Commands@@3PAUScriptCommands@@A:DWORD		; Commands
EXTRN	__imp_?m_EmptyString@StringClass@@0AAPADA:DWORD
EXTRN	__imp_?m_NullChar@StringClass@@0AADA:DWORD
EXTRN	?SystemTime@SysTimeClass@@2AAV1@A:DWORD		; SysTimeClass::SystemTime
EXTRN	?SimpleKey@GenericDataSafeClass@@1AAKA:DWORD	; GenericDataSafeClass::SimpleKey
EXTRN	?HandleKey@GenericDataSafeClass@@1AAKA:DWORD	; GenericDataSafeClass::HandleKey
EXTRN	?NumLists@GenericDataSafeClass@@1AAHA:DWORD	; GenericDataSafeClass::NumLists
EXTRN	?Safe@GenericDataSafeClass@@1AAV?$RefArray@PAVDataSafeEntryListClass@@$0CAAA@@@A:DWORD ; GenericDataSafeClass::Safe
EXTRN	?Checksum@GenericDataSafeClass@@1AAKA:DWORD	; GenericDataSafeClass::Checksum
EXTRN	?SecurityCheckDelay@GenericDataSafeClass@@1AAKA:DWORD ; GenericDataSafeClass::SecurityCheckDelay
EXTRN	?SentinelOne@GenericDataSafeClass@@1AAVDataSafeHandleClass@@A:DWORD ; GenericDataSafeClass::SentinelOne
EXTRN	?SentinelTwo@GenericDataSafeClass@@1AAVDataSafeHandleClass@@A:DWORD ; GenericDataSafeClass::SentinelTwo
EXTRN	?CRCErrors@GenericDataSafeClass@@1AAHA:DWORD	; GenericDataSafeClass::CRCErrors
EXTRN	?ReturnList@?$DataSafeClass@H@@0AAV?$RefArray@V?$RefArray@D$03@@$07@@A:DWORD ; DataSafeClass<int>::ReturnList
EXTRN	?ReturnIndex@?$DataSafeClass@H@@0AAHA:DWORD	; DataSafeClass<int>::ReturnIndex
EXTRN	?Send_Message@@3P6AXIIIPBD@ZA:DWORD		; Send_Message
EXTRN	?GetExplosionObj@@3P6APAVScriptableGameObj@@XZA:DWORD ; GetExplosionObj
EXTRN	?SetExplosionObj@@3P6AXPAVScriptableGameObj@@@ZA:DWORD ; SetExplosionObj
EXTRN	?Create_2D_WAV_Sound_Team@@3P6AHPBDH@ZA:DWORD	; Create_2D_WAV_Sound_Team
EXTRN	?MessagePrefix@DA@@0VStringClass@@A:DWORD	; DA::MessagePrefix
EXTRN	?ConsoleFunctions@DA@@0V?$DynamicVectorClass@PAVConsoleFunctionClass@@@@A:BYTE ; DA::ConsoleFunctions
EXTRN	?BuildingGameObjList@GameObjManager@@2AAV?$SList@VBuildingGameObj@@@@A:DWORD ; GameObjManager::BuildingGameObjList
EXTRN	?SmartGameObjList@GameObjManager@@2AAV?$SList@VSmartGameObj@@@@A:DWORD ; GameObjManager::SmartGameObjList
EXTRN	__imp_?BeaconGameObjList@GameObjManager@@2V?$SList@VBeaconGameObj@@@@A:BYTE
EXTRN	__imp_?SoldierGameObjList@GameObjManager@@2V?$SList@VSoldierGameObj@@@@A:BYTE
EXTRN	__imp_?VehicleGameObjList@GameObjManager@@2V?$SList@VVehicleGameObj@@@@A:BYTE
EXTRN	?ReturnList@?$DataSafeClass@M@@0AAV?$RefArray@V?$RefArray@D$03@@$07@@A:DWORD ; DataSafeClass<float>::ReturnList
EXTRN	?ReturnIndex@?$DataSafeClass@M@@0AAHA:DWORD	; DataSafeClass<float>::ReturnIndex
EXTRN	__fltused:DWORD
;	COMDAT ?_checking@?1??Security_Check@GenericDataSafeClass@@KAXXZ@4_NA
_BSS	SEGMENT
?_checking@?1??Security_Check@GenericDataSafeClass@@KAXXZ@4_NA DB 01H DUP (?) ; `GenericDataSafeClass::Security_Check'::`2'::_checking
_BSS	ENDS
;	COMDAT ?_calls@?1??Security_Check@GenericDataSafeClass@@KAXXZ@4KA
_BSS	SEGMENT
?_calls@?1??Security_Check@GenericDataSafeClass@@KAXXZ@4KA DD 01H DUP (?) ; `GenericDataSafeClass::Security_Check'::`2'::_calls
_BSS	ENDS
_BSS	SEGMENT
?DAMoneyCrateClassRegistrant@@3V?$DACrateRegistrant@VDAMoneyCrateClass@@@@A DB 014H DUP (?) ; DAMoneyCrateClassRegistrant
?DADeathCrateClassRegistrant@@3V?$DACrateRegistrant@VDADeathCrateClass@@@@A DB 014H DUP (?) ; DADeathCrateClassRegistrant
?DAVeteranCrateClassRegistrant@@3V?$DACrateRegistrant@VDAVeteranCrateClass@@@@A DB 014H DUP (?) ; DAVeteranCrateClassRegistrant
?DAHealthCrateClassRegistrant@@3V?$DACrateRegistrant@VDAHealthCrateClass@@@@A DB 014H DUP (?) ; DAHealthCrateClassRegistrant
?DAPowerCrateClassRegistrant@@3V?$DACrateRegistrant@VDAPowerCrateClass@@@@A DB 014H DUP (?) ; DAPowerCrateClassRegistrant
?DARegenerationCrateClassRegistrant@@3V?$DACrateRegistrant@VDARegenerationCrateClass@@@@A DB 014H DUP (?) ; DARegenerationCrateClassRegistrant
?DAIonStormCrateClassRegistrant@@3V?$DACrateRegistrant@VDAIonStormCrateClass@@@@A DB 014H DUP (?) ; DAIonStormCrateClassRegistrant
?DASpyCrateClassRegistrant@@3V?$DACrateRegistrant@VDASpyCrateClass@@@@A DB 014H DUP (?) ; DASpyCrateClassRegistrant
?DAUAVCrateClassRegistrant@@3V?$DACrateRegistrant@VDAUAVCrateClass@@@@A DB 014H DUP (?) ; DAUAVCrateClassRegistrant
?DAKamikazeCrateClassRegistrant@@3V?$DACrateRegistrant@VDAKamikazeCrateClass@@@@A DB 014H DUP (?) ; DAKamikazeCrateClassRegistrant
?DASecondWindCrateClassRegistrant@@3V?$DACrateRegistrant@VDASecondWindCrateClass@@@@A DB 014H DUP (?) ; DASecondWindCrateClassRegistrant
?DAStealthCrateClassRegistrant@@3V?$DACrateRegistrant@VDAStealthCrateClass@@@@A DB 014H DUP (?) ; DAStealthCrateClassRegistrant
_BSS	ENDS
;	COMDAT ?instancex@?1??getInstance@?$Singleton@V?$ObjectPoolClass@VGenericSLNode@@$0BAA@@@@@SAAAV?$ObjectPoolClass@VGenericSLNode@@$0BAA@@@XZ@4V3@A
_BSS	SEGMENT
?instancex@?1??getInstance@?$Singleton@V?$ObjectPoolClass@VGenericSLNode@@$0BAA@@@@@SAAAV?$ObjectPoolClass@VGenericSLNode@@$0BAA@@@XZ@4V3@A DB 014H DUP (?) ; `Singleton<ObjectPoolClass<GenericSLNode,256> >::getInstance'::`2'::instancex
_BSS	ENDS
;	COMDAT ??_B?1??getInstance@?$Singleton@V?$ObjectPoolClass@VGenericSLNode@@$0BAA@@@@@SAAAV?$ObjectPoolClass@VGenericSLNode@@$0BAA@@@XZ@51
_BSS	SEGMENT
??_B?1??getInstance@?$Singleton@V?$ObjectPoolClass@VGenericSLNode@@$0BAA@@@@@SAAAV?$ObjectPoolClass@VGenericSLNode@@$0BAA@@@XZ@51 DD 01H DUP (?) ; `Singleton<ObjectPoolClass<GenericSLNode,256> >::getInstance'::`2'::`local static guard'
_BSS	ENDS
;	COMDAT ?oh_dear@?7???R?$SafeDataClass@M@@QBEAAMXZ@4MA
_BSS	SEGMENT
?oh_dear@?7???R?$SafeDataClass@M@@QBEAAMXZ@4MA DD 01H DUP (?) ; `SafeDataClass<float>::operator()'::`8'::oh_dear
_BSS	ENDS
;	COMDAT ?oh_dear@?7???R?$SafeDataClass@H@@QBEAAHXZ@4HA
_BSS	SEGMENT
?oh_dear@?7???R?$SafeDataClass@H@@QBEAAHXZ@4HA DD 01H DUP (?) ; `SafeDataClass<int>::operator()'::`8'::oh_dear
_BSS	ENDS
CRT$XCU	SEGMENT
_DAMoneyCrateClassRegistrant$initializer$ DD FLAT:??__EDAMoneyCrateClassRegistrant@@YAXXZ
CRT$XCU	ENDS
;	COMDAT __xmm@80000000800000008000000080000000
CONST	SEGMENT
__xmm@80000000800000008000000080000000 DB 00H, 00H, 00H, 080H, 00H, 00H, 00H
	DB	080H, 00H, 00H, 00H, 080H, 00H, 00H, 00H, 080H
CONST	ENDS
;	COMDAT __xmm@80000000000000008000000000000000
CONST	SEGMENT
__xmm@80000000000000008000000000000000 DB 00H, 00H, 00H, 00H, 00H, 00H, 00H
	DB	080H, 00H, 00H, 00H, 00H, 00H, 00H, 00H, 080H
CONST	ENDS
;	COMDAT __real@c0000000
CONST	SEGMENT
__real@c0000000 DD 0c0000000r			; -2
CONST	ENDS
;	COMDAT __real@bf800000
CONST	SEGMENT
__real@bf800000 DD 0bf800000r			; -1
CONST	ENDS
;	COMDAT __real@47c34f80
CONST	SEGMENT
__real@47c34f80 DD 047c34f80r			; 99999
CONST	ENDS
;	COMDAT __real@44800000
CONST	SEGMENT
__real@44800000 DD 044800000r			; 1024
CONST	ENDS
;	COMDAT __real@447a0000
CONST	SEGMENT
__real@447a0000 DD 0447a0000r			; 1000
CONST	ENDS
;	COMDAT __real@44000000
CONST	SEGMENT
__real@44000000 DD 044000000r			; 512
CONST	ENDS
;	COMDAT __real@43af0000
CONST	SEGMENT
__real@43af0000 DD 043af0000r			; 350
CONST	ENDS
;	COMDAT __real@437f0000
CONST	SEGMENT
__real@437f0000 DD 0437f0000r			; 255
CONST	ENDS
;	COMDAT __real@42c80000
CONST	SEGMENT
__real@42c80000 DD 042c80000r			; 100
CONST	ENDS
;	COMDAT __real@42b40000
CONST	SEGMENT
__real@42b40000 DD 042b40000r			; 90
CONST	ENDS
;	COMDAT __real@42960000
CONST	SEGMENT
__real@42960000 DD 042960000r			; 75
CONST	ENDS
;	COMDAT __real@42700000
CONST	SEGMENT
__real@42700000 DD 042700000r			; 60
CONST	ENDS
;	COMDAT __real@42540000
CONST	SEGMENT
__real@42540000 DD 042540000r			; 53
CONST	ENDS
;	COMDAT __real@41f00000
CONST	SEGMENT
__real@41f00000 DD 041f00000r			; 30
CONST	ENDS
;	COMDAT __real@41b80000
CONST	SEGMENT
__real@41b80000 DD 041b80000r			; 23
CONST	ENDS
;	COMDAT __real@41700000
CONST	SEGMENT
__real@41700000 DD 041700000r			; 15
CONST	ENDS
;	COMDAT __real@41200000
CONST	SEGMENT
__real@41200000 DD 041200000r			; 10
CONST	ENDS
;	COMDAT __real@40e00000
CONST	SEGMENT
__real@40e00000 DD 040e00000r			; 7
CONST	ENDS
;	COMDAT __real@40c90fdb
CONST	SEGMENT
__real@40c90fdb DD 040c90fdbr			; 6.28319
CONST	ENDS
;	COMDAT __real@40a00000
CONST	SEGMENT
__real@40a00000 DD 040a00000r			; 5
CONST	ENDS
;	COMDAT __real@40400000
CONST	SEGMENT
__real@40400000 DD 040400000r			; 3
CONST	ENDS
;	COMDAT __real@4000000000000000
CONST	SEGMENT
__real@4000000000000000 DQ 04000000000000000r	; 2
CONST	ENDS
;	COMDAT __real@40000000
CONST	SEGMENT
__real@40000000 DD 040000000r			; 2
CONST	ENDS
;	COMDAT __real@3ff0000000000000
CONST	SEGMENT
__real@3ff0000000000000 DQ 03ff0000000000000r	; 1
CONST	ENDS
;	COMDAT __real@3fe0000000000000
CONST	SEGMENT
__real@3fe0000000000000 DQ 03fe0000000000000r	; 0.5
CONST	ENDS
;	COMDAT __real@3fc90fdb
CONST	SEGMENT
__real@3fc90fdb DD 03fc90fdbr			; 1.5708
CONST	ENDS
;	COMDAT __real@3f99999a
CONST	SEGMENT
__real@3f99999a DD 03f99999ar			; 1.2
CONST	ENDS
;	COMDAT __real@3f800000
CONST	SEGMENT
__real@3f800000 DD 03f800000r			; 1
CONST	ENDS
;	COMDAT __real@3f79999a
CONST	SEGMENT
__real@3f79999a DD 03f79999ar			; 0.975
CONST	ENDS
;	COMDAT __real@3f000000
CONST	SEGMENT
__real@3f000000 DD 03f000000r			; 0.5
CONST	ENDS
;	COMDAT __real@3e800000
CONST	SEGMENT
__real@3e800000 DD 03e800000r			; 0.25
CONST	ENDS
;	COMDAT __real@02081cea
CONST	SEGMENT
__real@02081cea DD 002081cear			; 1e-037
CONST	ENDS
;	COMDAT __real@0000000000000000
CONST	SEGMENT
__real@0000000000000000 DQ 00000000000000000r	; 0
CONST	ENDS
;	COMDAT __real@00000000
CONST	SEGMENT
__real@00000000 DD 000000000r			; 0
CONST	ENDS
;	COMDAT ??_R1A@?0A@EA@?$DACrateRegistrant@VDAStealthCrateClass@@@@8
rdata$r	SEGMENT
??_R1A@?0A@EA@?$DACrateRegistrant@VDAStealthCrateClass@@@@8 DD FLAT:??_R0?AV?$DACrateRegistrant@VDAStealthCrateClass@@@@@8 ; DACrateRegistrant<DAStealthCrateClass>::`RTTI Base Class Descriptor at (0,-1,0,64)'
	DD	01H
	DD	00H
	DD	0ffffffffH
	DD	00H
	DD	040H
	DD	FLAT:??_R3?$DACrateRegistrant@VDAStealthCrateClass@@@@8
rdata$r	ENDS
;	COMDAT ??_R2?$DACrateRegistrant@VDAStealthCrateClass@@@@8
rdata$r	SEGMENT
??_R2?$DACrateRegistrant@VDAStealthCrateClass@@@@8 DD FLAT:??_R1A@?0A@EA@?$DACrateRegistrant@VDAStealthCrateClass@@@@8 ; DACrateRegistrant<DAStealthCrateClass>::`RTTI Base Class Array'
	DD	FLAT:??_R1A@?0A@EA@DACrateFactoryClass@@8
rdata$r	ENDS
;	COMDAT ??_R3?$DACrateRegistrant@VDAStealthCrateClass@@@@8
rdata$r	SEGMENT
??_R3?$DACrateRegistrant@VDAStealthCrateClass@@@@8 DD 00H ; DACrateRegistrant<DAStealthCrateClass>::`RTTI Class Hierarchy Descriptor'
	DD	00H
	DD	02H
	DD	FLAT:??_R2?$DACrateRegistrant@VDAStealthCrateClass@@@@8
rdata$r	ENDS
;	COMDAT ??_R0?AV?$DACrateRegistrant@VDAStealthCrateClass@@@@@8
_DATA	SEGMENT
??_R0?AV?$DACrateRegistrant@VDAStealthCrateClass@@@@@8 DD FLAT:??_7type_info@@6B@ ; DACrateRegistrant<DAStealthCrateClass> `RTTI Type Descriptor'
	DD	00H
	DB	'.?AV?$DACrateRegistrant@VDAStealthCrateClass@@@@', 00H
_DATA	ENDS
;	COMDAT ??_R4?$DACrateRegistrant@VDAStealthCrateClass@@@@6B@
rdata$r	SEGMENT
??_R4?$DACrateRegistrant@VDAStealthCrateClass@@@@6B@ DD 00H ; DACrateRegistrant<DAStealthCrateClass>::`RTTI Complete Object Locator'
	DD	00H
	DD	00H
	DD	FLAT:??_R0?AV?$DACrateRegistrant@VDAStealthCrateClass@@@@@8
	DD	FLAT:??_R3?$DACrateRegistrant@VDAStealthCrateClass@@@@8
rdata$r	ENDS
;	COMDAT ??_R1A@?0A@EA@DAStealthCrateClass@@8
rdata$r	SEGMENT
??_R1A@?0A@EA@DAStealthCrateClass@@8 DD FLAT:??_R0?AVDAStealthCrateClass@@@8 ; DAStealthCrateClass::`RTTI Base Class Descriptor at (0,-1,0,64)'
	DD	01H
	DD	00H
	DD	0ffffffffH
	DD	00H
	DD	040H
	DD	FLAT:??_R3DAStealthCrateClass@@8
rdata$r	ENDS
;	COMDAT ??_R2DAStealthCrateClass@@8
rdata$r	SEGMENT
??_R2DAStealthCrateClass@@8 DD FLAT:??_R1A@?0A@EA@DAStealthCrateClass@@8 ; DAStealthCrateClass::`RTTI Base Class Array'
	DD	FLAT:??_R1A@?0A@EA@DACrateClass@@8
rdata$r	ENDS
;	COMDAT ??_R3DAStealthCrateClass@@8
rdata$r	SEGMENT
??_R3DAStealthCrateClass@@8 DD 00H			; DAStealthCrateClass::`RTTI Class Hierarchy Descriptor'
	DD	00H
	DD	02H
	DD	FLAT:??_R2DAStealthCrateClass@@8
rdata$r	ENDS
;	COMDAT ??_R0?AVDAStealthCrateClass@@@8
_DATA	SEGMENT
??_R0?AVDAStealthCrateClass@@@8 DD FLAT:??_7type_info@@6B@ ; DAStealthCrateClass `RTTI Type Descriptor'
	DD	00H
	DB	'.?AVDAStealthCrateClass@@', 00H
_DATA	ENDS
;	COMDAT ??_R4DAStealthCrateClass@@6B@
rdata$r	SEGMENT
??_R4DAStealthCrateClass@@6B@ DD 00H			; DAStealthCrateClass::`RTTI Complete Object Locator'
	DD	00H
	DD	00H
	DD	FLAT:??_R0?AVDAStealthCrateClass@@@8
	DD	FLAT:??_R3DAStealthCrateClass@@8
rdata$r	ENDS
;	COMDAT ??_R1A@?0A@EA@?$DACrateRegistrant@VDASecondWindCrateClass@@@@8
rdata$r	SEGMENT
??_R1A@?0A@EA@?$DACrateRegistrant@VDASecondWindCrateClass@@@@8 DD FLAT:??_R0?AV?$DACrateRegistrant@VDASecondWindCrateClass@@@@@8 ; DACrateRegistrant<DASecondWindCrateClass>::`RTTI Base Class Descriptor at (0,-1,0,64)'
	DD	01H
	DD	00H
	DD	0ffffffffH
	DD	00H
	DD	040H
	DD	FLAT:??_R3?$DACrateRegistrant@VDASecondWindCrateClass@@@@8
rdata$r	ENDS
;	COMDAT ??_R2?$DACrateRegistrant@VDASecondWindCrateClass@@@@8
rdata$r	SEGMENT
??_R2?$DACrateRegistrant@VDASecondWindCrateClass@@@@8 DD FLAT:??_R1A@?0A@EA@?$DACrateRegistrant@VDASecondWindCrateClass@@@@8 ; DACrateRegistrant<DASecondWindCrateClass>::`RTTI Base Class Array'
	DD	FLAT:??_R1A@?0A@EA@DACrateFactoryClass@@8
rdata$r	ENDS
;	COMDAT ??_R3?$DACrateRegistrant@VDASecondWindCrateClass@@@@8
rdata$r	SEGMENT
??_R3?$DACrateRegistrant@VDASecondWindCrateClass@@@@8 DD 00H ; DACrateRegistrant<DASecondWindCrateClass>::`RTTI Class Hierarchy Descriptor'
	DD	00H
	DD	02H
	DD	FLAT:??_R2?$DACrateRegistrant@VDASecondWindCrateClass@@@@8
rdata$r	ENDS
;	COMDAT ??_R0?AV?$DACrateRegistrant@VDASecondWindCrateClass@@@@@8
_DATA	SEGMENT
??_R0?AV?$DACrateRegistrant@VDASecondWindCrateClass@@@@@8 DD FLAT:??_7type_info@@6B@ ; DACrateRegistrant<DASecondWindCrateClass> `RTTI Type Descriptor'
	DD	00H
	DB	'.?AV?$DACrateRegistrant@VDASecondWindCrateClass@@@@', 00H
_DATA	ENDS
;	COMDAT ??_R4?$DACrateRegistrant@VDASecondWindCrateClass@@@@6B@
rdata$r	SEGMENT
??_R4?$DACrateRegistrant@VDASecondWindCrateClass@@@@6B@ DD 00H ; DACrateRegistrant<DASecondWindCrateClass>::`RTTI Complete Object Locator'
	DD	00H
	DD	00H
	DD	FLAT:??_R0?AV?$DACrateRegistrant@VDASecondWindCrateClass@@@@@8
	DD	FLAT:??_R3?$DACrateRegistrant@VDASecondWindCrateClass@@@@8
rdata$r	ENDS
;	COMDAT ??_R1A@?0A@EA@DASecondWindCrateClass@@8
rdata$r	SEGMENT
??_R1A@?0A@EA@DASecondWindCrateClass@@8 DD FLAT:??_R0?AVDASecondWindCrateClass@@@8 ; DASecondWindCrateClass::`RTTI Base Class Descriptor at (0,-1,0,64)'
	DD	01H
	DD	00H
	DD	0ffffffffH
	DD	00H
	DD	040H
	DD	FLAT:??_R3DASecondWindCrateClass@@8
rdata$r	ENDS
;	COMDAT ??_R2DASecondWindCrateClass@@8
rdata$r	SEGMENT
??_R2DASecondWindCrateClass@@8 DD FLAT:??_R1A@?0A@EA@DASecondWindCrateClass@@8 ; DASecondWindCrateClass::`RTTI Base Class Array'
	DD	FLAT:??_R1A@?0A@EA@DACrateClass@@8
rdata$r	ENDS
;	COMDAT ??_R3DASecondWindCrateClass@@8
rdata$r	SEGMENT
??_R3DASecondWindCrateClass@@8 DD 00H			; DASecondWindCrateClass::`RTTI Class Hierarchy Descriptor'
	DD	00H
	DD	02H
	DD	FLAT:??_R2DASecondWindCrateClass@@8
rdata$r	ENDS
;	COMDAT ??_R0?AVDASecondWindCrateClass@@@8
_DATA	SEGMENT
??_R0?AVDASecondWindCrateClass@@@8 DD FLAT:??_7type_info@@6B@ ; DASecondWindCrateClass `RTTI Type Descriptor'
	DD	00H
	DB	'.?AVDASecondWindCrateClass@@', 00H
_DATA	ENDS
;	COMDAT ??_R4DASecondWindCrateClass@@6B@
rdata$r	SEGMENT
??_R4DASecondWindCrateClass@@6B@ DD 00H			; DASecondWindCrateClass::`RTTI Complete Object Locator'
	DD	00H
	DD	00H
	DD	FLAT:??_R0?AVDASecondWindCrateClass@@@8
	DD	FLAT:??_R3DASecondWindCrateClass@@8
rdata$r	ENDS
;	COMDAT ??_R1A@?0A@EA@DASecondWindCrateObserverClass@@8
rdata$r	SEGMENT
??_R1A@?0A@EA@DASecondWindCrateObserverClass@@8 DD FLAT:??_R0?AVDASecondWindCrateObserverClass@@@8 ; DASecondWindCrateObserverClass::`RTTI Base Class Descriptor at (0,-1,0,64)'
	DD	02H
	DD	00H
	DD	0ffffffffH
	DD	00H
	DD	040H
	DD	FLAT:??_R3DASecondWindCrateObserverClass@@8
rdata$r	ENDS
;	COMDAT ??_R2DASecondWindCrateObserverClass@@8
rdata$r	SEGMENT
??_R2DASecondWindCrateObserverClass@@8 DD FLAT:??_R1A@?0A@EA@DASecondWindCrateObserverClass@@8 ; DASecondWindCrateObserverClass::`RTTI Base Class Array'
	DD	FLAT:??_R1A@?0A@EA@DAGameObjObserverClass@@8
	DD	FLAT:??_R1A@?0A@EA@GameObjObserverClass@@8
rdata$r	ENDS
;	COMDAT ??_R3DASecondWindCrateObserverClass@@8
rdata$r	SEGMENT
??_R3DASecondWindCrateObserverClass@@8 DD 00H		; DASecondWindCrateObserverClass::`RTTI Class Hierarchy Descriptor'
	DD	00H
	DD	03H
	DD	FLAT:??_R2DASecondWindCrateObserverClass@@8
rdata$r	ENDS
;	COMDAT ??_R0?AVDASecondWindCrateObserverClass@@@8
_DATA	SEGMENT
??_R0?AVDASecondWindCrateObserverClass@@@8 DD FLAT:??_7type_info@@6B@ ; DASecondWindCrateObserverClass `RTTI Type Descriptor'
	DD	00H
	DB	'.?AVDASecondWindCrateObserverClass@@', 00H
_DATA	ENDS
;	COMDAT ??_R4DASecondWindCrateObserverClass@@6B@
rdata$r	SEGMENT
??_R4DASecondWindCrateObserverClass@@6B@ DD 00H		; DASecondWindCrateObserverClass::`RTTI Complete Object Locator'
	DD	00H
	DD	00H
	DD	FLAT:??_R0?AVDASecondWindCrateObserverClass@@@8
	DD	FLAT:??_R3DASecondWindCrateObserverClass@@8
rdata$r	ENDS
;	COMDAT ??_R1A@?0A@EA@?$DACrateRegistrant@VDAKamikazeCrateClass@@@@8
rdata$r	SEGMENT
??_R1A@?0A@EA@?$DACrateRegistrant@VDAKamikazeCrateClass@@@@8 DD FLAT:??_R0?AV?$DACrateRegistrant@VDAKamikazeCrateClass@@@@@8 ; DACrateRegistrant<DAKamikazeCrateClass>::`RTTI Base Class Descriptor at (0,-1,0,64)'
	DD	01H
	DD	00H
	DD	0ffffffffH
	DD	00H
	DD	040H
	DD	FLAT:??_R3?$DACrateRegistrant@VDAKamikazeCrateClass@@@@8
rdata$r	ENDS
;	COMDAT ??_R2?$DACrateRegistrant@VDAKamikazeCrateClass@@@@8
rdata$r	SEGMENT
??_R2?$DACrateRegistrant@VDAKamikazeCrateClass@@@@8 DD FLAT:??_R1A@?0A@EA@?$DACrateRegistrant@VDAKamikazeCrateClass@@@@8 ; DACrateRegistrant<DAKamikazeCrateClass>::`RTTI Base Class Array'
	DD	FLAT:??_R1A@?0A@EA@DACrateFactoryClass@@8
rdata$r	ENDS
;	COMDAT ??_R3?$DACrateRegistrant@VDAKamikazeCrateClass@@@@8
rdata$r	SEGMENT
??_R3?$DACrateRegistrant@VDAKamikazeCrateClass@@@@8 DD 00H ; DACrateRegistrant<DAKamikazeCrateClass>::`RTTI Class Hierarchy Descriptor'
	DD	00H
	DD	02H
	DD	FLAT:??_R2?$DACrateRegistrant@VDAKamikazeCrateClass@@@@8
rdata$r	ENDS
;	COMDAT ??_R0?AV?$DACrateRegistrant@VDAKamikazeCrateClass@@@@@8
_DATA	SEGMENT
??_R0?AV?$DACrateRegistrant@VDAKamikazeCrateClass@@@@@8 DD FLAT:??_7type_info@@6B@ ; DACrateRegistrant<DAKamikazeCrateClass> `RTTI Type Descriptor'
	DD	00H
	DB	'.?AV?$DACrateRegistrant@VDAKamikazeCrateClass@@@@', 00H
_DATA	ENDS
;	COMDAT ??_R4?$DACrateRegistrant@VDAKamikazeCrateClass@@@@6B@
rdata$r	SEGMENT
??_R4?$DACrateRegistrant@VDAKamikazeCrateClass@@@@6B@ DD 00H ; DACrateRegistrant<DAKamikazeCrateClass>::`RTTI Complete Object Locator'
	DD	00H
	DD	00H
	DD	FLAT:??_R0?AV?$DACrateRegistrant@VDAKamikazeCrateClass@@@@@8
	DD	FLAT:??_R3?$DACrateRegistrant@VDAKamikazeCrateClass@@@@8
rdata$r	ENDS
;	COMDAT ??_R1A@?0A@EA@DAKamikazeCrateClass@@8
rdata$r	SEGMENT
??_R1A@?0A@EA@DAKamikazeCrateClass@@8 DD FLAT:??_R0?AVDAKamikazeCrateClass@@@8 ; DAKamikazeCrateClass::`RTTI Base Class Descriptor at (0,-1,0,64)'
	DD	01H
	DD	00H
	DD	0ffffffffH
	DD	00H
	DD	040H
	DD	FLAT:??_R3DAKamikazeCrateClass@@8
rdata$r	ENDS
;	COMDAT ??_R2DAKamikazeCrateClass@@8
rdata$r	SEGMENT
??_R2DAKamikazeCrateClass@@8 DD FLAT:??_R1A@?0A@EA@DAKamikazeCrateClass@@8 ; DAKamikazeCrateClass::`RTTI Base Class Array'
	DD	FLAT:??_R1A@?0A@EA@DACrateClass@@8
rdata$r	ENDS
;	COMDAT ??_R3DAKamikazeCrateClass@@8
rdata$r	SEGMENT
??_R3DAKamikazeCrateClass@@8 DD 00H			; DAKamikazeCrateClass::`RTTI Class Hierarchy Descriptor'
	DD	00H
	DD	02H
	DD	FLAT:??_R2DAKamikazeCrateClass@@8
rdata$r	ENDS
;	COMDAT ??_R0?AVDAKamikazeCrateClass@@@8
_DATA	SEGMENT
??_R0?AVDAKamikazeCrateClass@@@8 DD FLAT:??_7type_info@@6B@ ; DAKamikazeCrateClass `RTTI Type Descriptor'
	DD	00H
	DB	'.?AVDAKamikazeCrateClass@@', 00H
_DATA	ENDS
;	COMDAT ??_R4DAKamikazeCrateClass@@6B@
rdata$r	SEGMENT
??_R4DAKamikazeCrateClass@@6B@ DD 00H			; DAKamikazeCrateClass::`RTTI Complete Object Locator'
	DD	00H
	DD	00H
	DD	FLAT:??_R0?AVDAKamikazeCrateClass@@@8
	DD	FLAT:??_R3DAKamikazeCrateClass@@8
rdata$r	ENDS
;	COMDAT ??_R1A@?0A@EA@DAKamikazeCrateObserverClass@@8
rdata$r	SEGMENT
??_R1A@?0A@EA@DAKamikazeCrateObserverClass@@8 DD FLAT:??_R0?AVDAKamikazeCrateObserverClass@@@8 ; DAKamikazeCrateObserverClass::`RTTI Base Class Descriptor at (0,-1,0,64)'
	DD	02H
	DD	00H
	DD	0ffffffffH
	DD	00H
	DD	040H
	DD	FLAT:??_R3DAKamikazeCrateObserverClass@@8
rdata$r	ENDS
;	COMDAT ??_R2DAKamikazeCrateObserverClass@@8
rdata$r	SEGMENT
??_R2DAKamikazeCrateObserverClass@@8 DD FLAT:??_R1A@?0A@EA@DAKamikazeCrateObserverClass@@8 ; DAKamikazeCrateObserverClass::`RTTI Base Class Array'
	DD	FLAT:??_R1A@?0A@EA@DAGameObjObserverClass@@8
	DD	FLAT:??_R1A@?0A@EA@GameObjObserverClass@@8
rdata$r	ENDS
;	COMDAT ??_R3DAKamikazeCrateObserverClass@@8
rdata$r	SEGMENT
??_R3DAKamikazeCrateObserverClass@@8 DD 00H		; DAKamikazeCrateObserverClass::`RTTI Class Hierarchy Descriptor'
	DD	00H
	DD	03H
	DD	FLAT:??_R2DAKamikazeCrateObserverClass@@8
rdata$r	ENDS
;	COMDAT ??_R0?AVDAKamikazeCrateObserverClass@@@8
_DATA	SEGMENT
??_R0?AVDAKamikazeCrateObserverClass@@@8 DD FLAT:??_7type_info@@6B@ ; DAKamikazeCrateObserverClass `RTTI Type Descriptor'
	DD	00H
	DB	'.?AVDAKamikazeCrateObserverClass@@', 00H
_DATA	ENDS
;	COMDAT ??_R4DAKamikazeCrateObserverClass@@6B@
rdata$r	SEGMENT
??_R4DAKamikazeCrateObserverClass@@6B@ DD 00H		; DAKamikazeCrateObserverClass::`RTTI Complete Object Locator'
	DD	00H
	DD	00H
	DD	FLAT:??_R0?AVDAKamikazeCrateObserverClass@@@8
	DD	FLAT:??_R3DAKamikazeCrateObserverClass@@8
rdata$r	ENDS
;	COMDAT ??_R1A@?0A@EA@?$DACrateRegistrant@VDAUAVCrateClass@@@@8
rdata$r	SEGMENT
??_R1A@?0A@EA@?$DACrateRegistrant@VDAUAVCrateClass@@@@8 DD FLAT:??_R0?AV?$DACrateRegistrant@VDAUAVCrateClass@@@@@8 ; DACrateRegistrant<DAUAVCrateClass>::`RTTI Base Class Descriptor at (0,-1,0,64)'
	DD	01H
	DD	00H
	DD	0ffffffffH
	DD	00H
	DD	040H
	DD	FLAT:??_R3?$DACrateRegistrant@VDAUAVCrateClass@@@@8
rdata$r	ENDS
;	COMDAT ??_R2?$DACrateRegistrant@VDAUAVCrateClass@@@@8
rdata$r	SEGMENT
??_R2?$DACrateRegistrant@VDAUAVCrateClass@@@@8 DD FLAT:??_R1A@?0A@EA@?$DACrateRegistrant@VDAUAVCrateClass@@@@8 ; DACrateRegistrant<DAUAVCrateClass>::`RTTI Base Class Array'
	DD	FLAT:??_R1A@?0A@EA@DACrateFactoryClass@@8
rdata$r	ENDS
;	COMDAT ??_R3?$DACrateRegistrant@VDAUAVCrateClass@@@@8
rdata$r	SEGMENT
??_R3?$DACrateRegistrant@VDAUAVCrateClass@@@@8 DD 00H	; DACrateRegistrant<DAUAVCrateClass>::`RTTI Class Hierarchy Descriptor'
	DD	00H
	DD	02H
	DD	FLAT:??_R2?$DACrateRegistrant@VDAUAVCrateClass@@@@8
rdata$r	ENDS
;	COMDAT ??_R0?AV?$DACrateRegistrant@VDAUAVCrateClass@@@@@8
_DATA	SEGMENT
??_R0?AV?$DACrateRegistrant@VDAUAVCrateClass@@@@@8 DD FLAT:??_7type_info@@6B@ ; DACrateRegistrant<DAUAVCrateClass> `RTTI Type Descriptor'
	DD	00H
	DB	'.?AV?$DACrateRegistrant@VDAUAVCrateClass@@@@', 00H
_DATA	ENDS
;	COMDAT ??_R4?$DACrateRegistrant@VDAUAVCrateClass@@@@6B@
rdata$r	SEGMENT
??_R4?$DACrateRegistrant@VDAUAVCrateClass@@@@6B@ DD 00H	; DACrateRegistrant<DAUAVCrateClass>::`RTTI Complete Object Locator'
	DD	00H
	DD	00H
	DD	FLAT:??_R0?AV?$DACrateRegistrant@VDAUAVCrateClass@@@@@8
	DD	FLAT:??_R3?$DACrateRegistrant@VDAUAVCrateClass@@@@8
rdata$r	ENDS
;	COMDAT ??_R4DAUAVCrateClass@@6BDAEventClass@@@
rdata$r	SEGMENT
??_R4DAUAVCrateClass@@6BDAEventClass@@@ DD 00H		; DAUAVCrateClass::`RTTI Complete Object Locator'
	DD	034H
	DD	00H
	DD	FLAT:??_R0?AVDAUAVCrateClass@@@8
	DD	FLAT:??_R3DAUAVCrateClass@@8
rdata$r	ENDS
;	COMDAT ??_R1A@?0A@EA@DAUAVCrateClass@@8
rdata$r	SEGMENT
??_R1A@?0A@EA@DAUAVCrateClass@@8 DD FLAT:??_R0?AVDAUAVCrateClass@@@8 ; DAUAVCrateClass::`RTTI Base Class Descriptor at (0,-1,0,64)'
	DD	02H
	DD	00H
	DD	0ffffffffH
	DD	00H
	DD	040H
	DD	FLAT:??_R3DAUAVCrateClass@@8
rdata$r	ENDS
;	COMDAT ??_R2DAUAVCrateClass@@8
rdata$r	SEGMENT
??_R2DAUAVCrateClass@@8 DD FLAT:??_R1A@?0A@EA@DAUAVCrateClass@@8 ; DAUAVCrateClass::`RTTI Base Class Array'
	DD	FLAT:??_R1A@?0A@EA@DACrateClass@@8
	DD	FLAT:??_R1DE@?0A@EA@DAEventClass@@8
rdata$r	ENDS
;	COMDAT ??_R3DAUAVCrateClass@@8
rdata$r	SEGMENT
??_R3DAUAVCrateClass@@8 DD 00H				; DAUAVCrateClass::`RTTI Class Hierarchy Descriptor'
	DD	01H
	DD	03H
	DD	FLAT:??_R2DAUAVCrateClass@@8
rdata$r	ENDS
;	COMDAT ??_R0?AVDAUAVCrateClass@@@8
_DATA	SEGMENT
??_R0?AVDAUAVCrateClass@@@8 DD FLAT:??_7type_info@@6B@	; DAUAVCrateClass `RTTI Type Descriptor'
	DD	00H
	DB	'.?AVDAUAVCrateClass@@', 00H
_DATA	ENDS
;	COMDAT ??_R4DAUAVCrateClass@@6BDACrateClass@@@
rdata$r	SEGMENT
??_R4DAUAVCrateClass@@6BDACrateClass@@@ DD 00H		; DAUAVCrateClass::`RTTI Complete Object Locator'
	DD	00H
	DD	00H
	DD	FLAT:??_R0?AVDAUAVCrateClass@@@8
	DD	FLAT:??_R3DAUAVCrateClass@@8
rdata$r	ENDS
;	COMDAT ??_R1A@?0A@EA@DAUAVCrateObserverClass@@8
rdata$r	SEGMENT
??_R1A@?0A@EA@DAUAVCrateObserverClass@@8 DD FLAT:??_R0?AVDAUAVCrateObserverClass@@@8 ; DAUAVCrateObserverClass::`RTTI Base Class Descriptor at (0,-1,0,64)'
	DD	02H
	DD	00H
	DD	0ffffffffH
	DD	00H
	DD	040H
	DD	FLAT:??_R3DAUAVCrateObserverClass@@8
rdata$r	ENDS
;	COMDAT ??_R2DAUAVCrateObserverClass@@8
rdata$r	SEGMENT
??_R2DAUAVCrateObserverClass@@8 DD FLAT:??_R1A@?0A@EA@DAUAVCrateObserverClass@@8 ; DAUAVCrateObserverClass::`RTTI Base Class Array'
	DD	FLAT:??_R1A@?0A@EA@DAGameObjObserverClass@@8
	DD	FLAT:??_R1A@?0A@EA@GameObjObserverClass@@8
rdata$r	ENDS
;	COMDAT ??_R3DAUAVCrateObserverClass@@8
rdata$r	SEGMENT
??_R3DAUAVCrateObserverClass@@8 DD 00H			; DAUAVCrateObserverClass::`RTTI Class Hierarchy Descriptor'
	DD	00H
	DD	03H
	DD	FLAT:??_R2DAUAVCrateObserverClass@@8
rdata$r	ENDS
;	COMDAT ??_R0?AVDAUAVCrateObserverClass@@@8
_DATA	SEGMENT
??_R0?AVDAUAVCrateObserverClass@@@8 DD FLAT:??_7type_info@@6B@ ; DAUAVCrateObserverClass `RTTI Type Descriptor'
	DD	00H
	DB	'.?AVDAUAVCrateObserverClass@@', 00H
_DATA	ENDS
;	COMDAT ??_R4DAUAVCrateObserverClass@@6B@
rdata$r	SEGMENT
??_R4DAUAVCrateObserverClass@@6B@ DD 00H		; DAUAVCrateObserverClass::`RTTI Complete Object Locator'
	DD	00H
	DD	00H
	DD	FLAT:??_R0?AVDAUAVCrateObserverClass@@@8
	DD	FLAT:??_R3DAUAVCrateObserverClass@@8
rdata$r	ENDS
;	COMDAT ??_R1A@?0A@EA@?$DACrateRegistrant@VDASpyCrateClass@@@@8
rdata$r	SEGMENT
??_R1A@?0A@EA@?$DACrateRegistrant@VDASpyCrateClass@@@@8 DD FLAT:??_R0?AV?$DACrateRegistrant@VDASpyCrateClass@@@@@8 ; DACrateRegistrant<DASpyCrateClass>::`RTTI Base Class Descriptor at (0,-1,0,64)'
	DD	01H
	DD	00H
	DD	0ffffffffH
	DD	00H
	DD	040H
	DD	FLAT:??_R3?$DACrateRegistrant@VDASpyCrateClass@@@@8
rdata$r	ENDS
;	COMDAT ??_R2?$DACrateRegistrant@VDASpyCrateClass@@@@8
rdata$r	SEGMENT
??_R2?$DACrateRegistrant@VDASpyCrateClass@@@@8 DD FLAT:??_R1A@?0A@EA@?$DACrateRegistrant@VDASpyCrateClass@@@@8 ; DACrateRegistrant<DASpyCrateClass>::`RTTI Base Class Array'
	DD	FLAT:??_R1A@?0A@EA@DACrateFactoryClass@@8
rdata$r	ENDS
;	COMDAT ??_R3?$DACrateRegistrant@VDASpyCrateClass@@@@8
rdata$r	SEGMENT
??_R3?$DACrateRegistrant@VDASpyCrateClass@@@@8 DD 00H	; DACrateRegistrant<DASpyCrateClass>::`RTTI Class Hierarchy Descriptor'
	DD	00H
	DD	02H
	DD	FLAT:??_R2?$DACrateRegistrant@VDASpyCrateClass@@@@8
rdata$r	ENDS
;	COMDAT ??_R0?AV?$DACrateRegistrant@VDASpyCrateClass@@@@@8
_DATA	SEGMENT
??_R0?AV?$DACrateRegistrant@VDASpyCrateClass@@@@@8 DD FLAT:??_7type_info@@6B@ ; DACrateRegistrant<DASpyCrateClass> `RTTI Type Descriptor'
	DD	00H
	DB	'.?AV?$DACrateRegistrant@VDASpyCrateClass@@@@', 00H
_DATA	ENDS
;	COMDAT ??_R4?$DACrateRegistrant@VDASpyCrateClass@@@@6B@
rdata$r	SEGMENT
??_R4?$DACrateRegistrant@VDASpyCrateClass@@@@6B@ DD 00H	; DACrateRegistrant<DASpyCrateClass>::`RTTI Complete Object Locator'
	DD	00H
	DD	00H
	DD	FLAT:??_R0?AV?$DACrateRegistrant@VDASpyCrateClass@@@@@8
	DD	FLAT:??_R3?$DACrateRegistrant@VDASpyCrateClass@@@@8
rdata$r	ENDS
;	COMDAT ??_R1A@?0A@EA@DASpyCrateClass@@8
rdata$r	SEGMENT
??_R1A@?0A@EA@DASpyCrateClass@@8 DD FLAT:??_R0?AVDASpyCrateClass@@@8 ; DASpyCrateClass::`RTTI Base Class Descriptor at (0,-1,0,64)'
	DD	01H
	DD	00H
	DD	0ffffffffH
	DD	00H
	DD	040H
	DD	FLAT:??_R3DASpyCrateClass@@8
rdata$r	ENDS
;	COMDAT ??_R2DASpyCrateClass@@8
rdata$r	SEGMENT
??_R2DASpyCrateClass@@8 DD FLAT:??_R1A@?0A@EA@DASpyCrateClass@@8 ; DASpyCrateClass::`RTTI Base Class Array'
	DD	FLAT:??_R1A@?0A@EA@DACrateClass@@8
rdata$r	ENDS
;	COMDAT ??_R3DASpyCrateClass@@8
rdata$r	SEGMENT
??_R3DASpyCrateClass@@8 DD 00H				; DASpyCrateClass::`RTTI Class Hierarchy Descriptor'
	DD	00H
	DD	02H
	DD	FLAT:??_R2DASpyCrateClass@@8
rdata$r	ENDS
;	COMDAT ??_R0?AVDASpyCrateClass@@@8
_DATA	SEGMENT
??_R0?AVDASpyCrateClass@@@8 DD FLAT:??_7type_info@@6B@	; DASpyCrateClass `RTTI Type Descriptor'
	DD	00H
	DB	'.?AVDASpyCrateClass@@', 00H
_DATA	ENDS
;	COMDAT ??_R4DASpyCrateClass@@6B@
rdata$r	SEGMENT
??_R4DASpyCrateClass@@6B@ DD 00H			; DASpyCrateClass::`RTTI Complete Object Locator'
	DD	00H
	DD	00H
	DD	FLAT:??_R0?AVDASpyCrateClass@@@8
	DD	FLAT:??_R3DASpyCrateClass@@8
rdata$r	ENDS
;	COMDAT ??_R1A@?0A@EA@DASpyCrateSoldierObserverClass@@8
rdata$r	SEGMENT
??_R1A@?0A@EA@DASpyCrateSoldierObserverClass@@8 DD FLAT:??_R0?AVDASpyCrateSoldierObserverClass@@@8 ; DASpyCrateSoldierObserverClass::`RTTI Base Class Descriptor at (0,-1,0,64)'
	DD	02H
	DD	00H
	DD	0ffffffffH
	DD	00H
	DD	040H
	DD	FLAT:??_R3DASpyCrateSoldierObserverClass@@8
rdata$r	ENDS
;	COMDAT ??_R2DASpyCrateSoldierObserverClass@@8
rdata$r	SEGMENT
??_R2DASpyCrateSoldierObserverClass@@8 DD FLAT:??_R1A@?0A@EA@DASpyCrateSoldierObserverClass@@8 ; DASpyCrateSoldierObserverClass::`RTTI Base Class Array'
	DD	FLAT:??_R1A@?0A@EA@DAGameObjObserverClass@@8
	DD	FLAT:??_R1A@?0A@EA@GameObjObserverClass@@8
rdata$r	ENDS
;	COMDAT ??_R3DASpyCrateSoldierObserverClass@@8
rdata$r	SEGMENT
??_R3DASpyCrateSoldierObserverClass@@8 DD 00H		; DASpyCrateSoldierObserverClass::`RTTI Class Hierarchy Descriptor'
	DD	00H
	DD	03H
	DD	FLAT:??_R2DASpyCrateSoldierObserverClass@@8
rdata$r	ENDS
;	COMDAT ??_R0?AVDASpyCrateSoldierObserverClass@@@8
_DATA	SEGMENT
??_R0?AVDASpyCrateSoldierObserverClass@@@8 DD FLAT:??_7type_info@@6B@ ; DASpyCrateSoldierObserverClass `RTTI Type Descriptor'
	DD	00H
	DB	'.?AVDASpyCrateSoldierObserverClass@@', 00H
_DATA	ENDS
;	COMDAT ??_R4DASpyCrateSoldierObserverClass@@6B@
rdata$r	SEGMENT
??_R4DASpyCrateSoldierObserverClass@@6B@ DD 00H		; DASpyCrateSoldierObserverClass::`RTTI Complete Object Locator'
	DD	00H
	DD	00H
	DD	FLAT:??_R0?AVDASpyCrateSoldierObserverClass@@@8
	DD	FLAT:??_R3DASpyCrateSoldierObserverClass@@8
rdata$r	ENDS
;	COMDAT ??_R1A@?0A@EA@DASpyCrateVehicleObserverClass@@8
rdata$r	SEGMENT
??_R1A@?0A@EA@DASpyCrateVehicleObserverClass@@8 DD FLAT:??_R0?AVDASpyCrateVehicleObserverClass@@@8 ; DASpyCrateVehicleObserverClass::`RTTI Base Class Descriptor at (0,-1,0,64)'
	DD	02H
	DD	00H
	DD	0ffffffffH
	DD	00H
	DD	040H
	DD	FLAT:??_R3DASpyCrateVehicleObserverClass@@8
rdata$r	ENDS
;	COMDAT ??_R2DASpyCrateVehicleObserverClass@@8
rdata$r	SEGMENT
??_R2DASpyCrateVehicleObserverClass@@8 DD FLAT:??_R1A@?0A@EA@DASpyCrateVehicleObserverClass@@8 ; DASpyCrateVehicleObserverClass::`RTTI Base Class Array'
	DD	FLAT:??_R1A@?0A@EA@DAGameObjObserverClass@@8
	DD	FLAT:??_R1A@?0A@EA@GameObjObserverClass@@8
rdata$r	ENDS
;	COMDAT ??_R3DASpyCrateVehicleObserverClass@@8
rdata$r	SEGMENT
??_R3DASpyCrateVehicleObserverClass@@8 DD 00H		; DASpyCrateVehicleObserverClass::`RTTI Class Hierarchy Descriptor'
	DD	00H
	DD	03H
	DD	FLAT:??_R2DASpyCrateVehicleObserverClass@@8
rdata$r	ENDS
;	COMDAT ??_R0?AVDASpyCrateVehicleObserverClass@@@8
_DATA	SEGMENT
??_R0?AVDASpyCrateVehicleObserverClass@@@8 DD FLAT:??_7type_info@@6B@ ; DASpyCrateVehicleObserverClass `RTTI Type Descriptor'
	DD	00H
	DB	'.?AVDASpyCrateVehicleObserverClass@@', 00H
_DATA	ENDS
;	COMDAT ??_R4DASpyCrateVehicleObserverClass@@6B@
rdata$r	SEGMENT
??_R4DASpyCrateVehicleObserverClass@@6B@ DD 00H		; DASpyCrateVehicleObserverClass::`RTTI Complete Object Locator'
	DD	00H
	DD	00H
	DD	FLAT:??_R0?AVDASpyCrateVehicleObserverClass@@@8
	DD	FLAT:??_R3DASpyCrateVehicleObserverClass@@8
rdata$r	ENDS
;	COMDAT ??_R1A@?0A@EA@DASpyCratePassengerObserverClass@@8
rdata$r	SEGMENT
??_R1A@?0A@EA@DASpyCratePassengerObserverClass@@8 DD FLAT:??_R0?AVDASpyCratePassengerObserverClass@@@8 ; DASpyCratePassengerObserverClass::`RTTI Base Class Descriptor at (0,-1,0,64)'
	DD	01H
	DD	00H
	DD	0ffffffffH
	DD	00H
	DD	040H
	DD	FLAT:??_R3DASpyCratePassengerObserverClass@@8
rdata$r	ENDS
;	COMDAT ??_R2DASpyCratePassengerObserverClass@@8
rdata$r	SEGMENT
??_R2DASpyCratePassengerObserverClass@@8 DD FLAT:??_R1A@?0A@EA@DASpyCratePassengerObserverClass@@8 ; DASpyCratePassengerObserverClass::`RTTI Base Class Array'
	DD	FLAT:??_R1A@?0A@EA@DAPlayerObserverClass@@8
rdata$r	ENDS
;	COMDAT ??_R3DASpyCratePassengerObserverClass@@8
rdata$r	SEGMENT
??_R3DASpyCratePassengerObserverClass@@8 DD 00H		; DASpyCratePassengerObserverClass::`RTTI Class Hierarchy Descriptor'
	DD	00H
	DD	02H
	DD	FLAT:??_R2DASpyCratePassengerObserverClass@@8
rdata$r	ENDS
;	COMDAT ??_R0?AVDASpyCratePassengerObserverClass@@@8
_DATA	SEGMENT
??_R0?AVDASpyCratePassengerObserverClass@@@8 DD FLAT:??_7type_info@@6B@ ; DASpyCratePassengerObserverClass `RTTI Type Descriptor'
	DD	00H
	DB	'.?AVDASpyCratePassengerObserverClass@@', 00H
_DATA	ENDS
;	COMDAT ??_R4DASpyCratePassengerObserverClass@@6B@
rdata$r	SEGMENT
??_R4DASpyCratePassengerObserverClass@@6B@ DD 00H	; DASpyCratePassengerObserverClass::`RTTI Complete Object Locator'
	DD	00H
	DD	00H
	DD	FLAT:??_R0?AVDASpyCratePassengerObserverClass@@@8
	DD	FLAT:??_R3DASpyCratePassengerObserverClass@@8
rdata$r	ENDS
;	COMDAT ??_R1A@?0A@EA@?$DACrateRegistrant@VDAIonStormCrateClass@@@@8
rdata$r	SEGMENT
??_R1A@?0A@EA@?$DACrateRegistrant@VDAIonStormCrateClass@@@@8 DD FLAT:??_R0?AV?$DACrateRegistrant@VDAIonStormCrateClass@@@@@8 ; DACrateRegistrant<DAIonStormCrateClass>::`RTTI Base Class Descriptor at (0,-1,0,64)'
	DD	01H
	DD	00H
	DD	0ffffffffH
	DD	00H
	DD	040H
	DD	FLAT:??_R3?$DACrateRegistrant@VDAIonStormCrateClass@@@@8
rdata$r	ENDS
;	COMDAT ??_R2?$DACrateRegistrant@VDAIonStormCrateClass@@@@8
rdata$r	SEGMENT
??_R2?$DACrateRegistrant@VDAIonStormCrateClass@@@@8 DD FLAT:??_R1A@?0A@EA@?$DACrateRegistrant@VDAIonStormCrateClass@@@@8 ; DACrateRegistrant<DAIonStormCrateClass>::`RTTI Base Class Array'
	DD	FLAT:??_R1A@?0A@EA@DACrateFactoryClass@@8
rdata$r	ENDS
;	COMDAT ??_R3?$DACrateRegistrant@VDAIonStormCrateClass@@@@8
rdata$r	SEGMENT
??_R3?$DACrateRegistrant@VDAIonStormCrateClass@@@@8 DD 00H ; DACrateRegistrant<DAIonStormCrateClass>::`RTTI Class Hierarchy Descriptor'
	DD	00H
	DD	02H
	DD	FLAT:??_R2?$DACrateRegistrant@VDAIonStormCrateClass@@@@8
rdata$r	ENDS
;	COMDAT ??_R0?AV?$DACrateRegistrant@VDAIonStormCrateClass@@@@@8
_DATA	SEGMENT
??_R0?AV?$DACrateRegistrant@VDAIonStormCrateClass@@@@@8 DD FLAT:??_7type_info@@6B@ ; DACrateRegistrant<DAIonStormCrateClass> `RTTI Type Descriptor'
	DD	00H
	DB	'.?AV?$DACrateRegistrant@VDAIonStormCrateClass@@@@', 00H
_DATA	ENDS
;	COMDAT ??_R4?$DACrateRegistrant@VDAIonStormCrateClass@@@@6B@
rdata$r	SEGMENT
??_R4?$DACrateRegistrant@VDAIonStormCrateClass@@@@6B@ DD 00H ; DACrateRegistrant<DAIonStormCrateClass>::`RTTI Complete Object Locator'
	DD	00H
	DD	00H
	DD	FLAT:??_R0?AV?$DACrateRegistrant@VDAIonStormCrateClass@@@@@8
	DD	FLAT:??_R3?$DACrateRegistrant@VDAIonStormCrateClass@@@@8
rdata$r	ENDS
;	COMDAT ??_R4DAIonStormCrateClass@@6BDAEventClass@@@
rdata$r	SEGMENT
??_R4DAIonStormCrateClass@@6BDAEventClass@@@ DD 00H	; DAIonStormCrateClass::`RTTI Complete Object Locator'
	DD	034H
	DD	00H
	DD	FLAT:??_R0?AVDAIonStormCrateClass@@@8
	DD	FLAT:??_R3DAIonStormCrateClass@@8
rdata$r	ENDS
;	COMDAT ??_R1A@?0A@EA@DAIonStormCrateClass@@8
rdata$r	SEGMENT
??_R1A@?0A@EA@DAIonStormCrateClass@@8 DD FLAT:??_R0?AVDAIonStormCrateClass@@@8 ; DAIonStormCrateClass::`RTTI Base Class Descriptor at (0,-1,0,64)'
	DD	02H
	DD	00H
	DD	0ffffffffH
	DD	00H
	DD	040H
	DD	FLAT:??_R3DAIonStormCrateClass@@8
rdata$r	ENDS
;	COMDAT ??_R2DAIonStormCrateClass@@8
rdata$r	SEGMENT
??_R2DAIonStormCrateClass@@8 DD FLAT:??_R1A@?0A@EA@DAIonStormCrateClass@@8 ; DAIonStormCrateClass::`RTTI Base Class Array'
	DD	FLAT:??_R1A@?0A@EA@DACrateClass@@8
	DD	FLAT:??_R1DE@?0A@EA@DAEventClass@@8
rdata$r	ENDS
;	COMDAT ??_R3DAIonStormCrateClass@@8
rdata$r	SEGMENT
??_R3DAIonStormCrateClass@@8 DD 00H			; DAIonStormCrateClass::`RTTI Class Hierarchy Descriptor'
	DD	01H
	DD	03H
	DD	FLAT:??_R2DAIonStormCrateClass@@8
rdata$r	ENDS
;	COMDAT ??_R0?AVDAIonStormCrateClass@@@8
_DATA	SEGMENT
??_R0?AVDAIonStormCrateClass@@@8 DD FLAT:??_7type_info@@6B@ ; DAIonStormCrateClass `RTTI Type Descriptor'
	DD	00H
	DB	'.?AVDAIonStormCrateClass@@', 00H
_DATA	ENDS
;	COMDAT ??_R4DAIonStormCrateClass@@6BDACrateClass@@@
rdata$r	SEGMENT
??_R4DAIonStormCrateClass@@6BDACrateClass@@@ DD 00H	; DAIonStormCrateClass::`RTTI Complete Object Locator'
	DD	00H
	DD	00H
	DD	FLAT:??_R0?AVDAIonStormCrateClass@@@8
	DD	FLAT:??_R3DAIonStormCrateClass@@8
rdata$r	ENDS
;	COMDAT ??_R1A@?0A@EA@?$DACrateRegistrant@VDARegenerationCrateClass@@@@8
rdata$r	SEGMENT
??_R1A@?0A@EA@?$DACrateRegistrant@VDARegenerationCrateClass@@@@8 DD FLAT:??_R0?AV?$DACrateRegistrant@VDARegenerationCrateClass@@@@@8 ; DACrateRegistrant<DARegenerationCrateClass>::`RTTI Base Class Descriptor at (0,-1,0,64)'
	DD	01H
	DD	00H
	DD	0ffffffffH
	DD	00H
	DD	040H
	DD	FLAT:??_R3?$DACrateRegistrant@VDARegenerationCrateClass@@@@8
rdata$r	ENDS
;	COMDAT ??_R2?$DACrateRegistrant@VDARegenerationCrateClass@@@@8
rdata$r	SEGMENT
??_R2?$DACrateRegistrant@VDARegenerationCrateClass@@@@8 DD FLAT:??_R1A@?0A@EA@?$DACrateRegistrant@VDARegenerationCrateClass@@@@8 ; DACrateRegistrant<DARegenerationCrateClass>::`RTTI Base Class Array'
	DD	FLAT:??_R1A@?0A@EA@DACrateFactoryClass@@8
rdata$r	ENDS
;	COMDAT ??_R3?$DACrateRegistrant@VDARegenerationCrateClass@@@@8
rdata$r	SEGMENT
??_R3?$DACrateRegistrant@VDARegenerationCrateClass@@@@8 DD 00H ; DACrateRegistrant<DARegenerationCrateClass>::`RTTI Class Hierarchy Descriptor'
	DD	00H
	DD	02H
	DD	FLAT:??_R2?$DACrateRegistrant@VDARegenerationCrateClass@@@@8
rdata$r	ENDS
;	COMDAT ??_R0?AV?$DACrateRegistrant@VDARegenerationCrateClass@@@@@8
_DATA	SEGMENT
??_R0?AV?$DACrateRegistrant@VDARegenerationCrateClass@@@@@8 DD FLAT:??_7type_info@@6B@ ; DACrateRegistrant<DARegenerationCrateClass> `RTTI Type Descriptor'
	DD	00H
	DB	'.?AV?$DACrateRegistrant@VDARegenerationCrateClass@@@@', 00H
_DATA	ENDS
;	COMDAT ??_R4?$DACrateRegistrant@VDARegenerationCrateClass@@@@6B@
rdata$r	SEGMENT
??_R4?$DACrateRegistrant@VDARegenerationCrateClass@@@@6B@ DD 00H ; DACrateRegistrant<DARegenerationCrateClass>::`RTTI Complete Object Locator'
	DD	00H
	DD	00H
	DD	FLAT:??_R0?AV?$DACrateRegistrant@VDARegenerationCrateClass@@@@@8
	DD	FLAT:??_R3?$DACrateRegistrant@VDARegenerationCrateClass@@@@8
rdata$r	ENDS
;	COMDAT ??_R1A@?0A@EA@DARegenerationCrateClass@@8
rdata$r	SEGMENT
??_R1A@?0A@EA@DARegenerationCrateClass@@8 DD FLAT:??_R0?AVDARegenerationCrateClass@@@8 ; DARegenerationCrateClass::`RTTI Base Class Descriptor at (0,-1,0,64)'
	DD	01H
	DD	00H
	DD	0ffffffffH
	DD	00H
	DD	040H
	DD	FLAT:??_R3DARegenerationCrateClass@@8
rdata$r	ENDS
;	COMDAT ??_R2DARegenerationCrateClass@@8
rdata$r	SEGMENT
??_R2DARegenerationCrateClass@@8 DD FLAT:??_R1A@?0A@EA@DARegenerationCrateClass@@8 ; DARegenerationCrateClass::`RTTI Base Class Array'
	DD	FLAT:??_R1A@?0A@EA@DACrateClass@@8
rdata$r	ENDS
;	COMDAT ??_R3DARegenerationCrateClass@@8
rdata$r	SEGMENT
??_R3DARegenerationCrateClass@@8 DD 00H			; DARegenerationCrateClass::`RTTI Class Hierarchy Descriptor'
	DD	00H
	DD	02H
	DD	FLAT:??_R2DARegenerationCrateClass@@8
rdata$r	ENDS
;	COMDAT ??_R0?AVDARegenerationCrateClass@@@8
_DATA	SEGMENT
??_R0?AVDARegenerationCrateClass@@@8 DD FLAT:??_7type_info@@6B@ ; DARegenerationCrateClass `RTTI Type Descriptor'
	DD	00H
	DB	'.?AVDARegenerationCrateClass@@', 00H
_DATA	ENDS
;	COMDAT ??_R4DARegenerationCrateClass@@6B@
rdata$r	SEGMENT
??_R4DARegenerationCrateClass@@6B@ DD 00H		; DARegenerationCrateClass::`RTTI Complete Object Locator'
	DD	00H
	DD	00H
	DD	FLAT:??_R0?AVDARegenerationCrateClass@@@8
	DD	FLAT:??_R3DARegenerationCrateClass@@8
rdata$r	ENDS
;	COMDAT ??_R1A@?0A@EA@DARegenerationCrateObserverClass@@8
rdata$r	SEGMENT
??_R1A@?0A@EA@DARegenerationCrateObserverClass@@8 DD FLAT:??_R0?AVDARegenerationCrateObserverClass@@@8 ; DARegenerationCrateObserverClass::`RTTI Base Class Descriptor at (0,-1,0,64)'
	DD	02H
	DD	00H
	DD	0ffffffffH
	DD	00H
	DD	040H
	DD	FLAT:??_R3DARegenerationCrateObserverClass@@8
rdata$r	ENDS
;	COMDAT ??_R2DARegenerationCrateObserverClass@@8
rdata$r	SEGMENT
??_R2DARegenerationCrateObserverClass@@8 DD FLAT:??_R1A@?0A@EA@DARegenerationCrateObserverClass@@8 ; DARegenerationCrateObserverClass::`RTTI Base Class Array'
	DD	FLAT:??_R1A@?0A@EA@DAGameObjObserverClass@@8
	DD	FLAT:??_R1A@?0A@EA@GameObjObserverClass@@8
rdata$r	ENDS
;	COMDAT ??_R3DARegenerationCrateObserverClass@@8
rdata$r	SEGMENT
??_R3DARegenerationCrateObserverClass@@8 DD 00H		; DARegenerationCrateObserverClass::`RTTI Class Hierarchy Descriptor'
	DD	00H
	DD	03H
	DD	FLAT:??_R2DARegenerationCrateObserverClass@@8
rdata$r	ENDS
;	COMDAT ??_R0?AVDARegenerationCrateObserverClass@@@8
_DATA	SEGMENT
??_R0?AVDARegenerationCrateObserverClass@@@8 DD FLAT:??_7type_info@@6B@ ; DARegenerationCrateObserverClass `RTTI Type Descriptor'
	DD	00H
	DB	'.?AVDARegenerationCrateObserverClass@@', 00H
_DATA	ENDS
;	COMDAT ??_R4DARegenerationCrateObserverClass@@6B@
rdata$r	SEGMENT
??_R4DARegenerationCrateObserverClass@@6B@ DD 00H	; DARegenerationCrateObserverClass::`RTTI Complete Object Locator'
	DD	00H
	DD	00H
	DD	FLAT:??_R0?AVDARegenerationCrateObserverClass@@@8
	DD	FLAT:??_R3DARegenerationCrateObserverClass@@8
rdata$r	ENDS
;	COMDAT ??_R1A@?0A@EA@?$DACrateRegistrant@VDAPowerCrateClass@@@@8
rdata$r	SEGMENT
??_R1A@?0A@EA@?$DACrateRegistrant@VDAPowerCrateClass@@@@8 DD FLAT:??_R0?AV?$DACrateRegistrant@VDAPowerCrateClass@@@@@8 ; DACrateRegistrant<DAPowerCrateClass>::`RTTI Base Class Descriptor at (0,-1,0,64)'
	DD	01H
	DD	00H
	DD	0ffffffffH
	DD	00H
	DD	040H
	DD	FLAT:??_R3?$DACrateRegistrant@VDAPowerCrateClass@@@@8
rdata$r	ENDS
;	COMDAT ??_R2?$DACrateRegistrant@VDAPowerCrateClass@@@@8
rdata$r	SEGMENT
??_R2?$DACrateRegistrant@VDAPowerCrateClass@@@@8 DD FLAT:??_R1A@?0A@EA@?$DACrateRegistrant@VDAPowerCrateClass@@@@8 ; DACrateRegistrant<DAPowerCrateClass>::`RTTI Base Class Array'
	DD	FLAT:??_R1A@?0A@EA@DACrateFactoryClass@@8
rdata$r	ENDS
;	COMDAT ??_R3?$DACrateRegistrant@VDAPowerCrateClass@@@@8
rdata$r	SEGMENT
??_R3?$DACrateRegistrant@VDAPowerCrateClass@@@@8 DD 00H	; DACrateRegistrant<DAPowerCrateClass>::`RTTI Class Hierarchy Descriptor'
	DD	00H
	DD	02H
	DD	FLAT:??_R2?$DACrateRegistrant@VDAPowerCrateClass@@@@8
rdata$r	ENDS
;	COMDAT ??_R0?AV?$DACrateRegistrant@VDAPowerCrateClass@@@@@8
_DATA	SEGMENT
??_R0?AV?$DACrateRegistrant@VDAPowerCrateClass@@@@@8 DD FLAT:??_7type_info@@6B@ ; DACrateRegistrant<DAPowerCrateClass> `RTTI Type Descriptor'
	DD	00H
	DB	'.?AV?$DACrateRegistrant@VDAPowerCrateClass@@@@', 00H
_DATA	ENDS
;	COMDAT ??_R4?$DACrateRegistrant@VDAPowerCrateClass@@@@6B@
rdata$r	SEGMENT
??_R4?$DACrateRegistrant@VDAPowerCrateClass@@@@6B@ DD 00H ; DACrateRegistrant<DAPowerCrateClass>::`RTTI Complete Object Locator'
	DD	00H
	DD	00H
	DD	FLAT:??_R0?AV?$DACrateRegistrant@VDAPowerCrateClass@@@@@8
	DD	FLAT:??_R3?$DACrateRegistrant@VDAPowerCrateClass@@@@8
rdata$r	ENDS
;	COMDAT ??_R4DAPowerCrateClass@@6BDAEventClass@@@
rdata$r	SEGMENT
??_R4DAPowerCrateClass@@6BDAEventClass@@@ DD 00H	; DAPowerCrateClass::`RTTI Complete Object Locator'
	DD	034H
	DD	00H
	DD	FLAT:??_R0?AVDAPowerCrateClass@@@8
	DD	FLAT:??_R3DAPowerCrateClass@@8
rdata$r	ENDS
;	COMDAT ??_R1DE@?0A@EA@DAEventClass@@8
rdata$r	SEGMENT
??_R1DE@?0A@EA@DAEventClass@@8 DD FLAT:??_R0?AVDAEventClass@@@8 ; DAEventClass::`RTTI Base Class Descriptor at (52,-1,0,64)'
	DD	00H
	DD	034H
	DD	0ffffffffH
	DD	00H
	DD	040H
	DD	FLAT:??_R3DAEventClass@@8
rdata$r	ENDS
;	COMDAT ??_R1A@?0A@EA@DAPowerCrateClass@@8
rdata$r	SEGMENT
??_R1A@?0A@EA@DAPowerCrateClass@@8 DD FLAT:??_R0?AVDAPowerCrateClass@@@8 ; DAPowerCrateClass::`RTTI Base Class Descriptor at (0,-1,0,64)'
	DD	02H
	DD	00H
	DD	0ffffffffH
	DD	00H
	DD	040H
	DD	FLAT:??_R3DAPowerCrateClass@@8
rdata$r	ENDS
;	COMDAT ??_R2DAPowerCrateClass@@8
rdata$r	SEGMENT
??_R2DAPowerCrateClass@@8 DD FLAT:??_R1A@?0A@EA@DAPowerCrateClass@@8 ; DAPowerCrateClass::`RTTI Base Class Array'
	DD	FLAT:??_R1A@?0A@EA@DACrateClass@@8
	DD	FLAT:??_R1DE@?0A@EA@DAEventClass@@8
rdata$r	ENDS
;	COMDAT ??_R3DAPowerCrateClass@@8
rdata$r	SEGMENT
??_R3DAPowerCrateClass@@8 DD 00H			; DAPowerCrateClass::`RTTI Class Hierarchy Descriptor'
	DD	01H
	DD	03H
	DD	FLAT:??_R2DAPowerCrateClass@@8
rdata$r	ENDS
;	COMDAT ??_R0?AVDAPowerCrateClass@@@8
_DATA	SEGMENT
??_R0?AVDAPowerCrateClass@@@8 DD FLAT:??_7type_info@@6B@ ; DAPowerCrateClass `RTTI Type Descriptor'
	DD	00H
	DB	'.?AVDAPowerCrateClass@@', 00H
_DATA	ENDS
;	COMDAT ??_R4DAPowerCrateClass@@6BDACrateClass@@@
rdata$r	SEGMENT
??_R4DAPowerCrateClass@@6BDACrateClass@@@ DD 00H	; DAPowerCrateClass::`RTTI Complete Object Locator'
	DD	00H
	DD	00H
	DD	FLAT:??_R0?AVDAPowerCrateClass@@@8
	DD	FLAT:??_R3DAPowerCrateClass@@8
rdata$r	ENDS
;	COMDAT ??_R1A@?0A@EA@?$DACrateRegistrant@VDAHealthCrateClass@@@@8
rdata$r	SEGMENT
??_R1A@?0A@EA@?$DACrateRegistrant@VDAHealthCrateClass@@@@8 DD FLAT:??_R0?AV?$DACrateRegistrant@VDAHealthCrateClass@@@@@8 ; DACrateRegistrant<DAHealthCrateClass>::`RTTI Base Class Descriptor at (0,-1,0,64)'
	DD	01H
	DD	00H
	DD	0ffffffffH
	DD	00H
	DD	040H
	DD	FLAT:??_R3?$DACrateRegistrant@VDAHealthCrateClass@@@@8
rdata$r	ENDS
;	COMDAT ??_R2?$DACrateRegistrant@VDAHealthCrateClass@@@@8
rdata$r	SEGMENT
??_R2?$DACrateRegistrant@VDAHealthCrateClass@@@@8 DD FLAT:??_R1A@?0A@EA@?$DACrateRegistrant@VDAHealthCrateClass@@@@8 ; DACrateRegistrant<DAHealthCrateClass>::`RTTI Base Class Array'
	DD	FLAT:??_R1A@?0A@EA@DACrateFactoryClass@@8
rdata$r	ENDS
;	COMDAT ??_R3?$DACrateRegistrant@VDAHealthCrateClass@@@@8
rdata$r	SEGMENT
??_R3?$DACrateRegistrant@VDAHealthCrateClass@@@@8 DD 00H ; DACrateRegistrant<DAHealthCrateClass>::`RTTI Class Hierarchy Descriptor'
	DD	00H
	DD	02H
	DD	FLAT:??_R2?$DACrateRegistrant@VDAHealthCrateClass@@@@8
rdata$r	ENDS
;	COMDAT ??_R0?AV?$DACrateRegistrant@VDAHealthCrateClass@@@@@8
_DATA	SEGMENT
??_R0?AV?$DACrateRegistrant@VDAHealthCrateClass@@@@@8 DD FLAT:??_7type_info@@6B@ ; DACrateRegistrant<DAHealthCrateClass> `RTTI Type Descriptor'
	DD	00H
	DB	'.?AV?$DACrateRegistrant@VDAHealthCrateClass@@@@', 00H
_DATA	ENDS
;	COMDAT ??_R4?$DACrateRegistrant@VDAHealthCrateClass@@@@6B@
rdata$r	SEGMENT
??_R4?$DACrateRegistrant@VDAHealthCrateClass@@@@6B@ DD 00H ; DACrateRegistrant<DAHealthCrateClass>::`RTTI Complete Object Locator'
	DD	00H
	DD	00H
	DD	FLAT:??_R0?AV?$DACrateRegistrant@VDAHealthCrateClass@@@@@8
	DD	FLAT:??_R3?$DACrateRegistrant@VDAHealthCrateClass@@@@8
rdata$r	ENDS
;	COMDAT ??_R1A@?0A@EA@DAHealthCrateClass@@8
rdata$r	SEGMENT
??_R1A@?0A@EA@DAHealthCrateClass@@8 DD FLAT:??_R0?AVDAHealthCrateClass@@@8 ; DAHealthCrateClass::`RTTI Base Class Descriptor at (0,-1,0,64)'
	DD	01H
	DD	00H
	DD	0ffffffffH
	DD	00H
	DD	040H
	DD	FLAT:??_R3DAHealthCrateClass@@8
rdata$r	ENDS
;	COMDAT ??_R2DAHealthCrateClass@@8
rdata$r	SEGMENT
??_R2DAHealthCrateClass@@8 DD FLAT:??_R1A@?0A@EA@DAHealthCrateClass@@8 ; DAHealthCrateClass::`RTTI Base Class Array'
	DD	FLAT:??_R1A@?0A@EA@DACrateClass@@8
rdata$r	ENDS
;	COMDAT ??_R3DAHealthCrateClass@@8
rdata$r	SEGMENT
??_R3DAHealthCrateClass@@8 DD 00H			; DAHealthCrateClass::`RTTI Class Hierarchy Descriptor'
	DD	00H
	DD	02H
	DD	FLAT:??_R2DAHealthCrateClass@@8
rdata$r	ENDS
;	COMDAT ??_R0?AVDAHealthCrateClass@@@8
_DATA	SEGMENT
??_R0?AVDAHealthCrateClass@@@8 DD FLAT:??_7type_info@@6B@ ; DAHealthCrateClass `RTTI Type Descriptor'
	DD	00H
	DB	'.?AVDAHealthCrateClass@@', 00H
_DATA	ENDS
;	COMDAT ??_R4DAHealthCrateClass@@6B@
rdata$r	SEGMENT
??_R4DAHealthCrateClass@@6B@ DD 00H			; DAHealthCrateClass::`RTTI Complete Object Locator'
	DD	00H
	DD	00H
	DD	FLAT:??_R0?AVDAHealthCrateClass@@@8
	DD	FLAT:??_R3DAHealthCrateClass@@8
rdata$r	ENDS
;	COMDAT ??_R1A@?0A@EA@?$DACrateRegistrant@VDAVeteranCrateClass@@@@8
rdata$r	SEGMENT
??_R1A@?0A@EA@?$DACrateRegistrant@VDAVeteranCrateClass@@@@8 DD FLAT:??_R0?AV?$DACrateRegistrant@VDAVeteranCrateClass@@@@@8 ; DACrateRegistrant<DAVeteranCrateClass>::`RTTI Base Class Descriptor at (0,-1,0,64)'
	DD	01H
	DD	00H
	DD	0ffffffffH
	DD	00H
	DD	040H
	DD	FLAT:??_R3?$DACrateRegistrant@VDAVeteranCrateClass@@@@8
rdata$r	ENDS
;	COMDAT ??_R2?$DACrateRegistrant@VDAVeteranCrateClass@@@@8
rdata$r	SEGMENT
??_R2?$DACrateRegistrant@VDAVeteranCrateClass@@@@8 DD FLAT:??_R1A@?0A@EA@?$DACrateRegistrant@VDAVeteranCrateClass@@@@8 ; DACrateRegistrant<DAVeteranCrateClass>::`RTTI Base Class Array'
	DD	FLAT:??_R1A@?0A@EA@DACrateFactoryClass@@8
rdata$r	ENDS
;	COMDAT ??_R3?$DACrateRegistrant@VDAVeteranCrateClass@@@@8
rdata$r	SEGMENT
??_R3?$DACrateRegistrant@VDAVeteranCrateClass@@@@8 DD 00H ; DACrateRegistrant<DAVeteranCrateClass>::`RTTI Class Hierarchy Descriptor'
	DD	00H
	DD	02H
	DD	FLAT:??_R2?$DACrateRegistrant@VDAVeteranCrateClass@@@@8
rdata$r	ENDS
;	COMDAT ??_R0?AV?$DACrateRegistrant@VDAVeteranCrateClass@@@@@8
_DATA	SEGMENT
??_R0?AV?$DACrateRegistrant@VDAVeteranCrateClass@@@@@8 DD FLAT:??_7type_info@@6B@ ; DACrateRegistrant<DAVeteranCrateClass> `RTTI Type Descriptor'
	DD	00H
	DB	'.?AV?$DACrateRegistrant@VDAVeteranCrateClass@@@@', 00H
_DATA	ENDS
;	COMDAT ??_R4?$DACrateRegistrant@VDAVeteranCrateClass@@@@6B@
rdata$r	SEGMENT
??_R4?$DACrateRegistrant@VDAVeteranCrateClass@@@@6B@ DD 00H ; DACrateRegistrant<DAVeteranCrateClass>::`RTTI Complete Object Locator'
	DD	00H
	DD	00H
	DD	FLAT:??_R0?AV?$DACrateRegistrant@VDAVeteranCrateClass@@@@@8
	DD	FLAT:??_R3?$DACrateRegistrant@VDAVeteranCrateClass@@@@8
rdata$r	ENDS
;	COMDAT ??_R1A@?0A@EA@DAVeteranCrateClass@@8
rdata$r	SEGMENT
??_R1A@?0A@EA@DAVeteranCrateClass@@8 DD FLAT:??_R0?AVDAVeteranCrateClass@@@8 ; DAVeteranCrateClass::`RTTI Base Class Descriptor at (0,-1,0,64)'
	DD	01H
	DD	00H
	DD	0ffffffffH
	DD	00H
	DD	040H
	DD	FLAT:??_R3DAVeteranCrateClass@@8
rdata$r	ENDS
;	COMDAT ??_R2DAVeteranCrateClass@@8
rdata$r	SEGMENT
??_R2DAVeteranCrateClass@@8 DD FLAT:??_R1A@?0A@EA@DAVeteranCrateClass@@8 ; DAVeteranCrateClass::`RTTI Base Class Array'
	DD	FLAT:??_R1A@?0A@EA@DACrateClass@@8
rdata$r	ENDS
;	COMDAT ??_R3DAVeteranCrateClass@@8
rdata$r	SEGMENT
??_R3DAVeteranCrateClass@@8 DD 00H			; DAVeteranCrateClass::`RTTI Class Hierarchy Descriptor'
	DD	00H
	DD	02H
	DD	FLAT:??_R2DAVeteranCrateClass@@8
rdata$r	ENDS
;	COMDAT ??_R0?AVDAVeteranCrateClass@@@8
_DATA	SEGMENT
??_R0?AVDAVeteranCrateClass@@@8 DD FLAT:??_7type_info@@6B@ ; DAVeteranCrateClass `RTTI Type Descriptor'
	DD	00H
	DB	'.?AVDAVeteranCrateClass@@', 00H
_DATA	ENDS
;	COMDAT ??_R4DAVeteranCrateClass@@6B@
rdata$r	SEGMENT
??_R4DAVeteranCrateClass@@6B@ DD 00H			; DAVeteranCrateClass::`RTTI Complete Object Locator'
	DD	00H
	DD	00H
	DD	FLAT:??_R0?AVDAVeteranCrateClass@@@8
	DD	FLAT:??_R3DAVeteranCrateClass@@8
rdata$r	ENDS
;	COMDAT ??_R1A@?0A@EA@?$DACrateRegistrant@VDADeathCrateClass@@@@8
rdata$r	SEGMENT
??_R1A@?0A@EA@?$DACrateRegistrant@VDADeathCrateClass@@@@8 DD FLAT:??_R0?AV?$DACrateRegistrant@VDADeathCrateClass@@@@@8 ; DACrateRegistrant<DADeathCrateClass>::`RTTI Base Class Descriptor at (0,-1,0,64)'
	DD	01H
	DD	00H
	DD	0ffffffffH
	DD	00H
	DD	040H
	DD	FLAT:??_R3?$DACrateRegistrant@VDADeathCrateClass@@@@8
rdata$r	ENDS
;	COMDAT ??_R2?$DACrateRegistrant@VDADeathCrateClass@@@@8
rdata$r	SEGMENT
??_R2?$DACrateRegistrant@VDADeathCrateClass@@@@8 DD FLAT:??_R1A@?0A@EA@?$DACrateRegistrant@VDADeathCrateClass@@@@8 ; DACrateRegistrant<DADeathCrateClass>::`RTTI Base Class Array'
	DD	FLAT:??_R1A@?0A@EA@DACrateFactoryClass@@8
rdata$r	ENDS
;	COMDAT ??_R3?$DACrateRegistrant@VDADeathCrateClass@@@@8
rdata$r	SEGMENT
??_R3?$DACrateRegistrant@VDADeathCrateClass@@@@8 DD 00H	; DACrateRegistrant<DADeathCrateClass>::`RTTI Class Hierarchy Descriptor'
	DD	00H
	DD	02H
	DD	FLAT:??_R2?$DACrateRegistrant@VDADeathCrateClass@@@@8
rdata$r	ENDS
;	COMDAT ??_R0?AV?$DACrateRegistrant@VDADeathCrateClass@@@@@8
_DATA	SEGMENT
??_R0?AV?$DACrateRegistrant@VDADeathCrateClass@@@@@8 DD FLAT:??_7type_info@@6B@ ; DACrateRegistrant<DADeathCrateClass> `RTTI Type Descriptor'
	DD	00H
	DB	'.?AV?$DACrateRegistrant@VDADeathCrateClass@@@@', 00H
_DATA	ENDS
;	COMDAT ??_R4?$DACrateRegistrant@VDADeathCrateClass@@@@6B@
rdata$r	SEGMENT
??_R4?$DACrateRegistrant@VDADeathCrateClass@@@@6B@ DD 00H ; DACrateRegistrant<DADeathCrateClass>::`RTTI Complete Object Locator'
	DD	00H
	DD	00H
	DD	FLAT:??_R0?AV?$DACrateRegistrant@VDADeathCrateClass@@@@@8
	DD	FLAT:??_R3?$DACrateRegistrant@VDADeathCrateClass@@@@8
rdata$r	ENDS
;	COMDAT ??_R1A@?0A@EA@DADeathCrateClass@@8
rdata$r	SEGMENT
??_R1A@?0A@EA@DADeathCrateClass@@8 DD FLAT:??_R0?AVDADeathCrateClass@@@8 ; DADeathCrateClass::`RTTI Base Class Descriptor at (0,-1,0,64)'
	DD	01H
	DD	00H
	DD	0ffffffffH
	DD	00H
	DD	040H
	DD	FLAT:??_R3DADeathCrateClass@@8
rdata$r	ENDS
;	COMDAT ??_R2DADeathCrateClass@@8
rdata$r	SEGMENT
??_R2DADeathCrateClass@@8 DD FLAT:??_R1A@?0A@EA@DADeathCrateClass@@8 ; DADeathCrateClass::`RTTI Base Class Array'
	DD	FLAT:??_R1A@?0A@EA@DACrateClass@@8
rdata$r	ENDS
;	COMDAT ??_R3DADeathCrateClass@@8
rdata$r	SEGMENT
??_R3DADeathCrateClass@@8 DD 00H			; DADeathCrateClass::`RTTI Class Hierarchy Descriptor'
	DD	00H
	DD	02H
	DD	FLAT:??_R2DADeathCrateClass@@8
rdata$r	ENDS
;	COMDAT ??_R0?AVDADeathCrateClass@@@8
_DATA	SEGMENT
??_R0?AVDADeathCrateClass@@@8 DD FLAT:??_7type_info@@6B@ ; DADeathCrateClass `RTTI Type Descriptor'
	DD	00H
	DB	'.?AVDADeathCrateClass@@', 00H
_DATA	ENDS
;	COMDAT ??_R4DADeathCrateClass@@6B@
rdata$r	SEGMENT
??_R4DADeathCrateClass@@6B@ DD 00H			; DADeathCrateClass::`RTTI Complete Object Locator'
	DD	00H
	DD	00H
	DD	FLAT:??_R0?AVDADeathCrateClass@@@8
	DD	FLAT:??_R3DADeathCrateClass@@8
rdata$r	ENDS
;	COMDAT ??_R1A@?0A@EA@?$DACrateRegistrant@VDAMoneyCrateClass@@@@8
rdata$r	SEGMENT
??_R1A@?0A@EA@?$DACrateRegistrant@VDAMoneyCrateClass@@@@8 DD FLAT:??_R0?AV?$DACrateRegistrant@VDAMoneyCrateClass@@@@@8 ; DACrateRegistrant<DAMoneyCrateClass>::`RTTI Base Class Descriptor at (0,-1,0,64)'
	DD	01H
	DD	00H
	DD	0ffffffffH
	DD	00H
	DD	040H
	DD	FLAT:??_R3?$DACrateRegistrant@VDAMoneyCrateClass@@@@8
rdata$r	ENDS
;	COMDAT ??_R2?$DACrateRegistrant@VDAMoneyCrateClass@@@@8
rdata$r	SEGMENT
??_R2?$DACrateRegistrant@VDAMoneyCrateClass@@@@8 DD FLAT:??_R1A@?0A@EA@?$DACrateRegistrant@VDAMoneyCrateClass@@@@8 ; DACrateRegistrant<DAMoneyCrateClass>::`RTTI Base Class Array'
	DD	FLAT:??_R1A@?0A@EA@DACrateFactoryClass@@8
rdata$r	ENDS
;	COMDAT ??_R3?$DACrateRegistrant@VDAMoneyCrateClass@@@@8
rdata$r	SEGMENT
??_R3?$DACrateRegistrant@VDAMoneyCrateClass@@@@8 DD 00H	; DACrateRegistrant<DAMoneyCrateClass>::`RTTI Class Hierarchy Descriptor'
	DD	00H
	DD	02H
	DD	FLAT:??_R2?$DACrateRegistrant@VDAMoneyCrateClass@@@@8
rdata$r	ENDS
;	COMDAT ??_R0?AV?$DACrateRegistrant@VDAMoneyCrateClass@@@@@8
_DATA	SEGMENT
??_R0?AV?$DACrateRegistrant@VDAMoneyCrateClass@@@@@8 DD FLAT:??_7type_info@@6B@ ; DACrateRegistrant<DAMoneyCrateClass> `RTTI Type Descriptor'
	DD	00H
	DB	'.?AV?$DACrateRegistrant@VDAMoneyCrateClass@@@@', 00H
_DATA	ENDS
;	COMDAT ??_R4?$DACrateRegistrant@VDAMoneyCrateClass@@@@6B@
rdata$r	SEGMENT
??_R4?$DACrateRegistrant@VDAMoneyCrateClass@@@@6B@ DD 00H ; DACrateRegistrant<DAMoneyCrateClass>::`RTTI Complete Object Locator'
	DD	00H
	DD	00H
	DD	FLAT:??_R0?AV?$DACrateRegistrant@VDAMoneyCrateClass@@@@@8
	DD	FLAT:??_R3?$DACrateRegistrant@VDAMoneyCrateClass@@@@8
rdata$r	ENDS
;	COMDAT ??_R1A@?0A@EA@DAMoneyCrateClass@@8
rdata$r	SEGMENT
??_R1A@?0A@EA@DAMoneyCrateClass@@8 DD FLAT:??_R0?AVDAMoneyCrateClass@@@8 ; DAMoneyCrateClass::`RTTI Base Class Descriptor at (0,-1,0,64)'
	DD	01H
	DD	00H
	DD	0ffffffffH
	DD	00H
	DD	040H
	DD	FLAT:??_R3DAMoneyCrateClass@@8
rdata$r	ENDS
;	COMDAT ??_R2DAMoneyCrateClass@@8
rdata$r	SEGMENT
??_R2DAMoneyCrateClass@@8 DD FLAT:??_R1A@?0A@EA@DAMoneyCrateClass@@8 ; DAMoneyCrateClass::`RTTI Base Class Array'
	DD	FLAT:??_R1A@?0A@EA@DACrateClass@@8
rdata$r	ENDS
;	COMDAT ??_R3DAMoneyCrateClass@@8
rdata$r	SEGMENT
??_R3DAMoneyCrateClass@@8 DD 00H			; DAMoneyCrateClass::`RTTI Class Hierarchy Descriptor'
	DD	00H
	DD	02H
	DD	FLAT:??_R2DAMoneyCrateClass@@8
rdata$r	ENDS
;	COMDAT ??_R0?AVDAMoneyCrateClass@@@8
_DATA	SEGMENT
??_R0?AVDAMoneyCrateClass@@@8 DD FLAT:??_7type_info@@6B@ ; DAMoneyCrateClass `RTTI Type Descriptor'
	DD	00H
	DB	'.?AVDAMoneyCrateClass@@', 00H
_DATA	ENDS
;	COMDAT ??_R4DAMoneyCrateClass@@6B@
rdata$r	SEGMENT
??_R4DAMoneyCrateClass@@6B@ DD 00H			; DAMoneyCrateClass::`RTTI Complete Object Locator'
	DD	00H
	DD	00H
	DD	FLAT:??_R0?AVDAMoneyCrateClass@@@8
	DD	FLAT:??_R3DAMoneyCrateClass@@8
rdata$r	ENDS
;	COMDAT ??_R4?$VectorClass@PAVDACrateModifierClass@@@@6B@
rdata$r	SEGMENT
??_R4?$VectorClass@PAVDACrateModifierClass@@@@6B@ DD 00H ; VectorClass<DACrateModifierClass *>::`RTTI Complete Object Locator'
	DD	00H
	DD	00H
	DD	FLAT:??_R0?AV?$VectorClass@PAVDACrateModifierClass@@@@@8
	DD	FLAT:??_R3?$VectorClass@PAVDACrateModifierClass@@@@8
rdata$r	ENDS
;	COMDAT ??_R2?$VectorClass@PAVDACrateModifierClass@@@@8
rdata$r	SEGMENT
??_R2?$VectorClass@PAVDACrateModifierClass@@@@8 DD FLAT:??_R1A@?0A@EA@?$VectorClass@PAVDACrateModifierClass@@@@8 ; VectorClass<DACrateModifierClass *>::`RTTI Base Class Array'
rdata$r	ENDS
;	COMDAT ??_R3?$VectorClass@PAVDACrateModifierClass@@@@8
rdata$r	SEGMENT
??_R3?$VectorClass@PAVDACrateModifierClass@@@@8 DD 00H	; VectorClass<DACrateModifierClass *>::`RTTI Class Hierarchy Descriptor'
	DD	00H
	DD	01H
	DD	FLAT:??_R2?$VectorClass@PAVDACrateModifierClass@@@@8
rdata$r	ENDS
;	COMDAT ??_R0?AV?$VectorClass@PAVDACrateModifierClass@@@@@8
_DATA	SEGMENT
??_R0?AV?$VectorClass@PAVDACrateModifierClass@@@@@8 DD FLAT:??_7type_info@@6B@ ; VectorClass<DACrateModifierClass *> `RTTI Type Descriptor'
	DD	00H
	DB	'.?AV?$VectorClass@PAVDACrateModifierClass@@@@', 00H
_DATA	ENDS
;	COMDAT ??_R1A@?0A@EA@?$VectorClass@PAVDACrateModifierClass@@@@8
rdata$r	SEGMENT
??_R1A@?0A@EA@?$VectorClass@PAVDACrateModifierClass@@@@8 DD FLAT:??_R0?AV?$VectorClass@PAVDACrateModifierClass@@@@@8 ; VectorClass<DACrateModifierClass *>::`RTTI Base Class Descriptor at (0,-1,0,64)'
	DD	00H
	DD	00H
	DD	0ffffffffH
	DD	00H
	DD	040H
	DD	FLAT:??_R3?$VectorClass@PAVDACrateModifierClass@@@@8
rdata$r	ENDS
;	COMDAT ??_R1A@?0A@EA@?$DynamicVectorClass@PAVDACrateModifierClass@@@@8
rdata$r	SEGMENT
??_R1A@?0A@EA@?$DynamicVectorClass@PAVDACrateModifierClass@@@@8 DD FLAT:??_R0?AV?$DynamicVectorClass@PAVDACrateModifierClass@@@@@8 ; DynamicVectorClass<DACrateModifierClass *>::`RTTI Base Class Descriptor at (0,-1,0,64)'
	DD	01H
	DD	00H
	DD	0ffffffffH
	DD	00H
	DD	040H
	DD	FLAT:??_R3?$DynamicVectorClass@PAVDACrateModifierClass@@@@8
rdata$r	ENDS
;	COMDAT ??_R2?$DynamicVectorClass@PAVDACrateModifierClass@@@@8
rdata$r	SEGMENT
??_R2?$DynamicVectorClass@PAVDACrateModifierClass@@@@8 DD FLAT:??_R1A@?0A@EA@?$DynamicVectorClass@PAVDACrateModifierClass@@@@8 ; DynamicVectorClass<DACrateModifierClass *>::`RTTI Base Class Array'
	DD	FLAT:??_R1A@?0A@EA@?$VectorClass@PAVDACrateModifierClass@@@@8
rdata$r	ENDS
;	COMDAT ??_R3?$DynamicVectorClass@PAVDACrateModifierClass@@@@8
rdata$r	SEGMENT
??_R3?$DynamicVectorClass@PAVDACrateModifierClass@@@@8 DD 00H ; DynamicVectorClass<DACrateModifierClass *>::`RTTI Class Hierarchy Descriptor'
	DD	00H
	DD	02H
	DD	FLAT:??_R2?$DynamicVectorClass@PAVDACrateModifierClass@@@@8
rdata$r	ENDS
;	COMDAT ??_R0?AV?$DynamicVectorClass@PAVDACrateModifierClass@@@@@8
_DATA	SEGMENT
??_R0?AV?$DynamicVectorClass@PAVDACrateModifierClass@@@@@8 DD FLAT:??_7type_info@@6B@ ; DynamicVectorClass<DACrateModifierClass *> `RTTI Type Descriptor'
	DD	00H
	DB	'.?AV?$DynamicVectorClass@PAVDACrateModifierClass@@@@', 00H
_DATA	ENDS
;	COMDAT ??_R4?$DynamicVectorClass@PAVDACrateModifierClass@@@@6B@
rdata$r	SEGMENT
??_R4?$DynamicVectorClass@PAVDACrateModifierClass@@@@6B@ DD 00H ; DynamicVectorClass<DACrateModifierClass *>::`RTTI Complete Object Locator'
	DD	00H
	DD	00H
	DD	FLAT:??_R0?AV?$DynamicVectorClass@PAVDACrateModifierClass@@@@@8
	DD	FLAT:??_R3?$DynamicVectorClass@PAVDACrateModifierClass@@@@8
rdata$r	ENDS
;	COMDAT ??_R1A@?0A@EA@DACrateFactoryClass@@8
rdata$r	SEGMENT
??_R1A@?0A@EA@DACrateFactoryClass@@8 DD FLAT:??_R0?AVDACrateFactoryClass@@@8 ; DACrateFactoryClass::`RTTI Base Class Descriptor at (0,-1,0,64)'
	DD	00H
	DD	00H
	DD	0ffffffffH
	DD	00H
	DD	040H
	DD	FLAT:??_R3DACrateFactoryClass@@8
rdata$r	ENDS
;	COMDAT ??_R2DACrateFactoryClass@@8
rdata$r	SEGMENT
??_R2DACrateFactoryClass@@8 DD FLAT:??_R1A@?0A@EA@DACrateFactoryClass@@8 ; DACrateFactoryClass::`RTTI Base Class Array'
rdata$r	ENDS
;	COMDAT ??_R3DACrateFactoryClass@@8
rdata$r	SEGMENT
??_R3DACrateFactoryClass@@8 DD 00H			; DACrateFactoryClass::`RTTI Class Hierarchy Descriptor'
	DD	00H
	DD	01H
	DD	FLAT:??_R2DACrateFactoryClass@@8
rdata$r	ENDS
;	COMDAT ??_R0?AVDACrateFactoryClass@@@8
_DATA	SEGMENT
??_R0?AVDACrateFactoryClass@@@8 DD FLAT:??_7type_info@@6B@ ; DACrateFactoryClass `RTTI Type Descriptor'
	DD	00H
	DB	'.?AVDACrateFactoryClass@@', 00H
_DATA	ENDS
;	COMDAT ??_R4DACrateFactoryClass@@6B@
rdata$r	SEGMENT
??_R4DACrateFactoryClass@@6B@ DD 00H			; DACrateFactoryClass::`RTTI Complete Object Locator'
	DD	00H
	DD	00H
	DD	FLAT:??_R0?AVDACrateFactoryClass@@@8
	DD	FLAT:??_R3DACrateFactoryClass@@8
rdata$r	ENDS
;	COMDAT ??_R1A@?0A@EA@DACrateClass@@8
rdata$r	SEGMENT
??_R1A@?0A@EA@DACrateClass@@8 DD FLAT:??_R0?AVDACrateClass@@@8 ; DACrateClass::`RTTI Base Class Descriptor at (0,-1,0,64)'
	DD	00H
	DD	00H
	DD	0ffffffffH
	DD	00H
	DD	040H
	DD	FLAT:??_R3DACrateClass@@8
rdata$r	ENDS
;	COMDAT ??_R2DACrateClass@@8
rdata$r	SEGMENT
??_R2DACrateClass@@8 DD FLAT:??_R1A@?0A@EA@DACrateClass@@8 ; DACrateClass::`RTTI Base Class Array'
rdata$r	ENDS
;	COMDAT ??_R3DACrateClass@@8
rdata$r	SEGMENT
??_R3DACrateClass@@8 DD 00H				; DACrateClass::`RTTI Class Hierarchy Descriptor'
	DD	00H
	DD	01H
	DD	FLAT:??_R2DACrateClass@@8
rdata$r	ENDS
;	COMDAT ??_R0?AVDACrateClass@@@8
_DATA	SEGMENT
??_R0?AVDACrateClass@@@8 DD FLAT:??_7type_info@@6B@	; DACrateClass `RTTI Type Descriptor'
	DD	00H
	DB	'.?AVDACrateClass@@', 00H
_DATA	ENDS
;	COMDAT ??_R4DACrateClass@@6B@
rdata$r	SEGMENT
??_R4DACrateClass@@6B@ DD 00H				; DACrateClass::`RTTI Complete Object Locator'
	DD	00H
	DD	00H
	DD	FLAT:??_R0?AVDACrateClass@@@8
	DD	FLAT:??_R3DACrateClass@@8
rdata$r	ENDS
;	COMDAT ??_R1A@?0A@EA@DACrateModifierClass@@8
rdata$r	SEGMENT
??_R1A@?0A@EA@DACrateModifierClass@@8 DD FLAT:??_R0?AVDACrateModifierClass@@@8 ; DACrateModifierClass::`RTTI Base Class Descriptor at (0,-1,0,64)'
	DD	00H
	DD	00H
	DD	0ffffffffH
	DD	00H
	DD	040H
	DD	FLAT:??_R3DACrateModifierClass@@8
rdata$r	ENDS
;	COMDAT ??_R2DACrateModifierClass@@8
rdata$r	SEGMENT
??_R2DACrateModifierClass@@8 DD FLAT:??_R1A@?0A@EA@DACrateModifierClass@@8 ; DACrateModifierClass::`RTTI Base Class Array'
rdata$r	ENDS
;	COMDAT ??_R3DACrateModifierClass@@8
rdata$r	SEGMENT
??_R3DACrateModifierClass@@8 DD 00H			; DACrateModifierClass::`RTTI Class Hierarchy Descriptor'
	DD	00H
	DD	01H
	DD	FLAT:??_R2DACrateModifierClass@@8
rdata$r	ENDS
;	COMDAT ??_R0?AVDACrateModifierClass@@@8
_DATA	SEGMENT
??_R0?AVDACrateModifierClass@@@8 DD FLAT:??_7type_info@@6B@ ; DACrateModifierClass `RTTI Type Descriptor'
	DD	00H
	DB	'.?AVDACrateModifierClass@@', 00H
_DATA	ENDS
;	COMDAT ??_R4DACrateModifierClass@@6B@
rdata$r	SEGMENT
??_R4DACrateModifierClass@@6B@ DD 00H			; DACrateModifierClass::`RTTI Complete Object Locator'
	DD	00H
	DD	00H
	DD	FLAT:??_R0?AVDACrateModifierClass@@@8
	DD	FLAT:??_R3DACrateModifierClass@@8
rdata$r	ENDS
;	COMDAT ??_R4?$VectorClass@PAUDAPlayerObserverKeyHookStruct@@@@6B@
rdata$r	SEGMENT
??_R4?$VectorClass@PAUDAPlayerObserverKeyHookStruct@@@@6B@ DD 00H ; VectorClass<DAPlayerObserverKeyHookStruct *>::`RTTI Complete Object Locator'
	DD	00H
	DD	00H
	DD	FLAT:??_R0?AV?$VectorClass@PAUDAPlayerObserverKeyHookStruct@@@@@8
	DD	FLAT:??_R3?$VectorClass@PAUDAPlayerObserverKeyHookStruct@@@@8
rdata$r	ENDS
;	COMDAT ??_R4?$VectorClass@PAUDAPlayerObserverChatCommandStruct@@@@6B@
rdata$r	SEGMENT
??_R4?$VectorClass@PAUDAPlayerObserverChatCommandStruct@@@@6B@ DD 00H ; VectorClass<DAPlayerObserverChatCommandStruct *>::`RTTI Complete Object Locator'
	DD	00H
	DD	00H
	DD	FLAT:??_R0?AV?$VectorClass@PAUDAPlayerObserverChatCommandStruct@@@@@8
	DD	FLAT:??_R3?$VectorClass@PAUDAPlayerObserverChatCommandStruct@@@@8
rdata$r	ENDS
;	COMDAT ??_R4?$VectorClass@PAUDAPlayerObserverTimerStruct@@@@6B@
rdata$r	SEGMENT
??_R4?$VectorClass@PAUDAPlayerObserverTimerStruct@@@@6B@ DD 00H ; VectorClass<DAPlayerObserverTimerStruct *>::`RTTI Complete Object Locator'
	DD	00H
	DD	00H
	DD	FLAT:??_R0?AV?$VectorClass@PAUDAPlayerObserverTimerStruct@@@@@8
	DD	FLAT:??_R3?$VectorClass@PAUDAPlayerObserverTimerStruct@@@@8
rdata$r	ENDS
;	COMDAT ??_R2?$VectorClass@PAUDAPlayerObserverKeyHookStruct@@@@8
rdata$r	SEGMENT
??_R2?$VectorClass@PAUDAPlayerObserverKeyHookStruct@@@@8 DD FLAT:??_R1A@?0A@EA@?$VectorClass@PAUDAPlayerObserverKeyHookStruct@@@@8 ; VectorClass<DAPlayerObserverKeyHookStruct *>::`RTTI Base Class Array'
rdata$r	ENDS
;	COMDAT ??_R3?$VectorClass@PAUDAPlayerObserverKeyHookStruct@@@@8
rdata$r	SEGMENT
??_R3?$VectorClass@PAUDAPlayerObserverKeyHookStruct@@@@8 DD 00H ; VectorClass<DAPlayerObserverKeyHookStruct *>::`RTTI Class Hierarchy Descriptor'
	DD	00H
	DD	01H
	DD	FLAT:??_R2?$VectorClass@PAUDAPlayerObserverKeyHookStruct@@@@8
rdata$r	ENDS
;	COMDAT ??_R0?AV?$VectorClass@PAUDAPlayerObserverKeyHookStruct@@@@@8
_DATA	SEGMENT
??_R0?AV?$VectorClass@PAUDAPlayerObserverKeyHookStruct@@@@@8 DD FLAT:??_7type_info@@6B@ ; VectorClass<DAPlayerObserverKeyHookStruct *> `RTTI Type Descriptor'
	DD	00H
	DB	'.?AV?$VectorClass@PAUDAPlayerObserverKeyHookStruct@@@@', 00H
_DATA	ENDS
;	COMDAT ??_R1A@?0A@EA@?$VectorClass@PAUDAPlayerObserverKeyHookStruct@@@@8
rdata$r	SEGMENT
??_R1A@?0A@EA@?$VectorClass@PAUDAPlayerObserverKeyHookStruct@@@@8 DD FLAT:??_R0?AV?$VectorClass@PAUDAPlayerObserverKeyHookStruct@@@@@8 ; VectorClass<DAPlayerObserverKeyHookStruct *>::`RTTI Base Class Descriptor at (0,-1,0,64)'
	DD	00H
	DD	00H
	DD	0ffffffffH
	DD	00H
	DD	040H
	DD	FLAT:??_R3?$VectorClass@PAUDAPlayerObserverKeyHookStruct@@@@8
rdata$r	ENDS
;	COMDAT ??_R1A@?0A@EA@?$DynamicVectorClass@PAUDAPlayerObserverKeyHookStruct@@@@8
rdata$r	SEGMENT
??_R1A@?0A@EA@?$DynamicVectorClass@PAUDAPlayerObserverKeyHookStruct@@@@8 DD FLAT:??_R0?AV?$DynamicVectorClass@PAUDAPlayerObserverKeyHookStruct@@@@@8 ; DynamicVectorClass<DAPlayerObserverKeyHookStruct *>::`RTTI Base Class Descriptor at (0,-1,0,64)'
	DD	01H
	DD	00H
	DD	0ffffffffH
	DD	00H
	DD	040H
	DD	FLAT:??_R3?$DynamicVectorClass@PAUDAPlayerObserverKeyHookStruct@@@@8
rdata$r	ENDS
;	COMDAT ??_R2?$DynamicVectorClass@PAUDAPlayerObserverKeyHookStruct@@@@8
rdata$r	SEGMENT
??_R2?$DynamicVectorClass@PAUDAPlayerObserverKeyHookStruct@@@@8 DD FLAT:??_R1A@?0A@EA@?$DynamicVectorClass@PAUDAPlayerObserverKeyHookStruct@@@@8 ; DynamicVectorClass<DAPlayerObserverKeyHookStruct *>::`RTTI Base Class Array'
	DD	FLAT:??_R1A@?0A@EA@?$VectorClass@PAUDAPlayerObserverKeyHookStruct@@@@8
rdata$r	ENDS
;	COMDAT ??_R3?$DynamicVectorClass@PAUDAPlayerObserverKeyHookStruct@@@@8
rdata$r	SEGMENT
??_R3?$DynamicVectorClass@PAUDAPlayerObserverKeyHookStruct@@@@8 DD 00H ; DynamicVectorClass<DAPlayerObserverKeyHookStruct *>::`RTTI Class Hierarchy Descriptor'
	DD	00H
	DD	02H
	DD	FLAT:??_R2?$DynamicVectorClass@PAUDAPlayerObserverKeyHookStruct@@@@8
rdata$r	ENDS
;	COMDAT ??_R0?AV?$DynamicVectorClass@PAUDAPlayerObserverKeyHookStruct@@@@@8
_DATA	SEGMENT
??_R0?AV?$DynamicVectorClass@PAUDAPlayerObserverKeyHookStruct@@@@@8 DD FLAT:??_7type_info@@6B@ ; DynamicVectorClass<DAPlayerObserverKeyHookStruct *> `RTTI Type Descriptor'
	DD	00H
	DB	'.?AV?$DynamicVectorClass@PAUDAPlayerObserverKeyHookStruc'
	DB	't@@@@', 00H
_DATA	ENDS
;	COMDAT ??_R4?$DynamicVectorClass@PAUDAPlayerObserverKeyHookStruct@@@@6B@
rdata$r	SEGMENT
??_R4?$DynamicVectorClass@PAUDAPlayerObserverKeyHookStruct@@@@6B@ DD 00H ; DynamicVectorClass<DAPlayerObserverKeyHookStruct *>::`RTTI Complete Object Locator'
	DD	00H
	DD	00H
	DD	FLAT:??_R0?AV?$DynamicVectorClass@PAUDAPlayerObserverKeyHookStruct@@@@@8
	DD	FLAT:??_R3?$DynamicVectorClass@PAUDAPlayerObserverKeyHookStruct@@@@8
rdata$r	ENDS
;	COMDAT ??_R2?$VectorClass@PAUDAPlayerObserverChatCommandStruct@@@@8
rdata$r	SEGMENT
??_R2?$VectorClass@PAUDAPlayerObserverChatCommandStruct@@@@8 DD FLAT:??_R1A@?0A@EA@?$VectorClass@PAUDAPlayerObserverChatCommandStruct@@@@8 ; VectorClass<DAPlayerObserverChatCommandStruct *>::`RTTI Base Class Array'
rdata$r	ENDS
;	COMDAT ??_R3?$VectorClass@PAUDAPlayerObserverChatCommandStruct@@@@8
rdata$r	SEGMENT
??_R3?$VectorClass@PAUDAPlayerObserverChatCommandStruct@@@@8 DD 00H ; VectorClass<DAPlayerObserverChatCommandStruct *>::`RTTI Class Hierarchy Descriptor'
	DD	00H
	DD	01H
	DD	FLAT:??_R2?$VectorClass@PAUDAPlayerObserverChatCommandStruct@@@@8
rdata$r	ENDS
;	COMDAT ??_R0?AV?$VectorClass@PAUDAPlayerObserverChatCommandStruct@@@@@8
_DATA	SEGMENT
??_R0?AV?$VectorClass@PAUDAPlayerObserverChatCommandStruct@@@@@8 DD FLAT:??_7type_info@@6B@ ; VectorClass<DAPlayerObserverChatCommandStruct *> `RTTI Type Descriptor'
	DD	00H
	DB	'.?AV?$VectorClass@PAUDAPlayerObserverChatCommandStruct@@'
	DB	'@@', 00H
_DATA	ENDS
;	COMDAT ??_R1A@?0A@EA@?$VectorClass@PAUDAPlayerObserverChatCommandStruct@@@@8
rdata$r	SEGMENT
