; Listing generated by Microsoft (R) Optimizing Compiler Version 17.00.61219.0 

	TITLE	X:\GitHub\Renegade\Dragonade_RxD\scripts\da_player.cpp
	.686P
	.XMM
	include listing.inc
	.model	flat

INCLUDELIB MSVCRTD
INCLUDELIB OLDNAMES

PUBLIC	?DisableKillMessages@DAPlayerManager@@0_NA	; DAPlayerManager::DisableKillMessages
PUBLIC	?DisableKillCounter@DAPlayerManager@@0_NA	; DAPlayerManager::DisableKillCounter
PUBLIC	?DisableTeamKillCounter@DAPlayerManager@@0_NA	; DAPlayerManager::DisableTeamKillCounter
PUBLIC	?DisableDeathCounter@DAPlayerManager@@0_NA	; DAPlayerManager::DisableDeathCounter
PUBLIC	?DisableTeamDeathCounter@DAPlayerManager@@0_NA	; DAPlayerManager::DisableTeamDeathCounter
PUBLIC	?DisableDamagePoints@DAPlayerManager@@0_NA	; DAPlayerManager::DisableDamagePoints
PUBLIC	?DisableDeathPoints@DAPlayerManager@@0_NA	; DAPlayerManager::DisableDeathPoints
PUBLIC	?DisableTeamScoreCounter@DAPlayerManager@@0_NA	; DAPlayerManager::DisableTeamScoreCounter
PUBLIC	?CreditsMultiplier@DAPlayerManager@@0MA		; DAPlayerManager::CreditsMultiplier
_BSS	SEGMENT
?DisableKillMessages@DAPlayerManager@@0_NA DB 01H DUP (?) ; DAPlayerManager::DisableKillMessages
	ALIGN	4

?DisableKillCounter@DAPlayerManager@@0_NA DB 01H DUP (?) ; DAPlayerManager::DisableKillCounter
	ALIGN	4

?DisableTeamKillCounter@DAPlayerManager@@0_NA DB 01H DUP (?) ; DAPlayerManager::DisableTeamKillCounter
	ALIGN	4

?DisableDeathCounter@DAPlayerManager@@0_NA DB 01H DUP (?) ; DAPlayerManager::DisableDeathCounter
	ALIGN	4

?DisableTeamDeathCounter@DAPlayerManager@@0_NA DB 01H DUP (?) ; DAPlayerManager::DisableTeamDeathCounter
	ALIGN	4

?DisableDamagePoints@DAPlayerManager@@0_NA DB 01H DUP (?) ; DAPlayerManager::DisableDamagePoints
	ALIGN	4

?DisableDeathPoints@DAPlayerManager@@0_NA DB 01H DUP (?) ; DAPlayerManager::DisableDeathPoints
	ALIGN	4

?DisableTeamScoreCounter@DAPlayerManager@@0_NA DB 01H DUP (?) ; DAPlayerManager::DisableTeamScoreCounter
	ALIGN	4

?CreditsMultiplier@DAPlayerManager@@0MA DD 01H DUP (?)	; DAPlayerManager::CreditsMultiplier
_BSS	ENDS
CONST	SEGMENT
_DONT_MOVE_ARRIVED_DIST DD 0447a0000r		; 1000
CONST	ENDS
PUBLIC	??_H@YGXPAXIHP6EPAX0@Z@Z			; `vector constructor iterator'
PUBLIC	??_I@YGXPAXIHP6EX0@Z@Z				; `vector destructor iterator'
PUBLIC	_acosf
PUBLIC	_asinf
PUBLIC	_atanf
PUBLIC	_atan2f
PUBLIC	_ceilf
PUBLIC	_cosf
PUBLIC	_floorf
PUBLIC	_sinf
PUBLIC	_sqrtf
PUBLIC	?acos@@YAMM@Z					; acos
PUBLIC	?asin@@YAMM@Z					; asin
PUBLIC	?atan@@YAMM@Z					; atan
PUBLIC	?atan2@@YAMMM@Z					; atan2
PUBLIC	?cos@@YAMM@Z					; cos
PUBLIC	?sin@@YAMM@Z					; sin
PUBLIC	?sqrt@@YAMM@Z					; sqrt
PUBLIC	??_U@YAPAXIPAX@Z				; operator new[]
PUBLIC	?Fabs@WWMath@@SAMM@Z				; WWMath::Fabs
PUBLIC	?Float_To_Int_Chop@WWMath@@SAHABM@Z		; WWMath::Float_To_Int_Chop
PUBLIC	?Float_To_Int_Floor@WWMath@@SAHABM@Z		; WWMath::Float_To_Int_Floor
PUBLIC	?Cos@WWMath@@SAMM@Z				; WWMath::Cos
PUBLIC	?Sin@WWMath@@SAMM@Z				; WWMath::Sin
PUBLIC	?Sqrt@WWMath@@SAMM@Z				; WWMath::Sqrt
PUBLIC	?Inv_Sqrt@WWMath@@SIMM@Z			; WWMath::Inv_Sqrt
PUBLIC	?Float_To_Long@WWMath@@SAJM@Z			; WWMath::Float_To_Long
PUBLIC	?Fast_Sin@WWMath@@SAMM@Z			; WWMath::Fast_Sin
PUBLIC	?Fast_Inv_Sin@WWMath@@SAMM@Z			; WWMath::Fast_Inv_Sin
PUBLIC	?Fast_Cos@WWMath@@SAMM@Z			; WWMath::Fast_Cos
PUBLIC	?Fast_Inv_Cos@WWMath@@SAMM@Z			; WWMath::Fast_Inv_Cos
PUBLIC	?Fast_Acos@WWMath@@SAMM@Z			; WWMath::Fast_Acos
PUBLIC	?Fast_Asin@WWMath@@SAMM@Z			; WWMath::Fast_Asin
PUBLIC	?Acos@WWMath@@SAMM@Z				; WWMath::Acos
PUBLIC	?Asin@WWMath@@SAMM@Z				; WWMath::Asin
PUBLIC	?Atan@WWMath@@SAMM@Z				; WWMath::Atan
PUBLIC	?Atan2@WWMath@@SAMMM@Z				; WWMath::Atan2
PUBLIC	?Sign@WWMath@@SAMM@Z				; WWMath::Sign
PUBLIC	?Ceil@WWMath@@SAMM@Z				; WWMath::Ceil
PUBLIC	?Floor@WWMath@@SAMM@Z				; WWMath::Floor
PUBLIC	?Fast_Is_Float_Positive@WWMath@@SA_NABM@Z	; WWMath::Fast_Is_Float_Positive
PUBLIC	?Random_Float@WWMath@@SAMMM@Z			; WWMath::Random_Float
PUBLIC	?Clamp@WWMath@@SAMMMM@Z				; WWMath::Clamp
PUBLIC	?Clamp@WWMath@@SANNNN@Z				; WWMath::Clamp
PUBLIC	?Clamp_Int@WWMath@@SAHHHH@Z			; WWMath::Clamp_Int
PUBLIC	?Wrap@WWMath@@SAMMMM@Z				; WWMath::Wrap
PUBLIC	?Wrap@WWMath@@SANNNN@Z				; WWMath::Wrap
PUBLIC	?Min@WWMath@@SAMMM@Z				; WWMath::Min
PUBLIC	?Max@WWMath@@SAMMM@Z				; WWMath::Max
PUBLIC	?Lerp@WWMath@@SAMMMM@Z				; WWMath::Lerp
PUBLIC	?Lerp@WWMath@@SANNNM@Z				; WWMath::Lerp
PUBLIC	?Lerp@WWMath@@SAHHHM@Z				; WWMath::Lerp
PUBLIC	?Float_To_Long@WWMath@@SAJN@Z			; WWMath::Float_To_Long
PUBLIC	?Unit_Float_To_Byte@WWMath@@SAEM@Z		; WWMath::Unit_Float_To_Byte
PUBLIC	?Byte_To_Unit_Float@WWMath@@SAME@Z		; WWMath::Byte_To_Unit_Float
PUBLIC	?Is_Valid_Float@WWMath@@SA_NM@Z			; WWMath::Is_Valid_Float
PUBLIC	?Is_Valid_Double@WWMath@@SA_NN@Z		; WWMath::Is_Valid_Double
PUBLIC	??4WWMath@@QAEAAV0@ABV0@@Z			; WWMath::operator=
PUBLIC	??B?$RefArrayHelper@M$0EAA@@@QAEPAMXZ		; RefArrayHelper<float,1024>::operator float *
PUBLIC	??0Vector3@@QAE@XZ				; Vector3::Vector3
PUBLIC	??0Vector3@@QAE@ABV0@@Z				; Vector3::Vector3
PUBLIC	??0Vector3@@QAE@MMM@Z				; Vector3::Vector3
PUBLIC	??4Vector3@@QAEAAV0@ABV0@@Z			; Vector3::operator=
PUBLIC	?Set@Vector3@@QAEXMMM@Z				; Vector3::Set
PUBLIC	??AVector3@@QAEAAMH@Z				; Vector3::operator[]
PUBLIC	??AVector3@@QBEABMH@Z				; Vector3::operator[]
PUBLIC	?Normalize@Vector3@@QAEXXZ			; Vector3::Normalize
PUBLIC	?Length@Vector3@@QBEMXZ				; Vector3::Length
PUBLIC	?Length2@Vector3@@QBEMXZ			; Vector3::Length2
PUBLIC	??YVector3@@QAEAAV0@ABV0@@Z			; Vector3::operator+=
PUBLIC	??ZVector3@@QAEAAV0@ABV0@@Z			; Vector3::operator-=
PUBLIC	??XVector3@@QAEAAV0@M@Z				; Vector3::operator*=
PUBLIC	??_0Vector3@@QAEAAV0@M@Z			; Vector3::operator/=
PUBLIC	??D@YA?AVVector3@@ABV0@M@Z			; operator*
PUBLIC	??D@YA?AVVector3@@MABV0@@Z			; operator*
PUBLIC	??H@YA?AVVector3@@ABV0@0@Z			; operator+
PUBLIC	??G@YA?AVVector3@@ABV0@0@Z			; operator-
PUBLIC	?Add@Vector3@@SAXABV1@0PAV1@@Z			; Vector3::Add
PUBLIC	?Subtract@Vector3@@SAXABV1@0PAV1@@Z		; Vector3::Subtract
PUBLIC	?Swap@@YAXAAVVector3@@0@Z			; Swap
PUBLIC	??0GameObjObserverClass@@QAE@XZ			; GameObjObserverClass::GameObjObserverClass
PUBLIC	??1GameObjObserverClass@@UAE@XZ			; GameObjObserverClass::~GameObjObserverClass
PUBLIC	?Set_ID@GameObjObserverClass@@QAEXH@Z		; GameObjObserverClass::Set_ID
PUBLIC	?Get_ID@GameObjObserverClass@@QAEHXZ		; GameObjObserverClass::Get_ID
PUBLIC	?Owner@GameObjObserverClass@@UAEPAVScriptableGameObj@@XZ ; GameObjObserverClass::Owner
PUBLIC	??0GameObjObserverClass@@QAE@ABV0@@Z		; GameObjObserverClass::GameObjObserverClass
PUBLIC	??4GameObjObserverClass@@QAEAAV0@ABV0@@Z	; GameObjObserverClass::operator=
PUBLIC	??_GGameObjObserverClass@@UAEPAXI@Z		; GameObjObserverClass::`scalar deleting destructor'
PUBLIC	??_EGameObjObserverClass@@UAEPAXI@Z		; GameObjObserverClass::`vector deleting destructor'
PUBLIC	??1ScriptClass@@UAE@XZ				; ScriptClass::~ScriptClass
PUBLIC	??0ScriptClass@@QAE@XZ				; ScriptClass::ScriptClass
PUBLIC	??0ScriptClass@@QAE@ABV0@@Z			; ScriptClass::ScriptClass
PUBLIC	??4ScriptClass@@QAEAAV0@ABV0@@Z			; ScriptClass::operator=
PUBLIC	??_GScriptClass@@UAEPAXI@Z			; ScriptClass::`scalar deleting destructor'
PUBLIC	??_EScriptClass@@UAEPAXI@Z			; ScriptClass::`vector deleting destructor'
PUBLIC	?SetFactory@ScriptImpClass@@QAEXPAVScriptFactory@@@Z ; ScriptImpClass::SetFactory
PUBLIC	?Created@ScriptImpClass@@UAEXPAVScriptableGameObj@@@Z ; ScriptImpClass::Created
PUBLIC	?Destroyed@ScriptImpClass@@UAEXPAVScriptableGameObj@@@Z ; ScriptImpClass::Destroyed
PUBLIC	?Killed@ScriptImpClass@@UAEXPAVScriptableGameObj@@0@Z ; ScriptImpClass::Killed
PUBLIC	?Damaged@ScriptImpClass@@UAEXPAVScriptableGameObj@@0M@Z ; ScriptImpClass::Damaged
PUBLIC	?Custom@ScriptImpClass@@UAEXPAVScriptableGameObj@@HH0@Z ; ScriptImpClass::Custom
PUBLIC	?Sound_Heard@ScriptImpClass@@UAEXPAVScriptableGameObj@@ABUCombatSound@@@Z ; ScriptImpClass::Sound_Heard
PUBLIC	?Enemy_Seen@ScriptImpClass@@UAEXPAVScriptableGameObj@@0@Z ; ScriptImpClass::Enemy_Seen
PUBLIC	?Action_Complete@ScriptImpClass@@UAEXPAVScriptableGameObj@@HW4ActionCompleteReason@@@Z ; ScriptImpClass::Action_Complete
PUBLIC	?Timer_Expired@ScriptImpClass@@UAEXPAVScriptableGameObj@@H@Z ; ScriptImpClass::Timer_Expired
PUBLIC	?Animation_Complete@ScriptImpClass@@UAEXPAVScriptableGameObj@@PBD@Z ; ScriptImpClass::Animation_Complete
PUBLIC	?Poked@ScriptImpClass@@UAEXPAVScriptableGameObj@@0@Z ; ScriptImpClass::Poked
PUBLIC	?Entered@ScriptImpClass@@UAEXPAVScriptableGameObj@@0@Z ; ScriptImpClass::Entered
PUBLIC	?Exited@ScriptImpClass@@UAEXPAVScriptableGameObj@@0@Z ; ScriptImpClass::Exited
PUBLIC	?Owner@ScriptImpClass@@UAEPAVScriptableGameObj@@XZ ; ScriptImpClass::Owner
PUBLIC	?Get_Owner_Ptr@ScriptImpClass@@UAEPAPAVScriptableGameObj@@XZ ; ScriptImpClass::Get_Owner_Ptr
PUBLIC	?Save_Data@ScriptImpClass@@UAEXAAVScriptSaver@@@Z ; ScriptImpClass::Save_Data
PUBLIC	?Load_Data@ScriptImpClass@@UAEXAAVScriptLoader@@@Z ; ScriptImpClass::Load_Data
PUBLIC	?Register_Auto_Save_Variables@ScriptImpClass@@UAEXXZ ; ScriptImpClass::Register_Auto_Save_Variables
PUBLIC	?Get_Parameter_Count@ScriptImpClass@@QAEHXZ	; ScriptImpClass::Get_Parameter_Count
PUBLIC	?Get_Int_Parameter@ScriptImpClass@@QAEHH@Z	; ScriptImpClass::Get_Int_Parameter
PUBLIC	?Get_Float_Parameter@ScriptImpClass@@QAEMH@Z	; ScriptImpClass::Get_Float_Parameter
PUBLIC	?Get_Bool_Parameter@ScriptImpClass@@QAE_NPBD@Z	; ScriptImpClass::Get_Bool_Parameter
PUBLIC	?Get_Bool_Parameter@ScriptImpClass@@QAE_NH@Z	; ScriptImpClass::Get_Bool_Parameter
PUBLIC	??0ScriptImpClass@@QAE@ABV0@@Z			; ScriptImpClass::ScriptImpClass
PUBLIC	??4ScriptImpClass@@QAEAAV0@ABV0@@Z		; ScriptImpClass::operator=
PUBLIC	??_GScriptImpClass@@UAEPAXI@Z			; ScriptImpClass::`scalar deleting destructor'
PUBLIC	??_EScriptImpClass@@UAEPAXI@Z			; ScriptImpClass::`vector deleting destructor'
PUBLIC	??0ScriptFactory@@QAE@ABV0@@Z			; ScriptFactory::ScriptFactory
PUBLIC	??4ScriptFactory@@QAEAAV0@ABV0@@Z		; ScriptFactory::operator=
PUBLIC	??_GScriptFactory@@UAEPAXI@Z			; ScriptFactory::`scalar deleting destructor'
PUBLIC	??_EScriptFactory@@UAEPAXI@Z			; ScriptFactory::`vector deleting destructor'
PUBLIC	??4ScriptRegistrar@@QAEAAV0@ABV0@@Z		; ScriptRegistrar::operator=
PUBLIC	?Is_Running@ThreadClass@@QAE_NXZ		; ThreadClass::Is_Running
PUBLIC	?Get_Current_Thread_ID@ThreadClass@@SAHXZ	; ThreadClass::Get_Current_Thread_ID
PUBLIC	?Get_Name@ThreadClass@@QAEPBDXZ			; ThreadClass::Get_Name
PUBLIC	??0ThreadClass@@QAE@ABV0@@Z			; ThreadClass::ThreadClass
PUBLIC	??4ThreadClass@@QAEAAV0@ABV0@@Z			; ThreadClass::operator=
PUBLIC	??_GThreadClass@@UAEPAXI@Z			; ThreadClass::`scalar deleting destructor'
PUBLIC	??_EThreadClass@@UAEPAXI@Z			; ThreadClass::`vector deleting destructor'
PUBLIC	??4CriticalSectionClass@@QAEAAV0@ABV0@@Z	; CriticalSectionClass::operator=
PUBLIC	?Enter@FastCriticalSectionClass@@AAEXXZ		; FastCriticalSectionClass::Enter
PUBLIC	?Leave@FastCriticalSectionClass@@AAEXXZ		; FastCriticalSectionClass::Leave
PUBLIC	??0LockClass@FastCriticalSectionClass@@QAE@AAV1@@Z ; FastCriticalSectionClass::LockClass::LockClass
PUBLIC	??1LockClass@FastCriticalSectionClass@@QAE@XZ	; FastCriticalSectionClass::LockClass::~LockClass
PUBLIC	??0FastCriticalSectionClass@@QAE@XZ		; FastCriticalSectionClass::FastCriticalSectionClass
PUBLIC	?Release_Ref@RefCountClass@@QAEXXZ		; RefCountClass::Release_Ref
PUBLIC	??0StringClass@@QAE@H_N@Z			; StringClass::StringClass
PUBLIC	??0StringClass@@QAE@ABV0@_N@Z			; StringClass::StringClass
PUBLIC	??0StringClass@@QAE@PBD_N@Z			; StringClass::StringClass
PUBLIC	??1StringClass@@QAE@XZ				; StringClass::~StringClass
PUBLIC	??8StringClass@@QBE_NPBD@Z			; StringClass::operator==
PUBLIC	??9StringClass@@QBE_NPBD@Z			; StringClass::operator!=
PUBLIC	??4StringClass@@QAEABV0@PBD@Z			; StringClass::operator=
PUBLIC	??4StringClass@@QAEABV0@ABV0@@Z			; StringClass::operator=
PUBLIC	??YStringClass@@QAEABV0@PBD@Z			; StringClass::operator+=
PUBLIC	??YStringClass@@QAEABV0@ABV0@@Z			; StringClass::operator+=
PUBLIC	??BStringClass@@QBEPBDXZ			; StringClass::operator char const *
PUBLIC	?Compare@StringClass@@QBEHPBD@Z			; StringClass::Compare
PUBLIC	?Get_Length@StringClass@@QBEHXZ			; StringClass::Get_Length
PUBLIC	?Peek_Buffer@StringClass@@QAEPADXZ		; StringClass::Peek_Buffer
PUBLIC	?Store_Length@StringClass@@AAEXH@Z		; StringClass::Store_Length
PUBLIC	?Get_Header@StringClass@@ABEPAU_HEADER@1@XZ	; StringClass::Get_Header
PUBLIC	??_FStringClass@@QAEXXZ				; StringClass::`default constructor closure'
PUBLIC	??_EStringClass@@QAEPAXI@Z			; StringClass::`vector deleting destructor'
PUBLIC	??0WideStringClass@@QAE@H_N@Z			; WideStringClass::WideStringClass
PUBLIC	??0WideStringClass@@QAE@PB_W_N@Z		; WideStringClass::WideStringClass
PUBLIC	??0WideStringClass@@QAE@PBD_N@Z			; WideStringClass::WideStringClass
PUBLIC	??1WideStringClass@@QAE@XZ			; WideStringClass::~WideStringClass
PUBLIC	??8WideStringClass@@QBE_NPB_W@Z			; WideStringClass::operator==
PUBLIC	??9WideStringClass@@QBE_NPB_W@Z			; WideStringClass::operator!=
PUBLIC	??4WideStringClass@@QAEABV0@ABV0@@Z		; WideStringClass::operator=
PUBLIC	??4WideStringClass@@QAEABV0@PB_W@Z		; WideStringClass::operator=
PUBLIC	??4WideStringClass@@QAEABV0@PBD@Z		; WideStringClass::operator=
PUBLIC	??AWideStringClass@@QAEAA_WH@Z			; WideStringClass::operator[]
PUBLIC	??BWideStringClass@@QBEPB_WXZ			; WideStringClass::operator wchar_t const *
PUBLIC	?Compare@WideStringClass@@QBEHPB_W@Z		; WideStringClass::Compare
PUBLIC	?Get_Length@WideStringClass@@QBEHXZ		; WideStringClass::Get_Length
PUBLIC	?Is_Empty@WideStringClass@@QBE_NXZ		; WideStringClass::Is_Empty
PUBLIC	?Erase@WideStringClass@@QAEXHH@Z		; WideStringClass::Erase
PUBLIC	?Peek_Buffer@WideStringClass@@QAEPA_WXZ		; WideStringClass::Peek_Buffer
PUBLIC	?TruncateLeft@WideStringClass@@QAEXI@Z		; WideStringClass::TruncateLeft
PUBLIC	?Store_Length@WideStringClass@@AAEXH@Z		; WideStringClass::Store_Length
PUBLIC	?Get_Header@WideStringClass@@ABEPAU_HEADER@1@XZ	; WideStringClass::Get_Header
PUBLIC	??_FWideStringClass@@QAEXXZ			; WideStringClass::`default constructor closure'
PUBLIC	??_EWideStringClass@@QAEPAXI@Z			; WideStringClass::`vector deleting destructor'
PUBLIC	??4ChunkLoadClass@@QAEAAV0@ABV0@@Z		; ChunkLoadClass::operator=
PUBLIC	?Set_Contains_Chunks@ChunkSaveClass@@QAEXXZ	; ChunkSaveClass::Set_Contains_Chunks
PUBLIC	??4ChunkSaveClass@@QAEAAV0@ABV0@@Z		; ChunkSaveClass::operator=
PUBLIC	?Is_Present@INIClass@@QBE_NPBD0@Z		; INIClass::Is_Present
PUBLIC	?Section_Present@INIClass@@QBE_NPBD@Z		; INIClass::Section_Present
PUBLIC	?Get_Section_List@INIClass@@QAEAAV?$List@PAUINISection@@@@XZ ; INIClass::Get_Section_List
PUBLIC	?Get_Section_Index@INIClass@@QAEAAV?$IndexClass@HPAUINISection@@@@XZ ; INIClass::Get_Section_Index
PUBLIC	?Get_File_Name@INIClass@@QAEPBDXZ		; INIClass::Get_File_Name
PUBLIC	??0INIClass@@QAE@ABV0@@Z			; INIClass::INIClass
PUBLIC	??4INIClass@@QAEAAV0@ABV0@@Z			; INIClass::operator=
PUBLIC	??_GINIClass@@UAEPAXI@Z				; INIClass::`scalar deleting destructor'
PUBLIC	??_EINIClass@@UAEPAXI@Z				; INIClass::`vector deleting destructor'
PUBLIC	??Cfile_auto_ptr@@QAEPAVFileClass@@XZ		; file_auto_ptr::operator->
PUBLIC	??Bfile_auto_ptr@@QAEPAVFileClass@@XZ		; file_auto_ptr::operator FileClass *
PUBLIC	??Dfile_auto_ptr@@QAEAAVFileClass@@XZ		; file_auto_ptr::operator*
PUBLIC	?get@file_auto_ptr@@QAEPAVFileClass@@XZ		; file_auto_ptr::get
PUBLIC	??4file_auto_ptr@@QAEAAV0@ABV0@@Z		; file_auto_ptr::operator=
PUBLIC	??0Vector4@@QAE@XZ				; Vector4::Vector4
PUBLIC	??0Vector4@@QAE@MMMM@Z				; Vector4::Vector4
PUBLIC	??4Vector4@@QAEAAV0@ABV0@@Z			; Vector4::operator=
PUBLIC	?Set@Vector4@@QAEXMMMM@Z			; Vector4::Set
PUBLIC	??AVector4@@QAEAAMH@Z				; Vector4::operator[]
PUBLIC	??AVector4@@QBEABMH@Z				; Vector4::operator[]
PUBLIC	??YVector4@@QAEAAV0@ABV0@@Z			; Vector4::operator+=
PUBLIC	??ZVector4@@QAEAAV0@ABV0@@Z			; Vector4::operator-=
PUBLIC	??XVector4@@QAEAAV0@M@Z				; Vector4::operator*=
PUBLIC	??AMatrix3D@@QAEAAVVector4@@H@Z			; Matrix3D::operator[]
PUBLIC	??AMatrix3D@@QBEABVVector4@@H@Z			; Matrix3D::operator[]
PUBLIC	??0Matrix3D@@QAE@_N@Z				; Matrix3D::Matrix3D
PUBLIC	??0Matrix3D@@QAE@QAM@Z				; Matrix3D::Matrix3D
PUBLIC	??0Matrix3D@@QAE@ABVVector3@@000@Z		; Matrix3D::Matrix3D
PUBLIC	??0Matrix3D@@QAE@ABVVector3@@M@Z		; Matrix3D::Matrix3D
PUBLIC	??0Matrix3D@@QAE@ABVVector3@@MM@Z		; Matrix3D::Matrix3D
PUBLIC	??0Matrix3D@@QAE@ABVMatrix3@@ABVVector3@@@Z	; Matrix3D::Matrix3D
PUBLIC	??0Matrix3D@@QAE@ABVQuaternion@@ABVVector3@@@Z	; Matrix3D::Matrix3D
PUBLIC	??0Matrix3D@@QAE@ABVVector3@@@Z			; Matrix3D::Matrix3D
PUBLIC	??0Matrix3D@@QAE@ABV0@@Z			; Matrix3D::Matrix3D
PUBLIC	??4Matrix3D@@QAEAAV0@ABV0@@Z			; Matrix3D::operator=
PUBLIC	?Set@Matrix3D@@QAEXQAM@Z			; Matrix3D::Set
PUBLIC	?Set@Matrix3D@@QAEXMMMMMMMMMMMM@Z		; Matrix3D::Set
PUBLIC	?Set@Matrix3D@@QAEXABVVector3@@000@Z		; Matrix3D::Set
PUBLIC	?Set@Matrix3D@@QAEXABVVector3@@M@Z		; Matrix3D::Set
PUBLIC	?Set@Matrix3D@@QAEXABVVector3@@MM@Z		; Matrix3D::Set
PUBLIC	?Set@Matrix3D@@QAEXABVVector3@@@Z		; Matrix3D::Set
PUBLIC	?Get_Translation@Matrix3D@@QBE?AVVector3@@XZ	; Matrix3D::Get_Translation
PUBLIC	?Get_Translation@Matrix3D@@QBEXPAVVector3@@@Z	; Matrix3D::Get_Translation
PUBLIC	?Set_Translation@Matrix3D@@QAEXABVVector3@@@Z	; Matrix3D::Set_Translation
PUBLIC	?Get_X_Translation@Matrix3D@@QBEMXZ		; Matrix3D::Get_X_Translation
PUBLIC	?Get_Y_Translation@Matrix3D@@QBEMXZ		; Matrix3D::Get_Y_Translation
PUBLIC	?Get_Z_Translation@Matrix3D@@QBEMXZ		; Matrix3D::Get_Z_Translation
PUBLIC	?Set_X_Translation@Matrix3D@@QAEXM@Z		; Matrix3D::Set_X_Translation
PUBLIC	?Set_Y_Translation@Matrix3D@@QAEXM@Z		; Matrix3D::Set_Y_Translation
PUBLIC	?Set_Z_Translation@Matrix3D@@QAEXM@Z		; Matrix3D::Set_Z_Translation
PUBLIC	?Adjust_Translation@Matrix3D@@QAEXABVVector3@@@Z ; Matrix3D::Adjust_Translation
PUBLIC	?Adjust_X_Translation@Matrix3D@@QAEXM@Z		; Matrix3D::Adjust_X_Translation
PUBLIC	?Adjust_Y_Translation@Matrix3D@@QAEXM@Z		; Matrix3D::Adjust_Y_Translation
PUBLIC	?Adjust_Z_Translation@Matrix3D@@QAEXM@Z		; Matrix3D::Adjust_Z_Translation
PUBLIC	?Make_Identity@Matrix3D@@QAEXXZ			; Matrix3D::Make_Identity
PUBLIC	?Translate@Matrix3D@@QAEXMMM@Z			; Matrix3D::Translate
PUBLIC	?Translate@Matrix3D@@QAEXABVVector3@@@Z		; Matrix3D::Translate
PUBLIC	?Translate_X@Matrix3D@@QAEXM@Z			; Matrix3D::Translate_X
PUBLIC	?Translate_Y@Matrix3D@@QAEXM@Z			; Matrix3D::Translate_Y
PUBLIC	?Translate_Z@Matrix3D@@QAEXM@Z			; Matrix3D::Translate_Z
PUBLIC	?Rotate_X@Matrix3D@@QAEXM@Z			; Matrix3D::Rotate_X
PUBLIC	?Rotate_Y@Matrix3D@@QAEXM@Z			; Matrix3D::Rotate_Y
PUBLIC	?Rotate_Z@Matrix3D@@QAEXM@Z			; Matrix3D::Rotate_Z
PUBLIC	?Rotate_X@Matrix3D@@QAEXMM@Z			; Matrix3D::Rotate_X
PUBLIC	?Rotate_Y@Matrix3D@@QAEXMM@Z			; Matrix3D::Rotate_Y
PUBLIC	?Rotate_Z@Matrix3D@@QAEXMM@Z			; Matrix3D::Rotate_Z
PUBLIC	?Scale@Matrix3D@@QAEXM@Z			; Matrix3D::Scale
PUBLIC	?Scale@Matrix3D@@QAEXMMM@Z			; Matrix3D::Scale
PUBLIC	?Scale@Matrix3D@@QAEXAAVVector3@@@Z		; Matrix3D::Scale
PUBLIC	?Pre_Rotate_X@Matrix3D@@QAEXM@Z			; Matrix3D::Pre_Rotate_X
PUBLIC	?Pre_Rotate_Y@Matrix3D@@QAEXM@Z			; Matrix3D::Pre_Rotate_Y
PUBLIC	?Pre_Rotate_Z@Matrix3D@@QAEXM@Z			; Matrix3D::Pre_Rotate_Z
PUBLIC	?Pre_Rotate_X@Matrix3D@@QAEXMM@Z		; Matrix3D::Pre_Rotate_X
PUBLIC	?Pre_Rotate_Y@Matrix3D@@QAEXMM@Z		; Matrix3D::Pre_Rotate_Y
PUBLIC	?Pre_Rotate_Z@Matrix3D@@QAEXMM@Z		; Matrix3D::Pre_Rotate_Z
PUBLIC	?In_Place_Pre_Rotate_X@Matrix3D@@QAEXM@Z	; Matrix3D::In_Place_Pre_Rotate_X
PUBLIC	?In_Place_Pre_Rotate_Y@Matrix3D@@QAEXM@Z	; Matrix3D::In_Place_Pre_Rotate_Y
PUBLIC	?In_Place_Pre_Rotate_Z@Matrix3D@@QAEXM@Z	; Matrix3D::In_Place_Pre_Rotate_Z
PUBLIC	?In_Place_Pre_Rotate_X@Matrix3D@@QAEXMM@Z	; Matrix3D::In_Place_Pre_Rotate_X
PUBLIC	?In_Place_Pre_Rotate_Y@Matrix3D@@QAEXMM@Z	; Matrix3D::In_Place_Pre_Rotate_Y
PUBLIC	?In_Place_Pre_Rotate_Z@Matrix3D@@QAEXMM@Z	; Matrix3D::In_Place_Pre_Rotate_Z
PUBLIC	?Transform_Vector@Matrix3D@@SAXABV1@ABVVector3@@PAV2@@Z ; Matrix3D::Transform_Vector
PUBLIC	?Get_X_Vector@Matrix3D@@QBE?AVVector3@@XZ	; Matrix3D::Get_X_Vector
PUBLIC	?Get_Y_Vector@Matrix3D@@QBE?AVVector3@@XZ	; Matrix3D::Get_Y_Vector
PUBLIC	?Get_Z_Vector@Matrix3D@@QBE?AVVector3@@XZ	; Matrix3D::Get_Z_Vector
PUBLIC	?Get_X_Vector@Matrix3D@@QBEXPAVVector3@@@Z	; Matrix3D::Get_X_Vector
PUBLIC	?Get_Y_Vector@Matrix3D@@QBEXPAVVector3@@@Z	; Matrix3D::Get_Y_Vector
PUBLIC	?Get_Z_Vector@Matrix3D@@QBEXPAVVector3@@@Z	; Matrix3D::Get_Z_Vector
PUBLIC	?Rotate_Vector@Matrix3D@@SAXABV1@ABVVector3@@PAV2@@Z ; Matrix3D::Rotate_Vector
PUBLIC	?Inverse_Transform_Vector@Matrix3D@@SAXABV1@ABVVector3@@PAV2@@Z ; Matrix3D::Inverse_Transform_Vector
PUBLIC	?Inverse_Rotate_Vector@Matrix3D@@SAXABV1@ABVVector3@@PAV2@@Z ; Matrix3D::Inverse_Rotate_Vector
PUBLIC	??0Matrix4@@QAE@XZ				; Matrix4::Matrix4
PUBLIC	??0Matrix4@@QAE@ABV0@@Z				; Matrix4::Matrix4
PUBLIC	??0Matrix4@@QAE@_N@Z				; Matrix4::Matrix4
PUBLIC	??0Matrix4@@QAE@ABVMatrix3D@@@Z			; Matrix4::Matrix4
PUBLIC	??0Matrix4@@QAE@ABVVector4@@000@Z		; Matrix4::Matrix4
PUBLIC	?Make_Identity@Matrix4@@QAEXXZ			; Matrix4::Make_Identity
PUBLIC	?Init@Matrix4@@QAEXABVMatrix3D@@@Z		; Matrix4::Init
PUBLIC	?Init@Matrix4@@QAEXABVVector4@@000@Z		; Matrix4::Init
PUBLIC	?Init_Ortho_OGL@Matrix4@@QAEXMMMMMM@Z		; Matrix4::Init_Ortho_OGL
PUBLIC	?Init_Perspective_OGL@Matrix4@@QAEXMMMM@Z	; Matrix4::Init_Perspective_OGL
PUBLIC	?Init_Perspective_OGL@Matrix4@@QAEXMMMMMM@Z	; Matrix4::Init_Perspective_OGL
PUBLIC	?Init_Ortho@Matrix4@@QAEXMMMMMM@Z		; Matrix4::Init_Ortho
PUBLIC	?Init_Perspective@Matrix4@@QAEXMMMMMM@Z		; Matrix4::Init_Perspective
PUBLIC	??AMatrix4@@QAEAAVVector4@@H@Z			; Matrix4::operator[]
PUBLIC	??AMatrix4@@QBEABVVector4@@H@Z			; Matrix4::operator[]
PUBLIC	?Transpose@Matrix4@@QBE?AV1@XZ			; Matrix4::Transpose
PUBLIC	?Determinant@Matrix4@@QBEMXZ			; Matrix4::Determinant
PUBLIC	?Inverse@Matrix4@@QBE?AV1@XZ			; Matrix4::Inverse
PUBLIC	??4Matrix4@@QAEAAV0@ABV0@@Z			; Matrix4::operator=
PUBLIC	??YMatrix4@@QAEAAV0@ABV0@@Z			; Matrix4::operator+=
PUBLIC	??ZMatrix4@@QAEAAV0@ABV0@@Z			; Matrix4::operator-=
PUBLIC	??XMatrix4@@QAEAAV0@M@Z				; Matrix4::operator*=
PUBLIC	??_0Matrix4@@QAEAAV0@M@Z			; Matrix4::operator/=
PUBLIC	?Transform_Vector@Matrix4@@SAXABV1@ABVVector3@@PAV2@@Z ; Matrix4::Transform_Vector
PUBLIC	?Transform_Vector@Matrix4@@SAXABV1@ABVVector3@@PAVVector4@@@Z ; Matrix4::Transform_Vector
PUBLIC	?Transform_Vector@Matrix4@@SAXABV1@ABVVector4@@PAV2@@Z ; Matrix4::Transform_Vector
PUBLIC	??0Matrix3@@QAE@XZ				; Matrix3::Matrix3
PUBLIC	??0Matrix3@@QAE@ABV0@@Z				; Matrix3::Matrix3
PUBLIC	??0Matrix3@@QAE@_N@Z				; Matrix3::Matrix3
PUBLIC	??0Matrix3@@QAE@ABVVector3@@00@Z		; Matrix3::Matrix3
PUBLIC	??0Matrix3@@QAE@MMMMMMMMM@Z			; Matrix3::Matrix3
PUBLIC	??0Matrix3@@QAE@ABVVector3@@M@Z			; Matrix3::Matrix3
PUBLIC	??0Matrix3@@QAE@ABVVector3@@MM@Z		; Matrix3::Matrix3
PUBLIC	??0Matrix3@@QAE@ABVQuaternion@@@Z		; Matrix3::Matrix3
PUBLIC	?Set@Matrix3@@QAEXABVVector3@@00@Z		; Matrix3::Set
PUBLIC	?Set@Matrix3@@QAEXMMMMMMMMM@Z			; Matrix3::Set
PUBLIC	?Set@Matrix3@@QAEXABVVector3@@M@Z		; Matrix3::Set
PUBLIC	?Set@Matrix3@@QAEXABVVector3@@MM@Z		; Matrix3::Set
PUBLIC	??AMatrix3@@QAEAAVVector3@@H@Z			; Matrix3::operator[]
PUBLIC	??AMatrix3@@QBEABVVector3@@H@Z			; Matrix3::operator[]
PUBLIC	?Transpose@Matrix3@@QBE?AV1@XZ			; Matrix3::Transpose
PUBLIC	?Determinant@Matrix3@@QBEMXZ			; Matrix3::Determinant
PUBLIC	??4Matrix3@@QAEAAV0@ABV0@@Z			; Matrix3::operator=
PUBLIC	??YMatrix3@@QAEAAV0@ABV0@@Z			; Matrix3::operator+=
PUBLIC	??ZMatrix3@@QAEAAV0@ABV0@@Z			; Matrix3::operator-=
PUBLIC	??XMatrix3@@QAEAAV0@M@Z				; Matrix3::operator*=
PUBLIC	??_0Matrix3@@QAEAAV0@M@Z			; Matrix3::operator/=
PUBLIC	?Make_Identity@Matrix3@@QAEXXZ			; Matrix3::Make_Identity
PUBLIC	?Rotate_X@Matrix3@@QAEXM@Z			; Matrix3::Rotate_X
PUBLIC	?Rotate_X@Matrix3@@QAEXMM@Z			; Matrix3::Rotate_X
PUBLIC	?Rotate_Y@Matrix3@@QAEXM@Z			; Matrix3::Rotate_Y
PUBLIC	?Rotate_Y@Matrix3@@QAEXMM@Z			; Matrix3::Rotate_Y
PUBLIC	?Rotate_Z@Matrix3@@QAEXM@Z			; Matrix3::Rotate_Z
PUBLIC	?Rotate_Z@Matrix3@@QAEXMM@Z			; Matrix3::Rotate_Z
PUBLIC	?Get_X_Rotation@Matrix3@@QBEMXZ			; Matrix3::Get_X_Rotation
PUBLIC	?Get_Y_Rotation@Matrix3@@QBEMXZ			; Matrix3::Get_Y_Rotation
PUBLIC	?Get_Z_Rotation@Matrix3@@QBEMXZ			; Matrix3::Get_Z_Rotation
PUBLIC	?Get_X_Vector@Matrix3@@QBE?AVVector3@@XZ	; Matrix3::Get_X_Vector
PUBLIC	?Get_Y_Vector@Matrix3@@QBE?AVVector3@@XZ	; Matrix3::Get_Y_Vector
PUBLIC	?Get_Z_Vector@Matrix3@@QBE?AVVector3@@XZ	; Matrix3::Get_Z_Vector
PUBLIC	?Get_X_Vector@Matrix3@@QBEXPAVVector3@@@Z	; Matrix3::Get_X_Vector
PUBLIC	?Get_Y_Vector@Matrix3@@QBEXPAVVector3@@@Z	; Matrix3::Get_Y_Vector
PUBLIC	?Get_Z_Vector@Matrix3@@QBEXPAVVector3@@@Z	; Matrix3::Get_Z_Vector
PUBLIC	??D@YA?AVVector3@@ABVMatrix3@@ABV0@@Z		; operator*
PUBLIC	?Add@Matrix3@@SAXABV1@0PAV1@@Z			; Matrix3::Add
PUBLIC	?Subtract@Matrix3@@SAXABV1@0PAV1@@Z		; Matrix3::Subtract
PUBLIC	?Rotate_Vector@Matrix3@@SAXABV1@ABVVector3@@PAV2@@Z ; Matrix3::Rotate_Vector
PUBLIC	?Transpose_Rotate_Vector@Matrix3@@SAXABV1@ABVVector3@@PAV2@@Z ; Matrix3::Transpose_Rotate_Vector
PUBLIC	?Rotate_AABox_Extent@Matrix3@@QAEXABVVector3@@PAV2@@Z ; Matrix3::Rotate_AABox_Extent
PUBLIC	?Inverse@Matrix3@@QBE?AV1@XZ			; Matrix3::Inverse
PUBLIC	??4SysTimeClass@@QAEAAV0@ABV0@@Z		; SysTimeClass::operator=
PUBLIC	?Is_Valid@DataSafeHandleClass@@QBE_NXZ		; DataSafeHandleClass::Is_Valid
PUBLIC	??BDataSafeHandleClass@@QAEHXZ			; DataSafeHandleClass::operator int
PUBLIC	?Security_Check@GenericDataSafeClass@@KAXXZ	; GenericDataSafeClass::Security_Check
PUBLIC	?Security_Fault@GenericDataSafeClass@@KAXXZ	; GenericDataSafeClass::Security_Fault
PUBLIC	??B?$RefArray@PAVDataSafeEntryListClass@@$0CAAA@@@QAEPAPAVDataSafeEntryListClass@@XZ ; RefArray<DataSafeEntryListClass *,8192>::operator DataSafeEntryListClass * *
PUBLIC	?Get@?$DataSafeClass@H@@SA_NVDataSafeHandleClass@@AAPAH@Z ; DataSafeClass<int>::Get
PUBLIC	?Set@?$DataSafeClass@H@@SA_NVDataSafeHandleClass@@PAH@Z ; DataSafeClass<int>::Set
PUBLIC	??0PostLoadableClass@@QAE@XZ			; PostLoadableClass::PostLoadableClass
PUBLIC	??1PostLoadableClass@@UAE@XZ			; PostLoadableClass::~PostLoadableClass
PUBLIC	?On_Post_Load@PostLoadableClass@@UAEXXZ		; PostLoadableClass::On_Post_Load
PUBLIC	?Is_Post_Load_Registered@PostLoadableClass@@QBE_NXZ ; PostLoadableClass::Is_Post_Load_Registered
PUBLIC	?Set_Post_Load_Registered@PostLoadableClass@@QAEX_N@Z ; PostLoadableClass::Set_Post_Load_Registered
PUBLIC	??0PostLoadableClass@@QAE@ABV0@@Z		; PostLoadableClass::PostLoadableClass
PUBLIC	??4PostLoadableClass@@QAEAAV0@ABV0@@Z		; PostLoadableClass::operator=
PUBLIC	??_GPostLoadableClass@@UAEPAXI@Z		; PostLoadableClass::`scalar deleting destructor'
PUBLIC	??_EPostLoadableClass@@UAEPAXI@Z		; PostLoadableClass::`vector deleting destructor'
PUBLIC	??CReferencerClass@@QAEPAVScriptableGameObj@@XZ	; ReferencerClass::operator->
PUBLIC	??0ReferencerClass@@QAE@XZ			; ReferencerClass::ReferencerClass
PUBLIC	??0ReferencerClass@@QAE@PAVScriptableGameObj@@@Z ; ReferencerClass::ReferencerClass
PUBLIC	?Get_Ptr@ReferencerClass@@QBEPAVScriptableGameObj@@XZ ; ReferencerClass::Get_Ptr
PUBLIC	?Set_Ptr@ReferencerClass@@QAEXPAVScriptableGameObj@@@Z ; ReferencerClass::Set_Ptr
PUBLIC	??0ReferencerClass@@QAE@ABV0@@Z			; ReferencerClass::ReferencerClass
PUBLIC	??_GReferencerClass@@UAEPAXI@Z			; ReferencerClass::`scalar deleting destructor'
PUBLIC	??_EReferencerClass@@UAEPAXI@Z			; ReferencerClass::`vector deleting destructor'
PUBLIC	?Get_Data@?$ReferenceableClass@VScriptableGameObj@@@@IBEPAVScriptableGameObj@@XZ ; ReferenceableClass<ScriptableGameObj>::Get_Data
PUBLIC	??R?$SafeDataClass@M@@QBEAAMXZ			; SafeDataClass<float>::operator()
PUBLIC	??B?$SafeDataClass@M@@QBEMXZ			; SafeDataClass<float>::operator float
PUBLIC	??Y?$SafeDataClass@M@@QAEAAMABM@Z		; SafeDataClass<float>::operator+=
PUBLIC	??G?$SafeDataClass@M@@QAEAAMABM@Z		; SafeDataClass<float>::operator-
PUBLIC	??0?$VectorClass@VStringClass@@@@QAE@HPBVStringClass@@@Z ; VectorClass<StringClass>::VectorClass<StringClass>
PUBLIC	??1?$VectorClass@VStringClass@@@@UAE@XZ		; VectorClass<StringClass>::~VectorClass<StringClass>
PUBLIC	??A?$VectorClass@VStringClass@@@@QAEAAVStringClass@@H@Z ; VectorClass<StringClass>::operator[]
PUBLIC	??A?$VectorClass@VStringClass@@@@QBEABVStringClass@@H@Z ; VectorClass<StringClass>::operator[]
PUBLIC	??8?$VectorClass@VStringClass@@@@UBE_NABV0@@Z	; VectorClass<StringClass>::operator==
PUBLIC	?Resize@?$VectorClass@VStringClass@@@@UAE_NHPBVStringClass@@@Z ; VectorClass<StringClass>::Resize
PUBLIC	?Clear@?$VectorClass@VStringClass@@@@UAEXXZ	; VectorClass<StringClass>::Clear
PUBLIC	?Length@?$VectorClass@VStringClass@@@@QBEHXZ	; VectorClass<StringClass>::Length
PUBLIC	?ID@?$VectorClass@VStringClass@@@@UAEHPBVStringClass@@@Z ; VectorClass<StringClass>::ID
PUBLIC	?ID@?$VectorClass@VStringClass@@@@UAEHABVStringClass@@@Z ; VectorClass<StringClass>::ID
PUBLIC	??_G?$VectorClass@VStringClass@@@@UAEPAXI@Z	; VectorClass<StringClass>::`scalar deleting destructor'
PUBLIC	??0?$DynamicVectorClass@VStringClass@@@@QAE@IPBVStringClass@@@Z ; DynamicVectorClass<StringClass>::DynamicVectorClass<StringClass>
PUBLIC	?Resize@?$DynamicVectorClass@VStringClass@@@@UAE_NHPBVStringClass@@@Z ; DynamicVectorClass<StringClass>::Resize
PUBLIC	?Clear@?$DynamicVectorClass@VStringClass@@@@UAEXXZ ; DynamicVectorClass<StringClass>::Clear
PUBLIC	?Count@?$DynamicVectorClass@VStringClass@@@@QBEHXZ ; DynamicVectorClass<StringClass>::Count
PUBLIC	?Add@?$DynamicVectorClass@VStringClass@@@@QAE_N$$QAVStringClass@@@Z ; DynamicVectorClass<StringClass>::Add
PUBLIC	?ID@?$DynamicVectorClass@VStringClass@@@@UAEHPBVStringClass@@@Z ; DynamicVectorClass<StringClass>::ID
PUBLIC	?ID@?$DynamicVectorClass@VStringClass@@@@UAEHABVStringClass@@@Z ; DynamicVectorClass<StringClass>::ID
PUBLIC	??1?$DynamicVectorClass@VStringClass@@@@UAE@XZ	; DynamicVectorClass<StringClass>::~DynamicVectorClass<StringClass>
PUBLIC	??_G?$DynamicVectorClass@VStringClass@@@@UAEPAXI@Z ; DynamicVectorClass<StringClass>::`scalar deleting destructor'
PUBLIC	?Get_Defense_Object@DamageableGameObj@@QAEPAVDefenseObjectClass@@XZ ; DamageableGameObj::Get_Defense_Object
PUBLIC	??0LineSegClass@@QAE@XZ				; LineSegClass::LineSegClass
PUBLIC	??0LineSegClass@@QAE@ABVVector3@@0@Z		; LineSegClass::LineSegClass
PUBLIC	??0LineSegClass@@QAE@ABVVector3@@0M@Z		; LineSegClass::LineSegClass
PUBLIC	??0LineSegClass@@QAE@ABV0@ABVMatrix3D@@@Z	; LineSegClass::LineSegClass
PUBLIC	?Set@LineSegClass@@QAEXABVVector3@@0@Z		; LineSegClass::Set
PUBLIC	?Set@LineSegClass@@QAEXABVVector3@@0M@Z		; LineSegClass::Set
PUBLIC	?Get_P0@LineSegClass@@QBEABVVector3@@XZ		; LineSegClass::Get_P0
PUBLIC	?Get_P1@LineSegClass@@QBEABVVector3@@XZ		; LineSegClass::Get_P1
PUBLIC	?Get_DP@LineSegClass@@QBEABVVector3@@XZ		; LineSegClass::Get_DP
PUBLIC	?Get_Dir@LineSegClass@@QBEABVVector3@@XZ	; LineSegClass::Get_Dir
PUBLIC	?Get_Length@LineSegClass@@QBEMXZ		; LineSegClass::Get_Length
PUBLIC	?Compute_Point@LineSegClass@@QBEXMPAVVector3@@@Z ; LineSegClass::Compute_Point
PUBLIC	?recalculate@LineSegClass@@IAEXXZ		; LineSegClass::recalculate
PUBLIC	??0LineSegClass@@QAE@ABV0@@Z			; LineSegClass::LineSegClass
PUBLIC	??4LineSegClass@@QAEAAV0@ABV0@@Z		; LineSegClass::operator=
PUBLIC	?Get_Position@PhysClass@@QBEXPAVVector3@@@Z	; PhysClass::Get_Position
PUBLIC	?Peek_Physical_Object@PhysicalGameObj@@QBEPAVPhysClass@@XZ ; PhysicalGameObj::Peek_Physical_Object
PUBLIC	?Is_Attached_To_An_Object@PhysicalGameObj@@QAE_NXZ ; PhysicalGameObj::Is_Attached_To_An_Object
PUBLIC	?Get_Position@PhysicalGameObj@@QAE?AVVector3@@XZ ; PhysicalGameObj::Get_Position
PUBLIC	??R?$SafeDataClass@H@@QBEAAHXZ			; SafeDataClass<int>::operator()
PUBLIC	??B?$SafeDataClass@H@@QBEHXZ			; SafeDataClass<int>::operator int
PUBLIC	??9?$SafeDataClass@H@@QAE_NABH@Z		; SafeDataClass<int>::operator!=
PUBLIC	??E?$SafeDataClass@H@@QAEAAHXZ			; SafeDataClass<int>::operator++
PUBLIC	??F?$SafeDataClass@H@@QAEAAHXZ			; SafeDataClass<int>::operator--
PUBLIC	??E?$SafeDataClass@H@@QAEAAHH@Z			; SafeDataClass<int>::operator++
PUBLIC	??F?$SafeDataClass@H@@QAEAAHH@Z			; SafeDataClass<int>::operator--
PUBLIC	?Get_Weapon_Bag@ArmedGameObj@@QAEPAVWeaponBagClass@@XZ ; ArmedGameObj::Get_Weapon_Bag
PUBLIC	?Get_Player_Data@SmartGameObj@@QAEPAVPlayerDataClass@@XZ ; SmartGameObj::Get_Player_Data
PUBLIC	?Purchase_Item@PlayerDataClass@@QAE_NM@Z	; PlayerDataClass::Purchase_Item
PUBLIC	?Increment_Score@cPlayer@@UAEXM@Z		; cPlayer::Increment_Score
PUBLIC	?Get_Ip_Address@cPlayer@@QBEHXZ			; cPlayer::Get_Ip_Address
PUBLIC	?Increment_Kills@cPlayer@@QAEXXZ		; cPlayer::Increment_Kills
PUBLIC	?Increment_Deaths@cPlayer@@QAEXXZ		; cPlayer::Increment_Deaths
PUBLIC	?Decrement_Kills@cPlayer@@QAEXXZ		; cPlayer::Decrement_Kills
PUBLIC	?Decrement_Deaths@cPlayer@@QAEXXZ		; cPlayer::Decrement_Deaths
PUBLIC	?Get_Id@cPlayer@@QBEHXZ				; cPlayer::Get_Id
PUBLIC	?Mark_As_Modified@cPlayer@@QAEXXZ		; cPlayer::Mark_As_Modified
PUBLIC	?Get_Name@cPlayer@@QBEABVWideStringClass@@XZ	; cPlayer::Get_Name
PUBLIC	?Get_Player_Type@cPlayer@@QBEHXZ		; cPlayer::Get_Player_Type
PUBLIC	?Is_Alive_And_Kicking@cPlayer@@QBE_NXZ		; cPlayer::Is_Alive_And_Kicking
PUBLIC	?Set_DA_Player@cPlayer@@QAEXPAVDAPlayerClass@@@Z ; cPlayer::Set_DA_Player
PUBLIC	?Get_DA_Player@cPlayer@@QAEPAVDAPlayerClass@@XZ	; cPlayer::Get_DA_Player
PUBLIC	?Get_GameObj@cPlayer@@QBEPAVSoldierGameObj@@XZ	; cPlayer::Get_GameObj
PUBLIC	?Destroy_GameObj@cPlayer@@QAE_NXZ		; cPlayer::Destroy_GameObj
PUBLIC	?Get_Current_Players@cGameData@@QBEHXZ		; cGameData::Get_Current_Players
PUBLIC	?Get_Max_Players@cGameData@@QBEHXZ		; cGameData::Get_Max_Players
PUBLIC	?Get_Password@cGameData@@QBEPB_WXZ		; cGameData::Get_Password
PUBLIC	?Is_Passworded@cGameData@@QBE_NXZ		; cGameData::Is_Passworded
PUBLIC	?Get_Version_Number@cGameData@@QBEHXZ		; cGameData::Get_Version_Number
PUBLIC	??0?$VectorClass@VWideStringClass@@@@QAE@HPBVWideStringClass@@@Z ; VectorClass<WideStringClass>::VectorClass<WideStringClass>
PUBLIC	??1?$VectorClass@VWideStringClass@@@@UAE@XZ	; VectorClass<WideStringClass>::~VectorClass<WideStringClass>
PUBLIC	??A?$VectorClass@VWideStringClass@@@@QAEAAVWideStringClass@@H@Z ; VectorClass<WideStringClass>::operator[]
PUBLIC	??A?$VectorClass@VWideStringClass@@@@QBEABVWideStringClass@@H@Z ; VectorClass<WideStringClass>::operator[]
PUBLIC	??8?$VectorClass@VWideStringClass@@@@UBE_NABV0@@Z ; VectorClass<WideStringClass>::operator==
PUBLIC	?Resize@?$VectorClass@VWideStringClass@@@@UAE_NHPBVWideStringClass@@@Z ; VectorClass<WideStringClass>::Resize
PUBLIC	?Clear@?$VectorClass@VWideStringClass@@@@UAEXXZ	; VectorClass<WideStringClass>::Clear
PUBLIC	?Length@?$VectorClass@VWideStringClass@@@@QBEHXZ ; VectorClass<WideStringClass>::Length
PUBLIC	?ID@?$VectorClass@VWideStringClass@@@@UAEHPBVWideStringClass@@@Z ; VectorClass<WideStringClass>::ID
PUBLIC	?ID@?$VectorClass@VWideStringClass@@@@UAEHABVWideStringClass@@@Z ; VectorClass<WideStringClass>::ID
PUBLIC	??_G?$VectorClass@VWideStringClass@@@@UAEPAXI@Z	; VectorClass<WideStringClass>::`scalar deleting destructor'
PUBLIC	??0?$DynamicVectorClass@VWideStringClass@@@@QAE@IPBVWideStringClass@@@Z ; DynamicVectorClass<WideStringClass>::DynamicVectorClass<WideStringClass>
PUBLIC	?Resize@?$DynamicVectorClass@VWideStringClass@@@@UAE_NHPBVWideStringClass@@@Z ; DynamicVectorClass<WideStringClass>::Resize
PUBLIC	?Clear@?$DynamicVectorClass@VWideStringClass@@@@UAEXXZ ; DynamicVectorClass<WideStringClass>::Clear
PUBLIC	?Count@?$DynamicVectorClass@VWideStringClass@@@@QBEHXZ ; DynamicVectorClass<WideStringClass>::Count
PUBLIC	?Add@?$DynamicVectorClass@VWideStringClass@@@@QAE_NABVWideStringClass@@@Z ; DynamicVectorClass<WideStringClass>::Add
PUBLIC	?Add@?$DynamicVectorClass@VWideStringClass@@@@QAE_N$$QAVWideStringClass@@@Z ; DynamicVectorClass<WideStringClass>::Add
PUBLIC	?Delete_All@?$DynamicVectorClass@VWideStringClass@@@@QAEXXZ ; DynamicVectorClass<WideStringClass>::Delete_All
PUBLIC	?ID@?$DynamicVectorClass@VWideStringClass@@@@UAEHPBVWideStringClass@@@Z ; DynamicVectorClass<WideStringClass>::ID
PUBLIC	?ID@?$DynamicVectorClass@VWideStringClass@@@@UAEHABVWideStringClass@@@Z ; DynamicVectorClass<WideStringClass>::ID
PUBLIC	??1?$DynamicVectorClass@VWideStringClass@@@@UAE@XZ ; DynamicVectorClass<WideStringClass>::~DynamicVectorClass<WideStringClass>
PUBLIC	??_G?$DynamicVectorClass@VWideStringClass@@@@UAEPAXI@Z ; DynamicVectorClass<WideStringClass>::`scalar deleting destructor'
PUBLIC	??2?$AutoPoolClass@VGenericSLNode@@$0BAA@@@SAPAXIPBDI0@Z ; AutoPoolClass<GenericSLNode,256>::operator new
PUBLIC	??3?$AutoPoolClass@VGenericSLNode@@$0BAA@@@SAXPAX@Z ; AutoPoolClass<GenericSLNode,256>::operator delete
PUBLIC	??0GenericSLNode@@IAE@PAX@Z			; GenericSLNode::GenericSLNode
PUBLIC	??0JFW_Key_Hook_Base@@QAE@XZ			; JFW_Key_Hook_Base::JFW_Key_Hook_Base
PUBLIC	??0JFW_Key_Hook_Base@@QAE@ABV0@@Z		; JFW_Key_Hook_Base::JFW_Key_Hook_Base
PUBLIC	??4JFW_Key_Hook_Base@@QAEAAV0@ABV0@@Z		; JFW_Key_Hook_Base::operator=
PUBLIC	??_GJFW_Key_Hook_Base@@UAEPAXI@Z		; JFW_Key_Hook_Base::`scalar deleting destructor'
PUBLIC	??_EJFW_Key_Hook_Base@@UAEPAXI@Z		; JFW_Key_Hook_Base::`vector deleting destructor'
PUBLIC	??0?$SList@UKeyHookWrapperStruct@MultiKeyHookScriptImpClass@@@@QAE@XZ ; SList<MultiKeyHookScriptImpClass::KeyHookWrapperStruct>::SList<MultiKeyHookScriptImpClass::KeyHookWrapperStruct>
PUBLIC	??1?$SList@UKeyHookWrapperStruct@MultiKeyHookScriptImpClass@@@@UAE@XZ ; SList<MultiKeyHookScriptImpClass::KeyHookWrapperStruct>::~SList<MultiKeyHookScriptImpClass::KeyHookWrapperStruct>
PUBLIC	?Add_Head@?$SList@UKeyHookWrapperStruct@MultiKeyHookScriptImpClass@@@@UAE_NPAUKeyHookWrapperStruct@MultiKeyHookScriptImpClass@@@Z ; SList<MultiKeyHookScriptImpClass::KeyHookWrapperStruct>::Add_Head
PUBLIC	?Add_Head@?$SList@UKeyHookWrapperStruct@MultiKeyHookScriptImpClass@@@@UAE_NAAV1@@Z ; SList<MultiKeyHookScriptImpClass::KeyHookWrapperStruct>::Add_Head
PUBLIC	?Add_Tail@?$SList@UKeyHookWrapperStruct@MultiKeyHookScriptImpClass@@@@UAE_NPAUKeyHookWrapperStruct@MultiKeyHookScriptImpClass@@@Z ; SList<MultiKeyHookScriptImpClass::KeyHookWrapperStruct>::Add_Tail
PUBLIC	?Add_Tail@?$SList@UKeyHookWrapperStruct@MultiKeyHookScriptImpClass@@@@UAE_NAAV1@@Z ; SList<MultiKeyHookScriptImpClass::KeyHookWrapperStruct>::Add_Tail
PUBLIC	?Remove_Head@?$SList@UKeyHookWrapperStruct@MultiKeyHookScriptImpClass@@@@UAEPAUKeyHookWrapperStruct@MultiKeyHookScriptImpClass@@XZ ; SList<MultiKeyHookScriptImpClass::KeyHookWrapperStruct>::Remove_Head
PUBLIC	?Remove_Tail@?$SList@UKeyHookWrapperStruct@MultiKeyHookScriptImpClass@@@@UAEPAUKeyHookWrapperStruct@MultiKeyHookScriptImpClass@@XZ ; SList<MultiKeyHookScriptImpClass::KeyHookWrapperStruct>::Remove_Tail
PUBLIC	?Remove@?$SList@UKeyHookWrapperStruct@MultiKeyHookScriptImpClass@@@@UAE_NPBUKeyHookWrapperStruct@MultiKeyHookScriptImpClass@@@Z ; SList<MultiKeyHookScriptImpClass::KeyHookWrapperStruct>::Remove
PUBLIC	?Remove_All@?$SList@UKeyHookWrapperStruct@MultiKeyHookScriptImpClass@@@@UAEXXZ ; SList<MultiKeyHookScriptImpClass::KeyHookWrapperStruct>::Remove_All
PUBLIC	?Insert_Before@?$SList@UKeyHookWrapperStruct@MultiKeyHookScriptImpClass@@@@UAE_NPAUKeyHookWrapperStruct@MultiKeyHookScriptImpClass@@PBU23@@Z ; SList<MultiKeyHookScriptImpClass::KeyHookWrapperStruct>::Insert_Before
PUBLIC	?Insert_After@?$SList@UKeyHookWrapperStruct@MultiKeyHookScriptImpClass@@@@UAE_NPAUKeyHookWrapperStruct@MultiKeyHookScriptImpClass@@PBU23@@Z ; SList<MultiKeyHookScriptImpClass::KeyHookWrapperStruct>::Insert_After
PUBLIC	?Is_Empty@?$SList@UKeyHookWrapperStruct@MultiKeyHookScriptImpClass@@@@UBE_NXZ ; SList<MultiKeyHookScriptImpClass::KeyHookWrapperStruct>::Is_Empty
PUBLIC	?Get_Count@?$SList@UKeyHookWrapperStruct@MultiKeyHookScriptImpClass@@@@UBEIXZ ; SList<MultiKeyHookScriptImpClass::KeyHookWrapperStruct>::Get_Count
PUBLIC	??0?$SList@UKeyHookWrapperStruct@MultiKeyHookScriptImpClass@@@@QAE@ABV0@@Z ; SList<MultiKeyHookScriptImpClass::KeyHookWrapperStruct>::SList<MultiKeyHookScriptImpClass::KeyHookWrapperStruct>
PUBLIC	??4?$SList@UKeyHookWrapperStruct@MultiKeyHookScriptImpClass@@@@QAEAAV0@ABV0@@Z ; SList<MultiKeyHookScriptImpClass::KeyHookWrapperStruct>::operator=
PUBLIC	??_G?$SList@UKeyHookWrapperStruct@MultiKeyHookScriptImpClass@@@@UAEPAXI@Z ; SList<MultiKeyHookScriptImpClass::KeyHookWrapperStruct>::`scalar deleting destructor'
PUBLIC	??0MultiKeyHookScriptImpClass@@QAE@XZ		; MultiKeyHookScriptImpClass::MultiKeyHookScriptImpClass
PUBLIC	??1MultiKeyHookScriptImpClass@@UAE@XZ		; MultiKeyHookScriptImpClass::~MultiKeyHookScriptImpClass
PUBLIC	??0MultiKeyHookScriptImpClass@@QAE@ABV0@@Z	; MultiKeyHookScriptImpClass::MultiKeyHookScriptImpClass
PUBLIC	??4MultiKeyHookScriptImpClass@@QAEAAV0@ABV0@@Z	; MultiKeyHookScriptImpClass::operator=
PUBLIC	??_GMultiKeyHookScriptImpClass@@UAEPAXI@Z	; MultiKeyHookScriptImpClass::`scalar deleting destructor'
PUBLIC	??_EMultiKeyHookScriptImpClass@@UAEPAXI@Z	; MultiKeyHookScriptImpClass::`vector deleting destructor'
PUBLIC	??0JFW_Object_Created_Hook_Base@@QAE@XZ		; JFW_Object_Created_Hook_Base::JFW_Object_Created_Hook_Base
PUBLIC	??0JFW_Object_Created_Hook_Base@@QAE@ABV0@@Z	; JFW_Object_Created_Hook_Base::JFW_Object_Created_Hook_Base
PUBLIC	??4JFW_Object_Created_Hook_Base@@QAEAAV0@ABV0@@Z ; JFW_Object_Created_Hook_Base::operator=
PUBLIC	??_GJFW_Object_Created_Hook_Base@@UAEPAXI@Z	; JFW_Object_Created_Hook_Base::`scalar deleting destructor'
PUBLIC	??_EJFW_Object_Created_Hook_Base@@UAEPAXI@Z	; JFW_Object_Created_Hook_Base::`vector deleting destructor'
PUBLIC	?Get_Alias@ConsoleFunctionClass@@UAEPBDXZ	; ConsoleFunctionClass::Get_Alias
PUBLIC	?Get_Help@ConsoleFunctionClass@@UAEPBDXZ	; ConsoleFunctionClass::Get_Help
PUBLIC	??1ConsoleFunctionClass@@UAE@XZ			; ConsoleFunctionClass::~ConsoleFunctionClass
PUBLIC	??0ConsoleFunctionClass@@QAE@XZ			; ConsoleFunctionClass::ConsoleFunctionClass
PUBLIC	??_GConsoleFunctionClass@@UAEPAXI@Z		; ConsoleFunctionClass::`scalar deleting destructor'
PUBLIC	??1CollideableObjClass@AnimCollisionManagerClass@@QAE@XZ ; AnimCollisionManagerClass::CollideableObjClass::~CollideableObjClass
PUBLIC	??_ECollideableObjClass@AnimCollisionManagerClass@@QAEPAXI@Z ; AnimCollisionManagerClass::CollideableObjClass::`vector deleting destructor'
PUBLIC	??0CollisionTestClass@@QAE@PAUCastResultStruct@@W4Collision_Type@@@Z ; CollisionTestClass::CollisionTestClass
PUBLIC	??0CollisionTestClass@@QAE@ABV0@@Z		; CollisionTestClass::CollisionTestClass
PUBLIC	??4CollisionTestClass@@QAEAAV0@ABV0@@Z		; CollisionTestClass::operator=
PUBLIC	?Cull@AABoxCollisionTestClass@@QAE_NABVVector3@@0@Z ; AABoxCollisionTestClass::Cull
PUBLIC	?Translate@AABoxCollisionTestClass@@QAEXABVVector3@@@Z ; AABoxCollisionTestClass::Translate
PUBLIC	?Cull@OBBoxCollisionTestClass@@QAE_NABVVector3@@0@Z ; OBBoxCollisionTestClass::Cull
PUBLIC	??4ArmorWarheadManager@@QAEAAV0@ABV0@@Z		; ArmorWarheadManager::operator=
PUBLIC	?Get_Vehicle@SoldierGameObj@@QAEPAVVehicleGameObj@@XZ ; SoldierGameObj::Get_Vehicle
PUBLIC	?Get_Player@SoldierGameObj@@QAEPAVcPlayer@@XZ	; SoldierGameObj::Get_Player
PUBLIC	?Get_DA_Player@SoldierGameObj@@QAEPAVDAPlayerClass@@XZ ; SoldierGameObj::Get_DA_Player
PUBLIC	?Is_Player@@YA_NPAVScriptableGameObj@@@Z	; Is_Player
PUBLIC	?WideStringFormat@@YA?AVWideStringClass@@PB_WZZ	; WideStringFormat
PUBLIC	??0DATokenParserClass@@QAE@PBDD@Z		; DATokenParserClass::DATokenParserClass
PUBLIC	??1DATokenParserClass@@QAE@XZ			; DATokenParserClass::~DATokenParserClass
PUBLIC	?Get_String@DATokenParserClass@@QAEPADXZ	; DATokenParserClass::Get_String
PUBLIC	?Get_Remaining_String@DATokenParserClass@@QAEPBDXZ ; DATokenParserClass::Get_Remaining_String
PUBLIC	?Get_Int@DATokenParserClass@@QAE_NAAH@Z		; DATokenParserClass::Get_Int
PUBLIC	?Get_Message_Prefix@DA@@SAABVStringClass@@XZ	; DA::Get_Message_Prefix
PUBLIC	?Get_Console_Function_List@DA@@SAAAV?$DynamicVectorClass@PAVConsoleFunctionClass@@@@XZ ; DA::Get_Console_Function_List
PUBLIC	??A?$VectorClass@PAVConsoleFunctionClass@@@@QAEAAPAVConsoleFunctionClass@@H@Z ; VectorClass<ConsoleFunctionClass *>::operator[]
PUBLIC	?Length@?$VectorClass@PAVConsoleFunctionClass@@@@QBEHXZ ; VectorClass<ConsoleFunctionClass *>::Length
PUBLIC	?Add@?$DynamicVectorClass@PAVConsoleFunctionClass@@@@QAE_N$$QAPAVConsoleFunctionClass@@@Z ; DynamicVectorClass<ConsoleFunctionClass *>::Add
PUBLIC	??4DA@@QAEAAV0@ABV0@@Z				; DA::operator=
PUBLIC	?Get_Count@WeaponBagClass@@QAEHXZ		; WeaponBagClass::Get_Count
PUBLIC	?Peek_Weapon@WeaponBagClass@@QAEPAVWeaponClass@@H@Z ; WeaponBagClass::Peek_Weapon
PUBLIC	?Get_Index@WeaponBagClass@@QAEHXZ		; WeaponBagClass::Get_Index
PUBLIC	??A?$VectorClass@PAVWeaponClass@@@@QAEAAPAVWeaponClass@@H@Z ; VectorClass<WeaponClass *>::operator[]
PUBLIC	?Count@?$DynamicVectorClass@PAVWeaponClass@@@@QBEHXZ ; DynamicVectorClass<WeaponClass *>::Count
PUBLIC	?Get_Definition@WeaponClass@@QAEPBVWeaponDefinitionClass@@XZ ; WeaponClass::Get_Definition
PUBLIC	??4DAEventManager@@QAEAAV0@ABV0@@Z		; DAEventManager::operator=
PUBLIC	?Register_Event@DAEventClass@@QAEXW4Type@DAEvent@@H@Z ; DAEventClass::Register_Event
PUBLIC	?Unregister_Event@DAEventClass@@QAEXW4Type@DAEvent@@@Z ; DAEventClass::Unregister_Event
PUBLIC	?Clear_Events@DAEventClass@@QAEXXZ		; DAEventClass::Clear_Events
PUBLIC	?Register_Object_Event@DAEventClass@@QAEXW4Type@DAObjectEvent@@W4ObjectType@3@H@Z ; DAEventClass::Register_Object_Event
PUBLIC	?Unregister_Object_Event@DAEventClass@@QAEXW4Type@DAObjectEvent@@@Z ; DAEventClass::Unregister_Object_Event
PUBLIC	?Clear_Object_Events@DAEventClass@@QAEXXZ	; DAEventClass::Clear_Object_Events
PUBLIC	?Start_Timer@DAEventClass@@QAEXHM_NI@Z		; DAEventClass::Start_Timer
PUBLIC	?Stop_Timer@DAEventClass@@QAEXHI@Z		; DAEventClass::Stop_Timer
PUBLIC	?Is_Timer@DAEventClass@@QAE_NHI@Z		; DAEventClass::Is_Timer
PUBLIC	?Clear_Timers@DAEventClass@@QAEXXZ		; DAEventClass::Clear_Timers
PUBLIC	?Settings_Loaded_Event@DAEventClass@@UAEXXZ	; DAEventClass::Settings_Loaded_Event
PUBLIC	?Chat_Event@DAEventClass@@UAE_NPAVcPlayer@@W4TextMessageEnum@@PB_WH@Z ; DAEventClass::Chat_Event
PUBLIC	?Chat_Command_Event@DAEventClass@@UAE_NPAVcPlayer@@W4TextMessageEnum@@ABVStringClass@@ABVDATokenClass@@H@Z ; DAEventClass::Chat_Command_Event
PUBLIC	?Key_Hook_Event@DAEventClass@@UAE_NPAVcPlayer@@ABVStringClass@@@Z ; DAEventClass::Key_Hook_Event
PUBLIC	?Host_Chat_Event@DAEventClass@@UAE_NHW4TextMessageEnum@@PBD@Z ; DAEventClass::Host_Chat_Event
PUBLIC	?Radio_Event@DAEventClass@@UAE_NPAVcPlayer@@HHHW4AnnouncementEnum@@@Z ; DAEventClass::Radio_Event
PUBLIC	?Connection_Request_Event@DAEventClass@@UAE?AW4STATUS@ConnectionAcceptanceFilter@@AAUConnectionRequest@@AAVWideStringClass@@@Z ; DAEventClass::Connection_Request_Event
PUBLIC	?Player_Pre_Join_Event@DAEventClass@@UAEXAAUConnectionRequest@@@Z ; DAEventClass::Player_Pre_Join_Event
PUBLIC	?Player_Join_Event@DAEventClass@@UAEXPAVcPlayer@@@Z ; DAEventClass::Player_Join_Event
PUBLIC	?Player_Leave_Event@DAEventClass@@UAEXPAVcPlayer@@@Z ; DAEventClass::Player_Leave_Event
PUBLIC	?Player_Loaded_Event@DAEventClass@@UAEXPAVcPlayer@@@Z ; DAEventClass::Player_Loaded_Event
PUBLIC	?Name_Change_Event@DAEventClass@@UAEXPAVcPlayer@@@Z ; DAEventClass::Name_Change_Event
PUBLIC	?Level_Loaded_Event@DAEventClass@@UAEXXZ	; DAEventClass::Level_Loaded_Event
PUBLIC	?Remix_Event@DAEventClass@@UAEXXZ		; DAEventClass::Remix_Event
PUBLIC	?Rebalance_Event@DAEventClass@@UAEXXZ		; DAEventClass::Rebalance_Event
PUBLIC	?Swap_Event@DAEventClass@@UAEXXZ		; DAEventClass::Swap_Event
PUBLIC	?Game_Over_Event@DAEventClass@@UAEXXZ		; DAEventClass::Game_Over_Event
PUBLIC	?Console_Output_Event@DAEventClass@@UAEXPBD@Z	; DAEventClass::Console_Output_Event
PUBLIC	?Ren_Log_Event@DAEventClass@@UAEXPBD@Z		; DAEventClass::Ren_Log_Event
PUBLIC	?DA_Log_Event@DAEventClass@@UAEXPBD0@Z		; DAEventClass::DA_Log_Event
PUBLIC	?Character_Purchase_Request_Event@DAEventClass@@UAEHPAVBaseControllerClass@@PAVcPlayer@@AAMPBVSoldierGameObjDef@@@Z ; DAEventClass::Character_Purchase_Request_Event
PUBLIC	?Vehicle_Purchase_Request_Event@DAEventClass@@UAEHPAVBaseControllerClass@@PAVcPlayer@@AAMPBVVehicleGameObjDef@@@Z ; DAEventClass::Vehicle_Purchase_Request_Event
PUBLIC	?PowerUp_Purchase_Request_Event@DAEventClass@@UAEHPAVBaseControllerClass@@PAVcPlayer@@AAMPBVPowerUpGameObjDef@@@Z ; DAEventClass::PowerUp_Purchase_Request_Event
PUBLIC	?Custom_Purchase_Request_Event@DAEventClass@@UAEHPAVBaseControllerClass@@PAVcPlayer@@AAMI@Z ; DAEventClass::Custom_Purchase_Request_Event
PUBLIC	?Character_Purchase_Event@DAEventClass@@UAEXPAVcPlayer@@MPBVSoldierGameObjDef@@@Z ; DAEventClass::Character_Purchase_Event
PUBLIC	?Vehicle_Purchase_Event@DAEventClass@@UAEXPAVcPlayer@@MPBVVehicleGameObjDef@@@Z ; DAEventClass::Vehicle_Purchase_Event
PUBLIC	?PowerUp_Purchase_Event@DAEventClass@@UAEXPAVcPlayer@@MPBVPowerUpGameObjDef@@@Z ; DAEventClass::PowerUp_Purchase_Event
PUBLIC	?Custom_Purchase_Event@DAEventClass@@UAEXPAVcPlayer@@MI@Z ; DAEventClass::Custom_Purchase_Event
PUBLIC	?Refill_Event@DAEventClass@@UAE_NPAVcPlayer@@@Z	; DAEventClass::Refill_Event
PUBLIC	?Suicide_Event@DAEventClass@@UAE_NPAVcPlayer@@@Z ; DAEventClass::Suicide_Event
PUBLIC	?Team_Change_Request_Event@DAEventClass@@UAE_NPAVcPlayer@@@Z ; DAEventClass::Team_Change_Request_Event
PUBLIC	?Team_Change_Event@DAEventClass@@UAEXPAVcPlayer@@@Z ; DAEventClass::Team_Change_Event
PUBLIC	?Vehicle_Entry_Request_Event@DAEventClass@@UAE_NPAVVehicleGameObj@@PAVcPlayer@@AAH@Z ; DAEventClass::Vehicle_Entry_Request_Event
PUBLIC	?Vehicle_Enter_Event@DAEventClass@@UAEXPAVVehicleGameObj@@PAVcPlayer@@H@Z ; DAEventClass::Vehicle_Enter_Event
PUBLIC	?Vehicle_Exit_Event@DAEventClass@@UAEXPAVVehicleGameObj@@PAVcPlayer@@H@Z ; DAEventClass::Vehicle_Exit_Event
PUBLIC	?PowerUp_Grant_Request_Event@DAEventClass@@UAE_NPAVcPlayer@@PBVPowerUpGameObjDef@@PAVPowerUpGameObj@@@Z ; DAEventClass::PowerUp_Grant_Request_Event
PUBLIC	?PowerUp_Grant_Event@DAEventClass@@UAEXPAVcPlayer@@PBVPowerUpGameObjDef@@PAVPowerUpGameObj@@@Z ; DAEventClass::PowerUp_Grant_Event
PUBLIC	?Add_Weapon_Request_Event@DAEventClass@@UAE_NPAVcPlayer@@PBVWeaponDefinitionClass@@@Z ; DAEventClass::Add_Weapon_Request_Event
PUBLIC	?Add_Weapon_Event@DAEventClass@@UAEXPAVcPlayer@@PAVWeaponClass@@@Z ; DAEventClass::Add_Weapon_Event
PUBLIC	?Remove_Weapon_Event@DAEventClass@@UAEXPAVcPlayer@@PAVWeaponClass@@@Z ; DAEventClass::Remove_Weapon_Event
PUBLIC	?Clear_Weapons_Event@DAEventClass@@UAEXPAVcPlayer@@@Z ; DAEventClass::Clear_Weapons_Event
PUBLIC	?Beacon_Deploy_Event@DAEventClass@@UAEXPAVBeaconGameObj@@@Z ; DAEventClass::Beacon_Deploy_Event
PUBLIC	?Beacon_Detonate_Event@DAEventClass@@UAEXPAVBeaconGameObj@@@Z ; DAEventClass::Beacon_Detonate_Event
PUBLIC	?C4_Detonate_Request_Event@DAEventClass@@UAE_NPAVC4GameObj@@PAVSmartGameObj@@@Z ; DAEventClass::C4_Detonate_Request_Event
PUBLIC	?C4_Detonate_Event@DAEventClass@@UAEXPAVC4GameObj@@@Z ; DAEventClass::C4_Detonate_Event
PUBLIC	?Change_Character_Event@DAEventClass@@UAEXPAVcPlayer@@PBVSoldierGameObjDef@@@Z ; DAEventClass::Change_Character_Event
PUBLIC	?Vehicle_Flip_Event@DAEventClass@@UAE_NPAVVehicleGameObj@@@Z ; DAEventClass::Vehicle_Flip_Event
PUBLIC	?Request_Vehicle_Event@DAEventClass@@UAE_NPAVVehicleFactoryGameObj@@PBVVehicleGameObjDef@@PAVcPlayer@@MPAVSoldierGameObj@@@Z ; DAEventClass::Request_Vehicle_Event
PUBLIC	?Think@DAEventClass@@UAEXXZ			; DAEventClass::Think
PUBLIC	?Dialog_Event@DAEventClass@@UAEXPAVcPlayer@@W4DialogMessageType@@PAVScriptedDialogClass@@PAVScriptedControlClass@@@Z ; DAEventClass::Dialog_Event
PUBLIC	?Object_Created_Event@DAEventClass@@UAEXPAVScriptableGameObj@@@Z ; DAEventClass::Object_Created_Event
PUBLIC	?Stock_Client_Damage_Request_Event@DAEventClass@@UAE_NPAVDamageableGameObj@@PAVArmedGameObj@@MI@Z ; DAEventClass::Stock_Client_Damage_Request_Event
PUBLIC	?TT_Client_Damage_Request_Event@DAEventClass@@UAE_NPAVDamageableGameObj@@PAVArmedGameObj@@PBVAmmoDefinitionClass@@PBD@Z ; DAEventClass::TT_Client_Damage_Request_Event
PUBLIC	?Damage_Request_Event@DAEventClass@@UAE_NPAVDamageableGameObj@@PAVArmedGameObj@@AAMAAIMW4Type@DADamageType@@@Z ; DAEventClass::Damage_Request_Event
PUBLIC	?Damage_Event@DAEventClass@@UAEXPAVDamageableGameObj@@PAVArmedGameObj@@MIMW4Type@DADamageType@@@Z ; DAEventClass::Damage_Event
PUBLIC	?Kill_Event@DAEventClass@@UAEXPAVDamageableGameObj@@PAVArmedGameObj@@MIMW4Type@DADamageType@@@Z ; DAEventClass::Kill_Event
PUBLIC	?Custom_Event@DAEventClass@@UAEXPAVScriptableGameObj@@HH0@Z ; DAEventClass::Custom_Event
PUBLIC	?Poke_Event@DAEventClass@@UAEXPAVcPlayer@@PAVPhysicalGameObj@@@Z ; DAEventClass::Poke_Event
PUBLIC	?Zone_Enter_Event@DAEventClass@@UAEXPAVScriptZoneGameObj@@PAVPhysicalGameObj@@@Z ; DAEventClass::Zone_Enter_Event
PUBLIC	?Zone_Exit_Event@DAEventClass@@UAEXPAVScriptZoneGameObj@@PAVPhysicalGameObj@@@Z ; DAEventClass::Zone_Exit_Event
PUBLIC	?Object_Destroyed_Event@DAEventClass@@UAEXPAVScriptableGameObj@@@Z ; DAEventClass::Object_Destroyed_Event
PUBLIC	?Timer_Expired@DAEventClass@@UAEXHI@Z		; DAEventClass::Timer_Expired
PUBLIC	??1DAEventClass@@UAE@XZ				; DAEventClass::~DAEventClass
PUBLIC	??0DAEventClass@@QAE@XZ				; DAEventClass::DAEventClass
PUBLIC	??0DAEventClass@@QAE@ABV0@@Z			; DAEventClass::DAEventClass
PUBLIC	??4DAEventClass@@QAEAAV0@ABV0@@Z		; DAEventClass::operator=
PUBLIC	??_GDAEventClass@@UAEPAXI@Z			; DAEventClass::`scalar deleting destructor'
PUBLIC	??_EDAEventClass@@UAEPAXI@Z			; DAEventClass::`vector deleting destructor'
PUBLIC	??U@YA?AW4Flag@DAPlayerFlags@@W401@0@Z		; operator|
PUBLIC	??_5@YA?AW4Flag@DAPlayerFlags@@AAW401@W401@@Z	; operator|=
PUBLIC	??_4@YA?AW4Flag@DAPlayerFlags@@AAW401@W401@@Z	; operator&=
PUBLIC	??S@YA?AW4Flag@DAPlayerFlags@@W401@@Z		; operator~
PUBLIC	?Get_Owner@DAPlayerClass@@QAEPAVcPlayer@@XZ	; DAPlayerClass::Get_Owner
PUBLIC	?Get_ID@DAPlayerClass@@QAEHXZ			; DAPlayerClass::Get_ID
PUBLIC	?Get_Name@DAPlayerClass@@QAEABVWideStringClass@@XZ ; DAPlayerClass::Get_Name
PUBLIC	?Get_GameObj@DAPlayerClass@@QAEPAVSoldierGameObj@@XZ ; DAPlayerClass::Get_GameObj
PUBLIC	?Get_Team@DAPlayerClass@@QAEHXZ			; DAPlayerClass::Get_Team
PUBLIC	?Add_Observer@DAPlayerClass@@QAEXPAVDAPlayerObserverClass@@@Z ; DAPlayerClass::Add_Observer
PUBLIC	?Remove_Observer@DAPlayerClass@@QAEXPBD@Z	; DAPlayerClass::Remove_Observer
PUBLIC	?Find_Observer@DAPlayerClass@@QAEPAVDAPlayerObserverClass@@PBD@Z ; DAPlayerClass::Find_Observer
PUBLIC	?Find_Data@DAPlayerClass@@QAEPAVDAPlayerDataClass@@PBVDAPlayerDataFactoryClass@@@Z ; DAPlayerClass::Find_Data
PUBLIC	?Update_Tag@DAPlayerClass@@QAEXXZ		; DAPlayerClass::Update_Tag
PUBLIC	?Add_Tag@DAPlayerClass@@QAEXPBDHW4Flag@DAPlayerFlags@@@Z ; DAPlayerClass::Add_Tag
PUBLIC	?Remove_Tag@DAPlayerClass@@QAEXPBD@Z		; DAPlayerClass::Remove_Tag
PUBLIC	?Remove_Tags_With_Flag@DAPlayerClass@@QAEXW4Flag@DAPlayerFlags@@@Z ; DAPlayerClass::Remove_Tags_With_Flag
PUBLIC	?Get_Observers@DAPlayerClass@@QAEABV?$DynamicVectorClass@PAVDAPlayerObserverClass@@@@XZ ; DAPlayerClass::Get_Observers
PUBLIC	?Set_Access_Level@DAPlayerClass@@QAEXW4Level@DAAccessLevel@@@Z ; DAPlayerClass::Set_Access_Level
PUBLIC	?Get_Access_Level@DAPlayerClass@@QAE?AW4Level@DAAccessLevel@@XZ ; DAPlayerClass::Get_Access_Level
PUBLIC	?Mute@DAPlayerClass@@QAEX_N@Z			; DAPlayerClass::Mute
PUBLIC	?Is_Muted@DAPlayerClass@@QAE_NXZ		; DAPlayerClass::Is_Muted
PUBLIC	?Beacon_Lock@DAPlayerClass@@QAEX_N@Z		; DAPlayerClass::Beacon_Lock
PUBLIC	?Is_Beacon_Locked@DAPlayerClass@@QAE_NXZ	; DAPlayerClass::Is_Beacon_Locked
PUBLIC	?C4_Lock@DAPlayerClass@@QAEX_N@Z		; DAPlayerClass::C4_Lock
PUBLIC	?Is_C4_Locked@DAPlayerClass@@QAE_NXZ		; DAPlayerClass::Is_C4_Locked
PUBLIC	?Set_Character_Discount@DAPlayerClass@@QAEXM@Z	; DAPlayerClass::Set_Character_Discount
PUBLIC	?Inc_Character_Discount@DAPlayerClass@@QAEXM@Z	; DAPlayerClass::Inc_Character_Discount
PUBLIC	?Get_Character_Discount@DAPlayerClass@@QAEMXZ	; DAPlayerClass::Get_Character_Discount
PUBLIC	?Set_Vehicle_Discount@DAPlayerClass@@QAEXM@Z	; DAPlayerClass::Set_Vehicle_Discount
PUBLIC	?Inc_Vehicle_Discount@DAPlayerClass@@QAEXM@Z	; DAPlayerClass::Inc_Vehicle_Discount
PUBLIC	?Get_Vehicle_Discount@DAPlayerClass@@QAEMXZ	; DAPlayerClass::Get_Vehicle_Discount
PUBLIC	?Set_PowerUp_Discount@DAPlayerClass@@QAEXM@Z	; DAPlayerClass::Set_PowerUp_Discount
PUBLIC	?Inc_PowerUp_Discount@DAPlayerClass@@QAEXM@Z	; DAPlayerClass::Inc_PowerUp_Discount
PUBLIC	?Get_PowerUp_Discount@DAPlayerClass@@QAEMXZ	; DAPlayerClass::Get_PowerUp_Discount
PUBLIC	?Get_Time_Since_Last_Tib_Damage@DAPlayerClass@@QAEKXZ ; DAPlayerClass::Get_Time_Since_Last_Tib_Damage
PUBLIC	?Reset_Last_Tib_Damage_Time@DAPlayerClass@@QAEXXZ ; DAPlayerClass::Reset_Last_Tib_Damage_Time
PUBLIC	?Is_Loaded@DAPlayerClass@@QAE_NXZ		; DAPlayerClass::Is_Loaded
PUBLIC	?Set_Loaded@DAPlayerClass@@QAEX_N@Z		; DAPlayerClass::Set_Loaded
PUBLIC	?Get_Serial@DAPlayerClass@@QAEABVStringClass@@XZ ; DAPlayerClass::Get_Serial
PUBLIC	?Set_Version@DAPlayerClass@@QAEXM@Z		; DAPlayerClass::Set_Version
PUBLIC	?Get_Version@DAPlayerClass@@QAEMXZ		; DAPlayerClass::Get_Version
PUBLIC	?Get_Revision@DAPlayerClass@@QAEIXZ		; DAPlayerClass::Get_Revision
PUBLIC	?Is_TT_Client@DAPlayerClass@@QAE_NXZ		; DAPlayerClass::Is_TT_Client
PUBLIC	?Is_Scripts_Client@DAPlayerClass@@QAE_NXZ	; DAPlayerClass::Is_Scripts_Client
PUBLIC	?Is_Stock_Client@DAPlayerClass@@QAE_NXZ		; DAPlayerClass::Is_Stock_Client
PUBLIC	?Set_Server_Damage@DAPlayerClass@@QAEX_N@Z	; DAPlayerClass::Set_Server_Damage
PUBLIC	?Use_Server_Damage@DAPlayerClass@@QAE_NXZ	; DAPlayerClass::Use_Server_Damage
PUBLIC	?Is_Spawning@DAPlayerClass@@QAE_NXZ		; DAPlayerClass::Is_Spawning
PUBLIC	?Get_Creation_Time@DAPlayerClass@@QAEKXZ	; DAPlayerClass::Get_Creation_Time
PUBLIC	?Reset_Creation_Time@DAPlayerClass@@QAEXXZ	; DAPlayerClass::Reset_Creation_Time
PUBLIC	?Set_Needs_Team@DAPlayerClass@@QAEX_N@Z		; DAPlayerClass::Set_Needs_Team
PUBLIC	?Get_Needs_Team@DAPlayerClass@@QAE_NXZ		; DAPlayerClass::Get_Needs_Team
PUBLIC	?Join@DAPlayerClass@@QAEXXZ			; DAPlayerClass::Join
PUBLIC	?Leave@DAPlayerClass@@QAEXXZ			; DAPlayerClass::Leave
PUBLIC	?Level_Loaded@DAPlayerClass@@QAEXXZ		; DAPlayerClass::Level_Loaded
PUBLIC	?Player_Loaded@DAPlayerClass@@QAEXXZ		; DAPlayerClass::Player_Loaded
PUBLIC	?Name_Change@DAPlayerClass@@QAEXXZ		; DAPlayerClass::Name_Change
PUBLIC	?Chat@DAPlayerClass@@QAE_NW4TextMessageEnum@@PB_WH@Z ; DAPlayerClass::Chat
PUBLIC	?Radio@DAPlayerClass@@QAE_NHHHW4AnnouncementEnum@@@Z ; DAPlayerClass::Radio
PUBLIC	?Team_Change@DAPlayerClass@@QAEXXZ		; DAPlayerClass::Team_Change
PUBLIC	?Character_Purchase_Request@DAPlayerClass@@QAEHAAMPBVSoldierGameObjDef@@@Z ; DAPlayerClass::Character_Purchase_Request
PUBLIC	?Vehicle_Purchase_Request@DAPlayerClass@@QAEHAAMPBVVehicleGameObjDef@@@Z ; DAPlayerClass::Vehicle_Purchase_Request
PUBLIC	?PowerUp_Purchase_Request@DAPlayerClass@@QAEHAAMPBVPowerUpGameObjDef@@@Z ; DAPlayerClass::PowerUp_Purchase_Request
PUBLIC	?Custom_Purchase_Request@DAPlayerClass@@QAEHAAMI@Z ; DAPlayerClass::Custom_Purchase_Request
PUBLIC	?Character_Purchase@DAPlayerClass@@QAEXMPBVSoldierGameObjDef@@@Z ; DAPlayerClass::Character_Purchase
PUBLIC	?Vehicle_Purchase@DAPlayerClass@@QAEXMPBVVehicleGameObjDef@@@Z ; DAPlayerClass::Vehicle_Purchase
PUBLIC	?PowerUp_Purchase@DAPlayerClass@@QAEXMPBVPowerUpGameObjDef@@@Z ; DAPlayerClass::PowerUp_Purchase
PUBLIC	?Custom_Purchase@DAPlayerClass@@QAEXMI@Z	; DAPlayerClass::Custom_Purchase
PUBLIC	?Vehicle_Entry_Request@DAPlayerClass@@QAE_NPAVVehicleGameObj@@AAH@Z ; DAPlayerClass::Vehicle_Entry_Request
PUBLIC	?Vehicle_Enter@DAPlayerClass@@QAEXPAVVehicleGameObj@@H@Z ; DAPlayerClass::Vehicle_Enter
PUBLIC	?Vehicle_Exit@DAPlayerClass@@QAEXPAVVehicleGameObj@@H@Z ; DAPlayerClass::Vehicle_Exit
PUBLIC	?PowerUp_Grant_Request@DAPlayerClass@@QAE_NPBVPowerUpGameObjDef@@PAVPowerUpGameObj@@@Z ; DAPlayerClass::PowerUp_Grant_Request
PUBLIC	?PowerUp_Grant@DAPlayerClass@@QAEXPBVPowerUpGameObjDef@@PAVPowerUpGameObj@@@Z ; DAPlayerClass::PowerUp_Grant
PUBLIC	?Add_Weapon_Request@DAPlayerClass@@QAE_NPBVWeaponDefinitionClass@@@Z ; DAPlayerClass::Add_Weapon_Request
PUBLIC	?Add_Weapon@DAPlayerClass@@QAEXPAVWeaponClass@@@Z ; DAPlayerClass::Add_Weapon
PUBLIC	?Remove_Weapon@DAPlayerClass@@QAEXPAVWeaponClass@@@Z ; DAPlayerClass::Remove_Weapon
PUBLIC	?Clear_Weapons@DAPlayerClass@@QAEXXZ		; DAPlayerClass::Clear_Weapons
PUBLIC	?C4_Detonate_Request@DAPlayerClass@@QAE_NPAVC4GameObj@@@Z ; DAPlayerClass::C4_Detonate_Request
PUBLIC	?C4_Detonate@DAPlayerClass@@QAEXPAVC4GameObj@@@Z ; DAPlayerClass::C4_Detonate
PUBLIC	?Change_Character@DAPlayerClass@@QAEXPBVSoldierGameObjDef@@@Z ; DAPlayerClass::Change_Character
PUBLIC	?Dialog_Message@DAPlayerClass@@QAEXW4DialogMessageType@@PAVScriptedDialogClass@@PAVScriptedControlClass@@@Z ; DAPlayerClass::Dialog_Message
PUBLIC	?Created@DAPlayerClass@@QAEXXZ			; DAPlayerClass::Created
PUBLIC	?Destroyed@DAPlayerClass@@QAEXXZ		; DAPlayerClass::Destroyed
PUBLIC	?Damage_Dealt_Request@DAPlayerClass@@QAE_NPAVDamageableGameObj@@AAMAAIMW4Type@DADamageType@@@Z ; DAPlayerClass::Damage_Dealt_Request
PUBLIC	?Damage_Received_Request@DAPlayerClass@@QAE_NPAVArmedGameObj@@AAMAAIMW4Type@DADamageType@@@Z ; DAPlayerClass::Damage_Received_Request
PUBLIC	?Damage_Dealt@DAPlayerClass@@QAEXPAVDamageableGameObj@@MIMW4Type@DADamageType@@@Z ; DAPlayerClass::Damage_Dealt
PUBLIC	?Damage_Received@DAPlayerClass@@QAEXPAVArmedGameObj@@MIMW4Type@DADamageType@@@Z ; DAPlayerClass::Damage_Received
PUBLIC	?Kill_Dealt@DAPlayerClass@@QAEXPAVDamageableGameObj@@MIMW4Type@DADamageType@@@Z ; DAPlayerClass::Kill_Dealt
PUBLIC	?Kill_Received@DAPlayerClass@@QAEXPAVArmedGameObj@@MIMW4Type@DADamageType@@@Z ; DAPlayerClass::Kill_Received
PUBLIC	?Custom@DAPlayerClass@@QAEXPAVScriptableGameObj@@HH@Z ; DAPlayerClass::Custom
PUBLIC	?Poked@DAPlayerClass@@QAEXPAVcPlayer@@@Z	; DAPlayerClass::Poked
PUBLIC	?Think@DAPlayerClass@@QAEXXZ			; DAPlayerClass::Think
PUBLIC	?Set_Flags@DAPlayerTagStruct@DAPlayerClass@@QAEXW4Flag@DAPlayerFlags@@@Z ; DAPlayerClass::DAPlayerTagStruct::Set_Flags
PUBLIC	?Has_Flag@DAPlayerTagStruct@DAPlayerClass@@QAE_NW4Flag@DAPlayerFlags@@@Z ; DAPlayerClass::DAPlayerTagStruct::Has_Flag
PUBLIC	??0DAPlayerTagStruct@DAPlayerClass@@QAE@XZ	; DAPlayerClass::DAPlayerTagStruct::DAPlayerTagStruct
PUBLIC	??1DAPlayerTagStruct@DAPlayerClass@@QAE@XZ	; DAPlayerClass::DAPlayerTagStruct::~DAPlayerTagStruct
PUBLIC	??_GDAPlayerTagStruct@DAPlayerClass@@QAEPAXI@Z	; DAPlayerClass::DAPlayerTagStruct::`scalar deleting destructor'
PUBLIC	?Add_Data@DAPlayerClass@@AAEXPAVDAPlayerDataClass@@@Z ; DAPlayerClass::Add_Data
PUBLIC	?Remove_Data@DAPlayerClass@@AAEXPBVDAPlayerDataFactoryClass@@@Z ; DAPlayerClass::Remove_Data
PUBLIC	??0DAPlayerClass@@AAE@PAVcPlayer@@@Z		; DAPlayerClass::DAPlayerClass
PUBLIC	??1DAPlayerClass@@AAE@XZ			; DAPlayerClass::~DAPlayerClass
PUBLIC	??0?$VectorClass@PAVDAPlayerObserverClass@@@@QAE@HPBQAVDAPlayerObserverClass@@@Z ; VectorClass<DAPlayerObserverClass *>::VectorClass<DAPlayerObserverClass *>
PUBLIC	??0?$VectorClass@PAVDAPlayerObserverClass@@@@QAE@ABV0@@Z ; VectorClass<DAPlayerObserverClass *>::VectorClass<DAPlayerObserverClass *>
PUBLIC	??4?$VectorClass@PAVDAPlayerObserverClass@@@@QAEAAV0@ABV0@@Z ; VectorClass<DAPlayerObserverClass *>::operator=
PUBLIC	??1?$VectorClass@PAVDAPlayerObserverClass@@@@UAE@XZ ; VectorClass<DAPlayerObserverClass *>::~VectorClass<DAPlayerObserverClass *>
PUBLIC	??A?$VectorClass@PAVDAPlayerObserverClass@@@@QAEAAPAVDAPlayerObserverClass@@H@Z ; VectorClass<DAPlayerObserverClass *>::operator[]
PUBLIC	??A?$VectorClass@PAVDAPlayerObserverClass@@@@QBEABQAVDAPlayerObserverClass@@H@Z ; VectorClass<DAPlayerObserverClass *>::operator[]
PUBLIC	??8?$VectorClass@PAVDAPlayerObserverClass@@@@UBE_NABV0@@Z ; VectorClass<DAPlayerObserverClass *>::operator==
PUBLIC	?Resize@?$VectorClass@PAVDAPlayerObserverClass@@@@UAE_NHPBQAVDAPlayerObserverClass@@@Z ; VectorClass<DAPlayerObserverClass *>::Resize
PUBLIC	?Clear@?$VectorClass@PAVDAPlayerObserverClass@@@@UAEXXZ ; VectorClass<DAPlayerObserverClass *>::Clear
PUBLIC	?Length@?$VectorClass@PAVDAPlayerObserverClass@@@@QBEHXZ ; VectorClass<DAPlayerObserverClass *>::Length
PUBLIC	?ID@?$VectorClass@PAVDAPlayerObserverClass@@@@UAEHPBQAVDAPlayerObserverClass@@@Z ; VectorClass<DAPlayerObserverClass *>::ID
PUBLIC	?ID@?$VectorClass@PAVDAPlayerObserverClass@@@@UAEHABQAVDAPlayerObserverClass@@@Z ; VectorClass<DAPlayerObserverClass *>::ID
PUBLIC	??_G?$VectorClass@PAVDAPlayerObserverClass@@@@UAEPAXI@Z ; VectorClass<DAPlayerObserverClass *>::`scalar deleting destructor'
PUBLIC	??0?$DynamicVectorClass@PAVDAPlayerObserverClass@@@@QAE@IPBQAVDAPlayerObserverClass@@@Z ; DynamicVectorClass<DAPlayerObserverClass *>::DynamicVectorClass<DAPlayerObserverClass *>
PUBLIC	??0?$DynamicVectorClass@PAVDAPlayerObserverClass@@@@QAE@ABV0@@Z ; DynamicVectorClass<DAPlayerObserverClass *>::DynamicVectorClass<DAPlayerObserverClass *>
PUBLIC	??4?$DynamicVectorClass@PAVDAPlayerObserverClass@@@@QAEAAV0@ABV0@@Z ; DynamicVectorClass<DAPlayerObserverClass *>::operator=
PUBLIC	?Resize@?$DynamicVectorClass@PAVDAPlayerObserverClass@@@@UAE_NHPBQAVDAPlayerObserverClass@@@Z ; DynamicVectorClass<DAPlayerObserverClass *>::Resize
PUBLIC	?Clear@?$DynamicVectorClass@PAVDAPlayerObserverClass@@@@UAEXXZ ; DynamicVectorClass<DAPlayerObserverClass *>::Clear
PUBLIC	?Count@?$DynamicVectorClass@PAVDAPlayerObserverClass@@@@QBEHXZ ; DynamicVectorClass<DAPlayerObserverClass *>::Count
PUBLIC	?Add@?$DynamicVectorClass@PAVDAPlayerObserverClass@@@@QAE_NABQAVDAPlayerObserverClass@@@Z ; DynamicVectorClass<DAPlayerObserverClass *>::Add
PUBLIC	?Delete@?$DynamicVectorClass@PAVDAPlayerObserverClass@@@@QAE_NH@Z ; DynamicVectorClass<DAPlayerObserverClass *>::Delete
PUBLIC	?Delete_All@?$DynamicVectorClass@PAVDAPlayerObserverClass@@@@QAEXXZ ; DynamicVectorClass<DAPlayerObserverClass *>::Delete_All
PUBLIC	?ID@?$DynamicVectorClass@PAVDAPlayerObserverClass@@@@UAEHPBQAVDAPlayerObserverClass@@@Z ; DynamicVectorClass<DAPlayerObserverClass *>::ID
PUBLIC	?ID@?$DynamicVectorClass@PAVDAPlayerObserverClass@@@@UAEHABQAVDAPlayerObserverClass@@@Z ; DynamicVectorClass<DAPlayerObserverClass *>::ID
PUBLIC	??1?$DynamicVectorClass@PAVDAPlayerObserverClass@@@@UAE@XZ ; DynamicVectorClass<DAPlayerObserverClass *>::~DynamicVectorClass<DAPlayerObserverClass *>
PUBLIC	??_G?$DynamicVectorClass@PAVDAPlayerObserverClass@@@@UAEPAXI@Z ; DynamicVectorClass<DAPlayerObserverClass *>::`scalar deleting destructor'
PUBLIC	??0?$VectorClass@PAVDAPlayerDataClass@@@@QAE@HPBQAVDAPlayerDataClass@@@Z ; VectorClass<DAPlayerDataClass *>::VectorClass<DAPlayerDataClass *>
PUBLIC	??0?$VectorClass@PAVDAPlayerDataClass@@@@QAE@ABV0@@Z ; VectorClass<DAPlayerDataClass *>::VectorClass<DAPlayerDataClass *>
PUBLIC	??4?$VectorClass@PAVDAPlayerDataClass@@@@QAEAAV0@ABV0@@Z ; VectorClass<DAPlayerDataClass *>::operator=
PUBLIC	??1?$VectorClass@PAVDAPlayerDataClass@@@@UAE@XZ	; VectorClass<DAPlayerDataClass *>::~VectorClass<DAPlayerDataClass *>
PUBLIC	??A?$VectorClass@PAVDAPlayerDataClass@@@@QAEAAPAVDAPlayerDataClass@@H@Z ; VectorClass<DAPlayerDataClass *>::operator[]
PUBLIC	??A?$VectorClass@PAVDAPlayerDataClass@@@@QBEABQAVDAPlayerDataClass@@H@Z ; VectorClass<DAPlayerDataClass *>::operator[]
PUBLIC	??8?$VectorClass@PAVDAPlayerDataClass@@@@UBE_NABV0@@Z ; VectorClass<DAPlayerDataClass *>::operator==
PUBLIC	?Resize@?$VectorClass@PAVDAPlayerDataClass@@@@UAE_NHPBQAVDAPlayerDataClass@@@Z ; VectorClass<DAPlayerDataClass *>::Resize
PUBLIC	?Clear@?$VectorClass@PAVDAPlayerDataClass@@@@UAEXXZ ; VectorClass<DAPlayerDataClass *>::Clear
PUBLIC	?Length@?$VectorClass@PAVDAPlayerDataClass@@@@QBEHXZ ; VectorClass<DAPlayerDataClass *>::Length
PUBLIC	?ID@?$VectorClass@PAVDAPlayerDataClass@@@@UAEHPBQAVDAPlayerDataClass@@@Z ; VectorClass<DAPlayerDataClass *>::ID
PUBLIC	?ID@?$VectorClass@PAVDAPlayerDataClass@@@@UAEHABQAVDAPlayerDataClass@@@Z ; VectorClass<DAPlayerDataClass *>::ID
PUBLIC	??_G?$VectorClass@PAVDAPlayerDataClass@@@@UAEPAXI@Z ; VectorClass<DAPlayerDataClass *>::`scalar deleting destructor'
PUBLIC	??0?$DynamicVectorClass@PAVDAPlayerDataClass@@@@QAE@IPBQAVDAPlayerDataClass@@@Z ; DynamicVectorClass<DAPlayerDataClass *>::DynamicVectorClass<DAPlayerDataClass *>
PUBLIC	??0?$DynamicVectorClass@PAVDAPlayerDataClass@@@@QAE@ABV0@@Z ; DynamicVectorClass<DAPlayerDataClass *>::DynamicVectorClass<DAPlayerDataClass *>
PUBLIC	??4?$DynamicVectorClass@PAVDAPlayerDataClass@@@@QAEAAV0@ABV0@@Z ; DynamicVectorClass<DAPlayerDataClass *>::operator=
PUBLIC	?Resize@?$DynamicVectorClass@PAVDAPlayerDataClass@@@@UAE_NHPBQAVDAPlayerDataClass@@@Z ; DynamicVectorClass<DAPlayerDataClass *>::Resize
PUBLIC	?Clear@?$DynamicVectorClass@PAVDAPlayerDataClass@@@@UAEXXZ ; DynamicVectorClass<DAPlayerDataClass *>::Clear
PUBLIC	?Count@?$DynamicVectorClass@PAVDAPlayerDataClass@@@@QBEHXZ ; DynamicVectorClass<DAPlayerDataClass *>::Count
PUBLIC	?Add@?$DynamicVectorClass@PAVDAPlayerDataClass@@@@QAE_NABQAVDAPlayerDataClass@@@Z ; DynamicVectorClass<DAPlayerDataClass *>::Add
PUBLIC	?Delete@?$DynamicVectorClass@PAVDAPlayerDataClass@@@@QAE_NH@Z ; DynamicVectorClass<DAPlayerDataClass *>::Delete
PUBLIC	?Delete_All@?$DynamicVectorClass@PAVDAPlayerDataClass@@@@QAEXXZ ; DynamicVectorClass<DAPlayerDataClass *>::Delete_All
PUBLIC	?ID@?$DynamicVectorClass@PAVDAPlayerDataClass@@@@UAEHPBQAVDAPlayerDataClass@@@Z ; DynamicVectorClass<DAPlayerDataClass *>::ID
PUBLIC	?ID@?$DynamicVectorClass@PAVDAPlayerDataClass@@@@UAEHABQAVDAPlayerDataClass@@@Z ; DynamicVectorClass<DAPlayerDataClass *>::ID
PUBLIC	??1?$DynamicVectorClass@PAVDAPlayerDataClass@@@@UAE@XZ ; DynamicVectorClass<DAPlayerDataClass *>::~DynamicVectorClass<DAPlayerDataClass *>
PUBLIC	??_G?$DynamicVectorClass@PAVDAPlayerDataClass@@@@UAEPAXI@Z ; DynamicVectorClass<DAPlayerDataClass *>::`scalar deleting destructor'
PUBLIC	??0?$VectorClass@PAUDAPlayerTagStruct@DAPlayerClass@@@@QAE@HPBQAUDAPlayerTagStruct@DAPlayerClass@@@Z ; VectorClass<DAPlayerClass::DAPlayerTagStruct *>::VectorClass<DAPlayerClass::DAPlayerTagStruct *>
PUBLIC	??0?$VectorClass@PAUDAPlayerTagStruct@DAPlayerClass@@@@QAE@ABV0@@Z ; VectorClass<DAPlayerClass::DAPlayerTagStruct *>::VectorClass<DAPlayerClass::DAPlayerTagStruct *>
PUBLIC	??4?$VectorClass@PAUDAPlayerTagStruct@DAPlayerClass@@@@QAEAAV0@ABV0@@Z ; VectorClass<DAPlayerClass::DAPlayerTagStruct *>::operator=
PUBLIC	??1?$VectorClass@PAUDAPlayerTagStruct@DAPlayerClass@@@@UAE@XZ ; VectorClass<DAPlayerClass::DAPlayerTagStruct *>::~VectorClass<DAPlayerClass::DAPlayerTagStruct *>
PUBLIC	??A?$VectorClass@PAUDAPlayerTagStruct@DAPlayerClass@@@@QAEAAPAUDAPlayerTagStruct@DAPlayerClass@@H@Z ; VectorClass<DAPlayerClass::DAPlayerTagStruct *>::operator[]
PUBLIC	??A?$VectorClass@PAUDAPlayerTagStruct@DAPlayerClass@@@@QBEABQAUDAPlayerTagStruct@DAPlayerClass@@H@Z ; VectorClass<DAPlayerClass::DAPlayerTagStruct *>::operator[]
PUBLIC	??8?$VectorClass@PAUDAPlayerTagStruct@DAPlayerClass@@@@UBE_NABV0@@Z ; VectorClass<DAPlayerClass::DAPlayerTagStruct *>::operator==
PUBLIC	?Resize@?$VectorClass@PAUDAPlayerTagStruct@DAPlayerClass@@@@UAE_NHPBQAUDAPlayerTagStruct@DAPlayerClass@@@Z ; VectorClass<DAPlayerClass::DAPlayerTagStruct *>::Resize
PUBLIC	?Clear@?$VectorClass@PAUDAPlayerTagStruct@DAPlayerClass@@@@UAEXXZ ; VectorClass<DAPlayerClass::DAPlayerTagStruct *>::Clear
PUBLIC	?Length@?$VectorClass@PAUDAPlayerTagStruct@DAPlayerClass@@@@QBEHXZ ; VectorClass<DAPlayerClass::DAPlayerTagStruct *>::Length
PUBLIC	?ID@?$VectorClass@PAUDAPlayerTagStruct@DAPlayerClass@@@@UAEHPBQAUDAPlayerTagStruct@DAPlayerClass@@@Z ; VectorClass<DAPlayerClass::DAPlayerTagStruct *>::ID
PUBLIC	?ID@?$VectorClass@PAUDAPlayerTagStruct@DAPlayerClass@@@@UAEHABQAUDAPlayerTagStruct@DAPlayerClass@@@Z ; VectorClass<DAPlayerClass::DAPlayerTagStruct *>::ID
PUBLIC	??_G?$VectorClass@PAUDAPlayerTagStruct@DAPlayerClass@@@@UAEPAXI@Z ; VectorClass<DAPlayerClass::DAPlayerTagStruct *>::`scalar deleting destructor'
PUBLIC	??0?$DynamicVectorClass@PAUDAPlayerTagStruct@DAPlayerClass@@@@QAE@IPBQAUDAPlayerTagStruct@DAPlayerClass@@@Z ; DynamicVectorClass<DAPlayerClass::DAPlayerTagStruct *>::DynamicVectorClass<DAPlayerClass::DAPlayerTagStruct *>
PUBLIC	??0?$DynamicVectorClass@PAUDAPlayerTagStruct@DAPlayerClass@@@@QAE@ABV0@@Z ; DynamicVectorClass<DAPlayerClass::DAPlayerTagStruct *>::DynamicVectorClass<DAPlayerClass::DAPlayerTagStruct *>
PUBLIC	??4?$DynamicVectorClass@PAUDAPlayerTagStruct@DAPlayerClass@@@@QAEAAV0@ABV0@@Z ; DynamicVectorClass<DAPlayerClass::DAPlayerTagStruct *>::operator=
PUBLIC	?Resize@?$DynamicVectorClass@PAUDAPlayerTagStruct@DAPlayerClass@@@@UAE_NHPBQAUDAPlayerTagStruct@DAPlayerClass@@@Z ; DynamicVectorClass<DAPlayerClass::DAPlayerTagStruct *>::Resize
PUBLIC	?Clear@?$DynamicVectorClass@PAUDAPlayerTagStruct@DAPlayerClass@@@@UAEXXZ ; DynamicVectorClass<DAPlayerClass::DAPlayerTagStruct *>::Clear
PUBLIC	?Count@?$DynamicVectorClass@PAUDAPlayerTagStruct@DAPlayerClass@@@@QBEHXZ ; DynamicVectorClass<DAPlayerClass::DAPlayerTagStruct *>::Count
PUBLIC	?Add@?$DynamicVectorClass@PAUDAPlayerTagStruct@DAPlayerClass@@@@QAE_NABQAUDAPlayerTagStruct@DAPlayerClass@@@Z ; DynamicVectorClass<DAPlayerClass::DAPlayerTagStruct *>::Add
PUBLIC	?Insert@?$DynamicVectorClass@PAUDAPlayerTagStruct@DAPlayerClass@@@@QAE_NHABQAUDAPlayerTagStruct@DAPlayerClass@@@Z ; DynamicVectorClass<DAPlayerClass::DAPlayerTagStruct *>::Insert
PUBLIC	?Delete@?$DynamicVectorClass@PAUDAPlayerTagStruct@DAPlayerClass@@@@QAE_NH@Z ; DynamicVectorClass<DAPlayerClass::DAPlayerTagStruct *>::Delete
PUBLIC	?Delete_All@?$DynamicVectorClass@PAUDAPlayerTagStruct@DAPlayerClass@@@@QAEXXZ ; DynamicVectorClass<DAPlayerClass::DAPlayerTagStruct *>::Delete_All
PUBLIC	?ID@?$DynamicVectorClass@PAUDAPlayerTagStruct@DAPlayerClass@@@@UAEHPBQAUDAPlayerTagStruct@DAPlayerClass@@@Z ; DynamicVectorClass<DAPlayerClass::DAPlayerTagStruct *>::ID
PUBLIC	?ID@?$DynamicVectorClass@PAUDAPlayerTagStruct@DAPlayerClass@@@@UAEHABQAUDAPlayerTagStruct@DAPlayerClass@@@Z ; DynamicVectorClass<DAPlayerClass::DAPlayerTagStruct *>::ID
PUBLIC	??1?$DynamicVectorClass@PAUDAPlayerTagStruct@DAPlayerClass@@@@UAE@XZ ; DynamicVectorClass<DAPlayerClass::DAPlayerTagStruct *>::~DynamicVectorClass<DAPlayerClass::DAPlayerTagStruct *>
PUBLIC	??_G?$DynamicVectorClass@PAUDAPlayerTagStruct@DAPlayerClass@@@@UAEPAXI@Z ; DynamicVectorClass<DAPlayerClass::DAPlayerTagStruct *>::`scalar deleting destructor'
PUBLIC	??0DAPlayerClass@@QAE@ABV0@@Z			; DAPlayerClass::DAPlayerClass
PUBLIC	??4DAPlayerClass@@QAEAAV0@ABV0@@Z		; DAPlayerClass::operator=
PUBLIC	??_GDAPlayerClass@@AAEPAXI@Z			; DAPlayerClass::`scalar deleting destructor'
PUBLIC	??0DAPlayerObserverChatCommandStruct@@QAE@XZ	; DAPlayerObserverChatCommandStruct::DAPlayerObserverChatCommandStruct
PUBLIC	??1DAPlayerObserverChatCommandStruct@@QAE@XZ	; DAPlayerObserverChatCommandStruct::~DAPlayerObserverChatCommandStruct
PUBLIC	??_GDAPlayerObserverChatCommandStruct@@QAEPAXI@Z ; DAPlayerObserverChatCommandStruct::`scalar deleting destructor'
PUBLIC	??0DAPlayerObserverKeyHookStruct@@QAE@XZ	; DAPlayerObserverKeyHookStruct::DAPlayerObserverKeyHookStruct
PUBLIC	??1DAPlayerObserverKeyHookStruct@@QAE@XZ	; DAPlayerObserverKeyHookStruct::~DAPlayerObserverKeyHookStruct
PUBLIC	??_GDAPlayerObserverKeyHookStruct@@QAEPAXI@Z	; DAPlayerObserverKeyHookStruct::`scalar deleting destructor'
PUBLIC	??0DAPlayerObserverClass@@QAE@XZ		; DAPlayerObserverClass::DAPlayerObserverClass
PUBLIC	?Get_Owner@DAPlayerObserverClass@@QAEPAVcPlayer@@XZ ; DAPlayerObserverClass::Get_Owner
PUBLIC	?Set_Owner@DAPlayerObserverClass@@QAEXPAVcPlayer@@@Z ; DAPlayerObserverClass::Set_Owner
PUBLIC	?Get_Flags@DAPlayerObserverClass@@QAE?AW4Flag@DAPlayerFlags@@XZ ; DAPlayerObserverClass::Get_Flags
PUBLIC	?Set_Flags@DAPlayerObserverClass@@QAEXW4Flag@DAPlayerFlags@@@Z ; DAPlayerObserverClass::Set_Flags
PUBLIC	?Add_Flag@DAPlayerObserverClass@@QAEXW4Flag@DAPlayerFlags@@@Z ; DAPlayerObserverClass::Add_Flag
PUBLIC	?Remove_Flag@DAPlayerObserverClass@@QAEXW4Flag@DAPlayerFlags@@@Z ; DAPlayerObserverClass::Remove_Flag
PUBLIC	?Has_Flag@DAPlayerObserverClass@@QAE_NW4Flag@DAPlayerFlags@@@Z ; DAPlayerObserverClass::Has_Flag
PUBLIC	?Get_ID@DAPlayerObserverClass@@QAEHXZ		; DAPlayerObserverClass::Get_ID
PUBLIC	?Get_Name@DAPlayerObserverClass@@QAEABVWideStringClass@@XZ ; DAPlayerObserverClass::Get_Name
PUBLIC	?Get_GameObj@DAPlayerObserverClass@@QAEPAVSoldierGameObj@@XZ ; DAPlayerObserverClass::Get_GameObj
PUBLIC	?Get_Team@DAPlayerObserverClass@@QAEHXZ		; DAPlayerObserverClass::Get_Team
PUBLIC	?Get_Timers@DAPlayerObserverClass@@QAEAAV?$DynamicVectorClass@PAUDAPlayerObserverTimerStruct@@@@XZ ; DAPlayerObserverClass::Get_Timers
PUBLIC	?Start_Timer@DAPlayerObserverClass@@QAEXHM_NI@Z	; DAPlayerObserverClass::Start_Timer
PUBLIC	?Stop_Timer@DAPlayerObserverClass@@QAEXHI@Z	; DAPlayerObserverClass::Stop_Timer
PUBLIC	?Is_Timer@DAPlayerObserverClass@@QAE_NHI@Z	; DAPlayerObserverClass::Is_Timer
PUBLIC	?Clear_Timers@DAPlayerObserverClass@@QAEXXZ	; DAPlayerObserverClass::Clear_Timers
PUBLIC	?Register_Chat_Command@DAPlayerObserverClass@@QAEXP81@AE_NABVDATokenClass@@W4TextMessageEnum@@@ZPBDHW4Level@DAAccessLevel@@W4Type@DAChatType@@@Z ; DAPlayerObserverClass::Register_Chat_Command
PUBLIC	?Unregister_Chat_Command@DAPlayerObserverClass@@QAEXPBD@Z ; DAPlayerObserverClass::Unregister_Chat_Command
PUBLIC	?Clear_Chat_Commands@DAPlayerObserverClass@@QAEXXZ ; DAPlayerObserverClass::Clear_Chat_Commands
PUBLIC	?Get_Chat_Commands@DAPlayerObserverClass@@QAEABV?$DynamicVectorClass@PAUDAPlayerObserverChatCommandStruct@@@@XZ ; DAPlayerObserverClass::Get_Chat_Commands
PUBLIC	?Register_Key_Hook@DAPlayerObserverClass@@QAEXP81@AEXXZPBD@Z ; DAPlayerObserverClass::Register_Key_Hook
PUBLIC	?Unregister_Key_Hook@DAPlayerObserverClass@@QAEXPBD@Z ; DAPlayerObserverClass::Unregister_Key_Hook
PUBLIC	?Clear_Key_Hooks@DAPlayerObserverClass@@QAEXXZ	; DAPlayerObserverClass::Clear_Key_Hooks
PUBLIC	?Get_Key_Hooks@DAPlayerObserverClass@@QAEABV?$DynamicVectorClass@PAUDAPlayerObserverKeyHookStruct@@@@XZ ; DAPlayerObserverClass::Get_Key_Hooks
PUBLIC	?Set_Delete_Pending@DAPlayerObserverClass@@QAEXXZ ; DAPlayerObserverClass::Set_Delete_Pending
PUBLIC	?Is_Delete_Pending@DAPlayerObserverClass@@QAE_NXZ ; DAPlayerObserverClass::Is_Delete_Pending
PUBLIC	??1DAPlayerObserverClass@@UAE@XZ		; DAPlayerObserverClass::~DAPlayerObserverClass
PUBLIC	?Init@DAPlayerObserverClass@@UAEXXZ		; DAPlayerObserverClass::Init
PUBLIC	?Join@DAPlayerObserverClass@@UAEXXZ		; DAPlayerObserverClass::Join
PUBLIC	?Leave@DAPlayerObserverClass@@UAEXXZ		; DAPlayerObserverClass::Leave
PUBLIC	?Level_Loaded@DAPlayerObserverClass@@UAEXXZ	; DAPlayerObserverClass::Level_Loaded
PUBLIC	?Player_Loaded@DAPlayerObserverClass@@UAEXXZ	; DAPlayerObserverClass::Player_Loaded
PUBLIC	?Name_Change@DAPlayerObserverClass@@UAEXXZ	; DAPlayerObserverClass::Name_Change
PUBLIC	?Team_Change@DAPlayerObserverClass@@UAEXXZ	; DAPlayerObserverClass::Team_Change
PUBLIC	?Character_Purchase_Request@DAPlayerObserverClass@@UAEHAAMPBVSoldierGameObjDef@@@Z ; DAPlayerObserverClass::Character_Purchase_Request
PUBLIC	?Vehicle_Purchase_Request@DAPlayerObserverClass@@UAEHAAMPBVVehicleGameObjDef@@@Z ; DAPlayerObserverClass::Vehicle_Purchase_Request
PUBLIC	?PowerUp_Purchase_Request@DAPlayerObserverClass@@UAEHAAMPBVPowerUpGameObjDef@@@Z ; DAPlayerObserverClass::PowerUp_Purchase_Request
PUBLIC	?Custom_Purchase_Request@DAPlayerObserverClass@@UAEHAAMI@Z ; DAPlayerObserverClass::Custom_Purchase_Request
PUBLIC	?Character_Purchase@DAPlayerObserverClass@@UAEXMPBVSoldierGameObjDef@@@Z ; DAPlayerObserverClass::Character_Purchase
PUBLIC	?Vehicle_Purchase@DAPlayerObserverClass@@UAEXMPBVVehicleGameObjDef@@@Z ; DAPlayerObserverClass::Vehicle_Purchase
PUBLIC	?PowerUp_Purchase@DAPlayerObserverClass@@UAEXMPBVPowerUpGameObjDef@@@Z ; DAPlayerObserverClass::PowerUp_Purchase
PUBLIC	?Custom_Purchase@DAPlayerObserverClass@@UAEXMI@Z ; DAPlayerObserverClass::Custom_Purchase
PUBLIC	?Vehicle_Entry_Request@DAPlayerObserverClass@@UAE_NPAVVehicleGameObj@@AAH@Z ; DAPlayerObserverClass::Vehicle_Entry_Request
PUBLIC	?Vehicle_Enter@DAPlayerObserverClass@@UAEXPAVVehicleGameObj@@H@Z ; DAPlayerObserverClass::Vehicle_Enter
PUBLIC	?Vehicle_Exit@DAPlayerObserverClass@@UAEXPAVVehicleGameObj@@H@Z ; DAPlayerObserverClass::Vehicle_Exit
PUBLIC	?PowerUp_Grant_Request@DAPlayerObserverClass@@UAE_NPBVPowerUpGameObjDef@@PAVPowerUpGameObj@@@Z ; DAPlayerObserverClass::PowerUp_Grant_Request
PUBLIC	?PowerUp_Grant@DAPlayerObserverClass@@UAEXPBVPowerUpGameObjDef@@PAVPowerUpGameObj@@@Z ; DAPlayerObserverClass::PowerUp_Grant
PUBLIC	?Add_Weapon_Request@DAPlayerObserverClass@@UAE_NPBVWeaponDefinitionClass@@@Z ; DAPlayerObserverClass::Add_Weapon_Request
PUBLIC	?Add_Weapon@DAPlayerObserverClass@@UAEXPAVWeaponClass@@@Z ; DAPlayerObserverClass::Add_Weapon
PUBLIC	?Remove_Weapon@DAPlayerObserverClass@@UAEXPAVWeaponClass@@@Z ; DAPlayerObserverClass::Remove_Weapon
PUBLIC	?Clear_Weapons@DAPlayerObserverClass@@UAEXXZ	; DAPlayerObserverClass::Clear_Weapons
PUBLIC	?C4_Detonate_Request@DAPlayerObserverClass@@UAE_NPAVC4GameObj@@@Z ; DAPlayerObserverClass::C4_Detonate_Request
PUBLIC	?C4_Detonate@DAPlayerObserverClass@@UAEXPAVC4GameObj@@@Z ; DAPlayerObserverClass::C4_Detonate
PUBLIC	?Change_Character@DAPlayerObserverClass@@UAEXPBVSoldierGameObjDef@@@Z ; DAPlayerObserverClass::Change_Character
PUBLIC	?Dialog_Message@DAPlayerObserverClass@@UAEXW4DialogMessageType@@PAVScriptedDialogClass@@PAVScriptedControlClass@@@Z ; DAPlayerObserverClass::Dialog_Message
PUBLIC	?Created@DAPlayerObserverClass@@UAEXXZ		; DAPlayerObserverClass::Created
PUBLIC	?Destroyed@DAPlayerObserverClass@@UAEXXZ	; DAPlayerObserverClass::Destroyed
PUBLIC	?Damage_Dealt_Request@DAPlayerObserverClass@@UAE_NPAVDamageableGameObj@@AAMAAIMW4Type@DADamageType@@@Z ; DAPlayerObserverClass::Damage_Dealt_Request
PUBLIC	?Damage_Received_Request@DAPlayerObserverClass@@UAE_NPAVArmedGameObj@@AAMAAIMW4Type@DADamageType@@@Z ; DAPlayerObserverClass::Damage_Received_Request
PUBLIC	?Damage_Dealt@DAPlayerObserverClass@@UAEXPAVDamageableGameObj@@MIMW4Type@DADamageType@@@Z ; DAPlayerObserverClass::Damage_Dealt
PUBLIC	?Damage_Received@DAPlayerObserverClass@@UAEXPAVArmedGameObj@@MIMW4Type@DADamageType@@@Z ; DAPlayerObserverClass::Damage_Received
PUBLIC	?Kill_Dealt@DAPlayerObserverClass@@UAEXPAVDamageableGameObj@@MIMW4Type@DADamageType@@@Z ; DAPlayerObserverClass::Kill_Dealt
PUBLIC	?Kill_Received@DAPlayerObserverClass@@UAEXPAVArmedGameObj@@MIMW4Type@DADamageType@@@Z ; DAPlayerObserverClass::Kill_Received
PUBLIC	?Custom@DAPlayerObserverClass@@UAEXPAVScriptableGameObj@@HH@Z ; DAPlayerObserverClass::Custom
PUBLIC	?Poked@DAPlayerObserverClass@@UAEXPAVcPlayer@@@Z ; DAPlayerObserverClass::Poked
PUBLIC	?Timer_Expired@DAPlayerObserverClass@@UAEXHI@Z	; DAPlayerObserverClass::Timer_Expired
PUBLIC	?Think@DAPlayerObserverClass@@UAEXXZ		; DAPlayerObserverClass::Think
PUBLIC	??0?$VectorClass@PAUDAPlayerObserverTimerStruct@@@@QAE@HPBQAUDAPlayerObserverTimerStruct@@@Z ; VectorClass<DAPlayerObserverTimerStruct *>::VectorClass<DAPlayerObserverTimerStruct *>
PUBLIC	??0?$VectorClass@PAUDAPlayerObserverTimerStruct@@@@QAE@ABV0@@Z ; VectorClass<DAPlayerObserverTimerStruct *>::VectorClass<DAPlayerObserverTimerStruct *>
PUBLIC	??4?$VectorClass@PAUDAPlayerObserverTimerStruct@@@@QAEAAV0@ABV0@@Z ; VectorClass<DAPlayerObserverTimerStruct *>::operator=
PUBLIC	??1?$VectorClass@PAUDAPlayerObserverTimerStruct@@@@UAE@XZ ; VectorClass<DAPlayerObserverTimerStruct *>::~VectorClass<DAPlayerObserverTimerStruct *>
PUBLIC	??A?$VectorClass@PAUDAPlayerObserverTimerStruct@@@@QAEAAPAUDAPlayerObserverTimerStruct@@H@Z ; VectorClass<DAPlayerObserverTimerStruct *>::operator[]
PUBLIC	??A?$VectorClass@PAUDAPlayerObserverTimerStruct@@@@QBEABQAUDAPlayerObserverTimerStruct@@H@Z ; VectorClass<DAPlayerObserverTimerStruct *>::operator[]
PUBLIC	??8?$VectorClass@PAUDAPlayerObserverTimerStruct@@@@UBE_NABV0@@Z ; VectorClass<DAPlayerObserverTimerStruct *>::operator==
PUBLIC	?Resize@?$VectorClass@PAUDAPlayerObserverTimerStruct@@@@UAE_NHPBQAUDAPlayerObserverTimerStruct@@@Z ; VectorClass<DAPlayerObserverTimerStruct *>::Resize
PUBLIC	?Clear@?$VectorClass@PAUDAPlayerObserverTimerStruct@@@@UAEXXZ ; VectorClass<DAPlayerObserverTimerStruct *>::Clear
PUBLIC	?Length@?$VectorClass@PAUDAPlayerObserverTimerStruct@@@@QBEHXZ ; VectorClass<DAPlayerObserverTimerStruct *>::Length
PUBLIC	?ID@?$VectorClass@PAUDAPlayerObserverTimerStruct@@@@UAEHPBQAUDAPlayerObserverTimerStruct@@@Z ; VectorClass<DAPlayerObserverTimerStruct *>::ID
PUBLIC	?ID@?$VectorClass@PAUDAPlayerObserverTimerStruct@@@@UAEHABQAUDAPlayerObserverTimerStruct@@@Z ; VectorClass<DAPlayerObserverTimerStruct *>::ID
PUBLIC	??_G?$VectorClass@PAUDAPlayerObserverTimerStruct@@@@UAEPAXI@Z ; VectorClass<DAPlayerObserverTimerStruct *>::`scalar deleting destructor'
PUBLIC	??0?$DynamicVectorClass@PAUDAPlayerObserverTimerStruct@@@@QAE@IPBQAUDAPlayerObserverTimerStruct@@@Z ; DynamicVectorClass<DAPlayerObserverTimerStruct *>::DynamicVectorClass<DAPlayerObserverTimerStruct *>
PUBLIC	??0?$DynamicVectorClass@PAUDAPlayerObserverTimerStruct@@@@QAE@ABV0@@Z ; DynamicVectorClass<DAPlayerObserverTimerStruct *>::DynamicVectorClass<DAPlayerObserverTimerStruct *>
PUBLIC	??4?$DynamicVectorClass@PAUDAPlayerObserverTimerStruct@@@@QAEAAV0@ABV0@@Z ; DynamicVectorClass<DAPlayerObserverTimerStruct *>::operator=
PUBLIC	?Resize@?$DynamicVectorClass@PAUDAPlayerObserverTimerStruct@@@@UAE_NHPBQAUDAPlayerObserverTimerStruct@@@Z ; DynamicVectorClass<DAPlayerObserverTimerStruct *>::Resize
PUBLIC	?Clear@?$DynamicVectorClass@PAUDAPlayerObserverTimerStruct@@@@UAEXXZ ; DynamicVectorClass<DAPlayerObserverTimerStruct *>::Clear
PUBLIC	?Count@?$DynamicVectorClass@PAUDAPlayerObserverTimerStruct@@@@QBEHXZ ; DynamicVectorClass<DAPlayerObserverTimerStruct *>::Count
PUBLIC	?Add@?$DynamicVectorClass@PAUDAPlayerObserverTimerStruct@@@@QAE_NABQAUDAPlayerObserverTimerStruct@@@Z ; DynamicVectorClass<DAPlayerObserverTimerStruct *>::Add
PUBLIC	?Delete@?$DynamicVectorClass@PAUDAPlayerObserverTimerStruct@@@@QAE_NH@Z ; DynamicVectorClass<DAPlayerObserverTimerStruct *>::Delete
PUBLIC	?Delete_All@?$DynamicVectorClass@PAUDAPlayerObserverTimerStruct@@@@QAEXXZ ; DynamicVectorClass<DAPlayerObserverTimerStruct *>::Delete_All
PUBLIC	?ID@?$DynamicVectorClass@PAUDAPlayerObserverTimerStruct@@@@UAEHPBQAUDAPlayerObserverTimerStruct@@@Z ; DynamicVectorClass<DAPlayerObserverTimerStruct *>::ID
PUBLIC	?ID@?$DynamicVectorClass@PAUDAPlayerObserverTimerStruct@@@@UAEHABQAUDAPlayerObserverTimerStruct@@@Z ; DynamicVectorClass<DAPlayerObserverTimerStruct *>::ID
PUBLIC	??1?$DynamicVectorClass@PAUDAPlayerObserverTimerStruct@@@@UAE@XZ ; DynamicVectorClass<DAPlayerObserverTimerStruct *>::~DynamicVectorClass<DAPlayerObserverTimerStruct *>
PUBLIC	??_G?$DynamicVectorClass@PAUDAPlayerObserverTimerStruct@@@@UAEPAXI@Z ; DynamicVectorClass<DAPlayerObserverTimerStruct *>::`scalar deleting destructor'
PUBLIC	??0?$VectorClass@PAUDAPlayerObserverChatCommandStruct@@@@QAE@HPBQAUDAPlayerObserverChatCommandStruct@@@Z ; VectorClass<DAPlayerObserverChatCommandStruct *>::VectorClass<DAPlayerObserverChatCommandStruct *>
PUBLIC	??0?$VectorClass@PAUDAPlayerObserverChatCommandStruct@@@@QAE@ABV0@@Z ; VectorClass<DAPlayerObserverChatCommandStruct *>::VectorClass<DAPlayerObserverChatCommandStruct *>
PUBLIC	??4?$VectorClass@PAUDAPlayerObserverChatCommandStruct@@@@QAEAAV0@ABV0@@Z ; VectorClass<DAPlayerObserverChatCommandStruct *>::operator=
PUBLIC	??1?$VectorClass@PAUDAPlayerObserverChatCommandStruct@@@@UAE@XZ ; VectorClass<DAPlayerObserverChatCommandStruct *>::~VectorClass<DAPlayerObserverChatCommandStruct *>
PUBLIC	??A?$VectorClass@PAUDAPlayerObserverChatCommandStruct@@@@QAEAAPAUDAPlayerObserverChatCommandStruct@@H@Z ; VectorClass<DAPlayerObserverChatCommandStruct *>::operator[]
PUBLIC	??A?$VectorClass@PAUDAPlayerObserverChatCommandStruct@@@@QBEABQAUDAPlayerObserverChatCommandStruct@@H@Z ; VectorClass<DAPlayerObserverChatCommandStruct *>::operator[]
PUBLIC	??8?$VectorClass@PAUDAPlayerObserverChatCommandStruct@@@@UBE_NABV0@@Z ; VectorClass<DAPlayerObserverChatCommandStruct *>::operator==
PUBLIC	?Resize@?$VectorClass@PAUDAPlayerObserverChatCommandStruct@@@@UAE_NHPBQAUDAPlayerObserverChatCommandStruct@@@Z ; VectorClass<DAPlayerObserverChatCommandStruct *>::Resize
PUBLIC	?Clear@?$VectorClass@PAUDAPlayerObserverChatCommandStruct@@@@UAEXXZ ; VectorClass<DAPlayerObserverChatCommandStruct *>::Clear
PUBLIC	?Length@?$VectorClass@PAUDAPlayerObserverChatCommandStruct@@@@QBEHXZ ; VectorClass<DAPlayerObserverChatCommandStruct *>::Length
PUBLIC	?ID@?$VectorClass@PAUDAPlayerObserverChatCommandStruct@@@@UAEHPBQAUDAPlayerObserverChatCommandStruct@@@Z ; VectorClass<DAPlayerObserverChatCommandStruct *>::ID
PUBLIC	?ID@?$VectorClass@PAUDAPlayerObserverChatCommandStruct@@@@UAEHABQAUDAPlayerObserverChatCommandStruct@@@Z ; VectorClass<DAPlayerObserverChatCommandStruct *>::ID
PUBLIC	??_G?$VectorClass@PAUDAPlayerObserverChatCommandStruct@@@@UAEPAXI@Z ; VectorClass<DAPlayerObserverChatCommandStruct *>::`scalar deleting destructor'
PUBLIC	??0?$DynamicVectorClass@PAUDAPlayerObserverChatCommandStruct@@@@QAE@IPBQAUDAPlayerObserverChatCommandStruct@@@Z ; DynamicVectorClass<DAPlayerObserverChatCommandStruct *>::DynamicVectorClass<DAPlayerObserverChatCommandStruct *>
PUBLIC	??0?$DynamicVectorClass@PAUDAPlayerObserverChatCommandStruct@@@@QAE@ABV0@@Z ; DynamicVectorClass<DAPlayerObserverChatCommandStruct *>::DynamicVectorClass<DAPlayerObserverChatCommandStruct *>
PUBLIC	??4?$DynamicVectorClass@PAUDAPlayerObserverChatCommandStruct@@@@QAEAAV0@ABV0@@Z ; DynamicVectorClass<DAPlayerObserverChatCommandStruct *>::operator=
PUBLIC	?Resize@?$DynamicVectorClass@PAUDAPlayerObserverChatCommandStruct@@@@UAE_NHPBQAUDAPlayerObserverChatCommandStruct@@@Z ; DynamicVectorClass<DAPlayerObserverChatCommandStruct *>::Resize
PUBLIC	?Clear@?$DynamicVectorClass@PAUDAPlayerObserverChatCommandStruct@@@@UAEXXZ ; DynamicVectorClass<DAPlayerObserverChatCommandStruct *>::Clear
PUBLIC	?Count@?$DynamicVectorClass@PAUDAPlayerObserverChatCommandStruct@@@@QBEHXZ ; DynamicVectorClass<DAPlayerObserverChatCommandStruct *>::Count
PUBLIC	?Add@?$DynamicVectorClass@PAUDAPlayerObserverChatCommandStruct@@@@QAE_NABQAUDAPlayerObserverChatCommandStruct@@@Z ; DynamicVectorClass<DAPlayerObserverChatCommandStruct *>::Add
PUBLIC	?Delete@?$DynamicVectorClass@PAUDAPlayerObserverChatCommandStruct@@@@QAE_NH@Z ; DynamicVectorClass<DAPlayerObserverChatCommandStruct *>::Delete
PUBLIC	?Delete_All@?$DynamicVectorClass@PAUDAPlayerObserverChatCommandStruct@@@@QAEXXZ ; DynamicVectorClass<DAPlayerObserverChatCommandStruct *>::Delete_All
PUBLIC	?ID@?$DynamicVectorClass@PAUDAPlayerObserverChatCommandStruct@@@@UAEHPBQAUDAPlayerObserverChatCommandStruct@@@Z ; DynamicVectorClass<DAPlayerObserverChatCommandStruct *>::ID
PUBLIC	?ID@?$DynamicVectorClass@PAUDAPlayerObserverChatCommandStruct@@@@UAEHABQAUDAPlayerObserverChatCommandStruct@@@Z ; DynamicVectorClass<DAPlayerObserverChatCommandStruct *>::ID
PUBLIC	??1?$DynamicVectorClass@PAUDAPlayerObserverChatCommandStruct@@@@UAE@XZ ; DynamicVectorClass<DAPlayerObserverChatCommandStruct *>::~DynamicVectorClass<DAPlayerObserverChatCommandStruct *>
PUBLIC	??_G?$DynamicVectorClass@PAUDAPlayerObserverChatCommandStruct@@@@UAEPAXI@Z ; DynamicVectorClass<DAPlayerObserverChatCommandStruct *>::`scalar deleting destructor'
PUBLIC	??0?$VectorClass@PAUDAPlayerObserverKeyHookStruct@@@@QAE@HPBQAUDAPlayerObserverKeyHookStruct@@@Z ; VectorClass<DAPlayerObserverKeyHookStruct *>::VectorClass<DAPlayerObserverKeyHookStruct *>
PUBLIC	??0?$VectorClass@PAUDAPlayerObserverKeyHookStruct@@@@QAE@ABV0@@Z ; VectorClass<DAPlayerObserverKeyHookStruct *>::VectorClass<DAPlayerObserverKeyHookStruct *>
PUBLIC	??4?$VectorClass@PAUDAPlayerObserverKeyHookStruct@@@@QAEAAV0@ABV0@@Z ; VectorClass<DAPlayerObserverKeyHookStruct *>::operator=
PUBLIC	??1?$VectorClass@PAUDAPlayerObserverKeyHookStruct@@@@UAE@XZ ; VectorClass<DAPlayerObserverKeyHookStruct *>::~VectorClass<DAPlayerObserverKeyHookStruct *>
PUBLIC	??A?$VectorClass@PAUDAPlayerObserverKeyHookStruct@@@@QAEAAPAUDAPlayerObserverKeyHookStruct@@H@Z ; VectorClass<DAPlayerObserverKeyHookStruct *>::operator[]
PUBLIC	??A?$VectorClass@PAUDAPlayerObserverKeyHookStruct@@@@QBEABQAUDAPlayerObserverKeyHookStruct@@H@Z ; VectorClass<DAPlayerObserverKeyHookStruct *>::operator[]
PUBLIC	??8?$VectorClass@PAUDAPlayerObserverKeyHookStruct@@@@UBE_NABV0@@Z ; VectorClass<DAPlayerObserverKeyHookStruct *>::operator==
PUBLIC	?Resize@?$VectorClass@PAUDAPlayerObserverKeyHookStruct@@@@UAE_NHPBQAUDAPlayerObserverKeyHookStruct@@@Z ; VectorClass<DAPlayerObserverKeyHookStruct *>::Resize
PUBLIC	?Clear@?$VectorClass@PAUDAPlayerObserverKeyHookStruct@@@@UAEXXZ ; VectorClass<DAPlayerObserverKeyHookStruct *>::Clear
PUBLIC	?Length@?$VectorClass@PAUDAPlayerObserverKeyHookStruct@@@@QBEHXZ ; VectorClass<DAPlayerObserverKeyHookStruct *>::Length
PUBLIC	?ID@?$VectorClass@PAUDAPlayerObserverKeyHookStruct@@@@UAEHPBQAUDAPlayerObserverKeyHookStruct@@@Z ; VectorClass<DAPlayerObserverKeyHookStruct *>::ID
PUBLIC	?ID@?$VectorClass@PAUDAPlayerObserverKeyHookStruct@@@@UAEHABQAUDAPlayerObserverKeyHookStruct@@@Z ; VectorClass<DAPlayerObserverKeyHookStruct *>::ID
PUBLIC	??_G?$VectorClass@PAUDAPlayerObserverKeyHookStruct@@@@UAEPAXI@Z ; VectorClass<DAPlayerObserverKeyHookStruct *>::`scalar deleting destructor'
PUBLIC	??0?$DynamicVectorClass@PAUDAPlayerObserverKeyHookStruct@@@@QAE@IPBQAUDAPlayerObserverKeyHookStruct@@@Z ; DynamicVectorClass<DAPlayerObserverKeyHookStruct *>::DynamicVectorClass<DAPlayerObserverKeyHookStruct *>
PUBLIC	??0?$DynamicVectorClass@PAUDAPlayerObserverKeyHookStruct@@@@QAE@ABV0@@Z ; DynamicVectorClass<DAPlayerObserverKeyHookStruct *>::DynamicVectorClass<DAPlayerObserverKeyHookStruct *>
PUBLIC	??4?$DynamicVectorClass@PAUDAPlayerObserverKeyHookStruct@@@@QAEAAV0@ABV0@@Z ; DynamicVectorClass<DAPlayerObserverKeyHookStruct *>::operator=
PUBLIC	?Resize@?$DynamicVectorClass@PAUDAPlayerObserverKeyHookStruct@@@@UAE_NHPBQAUDAPlayerObserverKeyHookStruct@@@Z ; DynamicVectorClass<DAPlayerObserverKeyHookStruct *>::Resize
PUBLIC	?Clear@?$DynamicVectorClass@PAUDAPlayerObserverKeyHookStruct@@@@UAEXXZ ; DynamicVectorClass<DAPlayerObserverKeyHookStruct *>::Clear
PUBLIC	?Count@?$DynamicVectorClass@PAUDAPlayerObserverKeyHookStruct@@@@QBEHXZ ; DynamicVectorClass<DAPlayerObserverKeyHookStruct *>::Count
PUBLIC	?Add@?$DynamicVectorClass@PAUDAPlayerObserverKeyHookStruct@@@@QAE_NABQAUDAPlayerObserverKeyHookStruct@@@Z ; DynamicVectorClass<DAPlayerObserverKeyHookStruct *>::Add
PUBLIC	?Delete@?$DynamicVectorClass@PAUDAPlayerObserverKeyHookStruct@@@@QAE_NH@Z ; DynamicVectorClass<DAPlayerObserverKeyHookStruct *>::Delete
PUBLIC	?Delete_All@?$DynamicVectorClass@PAUDAPlayerObserverKeyHookStruct@@@@QAEXXZ ; DynamicVectorClass<DAPlayerObserverKeyHookStruct *>::Delete_All
PUBLIC	?ID@?$DynamicVectorClass@PAUDAPlayerObserverKeyHookStruct@@@@UAEHPBQAUDAPlayerObserverKeyHookStruct@@@Z ; DynamicVectorClass<DAPlayerObserverKeyHookStruct *>::ID
PUBLIC	?ID@?$DynamicVectorClass@PAUDAPlayerObserverKeyHookStruct@@@@UAEHABQAUDAPlayerObserverKeyHookStruct@@@Z ; DynamicVectorClass<DAPlayerObserverKeyHookStruct *>::ID
PUBLIC	??1?$DynamicVectorClass@PAUDAPlayerObserverKeyHookStruct@@@@UAE@XZ ; DynamicVectorClass<DAPlayerObserverKeyHookStruct *>::~DynamicVectorClass<DAPlayerObserverKeyHookStruct *>
PUBLIC	??_G?$DynamicVectorClass@PAUDAPlayerObserverKeyHookStruct@@@@UAEPAXI@Z ; DynamicVectorClass<DAPlayerObserverKeyHookStruct *>::`scalar deleting destructor'
PUBLIC	??0DAPlayerObserverClass@@QAE@ABV0@@Z		; DAPlayerObserverClass::DAPlayerObserverClass
PUBLIC	??4DAPlayerObserverClass@@QAEAAV0@ABV0@@Z	; DAPlayerObserverClass::operator=
PUBLIC	??_GDAPlayerObserverClass@@UAEPAXI@Z		; DAPlayerObserverClass::`scalar deleting destructor'
PUBLIC	??_EDAPlayerObserverClass@@UAEPAXI@Z		; DAPlayerObserverClass::`vector deleting destructor'
PUBLIC	??1DAPlayerDataFactoryClass@@UAE@XZ		; DAPlayerDataFactoryClass::~DAPlayerDataFactoryClass
PUBLIC	??0DAPlayerDataFactoryClass@@QAE@XZ		; DAPlayerDataFactoryClass::DAPlayerDataFactoryClass
PUBLIC	??0DAPlayerDataFactoryClass@@QAE@ABV0@@Z	; DAPlayerDataFactoryClass::DAPlayerDataFactoryClass
PUBLIC	??4DAPlayerDataFactoryClass@@QAEAAV0@ABV0@@Z	; DAPlayerDataFactoryClass::operator=
PUBLIC	??_GDAPlayerDataFactoryClass@@UAEPAXI@Z		; DAPlayerDataFactoryClass::`scalar deleting destructor'
PUBLIC	??_EDAPlayerDataFactoryClass@@UAEPAXI@Z		; DAPlayerDataFactoryClass::`vector deleting destructor'
PUBLIC	??1DAPlayerDataClass@@UAE@XZ			; DAPlayerDataClass::~DAPlayerDataClass
PUBLIC	?Get_Owner@DAPlayerDataClass@@QAEPAVcPlayer@@XZ	; DAPlayerDataClass::Get_Owner
PUBLIC	?Set_Owner@DAPlayerDataClass@@QAEXPAVcPlayer@@@Z ; DAPlayerDataClass::Set_Owner
PUBLIC	?Get_Factory@DAPlayerDataClass@@QAEPBVDAPlayerDataFactoryClass@@XZ ; DAPlayerDataClass::Get_Factory
PUBLIC	?Set_Factory@DAPlayerDataClass@@QAEXPBVDAPlayerDataFactoryClass@@@Z ; DAPlayerDataClass::Set_Factory
PUBLIC	?Get_ID@DAPlayerDataClass@@QAEHXZ		; DAPlayerDataClass::Get_ID
PUBLIC	?Get_Name@DAPlayerDataClass@@QAEABVWideStringClass@@XZ ; DAPlayerDataClass::Get_Name
PUBLIC	?Get_GameObj@DAPlayerDataClass@@QAEPAVSoldierGameObj@@XZ ; DAPlayerDataClass::Get_GameObj
PUBLIC	?Get_Team@DAPlayerDataClass@@QAEHXZ		; DAPlayerDataClass::Get_Team
PUBLIC	?Init@DAPlayerDataClass@@UAEXXZ			; DAPlayerDataClass::Init
PUBLIC	?Clear_Level@DAPlayerDataClass@@UAEXXZ		; DAPlayerDataClass::Clear_Level
PUBLIC	?Clear_Session@DAPlayerDataClass@@UAEXXZ	; DAPlayerDataClass::Clear_Session
PUBLIC	??0DAPlayerDataClass@@QAE@XZ			; DAPlayerDataClass::DAPlayerDataClass
PUBLIC	??0DAPlayerDataClass@@QAE@ABV0@@Z		; DAPlayerDataClass::DAPlayerDataClass
PUBLIC	??4DAPlayerDataClass@@QAEAAV0@ABV0@@Z		; DAPlayerDataClass::operator=
PUBLIC	??_GDAPlayerDataClass@@UAEPAXI@Z		; DAPlayerDataClass::`scalar deleting destructor'
PUBLIC	??_EDAPlayerDataClass@@UAEPAXI@Z		; DAPlayerDataClass::`vector deleting destructor'
PUBLIC	?Init@DAPlayerManager@@SAXXZ			; DAPlayerManager::Init
PUBLIC	?Shutdown@DAPlayerManager@@SAXXZ		; DAPlayerManager::Shutdown
PUBLIC	?Add_Data_Factory@DAPlayerManager@@SAXPAVDAPlayerDataFactoryClass@@@Z ; DAPlayerManager::Add_Data_Factory
PUBLIC	?Remove_Data_Factory@DAPlayerManager@@SAXPAVDAPlayerDataFactoryClass@@@Z ; DAPlayerManager::Remove_Data_Factory
PUBLIC	?Get_Disable_Kill_Messages@DAPlayerManager@@SA_NXZ ; DAPlayerManager::Get_Disable_Kill_Messages
PUBLIC	?Get_Disable_Kill_Counter@DAPlayerManager@@SA_NXZ ; DAPlayerManager::Get_Disable_Kill_Counter
PUBLIC	?Get_Disable_Team_Kill_Counter@DAPlayerManager@@SA_NXZ ; DAPlayerManager::Get_Disable_Team_Kill_Counter
PUBLIC	?Get_Disable_Death_Counter@DAPlayerManager@@SA_NXZ ; DAPlayerManager::Get_Disable_Death_Counter
PUBLIC	?Get_Disable_Team_Death_Counter@DAPlayerManager@@SA_NXZ ; DAPlayerManager::Get_Disable_Team_Death_Counter
PUBLIC	?Get_Disable_Damage_Points@DAPlayerManager@@SA_NXZ ; DAPlayerManager::Get_Disable_Damage_Points
PUBLIC	?Get_Disable_Death_Points@DAPlayerManager@@SA_NXZ ; DAPlayerManager::Get_Disable_Death_Points
PUBLIC	?Get_Disable_Team_Score_Counter@DAPlayerManager@@SA_NXZ ; DAPlayerManager::Get_Disable_Team_Score_Counter
PUBLIC	?Get_Credits_Multiplier@DAPlayerManager@@SAMXZ	; DAPlayerManager::Get_Credits_Multiplier
PUBLIC	?Set_Disable_Kill_Messages@DAPlayerManager@@SAX_N@Z ; DAPlayerManager::Set_Disable_Kill_Messages
PUBLIC	?Set_Disable_Kill_Counter@DAPlayerManager@@SAX_N@Z ; DAPlayerManager::Set_Disable_Kill_Counter
PUBLIC	?Set_Disable_Team_Kill_Counter@DAPlayerManager@@SAX_N@Z ; DAPlayerManager::Set_Disable_Team_Kill_Counter
PUBLIC	?Set_Disable_Death_Counter@DAPlayerManager@@SAX_N@Z ; DAPlayerManager::Set_Disable_Death_Counter
PUBLIC	?Set_Disable_Team_Death_Counter@DAPlayerManager@@SAX_N@Z ; DAPlayerManager::Set_Disable_Team_Death_Counter
PUBLIC	?Set_Disable_Damage_Points@DAPlayerManager@@SAX_N@Z ; DAPlayerManager::Set_Disable_Damage_Points
PUBLIC	?Set_Disable_Death_Points@DAPlayerManager@@SAX_N@Z ; DAPlayerManager::Set_Disable_Death_Points
PUBLIC	?Set_Disable_Team_Score_Counter@DAPlayerManager@@SAX_N@Z ; DAPlayerManager::Set_Disable_Team_Score_Counter
PUBLIC	?Set_Credits_Multiplier@DAPlayerManager@@SAXM@Z	; DAPlayerManager::Set_Credits_Multiplier
PUBLIC	?Check_Player@DAPlayerManager@@CA_NPAVDAPlayerClass@@@Z ; DAPlayerManager::Check_Player
PUBLIC	?Chat_Event@DAPlayerManager@@EAE_NPAVcPlayer@@W4TextMessageEnum@@PB_WH@Z ; DAPlayerManager::Chat_Event
PUBLIC	?Radio_Event@DAPlayerManager@@EAE_NPAVcPlayer@@HHHW4AnnouncementEnum@@@Z ; DAPlayerManager::Radio_Event
PUBLIC	?Level_Loaded_Event@DAPlayerManager@@EAEXXZ	; DAPlayerManager::Level_Loaded_Event
PUBLIC	?Settings_Loaded_Event@DAPlayerManager@@EAEXXZ	; DAPlayerManager::Settings_Loaded_Event
PUBLIC	?Connection_Request_Event@DAPlayerManager@@EAE?AW4STATUS@ConnectionAcceptanceFilter@@AAUConnectionRequest@@AAVWideStringClass@@@Z ; DAPlayerManager::Connection_Request_Event
PUBLIC	?Player_Join_Event@DAPlayerManager@@EAEXPAVcPlayer@@@Z ; DAPlayerManager::Player_Join_Event
PUBLIC	?Player_Leave_Event@DAPlayerManager@@EAEXPAVcPlayer@@@Z ; DAPlayerManager::Player_Leave_Event
PUBLIC	?Player_Loaded_Event@DAPlayerManager@@EAEXPAVcPlayer@@@Z ; DAPlayerManager::Player_Loaded_Event
PUBLIC	?Name_Change_Event@DAPlayerManager@@EAEXPAVcPlayer@@@Z ; DAPlayerManager::Name_Change_Event
PUBLIC	?Character_Purchase_Request_Event@DAPlayerManager@@EAEHPAVBaseControllerClass@@PAVcPlayer@@AAMPBVSoldierGameObjDef@@@Z ; DAPlayerManager::Character_Purchase_Request_Event
PUBLIC	?Vehicle_Purchase_Request_Event@DAPlayerManager@@EAEHPAVBaseControllerClass@@PAVcPlayer@@AAMPBVVehicleGameObjDef@@@Z ; DAPlayerManager::Vehicle_Purchase_Request_Event
PUBLIC	?PowerUp_Purchase_Request_Event@DAPlayerManager@@EAEHPAVBaseControllerClass@@PAVcPlayer@@AAMPBVPowerUpGameObjDef@@@Z ; DAPlayerManager::PowerUp_Purchase_Request_Event
PUBLIC	?Custom_Purchase_Request_Event@DAPlayerManager@@EAEHPAVBaseControllerClass@@PAVcPlayer@@AAMI@Z ; DAPlayerManager::Custom_Purchase_Request_Event
PUBLIC	?Character_Purchase_Event@DAPlayerManager@@EAEXPAVcPlayer@@MPBVSoldierGameObjDef@@@Z ; DAPlayerManager::Character_Purchase_Event
PUBLIC	?Vehicle_Purchase_Event@DAPlayerManager@@EAEXPAVcPlayer@@MPBVVehicleGameObjDef@@@Z ; DAPlayerManager::Vehicle_Purchase_Event
PUBLIC	?PowerUp_Purchase_Event@DAPlayerManager@@EAEXPAVcPlayer@@MPBVPowerUpGameObjDef@@@Z ; DAPlayerManager::PowerUp_Purchase_Event
PUBLIC	?Custom_Purchase_Event@DAPlayerManager@@EAEXPAVcPlayer@@MI@Z ; DAPlayerManager::Custom_Purchase_Event
PUBLIC	?Team_Change_Event@DAPlayerManager@@EAEXPAVcPlayer@@@Z ; DAPlayerManager::Team_Change_Event
PUBLIC	?Suicide_Event@DAPlayerManager@@EAE_NPAVcPlayer@@@Z ; DAPlayerManager::Suicide_Event
PUBLIC	?Vehicle_Entry_Request_Event@DAPlayerManager@@EAE_NPAVVehicleGameObj@@PAVcPlayer@@AAH@Z ; DAPlayerManager::Vehicle_Entry_Request_Event
PUBLIC	?Vehicle_Enter_Event@DAPlayerManager@@EAEXPAVVehicleGameObj@@PAVcPlayer@@H@Z ; DAPlayerManager::Vehicle_Enter_Event
PUBLIC	?Vehicle_Exit_Event@DAPlayerManager@@EAEXPAVVehicleGameObj@@PAVcPlayer@@H@Z ; DAPlayerManager::Vehicle_Exit_Event
PUBLIC	?PowerUp_Grant_Request_Event@DAPlayerManager@@EAE_NPAVcPlayer@@PBVPowerUpGameObjDef@@PAVPowerUpGameObj@@@Z ; DAPlayerManager::PowerUp_Grant_Request_Event
PUBLIC	?PowerUp_Grant_Event@DAPlayerManager@@EAEXPAVcPlayer@@PBVPowerUpGameObjDef@@PAVPowerUpGameObj@@@Z ; DAPlayerManager::PowerUp_Grant_Event
PUBLIC	?Add_Weapon_Request_Event@DAPlayerManager@@EAE_NPAVcPlayer@@PBVWeaponDefinitionClass@@@Z ; DAPlayerManager::Add_Weapon_Request_Event
PUBLIC	?Add_Weapon_Event@DAPlayerManager@@EAEXPAVcPlayer@@PAVWeaponClass@@@Z ; DAPlayerManager::Add_Weapon_Event
PUBLIC	?Remove_Weapon_Event@DAPlayerManager@@EAEXPAVcPlayer@@PAVWeaponClass@@@Z ; DAPlayerManager::Remove_Weapon_Event
PUBLIC	?Clear_Weapons_Event@DAPlayerManager@@EAEXPAVcPlayer@@@Z ; DAPlayerManager::Clear_Weapons_Event
PUBLIC	?C4_Detonate_Request_Event@DAPlayerManager@@EAE_NPAVC4GameObj@@PAVSmartGameObj@@@Z ; DAPlayerManager::C4_Detonate_Request_Event
PUBLIC	?C4_Detonate_Event@DAPlayerManager@@EAEXPAVC4GameObj@@PAVSmartGameObj@@@Z ; DAPlayerManager::C4_Detonate_Event
PUBLIC	?Change_Character_Event@DAPlayerManager@@EAEXPAVcPlayer@@PBVSoldierGameObjDef@@@Z ; DAPlayerManager::Change_Character_Event
PUBLIC	?Think@DAPlayerManager@@EAEXXZ			; DAPlayerManager::Think
PUBLIC	?Dialog_Event@DAPlayerManager@@EAEXPAVcPlayer@@W4DialogMessageType@@PAVScriptedDialogClass@@PAVScriptedControlClass@@@Z ; DAPlayerManager::Dialog_Event
PUBLIC	?Object_Created_Event@DAPlayerManager@@EAEXPAVScriptableGameObj@@@Z ; DAPlayerManager::Object_Created_Event
PUBLIC	?Object_Destroyed_Event@DAPlayerManager@@EAEXPAVScriptableGameObj@@@Z ; DAPlayerManager::Object_Destroyed_Event
PUBLIC	?Damage_Request_Event@DAPlayerManager@@EAE_NPAVDamageableGameObj@@PAVArmedGameObj@@AAMAAIMW4Type@DADamageType@@@Z ; DAPlayerManager::Damage_Request_Event
PUBLIC	?Damage_Event@DAPlayerManager@@EAEXPAVDamageableGameObj@@PAVArmedGameObj@@MIMW4Type@DADamageType@@@Z ; DAPlayerManager::Damage_Event
PUBLIC	?Kill_Event@DAPlayerManager@@EAEXPAVDamageableGameObj@@PAVArmedGameObj@@MIMW4Type@DADamageType@@@Z ; DAPlayerManager::Kill_Event
PUBLIC	?Custom_Event@DAPlayerManager@@EAEXPAVScriptableGameObj@@HH0@Z ; DAPlayerManager::Custom_Event
PUBLIC	?Poke_Event@DAPlayerManager@@EAEXPAVcPlayer@@PAVPhysicalGameObj@@@Z ; DAPlayerManager::Poke_Event
PUBLIC	??0?$VectorClass@PAVDAPlayerDataFactoryClass@@@@QAE@HPBQAVDAPlayerDataFactoryClass@@@Z ; VectorClass<DAPlayerDataFactoryClass *>::VectorClass<DAPlayerDataFactoryClass *>
PUBLIC	??1?$VectorClass@PAVDAPlayerDataFactoryClass@@@@UAE@XZ ; VectorClass<DAPlayerDataFactoryClass *>::~VectorClass<DAPlayerDataFactoryClass *>
PUBLIC	??A?$VectorClass@PAVDAPlayerDataFactoryClass@@@@QAEAAPAVDAPlayerDataFactoryClass@@H@Z ; VectorClass<DAPlayerDataFactoryClass *>::operator[]
PUBLIC	??A?$VectorClass@PAVDAPlayerDataFactoryClass@@@@QBEABQAVDAPlayerDataFactoryClass@@H@Z ; VectorClass<DAPlayerDataFactoryClass *>::operator[]
PUBLIC	??8?$VectorClass@PAVDAPlayerDataFactoryClass@@@@UBE_NABV0@@Z ; VectorClass<DAPlayerDataFactoryClass *>::operator==
PUBLIC	?Resize@?$VectorClass@PAVDAPlayerDataFactoryClass@@@@UAE_NHPBQAVDAPlayerDataFactoryClass@@@Z ; VectorClass<DAPlayerDataFactoryClass *>::Resize
PUBLIC	?Clear@?$VectorClass@PAVDAPlayerDataFactoryClass@@@@UAEXXZ ; VectorClass<DAPlayerDataFactoryClass *>::Clear
PUBLIC	?Length@?$VectorClass@PAVDAPlayerDataFactoryClass@@@@QBEHXZ ; VectorClass<DAPlayerDataFactoryClass *>::Length
PUBLIC	?ID@?$VectorClass@PAVDAPlayerDataFactoryClass@@@@UAEHPBQAVDAPlayerDataFactoryClass@@@Z ; VectorClass<DAPlayerDataFactoryClass *>::ID
PUBLIC	?ID@?$VectorClass@PAVDAPlayerDataFactoryClass@@@@UAEHABQAVDAPlayerDataFactoryClass@@@Z ; VectorClass<DAPlayerDataFactoryClass *>::ID
PUBLIC	??_G?$VectorClass@PAVDAPlayerDataFactoryClass@@@@UAEPAXI@Z ; VectorClass<DAPlayerDataFactoryClass *>::`scalar deleting destructor'
PUBLIC	??0?$DynamicVectorClass@PAVDAPlayerDataFactoryClass@@@@QAE@IPBQAVDAPlayerDataFactoryClass@@@Z ; DynamicVectorClass<DAPlayerDataFactoryClass *>::DynamicVectorClass<DAPlayerDataFactoryClass *>
PUBLIC	?Resize@?$DynamicVectorClass@PAVDAPlayerDataFactoryClass@@@@UAE_NHPBQAVDAPlayerDataFactoryClass@@@Z ; DynamicVectorClass<DAPlayerDataFactoryClass *>::Resize
PUBLIC	?Clear@?$DynamicVectorClass@PAVDAPlayerDataFactoryClass@@@@UAEXXZ ; DynamicVectorClass<DAPlayerDataFactoryClass *>::Clear
PUBLIC	?Count@?$DynamicVectorClass@PAVDAPlayerDataFactoryClass@@@@QBEHXZ ; DynamicVectorClass<DAPlayerDataFactoryClass *>::Count
PUBLIC	?Add@?$DynamicVectorClass@PAVDAPlayerDataFactoryClass@@@@QAE_NABQAVDAPlayerDataFactoryClass@@@Z ; DynamicVectorClass<DAPlayerDataFactoryClass *>::Add
PUBLIC	?DeleteObj@?$DynamicVectorClass@PAVDAPlayerDataFactoryClass@@@@QAE_NABQAVDAPlayerDataFactoryClass@@@Z ; DynamicVectorClass<DAPlayerDataFactoryClass *>::DeleteObj
PUBLIC	?Delete@?$DynamicVectorClass@PAVDAPlayerDataFactoryClass@@@@QAE_NH@Z ; DynamicVectorClass<DAPlayerDataFactoryClass *>::Delete
PUBLIC	?ID@?$DynamicVectorClass@PAVDAPlayerDataFactoryClass@@@@UAEHPBQAVDAPlayerDataFactoryClass@@@Z ; DynamicVectorClass<DAPlayerDataFactoryClass *>::ID
PUBLIC	?ID@?$DynamicVectorClass@PAVDAPlayerDataFactoryClass@@@@UAEHABQAVDAPlayerDataFactoryClass@@@Z ; DynamicVectorClass<DAPlayerDataFactoryClass *>::ID
PUBLIC	??1?$DynamicVectorClass@PAVDAPlayerDataFactoryClass@@@@UAE@XZ ; DynamicVectorClass<DAPlayerDataFactoryClass *>::~DynamicVectorClass<DAPlayerDataFactoryClass *>
PUBLIC	??_G?$DynamicVectorClass@PAVDAPlayerDataFactoryClass@@@@UAEPAXI@Z ; DynamicVectorClass<DAPlayerDataFactoryClass *>::`scalar deleting destructor'
PUBLIC	??0?$VectorClass@PAVDAPlayerClass@@@@QAE@HPBQAVDAPlayerClass@@@Z ; VectorClass<DAPlayerClass *>::VectorClass<DAPlayerClass *>
PUBLIC	??1?$VectorClass@PAVDAPlayerClass@@@@UAE@XZ	; VectorClass<DAPlayerClass *>::~VectorClass<DAPlayerClass *>
PUBLIC	??A?$VectorClass@PAVDAPlayerClass@@@@QAEAAPAVDAPlayerClass@@H@Z ; VectorClass<DAPlayerClass *>::operator[]
PUBLIC	??A?$VectorClass@PAVDAPlayerClass@@@@QBEABQAVDAPlayerClass@@H@Z ; VectorClass<DAPlayerClass *>::operator[]
PUBLIC	??8?$VectorClass@PAVDAPlayerClass@@@@UBE_NABV0@@Z ; VectorClass<DAPlayerClass *>::operator==
PUBLIC	?Resize@?$VectorClass@PAVDAPlayerClass@@@@UAE_NHPBQAVDAPlayerClass@@@Z ; VectorClass<DAPlayerClass *>::Resize
PUBLIC	?Clear@?$VectorClass@PAVDAPlayerClass@@@@UAEXXZ	; VectorClass<DAPlayerClass *>::Clear
PUBLIC	?Length@?$VectorClass@PAVDAPlayerClass@@@@QBEHXZ ; VectorClass<DAPlayerClass *>::Length
PUBLIC	?ID@?$VectorClass@PAVDAPlayerClass@@@@UAEHPBQAVDAPlayerClass@@@Z ; VectorClass<DAPlayerClass *>::ID
PUBLIC	?ID@?$VectorClass@PAVDAPlayerClass@@@@UAEHABQAVDAPlayerClass@@@Z ; VectorClass<DAPlayerClass *>::ID
PUBLIC	??_G?$VectorClass@PAVDAPlayerClass@@@@UAEPAXI@Z	; VectorClass<DAPlayerClass *>::`scalar deleting destructor'
PUBLIC	??0?$DynamicVectorClass@PAVDAPlayerClass@@@@QAE@IPBQAVDAPlayerClass@@@Z ; DynamicVectorClass<DAPlayerClass *>::DynamicVectorClass<DAPlayerClass *>
PUBLIC	?Resize@?$DynamicVectorClass@PAVDAPlayerClass@@@@UAE_NHPBQAVDAPlayerClass@@@Z ; DynamicVectorClass<DAPlayerClass *>::Resize
PUBLIC	?Clear@?$DynamicVectorClass@PAVDAPlayerClass@@@@UAEXXZ ; DynamicVectorClass<DAPlayerClass *>::Clear
PUBLIC	?Count@?$DynamicVectorClass@PAVDAPlayerClass@@@@QBEHXZ ; DynamicVectorClass<DAPlayerClass *>::Count
PUBLIC	?Add@?$DynamicVectorClass@PAVDAPlayerClass@@@@QAE_NABQAVDAPlayerClass@@@Z ; DynamicVectorClass<DAPlayerClass *>::Add
PUBLIC	?Delete@?$DynamicVectorClass@PAVDAPlayerClass@@@@QAE_NH@Z ; DynamicVectorClass<DAPlayerClass *>::Delete
PUBLIC	?Delete_All@?$DynamicVectorClass@PAVDAPlayerClass@@@@QAEXXZ ; DynamicVectorClass<DAPlayerClass *>::Delete_All
PUBLIC	?ID@?$DynamicVectorClass@PAVDAPlayerClass@@@@UAEHPBQAVDAPlayerClass@@@Z ; DynamicVectorClass<DAPlayerClass *>::ID
PUBLIC	?ID@?$DynamicVectorClass@PAVDAPlayerClass@@@@UAEHABQAVDAPlayerClass@@@Z ; DynamicVectorClass<DAPlayerClass *>::ID
PUBLIC	??1?$DynamicVectorClass@PAVDAPlayerClass@@@@UAE@XZ ; DynamicVectorClass<DAPlayerClass *>::~DynamicVectorClass<DAPlayerClass *>
PUBLIC	??_G?$DynamicVectorClass@PAVDAPlayerClass@@@@UAEPAXI@Z ; DynamicVectorClass<DAPlayerClass *>::`scalar deleting destructor'
PUBLIC	??0DAPlayerManager@@QAE@XZ			; DAPlayerManager::DAPlayerManager
PUBLIC	??1DAPlayerManager@@UAE@XZ			; DAPlayerManager::~DAPlayerManager
PUBLIC	??_GDAPlayerManager@@UAEPAXI@Z			; DAPlayerManager::`scalar deleting destructor'
PUBLIC	??4DASettingsClass@@QAEAAV0@ABV0@@Z		; DASettingsClass::operator=
PUBLIC	??4DASettingsManager@@QAEAAV0@ABV0@@Z		; DASettingsManager::operator=
PUBLIC	??1DAChatCommandClass@@UAE@XZ			; DAChatCommandClass::~DAChatCommandClass
PUBLIC	??0DAChatCommandClass@@QAE@XZ			; DAChatCommandClass::DAChatCommandClass
PUBLIC	??_GDAChatCommandClass@@UAEPAXI@Z		; DAChatCommandClass::`scalar deleting destructor'
PUBLIC	??1DAKeyHookClass@@UAE@XZ			; DAKeyHookClass::~DAKeyHookClass
PUBLIC	??0DAKeyHookClass@@QAE@XZ			; DAKeyHookClass::DAKeyHookClass
PUBLIC	??_GDAKeyHookClass@@UAEPAXI@Z			; DAKeyHookClass::`scalar deleting destructor'
PUBLIC	??1DAGameObjObserverClass@@UAE@XZ		; DAGameObjObserverClass::~DAGameObjObserverClass
PUBLIC	?Destroyed@DAGameObjObserverClass@@UAEXPAVScriptableGameObj@@@Z ; DAGameObjObserverClass::Destroyed
PUBLIC	?Custom@DAGameObjObserverClass@@UAEXPAVScriptableGameObj@@HH0@Z ; DAGameObjObserverClass::Custom
PUBLIC	?Poked@DAGameObjObserverClass@@UAEXPAVScriptableGameObj@@0@Z ; DAGameObjObserverClass::Poked
PUBLIC	?Entered@DAGameObjObserverClass@@UAEXPAVScriptableGameObj@@0@Z ; DAGameObjObserverClass::Entered
PUBLIC	?Exited@DAGameObjObserverClass@@UAEXPAVScriptableGameObj@@0@Z ; DAGameObjObserverClass::Exited
PUBLIC	?Sound_Heard@DAGameObjObserverClass@@UAEXPAVScriptableGameObj@@ABUCombatSound@@@Z ; DAGameObjObserverClass::Sound_Heard
PUBLIC	?Enemy_Seen@DAGameObjObserverClass@@UAEXPAVScriptableGameObj@@0@Z ; DAGameObjObserverClass::Enemy_Seen
PUBLIC	?Action_Complete@DAGameObjObserverClass@@UAEXPAVScriptableGameObj@@HW4ActionCompleteReason@@@Z ; DAGameObjObserverClass::Action_Complete
PUBLIC	?Timer_Expired@DAGameObjObserverClass@@UAEXPAVScriptableGameObj@@H@Z ; DAGameObjObserverClass::Timer_Expired
PUBLIC	?Animation_Complete@DAGameObjObserverClass@@UAEXPAVScriptableGameObj@@PBD@Z ; DAGameObjObserverClass::Animation_Complete
PUBLIC	?Init@DAGameObjObserverClass@@UAEXXZ		; DAGameObjObserverClass::Init
PUBLIC	?Vehicle_Entry_Request@DAGameObjObserverClass@@UAE_NPAVcPlayer@@AAH@Z ; DAGameObjObserverClass::Vehicle_Entry_Request
PUBLIC	?Vehicle_Entry_Request@DAGameObjObserverClass@@UAE_NPAVVehicleGameObj@@AAH@Z ; DAGameObjObserverClass::Vehicle_Entry_Request
PUBLIC	?Vehicle_Enter@DAGameObjObserverClass@@UAEXPAVcPlayer@@H@Z ; DAGameObjObserverClass::Vehicle_Enter
PUBLIC	?Vehicle_Enter@DAGameObjObserverClass@@UAEXPAVVehicleGameObj@@H@Z ; DAGameObjObserverClass::Vehicle_Enter
PUBLIC	?Vehicle_Exit@DAGameObjObserverClass@@UAEXPAVcPlayer@@H@Z ; DAGameObjObserverClass::Vehicle_Exit
PUBLIC	?Vehicle_Exit@DAGameObjObserverClass@@UAEXPAVVehicleGameObj@@H@Z ; DAGameObjObserverClass::Vehicle_Exit
PUBLIC	?Vehicle_Flip@DAGameObjObserverClass@@UAE_NXZ	; DAGameObjObserverClass::Vehicle_Flip
PUBLIC	?Damage_Dealt_Request@DAGameObjObserverClass@@UAE_NPAVDamageableGameObj@@AAMAAIMW4Type@DADamageType@@@Z ; DAGameObjObserverClass::Damage_Dealt_Request
PUBLIC	?Damage_Received_Request@DAGameObjObserverClass@@UAE_NPAVArmedGameObj@@AAMAAIMW4Type@DADamageType@@@Z ; DAGameObjObserverClass::Damage_Received_Request
PUBLIC	?Damage_Dealt@DAGameObjObserverClass@@UAEXPAVDamageableGameObj@@MIMW4Type@DADamageType@@@Z ; DAGameObjObserverClass::Damage_Dealt
PUBLIC	?Damage_Received@DAGameObjObserverClass@@UAEXPAVArmedGameObj@@MIMW4Type@DADamageType@@@Z ; DAGameObjObserverClass::Damage_Received
PUBLIC	?Kill_Dealt@DAGameObjObserverClass@@UAEXPAVDamageableGameObj@@MIMW4Type@DADamageType@@@Z ; DAGameObjObserverClass::Kill_Dealt
PUBLIC	?Kill_Received@DAGameObjObserverClass@@UAEXPAVArmedGameObj@@MIMW4Type@DADamageType@@@Z ; DAGameObjObserverClass::Kill_Received
PUBLIC	?PowerUp_Grant_Request@DAGameObjObserverClass@@UAE_NPAVcPlayer@@@Z ; DAGameObjObserverClass::PowerUp_Grant_Request
PUBLIC	?PowerUp_Grant_Request@DAGameObjObserverClass@@UAE_NPBVPowerUpGameObjDef@@PAVPowerUpGameObj@@@Z ; DAGameObjObserverClass::PowerUp_Grant_Request
PUBLIC	?PowerUp_Grant@DAGameObjObserverClass@@UAEXPAVcPlayer@@@Z ; DAGameObjObserverClass::PowerUp_Grant
PUBLIC	?PowerUp_Grant@DAGameObjObserverClass@@UAEXPBVPowerUpGameObjDef@@PAVPowerUpGameObj@@@Z ; DAGameObjObserverClass::PowerUp_Grant
PUBLIC	?Add_Weapon_Request@DAGameObjObserverClass@@UAE_NPBVWeaponDefinitionClass@@@Z ; DAGameObjObserverClass::Add_Weapon_Request
PUBLIC	?Add_Weapon@DAGameObjObserverClass@@UAEXPAVWeaponClass@@@Z ; DAGameObjObserverClass::Add_Weapon
PUBLIC	?Remove_Weapon@DAGameObjObserverClass@@UAEXPAVWeaponClass@@@Z ; DAGameObjObserverClass::Remove_Weapon
PUBLIC	?Clear_Weapons@DAGameObjObserverClass@@UAEXXZ	; DAGameObjObserverClass::Clear_Weapons
PUBLIC	?Get_Owner@DAGameObjObserverClass@@QAEPAVScriptableGameObj@@XZ ; DAGameObjObserverClass::Get_Owner
PUBLIC	?Killed@DAGameObjObserverClass@@EAEXPAVScriptableGameObj@@0@Z ; DAGameObjObserverClass::Killed
PUBLIC	?Damaged@DAGameObjObserverClass@@EAEXPAVScriptableGameObj@@0M@Z ; DAGameObjObserverClass::Damaged
PUBLIC	?Created@DAGameObjObserverClass@@EAEXPAVScriptableGameObj@@@Z ; DAGameObjObserverClass::Created
PUBLIC	??0DAGameObjObserverClass@@QAE@XZ		; DAGameObjObserverClass::DAGameObjObserverClass
PUBLIC	??0DAGameObjObserverClass@@QAE@ABV0@@Z		; DAGameObjObserverClass::DAGameObjObserverClass
PUBLIC	??4DAGameObjObserverClass@@QAEAAV0@ABV0@@Z	; DAGameObjObserverClass::operator=
PUBLIC	??_GDAGameObjObserverClass@@UAEPAXI@Z		; DAGameObjObserverClass::`scalar deleting destructor'
PUBLIC	??_EDAGameObjObserverClass@@UAEPAXI@Z		; DAGameObjObserverClass::`vector deleting destructor'
PUBLIC	?Set_Friendly_Fire_Permitted@CombatManager@@SAX_N@Z ; CombatManager::Set_Friendly_Fire_Permitted
PUBLIC	?Is_Friendly_Fire_Permitted@CombatManager@@SA_NXZ ; CombatManager::Is_Friendly_Fire_Permitted
PUBLIC	?Head@?$SList@VcPlayer@@@@QBEPAV?$SLNode@VcPlayer@@@@XZ ; SList<cPlayer>::Head
PUBLIC	?Next@?$SLNode@VcPlayer@@@@QBEPAV1@XZ		; SLNode<cPlayer>::Next
PUBLIC	?Data@?$SLNode@VcPlayer@@@@QBEPAVcPlayer@@XZ	; SLNode<cPlayer>::Data
PUBLIC	?Get_Name@DALegacyTagConsoleFunctionClass@@EAEPBDXZ ; DALegacyTagConsoleFunctionClass::Get_Name
PUBLIC	?Get_Help@DALegacyTagConsoleFunctionClass@@EAEPBDXZ ; DALegacyTagConsoleFunctionClass::Get_Help
PUBLIC	?Activate@DALegacyTagConsoleFunctionClass@@EAEXPBD@Z ; DALegacyTagConsoleFunctionClass::Activate
PUBLIC	??0DALegacyTagConsoleFunctionClass@@QAE@XZ	; DALegacyTagConsoleFunctionClass::DALegacyTagConsoleFunctionClass
PUBLIC	??1DALegacyTagConsoleFunctionClass@@UAE@XZ	; DALegacyTagConsoleFunctionClass::~DALegacyTagConsoleFunctionClass
PUBLIC	??_GDALegacyTagConsoleFunctionClass@@UAEPAXI@Z	; DALegacyTagConsoleFunctionClass::`scalar deleting destructor'
PUBLIC	??0?$DAConsoleFunctionRegistrant@VDALegacyTagConsoleFunctionClass@@@@QAE@XZ ; DAConsoleFunctionRegistrant<DALegacyTagConsoleFunctionClass>::DAConsoleFunctionRegistrant<DALegacyTagConsoleFunctionClass>
PUBLIC	?Get_Name@DAAddTagConsoleFunctionClass@@EAEPBDXZ ; DAAddTagConsoleFunctionClass::Get_Name
PUBLIC	?Get_Help@DAAddTagConsoleFunctionClass@@EAEPBDXZ ; DAAddTagConsoleFunctionClass::Get_Help
PUBLIC	?Activate@DAAddTagConsoleFunctionClass@@EAEXPBD@Z ; DAAddTagConsoleFunctionClass::Activate
PUBLIC	??0DAAddTagConsoleFunctionClass@@QAE@XZ		; DAAddTagConsoleFunctionClass::DAAddTagConsoleFunctionClass
PUBLIC	??1DAAddTagConsoleFunctionClass@@UAE@XZ		; DAAddTagConsoleFunctionClass::~DAAddTagConsoleFunctionClass
PUBLIC	??_GDAAddTagConsoleFunctionClass@@UAEPAXI@Z	; DAAddTagConsoleFunctionClass::`scalar deleting destructor'
PUBLIC	??0?$DAConsoleFunctionRegistrant@VDAAddTagConsoleFunctionClass@@@@QAE@XZ ; DAConsoleFunctionRegistrant<DAAddTagConsoleFunctionClass>::DAConsoleFunctionRegistrant<DAAddTagConsoleFunctionClass>
PUBLIC	?Get_Name@DARemoveTagConsoleFunctionClass@@EAEPBDXZ ; DARemoveTagConsoleFunctionClass::Get_Name
PUBLIC	?Get_Help@DARemoveTagConsoleFunctionClass@@EAEPBDXZ ; DARemoveTagConsoleFunctionClass::Get_Help
PUBLIC	?Activate@DARemoveTagConsoleFunctionClass@@EAEXPBD@Z ; DARemoveTagConsoleFunctionClass::Activate
PUBLIC	??0DARemoveTagConsoleFunctionClass@@QAE@XZ	; DARemoveTagConsoleFunctionClass::DARemoveTagConsoleFunctionClass
PUBLIC	??1DARemoveTagConsoleFunctionClass@@UAE@XZ	; DARemoveTagConsoleFunctionClass::~DARemoveTagConsoleFunctionClass
PUBLIC	??_GDARemoveTagConsoleFunctionClass@@UAEPAXI@Z	; DARemoveTagConsoleFunctionClass::`scalar deleting destructor'
PUBLIC	??0?$DAConsoleFunctionRegistrant@VDARemoveTagConsoleFunctionClass@@@@QAE@XZ ; DAConsoleFunctionRegistrant<DARemoveTagConsoleFunctionClass>::DAConsoleFunctionRegistrant<DARemoveTagConsoleFunctionClass>
PUBLIC	?Get_Name@DASetAccessLevelConsoleFunctionClass@@EAEPBDXZ ; DASetAccessLevelConsoleFunctionClass::Get_Name
PUBLIC	?Get_Alias@DASetAccessLevelConsoleFunctionClass@@EAEPBDXZ ; DASetAccessLevelConsoleFunctionClass::Get_Alias
PUBLIC	?Get_Help@DASetAccessLevelConsoleFunctionClass@@EAEPBDXZ ; DASetAccessLevelConsoleFunctionClass::Get_Help
PUBLIC	?Activate@DASetAccessLevelConsoleFunctionClass@@EAEXPBD@Z ; DASetAccessLevelConsoleFunctionClass::Activate
PUBLIC	??0DASetAccessLevelConsoleFunctionClass@@QAE@XZ	; DASetAccessLevelConsoleFunctionClass::DASetAccessLevelConsoleFunctionClass
PUBLIC	??1DASetAccessLevelConsoleFunctionClass@@UAE@XZ	; DASetAccessLevelConsoleFunctionClass::~DASetAccessLevelConsoleFunctionClass
PUBLIC	??_GDASetAccessLevelConsoleFunctionClass@@UAEPAXI@Z ; DASetAccessLevelConsoleFunctionClass::`scalar deleting destructor'
PUBLIC	??0?$DAConsoleFunctionRegistrant@VDASetAccessLevelConsoleFunctionClass@@@@QAE@XZ ; DAConsoleFunctionRegistrant<DASetAccessLevelConsoleFunctionClass>::DAConsoleFunctionRegistrant<DASetAccessLevelConsoleFunctionClass>
PUBLIC	?Get_Name@DAMuteConsoleFunctionClass@@EAEPBDXZ	; DAMuteConsoleFunctionClass::Get_Name
PUBLIC	?Get_Help@DAMuteConsoleFunctionClass@@EAEPBDXZ	; DAMuteConsoleFunctionClass::Get_Help
PUBLIC	?Activate@DAMuteConsoleFunctionClass@@EAEXPBD@Z	; DAMuteConsoleFunctionClass::Activate
PUBLIC	??0DAMuteConsoleFunctionClass@@QAE@XZ		; DAMuteConsoleFunctionClass::DAMuteConsoleFunctionClass
PUBLIC	??1DAMuteConsoleFunctionClass@@UAE@XZ		; DAMuteConsoleFunctionClass::~DAMuteConsoleFunctionClass
PUBLIC	??_GDAMuteConsoleFunctionClass@@UAEPAXI@Z	; DAMuteConsoleFunctionClass::`scalar deleting destructor'
PUBLIC	??0?$DAConsoleFunctionRegistrant@VDAMuteConsoleFunctionClass@@@@QAE@XZ ; DAConsoleFunctionRegistrant<DAMuteConsoleFunctionClass>::DAConsoleFunctionRegistrant<DAMuteConsoleFunctionClass>
PUBLIC	?Get_Name@DAUnMuteConsoleFunctionClass@@EAEPBDXZ ; DAUnMuteConsoleFunctionClass::Get_Name
PUBLIC	?Get_Help@DAUnMuteConsoleFunctionClass@@EAEPBDXZ ; DAUnMuteConsoleFunctionClass::Get_Help
PUBLIC	?Activate@DAUnMuteConsoleFunctionClass@@EAEXPBD@Z ; DAUnMuteConsoleFunctionClass::Activate
PUBLIC	??0DAUnMuteConsoleFunctionClass@@QAE@XZ		; DAUnMuteConsoleFunctionClass::DAUnMuteConsoleFunctionClass
PUBLIC	??1DAUnMuteConsoleFunctionClass@@UAE@XZ		; DAUnMuteConsoleFunctionClass::~DAUnMuteConsoleFunctionClass
PUBLIC	??_GDAUnMuteConsoleFunctionClass@@UAEPAXI@Z	; DAUnMuteConsoleFunctionClass::`scalar deleting destructor'
PUBLIC	??0?$DAConsoleFunctionRegistrant@VDAUnMuteConsoleFunctionClass@@@@QAE@XZ ; DAConsoleFunctionRegistrant<DAUnMuteConsoleFunctionClass>::DAConsoleFunctionRegistrant<DAUnMuteConsoleFunctionClass>
PUBLIC	?Get_Name@DAMuteToggleConsoleFunctionClass@@EAEPBDXZ ; DAMuteToggleConsoleFunctionClass::Get_Name
PUBLIC	?Get_Help@DAMuteToggleConsoleFunctionClass@@EAEPBDXZ ; DAMuteToggleConsoleFunctionClass::Get_Help
PUBLIC	?Activate@DAMuteToggleConsoleFunctionClass@@EAEXPBD@Z ; DAMuteToggleConsoleFunctionClass::Activate
PUBLIC	??0DAMuteToggleConsoleFunctionClass@@QAE@XZ	; DAMuteToggleConsoleFunctionClass::DAMuteToggleConsoleFunctionClass
PUBLIC	??1DAMuteToggleConsoleFunctionClass@@UAE@XZ	; DAMuteToggleConsoleFunctionClass::~DAMuteToggleConsoleFunctionClass
PUBLIC	??_GDAMuteToggleConsoleFunctionClass@@UAEPAXI@Z	; DAMuteToggleConsoleFunctionClass::`scalar deleting destructor'
PUBLIC	??0?$DAConsoleFunctionRegistrant@VDAMuteToggleConsoleFunctionClass@@@@QAE@XZ ; DAConsoleFunctionRegistrant<DAMuteToggleConsoleFunctionClass>::DAConsoleFunctionRegistrant<DAMuteToggleConsoleFunctionClass>
PUBLIC	?Get_Name@DABeaconLockConsoleFunctionClass@@EAEPBDXZ ; DABeaconLockConsoleFunctionClass::Get_Name
PUBLIC	?Get_Alias@DABeaconLockConsoleFunctionClass@@EAEPBDXZ ; DABeaconLockConsoleFunctionClass::Get_Alias
PUBLIC	?Get_Help@DABeaconLockConsoleFunctionClass@@EAEPBDXZ ; DABeaconLockConsoleFunctionClass::Get_Help
PUBLIC	?Activate@DABeaconLockConsoleFunctionClass@@EAEXPBD@Z ; DABeaconLockConsoleFunctionClass::Activate
PUBLIC	??0DABeaconLockConsoleFunctionClass@@QAE@XZ	; DABeaconLockConsoleFunctionClass::DABeaconLockConsoleFunctionClass
PUBLIC	??1DABeaconLockConsoleFunctionClass@@UAE@XZ	; DABeaconLockConsoleFunctionClass::~DABeaconLockConsoleFunctionClass
PUBLIC	??_GDABeaconLockConsoleFunctionClass@@UAEPAXI@Z	; DABeaconLockConsoleFunctionClass::`scalar deleting destructor'
PUBLIC	??0?$DAConsoleFunctionRegistrant@VDABeaconLockConsoleFunctionClass@@@@QAE@XZ ; DAConsoleFunctionRegistrant<DABeaconLockConsoleFunctionClass>::DAConsoleFunctionRegistrant<DABeaconLockConsoleFunctionClass>
PUBLIC	?Get_Name@DAUnBeaconLockConsoleFunctionClass@@EAEPBDXZ ; DAUnBeaconLockConsoleFunctionClass::Get_Name
PUBLIC	?Get_Alias@DAUnBeaconLockConsoleFunctionClass@@EAEPBDXZ ; DAUnBeaconLockConsoleFunctionClass::Get_Alias
PUBLIC	?Get_Help@DAUnBeaconLockConsoleFunctionClass@@EAEPBDXZ ; DAUnBeaconLockConsoleFunctionClass::Get_Help
PUBLIC	?Activate@DAUnBeaconLockConsoleFunctionClass@@EAEXPBD@Z ; DAUnBeaconLockConsoleFunctionClass::Activate
PUBLIC	??0DAUnBeaconLockConsoleFunctionClass@@QAE@XZ	; DAUnBeaconLockConsoleFunctionClass::DAUnBeaconLockConsoleFunctionClass
PUBLIC	??1DAUnBeaconLockConsoleFunctionClass@@UAE@XZ	; DAUnBeaconLockConsoleFunctionClass::~DAUnBeaconLockConsoleFunctionClass
PUBLIC	??_GDAUnBeaconLockConsoleFunctionClass@@UAEPAXI@Z ; DAUnBeaconLockConsoleFunctionClass::`scalar deleting destructor'
PUBLIC	??0?$DAConsoleFunctionRegistrant@VDAUnBeaconLockConsoleFunctionClass@@@@QAE@XZ ; DAConsoleFunctionRegistrant<DAUnBeaconLockConsoleFunctionClass>::DAConsoleFunctionRegistrant<DAUnBeaconLockConsoleFunctionClass>
PUBLIC	?Get_Name@DABeaconLockToggleConsoleFunctionClass@@EAEPBDXZ ; DABeaconLockToggleConsoleFunctionClass::Get_Name
PUBLIC	?Get_Alias@DABeaconLockToggleConsoleFunctionClass@@EAEPBDXZ ; DABeaconLockToggleConsoleFunctionClass::Get_Alias
PUBLIC	?Get_Help@DABeaconLockToggleConsoleFunctionClass@@EAEPBDXZ ; DABeaconLockToggleConsoleFunctionClass::Get_Help
PUBLIC	?Activate@DABeaconLockToggleConsoleFunctionClass@@EAEXPBD@Z ; DABeaconLockToggleConsoleFunctionClass::Activate
PUBLIC	??0DABeaconLockToggleConsoleFunctionClass@@QAE@XZ ; DABeaconLockToggleConsoleFunctionClass::DABeaconLockToggleConsoleFunctionClass
PUBLIC	??1DABeaconLockToggleConsoleFunctionClass@@UAE@XZ ; DABeaconLockToggleConsoleFunctionClass::~DABeaconLockToggleConsoleFunctionClass
PUBLIC	??_GDABeaconLockToggleConsoleFunctionClass@@UAEPAXI@Z ; DABeaconLockToggleConsoleFunctionClass::`scalar deleting destructor'
PUBLIC	??0?$DAConsoleFunctionRegistrant@VDABeaconLockToggleConsoleFunctionClass@@@@QAE@XZ ; DAConsoleFunctionRegistrant<DABeaconLockToggleConsoleFunctionClass>::DAConsoleFunctionRegistrant<DABeaconLockToggleConsoleFunctionClass>
PUBLIC	?Get_Name@DAC4LockConsoleFunctionClass@@EAEPBDXZ ; DAC4LockConsoleFunctionClass::Get_Name
PUBLIC	?Get_Alias@DAC4LockConsoleFunctionClass@@EAEPBDXZ ; DAC4LockConsoleFunctionClass::Get_Alias
PUBLIC	?Get_Help@DAC4LockConsoleFunctionClass@@EAEPBDXZ ; DAC4LockConsoleFunctionClass::Get_Help
PUBLIC	?Activate@DAC4LockConsoleFunctionClass@@EAEXPBD@Z ; DAC4LockConsoleFunctionClass::Activate
PUBLIC	??0DAC4LockConsoleFunctionClass@@QAE@XZ		; DAC4LockConsoleFunctionClass::DAC4LockConsoleFunctionClass
PUBLIC	??1DAC4LockConsoleFunctionClass@@UAE@XZ		; DAC4LockConsoleFunctionClass::~DAC4LockConsoleFunctionClass
PUBLIC	??_GDAC4LockConsoleFunctionClass@@UAEPAXI@Z	; DAC4LockConsoleFunctionClass::`scalar deleting destructor'
PUBLIC	??0?$DAConsoleFunctionRegistrant@VDAC4LockConsoleFunctionClass@@@@QAE@XZ ; DAConsoleFunctionRegistrant<DAC4LockConsoleFunctionClass>::DAConsoleFunctionRegistrant<DAC4LockConsoleFunctionClass>
PUBLIC	?Get_Name@DAUnC4LockConsoleFunctionClass@@EAEPBDXZ ; DAUnC4LockConsoleFunctionClass::Get_Name
PUBLIC	?Get_Alias@DAUnC4LockConsoleFunctionClass@@EAEPBDXZ ; DAUnC4LockConsoleFunctionClass::Get_Alias
PUBLIC	?Get_Help@DAUnC4LockConsoleFunctionClass@@EAEPBDXZ ; DAUnC4LockConsoleFunctionClass::Get_Help
PUBLIC	?Activate@DAUnC4LockConsoleFunctionClass@@EAEXPBD@Z ; DAUnC4LockConsoleFunctionClass::Activate
PUBLIC	??0DAUnC4LockConsoleFunctionClass@@QAE@XZ	; DAUnC4LockConsoleFunctionClass::DAUnC4LockConsoleFunctionClass
PUBLIC	??1DAUnC4LockConsoleFunctionClass@@UAE@XZ	; DAUnC4LockConsoleFunctionClass::~DAUnC4LockConsoleFunctionClass
PUBLIC	??_GDAUnC4LockConsoleFunctionClass@@UAEPAXI@Z	; DAUnC4LockConsoleFunctionClass::`scalar deleting destructor'
PUBLIC	??0?$DAConsoleFunctionRegistrant@VDAUnC4LockConsoleFunctionClass@@@@QAE@XZ ; DAConsoleFunctionRegistrant<DAUnC4LockConsoleFunctionClass>::DAConsoleFunctionRegistrant<DAUnC4LockConsoleFunctionClass>
PUBLIC	?Get_Name@DAC4LockToggleConsoleFunctionClass@@EAEPBDXZ ; DAC4LockToggleConsoleFunctionClass::Get_Name
PUBLIC	?Get_Alias@DAC4LockToggleConsoleFunctionClass@@EAEPBDXZ ; DAC4LockToggleConsoleFunctionClass::Get_Alias
PUBLIC	?Get_Help@DAC4LockToggleConsoleFunctionClass@@EAEPBDXZ ; DAC4LockToggleConsoleFunctionClass::Get_Help
PUBLIC	?Activate@DAC4LockToggleConsoleFunctionClass@@EAEXPBD@Z ; DAC4LockToggleConsoleFunctionClass::Activate
PUBLIC	??0DAC4LockToggleConsoleFunctionClass@@QAE@XZ	; DAC4LockToggleConsoleFunctionClass::DAC4LockToggleConsoleFunctionClass
PUBLIC	??1DAC4LockToggleConsoleFunctionClass@@UAE@XZ	; DAC4LockToggleConsoleFunctionClass::~DAC4LockToggleConsoleFunctionClass
PUBLIC	??_GDAC4LockToggleConsoleFunctionClass@@UAEPAXI@Z ; DAC4LockToggleConsoleFunctionClass::`scalar deleting destructor'
PUBLIC	??0?$DAConsoleFunctionRegistrant@VDAC4LockToggleConsoleFunctionClass@@@@QAE@XZ ; DAConsoleFunctionRegistrant<DAC4LockToggleConsoleFunctionClass>::DAConsoleFunctionRegistrant<DAC4LockToggleConsoleFunctionClass>
PUBLIC	?Get_Name@SDEConsoleFunctionClass@@EAEPBDXZ	; SDEConsoleFunctionClass::Get_Name
PUBLIC	?Get_Help@SDEConsoleFunctionClass@@EAEPBDXZ	; SDEConsoleFunctionClass::Get_Help
PUBLIC	?Activate@SDEConsoleFunctionClass@@EAEXPBD@Z	; SDEConsoleFunctionClass::Activate
PUBLIC	??0SDEConsoleFunctionClass@@QAE@XZ		; SDEConsoleFunctionClass::SDEConsoleFunctionClass
PUBLIC	??1SDEConsoleFunctionClass@@UAE@XZ		; SDEConsoleFunctionClass::~SDEConsoleFunctionClass
PUBLIC	??_GSDEConsoleFunctionClass@@UAEPAXI@Z		; SDEConsoleFunctionClass::`scalar deleting destructor'
PUBLIC	??0?$DAConsoleFunctionRegistrant@VSDEConsoleFunctionClass@@@@QAE@XZ ; DAConsoleFunctionRegistrant<SDEConsoleFunctionClass>::DAConsoleFunctionRegistrant<SDEConsoleFunctionClass>
PUBLIC	?Get_Name@UnSDEConsoleFunctionClass@@EAEPBDXZ	; UnSDEConsoleFunctionClass::Get_Name
PUBLIC	?Get_Help@UnSDEConsoleFunctionClass@@EAEPBDXZ	; UnSDEConsoleFunctionClass::Get_Help
PUBLIC	?Activate@UnSDEConsoleFunctionClass@@EAEXPBD@Z	; UnSDEConsoleFunctionClass::Activate
PUBLIC	??0UnSDEConsoleFunctionClass@@QAE@XZ		; UnSDEConsoleFunctionClass::UnSDEConsoleFunctionClass
PUBLIC	??1UnSDEConsoleFunctionClass@@UAE@XZ		; UnSDEConsoleFunctionClass::~UnSDEConsoleFunctionClass
PUBLIC	??_GUnSDEConsoleFunctionClass@@UAEPAXI@Z	; UnSDEConsoleFunctionClass::`scalar deleting destructor'
PUBLIC	??0?$DAConsoleFunctionRegistrant@VUnSDEConsoleFunctionClass@@@@QAE@XZ ; DAConsoleFunctionRegistrant<UnSDEConsoleFunctionClass>::DAConsoleFunctionRegistrant<UnSDEConsoleFunctionClass>
PUBLIC	?Get_Name@SDEToggleConsoleFunctionClass@@EAEPBDXZ ; SDEToggleConsoleFunctionClass::Get_Name
PUBLIC	?Get_Help@SDEToggleConsoleFunctionClass@@EAEPBDXZ ; SDEToggleConsoleFunctionClass::Get_Help
PUBLIC	?Activate@SDEToggleConsoleFunctionClass@@EAEXPBD@Z ; SDEToggleConsoleFunctionClass::Activate
PUBLIC	??0SDEToggleConsoleFunctionClass@@QAE@XZ	; SDEToggleConsoleFunctionClass::SDEToggleConsoleFunctionClass
PUBLIC	??1SDEToggleConsoleFunctionClass@@UAE@XZ	; SDEToggleConsoleFunctionClass::~SDEToggleConsoleFunctionClass
PUBLIC	??_GSDEToggleConsoleFunctionClass@@UAEPAXI@Z	; SDEToggleConsoleFunctionClass::`scalar deleting destructor'
PUBLIC	??0?$DAConsoleFunctionRegistrant@VSDEToggleConsoleFunctionClass@@@@QAE@XZ ; DAConsoleFunctionRegistrant<SDEToggleConsoleFunctionClass>::DAConsoleFunctionRegistrant<SDEToggleConsoleFunctionClass>
PUBLIC	?Get_Name@MapCHConsoleFunctionClass@@EAEPBDXZ	; MapCHConsoleFunctionClass::Get_Name
PUBLIC	?Get_Help@MapCHConsoleFunctionClass@@EAEPBDXZ	; MapCHConsoleFunctionClass::Get_Help
PUBLIC	?Activate@MapCHConsoleFunctionClass@@EAEXPBD@Z	; MapCHConsoleFunctionClass::Activate
PUBLIC	??0MapCHConsoleFunctionClass@@QAE@XZ		; MapCHConsoleFunctionClass::MapCHConsoleFunctionClass
PUBLIC	??1MapCHConsoleFunctionClass@@UAE@XZ		; MapCHConsoleFunctionClass::~MapCHConsoleFunctionClass
PUBLIC	??_GMapCHConsoleFunctionClass@@UAEPAXI@Z	; MapCHConsoleFunctionClass::`scalar deleting destructor'
PUBLIC	??0?$DAConsoleFunctionRegistrant@VMapCHConsoleFunctionClass@@@@QAE@XZ ; DAConsoleFunctionRegistrant<MapCHConsoleFunctionClass>::DAConsoleFunctionRegistrant<MapCHConsoleFunctionClass>
PUBLIC	?Activate@DAVoteYesKeyHookClass@@EAEXPAVcPlayer@@@Z ; DAVoteYesKeyHookClass::Activate
PUBLIC	??0DAVoteYesKeyHookClass@@QAE@XZ		; DAVoteYesKeyHookClass::DAVoteYesKeyHookClass
PUBLIC	??1DAVoteYesKeyHookClass@@UAE@XZ		; DAVoteYesKeyHookClass::~DAVoteYesKeyHookClass
PUBLIC	??_GDAVoteYesKeyHookClass@@UAEPAXI@Z		; DAVoteYesKeyHookClass::`scalar deleting destructor'
PUBLIC	??0?$DAKeyHookRegistrant@VDAVoteYesKeyHookClass@@@@QAE@PBD@Z ; DAKeyHookRegistrant<DAVoteYesKeyHookClass>::DAKeyHookRegistrant<DAVoteYesKeyHookClass>
PUBLIC	?Activate@DAVoteNoKeyHookClass@@EAEXPAVcPlayer@@@Z ; DAVoteNoKeyHookClass::Activate
PUBLIC	??0DAVoteNoKeyHookClass@@QAE@XZ			; DAVoteNoKeyHookClass::DAVoteNoKeyHookClass
PUBLIC	??1DAVoteNoKeyHookClass@@UAE@XZ			; DAVoteNoKeyHookClass::~DAVoteNoKeyHookClass
PUBLIC	??_GDAVoteNoKeyHookClass@@UAEPAXI@Z		; DAVoteNoKeyHookClass::`scalar deleting destructor'
PUBLIC	??0?$DAKeyHookRegistrant@VDAVoteNoKeyHookClass@@@@QAE@PBD@Z ; DAKeyHookRegistrant<DAVoteNoKeyHookClass>::DAKeyHookRegistrant<DAVoteNoKeyHookClass>
PUBLIC	?Init@DAUnstuckObserverClass@@EAEXXZ		; DAUnstuckObserverClass::Init
PUBLIC	?Timer_Expired@DAUnstuckObserverClass@@EAEXPAVScriptableGameObj@@H@Z ; DAUnstuckObserverClass::Timer_Expired
PUBLIC	?Get_Name@DAUnstuckObserverClass@@EAEPBDXZ	; DAUnstuckObserverClass::Get_Name
PUBLIC	??0DAUnstuckObserverClass@@QAE@XZ		; DAUnstuckObserverClass::DAUnstuckObserverClass
PUBLIC	??1DAUnstuckObserverClass@@UAE@XZ		; DAUnstuckObserverClass::~DAUnstuckObserverClass
PUBLIC	??_GDAUnstuckObserverClass@@UAEPAXI@Z		; DAUnstuckObserverClass::`scalar deleting destructor'
PUBLIC	?Activate@DAUnStuckChatCommandClass@@EAE_NPAVcPlayer@@ABVDATokenClass@@W4TextMessageEnum@@@Z ; DAUnStuckChatCommandClass::Activate
PUBLIC	??0DAUnStuckChatCommandClass@@QAE@XZ		; DAUnStuckChatCommandClass::DAUnStuckChatCommandClass
PUBLIC	??1DAUnStuckChatCommandClass@@UAE@XZ		; DAUnStuckChatCommandClass::~DAUnStuckChatCommandClass
PUBLIC	??_GDAUnStuckChatCommandClass@@UAEPAXI@Z	; DAUnStuckChatCommandClass::`scalar deleting destructor'
PUBLIC	??0?$DAChatCommandRegistrant@VDAUnStuckChatCommandClass@@@@QAE@PBDHW4Level@DAAccessLevel@@W4Type@DAChatType@@@Z ; DAChatCommandRegistrant<DAUnStuckChatCommandClass>::DAChatCommandRegistrant<DAUnStuckChatCommandClass>
PUBLIC	?Init@DAKillMeObserverClass@@EAEXXZ		; DAKillMeObserverClass::Init
PUBLIC	?Timer_Expired@DAKillMeObserverClass@@EAEXPAVScriptableGameObj@@H@Z ; DAKillMeObserverClass::Timer_Expired
PUBLIC	?Get_Name@DAKillMeObserverClass@@EAEPBDXZ	; DAKillMeObserverClass::Get_Name
PUBLIC	??0DAKillMeObserverClass@@QAE@XZ		; DAKillMeObserverClass::DAKillMeObserverClass
PUBLIC	??1DAKillMeObserverClass@@UAE@XZ		; DAKillMeObserverClass::~DAKillMeObserverClass
PUBLIC	??_GDAKillMeObserverClass@@UAEPAXI@Z		; DAKillMeObserverClass::`scalar deleting destructor'
PUBLIC	?Activate@DAKillMeChatCommandClass@@EAE_NPAVcPlayer@@ABVDATokenClass@@W4TextMessageEnum@@@Z ; DAKillMeChatCommandClass::Activate
PUBLIC	??0DAKillMeChatCommandClass@@QAE@XZ		; DAKillMeChatCommandClass::DAKillMeChatCommandClass
PUBLIC	??1DAKillMeChatCommandClass@@UAE@XZ		; DAKillMeChatCommandClass::~DAKillMeChatCommandClass
PUBLIC	??_GDAKillMeChatCommandClass@@UAEPAXI@Z		; DAKillMeChatCommandClass::`scalar deleting destructor'
PUBLIC	??0?$DAChatCommandRegistrant@VDAKillMeChatCommandClass@@@@QAE@PBDHW4Level@DAAccessLevel@@W4Type@DAChatType@@@Z ; DAChatCommandRegistrant<DAKillMeChatCommandClass>::DAChatCommandRegistrant<DAKillMeChatCommandClass>
PUBLIC	?Activate@DADropChatCommandClass@@EAE_NPAVcPlayer@@ABVDATokenClass@@W4TextMessageEnum@@@Z ; DADropChatCommandClass::Activate
PUBLIC	??0DADropChatCommandClass@@QAE@XZ		; DADropChatCommandClass::DADropChatCommandClass
PUBLIC	??1DADropChatCommandClass@@UAE@XZ		; DADropChatCommandClass::~DADropChatCommandClass
PUBLIC	??_GDADropChatCommandClass@@UAEPAXI@Z		; DADropChatCommandClass::`scalar deleting destructor'
PUBLIC	??0?$DAChatCommandRegistrant@VDADropChatCommandClass@@@@QAE@PBDHW4Level@DAAccessLevel@@W4Type@DAChatType@@@Z ; DAChatCommandRegistrant<DADropChatCommandClass>::DAChatCommandRegistrant<DADropChatCommandClass>
PUBLIC	??$move@AAVStringClass@@@std@@YA$$QAVStringClass@@AAV1@@Z ; std::move<StringClass &>
PUBLIC	??$move@AAVWideStringClass@@@std@@YA$$QAVWideStringClass@@AAV1@@Z ; std::move<WideStringClass &>
PUBLIC	?Set_Next@?$SLNode@UKeyHookWrapperStruct@MultiKeyHookScriptImpClass@@@@QAEXPAV1@@Z ; SLNode<MultiKeyHookScriptImpClass::KeyHookWrapperStruct>::Set_Next
PUBLIC	?Next@?$SLNode@UKeyHookWrapperStruct@MultiKeyHookScriptImpClass@@@@QBEPAV1@XZ ; SLNode<MultiKeyHookScriptImpClass::KeyHookWrapperStruct>::Next
PUBLIC	?Data@?$SLNode@UKeyHookWrapperStruct@MultiKeyHookScriptImpClass@@@@QBEPAUKeyHookWrapperStruct@MultiKeyHookScriptImpClass@@XZ ; SLNode<MultiKeyHookScriptImpClass::KeyHookWrapperStruct>::Data
PUBLIC	??0?$SLNode@UKeyHookWrapperStruct@MultiKeyHookScriptImpClass@@@@IAE@PAUKeyHookWrapperStruct@MultiKeyHookScriptImpClass@@@Z ; SLNode<MultiKeyHookScriptImpClass::KeyHookWrapperStruct>::SLNode<MultiKeyHookScriptImpClass::KeyHookWrapperStruct>
PUBLIC	??$move@AAPAVConsoleFunctionClass@@@std@@YA$$QAPAVConsoleFunctionClass@@AAPAV1@@Z ; std::move<ConsoleFunctionClass * &>
PUBLIC	??$move@AAPAVDAPlayerObserverClass@@@std@@YA$$QAPAVDAPlayerObserverClass@@AAPAV1@@Z ; std::move<DAPlayerObserverClass * &>
PUBLIC	??$move@AAPAVDAPlayerDataClass@@@std@@YA$$QAPAVDAPlayerDataClass@@AAPAV1@@Z ; std::move<DAPlayerDataClass * &>
PUBLIC	??$move@AAPAUDAPlayerTagStruct@DAPlayerClass@@@std@@YA$$QAPAUDAPlayerTagStruct@DAPlayerClass@@AAPAU12@@Z ; std::move<DAPlayerClass::DAPlayerTagStruct * &>
PUBLIC	??$move@AAPAUDAPlayerObserverTimerStruct@@@std@@YA$$QAPAUDAPlayerObserverTimerStruct@@AAPAU1@@Z ; std::move<DAPlayerObserverTimerStruct * &>
PUBLIC	??$move@AAPAUDAPlayerObserverChatCommandStruct@@@std@@YA$$QAPAUDAPlayerObserverChatCommandStruct@@AAPAU1@@Z ; std::move<DAPlayerObserverChatCommandStruct * &>
PUBLIC	??$move@AAPAUDAPlayerObserverKeyHookStruct@@@std@@YA$$QAPAUDAPlayerObserverKeyHookStruct@@AAPAU1@@Z ; std::move<DAPlayerObserverKeyHookStruct * &>
PUBLIC	??$move@AAPAVDAPlayerDataFactoryClass@@@std@@YA$$QAPAVDAPlayerDataFactoryClass@@AAPAV1@@Z ; std::move<DAPlayerDataFactoryClass * &>
PUBLIC	??$move@AAPAVDAPlayerClass@@@std@@YA$$QAPAVDAPlayerClass@@AAPAV1@@Z ; std::move<DAPlayerClass * &>
PUBLIC	?getInstance@?$Singleton@V?$ObjectPoolClass@VGenericSLNode@@$0BAA@@@@@SAAAV?$ObjectPoolClass@VGenericSLNode@@$0BAA@@@XZ ; Singleton<ObjectPoolClass<GenericSLNode,256> >::getInstance
PUBLIC	??0?$ObjectPoolClass@VGenericSLNode@@$0BAA@@@QAE@XZ ; ObjectPoolClass<GenericSLNode,256>::ObjectPoolClass<GenericSLNode,256>
PUBLIC	??1?$ObjectPoolClass@VGenericSLNode@@$0BAA@@@QAE@XZ ; ObjectPoolClass<GenericSLNode,256>::~ObjectPoolClass<GenericSLNode,256>
PUBLIC	?Allocate_Object_Memory@?$ObjectPoolClass@VGenericSLNode@@$0BAA@@@QAEPAVGenericSLNode@@XZ ; ObjectPoolClass<GenericSLNode,256>::Allocate_Object_Memory
PUBLIC	?Free_Object_Memory@?$ObjectPoolClass@VGenericSLNode@@$0BAA@@@QAEXAAVGenericSLNode@@@Z ; ObjectPoolClass<GenericSLNode,256>::Free_Object_Memory
PUBLIC	?writeDummyPattern@?$ObjectPoolClass@VGenericSLNode@@$0BAA@@@QAEXAAVGenericSLNode@@K@Z ; ObjectPoolClass<GenericSLNode,256>::writeDummyPattern
PUBLIC	??__Finstancex@?1??getInstance@?$Singleton@V?$ObjectPoolClass@VGenericSLNode@@$0BAA@@@@@SAAAV?$ObjectPoolClass@VGenericSLNode@@$0BAA@@@XZ@YAXXZ ; `Singleton<ObjectPoolClass<GenericSLNode,256> >::getInstance'::`2'::`dynamic atexit destructor for 'instancex''
PUBLIC	??B?$RefArray@D$03@@QAEPADXZ			; RefArray<char,4>::operator char *
PUBLIC	??B?$RefArray@V?$RefArray@D$03@@$07@@QAEPAV?$RefArray@D$03@@XZ ; RefArray<RefArray<char,4>,8>::operator RefArray<char,4> *
PUBLIC	?Get@?$DataSafeClass@M@@SA_NVDataSafeHandleClass@@AAPAM@Z ; DataSafeClass<float>::Get
PUBLIC	?Set@?$DataSafeClass@M@@SA_NVDataSafeHandleClass@@PAM@Z ; DataSafeClass<float>::Set
PUBLIC	??_7GameObjObserverClass@@6B@			; GameObjObserverClass::`vftable'
PUBLIC	??_7ScriptClass@@6B@				; ScriptClass::`vftable'
PUBLIC	??_7ScriptImpClass@@6B@				; ScriptImpClass::`vftable'
PUBLIC	??_7ScriptFactory@@6B@				; ScriptFactory::`vftable'
PUBLIC	??_7ThreadClass@@6B@				; ThreadClass::`vftable'
PUBLIC	??_C@_0DJ@NKJHEMPA@x?3?2github?2renegade?2dragonade_rxd@ ; `string'
PUBLIC	??_C@_1HC@JEIHKHFK@?$AAx?$AA?3?$AA?2?$AAg?$AAi?$AAt?$AAh?$AAu?$AAb?$AA?2?$AAr?$AAe?$AAn?$AAe?$AAg?$AAa?$AAd?$AAe?$AA?2?$AAd?$AAr?$AAa?$AAg?$AAo?$AAn?$AAa?$AAd?$AAe?$AA_?$AAr?$AAx?$AAd@ ; `string'
PUBLIC	??_C@_1M@HLGKFCJM@?$AAf?$AAa?$AAl?$AAs?$AAe?$AA?$AA@ ; `string'
PUBLIC	??_7INIClass@@6B@				; INIClass::`vftable'
PUBLIC	?_checking@?1??Security_Check@GenericDataSafeClass@@KAXXZ@4_NA ; `GenericDataSafeClass::Security_Check'::`2'::_checking
PUBLIC	?_calls@?1??Security_Check@GenericDataSafeClass@@KAXXZ@4KA ; `GenericDataSafeClass::Security_Check'::`2'::_calls
PUBLIC	??_7PostLoadableClass@@6B@			; PostLoadableClass::`vftable'
PUBLIC	??_7ReferencerClass@@6B@			; ReferencerClass::`vftable'
PUBLIC	??_7?$VectorClass@VStringClass@@@@6B@		; VectorClass<StringClass>::`vftable'
PUBLIC	??_7?$DynamicVectorClass@VStringClass@@@@6B@	; DynamicVectorClass<StringClass>::`vftable'
PUBLIC	??_7?$VectorClass@VWideStringClass@@@@6B@	; VectorClass<WideStringClass>::`vftable'
PUBLIC	??_7?$DynamicVectorClass@VWideStringClass@@@@6B@ ; DynamicVectorClass<WideStringClass>::`vftable'
PUBLIC	??_7JFW_Key_Hook_Base@@6B@			; JFW_Key_Hook_Base::`vftable'
PUBLIC	??_7?$SList@UKeyHookWrapperStruct@MultiKeyHookScriptImpClass@@@@6B@ ; SList<MultiKeyHookScriptImpClass::KeyHookWrapperStruct>::`vftable'
PUBLIC	??_7MultiKeyHookScriptImpClass@@6B@		; MultiKeyHookScriptImpClass::`vftable'
PUBLIC	??_7JFW_Object_Created_Hook_Base@@6B@		; JFW_Object_Created_Hook_Base::`vftable'
PUBLIC	??_7ConsoleFunctionClass@@6B@			; ConsoleFunctionClass::`vftable'
PUBLIC	??_C@_01CLKCMJKC@?5?$AA@			; `string'
PUBLIC	??_C@_0CH@BPOBGPMB@DATokenParserClass?3?3DATokenParse@ ; `string'
PUBLIC	??_C@_0DE@JGFIBHC@x?3?2github?2renegade?2dragonade_rxd@ ; `string'
PUBLIC	??_C@_1GI@ODDBEALO@?$AAx?$AA?3?$AA?2?$AAg?$AAi?$AAt?$AAh?$AAu?$AAb?$AA?2?$AAr?$AAe?$AAn?$AAe?$AAg?$AAa?$AAd?$AAe?$AA?2?$AAd?$AAr?$AAa?$AAg?$AAo?$AAn?$AAa?$AAd?$AAe?$AA_?$AAr?$AAx?$AAd@ ; `string'
PUBLIC	??_C@_0CI@LCJPBBMC@DATokenParserClass?3?3?$HODATokenPars@ ; `string'
PUBLIC	??_7DAEventClass@@6B@				; DAEventClass::`vftable'
PUBLIC	??_7?$VectorClass@PAVDAPlayerObserverClass@@@@6B@ ; VectorClass<DAPlayerObserverClass *>::`vftable'
PUBLIC	??_7?$DynamicVectorClass@PAVDAPlayerObserverClass@@@@6B@ ; DynamicVectorClass<DAPlayerObserverClass *>::`vftable'
PUBLIC	??_7?$VectorClass@PAVDAPlayerDataClass@@@@6B@	; VectorClass<DAPlayerDataClass *>::`vftable'
PUBLIC	??_7?$DynamicVectorClass@PAVDAPlayerDataClass@@@@6B@ ; DynamicVectorClass<DAPlayerDataClass *>::`vftable'
PUBLIC	??_7?$VectorClass@PAUDAPlayerTagStruct@DAPlayerClass@@@@6B@ ; VectorClass<DAPlayerClass::DAPlayerTagStruct *>::`vftable'
PUBLIC	??_7?$DynamicVectorClass@PAUDAPlayerTagStruct@DAPlayerClass@@@@6B@ ; DynamicVectorClass<DAPlayerClass::DAPlayerTagStruct *>::`vftable'
PUBLIC	??_7?$VectorClass@PAUDAPlayerObserverTimerStruct@@@@6B@ ; VectorClass<DAPlayerObserverTimerStruct *>::`vftable'
PUBLIC	??_7?$DynamicVectorClass@PAUDAPlayerObserverTimerStruct@@@@6B@ ; DynamicVectorClass<DAPlayerObserverTimerStruct *>::`vftable'
PUBLIC	??_7?$VectorClass@PAUDAPlayerObserverChatCommandStruct@@@@6B@ ; VectorClass<DAPlayerObserverChatCommandStruct *>::`vftable'
PUBLIC	??_7?$DynamicVectorClass@PAUDAPlayerObserverChatCommandStruct@@@@6B@ ; DynamicVectorClass<DAPlayerObserverChatCommandStruct *>::`vftable'
PUBLIC	??_7?$VectorClass@PAUDAPlayerObserverKeyHookStruct@@@@6B@ ; VectorClass<DAPlayerObserverKeyHookStruct *>::`vftable'
PUBLIC	??_7?$DynamicVectorClass@PAUDAPlayerObserverKeyHookStruct@@@@6B@ ; DynamicVectorClass<DAPlayerObserverKeyHookStruct *>::`vftable'
PUBLIC	??_7DAPlayerObserverClass@@6B@			; DAPlayerObserverClass::`vftable'
PUBLIC	??_7DAPlayerDataFactoryClass@@6B@		; DAPlayerDataFactoryClass::`vftable'
PUBLIC	??_7DAPlayerDataClass@@6B@			; DAPlayerDataClass::`vftable'
PUBLIC	??_7?$VectorClass@PAVDAPlayerDataFactoryClass@@@@6B@ ; VectorClass<DAPlayerDataFactoryClass *>::`vftable'
PUBLIC	??_7?$DynamicVectorClass@PAVDAPlayerDataFactoryClass@@@@6B@ ; DynamicVectorClass<DAPlayerDataFactoryClass *>::`vftable'
PUBLIC	?DataFactories@DAPlayerManager@@0V?$DynamicVectorClass@PAVDAPlayerDataFactoryClass@@@@A ; DAPlayerManager::DataFactories
PUBLIC	??_7?$VectorClass@PAVDAPlayerClass@@@@6B@	; VectorClass<DAPlayerClass *>::`vftable'
PUBLIC	??_7?$DynamicVectorClass@PAVDAPlayerClass@@@@6B@ ; DynamicVectorClass<DAPlayerClass *>::`vftable'
PUBLIC	?Players@DAPlayerManager@@0V?$DynamicVectorClass@PAVDAPlayerClass@@@@A ; DAPlayerManager::Players
PUBLIC	??_7DAPlayerManager@@6B@			; DAPlayerManager::`vftable'
PUBLIC	??_7DAChatCommandClass@@6B@			; DAChatCommandClass::`vftable'
PUBLIC	??_7DAKeyHookClass@@6B@				; DAKeyHookClass::`vftable'
PUBLIC	??_7DAGameObjObserverClass@@6B@			; DAGameObjObserverClass::`vftable'
PUBLIC	?__LINE__Var@?1???1DAPlayerClass@@AAE@XZ@4JA	; `DAPlayerClass::~DAPlayerClass'::`2'::__LINE__Var
PUBLIC	??_C@_0BO@EOMKCHMG@DAPlayerClass?3?3?$HODAPlayerClass?$AA@ ; `string'
PUBLIC	??_C@_0DH@FBEEJOEF@x?3?2github?2renegade?2dragonade_rxd@ ; `string'
PUBLIC	??_C@_1GO@OABMHMOA@?$AAx?$AA?3?$AA?2?$AAg?$AAi?$AAt?$AAh?$AAu?$AAb?$AA?2?$AAr?$AAe?$AAn?$AAe?$AAg?$AAa?$AAd?$AAe?$AA?2?$AAd?$AAr?$AAa?$AAg?$AAo?$AAn?$AAa?$AAd?$AAe?$AA_?$AAr?$AAx?$AAd@ ; `string'
PUBLIC	?__LINE__Var@?1??Start_Timer@DAPlayerObserverClass@@QAEXHM_NI@Z@4JA ; `DAPlayerObserverClass::Start_Timer'::`2'::__LINE__Var
PUBLIC	??_C@_0CD@EHNONELH@DAPlayerObserverClass?3?3Start_Tim@ ; `string'
PUBLIC	?__LINE__Var@?1??Clear_Timers@DAPlayerObserverClass@@QAEXXZ@4JA ; `DAPlayerObserverClass::Clear_Timers'::`2'::__LINE__Var
PUBLIC	??_C@_0CE@OABJNPPF@DAPlayerObserverClass?3?3Clear_Tim@ ; `string'
PUBLIC	?__LINE__Var@?1??Register_Chat_Command@DAPlayerObserverClass@@QAEXP82@AE_NABVDATokenClass@@W4TextMessageEnum@@@ZPBDHW4Level@DAAccessLevel@@W4Type@DAChatType@@@Z@4JA ; `DAPlayerObserverClass::Register_Chat_Command'::`2'::__LINE__Var
PUBLIC	??_C@_0CN@EFOCNLCO@DAPlayerObserverClass?3?3Register_@ ; `string'
PUBLIC	?__LINE__Var@?1??Unregister_Chat_Command@DAPlayerObserverClass@@QAEXPBD@Z@4JA ; `DAPlayerObserverClass::Unregister_Chat_Command'::`2'::__LINE__Var
PUBLIC	??_C@_0CP@EHGJPL@DAPlayerObserverClass?3?3Unregiste@ ; `string'
PUBLIC	?__LINE__Var@?1??Clear_Chat_Commands@DAPlayerObserverClass@@QAEXXZ@4JA ; `DAPlayerObserverClass::Clear_Chat_Commands'::`2'::__LINE__Var
PUBLIC	??_C@_0CL@CNAPEKOM@DAPlayerObserverClass?3?3Clear_Cha@ ; `string'
PUBLIC	?__LINE__Var@?1??Register_Key_Hook@DAPlayerObserverClass@@QAEXP82@AEXXZPBD@Z@4JA ; `DAPlayerObserverClass::Register_Key_Hook'::`2'::__LINE__Var
PUBLIC	??_C@_0CJ@FHEAKKDD@DAPlayerObserverClass?3?3Register_@ ; `string'
PUBLIC	?__LINE__Var@?1??Unregister_Key_Hook@DAPlayerObserverClass@@QAEXPBD@Z@4JA ; `DAPlayerObserverClass::Unregister_Key_Hook'::`2'::__LINE__Var
PUBLIC	??_C@_0CL@JHDIMKFP@DAPlayerObserverClass?3?3Unregiste@ ; `string'
PUBLIC	?__LINE__Var@?1??Clear_Key_Hooks@DAPlayerObserverClass@@QAEXXZ@4JA ; `DAPlayerObserverClass::Clear_Key_Hooks'::`2'::__LINE__Var
PUBLIC	??_C@_0CH@DGJDJLJO@DAPlayerObserverClass?3?3Clear_Key@ ; `string'
PUBLIC	?__LINE__Var@?1??Remove_Data@DAPlayerClass@@AAEXPBVDAPlayerDataFactoryClass@@@Z@4JA ; `DAPlayerClass::Remove_Data'::`2'::__LINE__Var
PUBLIC	??_C@_0BL@OKHFFNHA@DAPlayerClass?3?3Remove_Data?$AA@ ; `string'
PUBLIC	??_C@_01EEMJAFIK@?6?$AA@			; `string'
PUBLIC	?__LINE__Var@?1??Add_Tag@DAPlayerClass@@QAEXPBDHW4Flag@DAPlayerFlags@@@Z@4JA ; `DAPlayerClass::Add_Tag'::`2'::__LINE__Var
PUBLIC	??_C@_0BH@IOCPEFAM@DAPlayerClass?3?3Add_Tag?$AA@ ; `string'
PUBLIC	?__LINE__Var@?1??Remove_Tag@DAPlayerClass@@QAEXPBD@Z@4JA ; `DAPlayerClass::Remove_Tag'::`2'::__LINE__Var
PUBLIC	??_C@_0BK@KLFJAOEH@DAPlayerClass?3?3Remove_Tag?$AA@ ; `string'
PUBLIC	?__LINE__Var@?1??Remove_Tags_With_Flag@DAPlayerClass@@QAEXW4Flag@DAPlayerFlags@@@Z@4JA ; `DAPlayerClass::Remove_Tags_With_Flag'::`2'::__LINE__Var
PUBLIC	??_C@_0CF@HDIHHOOP@DAPlayerClass?3?3Remove_Tags_With_@ ; `string'
PUBLIC	??_C@_0DM@JADFFPAP@You?5have?5been?5beacon?5locked?4?5You@ ; `string'
PUBLIC	??_C@_0CB@JDBGEJGN@You?5are?5no?5longer?5beacon?5locked?4@ ; `string'
PUBLIC	??_C@_0EG@IBHKDBEP@You?5have?5been?5C4?5locked?4?5You?5can@ ; `string'
PUBLIC	??_C@_0BN@GAOJEHFL@You?5are?5no?5longer?5C4?5locked?4?$AA@ ; `string'
PUBLIC	?__LINE__Var@?1??Leave@DAPlayerClass@@QAEXXZ@4JA ; `DAPlayerClass::Leave'::`2'::__LINE__Var
PUBLIC	??_C@_0BF@LDMNOLGG@DAPlayerClass?3?3Leave?$AA@	; `string'
PUBLIC	?__LINE__Var@?1??Level_Loaded@DAPlayerClass@@QAEXXZ@4JA ; `DAPlayerClass::Level_Loaded'::`2'::__LINE__Var
PUBLIC	??_C@_0BM@MEMENIFB@DAPlayerClass?3?3Level_Loaded?$AA@ ; `string'
PUBLIC	?__LINE__Var@?1??Think@DAPlayerClass@@QAEXXZ@4JA ; `DAPlayerClass::Think'::`2'::__LINE__Var
PUBLIC	??_C@_0BF@ONNKFIII@DAPlayerClass?3?3Think?$AA@	; `string'
PUBLIC	?__LINE__Var@?1??Shutdown@DAPlayerManager@@SAXXZ@4JA@9a9e7f31 ; `DAPlayerManager::Shutdown'::`2'::__LINE__Var
PUBLIC	??_C@_0BK@CKKBIHPL@DAPlayerManager?3?3Shutdown?$AA@ ; `string'
PUBLIC	?__LINE__Var@?1??Level_Loaded_Event@DAPlayerManager@@EAEXXZ@4JA ; `DAPlayerManager::Level_Loaded_Event'::`2'::__LINE__Var
PUBLIC	??_C@_0CE@LCCAFGAD@DAPlayerManager?3?3Level_Loaded_Ev@ ; `string'
PUBLIC	??_C@_0BO@HKGGGAKO@DisallowedNickFirstCharacters?$AA@ ; `string'
PUBLIC	??_C@_0BJ@NNMPKHA@DisallowedNickCharacters?$AA@	; `string'
PUBLIC	??_C@_03EFNCJBPO@?3?5?$DL?$AA@			; `string'
PUBLIC	??_C@_0BA@HEBFPDJJ@DisallowedNicks?$AA@		; `string'
PUBLIC	??_C@_19PBDICKGO@?$AAH?$AAo?$AAs?$AAt?$AA?$AA@	; `string'
PUBLIC	??_C@_07CJDDGPKK@ForceTT?$AA@			; `string'
PUBLIC	??_C@_0L@MIKFFCIJ@TTRevision?$AA@		; `string'
PUBLIC	??_C@_0BE@IJOOINGD@DisableKillMessages?$AA@	; `string'
PUBLIC	??_C@_0BD@GKLJKJBI@DisableKillCounter?$AA@	; `string'
PUBLIC	??_C@_0BH@CAPDDKGF@DisableTeamKillCounter?$AA@	; `string'
PUBLIC	??_C@_0BE@MMGHOLH@DisableDeathCounter?$AA@	; `string'
PUBLIC	??_C@_0BI@CCDIDJKF@DisableTeamDeathCounter?$AA@	; `string'
PUBLIC	??_C@_0BE@FBOAFOAI@DisableDamagePoints?$AA@	; `string'
PUBLIC	??_C@_0BD@CBNANGNM@DisableDeathPoints?$AA@	; `string'
PUBLIC	??_C@_0BI@KKFGIANB@DisableTeamScoreCounter?$AA@	; `string'
PUBLIC	??_C@_0BC@DLCLEFAJ@CreditsMultiplier?$AA@	; `string'
PUBLIC	??_C@_1CC@BIEAMFCL@?$AAD?$AAi?$AAs?$AAa?$AAl?$AAl?$AAo?$AAw?$AAe?$AAd?$AA?5?$AAn?$AAa?$AAm?$AAe?$AA?4?$AA?$AA@ ; `string'
PUBLIC	??_C@_1CA@JBOPGOIG@?$AAN?$AAa?$AAm?$AAe?$AA?5?$AAt?$AAo?$AAo?$AA?5?$AAs?$AAh?$AAo?$AAr?$AAt?$AA?4?$AA?$AA@ ; `string'
PUBLIC	??_C@_1M@GCMBNJNI@?$AAG?$AAh?$AAo?$AAs?$AAt?$AA?$AA@ ; `string'
PUBLIC	??_C@_1CK@IHLPODMD@?$AAN?$AAa?$AAm?$AAe?$AA?5?$AAa?$AAl?$AAr?$AAe?$AAa?$AAd?$AAy?$AA?5?$AAi?$AAn?$AA?5?$AAu?$AAs?$AAe?$AA?4?$AA?$AA@ ; `string'
PUBLIC	??_C@_1CE@BODEMPEJ@?$AAI?$AAn?$AAv?$AAa?$AAl?$AAi?$AAd?$AA?5?$AAp?$AAa?$AAs?$AAs?$AAw?$AAo?$AAr?$AAd?$AA?4?$AA?$AA@ ; `string'
PUBLIC	??_C@_1CE@BMPKCOAN@?$AAV?$AAe?$AAr?$AAs?$AAi?$AAo?$AAn?$AA?5?$AAm?$AAi?$AAs?$AAm?$AAa?$AAt?$AAc?$AAh?$AA?4?$AA?$AA@ ; `string'
PUBLIC	??_C@_1BM@PJBCKE@?$AAG?$AAa?$AAm?$AAe?$AA?5?$AAi?$AAs?$AA?5?$AAf?$AAu?$AAl?$AAl?$AA?4?$AA?$AA@ ; `string'
PUBLIC	??_C@_1CA@KLJPCHOG@?$AAI?$AAn?$AAv?$AAa?$AAl?$AAi?$AAd?$AA?5?$AAs?$AAe?$AAr?$AAi?$AAa?$AAl?$AA?4?$AA?$AA@ ; `string'
PUBLIC	??_C@_1BBG@OKMCKING@?$AAT?$AAh?$AAe?$AA?5?$AAT?$AAi?$AAb?$AAe?$AAr?$AAi?$AAa?$AAn?$AA?5?$AAT?$AAe?$AAc?$AAh?$AAn?$AAo?$AAl?$AAo?$AAg?$AAi?$AAe?$AAs?$AA?5?$AAc?$AAo?$AAm?$AAm?$AAu?$AAn@ ; `string'
PUBLIC	??_C@_1BDG@EMBDKLIM@?$AAY?$AAo?$AAu?$AAr?$AA?5?$AAv?$AAe?$AAr?$AAs?$AAi?$AAo?$AAn?$AA?5?$AAo?$AAf?$AA?5?$AAT?$AAi?$AAb?$AAe?$AAr?$AAi?$AAa?$AAn?$AA?5?$AAT?$AAe?$AAc?$AAh?$AAn?$AAo?$AAl@ ; `string'
PUBLIC	?__LINE__Var@?1??Player_Join_Event@DAPlayerManager@@EAEXPAVcPlayer@@@Z@4JA ; `DAPlayerManager::Player_Join_Event'::`2'::__LINE__Var
PUBLIC	??_C@_0CD@PHEJDDLL@DAPlayerManager?3?3Player_Join_Eve@ ; `string'
PUBLIC	??_C@_0LG@LEOCJFMN@Download?5the?5Tiberian?5Technologi@ ; `string'
PUBLIC	??_C@_02DKCKIIND@?$CFs?$AA@			; `string'
PUBLIC	??_C@_08CPAPLMHM@?$CFls?5?9?5?$CFs?$AA@		; `string'
PUBLIC	??_C@_09KOKHHBLN@_PURCHASE?$AA@			; `string'
PUBLIC	??_C@_0BH@IHJJPDJ@?$CFls?5committed?5suicide?4?$AA@ ; `string'
PUBLIC	??_C@_0JB@NLHGGHFO@You?5have?5reached?5the?5weapon?5limi@ ; `string'
PUBLIC	??_7DALegacyTagConsoleFunctionClass@@6B@	; DALegacyTagConsoleFunctionClass::`vftable'
PUBLIC	??_C@_03FJEPELFP@tag?$AA@			; `string'
PUBLIC	??_C@_0JA@EOHELPNC@TAG?5?$DMplayerid?$DO?5?$DMtag?$DO?5?9?5Legacy?5co@ ; `string'
PUBLIC	?DALegacyTagConsoleFunctionClassRegistrant@@3V?$DAConsoleFunctionRegistrant@VDALegacyTagConsoleFunctionClass@@@@A ; DALegacyTagConsoleFunctionClassRegistrant
PUBLIC	??_7DAAddTagConsoleFunctionClass@@6B@		; DAAddTagConsoleFunctionClass::`vftable'
PUBLIC	??_C@_06DHHBJAKN@addtag?$AA@			; `string'
PUBLIC	??_C@_0BCL@LHHALLJC@ADDTAG?5?$DMplayerid?$DO?5?$DMpersist?5on?5le@ ; `string'
PUBLIC	??_C@_01HIHLOKLC@1?$AA@				; `string'
PUBLIC	??_C@_04LOAJBDKD@true?$AA@			; `string'
PUBLIC	??_C@_03ICICOMAL@yes?$AA@			; `string'
PUBLIC	?DAAddTagConsoleFunctionClassRegistrant@@3V?$DAConsoleFunctionRegistrant@VDAAddTagConsoleFunctionClass@@@@A ; DAAddTagConsoleFunctionClassRegistrant
PUBLIC	??_7DARemoveTagConsoleFunctionClass@@6B@	; DARemoveTagConsoleFunctionClass::`vftable'
PUBLIC	??_C@_09MFHAPCPM@removetag?$AA@			; `string'
PUBLIC	??_C@_0EE@KMOAJNHH@REMOVETAG?5?$DMplayerid?$DO?5?$DMtag?$DO?5?9?5Rem@ ; `string'
PUBLIC	?DARemoveTagConsoleFunctionClassRegistrant@@3V?$DAConsoleFunctionRegistrant@VDARemoveTagConsoleFunctionClass@@@@A ; DARemoveTagConsoleFunctionClassRegistrant
PUBLIC	??_7DASetAccessLevelConsoleFunctionClass@@6B@	; DASetAccessLevelConsoleFunctionClass::`vftable'
PUBLIC	??_C@_0P@DGAKJKE@setaccesslevel?$AA@		; `string'
PUBLIC	??_C@_03CHGMKKCN@sal?$AA@			; `string'
PUBLIC	??_C@_0EI@NDCMJHFM@SETACCESSLEVEL?5?$DMplayerid?$DO?5?$DM0?96?$DO?5@ ; `string'
PUBLIC	?DASetAccessLevelConsoleFunctionClassRegistrant@@3V?$DAConsoleFunctionRegistrant@VDASetAccessLevelConsoleFunctionClass@@@@A ; DASetAccessLevelConsoleFunctionClassRegistrant
PUBLIC	??_7DAMuteConsoleFunctionClass@@6B@		; DAMuteConsoleFunctionClass::`vftable'
PUBLIC	??_C@_04EPOMLENO@mute?$AA@			; `string'
PUBLIC	??_C@_0GA@GDHEBAFA@MUTE?5?$DMplayerid?$DO?5?9?5Mute?5a?5player?0@ ; `string'
PUBLIC	?DAMuteConsoleFunctionClassRegistrant@@3V?$DAConsoleFunctionRegistrant@VDAMuteConsoleFunctionClass@@@@A ; DAMuteConsoleFunctionClassRegistrant
PUBLIC	??_7DAUnMuteConsoleFunctionClass@@6B@		; DAUnMuteConsoleFunctionClass::`vftable'
PUBLIC	??_C@_06JIAMANBL@unmute?$AA@			; `string'
PUBLIC	??_C@_0CF@DOGLIOAG@UNMUTE?5?$DMplayerid?$DO?5?9?5Unmute?5a?5pla@ ; `string'
PUBLIC	?DAUnMuteConsoleFunctionClassRegistrant@@3V?$DAConsoleFunctionRegistrant@VDAUnMuteConsoleFunctionClass@@@@A ; DAUnMuteConsoleFunctionClassRegistrant
PUBLIC	??_7DAMuteToggleConsoleFunctionClass@@6B@	; DAMuteToggleConsoleFunctionClass::`vftable'
PUBLIC	??_C@_0L@BPDNGHAA@mutetoggle?$AA@		; `string'
PUBLIC	??_C@_0HA@JFKLOOI@MUTETOGGLE?5?$DMplayerid?$DO?5?9?5Mute?5or?5@ ; `string'
PUBLIC	?DAMuteToggleConsoleFunctionClassRegistrant@@3V?$DAConsoleFunctionRegistrant@VDAMuteToggleConsoleFunctionClass@@@@A ; DAMuteToggleConsoleFunctionClassRegistrant
PUBLIC	??_7DABeaconLockConsoleFunctionClass@@6B@	; DABeaconLockConsoleFunctionClass::`vftable'
PUBLIC	??_C@_0L@CGNHEEL@beaconlock?$AA@		; `string'
PUBLIC	??_C@_0L@IHEDHCHL@beaconmute?$AA@		; `string'
PUBLIC	??_C@_0EB@OPMJEIOF@BEACONLOCK?5?$DMplayerid?$DO?5?9?5Prevent?5@ ; `string'
PUBLIC	?DABeaconLockConsoleFunctionClassRegistrant@@3V?$DAConsoleFunctionRegistrant@VDABeaconLockConsoleFunctionClass@@@@A ; DABeaconLockConsoleFunctionClassRegistrant
PUBLIC	??_7DAUnBeaconLockConsoleFunctionClass@@6B@	; DAUnBeaconLockConsoleFunctionClass::`vftable'
PUBLIC	??_C@_0N@CGPDKE@unbeaconlock?$AA@		; `string'
PUBLIC	??_C@_0N@IFAIPFJE@unbeaconmute?$AA@		; `string'
PUBLIC	??_C@_0DP@BFPDELAD@UNBEACONLOCK?5?$DMplayerid?$DO?5?9?5Re?9all@ ; `string'
PUBLIC	?DAUnBeaconLockConsoleFunctionClassRegistrant@@3V?$DAConsoleFunctionRegistrant@VDAUnBeaconLockConsoleFunctionClass@@@@A ; DAUnBeaconLockConsoleFunctionClassRegistrant
PUBLIC	??_7DABeaconLockToggleConsoleFunctionClass@@6B@	; DABeaconLockToggleConsoleFunctionClass::`vftable'
PUBLIC	??_C@_0BB@JGCEMHOG@beaconlocktoggle?$AA@	; `string'
PUBLIC	??_C@_0BB@LKANDEIN@beaconmutetoggle?$AA@	; `string'
PUBLIC	??_C@_0FD@PBPCLAKA@BEACONLOCKTOGGLE?5?$DMplayerid?$DO?5?9?5Pr@ ; `string'
PUBLIC	?DABeaconLockToggleConsoleFunctionClassRegistrant@@3V?$DAConsoleFunctionRegistrant@VDABeaconLockToggleConsoleFunctionClass@@@@A ; DABeaconLockToggleConsoleFunctionClassRegistrant
PUBLIC	??_7DAC4LockConsoleFunctionClass@@6B@		; DAC4LockConsoleFunctionClass::`vftable'
PUBLIC	??_C@_06LEDJIJEO@c4lock?$AA@			; `string'
PUBLIC	??_C@_06DBBHIPHO@c4mute?$AA@			; `string'
PUBLIC	??_C@_0EJ@KKIMLAIP@C4LOCK?5?$DMplayerid?$DO?5?9?5Prevent?5a?5pl@ ; `string'
PUBLIC	?DAC4LockConsoleFunctionClassRegistrant@@3V?$DAConsoleFunctionRegistrant@VDAC4LockConsoleFunctionClass@@@@A ; DAC4LockConsoleFunctionClassRegistrant
PUBLIC	??_7DAUnC4LockConsoleFunctionClass@@6B@		; DAUnC4LockConsoleFunctionClass::`vftable'
PUBLIC	??_C@_08LAAJHGIN@unc4lock?$AA@			; `string'
PUBLIC	??_C@_08DFCHHALN@unc4mute?$AA@			; `string'
PUBLIC	??_C@_0EI@EOMCLJIA@UNC4LOCK?5?$DMplayerid?$DO?5?9?5Re?9allow?5a@ ; `string'
PUBLIC	?DAUnC4LockConsoleFunctionClassRegistrant@@3V?$DAConsoleFunctionRegistrant@VDAUnC4LockConsoleFunctionClass@@@@A ; DAUnC4LockConsoleFunctionClassRegistrant
PUBLIC	??_7DAC4LockToggleConsoleFunctionClass@@6B@	; DAC4LockToggleConsoleFunctionClass::`vftable'
PUBLIC	??_C@_0N@PDPBNIOO@c4locktoggle?$AA@		; `string'
PUBLIC	??_C@_0N@NPNICLIF@c4mutetoggle?$AA@		; `string'
PUBLIC	??_C@_0FL@FIDEADBJ@C4LOCKTOGGLE?5?$DMplayerid?$DO?5?9?5Preven@ ; `string'
PUBLIC	?DAC4LockToggleConsoleFunctionClassRegistrant@@3V?$DAConsoleFunctionRegistrant@VDAC4LockToggleConsoleFunctionClass@@@@A ; DAC4LockToggleConsoleFunctionClassRegistrant
PUBLIC	??_7SDEConsoleFunctionClass@@6B@		; SDEConsoleFunctionClass::`vftable'
PUBLIC	??_C@_03PAGFNDIP@sde?$AA@			; `string'
PUBLIC	??_C@_0EK@COJHOMOI@SDE?5?$DMplayerid?$DO?5?9?5Enable?5server?5d@ ; `string'
PUBLIC	?SDEConsoleFunctionClassRegistrant@@3V?$DAConsoleFunctionRegistrant@VSDEConsoleFunctionClass@@@@A ; SDEConsoleFunctionClassRegistrant
PUBLIC	??_7UnSDEConsoleFunctionClass@@6B@		; UnSDEConsoleFunctionClass::`vftable'
PUBLIC	??_C@_05BNAOPIGO@unsde?$AA@			; `string'
PUBLIC	??_C@_0EN@JFBBDNNB@UNSDE?5?$DMplayerid?$DO?5?9?5Disable?5serve@ ; `string'
PUBLIC	?UnSDEConsoleFunctionClassRegistrant@@3V?$DAConsoleFunctionRegistrant@VUnSDEConsoleFunctionClass@@@@A ; UnSDEConsoleFunctionClassRegistrant
PUBLIC	??_7SDEToggleConsoleFunctionClass@@6B@		; SDEToggleConsoleFunctionClass::`vftable'
PUBLIC	??_C@_09KNKOFHJD@sdetoggle?$AA@			; `string'
PUBLIC	??_C@_0FL@FDBFDGEL@SDETOGGLE?5?$DMplayerid?$DO?5?9?5Enable?5or@ ; `string'
PUBLIC	?SDEToggleConsoleFunctionClassRegistrant@@3V?$DAConsoleFunctionRegistrant@VSDEToggleConsoleFunctionClass@@@@A ; SDEToggleConsoleFunctionClassRegistrant
PUBLIC	??_7MapCHConsoleFunctionClass@@6B@		; MapCHConsoleFunctionClass::`vftable'
PUBLIC	??_C@_05NCIPCIGP@mapch?$AA@			; `string'
PUBLIC	??_C@_0EP@OHKOIEOI@MAPCH?5?$DMplayerid?$DO?5?$DMfile?$DO?5?9?5Check?5@ ; `string'
PUBLIC	??_C@_1BK@MDHBEBLB@?$AAj?$AA?6?$AA7?$AA1?$AA?6?$AA?$CF?$AAd?$AA?6?$AA?$CF?$AAh?$AAs?$AA?6?$AA?$AA@ ; `string'
PUBLIC	?MapCHConsoleFunctionClassRegistrant@@3V?$DAConsoleFunctionRegistrant@VMapCHConsoleFunctionClass@@@@A ; MapCHConsoleFunctionClassRegistrant
PUBLIC	??_7DAVoteYesKeyHookClass@@6B@			; DAVoteYesKeyHookClass::`vftable'
PUBLIC	??_C@_1BE@GBMNPCPJ@?$AA?$CB?$AAv?$AAo?$AAt?$AAe?$AA?5?$AAy?$AAe?$AAs?$AA?$AA@ ; `string'
PUBLIC	??_C@_0BA@FHDFJBAG@?$CFls?3?5?$CBvote?5yes?6?$AA@ ; `string'
PUBLIC	?DAVoteYesKeyHookClassRegistrant@@3V?$DAKeyHookRegistrant@VDAVoteYesKeyHookClass@@@@A ; DAVoteYesKeyHookClassRegistrant
PUBLIC	??_C@_07EJAADCOH@VoteYes?$AA@			; `string'
PUBLIC	??_7DAVoteNoKeyHookClass@@6B@			; DAVoteNoKeyHookClass::`vftable'
PUBLIC	??_C@_1BC@MEABEBNH@?$AA?$CB?$AAv?$AAo?$AAt?$AAe?$AA?5?$AAn?$AAo?$AA?$AA@ ; `string'
PUBLIC	??_C@_0P@IDFFOCCF@?$CFls?3?5?$CBvote?5no?6?$AA@	; `string'
PUBLIC	?DAVoteNoKeyHookClassRegistrant@@3V?$DAKeyHookRegistrant@VDAVoteNoKeyHookClass@@@@A ; DAVoteNoKeyHookClassRegistrant
PUBLIC	??_C@_06EDPPNHBP@VoteNo?$AA@			; `string'
PUBLIC	??_7DAUnstuckObserverClass@@6B@			; DAUnstuckObserverClass::`vftable'
PUBLIC	??_C@_0BH@LHLOCLBE@You?5have?5been?5unstuck?4?$AA@ ; `string'
PUBLIC	??_C@_0EB@CBIAIPNJ@Unstuck?5failed?4?5You?5can?5try?5agai@ ; `string'
PUBLIC	??_C@_0CF@FJKDEDIF@You?5cannot?5move?5an?5unmovable?5obj@ ; `string'
PUBLIC	??_C@_0CJ@MPGBFLAI@Unstuck?5Failed?4?5You?5can?8t?5move?5a@ ; `string'
PUBLIC	??_C@_0BH@MJGJJAIE@DAUnstuckObserverClass?$AA@	; `string'
PUBLIC	??_7DAUnStuckChatCommandClass@@6B@		; DAUnStuckChatCommandClass::`vftable'
PUBLIC	??_C@_0BJ@LAFCOBMP@You?5can?8t?5move?5a?5turret?4?$AA@ ; `string'
PUBLIC	??_C@_0CE@MGHOOFCN@DAUnStuckChatCommandClass?3?3Activ@ ; `string'
PUBLIC	??_C@_0DM@HLNFLIOL@You?5will?5be?5unstuck?5in?510?5second@ ; `string'
PUBLIC	?DAUnStuckChatCommandClassRegistrant@@3V?$DAChatCommandRegistrant@VDAUnStuckChatCommandClass@@@@A ; DAUnStuckChatCommandClassRegistrant
PUBLIC	??_C@_0CA@GOKENKHL@?$CBunstuck?$HM?$CBunstick?$HM?$CBstuck?$HM?$CBstick?$AA@ ; `string'
PUBLIC	??_7DAKillMeObserverClass@@6B@			; DAKillMeObserverClass::`vftable'
PUBLIC	??_C@_0BG@MOBIIGGJ@DAKillMeObserverClass?$AA@	; `string'
PUBLIC	??_7DAKillMeChatCommandClass@@6B@		; DAKillMeChatCommandClass::`vftable'
PUBLIC	??_C@_0CD@CLCMHJJO@DAKillMeChatCommandClass?3?3Activa@ ; `string'
PUBLIC	??_C@_0DL@LICACJGF@You?5will?5be?5killed?5in?510?5seconds@ ; `string'
PUBLIC	?DAKillMeChatCommandClassRegistrant@@3V?$DAChatCommandRegistrant@VDAKillMeChatCommandClass@@@@A ; DAKillMeChatCommandClassRegistrant
PUBLIC	??_C@_0BB@GILPKEOB@?$CBkillme?$HM?$CBsuicide?$AA@ ; `string'
PUBLIC	??_7DADropChatCommandClass@@6B@			; DADropChatCommandClass::`vftable'
PUBLIC	?DADropChatCommandClassRegistrant@@3V?$DAChatCommandRegistrant@VDADropChatCommandClass@@@@A ; DADropChatCommandClassRegistrant
PUBLIC	??_C@_0FJ@LOEBFAPL@?$CBdrop?$HM?$CBwdrop?$HM?$CBweapdrop?$HM?$CBweapondr@ ; `string'
PUBLIC	??_C@_0CH@KBGBABBF@VectorClass?$DMclass?5StringClass?$DO?3?3@ ; `string'
PUBLIC	??_C@_0CG@PLGIJOMK@VectorClass?$DMclass?5StringClass?$DO?3?3@ ; `string'
PUBLIC	??_C@_0CL@GGJPOFFL@VectorClass?$DMclass?5WideStringClas@ ; `string'
PUBLIC	??_C@_0CK@NCCEGELB@VectorClass?$DMclass?5WideStringClas@ ; `string'
PUBLIC	??_C@_0EJ@ENMBJFB@SList?$DMstruct?5MultiKeyHookScriptI@ ; `string'
PUBLIC	??_C@_0DB@DFBFLIIO@x?3?2github?2renegade?2dragonade_rxd@ ; `string'
PUBLIC	??_C@_1GC@LJHGOLFN@?$AAx?$AA?3?$AA?2?$AAg?$AAi?$AAt?$AAh?$AAu?$AAb?$AA?2?$AAr?$AAe?$AAn?$AAe?$AAg?$AAa?$AAd?$AAe?$AA?2?$AAd?$AAr?$AAa?$AAg?$AAo?$AAn?$AAa?$AAd?$AAe?$AA_?$AAr?$AAx?$AAd@ ; `string'
PUBLIC	??_C@_0EJ@OIGECPDF@SList?$DMstruct?5MultiKeyHookScriptI@ ; `string'
PUBLIC	??_C@_0EM@PPENJFKC@SList?$DMstruct?5MultiKeyHookScriptI@ ; `string'
PUBLIC	??_C@_0EH@CGJBMJBC@SList?$DMstruct?5MultiKeyHookScriptI@ ; `string'
PUBLIC	??_C@_0EL@MPFHHNNA@SList?$DMstruct?5MultiKeyHookScriptI@ ; `string'
PUBLIC	??_C@_0EO@OJGPEJGC@SList?$DMstruct?5MultiKeyHookScriptI@ ; `string'
PUBLIC	??_C@_0EN@HIHNAGN@SList?$DMstruct?5MultiKeyHookScriptI@ ; `string'
PUBLIC	??_C@_0DD@ODCBLNCJ@VectorClass?$DMclass?5DAPlayerObserv@ ; `string'
PUBLIC	??_C@_0DC@JEMMOOD@VectorClass?$DMclass?5DAPlayerObserv@ ; `string'
PUBLIC	??_C@_0CP@DHEAPCNI@VectorClass?$DMclass?5DAPlayerDataCl@ ; `string'
PUBLIC	??_C@_0CO@NDDDNNIA@VectorClass?$DMclass?5DAPlayerDataCl@ ; `string'
PUBLIC	??_C@_0DP@CMFCBLKD@VectorClass?$DMstruct?5DAPlayerClass@ ; `string'
PUBLIC	??_C@_0DO@MAHPNNNF@VectorClass?$DMstruct?5DAPlayerClass@ ; `string'
PUBLIC	??_C@_0DK@BBINAFLN@VectorClass?$DMstruct?5DAPlayerObser@ ; `string'
PUBLIC	??_C@_0DJ@MHPEBELA@VectorClass?$DMstruct?5DAPlayerObser@ ; `string'
PUBLIC	??_C@_0EA@MBLDIHCA@VectorClass?$DMstruct?5DAPlayerObser@ ; `string'
PUBLIC	??_C@_0DP@JJGAHOFF@VectorClass?$DMstruct?5DAPlayerObser@ ; `string'
PUBLIC	??_C@_0DM@PKMANBOA@VectorClass?$DMstruct?5DAPlayerObser@ ; `string'
PUBLIC	??_C@_0DL@IEBGHGHF@VectorClass?$DMstruct?5DAPlayerObser@ ; `string'
PUBLIC	??_C@_0DG@CAMAKOHM@VectorClass?$DMclass?5DAPlayerDataFa@ ; `string'
PUBLIC	??_C@_0DF@OENBDKBO@VectorClass?$DMclass?5DAPlayerDataFa@ ; `string'
PUBLIC	??_C@_0CL@GEEBLFPK@VectorClass?$DMclass?5DAPlayerClass?5@ ; `string'
PUBLIC	??_C@_0CK@GBOHMPHC@VectorClass?$DMclass?5DAPlayerClass?5@ ; `string'
PUBLIC	??_C@_0GA@NMOADCEE@DAConsoleFunctionRegistrant?$DMclas@ ; `string'
PUBLIC	??_C@_0CO@OHKFIDIP@x?3?2github?2renegade?2dragonade_rxd@ ; `string'
PUBLIC	??_C@_1FM@CLCEFOGP@?$AAx?$AA?3?$AA?2?$AAg?$AAi?$AAt?$AAh?$AAu?$AAb?$AA?2?$AAr?$AAe?$AAn?$AAe?$AAg?$AAa?$AAd?$AAe?$AA?2?$AAd?$AAr?$AAa?$AAg?$AAo?$AAn?$AAa?$AAd?$AAe?$AA_?$AAr?$AAx?$AAd@ ; `string'
PUBLIC	??_C@_0FN@CPIJIEMD@DAConsoleFunctionRegistrant?$DMclas@ ; `string'
PUBLIC	??_C@_0GA@KLDGLNFO@DAConsoleFunctionRegistrant?$DMclas@ ; `string'
PUBLIC	??_C@_0GF@HPDAAPFM@DAConsoleFunctionRegistrant?$DMclas@ ; `string'
PUBLIC	??_C@_0FL@BHFNOGNO@DAConsoleFunctionRegistrant?$DMclas@ ; `string'
PUBLIC	??_C@_0FN@IBEOADGP@DAConsoleFunctionRegistrant?$DMclas@ ; `string'
PUBLIC	??_C@_0GB@EJDKCHIO@DAConsoleFunctionRegistrant?$DMclas@ ; `string'
PUBLIC	??_C@_0GB@HMFHJICP@DAConsoleFunctionRegistrant?$DMclas@ ; `string'
PUBLIC	??_C@_0GD@PGMHCMGD@DAConsoleFunctionRegistrant?$DMclas@ ; `string'
PUBLIC	??_C@_0GH@PKCJHHDJ@DAConsoleFunctionRegistrant?$DMclas@ ; `string'
PUBLIC	??_C@_0FN@BMBKHOGO@DAConsoleFunctionRegistrant?$DMclas@ ; `string'
PUBLIC	??_C@_0FP@DBKEGBHD@DAConsoleFunctionRegistrant?$DMclas@ ; `string'
PUBLIC	??_C@_0GD@LIBANHEP@DAConsoleFunctionRegistrant?$DMclas@ ; `string'
PUBLIC	??_C@_0FI@BJKBINLC@DAConsoleFunctionRegistrant?$DMclas@ ; `string'
PUBLIC	??_C@_0FK@KCIBFONL@DAConsoleFunctionRegistrant?$DMclas@ ; `string'
PUBLIC	??_C@_0FO@BOMACKOG@DAConsoleFunctionRegistrant?$DMclas@ ; `string'
PUBLIC	??_C@_0FK@BBEFEBON@DAConsoleFunctionRegistrant?$DMclas@ ; `string'
PUBLIC	??_C@_0EG@LJEEJKK@DAKeyHookRegistrant?$DMclass?5DAVote@ ; `string'
PUBLIC	??_C@_0DK@GCIJCKLP@x?3?2github?2renegade?2dragonade_rxd@ ; `string'
PUBLIC	??_C@_1HE@PENNKDKP@?$AAx?$AA?3?$AA?2?$AAg?$AAi?$AAt?$AAh?$AAu?$AAb?$AA?2?$AAr?$AAe?$AAn?$AAe?$AAg?$AAa?$AAd?$AAe?$AA?2?$AAd?$AAr?$AAa?$AAg?$AAo?$AAn?$AAa?$AAd?$AAe?$AA_?$AAr?$AAx?$AAd@ ; `string'
PUBLIC	??_C@_0EF@DPINNLLD@DAKeyHookRegistrant?$DMclass?5DAVote@ ; `string'
PUBLIC	??_C@_0FC@JCANMMAC@DAChatCommandRegistrant?$DMclass?5DA@ ; `string'
PUBLIC	??_C@_0FB@EKKMECKP@DAChatCommandRegistrant?$DMclass?5DA@ ; `string'
PUBLIC	??_C@_0EP@DMLNNLOB@DAChatCommandRegistrant?$DMclass?5DA@ ; `string'
PUBLIC	??_C@_0CM@FIBFPEC@VectorClass?$DMclass?5StringClass?$DO?3?3@ ; `string'
PUBLIC	??_C@_0DA@IALOHAFG@VectorClass?$DMclass?5WideStringClas@ ; `string'
PUBLIC	??_C@_0DI@IECBFLKA@VectorClass?$DMclass?5DAPlayerObserv@ ; `string'
PUBLIC	??_C@_0DH@FMPAOODI@VectorClass?$DMclass?5DAPlayerObserv@ ; `string'
PUBLIC	??_C@_0DE@JOEDMLCK@VectorClass?$DMclass?5DAPlayerDataCl@ ; `string'
PUBLIC	??_C@_0DD@OELEBJCM@VectorClass?$DMclass?5DAPlayerDataCl@ ; `string'
PUBLIC	??_C@_0EE@NKCKIMC@VectorClass?$DMstruct?5DAPlayerClass@ ; `string'
PUBLIC	??_C@_0ED@MCIGMKB@VectorClass?$DMstruct?5DAPlayerClass@ ; `string'
PUBLIC	??_C@_0DP@IOIJJLDO@VectorClass?$DMstruct?5DAPlayerObser@ ; `string'
PUBLIC	??_C@_0DO@PEJOFHLG@VectorClass?$DMstruct?5DAPlayerObser@ ; `string'
PUBLIC	??_C@_0EF@EPICALKK@VectorClass?$DMstruct?5DAPlayerObser@ ; `string'
PUBLIC	??_C@_0EE@JOBDGIII@VectorClass?$DMstruct?5DAPlayerObser@ ; `string'
PUBLIC	??_C@_0EB@CCPEIKDO@VectorClass?$DMstruct?5DAPlayerObser@ ; `string'
PUBLIC	??_C@_0EA@DFHGBHJN@VectorClass?$DMstruct?5DAPlayerObser@ ; `string'
PUBLIC	??_C@_0DL@HOIJNNHA@VectorClass?$DMclass?5DAPlayerDataFa@ ; `string'
PUBLIC	??_C@_0DA@LDNFLDGK@VectorClass?$DMclass?5DAPlayerClass?5@ ; `string'
PUBLIC	?instancex@?1??getInstance@?$Singleton@V?$ObjectPoolClass@VGenericSLNode@@$0BAA@@@@@SAAAV?$ObjectPoolClass@VGenericSLNode@@$0BAA@@@XZ@4V3@A ; `Singleton<ObjectPoolClass<GenericSLNode,256> >::getInstance'::`2'::instancex
PUBLIC	??_B?1??getInstance@?$Singleton@V?$ObjectPoolClass@VGenericSLNode@@$0BAA@@@@@SAAAV?$ObjectPoolClass@VGenericSLNode@@$0BAA@@@XZ@51 ; `Singleton<ObjectPoolClass<GenericSLNode,256> >::getInstance'::`2'::`local static guard'
PUBLIC	??_C@_0EB@IOGKEECK@ObjectPoolClass?$DMclass?5GenericSLN@ ; `string'
PUBLIC	??_C@_0FF@NOANHENP@?$CFd?5memory?5leaks?5found?5in?5ObjectP@ ; `string'
PUBLIC	??_C@_0DL@BOENBDGI@ObjectPoolClass?$DMclass?5GenericSLN@ ; `string'
PUBLIC	?oh_dear@?7???R?$SafeDataClass@M@@QBEAAMXZ@4MA	; `SafeDataClass<float>::operator()'::`8'::oh_dear
PUBLIC	?oh_dear@?7???R?$SafeDataClass@H@@QBEAAHXZ@4HA	; `SafeDataClass<int>::operator()'::`8'::oh_dear
PUBLIC	??_R4ScriptFactory@@6B@				; ScriptFactory::`RTTI Complete Object Locator'
PUBLIC	??_R0?AVScriptFactory@@@8			; ScriptFactory `RTTI Type Descriptor'
PUBLIC	??_R3ScriptFactory@@8				; ScriptFactory::`RTTI Class Hierarchy Descriptor'
PUBLIC	??_R2ScriptFactory@@8				; ScriptFactory::`RTTI Base Class Array'
PUBLIC	??_R1A@?0A@EA@ScriptFactory@@8			; ScriptFactory::`RTTI Base Class Descriptor at (0,-1,0,64)'
PUBLIC	??_R4ScriptClass@@6B@				; ScriptClass::`RTTI Complete Object Locator'
PUBLIC	??_R0?AVScriptClass@@@8				; ScriptClass `RTTI Type Descriptor'
PUBLIC	??_R3ScriptClass@@8				; ScriptClass::`RTTI Class Hierarchy Descriptor'
PUBLIC	??_R2ScriptClass@@8				; ScriptClass::`RTTI Base Class Array'
PUBLIC	??_R1A@?0A@EA@ScriptClass@@8			; ScriptClass::`RTTI Base Class Descriptor at (0,-1,0,64)'
PUBLIC	??_R1A@?0A@EA@GameObjObserverClass@@8		; GameObjObserverClass::`RTTI Base Class Descriptor at (0,-1,0,64)'
PUBLIC	??_R0?AVGameObjObserverClass@@@8		; GameObjObserverClass `RTTI Type Descriptor'
PUBLIC	??_R3GameObjObserverClass@@8			; GameObjObserverClass::`RTTI Class Hierarchy Descriptor'
PUBLIC	??_R2GameObjObserverClass@@8			; GameObjObserverClass::`RTTI Base Class Array'
PUBLIC	??_R4GameObjObserverClass@@6B@			; GameObjObserverClass::`RTTI Complete Object Locator'
PUBLIC	??_R4ScriptImpClass@@6B@			; ScriptImpClass::`RTTI Complete Object Locator'
PUBLIC	??_R0?AVScriptImpClass@@@8			; ScriptImpClass `RTTI Type Descriptor'
PUBLIC	??_R3ScriptImpClass@@8				; ScriptImpClass::`RTTI Class Hierarchy Descriptor'
PUBLIC	??_R2ScriptImpClass@@8				; ScriptImpClass::`RTTI Base Class Array'
PUBLIC	??_R1A@?0A@EA@ScriptImpClass@@8			; ScriptImpClass::`RTTI Base Class Descriptor at (0,-1,0,64)'
PUBLIC	??_R4ThreadClass@@6B@				; ThreadClass::`RTTI Complete Object Locator'
PUBLIC	??_R0?AVThreadClass@@@8				; ThreadClass `RTTI Type Descriptor'
PUBLIC	??_R3ThreadClass@@8				; ThreadClass::`RTTI Class Hierarchy Descriptor'
PUBLIC	??_R2ThreadClass@@8				; ThreadClass::`RTTI Base Class Array'
PUBLIC	??_R1A@?0A@EA@ThreadClass@@8			; ThreadClass::`RTTI Base Class Descriptor at (0,-1,0,64)'
PUBLIC	??_R4INIClass@@6B@				; INIClass::`RTTI Complete Object Locator'
PUBLIC	??_R0?AVINIClass@@@8				; INIClass `RTTI Type Descriptor'
PUBLIC	??_R3INIClass@@8				; INIClass::`RTTI Class Hierarchy Descriptor'
PUBLIC	??_R2INIClass@@8				; INIClass::`RTTI Base Class Array'
PUBLIC	??_R1A@?0A@EA@INIClass@@8			; INIClass::`RTTI Base Class Descriptor at (0,-1,0,64)'
PUBLIC	??_R1A@?0A@EA@PostLoadableClass@@8		; PostLoadableClass::`RTTI Base Class Descriptor at (0,-1,0,64)'
PUBLIC	??_R0?AVPostLoadableClass@@@8			; PostLoadableClass `RTTI Type Descriptor'
PUBLIC	??_R3PostLoadableClass@@8			; PostLoadableClass::`RTTI Class Hierarchy Descriptor'
PUBLIC	??_R2PostLoadableClass@@8			; PostLoadableClass::`RTTI Base Class Array'
PUBLIC	??_R4PostLoadableClass@@6B@			; PostLoadableClass::`RTTI Complete Object Locator'
PUBLIC	??_R4ReferencerClass@@6B@			; ReferencerClass::`RTTI Complete Object Locator'
PUBLIC	??_R0?AVReferencerClass@@@8			; ReferencerClass `RTTI Type Descriptor'
PUBLIC	??_R3ReferencerClass@@8				; ReferencerClass::`RTTI Class Hierarchy Descriptor'
PUBLIC	??_R2ReferencerClass@@8				; ReferencerClass::`RTTI Base Class Array'
PUBLIC	??_R1A@?0A@EA@ReferencerClass@@8		; ReferencerClass::`RTTI Base Class Descriptor at (0,-1,0,64)'
PUBLIC	??_R4?$DynamicVectorClass@VStringClass@@@@6B@	; DynamicVectorClass<StringClass>::`RTTI Complete Object Locator'
PUBLIC	??_R0?AV?$DynamicVectorClass@VStringClass@@@@@8	; DynamicVectorClass<StringClass> `RTTI Type Descriptor'
PUBLIC	??_R3?$DynamicVectorClass@VStringClass@@@@8	; DynamicVectorClass<StringClass>::`RTTI Class Hierarchy Descriptor'
PUBLIC	??_R2?$DynamicVectorClass@VStringClass@@@@8	; DynamicVectorClass<StringClass>::`RTTI Base Class Array'
PUBLIC	??_R1A@?0A@EA@?$DynamicVectorClass@VStringClass@@@@8 ; DynamicVectorClass<StringClass>::`RTTI Base Class Descriptor at (0,-1,0,64)'
PUBLIC	??_R1A@?0A@EA@?$VectorClass@VStringClass@@@@8	; VectorClass<StringClass>::`RTTI Base Class Descriptor at (0,-1,0,64)'
PUBLIC	??_R0?AV?$VectorClass@VStringClass@@@@@8	; VectorClass<StringClass> `RTTI Type Descriptor'
PUBLIC	??_R3?$VectorClass@VStringClass@@@@8		; VectorClass<StringClass>::`RTTI Class Hierarchy Descriptor'
PUBLIC	??_R2?$VectorClass@VStringClass@@@@8		; VectorClass<StringClass>::`RTTI Base Class Array'
PUBLIC	??_R4?$VectorClass@VStringClass@@@@6B@		; VectorClass<StringClass>::`RTTI Complete Object Locator'
PUBLIC	??_R4?$DynamicVectorClass@VWideStringClass@@@@6B@ ; DynamicVectorClass<WideStringClass>::`RTTI Complete Object Locator'
PUBLIC	??_R0?AV?$DynamicVectorClass@VWideStringClass@@@@@8 ; DynamicVectorClass<WideStringClass> `RTTI Type Descriptor'
PUBLIC	??_R3?$DynamicVectorClass@VWideStringClass@@@@8	; DynamicVectorClass<WideStringClass>::`RTTI Class Hierarchy Descriptor'
PUBLIC	??_R2?$DynamicVectorClass@VWideStringClass@@@@8	; DynamicVectorClass<WideStringClass>::`RTTI Base Class Array'
PUBLIC	??_R1A@?0A@EA@?$DynamicVectorClass@VWideStringClass@@@@8 ; DynamicVectorClass<WideStringClass>::`RTTI Base Class Descriptor at (0,-1,0,64)'
PUBLIC	??_R1A@?0A@EA@?$VectorClass@VWideStringClass@@@@8 ; VectorClass<WideStringClass>::`RTTI Base Class Descriptor at (0,-1,0,64)'
PUBLIC	??_R0?AV?$VectorClass@VWideStringClass@@@@@8	; VectorClass<WideStringClass> `RTTI Type Descriptor'
PUBLIC	??_R3?$VectorClass@VWideStringClass@@@@8	; VectorClass<WideStringClass>::`RTTI Class Hierarchy Descriptor'
PUBLIC	??_R2?$VectorClass@VWideStringClass@@@@8	; VectorClass<WideStringClass>::`RTTI Base Class Array'
PUBLIC	??_R4?$VectorClass@VWideStringClass@@@@6B@	; VectorClass<WideStringClass>::`RTTI Complete Object Locator'
PUBLIC	??_R4JFW_Key_Hook_Base@@6B@			; JFW_Key_Hook_Base::`RTTI Complete Object Locator'
PUBLIC	??_R0?AVJFW_Key_Hook_Base@@@8			; JFW_Key_Hook_Base `RTTI Type Descriptor'
PUBLIC	??_R3JFW_Key_Hook_Base@@8			; JFW_Key_Hook_Base::`RTTI Class Hierarchy Descriptor'
PUBLIC	??_R2JFW_Key_Hook_Base@@8			; JFW_Key_Hook_Base::`RTTI Base Class Array'
PUBLIC	??_R1A@?0A@EA@JFW_Key_Hook_Base@@8		; JFW_Key_Hook_Base::`RTTI Base Class Descriptor at (0,-1,0,64)'
PUBLIC	??_R4MultiKeyHookScriptImpClass@@6B@		; MultiKeyHookScriptImpClass::`RTTI Complete Object Locator'
PUBLIC	??_R0?AVMultiKeyHookScriptImpClass@@@8		; MultiKeyHookScriptImpClass `RTTI Type Descriptor'
PUBLIC	??_R3MultiKeyHookScriptImpClass@@8		; MultiKeyHookScriptImpClass::`RTTI Class Hierarchy Descriptor'
PUBLIC	??_R2MultiKeyHookScriptImpClass@@8		; MultiKeyHookScriptImpClass::`RTTI Base Class Array'
PUBLIC	??_R1A@?0A@EA@MultiKeyHookScriptImpClass@@8	; MultiKeyHookScriptImpClass::`RTTI Base Class Descriptor at (0,-1,0,64)'
PUBLIC	??_R4?$SList@UKeyHookWrapperStruct@MultiKeyHookScriptImpClass@@@@6B@ ; SList<MultiKeyHookScriptImpClass::KeyHookWrapperStruct>::`RTTI Complete Object Locator'
PUBLIC	??_R0?AV?$SList@UKeyHookWrapperStruct@MultiKeyHookScriptImpClass@@@@@8 ; SList<MultiKeyHookScriptImpClass::KeyHookWrapperStruct> `RTTI Type Descriptor'
PUBLIC	??_R3?$SList@UKeyHookWrapperStruct@MultiKeyHookScriptImpClass@@@@8 ; SList<MultiKeyHookScriptImpClass::KeyHookWrapperStruct>::`RTTI Class Hierarchy Descriptor'
PUBLIC	??_R2?$SList@UKeyHookWrapperStruct@MultiKeyHookScriptImpClass@@@@8 ; SList<MultiKeyHookScriptImpClass::KeyHookWrapperStruct>::`RTTI Base Class Array'
PUBLIC	??_R1A@?0A@EA@?$SList@UKeyHookWrapperStruct@MultiKeyHookScriptImpClass@@@@8 ; SList<MultiKeyHookScriptImpClass::KeyHookWrapperStruct>::`RTTI Base Class Descriptor at (0,-1,0,64)'
PUBLIC	??_R4JFW_Object_Created_Hook_Base@@6B@		; JFW_Object_Created_Hook_Base::`RTTI Complete Object Locator'
PUBLIC	??_R0?AVJFW_Object_Created_Hook_Base@@@8	; JFW_Object_Created_Hook_Base `RTTI Type Descriptor'
PUBLIC	??_R3JFW_Object_Created_Hook_Base@@8		; JFW_Object_Created_Hook_Base::`RTTI Class Hierarchy Descriptor'
PUBLIC	??_R2JFW_Object_Created_Hook_Base@@8		; JFW_Object_Created_Hook_Base::`RTTI Base Class Array'
PUBLIC	??_R1A@?0A@EA@JFW_Object_Created_Hook_Base@@8	; JFW_Object_Created_Hook_Base::`RTTI Base Class Descriptor at (0,-1,0,64)'
PUBLIC	??_R4ConsoleFunctionClass@@6B@			; ConsoleFunctionClass::`RTTI Complete Object Locator'
PUBLIC	??_R0?AVConsoleFunctionClass@@@8		; ConsoleFunctionClass `RTTI Type Descriptor'
PUBLIC	??_R3ConsoleFunctionClass@@8			; ConsoleFunctionClass::`RTTI Class Hierarchy Descriptor'
PUBLIC	??_R2ConsoleFunctionClass@@8			; ConsoleFunctionClass::`RTTI Base Class Array'
PUBLIC	??_R1A@?0A@EA@ConsoleFunctionClass@@8		; ConsoleFunctionClass::`RTTI Base Class Descriptor at (0,-1,0,64)'
PUBLIC	??_R4DAEventClass@@6B@				; DAEventClass::`RTTI Complete Object Locator'
PUBLIC	??_R0?AVDAEventClass@@@8			; DAEventClass `RTTI Type Descriptor'
PUBLIC	??_R3DAEventClass@@8				; DAEventClass::`RTTI Class Hierarchy Descriptor'
PUBLIC	??_R2DAEventClass@@8				; DAEventClass::`RTTI Base Class Array'
PUBLIC	??_R1A@?0A@EA@DAEventClass@@8			; DAEventClass::`RTTI Base Class Descriptor at (0,-1,0,64)'
PUBLIC	??_R4DAPlayerDataFactoryClass@@6B@		; DAPlayerDataFactoryClass::`RTTI Complete Object Locator'
PUBLIC	??_R0?AVDAPlayerDataFactoryClass@@@8		; DAPlayerDataFactoryClass `RTTI Type Descriptor'
PUBLIC	??_R3DAPlayerDataFactoryClass@@8		; DAPlayerDataFactoryClass::`RTTI Class Hierarchy Descriptor'
PUBLIC	??_R2DAPlayerDataFactoryClass@@8		; DAPlayerDataFactoryClass::`RTTI Base Class Array'
PUBLIC	??_R1A@?0A@EA@DAPlayerDataFactoryClass@@8	; DAPlayerDataFactoryClass::`RTTI Base Class Descriptor at (0,-1,0,64)'
PUBLIC	??_R4DAPlayerObserverClass@@6B@			; DAPlayerObserverClass::`RTTI Complete Object Locator'
PUBLIC	??_R0?AVDAPlayerObserverClass@@@8		; DAPlayerObserverClass `RTTI Type Descriptor'
PUBLIC	??_R3DAPlayerObserverClass@@8			; DAPlayerObserverClass::`RTTI Class Hierarchy Descriptor'
PUBLIC	??_R2DAPlayerObserverClass@@8			; DAPlayerObserverClass::`RTTI Base Class Array'
PUBLIC	??_R1A@?0A@EA@DAPlayerObserverClass@@8		; DAPlayerObserverClass::`RTTI Base Class Descriptor at (0,-1,0,64)'
PUBLIC	??_R4DAPlayerDataClass@@6B@			; DAPlayerDataClass::`RTTI Complete Object Locator'
PUBLIC	??_R0?AVDAPlayerDataClass@@@8			; DAPlayerDataClass `RTTI Type Descriptor'
PUBLIC	??_R3DAPlayerDataClass@@8			; DAPlayerDataClass::`RTTI Class Hierarchy Descriptor'
PUBLIC	??_R2DAPlayerDataClass@@8			; DAPlayerDataClass::`RTTI Base Class Array'
PUBLIC	??_R1A@?0A@EA@DAPlayerDataClass@@8		; DAPlayerDataClass::`RTTI Base Class Descriptor at (0,-1,0,64)'
PUBLIC	??_R4?$DynamicVectorClass@PAVDAPlayerObserverClass@@@@6B@ ; DynamicVectorClass<DAPlayerObserverClass *>::`RTTI Complete Object Locator'
PUBLIC	??_R0?AV?$DynamicVectorClass@PAVDAPlayerObserverClass@@@@@8 ; DynamicVectorClass<DAPlayerObserverClass *> `RTTI Type Descriptor'
PUBLIC	??_R3?$DynamicVectorClass@PAVDAPlayerObserverClass@@@@8 ; DynamicVectorClass<DAPlayerObserverClass *>::`RTTI Class Hierarchy Descriptor'
PUBLIC	??_R2?$DynamicVectorClass@PAVDAPlayerObserverClass@@@@8 ; DynamicVectorClass<DAPlayerObserverClass *>::`RTTI Base Class Array'
PUBLIC	??_R1A@?0A@EA@?$DynamicVectorClass@PAVDAPlayerObserverClass@@@@8 ; DynamicVectorClass<DAPlayerObserverClass *>::`RTTI Base Class Descriptor at (0,-1,0,64)'
PUBLIC	??_R1A@?0A@EA@?$VectorClass@PAVDAPlayerObserverClass@@@@8 ; VectorClass<DAPlayerObserverClass *>::`RTTI Base Class Descriptor at (0,-1,0,64)'
PUBLIC	??_R0?AV?$VectorClass@PAVDAPlayerObserverClass@@@@@8 ; VectorClass<DAPlayerObserverClass *> `RTTI Type Descriptor'
PUBLIC	??_R3?$VectorClass@PAVDAPlayerObserverClass@@@@8 ; VectorClass<DAPlayerObserverClass *>::`RTTI Class Hierarchy Descriptor'
PUBLIC	??_R2?$VectorClass@PAVDAPlayerObserverClass@@@@8 ; VectorClass<DAPlayerObserverClass *>::`RTTI Base Class Array'
PUBLIC	??_R4?$VectorClass@PAVDAPlayerObserverClass@@@@6B@ ; VectorClass<DAPlayerObserverClass *>::`RTTI Complete Object Locator'
PUBLIC	??_R4?$DynamicVectorClass@PAVDAPlayerDataClass@@@@6B@ ; DynamicVectorClass<DAPlayerDataClass *>::`RTTI Complete Object Locator'
PUBLIC	??_R0?AV?$DynamicVectorClass@PAVDAPlayerDataClass@@@@@8 ; DynamicVectorClass<DAPlayerDataClass *> `RTTI Type Descriptor'
PUBLIC	??_R3?$DynamicVectorClass@PAVDAPlayerDataClass@@@@8 ; DynamicVectorClass<DAPlayerDataClass *>::`RTTI Class Hierarchy Descriptor'
PUBLIC	??_R2?$DynamicVectorClass@PAVDAPlayerDataClass@@@@8 ; DynamicVectorClass<DAPlayerDataClass *>::`RTTI Base Class Array'
PUBLIC	??_R1A@?0A@EA@?$DynamicVectorClass@PAVDAPlayerDataClass@@@@8 ; DynamicVectorClass<DAPlayerDataClass *>::`RTTI Base Class Descriptor at (0,-1,0,64)'
PUBLIC	??_R1A@?0A@EA@?$VectorClass@PAVDAPlayerDataClass@@@@8 ; VectorClass<DAPlayerDataClass *>::`RTTI Base Class Descriptor at (0,-1,0,64)'
PUBLIC	??_R0?AV?$VectorClass@PAVDAPlayerDataClass@@@@@8 ; VectorClass<DAPlayerDataClass *> `RTTI Type Descriptor'
PUBLIC	??_R3?$VectorClass@PAVDAPlayerDataClass@@@@8	; VectorClass<DAPlayerDataClass *>::`RTTI Class Hierarchy Descriptor'
PUBLIC	??_R2?$VectorClass@PAVDAPlayerDataClass@@@@8	; VectorClass<DAPlayerDataClass *>::`RTTI Base Class Array'
PUBLIC	??_R4?$VectorClass@PAVDAPlayerDataClass@@@@6B@	; VectorClass<DAPlayerDataClass *>::`RTTI Complete Object Locator'
PUBLIC	??_R4?$DynamicVectorClass@PAUDAPlayerTagStruct@DAPlayerClass@@@@6B@ ; DynamicVectorClass<DAPlayerClass::DAPlayerTagStruct *>::`RTTI Complete Object Locator'
PUBLIC	??_R0?AV?$DynamicVectorClass@PAUDAPlayerTagStruct@DAPlayerClass@@@@@8 ; DynamicVectorClass<DAPlayerClass::DAPlayerTagStruct *> `RTTI Type Descriptor'
PUBLIC	??_R3?$DynamicVectorClass@PAUDAPlayerTagStruct@DAPlayerClass@@@@8 ; DynamicVectorClass<DAPlayerClass::DAPlayerTagStruct *>::`RTTI Class Hierarchy Descriptor'
PUBLIC	??_R2?$DynamicVectorClass@PAUDAPlayerTagStruct@DAPlayerClass@@@@8 ; DynamicVectorClass<DAPlayerClass::DAPlayerTagStruct *>::`RTTI Base Class Array'
PUBLIC	??_R1A@?0A@EA@?$DynamicVectorClass@PAUDAPlayerTagStruct@DAPlayerClass@@@@8 ; DynamicVectorClass<DAPlayerClass::DAPlayerTagStruct *>::`RTTI Base Class Descriptor at (0,-1,0,64)'
PUBLIC	??_R1A@?0A@EA@?$VectorClass@PAUDAPlayerTagStruct@DAPlayerClass@@@@8 ; VectorClass<DAPlayerClass::DAPlayerTagStruct *>::`RTTI Base Class Descriptor at (0,-1,0,64)'
PUBLIC	??_R0?AV?$VectorClass@PAUDAPlayerTagStruct@DAPlayerClass@@@@@8 ; VectorClass<DAPlayerClass::DAPlayerTagStruct *> `RTTI Type Descriptor'
PUBLIC	??_R3?$VectorClass@PAUDAPlayerTagStruct@DAPlayerClass@@@@8 ; VectorClass<DAPlayerClass::DAPlayerTagStruct *>::`RTTI Class Hierarchy Descriptor'
PUBLIC	??_R2?$VectorClass@PAUDAPlayerTagStruct@DAPlayerClass@@@@8 ; VectorClass<DAPlayerClass::DAPlayerTagStruct *>::`RTTI Base Class Array'
PUBLIC	??_R4?$VectorClass@PAUDAPlayerTagStruct@DAPlayerClass@@@@6B@ ; VectorClass<DAPlayerClass::DAPlayerTagStruct *>::`RTTI Complete Object Locator'
PUBLIC	??_R4DAPlayerManager@@6B@			; DAPlayerManager::`RTTI Complete Object Locator'
PUBLIC	??_R0?AVDAPlayerManager@@@8			; DAPlayerManager `RTTI Type Descriptor'
PUBLIC	??_R3DAPlayerManager@@8				; DAPlayerManager::`RTTI Class Hierarchy Descriptor'
PUBLIC	??_R2DAPlayerManager@@8				; DAPlayerManager::`RTTI Base Class Array'
PUBLIC	??_R1A@?0A@EA@DAPlayerManager@@8		; DAPlayerManager::`RTTI Base Class Descriptor at (0,-1,0,64)'
PUBLIC	??_R4?$DynamicVectorClass@PAUDAPlayerObserverTimerStruct@@@@6B@ ; DynamicVectorClass<DAPlayerObserverTimerStruct *>::`RTTI Complete Object Locator'
PUBLIC	??_R0?AV?$DynamicVectorClass@PAUDAPlayerObserverTimerStruct@@@@@8 ; DynamicVectorClass<DAPlayerObserverTimerStruct *> `RTTI Type Descriptor'
PUBLIC	??_R3?$DynamicVectorClass@PAUDAPlayerObserverTimerStruct@@@@8 ; DynamicVectorClass<DAPlayerObserverTimerStruct *>::`RTTI Class Hierarchy Descriptor'
PUBLIC	??_R2?$DynamicVectorClass@PAUDAPlayerObserverTimerStruct@@@@8 ; DynamicVectorClass<DAPlayerObserverTimerStruct *>::`RTTI Base Class Array'
PUBLIC	??_R1A@?0A@EA@?$DynamicVectorClass@PAUDAPlayerObserverTimerStruct@@@@8 ; DynamicVectorClass<DAPlayerObserverTimerStruct *>::`RTTI Base Class Descriptor at (0,-1,0,64)'
PUBLIC	??_R1A@?0A@EA@?$VectorClass@PAUDAPlayerObserverTimerStruct@@@@8 ; VectorClass<DAPlayerObserverTimerStruct *>::`RTTI Base Class Descriptor at (0,-1,0,64)'
PUBLIC	??_R0?AV?$VectorClass@PAUDAPlayerObserverTimerStruct@@@@@8 ; VectorClass<DAPlayerObserverTimerStruct *> `RTTI Type Descriptor'
PUBLIC	??_R3?$VectorClass@PAUDAPlayerObserverTimerStruct@@@@8 ; VectorClass<DAPlayerObserverTimerStruct *>::`RTTI Class Hierarchy Descriptor'
PUBLIC	??_R2?$VectorClass@PAUDAPlayerObserverTimerStruct@@@@8 ; VectorClass<DAPlayerObserverTimerStruct *>::`RTTI Base Class Array'
PUBLIC	??_R4?$DynamicVectorClass@PAUDAPlayerObserverChatCommandStruct@@@@6B@ ; DynamicVectorClass<DAPlayerObserverChatCommandStruct *>::`RTTI Complete Object Locator'
PUBLIC	??_R0?AV?$DynamicVectorClass@PAUDAPlayerObserverChatCommandStruct@@@@@8 ; DynamicVectorClass<DAPlayerObserverChatCommandStruct *> `RTTI Type Descriptor'
PUBLIC	??_R3?$DynamicVectorClass@PAUDAPlayerObserverChatCommandStruct@@@@8 ; DynamicVectorClass<DAPlayerObserverChatCommandStruct *>::`RTTI Class Hierarchy Descriptor'
PUBLIC	??_R2?$DynamicVectorClass@PAUDAPlayerObserverChatCommandStruct@@@@8 ; DynamicVectorClass<DAPlayerObserverChatCommandStruct *>::`RTTI Base Class Array'
PUBLIC	??_R1A@?0A@EA@?$DynamicVectorClass@PAUDAPlayerObserverChatCommandStruct@@@@8 ; DynamicVectorClass<DAPlayerObserverChatCommandStruct *>::`RTTI Base Class Descriptor at (0,-1,0,64)'
PUBLIC	??_R1A@?0A@EA@?$VectorClass@PAUDAPlayerObserverChatCommandStruct@@@@8 ; VectorClass<DAPlayerObserverChatCommandStruct *>::`RTTI Base Class Descriptor at (0,-1,0,64)'
PUBLIC	??_R0?AV?$VectorClass@PAUDAPlayerObserverChatCommandStruct@@@@@8 ; VectorClass<DAPlayerObserverChatCommandStruct *> `RTTI Type Descriptor'
PUBLIC	??_R3?$VectorClass@PAUDAPlayerObserverChatCommandStruct@@@@8 ; VectorClass<DAPlayerObserverChatCommandStruct *>::`RTTI Class Hierarchy Descriptor'
PUBLIC	??_R2?$VectorClass@PAUDAPlayerObserverChatCommandStruct@@@@8 ; VectorClass<DAPlayerObserverChatCommandStruct *>::`RTTI Base Class Array'
PUBLIC	??_R4?$DynamicVectorClass@PAUDAPlayerObserverKeyHookStruct@@@@6B@ ; DynamicVectorClass<DAPlayerObserverKeyHookStruct *>::`RTTI Complete Object Locator'
PUBLIC	??_R0?AV?$DynamicVectorClass@PAUDAPlayerObserverKeyHookStruct@@@@@8 ; DynamicVectorClass<DAPlayerObserverKeyHookStruct *> `RTTI Type Descriptor'
PUBLIC	??_R3?$DynamicVectorClass@PAUDAPlayerObserverKeyHookStruct@@@@8 ; DynamicVectorClass<DAPlayerObserverKeyHookStruct *>::`RTTI Class Hierarchy Descriptor'
PUBLIC	??_R2?$DynamicVectorClass@PAUDAPlayerObserverKeyHookStruct@@@@8 ; DynamicVectorClass<DAPlayerObserverKeyHookStruct *>::`RTTI Base Class Array'
PUBLIC	??_R1A@?0A@EA@?$DynamicVectorClass@PAUDAPlayerObserverKeyHookStruct@@@@8 ; DynamicVectorClass<DAPlayerObserverKeyHookStruct *>::`RTTI Base Class Descriptor at (0,-1,0,64)'
PUBLIC	??_R1A@?0A@EA@?$VectorClass@PAUDAPlayerObserverKeyHookStruct@@@@8 ; VectorClass<DAPlayerObserverKeyHookStruct *>::`RTTI Base Class Descriptor at (0,-1,0,64)'
PUBLIC	??_R0?AV?$VectorClass@PAUDAPlayerObserverKeyHookStruct@@@@@8 ; VectorClass<DAPlayerObserverKeyHookStruct *> `RTTI Type Descriptor'
PUBLIC	??_R3?$VectorClass@PAUDAPlayerObserverKeyHookStruct@@@@8 ; VectorClass<DAPlayerObserverKeyHookStruct *>::`RTTI Class Hierarchy Descriptor'
PUBLIC	??_R2?$VectorClass@PAUDAPlayerObserverKeyHookStruct@@@@8 ; VectorClass<DAPlayerObserverKeyHookStruct *>::`RTTI Base Class Array'
PUBLIC	??_R4?$VectorClass@PAUDAPlayerObserverTimerStruct@@@@6B@ ; VectorClass<DAPlayerObserverTimerStruct *>::`RTTI Complete Object Locator'
PUBLIC	??_R4?$VectorClass@PAUDAPlayerObserverChatCommandStruct@@@@6B@ ; VectorClass<DAPlayerObserverChatCommandStruct *>::`RTTI Complete Object Locator'
PUBLIC	??_R4?$VectorClass@PAUDAPlayerObserverKeyHookStruct@@@@6B@ ; VectorClass<DAPlayerObserverKeyHookStruct *>::`RTTI Complete Object Locator'
PUBLIC	??_R4?$DynamicVectorClass@PAVDAPlayerDataFactoryClass@@@@6B@ ; DynamicVectorClass<DAPlayerDataFactoryClass *>::`RTTI Complete Object Locator'
PUBLIC	??_R0?AV?$DynamicVectorClass@PAVDAPlayerDataFactoryClass@@@@@8 ; DynamicVectorClass<DAPlayerDataFactoryClass *> `RTTI Type Descriptor'
PUBLIC	??_R3?$DynamicVectorClass@PAVDAPlayerDataFactoryClass@@@@8 ; DynamicVectorClass<DAPlayerDataFactoryClass *>::`RTTI Class Hierarchy Descriptor'
PUBLIC	??_R2?$DynamicVectorClass@PAVDAPlayerDataFactoryClass@@@@8 ; DynamicVectorClass<DAPlayerDataFactoryClass *>::`RTTI Base Class Array'
PUBLIC	??_R1A@?0A@EA@?$DynamicVectorClass@PAVDAPlayerDataFactoryClass@@@@8 ; DynamicVectorClass<DAPlayerDataFactoryClass *>::`RTTI Base Class Descriptor at (0,-1,0,64)'
PUBLIC	??_R1A@?0A@EA@?$VectorClass@PAVDAPlayerDataFactoryClass@@@@8 ; VectorClass<DAPlayerDataFactoryClass *>::`RTTI Base Class Descriptor at (0,-1,0,64)'
PUBLIC	??_R0?AV?$VectorClass@PAVDAPlayerDataFactoryClass@@@@@8 ; VectorClass<DAPlayerDataFactoryClass *> `RTTI Type Descriptor'
PUBLIC	??_R3?$VectorClass@PAVDAPlayerDataFactoryClass@@@@8 ; VectorClass<DAPlayerDataFactoryClass *>::`RTTI Class Hierarchy Descriptor'
PUBLIC	??_R2?$VectorClass@PAVDAPlayerDataFactoryClass@@@@8 ; VectorClass<DAPlayerDataFactoryClass *>::`RTTI Base Class Array'
PUBLIC	??_R4?$VectorClass@PAVDAPlayerDataFactoryClass@@@@6B@ ; VectorClass<DAPlayerDataFactoryClass *>::`RTTI Complete Object Locator'
PUBLIC	??_R4?$DynamicVectorClass@PAVDAPlayerClass@@@@6B@ ; DynamicVectorClass<DAPlayerClass *>::`RTTI Complete Object Locator'
PUBLIC	??_R0?AV?$DynamicVectorClass@PAVDAPlayerClass@@@@@8 ; DynamicVectorClass<DAPlayerClass *> `RTTI Type Descriptor'
PUBLIC	??_R3?$DynamicVectorClass@PAVDAPlayerClass@@@@8	; DynamicVectorClass<DAPlayerClass *>::`RTTI Class Hierarchy Descriptor'
PUBLIC	??_R2?$DynamicVectorClass@PAVDAPlayerClass@@@@8	; DynamicVectorClass<DAPlayerClass *>::`RTTI Base Class Array'
PUBLIC	??_R1A@?0A@EA@?$DynamicVectorClass@PAVDAPlayerClass@@@@8 ; DynamicVectorClass<DAPlayerClass *>::`RTTI Base Class Descriptor at (0,-1,0,64)'
PUBLIC	??_R1A@?0A@EA@?$VectorClass@PAVDAPlayerClass@@@@8 ; VectorClass<DAPlayerClass *>::`RTTI Base Class Descriptor at (0,-1,0,64)'
PUBLIC	??_R0?AV?$VectorClass@PAVDAPlayerClass@@@@@8	; VectorClass<DAPlayerClass *> `RTTI Type Descriptor'
PUBLIC	??_R3?$VectorClass@PAVDAPlayerClass@@@@8	; VectorClass<DAPlayerClass *>::`RTTI Class Hierarchy Descriptor'
PUBLIC	??_R2?$VectorClass@PAVDAPlayerClass@@@@8	; VectorClass<DAPlayerClass *>::`RTTI Base Class Array'
PUBLIC	??_R4?$VectorClass@PAVDAPlayerClass@@@@6B@	; VectorClass<DAPlayerClass *>::`RTTI Complete Object Locator'
PUBLIC	??_R4DAChatCommandClass@@6B@			; DAChatCommandClass::`RTTI Complete Object Locator'
PUBLIC	??_R0?AVDAChatCommandClass@@@8			; DAChatCommandClass `RTTI Type Descriptor'
PUBLIC	??_R3DAChatCommandClass@@8			; DAChatCommandClass::`RTTI Class Hierarchy Descriptor'
PUBLIC	??_R2DAChatCommandClass@@8			; DAChatCommandClass::`RTTI Base Class Array'
PUBLIC	??_R1A@?0A@EA@DAChatCommandClass@@8		; DAChatCommandClass::`RTTI Base Class Descriptor at (0,-1,0,64)'
PUBLIC	??_R4DAKeyHookClass@@6B@			; DAKeyHookClass::`RTTI Complete Object Locator'
PUBLIC	??_R0?AVDAKeyHookClass@@@8			; DAKeyHookClass `RTTI Type Descriptor'
PUBLIC	??_R3DAKeyHookClass@@8				; DAKeyHookClass::`RTTI Class Hierarchy Descriptor'
PUBLIC	??_R2DAKeyHookClass@@8				; DAKeyHookClass::`RTTI Base Class Array'
PUBLIC	??_R1A@?0A@EA@DAKeyHookClass@@8			; DAKeyHookClass::`RTTI Base Class Descriptor at (0,-1,0,64)'
PUBLIC	??_R4DAGameObjObserverClass@@6B@		; DAGameObjObserverClass::`RTTI Complete Object Locator'
PUBLIC	??_R0?AVDAGameObjObserverClass@@@8		; DAGameObjObserverClass `RTTI Type Descriptor'
PUBLIC	??_R3DAGameObjObserverClass@@8			; DAGameObjObserverClass::`RTTI Class Hierarchy Descriptor'
PUBLIC	??_R2DAGameObjObserverClass@@8			; DAGameObjObserverClass::`RTTI Base Class Array'
PUBLIC	??_R1A@?0A@EA@DAGameObjObserverClass@@8		; DAGameObjObserverClass::`RTTI Base Class Descriptor at (0,-1,0,64)'
PUBLIC	??_R4DALegacyTagConsoleFunctionClass@@6B@	; DALegacyTagConsoleFunctionClass::`RTTI Complete Object Locator'
PUBLIC	??_R0?AVDALegacyTagConsoleFunctionClass@@@8	; DALegacyTagConsoleFunctionClass `RTTI Type Descriptor'
PUBLIC	??_R3DALegacyTagConsoleFunctionClass@@8		; DALegacyTagConsoleFunctionClass::`RTTI Class Hierarchy Descriptor'
PUBLIC	??_R2DALegacyTagConsoleFunctionClass@@8		; DALegacyTagConsoleFunctionClass::`RTTI Base Class Array'
PUBLIC	??_R1A@?0A@EA@DALegacyTagConsoleFunctionClass@@8 ; DALegacyTagConsoleFunctionClass::`RTTI Base Class Descriptor at (0,-1,0,64)'
PUBLIC	??_R4DAAddTagConsoleFunctionClass@@6B@		; DAAddTagConsoleFunctionClass::`RTTI Complete Object Locator'
PUBLIC	??_R0?AVDAAddTagConsoleFunctionClass@@@8	; DAAddTagConsoleFunctionClass `RTTI Type Descriptor'
PUBLIC	??_R3DAAddTagConsoleFunctionClass@@8		; DAAddTagConsoleFunctionClass::`RTTI Class Hierarchy Descriptor'
PUBLIC	??_R2DAAddTagConsoleFunctionClass@@8		; DAAddTagConsoleFunctionClass::`RTTI Base Class Array'
PUBLIC	??_R1A@?0A@EA@DAAddTagConsoleFunctionClass@@8	; DAAddTagConsoleFunctionClass::`RTTI Base Class Descriptor at (0,-1,0,64)'
PUBLIC	??_R4DARemoveTagConsoleFunctionClass@@6B@	; DARemoveTagConsoleFunctionClass::`RTTI Complete Object Locator'
PUBLIC	??_R0?AVDARemoveTagConsoleFunctionClass@@@8	; DARemoveTagConsoleFunctionClass `RTTI Type Descriptor'
PUBLIC	??_R3DARemoveTagConsoleFunctionClass@@8		; DARemoveTagConsoleFunctionClass::`RTTI Class Hierarchy Descriptor'
PUBLIC	??_R2DARemoveTagConsoleFunctionClass@@8		; DARemoveTagConsoleFunctionClass::`RTTI Base Class Array'
PUBLIC	??_R1A@?0A@EA@DARemoveTagConsoleFunctionClass@@8 ; DARemoveTagConsoleFunctionClass::`RTTI Base Class Descriptor at (0,-1,0,64)'
PUBLIC	??_R4DASetAccessLevelConsoleFunctionClass@@6B@	; DASetAccessLevelConsoleFunctionClass::`RTTI Complete Object Locator'
PUBLIC	??_R0?AVDASetAccessLevelConsoleFunctionClass@@@8 ; DASetAccessLevelConsoleFunctionClass `RTTI Type Descriptor'
PUBLIC	??_R3DASetAccessLevelConsoleFunctionClass@@8	; DASetAccessLevelConsoleFunctionClass::`RTTI Class Hierarchy Descriptor'
PUBLIC	??_R2DASetAccessLevelConsoleFunctionClass@@8	; DASetAccessLevelConsoleFunctionClass::`RTTI Base Class Array'
PUBLIC	??_R1A@?0A@EA@DASetAccessLevelConsoleFunctionClass@@8 ; DASetAccessLevelConsoleFunctionClass::`RTTI Base Class Descriptor at (0,-1,0,64)'
PUBLIC	??_R4DAMuteConsoleFunctionClass@@6B@		; DAMuteConsoleFunctionClass::`RTTI Complete Object Locator'
PUBLIC	??_R0?AVDAMuteConsoleFunctionClass@@@8		; DAMuteConsoleFunctionClass `RTTI Type Descriptor'
PUBLIC	??_R3DAMuteConsoleFunctionClass@@8		; DAMuteConsoleFunctionClass::`RTTI Class Hierarchy Descriptor'
PUBLIC	??_R2DAMuteConsoleFunctionClass@@8		; DAMuteConsoleFunctionClass::`RTTI Base Class Array'
PUBLIC	??_R1A@?0A@EA@DAMuteConsoleFunctionClass@@8	; DAMuteConsoleFunctionClass::`RTTI Base Class Descriptor at (0,-1,0,64)'
PUBLIC	??_R4DAUnMuteConsoleFunctionClass@@6B@		; DAUnMuteConsoleFunctionClass::`RTTI Complete Object Locator'
PUBLIC	??_R0?AVDAUnMuteConsoleFunctionClass@@@8	; DAUnMuteConsoleFunctionClass `RTTI Type Descriptor'
PUBLIC	??_R3DAUnMuteConsoleFunctionClass@@8		; DAUnMuteConsoleFunctionClass::`RTTI Class Hierarchy Descriptor'
PUBLIC	??_R2DAUnMuteConsoleFunctionClass@@8		; DAUnMuteConsoleFunctionClass::`RTTI Base Class Array'
PUBLIC	??_R1A@?0A@EA@DAUnMuteConsoleFunctionClass@@8	; DAUnMuteConsoleFunctionClass::`RTTI Base Class Descriptor at (0,-1,0,64)'
PUBLIC	??_R4DAMuteToggleConsoleFunctionClass@@6B@	; DAMuteToggleConsoleFunctionClass::`RTTI Complete Object Locator'
PUBLIC	??_R0?AVDAMuteToggleConsoleFunctionClass@@@8	; DAMuteToggleConsoleFunctionClass `RTTI Type Descriptor'
PUBLIC	??_R3DAMuteToggleConsoleFunctionClass@@8	; DAMuteToggleConsoleFunctionClass::`RTTI Class Hierarchy Descriptor'
PUBLIC	??_R2DAMuteToggleConsoleFunctionClass@@8	; DAMuteToggleConsoleFunctionClass::`RTTI Base Class Array'
PUBLIC	??_R1A@?0A@EA@DAMuteToggleConsoleFunctionClass@@8 ; DAMuteToggleConsoleFunctionClass::`RTTI Base Class Descriptor at (0,-1,0,64)'
PUBLIC	??_R4DABeaconLockConsoleFunctionClass@@6B@	; DABeaconLockConsoleFunctionClass::`RTTI Complete Object Locator'
PUBLIC	??_R0?AVDABeaconLockConsoleFunctionClass@@@8	; DABeaconLockConsoleFunctionClass `RTTI Type Descriptor'
PUBLIC	??_R3DABeaconLockConsoleFunctionClass@@8	; DABeaconLockConsoleFunctionClass::`RTTI Class Hierarchy Descriptor'
PUBLIC	??_R2DABeaconLockConsoleFunctionClass@@8	; DABeaconLockConsoleFunctionClass::`RTTI Base Class Array'
PUBLIC	??_R1A@?0A@EA@DABeaconLockConsoleFunctionClass@@8 ; DABeaconLockConsoleFunctionClass::`RTTI Base Class Descriptor at (0,-1,0,64)'
PUBLIC	??_R4DAUnBeaconLockConsoleFunctionClass@@6B@	; DAUnBeaconLockConsoleFunctionClass::`RTTI Complete Object Locator'
PUBLIC	??_R0?AVDAUnBeaconLockConsoleFunctionClass@@@8	; DAUnBeaconLockConsoleFunctionClass `RTTI Type Descriptor'
PUBLIC	??_R3DAUnBeaconLockConsoleFunctionClass@@8	; DAUnBeaconLockConsoleFunctionClass::`RTTI Class Hierarchy Descriptor'
PUBLIC	??_R2DAUnBeaconLockConsoleFunctionClass@@8	; DAUnBeaconLockConsoleFunctionClass::`RTTI Base Class Array'
PUBLIC	??_R1A@?0A@EA@DAUnBeaconLockConsoleFunctionClass@@8 ; DAUnBeaconLockConsoleFunctionClass::`RTTI Base Class Descriptor at (0,-1,0,64)'
PUBLIC	??_R4DABeaconLockToggleConsoleFunctionClass@@6B@ ; DABeaconLockToggleConsoleFunctionClass::`RTTI Complete Object Locator'
PUBLIC	??_R0?AVDABeaconLockToggleConsoleFunctionClass@@@8 ; DABeaconLockToggleConsoleFunctionClass `RTTI Type Descriptor'
PUBLIC	??_R3DABeaconLockToggleConsoleFunctionClass@@8	; DABeaconLockToggleConsoleFunctionClass::`RTTI Class Hierarchy Descriptor'
PUBLIC	??_R2DABeaconLockToggleConsoleFunctionClass@@8	; DABeaconLockToggleConsoleFunctionClass::`RTTI Base Class Array'
PUBLIC	??_R1A@?0A@EA@DABeaconLockToggleConsoleFunctionClass@@8 ; DABeaconLockToggleConsoleFunctionClass::`RTTI Base Class Descriptor at (0,-1,0,64)'
PUBLIC	??_R4DAC4LockConsoleFunctionClass@@6B@		; DAC4LockConsoleFunctionClass::`RTTI Complete Object Locator'
PUBLIC	??_R0?AVDAC4LockConsoleFunctionClass@@@8	; DAC4LockConsoleFunctionClass `RTTI Type Descriptor'
PUBLIC	??_R3DAC4LockConsoleFunctionClass@@8		; DAC4LockConsoleFunctionClass::`RTTI Class Hierarchy Descriptor'
PUBLIC	??_R2DAC4LockConsoleFunctionClass@@8		; DAC4LockConsoleFunctionClass::`RTTI Base Class Array'
PUBLIC	??_R1A@?0A@EA@DAC4LockConsoleFunctionClass@@8	; DAC4LockConsoleFunctionClass::`RTTI Base Class Descriptor at (0,-1,0,64)'
PUBLIC	??_R4DAUnC4LockConsoleFunctionClass@@6B@	; DAUnC4LockConsoleFunctionClass::`RTTI Complete Object Locator'
PUBLIC	??_R0?AVDAUnC4LockConsoleFunctionClass@@@8	; DAUnC4LockConsoleFunctionClass `RTTI Type Descriptor'
PUBLIC	??_R3DAUnC4LockConsoleFunctionClass@@8		; DAUnC4LockConsoleFunctionClass::`RTTI Class Hierarchy Descriptor'
PUBLIC	??_R2DAUnC4LockConsoleFunctionClass@@8		; DAUnC4LockConsoleFunctionClass::`RTTI Base Class Array'
PUBLIC	??_R1A@?0A@EA@DAUnC4LockConsoleFunctionClass@@8	; DAUnC4LockConsoleFunctionClass::`RTTI Base Class Descriptor at (0,-1,0,64)'
PUBLIC	??_R4DAC4LockToggleConsoleFunctionClass@@6B@	; DAC4LockToggleConsoleFunctionClass::`RTTI Complete Object Locator'
PUBLIC	??_R0?AVDAC4LockToggleConsoleFunctionClass@@@8	; DAC4LockToggleConsoleFunctionClass `RTTI Type Descriptor'
PUBLIC	??_R3DAC4LockToggleConsoleFunctionClass@@8	; DAC4LockToggleConsoleFunctionClass::`RTTI Class Hierarchy Descriptor'
PUBLIC	??_R2DAC4LockToggleConsoleFunctionClass@@8	; DAC4LockToggleConsoleFunctionClass::`RTTI Base Class Array'
PUBLIC	??_R1A@?0A@EA@DAC4LockToggleConsoleFunctionClass@@8 ; DAC4LockToggleConsoleFunctionClass::`RTTI Base Class Descriptor at (0,-1,0,64)'
PUBLIC	??_R4SDEConsoleFunctionClass@@6B@		; SDEConsoleFunctionClass::`RTTI Complete Object Locator'
PUBLIC	??_R0?AVSDEConsoleFunctionClass@@@8		; SDEConsoleFunctionClass `RTTI Type Descriptor'
PUBLIC	??_R3SDEConsoleFunctionClass@@8			; SDEConsoleFunctionClass::`RTTI Class Hierarchy Descriptor'
PUBLIC	??_R2SDEConsoleFunctionClass@@8			; SDEConsoleFunctionClass::`RTTI Base Class Array'
PUBLIC	??_R1A@?0A@EA@SDEConsoleFunctionClass@@8	; SDEConsoleFunctionClass::`RTTI Base Class Descriptor at (0,-1,0,64)'
PUBLIC	??_R4UnSDEConsoleFunctionClass@@6B@		; UnSDEConsoleFunctionClass::`RTTI Complete Object Locator'
PUBLIC	??_R0?AVUnSDEConsoleFunctionClass@@@8		; UnSDEConsoleFunctionClass `RTTI Type Descriptor'
PUBLIC	??_R3UnSDEConsoleFunctionClass@@8		; UnSDEConsoleFunctionClass::`RTTI Class Hierarchy Descriptor'
PUBLIC	??_R2UnSDEConsoleFunctionClass@@8		; UnSDEConsoleFunctionClass::`RTTI Base Class Array'
PUBLIC	??_R1A@?0A@EA@UnSDEConsoleFunctionClass@@8	; UnSDEConsoleFunctionClass::`RTTI Base Class Descriptor at (0,-1,0,64)'
PUBLIC	??_R4SDEToggleConsoleFunctionClass@@6B@		; SDEToggleConsoleFunctionClass::`RTTI Complete Object Locator'
PUBLIC	??_R0?AVSDEToggleConsoleFunctionClass@@@8	; SDEToggleConsoleFunctionClass `RTTI Type Descriptor'
PUBLIC	??_R3SDEToggleConsoleFunctionClass@@8		; SDEToggleConsoleFunctionClass::`RTTI Class Hierarchy Descriptor'
PUBLIC	??_R2SDEToggleConsoleFunctionClass@@8		; SDEToggleConsoleFunctionClass::`RTTI Base Class Array'
PUBLIC	??_R1A@?0A@EA@SDEToggleConsoleFunctionClass@@8	; SDEToggleConsoleFunctionClass::`RTTI Base Class Descriptor at (0,-1,0,64)'
PUBLIC	??_R4MapCHConsoleFunctionClass@@6B@		; MapCHConsoleFunctionClass::`RTTI Complete Object Locator'
PUBLIC	??_R0?AVMapCHConsoleFunctionClass@@@8		; MapCHConsoleFunctionClass `RTTI Type Descriptor'
PUBLIC	??_R3MapCHConsoleFunctionClass@@8		; MapCHConsoleFunctionClass::`RTTI Class Hierarchy Descriptor'
PUBLIC	??_R2MapCHConsoleFunctionClass@@8		; MapCHConsoleFunctionClass::`RTTI Base Class Array'
PUBLIC	??_R1A@?0A@EA@MapCHConsoleFunctionClass@@8	; MapCHConsoleFunctionClass::`RTTI Base Class Descriptor at (0,-1,0,64)'
PUBLIC	??_R4DAVoteYesKeyHookClass@@6B@			; DAVoteYesKeyHookClass::`RTTI Complete Object Locator'
PUBLIC	??_R0?AVDAVoteYesKeyHookClass@@@8		; DAVoteYesKeyHookClass `RTTI Type Descriptor'
PUBLIC	??_R3DAVoteYesKeyHookClass@@8			; DAVoteYesKeyHookClass::`RTTI Class Hierarchy Descriptor'
PUBLIC	??_R2DAVoteYesKeyHookClass@@8			; DAVoteYesKeyHookClass::`RTTI Base Class Array'
PUBLIC	??_R1A@?0A@EA@DAVoteYesKeyHookClass@@8		; DAVoteYesKeyHookClass::`RTTI Base Class Descriptor at (0,-1,0,64)'
PUBLIC	??_R4DAVoteNoKeyHookClass@@6B@			; DAVoteNoKeyHookClass::`RTTI Complete Object Locator'
PUBLIC	??_R0?AVDAVoteNoKeyHookClass@@@8		; DAVoteNoKeyHookClass `RTTI Type Descriptor'
PUBLIC	??_R3DAVoteNoKeyHookClass@@8			; DAVoteNoKeyHookClass::`RTTI Class Hierarchy Descriptor'
PUBLIC	??_R2DAVoteNoKeyHookClass@@8			; DAVoteNoKeyHookClass::`RTTI Base Class Array'
PUBLIC	??_R1A@?0A@EA@DAVoteNoKeyHookClass@@8		; DAVoteNoKeyHookClass::`RTTI Base Class Descriptor at (0,-1,0,64)'
PUBLIC	??_R4DAUnstuckObserverClass@@6B@		; DAUnstuckObserverClass::`RTTI Complete Object Locator'
PUBLIC	??_R0?AVDAUnstuckObserverClass@@@8		; DAUnstuckObserverClass `RTTI Type Descriptor'
PUBLIC	??_R3DAUnstuckObserverClass@@8			; DAUnstuckObserverClass::`RTTI Class Hierarchy Descriptor'
PUBLIC	??_R2DAUnstuckObserverClass@@8			; DAUnstuckObserverClass::`RTTI Base Class Array'
PUBLIC	??_R1A@?0A@EA@DAUnstuckObserverClass@@8		; DAUnstuckObserverClass::`RTTI Base Class Descriptor at (0,-1,0,64)'
PUBLIC	??_R4DAUnStuckChatCommandClass@@6B@		; DAUnStuckChatCommandClass::`RTTI Complete Object Locator'
PUBLIC	??_R0?AVDAUnStuckChatCommandClass@@@8		; DAUnStuckChatCommandClass `RTTI Type Descriptor'
PUBLIC	??_R3DAUnStuckChatCommandClass@@8		; DAUnStuckChatCommandClass::`RTTI Class Hierarchy Descriptor'
PUBLIC	??_R2DAUnStuckChatCommandClass@@8		; DAUnStuckChatCommandClass::`RTTI Base Class Array'
PUBLIC	??_R1A@?0A@EA@DAUnStuckChatCommandClass@@8	; DAUnStuckChatCommandClass::`RTTI Base Class Descriptor at (0,-1,0,64)'
PUBLIC	??_R4DAKillMeObserverClass@@6B@			; DAKillMeObserverClass::`RTTI Complete Object Locator'
PUBLIC	??_R0?AVDAKillMeObserverClass@@@8		; DAKillMeObserverClass `RTTI Type Descriptor'
PUBLIC	??_R3DAKillMeObserverClass@@8			; DAKillMeObserverClass::`RTTI Class Hierarchy Descriptor'
PUBLIC	??_R2DAKillMeObserverClass@@8			; DAKillMeObserverClass::`RTTI Base Class Array'
PUBLIC	??_R1A@?0A@EA@DAKillMeObserverClass@@8		; DAKillMeObserverClass::`RTTI Base Class Descriptor at (0,-1,0,64)'
PUBLIC	??_R4DAKillMeChatCommandClass@@6B@		; DAKillMeChatCommandClass::`RTTI Complete Object Locator'
PUBLIC	??_R0?AVDAKillMeChatCommandClass@@@8		; DAKillMeChatCommandClass `RTTI Type Descriptor'
PUBLIC	??_R3DAKillMeChatCommandClass@@8		; DAKillMeChatCommandClass::`RTTI Class Hierarchy Descriptor'
PUBLIC	??_R2DAKillMeChatCommandClass@@8		; DAKillMeChatCommandClass::`RTTI Base Class Array'
PUBLIC	??_R1A@?0A@EA@DAKillMeChatCommandClass@@8	; DAKillMeChatCommandClass::`RTTI Base Class Descriptor at (0,-1,0,64)'
PUBLIC	??_R4DADropChatCommandClass@@6B@		; DADropChatCommandClass::`RTTI Complete Object Locator'
PUBLIC	??_R0?AVDADropChatCommandClass@@@8		; DADropChatCommandClass `RTTI Type Descriptor'
PUBLIC	??_R3DADropChatCommandClass@@8			; DADropChatCommandClass::`RTTI Class Hierarchy Descriptor'
PUBLIC	??_R2DADropChatCommandClass@@8			; DADropChatCommandClass::`RTTI Base Class Array'
PUBLIC	??_R1A@?0A@EA@DADropChatCommandClass@@8		; DADropChatCommandClass::`RTTI Base Class Descriptor at (0,-1,0,64)'
PUBLIC	__real@00000000
PUBLIC	__real@0000000000000000
PUBLIC	__real@02081cea
PUBLIC	__real@3f000000
PUBLIC	__real@3f79999a
PUBLIC	__real@3f800000
PUBLIC	__real@3fc90fdb
PUBLIC	__real@3fe0000000000000
PUBLIC	__real@3ff0000000000000
PUBLIC	__real@40000000
PUBLIC	__real@4000000000000000
PUBLIC	__real@40266666
PUBLIC	__real@40800000
PUBLIC	__real@40c90fdb
PUBLIC	__real@41200000
PUBLIC	__real@437f0000
PUBLIC	__real@44000000
PUBLIC	__real@447a0000
PUBLIC	__real@44800000
PUBLIC	__real@bf800000
PUBLIC	__real@c0000000
PUBLIC	__xmm@80000000000000008000000000000000
PUBLIC	__xmm@80000000800000008000000080000000
EXTRN	__purecall:PROC
EXTRN	??2@YAPAXI@Z:PROC				; operator new
EXTRN	??3@YAXPAX@Z:PROC				; operator delete
EXTRN	_atexit:PROC
EXTRN	__imp___wassert:PROC
EXTRN	__imp__atof:PROC
EXTRN	__imp__ceil:PROC
EXTRN	__imp__atoi:PROC
EXTRN	__imp___vswprintf_c_l:PROC
EXTRN	__imp__memmove:PROC
EXTRN	??_V@YAXPAX@Z:PROC				; operator delete[]
EXTRN	??_U@YAPAXI@Z:PROC				; operator new[]
EXTRN	__imp__sprintf:PROC
EXTRN	__imp___stricmp:PROC
EXTRN	__imp___strlwr:PROC
EXTRN	__imp__GetCurrentThreadId@0:PROC
EXTRN	__imp__GetTickCount@0:PROC
EXTRN	__imp__OutputDebugStringA@4:PROC
EXTRN	?SetThreadTrackingInformation@@YAXPBDI0@Z:PROC	; SetThreadTrackingInformation
EXTRN	?Random_Float@WWMath@@SAMXZ:PROC		; WWMath::Random_Float
EXTRN	??0ScriptImpClass@@QAE@XZ:PROC			; ScriptImpClass::ScriptImpClass
EXTRN	??1ScriptImpClass@@UAE@XZ:PROC			; ScriptImpClass::~ScriptImpClass
EXTRN	?Get_Name@ScriptImpClass@@UAEPBDXZ:PROC		; ScriptImpClass::Get_Name
EXTRN	?Set_Parameters_String@ScriptImpClass@@UAEXPBD@Z:PROC ; ScriptImpClass::Set_Parameters_String
EXTRN	?Get_Parameters_String@ScriptImpClass@@UAEXPADI@Z:PROC ; ScriptImpClass::Get_Parameters_String
EXTRN	?Get_Parameter@ScriptImpClass@@QAEPBDH@Z:PROC	; ScriptImpClass::Get_Parameter
EXTRN	?Get_Int_Parameter@ScriptImpClass@@QAEHPBD@Z:PROC ; ScriptImpClass::Get_Int_Parameter
EXTRN	?Attach@ScriptImpClass@@MAEXPAVScriptableGameObj@@@Z:PROC ; ScriptImpClass::Attach
EXTRN	?Detach@ScriptImpClass@@MAEXPAVScriptableGameObj@@@Z:PROC ; ScriptImpClass::Detach
EXTRN	?Save@ScriptImpClass@@MAEXAAVScriptSaver@@@Z:PROC ; ScriptImpClass::Save
EXTRN	?Load@ScriptImpClass@@MAEXAAVScriptLoader@@@Z:PROC ; ScriptImpClass::Load
EXTRN	??1ScriptFactory@@UAE@XZ:PROC			; ScriptFactory::~ScriptFactory
EXTRN	?Console_Output@@YAXPBDZZ:PROC			; Console_Output
EXTRN	??1ThreadClass@@UAE@XZ:PROC			; ThreadClass::~ThreadClass
EXTRN	__imp_?Get_String@StringClass@@AAEXH_N@Z:PROC
EXTRN	__imp_?Resize@StringClass@@AAEXH@Z:PROC
EXTRN	__imp_?Uninitialised_Grow@StringClass@@AAEXH@Z:PROC
EXTRN	__imp_?Free_String@StringClass@@AAEXXZ:PROC
EXTRN	__imp_?Convert_From@WideStringClass@@QAE_NPBD@Z:PROC
EXTRN	__imp_?RemoveSubstring@WideStringClass@@QAEXHH@Z:PROC
EXTRN	__imp_?Get_String@WideStringClass@@AAEXH_N@Z:PROC
EXTRN	__imp_?Uninitialised_Grow@WideStringClass@@AAEXH@Z:PROC
EXTRN	__imp_?Free_String@WideStringClass@@AAEXXZ:PROC
EXTRN	?Find_Entry@INIClass@@QBEPAUINIEntry@@PBD0@Z:PROC ; INIClass::Find_Entry
EXTRN	?Find_Section@INIClass@@QBEPAUINISection@@PBD@Z:PROC ; INIClass::Find_Section
EXTRN	??1INIClass@@UAE@XZ:PROC			; INIClass::~INIClass
EXTRN	?Find_Definition@@YAPAVDefinitionClass@@K@Z:PROC ; Find_Definition
EXTRN	?Set@Matrix3D@@QAEXABVMatrix3@@ABVVector3@@@Z:PROC ; Matrix3D::Set
EXTRN	?Set@Matrix3D@@QAEXABVQuaternion@@ABVVector3@@@Z:PROC ; Matrix3D::Set
EXTRN	?Find_Player@@YAPAVcPlayer@@H@Z:PROC		; Find_Player
EXTRN	?Find_Player@@YAPAVcPlayer@@ABVWideStringClass@@@Z:PROC ; Find_Player
EXTRN	?Set@Matrix3@@QAEXABVQuaternion@@@Z:PROC	; Matrix3::Set
EXTRN	?Get@SysTimeClass@@QAEIXZ:PROC			; SysTimeClass::Get
EXTRN	?Get_Entry@GenericDataSafeClass@@SAPAVDataSafeEntryClass@@VDataSafeHandleClass@@@Z:PROC ; GenericDataSafeClass::Get_Entry
EXTRN	?Shuffle@GenericDataSafeClass@@KAX_N@Z:PROC	; GenericDataSafeClass::Shuffle
EXTRN	?Decrypt@GenericDataSafeClass@@KAXPAXHK_N@Z:PROC ; GenericDataSafeClass::Decrypt
EXTRN	?Mem_Copy_Encrypt@GenericDataSafeClass@@KAXPAX0H_N@Z:PROC ; GenericDataSafeClass::Mem_Copy_Encrypt
EXTRN	?Mem_Copy_Decrypt@GenericDataSafeClass@@KAXPAX0H_N@Z:PROC ; GenericDataSafeClass::Mem_Copy_Decrypt
EXTRN	?Say_Security_Fault@GenericDataSafeClass@@KAXXZ:PROC ; GenericDataSafeClass::Say_Security_Fault
EXTRN	??1ReferencerClass@@UAE@XZ:PROC			; ReferencerClass::~ReferencerClass
EXTRN	?On_Post_Load@ReferencerClass@@UAEXXZ:PROC	; ReferencerClass::On_Post_Load
EXTRN	??4ReferencerClass@@QAEAAV0@PAVScriptableGameObj@@@Z:PROC ; ReferencerClass::operator=
EXTRN	??4ReferencerClass@@QAEAAV0@ABV0@@Z:PROC	; ReferencerClass::operator=
EXTRN	??BReferencerClass@@QBEPAVScriptableGameObj@@XZ:PROC ; ReferencerClass::operator ScriptableGameObj *
EXTRN	?Add_Observer@ScriptableGameObj@@QAEXPAVGameObjObserverClass@@@Z:PROC ; ScriptableGameObj::Add_Observer
EXTRN	?Find_Observer@ScriptableGameObj@@QAEPAVGameObjObserverClass@@PBD@Z:PROC ; ScriptableGameObj::Find_Observer
EXTRN	?Get_Health@DefenseObjectClass@@QBEMXZ:PROC	; DefenseObjectClass::Get_Health
EXTRN	??_E?$VectorClass@VStringClass@@@@UAEPAXI@Z:PROC ; VectorClass<StringClass>::`vector deleting destructor'
EXTRN	??_E?$DynamicVectorClass@VStringClass@@@@UAEPAXI@Z:PROC ; DynamicVectorClass<StringClass>::`vector deleting destructor'
EXTRN	?Set@LineSegClass@@QAEXABV1@ABVMatrix3D@@@Z:PROC ; LineSegClass::Set
EXTRN	??_E?$VectorClass@VWideStringClass@@@@UAEPAXI@Z:PROC ; VectorClass<WideStringClass>::`vector deleting destructor'
EXTRN	??_E?$DynamicVectorClass@VWideStringClass@@@@UAEPAXI@Z:PROC ; DynamicVectorClass<WideStringClass>::`vector deleting destructor'
EXTRN	?The_Game@@YAPAVcGameData@@XZ:PROC		; The_Game
EXTRN	?Is_Gameplay_Permitted@@YA_NXZ:PROC		; Is_Gameplay_Permitted
EXTRN	?Detach@JFW_Key_Hook_Base@@UAEXPAVScriptableGameObj@@@Z:PROC ; JFW_Key_Hook_Base::Detach
EXTRN	?Destroyed@JFW_Key_Hook_Base@@UAEXPAVScriptableGameObj@@@Z:PROC ; JFW_Key_Hook_Base::Destroyed
EXTRN	??1JFW_Key_Hook_Base@@UAE@XZ:PROC		; JFW_Key_Hook_Base::~JFW_Key_Hook_Base
EXTRN	?Detach@MultiKeyHookScriptImpClass@@UAEXPAVScriptableGameObj@@@Z:PROC ; MultiKeyHookScriptImpClass::Detach
EXTRN	?Destroyed@MultiKeyHookScriptImpClass@@UAEXPAVScriptableGameObj@@@Z:PROC ; MultiKeyHookScriptImpClass::Destroyed
EXTRN	??_E?$SList@UKeyHookWrapperStruct@MultiKeyHookScriptImpClass@@@@UAEPAXI@Z:PROC ; SList<MultiKeyHookScriptImpClass::KeyHookWrapperStruct>::`vector deleting destructor'
EXTRN	?Detach@JFW_Object_Created_Hook_Base@@UAEXPAVScriptableGameObj@@@Z:PROC ; JFW_Object_Created_Hook_Base::Detach
EXTRN	?Created@JFW_Object_Created_Hook_Base@@UAEXPAVScriptableGameObj@@@Z:PROC ; JFW_Object_Created_Hook_Base::Created
EXTRN	??1JFW_Object_Created_Hook_Base@@UAE@XZ:PROC	; JFW_Object_Created_Hook_Base::~JFW_Object_Created_Hook_Base
EXTRN	??_EConsoleFunctionClass@@UAEPAXI@Z:PROC	; ConsoleFunctionClass::`vector deleting destructor'
EXTRN	?Get_Driver@VehicleGameObj@@QAEPAVSoldierGameObj@@XZ:PROC ; VehicleGameObj::Get_Driver
EXTRN	?Decrement_Kills@cTeam@@QAEXXZ:PROC		; cTeam::Decrement_Kills
EXTRN	?Decrement_Deaths@cTeam@@QAEXXZ:PROC		; cTeam::Decrement_Deaths
EXTRN	?Increment_Kills@cTeam@@QAEXXZ:PROC		; cTeam::Increment_Kills
EXTRN	?Increment_Deaths@cTeam@@QAEXXZ:PROC		; cTeam::Increment_Deaths
EXTRN	?Increment_Score@cTeam@@QAEXM@Z:PROC		; cTeam::Increment_Score
EXTRN	?Find_Team@@YAPAVcTeam@@H@Z:PROC		; Find_Team
EXTRN	?Fix_Stuck_Object@@YA_NPAVPhysicalGameObj@@M@Z:PROC ; Fix_Stuck_Object
EXTRN	?Host_Message@DA@@SAXPBDZZ:PROC			; DA::Host_Message
EXTRN	?Private_Admin_Message@DA@@SAXPAVcPlayer@@PBDZZ:PROC ; DA::Private_Admin_Message
EXTRN	?Page_Player@DA@@SAXPAVcPlayer@@PBDZZ:PROC	; DA::Page_Player
EXTRN	?Page_Player@DA@@SAXHPBDZZ:PROC			; DA::Page_Player
EXTRN	?Page_Player@DA@@SAXPAVScriptableGameObj@@PBDZZ:PROC ; DA::Page_Player
EXTRN	?Remove_Weapon@WeaponBagClass@@QAEXH@Z:PROC	; WeaponBagClass::Remove_Weapon
EXTRN	?Chat_Event@DAEventManager@@SA_NPAVcPlayer@@W4TextMessageEnum@@PB_WH@Z:PROC ; DAEventManager::Chat_Event
EXTRN	?Register_Event@DAEventManager@@SAXPAVDAEventClass@@W4Type@DAEvent@@H@Z:PROC ; DAEventManager::Register_Event
EXTRN	?Unregister_Event@DAEventManager@@SAXPAVDAEventClass@@W4Type@DAEvent@@@Z:PROC ; DAEventManager::Unregister_Event
EXTRN	?Clear_Events@DAEventManager@@SAXPAVDAEventClass@@@Z:PROC ; DAEventManager::Clear_Events
EXTRN	?Register_Object_Event@DAEventManager@@SAXPAVDAEventClass@@W4Type@DAObjectEvent@@W4ObjectType@4@H@Z:PROC ; DAEventManager::Register_Object_Event
EXTRN	?Unregister_Object_Event@DAEventManager@@SAXPAVDAEventClass@@W4Type@DAObjectEvent@@@Z:PROC ; DAEventManager::Unregister_Object_Event
EXTRN	?Clear_Object_Events@DAEventManager@@SAXPAVDAEventClass@@@Z:PROC ; DAEventManager::Clear_Object_Events
EXTRN	?Start_Timer@DAEventManager@@SAXPAVDAEventClass@@HM_NI@Z:PROC ; DAEventManager::Start_Timer
EXTRN	?Stop_Timer@DAEventManager@@SAXPAVDAEventClass@@HI@Z:PROC ; DAEventManager::Stop_Timer
EXTRN	?Is_Timer@DAEventManager@@SA_NPAVDAEventClass@@HI@Z:PROC ; DAEventManager::Is_Timer
EXTRN	?Clear_Timers@DAEventManager@@SAXPAVDAEventClass@@@Z:PROC ; DAEventManager::Clear_Timers
EXTRN	?Clear_Chat_Commands@DAEventClass@@QAEXXZ:PROC	; DAEventClass::Clear_Chat_Commands
EXTRN	?Clear_Key_Hooks@DAEventClass@@QAEXXZ:PROC	; DAEventClass::Clear_Key_Hooks
EXTRN	??_E?$VectorClass@PAVDAPlayerObserverClass@@@@UAEPAXI@Z:PROC ; VectorClass<DAPlayerObserverClass *>::`vector deleting destructor'
EXTRN	??_E?$DynamicVectorClass@PAVDAPlayerObserverClass@@@@UAEPAXI@Z:PROC ; DynamicVectorClass<DAPlayerObserverClass *>::`vector deleting destructor'
EXTRN	??_E?$VectorClass@PAVDAPlayerDataClass@@@@UAEPAXI@Z:PROC ; VectorClass<DAPlayerDataClass *>::`vector deleting destructor'
EXTRN	??_E?$DynamicVectorClass@PAVDAPlayerDataClass@@@@UAEPAXI@Z:PROC ; DynamicVectorClass<DAPlayerDataClass *>::`vector deleting destructor'
EXTRN	??_E?$VectorClass@PAUDAPlayerTagStruct@DAPlayerClass@@@@UAEPAXI@Z:PROC ; VectorClass<DAPlayerClass::DAPlayerTagStruct *>::`vector deleting destructor'
EXTRN	??_E?$DynamicVectorClass@PAUDAPlayerTagStruct@DAPlayerClass@@@@UAEPAXI@Z:PROC ; DynamicVectorClass<DAPlayerClass::DAPlayerTagStruct *>::`vector deleting destructor'
EXTRN	??_E?$VectorClass@PAUDAPlayerObserverTimerStruct@@@@UAEPAXI@Z:PROC ; VectorClass<DAPlayerObserverTimerStruct *>::`vector deleting destructor'
EXTRN	??_E?$DynamicVectorClass@PAUDAPlayerObserverTimerStruct@@@@UAEPAXI@Z:PROC ; DynamicVectorClass<DAPlayerObserverTimerStruct *>::`vector deleting destructor'
EXTRN	??_E?$VectorClass@PAUDAPlayerObserverChatCommandStruct@@@@UAEPAXI@Z:PROC ; VectorClass<DAPlayerObserverChatCommandStruct *>::`vector deleting destructor'
EXTRN	??_E?$DynamicVectorClass@PAUDAPlayerObserverChatCommandStruct@@@@UAEPAXI@Z:PROC ; DynamicVectorClass<DAPlayerObserverChatCommandStruct *>::`vector deleting destructor'
EXTRN	??_E?$VectorClass@PAUDAPlayerObserverKeyHookStruct@@@@UAEPAXI@Z:PROC ; VectorClass<DAPlayerObserverKeyHookStruct *>::`vector deleting destructor'
EXTRN	??_E?$DynamicVectorClass@PAUDAPlayerObserverKeyHookStruct@@@@UAEPAXI@Z:PROC ; DynamicVectorClass<DAPlayerObserverKeyHookStruct *>::`vector deleting destructor'
EXTRN	??_E?$VectorClass@PAVDAPlayerDataFactoryClass@@@@UAEPAXI@Z:PROC ; VectorClass<DAPlayerDataFactoryClass *>::`vector deleting destructor'
EXTRN	??_E?$DynamicVectorClass@PAVDAPlayerDataFactoryClass@@@@UAEPAXI@Z:PROC ; DynamicVectorClass<DAPlayerDataFactoryClass *>::`vector deleting destructor'
EXTRN	??_E?$VectorClass@PAVDAPlayerClass@@@@UAEPAXI@Z:PROC ; VectorClass<DAPlayerClass *>::`vector deleting destructor'
EXTRN	??_E?$DynamicVectorClass@PAVDAPlayerClass@@@@UAEPAXI@Z:PROC ; DynamicVectorClass<DAPlayerClass *>::`vector deleting destructor'
EXTRN	??_EDAPlayerManager@@UAEPAXI@Z:PROC		; DAPlayerManager::`vector deleting destructor'
EXTRN	?Translate@DATranslationManager@@SAPBDPBVDefinitionClass@@@Z:PROC ; DATranslationManager::Translate
EXTRN	?Get_Int@DASettingsManager@@SAHPBDH@Z:PROC	; DASettingsManager::Get_Int
EXTRN	?Get_Float@DASettingsManager@@SAMPBDM@Z:PROC	; DASettingsManager::Get_Float
EXTRN	?Get_Bool@DASettingsManager@@SA_NPBD_N@Z:PROC	; DASettingsManager::Get_Bool
EXTRN	?Get_String@DASettingsManager@@SAAAVStringClass@@AAV2@PBD1@Z:PROC ; DASettingsManager::Get_String
EXTRN	?Write_Log@DALogManager@@SAXPBD0ZZ:PROC		; DALogManager::Write_Log
EXTRN	??_EDAChatCommandClass@@UAEPAXI@Z:PROC		; DAChatCommandClass::`vector deleting destructor'
EXTRN	??_EDAKeyHookClass@@UAEPAXI@Z:PROC		; DAKeyHookClass::`vector deleting destructor'
EXTRN	?Register_Chat_Command@DAChatCommandManager@@SAXPAVDAChatCommandClass@@PBDHW4Level@DAAccessLevel@@W4Type@DAChatType@@@Z:PROC ; DAChatCommandManager::Register_Chat_Command
EXTRN	?Register_Key_Hook@DAChatCommandManager@@SAXPAVDAKeyHookClass@@PBD@Z:PROC ; DAChatCommandManager::Register_Key_Hook
EXTRN	?Start_Timer@DAGameObjObserverClass@@QAEXHM@Z:PROC ; DAGameObjObserverClass::Start_Timer
EXTRN	?Set_Delete_Pending@DAGameObjObserverClass@@QAEXXZ:PROC ; DAGameObjObserverClass::Set_Delete_Pending
EXTRN	?Owner@DAGameObjObserverClass@@EAEPAVScriptableGameObj@@XZ:PROC ; DAGameObjObserverClass::Owner
EXTRN	?Attach@DAGameObjObserverClass@@EAEXPAVScriptableGameObj@@@Z:PROC ; DAGameObjObserverClass::Attach
EXTRN	?Detach@DAGameObjObserverClass@@EAEXPAVScriptableGameObj@@@Z:PROC ; DAGameObjObserverClass::Detach
EXTRN	??_EDALegacyTagConsoleFunctionClass@@UAEPAXI@Z:PROC ; DALegacyTagConsoleFunctionClass::`vector deleting destructor'
EXTRN	??_EDAAddTagConsoleFunctionClass@@UAEPAXI@Z:PROC ; DAAddTagConsoleFunctionClass::`vector deleting destructor'
EXTRN	??_EDARemoveTagConsoleFunctionClass@@UAEPAXI@Z:PROC ; DARemoveTagConsoleFunctionClass::`vector deleting destructor'
EXTRN	??_EDASetAccessLevelConsoleFunctionClass@@UAEPAXI@Z:PROC ; DASetAccessLevelConsoleFunctionClass::`vector deleting destructor'
EXTRN	??_EDAMuteConsoleFunctionClass@@UAEPAXI@Z:PROC	; DAMuteConsoleFunctionClass::`vector deleting destructor'
EXTRN	??_EDAUnMuteConsoleFunctionClass@@UAEPAXI@Z:PROC ; DAUnMuteConsoleFunctionClass::`vector deleting destructor'
EXTRN	??_EDAMuteToggleConsoleFunctionClass@@UAEPAXI@Z:PROC ; DAMuteToggleConsoleFunctionClass::`vector deleting destructor'
EXTRN	??_EDABeaconLockConsoleFunctionClass@@UAEPAXI@Z:PROC ; DABeaconLockConsoleFunctionClass::`vector deleting destructor'
EXTRN	??_EDAUnBeaconLockConsoleFunctionClass@@UAEPAXI@Z:PROC ; DAUnBeaconLockConsoleFunctionClass::`vector deleting destructor'
EXTRN	??_EDABeaconLockToggleConsoleFunctionClass@@UAEPAXI@Z:PROC ; DABeaconLockToggleConsoleFunctionClass::`vector deleting destructor'
EXTRN	??_EDAC4LockConsoleFunctionClass@@UAEPAXI@Z:PROC ; DAC4LockConsoleFunctionClass::`vector deleting destructor'
EXTRN	??_EDAUnC4LockConsoleFunctionClass@@UAEPAXI@Z:PROC ; DAUnC4LockConsoleFunctionClass::`vector deleting destructor'
EXTRN	??_EDAC4LockToggleConsoleFunctionClass@@UAEPAXI@Z:PROC ; DAC4LockToggleConsoleFunctionClass::`vector deleting destructor'
EXTRN	??_ESDEConsoleFunctionClass@@UAEPAXI@Z:PROC	; SDEConsoleFunctionClass::`vector deleting destructor'
EXTRN	??_EUnSDEConsoleFunctionClass@@UAEPAXI@Z:PROC	; UnSDEConsoleFunctionClass::`vector deleting destructor'
EXTRN	??_ESDEToggleConsoleFunctionClass@@UAEPAXI@Z:PROC ; SDEToggleConsoleFunctionClass::`vector deleting destructor'
EXTRN	??_EMapCHConsoleFunctionClass@@UAEPAXI@Z:PROC	; MapCHConsoleFunctionClass::`vector deleting destructor'
EXTRN	??_EDAVoteYesKeyHookClass@@UAEPAXI@Z:PROC	; DAVoteYesKeyHookClass::`vector deleting destructor'
EXTRN	??_EDAVoteNoKeyHookClass@@UAEPAXI@Z:PROC	; DAVoteNoKeyHookClass::`vector deleting destructor'
EXTRN	??_EDAUnstuckObserverClass@@UAEPAXI@Z:PROC	; DAUnstuckObserverClass::`vector deleting destructor'
EXTRN	??_EDAUnStuckChatCommandClass@@UAEPAXI@Z:PROC	; DAUnStuckChatCommandClass::`vector deleting destructor'
EXTRN	??_EDAKillMeObserverClass@@UAEPAXI@Z:PROC	; DAKillMeObserverClass::`vector deleting destructor'
EXTRN	??_EDAKillMeChatCommandClass@@UAEPAXI@Z:PROC	; DAKillMeChatCommandClass::`vector deleting destructor'
EXTRN	??_EDADropChatCommandClass@@UAEPAXI@Z:PROC	; DADropChatCommandClass::`vector deleting destructor'
EXTRN	__CIatan2:PROC
EXTRN	__libm_sse2_acos_precise:PROC
EXTRN	__libm_sse2_asin_precise:PROC
EXTRN	__libm_sse2_atan_precise:PROC
EXTRN	__libm_sse2_cos_precise:PROC
EXTRN	__libm_sse2_sin_precise:PROC
EXTRN	__libm_sse2_sqrt_precise:PROC
EXTRN	__libm_sse2_tan_precise:PROC
EXTRN	_floor:PROC
EXTRN	_memcpy:PROC
EXTRN	??_7type_info@@6B@:QWORD			; type_info::`vftable'
EXTRN	?_FastAcosTable@@3AAV?$RefArrayHelper@M$0EAA@@@A:DWORD ; _FastAcosTable
EXTRN	?_FastAsinTable@@3AAV?$RefArrayHelper@M$0EAA@@@A:DWORD ; _FastAsinTable
EXTRN	?_FastSinTable@@3AAV?$RefArrayHelper@M$0EAA@@@A:DWORD ; _FastSinTable
EXTRN	?Commands@@3PAUScriptCommands@@A:DWORD		; Commands
EXTRN	__imp_?m_EmptyString@StringClass@@0AAPADA:DWORD
EXTRN	__imp_?m_NullChar@StringClass@@0AADA:DWORD
EXTRN	__imp_?m_EmptyString@WideStringClass@@0AAPA_WA:DWORD
EXTRN	__imp_?m_NullChar@WideStringClass@@0AA_WA:DWORD
EXTRN	?SystemTime@SysTimeClass@@2AAV1@A:DWORD		; SysTimeClass::SystemTime
EXTRN	?SimpleKey@GenericDataSafeClass@@1AAKA:DWORD	; GenericDataSafeClass::SimpleKey
EXTRN	?HandleKey@GenericDataSafeClass@@1AAKA:DWORD	; GenericDataSafeClass::HandleKey
EXTRN	?NumLists@GenericDataSafeClass@@1AAHA:DWORD	; GenericDataSafeClass::NumLists
EXTRN	?Safe@GenericDataSafeClass@@1AAV?$RefArray@PAVDataSafeEntryListClass@@$0CAAA@@@A:DWORD ; GenericDataSafeClass::Safe
EXTRN	?Checksum@GenericDataSafeClass@@1AAKA:DWORD	; GenericDataSafeClass::Checksum
EXTRN	?SecurityCheckDelay@GenericDataSafeClass@@1AAKA:DWORD ; GenericDataSafeClass::SecurityCheckDelay
EXTRN	?SentinelOne@GenericDataSafeClass@@1AAVDataSafeHandleClass@@A:DWORD ; GenericDataSafeClass::SentinelOne
EXTRN	?SentinelTwo@GenericDataSafeClass@@1AAVDataSafeHandleClass@@A:DWORD ; GenericDataSafeClass::SentinelTwo
EXTRN	?CRCErrors@GenericDataSafeClass@@1AAHA:DWORD	; GenericDataSafeClass::CRCErrors
EXTRN	?ErrorVal@@3PADA:BYTE				; ErrorVal
EXTRN	?ReturnList@?$DataSafeClass@H@@0AAV?$RefArray@V?$RefArray@D$03@@$07@@A:DWORD ; DataSafeClass<int>::ReturnList
EXTRN	?ReturnIndex@?$DataSafeClass@H@@0AAHA:DWORD	; DataSafeClass<int>::ReturnIndex
EXTRN	?Get_Player_List@@3P6APAV?$SList@VcPlayer@@@@XZA:DWORD ; Get_Player_List
EXTRN	?Evict_Client@@3P6AXHABVWideStringClass@@@ZA:DWORD ; Evict_Client
EXTRN	?Get_Client_Serial_Hash@@3P6APBDH@ZA:DWORD	; Get_Client_Serial_Hash
EXTRN	?Get_Vehicle_Limit@@3P6AKXZA:DWORD		; Get_Vehicle_Limit
EXTRN	?Send_Client_Text@@3P6APAVcScTextObj@@ABVWideStringClass@@W4TextMessageEnum@@_NHH22@ZA:DWORD ; Send_Client_Text
EXTRN	?Send_Client_Announcement@@3P6APAVSCAnnouncement@@HHHW4AnnouncementEnum@@H_N1@ZA:DWORD ; Send_Client_Announcement
EXTRN	?Send_Player_Kill_Message@@3P6APAVcPlayerKill@@HH@ZA:DWORD ; Send_Player_Kill_Message
EXTRN	?Get_Mine_Limit@@3P6AHXZA:DWORD			; Get_Mine_Limit
EXTRN	?Get_Client_Version@@3P6AMH@ZA:DWORD		; Get_Client_Version
EXTRN	?Get_Client_Revision@@3P6AIH@ZA:DWORD		; Get_Client_Revision
EXTRN	?MessagePrefix@DA@@0VStringClass@@A:DWORD	; DA::MessagePrefix
EXTRN	?ConsoleFunctions@DA@@0V?$DynamicVectorClass@PAVConsoleFunctionClass@@@@A:BYTE ; DA::ConsoleFunctions
EXTRN	?FriendlyFirePermitted@CombatManager@@2AA_NA:DWORD ; CombatManager::FriendlyFirePermitted
EXTRN	?ReturnList@?$DataSafeClass@M@@0AAV?$RefArray@V?$RefArray@D$03@@$07@@A:DWORD ; DataSafeClass<float>::ReturnList
EXTRN	?ReturnIndex@?$DataSafeClass@M@@0AAHA:DWORD	; DataSafeClass<float>::ReturnIndex
EXTRN	__fltused:DWORD
;	COMDAT ?_checking@?1??Security_Check@GenericDataSafeClass@@KAXXZ@4_NA
_BSS	SEGMENT
?_checking@?1??Security_Check@GenericDataSafeClass@@KAXXZ@4_NA DB 01H DUP (?) ; `GenericDataSafeClass::Security_Check'::`2'::_checking
_BSS	ENDS
;	COMDAT ?_calls@?1??Security_Check@GenericDataSafeClass@@KAXXZ@4KA
_BSS	SEGMENT
?_calls@?1??Security_Check@GenericDataSafeClass@@KAXXZ@4KA DD 01H DUP (?) ; `GenericDataSafeClass::Security_Check'::`2'::_calls
_BSS	ENDS
_BSS	SEGMENT
?DataFactories@DAPlayerManager@@0V?$DynamicVectorClass@PAVDAPlayerDataFactoryClass@@@@A DB 018H DUP (?) ; DAPlayerManager::DataFactories
?Players@DAPlayerManager@@0V?$DynamicVectorClass@PAVDAPlayerClass@@@@A DB 018H DUP (?) ; DAPlayerManager::Players
?Instance@?1??Init@DAPlayerManager@@SAXXZ@4V2@A DB 02cH DUP (?) ; `DAPlayerManager::Init'::`2'::Instance
?$S2@?1??Init@DAPlayerManager@@SAXXZ@4IA DD 01H DUP (?)	; `DAPlayerManager::Init'::`2'::$S2
?DALegacyTagConsoleFunctionClassRegistrant@@3V?$DAConsoleFunctionRegistrant@VDALegacyTagConsoleFunctionClass@@@@A DB 01H DUP (?) ; DALegacyTagConsoleFunctionClassRegistrant
	ALIGN	4

?DAAddTagConsoleFunctionClassRegistrant@@3V?$DAConsoleFunctionRegistrant@VDAAddTagConsoleFunctionClass@@@@A DB 01H DUP (?) ; DAAddTagConsoleFunctionClassRegistrant
	ALIGN	4

?DARemoveTagConsoleFunctionClassRegistrant@@3V?$DAConsoleFunctionRegistrant@VDARemoveTagConsoleFunctionClass@@@@A DB 01H DUP (?) ; DARemoveTagConsoleFunctionClassRegistrant
	ALIGN	4

?DASetAccessLevelConsoleFunctionClassRegistrant@@3V?$DAConsoleFunctionRegistrant@VDASetAccessLevelConsoleFunctionClass@@@@A DB 01H DUP (?) ; DASetAccessLevelConsoleFunctionClassRegistrant
	ALIGN	4

?DAMuteConsoleFunctionClassRegistrant@@3V?$DAConsoleFunctionRegistrant@VDAMuteConsoleFunctionClass@@@@A DB 01H DUP (?) ; DAMuteConsoleFunctionClassRegistrant
	ALIGN	4

?DAUnMuteConsoleFunctionClassRegistrant@@3V?$DAConsoleFunctionRegistrant@VDAUnMuteConsoleFunctionClass@@@@A DB 01H DUP (?) ; DAUnMuteConsoleFunctionClassRegistrant
	ALIGN	4

?DAMuteToggleConsoleFunctionClassRegistrant@@3V?$DAConsoleFunctionRegistrant@VDAMuteToggleConsoleFunctionClass@@@@A DB 01H DUP (?) ; DAMuteToggleConsoleFunctionClassRegistrant
	ALIGN	4

?DABeaconLockConsoleFunctionClassRegistrant@@3V?$DAConsoleFunctionRegistrant@VDABeaconLockConsoleFunctionClass@@@@A DB 01H DUP (?) ; DABeaconLockConsoleFunctionClassRegistrant
	ALIGN	4

?DAUnBeaconLockConsoleFunctionClassRegistrant@@3V?$DAConsoleFunctionRegistrant@VDAUnBeaconLockConsoleFunctionClass@@@@A DB 01H DUP (?) ; DAUnBeaconLockConsoleFunctionClassRegistrant
	ALIGN	4

?DABeaconLockToggleConsoleFunctionClassRegistrant@@3V?$DAConsoleFunctionRegistrant@VDABeaconLockToggleConsoleFunctionClass@@@@A DB 01H DUP (?) ; DABeaconLockToggleConsoleFunctionClassRegistrant
	ALIGN	4

?DAC4LockConsoleFunctionClassRegistrant@@3V?$DAConsoleFunctionRegistrant@VDAC4LockConsoleFunctionClass@@@@A DB 01H DUP (?) ; DAC4LockConsoleFunctionClassRegistrant
	ALIGN	4

?DAUnC4LockConsoleFunctionClassRegistrant@@3V?$DAConsoleFunctionRegistrant@VDAUnC4LockConsoleFunctionClass@@@@A DB 01H DUP (?) ; DAUnC4LockConsoleFunctionClassRegistrant
	ALIGN	4

?DAC4LockToggleConsoleFunctionClassRegistrant@@3V?$DAConsoleFunctionRegistrant@VDAC4LockToggleConsoleFunctionClass@@@@A DB 01H DUP (?) ; DAC4LockToggleConsoleFunctionClassRegistrant
	ALIGN	4

?SDEConsoleFunctionClassRegistrant@@3V?$DAConsoleFunctionRegistrant@VSDEConsoleFunctionClass@@@@A DB 01H DUP (?) ; SDEConsoleFunctionClassRegistrant
	ALIGN	4

?UnSDEConsoleFunctionClassRegistrant@@3V?$DAConsoleFunctionRegistrant@VUnSDEConsoleFunctionClass@@@@A DB 01H DUP (?) ; UnSDEConsoleFunctionClassRegistrant
	ALIGN	4

?SDEToggleConsoleFunctionClassRegistrant@@3V?$DAConsoleFunctionRegistrant@VSDEToggleConsoleFunctionClass@@@@A DB 01H DUP (?) ; SDEToggleConsoleFunctionClassRegistrant
	ALIGN	4

?MapCHConsoleFunctionClassRegistrant@@3V?$DAConsoleFunctionRegistrant@VMapCHConsoleFunctionClass@@@@A DB 01H DUP (?) ; MapCHConsoleFunctionClassRegistrant
	ALIGN	4

?DAVoteYesKeyHookClassRegistrant@@3V?$DAKeyHookRegistrant@VDAVoteYesKeyHookClass@@@@A DB 01H DUP (?) ; DAVoteYesKeyHookClassRegistrant
	ALIGN	4

?DAVoteNoKeyHookClassRegistrant@@3V?$DAKeyHookRegistrant@VDAVoteNoKeyHookClass@@@@A DB 01H DUP (?) ; DAVoteNoKeyHookClassRegistrant
	ALIGN	4

?DAUnStuckChatCommandClassRegistrant@@3V?$DAChatCommandRegistrant@VDAUnStuckChatCommandClass@@@@A DB 01H DUP (?) ; DAUnStuckChatCommandClassRegistrant
	ALIGN	4

?DAKillMeChatCommandClassRegistrant@@3V?$DAChatCommandRegistrant@VDAKillMeChatCommandClass@@@@A DB 01H DUP (?) ; DAKillMeChatCommandClassRegistrant
	ALIGN	4

?DADropChatCommandClassRegistrant@@3V?$DAChatCommandRegistrant@VDADropChatCommandClass@@@@A DB 01H DUP (?) ; DADropChatCommandClassRegistrant
_BSS	ENDS
;	COMDAT ?instancex@?1??getInstance@?$Singleton@V?$ObjectPoolClass@VGenericSLNode@@$0BAA@@@@@SAAAV?$ObjectPoolClass@VGenericSLNode@@$0BAA@@@XZ@4V3@A
_BSS	SEGMENT
?instancex@?1??getInstance@?$Singleton@V?$ObjectPoolClass@VGenericSLNode@@$0BAA@@@@@SAAAV?$ObjectPoolClass@VGenericSLNode@@$0BAA@@@XZ@4V3@A DB 014H DUP (?) ; `Singleton<ObjectPoolClass<GenericSLNode,256> >::getInstance'::`2'::instancex
_BSS	ENDS
;	COMDAT ??_B?1??getInstance@?$Singleton@V?$ObjectPoolClass@VGenericSLNode@@$0BAA@@@@@SAAAV?$ObjectPoolClass@VGenericSLNode@@$0BAA@@@XZ@51
_BSS	SEGMENT
??_B?1??getInstance@?$Singleton@V?$ObjectPoolClass@VGenericSLNode@@$0BAA@@@@@SAAAV?$ObjectPoolClass@VGenericSLNode@@$0BAA@@@XZ@51 DD 01H DUP (?) ; `Singleton<ObjectPoolClass<GenericSLNode,256> >::getInstance'::`2'::`local static guard'
_BSS	ENDS
;	COMDAT ?oh_dear@?7???R?$SafeDataClass@M@@QBEAAMXZ@4MA
_BSS	SEGMENT
?oh_dear@?7???R?$SafeDataClass@M@@QBEAAMXZ@4MA DD 01H DUP (?) ; `SafeDataClass<float>::operator()'::`8'::oh_dear
_BSS	ENDS
;	COMDAT ?oh_dear@?7???R?$SafeDataClass@H@@QBEAAHXZ@4HA
_BSS	SEGMENT
?oh_dear@?7???R?$SafeDataClass@H@@QBEAAHXZ@4HA DD 01H DUP (?) ; `SafeDataClass<int>::operator()'::`8'::oh_dear
_BSS	ENDS
CRT$XCU	SEGMENT
?DataFactories$initializer$@DAPlayerManager@@0P6AXXZA DD FLAT:??__E?DataFactories@DAPlayerManager@@0V?$DynamicVectorClass@PAVDAPlayerDataFactoryClass@@@@A@@YAXXZ ; DAPlayerManager::DataFactories$initializer$
CRT$XCU	ENDS
;	COMDAT __xmm@80000000800000008000000080000000
CONST	SEGMENT
__xmm@80000000800000008000000080000000 DB 00H, 00H, 00H, 080H, 00H, 00H, 00H
	DB	080H, 00H, 00H, 00H, 080H, 00H, 00H, 00H, 080H
CONST	ENDS
;	COMDAT __xmm@80000000000000008000000000000000
CONST	SEGMENT
__xmm@80000000000000008000000000000000 DB 00H, 00H, 00H, 00H, 00H, 00H, 00H
	DB	080H, 00H, 00H, 00H, 00H, 00H, 00H, 00H, 080H
CONST	ENDS
;	COMDAT __real@c0000000
CONST	SEGMENT
__real@c0000000 DD 0c0000000r			; -2
CONST	ENDS
;	COMDAT __real@bf800000
CONST	SEGMENT
__real@bf800000 DD 0bf800000r			; -1
CONST	ENDS
;	COMDAT __real@44800000
CONST	SEGMENT
__real@44800000 DD 044800000r			; 1024
CONST	ENDS
;	COMDAT __real@447a0000
CONST	SEGMENT
__real@447a0000 DD 0447a0000r			; 1000
CONST	ENDS
;	COMDAT __real@44000000
CONST	SEGMENT
__real@44000000 DD 044000000r			; 512
CONST	ENDS
;	COMDAT __real@437f0000
CONST	SEGMENT
__real@437f0000 DD 0437f0000r			; 255
CONST	ENDS
;	COMDAT __real@41200000
CONST	SEGMENT
__real@41200000 DD 041200000r			; 10
CONST	ENDS
;	COMDAT __real@40c90fdb
CONST	SEGMENT
__real@40c90fdb DD 040c90fdbr			; 6.28319
CONST	ENDS
;	COMDAT __real@40800000
CONST	SEGMENT
__real@40800000 DD 040800000r			; 4
CONST	ENDS
;	COMDAT __real@40266666
CONST	SEGMENT
__real@40266666 DD 040266666r			; 2.6
CONST	ENDS
;	COMDAT __real@4000000000000000
CONST	SEGMENT
__real@4000000000000000 DQ 04000000000000000r	; 2
CONST	ENDS
;	COMDAT __real@40000000
CONST	SEGMENT
__real@40000000 DD 040000000r			; 2
CONST	ENDS
;	COMDAT __real@3ff0000000000000
CONST	SEGMENT
__real@3ff0000000000000 DQ 03ff0000000000000r	; 1
CONST	ENDS
;	COMDAT __real@3fe0000000000000
CONST	SEGMENT
__real@3fe0000000000000 DQ 03fe0000000000000r	; 0.5
CONST	ENDS
;	COMDAT __real@3fc90fdb
CONST	SEGMENT
__real@3fc90fdb DD 03fc90fdbr			; 1.5708
CONST	ENDS
;	COMDAT __real@3f800000
CONST	SEGMENT
__real@3f800000 DD 03f800000r			; 1
CONST	ENDS
;	COMDAT __real@3f79999a
CONST	SEGMENT
__real@3f79999a DD 03f79999ar			; 0.975
CONST	ENDS
;	COMDAT __real@3f000000
CONST	SEGMENT
__real@3f000000 DD 03f000000r			; 0.5
CONST	ENDS
;	COMDAT __real@02081cea
CONST	SEGMENT
__real@02081cea DD 002081cear			; 1e-037
CONST	ENDS
;	COMDAT __real@0000000000000000
CONST	SEGMENT
__real@0000000000000000 DQ 00000000000000000r	; 0
CONST	ENDS
;	COMDAT __real@00000000
CONST	SEGMENT
__real@00000000 DD 000000000r			; 0
CONST	ENDS
;	COMDAT ??_R1A@?0A@EA@DADropChatCommandClass@@8
rdata$r	SEGMENT
??_R1A@?0A@EA@DADropChatCommandClass@@8 DD FLAT:??_R0?AVDADropChatCommandClass@@@8 ; DADropChatCommandClass::`RTTI Base Class Descriptor at (0,-1,0,64)'
	DD	01H
	DD	00H
	DD	0ffffffffH
	DD	00H
	DD	040H
	DD	FLAT:??_R3DADropChatCommandClass@@8
rdata$r	ENDS
;	COMDAT ??_R2DADropChatCommandClass@@8
rdata$r	SEGMENT
??_R2DADropChatCommandClass@@8 DD FLAT:??_R1A@?0A@EA@DADropChatCommandClass@@8 ; DADropChatCommandClass::`RTTI Base Class Array'
	DD	FLAT:??_R1A@?0A@EA@DAChatCommandClass@@8
rdata$r	ENDS
;	COMDAT ??_R3DADropChatCommandClass@@8
rdata$r	SEGMENT
??_R3DADropChatCommandClass@@8 DD 00H			; DADropChatCommandClass::`RTTI Class Hierarchy Descriptor'
	DD	00H
	DD	02H
	DD	FLAT:??_R2DADropChatCommandClass@@8
rdata$r	ENDS
;	COMDAT ??_R0?AVDADropChatCommandClass@@@8
_DATA	SEGMENT
??_R0?AVDADropChatCommandClass@@@8 DD FLAT:??_7type_info@@6B@ ; DADropChatCommandClass `RTTI Type Descriptor'
	DD	00H
	DB	'.?AVDADropChatCommandClass@@', 00H
_DATA	ENDS
;	COMDAT ??_R4DADropChatCommandClass@@6B@
rdata$r	SEGMENT
??_R4DADropChatCommandClass@@6B@ DD 00H			; DADropChatCommandClass::`RTTI Complete Object Locator'
	DD	00H
	DD	00H
	DD	FLAT:??_R0?AVDADropChatCommandClass@@@8
	DD	FLAT:??_R3DADropChatCommandClass@@8
rdata$r	ENDS
;	COMDAT ??_R1A@?0A@EA@DAKillMeChatCommandClass@@8
rdata$r	SEGMENT
??_R1A@?0A@EA@DAKillMeChatCommandClass@@8 DD FLAT:??_R0?AVDAKillMeChatCommandClass@@@8 ; DAKillMeChatCommandClass::`RTTI Base Class Descriptor at (0,-1,0,64)'
	DD	01H
	DD	00H
	DD	0ffffffffH
	DD	00H
	DD	040H
	DD	FLAT:??_R3DAKillMeChatCommandClass@@8
rdata$r	ENDS
;	COMDAT ??_R2DAKillMeChatCommandClass@@8
rdata$r	SEGMENT
??_R2DAKillMeChatCommandClass@@8 DD FLAT:??_R1A@?0A@EA@DAKillMeChatCommandClass@@8 ; DAKillMeChatCommandClass::`RTTI Base Class Array'
	DD	FLAT:??_R1A@?0A@EA@DAChatCommandClass@@8
rdata$r	ENDS
;	COMDAT ??_R3DAKillMeChatCommandClass@@8
rdata$r	SEGMENT
??_R3DAKillMeChatCommandClass@@8 DD 00H			; DAKillMeChatCommandClass::`RTTI Class Hierarchy Descriptor'
	DD	00H
	DD	02H
	DD	FLAT:??_R2DAKillMeChatCommandClass@@8
rdata$r	ENDS
;	COMDAT ??_R0?AVDAKillMeChatCommandClass@@@8
_DATA	SEGMENT
??_R0?AVDAKillMeChatCommandClass@@@8 DD FLAT:??_7type_info@@6B@ ; DAKillMeChatCommandClass `RTTI Type Descriptor'
	DD	00H
	DB	'.?AVDAKillMeChatCommandClass@@', 00H
_DATA	ENDS
;	COMDAT ??_R4DAKillMeChatCommandClass@@6B@
rdata$r	SEGMENT
??_R4DAKillMeChatCommandClass@@6B@ DD 00H		; DAKillMeChatCommandClass::`RTTI Complete Object Locator'
	DD	00H
	DD	00H
	DD	FLAT:??_R0?AVDAKillMeChatCommandClass@@@8
	DD	FLAT:??_R3DAKillMeChatCommandClass@@8
rdata$r	ENDS
;	COMDAT ??_R1A@?0A@EA@DAKillMeObserverClass@@8
rdata$r	SEGMENT
??_R1A@?0A@EA@DAKillMeObserverClass@@8 DD FLAT:??_R0?AVDAKillMeObserverClass@@@8 ; DAKillMeObserverClass::`RTTI Base Class Descriptor at (0,-1,0,64)'
	DD	02H
	DD	00H
	DD	0ffffffffH
	DD	00H
	DD	040H
	DD	FLAT:??_R3DAKillMeObserverClass@@8
rdata$r	ENDS
;	COMDAT ??_R2DAKillMeObserverClass@@8
rdata$r	SEGMENT
??_R2DAKillMeObserverClass@@8 DD FLAT:??_R1A@?0A@EA@DAKillMeObserverClass@@8 ; DAKillMeObserverClass::`RTTI Base Class Array'
	DD	FLAT:??_R1A@?0A@EA@DAGameObjObserverClass@@8
	DD	FLAT:??_R1A@?0A@EA@GameObjObserverClass@@8
rdata$r	ENDS
;	COMDAT ??_R3DAKillMeObserverClass@@8
rdata$r	SEGMENT
??_R3DAKillMeObserverClass@@8 DD 00H			; DAKillMeObserverClass::`RTTI Class Hierarchy Descriptor'
	DD	00H
	DD	03H
	DD	FLAT:??_R2DAKillMeObserverClass@@8
rdata$r	ENDS
;	COMDAT ??_R0?AVDAKillMeObserverClass@@@8
_DATA	SEGMENT
??_R0?AVDAKillMeObserverClass@@@8 DD FLAT:??_7type_info@@6B@ ; DAKillMeObserverClass `RTTI Type Descriptor'
	DD	00H
	DB	'.?AVDAKillMeObserverClass@@', 00H
_DATA	ENDS
;	COMDAT ??_R4DAKillMeObserverClass@@6B@
rdata$r	SEGMENT
??_R4DAKillMeObserverClass@@6B@ DD 00H			; DAKillMeObserverClass::`RTTI Complete Object Locator'
	DD	00H
	DD	00H
	DD	FLAT:??_R0?AVDAKillMeObserverClass@@@8
	DD	FLAT:??_R3DAKillMeObserverClass@@8
rdata$r	ENDS
;	COMDAT ??_R1A@?0A@EA@DAUnStuckChatCommandClass@@8
rdata$r	SEGMENT
??_R1A@?0A@EA@DAUnStuckChatCommandClass@@8 DD FLAT:??_R0?AVDAUnStuckChatCommandClass@@@8 ; DAUnStuckChatCommandClass::`RTTI Base Class Descriptor at (0,-1,0,64)'
	DD	01H
	DD	00H
	DD	0ffffffffH
	DD	00H
	DD	040H
	DD	FLAT:??_R3DAUnStuckChatCommandClass@@8
rdata$r	ENDS
;	COMDAT ??_R2DAUnStuckChatCommandClass@@8
rdata$r	SEGMENT
??_R2DAUnStuckChatCommandClass@@8 DD FLAT:??_R1A@?0A@EA@DAUnStuckChatCommandClass@@8 ; DAUnStuckChatCommandClass::`RTTI Base Class Array'
	DD	FLAT:??_R1A@?0A@EA@DAChatCommandClass@@8
rdata$r	ENDS
;	COMDAT ??_R3DAUnStuckChatCommandClass@@8
rdata$r	SEGMENT
??_R3DAUnStuckChatCommandClass@@8 DD 00H		; DAUnStuckChatCommandClass::`RTTI Class Hierarchy Descriptor'
	DD	00H
	DD	02H
	DD	FLAT:??_R2DAUnStuckChatCommandClass@@8
rdata$r	ENDS
;	COMDAT ??_R0?AVDAUnStuckChatCommandClass@@@8
_DATA	SEGMENT
??_R0?AVDAUnStuckChatCommandClass@@@8 DD FLAT:??_7type_info@@6B@ ; DAUnStuckChatCommandClass `RTTI Type Descriptor'
	DD	00H
	DB	'.?AVDAUnStuckChatCommandClass@@', 00H
_DATA	ENDS
;	COMDAT ??_R4DAUnStuckChatCommandClass@@6B@
rdata$r	SEGMENT
??_R4DAUnStuckChatCommandClass@@6B@ DD 00H		; DAUnStuckChatCommandClass::`RTTI Complete Object Locator'
	DD	00H
	DD	00H
	DD	FLAT:??_R0?AVDAUnStuckChatCommandClass@@@8
	DD	FLAT:??_R3DAUnStuckChatCommandClass@@8
rdata$r	ENDS
;	COMDAT ??_R1A@?0A@EA@DAUnstuckObserverClass@@8
rdata$r	SEGMENT
??_R1A@?0A@EA@DAUnstuckObserverClass@@8 DD FLAT:??_R0?AVDAUnstuckObserverClass@@@8 ; DAUnstuckObserverClass::`RTTI Base Class Descriptor at (0,-1,0,64)'
	DD	02H
	DD	00H
	DD	0ffffffffH
	DD	00H
	DD	040H
	DD	FLAT:??_R3DAUnstuckObserverClass@@8
rdata$r	ENDS
;	COMDAT ??_R2DAUnstuckObserverClass@@8
rdata$r	SEGMENT
??_R2DAUnstuckObserverClass@@8 DD FLAT:??_R1A@?0A@EA@DAUnstuckObserverClass@@8 ; DAUnstuckObserverClass::`RTTI Base Class Array'
	DD	FLAT:??_R1A@?0A@EA@DAGameObjObserverClass@@8
	DD	FLAT:??_R1A@?0A@EA@GameObjObserverClass@@8
rdata$r	ENDS
;	COMDAT ??_R3DAUnstuckObserverClass@@8
rdata$r	SEGMENT
??_R3DAUnstuckObserverClass@@8 DD 00H			; DAUnstuckObserverClass::`RTTI Class Hierarchy Descriptor'
	DD	00H
	DD	03H
	DD	FLAT:??_R2DAUnstuckObserverClass@@8
rdata$r	ENDS
;	COMDAT ??_R0?AVDAUnstuckObserverClass@@@8
_DATA	SEGMENT
??_R0?AVDAUnstuckObserverClass@@@8 DD FLAT:??_7type_info@@6B@ ; DAUnstuckObserverClass `RTTI Type Descriptor'
	DD	00H
	DB	'.?AVDAUnstuckObserverClass@@', 00H
_DATA	ENDS
;	COMDAT ??_R4DAUnstuckObserverClass@@6B@
rdata$r	SEGMENT
??_R4DAUnstuckObserverClass@@6B@ DD 00H			; DAUnstuckObserverClass::`RTTI Complete Object Locator'
	DD	00H
	DD	00H
	DD	FLAT:??_R0?AVDAUnstuckObserverClass@@@8
	DD	FLAT:??_R3DAUnstuckObserverClass@@8
rdata$r	ENDS
;	COMDAT ??_R1A@?0A@EA@DAVoteNoKeyHookClass@@8
rdata$r	SEGMENT
??_R1A@?0A@EA@DAVoteNoKeyHookClass@@8 DD FLAT:??_R0?AVDAVoteNoKeyHookClass@@@8 ; DAVoteNoKeyHookClass::`RTTI Base Class Descriptor at (0,-1,0,64)'
	DD	01H
	DD	00H
	DD	0ffffffffH
	DD	00H
	DD	040H
	DD	FLAT:??_R3DAVoteNoKeyHookClass@@8
rdata$r	ENDS
;	COMDAT ??_R2DAVoteNoKeyHookClass@@8
rdata$r	SEGMENT
??_R2DAVoteNoKeyHookClass@@8 DD FLAT:??_R1A@?0A@EA@DAVoteNoKeyHookClass@@8 ; DAVoteNoKeyHookClass::`RTTI Base Class Array'
	DD	FLAT:??_R1A@?0A@EA@DAKeyHookClass@@8
rdata$r	ENDS
;	COMDAT ??_R3DAVoteNoKeyHookClass@@8
rdata$r	SEGMENT
??_R3DAVoteNoKeyHookClass@@8 DD 00H			; DAVoteNoKeyHookClass::`RTTI Class Hierarchy Descriptor'
	DD	00H
	DD	02H
	DD	FLAT:??_R2DAVoteNoKeyHookClass@@8
rdata$r	ENDS
;	COMDAT ??_R0?AVDAVoteNoKeyHookClass@@@8
_DATA	SEGMENT
??_R0?AVDAVoteNoKeyHookClass@@@8 DD FLAT:??_7type_info@@6B@ ; DAVoteNoKeyHookClass `RTTI Type Descriptor'
	DD	00H
	DB	'.?AVDAVoteNoKeyHookClass@@', 00H
_DATA	ENDS
;	COMDAT ??_R4DAVoteNoKeyHookClass@@6B@
rdata$r	SEGMENT
??_R4DAVoteNoKeyHookClass@@6B@ DD 00H			; DAVoteNoKeyHookClass::`RTTI Complete Object Locator'
	DD	00H
	DD	00H
	DD	FLAT:??_R0?AVDAVoteNoKeyHookClass@@@8
	DD	FLAT:??_R3DAVoteNoKeyHookClass@@8
rdata$r	ENDS
;	COMDAT ??_R1A@?0A@EA@DAVoteYesKeyHookClass@@8
rdata$r	SEGMENT
??_R1A@?0A@EA@DAVoteYesKeyHookClass@@8 DD FLAT:??_R0?AVDAVoteYesKeyHookClass@@@8 ; DAVoteYesKeyHookClass::`RTTI Base Class Descriptor at (0,-1,0,64)'
	DD	01H
	DD	00H
	DD	0ffffffffH
	DD	00H
	DD	040H
	DD	FLAT:??_R3DAVoteYesKeyHookClass@@8
rdata$r	ENDS
;	COMDAT ??_R2DAVoteYesKeyHookClass@@8
rdata$r	SEGMENT
??_R2DAVoteYesKeyHookClass@@8 DD FLAT:??_R1A@?0A@EA@DAVoteYesKeyHookClass@@8 ; DAVoteYesKeyHookClass::`RTTI Base Class Array'
	DD	FLAT:??_R1A@?0A@EA@DAKeyHookClass@@8
rdata$r	ENDS
;	COMDAT ??_R3DAVoteYesKeyHookClass@@8
rdata$r	SEGMENT
??_R3DAVoteYesKeyHookClass@@8 DD 00H			; DAVoteYesKeyHookClass::`RTTI Class Hierarchy Descriptor'
	DD	00H
	DD	02H
	DD	FLAT:??_R2DAVoteYesKeyHookClass@@8
rdata$r	ENDS
;	COMDAT ??_R0?AVDAVoteYesKeyHookClass@@@8
_DATA	SEGMENT
??_R0?AVDAVoteYesKeyHookClass@@@8 DD FLAT:??_7type_info@@6B@ ; DAVoteYesKeyHookClass `RTTI Type Descriptor'
	DD	00H
	DB	'.?AVDAVoteYesKeyHookClass@@', 00H
_DATA	ENDS
;	COMDAT ??_R4DAVoteYesKeyHookClass@@6B@
rdata$r	SEGMENT
??_R4DAVoteYesKeyHookClass@@6B@ DD 00H			; DAVoteYesKeyHookClass::`RTTI Complete Object Locator'
	DD	00H
	DD	00H
	DD	FLAT:??_R0?AVDAVoteYesKeyHookClass@@@8
	DD	FLAT:??_R3DAVoteYesKeyHookClass@@8
rdata$r	ENDS
;	COMDAT ??_R1A@?0A@EA@MapCHConsoleFunctionClass@@8
rdata$r	SEGMENT
??_R1A@?0A@EA@MapCHConsoleFunctionClass@@8 DD FLAT:??_R0?AVMapCHConsoleFunctionClass@@@8 ; MapCHConsoleFunctionClass::`RTTI Base Class Descriptor at (0,-1,0,64)'
	DD	01H
	DD	00H
	DD	0ffffffffH
	DD	00H
	DD	040H
	DD	FLAT:??_R3MapCHConsoleFunctionClass@@8
rdata$r	ENDS
;	COMDAT ??_R2MapCHConsoleFunctionClass@@8
rdata$r	SEGMENT
??_R2MapCHConsoleFunctionClass@@8 DD FLAT:??_R1A@?0A@EA@MapCHConsoleFunctionClass@@8 ; MapCHConsoleFunctionClass::`RTTI Base Class Array'
	DD	FLAT:??_R1A@?0A@EA@ConsoleFunctionClass@@8
rdata$r	ENDS
;	COMDAT ??_R3MapCHConsoleFunctionClass@@8
rdata$r	SEGMENT
??_R3MapCHConsoleFunctionClass@@8 DD 00H		; MapCHConsoleFunctionClass::`RTTI Class Hierarchy Descriptor'
	DD	00H
	DD	02H
	DD	FLAT:??_R2MapCHConsoleFunctionClass@@8
rdata$r	ENDS
;	COMDAT ??_R0?AVMapCHConsoleFunctionClass@@@8
_DATA	SEGMENT
??_R0?AVMapCHConsoleFunctionClass@@@8 DD FLAT:??_7type_info@@6B@ ; MapCHConsoleFunctionClass `RTTI Type Descriptor'
	DD	00H
	DB	'.?AVMapCHConsoleFunctionClass@@', 00H
_DATA	ENDS
;	COMDAT ??_R4MapCHConsoleFunctionClass@@6B@
rdata$r	SEGMENT
??_R4MapCHConsoleFunctionClass@@6B@ DD 00H		; MapCHConsoleFunctionClass::`RTTI Complete Object Locator'
	DD	00H
	DD	00H
	DD	FLAT:??_R0?AVMapCHConsoleFunctionClass@@@8
	DD	FLAT:??_R3MapCHConsoleFunctionClass@@8
rdata$r	ENDS
;	COMDAT ??_R1A@?0A@EA@SDEToggleConsoleFunctionClass@@8
rdata$r	SEGMENT
??_R1A@?0A@EA@SDEToggleConsoleFunctionClass@@8 DD FLAT:??_R0?AVSDEToggleConsoleFunctionClass@@@8 ; SDEToggleConsoleFunctionClass::`RTTI Base Class Descriptor at (0,-1,0,64)'
	DD	01H
	DD	00H
	DD	0ffffffffH
	DD	00H
	DD	040H
	DD	FLAT:??_R3SDEToggleConsoleFunctionClass@@8
rdata$r	ENDS
;	COMDAT ??_R2SDEToggleConsoleFunctionClass@@8
rdata$r	SEGMENT
??_R2SDEToggleConsoleFunctionClass@@8 DD FLAT:??_R1A@?0A@EA@SDEToggleConsoleFunctionClass@@8 ; SDEToggleConsoleFunctionClass::`RTTI Base Class Array'
	DD	FLAT:??_R1A@?0A@EA@ConsoleFunctionClass@@8
rdata$r	ENDS
;	COMDAT ??_R3SDEToggleConsoleFunctionClass@@8
rdata$r	SEGMENT
??_R3SDEToggleConsoleFunctionClass@@8 DD 00H		; SDEToggleConsoleFunctionClass::`RTTI Class Hierarchy Descriptor'
	DD	00H
	DD	02H
	DD	FLAT:??_R2SDEToggleConsoleFunctionClass@@8
rdata$r	ENDS
;	COMDAT ??_R0?AVSDEToggleConsoleFunctionClass@@@8
_DATA	SEGMENT
??_R0?AVSDEToggleConsoleFunctionClass@@@8 DD FLAT:??_7type_info@@6B@ ; SDEToggleConsoleFunctionClass `RTTI Type Descriptor'
	DD	00H
	DB	'.?AVSDEToggleConsoleFunctionClass@@', 00H
_DATA	ENDS
;	COMDAT ??_R4SDEToggleConsoleFunctionClass@@6B@
rdata$r	SEGMENT
??_R4SDEToggleConsoleFunctionClass@@6B@ DD 00H		; SDEToggleConsoleFunctionClass::`RTTI Complete Object Locator'
	DD	00H
	DD	00H
	DD	FLAT:??_R0?AVSDEToggleConsoleFunctionClass@@@8
	DD	FLAT:??_R3SDEToggleConsoleFunctionClass@@8
rdata$r	ENDS
;	COMDAT ??_R1A@?0A@EA@UnSDEConsoleFunctionClass@@8
rdata$r	SEGMENT
??_R1A@?0A@EA@UnSDEConsoleFunctionClass@@8 DD FLAT:??_R0?AVUnSDEConsoleFunctionClass@@@8 ; UnSDEConsoleFunctionClass::`RTTI Base Class Descriptor at (0,-1,0,64)'
	DD	01H
	DD	00H
	DD	0ffffffffH
	DD	00H
	DD	040H
	DD	FLAT:??_R3UnSDEConsoleFunctionClass@@8
rdata$r	ENDS
;	COMDAT ??_R2UnSDEConsoleFunctionClass@@8
rdata$r	SEGMENT
??_R2UnSDEConsoleFunctionClass@@8 DD FLAT:??_R1A@?0A@EA@UnSDEConsoleFunctionClass@@8 ; UnSDEConsoleFunctionClass::`RTTI Base Class Array'
	DD	FLAT:??_R1A@?0A@EA@ConsoleFunctionClass@@8
rdata$r	ENDS
;	COMDAT ??_R3UnSDEConsoleFunctionClass@@8
rdata$r	SEGMENT
??_R3UnSDEConsoleFunctionClass@@8 DD 00H		; UnSDEConsoleFunctionClass::`RTTI Class Hierarchy Descriptor'
	DD	00H
	DD	02H
	DD	FLAT:??_R2UnSDEConsoleFunctionClass@@8
rdata$r	ENDS
;	COMDAT ??_R0?AVUnSDEConsoleFunctionClass@@@8
_DATA	SEGMENT
??_R0?AVUnSDEConsoleFunctionClass@@@8 DD FLAT:??_7type_info@@6B@ ; UnSDEConsoleFunctionClass `RTTI Type Descriptor'
	DD	00H
	DB	'.?AVUnSDEConsoleFunctionClass@@', 00H
_DATA	ENDS
;	COMDAT ??_R4UnSDEConsoleFunctionClass@@6B@
rdata$r	SEGMENT
??_R4UnSDEConsoleFunctionClass@@6B@ DD 00H		; UnSDEConsoleFunctionClass::`RTTI Complete Object Locator'
	DD	00H
	DD	00H
	DD	FLAT:??_R0?AVUnSDEConsoleFunctionClass@@@8
	DD	FLAT:??_R3UnSDEConsoleFunctionClass@@8
rdata$r	ENDS
;	COMDAT ??_R1A@?0A@EA@SDEConsoleFunctionClass@@8
rdata$r	SEGMENT
??_R1A@?0A@EA@SDEConsoleFunctionClass@@8 DD FLAT:??_R0?AVSDEConsoleFunctionClass@@@8 ; SDEConsoleFunctionClass::`RTTI Base Class Descriptor at (0,-1,0,64)'
	DD	01H
	DD	00H
	DD	0ffffffffH
	DD	00H
	DD	040H
	DD	FLAT:??_R3SDEConsoleFunctionClass@@8
rdata$r	ENDS
;	COMDAT ??_R2SDEConsoleFunctionClass@@8
rdata$r	SEGMENT
??_R2SDEConsoleFunctionClass@@8 DD FLAT:??_R1A@?0A@EA@SDEConsoleFunctionClass@@8 ; SDEConsoleFunctionClass::`RTTI Base Class Array'
	DD	FLAT:??_R1A@?0A@EA@ConsoleFunctionClass@@8
rdata$r	ENDS
;	COMDAT ??_R3SDEConsoleFunctionClass@@8
rdata$r	SEGMENT
??_R3SDEConsoleFunctionClass@@8 DD 00H			; SDEConsoleFunctionClass::`RTTI Class Hierarchy Descriptor'
	DD	00H
	DD	02H
	DD	FLAT:??_R2SDEConsoleFunctionClass@@8
rdata$r	ENDS
;	COMDAT ??_R0?AVSDEConsoleFunctionClass@@@8
_DATA	SEGMENT
??_R0?AVSDEConsoleFunctionClass@@@8 DD FLAT:??_7type_info@@6B@ ; SDEConsoleFunctionClass `RTTI Type Descriptor'
	DD	00H
	DB	'.?AVSDEConsoleFunctionClass@@', 00H
_DATA	ENDS
;	COMDAT ??_R4SDEConsoleFunctionClass@@6B@
rdata$r	SEGMENT
??_R4SDEConsoleFunctionClass@@6B@ DD 00H		; SDEConsoleFunctionClass::`RTTI Complete Object Locator'
	DD	00H
	DD	00H
	DD	FLAT:??_R0?AVSDEConsoleFunctionClass@@@8
	DD	FLAT:??_R3SDEConsoleFunctionClass@@8
rdata$r	ENDS
;	COMDAT ??_R1A@?0A@EA@DAC4LockToggleConsoleFunctionClass@@8
rdata$r	SEGMENT
??_R1A@?0A@EA@DAC4LockToggleConsoleFunctionClass@@8 DD FLAT:??_R0?AVDAC4LockToggleConsoleFunctionClass@@@8 ; DAC4LockToggleConsoleFunctionClass::`RTTI Base Class Descriptor at (0,-1,0,64)'
	DD	01H
	DD	00H
	DD	0ffffffffH
	DD	00H
	DD	040H
	DD	FLAT:??_R3DAC4LockToggleConsoleFunctionClass@@8
rdata$r	ENDS
;	COMDAT ??_R2DAC4LockToggleConsoleFunctionClass@@8
rdata$r	SEGMENT
??_R2DAC4LockToggleConsoleFunctionClass@@8 DD FLAT:??_R1A@?0A@EA@DAC4LockToggleConsoleFunctionClass@@8 ; DAC4LockToggleConsoleFunctionClass::`RTTI Base Class Array'
	DD	FLAT:??_R1A@?0A@EA@ConsoleFunctionClass@@8
rdata$r	ENDS
;	COMDAT ??_R3DAC4LockToggleConsoleFunctionClass@@8
rdata$r	SEGMENT
??_R3DAC4LockToggleConsoleFunctionClass@@8 DD 00H	; DAC4LockToggleConsoleFunctionClass::`RTTI Class Hierarchy Descriptor'
	DD	00H
	DD	02H
	DD	FLAT:??_R2DAC4LockToggleConsoleFunctionClass@@8
rdata$r	ENDS
;	COMDAT ??_R0?AVDAC4LockToggleConsoleFunctionClass@@@8
_DATA	SEGMENT
??_R0?AVDAC4LockToggleConsoleFunctionClass@@@8 DD FLAT:??_7type_info@@6B@ ; DAC4LockToggleConsoleFunctionClass `RTTI Type Descriptor'
	DD	00H
	DB	'.?AVDAC4LockToggleConsoleFunctionClass@@', 00H
_DATA	ENDS
;	COMDAT ??_R4DAC4LockToggleConsoleFunctionClass@@6B@
rdata$r	SEGMENT
??_R4DAC4LockToggleConsoleFunctionClass@@6B@ DD 00H	; DAC4LockToggleConsoleFunctionClass::`RTTI Complete Object Locator'
	DD	00H
	DD	00H
	DD	FLAT:??_R0?AVDAC4LockToggleConsoleFunctionClass@@@8
	DD	FLAT:??_R3DAC4LockToggleConsoleFunctionClass@@8
rdata$r	ENDS
;	COMDAT ??_R1A@?0A@EA@DAUnC4LockConsoleFunctionClass@@8
rdata$r	SEGMENT
??_R1A@?0A@EA@DAUnC4LockConsoleFunctionClass@@8 DD FLAT:??_R0?AVDAUnC4LockConsoleFunctionClass@@@8 ; DAUnC4LockConsoleFunctionClass::`RTTI Base Class Descriptor at (0,-1,0,64)'
	DD	01H
	DD	00H
	DD	0ffffffffH
	DD	00H
	DD	040H
	DD	FLAT:??_R3DAUnC4LockConsoleFunctionClass@@8
rdata$r	ENDS
;	COMDAT ??_R2DAUnC4LockConsoleFunctionClass@@8
rdata$r	SEGMENT
??_R2DAUnC4LockConsoleFunctionClass@@8 DD FLAT:??_R1A@?0A@EA@DAUnC4LockConsoleFunctionClass@@8 ; DAUnC4LockConsoleFunctionClass::`RTTI Base Class Array'
	DD	FLAT:??_R1A@?0A@EA@ConsoleFunctionClass@@8
rdata$r	ENDS
;	COMDAT ??_R3DAUnC4LockConsoleFunctionClass@@8
rdata$r	SEGMENT
