; Listing generated by Microsoft (R) Optimizing Compiler Version 17.00.61219.0 

	TITLE	X:\GitHub\Renegade\Dragonade_RxD\scripts\da_squad.cpp
	.686P
	.XMM
	include listing.inc
	.model	flat

INCLUDELIB MSVCRTD
INCLUDELIB OLDNAMES

CONST	SEGMENT
_DONT_MOVE_ARRIVED_DIST DD 0447a0000r		; 1000
CONST	ENDS
PUBLIC	??_H@YGXPAXIHP6EPAX0@Z@Z			; `vector constructor iterator'
PUBLIC	??_I@YGXPAXIHP6EX0@Z@Z				; `vector destructor iterator'
PUBLIC	_acosf
PUBLIC	_asinf
PUBLIC	_atanf
PUBLIC	_atan2f
PUBLIC	_ceilf
PUBLIC	_cosf
PUBLIC	_floorf
PUBLIC	_sinf
PUBLIC	_sqrtf
PUBLIC	?acos@@YAMM@Z					; acos
PUBLIC	?asin@@YAMM@Z					; asin
PUBLIC	?atan@@YAMM@Z					; atan
PUBLIC	?atan2@@YAMMM@Z					; atan2
PUBLIC	?cos@@YAMM@Z					; cos
PUBLIC	?sin@@YAMM@Z					; sin
PUBLIC	?sqrt@@YAMM@Z					; sqrt
PUBLIC	??_U@YAPAXIPAX@Z				; operator new[]
PUBLIC	?Fabs@WWMath@@SAMM@Z				; WWMath::Fabs
PUBLIC	?Float_To_Int_Chop@WWMath@@SAHABM@Z		; WWMath::Float_To_Int_Chop
PUBLIC	?Float_To_Int_Floor@WWMath@@SAHABM@Z		; WWMath::Float_To_Int_Floor
PUBLIC	?Cos@WWMath@@SAMM@Z				; WWMath::Cos
PUBLIC	?Sin@WWMath@@SAMM@Z				; WWMath::Sin
PUBLIC	?Sqrt@WWMath@@SAMM@Z				; WWMath::Sqrt
PUBLIC	?Inv_Sqrt@WWMath@@SIMM@Z			; WWMath::Inv_Sqrt
PUBLIC	?Float_To_Long@WWMath@@SAJM@Z			; WWMath::Float_To_Long
PUBLIC	?Fast_Sin@WWMath@@SAMM@Z			; WWMath::Fast_Sin
PUBLIC	?Fast_Inv_Sin@WWMath@@SAMM@Z			; WWMath::Fast_Inv_Sin
PUBLIC	?Fast_Cos@WWMath@@SAMM@Z			; WWMath::Fast_Cos
PUBLIC	?Fast_Inv_Cos@WWMath@@SAMM@Z			; WWMath::Fast_Inv_Cos
PUBLIC	?Fast_Acos@WWMath@@SAMM@Z			; WWMath::Fast_Acos
PUBLIC	?Fast_Asin@WWMath@@SAMM@Z			; WWMath::Fast_Asin
PUBLIC	?Acos@WWMath@@SAMM@Z				; WWMath::Acos
PUBLIC	?Asin@WWMath@@SAMM@Z				; WWMath::Asin
PUBLIC	?Atan@WWMath@@SAMM@Z				; WWMath::Atan
PUBLIC	?Atan2@WWMath@@SAMMM@Z				; WWMath::Atan2
PUBLIC	?Sign@WWMath@@SAMM@Z				; WWMath::Sign
PUBLIC	?Ceil@WWMath@@SAMM@Z				; WWMath::Ceil
PUBLIC	?Floor@WWMath@@SAMM@Z				; WWMath::Floor
PUBLIC	?Fast_Is_Float_Positive@WWMath@@SA_NABM@Z	; WWMath::Fast_Is_Float_Positive
PUBLIC	?Random_Float@WWMath@@SAMMM@Z			; WWMath::Random_Float
PUBLIC	?Clamp@WWMath@@SAMMMM@Z				; WWMath::Clamp
PUBLIC	?Clamp@WWMath@@SANNNN@Z				; WWMath::Clamp
PUBLIC	?Clamp_Int@WWMath@@SAHHHH@Z			; WWMath::Clamp_Int
PUBLIC	?Wrap@WWMath@@SAMMMM@Z				; WWMath::Wrap
PUBLIC	?Wrap@WWMath@@SANNNN@Z				; WWMath::Wrap
PUBLIC	?Min@WWMath@@SAMMM@Z				; WWMath::Min
PUBLIC	?Max@WWMath@@SAMMM@Z				; WWMath::Max
PUBLIC	?Lerp@WWMath@@SAMMMM@Z				; WWMath::Lerp
PUBLIC	?Lerp@WWMath@@SANNNM@Z				; WWMath::Lerp
PUBLIC	?Lerp@WWMath@@SAHHHM@Z				; WWMath::Lerp
PUBLIC	?Float_To_Long@WWMath@@SAJN@Z			; WWMath::Float_To_Long
PUBLIC	?Unit_Float_To_Byte@WWMath@@SAEM@Z		; WWMath::Unit_Float_To_Byte
PUBLIC	?Byte_To_Unit_Float@WWMath@@SAME@Z		; WWMath::Byte_To_Unit_Float
PUBLIC	?Is_Valid_Float@WWMath@@SA_NM@Z			; WWMath::Is_Valid_Float
PUBLIC	?Is_Valid_Double@WWMath@@SA_NN@Z		; WWMath::Is_Valid_Double
PUBLIC	??4WWMath@@QAEAAV0@ABV0@@Z			; WWMath::operator=
PUBLIC	??B?$RefArrayHelper@M$0EAA@@@QAEPAMXZ		; RefArrayHelper<float,1024>::operator float *
PUBLIC	??0Vector3@@QAE@XZ				; Vector3::Vector3
PUBLIC	??0Vector3@@QAE@ABV0@@Z				; Vector3::Vector3
PUBLIC	??0Vector3@@QAE@MMM@Z				; Vector3::Vector3
PUBLIC	??4Vector3@@QAEAAV0@ABV0@@Z			; Vector3::operator=
PUBLIC	?Set@Vector3@@QAEXMMM@Z				; Vector3::Set
PUBLIC	??AVector3@@QAEAAMH@Z				; Vector3::operator[]
PUBLIC	??AVector3@@QBEABMH@Z				; Vector3::operator[]
PUBLIC	?Normalize@Vector3@@QAEXXZ			; Vector3::Normalize
PUBLIC	?Length@Vector3@@QBEMXZ				; Vector3::Length
PUBLIC	?Length2@Vector3@@QBEMXZ			; Vector3::Length2
PUBLIC	??YVector3@@QAEAAV0@ABV0@@Z			; Vector3::operator+=
PUBLIC	??ZVector3@@QAEAAV0@ABV0@@Z			; Vector3::operator-=
PUBLIC	??XVector3@@QAEAAV0@M@Z				; Vector3::operator*=
PUBLIC	??_0Vector3@@QAEAAV0@M@Z			; Vector3::operator/=
PUBLIC	??D@YA?AVVector3@@ABV0@M@Z			; operator*
PUBLIC	??D@YA?AVVector3@@MABV0@@Z			; operator*
PUBLIC	??H@YA?AVVector3@@ABV0@0@Z			; operator+
PUBLIC	??G@YA?AVVector3@@ABV0@0@Z			; operator-
PUBLIC	?Add@Vector3@@SAXABV1@0PAV1@@Z			; Vector3::Add
PUBLIC	?Subtract@Vector3@@SAXABV1@0PAV1@@Z		; Vector3::Subtract
PUBLIC	?Swap@@YAXAAVVector3@@0@Z			; Swap
PUBLIC	??0GameObjObserverClass@@QAE@XZ			; GameObjObserverClass::GameObjObserverClass
PUBLIC	??1GameObjObserverClass@@UAE@XZ			; GameObjObserverClass::~GameObjObserverClass
PUBLIC	?Set_ID@GameObjObserverClass@@QAEXH@Z		; GameObjObserverClass::Set_ID
PUBLIC	?Get_ID@GameObjObserverClass@@QAEHXZ		; GameObjObserverClass::Get_ID
PUBLIC	?Owner@GameObjObserverClass@@UAEPAVScriptableGameObj@@XZ ; GameObjObserverClass::Owner
PUBLIC	??0GameObjObserverClass@@QAE@ABV0@@Z		; GameObjObserverClass::GameObjObserverClass
PUBLIC	??4GameObjObserverClass@@QAEAAV0@ABV0@@Z	; GameObjObserverClass::operator=
PUBLIC	??_GGameObjObserverClass@@UAEPAXI@Z		; GameObjObserverClass::`scalar deleting destructor'
PUBLIC	??_EGameObjObserverClass@@UAEPAXI@Z		; GameObjObserverClass::`vector deleting destructor'
PUBLIC	??1ScriptClass@@UAE@XZ				; ScriptClass::~ScriptClass
PUBLIC	??0ScriptClass@@QAE@XZ				; ScriptClass::ScriptClass
PUBLIC	??0ScriptClass@@QAE@ABV0@@Z			; ScriptClass::ScriptClass
PUBLIC	??4ScriptClass@@QAEAAV0@ABV0@@Z			; ScriptClass::operator=
PUBLIC	??_GScriptClass@@UAEPAXI@Z			; ScriptClass::`scalar deleting destructor'
PUBLIC	??_EScriptClass@@UAEPAXI@Z			; ScriptClass::`vector deleting destructor'
PUBLIC	?SetFactory@ScriptImpClass@@QAEXPAVScriptFactory@@@Z ; ScriptImpClass::SetFactory
PUBLIC	?Created@ScriptImpClass@@UAEXPAVScriptableGameObj@@@Z ; ScriptImpClass::Created
PUBLIC	?Destroyed@ScriptImpClass@@UAEXPAVScriptableGameObj@@@Z ; ScriptImpClass::Destroyed
PUBLIC	?Killed@ScriptImpClass@@UAEXPAVScriptableGameObj@@0@Z ; ScriptImpClass::Killed
PUBLIC	?Damaged@ScriptImpClass@@UAEXPAVScriptableGameObj@@0M@Z ; ScriptImpClass::Damaged
PUBLIC	?Custom@ScriptImpClass@@UAEXPAVScriptableGameObj@@HH0@Z ; ScriptImpClass::Custom
PUBLIC	?Sound_Heard@ScriptImpClass@@UAEXPAVScriptableGameObj@@ABUCombatSound@@@Z ; ScriptImpClass::Sound_Heard
PUBLIC	?Enemy_Seen@ScriptImpClass@@UAEXPAVScriptableGameObj@@0@Z ; ScriptImpClass::Enemy_Seen
PUBLIC	?Action_Complete@ScriptImpClass@@UAEXPAVScriptableGameObj@@HW4ActionCompleteReason@@@Z ; ScriptImpClass::Action_Complete
PUBLIC	?Timer_Expired@ScriptImpClass@@UAEXPAVScriptableGameObj@@H@Z ; ScriptImpClass::Timer_Expired
PUBLIC	?Animation_Complete@ScriptImpClass@@UAEXPAVScriptableGameObj@@PBD@Z ; ScriptImpClass::Animation_Complete
PUBLIC	?Poked@ScriptImpClass@@UAEXPAVScriptableGameObj@@0@Z ; ScriptImpClass::Poked
PUBLIC	?Entered@ScriptImpClass@@UAEXPAVScriptableGameObj@@0@Z ; ScriptImpClass::Entered
PUBLIC	?Exited@ScriptImpClass@@UAEXPAVScriptableGameObj@@0@Z ; ScriptImpClass::Exited
PUBLIC	?Owner@ScriptImpClass@@UAEPAVScriptableGameObj@@XZ ; ScriptImpClass::Owner
PUBLIC	?Get_Owner_Ptr@ScriptImpClass@@UAEPAPAVScriptableGameObj@@XZ ; ScriptImpClass::Get_Owner_Ptr
PUBLIC	?Save_Data@ScriptImpClass@@UAEXAAVScriptSaver@@@Z ; ScriptImpClass::Save_Data
PUBLIC	?Load_Data@ScriptImpClass@@UAEXAAVScriptLoader@@@Z ; ScriptImpClass::Load_Data
PUBLIC	?Register_Auto_Save_Variables@ScriptImpClass@@UAEXXZ ; ScriptImpClass::Register_Auto_Save_Variables
PUBLIC	?Get_Parameter_Count@ScriptImpClass@@QAEHXZ	; ScriptImpClass::Get_Parameter_Count
PUBLIC	?Get_Int_Parameter@ScriptImpClass@@QAEHH@Z	; ScriptImpClass::Get_Int_Parameter
PUBLIC	?Get_Float_Parameter@ScriptImpClass@@QAEMH@Z	; ScriptImpClass::Get_Float_Parameter
PUBLIC	?Get_Bool_Parameter@ScriptImpClass@@QAE_NPBD@Z	; ScriptImpClass::Get_Bool_Parameter
PUBLIC	?Get_Bool_Parameter@ScriptImpClass@@QAE_NH@Z	; ScriptImpClass::Get_Bool_Parameter
PUBLIC	??0ScriptImpClass@@QAE@ABV0@@Z			; ScriptImpClass::ScriptImpClass
PUBLIC	??4ScriptImpClass@@QAEAAV0@ABV0@@Z		; ScriptImpClass::operator=
PUBLIC	??_GScriptImpClass@@UAEPAXI@Z			; ScriptImpClass::`scalar deleting destructor'
PUBLIC	??_EScriptImpClass@@UAEPAXI@Z			; ScriptImpClass::`vector deleting destructor'
PUBLIC	??0ScriptFactory@@QAE@ABV0@@Z			; ScriptFactory::ScriptFactory
PUBLIC	??4ScriptFactory@@QAEAAV0@ABV0@@Z		; ScriptFactory::operator=
PUBLIC	??_GScriptFactory@@UAEPAXI@Z			; ScriptFactory::`scalar deleting destructor'
PUBLIC	??_EScriptFactory@@UAEPAXI@Z			; ScriptFactory::`vector deleting destructor'
PUBLIC	??4ScriptRegistrar@@QAEAAV0@ABV0@@Z		; ScriptRegistrar::operator=
PUBLIC	?Is_Running@ThreadClass@@QAE_NXZ		; ThreadClass::Is_Running
PUBLIC	?Get_Current_Thread_ID@ThreadClass@@SAHXZ	; ThreadClass::Get_Current_Thread_ID
PUBLIC	?Get_Name@ThreadClass@@QAEPBDXZ			; ThreadClass::Get_Name
PUBLIC	??0ThreadClass@@QAE@ABV0@@Z			; ThreadClass::ThreadClass
PUBLIC	??4ThreadClass@@QAEAAV0@ABV0@@Z			; ThreadClass::operator=
PUBLIC	??_GThreadClass@@UAEPAXI@Z			; ThreadClass::`scalar deleting destructor'
PUBLIC	??_EThreadClass@@UAEPAXI@Z			; ThreadClass::`vector deleting destructor'
PUBLIC	??4CriticalSectionClass@@QAEAAV0@ABV0@@Z	; CriticalSectionClass::operator=
PUBLIC	?Enter@FastCriticalSectionClass@@AAEXXZ		; FastCriticalSectionClass::Enter
PUBLIC	?Leave@FastCriticalSectionClass@@AAEXXZ		; FastCriticalSectionClass::Leave
PUBLIC	??0LockClass@FastCriticalSectionClass@@QAE@AAV1@@Z ; FastCriticalSectionClass::LockClass::LockClass
PUBLIC	??1LockClass@FastCriticalSectionClass@@QAE@XZ	; FastCriticalSectionClass::LockClass::~LockClass
PUBLIC	??0FastCriticalSectionClass@@QAE@XZ		; FastCriticalSectionClass::FastCriticalSectionClass
PUBLIC	?Release_Ref@RefCountClass@@QAEXXZ		; RefCountClass::Release_Ref
PUBLIC	??0StringClass@@QAE@H_N@Z			; StringClass::StringClass
PUBLIC	??0StringClass@@QAE@ABV0@_N@Z			; StringClass::StringClass
PUBLIC	??0StringClass@@QAE@PBD_N@Z			; StringClass::StringClass
PUBLIC	??0StringClass@@QAE@PB_W_N@Z			; StringClass::StringClass
PUBLIC	??1StringClass@@QAE@XZ				; StringClass::~StringClass
PUBLIC	??4StringClass@@QAEABV0@PBD@Z			; StringClass::operator=
PUBLIC	??4StringClass@@QAEABV0@ABV0@@Z			; StringClass::operator=
PUBLIC	??4StringClass@@QAEABV0@PB_W@Z			; StringClass::operator=
PUBLIC	??YStringClass@@QAEABV0@PBD@Z			; StringClass::operator+=
PUBLIC	??YStringClass@@QAEABV0@ABV0@@Z			; StringClass::operator+=
PUBLIC	??H@YA?AVStringClass@@ABV0@0@Z			; operator+
PUBLIC	??H@YA?AVStringClass@@ABV0@PBD@Z		; operator+
PUBLIC	??H@YA?AVStringClass@@PBDABV0@@Z		; operator+
PUBLIC	??AStringClass@@QAEAADH@Z			; StringClass::operator[]
PUBLIC	??BStringClass@@QBEPBDXZ			; StringClass::operator char const *
PUBLIC	?Get_Length@StringClass@@QBEHXZ			; StringClass::Get_Length
PUBLIC	?Store_Length@StringClass@@AAEXH@Z		; StringClass::Store_Length
PUBLIC	?Get_Header@StringClass@@ABEPAU_HEADER@1@XZ	; StringClass::Get_Header
PUBLIC	??_EStringClass@@QAEPAXI@Z			; StringClass::`vector deleting destructor'
PUBLIC	??0WideStringClass@@QAE@ABV0@_N@Z		; WideStringClass::WideStringClass
PUBLIC	??1WideStringClass@@QAE@XZ			; WideStringClass::~WideStringClass
PUBLIC	??4WideStringClass@@QAEABV0@ABV0@@Z		; WideStringClass::operator=
PUBLIC	??4WideStringClass@@QAEABV0@PB_W@Z		; WideStringClass::operator=
PUBLIC	??YWideStringClass@@QAEABV0@PB_W@Z		; WideStringClass::operator+=
PUBLIC	??H@YA?AVWideStringClass@@ABV0@PB_W@Z		; operator+
PUBLIC	??AWideStringClass@@QBE_WH@Z			; WideStringClass::operator[]
PUBLIC	??BWideStringClass@@QBEPB_WXZ			; WideStringClass::operator wchar_t const *
PUBLIC	?Get_Length@WideStringClass@@QBEHXZ		; WideStringClass::Get_Length
PUBLIC	?Is_Empty@WideStringClass@@QBE_NXZ		; WideStringClass::Is_Empty
PUBLIC	?Store_Length@WideStringClass@@AAEXH@Z		; WideStringClass::Store_Length
PUBLIC	?Get_Header@WideStringClass@@ABEPAU_HEADER@1@XZ	; WideStringClass::Get_Header
PUBLIC	??_EWideStringClass@@QAEPAXI@Z			; WideStringClass::`vector deleting destructor'
PUBLIC	??4ChunkLoadClass@@QAEAAV0@ABV0@@Z		; ChunkLoadClass::operator=
PUBLIC	?Set_Contains_Chunks@ChunkSaveClass@@QAEXXZ	; ChunkSaveClass::Set_Contains_Chunks
PUBLIC	??4ChunkSaveClass@@QAEAAV0@ABV0@@Z		; ChunkSaveClass::operator=
PUBLIC	?Is_Present@INIClass@@QBE_NPBD0@Z		; INIClass::Is_Present
PUBLIC	?Section_Present@INIClass@@QBE_NPBD@Z		; INIClass::Section_Present
PUBLIC	?Get_Section_List@INIClass@@QAEAAV?$List@PAUINISection@@@@XZ ; INIClass::Get_Section_List
PUBLIC	?Get_Section_Index@INIClass@@QAEAAV?$IndexClass@HPAUINISection@@@@XZ ; INIClass::Get_Section_Index
PUBLIC	?Get_File_Name@INIClass@@QAEPBDXZ		; INIClass::Get_File_Name
PUBLIC	??0INIClass@@QAE@ABV0@@Z			; INIClass::INIClass
PUBLIC	??4INIClass@@QAEAAV0@ABV0@@Z			; INIClass::operator=
PUBLIC	??_GINIClass@@UAEPAXI@Z				; INIClass::`scalar deleting destructor'
PUBLIC	??_EINIClass@@UAEPAXI@Z				; INIClass::`vector deleting destructor'
PUBLIC	??Cfile_auto_ptr@@QAEPAVFileClass@@XZ		; file_auto_ptr::operator->
PUBLIC	??Bfile_auto_ptr@@QAEPAVFileClass@@XZ		; file_auto_ptr::operator FileClass *
PUBLIC	??Dfile_auto_ptr@@QAEAAVFileClass@@XZ		; file_auto_ptr::operator*
PUBLIC	?get@file_auto_ptr@@QAEPAVFileClass@@XZ		; file_auto_ptr::get
PUBLIC	??4file_auto_ptr@@QAEAAV0@ABV0@@Z		; file_auto_ptr::operator=
PUBLIC	??0Vector4@@QAE@XZ				; Vector4::Vector4
PUBLIC	??0Vector4@@QAE@MMMM@Z				; Vector4::Vector4
PUBLIC	??4Vector4@@QAEAAV0@ABV0@@Z			; Vector4::operator=
PUBLIC	?Set@Vector4@@QAEXMMMM@Z			; Vector4::Set
PUBLIC	??AVector4@@QAEAAMH@Z				; Vector4::operator[]
PUBLIC	??AVector4@@QBEABMH@Z				; Vector4::operator[]
PUBLIC	??YVector4@@QAEAAV0@ABV0@@Z			; Vector4::operator+=
PUBLIC	??ZVector4@@QAEAAV0@ABV0@@Z			; Vector4::operator-=
PUBLIC	??XVector4@@QAEAAV0@M@Z				; Vector4::operator*=
PUBLIC	??AMatrix3D@@QAEAAVVector4@@H@Z			; Matrix3D::operator[]
PUBLIC	??AMatrix3D@@QBEABVVector4@@H@Z			; Matrix3D::operator[]
PUBLIC	??0Matrix3D@@QAE@_N@Z				; Matrix3D::Matrix3D
PUBLIC	??0Matrix3D@@QAE@QAM@Z				; Matrix3D::Matrix3D
PUBLIC	??0Matrix3D@@QAE@ABVVector3@@000@Z		; Matrix3D::Matrix3D
PUBLIC	??0Matrix3D@@QAE@ABVVector3@@M@Z		; Matrix3D::Matrix3D
PUBLIC	??0Matrix3D@@QAE@ABVVector3@@MM@Z		; Matrix3D::Matrix3D
PUBLIC	??0Matrix3D@@QAE@ABVMatrix3@@ABVVector3@@@Z	; Matrix3D::Matrix3D
PUBLIC	??0Matrix3D@@QAE@ABVQuaternion@@ABVVector3@@@Z	; Matrix3D::Matrix3D
PUBLIC	??0Matrix3D@@QAE@ABVVector3@@@Z			; Matrix3D::Matrix3D
PUBLIC	??0Matrix3D@@QAE@ABV0@@Z			; Matrix3D::Matrix3D
PUBLIC	??4Matrix3D@@QAEAAV0@ABV0@@Z			; Matrix3D::operator=
PUBLIC	?Set@Matrix3D@@QAEXQAM@Z			; Matrix3D::Set
PUBLIC	?Set@Matrix3D@@QAEXMMMMMMMMMMMM@Z		; Matrix3D::Set
PUBLIC	?Set@Matrix3D@@QAEXABVVector3@@000@Z		; Matrix3D::Set
PUBLIC	?Set@Matrix3D@@QAEXABVVector3@@M@Z		; Matrix3D::Set
PUBLIC	?Set@Matrix3D@@QAEXABVVector3@@MM@Z		; Matrix3D::Set
PUBLIC	?Set@Matrix3D@@QAEXABVVector3@@@Z		; Matrix3D::Set
PUBLIC	?Get_Translation@Matrix3D@@QBE?AVVector3@@XZ	; Matrix3D::Get_Translation
PUBLIC	?Get_Translation@Matrix3D@@QBEXPAVVector3@@@Z	; Matrix3D::Get_Translation
PUBLIC	?Set_Translation@Matrix3D@@QAEXABVVector3@@@Z	; Matrix3D::Set_Translation
PUBLIC	?Get_X_Translation@Matrix3D@@QBEMXZ		; Matrix3D::Get_X_Translation
PUBLIC	?Get_Y_Translation@Matrix3D@@QBEMXZ		; Matrix3D::Get_Y_Translation
PUBLIC	?Get_Z_Translation@Matrix3D@@QBEMXZ		; Matrix3D::Get_Z_Translation
PUBLIC	?Set_X_Translation@Matrix3D@@QAEXM@Z		; Matrix3D::Set_X_Translation
PUBLIC	?Set_Y_Translation@Matrix3D@@QAEXM@Z		; Matrix3D::Set_Y_Translation
PUBLIC	?Set_Z_Translation@Matrix3D@@QAEXM@Z		; Matrix3D::Set_Z_Translation
PUBLIC	?Adjust_Translation@Matrix3D@@QAEXABVVector3@@@Z ; Matrix3D::Adjust_Translation
PUBLIC	?Adjust_X_Translation@Matrix3D@@QAEXM@Z		; Matrix3D::Adjust_X_Translation
PUBLIC	?Adjust_Y_Translation@Matrix3D@@QAEXM@Z		; Matrix3D::Adjust_Y_Translation
PUBLIC	?Adjust_Z_Translation@Matrix3D@@QAEXM@Z		; Matrix3D::Adjust_Z_Translation
PUBLIC	?Make_Identity@Matrix3D@@QAEXXZ			; Matrix3D::Make_Identity
PUBLIC	?Translate@Matrix3D@@QAEXMMM@Z			; Matrix3D::Translate
PUBLIC	?Translate@Matrix3D@@QAEXABVVector3@@@Z		; Matrix3D::Translate
PUBLIC	?Translate_X@Matrix3D@@QAEXM@Z			; Matrix3D::Translate_X
PUBLIC	?Translate_Y@Matrix3D@@QAEXM@Z			; Matrix3D::Translate_Y
PUBLIC	?Translate_Z@Matrix3D@@QAEXM@Z			; Matrix3D::Translate_Z
PUBLIC	?Rotate_X@Matrix3D@@QAEXM@Z			; Matrix3D::Rotate_X
PUBLIC	?Rotate_Y@Matrix3D@@QAEXM@Z			; Matrix3D::Rotate_Y
PUBLIC	?Rotate_Z@Matrix3D@@QAEXM@Z			; Matrix3D::Rotate_Z
PUBLIC	?Rotate_X@Matrix3D@@QAEXMM@Z			; Matrix3D::Rotate_X
PUBLIC	?Rotate_Y@Matrix3D@@QAEXMM@Z			; Matrix3D::Rotate_Y
PUBLIC	?Rotate_Z@Matrix3D@@QAEXMM@Z			; Matrix3D::Rotate_Z
PUBLIC	?Scale@Matrix3D@@QAEXM@Z			; Matrix3D::Scale
PUBLIC	?Scale@Matrix3D@@QAEXMMM@Z			; Matrix3D::Scale
PUBLIC	?Scale@Matrix3D@@QAEXAAVVector3@@@Z		; Matrix3D::Scale
PUBLIC	?Pre_Rotate_X@Matrix3D@@QAEXM@Z			; Matrix3D::Pre_Rotate_X
PUBLIC	?Pre_Rotate_Y@Matrix3D@@QAEXM@Z			; Matrix3D::Pre_Rotate_Y
PUBLIC	?Pre_Rotate_Z@Matrix3D@@QAEXM@Z			; Matrix3D::Pre_Rotate_Z
PUBLIC	?Pre_Rotate_X@Matrix3D@@QAEXMM@Z		; Matrix3D::Pre_Rotate_X
PUBLIC	?Pre_Rotate_Y@Matrix3D@@QAEXMM@Z		; Matrix3D::Pre_Rotate_Y
PUBLIC	?Pre_Rotate_Z@Matrix3D@@QAEXMM@Z		; Matrix3D::Pre_Rotate_Z
PUBLIC	?In_Place_Pre_Rotate_X@Matrix3D@@QAEXM@Z	; Matrix3D::In_Place_Pre_Rotate_X
PUBLIC	?In_Place_Pre_Rotate_Y@Matrix3D@@QAEXM@Z	; Matrix3D::In_Place_Pre_Rotate_Y
PUBLIC	?In_Place_Pre_Rotate_Z@Matrix3D@@QAEXM@Z	; Matrix3D::In_Place_Pre_Rotate_Z
PUBLIC	?In_Place_Pre_Rotate_X@Matrix3D@@QAEXMM@Z	; Matrix3D::In_Place_Pre_Rotate_X
PUBLIC	?In_Place_Pre_Rotate_Y@Matrix3D@@QAEXMM@Z	; Matrix3D::In_Place_Pre_Rotate_Y
PUBLIC	?In_Place_Pre_Rotate_Z@Matrix3D@@QAEXMM@Z	; Matrix3D::In_Place_Pre_Rotate_Z
PUBLIC	?Transform_Vector@Matrix3D@@SAXABV1@ABVVector3@@PAV2@@Z ; Matrix3D::Transform_Vector
PUBLIC	?Get_X_Vector@Matrix3D@@QBE?AVVector3@@XZ	; Matrix3D::Get_X_Vector
PUBLIC	?Get_Y_Vector@Matrix3D@@QBE?AVVector3@@XZ	; Matrix3D::Get_Y_Vector
PUBLIC	?Get_Z_Vector@Matrix3D@@QBE?AVVector3@@XZ	; Matrix3D::Get_Z_Vector
PUBLIC	?Get_X_Vector@Matrix3D@@QBEXPAVVector3@@@Z	; Matrix3D::Get_X_Vector
PUBLIC	?Get_Y_Vector@Matrix3D@@QBEXPAVVector3@@@Z	; Matrix3D::Get_Y_Vector
PUBLIC	?Get_Z_Vector@Matrix3D@@QBEXPAVVector3@@@Z	; Matrix3D::Get_Z_Vector
PUBLIC	?Rotate_Vector@Matrix3D@@SAXABV1@ABVVector3@@PAV2@@Z ; Matrix3D::Rotate_Vector
PUBLIC	?Inverse_Transform_Vector@Matrix3D@@SAXABV1@ABVVector3@@PAV2@@Z ; Matrix3D::Inverse_Transform_Vector
PUBLIC	?Inverse_Rotate_Vector@Matrix3D@@SAXABV1@ABVVector3@@PAV2@@Z ; Matrix3D::Inverse_Rotate_Vector
PUBLIC	?Is_Delete_Pending@NetworkObjectClass@@QAE_NXZ	; NetworkObjectClass::Is_Delete_Pending
PUBLIC	?Set_Is_Delete_Pending@NetworkObjectClass@@QAEX_N@Z ; NetworkObjectClass::Set_Is_Delete_Pending
PUBLIC	??0Matrix4@@QAE@XZ				; Matrix4::Matrix4
PUBLIC	??0Matrix4@@QAE@ABV0@@Z				; Matrix4::Matrix4
PUBLIC	??0Matrix4@@QAE@_N@Z				; Matrix4::Matrix4
PUBLIC	??0Matrix4@@QAE@ABVMatrix3D@@@Z			; Matrix4::Matrix4
PUBLIC	??0Matrix4@@QAE@ABVVector4@@000@Z		; Matrix4::Matrix4
PUBLIC	?Make_Identity@Matrix4@@QAEXXZ			; Matrix4::Make_Identity
PUBLIC	?Init@Matrix4@@QAEXABVMatrix3D@@@Z		; Matrix4::Init
PUBLIC	?Init@Matrix4@@QAEXABVVector4@@000@Z		; Matrix4::Init
PUBLIC	?Init_Ortho_OGL@Matrix4@@QAEXMMMMMM@Z		; Matrix4::Init_Ortho_OGL
PUBLIC	?Init_Perspective_OGL@Matrix4@@QAEXMMMM@Z	; Matrix4::Init_Perspective_OGL
PUBLIC	?Init_Perspective_OGL@Matrix4@@QAEXMMMMMM@Z	; Matrix4::Init_Perspective_OGL
PUBLIC	?Init_Ortho@Matrix4@@QAEXMMMMMM@Z		; Matrix4::Init_Ortho
PUBLIC	?Init_Perspective@Matrix4@@QAEXMMMMMM@Z		; Matrix4::Init_Perspective
PUBLIC	??AMatrix4@@QAEAAVVector4@@H@Z			; Matrix4::operator[]
PUBLIC	??AMatrix4@@QBEABVVector4@@H@Z			; Matrix4::operator[]
PUBLIC	?Transpose@Matrix4@@QBE?AV1@XZ			; Matrix4::Transpose
PUBLIC	?Determinant@Matrix4@@QBEMXZ			; Matrix4::Determinant
PUBLIC	?Inverse@Matrix4@@QBE?AV1@XZ			; Matrix4::Inverse
PUBLIC	??4Matrix4@@QAEAAV0@ABV0@@Z			; Matrix4::operator=
PUBLIC	??YMatrix4@@QAEAAV0@ABV0@@Z			; Matrix4::operator+=
PUBLIC	??ZMatrix4@@QAEAAV0@ABV0@@Z			; Matrix4::operator-=
PUBLIC	??XMatrix4@@QAEAAV0@M@Z				; Matrix4::operator*=
PUBLIC	??_0Matrix4@@QAEAAV0@M@Z			; Matrix4::operator/=
PUBLIC	?Transform_Vector@Matrix4@@SAXABV1@ABVVector3@@PAV2@@Z ; Matrix4::Transform_Vector
PUBLIC	?Transform_Vector@Matrix4@@SAXABV1@ABVVector3@@PAVVector4@@@Z ; Matrix4::Transform_Vector
PUBLIC	?Transform_Vector@Matrix4@@SAXABV1@ABVVector4@@PAV2@@Z ; Matrix4::Transform_Vector
PUBLIC	??0Matrix3@@QAE@XZ				; Matrix3::Matrix3
PUBLIC	??0Matrix3@@QAE@ABV0@@Z				; Matrix3::Matrix3
PUBLIC	??0Matrix3@@QAE@_N@Z				; Matrix3::Matrix3
PUBLIC	??0Matrix3@@QAE@ABVVector3@@00@Z		; Matrix3::Matrix3
PUBLIC	??0Matrix3@@QAE@MMMMMMMMM@Z			; Matrix3::Matrix3
PUBLIC	??0Matrix3@@QAE@ABVVector3@@M@Z			; Matrix3::Matrix3
PUBLIC	??0Matrix3@@QAE@ABVVector3@@MM@Z		; Matrix3::Matrix3
PUBLIC	??0Matrix3@@QAE@ABVQuaternion@@@Z		; Matrix3::Matrix3
PUBLIC	?Set@Matrix3@@QAEXABVVector3@@00@Z		; Matrix3::Set
PUBLIC	?Set@Matrix3@@QAEXMMMMMMMMM@Z			; Matrix3::Set
PUBLIC	?Set@Matrix3@@QAEXABVVector3@@M@Z		; Matrix3::Set
PUBLIC	?Set@Matrix3@@QAEXABVVector3@@MM@Z		; Matrix3::Set
PUBLIC	??AMatrix3@@QAEAAVVector3@@H@Z			; Matrix3::operator[]
PUBLIC	??AMatrix3@@QBEABVVector3@@H@Z			; Matrix3::operator[]
PUBLIC	?Transpose@Matrix3@@QBE?AV1@XZ			; Matrix3::Transpose
PUBLIC	?Determinant@Matrix3@@QBEMXZ			; Matrix3::Determinant
PUBLIC	??4Matrix3@@QAEAAV0@ABV0@@Z			; Matrix3::operator=
PUBLIC	??YMatrix3@@QAEAAV0@ABV0@@Z			; Matrix3::operator+=
PUBLIC	??ZMatrix3@@QAEAAV0@ABV0@@Z			; Matrix3::operator-=
PUBLIC	??XMatrix3@@QAEAAV0@M@Z				; Matrix3::operator*=
PUBLIC	??_0Matrix3@@QAEAAV0@M@Z			; Matrix3::operator/=
PUBLIC	?Make_Identity@Matrix3@@QAEXXZ			; Matrix3::Make_Identity
PUBLIC	?Rotate_X@Matrix3@@QAEXM@Z			; Matrix3::Rotate_X
PUBLIC	?Rotate_X@Matrix3@@QAEXMM@Z			; Matrix3::Rotate_X
PUBLIC	?Rotate_Y@Matrix3@@QAEXM@Z			; Matrix3::Rotate_Y
PUBLIC	?Rotate_Y@Matrix3@@QAEXMM@Z			; Matrix3::Rotate_Y
PUBLIC	?Rotate_Z@Matrix3@@QAEXM@Z			; Matrix3::Rotate_Z
PUBLIC	?Rotate_Z@Matrix3@@QAEXMM@Z			; Matrix3::Rotate_Z
PUBLIC	?Get_X_Rotation@Matrix3@@QBEMXZ			; Matrix3::Get_X_Rotation
PUBLIC	?Get_Y_Rotation@Matrix3@@QBEMXZ			; Matrix3::Get_Y_Rotation
PUBLIC	?Get_Z_Rotation@Matrix3@@QBEMXZ			; Matrix3::Get_Z_Rotation
PUBLIC	?Get_X_Vector@Matrix3@@QBE?AVVector3@@XZ	; Matrix3::Get_X_Vector
PUBLIC	?Get_Y_Vector@Matrix3@@QBE?AVVector3@@XZ	; Matrix3::Get_Y_Vector
PUBLIC	?Get_Z_Vector@Matrix3@@QBE?AVVector3@@XZ	; Matrix3::Get_Z_Vector
PUBLIC	?Get_X_Vector@Matrix3@@QBEXPAVVector3@@@Z	; Matrix3::Get_X_Vector
PUBLIC	?Get_Y_Vector@Matrix3@@QBEXPAVVector3@@@Z	; Matrix3::Get_Y_Vector
PUBLIC	?Get_Z_Vector@Matrix3@@QBEXPAVVector3@@@Z	; Matrix3::Get_Z_Vector
PUBLIC	??D@YA?AVVector3@@ABVMatrix3@@ABV0@@Z		; operator*
PUBLIC	?Add@Matrix3@@SAXABV1@0PAV1@@Z			; Matrix3::Add
PUBLIC	?Subtract@Matrix3@@SAXABV1@0PAV1@@Z		; Matrix3::Subtract
PUBLIC	?Rotate_Vector@Matrix3@@SAXABV1@ABVVector3@@PAV2@@Z ; Matrix3::Rotate_Vector
PUBLIC	?Transpose_Rotate_Vector@Matrix3@@SAXABV1@ABVVector3@@PAV2@@Z ; Matrix3::Transpose_Rotate_Vector
PUBLIC	?Rotate_AABox_Extent@Matrix3@@QAEXABVVector3@@PAV2@@Z ; Matrix3::Rotate_AABox_Extent
PUBLIC	?Inverse@Matrix3@@QBE?AV1@XZ			; Matrix3::Inverse
PUBLIC	??4SysTimeClass@@QAEAAV0@ABV0@@Z		; SysTimeClass::operator=
PUBLIC	?Is_Valid@DataSafeHandleClass@@QBE_NXZ		; DataSafeHandleClass::Is_Valid
PUBLIC	??BDataSafeHandleClass@@QAEHXZ			; DataSafeHandleClass::operator int
PUBLIC	?Security_Check@GenericDataSafeClass@@KAXXZ	; GenericDataSafeClass::Security_Check
PUBLIC	?Security_Fault@GenericDataSafeClass@@KAXXZ	; GenericDataSafeClass::Security_Fault
PUBLIC	??B?$RefArray@PAVDataSafeEntryListClass@@$0CAAA@@@QAEPAPAVDataSafeEntryListClass@@XZ ; RefArray<DataSafeEntryListClass *,8192>::operator DataSafeEntryListClass * *
PUBLIC	?Get@?$DataSafeClass@H@@SA_NVDataSafeHandleClass@@AAPAH@Z ; DataSafeClass<int>::Get
PUBLIC	??0PostLoadableClass@@QAE@XZ			; PostLoadableClass::PostLoadableClass
PUBLIC	??1PostLoadableClass@@UAE@XZ			; PostLoadableClass::~PostLoadableClass
PUBLIC	?On_Post_Load@PostLoadableClass@@UAEXXZ		; PostLoadableClass::On_Post_Load
PUBLIC	?Is_Post_Load_Registered@PostLoadableClass@@QBE_NXZ ; PostLoadableClass::Is_Post_Load_Registered
PUBLIC	?Set_Post_Load_Registered@PostLoadableClass@@QAEX_N@Z ; PostLoadableClass::Set_Post_Load_Registered
PUBLIC	??0PostLoadableClass@@QAE@ABV0@@Z		; PostLoadableClass::PostLoadableClass
PUBLIC	??4PostLoadableClass@@QAEAAV0@ABV0@@Z		; PostLoadableClass::operator=
PUBLIC	??_GPostLoadableClass@@UAEPAXI@Z		; PostLoadableClass::`scalar deleting destructor'
PUBLIC	??_EPostLoadableClass@@UAEPAXI@Z		; PostLoadableClass::`vector deleting destructor'
PUBLIC	??CReferencerClass@@QAEPAVScriptableGameObj@@XZ	; ReferencerClass::operator->
PUBLIC	??0ReferencerClass@@QAE@XZ			; ReferencerClass::ReferencerClass
PUBLIC	??0ReferencerClass@@QAE@PAVScriptableGameObj@@@Z ; ReferencerClass::ReferencerClass
PUBLIC	?Get_Ptr@ReferencerClass@@QBEPAVScriptableGameObj@@XZ ; ReferencerClass::Get_Ptr
PUBLIC	?Set_Ptr@ReferencerClass@@QAEXPAVScriptableGameObj@@@Z ; ReferencerClass::Set_Ptr
PUBLIC	??0ReferencerClass@@QAE@ABV0@@Z			; ReferencerClass::ReferencerClass
PUBLIC	??_GReferencerClass@@UAEPAXI@Z			; ReferencerClass::`scalar deleting destructor'
PUBLIC	??_EReferencerClass@@UAEPAXI@Z			; ReferencerClass::`vector deleting destructor'
PUBLIC	?Get_Data@?$ReferenceableClass@VScriptableGameObj@@@@IBEPAVScriptableGameObj@@XZ ; ReferenceableClass<ScriptableGameObj>::Get_Data
PUBLIC	??A?$VectorClass@VStringClass@@@@QBEABVStringClass@@H@Z ; VectorClass<StringClass>::operator[]
PUBLIC	?Count@?$DynamicVectorClass@VStringClass@@@@QBEHXZ ; DynamicVectorClass<StringClass>::Count
PUBLIC	??0LineSegClass@@QAE@XZ				; LineSegClass::LineSegClass
PUBLIC	??0LineSegClass@@QAE@ABVVector3@@0@Z		; LineSegClass::LineSegClass
PUBLIC	??0LineSegClass@@QAE@ABVVector3@@0M@Z		; LineSegClass::LineSegClass
PUBLIC	??0LineSegClass@@QAE@ABV0@ABVMatrix3D@@@Z	; LineSegClass::LineSegClass
PUBLIC	?Set@LineSegClass@@QAEXABVVector3@@0@Z		; LineSegClass::Set
PUBLIC	?Set@LineSegClass@@QAEXABVVector3@@0M@Z		; LineSegClass::Set
PUBLIC	?Get_P0@LineSegClass@@QBEABVVector3@@XZ		; LineSegClass::Get_P0
PUBLIC	?Get_P1@LineSegClass@@QBEABVVector3@@XZ		; LineSegClass::Get_P1
PUBLIC	?Get_DP@LineSegClass@@QBEABVVector3@@XZ		; LineSegClass::Get_DP
PUBLIC	?Get_Dir@LineSegClass@@QBEABVVector3@@XZ	; LineSegClass::Get_Dir
PUBLIC	?Get_Length@LineSegClass@@QBEMXZ		; LineSegClass::Get_Length
PUBLIC	?Compute_Point@LineSegClass@@QBEXMPAVVector3@@@Z ; LineSegClass::Compute_Point
PUBLIC	?recalculate@LineSegClass@@IAEXXZ		; LineSegClass::recalculate
PUBLIC	??0LineSegClass@@QAE@ABV0@@Z			; LineSegClass::LineSegClass
PUBLIC	??4LineSegClass@@QAEAAV0@ABV0@@Z		; LineSegClass::operator=
PUBLIC	?Get_Position@PhysClass@@QBEXPAVVector3@@@Z	; PhysClass::Get_Position
PUBLIC	?Peek_Physical_Object@PhysicalGameObj@@QBEPAVPhysClass@@XZ ; PhysicalGameObj::Peek_Physical_Object
PUBLIC	?Get_Position@PhysicalGameObj@@QAE?AVVector3@@XZ ; PhysicalGameObj::Get_Position
PUBLIC	?Set_Radar_Blip_Shape_Type@PhysicalGameObj@@QAEXH@Z ; PhysicalGameObj::Set_Radar_Blip_Shape_Type
PUBLIC	?Set_Radar_Blip_Color_Type@PhysicalGameObj@@QAEXH@Z ; PhysicalGameObj::Set_Radar_Blip_Color_Type
PUBLIC	??R?$SafeDataClass@H@@QBEAAHXZ			; SafeDataClass<int>::operator()
PUBLIC	??B?$SafeDataClass@H@@QBEHXZ			; SafeDataClass<int>::operator int
PUBLIC	?Get_Id@cPlayer@@QBEHXZ				; cPlayer::Get_Id
PUBLIC	?Is_Active@cPlayer@@QAE_NXZ			; cPlayer::Is_Active
PUBLIC	?Get_Name@cPlayer@@QBEABVWideStringClass@@XZ	; cPlayer::Get_Name
PUBLIC	?Get_Player_Type@cPlayer@@QBEHXZ		; cPlayer::Get_Player_Type
PUBLIC	?Get_DA_Player@cPlayer@@QAEPAVDAPlayerClass@@XZ	; cPlayer::Get_DA_Player
PUBLIC	?Get_GameObj@cPlayer@@QBEPAVSoldierGameObj@@XZ	; cPlayer::Get_GameObj
PUBLIC	?Get_Current_Players@cGameData@@QBEHXZ		; cGameData::Get_Current_Players
PUBLIC	?Get_Game_Duration_S@cGameData@@QBEIXZ		; cGameData::Get_Game_Duration_S
PUBLIC	??2?$AutoPoolClass@VGenericSLNode@@$0BAA@@@SAPAXIPBDI0@Z ; AutoPoolClass<GenericSLNode,256>::operator new
PUBLIC	??3?$AutoPoolClass@VGenericSLNode@@$0BAA@@@SAXPAX@Z ; AutoPoolClass<GenericSLNode,256>::operator delete
PUBLIC	??0GenericSLNode@@IAE@PAX@Z			; GenericSLNode::GenericSLNode
PUBLIC	??0JFW_Key_Hook_Base@@QAE@XZ			; JFW_Key_Hook_Base::JFW_Key_Hook_Base
PUBLIC	??0JFW_Key_Hook_Base@@QAE@ABV0@@Z		; JFW_Key_Hook_Base::JFW_Key_Hook_Base
PUBLIC	??4JFW_Key_Hook_Base@@QAEAAV0@ABV0@@Z		; JFW_Key_Hook_Base::operator=
PUBLIC	??_GJFW_Key_Hook_Base@@UAEPAXI@Z		; JFW_Key_Hook_Base::`scalar deleting destructor'
PUBLIC	??_EJFW_Key_Hook_Base@@UAEPAXI@Z		; JFW_Key_Hook_Base::`vector deleting destructor'
PUBLIC	??0?$SList@UKeyHookWrapperStruct@MultiKeyHookScriptImpClass@@@@QAE@XZ ; SList<MultiKeyHookScriptImpClass::KeyHookWrapperStruct>::SList<MultiKeyHookScriptImpClass::KeyHookWrapperStruct>
PUBLIC	??1?$SList@UKeyHookWrapperStruct@MultiKeyHookScriptImpClass@@@@UAE@XZ ; SList<MultiKeyHookScriptImpClass::KeyHookWrapperStruct>::~SList<MultiKeyHookScriptImpClass::KeyHookWrapperStruct>
PUBLIC	?Add_Head@?$SList@UKeyHookWrapperStruct@MultiKeyHookScriptImpClass@@@@UAE_NPAUKeyHookWrapperStruct@MultiKeyHookScriptImpClass@@@Z ; SList<MultiKeyHookScriptImpClass::KeyHookWrapperStruct>::Add_Head
PUBLIC	?Add_Head@?$SList@UKeyHookWrapperStruct@MultiKeyHookScriptImpClass@@@@UAE_NAAV1@@Z ; SList<MultiKeyHookScriptImpClass::KeyHookWrapperStruct>::Add_Head
PUBLIC	?Add_Tail@?$SList@UKeyHookWrapperStruct@MultiKeyHookScriptImpClass@@@@UAE_NPAUKeyHookWrapperStruct@MultiKeyHookScriptImpClass@@@Z ; SList<MultiKeyHookScriptImpClass::KeyHookWrapperStruct>::Add_Tail
PUBLIC	?Add_Tail@?$SList@UKeyHookWrapperStruct@MultiKeyHookScriptImpClass@@@@UAE_NAAV1@@Z ; SList<MultiKeyHookScriptImpClass::KeyHookWrapperStruct>::Add_Tail
PUBLIC	?Remove_Head@?$SList@UKeyHookWrapperStruct@MultiKeyHookScriptImpClass@@@@UAEPAUKeyHookWrapperStruct@MultiKeyHookScriptImpClass@@XZ ; SList<MultiKeyHookScriptImpClass::KeyHookWrapperStruct>::Remove_Head
PUBLIC	?Remove_Tail@?$SList@UKeyHookWrapperStruct@MultiKeyHookScriptImpClass@@@@UAEPAUKeyHookWrapperStruct@MultiKeyHookScriptImpClass@@XZ ; SList<MultiKeyHookScriptImpClass::KeyHookWrapperStruct>::Remove_Tail
PUBLIC	?Remove@?$SList@UKeyHookWrapperStruct@MultiKeyHookScriptImpClass@@@@UAE_NPBUKeyHookWrapperStruct@MultiKeyHookScriptImpClass@@@Z ; SList<MultiKeyHookScriptImpClass::KeyHookWrapperStruct>::Remove
PUBLIC	?Remove_All@?$SList@UKeyHookWrapperStruct@MultiKeyHookScriptImpClass@@@@UAEXXZ ; SList<MultiKeyHookScriptImpClass::KeyHookWrapperStruct>::Remove_All
PUBLIC	?Insert_Before@?$SList@UKeyHookWrapperStruct@MultiKeyHookScriptImpClass@@@@UAE_NPAUKeyHookWrapperStruct@MultiKeyHookScriptImpClass@@PBU23@@Z ; SList<MultiKeyHookScriptImpClass::KeyHookWrapperStruct>::Insert_Before
PUBLIC	?Insert_After@?$SList@UKeyHookWrapperStruct@MultiKeyHookScriptImpClass@@@@UAE_NPAUKeyHookWrapperStruct@MultiKeyHookScriptImpClass@@PBU23@@Z ; SList<MultiKeyHookScriptImpClass::KeyHookWrapperStruct>::Insert_After
PUBLIC	?Is_Empty@?$SList@UKeyHookWrapperStruct@MultiKeyHookScriptImpClass@@@@UBE_NXZ ; SList<MultiKeyHookScriptImpClass::KeyHookWrapperStruct>::Is_Empty
PUBLIC	?Get_Count@?$SList@UKeyHookWrapperStruct@MultiKeyHookScriptImpClass@@@@UBEIXZ ; SList<MultiKeyHookScriptImpClass::KeyHookWrapperStruct>::Get_Count
PUBLIC	??0?$SList@UKeyHookWrapperStruct@MultiKeyHookScriptImpClass@@@@QAE@ABV0@@Z ; SList<MultiKeyHookScriptImpClass::KeyHookWrapperStruct>::SList<MultiKeyHookScriptImpClass::KeyHookWrapperStruct>
PUBLIC	??4?$SList@UKeyHookWrapperStruct@MultiKeyHookScriptImpClass@@@@QAEAAV0@ABV0@@Z ; SList<MultiKeyHookScriptImpClass::KeyHookWrapperStruct>::operator=
PUBLIC	??_G?$SList@UKeyHookWrapperStruct@MultiKeyHookScriptImpClass@@@@UAEPAXI@Z ; SList<MultiKeyHookScriptImpClass::KeyHookWrapperStruct>::`scalar deleting destructor'
PUBLIC	??0MultiKeyHookScriptImpClass@@QAE@XZ		; MultiKeyHookScriptImpClass::MultiKeyHookScriptImpClass
PUBLIC	??1MultiKeyHookScriptImpClass@@UAE@XZ		; MultiKeyHookScriptImpClass::~MultiKeyHookScriptImpClass
PUBLIC	??0MultiKeyHookScriptImpClass@@QAE@ABV0@@Z	; MultiKeyHookScriptImpClass::MultiKeyHookScriptImpClass
PUBLIC	??4MultiKeyHookScriptImpClass@@QAEAAV0@ABV0@@Z	; MultiKeyHookScriptImpClass::operator=
PUBLIC	??_GMultiKeyHookScriptImpClass@@UAEPAXI@Z	; MultiKeyHookScriptImpClass::`scalar deleting destructor'
PUBLIC	??_EMultiKeyHookScriptImpClass@@UAEPAXI@Z	; MultiKeyHookScriptImpClass::`vector deleting destructor'
PUBLIC	??0JFW_Object_Created_Hook_Base@@QAE@XZ		; JFW_Object_Created_Hook_Base::JFW_Object_Created_Hook_Base
PUBLIC	??0JFW_Object_Created_Hook_Base@@QAE@ABV0@@Z	; JFW_Object_Created_Hook_Base::JFW_Object_Created_Hook_Base
PUBLIC	??4JFW_Object_Created_Hook_Base@@QAEAAV0@ABV0@@Z ; JFW_Object_Created_Hook_Base::operator=
PUBLIC	??_GJFW_Object_Created_Hook_Base@@UAEPAXI@Z	; JFW_Object_Created_Hook_Base::`scalar deleting destructor'
PUBLIC	??_EJFW_Object_Created_Hook_Base@@UAEPAXI@Z	; JFW_Object_Created_Hook_Base::`vector deleting destructor'
PUBLIC	??1CollideableObjClass@AnimCollisionManagerClass@@QAE@XZ ; AnimCollisionManagerClass::CollideableObjClass::~CollideableObjClass
PUBLIC	??_ECollideableObjClass@AnimCollisionManagerClass@@QAEPAXI@Z ; AnimCollisionManagerClass::CollideableObjClass::`vector deleting destructor'
PUBLIC	??0CollisionTestClass@@QAE@PAUCastResultStruct@@W4Collision_Type@@@Z ; CollisionTestClass::CollisionTestClass
PUBLIC	??0CollisionTestClass@@QAE@ABV0@@Z		; CollisionTestClass::CollisionTestClass
PUBLIC	??4CollisionTestClass@@QAEAAV0@ABV0@@Z		; CollisionTestClass::operator=
PUBLIC	?Cull@AABoxCollisionTestClass@@QAE_NABVVector3@@0@Z ; AABoxCollisionTestClass::Cull
PUBLIC	?Translate@AABoxCollisionTestClass@@QAEXABVVector3@@@Z ; AABoxCollisionTestClass::Translate
PUBLIC	?Cull@OBBoxCollisionTestClass@@QAE_NABVVector3@@0@Z ; OBBoxCollisionTestClass::Cull
PUBLIC	??4ArmorWarheadManager@@QAEAAV0@ABV0@@Z		; ArmorWarheadManager::operator=
PUBLIC	?Get_Vehicle@SoldierGameObj@@QAEPAVVehicleGameObj@@XZ ; SoldierGameObj::Get_Vehicle
PUBLIC	?Make_Possessive@@YA?AVWideStringClass@@ABV1@@Z	; Make_Possessive
PUBLIC	??ADATokenClass@@QBEABVStringClass@@H@Z		; DATokenClass::operator[]
PUBLIC	?Size@DATokenClass@@QBEHXZ			; DATokenClass::Size
PUBLIC	?Get_Message_Prefix@DA@@SAABVStringClass@@XZ	; DA::Get_Message_Prefix
PUBLIC	?Get_Console_Function_List@DA@@SAAAV?$DynamicVectorClass@PAVConsoleFunctionClass@@@@XZ ; DA::Get_Console_Function_List
PUBLIC	??4DA@@QAEAAV0@ABV0@@Z				; DA::operator=
PUBLIC	?Diff@@YAHHH@Z					; Diff
PUBLIC	??4DAEventManager@@QAEAAV0@ABV0@@Z		; DAEventManager::operator=
PUBLIC	?Register_Event@DAEventClass@@QAEXW4Type@DAEvent@@H@Z ; DAEventClass::Register_Event
PUBLIC	?Unregister_Event@DAEventClass@@QAEXW4Type@DAEvent@@@Z ; DAEventClass::Unregister_Event
PUBLIC	?Clear_Events@DAEventClass@@QAEXXZ		; DAEventClass::Clear_Events
PUBLIC	?Register_Object_Event@DAEventClass@@QAEXW4Type@DAObjectEvent@@W4ObjectType@3@H@Z ; DAEventClass::Register_Object_Event
PUBLIC	?Unregister_Object_Event@DAEventClass@@QAEXW4Type@DAObjectEvent@@@Z ; DAEventClass::Unregister_Object_Event
PUBLIC	?Clear_Object_Events@DAEventClass@@QAEXXZ	; DAEventClass::Clear_Object_Events
PUBLIC	?Start_Timer@DAEventClass@@QAEXHM_NI@Z		; DAEventClass::Start_Timer
PUBLIC	?Stop_Timer@DAEventClass@@QAEXHI@Z		; DAEventClass::Stop_Timer
PUBLIC	?Is_Timer@DAEventClass@@QAE_NHI@Z		; DAEventClass::Is_Timer
PUBLIC	?Clear_Timers@DAEventClass@@QAEXXZ		; DAEventClass::Clear_Timers
PUBLIC	?Settings_Loaded_Event@DAEventClass@@UAEXXZ	; DAEventClass::Settings_Loaded_Event
PUBLIC	?Chat_Event@DAEventClass@@UAE_NPAVcPlayer@@W4TextMessageEnum@@PB_WH@Z ; DAEventClass::Chat_Event
PUBLIC	?Chat_Command_Event@DAEventClass@@UAE_NPAVcPlayer@@W4TextMessageEnum@@ABVStringClass@@ABVDATokenClass@@H@Z ; DAEventClass::Chat_Command_Event
PUBLIC	?Key_Hook_Event@DAEventClass@@UAE_NPAVcPlayer@@ABVStringClass@@@Z ; DAEventClass::Key_Hook_Event
PUBLIC	?Host_Chat_Event@DAEventClass@@UAE_NHW4TextMessageEnum@@PBD@Z ; DAEventClass::Host_Chat_Event
PUBLIC	?Radio_Event@DAEventClass@@UAE_NPAVcPlayer@@HHHW4AnnouncementEnum@@@Z ; DAEventClass::Radio_Event
PUBLIC	?Connection_Request_Event@DAEventClass@@UAE?AW4STATUS@ConnectionAcceptanceFilter@@AAUConnectionRequest@@AAVWideStringClass@@@Z ; DAEventClass::Connection_Request_Event
PUBLIC	?Player_Pre_Join_Event@DAEventClass@@UAEXAAUConnectionRequest@@@Z ; DAEventClass::Player_Pre_Join_Event
PUBLIC	?Player_Join_Event@DAEventClass@@UAEXPAVcPlayer@@@Z ; DAEventClass::Player_Join_Event
PUBLIC	?Player_Leave_Event@DAEventClass@@UAEXPAVcPlayer@@@Z ; DAEventClass::Player_Leave_Event
PUBLIC	?Player_Loaded_Event@DAEventClass@@UAEXPAVcPlayer@@@Z ; DAEventClass::Player_Loaded_Event
PUBLIC	?Name_Change_Event@DAEventClass@@UAEXPAVcPlayer@@@Z ; DAEventClass::Name_Change_Event
PUBLIC	?Level_Loaded_Event@DAEventClass@@UAEXXZ	; DAEventClass::Level_Loaded_Event
PUBLIC	?Remix_Event@DAEventClass@@UAEXXZ		; DAEventClass::Remix_Event
PUBLIC	?Rebalance_Event@DAEventClass@@UAEXXZ		; DAEventClass::Rebalance_Event
PUBLIC	?Swap_Event@DAEventClass@@UAEXXZ		; DAEventClass::Swap_Event
PUBLIC	?Game_Over_Event@DAEventClass@@UAEXXZ		; DAEventClass::Game_Over_Event
PUBLIC	?Console_Output_Event@DAEventClass@@UAEXPBD@Z	; DAEventClass::Console_Output_Event
PUBLIC	?Ren_Log_Event@DAEventClass@@UAEXPBD@Z		; DAEventClass::Ren_Log_Event
PUBLIC	?DA_Log_Event@DAEventClass@@UAEXPBD0@Z		; DAEventClass::DA_Log_Event
PUBLIC	?Character_Purchase_Request_Event@DAEventClass@@UAEHPAVBaseControllerClass@@PAVcPlayer@@AAMPBVSoldierGameObjDef@@@Z ; DAEventClass::Character_Purchase_Request_Event
PUBLIC	?Vehicle_Purchase_Request_Event@DAEventClass@@UAEHPAVBaseControllerClass@@PAVcPlayer@@AAMPBVVehicleGameObjDef@@@Z ; DAEventClass::Vehicle_Purchase_Request_Event
PUBLIC	?PowerUp_Purchase_Request_Event@DAEventClass@@UAEHPAVBaseControllerClass@@PAVcPlayer@@AAMPBVPowerUpGameObjDef@@@Z ; DAEventClass::PowerUp_Purchase_Request_Event
PUBLIC	?Custom_Purchase_Request_Event@DAEventClass@@UAEHPAVBaseControllerClass@@PAVcPlayer@@AAMI@Z ; DAEventClass::Custom_Purchase_Request_Event
PUBLIC	?Character_Purchase_Event@DAEventClass@@UAEXPAVcPlayer@@MPBVSoldierGameObjDef@@@Z ; DAEventClass::Character_Purchase_Event
PUBLIC	?Vehicle_Purchase_Event@DAEventClass@@UAEXPAVcPlayer@@MPBVVehicleGameObjDef@@@Z ; DAEventClass::Vehicle_Purchase_Event
PUBLIC	?PowerUp_Purchase_Event@DAEventClass@@UAEXPAVcPlayer@@MPBVPowerUpGameObjDef@@@Z ; DAEventClass::PowerUp_Purchase_Event
PUBLIC	?Custom_Purchase_Event@DAEventClass@@UAEXPAVcPlayer@@MI@Z ; DAEventClass::Custom_Purchase_Event
PUBLIC	?Refill_Event@DAEventClass@@UAE_NPAVcPlayer@@@Z	; DAEventClass::Refill_Event
PUBLIC	?Suicide_Event@DAEventClass@@UAE_NPAVcPlayer@@@Z ; DAEventClass::Suicide_Event
PUBLIC	?Team_Change_Request_Event@DAEventClass@@UAE_NPAVcPlayer@@@Z ; DAEventClass::Team_Change_Request_Event
PUBLIC	?Team_Change_Event@DAEventClass@@UAEXPAVcPlayer@@@Z ; DAEventClass::Team_Change_Event
PUBLIC	?Vehicle_Entry_Request_Event@DAEventClass@@UAE_NPAVVehicleGameObj@@PAVcPlayer@@AAH@Z ; DAEventClass::Vehicle_Entry_Request_Event
PUBLIC	?Vehicle_Enter_Event@DAEventClass@@UAEXPAVVehicleGameObj@@PAVcPlayer@@H@Z ; DAEventClass::Vehicle_Enter_Event
PUBLIC	?Vehicle_Exit_Event@DAEventClass@@UAEXPAVVehicleGameObj@@PAVcPlayer@@H@Z ; DAEventClass::Vehicle_Exit_Event
PUBLIC	?PowerUp_Grant_Request_Event@DAEventClass@@UAE_NPAVcPlayer@@PBVPowerUpGameObjDef@@PAVPowerUpGameObj@@@Z ; DAEventClass::PowerUp_Grant_Request_Event
PUBLIC	?PowerUp_Grant_Event@DAEventClass@@UAEXPAVcPlayer@@PBVPowerUpGameObjDef@@PAVPowerUpGameObj@@@Z ; DAEventClass::PowerUp_Grant_Event
PUBLIC	?Add_Weapon_Request_Event@DAEventClass@@UAE_NPAVcPlayer@@PBVWeaponDefinitionClass@@@Z ; DAEventClass::Add_Weapon_Request_Event
PUBLIC	?Add_Weapon_Event@DAEventClass@@UAEXPAVcPlayer@@PAVWeaponClass@@@Z ; DAEventClass::Add_Weapon_Event
PUBLIC	?Remove_Weapon_Event@DAEventClass@@UAEXPAVcPlayer@@PAVWeaponClass@@@Z ; DAEventClass::Remove_Weapon_Event
PUBLIC	?Clear_Weapons_Event@DAEventClass@@UAEXPAVcPlayer@@@Z ; DAEventClass::Clear_Weapons_Event
PUBLIC	?Beacon_Deploy_Event@DAEventClass@@UAEXPAVBeaconGameObj@@@Z ; DAEventClass::Beacon_Deploy_Event
PUBLIC	?Beacon_Detonate_Event@DAEventClass@@UAEXPAVBeaconGameObj@@@Z ; DAEventClass::Beacon_Detonate_Event
PUBLIC	?C4_Detonate_Request_Event@DAEventClass@@UAE_NPAVC4GameObj@@PAVSmartGameObj@@@Z ; DAEventClass::C4_Detonate_Request_Event
PUBLIC	?C4_Detonate_Event@DAEventClass@@UAEXPAVC4GameObj@@@Z ; DAEventClass::C4_Detonate_Event
PUBLIC	?Change_Character_Event@DAEventClass@@UAEXPAVcPlayer@@PBVSoldierGameObjDef@@@Z ; DAEventClass::Change_Character_Event
PUBLIC	?Vehicle_Flip_Event@DAEventClass@@UAE_NPAVVehicleGameObj@@@Z ; DAEventClass::Vehicle_Flip_Event
PUBLIC	?Request_Vehicle_Event@DAEventClass@@UAE_NPAVVehicleFactoryGameObj@@PBVVehicleGameObjDef@@PAVcPlayer@@MPAVSoldierGameObj@@@Z ; DAEventClass::Request_Vehicle_Event
PUBLIC	?Think@DAEventClass@@UAEXXZ			; DAEventClass::Think
PUBLIC	?Dialog_Event@DAEventClass@@UAEXPAVcPlayer@@W4DialogMessageType@@PAVScriptedDialogClass@@PAVScriptedControlClass@@@Z ; DAEventClass::Dialog_Event
PUBLIC	?Object_Created_Event@DAEventClass@@UAEXPAVScriptableGameObj@@@Z ; DAEventClass::Object_Created_Event
PUBLIC	?Stock_Client_Damage_Request_Event@DAEventClass@@UAE_NPAVDamageableGameObj@@PAVArmedGameObj@@MI@Z ; DAEventClass::Stock_Client_Damage_Request_Event
PUBLIC	?TT_Client_Damage_Request_Event@DAEventClass@@UAE_NPAVDamageableGameObj@@PAVArmedGameObj@@PBVAmmoDefinitionClass@@PBD@Z ; DAEventClass::TT_Client_Damage_Request_Event
PUBLIC	?Damage_Request_Event@DAEventClass@@UAE_NPAVDamageableGameObj@@PAVArmedGameObj@@AAMAAIMW4Type@DADamageType@@@Z ; DAEventClass::Damage_Request_Event
PUBLIC	?Damage_Event@DAEventClass@@UAEXPAVDamageableGameObj@@PAVArmedGameObj@@MIMW4Type@DADamageType@@@Z ; DAEventClass::Damage_Event
PUBLIC	?Kill_Event@DAEventClass@@UAEXPAVDamageableGameObj@@PAVArmedGameObj@@MIMW4Type@DADamageType@@@Z ; DAEventClass::Kill_Event
PUBLIC	?Custom_Event@DAEventClass@@UAEXPAVScriptableGameObj@@HH0@Z ; DAEventClass::Custom_Event
PUBLIC	?Poke_Event@DAEventClass@@UAEXPAVcPlayer@@PAVPhysicalGameObj@@@Z ; DAEventClass::Poke_Event
PUBLIC	?Zone_Enter_Event@DAEventClass@@UAEXPAVScriptZoneGameObj@@PAVPhysicalGameObj@@@Z ; DAEventClass::Zone_Enter_Event
PUBLIC	?Zone_Exit_Event@DAEventClass@@UAEXPAVScriptZoneGameObj@@PAVPhysicalGameObj@@@Z ; DAEventClass::Zone_Exit_Event
PUBLIC	?Object_Destroyed_Event@DAEventClass@@UAEXPAVScriptableGameObj@@@Z ; DAEventClass::Object_Destroyed_Event
PUBLIC	?Timer_Expired@DAEventClass@@UAEXHI@Z		; DAEventClass::Timer_Expired
PUBLIC	??1DAEventClass@@UAE@XZ				; DAEventClass::~DAEventClass
PUBLIC	??0DAEventClass@@QAE@XZ				; DAEventClass::DAEventClass
PUBLIC	??0DAEventClass@@QAE@ABV0@@Z			; DAEventClass::DAEventClass
PUBLIC	??4DAEventClass@@QAEAAV0@ABV0@@Z		; DAEventClass::operator=
PUBLIC	??_GDAEventClass@@UAEPAXI@Z			; DAEventClass::`scalar deleting destructor'
PUBLIC	??_EDAEventClass@@UAEPAXI@Z			; DAEventClass::`vector deleting destructor'
PUBLIC	??1DAGameFeatureFactoryClass@@UAE@XZ		; DAGameFeatureFactoryClass::~DAGameFeatureFactoryClass
PUBLIC	?Get_Name@DAGameFeatureFactoryClass@@QBEPBDXZ	; DAGameFeatureFactoryClass::Get_Name
PUBLIC	?Get_Instance@DAGameFeatureFactoryClass@@QBEPAVDAGameFeatureClass@@XZ ; DAGameFeatureFactoryClass::Get_Instance
PUBLIC	??_GDAGameFeatureFactoryClass@@UAEPAXI@Z	; DAGameFeatureFactoryClass::`scalar deleting destructor'
PUBLIC	?Get_Name@DAGameFeatureClass@@QAEPBDXZ		; DAGameFeatureClass::Get_Name
PUBLIC	?Get_Factory@DAGameFeatureClass@@QAEPBVDAGameFeatureFactoryClass@@XZ ; DAGameFeatureClass::Get_Factory
PUBLIC	?Set_Factory@DAGameFeatureClass@@QAEXPBVDAGameFeatureFactoryClass@@@Z ; DAGameFeatureClass::Set_Factory
PUBLIC	??1DAGameFeatureClass@@UAE@XZ			; DAGameFeatureClass::~DAGameFeatureClass
PUBLIC	??0DAGameFeatureClass@@QAE@XZ			; DAGameFeatureClass::DAGameFeatureClass
PUBLIC	??0DAGameFeatureClass@@QAE@ABV0@@Z		; DAGameFeatureClass::DAGameFeatureClass
PUBLIC	??4DAGameFeatureClass@@QAEAAV0@ABV0@@Z		; DAGameFeatureClass::operator=
PUBLIC	??_GDAGameFeatureClass@@UAEPAXI@Z		; DAGameFeatureClass::`scalar deleting destructor'
PUBLIC	??_EDAGameFeatureClass@@UAEPAXI@Z		; DAGameFeatureClass::`vector deleting destructor'
PUBLIC	??_5@YA?AW4Flag@DAPlayerFlags@@AAW401@W401@@Z	; operator|=
PUBLIC	??_4@YA?AW4Flag@DAPlayerFlags@@AAW401@W401@@Z	; operator&=
PUBLIC	??S@YA?AW4Flag@DAPlayerFlags@@W401@@Z		; operator~
PUBLIC	?Get_Owner@DAPlayerClass@@QAEPAVcPlayer@@XZ	; DAPlayerClass::Get_Owner
PUBLIC	?Get_ID@DAPlayerClass@@QAEHXZ			; DAPlayerClass::Get_ID
PUBLIC	?Get_Name@DAPlayerClass@@QAEABVWideStringClass@@XZ ; DAPlayerClass::Get_Name
PUBLIC	?Get_GameObj@DAPlayerClass@@QAEPAVSoldierGameObj@@XZ ; DAPlayerClass::Get_GameObj
PUBLIC	?Get_Team@DAPlayerClass@@QAEHXZ			; DAPlayerClass::Get_Team
PUBLIC	??0?$VectorClass@PAVDAPlayerObserverClass@@@@QAE@ABV0@@Z ; VectorClass<DAPlayerObserverClass *>::VectorClass<DAPlayerObserverClass *>
PUBLIC	??4?$VectorClass@PAVDAPlayerObserverClass@@@@QAEAAV0@ABV0@@Z ; VectorClass<DAPlayerObserverClass *>::operator=
PUBLIC	??1?$VectorClass@PAVDAPlayerObserverClass@@@@UAE@XZ ; VectorClass<DAPlayerObserverClass *>::~VectorClass<DAPlayerObserverClass *>
PUBLIC	??A?$VectorClass@PAVDAPlayerObserverClass@@@@QAEAAPAVDAPlayerObserverClass@@H@Z ; VectorClass<DAPlayerObserverClass *>::operator[]
PUBLIC	??A?$VectorClass@PAVDAPlayerObserverClass@@@@QBEABQAVDAPlayerObserverClass@@H@Z ; VectorClass<DAPlayerObserverClass *>::operator[]
PUBLIC	??8?$VectorClass@PAVDAPlayerObserverClass@@@@UBE_NABV0@@Z ; VectorClass<DAPlayerObserverClass *>::operator==
PUBLIC	?Resize@?$VectorClass@PAVDAPlayerObserverClass@@@@UAE_NHPBQAVDAPlayerObserverClass@@@Z ; VectorClass<DAPlayerObserverClass *>::Resize
PUBLIC	?Clear@?$VectorClass@PAVDAPlayerObserverClass@@@@UAEXXZ ; VectorClass<DAPlayerObserverClass *>::Clear
PUBLIC	?Length@?$VectorClass@PAVDAPlayerObserverClass@@@@QBEHXZ ; VectorClass<DAPlayerObserverClass *>::Length
PUBLIC	?ID@?$VectorClass@PAVDAPlayerObserverClass@@@@UAEHPBQAVDAPlayerObserverClass@@@Z ; VectorClass<DAPlayerObserverClass *>::ID
PUBLIC	?ID@?$VectorClass@PAVDAPlayerObserverClass@@@@UAEHABQAVDAPlayerObserverClass@@@Z ; VectorClass<DAPlayerObserverClass *>::ID
PUBLIC	??_G?$VectorClass@PAVDAPlayerObserverClass@@@@UAEPAXI@Z ; VectorClass<DAPlayerObserverClass *>::`scalar deleting destructor'
PUBLIC	??0?$DynamicVectorClass@PAVDAPlayerObserverClass@@@@QAE@ABV0@@Z ; DynamicVectorClass<DAPlayerObserverClass *>::DynamicVectorClass<DAPlayerObserverClass *>
PUBLIC	??4?$DynamicVectorClass@PAVDAPlayerObserverClass@@@@QAEAAV0@ABV0@@Z ; DynamicVectorClass<DAPlayerObserverClass *>::operator=
PUBLIC	?Resize@?$DynamicVectorClass@PAVDAPlayerObserverClass@@@@UAE_NHPBQAVDAPlayerObserverClass@@@Z ; DynamicVectorClass<DAPlayerObserverClass *>::Resize
PUBLIC	?Clear@?$DynamicVectorClass@PAVDAPlayerObserverClass@@@@UAEXXZ ; DynamicVectorClass<DAPlayerObserverClass *>::Clear
PUBLIC	?Count@?$DynamicVectorClass@PAVDAPlayerObserverClass@@@@QBEHXZ ; DynamicVectorClass<DAPlayerObserverClass *>::Count
PUBLIC	?ID@?$DynamicVectorClass@PAVDAPlayerObserverClass@@@@UAEHPBQAVDAPlayerObserverClass@@@Z ; DynamicVectorClass<DAPlayerObserverClass *>::ID
PUBLIC	?ID@?$DynamicVectorClass@PAVDAPlayerObserverClass@@@@UAEHABQAVDAPlayerObserverClass@@@Z ; DynamicVectorClass<DAPlayerObserverClass *>::ID
PUBLIC	??1?$DynamicVectorClass@PAVDAPlayerObserverClass@@@@UAE@XZ ; DynamicVectorClass<DAPlayerObserverClass *>::~DynamicVectorClass<DAPlayerObserverClass *>
PUBLIC	??_G?$DynamicVectorClass@PAVDAPlayerObserverClass@@@@UAEPAXI@Z ; DynamicVectorClass<DAPlayerObserverClass *>::`scalar deleting destructor'
PUBLIC	??0?$VectorClass@PAVDAPlayerDataClass@@@@QAE@ABV0@@Z ; VectorClass<DAPlayerDataClass *>::VectorClass<DAPlayerDataClass *>
PUBLIC	??4?$VectorClass@PAVDAPlayerDataClass@@@@QAEAAV0@ABV0@@Z ; VectorClass<DAPlayerDataClass *>::operator=
PUBLIC	??1?$VectorClass@PAVDAPlayerDataClass@@@@UAE@XZ	; VectorClass<DAPlayerDataClass *>::~VectorClass<DAPlayerDataClass *>
PUBLIC	??A?$VectorClass@PAVDAPlayerDataClass@@@@QAEAAPAVDAPlayerDataClass@@H@Z ; VectorClass<DAPlayerDataClass *>::operator[]
PUBLIC	??A?$VectorClass@PAVDAPlayerDataClass@@@@QBEABQAVDAPlayerDataClass@@H@Z ; VectorClass<DAPlayerDataClass *>::operator[]
PUBLIC	??8?$VectorClass@PAVDAPlayerDataClass@@@@UBE_NABV0@@Z ; VectorClass<DAPlayerDataClass *>::operator==
PUBLIC	?Resize@?$VectorClass@PAVDAPlayerDataClass@@@@UAE_NHPBQAVDAPlayerDataClass@@@Z ; VectorClass<DAPlayerDataClass *>::Resize
PUBLIC	?Clear@?$VectorClass@PAVDAPlayerDataClass@@@@UAEXXZ ; VectorClass<DAPlayerDataClass *>::Clear
PUBLIC	?Length@?$VectorClass@PAVDAPlayerDataClass@@@@QBEHXZ ; VectorClass<DAPlayerDataClass *>::Length
PUBLIC	?ID@?$VectorClass@PAVDAPlayerDataClass@@@@UAEHPBQAVDAPlayerDataClass@@@Z ; VectorClass<DAPlayerDataClass *>::ID
PUBLIC	?ID@?$VectorClass@PAVDAPlayerDataClass@@@@UAEHABQAVDAPlayerDataClass@@@Z ; VectorClass<DAPlayerDataClass *>::ID
PUBLIC	??_G?$VectorClass@PAVDAPlayerDataClass@@@@UAEPAXI@Z ; VectorClass<DAPlayerDataClass *>::`scalar deleting destructor'
PUBLIC	??0?$DynamicVectorClass@PAVDAPlayerDataClass@@@@QAE@ABV0@@Z ; DynamicVectorClass<DAPlayerDataClass *>::DynamicVectorClass<DAPlayerDataClass *>
PUBLIC	??4?$DynamicVectorClass@PAVDAPlayerDataClass@@@@QAEAAV0@ABV0@@Z ; DynamicVectorClass<DAPlayerDataClass *>::operator=
PUBLIC	?Resize@?$DynamicVectorClass@PAVDAPlayerDataClass@@@@UAE_NHPBQAVDAPlayerDataClass@@@Z ; DynamicVectorClass<DAPlayerDataClass *>::Resize
PUBLIC	?Clear@?$DynamicVectorClass@PAVDAPlayerDataClass@@@@UAEXXZ ; DynamicVectorClass<DAPlayerDataClass *>::Clear
PUBLIC	?Count@?$DynamicVectorClass@PAVDAPlayerDataClass@@@@QBEHXZ ; DynamicVectorClass<DAPlayerDataClass *>::Count
PUBLIC	?ID@?$DynamicVectorClass@PAVDAPlayerDataClass@@@@UAEHPBQAVDAPlayerDataClass@@@Z ; DynamicVectorClass<DAPlayerDataClass *>::ID
PUBLIC	?ID@?$DynamicVectorClass@PAVDAPlayerDataClass@@@@UAEHABQAVDAPlayerDataClass@@@Z ; DynamicVectorClass<DAPlayerDataClass *>::ID
PUBLIC	??1?$DynamicVectorClass@PAVDAPlayerDataClass@@@@UAE@XZ ; DynamicVectorClass<DAPlayerDataClass *>::~DynamicVectorClass<DAPlayerDataClass *>
PUBLIC	??_G?$DynamicVectorClass@PAVDAPlayerDataClass@@@@UAEPAXI@Z ; DynamicVectorClass<DAPlayerDataClass *>::`scalar deleting destructor'
PUBLIC	??0?$VectorClass@PAUDAPlayerTagStruct@DAPlayerClass@@@@QAE@ABV0@@Z ; VectorClass<DAPlayerClass::DAPlayerTagStruct *>::VectorClass<DAPlayerClass::DAPlayerTagStruct *>
PUBLIC	??4?$VectorClass@PAUDAPlayerTagStruct@DAPlayerClass@@@@QAEAAV0@ABV0@@Z ; VectorClass<DAPlayerClass::DAPlayerTagStruct *>::operator=
PUBLIC	??1?$VectorClass@PAUDAPlayerTagStruct@DAPlayerClass@@@@UAE@XZ ; VectorClass<DAPlayerClass::DAPlayerTagStruct *>::~VectorClass<DAPlayerClass::DAPlayerTagStruct *>
PUBLIC	??A?$VectorClass@PAUDAPlayerTagStruct@DAPlayerClass@@@@QAEAAPAUDAPlayerTagStruct@DAPlayerClass@@H@Z ; VectorClass<DAPlayerClass::DAPlayerTagStruct *>::operator[]
PUBLIC	??A?$VectorClass@PAUDAPlayerTagStruct@DAPlayerClass@@@@QBEABQAUDAPlayerTagStruct@DAPlayerClass@@H@Z ; VectorClass<DAPlayerClass::DAPlayerTagStruct *>::operator[]
PUBLIC	??8?$VectorClass@PAUDAPlayerTagStruct@DAPlayerClass@@@@UBE_NABV0@@Z ; VectorClass<DAPlayerClass::DAPlayerTagStruct *>::operator==
PUBLIC	?Resize@?$VectorClass@PAUDAPlayerTagStruct@DAPlayerClass@@@@UAE_NHPBQAUDAPlayerTagStruct@DAPlayerClass@@@Z ; VectorClass<DAPlayerClass::DAPlayerTagStruct *>::Resize
PUBLIC	?Clear@?$VectorClass@PAUDAPlayerTagStruct@DAPlayerClass@@@@UAEXXZ ; VectorClass<DAPlayerClass::DAPlayerTagStruct *>::Clear
PUBLIC	?Length@?$VectorClass@PAUDAPlayerTagStruct@DAPlayerClass@@@@QBEHXZ ; VectorClass<DAPlayerClass::DAPlayerTagStruct *>::Length
PUBLIC	?ID@?$VectorClass@PAUDAPlayerTagStruct@DAPlayerClass@@@@UAEHPBQAUDAPlayerTagStruct@DAPlayerClass@@@Z ; VectorClass<DAPlayerClass::DAPlayerTagStruct *>::ID
PUBLIC	?ID@?$VectorClass@PAUDAPlayerTagStruct@DAPlayerClass@@@@UAEHABQAUDAPlayerTagStruct@DAPlayerClass@@@Z ; VectorClass<DAPlayerClass::DAPlayerTagStruct *>::ID
PUBLIC	??_G?$VectorClass@PAUDAPlayerTagStruct@DAPlayerClass@@@@UAEPAXI@Z ; VectorClass<DAPlayerClass::DAPlayerTagStruct *>::`scalar deleting destructor'
PUBLIC	??0?$DynamicVectorClass@PAUDAPlayerTagStruct@DAPlayerClass@@@@QAE@ABV0@@Z ; DynamicVectorClass<DAPlayerClass::DAPlayerTagStruct *>::DynamicVectorClass<DAPlayerClass::DAPlayerTagStruct *>
PUBLIC	??4?$DynamicVectorClass@PAUDAPlayerTagStruct@DAPlayerClass@@@@QAEAAV0@ABV0@@Z ; DynamicVectorClass<DAPlayerClass::DAPlayerTagStruct *>::operator=
PUBLIC	?Resize@?$DynamicVectorClass@PAUDAPlayerTagStruct@DAPlayerClass@@@@UAE_NHPBQAUDAPlayerTagStruct@DAPlayerClass@@@Z ; DynamicVectorClass<DAPlayerClass::DAPlayerTagStruct *>::Resize
PUBLIC	?Clear@?$DynamicVectorClass@PAUDAPlayerTagStruct@DAPlayerClass@@@@UAEXXZ ; DynamicVectorClass<DAPlayerClass::DAPlayerTagStruct *>::Clear
PUBLIC	?Count@?$DynamicVectorClass@PAUDAPlayerTagStruct@DAPlayerClass@@@@QBEHXZ ; DynamicVectorClass<DAPlayerClass::DAPlayerTagStruct *>::Count
PUBLIC	?ID@?$DynamicVectorClass@PAUDAPlayerTagStruct@DAPlayerClass@@@@UAEHPBQAUDAPlayerTagStruct@DAPlayerClass@@@Z ; DynamicVectorClass<DAPlayerClass::DAPlayerTagStruct *>::ID
PUBLIC	?ID@?$DynamicVectorClass@PAUDAPlayerTagStruct@DAPlayerClass@@@@UAEHABQAUDAPlayerTagStruct@DAPlayerClass@@@Z ; DynamicVectorClass<DAPlayerClass::DAPlayerTagStruct *>::ID
PUBLIC	??1?$DynamicVectorClass@PAUDAPlayerTagStruct@DAPlayerClass@@@@UAE@XZ ; DynamicVectorClass<DAPlayerClass::DAPlayerTagStruct *>::~DynamicVectorClass<DAPlayerClass::DAPlayerTagStruct *>
PUBLIC	??_G?$DynamicVectorClass@PAUDAPlayerTagStruct@DAPlayerClass@@@@UAEPAXI@Z ; DynamicVectorClass<DAPlayerClass::DAPlayerTagStruct *>::`scalar deleting destructor'
PUBLIC	??0DAPlayerClass@@QAE@ABV0@@Z			; DAPlayerClass::DAPlayerClass
PUBLIC	??4DAPlayerClass@@QAEAAV0@ABV0@@Z		; DAPlayerClass::operator=
PUBLIC	??0DAPlayerObserverClass@@QAE@XZ		; DAPlayerObserverClass::DAPlayerObserverClass
PUBLIC	?Get_Owner@DAPlayerObserverClass@@QAEPAVcPlayer@@XZ ; DAPlayerObserverClass::Get_Owner
PUBLIC	?Set_Owner@DAPlayerObserverClass@@QAEXPAVcPlayer@@@Z ; DAPlayerObserverClass::Set_Owner
PUBLIC	?Get_Flags@DAPlayerObserverClass@@QAE?AW4Flag@DAPlayerFlags@@XZ ; DAPlayerObserverClass::Get_Flags
PUBLIC	?Set_Flags@DAPlayerObserverClass@@QAEXW4Flag@DAPlayerFlags@@@Z ; DAPlayerObserverClass::Set_Flags
PUBLIC	?Add_Flag@DAPlayerObserverClass@@QAEXW4Flag@DAPlayerFlags@@@Z ; DAPlayerObserverClass::Add_Flag
PUBLIC	?Remove_Flag@DAPlayerObserverClass@@QAEXW4Flag@DAPlayerFlags@@@Z ; DAPlayerObserverClass::Remove_Flag
PUBLIC	?Has_Flag@DAPlayerObserverClass@@QAE_NW4Flag@DAPlayerFlags@@@Z ; DAPlayerObserverClass::Has_Flag
PUBLIC	?Get_ID@DAPlayerObserverClass@@QAEHXZ		; DAPlayerObserverClass::Get_ID
PUBLIC	?Get_Name@DAPlayerObserverClass@@QAEABVWideStringClass@@XZ ; DAPlayerObserverClass::Get_Name
PUBLIC	?Get_GameObj@DAPlayerObserverClass@@QAEPAVSoldierGameObj@@XZ ; DAPlayerObserverClass::Get_GameObj
PUBLIC	?Get_Team@DAPlayerObserverClass@@QAEHXZ		; DAPlayerObserverClass::Get_Team
PUBLIC	?Get_Timers@DAPlayerObserverClass@@QAEAAV?$DynamicVectorClass@PAUDAPlayerObserverTimerStruct@@@@XZ ; DAPlayerObserverClass::Get_Timers
PUBLIC	?Get_Chat_Commands@DAPlayerObserverClass@@QAEABV?$DynamicVectorClass@PAUDAPlayerObserverChatCommandStruct@@@@XZ ; DAPlayerObserverClass::Get_Chat_Commands
PUBLIC	?Get_Key_Hooks@DAPlayerObserverClass@@QAEABV?$DynamicVectorClass@PAUDAPlayerObserverKeyHookStruct@@@@XZ ; DAPlayerObserverClass::Get_Key_Hooks
PUBLIC	?Set_Delete_Pending@DAPlayerObserverClass@@QAEXXZ ; DAPlayerObserverClass::Set_Delete_Pending
PUBLIC	?Is_Delete_Pending@DAPlayerObserverClass@@QAE_NXZ ; DAPlayerObserverClass::Is_Delete_Pending
PUBLIC	??1DAPlayerObserverClass@@UAE@XZ		; DAPlayerObserverClass::~DAPlayerObserverClass
PUBLIC	?Init@DAPlayerObserverClass@@UAEXXZ		; DAPlayerObserverClass::Init
PUBLIC	?Join@DAPlayerObserverClass@@UAEXXZ		; DAPlayerObserverClass::Join
PUBLIC	?Leave@DAPlayerObserverClass@@UAEXXZ		; DAPlayerObserverClass::Leave
PUBLIC	?Level_Loaded@DAPlayerObserverClass@@UAEXXZ	; DAPlayerObserverClass::Level_Loaded
PUBLIC	?Player_Loaded@DAPlayerObserverClass@@UAEXXZ	; DAPlayerObserverClass::Player_Loaded
PUBLIC	?Name_Change@DAPlayerObserverClass@@UAEXXZ	; DAPlayerObserverClass::Name_Change
PUBLIC	?Team_Change@DAPlayerObserverClass@@UAEXXZ	; DAPlayerObserverClass::Team_Change
PUBLIC	?Character_Purchase_Request@DAPlayerObserverClass@@UAEHAAMPBVSoldierGameObjDef@@@Z ; DAPlayerObserverClass::Character_Purchase_Request
PUBLIC	?Vehicle_Purchase_Request@DAPlayerObserverClass@@UAEHAAMPBVVehicleGameObjDef@@@Z ; DAPlayerObserverClass::Vehicle_Purchase_Request
PUBLIC	?PowerUp_Purchase_Request@DAPlayerObserverClass@@UAEHAAMPBVPowerUpGameObjDef@@@Z ; DAPlayerObserverClass::PowerUp_Purchase_Request
PUBLIC	?Custom_Purchase_Request@DAPlayerObserverClass@@UAEHAAMI@Z ; DAPlayerObserverClass::Custom_Purchase_Request
PUBLIC	?Character_Purchase@DAPlayerObserverClass@@UAEXMPBVSoldierGameObjDef@@@Z ; DAPlayerObserverClass::Character_Purchase
PUBLIC	?Vehicle_Purchase@DAPlayerObserverClass@@UAEXMPBVVehicleGameObjDef@@@Z ; DAPlayerObserverClass::Vehicle_Purchase
PUBLIC	?PowerUp_Purchase@DAPlayerObserverClass@@UAEXMPBVPowerUpGameObjDef@@@Z ; DAPlayerObserverClass::PowerUp_Purchase
PUBLIC	?Custom_Purchase@DAPlayerObserverClass@@UAEXMI@Z ; DAPlayerObserverClass::Custom_Purchase
PUBLIC	?Vehicle_Entry_Request@DAPlayerObserverClass@@UAE_NPAVVehicleGameObj@@AAH@Z ; DAPlayerObserverClass::Vehicle_Entry_Request
PUBLIC	?Vehicle_Enter@DAPlayerObserverClass@@UAEXPAVVehicleGameObj@@H@Z ; DAPlayerObserverClass::Vehicle_Enter
PUBLIC	?Vehicle_Exit@DAPlayerObserverClass@@UAEXPAVVehicleGameObj@@H@Z ; DAPlayerObserverClass::Vehicle_Exit
PUBLIC	?PowerUp_Grant_Request@DAPlayerObserverClass@@UAE_NPBVPowerUpGameObjDef@@PAVPowerUpGameObj@@@Z ; DAPlayerObserverClass::PowerUp_Grant_Request
PUBLIC	?PowerUp_Grant@DAPlayerObserverClass@@UAEXPBVPowerUpGameObjDef@@PAVPowerUpGameObj@@@Z ; DAPlayerObserverClass::PowerUp_Grant
PUBLIC	?Add_Weapon_Request@DAPlayerObserverClass@@UAE_NPBVWeaponDefinitionClass@@@Z ; DAPlayerObserverClass::Add_Weapon_Request
PUBLIC	?Add_Weapon@DAPlayerObserverClass@@UAEXPAVWeaponClass@@@Z ; DAPlayerObserverClass::Add_Weapon
PUBLIC	?Remove_Weapon@DAPlayerObserverClass@@UAEXPAVWeaponClass@@@Z ; DAPlayerObserverClass::Remove_Weapon
PUBLIC	?Clear_Weapons@DAPlayerObserverClass@@UAEXXZ	; DAPlayerObserverClass::Clear_Weapons
PUBLIC	?C4_Detonate_Request@DAPlayerObserverClass@@UAE_NPAVC4GameObj@@@Z ; DAPlayerObserverClass::C4_Detonate_Request
PUBLIC	?C4_Detonate@DAPlayerObserverClass@@UAEXPAVC4GameObj@@@Z ; DAPlayerObserverClass::C4_Detonate
PUBLIC	?Change_Character@DAPlayerObserverClass@@UAEXPBVSoldierGameObjDef@@@Z ; DAPlayerObserverClass::Change_Character
PUBLIC	?Dialog_Message@DAPlayerObserverClass@@UAEXW4DialogMessageType@@PAVScriptedDialogClass@@PAVScriptedControlClass@@@Z ; DAPlayerObserverClass::Dialog_Message
PUBLIC	?Created@DAPlayerObserverClass@@UAEXXZ		; DAPlayerObserverClass::Created
PUBLIC	?Destroyed@DAPlayerObserverClass@@UAEXXZ	; DAPlayerObserverClass::Destroyed
PUBLIC	?Damage_Dealt_Request@DAPlayerObserverClass@@UAE_NPAVDamageableGameObj@@AAMAAIMW4Type@DADamageType@@@Z ; DAPlayerObserverClass::Damage_Dealt_Request
PUBLIC	?Damage_Received_Request@DAPlayerObserverClass@@UAE_NPAVArmedGameObj@@AAMAAIMW4Type@DADamageType@@@Z ; DAPlayerObserverClass::Damage_Received_Request
PUBLIC	?Damage_Dealt@DAPlayerObserverClass@@UAEXPAVDamageableGameObj@@MIMW4Type@DADamageType@@@Z ; DAPlayerObserverClass::Damage_Dealt
PUBLIC	?Damage_Received@DAPlayerObserverClass@@UAEXPAVArmedGameObj@@MIMW4Type@DADamageType@@@Z ; DAPlayerObserverClass::Damage_Received
PUBLIC	?Kill_Dealt@DAPlayerObserverClass@@UAEXPAVDamageableGameObj@@MIMW4Type@DADamageType@@@Z ; DAPlayerObserverClass::Kill_Dealt
PUBLIC	?Kill_Received@DAPlayerObserverClass@@UAEXPAVArmedGameObj@@MIMW4Type@DADamageType@@@Z ; DAPlayerObserverClass::Kill_Received
PUBLIC	?Custom@DAPlayerObserverClass@@UAEXPAVScriptableGameObj@@HH@Z ; DAPlayerObserverClass::Custom
PUBLIC	?Poked@DAPlayerObserverClass@@UAEXPAVcPlayer@@@Z ; DAPlayerObserverClass::Poked
PUBLIC	?Timer_Expired@DAPlayerObserverClass@@UAEXHI@Z	; DAPlayerObserverClass::Timer_Expired
PUBLIC	?Think@DAPlayerObserverClass@@UAEXXZ		; DAPlayerObserverClass::Think
PUBLIC	??0?$VectorClass@PAUDAPlayerObserverTimerStruct@@@@QAE@HPBQAUDAPlayerObserverTimerStruct@@@Z ; VectorClass<DAPlayerObserverTimerStruct *>::VectorClass<DAPlayerObserverTimerStruct *>
PUBLIC	??0?$VectorClass@PAUDAPlayerObserverTimerStruct@@@@QAE@ABV0@@Z ; VectorClass<DAPlayerObserverTimerStruct *>::VectorClass<DAPlayerObserverTimerStruct *>
PUBLIC	??4?$VectorClass@PAUDAPlayerObserverTimerStruct@@@@QAEAAV0@ABV0@@Z ; VectorClass<DAPlayerObserverTimerStruct *>::operator=
PUBLIC	??1?$VectorClass@PAUDAPlayerObserverTimerStruct@@@@UAE@XZ ; VectorClass<DAPlayerObserverTimerStruct *>::~VectorClass<DAPlayerObserverTimerStruct *>
PUBLIC	??A?$VectorClass@PAUDAPlayerObserverTimerStruct@@@@QAEAAPAUDAPlayerObserverTimerStruct@@H@Z ; VectorClass<DAPlayerObserverTimerStruct *>::operator[]
PUBLIC	??A?$VectorClass@PAUDAPlayerObserverTimerStruct@@@@QBEABQAUDAPlayerObserverTimerStruct@@H@Z ; VectorClass<DAPlayerObserverTimerStruct *>::operator[]
PUBLIC	??8?$VectorClass@PAUDAPlayerObserverTimerStruct@@@@UBE_NABV0@@Z ; VectorClass<DAPlayerObserverTimerStruct *>::operator==
PUBLIC	?Resize@?$VectorClass@PAUDAPlayerObserverTimerStruct@@@@UAE_NHPBQAUDAPlayerObserverTimerStruct@@@Z ; VectorClass<DAPlayerObserverTimerStruct *>::Resize
PUBLIC	?Clear@?$VectorClass@PAUDAPlayerObserverTimerStruct@@@@UAEXXZ ; VectorClass<DAPlayerObserverTimerStruct *>::Clear
PUBLIC	?Length@?$VectorClass@PAUDAPlayerObserverTimerStruct@@@@QBEHXZ ; VectorClass<DAPlayerObserverTimerStruct *>::Length
PUBLIC	?ID@?$VectorClass@PAUDAPlayerObserverTimerStruct@@@@UAEHPBQAUDAPlayerObserverTimerStruct@@@Z ; VectorClass<DAPlayerObserverTimerStruct *>::ID
PUBLIC	?ID@?$VectorClass@PAUDAPlayerObserverTimerStruct@@@@UAEHABQAUDAPlayerObserverTimerStruct@@@Z ; VectorClass<DAPlayerObserverTimerStruct *>::ID
PUBLIC	??_G?$VectorClass@PAUDAPlayerObserverTimerStruct@@@@UAEPAXI@Z ; VectorClass<DAPlayerObserverTimerStruct *>::`scalar deleting destructor'
PUBLIC	??0?$DynamicVectorClass@PAUDAPlayerObserverTimerStruct@@@@QAE@IPBQAUDAPlayerObserverTimerStruct@@@Z ; DynamicVectorClass<DAPlayerObserverTimerStruct *>::DynamicVectorClass<DAPlayerObserverTimerStruct *>
PUBLIC	??0?$DynamicVectorClass@PAUDAPlayerObserverTimerStruct@@@@QAE@ABV0@@Z ; DynamicVectorClass<DAPlayerObserverTimerStruct *>::DynamicVectorClass<DAPlayerObserverTimerStruct *>
PUBLIC	??4?$DynamicVectorClass@PAUDAPlayerObserverTimerStruct@@@@QAEAAV0@ABV0@@Z ; DynamicVectorClass<DAPlayerObserverTimerStruct *>::operator=
PUBLIC	?Resize@?$DynamicVectorClass@PAUDAPlayerObserverTimerStruct@@@@UAE_NHPBQAUDAPlayerObserverTimerStruct@@@Z ; DynamicVectorClass<DAPlayerObserverTimerStruct *>::Resize
PUBLIC	?Clear@?$DynamicVectorClass@PAUDAPlayerObserverTimerStruct@@@@UAEXXZ ; DynamicVectorClass<DAPlayerObserverTimerStruct *>::Clear
PUBLIC	?Count@?$DynamicVectorClass@PAUDAPlayerObserverTimerStruct@@@@QBEHXZ ; DynamicVectorClass<DAPlayerObserverTimerStruct *>::Count
PUBLIC	?ID@?$DynamicVectorClass@PAUDAPlayerObserverTimerStruct@@@@UAEHPBQAUDAPlayerObserverTimerStruct@@@Z ; DynamicVectorClass<DAPlayerObserverTimerStruct *>::ID
PUBLIC	?ID@?$DynamicVectorClass@PAUDAPlayerObserverTimerStruct@@@@UAEHABQAUDAPlayerObserverTimerStruct@@@Z ; DynamicVectorClass<DAPlayerObserverTimerStruct *>::ID
PUBLIC	??1?$DynamicVectorClass@PAUDAPlayerObserverTimerStruct@@@@UAE@XZ ; DynamicVectorClass<DAPlayerObserverTimerStruct *>::~DynamicVectorClass<DAPlayerObserverTimerStruct *>
PUBLIC	??_G?$DynamicVectorClass@PAUDAPlayerObserverTimerStruct@@@@UAEPAXI@Z ; DynamicVectorClass<DAPlayerObserverTimerStruct *>::`scalar deleting destructor'
PUBLIC	??0?$VectorClass@PAUDAPlayerObserverChatCommandStruct@@@@QAE@HPBQAUDAPlayerObserverChatCommandStruct@@@Z ; VectorClass<DAPlayerObserverChatCommandStruct *>::VectorClass<DAPlayerObserverChatCommandStruct *>
PUBLIC	??0?$VectorClass@PAUDAPlayerObserverChatCommandStruct@@@@QAE@ABV0@@Z ; VectorClass<DAPlayerObserverChatCommandStruct *>::VectorClass<DAPlayerObserverChatCommandStruct *>
PUBLIC	??4?$VectorClass@PAUDAPlayerObserverChatCommandStruct@@@@QAEAAV0@ABV0@@Z ; VectorClass<DAPlayerObserverChatCommandStruct *>::operator=
PUBLIC	??1?$VectorClass@PAUDAPlayerObserverChatCommandStruct@@@@UAE@XZ ; VectorClass<DAPlayerObserverChatCommandStruct *>::~VectorClass<DAPlayerObserverChatCommandStruct *>
PUBLIC	??A?$VectorClass@PAUDAPlayerObserverChatCommandStruct@@@@QAEAAPAUDAPlayerObserverChatCommandStruct@@H@Z ; VectorClass<DAPlayerObserverChatCommandStruct *>::operator[]
PUBLIC	??A?$VectorClass@PAUDAPlayerObserverChatCommandStruct@@@@QBEABQAUDAPlayerObserverChatCommandStruct@@H@Z ; VectorClass<DAPlayerObserverChatCommandStruct *>::operator[]
PUBLIC	??8?$VectorClass@PAUDAPlayerObserverChatCommandStruct@@@@UBE_NABV0@@Z ; VectorClass<DAPlayerObserverChatCommandStruct *>::operator==
PUBLIC	?Resize@?$VectorClass@PAUDAPlayerObserverChatCommandStruct@@@@UAE_NHPBQAUDAPlayerObserverChatCommandStruct@@@Z ; VectorClass<DAPlayerObserverChatCommandStruct *>::Resize
PUBLIC	?Clear@?$VectorClass@PAUDAPlayerObserverChatCommandStruct@@@@UAEXXZ ; VectorClass<DAPlayerObserverChatCommandStruct *>::Clear
PUBLIC	?Length@?$VectorClass@PAUDAPlayerObserverChatCommandStruct@@@@QBEHXZ ; VectorClass<DAPlayerObserverChatCommandStruct *>::Length
PUBLIC	?ID@?$VectorClass@PAUDAPlayerObserverChatCommandStruct@@@@UAEHPBQAUDAPlayerObserverChatCommandStruct@@@Z ; VectorClass<DAPlayerObserverChatCommandStruct *>::ID
PUBLIC	?ID@?$VectorClass@PAUDAPlayerObserverChatCommandStruct@@@@UAEHABQAUDAPlayerObserverChatCommandStruct@@@Z ; VectorClass<DAPlayerObserverChatCommandStruct *>::ID
PUBLIC	??_G?$VectorClass@PAUDAPlayerObserverChatCommandStruct@@@@UAEPAXI@Z ; VectorClass<DAPlayerObserverChatCommandStruct *>::`scalar deleting destructor'
PUBLIC	??0?$DynamicVectorClass@PAUDAPlayerObserverChatCommandStruct@@@@QAE@IPBQAUDAPlayerObserverChatCommandStruct@@@Z ; DynamicVectorClass<DAPlayerObserverChatCommandStruct *>::DynamicVectorClass<DAPlayerObserverChatCommandStruct *>
PUBLIC	??0?$DynamicVectorClass@PAUDAPlayerObserverChatCommandStruct@@@@QAE@ABV0@@Z ; DynamicVectorClass<DAPlayerObserverChatCommandStruct *>::DynamicVectorClass<DAPlayerObserverChatCommandStruct *>
PUBLIC	??4?$DynamicVectorClass@PAUDAPlayerObserverChatCommandStruct@@@@QAEAAV0@ABV0@@Z ; DynamicVectorClass<DAPlayerObserverChatCommandStruct *>::operator=
PUBLIC	?Resize@?$DynamicVectorClass@PAUDAPlayerObserverChatCommandStruct@@@@UAE_NHPBQAUDAPlayerObserverChatCommandStruct@@@Z ; DynamicVectorClass<DAPlayerObserverChatCommandStruct *>::Resize
PUBLIC	?Clear@?$DynamicVectorClass@PAUDAPlayerObserverChatCommandStruct@@@@UAEXXZ ; DynamicVectorClass<DAPlayerObserverChatCommandStruct *>::Clear
PUBLIC	?Count@?$DynamicVectorClass@PAUDAPlayerObserverChatCommandStruct@@@@QBEHXZ ; DynamicVectorClass<DAPlayerObserverChatCommandStruct *>::Count
PUBLIC	?ID@?$DynamicVectorClass@PAUDAPlayerObserverChatCommandStruct@@@@UAEHPBQAUDAPlayerObserverChatCommandStruct@@@Z ; DynamicVectorClass<DAPlayerObserverChatCommandStruct *>::ID
PUBLIC	?ID@?$DynamicVectorClass@PAUDAPlayerObserverChatCommandStruct@@@@UAEHABQAUDAPlayerObserverChatCommandStruct@@@Z ; DynamicVectorClass<DAPlayerObserverChatCommandStruct *>::ID
PUBLIC	??1?$DynamicVectorClass@PAUDAPlayerObserverChatCommandStruct@@@@UAE@XZ ; DynamicVectorClass<DAPlayerObserverChatCommandStruct *>::~DynamicVectorClass<DAPlayerObserverChatCommandStruct *>
PUBLIC	??_G?$DynamicVectorClass@PAUDAPlayerObserverChatCommandStruct@@@@UAEPAXI@Z ; DynamicVectorClass<DAPlayerObserverChatCommandStruct *>::`scalar deleting destructor'
PUBLIC	??0?$VectorClass@PAUDAPlayerObserverKeyHookStruct@@@@QAE@HPBQAUDAPlayerObserverKeyHookStruct@@@Z ; VectorClass<DAPlayerObserverKeyHookStruct *>::VectorClass<DAPlayerObserverKeyHookStruct *>
PUBLIC	??0?$VectorClass@PAUDAPlayerObserverKeyHookStruct@@@@QAE@ABV0@@Z ; VectorClass<DAPlayerObserverKeyHookStruct *>::VectorClass<DAPlayerObserverKeyHookStruct *>
PUBLIC	??4?$VectorClass@PAUDAPlayerObserverKeyHookStruct@@@@QAEAAV0@ABV0@@Z ; VectorClass<DAPlayerObserverKeyHookStruct *>::operator=
PUBLIC	??1?$VectorClass@PAUDAPlayerObserverKeyHookStruct@@@@UAE@XZ ; VectorClass<DAPlayerObserverKeyHookStruct *>::~VectorClass<DAPlayerObserverKeyHookStruct *>
PUBLIC	??A?$VectorClass@PAUDAPlayerObserverKeyHookStruct@@@@QAEAAPAUDAPlayerObserverKeyHookStruct@@H@Z ; VectorClass<DAPlayerObserverKeyHookStruct *>::operator[]
PUBLIC	??A?$VectorClass@PAUDAPlayerObserverKeyHookStruct@@@@QBEABQAUDAPlayerObserverKeyHookStruct@@H@Z ; VectorClass<DAPlayerObserverKeyHookStruct *>::operator[]
PUBLIC	??8?$VectorClass@PAUDAPlayerObserverKeyHookStruct@@@@UBE_NABV0@@Z ; VectorClass<DAPlayerObserverKeyHookStruct *>::operator==
PUBLIC	?Resize@?$VectorClass@PAUDAPlayerObserverKeyHookStruct@@@@UAE_NHPBQAUDAPlayerObserverKeyHookStruct@@@Z ; VectorClass<DAPlayerObserverKeyHookStruct *>::Resize
PUBLIC	?Clear@?$VectorClass@PAUDAPlayerObserverKeyHookStruct@@@@UAEXXZ ; VectorClass<DAPlayerObserverKeyHookStruct *>::Clear
PUBLIC	?Length@?$VectorClass@PAUDAPlayerObserverKeyHookStruct@@@@QBEHXZ ; VectorClass<DAPlayerObserverKeyHookStruct *>::Length
PUBLIC	?ID@?$VectorClass@PAUDAPlayerObserverKeyHookStruct@@@@UAEHPBQAUDAPlayerObserverKeyHookStruct@@@Z ; VectorClass<DAPlayerObserverKeyHookStruct *>::ID
PUBLIC	?ID@?$VectorClass@PAUDAPlayerObserverKeyHookStruct@@@@UAEHABQAUDAPlayerObserverKeyHookStruct@@@Z ; VectorClass<DAPlayerObserverKeyHookStruct *>::ID
PUBLIC	??_G?$VectorClass@PAUDAPlayerObserverKeyHookStruct@@@@UAEPAXI@Z ; VectorClass<DAPlayerObserverKeyHookStruct *>::`scalar deleting destructor'
PUBLIC	??0?$DynamicVectorClass@PAUDAPlayerObserverKeyHookStruct@@@@QAE@IPBQAUDAPlayerObserverKeyHookStruct@@@Z ; DynamicVectorClass<DAPlayerObserverKeyHookStruct *>::DynamicVectorClass<DAPlayerObserverKeyHookStruct *>
PUBLIC	??0?$DynamicVectorClass@PAUDAPlayerObserverKeyHookStruct@@@@QAE@ABV0@@Z ; DynamicVectorClass<DAPlayerObserverKeyHookStruct *>::DynamicVectorClass<DAPlayerObserverKeyHookStruct *>
PUBLIC	??4?$DynamicVectorClass@PAUDAPlayerObserverKeyHookStruct@@@@QAEAAV0@ABV0@@Z ; DynamicVectorClass<DAPlayerObserverKeyHookStruct *>::operator=
PUBLIC	?Resize@?$DynamicVectorClass@PAUDAPlayerObserverKeyHookStruct@@@@UAE_NHPBQAUDAPlayerObserverKeyHookStruct@@@Z ; DynamicVectorClass<DAPlayerObserverKeyHookStruct *>::Resize
PUBLIC	?Clear@?$DynamicVectorClass@PAUDAPlayerObserverKeyHookStruct@@@@UAEXXZ ; DynamicVectorClass<DAPlayerObserverKeyHookStruct *>::Clear
PUBLIC	?Count@?$DynamicVectorClass@PAUDAPlayerObserverKeyHookStruct@@@@QBEHXZ ; DynamicVectorClass<DAPlayerObserverKeyHookStruct *>::Count
PUBLIC	?ID@?$DynamicVectorClass@PAUDAPlayerObserverKeyHookStruct@@@@UAEHPBQAUDAPlayerObserverKeyHookStruct@@@Z ; DynamicVectorClass<DAPlayerObserverKeyHookStruct *>::ID
PUBLIC	?ID@?$DynamicVectorClass@PAUDAPlayerObserverKeyHookStruct@@@@UAEHABQAUDAPlayerObserverKeyHookStruct@@@Z ; DynamicVectorClass<DAPlayerObserverKeyHookStruct *>::ID
PUBLIC	??1?$DynamicVectorClass@PAUDAPlayerObserverKeyHookStruct@@@@UAE@XZ ; DynamicVectorClass<DAPlayerObserverKeyHookStruct *>::~DynamicVectorClass<DAPlayerObserverKeyHookStruct *>
PUBLIC	??_G?$DynamicVectorClass@PAUDAPlayerObserverKeyHookStruct@@@@UAEPAXI@Z ; DynamicVectorClass<DAPlayerObserverKeyHookStruct *>::`scalar deleting destructor'
PUBLIC	??0DAPlayerObserverClass@@QAE@ABV0@@Z		; DAPlayerObserverClass::DAPlayerObserverClass
PUBLIC	??4DAPlayerObserverClass@@QAEAAV0@ABV0@@Z	; DAPlayerObserverClass::operator=
PUBLIC	??_GDAPlayerObserverClass@@UAEPAXI@Z		; DAPlayerObserverClass::`scalar deleting destructor'
PUBLIC	??_EDAPlayerObserverClass@@UAEPAXI@Z		; DAPlayerObserverClass::`vector deleting destructor'
PUBLIC	??1DAPlayerDataFactoryClass@@UAE@XZ		; DAPlayerDataFactoryClass::~DAPlayerDataFactoryClass
PUBLIC	??0DAPlayerDataFactoryClass@@QAE@XZ		; DAPlayerDataFactoryClass::DAPlayerDataFactoryClass
PUBLIC	??0DAPlayerDataFactoryClass@@QAE@ABV0@@Z	; DAPlayerDataFactoryClass::DAPlayerDataFactoryClass
PUBLIC	??4DAPlayerDataFactoryClass@@QAEAAV0@ABV0@@Z	; DAPlayerDataFactoryClass::operator=
PUBLIC	??_GDAPlayerDataFactoryClass@@UAEPAXI@Z		; DAPlayerDataFactoryClass::`scalar deleting destructor'
PUBLIC	??_EDAPlayerDataFactoryClass@@UAEPAXI@Z		; DAPlayerDataFactoryClass::`vector deleting destructor'
PUBLIC	??1DAPlayerDataClass@@UAE@XZ			; DAPlayerDataClass::~DAPlayerDataClass
PUBLIC	?Get_Owner@DAPlayerDataClass@@QAEPAVcPlayer@@XZ	; DAPlayerDataClass::Get_Owner
PUBLIC	?Set_Owner@DAPlayerDataClass@@QAEXPAVcPlayer@@@Z ; DAPlayerDataClass::Set_Owner
PUBLIC	?Get_Factory@DAPlayerDataClass@@QAEPBVDAPlayerDataFactoryClass@@XZ ; DAPlayerDataClass::Get_Factory
PUBLIC	?Set_Factory@DAPlayerDataClass@@QAEXPBVDAPlayerDataFactoryClass@@@Z ; DAPlayerDataClass::Set_Factory
PUBLIC	?Get_ID@DAPlayerDataClass@@QAEHXZ		; DAPlayerDataClass::Get_ID
PUBLIC	?Get_Name@DAPlayerDataClass@@QAEABVWideStringClass@@XZ ; DAPlayerDataClass::Get_Name
PUBLIC	?Get_GameObj@DAPlayerDataClass@@QAEPAVSoldierGameObj@@XZ ; DAPlayerDataClass::Get_GameObj
PUBLIC	?Get_Team@DAPlayerDataClass@@QAEHXZ		; DAPlayerDataClass::Get_Team
PUBLIC	?Init@DAPlayerDataClass@@UAEXXZ			; DAPlayerDataClass::Init
PUBLIC	?Clear_Level@DAPlayerDataClass@@UAEXXZ		; DAPlayerDataClass::Clear_Level
PUBLIC	?Clear_Session@DAPlayerDataClass@@UAEXXZ	; DAPlayerDataClass::Clear_Session
PUBLIC	??0DAPlayerDataClass@@QAE@XZ			; DAPlayerDataClass::DAPlayerDataClass
PUBLIC	??0DAPlayerDataClass@@QAE@ABV0@@Z		; DAPlayerDataClass::DAPlayerDataClass
PUBLIC	??4DAPlayerDataClass@@QAEAAV0@ABV0@@Z		; DAPlayerDataClass::operator=
PUBLIC	??_GDAPlayerDataClass@@UAEPAXI@Z		; DAPlayerDataClass::`scalar deleting destructor'
PUBLIC	??_EDAPlayerDataClass@@UAEPAXI@Z		; DAPlayerDataClass::`vector deleting destructor'
PUBLIC	??0DASquadInviteStruct@@QAE@XZ			; DASquadInviteStruct::DASquadInviteStruct
PUBLIC	??0DASquadInviteStruct@@QAE@PAVcPlayer@@0@Z	; DASquadInviteStruct::DASquadInviteStruct
PUBLIC	??8DASquadInviteStruct@@QAE_NABU0@@Z		; DASquadInviteStruct::operator==
PUBLIC	??9DASquadInviteStruct@@QAE_NABU0@@Z		; DASquadInviteStruct::operator!=
PUBLIC	??0DASquadRemixStruct@@QAE@XZ			; DASquadRemixStruct::DASquadRemixStruct
PUBLIC	??0DASquadRemixStruct@@QAE@PAVDASquadClass@@H@Z	; DASquadRemixStruct::DASquadRemixStruct
PUBLIC	??8DASquadRemixStruct@@QAE_NABU0@@Z		; DASquadRemixStruct::operator==
PUBLIC	??9DASquadRemixStruct@@QAE_NABU0@@Z		; DASquadRemixStruct::operator!=
PUBLIC	??0DASquadMemberClass@@QAE@PAVDASquadClass@@@Z	; DASquadMemberClass::DASquadMemberClass
PUBLIC	?Init@DASquadMemberClass@@UAEXXZ		; DASquadMemberClass::Init
PUBLIC	??1DASquadMemberClass@@UAE@XZ			; DASquadMemberClass::~DASquadMemberClass
PUBLIC	?Team_Change@DASquadMemberClass@@UAEXXZ		; DASquadMemberClass::Team_Change
PUBLIC	?Created@DASquadMemberClass@@UAEXXZ		; DASquadMemberClass::Created
PUBLIC	?Player_Loaded@DASquadMemberClass@@UAEXXZ	; DASquadMemberClass::Player_Loaded
PUBLIC	?Vehicle_Enter@DASquadMemberClass@@UAEXPAVVehicleGameObj@@H@Z ; DASquadMemberClass::Vehicle_Enter
PUBLIC	?Vehicle_Exit@DASquadMemberClass@@UAEXPAVVehicleGameObj@@H@Z ; DASquadMemberClass::Vehicle_Exit
PUBLIC	?Character_Purchase@DASquadMemberClass@@UAEXMPBVSoldierGameObjDef@@@Z ; DASquadMemberClass::Character_Purchase
PUBLIC	?Vehicle_Purchase@DASquadMemberClass@@UAEXMPBVVehicleGameObjDef@@@Z ; DASquadMemberClass::Vehicle_Purchase
PUBLIC	?PowerUp_Purchase@DASquadMemberClass@@UAEXMPBVPowerUpGameObjDef@@@Z ; DASquadMemberClass::PowerUp_Purchase
PUBLIC	?Disband_Chat_Command@DASquadMemberClass@@QAE_NABVDATokenClass@@W4TextMessageEnum@@@Z ; DASquadMemberClass::Disband_Chat_Command
PUBLIC	?Promote_Chat_Command@DASquadMemberClass@@QAE_NABVDATokenClass@@W4TextMessageEnum@@@Z ; DASquadMemberClass::Promote_Chat_Command
PUBLIC	?Info_Chat_Command@DASquadMemberClass@@QAE_NABVDATokenClass@@W4TextMessageEnum@@@Z ; DASquadMemberClass::Info_Chat_Command
PUBLIC	?SKick_Chat_Command@DASquadMemberClass@@QAE_NABVDATokenClass@@W4TextMessageEnum@@@Z ; DASquadMemberClass::SKick_Chat_Command
PUBLIC	?Msg_Chat_Command@DASquadMemberClass@@QAE_NABVDATokenClass@@W4TextMessageEnum@@@Z ; DASquadMemberClass::Msg_Chat_Command
PUBLIC	?Create_Radar@DASquadMemberClass@@QAEXXZ	; DASquadMemberClass::Create_Radar
PUBLIC	?Update_Radar@DASquadMemberClass@@QAEXXZ	; DASquadMemberClass::Update_Radar
PUBLIC	?Add_Radar@DASquadMemberClass@@QAEXPAV1@@Z	; DASquadMemberClass::Add_Radar
PUBLIC	?Remove_Radar@DASquadMemberClass@@QAEXPAV1@@Z	; DASquadMemberClass::Remove_Radar
PUBLIC	?Get_Observer_Name@DASquadMemberClass@@UAEPBDXZ	; DASquadMemberClass::Get_Observer_Name
PUBLIC	?Get_Squad@DASquadMemberClass@@QAEPAVDASquadClass@@XZ ; DASquadMemberClass::Get_Squad
PUBLIC	?Is_Leader@DASquadMemberClass@@QAE_NXZ		; DASquadMemberClass::Is_Leader
PUBLIC	?Leave_Squad@DASquadMemberClass@@QAEXXZ		; DASquadMemberClass::Leave_Squad
PUBLIC	??0DASquadMemberClass@@QAE@ABV0@@Z		; DASquadMemberClass::DASquadMemberClass
PUBLIC	??4DASquadMemberClass@@QAEAAV0@ABV0@@Z		; DASquadMemberClass::operator=
PUBLIC	??_GDASquadMemberClass@@UAEPAXI@Z		; DASquadMemberClass::`scalar deleting destructor'
PUBLIC	??_EDASquadMemberClass@@UAEPAXI@Z		; DASquadMemberClass::`vector deleting destructor'
PUBLIC	??0DASquadClass@@QAE@PAVcPlayer@@@Z		; DASquadClass::DASquadClass
PUBLIC	?Add@DASquadClass@@QAEXPAVcPlayer@@@Z		; DASquadClass::Add
PUBLIC	?Remove@DASquadClass@@QAE_NPAVcPlayer@@@Z	; DASquadClass::Remove
PUBLIC	?Internal_Remove@DASquadClass@@QAEXPAVDASquadMemberClass@@@Z ; DASquadClass::Internal_Remove
PUBLIC	?Disband@DASquadClass@@QAEXXZ			; DASquadClass::Disband
PUBLIC	?Squad_Chat@DASquadClass@@QAAXPAVcPlayer@@PBDZZ	; DASquadClass::Squad_Chat
PUBLIC	?Squad_Message@DASquadClass@@QAAXPBDZZ		; DASquadClass::Squad_Message
PUBLIC	?Squad_Message_Except@DASquadClass@@QAAXPAVcPlayer@@PBDZZ ; DASquadClass::Squad_Message_Except
PUBLIC	?Leader_Message@DASquadClass@@QAAXPBDZZ		; DASquadClass::Leader_Message
PUBLIC	?Get_Max_Squad_Games@DASquadClass@@QAEHXZ	; DASquadClass::Get_Max_Squad_Games
PUBLIC	?Set_Max_Squad_Games@DASquadClass@@QAEHH@Z	; DASquadClass::Set_Max_Squad_Games
PUBLIC	?Is_Member@DASquadClass@@QAE_NPAVcPlayer@@@Z	; DASquadClass::Is_Member
PUBLIC	?Is_Leader@DASquadClass@@QAE_NPAVcPlayer@@@Z	; DASquadClass::Is_Leader
PUBLIC	?Find_Member@DASquadClass@@QAEPAVDASquadMemberClass@@PAVcPlayer@@@Z ; DASquadClass::Find_Member
PUBLIC	?Get_Member@DASquadClass@@QAEPAVDASquadMemberClass@@H@Z ; DASquadClass::Get_Member
PUBLIC	?Get_Leader@DASquadClass@@QAEPAVDASquadMemberClass@@XZ ; DASquadClass::Get_Leader
PUBLIC	?Set_Leader@DASquadClass@@QAEXPAVcPlayer@@@Z	; DASquadClass::Set_Leader
PUBLIC	?Get_Team@DASquadClass@@QAEHXZ			; DASquadClass::Get_Team
PUBLIC	?Set_Team@DASquadClass@@QAEXH@Z			; DASquadClass::Set_Team
PUBLIC	?Check_Team@DASquadClass@@QAEXXZ		; DASquadClass::Check_Team
PUBLIC	?Size@DASquadClass@@QAEHXZ			; DASquadClass::Size
PUBLIC	?Is_Full@DASquadClass@@QAE_NXZ			; DASquadClass::Is_Full
PUBLIC	?Active_Size@DASquadClass@@QAEHXZ		; DASquadClass::Active_Size
PUBLIC	??0?$VectorClass@PAVDASquadMemberClass@@@@QAE@HPBQAVDASquadMemberClass@@@Z ; VectorClass<DASquadMemberClass *>::VectorClass<DASquadMemberClass *>
PUBLIC	??0?$VectorClass@PAVDASquadMemberClass@@@@QAE@ABV0@@Z ; VectorClass<DASquadMemberClass *>::VectorClass<DASquadMemberClass *>
PUBLIC	??4?$VectorClass@PAVDASquadMemberClass@@@@QAEAAV0@ABV0@@Z ; VectorClass<DASquadMemberClass *>::operator=
PUBLIC	??1?$VectorClass@PAVDASquadMemberClass@@@@UAE@XZ ; VectorClass<DASquadMemberClass *>::~VectorClass<DASquadMemberClass *>
PUBLIC	??A?$VectorClass@PAVDASquadMemberClass@@@@QAEAAPAVDASquadMemberClass@@H@Z ; VectorClass<DASquadMemberClass *>::operator[]
PUBLIC	??A?$VectorClass@PAVDASquadMemberClass@@@@QBEABQAVDASquadMemberClass@@H@Z ; VectorClass<DASquadMemberClass *>::operator[]
PUBLIC	??8?$VectorClass@PAVDASquadMemberClass@@@@UBE_NABV0@@Z ; VectorClass<DASquadMemberClass *>::operator==
PUBLIC	?Resize@?$VectorClass@PAVDASquadMemberClass@@@@UAE_NHPBQAVDASquadMemberClass@@@Z ; VectorClass<DASquadMemberClass *>::Resize
PUBLIC	?Clear@?$VectorClass@PAVDASquadMemberClass@@@@UAEXXZ ; VectorClass<DASquadMemberClass *>::Clear
PUBLIC	?Length@?$VectorClass@PAVDASquadMemberClass@@@@QBEHXZ ; VectorClass<DASquadMemberClass *>::Length
PUBLIC	?ID@?$VectorClass@PAVDASquadMemberClass@@@@UAEHPBQAVDASquadMemberClass@@@Z ; VectorClass<DASquadMemberClass *>::ID
PUBLIC	?ID@?$VectorClass@PAVDASquadMemberClass@@@@UAEHABQAVDASquadMemberClass@@@Z ; VectorClass<DASquadMemberClass *>::ID
PUBLIC	??_G?$VectorClass@PAVDASquadMemberClass@@@@UAEPAXI@Z ; VectorClass<DASquadMemberClass *>::`scalar deleting destructor'
PUBLIC	??0?$DynamicVectorClass@PAVDASquadMemberClass@@@@QAE@IPBQAVDASquadMemberClass@@@Z ; DynamicVectorClass<DASquadMemberClass *>::DynamicVectorClass<DASquadMemberClass *>
PUBLIC	??0?$DynamicVectorClass@PAVDASquadMemberClass@@@@QAE@ABV0@@Z ; DynamicVectorClass<DASquadMemberClass *>::DynamicVectorClass<DASquadMemberClass *>
PUBLIC	??4?$DynamicVectorClass@PAVDASquadMemberClass@@@@QAEAAV0@ABV0@@Z ; DynamicVectorClass<DASquadMemberClass *>::operator=
PUBLIC	?Resize@?$DynamicVectorClass@PAVDASquadMemberClass@@@@UAE_NHPBQAVDASquadMemberClass@@@Z ; DynamicVectorClass<DASquadMemberClass *>::Resize
PUBLIC	?Clear@?$DynamicVectorClass@PAVDASquadMemberClass@@@@UAEXXZ ; DynamicVectorClass<DASquadMemberClass *>::Clear
PUBLIC	?Count@?$DynamicVectorClass@PAVDASquadMemberClass@@@@QBEHXZ ; DynamicVectorClass<DASquadMemberClass *>::Count
PUBLIC	?Add@?$DynamicVectorClass@PAVDASquadMemberClass@@@@QAE_NABQAVDASquadMemberClass@@@Z ; DynamicVectorClass<DASquadMemberClass *>::Add
PUBLIC	?Add_Head@?$DynamicVectorClass@PAVDASquadMemberClass@@@@QAE_NABQAVDASquadMemberClass@@@Z ; DynamicVectorClass<DASquadMemberClass *>::Add_Head
PUBLIC	?Insert@?$DynamicVectorClass@PAVDASquadMemberClass@@@@QAE_NHABQAVDASquadMemberClass@@@Z ; DynamicVectorClass<DASquadMemberClass *>::Insert
PUBLIC	?Delete@?$DynamicVectorClass@PAVDASquadMemberClass@@@@QAE_NH@Z ; DynamicVectorClass<DASquadMemberClass *>::Delete
PUBLIC	?ID@?$DynamicVectorClass@PAVDASquadMemberClass@@@@UAEHPBQAVDASquadMemberClass@@@Z ; DynamicVectorClass<DASquadMemberClass *>::ID
PUBLIC	?ID@?$DynamicVectorClass@PAVDASquadMemberClass@@@@UAEHABQAVDASquadMemberClass@@@Z ; DynamicVectorClass<DASquadMemberClass *>::ID
PUBLIC	??1?$DynamicVectorClass@PAVDASquadMemberClass@@@@UAE@XZ ; DynamicVectorClass<DASquadMemberClass *>::~DynamicVectorClass<DASquadMemberClass *>
PUBLIC	??_G?$DynamicVectorClass@PAVDASquadMemberClass@@@@UAEPAXI@Z ; DynamicVectorClass<DASquadMemberClass *>::`scalar deleting destructor'
PUBLIC	??1DASquadClass@@QAE@XZ				; DASquadClass::~DASquadClass
PUBLIC	??0DASquadClass@@QAE@ABV0@@Z			; DASquadClass::DASquadClass
PUBLIC	??4DASquadClass@@QAEAAV0@ABV0@@Z		; DASquadClass::operator=
PUBLIC	??_GDASquadClass@@QAEPAXI@Z			; DASquadClass::`scalar deleting destructor'
PUBLIC	?Init@DASquadManagerClass@@EAEXXZ		; DASquadManagerClass::Init
PUBLIC	??1DASquadManagerClass@@EAE@XZ			; DASquadManagerClass::~DASquadManagerClass
PUBLIC	?Level_Loaded_Event@DASquadManagerClass@@EAEXXZ	; DASquadManagerClass::Level_Loaded_Event
PUBLIC	?Settings_Loaded_Event@DASquadManagerClass@@EAEXXZ ; DASquadManagerClass::Settings_Loaded_Event
PUBLIC	?Player_Leave_Event@DASquadManagerClass@@EAEXPAVcPlayer@@@Z ; DASquadManagerClass::Player_Leave_Event
PUBLIC	?Team_Change_Event@DASquadManagerClass@@EAEXPAVcPlayer@@@Z ; DASquadManagerClass::Team_Change_Event
PUBLIC	?Remix_Event@DASquadManagerClass@@EAEXXZ	; DASquadManagerClass::Remix_Event
PUBLIC	?Rebalance_Event@DASquadManagerClass@@EAEXXZ	; DASquadManagerClass::Rebalance_Event
PUBLIC	?Swap_Event@DASquadManagerClass@@EAEXXZ		; DASquadManagerClass::Swap_Event
PUBLIC	?Think@DASquadManagerClass@@EAEXXZ		; DASquadManagerClass::Think
PUBLIC	?Chat_Event@DASquadManagerClass@@EAE_NPAVcPlayer@@W4TextMessageEnum@@PB_WH@Z ; DASquadManagerClass::Chat_Event
PUBLIC	?List_Chat_Command@DASquadManagerClass@@AAE_NPAVcPlayer@@ABVDATokenClass@@W4TextMessageEnum@@@Z ; DASquadManagerClass::List_Chat_Command
PUBLIC	?Join_Chat_Command@DASquadManagerClass@@AAE_NPAVcPlayer@@ABVDATokenClass@@W4TextMessageEnum@@@Z ; DASquadManagerClass::Join_Chat_Command
PUBLIC	?Invite_Chat_Command@DASquadManagerClass@@AAE_NPAVcPlayer@@ABVDATokenClass@@W4TextMessageEnum@@@Z ; DASquadManagerClass::Invite_Chat_Command
PUBLIC	?Accept_Chat_Command@DASquadManagerClass@@AAE_NPAVcPlayer@@ABVDATokenClass@@W4TextMessageEnum@@@Z ; DASquadManagerClass::Accept_Chat_Command
PUBLIC	?Decline_Chat_Command@DASquadManagerClass@@AAE_NPAVcPlayer@@ABVDATokenClass@@W4TextMessageEnum@@@Z ; DASquadManagerClass::Decline_Chat_Command
PUBLIC	?Leave_Chat_Command@DASquadManagerClass@@AAE_NPAVcPlayer@@ABVDATokenClass@@W4TextMessageEnum@@@Z ; DASquadManagerClass::Leave_Chat_Command
PUBLIC	?Create_Squad@DASquadManagerClass@@QAEPAVDASquadClass@@PAVcPlayer@@@Z ; DASquadManagerClass::Create_Squad
PUBLIC	?Invite@DASquadManagerClass@@QAEXPAVcPlayer@@0@Z ; DASquadManagerClass::Invite
PUBLIC	?Join_Accepted@DASquadManagerClass@@QAEXH@Z	; DASquadManagerClass::Join_Accepted
PUBLIC	?Invite_Accepted@DASquadManagerClass@@QAEXH@Z	; DASquadManagerClass::Invite_Accepted
PUBLIC	?Display_Squads@DASquadManagerClass@@QAEXXZ	; DASquadManagerClass::Display_Squads
PUBLIC	?Active_Squads@DASquadManagerClass@@QAEXXZ	; DASquadManagerClass::Active_Squads
PUBLIC	?Is_Join_Pending@DASquadManagerClass@@QAE_NPAVcPlayer@@0@Z ; DASquadManagerClass::Is_Join_Pending
PUBLIC	?Is_Invite_Pending@DASquadManagerClass@@QAE_NPAVcPlayer@@0@Z ; DASquadManagerClass::Is_Invite_Pending
PUBLIC	?Is_WaitList_Pending@DASquadManagerClass@@QAE_NPAVcPlayer@@0@Z ; DASquadManagerClass::Is_WaitList_Pending
PUBLIC	?Remove_Join@DASquadManagerClass@@QAE_NPAVcPlayer@@0@Z ; DASquadManagerClass::Remove_Join
PUBLIC	?Remove_Invite@DASquadManagerClass@@QAE_NPAVcPlayer@@0@Z ; DASquadManagerClass::Remove_Invite
PUBLIC	?Remove_WaitList@DASquadManagerClass@@QAE_NPAVcPlayer@@0@Z ; DASquadManagerClass::Remove_WaitList
PUBLIC	?Clear_Joins@DASquadManagerClass@@QAE_NPAVcPlayer@@@Z ; DASquadManagerClass::Clear_Joins
PUBLIC	?Clear_Invites@DASquadManagerClass@@QAE_NPAVcPlayer@@@Z ; DASquadManagerClass::Clear_Invites
PUBLIC	?Clear_WaitList@DASquadManagerClass@@QAE_NPAVcPlayer@@@Z ; DASquadManagerClass::Clear_WaitList
PUBLIC	?Clear_Lists@DASquadManagerClass@@QAEXPAVcPlayer@@@Z ; DASquadManagerClass::Clear_Lists
PUBLIC	?Find_Squad@DASquadManagerClass@@QAEPAVDASquadClass@@PAVcPlayer@@@Z ; DASquadManagerClass::Find_Squad
PUBLIC	?Get_Squad@DASquadManagerClass@@QAEPAVDASquadClass@@H@Z ; DASquadManagerClass::Get_Squad
PUBLIC	?Get_Squad_Count@DASquadManagerClass@@QAEHXZ	; DASquadManagerClass::Get_Squad_Count
PUBLIC	?Get_Max_Squad_Size@DASquadManagerClass@@QAEHXZ	; DASquadManagerClass::Get_Max_Squad_Size
PUBLIC	?Can_Create_Squads@DASquadManagerClass@@QAE_NXZ	; DASquadManagerClass::Can_Create_Squads
PUBLIC	?Check_Teams@DASquadManagerClass@@QAEXXZ	; DASquadManagerClass::Check_Teams
PUBLIC	?Check_Size@DASquadManagerClass@@QAEXXZ		; DASquadManagerClass::Check_Size
PUBLIC	?Squad_Max_Games@DASquadManagerClass@@QAEXXZ	; DASquadManagerClass::Squad_Max_Games
PUBLIC	??0?$VectorClass@UDASquadInviteStruct@@@@QAE@HPBUDASquadInviteStruct@@@Z ; VectorClass<DASquadInviteStruct>::VectorClass<DASquadInviteStruct>
PUBLIC	??0?$VectorClass@UDASquadInviteStruct@@@@QAE@ABV0@@Z ; VectorClass<DASquadInviteStruct>::VectorClass<DASquadInviteStruct>
PUBLIC	??4?$VectorClass@UDASquadInviteStruct@@@@QAEAAV0@ABV0@@Z ; VectorClass<DASquadInviteStruct>::operator=
PUBLIC	??1?$VectorClass@UDASquadInviteStruct@@@@UAE@XZ	; VectorClass<DASquadInviteStruct>::~VectorClass<DASquadInviteStruct>
PUBLIC	??A?$VectorClass@UDASquadInviteStruct@@@@QAEAAUDASquadInviteStruct@@H@Z ; VectorClass<DASquadInviteStruct>::operator[]
PUBLIC	??A?$VectorClass@UDASquadInviteStruct@@@@QBEABUDASquadInviteStruct@@H@Z ; VectorClass<DASquadInviteStruct>::operator[]
PUBLIC	??8?$VectorClass@UDASquadInviteStruct@@@@UBE_NABV0@@Z ; VectorClass<DASquadInviteStruct>::operator==
PUBLIC	?Resize@?$VectorClass@UDASquadInviteStruct@@@@UAE_NHPBUDASquadInviteStruct@@@Z ; VectorClass<DASquadInviteStruct>::Resize
PUBLIC	?Clear@?$VectorClass@UDASquadInviteStruct@@@@UAEXXZ ; VectorClass<DASquadInviteStruct>::Clear
PUBLIC	?Length@?$VectorClass@UDASquadInviteStruct@@@@QBEHXZ ; VectorClass<DASquadInviteStruct>::Length
PUBLIC	?ID@?$VectorClass@UDASquadInviteStruct@@@@UAEHPBUDASquadInviteStruct@@@Z ; VectorClass<DASquadInviteStruct>::ID
PUBLIC	?ID@?$VectorClass@UDASquadInviteStruct@@@@UAEHABUDASquadInviteStruct@@@Z ; VectorClass<DASquadInviteStruct>::ID
PUBLIC	??_G?$VectorClass@UDASquadInviteStruct@@@@UAEPAXI@Z ; VectorClass<DASquadInviteStruct>::`scalar deleting destructor'
PUBLIC	??0?$DynamicVectorClass@UDASquadInviteStruct@@@@QAE@IPBUDASquadInviteStruct@@@Z ; DynamicVectorClass<DASquadInviteStruct>::DynamicVectorClass<DASquadInviteStruct>
PUBLIC	??0?$DynamicVectorClass@UDASquadInviteStruct@@@@QAE@ABV0@@Z ; DynamicVectorClass<DASquadInviteStruct>::DynamicVectorClass<DASquadInviteStruct>
PUBLIC	??4?$DynamicVectorClass@UDASquadInviteStruct@@@@QAEAAV0@ABV0@@Z ; DynamicVectorClass<DASquadInviteStruct>::operator=
PUBLIC	?Resize@?$DynamicVectorClass@UDASquadInviteStruct@@@@UAE_NHPBUDASquadInviteStruct@@@Z ; DynamicVectorClass<DASquadInviteStruct>::Resize
PUBLIC	?Clear@?$DynamicVectorClass@UDASquadInviteStruct@@@@UAEXXZ ; DynamicVectorClass<DASquadInviteStruct>::Clear
PUBLIC	?Count@?$DynamicVectorClass@UDASquadInviteStruct@@@@QBEHXZ ; DynamicVectorClass<DASquadInviteStruct>::Count
PUBLIC	?Add@?$DynamicVectorClass@UDASquadInviteStruct@@@@QAE_NABUDASquadInviteStruct@@@Z ; DynamicVectorClass<DASquadInviteStruct>::Add
PUBLIC	?Delete@?$DynamicVectorClass@UDASquadInviteStruct@@@@QAE_NH@Z ; DynamicVectorClass<DASquadInviteStruct>::Delete
PUBLIC	?Delete_All@?$DynamicVectorClass@UDASquadInviteStruct@@@@QAEXXZ ; DynamicVectorClass<DASquadInviteStruct>::Delete_All
PUBLIC	?ID@?$DynamicVectorClass@UDASquadInviteStruct@@@@UAEHPBUDASquadInviteStruct@@@Z ; DynamicVectorClass<DASquadInviteStruct>::ID
PUBLIC	?ID@?$DynamicVectorClass@UDASquadInviteStruct@@@@UAEHABUDASquadInviteStruct@@@Z ; DynamicVectorClass<DASquadInviteStruct>::ID
PUBLIC	??1?$DynamicVectorClass@UDASquadInviteStruct@@@@UAE@XZ ; DynamicVectorClass<DASquadInviteStruct>::~DynamicVectorClass<DASquadInviteStruct>
PUBLIC	??_G?$DynamicVectorClass@UDASquadInviteStruct@@@@UAEPAXI@Z ; DynamicVectorClass<DASquadInviteStruct>::`scalar deleting destructor'
PUBLIC	??0?$VectorClass@PAVDASquadClass@@@@QAE@HPBQAVDASquadClass@@@Z ; VectorClass<DASquadClass *>::VectorClass<DASquadClass *>
PUBLIC	??0?$VectorClass@PAVDASquadClass@@@@QAE@ABV0@@Z	; VectorClass<DASquadClass *>::VectorClass<DASquadClass *>
PUBLIC	??4?$VectorClass@PAVDASquadClass@@@@QAEAAV0@ABV0@@Z ; VectorClass<DASquadClass *>::operator=
PUBLIC	??1?$VectorClass@PAVDASquadClass@@@@UAE@XZ	; VectorClass<DASquadClass *>::~VectorClass<DASquadClass *>
PUBLIC	??A?$VectorClass@PAVDASquadClass@@@@QAEAAPAVDASquadClass@@H@Z ; VectorClass<DASquadClass *>::operator[]
PUBLIC	??A?$VectorClass@PAVDASquadClass@@@@QBEABQAVDASquadClass@@H@Z ; VectorClass<DASquadClass *>::operator[]
PUBLIC	??8?$VectorClass@PAVDASquadClass@@@@UBE_NABV0@@Z ; VectorClass<DASquadClass *>::operator==
PUBLIC	?Resize@?$VectorClass@PAVDASquadClass@@@@UAE_NHPBQAVDASquadClass@@@Z ; VectorClass<DASquadClass *>::Resize
PUBLIC	?Clear@?$VectorClass@PAVDASquadClass@@@@UAEXXZ	; VectorClass<DASquadClass *>::Clear
PUBLIC	?Length@?$VectorClass@PAVDASquadClass@@@@QBEHXZ	; VectorClass<DASquadClass *>::Length
PUBLIC	?ID@?$VectorClass@PAVDASquadClass@@@@UAEHPBQAVDASquadClass@@@Z ; VectorClass<DASquadClass *>::ID
PUBLIC	?ID@?$VectorClass@PAVDASquadClass@@@@UAEHABQAVDASquadClass@@@Z ; VectorClass<DASquadClass *>::ID
PUBLIC	??_G?$VectorClass@PAVDASquadClass@@@@UAEPAXI@Z	; VectorClass<DASquadClass *>::`scalar deleting destructor'
PUBLIC	??0?$DynamicVectorClass@PAVDASquadClass@@@@QAE@IPBQAVDASquadClass@@@Z ; DynamicVectorClass<DASquadClass *>::DynamicVectorClass<DASquadClass *>
PUBLIC	??0?$DynamicVectorClass@PAVDASquadClass@@@@QAE@ABV0@@Z ; DynamicVectorClass<DASquadClass *>::DynamicVectorClass<DASquadClass *>
PUBLIC	??4?$DynamicVectorClass@PAVDASquadClass@@@@QAEAAV0@ABV0@@Z ; DynamicVectorClass<DASquadClass *>::operator=
PUBLIC	?Resize@?$DynamicVectorClass@PAVDASquadClass@@@@UAE_NHPBQAVDASquadClass@@@Z ; DynamicVectorClass<DASquadClass *>::Resize
PUBLIC	?Clear@?$DynamicVectorClass@PAVDASquadClass@@@@UAEXXZ ; DynamicVectorClass<DASquadClass *>::Clear
PUBLIC	?Count@?$DynamicVectorClass@PAVDASquadClass@@@@QBEHXZ ; DynamicVectorClass<DASquadClass *>::Count
PUBLIC	?Add@?$DynamicVectorClass@PAVDASquadClass@@@@QAE_NABQAVDASquadClass@@@Z ; DynamicVectorClass<DASquadClass *>::Add
PUBLIC	?Delete@?$DynamicVectorClass@PAVDASquadClass@@@@QAE_NH@Z ; DynamicVectorClass<DASquadClass *>::Delete
PUBLIC	?Delete_All@?$DynamicVectorClass@PAVDASquadClass@@@@QAEXXZ ; DynamicVectorClass<DASquadClass *>::Delete_All
PUBLIC	?ID@?$DynamicVectorClass@PAVDASquadClass@@@@UAEHPBQAVDASquadClass@@@Z ; DynamicVectorClass<DASquadClass *>::ID
PUBLIC	?ID@?$DynamicVectorClass@PAVDASquadClass@@@@UAEHABQAVDASquadClass@@@Z ; DynamicVectorClass<DASquadClass *>::ID
PUBLIC	??1?$DynamicVectorClass@PAVDASquadClass@@@@UAE@XZ ; DynamicVectorClass<DASquadClass *>::~DynamicVectorClass<DASquadClass *>
PUBLIC	??_G?$DynamicVectorClass@PAVDASquadClass@@@@UAEPAXI@Z ; DynamicVectorClass<DASquadClass *>::`scalar deleting destructor'
PUBLIC	??0DASquadManagerClass@@QAE@XZ			; DASquadManagerClass::DASquadManagerClass
PUBLIC	??0DASquadManagerClass@@QAE@ABV0@@Z		; DASquadManagerClass::DASquadManagerClass
PUBLIC	??4DASquadManagerClass@@QAEAAV0@ABV0@@Z		; DASquadManagerClass::operator=
PUBLIC	??_GDASquadManagerClass@@EAEPAXI@Z		; DASquadManagerClass::`scalar deleting destructor'
PUBLIC	??_EDASquadManagerClass@@EAEPAXI@Z		; DASquadManagerClass::`vector deleting destructor'
PUBLIC	??0?$DAGameFeatureRegistrant@VDASquadManagerClass@@@@QAE@PBD00@Z ; DAGameFeatureRegistrant<DASquadManagerClass>::DAGameFeatureRegistrant<DASquadManagerClass>
PUBLIC	?Create_Instance@?$DAGameFeatureRegistrant@VDASquadManagerClass@@@@UAEPAVDAGameFeatureClass@@XZ ; DAGameFeatureRegistrant<DASquadManagerClass>::Create_Instance
PUBLIC	??1?$DAGameFeatureRegistrant@VDASquadManagerClass@@@@UAE@XZ ; DAGameFeatureRegistrant<DASquadManagerClass>::~DAGameFeatureRegistrant<DASquadManagerClass>
PUBLIC	??_G?$DAGameFeatureRegistrant@VDASquadManagerClass@@@@UAEPAXI@Z ; DAGameFeatureRegistrant<DASquadManagerClass>::`scalar deleting destructor'
PUBLIC	??4DASettingsClass@@QAEAAV0@ABV0@@Z		; DASettingsClass::operator=
PUBLIC	??4DASettingsManager@@QAEAAV0@ABV0@@Z		; DASettingsManager::operator=
PUBLIC	??1DAGameObjObserverClass@@UAE@XZ		; DAGameObjObserverClass::~DAGameObjObserverClass
PUBLIC	?Destroyed@DAGameObjObserverClass@@UAEXPAVScriptableGameObj@@@Z ; DAGameObjObserverClass::Destroyed
PUBLIC	?Custom@DAGameObjObserverClass@@UAEXPAVScriptableGameObj@@HH0@Z ; DAGameObjObserverClass::Custom
PUBLIC	?Poked@DAGameObjObserverClass@@UAEXPAVScriptableGameObj@@0@Z ; DAGameObjObserverClass::Poked
PUBLIC	?Entered@DAGameObjObserverClass@@UAEXPAVScriptableGameObj@@0@Z ; DAGameObjObserverClass::Entered
PUBLIC	?Exited@DAGameObjObserverClass@@UAEXPAVScriptableGameObj@@0@Z ; DAGameObjObserverClass::Exited
PUBLIC	?Sound_Heard@DAGameObjObserverClass@@UAEXPAVScriptableGameObj@@ABUCombatSound@@@Z ; DAGameObjObserverClass::Sound_Heard
PUBLIC	?Enemy_Seen@DAGameObjObserverClass@@UAEXPAVScriptableGameObj@@0@Z ; DAGameObjObserverClass::Enemy_Seen
PUBLIC	?Action_Complete@DAGameObjObserverClass@@UAEXPAVScriptableGameObj@@HW4ActionCompleteReason@@@Z ; DAGameObjObserverClass::Action_Complete
PUBLIC	?Timer_Expired@DAGameObjObserverClass@@UAEXPAVScriptableGameObj@@H@Z ; DAGameObjObserverClass::Timer_Expired
PUBLIC	?Animation_Complete@DAGameObjObserverClass@@UAEXPAVScriptableGameObj@@PBD@Z ; DAGameObjObserverClass::Animation_Complete
PUBLIC	?Init@DAGameObjObserverClass@@UAEXXZ		; DAGameObjObserverClass::Init
PUBLIC	?Vehicle_Entry_Request@DAGameObjObserverClass@@UAE_NPAVcPlayer@@AAH@Z ; DAGameObjObserverClass::Vehicle_Entry_Request
PUBLIC	?Vehicle_Entry_Request@DAGameObjObserverClass@@UAE_NPAVVehicleGameObj@@AAH@Z ; DAGameObjObserverClass::Vehicle_Entry_Request
PUBLIC	?Vehicle_Enter@DAGameObjObserverClass@@UAEXPAVcPlayer@@H@Z ; DAGameObjObserverClass::Vehicle_Enter
PUBLIC	?Vehicle_Enter@DAGameObjObserverClass@@UAEXPAVVehicleGameObj@@H@Z ; DAGameObjObserverClass::Vehicle_Enter
PUBLIC	?Vehicle_Exit@DAGameObjObserverClass@@UAEXPAVcPlayer@@H@Z ; DAGameObjObserverClass::Vehicle_Exit
PUBLIC	?Vehicle_Exit@DAGameObjObserverClass@@UAEXPAVVehicleGameObj@@H@Z ; DAGameObjObserverClass::Vehicle_Exit
PUBLIC	?Vehicle_Flip@DAGameObjObserverClass@@UAE_NXZ	; DAGameObjObserverClass::Vehicle_Flip
PUBLIC	?Damage_Dealt_Request@DAGameObjObserverClass@@UAE_NPAVDamageableGameObj@@AAMAAIMW4Type@DADamageType@@@Z ; DAGameObjObserverClass::Damage_Dealt_Request
PUBLIC	?Damage_Received_Request@DAGameObjObserverClass@@UAE_NPAVArmedGameObj@@AAMAAIMW4Type@DADamageType@@@Z ; DAGameObjObserverClass::Damage_Received_Request
PUBLIC	?Damage_Dealt@DAGameObjObserverClass@@UAEXPAVDamageableGameObj@@MIMW4Type@DADamageType@@@Z ; DAGameObjObserverClass::Damage_Dealt
PUBLIC	?Damage_Received@DAGameObjObserverClass@@UAEXPAVArmedGameObj@@MIMW4Type@DADamageType@@@Z ; DAGameObjObserverClass::Damage_Received
PUBLIC	?Kill_Dealt@DAGameObjObserverClass@@UAEXPAVDamageableGameObj@@MIMW4Type@DADamageType@@@Z ; DAGameObjObserverClass::Kill_Dealt
PUBLIC	?Kill_Received@DAGameObjObserverClass@@UAEXPAVArmedGameObj@@MIMW4Type@DADamageType@@@Z ; DAGameObjObserverClass::Kill_Received
PUBLIC	?PowerUp_Grant_Request@DAGameObjObserverClass@@UAE_NPAVcPlayer@@@Z ; DAGameObjObserverClass::PowerUp_Grant_Request
PUBLIC	?PowerUp_Grant_Request@DAGameObjObserverClass@@UAE_NPBVPowerUpGameObjDef@@PAVPowerUpGameObj@@@Z ; DAGameObjObserverClass::PowerUp_Grant_Request
PUBLIC	?PowerUp_Grant@DAGameObjObserverClass@@UAEXPAVcPlayer@@@Z ; DAGameObjObserverClass::PowerUp_Grant
PUBLIC	?PowerUp_Grant@DAGameObjObserverClass@@UAEXPBVPowerUpGameObjDef@@PAVPowerUpGameObj@@@Z ; DAGameObjObserverClass::PowerUp_Grant
PUBLIC	?Add_Weapon_Request@DAGameObjObserverClass@@UAE_NPBVWeaponDefinitionClass@@@Z ; DAGameObjObserverClass::Add_Weapon_Request
PUBLIC	?Add_Weapon@DAGameObjObserverClass@@UAEXPAVWeaponClass@@@Z ; DAGameObjObserverClass::Add_Weapon
PUBLIC	?Remove_Weapon@DAGameObjObserverClass@@UAEXPAVWeaponClass@@@Z ; DAGameObjObserverClass::Remove_Weapon
PUBLIC	?Clear_Weapons@DAGameObjObserverClass@@UAEXXZ	; DAGameObjObserverClass::Clear_Weapons
PUBLIC	?Get_Owner@DAGameObjObserverClass@@QAEPAVScriptableGameObj@@XZ ; DAGameObjObserverClass::Get_Owner
PUBLIC	?Killed@DAGameObjObserverClass@@EAEXPAVScriptableGameObj@@0@Z ; DAGameObjObserverClass::Killed
PUBLIC	?Damaged@DAGameObjObserverClass@@EAEXPAVScriptableGameObj@@0M@Z ; DAGameObjObserverClass::Damaged
PUBLIC	?Created@DAGameObjObserverClass@@EAEXPAVScriptableGameObj@@@Z ; DAGameObjObserverClass::Created
PUBLIC	??0DAGameObjObserverClass@@QAE@XZ		; DAGameObjObserverClass::DAGameObjObserverClass
PUBLIC	??0DAGameObjObserverClass@@QAE@ABV0@@Z		; DAGameObjObserverClass::DAGameObjObserverClass
PUBLIC	??4DAGameObjObserverClass@@QAEAAV0@ABV0@@Z	; DAGameObjObserverClass::operator=
PUBLIC	??_GDAGameObjObserverClass@@UAEPAXI@Z		; DAGameObjObserverClass::`scalar deleting destructor'
PUBLIC	??_EDAGameObjObserverClass@@UAEPAXI@Z		; DAGameObjObserverClass::`vector deleting destructor'
PUBLIC	?Head@?$SList@VcPlayer@@@@QBEPAV?$SLNode@VcPlayer@@@@XZ ; SList<cPlayer>::Head
PUBLIC	?Next@?$SLNode@VcPlayer@@@@QBEPAV1@XZ		; SLNode<cPlayer>::Next
PUBLIC	?Data@?$SLNode@VcPlayer@@@@QBEPAVcPlayer@@XZ	; SLNode<cPlayer>::Data
PUBLIC	??0?$VectorClass@UDASquadRemixStruct@@@@QAE@HPBUDASquadRemixStruct@@@Z ; VectorClass<DASquadRemixStruct>::VectorClass<DASquadRemixStruct>
PUBLIC	??4?$VectorClass@UDASquadRemixStruct@@@@QAEAAV0@ABV0@@Z ; VectorClass<DASquadRemixStruct>::operator=
PUBLIC	??1?$VectorClass@UDASquadRemixStruct@@@@UAE@XZ	; VectorClass<DASquadRemixStruct>::~VectorClass<DASquadRemixStruct>
PUBLIC	??A?$VectorClass@UDASquadRemixStruct@@@@QAEAAUDASquadRemixStruct@@H@Z ; VectorClass<DASquadRemixStruct>::operator[]
PUBLIC	??A?$VectorClass@UDASquadRemixStruct@@@@QBEABUDASquadRemixStruct@@H@Z ; VectorClass<DASquadRemixStruct>::operator[]
PUBLIC	??8?$VectorClass@UDASquadRemixStruct@@@@UBE_NABV0@@Z ; VectorClass<DASquadRemixStruct>::operator==
PUBLIC	?Resize@?$VectorClass@UDASquadRemixStruct@@@@UAE_NHPBUDASquadRemixStruct@@@Z ; VectorClass<DASquadRemixStruct>::Resize
PUBLIC	?Clear@?$VectorClass@UDASquadRemixStruct@@@@UAEXXZ ; VectorClass<DASquadRemixStruct>::Clear
PUBLIC	?Length@?$VectorClass@UDASquadRemixStruct@@@@QBEHXZ ; VectorClass<DASquadRemixStruct>::Length
PUBLIC	?ID@?$VectorClass@UDASquadRemixStruct@@@@UAEHPBUDASquadRemixStruct@@@Z ; VectorClass<DASquadRemixStruct>::ID
PUBLIC	?ID@?$VectorClass@UDASquadRemixStruct@@@@UAEHABUDASquadRemixStruct@@@Z ; VectorClass<DASquadRemixStruct>::ID
PUBLIC	??_G?$VectorClass@UDASquadRemixStruct@@@@UAEPAXI@Z ; VectorClass<DASquadRemixStruct>::`scalar deleting destructor'
PUBLIC	??0?$DynamicVectorClass@UDASquadRemixStruct@@@@QAE@IPBUDASquadRemixStruct@@@Z ; DynamicVectorClass<DASquadRemixStruct>::DynamicVectorClass<DASquadRemixStruct>
PUBLIC	??4?$DynamicVectorClass@UDASquadRemixStruct@@@@QAEAAV0@ABV0@@Z ; DynamicVectorClass<DASquadRemixStruct>::operator=
PUBLIC	?Resize@?$DynamicVectorClass@UDASquadRemixStruct@@@@UAE_NHPBUDASquadRemixStruct@@@Z ; DynamicVectorClass<DASquadRemixStruct>::Resize
PUBLIC	?Clear@?$DynamicVectorClass@UDASquadRemixStruct@@@@UAEXXZ ; DynamicVectorClass<DASquadRemixStruct>::Clear
PUBLIC	?Count@?$DynamicVectorClass@UDASquadRemixStruct@@@@QBEHXZ ; DynamicVectorClass<DASquadRemixStruct>::Count
PUBLIC	?Add@?$DynamicVectorClass@UDASquadRemixStruct@@@@QAE_N$$QAUDASquadRemixStruct@@@Z ; DynamicVectorClass<DASquadRemixStruct>::Add
PUBLIC	?ID@?$DynamicVectorClass@UDASquadRemixStruct@@@@UAEHPBUDASquadRemixStruct@@@Z ; DynamicVectorClass<DASquadRemixStruct>::ID
PUBLIC	?ID@?$DynamicVectorClass@UDASquadRemixStruct@@@@UAEHABUDASquadRemixStruct@@@Z ; DynamicVectorClass<DASquadRemixStruct>::ID
PUBLIC	??1?$DynamicVectorClass@UDASquadRemixStruct@@@@UAE@XZ ; DynamicVectorClass<DASquadRemixStruct>::~DynamicVectorClass<DASquadRemixStruct>
PUBLIC	??_G?$DynamicVectorClass@UDASquadRemixStruct@@@@UAEPAXI@Z ; DynamicVectorClass<DASquadRemixStruct>::`scalar deleting destructor'
PUBLIC	?Set_Next@?$SLNode@UKeyHookWrapperStruct@MultiKeyHookScriptImpClass@@@@QAEXPAV1@@Z ; SLNode<MultiKeyHookScriptImpClass::KeyHookWrapperStruct>::Set_Next
PUBLIC	?Next@?$SLNode@UKeyHookWrapperStruct@MultiKeyHookScriptImpClass@@@@QBEPAV1@XZ ; SLNode<MultiKeyHookScriptImpClass::KeyHookWrapperStruct>::Next
PUBLIC	?Data@?$SLNode@UKeyHookWrapperStruct@MultiKeyHookScriptImpClass@@@@QBEPAUKeyHookWrapperStruct@MultiKeyHookScriptImpClass@@XZ ; SLNode<MultiKeyHookScriptImpClass::KeyHookWrapperStruct>::Data
PUBLIC	??0?$SLNode@UKeyHookWrapperStruct@MultiKeyHookScriptImpClass@@@@IAE@PAUKeyHookWrapperStruct@MultiKeyHookScriptImpClass@@@Z ; SLNode<MultiKeyHookScriptImpClass::KeyHookWrapperStruct>::SLNode<MultiKeyHookScriptImpClass::KeyHookWrapperStruct>
PUBLIC	??$move@AAPAVDAPlayerObserverClass@@@std@@YA$$QAPAVDAPlayerObserverClass@@AAPAV1@@Z ; std::move<DAPlayerObserverClass * &>
PUBLIC	??$move@AAPAVDAPlayerDataClass@@@std@@YA$$QAPAVDAPlayerDataClass@@AAPAV1@@Z ; std::move<DAPlayerDataClass * &>
PUBLIC	??$move@AAPAUDAPlayerTagStruct@DAPlayerClass@@@std@@YA$$QAPAUDAPlayerTagStruct@DAPlayerClass@@AAPAU12@@Z ; std::move<DAPlayerClass::DAPlayerTagStruct * &>
PUBLIC	??$move@AAPAUDAPlayerObserverTimerStruct@@@std@@YA$$QAPAUDAPlayerObserverTimerStruct@@AAPAU1@@Z ; std::move<DAPlayerObserverTimerStruct * &>
PUBLIC	??$move@AAPAUDAPlayerObserverChatCommandStruct@@@std@@YA$$QAPAUDAPlayerObserverChatCommandStruct@@AAPAU1@@Z ; std::move<DAPlayerObserverChatCommandStruct * &>
PUBLIC	??$move@AAPAUDAPlayerObserverKeyHookStruct@@@std@@YA$$QAPAUDAPlayerObserverKeyHookStruct@@AAPAU1@@Z ; std::move<DAPlayerObserverKeyHookStruct * &>
PUBLIC	??$move@AAPAVDASquadMemberClass@@@std@@YA$$QAPAVDASquadMemberClass@@AAPAV1@@Z ; std::move<DASquadMemberClass * &>
PUBLIC	??$move@AAUDASquadInviteStruct@@@std@@YA$$QAUDASquadInviteStruct@@AAU1@@Z ; std::move<DASquadInviteStruct &>
PUBLIC	??$move@AAPAVDASquadClass@@@std@@YA$$QAPAVDASquadClass@@AAPAV1@@Z ; std::move<DASquadClass * &>
PUBLIC	??$move@AAUDASquadRemixStruct@@@std@@YA$$QAUDASquadRemixStruct@@AAU1@@Z ; std::move<DASquadRemixStruct &>
PUBLIC	?getInstance@?$Singleton@V?$ObjectPoolClass@VGenericSLNode@@$0BAA@@@@@SAAAV?$ObjectPoolClass@VGenericSLNode@@$0BAA@@@XZ ; Singleton<ObjectPoolClass<GenericSLNode,256> >::getInstance
PUBLIC	??0?$ObjectPoolClass@VGenericSLNode@@$0BAA@@@QAE@XZ ; ObjectPoolClass<GenericSLNode,256>::ObjectPoolClass<GenericSLNode,256>
PUBLIC	??1?$ObjectPoolClass@VGenericSLNode@@$0BAA@@@QAE@XZ ; ObjectPoolClass<GenericSLNode,256>::~ObjectPoolClass<GenericSLNode,256>
PUBLIC	?Allocate_Object_Memory@?$ObjectPoolClass@VGenericSLNode@@$0BAA@@@QAEPAVGenericSLNode@@XZ ; ObjectPoolClass<GenericSLNode,256>::Allocate_Object_Memory
PUBLIC	?Free_Object_Memory@?$ObjectPoolClass@VGenericSLNode@@$0BAA@@@QAEXAAVGenericSLNode@@@Z ; ObjectPoolClass<GenericSLNode,256>::Free_Object_Memory
PUBLIC	?writeDummyPattern@?$ObjectPoolClass@VGenericSLNode@@$0BAA@@@QAEXAAVGenericSLNode@@K@Z ; ObjectPoolClass<GenericSLNode,256>::writeDummyPattern
PUBLIC	??__Finstancex@?1??getInstance@?$Singleton@V?$ObjectPoolClass@VGenericSLNode@@$0BAA@@@@@SAAAV?$ObjectPoolClass@VGenericSLNode@@$0BAA@@@XZ@YAXXZ ; `Singleton<ObjectPoolClass<GenericSLNode,256> >::getInstance'::`2'::`dynamic atexit destructor for 'instancex''
PUBLIC	??B?$RefArray@D$03@@QAEPADXZ			; RefArray<char,4>::operator char *
PUBLIC	??B?$RefArray@V?$RefArray@D$03@@$07@@QAEPAV?$RefArray@D$03@@XZ ; RefArray<RefArray<char,4>,8>::operator RefArray<char,4> *
PUBLIC	??_EDASquadManagerClass@@G3AEPAXI@Z		; [thunk]:DASquadManagerClass::`vector deleting destructor'
PUBLIC	??_7GameObjObserverClass@@6B@			; GameObjObserverClass::`vftable'
PUBLIC	??_7ScriptClass@@6B@				; ScriptClass::`vftable'
PUBLIC	??_7ScriptImpClass@@6B@				; ScriptImpClass::`vftable'
PUBLIC	??_7ScriptFactory@@6B@				; ScriptFactory::`vftable'
PUBLIC	??_7ThreadClass@@6B@				; ThreadClass::`vftable'
PUBLIC	??_C@_0DJ@NKJHEMPA@x?3?2github?2renegade?2dragonade_rxd@ ; `string'
PUBLIC	??_C@_1HC@JEIHKHFK@?$AAx?$AA?3?$AA?2?$AAg?$AAi?$AAt?$AAh?$AAu?$AAb?$AA?2?$AAr?$AAe?$AAn?$AAe?$AAg?$AAa?$AAd?$AAe?$AA?2?$AAd?$AAr?$AAa?$AAg?$AAo?$AAn?$AAa?$AAd?$AAe?$AA_?$AAr?$AAx?$AAd@ ; `string'
PUBLIC	??_C@_1M@HLGKFCJM@?$AAf?$AAa?$AAl?$AAs?$AAe?$AA?$AA@ ; `string'
PUBLIC	??_7INIClass@@6B@				; INIClass::`vftable'
PUBLIC	?_checking@?1??Security_Check@GenericDataSafeClass@@KAXXZ@4_NA ; `GenericDataSafeClass::Security_Check'::`2'::_checking
PUBLIC	?_calls@?1??Security_Check@GenericDataSafeClass@@KAXXZ@4KA ; `GenericDataSafeClass::Security_Check'::`2'::_calls
PUBLIC	??_7PostLoadableClass@@6B@			; PostLoadableClass::`vftable'
PUBLIC	??_7ReferencerClass@@6B@			; ReferencerClass::`vftable'
PUBLIC	??_7JFW_Key_Hook_Base@@6B@			; JFW_Key_Hook_Base::`vftable'
PUBLIC	??_7?$SList@UKeyHookWrapperStruct@MultiKeyHookScriptImpClass@@@@6B@ ; SList<MultiKeyHookScriptImpClass::KeyHookWrapperStruct>::`vftable'
PUBLIC	??_7MultiKeyHookScriptImpClass@@6B@		; MultiKeyHookScriptImpClass::`vftable'
PUBLIC	??_7JFW_Object_Created_Hook_Base@@6B@		; JFW_Object_Created_Hook_Base::`vftable'
PUBLIC	??_C@_13ODFOLHGE@?$AA?8?$AA?$AA@		; `string'
PUBLIC	??_C@_15CNBOGEKA@?$AA?8?$AAs?$AA?$AA@		; `string'
PUBLIC	??_7DAEventClass@@6B@				; DAEventClass::`vftable'
PUBLIC	??_7DAGameFeatureFactoryClass@@6B@		; DAGameFeatureFactoryClass::`vftable'
PUBLIC	??_7DAGameFeatureClass@@6B@			; DAGameFeatureClass::`vftable'
PUBLIC	??_7?$VectorClass@PAVDAPlayerObserverClass@@@@6B@ ; VectorClass<DAPlayerObserverClass *>::`vftable'
PUBLIC	??_7?$DynamicVectorClass@PAVDAPlayerObserverClass@@@@6B@ ; DynamicVectorClass<DAPlayerObserverClass *>::`vftable'
PUBLIC	??_7?$VectorClass@PAVDAPlayerDataClass@@@@6B@	; VectorClass<DAPlayerDataClass *>::`vftable'
PUBLIC	??_7?$DynamicVectorClass@PAVDAPlayerDataClass@@@@6B@ ; DynamicVectorClass<DAPlayerDataClass *>::`vftable'
PUBLIC	??_7?$VectorClass@PAUDAPlayerTagStruct@DAPlayerClass@@@@6B@ ; VectorClass<DAPlayerClass::DAPlayerTagStruct *>::`vftable'
PUBLIC	??_7?$DynamicVectorClass@PAUDAPlayerTagStruct@DAPlayerClass@@@@6B@ ; DynamicVectorClass<DAPlayerClass::DAPlayerTagStruct *>::`vftable'
PUBLIC	??_7?$VectorClass@PAUDAPlayerObserverTimerStruct@@@@6B@ ; VectorClass<DAPlayerObserverTimerStruct *>::`vftable'
PUBLIC	??_7?$DynamicVectorClass@PAUDAPlayerObserverTimerStruct@@@@6B@ ; DynamicVectorClass<DAPlayerObserverTimerStruct *>::`vftable'
PUBLIC	??_7?$VectorClass@PAUDAPlayerObserverChatCommandStruct@@@@6B@ ; VectorClass<DAPlayerObserverChatCommandStruct *>::`vftable'
PUBLIC	??_7?$DynamicVectorClass@PAUDAPlayerObserverChatCommandStruct@@@@6B@ ; DynamicVectorClass<DAPlayerObserverChatCommandStruct *>::`vftable'
PUBLIC	??_7?$VectorClass@PAUDAPlayerObserverKeyHookStruct@@@@6B@ ; VectorClass<DAPlayerObserverKeyHookStruct *>::`vftable'
PUBLIC	??_7?$DynamicVectorClass@PAUDAPlayerObserverKeyHookStruct@@@@6B@ ; DynamicVectorClass<DAPlayerObserverKeyHookStruct *>::`vftable'
PUBLIC	??_7DAPlayerObserverClass@@6B@			; DAPlayerObserverClass::`vftable'
PUBLIC	??_7DAPlayerDataFactoryClass@@6B@		; DAPlayerDataFactoryClass::`vftable'
PUBLIC	??_7DAPlayerDataClass@@6B@			; DAPlayerDataClass::`vftable'
PUBLIC	??_7DASquadMemberClass@@6B@			; DASquadMemberClass::`vftable'
PUBLIC	??_C@_0BD@GIIGGFGB@DASquadMemberClass?$AA@	; `string'
PUBLIC	??_7?$VectorClass@PAVDASquadMemberClass@@@@6B@	; VectorClass<DASquadMemberClass *>::`vftable'
PUBLIC	??_7?$DynamicVectorClass@PAVDASquadMemberClass@@@@6B@ ; DynamicVectorClass<DASquadMemberClass *>::`vftable'
PUBLIC	??_7?$VectorClass@UDASquadInviteStruct@@@@6B@	; VectorClass<DASquadInviteStruct>::`vftable'
PUBLIC	??_7?$DynamicVectorClass@UDASquadInviteStruct@@@@6B@ ; DynamicVectorClass<DASquadInviteStruct>::`vftable'
PUBLIC	??_7?$VectorClass@PAVDASquadClass@@@@6B@	; VectorClass<DASquadClass *>::`vftable'
PUBLIC	??_7?$DynamicVectorClass@PAVDASquadClass@@@@6B@	; DynamicVectorClass<DASquadClass *>::`vftable'
PUBLIC	??_7DASquadManagerClass@@6BDAEventClass@@@	; DASquadManagerClass::`vftable'
PUBLIC	??_7DASquadManagerClass@@6BDAGameFeatureClass@@@ ; DASquadManagerClass::`vftable'
PUBLIC	??_7?$DAGameFeatureRegistrant@VDASquadManagerClass@@@@6B@ ; DAGameFeatureRegistrant<DASquadManagerClass>::`vftable'
PUBLIC	?DASquadManagerClassRegistrant@@3V?$DAGameFeatureRegistrant@VDASquadManagerClass@@@@A ; DASquadManagerClassRegistrant
PUBLIC	??_7DAGameObjObserverClass@@6B@			; DAGameObjObserverClass::`vftable'
PUBLIC	??_C@_08GIPFFJGL@?$CBdisband?$AA@		; `string'
PUBLIC	??_C@_08OLOMJLGL@?$CBpromote?$AA@		; `string'
PUBLIC	??_C@_06GHALDIDA@?$CBsinfo?$AA@			; `string'
PUBLIC	??_C@_06OCLLFEAG@?$CBskick?$AA@			; `string'
PUBLIC	??_C@_0BA@LJHFNJDP@?$CBsm?$HM?$CBms?$HM?$CBsc?$HM?$CBcs?$AA@ ; `string'
PUBLIC	??_C@_06BIJBOFNL@Origin?$AA@			; `string'
PUBLIC	??_C@_0BD@GOOFNINA@Purchase?3?5?$CFls?5?9?5?$CFs?$AA@ ; `string'
PUBLIC	??_C@_0DC@IIDBKIKK@You?5must?5be?5the?5squad?5leader?5to?5@ ; `string'
PUBLIC	??_C@_0BK@BOEEGGON@?$CFls?5is?5not?5in?5your?5squad?4?$AA@ ; `string'
PUBLIC	??_C@_01PKGAHCOL@?$CJ?$AA@			; `string'
PUBLIC	??_C@_01ODHLEDKK@?$CI?$AA@			; `string'
PUBLIC	??_C@_08CLGDGLEO@Leader?3?5?$AA@		; `string'
PUBLIC	??_C@_0N@HHFJGBME@?5?9?5Members?3?5?$AA@	; `string'
PUBLIC	??_C@_02KEGNLNML@?0?5?$AA@			; `string'
PUBLIC	??_C@_02DKCKIIND@?$CFs?$AA@			; `string'
PUBLIC	??_C@_0CE@OFBJGNAL@?$CFls?5has?5removed?5you?5from?5the?5squ@ ; `string'
PUBLIC	??_C@_0CA@PCNCCIPM@?$CFls?5was?5removed?5from?5the?5squad?4?$AA@ ; `string'
PUBLIC	??_C@_0CI@HCDFDFDO@?$CFls?5has?5removed?5you?5from?5the?5wai@ ; `string'
PUBLIC	??_C@_0CE@LEAINPEJ@?$CFls?5was?5removed?5from?5the?5wait?5li@ ; `string'
PUBLIC	??_C@_0CJ@DHOPKLKJ@?$CFls?5has?5rescinded?5your?5squad?5inv@ ; `string'
PUBLIC	??_C@_0CE@BIOOEJIH@?$CFls?5squad?5invitation?5was?5rescind@ ; `string'
PUBLIC	??_C@_0BB@NHJNEILC@Invisible_Object?$AA@	; `string'
PUBLIC	??_C@_0BJ@MNLHFMAL@?$CFls?5has?5created?5a?5squad?4?$AA@ ; `string'
PUBLIC	??_C@_06CBPJLHJL@_SQUAD?$AA@			; `string'
PUBLIC	??_C@_0BK@EIEPEHLA@You?5have?5created?5a?5squad?4?$AA@ ; `string'
PUBLIC	?__LINE__Var@?1???0DASquadClass@@QAE@PAVcPlayer@@@Z@4JA ; `DASquadClass::DASquadClass'::`2'::__LINE__Var
PUBLIC	??_C@_0BL@LFLEIFDC@DASquadClass?3?3DASquadClass?$AA@ ; `string'
PUBLIC	??_C@_0DG@JBECJBPG@x?3?2github?2renegade?2dragonade_rxd@ ; `string'
PUBLIC	??_C@_1GM@KMOKPGFP@?$AAx?$AA?3?$AA?2?$AAg?$AAi?$AAt?$AAh?$AAu?$AAb?$AA?2?$AAr?$AAe?$AAn?$AAe?$AAg?$AAa?$AAd?$AAe?$AA?2?$AAd?$AAr?$AAa?$AAg?$AAo?$AAn?$AAa?$AAd?$AAe?$AA_?$AAr?$AAx?$AAd@ ; `string'
PUBLIC	??_C@_0BK@CPHDHAGH@?$CFls?5has?5joined?5the?5squad?4?$AA@ ; `string'
PUBLIC	??_C@_0BL@BMEEHLBN@You?5have?5joined?5?$CFls?5squad?4?$AA@ ; `string'
PUBLIC	?__LINE__Var@?1??Add@DASquadClass@@QAEXPAVcPlayer@@@Z@4JA ; `DASquadClass::Add'::`2'::__LINE__Var
PUBLIC	??_C@_0BC@CIELOJOM@DASquadClass?3?3Add?$AA@	; `string'
PUBLIC	??_C@_0BI@HKBEBNMH@?$CFls?5has?5left?5the?5squad?4?$AA@ ; `string'
PUBLIC	??_C@_0BJ@OHDPHOJF@You?5have?5left?5the?5squad?4?$AA@ ; `string'
PUBLIC	??_C@_0BN@FADBPBHN@?$CFls?5is?5now?5the?5squad?5leader?4?$AA@ ; `string'
PUBLIC	??_C@_0BO@NMFOHDGE@You?5are?5now?5the?5squad?5leader?4?$AA@ ; `string'
PUBLIC	??_C@_0BP@KNJGHIAF@Your?5squad?5has?5been?5disbanded?4?$AA@ ; `string'
PUBLIC	??_C@_07CDHDDEAO@yo1?4wav?$AA@			; `string'
PUBLIC	??_C@_07JLNMLEHN@?$CFls?3?5?$CFs?$AA@		; `string'
PUBLIC	??_C@_0CH@PMNJCL@?$CFls?5has?5been?5promoted?5to?5squad?5l@ ; `string'
PUBLIC	??_C@_0P@BLLLJBAK@?$CBsquads?$HM?$CBsquad?$AA@	; `string'
PUBLIC	??_C@_05IOHCLGPA@?$CBjoin?$AA@			; `string'
PUBLIC	??_C@_07PIBPNHMK@?$CBinvite?$AA@		; `string'
PUBLIC	??_C@_07MBGIKGPF@?$CBaccept?$AA@		; `string'
PUBLIC	??_C@_08MPBMJGEL@?$CBdecline?$AA@		; `string'
PUBLIC	??_C@_06OONBDOND@?$CBleave?$AA@			; `string'
PUBLIC	?__LINE__Var@?1???1DASquadManagerClass@@EAE@XZ@4JA ; `DASquadManagerClass::~DASquadManagerClass'::`2'::__LINE__Var
PUBLIC	??_C@_0CK@EFKFMED@DASquadManagerClass?3?3?$HODASquadMan@ ; `string'
PUBLIC	??_C@_0BE@DEHOFEAH@DisplayActiveSquads?$AA@	; `string'
PUBLIC	??_C@_0BM@CIKJAHAN@There?5are?5?$CFd?5Active?5Squads?6?$AA@ ; `string'
PUBLIC	??_C@_0BL@JOKMKLEM@?$CFd?5Leader?3?5?$CFls?5?9?5Members?3?5?$AA@ ; `string'
PUBLIC	??_C@_0BB@GLDEFAAP@Active?5Squad?5?$CFs?6?$AA@	; `string'
PUBLIC	??_C@_0O@DNDCIGIA@MaxSquadGames?$AA@		; `string'
PUBLIC	??_C@_0CD@POFFDGFK@Squad?5?$CFd?5has?5played?5?$CFd?5Squad?5Gam@ ; `string'
PUBLIC	??_C@_0CE@HBKPAFFG@Squad?5?$CFd?5has?5played?5?$CFd?5Squad?5Gam@ ; `string'
PUBLIC	??_C@_0CI@CAHOAIOG@Your?5Squad?5was?5Disbanded?5after?5?$CF@ ; `string'
PUBLIC	??_C@_0CD@JOKPKLI@Squad?5?$CFd?5Disbanded?5after?5?$CFd?5Game@ ; `string'
PUBLIC	??_C@_0M@PFKCGODN@RemixSquads?$AA@		; `string'
PUBLIC	??_C@_0N@GKKCNLLL@MaxSquadSize?$AA@		; `string'
PUBLIC	??_7?$VectorClass@UDASquadRemixStruct@@@@6B@	; VectorClass<DASquadRemixStruct>::`vftable'
PUBLIC	??_7?$DynamicVectorClass@UDASquadRemixStruct@@@@6B@ ; DynamicVectorClass<DASquadRemixStruct>::`vftable'
PUBLIC	?__LINE__Var@?1??Think@DASquadManagerClass@@EAEXXZ@4JA ; `DASquadManagerClass::Think'::`2'::__LINE__Var
PUBLIC	??_C@_0BL@LDCKBOB@DASquadManagerClass?3?3Think?$AA@ ; `string'
PUBLIC	??_C@_03MIIGHJO@?$CFls?$AA@			; `string'
PUBLIC	??_C@_0BI@EFIGBKOB@Leader?3?5?$CFls?5?9?5Members?3?5?$AA@ ; `string'
PUBLIC	??_C@_0BD@CHPEFBJL@Active?5Squads?3?5?$CFs?6?$AA@ ; `string'
PUBLIC	??_C@_0LP@EBGMPJHB@You?5can?5request?5to?5join?5one?5of?5t@ ; `string'
PUBLIC	??_C@_0IA@COAGKEEN@There?5are?5currently?5not?5enough?5p@ ; `string'
PUBLIC	??_C@_0IM@CJMABAJI@There?5are?5no?5squads?4?5You?5can?5cre@ ; `string'
PUBLIC	??_C@_0BM@DIDOHGHE@You?5are?5already?5in?5a?5squad?4?$AA@ ; `string'
PUBLIC	??_C@_0BH@KMCGFIJI@?$CFls?5is?5not?5in?5a?5squad?4?$AA@ ; `string'
PUBLIC	??_C@_0BD@PEOABBKJ@?$CFls?5squad?5is?5full?4?$AA@ ; `string'
PUBLIC	??_C@_0CO@GIODHNKI@You?5have?5already?5requested?5to?5jo@ ; `string'
PUBLIC	??_C@_0CK@LBFEDIBG@You?5cannot?5join?5squads?5on?5the?5ot@ ; `string'
PUBLIC	??_C@_0CG@JDOBEPIA@You?5have?5requested?5to?5join?5?$CFls?5s@ ; `string'
PUBLIC	??_C@_0FK@IFKJGBHN@?$CFls?5has?5requested?5to?5join?5your?5s@ ; `string'
PUBLIC	??_C@_0BE@GNKENNGG@Your?5squad?5is?5full?4?$AA@	; `string'
PUBLIC	??_C@_0CJ@MEKIDFGE@?$CFls?5has?5already?5been?5invited?5to?5@ ; `string'
PUBLIC	??_C@_0BL@KAFHDCMF@?$CFls?5is?5already?5in?5a?5squad?4?$AA@ ; `string'
PUBLIC	??_C@_0CN@KNHOCKCC@You?5cannot?5invite?5players?5on?5the@ ; `string'
PUBLIC	??_C@_0DA@CHLAPHG@There?5are?5not?5enough?5players?5to?5@ ; `string'
PUBLIC	??_C@_0CD@HJPPCGAK@You?5have?5refused?5?$CFls?5join?5reques@ ; `string'
PUBLIC	??_C@_0CD@OJCAMECA@?$CFls?5has?5refused?5your?5join?5reques@ ; `string'
PUBLIC	??_C@_0CI@GGGIJGJ@You?5have?5declined?5?$CFls?5squad?5invi@ ; `string'
PUBLIC	??_C@_0CI@NMGIHPGK@?$CFls?5has?5declined?5your?5squad?5invi@ ; `string'
PUBLIC	??_C@_0CD@FIACPEEE@You?5have?5left?5the?5squad?5wait?5lis@ ; `string'
PUBLIC	??_C@_0CM@GCNKLHJF@You?5have?5cancelled?5your?5squad?5jo@ ; `string'
PUBLIC	??_C@_0CL@MKNEEGGB@You?5have?5rescinded?5your?5squad?5in@ ; `string'
PUBLIC	?__LINE__Var@?1??Create_Squad@DASquadManagerClass@@QAEPAVDASquadClass@@PAVcPlayer@@@Z@4JA ; `DASquadManagerClass::Create_Squad'::`2'::__LINE__Var
PUBLIC	??_C@_0CC@MLBPDJEH@DASquadManagerClass?3?3Create_Squa@ ; `string'
PUBLIC	??_C@_0FN@FAPBICBC@?$CFls?5has?5invited?5you?5to?5join?5thei@ ; `string'
PUBLIC	??_C@_0CJ@DMNPDJHL@You?5have?5invited?5?$CFls?5to?5join?5you@ ; `string'
PUBLIC	??_C@_0GN@LHHLPFMH@?$CFls?5squad?5is?5on?5the?5other?5team?4?5@ ; `string'
PUBLIC	??_C@_0GH@NIMKFADE@?$CFls?5is?5on?5the?5other?5team?4?5They?5h@ ; `string'
PUBLIC	??_C@_0GH@GPLNEEHN@?$CFls?5is?5on?5the?5other?5team?4?5You?5ha@ ; `string'
PUBLIC	??_C@_0N@NMHJPOFH@EnableSquads?$AA@		; `string'
PUBLIC	??_C@_0N@EIPNBCIO@Squad?5System?$AA@		; `string'
PUBLIC	??_C@_0EJ@ENMBJFB@SList?$DMstruct?5MultiKeyHookScriptI@ ; `string'
PUBLIC	??_C@_0DB@DFBFLIIO@x?3?2github?2renegade?2dragonade_rxd@ ; `string'
PUBLIC	??_C@_1GC@LJHGOLFN@?$AAx?$AA?3?$AA?2?$AAg?$AAi?$AAt?$AAh?$AAu?$AAb?$AA?2?$AAr?$AAe?$AAn?$AAe?$AAg?$AAa?$AAd?$AAe?$AA?2?$AAd?$AAr?$AAa?$AAg?$AAo?$AAn?$AAa?$AAd?$AAe?$AA_?$AAr?$AAx?$AAd@ ; `string'
PUBLIC	??_C@_0EJ@OIGECPDF@SList?$DMstruct?5MultiKeyHookScriptI@ ; `string'
PUBLIC	??_C@_0EM@PPENJFKC@SList?$DMstruct?5MultiKeyHookScriptI@ ; `string'
PUBLIC	??_C@_0EH@CGJBMJBC@SList?$DMstruct?5MultiKeyHookScriptI@ ; `string'
PUBLIC	??_C@_0EL@MPFHHNNA@SList?$DMstruct?5MultiKeyHookScriptI@ ; `string'
PUBLIC	??_C@_0EO@OJGPEJGC@SList?$DMstruct?5MultiKeyHookScriptI@ ; `string'
PUBLIC	??_C@_0EN@HIHNAGN@SList?$DMstruct?5MultiKeyHookScriptI@ ; `string'
PUBLIC	??_C@_0DD@ODCBLNCJ@VectorClass?$DMclass?5DAPlayerObserv@ ; `string'
PUBLIC	??_C@_0DC@JEMMOOD@VectorClass?$DMclass?5DAPlayerObserv@ ; `string'
PUBLIC	??_C@_0CP@DHEAPCNI@VectorClass?$DMclass?5DAPlayerDataCl@ ; `string'
PUBLIC	??_C@_0CO@NDDDNNIA@VectorClass?$DMclass?5DAPlayerDataCl@ ; `string'
PUBLIC	??_C@_0DP@CMFCBLKD@VectorClass?$DMstruct?5DAPlayerClass@ ; `string'
PUBLIC	??_C@_0DO@MAHPNNNF@VectorClass?$DMstruct?5DAPlayerClass@ ; `string'
PUBLIC	??_C@_0DK@BBINAFLN@VectorClass?$DMstruct?5DAPlayerObser@ ; `string'
PUBLIC	??_C@_0DJ@MHPEBELA@VectorClass?$DMstruct?5DAPlayerObser@ ; `string'
PUBLIC	??_C@_0EA@MBLDIHCA@VectorClass?$DMstruct?5DAPlayerObser@ ; `string'
PUBLIC	??_C@_0DP@JJGAHOFF@VectorClass?$DMstruct?5DAPlayerObser@ ; `string'
PUBLIC	??_C@_0DM@PKMANBOA@VectorClass?$DMstruct?5DAPlayerObser@ ; `string'
PUBLIC	??_C@_0DL@IEBGHGHF@VectorClass?$DMstruct?5DAPlayerObser@ ; `string'
PUBLIC	??_C@_0DA@DIEBMLBF@VectorClass?$DMclass?5DASquadMemberC@ ; `string'
PUBLIC	??_C@_0CP@NCPDCEMJ@VectorClass?$DMclass?5DASquadMemberC@ ; `string'
PUBLIC	??_C@_0DA@FPKGIJHA@VectorClass?$DMstruct?5DASquadInvite@ ; `string'
PUBLIC	??_C@_0CP@OIPLINFC@VectorClass?$DMstruct?5DASquadInvite@ ; `string'
PUBLIC	??_C@_0CK@LCLKOLHC@VectorClass?$DMclass?5DASquadClass?5?$CK@ ; `string'
PUBLIC	??_C@_0CJ@EMBKKPNC@VectorClass?$DMclass?5DASquadClass?5?$CK@ ; `string'
PUBLIC	??_C@_0EE@LLOLIKDP@DAGameFeatureRegistrant?$DMclass?5DA@ ; `string'
PUBLIC	??_C@_0DK@MFMHCJCF@x?3?2github?2renegade?2dragonade_rxd@ ; `string'
PUBLIC	??_C@_1HE@ONAFOCJP@?$AAx?$AA?3?$AA?2?$AAg?$AAi?$AAt?$AAh?$AAu?$AAb?$AA?2?$AAr?$AAe?$AAn?$AAe?$AAg?$AAa?$AAd?$AAe?$AA?2?$AAd?$AAr?$AAa?$AAg?$AAo?$AAn?$AAa?$AAd?$AAe?$AA_?$AAr?$AAx?$AAd@ ; `string'
PUBLIC	??_C@_0CP@LDHGNLDN@VectorClass?$DMstruct?5DASquadRemixS@ ; `string'
PUBLIC	??_C@_0CO@FLFLOGJD@VectorClass?$DMstruct?5DASquadRemixS@ ; `string'
PUBLIC	??_C@_0DH@FMPAOODI@VectorClass?$DMclass?5DAPlayerObserv@ ; `string'
PUBLIC	??_C@_0DD@OELEBJCM@VectorClass?$DMclass?5DAPlayerDataCl@ ; `string'
PUBLIC	??_C@_0ED@MCIGMKB@VectorClass?$DMstruct?5DAPlayerClass@ ; `string'
PUBLIC	??_C@_0DP@IOIJJLDO@VectorClass?$DMstruct?5DAPlayerObser@ ; `string'
PUBLIC	??_C@_0DO@PEJOFHLG@VectorClass?$DMstruct?5DAPlayerObser@ ; `string'
PUBLIC	??_C@_0EF@EPICALKK@VectorClass?$DMstruct?5DAPlayerObser@ ; `string'
PUBLIC	??_C@_0EE@JOBDGIII@VectorClass?$DMstruct?5DAPlayerObser@ ; `string'
PUBLIC	??_C@_0EB@CCPEIKDO@VectorClass?$DMstruct?5DAPlayerObser@ ; `string'
PUBLIC	??_C@_0EA@DFHGBHJN@VectorClass?$DMstruct?5DAPlayerObser@ ; `string'
PUBLIC	??_C@_0DF@IELPCGJD@VectorClass?$DMclass?5DASquadMemberC@ ; `string'
PUBLIC	??_C@_0DE@MCINNNDI@VectorClass?$DMclass?5DASquadMemberC@ ; `string'
PUBLIC	??_C@_0DF@GCGBHFFN@VectorClass?$DMstruct?5DASquadInvite@ ; `string'
PUBLIC	??_C@_0DE@HPICBCHH@VectorClass?$DMstruct?5DASquadInvite@ ; `string'
PUBLIC	??_C@_0CP@HHGCMOAA@VectorClass?$DMclass?5DASquadClass?5?$CK@ ; `string'
PUBLIC	??_C@_0CO@KGBEAGCK@VectorClass?$DMclass?5DASquadClass?5?$CK@ ; `string'
PUBLIC	??_C@_0DE@NMEEKHFM@VectorClass?$DMstruct?5DASquadRemixS@ ; `string'
PUBLIC	??_C@_0DD@FBEAADAF@VectorClass?$DMstruct?5DASquadRemixS@ ; `string'
PUBLIC	?instancex@?1??getInstance@?$Singleton@V?$ObjectPoolClass@VGenericSLNode@@$0BAA@@@@@SAAAV?$ObjectPoolClass@VGenericSLNode@@$0BAA@@@XZ@4V3@A ; `Singleton<ObjectPoolClass<GenericSLNode,256> >::getInstance'::`2'::instancex
PUBLIC	??_B?1??getInstance@?$Singleton@V?$ObjectPoolClass@VGenericSLNode@@$0BAA@@@@@SAAAV?$ObjectPoolClass@VGenericSLNode@@$0BAA@@@XZ@51 ; `Singleton<ObjectPoolClass<GenericSLNode,256> >::getInstance'::`2'::`local static guard'
PUBLIC	??_C@_0EB@IOGKEECK@ObjectPoolClass?$DMclass?5GenericSLN@ ; `string'
PUBLIC	??_C@_0FF@NOANHENP@?$CFd?5memory?5leaks?5found?5in?5ObjectP@ ; `string'
PUBLIC	??_C@_0DL@BOENBDGI@ObjectPoolClass?$DMclass?5GenericSLN@ ; `string'
PUBLIC	?oh_dear@?7???R?$SafeDataClass@H@@QBEAAHXZ@4HA	; `SafeDataClass<int>::operator()'::`8'::oh_dear
PUBLIC	??_R4ScriptFactory@@6B@				; ScriptFactory::`RTTI Complete Object Locator'
PUBLIC	??_R0?AVScriptFactory@@@8			; ScriptFactory `RTTI Type Descriptor'
PUBLIC	??_R3ScriptFactory@@8				; ScriptFactory::`RTTI Class Hierarchy Descriptor'
PUBLIC	??_R2ScriptFactory@@8				; ScriptFactory::`RTTI Base Class Array'
PUBLIC	??_R1A@?0A@EA@ScriptFactory@@8			; ScriptFactory::`RTTI Base Class Descriptor at (0,-1,0,64)'
PUBLIC	??_R4ScriptClass@@6B@				; ScriptClass::`RTTI Complete Object Locator'
PUBLIC	??_R0?AVScriptClass@@@8				; ScriptClass `RTTI Type Descriptor'
PUBLIC	??_R3ScriptClass@@8				; ScriptClass::`RTTI Class Hierarchy Descriptor'
PUBLIC	??_R2ScriptClass@@8				; ScriptClass::`RTTI Base Class Array'
PUBLIC	??_R1A@?0A@EA@ScriptClass@@8			; ScriptClass::`RTTI Base Class Descriptor at (0,-1,0,64)'
PUBLIC	??_R1A@?0A@EA@GameObjObserverClass@@8		; GameObjObserverClass::`RTTI Base Class Descriptor at (0,-1,0,64)'
PUBLIC	??_R0?AVGameObjObserverClass@@@8		; GameObjObserverClass `RTTI Type Descriptor'
PUBLIC	??_R3GameObjObserverClass@@8			; GameObjObserverClass::`RTTI Class Hierarchy Descriptor'
PUBLIC	??_R2GameObjObserverClass@@8			; GameObjObserverClass::`RTTI Base Class Array'
PUBLIC	??_R4GameObjObserverClass@@6B@			; GameObjObserverClass::`RTTI Complete Object Locator'
PUBLIC	??_R4ScriptImpClass@@6B@			; ScriptImpClass::`RTTI Complete Object Locator'
PUBLIC	??_R0?AVScriptImpClass@@@8			; ScriptImpClass `RTTI Type Descriptor'
PUBLIC	??_R3ScriptImpClass@@8				; ScriptImpClass::`RTTI Class Hierarchy Descriptor'
PUBLIC	??_R2ScriptImpClass@@8				; ScriptImpClass::`RTTI Base Class Array'
PUBLIC	??_R1A@?0A@EA@ScriptImpClass@@8			; ScriptImpClass::`RTTI Base Class Descriptor at (0,-1,0,64)'
PUBLIC	??_R4ThreadClass@@6B@				; ThreadClass::`RTTI Complete Object Locator'
PUBLIC	??_R0?AVThreadClass@@@8				; ThreadClass `RTTI Type Descriptor'
PUBLIC	??_R3ThreadClass@@8				; ThreadClass::`RTTI Class Hierarchy Descriptor'
PUBLIC	??_R2ThreadClass@@8				; ThreadClass::`RTTI Base Class Array'
PUBLIC	??_R1A@?0A@EA@ThreadClass@@8			; ThreadClass::`RTTI Base Class Descriptor at (0,-1,0,64)'
PUBLIC	??_R4INIClass@@6B@				; INIClass::`RTTI Complete Object Locator'
PUBLIC	??_R0?AVINIClass@@@8				; INIClass `RTTI Type Descriptor'
PUBLIC	??_R3INIClass@@8				; INIClass::`RTTI Class Hierarchy Descriptor'
PUBLIC	??_R2INIClass@@8				; INIClass::`RTTI Base Class Array'
PUBLIC	??_R1A@?0A@EA@INIClass@@8			; INIClass::`RTTI Base Class Descriptor at (0,-1,0,64)'
PUBLIC	??_R1A@?0A@EA@PostLoadableClass@@8		; PostLoadableClass::`RTTI Base Class Descriptor at (0,-1,0,64)'
PUBLIC	??_R0?AVPostLoadableClass@@@8			; PostLoadableClass `RTTI Type Descriptor'
PUBLIC	??_R3PostLoadableClass@@8			; PostLoadableClass::`RTTI Class Hierarchy Descriptor'
PUBLIC	??_R2PostLoadableClass@@8			; PostLoadableClass::`RTTI Base Class Array'
PUBLIC	??_R4PostLoadableClass@@6B@			; PostLoadableClass::`RTTI Complete Object Locator'
PUBLIC	??_R4ReferencerClass@@6B@			; ReferencerClass::`RTTI Complete Object Locator'
PUBLIC	??_R0?AVReferencerClass@@@8			; ReferencerClass `RTTI Type Descriptor'
PUBLIC	??_R3ReferencerClass@@8				; ReferencerClass::`RTTI Class Hierarchy Descriptor'
PUBLIC	??_R2ReferencerClass@@8				; ReferencerClass::`RTTI Base Class Array'
PUBLIC	??_R1A@?0A@EA@ReferencerClass@@8		; ReferencerClass::`RTTI Base Class Descriptor at (0,-1,0,64)'
PUBLIC	??_R4JFW_Key_Hook_Base@@6B@			; JFW_Key_Hook_Base::`RTTI Complete Object Locator'
PUBLIC	??_R0?AVJFW_Key_Hook_Base@@@8			; JFW_Key_Hook_Base `RTTI Type Descriptor'
PUBLIC	??_R3JFW_Key_Hook_Base@@8			; JFW_Key_Hook_Base::`RTTI Class Hierarchy Descriptor'
PUBLIC	??_R2JFW_Key_Hook_Base@@8			; JFW_Key_Hook_Base::`RTTI Base Class Array'
PUBLIC	??_R1A@?0A@EA@JFW_Key_Hook_Base@@8		; JFW_Key_Hook_Base::`RTTI Base Class Descriptor at (0,-1,0,64)'
PUBLIC	??_R4MultiKeyHookScriptImpClass@@6B@		; MultiKeyHookScriptImpClass::`RTTI Complete Object Locator'
PUBLIC	??_R0?AVMultiKeyHookScriptImpClass@@@8		; MultiKeyHookScriptImpClass `RTTI Type Descriptor'
PUBLIC	??_R3MultiKeyHookScriptImpClass@@8		; MultiKeyHookScriptImpClass::`RTTI Class Hierarchy Descriptor'
PUBLIC	??_R2MultiKeyHookScriptImpClass@@8		; MultiKeyHookScriptImpClass::`RTTI Base Class Array'
PUBLIC	??_R1A@?0A@EA@MultiKeyHookScriptImpClass@@8	; MultiKeyHookScriptImpClass::`RTTI Base Class Descriptor at (0,-1,0,64)'
PUBLIC	??_R4?$SList@UKeyHookWrapperStruct@MultiKeyHookScriptImpClass@@@@6B@ ; SList<MultiKeyHookScriptImpClass::KeyHookWrapperStruct>::`RTTI Complete Object Locator'
PUBLIC	??_R0?AV?$SList@UKeyHookWrapperStruct@MultiKeyHookScriptImpClass@@@@@8 ; SList<MultiKeyHookScriptImpClass::KeyHookWrapperStruct> `RTTI Type Descriptor'
PUBLIC	??_R3?$SList@UKeyHookWrapperStruct@MultiKeyHookScriptImpClass@@@@8 ; SList<MultiKeyHookScriptImpClass::KeyHookWrapperStruct>::`RTTI Class Hierarchy Descriptor'
PUBLIC	??_R2?$SList@UKeyHookWrapperStruct@MultiKeyHookScriptImpClass@@@@8 ; SList<MultiKeyHookScriptImpClass::KeyHookWrapperStruct>::`RTTI Base Class Array'
PUBLIC	??_R1A@?0A@EA@?$SList@UKeyHookWrapperStruct@MultiKeyHookScriptImpClass@@@@8 ; SList<MultiKeyHookScriptImpClass::KeyHookWrapperStruct>::`RTTI Base Class Descriptor at (0,-1,0,64)'
PUBLIC	??_R4JFW_Object_Created_Hook_Base@@6B@		; JFW_Object_Created_Hook_Base::`RTTI Complete Object Locator'
PUBLIC	??_R0?AVJFW_Object_Created_Hook_Base@@@8	; JFW_Object_Created_Hook_Base `RTTI Type Descriptor'
PUBLIC	??_R3JFW_Object_Created_Hook_Base@@8		; JFW_Object_Created_Hook_Base::`RTTI Class Hierarchy Descriptor'
PUBLIC	??_R2JFW_Object_Created_Hook_Base@@8		; JFW_Object_Created_Hook_Base::`RTTI Base Class Array'
PUBLIC	??_R1A@?0A@EA@JFW_Object_Created_Hook_Base@@8	; JFW_Object_Created_Hook_Base::`RTTI Base Class Descriptor at (0,-1,0,64)'
PUBLIC	??_R4DAEventClass@@6B@				; DAEventClass::`RTTI Complete Object Locator'
PUBLIC	??_R0?AVDAEventClass@@@8			; DAEventClass `RTTI Type Descriptor'
PUBLIC	??_R3DAEventClass@@8				; DAEventClass::`RTTI Class Hierarchy Descriptor'
PUBLIC	??_R2DAEventClass@@8				; DAEventClass::`RTTI Base Class Array'
PUBLIC	??_R1A@?0A@EA@DAEventClass@@8			; DAEventClass::`RTTI Base Class Descriptor at (0,-1,0,64)'
PUBLIC	??_R4DAGameFeatureClass@@6B@			; DAGameFeatureClass::`RTTI Complete Object Locator'
PUBLIC	??_R0?AVDAGameFeatureClass@@@8			; DAGameFeatureClass `RTTI Type Descriptor'
PUBLIC	??_R3DAGameFeatureClass@@8			; DAGameFeatureClass::`RTTI Class Hierarchy Descriptor'
PUBLIC	??_R2DAGameFeatureClass@@8			; DAGameFeatureClass::`RTTI Base Class Array'
PUBLIC	??_R1A@?0A@EA@DAGameFeatureClass@@8		; DAGameFeatureClass::`RTTI Base Class Descriptor at (0,-1,0,64)'
PUBLIC	??_R4DAGameFeatureFactoryClass@@6B@		; DAGameFeatureFactoryClass::`RTTI Complete Object Locator'
PUBLIC	??_R0?AVDAGameFeatureFactoryClass@@@8		; DAGameFeatureFactoryClass `RTTI Type Descriptor'
PUBLIC	??_R3DAGameFeatureFactoryClass@@8		; DAGameFeatureFactoryClass::`RTTI Class Hierarchy Descriptor'
PUBLIC	??_R2DAGameFeatureFactoryClass@@8		; DAGameFeatureFactoryClass::`RTTI Base Class Array'
PUBLIC	??_R1A@?0A@EA@DAGameFeatureFactoryClass@@8	; DAGameFeatureFactoryClass::`RTTI Base Class Descriptor at (0,-1,0,64)'
PUBLIC	??_R4DAPlayerDataFactoryClass@@6B@		; DAPlayerDataFactoryClass::`RTTI Complete Object Locator'
PUBLIC	??_R0?AVDAPlayerDataFactoryClass@@@8		; DAPlayerDataFactoryClass `RTTI Type Descriptor'
PUBLIC	??_R3DAPlayerDataFactoryClass@@8		; DAPlayerDataFactoryClass::`RTTI Class Hierarchy Descriptor'
PUBLIC	??_R2DAPlayerDataFactoryClass@@8		; DAPlayerDataFactoryClass::`RTTI Base Class Array'
PUBLIC	??_R1A@?0A@EA@DAPlayerDataFactoryClass@@8	; DAPlayerDataFactoryClass::`RTTI Base Class Descriptor at (0,-1,0,64)'
PUBLIC	??_R4DAPlayerObserverClass@@6B@			; DAPlayerObserverClass::`RTTI Complete Object Locator'
PUBLIC	??_R0?AVDAPlayerObserverClass@@@8		; DAPlayerObserverClass `RTTI Type Descriptor'
PUBLIC	??_R3DAPlayerObserverClass@@8			; DAPlayerObserverClass::`RTTI Class Hierarchy Descriptor'
PUBLIC	??_R2DAPlayerObserverClass@@8			; DAPlayerObserverClass::`RTTI Base Class Array'
PUBLIC	??_R1A@?0A@EA@DAPlayerObserverClass@@8		; DAPlayerObserverClass::`RTTI Base Class Descriptor at (0,-1,0,64)'
PUBLIC	??_R4DAPlayerDataClass@@6B@			; DAPlayerDataClass::`RTTI Complete Object Locator'
PUBLIC	??_R0?AVDAPlayerDataClass@@@8			; DAPlayerDataClass `RTTI Type Descriptor'
PUBLIC	??_R3DAPlayerDataClass@@8			; DAPlayerDataClass::`RTTI Class Hierarchy Descriptor'
PUBLIC	??_R2DAPlayerDataClass@@8			; DAPlayerDataClass::`RTTI Base Class Array'
PUBLIC	??_R1A@?0A@EA@DAPlayerDataClass@@8		; DAPlayerDataClass::`RTTI Base Class Descriptor at (0,-1,0,64)'
PUBLIC	??_R4?$DynamicVectorClass@PAVDAPlayerObserverClass@@@@6B@ ; DynamicVectorClass<DAPlayerObserverClass *>::`RTTI Complete Object Locator'
PUBLIC	??_R0?AV?$DynamicVectorClass@PAVDAPlayerObserverClass@@@@@8 ; DynamicVectorClass<DAPlayerObserverClass *> `RTTI Type Descriptor'
PUBLIC	??_R3?$DynamicVectorClass@PAVDAPlayerObserverClass@@@@8 ; DynamicVectorClass<DAPlayerObserverClass *>::`RTTI Class Hierarchy Descriptor'
PUBLIC	??_R2?$DynamicVectorClass@PAVDAPlayerObserverClass@@@@8 ; DynamicVectorClass<DAPlayerObserverClass *>::`RTTI Base Class Array'
PUBLIC	??_R1A@?0A@EA@?$DynamicVectorClass@PAVDAPlayerObserverClass@@@@8 ; DynamicVectorClass<DAPlayerObserverClass *>::`RTTI Base Class Descriptor at (0,-1,0,64)'
PUBLIC	??_R1A@?0A@EA@?$VectorClass@PAVDAPlayerObserverClass@@@@8 ; VectorClass<DAPlayerObserverClass *>::`RTTI Base Class Descriptor at (0,-1,0,64)'
PUBLIC	??_R0?AV?$VectorClass@PAVDAPlayerObserverClass@@@@@8 ; VectorClass<DAPlayerObserverClass *> `RTTI Type Descriptor'
PUBLIC	??_R3?$VectorClass@PAVDAPlayerObserverClass@@@@8 ; VectorClass<DAPlayerObserverClass *>::`RTTI Class Hierarchy Descriptor'
PUBLIC	??_R2?$VectorClass@PAVDAPlayerObserverClass@@@@8 ; VectorClass<DAPlayerObserverClass *>::`RTTI Base Class Array'
PUBLIC	??_R4?$VectorClass@PAVDAPlayerObserverClass@@@@6B@ ; VectorClass<DAPlayerObserverClass *>::`RTTI Complete Object Locator'
PUBLIC	??_R4?$DynamicVectorClass@PAVDAPlayerDataClass@@@@6B@ ; DynamicVectorClass<DAPlayerDataClass *>::`RTTI Complete Object Locator'
PUBLIC	??_R0?AV?$DynamicVectorClass@PAVDAPlayerDataClass@@@@@8 ; DynamicVectorClass<DAPlayerDataClass *> `RTTI Type Descriptor'
PUBLIC	??_R3?$DynamicVectorClass@PAVDAPlayerDataClass@@@@8 ; DynamicVectorClass<DAPlayerDataClass *>::`RTTI Class Hierarchy Descriptor'
PUBLIC	??_R2?$DynamicVectorClass@PAVDAPlayerDataClass@@@@8 ; DynamicVectorClass<DAPlayerDataClass *>::`RTTI Base Class Array'
PUBLIC	??_R1A@?0A@EA@?$DynamicVectorClass@PAVDAPlayerDataClass@@@@8 ; DynamicVectorClass<DAPlayerDataClass *>::`RTTI Base Class Descriptor at (0,-1,0,64)'
PUBLIC	??_R1A@?0A@EA@?$VectorClass@PAVDAPlayerDataClass@@@@8 ; VectorClass<DAPlayerDataClass *>::`RTTI Base Class Descriptor at (0,-1,0,64)'
PUBLIC	??_R0?AV?$VectorClass@PAVDAPlayerDataClass@@@@@8 ; VectorClass<DAPlayerDataClass *> `RTTI Type Descriptor'
PUBLIC	??_R3?$VectorClass@PAVDAPlayerDataClass@@@@8	; VectorClass<DAPlayerDataClass *>::`RTTI Class Hierarchy Descriptor'
PUBLIC	??_R2?$VectorClass@PAVDAPlayerDataClass@@@@8	; VectorClass<DAPlayerDataClass *>::`RTTI Base Class Array'
PUBLIC	??_R4?$VectorClass@PAVDAPlayerDataClass@@@@6B@	; VectorClass<DAPlayerDataClass *>::`RTTI Complete Object Locator'
PUBLIC	??_R4?$DynamicVectorClass@PAUDAPlayerTagStruct@DAPlayerClass@@@@6B@ ; DynamicVectorClass<DAPlayerClass::DAPlayerTagStruct *>::`RTTI Complete Object Locator'
PUBLIC	??_R0?AV?$DynamicVectorClass@PAUDAPlayerTagStruct@DAPlayerClass@@@@@8 ; DynamicVectorClass<DAPlayerClass::DAPlayerTagStruct *> `RTTI Type Descriptor'
PUBLIC	??_R3?$DynamicVectorClass@PAUDAPlayerTagStruct@DAPlayerClass@@@@8 ; DynamicVectorClass<DAPlayerClass::DAPlayerTagStruct *>::`RTTI Class Hierarchy Descriptor'
PUBLIC	??_R2?$DynamicVectorClass@PAUDAPlayerTagStruct@DAPlayerClass@@@@8 ; DynamicVectorClass<DAPlayerClass::DAPlayerTagStruct *>::`RTTI Base Class Array'
PUBLIC	??_R1A@?0A@EA@?$DynamicVectorClass@PAUDAPlayerTagStruct@DAPlayerClass@@@@8 ; DynamicVectorClass<DAPlayerClass::DAPlayerTagStruct *>::`RTTI Base Class Descriptor at (0,-1,0,64)'
PUBLIC	??_R1A@?0A@EA@?$VectorClass@PAUDAPlayerTagStruct@DAPlayerClass@@@@8 ; VectorClass<DAPlayerClass::DAPlayerTagStruct *>::`RTTI Base Class Descriptor at (0,-1,0,64)'
PUBLIC	??_R0?AV?$VectorClass@PAUDAPlayerTagStruct@DAPlayerClass@@@@@8 ; VectorClass<DAPlayerClass::DAPlayerTagStruct *> `RTTI Type Descriptor'
PUBLIC	??_R3?$VectorClass@PAUDAPlayerTagStruct@DAPlayerClass@@@@8 ; VectorClass<DAPlayerClass::DAPlayerTagStruct *>::`RTTI Class Hierarchy Descriptor'
PUBLIC	??_R2?$VectorClass@PAUDAPlayerTagStruct@DAPlayerClass@@@@8 ; VectorClass<DAPlayerClass::DAPlayerTagStruct *>::`RTTI Base Class Array'
PUBLIC	??_R4?$VectorClass@PAUDAPlayerTagStruct@DAPlayerClass@@@@6B@ ; VectorClass<DAPlayerClass::DAPlayerTagStruct *>::`RTTI Complete Object Locator'
PUBLIC	??_R4?$DynamicVectorClass@PAUDAPlayerObserverTimerStruct@@@@6B@ ; DynamicVectorClass<DAPlayerObserverTimerStruct *>::`RTTI Complete Object Locator'
PUBLIC	??_R0?AV?$DynamicVectorClass@PAUDAPlayerObserverTimerStruct@@@@@8 ; DynamicVectorClass<DAPlayerObserverTimerStruct *> `RTTI Type Descriptor'
PUBLIC	??_R3?$DynamicVectorClass@PAUDAPlayerObserverTimerStruct@@@@8 ; DynamicVectorClass<DAPlayerObserverTimerStruct *>::`RTTI Class Hierarchy Descriptor'
PUBLIC	??_R2?$DynamicVectorClass@PAUDAPlayerObserverTimerStruct@@@@8 ; DynamicVectorClass<DAPlayerObserverTimerStruct *>::`RTTI Base Class Array'
PUBLIC	??_R1A@?0A@EA@?$DynamicVectorClass@PAUDAPlayerObserverTimerStruct@@@@8 ; DynamicVectorClass<DAPlayerObserverTimerStruct *>::`RTTI Base Class Descriptor at (0,-1,0,64)'
PUBLIC	??_R1A@?0A@EA@?$VectorClass@PAUDAPlayerObserverTimerStruct@@@@8 ; VectorClass<DAPlayerObserverTimerStruct *>::`RTTI Base Class Descriptor at (0,-1,0,64)'
PUBLIC	??_R0?AV?$VectorClass@PAUDAPlayerObserverTimerStruct@@@@@8 ; VectorClass<DAPlayerObserverTimerStruct *> `RTTI Type Descriptor'
PUBLIC	??_R3?$VectorClass@PAUDAPlayerObserverTimerStruct@@@@8 ; VectorClass<DAPlayerObserverTimerStruct *>::`RTTI Class Hierarchy Descriptor'
PUBLIC	??_R2?$VectorClass@PAUDAPlayerObserverTimerStruct@@@@8 ; VectorClass<DAPlayerObserverTimerStruct *>::`RTTI Base Class Array'
PUBLIC	??_R4?$DynamicVectorClass@PAUDAPlayerObserverChatCommandStruct@@@@6B@ ; DynamicVectorClass<DAPlayerObserverChatCommandStruct *>::`RTTI Complete Object Locator'
PUBLIC	??_R0?AV?$DynamicVectorClass@PAUDAPlayerObserverChatCommandStruct@@@@@8 ; DynamicVectorClass<DAPlayerObserverChatCommandStruct *> `RTTI Type Descriptor'
PUBLIC	??_R3?$DynamicVectorClass@PAUDAPlayerObserverChatCommandStruct@@@@8 ; DynamicVectorClass<DAPlayerObserverChatCommandStruct *>::`RTTI Class Hierarchy Descriptor'
PUBLIC	??_R2?$DynamicVectorClass@PAUDAPlayerObserverChatCommandStruct@@@@8 ; DynamicVectorClass<DAPlayerObserverChatCommandStruct *>::`RTTI Base Class Array'
PUBLIC	??_R1A@?0A@EA@?$DynamicVectorClass@PAUDAPlayerObserverChatCommandStruct@@@@8 ; DynamicVectorClass<DAPlayerObserverChatCommandStruct *>::`RTTI Base Class Descriptor at (0,-1,0,64)'
PUBLIC	??_R1A@?0A@EA@?$VectorClass@PAUDAPlayerObserverChatCommandStruct@@@@8 ; VectorClass<DAPlayerObserverChatCommandStruct *>::`RTTI Base Class Descriptor at (0,-1,0,64)'
PUBLIC	??_R0?AV?$VectorClass@PAUDAPlayerObserverChatCommandStruct@@@@@8 ; VectorClass<DAPlayerObserverChatCommandStruct *> `RTTI Type Descriptor'
PUBLIC	??_R3?$VectorClass@PAUDAPlayerObserverChatCommandStruct@@@@8 ; VectorClass<DAPlayerObserverChatCommandStruct *>::`RTTI Class Hierarchy Descriptor'
PUBLIC	??_R2?$VectorClass@PAUDAPlayerObserverChatCommandStruct@@@@8 ; VectorClass<DAPlayerObserverChatCommandStruct *>::`RTTI Base Class Array'
PUBLIC	??_R4?$DynamicVectorClass@PAUDAPlayerObserverKeyHookStruct@@@@6B@ ; DynamicVectorClass<DAPlayerObserverKeyHookStruct *>::`RTTI Complete Object Locator'
PUBLIC	??_R0?AV?$DynamicVectorClass@PAUDAPlayerObserverKeyHookStruct@@@@@8 ; DynamicVectorClass<DAPlayerObserverKeyHookStruct *> `RTTI Type Descriptor'
PUBLIC	??_R3?$DynamicVectorClass@PAUDAPlayerObserverKeyHookStruct@@@@8 ; DynamicVectorClass<DAPlayerObserverKeyHookStruct *>::`RTTI Class Hierarchy Descriptor'
PUBLIC	??_R2?$DynamicVectorClass@PAUDAPlayerObserverKeyHookStruct@@@@8 ; DynamicVectorClass<DAPlayerObserverKeyHookStruct *>::`RTTI Base Class Array'
PUBLIC	??_R1A@?0A@EA@?$DynamicVectorClass@PAUDAPlayerObserverKeyHookStruct@@@@8 ; DynamicVectorClass<DAPlayerObserverKeyHookStruct *>::`RTTI Base Class Descriptor at (0,-1,0,64)'
PUBLIC	??_R1A@?0A@EA@?$VectorClass@PAUDAPlayerObserverKeyHookStruct@@@@8 ; VectorClass<DAPlayerObserverKeyHookStruct *>::`RTTI Base Class Descriptor at (0,-1,0,64)'
PUBLIC	??_R0?AV?$VectorClass@PAUDAPlayerObserverKeyHookStruct@@@@@8 ; VectorClass<DAPlayerObserverKeyHookStruct *> `RTTI Type Descriptor'
PUBLIC	??_R3?$VectorClass@PAUDAPlayerObserverKeyHookStruct@@@@8 ; VectorClass<DAPlayerObserverKeyHookStruct *>::`RTTI Class Hierarchy Descriptor'
PUBLIC	??_R2?$VectorClass@PAUDAPlayerObserverKeyHookStruct@@@@8 ; VectorClass<DAPlayerObserverKeyHookStruct *>::`RTTI Base Class Array'
PUBLIC	??_R4?$VectorClass@PAUDAPlayerObserverTimerStruct@@@@6B@ ; VectorClass<DAPlayerObserverTimerStruct *>::`RTTI Complete Object Locator'
PUBLIC	??_R4?$VectorClass@PAUDAPlayerObserverChatCommandStruct@@@@6B@ ; VectorClass<DAPlayerObserverChatCommandStruct *>::`RTTI Complete Object Locator'
PUBLIC	??_R4?$VectorClass@PAUDAPlayerObserverKeyHookStruct@@@@6B@ ; VectorClass<DAPlayerObserverKeyHookStruct *>::`RTTI Complete Object Locator'
PUBLIC	??_R4DASquadMemberClass@@6B@			; DASquadMemberClass::`RTTI Complete Object Locator'
PUBLIC	??_R0?AVDASquadMemberClass@@@8			; DASquadMemberClass `RTTI Type Descriptor'
PUBLIC	??_R3DASquadMemberClass@@8			; DASquadMemberClass::`RTTI Class Hierarchy Descriptor'
PUBLIC	??_R2DASquadMemberClass@@8			; DASquadMemberClass::`RTTI Base Class Array'
PUBLIC	??_R1A@?0A@EA@DASquadMemberClass@@8		; DASquadMemberClass::`RTTI Base Class Descriptor at (0,-1,0,64)'
PUBLIC	??_R4?$DynamicVectorClass@PAVDASquadMemberClass@@@@6B@ ; DynamicVectorClass<DASquadMemberClass *>::`RTTI Complete Object Locator'
PUBLIC	??_R0?AV?$DynamicVectorClass@PAVDASquadMemberClass@@@@@8 ; DynamicVectorClass<DASquadMemberClass *> `RTTI Type Descriptor'
PUBLIC	??_R3?$DynamicVectorClass@PAVDASquadMemberClass@@@@8 ; DynamicVectorClass<DASquadMemberClass *>::`RTTI Class Hierarchy Descriptor'
PUBLIC	??_R2?$DynamicVectorClass@PAVDASquadMemberClass@@@@8 ; DynamicVectorClass<DASquadMemberClass *>::`RTTI Base Class Array'
PUBLIC	??_R1A@?0A@EA@?$DynamicVectorClass@PAVDASquadMemberClass@@@@8 ; DynamicVectorClass<DASquadMemberClass *>::`RTTI Base Class Descriptor at (0,-1,0,64)'
PUBLIC	??_R1A@?0A@EA@?$VectorClass@PAVDASquadMemberClass@@@@8 ; VectorClass<DASquadMemberClass *>::`RTTI Base Class Descriptor at (0,-1,0,64)'
PUBLIC	??_R0?AV?$VectorClass@PAVDASquadMemberClass@@@@@8 ; VectorClass<DASquadMemberClass *> `RTTI Type Descriptor'
PUBLIC	??_R3?$VectorClass@PAVDASquadMemberClass@@@@8	; VectorClass<DASquadMemberClass *>::`RTTI Class Hierarchy Descriptor'
PUBLIC	??_R2?$VectorClass@PAVDASquadMemberClass@@@@8	; VectorClass<DASquadMemberClass *>::`RTTI Base Class Array'
PUBLIC	??_R4?$VectorClass@PAVDASquadMemberClass@@@@6B@	; VectorClass<DASquadMemberClass *>::`RTTI Complete Object Locator'
PUBLIC	??_R4DASquadManagerClass@@6BDAEventClass@@@	; DASquadManagerClass::`RTTI Complete Object Locator'
PUBLIC	??_R0?AVDASquadManagerClass@@@8			; DASquadManagerClass `RTTI Type Descriptor'
PUBLIC	??_R3DASquadManagerClass@@8			; DASquadManagerClass::`RTTI Class Hierarchy Descriptor'
PUBLIC	??_R2DASquadManagerClass@@8			; DASquadManagerClass::`RTTI Base Class Array'
PUBLIC	??_R1A@?0A@EA@DASquadManagerClass@@8		; DASquadManagerClass::`RTTI Base Class Descriptor at (0,-1,0,64)'
PUBLIC	??_R13?0A@EA@DAGameFeatureClass@@8		; DAGameFeatureClass::`RTTI Base Class Descriptor at (4,-1,0,64)'
PUBLIC	??_R4DASquadManagerClass@@6BDAGameFeatureClass@@@ ; DASquadManagerClass::`RTTI Complete Object Locator'
PUBLIC	??_R4?$DynamicVectorClass@UDASquadInviteStruct@@@@6B@ ; DynamicVectorClass<DASquadInviteStruct>::`RTTI Complete Object Locator'
PUBLIC	??_R0?AV?$DynamicVectorClass@UDASquadInviteStruct@@@@@8 ; DynamicVectorClass<DASquadInviteStruct> `RTTI Type Descriptor'
PUBLIC	??_R3?$DynamicVectorClass@UDASquadInviteStruct@@@@8 ; DynamicVectorClass<DASquadInviteStruct>::`RTTI Class Hierarchy Descriptor'
PUBLIC	??_R2?$DynamicVectorClass@UDASquadInviteStruct@@@@8 ; DynamicVectorClass<DASquadInviteStruct>::`RTTI Base Class Array'
PUBLIC	??_R1A@?0A@EA@?$DynamicVectorClass@UDASquadInviteStruct@@@@8 ; DynamicVectorClass<DASquadInviteStruct>::`RTTI Base Class Descriptor at (0,-1,0,64)'
PUBLIC	??_R1A@?0A@EA@?$VectorClass@UDASquadInviteStruct@@@@8 ; VectorClass<DASquadInviteStruct>::`RTTI Base Class Descriptor at (0,-1,0,64)'
PUBLIC	??_R0?AV?$VectorClass@UDASquadInviteStruct@@@@@8 ; VectorClass<DASquadInviteStruct> `RTTI Type Descriptor'
PUBLIC	??_R3?$VectorClass@UDASquadInviteStruct@@@@8	; VectorClass<DASquadInviteStruct>::`RTTI Class Hierarchy Descriptor'
PUBLIC	??_R2?$VectorClass@UDASquadInviteStruct@@@@8	; VectorClass<DASquadInviteStruct>::`RTTI Base Class Array'
PUBLIC	??_R4?$VectorClass@UDASquadInviteStruct@@@@6B@	; VectorClass<DASquadInviteStruct>::`RTTI Complete Object Locator'
PUBLIC	??_R4?$DynamicVectorClass@PAVDASquadClass@@@@6B@ ; DynamicVectorClass<DASquadClass *>::`RTTI Complete Object Locator'
PUBLIC	??_R0?AV?$DynamicVectorClass@PAVDASquadClass@@@@@8 ; DynamicVectorClass<DASquadClass *> `RTTI Type Descriptor'
PUBLIC	??_R3?$DynamicVectorClass@PAVDASquadClass@@@@8	; DynamicVectorClass<DASquadClass *>::`RTTI Class Hierarchy Descriptor'
PUBLIC	??_R2?$DynamicVectorClass@PAVDASquadClass@@@@8	; DynamicVectorClass<DASquadClass *>::`RTTI Base Class Array'
PUBLIC	??_R1A@?0A@EA@?$DynamicVectorClass@PAVDASquadClass@@@@8 ; DynamicVectorClass<DASquadClass *>::`RTTI Base Class Descriptor at (0,-1,0,64)'
PUBLIC	??_R1A@?0A@EA@?$VectorClass@PAVDASquadClass@@@@8 ; VectorClass<DASquadClass *>::`RTTI Base Class Descriptor at (0,-1,0,64)'
PUBLIC	??_R0?AV?$VectorClass@PAVDASquadClass@@@@@8	; VectorClass<DASquadClass *> `RTTI Type Descriptor'
PUBLIC	??_R3?$VectorClass@PAVDASquadClass@@@@8		; VectorClass<DASquadClass *>::`RTTI Class Hierarchy Descriptor'
PUBLIC	??_R2?$VectorClass@PAVDASquadClass@@@@8		; VectorClass<DASquadClass *>::`RTTI Base Class Array'
PUBLIC	??_R4?$VectorClass@PAVDASquadClass@@@@6B@	; VectorClass<DASquadClass *>::`RTTI Complete Object Locator'
PUBLIC	??_R4?$DAGameFeatureRegistrant@VDASquadManagerClass@@@@6B@ ; DAGameFeatureRegistrant<DASquadManagerClass>::`RTTI Complete Object Locator'
PUBLIC	??_R0?AV?$DAGameFeatureRegistrant@VDASquadManagerClass@@@@@8 ; DAGameFeatureRegistrant<DASquadManagerClass> `RTTI Type Descriptor'
PUBLIC	??_R3?$DAGameFeatureRegistrant@VDASquadManagerClass@@@@8 ; DAGameFeatureRegistrant<DASquadManagerClass>::`RTTI Class Hierarchy Descriptor'
PUBLIC	??_R2?$DAGameFeatureRegistrant@VDASquadManagerClass@@@@8 ; DAGameFeatureRegistrant<DASquadManagerClass>::`RTTI Base Class Array'
PUBLIC	??_R1A@?0A@EA@?$DAGameFeatureRegistrant@VDASquadManagerClass@@@@8 ; DAGameFeatureRegistrant<DASquadManagerClass>::`RTTI Base Class Descriptor at (0,-1,0,64)'
PUBLIC	??_R4DAGameObjObserverClass@@6B@		; DAGameObjObserverClass::`RTTI Complete Object Locator'
PUBLIC	??_R0?AVDAGameObjObserverClass@@@8		; DAGameObjObserverClass `RTTI Type Descriptor'
PUBLIC	??_R3DAGameObjObserverClass@@8			; DAGameObjObserverClass::`RTTI Class Hierarchy Descriptor'
PUBLIC	??_R2DAGameObjObserverClass@@8			; DAGameObjObserverClass::`RTTI Base Class Array'
PUBLIC	??_R1A@?0A@EA@DAGameObjObserverClass@@8		; DAGameObjObserverClass::`RTTI Base Class Descriptor at (0,-1,0,64)'
PUBLIC	??_R4?$DynamicVectorClass@UDASquadRemixStruct@@@@6B@ ; DynamicVectorClass<DASquadRemixStruct>::`RTTI Complete Object Locator'
PUBLIC	??_R0?AV?$DynamicVectorClass@UDASquadRemixStruct@@@@@8 ; DynamicVectorClass<DASquadRemixStruct> `RTTI Type Descriptor'
PUBLIC	??_R3?$DynamicVectorClass@UDASquadRemixStruct@@@@8 ; DynamicVectorClass<DASquadRemixStruct>::`RTTI Class Hierarchy Descriptor'
PUBLIC	??_R2?$DynamicVectorClass@UDASquadRemixStruct@@@@8 ; DynamicVectorClass<DASquadRemixStruct>::`RTTI Base Class Array'
PUBLIC	??_R1A@?0A@EA@?$DynamicVectorClass@UDASquadRemixStruct@@@@8 ; DynamicVectorClass<DASquadRemixStruct>::`RTTI Base Class Descriptor at (0,-1,0,64)'
PUBLIC	??_R1A@?0A@EA@?$VectorClass@UDASquadRemixStruct@@@@8 ; VectorClass<DASquadRemixStruct>::`RTTI Base Class Descriptor at (0,-1,0,64)'
PUBLIC	??_R0?AV?$VectorClass@UDASquadRemixStruct@@@@@8	; VectorClass<DASquadRemixStruct> `RTTI Type Descriptor'
PUBLIC	??_R3?$VectorClass@UDASquadRemixStruct@@@@8	; VectorClass<DASquadRemixStruct>::`RTTI Class Hierarchy Descriptor'
PUBLIC	??_R2?$VectorClass@UDASquadRemixStruct@@@@8	; VectorClass<DASquadRemixStruct>::`RTTI Base Class Array'
PUBLIC	??_R4?$VectorClass@UDASquadRemixStruct@@@@6B@	; VectorClass<DASquadRemixStruct>::`RTTI Complete Object Locator'
PUBLIC	__real@00000000
PUBLIC	__real@0000000000000000
PUBLIC	__real@02081cea
PUBLIC	__real@3f79999a
PUBLIC	__real@3f800000
PUBLIC	__real@3fc90fdb
PUBLIC	__real@3fe0000000000000
PUBLIC	__real@3ff0000000000000
PUBLIC	__real@40000000
PUBLIC	__real@4000000000000000
PUBLIC	__real@40c90fdb
PUBLIC	__real@437f0000
PUBLIC	__real@44000000
PUBLIC	__real@44800000
PUBLIC	__real@bf800000
PUBLIC	__real@c0000000
PUBLIC	__xmm@80000000000000008000000000000000
PUBLIC	__xmm@80000000800000008000000080000000
EXTRN	__purecall:PROC
EXTRN	??2@YAPAXI@Z:PROC				; operator new
EXTRN	??3@YAXPAX@Z:PROC				; operator delete
EXTRN	_atexit:PROC
EXTRN	__imp___wassert:PROC
EXTRN	__imp__atof:PROC
EXTRN	__imp__ceil:PROC
EXTRN	__imp__atoi:PROC
EXTRN	??_V@YAXPAX@Z:PROC				; operator delete[]
EXTRN	??_U@YAPAXI@Z:PROC				; operator new[]
EXTRN	__imp__vsnprintf:PROC
EXTRN	__imp__sprintf:PROC
EXTRN	__imp__GetCurrentThreadId@0:PROC
EXTRN	__imp__OutputDebugStringA@4:PROC
EXTRN	?SetThreadTrackingInformation@@YAXPBDI0@Z:PROC	; SetThreadTrackingInformation
EXTRN	?Random_Float@WWMath@@SAMXZ:PROC		; WWMath::Random_Float
EXTRN	??0ScriptImpClass@@QAE@XZ:PROC			; ScriptImpClass::ScriptImpClass
EXTRN	??1ScriptImpClass@@UAE@XZ:PROC			; ScriptImpClass::~ScriptImpClass
EXTRN	?Get_Name@ScriptImpClass@@UAEPBDXZ:PROC		; ScriptImpClass::Get_Name
EXTRN	?Set_Parameters_String@ScriptImpClass@@UAEXPBD@Z:PROC ; ScriptImpClass::Set_Parameters_String
EXTRN	?Get_Parameters_String@ScriptImpClass@@UAEXPADI@Z:PROC ; ScriptImpClass::Get_Parameters_String
EXTRN	?Get_Parameter@ScriptImpClass@@QAEPBDH@Z:PROC	; ScriptImpClass::Get_Parameter
EXTRN	?Get_Int_Parameter@ScriptImpClass@@QAEHPBD@Z:PROC ; ScriptImpClass::Get_Int_Parameter
EXTRN	?Attach@ScriptImpClass@@MAEXPAVScriptableGameObj@@@Z:PROC ; ScriptImpClass::Attach
EXTRN	?Detach@ScriptImpClass@@MAEXPAVScriptableGameObj@@@Z:PROC ; ScriptImpClass::Detach
EXTRN	?Save@ScriptImpClass@@MAEXAAVScriptSaver@@@Z:PROC ; ScriptImpClass::Save
EXTRN	?Load@ScriptImpClass@@MAEXAAVScriptLoader@@@Z:PROC ; ScriptImpClass::Load
EXTRN	??1ScriptFactory@@UAE@XZ:PROC			; ScriptFactory::~ScriptFactory
EXTRN	??1ThreadClass@@UAE@XZ:PROC			; ThreadClass::~ThreadClass
EXTRN	__imp_?Format@StringClass@@QAAHPBDZZ:PROC
EXTRN	__imp_?Copy_Wide@StringClass@@QAE_NPB_W@Z:PROC
EXTRN	__imp_?Get_String@StringClass@@AAEXH_N@Z:PROC
EXTRN	__imp_?Resize@StringClass@@AAEXH@Z:PROC
EXTRN	__imp_?Uninitialised_Grow@StringClass@@AAEXH@Z:PROC
EXTRN	__imp_?Free_String@StringClass@@AAEXXZ:PROC
EXTRN	__imp_?Get_String@WideStringClass@@AAEXH_N@Z:PROC
EXTRN	__imp_?Resize@WideStringClass@@AAEXH@Z:PROC
EXTRN	__imp_?Uninitialised_Grow@WideStringClass@@AAEXH@Z:PROC
EXTRN	__imp_?Free_String@WideStringClass@@AAEXXZ:PROC
EXTRN	?Find_Entry@INIClass@@QBEPAUINIEntry@@PBD0@Z:PROC ; INIClass::Find_Entry
EXTRN	?Find_Section@INIClass@@QBEPAUINISection@@PBD@Z:PROC ; INIClass::Find_Section
EXTRN	??1INIClass@@UAE@XZ:PROC			; INIClass::~INIClass
EXTRN	?Set@Matrix3D@@QAEXABVMatrix3@@ABVVector3@@@Z:PROC ; Matrix3D::Set
EXTRN	?Set@Matrix3D@@QAEXABVQuaternion@@ABVVector3@@@Z:PROC ; Matrix3D::Set
EXTRN	?Create_Object_Attach_To_Object@@YAPAVScriptableGameObj@@PAV1@PBD1@Z:PROC ; Create_Object_Attach_To_Object
EXTRN	?Set@Matrix3@@QAEXABVQuaternion@@@Z:PROC	; Matrix3::Set
EXTRN	?Get@SysTimeClass@@QAEIXZ:PROC			; SysTimeClass::Get
EXTRN	?Get_Entry@GenericDataSafeClass@@SAPAVDataSafeEntryClass@@VDataSafeHandleClass@@@Z:PROC ; GenericDataSafeClass::Get_Entry
EXTRN	?Shuffle@GenericDataSafeClass@@KAX_N@Z:PROC	; GenericDataSafeClass::Shuffle
EXTRN	?Mem_Copy_Decrypt@GenericDataSafeClass@@KAXPAX0H_N@Z:PROC ; GenericDataSafeClass::Mem_Copy_Decrypt
EXTRN	?Say_Security_Fault@GenericDataSafeClass@@KAXXZ:PROC ; GenericDataSafeClass::Say_Security_Fault
EXTRN	??1ReferencerClass@@UAE@XZ:PROC			; ReferencerClass::~ReferencerClass
EXTRN	?On_Post_Load@ReferencerClass@@UAEXXZ:PROC	; ReferencerClass::On_Post_Load
EXTRN	??4ReferencerClass@@QAEAAV0@PAVScriptableGameObj@@@Z:PROC ; ReferencerClass::operator=
EXTRN	??4ReferencerClass@@QAEAAV0@ABV0@@Z:PROC	; ReferencerClass::operator=
EXTRN	??BReferencerClass@@QBEPAVScriptableGameObj@@XZ:PROC ; ReferencerClass::operator ScriptableGameObj *
EXTRN	?Set@LineSegClass@@QAEXABV1@ABVMatrix3D@@@Z:PROC ; LineSegClass::Set
EXTRN	?The_Game@@YAPAVcGameData@@XZ:PROC		; The_Game
EXTRN	?Detach@JFW_Key_Hook_Base@@UAEXPAVScriptableGameObj@@@Z:PROC ; JFW_Key_Hook_Base::Detach
EXTRN	?Destroyed@JFW_Key_Hook_Base@@UAEXPAVScriptableGameObj@@@Z:PROC ; JFW_Key_Hook_Base::Destroyed
EXTRN	??1JFW_Key_Hook_Base@@UAE@XZ:PROC		; JFW_Key_Hook_Base::~JFW_Key_Hook_Base
EXTRN	?Detach@MultiKeyHookScriptImpClass@@UAEXPAVScriptableGameObj@@@Z:PROC ; MultiKeyHookScriptImpClass::Detach
EXTRN	?Destroyed@MultiKeyHookScriptImpClass@@UAEXPAVScriptableGameObj@@@Z:PROC ; MultiKeyHookScriptImpClass::Destroyed
EXTRN	??_E?$SList@UKeyHookWrapperStruct@MultiKeyHookScriptImpClass@@@@UAEPAXI@Z:PROC ; SList<MultiKeyHookScriptImpClass::KeyHookWrapperStruct>::`vector deleting destructor'
EXTRN	?Detach@JFW_Object_Created_Hook_Base@@UAEXPAVScriptableGameObj@@@Z:PROC ; JFW_Object_Created_Hook_Base::Detach
EXTRN	?Created@JFW_Object_Created_Hook_Base@@UAEXPAVScriptableGameObj@@@Z:PROC ; JFW_Object_Created_Hook_Base::Created
EXTRN	??1JFW_Object_Created_Hook_Base@@UAE@XZ:PROC	; JFW_Object_Created_Hook_Base::~JFW_Object_Created_Hook_Base
EXTRN	?Change_Team_3@@YAXPAVcPlayer@@H@Z:PROC		; Change_Team_3
EXTRN	?Change_Team_4@@YAXPAVcPlayer@@H@Z:PROC		; Change_Team_4
EXTRN	?Match_Player@@YAPAVcPlayer@@PAV1@ABVStringClass@@_N2@Z:PROC ; Match_Player
EXTRN	?Create_2D_WAV_Sound_Player_By_ID@@YAXHPBD@Z:PROC ; Create_2D_WAV_Sound_Player_By_ID
EXTRN	?Private_Color_Message@DA@@SAXPAVcPlayer@@IIIPBDZZ:PROC ; DA::Private_Color_Message
EXTRN	?Private_Color_Message@DA@@SAXHIIIPBDZZ:PROC	; DA::Private_Color_Message
EXTRN	?Private_Color_Message_With_Team_Color@DA@@SAXPAVcPlayer@@HPBDZZ:PROC ; DA::Private_Color_Message_With_Team_Color
EXTRN	?Get_Random_Int@@YAHHH@Z:PROC			; Get_Random_Int
EXTRN	?Get_Random_Bool@@YA_NXZ:PROC			; Get_Random_Bool
EXTRN	?Register_Event@DAEventManager@@SAXPAVDAEventClass@@W4Type@DAEvent@@H@Z:PROC ; DAEventManager::Register_Event
EXTRN	?Unregister_Event@DAEventManager@@SAXPAVDAEventClass@@W4Type@DAEvent@@@Z:PROC ; DAEventManager::Unregister_Event
EXTRN	?Clear_Events@DAEventManager@@SAXPAVDAEventClass@@@Z:PROC ; DAEventManager::Clear_Events
EXTRN	?Register_Object_Event@DAEventManager@@SAXPAVDAEventClass@@W4Type@DAObjectEvent@@W4ObjectType@4@H@Z:PROC ; DAEventManager::Register_Object_Event
EXTRN	?Unregister_Object_Event@DAEventManager@@SAXPAVDAEventClass@@W4Type@DAObjectEvent@@@Z:PROC ; DAEventManager::Unregister_Object_Event
EXTRN	?Clear_Object_Events@DAEventManager@@SAXPAVDAEventClass@@@Z:PROC ; DAEventManager::Clear_Object_Events
EXTRN	?Start_Timer@DAEventManager@@SAXPAVDAEventClass@@HM_NI@Z:PROC ; DAEventManager::Start_Timer
EXTRN	?Stop_Timer@DAEventManager@@SAXPAVDAEventClass@@HI@Z:PROC ; DAEventManager::Stop_Timer
EXTRN	?Is_Timer@DAEventManager@@SA_NPAVDAEventClass@@HI@Z:PROC ; DAEventManager::Is_Timer
EXTRN	?Clear_Timers@DAEventManager@@SAXPAVDAEventClass@@@Z:PROC ; DAEventManager::Clear_Timers
EXTRN	?Register_Chat_Command@DAEventClass@@QAEXP81@AE_NPAVcPlayer@@ABVDATokenClass@@W4TextMessageEnum@@@ZPBDHW4Level@DAAccessLevel@@W4Type@DAChatType@@@Z:PROC ; DAEventClass::Register_Chat_Command
EXTRN	?Clear_Chat_Commands@DAEventClass@@QAEXXZ:PROC	; DAEventClass::Clear_Chat_Commands
EXTRN	?Clear_Key_Hooks@DAEventClass@@QAEXXZ:PROC	; DAEventClass::Clear_Key_Hooks
EXTRN	??0DAGameFeatureFactoryClass@@QAE@PBD00@Z:PROC	; DAGameFeatureFactoryClass::DAGameFeatureFactoryClass
EXTRN	??_EDAGameFeatureFactoryClass@@UAEPAXI@Z:PROC	; DAGameFeatureFactoryClass::`vector deleting destructor'
EXTRN	?Add_Observer@DAPlayerClass@@QAEXPAVDAPlayerObserverClass@@@Z:PROC ; DAPlayerClass::Add_Observer
EXTRN	?Set_Needs_Team@DAPlayerClass@@QAEX_N@Z:PROC	; DAPlayerClass::Set_Needs_Team
EXTRN	??_E?$VectorClass@PAVDAPlayerObserverClass@@@@UAEPAXI@Z:PROC ; VectorClass<DAPlayerObserverClass *>::`vector deleting destructor'
EXTRN	??_E?$DynamicVectorClass@PAVDAPlayerObserverClass@@@@UAEPAXI@Z:PROC ; DynamicVectorClass<DAPlayerObserverClass *>::`vector deleting destructor'
EXTRN	??_E?$VectorClass@PAVDAPlayerDataClass@@@@UAEPAXI@Z:PROC ; VectorClass<DAPlayerDataClass *>::`vector deleting destructor'
EXTRN	??_E?$DynamicVectorClass@PAVDAPlayerDataClass@@@@UAEPAXI@Z:PROC ; DynamicVectorClass<DAPlayerDataClass *>::`vector deleting destructor'
EXTRN	??_E?$VectorClass@PAUDAPlayerTagStruct@DAPlayerClass@@@@UAEPAXI@Z:PROC ; VectorClass<DAPlayerClass::DAPlayerTagStruct *>::`vector deleting destructor'
EXTRN	??_E?$DynamicVectorClass@PAUDAPlayerTagStruct@DAPlayerClass@@@@UAEPAXI@Z:PROC ; DynamicVectorClass<DAPlayerClass::DAPlayerTagStruct *>::`vector deleting destructor'
EXTRN	?Clear_Timers@DAPlayerObserverClass@@QAEXXZ:PROC ; DAPlayerObserverClass::Clear_Timers
EXTRN	?Register_Chat_Command@DAPlayerObserverClass@@QAEXP81@AE_NABVDATokenClass@@W4TextMessageEnum@@@ZPBDHW4Level@DAAccessLevel@@W4Type@DAChatType@@@Z:PROC ; DAPlayerObserverClass::Register_Chat_Command
EXTRN	?Clear_Chat_Commands@DAPlayerObserverClass@@QAEXXZ:PROC ; DAPlayerObserverClass::Clear_Chat_Commands
EXTRN	?Clear_Key_Hooks@DAPlayerObserverClass@@QAEXXZ:PROC ; DAPlayerObserverClass::Clear_Key_Hooks
EXTRN	??_E?$VectorClass@PAUDAPlayerObserverTimerStruct@@@@UAEPAXI@Z:PROC ; VectorClass<DAPlayerObserverTimerStruct *>::`vector deleting destructor'
EXTRN	??_E?$DynamicVectorClass@PAUDAPlayerObserverTimerStruct@@@@UAEPAXI@Z:PROC ; DynamicVectorClass<DAPlayerObserverTimerStruct *>::`vector deleting destructor'
EXTRN	??_E?$VectorClass@PAUDAPlayerObserverChatCommandStruct@@@@UAEPAXI@Z:PROC ; VectorClass<DAPlayerObserverChatCommandStruct *>::`vector deleting destructor'
EXTRN	??_E?$DynamicVectorClass@PAUDAPlayerObserverChatCommandStruct@@@@UAEPAXI@Z:PROC ; DynamicVectorClass<DAPlayerObserverChatCommandStruct *>::`vector deleting destructor'
EXTRN	??_E?$VectorClass@PAUDAPlayerObserverKeyHookStruct@@@@UAEPAXI@Z:PROC ; VectorClass<DAPlayerObserverKeyHookStruct *>::`vector deleting destructor'
EXTRN	??_E?$DynamicVectorClass@PAUDAPlayerObserverKeyHookStruct@@@@UAEPAXI@Z:PROC ; DynamicVectorClass<DAPlayerObserverKeyHookStruct *>::`vector deleting destructor'
EXTRN	??_E?$VectorClass@PAVDASquadMemberClass@@@@UAEPAXI@Z:PROC ; VectorClass<DASquadMemberClass *>::`vector deleting destructor'
EXTRN	??_E?$DynamicVectorClass@PAVDASquadMemberClass@@@@UAEPAXI@Z:PROC ; DynamicVectorClass<DASquadMemberClass *>::`vector deleting destructor'
EXTRN	??_E?$VectorClass@UDASquadInviteStruct@@@@UAEPAXI@Z:PROC ; VectorClass<DASquadInviteStruct>::`vector deleting destructor'
EXTRN	??_E?$DynamicVectorClass@UDASquadInviteStruct@@@@UAEPAXI@Z:PROC ; DynamicVectorClass<DASquadInviteStruct>::`vector deleting destructor'
EXTRN	??_E?$VectorClass@PAVDASquadClass@@@@UAEPAXI@Z:PROC ; VectorClass<DASquadClass *>::`vector deleting destructor'
EXTRN	??_E?$DynamicVectorClass@PAVDASquadClass@@@@UAEPAXI@Z:PROC ; DynamicVectorClass<DASquadClass *>::`vector deleting destructor'
EXTRN	??_E?$DAGameFeatureRegistrant@VDASquadManagerClass@@@@UAEPAXI@Z:PROC ; DAGameFeatureRegistrant<DASquadManagerClass>::`vector deleting destructor'
EXTRN	?Get_Int@DASettingsManager@@SAHPBDH@Z:PROC	; DASettingsManager::Get_Int
EXTRN	?Get_Bool@DASettingsManager@@SA_NPBD_N@Z:PROC	; DASettingsManager::Get_Bool
EXTRN	?Translate@DATranslationManager@@SAPBDPBVDefinitionClass@@@Z:PROC ; DATranslationManager::Translate
EXTRN	?Translate_Soldier@DATranslationManager@@SA?AVStringClass@@PAVScriptableGameObj@@@Z:PROC ; DATranslationManager::Translate_Soldier
EXTRN	?Write_Log@DALogManager@@SAXPBD0ZZ:PROC		; DALogManager::Write_Log
EXTRN	?Owner@DAGameObjObserverClass@@EAEPAVScriptableGameObj@@XZ:PROC ; DAGameObjObserverClass::Owner
EXTRN	?Attach@DAGameObjObserverClass@@EAEXPAVScriptableGameObj@@@Z:PROC ; DAGameObjObserverClass::Attach
EXTRN	?Detach@DAGameObjObserverClass@@EAEXPAVScriptableGameObj@@@Z:PROC ; DAGameObjObserverClass::Detach
EXTRN	?Set_GameObj_Invisible_No_Delete@DAGameObjManager@@SAXPAVScriptableGameObj@@@Z:PROC ; DAGameObjManager::Set_GameObj_Invisible_No_Delete
EXTRN	??_E?$VectorClass@UDASquadRemixStruct@@@@UAEPAXI@Z:PROC ; VectorClass<DASquadRemixStruct>::`vector deleting destructor'
EXTRN	??_E?$DynamicVectorClass@UDASquadRemixStruct@@@@UAEPAXI@Z:PROC ; DynamicVectorClass<DASquadRemixStruct>::`vector deleting destructor'
EXTRN	__CIatan2:PROC
EXTRN	__libm_sse2_acos_precise:PROC
EXTRN	__libm_sse2_asin_precise:PROC
EXTRN	__libm_sse2_atan_precise:PROC
EXTRN	__libm_sse2_cos_precise:PROC
EXTRN	__libm_sse2_sin_precise:PROC
EXTRN	__libm_sse2_sqrt_precise:PROC
EXTRN	__libm_sse2_tan_precise:PROC
EXTRN	_floor:PROC
EXTRN	_memcpy:PROC
EXTRN	??_7type_info@@6B@:QWORD			; type_info::`vftable'
EXTRN	?_FastAcosTable@@3AAV?$RefArrayHelper@M$0EAA@@@A:DWORD ; _FastAcosTable
EXTRN	?_FastAsinTable@@3AAV?$RefArrayHelper@M$0EAA@@@A:DWORD ; _FastAsinTable
EXTRN	?_FastSinTable@@3AAV?$RefArrayHelper@M$0EAA@@@A:DWORD ; _FastSinTable
EXTRN	?Commands@@3PAUScriptCommands@@A:DWORD		; Commands
EXTRN	__imp_?m_EmptyString@StringClass@@0AAPADA:DWORD
EXTRN	__imp_?m_NullChar@StringClass@@0AADA:DWORD
EXTRN	__imp_?m_EmptyString@WideStringClass@@0AAPA_WA:DWORD
EXTRN	__imp_?m_NullChar@WideStringClass@@0AA_WA:DWORD
EXTRN	?SystemTime@SysTimeClass@@2AAV1@A:DWORD		; SysTimeClass::SystemTime
EXTRN	?SimpleKey@GenericDataSafeClass@@1AAKA:DWORD	; GenericDataSafeClass::SimpleKey
EXTRN	?HandleKey@GenericDataSafeClass@@1AAKA:DWORD	; GenericDataSafeClass::HandleKey
EXTRN	?NumLists@GenericDataSafeClass@@1AAHA:DWORD	; GenericDataSafeClass::NumLists
EXTRN	?Safe@GenericDataSafeClass@@1AAV?$RefArray@PAVDataSafeEntryListClass@@$0CAAA@@@A:DWORD ; GenericDataSafeClass::Safe
EXTRN	?Checksum@GenericDataSafeClass@@1AAKA:DWORD	; GenericDataSafeClass::Checksum
EXTRN	?SecurityCheckDelay@GenericDataSafeClass@@1AAKA:DWORD ; GenericDataSafeClass::SecurityCheckDelay
EXTRN	?SentinelOne@GenericDataSafeClass@@1AAVDataSafeHandleClass@@A:DWORD ; GenericDataSafeClass::SentinelOne
EXTRN	?SentinelTwo@GenericDataSafeClass@@1AAVDataSafeHandleClass@@A:DWORD ; GenericDataSafeClass::SentinelTwo
EXTRN	?CRCErrors@GenericDataSafeClass@@1AAHA:DWORD	; GenericDataSafeClass::CRCErrors
EXTRN	?ReturnList@?$DataSafeClass@H@@0AAV?$RefArray@V?$RefArray@D$03@@$07@@A:DWORD ; DataSafeClass<int>::ReturnList
EXTRN	?ReturnIndex@?$DataSafeClass@H@@0AAHA:DWORD	; DataSafeClass<int>::ReturnIndex
EXTRN	?Get_Player_List@@3P6APAV?$SList@VcPlayer@@@@XZA:DWORD ; Get_Player_List
EXTRN	?Update_Network_Object_Player@@3P6AXPAVNetworkObjectClass@@H@ZA:DWORD ; Update_Network_Object_Player
EXTRN	?MessagePrefix@DA@@0VStringClass@@A:DWORD	; DA::MessagePrefix
EXTRN	?ConsoleFunctions@DA@@0V?$DynamicVectorClass@PAVConsoleFunctionClass@@@@A:BYTE ; DA::ConsoleFunctions
EXTRN	__fltused:DWORD
;	COMDAT ?_checking@?1??Security_Check@GenericDataSafeClass@@KAXXZ@4_NA
_BSS	SEGMENT
?_checking@?1??Security_Check@GenericDataSafeClass@@KAXXZ@4_NA DB 01H DUP (?) ; `GenericDataSafeClass::Security_Check'::`2'::_checking
_BSS	ENDS
;	COMDAT ?_calls@?1??Security_Check@GenericDataSafeClass@@KAXXZ@4KA
_BSS	SEGMENT
?_calls@?1??Security_Check@GenericDataSafeClass@@KAXXZ@4KA DD 01H DUP (?) ; `GenericDataSafeClass::Security_Check'::`2'::_calls
_BSS	ENDS
_BSS	SEGMENT
?DASquadManagerClassRegistrant@@3V?$DAGameFeatureRegistrant@VDASquadManagerClass@@@@A DB 014H DUP (?) ; DASquadManagerClassRegistrant
_BSS	ENDS
;	COMDAT ?instancex@?1??getInstance@?$Singleton@V?$ObjectPoolClass@VGenericSLNode@@$0BAA@@@@@SAAAV?$ObjectPoolClass@VGenericSLNode@@$0BAA@@@XZ@4V3@A
_BSS	SEGMENT
?instancex@?1??getInstance@?$Singleton@V?$ObjectPoolClass@VGenericSLNode@@$0BAA@@@@@SAAAV?$ObjectPoolClass@VGenericSLNode@@$0BAA@@@XZ@4V3@A DB 014H DUP (?) ; `Singleton<ObjectPoolClass<GenericSLNode,256> >::getInstance'::`2'::instancex
_BSS	ENDS
;	COMDAT ??_B?1??getInstance@?$Singleton@V?$ObjectPoolClass@VGenericSLNode@@$0BAA@@@@@SAAAV?$ObjectPoolClass@VGenericSLNode@@$0BAA@@@XZ@51
_BSS	SEGMENT
??_B?1??getInstance@?$Singleton@V?$ObjectPoolClass@VGenericSLNode@@$0BAA@@@@@SAAAV?$ObjectPoolClass@VGenericSLNode@@$0BAA@@@XZ@51 DD 01H DUP (?) ; `Singleton<ObjectPoolClass<GenericSLNode,256> >::getInstance'::`2'::`local static guard'
_BSS	ENDS
;	COMDAT ?oh_dear@?7???R?$SafeDataClass@H@@QBEAAHXZ@4HA
_BSS	SEGMENT
?oh_dear@?7???R?$SafeDataClass@H@@QBEAAHXZ@4HA DD 01H DUP (?) ; `SafeDataClass<int>::operator()'::`8'::oh_dear
_BSS	ENDS
CRT$XCU	SEGMENT
_DASquadManagerClassRegistrant$initializer$ DD FLAT:??__EDASquadManagerClassRegistrant@@YAXXZ
CRT$XCU	ENDS
;	COMDAT __xmm@80000000800000008000000080000000
CONST	SEGMENT
__xmm@80000000800000008000000080000000 DB 00H, 00H, 00H, 080H, 00H, 00H, 00H
	DB	080H, 00H, 00H, 00H, 080H, 00H, 00H, 00H, 080H
CONST	ENDS
;	COMDAT __xmm@80000000000000008000000000000000
CONST	SEGMENT
__xmm@80000000000000008000000000000000 DB 00H, 00H, 00H, 00H, 00H, 00H, 00H
	DB	080H, 00H, 00H, 00H, 00H, 00H, 00H, 00H, 080H
CONST	ENDS
;	COMDAT __real@c0000000
CONST	SEGMENT
__real@c0000000 DD 0c0000000r			; -2
CONST	ENDS
;	COMDAT __real@bf800000
CONST	SEGMENT
__real@bf800000 DD 0bf800000r			; -1
CONST	ENDS
;	COMDAT __real@44800000
CONST	SEGMENT
__real@44800000 DD 044800000r			; 1024
CONST	ENDS
;	COMDAT __real@44000000
CONST	SEGMENT
__real@44000000 DD 044000000r			; 512
CONST	ENDS
;	COMDAT __real@437f0000
CONST	SEGMENT
__real@437f0000 DD 0437f0000r			; 255
CONST	ENDS
;	COMDAT __real@40c90fdb
CONST	SEGMENT
__real@40c90fdb DD 040c90fdbr			; 6.28319
CONST	ENDS
;	COMDAT __real@4000000000000000
CONST	SEGMENT
__real@4000000000000000 DQ 04000000000000000r	; 2
CONST	ENDS
;	COMDAT __real@40000000
CONST	SEGMENT
__real@40000000 DD 040000000r			; 2
CONST	ENDS
;	COMDAT __real@3ff0000000000000
CONST	SEGMENT
__real@3ff0000000000000 DQ 03ff0000000000000r	; 1
CONST	ENDS
;	COMDAT __real@3fe0000000000000
CONST	SEGMENT
__real@3fe0000000000000 DQ 03fe0000000000000r	; 0.5
CONST	ENDS
;	COMDAT __real@3fc90fdb
CONST	SEGMENT
__real@3fc90fdb DD 03fc90fdbr			; 1.5708
CONST	ENDS
;	COMDAT __real@3f800000
CONST	SEGMENT
__real@3f800000 DD 03f800000r			; 1
CONST	ENDS
;	COMDAT __real@3f79999a
CONST	SEGMENT
__real@3f79999a DD 03f79999ar			; 0.975
CONST	ENDS
;	COMDAT __real@02081cea
CONST	SEGMENT
__real@02081cea DD 002081cear			; 1e-037
CONST	ENDS
;	COMDAT __real@0000000000000000
CONST	SEGMENT
__real@0000000000000000 DQ 00000000000000000r	; 0
CONST	ENDS
;	COMDAT __real@00000000
CONST	SEGMENT
__real@00000000 DD 000000000r			; 0
CONST	ENDS
;	COMDAT ??_R4?$VectorClass@UDASquadRemixStruct@@@@6B@
rdata$r	SEGMENT
??_R4?$VectorClass@UDASquadRemixStruct@@@@6B@ DD 00H	; VectorClass<DASquadRemixStruct>::`RTTI Complete Object Locator'
	DD	00H
	DD	00H
	DD	FLAT:??_R0?AV?$VectorClass@UDASquadRemixStruct@@@@@8
	DD	FLAT:??_R3?$VectorClass@UDASquadRemixStruct@@@@8
rdata$r	ENDS
;	COMDAT ??_R2?$VectorClass@UDASquadRemixStruct@@@@8
rdata$r	SEGMENT
??_R2?$VectorClass@UDASquadRemixStruct@@@@8 DD FLAT:??_R1A@?0A@EA@?$VectorClass@UDASquadRemixStruct@@@@8 ; VectorClass<DASquadRemixStruct>::`RTTI Base Class Array'
rdata$r	ENDS
;	COMDAT ??_R3?$VectorClass@UDASquadRemixStruct@@@@8
rdata$r	SEGMENT
??_R3?$VectorClass@UDASquadRemixStruct@@@@8 DD 00H	; VectorClass<DASquadRemixStruct>::`RTTI Class Hierarchy Descriptor'
	DD	00H
	DD	01H
	DD	FLAT:??_R2?$VectorClass@UDASquadRemixStruct@@@@8
rdata$r	ENDS
;	COMDAT ??_R0?AV?$VectorClass@UDASquadRemixStruct@@@@@8
_DATA	SEGMENT
??_R0?AV?$VectorClass@UDASquadRemixStruct@@@@@8 DD FLAT:??_7type_info@@6B@ ; VectorClass<DASquadRemixStruct> `RTTI Type Descriptor'
	DD	00H
	DB	'.?AV?$VectorClass@UDASquadRemixStruct@@@@', 00H
_DATA	ENDS
;	COMDAT ??_R1A@?0A@EA@?$VectorClass@UDASquadRemixStruct@@@@8
rdata$r	SEGMENT
??_R1A@?0A@EA@?$VectorClass@UDASquadRemixStruct@@@@8 DD FLAT:??_R0?AV?$VectorClass@UDASquadRemixStruct@@@@@8 ; VectorClass<DASquadRemixStruct>::`RTTI Base Class Descriptor at (0,-1,0,64)'
	DD	00H
	DD	00H
	DD	0ffffffffH
	DD	00H
	DD	040H
	DD	FLAT:??_R3?$VectorClass@UDASquadRemixStruct@@@@8
rdata$r	ENDS
;	COMDAT ??_R1A@?0A@EA@?$DynamicVectorClass@UDASquadRemixStruct@@@@8
rdata$r	SEGMENT
??_R1A@?0A@EA@?$DynamicVectorClass@UDASquadRemixStruct@@@@8 DD FLAT:??_R0?AV?$DynamicVectorClass@UDASquadRemixStruct@@@@@8 ; DynamicVectorClass<DASquadRemixStruct>::`RTTI Base Class Descriptor at (0,-1,0,64)'
	DD	01H
	DD	00H
	DD	0ffffffffH
	DD	00H
	DD	040H
	DD	FLAT:??_R3?$DynamicVectorClass@UDASquadRemixStruct@@@@8
rdata$r	ENDS
;	COMDAT ??_R2?$DynamicVectorClass@UDASquadRemixStruct@@@@8
rdata$r	SEGMENT
??_R2?$DynamicVectorClass@UDASquadRemixStruct@@@@8 DD FLAT:??_R1A@?0A@EA@?$DynamicVectorClass@UDASquadRemixStruct@@@@8 ; DynamicVectorClass<DASquadRemixStruct>::`RTTI Base Class Array'
	DD	FLAT:??_R1A@?0A@EA@?$VectorClass@UDASquadRemixStruct@@@@8
rdata$r	ENDS
;	COMDAT ??_R3?$DynamicVectorClass@UDASquadRemixStruct@@@@8
rdata$r	SEGMENT
??_R3?$DynamicVectorClass@UDASquadRemixStruct@@@@8 DD 00H ; DynamicVectorClass<DASquadRemixStruct>::`RTTI Class Hierarchy Descriptor'
	DD	00H
	DD	02H
	DD	FLAT:??_R2?$DynamicVectorClass@UDASquadRemixStruct@@@@8
rdata$r	ENDS
;	COMDAT ??_R0?AV?$DynamicVectorClass@UDASquadRemixStruct@@@@@8
_DATA	SEGMENT
??_R0?AV?$DynamicVectorClass@UDASquadRemixStruct@@@@@8 DD FLAT:??_7type_info@@6B@ ; DynamicVectorClass<DASquadRemixStruct> `RTTI Type Descriptor'
	DD	00H
	DB	'.?AV?$DynamicVectorClass@UDASquadRemixStruct@@@@', 00H
_DATA	ENDS
;	COMDAT ??_R4?$DynamicVectorClass@UDASquadRemixStruct@@@@6B@
rdata$r	SEGMENT
??_R4?$DynamicVectorClass@UDASquadRemixStruct@@@@6B@ DD 00H ; DynamicVectorClass<DASquadRemixStruct>::`RTTI Complete Object Locator'
	DD	00H
	DD	00H
	DD	FLAT:??_R0?AV?$DynamicVectorClass@UDASquadRemixStruct@@@@@8
	DD	FLAT:??_R3?$DynamicVectorClass@UDASquadRemixStruct@@@@8
rdata$r	ENDS
;	COMDAT ??_R1A@?0A@EA@DAGameObjObserverClass@@8
rdata$r	SEGMENT
??_R1A@?0A@EA@DAGameObjObserverClass@@8 DD FLAT:??_R0?AVDAGameObjObserverClass@@@8 ; DAGameObjObserverClass::`RTTI Base Class Descriptor at (0,-1,0,64)'
	DD	01H
	DD	00H
	DD	0ffffffffH
	DD	00H
	DD	040H
	DD	FLAT:??_R3DAGameObjObserverClass@@8
rdata$r	ENDS
;	COMDAT ??_R2DAGameObjObserverClass@@8
rdata$r	SEGMENT
??_R2DAGameObjObserverClass@@8 DD FLAT:??_R1A@?0A@EA@DAGameObjObserverClass@@8 ; DAGameObjObserverClass::`RTTI Base Class Array'
	DD	FLAT:??_R1A@?0A@EA@GameObjObserverClass@@8
rdata$r	ENDS
;	COMDAT ??_R3DAGameObjObserverClass@@8
rdata$r	SEGMENT
??_R3DAGameObjObserverClass@@8 DD 00H			; DAGameObjObserverClass::`RTTI Class Hierarchy Descriptor'
	DD	00H
	DD	02H
	DD	FLAT:??_R2DAGameObjObserverClass@@8
rdata$r	ENDS
;	COMDAT ??_R0?AVDAGameObjObserverClass@@@8
_DATA	SEGMENT
??_R0?AVDAGameObjObserverClass@@@8 DD FLAT:??_7type_info@@6B@ ; DAGameObjObserverClass `RTTI Type Descriptor'
	DD	00H
	DB	'.?AVDAGameObjObserverClass@@', 00H
_DATA	ENDS
;	COMDAT ??_R4DAGameObjObserverClass@@6B@
rdata$r	SEGMENT
??_R4DAGameObjObserverClass@@6B@ DD 00H			; DAGameObjObserverClass::`RTTI Complete Object Locator'
	DD	00H
	DD	00H
	DD	FLAT:??_R0?AVDAGameObjObserverClass@@@8
	DD	FLAT:??_R3DAGameObjObserverClass@@8
rdata$r	ENDS
;	COMDAT ??_R1A@?0A@EA@?$DAGameFeatureRegistrant@VDASquadManagerClass@@@@8
rdata$r	SEGMENT
??_R1A@?0A@EA@?$DAGameFeatureRegistrant@VDASquadManagerClass@@@@8 DD FLAT:??_R0?AV?$DAGameFeatureRegistrant@VDASquadManagerClass@@@@@8 ; DAGameFeatureRegistrant<DASquadManagerClass>::`RTTI Base Class Descriptor at (0,-1,0,64)'
	DD	01H
	DD	00H
	DD	0ffffffffH
	DD	00H
	DD	040H
	DD	FLAT:??_R3?$DAGameFeatureRegistrant@VDASquadManagerClass@@@@8
rdata$r	ENDS
;	COMDAT ??_R2?$DAGameFeatureRegistrant@VDASquadManagerClass@@@@8
rdata$r	SEGMENT
??_R2?$DAGameFeatureRegistrant@VDASquadManagerClass@@@@8 DD FLAT:??_R1A@?0A@EA@?$DAGameFeatureRegistrant@VDASquadManagerClass@@@@8 ; DAGameFeatureRegistrant<DASquadManagerClass>::`RTTI Base Class Array'
	DD	FLAT:??_R1A@?0A@EA@DAGameFeatureFactoryClass@@8
rdata$r	ENDS
;	COMDAT ??_R3?$DAGameFeatureRegistrant@VDASquadManagerClass@@@@8
rdata$r	SEGMENT
??_R3?$DAGameFeatureRegistrant@VDASquadManagerClass@@@@8 DD 00H ; DAGameFeatureRegistrant<DASquadManagerClass>::`RTTI Class Hierarchy Descriptor'
	DD	00H
	DD	02H
	DD	FLAT:??_R2?$DAGameFeatureRegistrant@VDASquadManagerClass@@@@8
rdata$r	ENDS
;	COMDAT ??_R0?AV?$DAGameFeatureRegistrant@VDASquadManagerClass@@@@@8
_DATA	SEGMENT
??_R0?AV?$DAGameFeatureRegistrant@VDASquadManagerClass@@@@@8 DD FLAT:??_7type_info@@6B@ ; DAGameFeatureRegistrant<DASquadManagerClass> `RTTI Type Descriptor'
	DD	00H
	DB	'.?AV?$DAGameFeatureRegistrant@VDASquadManagerClass@@@@', 00H
_DATA	ENDS
;	COMDAT ??_R4?$DAGameFeatureRegistrant@VDASquadManagerClass@@@@6B@
rdata$r	SEGMENT
??_R4?$DAGameFeatureRegistrant@VDASquadManagerClass@@@@6B@ DD 00H ; DAGameFeatureRegistrant<DASquadManagerClass>::`RTTI Complete Object Locator'
	DD	00H
	DD	00H
	DD	FLAT:??_R0?AV?$DAGameFeatureRegistrant@VDASquadManagerClass@@@@@8
	DD	FLAT:??_R3?$DAGameFeatureRegistrant@VDASquadManagerClass@@@@8
rdata$r	ENDS
;	COMDAT ??_R4?$VectorClass@PAVDASquadClass@@@@6B@
rdata$r	SEGMENT
??_R4?$VectorClass@PAVDASquadClass@@@@6B@ DD 00H	; VectorClass<DASquadClass *>::`RTTI Complete Object Locator'
	DD	00H
	DD	00H
	DD	FLAT:??_R0?AV?$VectorClass@PAVDASquadClass@@@@@8
	DD	FLAT:??_R3?$VectorClass@PAVDASquadClass@@@@8
rdata$r	ENDS
;	COMDAT ??_R2?$VectorClass@PAVDASquadClass@@@@8
rdata$r	SEGMENT
??_R2?$VectorClass@PAVDASquadClass@@@@8 DD FLAT:??_R1A@?0A@EA@?$VectorClass@PAVDASquadClass@@@@8 ; VectorClass<DASquadClass *>::`RTTI Base Class Array'
rdata$r	ENDS
;	COMDAT ??_R3?$VectorClass@PAVDASquadClass@@@@8
rdata$r	SEGMENT
??_R3?$VectorClass@PAVDASquadClass@@@@8 DD 00H		; VectorClass<DASquadClass *>::`RTTI Class Hierarchy Descriptor'
	DD	00H
	DD	01H
	DD	FLAT:??_R2?$VectorClass@PAVDASquadClass@@@@8
rdata$r	ENDS
;	COMDAT ??_R0?AV?$VectorClass@PAVDASquadClass@@@@@8
_DATA	SEGMENT
??_R0?AV?$VectorClass@PAVDASquadClass@@@@@8 DD FLAT:??_7type_info@@6B@ ; VectorClass<DASquadClass *> `RTTI Type Descriptor'
	DD	00H
	DB	'.?AV?$VectorClass@PAVDASquadClass@@@@', 00H
_DATA	ENDS
;	COMDAT ??_R1A@?0A@EA@?$VectorClass@PAVDASquadClass@@@@8
rdata$r	SEGMENT
??_R1A@?0A@EA@?$VectorClass@PAVDASquadClass@@@@8 DD FLAT:??_R0?AV?$VectorClass@PAVDASquadClass@@@@@8 ; VectorClass<DASquadClass *>::`RTTI Base Class Descriptor at (0,-1,0,64)'
	DD	00H
	DD	00H
	DD	0ffffffffH
	DD	00H
	DD	040H
	DD	FLAT:??_R3?$VectorClass@PAVDASquadClass@@@@8
rdata$r	ENDS
;	COMDAT ??_R1A@?0A@EA@?$DynamicVectorClass@PAVDASquadClass@@@@8
rdata$r	SEGMENT
??_R1A@?0A@EA@?$DynamicVectorClass@PAVDASquadClass@@@@8 DD FLAT:??_R0?AV?$DynamicVectorClass@PAVDASquadClass@@@@@8 ; DynamicVectorClass<DASquadClass *>::`RTTI Base Class Descriptor at (0,-1,0,64)'
	DD	01H
	DD	00H
	DD	0ffffffffH
	DD	00H
	DD	040H
	DD	FLAT:??_R3?$DynamicVectorClass@PAVDASquadClass@@@@8
rdata$r	ENDS
;	COMDAT ??_R2?$DynamicVectorClass@PAVDASquadClass@@@@8
rdata$r	SEGMENT
??_R2?$DynamicVectorClass@PAVDASquadClass@@@@8 DD FLAT:??_R1A@?0A@EA@?$DynamicVectorClass@PAVDASquadClass@@@@8 ; DynamicVectorClass<DASquadClass *>::`RTTI Base Class Array'
	DD	FLAT:??_R1A@?0A@EA@?$VectorClass@PAVDASquadClass@@@@8
rdata$r	ENDS
;	COMDAT ??_R3?$DynamicVectorClass@PAVDASquadClass@@@@8
rdata$r	SEGMENT
??_R3?$DynamicVectorClass@PAVDASquadClass@@@@8 DD 00H	; DynamicVectorClass<DASquadClass *>::`RTTI Class Hierarchy Descriptor'
	DD	00H
	DD	02H
	DD	FLAT:??_R2?$DynamicVectorClass@PAVDASquadClass@@@@8
rdata$r	ENDS
;	COMDAT ??_R0?AV?$DynamicVectorClass@PAVDASquadClass@@@@@8
_DATA	SEGMENT
??_R0?AV?$DynamicVectorClass@PAVDASquadClass@@@@@8 DD FLAT:??_7type_info@@6B@ ; DynamicVectorClass<DASquadClass *> `RTTI Type Descriptor'
	DD	00H
	DB	'.?AV?$DynamicVectorClass@PAVDASquadClass@@@@', 00H
_DATA	ENDS
;	COMDAT ??_R4?$DynamicVectorClass@PAVDASquadClass@@@@6B@
rdata$r	SEGMENT
??_R4?$DynamicVectorClass@PAVDASquadClass@@@@6B@ DD 00H	; DynamicVectorClass<DASquadClass *>::`RTTI Complete Object Locator'
	DD	00H
	DD	00H
	DD	FLAT:??_R0?AV?$DynamicVectorClass@PAVDASquadClass@@@@@8
	DD	FLAT:??_R3?$DynamicVectorClass@PAVDASquadClass@@@@8
rdata$r	ENDS
;	COMDAT ??_R4?$VectorClass@UDASquadInviteStruct@@@@6B@
rdata$r	SEGMENT
??_R4?$VectorClass@UDASquadInviteStruct@@@@6B@ DD 00H	; VectorClass<DASquadInviteStruct>::`RTTI Complete Object Locator'
	DD	00H
	DD	00H
	DD	FLAT:??_R0?AV?$VectorClass@UDASquadInviteStruct@@@@@8
	DD	FLAT:??_R3?$VectorClass@UDASquadInviteStruct@@@@8
rdata$r	ENDS
;	COMDAT ??_R2?$VectorClass@UDASquadInviteStruct@@@@8
rdata$r	SEGMENT
??_R2?$VectorClass@UDASquadInviteStruct@@@@8 DD FLAT:??_R1A@?0A@EA@?$VectorClass@UDASquadInviteStruct@@@@8 ; VectorClass<DASquadInviteStruct>::`RTTI Base Class Array'
rdata$r	ENDS
;	COMDAT ??_R3?$VectorClass@UDASquadInviteStruct@@@@8
rdata$r	SEGMENT
??_R3?$VectorClass@UDASquadInviteStruct@@@@8 DD 00H	; VectorClass<DASquadInviteStruct>::`RTTI Class Hierarchy Descriptor'
	DD	00H
	DD	01H
	DD	FLAT:??_R2?$VectorClass@UDASquadInviteStruct@@@@8
rdata$r	ENDS
;	COMDAT ??_R0?AV?$VectorClass@UDASquadInviteStruct@@@@@8
_DATA	SEGMENT
??_R0?AV?$VectorClass@UDASquadInviteStruct@@@@@8 DD FLAT:??_7type_info@@6B@ ; VectorClass<DASquadInviteStruct> `RTTI Type Descriptor'
	DD	00H
	DB	'.?AV?$VectorClass@UDASquadInviteStruct@@@@', 00H
_DATA	ENDS
;	COMDAT ??_R1A@?0A@EA@?$VectorClass@UDASquadInviteStruct@@@@8
rdata$r	SEGMENT
??_R1A@?0A@EA@?$VectorClass@UDASquadInviteStruct@@@@8 DD FLAT:??_R0?AV?$VectorClass@UDASquadInviteStruct@@@@@8 ; VectorClass<DASquadInviteStruct>::`RTTI Base Class Descriptor at (0,-1,0,64)'
	DD	00H
	DD	00H
	DD	0ffffffffH
	DD	00H
	DD	040H
	DD	FLAT:??_R3?$VectorClass@UDASquadInviteStruct@@@@8
rdata$r	ENDS
;	COMDAT ??_R1A@?0A@EA@?$DynamicVectorClass@UDASquadInviteStruct@@@@8
rdata$r	SEGMENT
??_R1A@?0A@EA@?$DynamicVectorClass@UDASquadInviteStruct@@@@8 DD FLAT:??_R0?AV?$DynamicVectorClass@UDASquadInviteStruct@@@@@8 ; DynamicVectorClass<DASquadInviteStruct>::`RTTI Base Class Descriptor at (0,-1,0,64)'
	DD	01H
	DD	00H
	DD	0ffffffffH
	DD	00H
	DD	040H
	DD	FLAT:??_R3?$DynamicVectorClass@UDASquadInviteStruct@@@@8
rdata$r	ENDS
;	COMDAT ??_R2?$DynamicVectorClass@UDASquadInviteStruct@@@@8
rdata$r	SEGMENT
??_R2?$DynamicVectorClass@UDASquadInviteStruct@@@@8 DD FLAT:??_R1A@?0A@EA@?$DynamicVectorClass@UDASquadInviteStruct@@@@8 ; DynamicVectorClass<DASquadInviteStruct>::`RTTI Base Class Array'
	DD	FLAT:??_R1A@?0A@EA@?$VectorClass@UDASquadInviteStruct@@@@8
rdata$r	ENDS
;	COMDAT ??_R3?$DynamicVectorClass@UDASquadInviteStruct@@@@8
rdata$r	SEGMENT
??_R3?$DynamicVectorClass@UDASquadInviteStruct@@@@8 DD 00H ; DynamicVectorClass<DASquadInviteStruct>::`RTTI Class Hierarchy Descriptor'
	DD	00H
	DD	02H
	DD	FLAT:??_R2?$DynamicVectorClass@UDASquadInviteStruct@@@@8
rdata$r	ENDS
;	COMDAT ??_R0?AV?$DynamicVectorClass@UDASquadInviteStruct@@@@@8
_DATA	SEGMENT
??_R0?AV?$DynamicVectorClass@UDASquadInviteStruct@@@@@8 DD FLAT:??_7type_info@@6B@ ; DynamicVectorClass<DASquadInviteStruct> `RTTI Type Descriptor'
	DD	00H
	DB	'.?AV?$DynamicVectorClass@UDASquadInviteStruct@@@@', 00H
_DATA	ENDS
;	COMDAT ??_R4?$DynamicVectorClass@UDASquadInviteStruct@@@@6B@
rdata$r	SEGMENT
??_R4?$DynamicVectorClass@UDASquadInviteStruct@@@@6B@ DD 00H ; DynamicVectorClass<DASquadInviteStruct>::`RTTI Complete Object Locator'
	DD	00H
	DD	00H
	DD	FLAT:??_R0?AV?$DynamicVectorClass@UDASquadInviteStruct@@@@@8
	DD	FLAT:??_R3?$DynamicVectorClass@UDASquadInviteStruct@@@@8
rdata$r	ENDS
;	COMDAT ??_R4DASquadManagerClass@@6BDAGameFeatureClass@@@
rdata$r	SEGMENT
??_R4DASquadManagerClass@@6BDAGameFeatureClass@@@ DD 00H ; DASquadManagerClass::`RTTI Complete Object Locator'
	DD	04H
	DD	00H
	DD	FLAT:??_R0?AVDASquadManagerClass@@@8
	DD	FLAT:??_R3DASquadManagerClass@@8
rdata$r	ENDS
;	COMDAT ??_R13?0A@EA@DAGameFeatureClass@@8
rdata$r	SEGMENT
??_R13?0A@EA@DAGameFeatureClass@@8 DD FLAT:??_R0?AVDAGameFeatureClass@@@8 ; DAGameFeatureClass::`RTTI Base Class Descriptor at (4,-1,0,64)'
	DD	00H
	DD	04H
	DD	0ffffffffH
	DD	00H
	DD	040H
	DD	FLAT:??_R3DAGameFeatureClass@@8
rdata$r	ENDS
;	COMDAT ??_R1A@?0A@EA@DASquadManagerClass@@8
rdata$r	SEGMENT
??_R1A@?0A@EA@DASquadManagerClass@@8 DD FLAT:??_R0?AVDASquadManagerClass@@@8 ; DASquadManagerClass::`RTTI Base Class Descriptor at (0,-1,0,64)'
	DD	02H
	DD	00H
	DD	0ffffffffH
	DD	00H
	DD	040H
	DD	FLAT:??_R3DASquadManagerClass@@8
rdata$r	ENDS
;	COMDAT ??_R2DASquadManagerClass@@8
rdata$r	SEGMENT
??_R2DASquadManagerClass@@8 DD FLAT:??_R1A@?0A@EA@DASquadManagerClass@@8 ; DASquadManagerClass::`RTTI Base Class Array'
	DD	FLAT:??_R1A@?0A@EA@DAEventClass@@8
	DD	FLAT:??_R13?0A@EA@DAGameFeatureClass@@8
rdata$r	ENDS
;	COMDAT ??_R3DASquadManagerClass@@8
rdata$r	SEGMENT
??_R3DASquadManagerClass@@8 DD 00H			; DASquadManagerClass::`RTTI Class Hierarchy Descriptor'
	DD	01H
	DD	03H
	DD	FLAT:??_R2DASquadManagerClass@@8
rdata$r	ENDS
;	COMDAT ??_R0?AVDASquadManagerClass@@@8
_DATA	SEGMENT
??_R0?AVDASquadManagerClass@@@8 DD FLAT:??_7type_info@@6B@ ; DASquadManagerClass `RTTI Type Descriptor'
	DD	00H
	DB	'.?AVDASquadManagerClass@@', 00H
_DATA	ENDS
;	COMDAT ??_R4DASquadManagerClass@@6BDAEventClass@@@
rdata$r	SEGMENT
??_R4DASquadManagerClass@@6BDAEventClass@@@ DD 00H	; DASquadManagerClass::`RTTI Complete Object Locator'
	DD	00H
	DD	00H
	DD	FLAT:??_R0?AVDASquadManagerClass@@@8
	DD	FLAT:??_R3DASquadManagerClass@@8
rdata$r	ENDS
;	COMDAT ??_R4?$VectorClass@PAVDASquadMemberClass@@@@6B@
rdata$r	SEGMENT
??_R4?$VectorClass@PAVDASquadMemberClass@@@@6B@ DD 00H	; VectorClass<DASquadMemberClass *>::`RTTI Complete Object Locator'
	DD	00H
	DD	00H
	DD	FLAT:??_R0?AV?$VectorClass@PAVDASquadMemberClass@@@@@8
	DD	FLAT:??_R3?$VectorClass@PAVDASquadMemberClass@@@@8
rdata$r	ENDS
;	COMDAT ??_R2?$VectorClass@PAVDASquadMemberClass@@@@8
rdata$r	SEGMENT
??_R2?$VectorClass@PAVDASquadMemberClass@@@@8 DD FLAT:??_R1A@?0A@EA@?$VectorClass@PAVDASquadMemberClass@@@@8 ; VectorClass<DASquadMemberClass *>::`RTTI Base Class Array'
rdata$r	ENDS
;	COMDAT ??_R3?$VectorClass@PAVDASquadMemberClass@@@@8
rdata$r	SEGMENT
??_R3?$VectorClass@PAVDASquadMemberClass@@@@8 DD 00H	; VectorClass<DASquadMemberClass *>::`RTTI Class Hierarchy Descriptor'
	DD	00H
	DD	01H
	DD	FLAT:??_R2?$VectorClass@PAVDASquadMemberClass@@@@8
rdata$r	ENDS
;	COMDAT ??_R0?AV?$VectorClass@PAVDASquadMemberClass@@@@@8
_DATA	SEGMENT
??_R0?AV?$VectorClass@PAVDASquadMemberClass@@@@@8 DD FLAT:??_7type_info@@6B@ ; VectorClass<DASquadMemberClass *> `RTTI Type Descriptor'
	DD	00H
	DB	'.?AV?$VectorClass@PAVDASquadMemberClass@@@@', 00H
_DATA	ENDS
;	COMDAT ??_R1A@?0A@EA@?$VectorClass@PAVDASquadMemberClass@@@@8
rdata$r	SEGMENT
??_R1A@?0A@EA@?$VectorClass@PAVDASquadMemberClass@@@@8 DD FLAT:??_R0?AV?$VectorClass@PAVDASquadMemberClass@@@@@8 ; VectorClass<DASquadMemberClass *>::`RTTI Base Class Descriptor at (0,-1,0,64)'
	DD	00H
	DD	00H
	DD	0ffffffffH
	DD	00H
	DD	040H
	DD	FLAT:??_R3?$VectorClass@PAVDASquadMemberClass@@@@8
rdata$r	ENDS
;	COMDAT ??_R1A@?0A@EA@?$DynamicVectorClass@PAVDASquadMemberClass@@@@8
rdata$r	SEGMENT
??_R1A@?0A@EA@?$DynamicVectorClass@PAVDASquadMemberClass@@@@8 DD FLAT:??_R0?AV?$DynamicVectorClass@PAVDASquadMemberClass@@@@@8 ; DynamicVectorClass<DASquadMemberClass *>::`RTTI Base Class Descriptor at (0,-1,0,64)'
	DD	01H
	DD	00H
	DD	0ffffffffH
	DD	00H
	DD	040H
	DD	FLAT:??_R3?$DynamicVectorClass@PAVDASquadMemberClass@@@@8
rdata$r	ENDS
;	COMDAT ??_R2?$DynamicVectorClass@PAVDASquadMemberClass@@@@8
rdata$r	SEGMENT
??_R2?$DynamicVectorClass@PAVDASquadMemberClass@@@@8 DD FLAT:??_R1A@?0A@EA@?$DynamicVectorClass@PAVDASquadMemberClass@@@@8 ; DynamicVectorClass<DASquadMemberClass *>::`RTTI Base Class Array'
	DD	FLAT:??_R1A@?0A@EA@?$VectorClass@PAVDASquadMemberClass@@@@8
rdata$r	ENDS
;	COMDAT ??_R3?$DynamicVectorClass@PAVDASquadMemberClass@@@@8
rdata$r	SEGMENT
??_R3?$DynamicVectorClass@PAVDASquadMemberClass@@@@8 DD 00H ; DynamicVectorClass<DASquadMemberClass *>::`RTTI Class Hierarchy Descriptor'
	DD	00H
	DD	02H
	DD	FLAT:??_R2?$DynamicVectorClass@PAVDASquadMemberClass@@@@8
rdata$r	ENDS
;	COMDAT ??_R0?AV?$DynamicVectorClass@PAVDASquadMemberClass@@@@@8
_DATA	SEGMENT
??_R0?AV?$DynamicVectorClass@PAVDASquadMemberClass@@@@@8 DD FLAT:??_7type_info@@6B@ ; DynamicVectorClass<DASquadMemberClass *> `RTTI Type Descriptor'
	DD	00H
	DB	'.?AV?$DynamicVectorClass@PAVDASquadMemberClass@@@@', 00H
_DATA	ENDS
;	COMDAT ??_R4?$DynamicVectorClass@PAVDASquadMemberClass@@@@6B@
rdata$r	SEGMENT
??_R4?$DynamicVectorClass@PAVDASquadMemberClass@@@@6B@ DD 00H ; DynamicVectorClass<DASquadMemberClass *>::`RTTI Complete Object Locator'
	DD	00H
	DD	00H
	DD	FLAT:??_R0?AV?$DynamicVectorClass@PAVDASquadMemberClass@@@@@8
	DD	FLAT:??_R3?$DynamicVectorClass@PAVDASquadMemberClass@@@@8
rdata$r	ENDS
;	COMDAT ??_R1A@?0A@EA@DASquadMemberClass@@8
rdata$r	SEGMENT
??_R1A@?0A@EA@DASquadMemberClass@@8 DD FLAT:??_R0?AVDASquadMemberClass@@@8 ; DASquadMemberClass::`RTTI Base Class Descriptor at (0,-1,0,64)'
	DD	01H
	DD	00H
	DD	0ffffffffH
	DD	00H
	DD	040H
	DD	FLAT:??_R3DASquadMemberClass@@8
rdata$r	ENDS
;	COMDAT ??_R2DASquadMemberClass@@8
rdata$r	SEGMENT
??_R2DASquadMemberClass@@8 DD FLAT:??_R1A@?0A@EA@DASquadMemberClass@@8 ; DASquadMemberClass::`RTTI Base Class Array'
	DD	FLAT:??_R1A@?0A@EA@DAPlayerObserverClass@@8
rdata$r	ENDS
;	COMDAT ??_R3DASquadMemberClass@@8
rdata$r	SEGMENT
??_R3DASquadMemberClass@@8 DD 00H			; DASquadMemberClass::`RTTI Class Hierarchy Descriptor'
	DD	00H
	DD	02H
	DD	FLAT:??_R2DASquadMemberClass@@8
rdata$r	ENDS
;	COMDAT ??_R0?AVDASquadMemberClass@@@8
_DATA	SEGMENT
??_R0?AVDASquadMemberClass@@@8 DD FLAT:??_7type_info@@6B@ ; DASquadMemberClass `RTTI Type Descriptor'
	DD	00H
	DB	'.?AVDASquadMemberClass@@', 00H
_DATA	ENDS
;	COMDAT ??_R4DASquadMemberClass@@6B@
rdata$r	SEGMENT
??_R4DASquadMemberClass@@6B@ DD 00H			; DASquadMemberClass::`RTTI Complete Object Locator'
	DD	00H
	DD	00H
	DD	FLAT:??_R0?AVDASquadMemberClass@@@8
	DD	FLAT:??_R3DASquadMemberClass@@8
rdata$r	ENDS
;	COMDAT ??_R4?$VectorClass@PAUDAPlayerObserverKeyHookStruct@@@@6B@
rdata$r	SEGMENT
??_R4?$VectorClass@PAUDAPlayerObserverKeyHookStruct@@@@6B@ DD 00H ; VectorClass<DAPlayerObserverKeyHookStruct *>::`RTTI Complete Object Locator'
	DD	00H
	DD	00H
	DD	FLAT:??_R0?AV?$VectorClass@PAUDAPlayerObserverKeyHookStruct@@@@@8
	DD	FLAT:??_R3?$VectorClass@PAUDAPlayerObserverKeyHookStruct@@@@8
rdata$r	ENDS
;	COMDAT ??_R4?$VectorClass@PAUDAPlayerObserverChatCommandStruct@@@@6B@
rdata$r	SEGMENT
??_R4?$VectorClass@PAUDAPlayerObserverChatCommandStruct@@@@6B@ DD 00H ; VectorClass<DAPlayerObserverChatCommandStruct *>::`RTTI Complete Object Locator'
	DD	00H
	DD	00H
	DD	FLAT:??_R0?AV?$VectorClass@PAUDAPlayerObserverChatCommandStruct@@@@@8
	DD	FLAT:??_R3?$VectorClass@PAUDAPlayerObserverChatCommandStruct@@@@8
rdata$r	ENDS
;	COMDAT ??_R4?$VectorClass@PAUDAPlayerObserverTimerStruct@@@@6B@
rdata$r	SEGMENT
??_R4?$VectorClass@PAUDAPlayerObserverTimerStruct@@@@6B@ DD 00H ; VectorClass<DAPlayerObserverTimerStruct *>::`RTTI Complete Object Locator'
	DD	00H
	DD	00H
	DD	FLAT:??_R0?AV?$VectorClass@PAUDAPlayerObserverTimerStruct@@@@@8
	DD	FLAT:??_R3?$VectorClass@PAUDAPlayerObserverTimerStruct@@@@8
rdata$r	ENDS
;	COMDAT ??_R2?$VectorClass@PAUDAPlayerObserverKeyHookStruct@@@@8
rdata$r	SEGMENT
??_R2?$VectorClass@PAUDAPlayerObserverKeyHookStruct@@@@8 DD FLAT:??_R1A@?0A@EA@?$VectorClass@PAUDAPlayerObserverKeyHookStruct@@@@8 ; VectorClass<DAPlayerObserverKeyHookStruct *>::`RTTI Base Class Array'
rdata$r	ENDS
;	COMDAT ??_R3?$VectorClass@PAUDAPlayerObserverKeyHookStruct@@@@8
rdata$r	SEGMENT
??_R3?$VectorClass@PAUDAPlayerObserverKeyHookStruct@@@@8 DD 00H ; VectorClass<DAPlayerObserverKeyHookStruct *>::`RTTI Class Hierarchy Descriptor'
	DD	00H
	DD	01H
	DD	FLAT:??_R2?$VectorClass@PAUDAPlayerObserverKeyHookStruct@@@@8
rdata$r	ENDS
;	COMDAT ??_R0?AV?$VectorClass@PAUDAPlayerObserverKeyHookStruct@@@@@8
_DATA	SEGMENT
??_R0?AV?$VectorClass@PAUDAPlayerObserverKeyHookStruct@@@@@8 DD FLAT:??_7type_info@@6B@ ; VectorClass<DAPlayerObserverKeyHookStruct *> `RTTI Type Descriptor'
	DD	00H
	DB	'.?AV?$VectorClass@PAUDAPlayerObserverKeyHookStruct@@@@', 00H
_DATA	ENDS
;	COMDAT ??_R1A@?0A@EA@?$VectorClass@PAUDAPlayerObserverKeyHookStruct@@@@8
rdata$r	SEGMENT
??_R1A@?0A@EA@?$VectorClass@PAUDAPlayerObserverKeyHookStruct@@@@8 DD FLAT:??_R0?AV?$VectorClass@PAUDAPlayerObserverKeyHookStruct@@@@@8 ; VectorClass<DAPlayerObserverKeyHookStruct *>::`RTTI Base Class Descriptor at (0,-1,0,64)'
	DD	00H
	DD	00H
	DD	0ffffffffH
	DD	00H
	DD	040H
	DD	FLAT:??_R3?$VectorClass@PAUDAPlayerObserverKeyHookStruct@@@@8
rdata$r	ENDS
;	COMDAT ??_R1A@?0A@EA@?$DynamicVectorClass@PAUDAPlayerObserverKeyHookStruct@@@@8
rdata$r	SEGMENT
??_R1A@?0A@EA@?$DynamicVectorClass@PAUDAPlayerObserverKeyHookStruct@@@@8 DD FLAT:??_R0?AV?$DynamicVectorClass@PAUDAPlayerObserverKeyHookStruct@@@@@8 ; DynamicVectorClass<DAPlayerObserverKeyHookStruct *>::`RTTI Base Class Descriptor at (0,-1,0,64)'
	DD	01H
	DD	00H
	DD	0ffffffffH
	DD	00H
	DD	040H
	DD	FLAT:??_R3?$DynamicVectorClass@PAUDAPlayerObserverKeyHookStruct@@@@8
rdata$r	ENDS
;	COMDAT ??_R2?$DynamicVectorClass@PAUDAPlayerObserverKeyHookStruct@@@@8
rdata$r	SEGMENT
??_R2?$DynamicVectorClass@PAUDAPlayerObserverKeyHookStruct@@@@8 DD FLAT:??_R1A@?0A@EA@?$DynamicVectorClass@PAUDAPlayerObserverKeyHookStruct@@@@8 ; DynamicVectorClass<DAPlayerObserverKeyHookStruct *>::`RTTI Base Class Array'
	DD	FLAT:??_R1A@?0A@EA@?$VectorClass@PAUDAPlayerObserverKeyHookStruct@@@@8
rdata$r	ENDS
;	COMDAT ??_R3?$DynamicVectorClass@PAUDAPlayerObserverKeyHookStruct@@@@8
rdata$r	SEGMENT
??_R3?$DynamicVectorClass@PAUDAPlayerObserverKeyHookStruct@@@@8 DD 00H ; DynamicVectorClass<DAPlayerObserverKeyHookStruct *>::`RTTI Class Hierarchy Descriptor'
	DD	00H
	DD	02H
	DD	FLAT:??_R2?$DynamicVectorClass@PAUDAPlayerObserverKeyHookStruct@@@@8
rdata$r	ENDS
;	COMDAT ??_R0?AV?$DynamicVectorClass@PAUDAPlayerObserverKeyHookStruct@@@@@8
_DATA	SEGMENT
??_R0?AV?$DynamicVectorClass@PAUDAPlayerObserverKeyHookStruct@@@@@8 DD FLAT:??_7type_info@@6B@ ; DynamicVectorClass<DAPlayerObserverKeyHookStruct *> `RTTI Type Descriptor'
	DD	00H
	DB	'.?AV?$DynamicVectorClass@PAUDAPlayerObserverKeyHookStruc'
	DB	't@@@@', 00H
_DATA	ENDS
;	COMDAT ??_R4?$DynamicVectorClass@PAUDAPlayerObserverKeyHookStruct@@@@6B@
rdata$r	SEGMENT
??_R4?$DynamicVectorClass@PAUDAPlayerObserverKeyHookStruct@@@@6B@ DD 00H ; DynamicVectorClass<DAPlayerObserverKeyHookStruct *>::`RTTI Complete Object Locator'
	DD	00H
	DD	00H
	DD	FLAT:??_R0?AV?$DynamicVectorClass@PAUDAPlayerObserverKeyHookStruct@@@@@8
	DD	FLAT:??_R3?$DynamicVectorClass@PAUDAPlayerObserverKeyHookStruct@@@@8
rdata$r	ENDS
;	COMDAT ??_R2?$VectorClass@PAUDAPlayerObserverChatCommandStruct@@@@8
rdata$r	SEGMENT
??_R2?$VectorClass@PAUDAPlayerObserverChatCommandStruct@@@@8 DD FLAT:??_R1A@?0A@EA@?$VectorClass@PAUDAPlayerObserverChatCommandStruct@@@@8 ; VectorClass<DAPlayerObserverChatCommandStruct *>::`RTTI Base Class Array'
rdata$r	ENDS
;	COMDAT ??_R3?$VectorClass@PAUDAPlayerObserverChatCommandStruct@@@@8
rdata$r	SEGMENT
??_R3?$VectorClass@PAUDAPlayerObserverChatCommandStruct@@@@8 DD 00H ; VectorClass<DAPlayerObserverChatCommandStruct *>::`RTTI Class Hierarchy Descriptor'
	DD	00H
	DD	01H
	DD	FLAT:??_R2?$VectorClass@PAUDAPlayerObserverChatCommandStruct@@@@8
rdata$r	ENDS
;	COMDAT ??_R0?AV?$VectorClass@PAUDAPlayerObserverChatCommandStruct@@@@@8
_DATA	SEGMENT
??_R0?AV?$VectorClass@PAUDAPlayerObserverChatCommandStruct@@@@@8 DD FLAT:??_7type_info@@6B@ ; VectorClass<DAPlayerObserverChatCommandStruct *> `RTTI Type Descriptor'
	DD	00H
	DB	'.?AV?$VectorClass@PAUDAPlayerObserverChatCommandStruct@@'
	DB	'@@', 00H
_DATA	ENDS
;	COMDAT ??_R1A@?0A@EA@?$VectorClass@PAUDAPlayerObserverChatCommandStruct@@@@8
rdata$r	SEGMENT
??_R1A@?0A@EA@?$VectorClass@PAUDAPlayerObserverChatCommandStruct@@@@8 DD FLAT:??_R0?AV?$VectorClass@PAUDAPlayerObserverChatCommandStruct@@@@@8 ; VectorClass<DAPlayerObserverChatCommandStruct *>::`RTTI Base Class Descriptor at (0,-1,0,64)'
	DD	00H
	DD	00H
	DD	0ffffffffH
	DD	00H
	DD	040H
	DD	FLAT:??_R3?$VectorClass@PAUDAPlayerObserverChatCommandStruct@@@@8
rdata$r	ENDS
;	COMDAT ??_R1A@?0A@EA@?$DynamicVectorClass@PAUDAPlayerObserverChatCommandStruct@@@@8
rdata$r	SEGMENT
??_R1A@?0A@EA@?$DynamicVectorClass@PAUDAPlayerObserverChatCommandStruct@@@@8 DD FLAT:??_R0?AV?$DynamicVectorClass@PAUDAPlayerObserverChatCommandStruct@@@@@8 ; DynamicVectorClass<DAPlayerObserverChatCommandStruct *>::`RTTI Base Class Descriptor at (0,-1,0,64)'
	DD	01H
	DD	00H
	DD	0ffffffffH
	DD	00H
	DD	040H
	DD	FLAT:??_R3?$DynamicVectorClass@PAUDAPlayerObserverChatCommandStruct@@@@8
rdata$r	ENDS
;	COMDAT ??_R2?$DynamicVectorClass@PAUDAPlayerObserverChatCommandStruct@@@@8
rdata$r	SEGMENT
??_R2?$DynamicVectorClass@PAUDAPlayerObserverChatCommandStruct@@@@8 DD FLAT:??_R1A@?0A@EA@?$DynamicVectorClass@PAUDAPlayerObserverChatCommandStruct@@@@8 ; DynamicVectorClass<DAPlayerObserverChatCommandStruct *>::`RTTI Base Class Array'
	DD	FLAT:??_R1A@?0A@EA@?$VectorClass@PAUDAPlayerObserverChatCommandStruct@@@@8
rdata$r	ENDS
;	COMDAT ??_R3?$DynamicVectorClass@PAUDAPlayerObserverChatCommandStruct@@@@8
rdata$r	SEGMENT
??_R3?$DynamicVectorClass@PAUDAPlayerObserverChatCommandStruct@@@@8 DD 00H ; DynamicVectorClass<DAPlayerObserverChatCommandStruct *>::`RTTI Class Hierarchy Descriptor'
	DD	00H
	DD	02H
	DD	FLAT:??_R2?$DynamicVectorClass@PAUDAPlayerObserverChatCommandStruct@@@@8
rdata$r	ENDS
;	COMDAT ??_R0?AV?$DynamicVectorClass@PAUDAPlayerObserverChatCommandStruct@@@@@8
_DATA	SEGMENT
??_R0?AV?$DynamicVectorClass@PAUDAPlayerObserverChatCommandStruct@@@@@8 DD FLAT:??_7type_info@@6B@ ; DynamicVectorClass<DAPlayerObserverChatCommandStruct *> `RTTI Type Descriptor'
	DD	00H
	DB	'.?AV?$DynamicVectorClass@PAUDAPlayerObserverChatCommandS'
	DB	'truct@@@@', 00H
_DATA	ENDS
;	COMDAT ??_R4?$DynamicVectorClass@PAUDAPlayerObserverChatCommandStruct@@@@6B@
rdata$r	SEGMENT
??_R4?$DynamicVectorClass@PAUDAPlayerObserverChatCommandStruct@@@@6B@ DD 00H ; DynamicVectorClass<DAPlayerObserverChatCommandStruct *>::`RTTI Complete Object Locator'
	DD	00H
	DD	00H
	DD	FLAT:??_R0?AV?$DynamicVectorClass@PAUDAPlayerObserverChatCommandStruct@@@@@8
	DD	FLAT:??_R3?$DynamicVectorClass@PAUDAPlayerObserverChatCommandStruct@@@@8
rdata$r	ENDS
;	COMDAT ??_R2?$VectorClass@PAUDAPlayerObserverTimerStruct@@@@8
rdata$r	SEGMENT
??_R2?$VectorClass@PAUDAPlayerObserverTimerStruct@@@@8 DD FLAT:??_R1A@?0A@EA@?$VectorClass@PAUDAPlayerObserverTimerStruct@@@@8 ; VectorClass<DAPlayerObserverTimerStruct *>::`RTTI Base Class Array'
rdata$r	ENDS
;	COMDAT ??_R3?$VectorClass@PAUDAPlayerObserverTimerStruct@@@@8
rdata$r	SEGMENT
??_R3?$VectorClass@PAUDAPlayerObserverTimerStruct@@@@8 DD 00H ; VectorClass<DAPlayerObserverTimerStruct *>::`RTTI Class Hierarchy Descriptor'
	DD	00H
	DD	01H
	DD	FLAT:??_R2?$VectorClass@PAUDAPlayerObserverTimerStruct@@@@8
rdata$r	ENDS
;	COMDAT ??_R0?AV?$VectorClass@PAUDAPlayerObserverTimerStruct@@@@@8
_DATA	SEGMENT
??_R0?AV?$VectorClass@PAUDAPlayerObserverTimerStruct@@@@@8 DD FLAT:??_7type_info@@6B@ ; VectorClass<DAPlayerObserverTimerStruct *> `RTTI Type Descriptor'
	DD	00H
	DB	'.?AV?$VectorClass@PAUDAPlayerObserverTimerStruct@@@@', 00H
_DATA	ENDS
;	COMDAT ??_R1A@?0A@EA@?$VectorClass@PAUDAPlayerObserverTimerStruct@@@@8
rdata$r	SEGMENT
??_R1A@?0A@EA@?$VectorClass@PAUDAPlayerObserverTimerStruct@@@@8 DD FLAT:??_R0?AV?$VectorClass@PAUDAPlayerObserverTimerStruct@@@@@8 ; VectorClass<DAPlayerObserverTimerStruct *>::`RTTI Base Class Descriptor at (0,-1,0,64)'
	DD	00H
	DD	00H
	DD	0ffffffffH
	DD	00H
	DD	040H
	DD	FLAT:??_R3?$VectorClass@PAUDAPlayerObserverTimerStruct@@@@8
rdata$r	ENDS
;	COMDAT ??_R1A@?0A@EA@?$DynamicVectorClass@PAUDAPlayerObserverTimerStruct@@@@8
rdata$r	SEGMENT
??_R1A@?0A@EA@?$DynamicVectorClass@PAUDAPlayerObserverTimerStruct@@@@8 DD FLAT:??_R0?AV?$DynamicVectorClass@PAUDAPlayerObserverTimerStruct@@@@@8 ; DynamicVectorClass<DAPlayerObserverTimerStruct *>::`RTTI Base Class Descriptor at (0,-1,0,64)'
	DD	01H
	DD	00H
	DD	0ffffffffH
	DD	00H
	DD	040H
	DD	FLAT:??_R3?$DynamicVectorClass@PAUDAPlayerObserverTimerStruct@@@@8
rdata$r	ENDS
;	COMDAT ??_R2?$DynamicVectorClass@PAUDAPlayerObserverTimerStruct@@@@8
rdata$r	SEGMENT
??_R2?$DynamicVectorClass@PAUDAPlayerObserverTimerStruct@@@@8 DD FLAT:??_R1A@?0A@EA@?$DynamicVectorClass@PAUDAPlayerObserverTimerStruct@@@@8 ; DynamicVectorClass<DAPlayerObserverTimerStruct *>::`RTTI Base Class Array'
	DD	FLAT:??_R1A@?0A@EA@?$VectorClass@PAUDAPlayerObserverTimerStruct@@@@8
rdata$r	ENDS
;	COMDAT ??_R3?$DynamicVectorClass@PAUDAPlayerObserverTimerStruct@@@@8
rdata$r	SEGMENT
??_R3?$DynamicVectorClass@PAUDAPlayerObserverTimerStruct@@@@8 DD 00H ; DynamicVectorClass<DAPlayerObserverTimerStruct *>::`RTTI Class Hierarchy Descriptor'
	DD	00H
	DD	02H
	DD	FLAT:??_R2?$DynamicVectorClass@PAUDAPlayerObserverTimerStruct@@@@8
rdata$r	ENDS
;	COMDAT ??_R0?AV?$DynamicVectorClass@PAUDAPlayerObserverTimerStruct@@@@@8
_DATA	SEGMENT
??_R0?AV?$DynamicVectorClass@PAUDAPlayerObserverTimerStruct@@@@@8 DD FLAT:??_7type_info@@6B@ ; DynamicVectorClass<DAPlayerObserverTimerStruct *> `RTTI Type Descriptor'
	DD	00H
	DB	'.?AV?$DynamicVectorClass@PAUDAPlayerObserverTimerStruct@'
	DB	'@@@', 00H
_DATA	ENDS
;	COMDAT ??_R4?$DynamicVectorClass@PAUDAPlayerObserverTimerStruct@@@@6B@
rdata$r	SEGMENT
??_R4?$DynamicVectorClass@PAUDAPlayerObserverTimerStruct@@@@6B@ DD 00H ; DynamicVectorClass<DAPlayerObserverTimerStruct *>::`RTTI Complete Object Locator'
	DD	00H
	DD	00H
	DD	FLAT:??_R0?AV?$DynamicVectorClass@PAUDAPlayerObserverTimerStruct@@@@@8
	DD	FLAT:??_R3?$DynamicVectorClass@PAUDAPlayerObserverTimerStruct@@@@8
rdata$r	ENDS
;	COMDAT ??_R4?$VectorClass@PAUDAPlayerTagStruct@DAPlayerClass@@@@6B@
rdata$r	SEGMENT
??_R4?$VectorClass@PAUDAPlayerTagStruct@DAPlayerClass@@@@6B@ DD 00H ; VectorClass<DAPlayerClass::DAPlayerTagStruct *>::`RTTI Complete Object Locator'
	DD	00H
	DD	00H
	DD	FLAT:??_R0?AV?$VectorClass@PAUDAPlayerTagStruct@DAPlayerClass@@@@@8
	DD	FLAT:??_R3?$VectorClass@PAUDAPlayerTagStruct@DAPlayerClass@@@@8
rdata$r	ENDS
;	COMDAT ??_R2?$VectorClass@PAUDAPlayerTagStruct@DAPlayerClass@@@@8
rdata$r	SEGMENT
??_R2?$VectorClass@PAUDAPlayerTagStruct@DAPlayerClass@@@@8 DD FLAT:??_R1A@?0A@EA@?$VectorClass@PAUDAPlayerTagStruct@DAPlayerClass@@@@8 ; VectorClass<DAPlayerClass::DAPlayerTagStruct *>::`RTTI Base Class Array'
rdata$r	ENDS
;	COMDAT ??_R3?$VectorClass@PAUDAPlayerTagStruct@DAPlayerClass@@@@8
rdata$r	SEGMENT
??_R3?$VectorClass@PAUDAPlayerTagStruct@DAPlayerClass@@@@8 DD 00H ; VectorClass<DAPlayerClass::DAPlayerTagStruct *>::`RTTI Class Hierarchy Descriptor'
	DD	00H
	DD	01H
	DD	FLAT:??_R2?$VectorClass@PAUDAPlayerTagStruct@DAPlayerClass@@@@8
rdata$r	ENDS
;	COMDAT ??_R0?AV?$VectorClass@PAUDAPlayerTagStruct@DAPlayerClass@@@@@8
_DATA	SEGMENT
??_R0?AV?$VectorClass@PAUDAPlayerTagStruct@DAPlayerClass@@@@@8 DD FLAT:??_7type_info@@6B@ ; VectorClass<DAPlayerClass::DAPlayerTagStruct *> `RTTI Type Descriptor'
	DD	00H
	DB	'.?AV?$VectorClass@PAUDAPlayerTagStruct@DAPlayerClass@@@@'
	DB	00H
_DATA	ENDS
;	COMDAT ??_R1A@?0A@EA@?$VectorClass@PAUDAPlayerTagStruct@DAPlayerClass@@@@8
rdata$r	SEGMENT
??_R1A@?0A@EA@?$VectorClass@PAUDAPlayerTagStruct@DAPlayerClass@@@@8 DD FLAT:??_R0?AV?$VectorClass@PAUDAPlayerTagStruct@DAPlayerClass@@@@@8 ; VectorClass<DAPlayerClass::DAPlayerTagStruct *>::`RTTI Base Class Descriptor at (0,-1,0,64)'
	DD	00H
	DD	00H
	DD	0ffffffffH
	DD	00H
	DD	040H
	DD	FLAT:??_R3?$VectorClass@PAUDAPlayerTagStruct@DAPlayerClass@@@@8
rdata$r	ENDS
;	COMDAT ??_R1A@?0A@EA@?$DynamicVectorClass@PAUDAPlayerTagStruct@DAPlayerClass@@@@8
rdata$r	SEGMENT
??_R1A@?0A@EA@?$DynamicVectorClass@PAUDAPlayerTagStruct@DAPlayerClass@@@@8 DD FLAT:??_R0?AV?$DynamicVectorClass@PAUDAPlayerTagStruct@DAPlayerClass@@@@@8 ; DynamicVectorClass<DAPlayerClass::DAPlayerTagStruct *>::`RTTI Base Class Descriptor at (0,-1,0,64)'
	DD	01H
	DD	00H
	DD	0ffffffffH
	DD	00H
	DD	040H
	DD	FLAT:??_R3?$DynamicVectorClass@PAUDAPlayerTagStruct@DAPlayerClass@@@@8
rdata$r	ENDS
;	COMDAT ??_R2?$DynamicVectorClass@PAUDAPlayerTagStruct@DAPlayerClass@@@@8
rdata$r	SEGMENT
??_R2?$DynamicVectorClass@PAUDAPlayerTagStruct@DAPlayerClass@@@@8 DD FLAT:??_R1A@?0A@EA@?$DynamicVectorClass@PAUDAPlayerTagStruct@DAPlayerClass@@@@8 ; DynamicVectorClass<DAPlayerClass::DAPlayerTagStruct *>::`RTTI Base Class Array'
	DD	FLAT:??_R1A@?0A@EA@?$VectorClass@PAUDAPlayerTagStruct@DAPlayerClass@@@@8
rdata$r	ENDS
;	COMDAT ??_R3?$DynamicVectorClass@PAUDAPlayerTagStruct@DAPlayerClass@@@@8
rdata$r	SEGMENT
??_R3?$DynamicVectorClass@PAUDAPlayerTagStruct@DAPlayerClass@@@@8 DD 00H ; DynamicVectorClass<DAPlayerClass::DAPlayerTagStruct *>::`RTTI Class Hierarchy Descriptor'
	DD	00H
	DD	02H
	DD	FLAT:??_R2?$DynamicVectorClass@PAUDAPlayerTagStruct@DAPlayerClass@@@@8
rdata$r	ENDS
;	COMDAT ??_R0?AV?$DynamicVectorClass@PAUDAPlayerTagStruct@DAPlayerClass@@@@@8
_DATA	SEGMENT
??_R0?AV?$DynamicVectorClass@PAUDAPlayerTagStruct@DAPlayerClass@@@@@8 DD FLAT:??_7type_info@@6B@ ; DynamicVectorClass<DAPlayerClass::DAPlayerTagStruct *> `RTTI Type Descriptor'
	DD	00H
	DB	'.?AV?$DynamicVectorClass@PAUDAPlayerTagStruct@DAPlayerCl'
	DB	'ass@@@@', 00H
_DATA	ENDS
;	COMDAT ??_R4?$DynamicVectorClass@PAUDAPlayerTagStruct@DAPlayerClass@@@@6B@
rdata$r	SEGMENT
??_R4?$DynamicVectorClass@PAUDAPlayerTagStruct@DAPlayerClass@@@@6B@ DD 00H ; DynamicVectorClass<DAPlayerClass::DAPlayerTagStruct *>::`RTTI Complete Object Locator'
	DD	00H
	DD	00H
	DD	FLAT:??_R0?AV?$DynamicVectorClass@PAUDAPlayerTagStruct@DAPlayerClass@@@@@8
	DD	FLAT:??_R3?$DynamicVectorClass@PAUDAPlayerTagStruct@DAPlayerClass@@@@8
rdata$r	ENDS
;	COMDAT ??_R4?$VectorClass@PAVDAPlayerDataClass@@@@6B@
rdata$r	SEGMENT
??_R4?$VectorClass@PAVDAPlayerDataClass@@@@6B@ DD 00H	; VectorClass<DAPlayerDataClass *>::`RTTI Complete Object Locator'
	DD	00H
	DD	00H
	DD	FLAT:??_R0?AV?$VectorClass@PAVDAPlayerDataClass@@@@@8
	DD	FLAT:??_R3?$VectorClass@PAVDAPlayerDataClass@@@@8
rdata$r	ENDS
;	COMDAT ??_R2?$VectorClass@PAVDAPlayerDataClass@@@@8
rdata$r	SEGMENT
??_R2?$VectorClass@PAVDAPlayerDataClass@@@@8 DD FLAT:??_R1A@?0A@EA@?$VectorClass@PAVDAPlayerDataClass@@@@8 ; VectorClass<DAPlayerDataClass *>::`RTTI Base Class Array'
rdata$r	ENDS
;	COMDAT ??_R3?$VectorClass@PAVDAPlayerDataClass@@@@8
rdata$r	SEGMENT
??_R3?$VectorClass@PAVDAPlayerDataClass@@@@8 DD 00H	; VectorClass<DAPlayerDataClass *>::`RTTI Class Hierarchy Descriptor'
	DD	00H
	DD	01H
	DD	FLAT:??_R2?$VectorClass@PAVDAPlayerDataClass@@@@8
rdata$r	ENDS
;	COMDAT ??_R0?AV?$VectorClass@PAVDAPlayerDataClass@@@@@8
_DATA	SEGMENT
??_R0?AV?$VectorClass@PAVDAPlayerDataClass@@@@@8 DD FLAT:??_7type_info@@6B@ ; VectorClass<DAPlayerDataClass *> `RTTI Type Descriptor'
	DD	00H
	DB	'.?AV?$VectorClass@PAVDAPlayerDataClass@@@@', 00H
_DATA	ENDS
;	COMDAT ??_R1A@?0A@EA@?$VectorClass@PAVDAPlayerDataClass@@@@8
rdata$r	SEGMENT
??_R1A@?0A@EA@?$VectorClass@PAVDAPlayerDataClass@@@@8 DD FLAT:??_R0?AV?$VectorClass@PAVDAPlayerDataClass@@@@@8 ; VectorClass<DAPlayerDataClass *>::`RTTI Base Class Descriptor at (0,-1,0,64)'
	DD	00H
	DD	00H
	DD	0ffffffffH
	DD	00H
	DD	040H
	DD	FLAT:??_R3?$VectorClass@PAVDAPlayerDataClass@@@@8
rdata$r	ENDS
;	COMDAT ??_R1A@?0A@EA@?$DynamicVectorClass@PAVDAPlayerDataClass@@@@8
rdata$r	SEGMENT
??_R1A@?0A@EA@?$DynamicVectorClass@PAVDAPlayerDataClass@@@@8 DD FLAT:??_R0?AV?$DynamicVectorClass@PAVDAPlayerDataClass@@@@@8 ; DynamicVectorClass<DAPlayerDataClass *>::`RTTI Base Class Descriptor at (0,-1,0,64)'
	DD	01H
	DD	00H
	DD	0ffffffffH
	DD	00H
	DD	040H
	DD	FLAT:??_R3?$DynamicVectorClass@PAVDAPlayerDataClass@@@@8
rdata$r	ENDS
;	COMDAT ??_R2?$DynamicVectorClass@PAVDAPlayerDataClass@@@@8
rdata$r	SEGMENT
??_R2?$DynamicVectorClass@PAVDAPlayerDataClass@@@@8 DD FLAT:??_R1A@?0A@EA@?$DynamicVectorClass@PAVDAPlayerDataClass@@@@8 ; DynamicVectorClass<DAPlayerDataClass *>::`RTTI Base Class Array'
	DD	FLAT:??_R1A@?0A@EA@?$VectorClass@PAVDAPlayerDataClass@@@@8
rdata$r	ENDS
;	COMDAT ??_R3?$DynamicVectorClass@PAVDAPlayerDataClass@@@@8
rdata$r	SEGMENT
??_R3?$DynamicVectorClass@PAVDAPlayerDataClass@@@@8 DD 00H ; DynamicVectorClass<DAPlayerDataClass *>::`RTTI Class Hierarchy Descriptor'
	DD	00H
	DD	02H
	DD	FLAT:??_R2?$DynamicVectorClass@PAVDAPlayerDataClass@@@@8
rdata$r	ENDS
;	COMDAT ??_R0?AV?$DynamicVectorClass@PAVDAPlayerDataClass@@@@@8
_DATA	SEGMENT
??_R0?AV?$DynamicVectorClass@PAVDAPlayerDataClass@@@@@8 DD FLAT:??_7type_info@@6B@ ; DynamicVectorClass<DAPlayerDataClass *> `RTTI Type Descriptor'
	DD	00H
	DB	'.?AV?$DynamicVectorClass@PAVDAPlayerDataClass@@@@', 00H
_DATA	ENDS
;	COMDAT ??_R4?$DynamicVectorClass@PAVDAPlayerDataClass@@@@6B@
rdata$r	SEGMENT
??_R4?$DynamicVectorClass@PAVDAPlayerDataClass@@@@6B@ DD 00H ; DynamicVectorClass<DAPlayerDataClass *>::`RTTI Complete Object Locator'
	DD	00H
	DD	00H
	DD	FLAT:??_R0?AV?$DynamicVectorClass@PAVDAPlayerDataClass@@@@@8
	DD	FLAT:??_R3?$DynamicVectorClass@PAVDAPlayerDataClass@@@@8
rdata$r	ENDS
;	COMDAT ??_R4?$VectorClass@PAVDAPlayerObserverClass@@@@6B@
rdata$r	SEGMENT
??_R4?$VectorClass@PAVDAPlayerObserverClass@@@@6B@ DD 00H ; VectorClass<DAPlayerObserverClass *>::`RTTI Complete Object Locator'
	DD	00H
	DD	00H
	DD	FLAT:??_R0?AV?$VectorClass@PAVDAPlayerObserverClass@@@@@8
	DD	FLAT:??_R3?$VectorClass@PAVDAPlayerObserverClass@@@@8
rdata$r	ENDS
;	COMDAT ??_R2?$VectorClass@PAVDAPlayerObserverClass@@@@8
rdata$r	SEGMENT
??_R2?$VectorClass@PAVDAPlayerObserverClass@@@@8 DD FLAT:??_R1A@?0A@EA@?$VectorClass@PAVDAPlayerObserverClass@@@@8 ; VectorClass<DAPlayerObserverClass *>::`RTTI Base Class Array'
rdata$r	ENDS
;	COMDAT ??_R3?$VectorClass@PAVDAPlayerObserverClass@@@@8
rdata$r	SEGMENT
??_R3?$VectorClass@PAVDAPlayerObserverClass@@@@8 DD 00H	; VectorClass<DAPlayerObserverClass *>::`RTTI Class Hierarchy Descriptor'
	DD	00H
	DD	01H
	DD	FLAT:??_R2?$VectorClass@PAVDAPlayerObserverClass@@@@8
rdata$r	ENDS
;	COMDAT ??_R0?AV?$VectorClass@PAVDAPlayerObserverClass@@@@@8
_DATA	SEGMENT
??_R0?AV?$VectorClass@PAVDAPlayerObserverClass@@@@@8 DD FLAT:??_7type_info@@6B@ ; VectorClass<DAPlayerObserverClass *> `RTTI Type Descriptor'
	DD	00H
	DB	'.?AV?$VectorClass@PAVDAPlayerObserverClass@@@@', 00H
_DATA	ENDS
;	COMDAT ??_R1A@?0A@EA@?$VectorClass@PAVDAPlayerObserverClass@@@@8
rdata$r	SEGMENT
??_R1A@?0A@EA@?$VectorClass@PAVDAPlayerObserverClass@@@@8 DD FLAT:??_R0?AV?$VectorClass@PAVDAPlayerObserverClass@@@@@8 ; VectorClass<DAPlayerObserverClass *>::`RTTI Base Class Descriptor at (0,-1,0,64)'
	DD	00H
	DD	00H
	DD	0ffffffffH
	DD	00H
	DD	040H
	DD	FLAT:??_R3?$VectorClass@PAVDAPlayerObserverClass@@@@8
rdata$r	ENDS
;	COMDAT ??_R1A@?0A@EA@?$DynamicVectorClass@PAVDAPlayerObserverClass@@@@8
rdata$r	SEGMENT
??_R1A@?0A@EA@?$DynamicVectorClass@PAVDAPlayerObserverClass@@@@8 DD FLAT:??_R0?AV?$DynamicVectorClass@PAVDAPlayerObserverClass@@@@@8 ; DynamicVectorClass<DAPlayerObserverClass *>::`RTTI Base Class Descriptor at (0,-1,0,64)'
	DD	01H
	DD	00H
	DD	0ffffffffH
	DD	00H
	DD	040H
	DD	FLAT:??_R3?$DynamicVectorClass@PAVDAPlayerObserverClass@@@@8
rdata$r	ENDS
;	COMDAT ??_R2?$DynamicVectorClass@PAVDAPlayerObserverClass@@@@8
rdata$r	SEGMENT
??_R2?$DynamicVectorClass@PAVDAPlayerObserverClass@@@@8 DD FLAT:??_R1A@?0A@EA@?$DynamicVectorClass@PAVDAPlayerObserverClass@@@@8 ; DynamicVectorClass<DAPlayerObserverClass *>::`RTTI Base Class Array'
	DD	FLAT:??_R1A@?0A@EA@?$VectorClass@PAVDAPlayerObserverClass@@@@8
rdata$r	ENDS
;	COMDAT ??_R3?$DynamicVectorClass@PAVDAPlayerObserverClass@@@@8
rdata$r	SEGMENT
??_R3?$DynamicVectorClass@PAVDAPlayerObserverClass@@@@8 DD 00H ; DynamicVectorClass<DAPlayerObserverClass *>::`RTTI Class Hierarchy Descriptor'
	DD	00H
	DD	02H
	DD	FLAT:??_R2?$DynamicVectorClass@PAVDAPlayerObserverClass@@@@8
rdata$r	ENDS
;	COMDAT ??_R0?AV?$DynamicVectorClass@PAVDAPlayerObserverClass@@@@@8
_DATA	SEGMENT
??_R0?AV?$DynamicVectorClass@PAVDAPlayerObserverClass@@@@@8 DD FLAT:??_7type_info@@6B@ ; DynamicVectorClass<DAPlayerObserverClass *> `RTTI Type Descriptor'
	DD	00H
	DB	'.?AV?$DynamicVectorClass@PAVDAPlayerObserverClass@@@@', 00H
_DATA	ENDS
;	COMDAT ??_R4?$DynamicVectorClass@PAVDAPlayerObserverClass@@@@6B@
rdata$r	SEGMENT
??_R4?$DynamicVectorClass@PAVDAPlayerObserverClass@@@@6B@ DD 00H ; DynamicVectorClass<DAPlayerObserverClass *>::`RTTI Complete Object Locator'
	DD	00H
	DD	00H
	DD	FLAT:??_R0?AV?$DynamicVectorClass@PAVDAPlayerObserverClass@@@@@8
	DD	FLAT:??_R3?$DynamicVectorClass@PAVDAPlayerObserverClass@@@@8
rdata$r	ENDS
;	COMDAT ??_R1A@?0A@EA@DAPlayerDataClass@@8
rdata$r	SEGMENT
??_R1A@?0A@EA@DAPlayerDataClass@@8 DD FLAT:??_R0?AVDAPlayerDataClass@@@8 ; DAPlayerDataClass::`RTTI Base Class Descriptor at (0,-1,0,64)'
	DD	00H
	DD	00H
	DD	0ffffffffH
	DD	00H
	DD	040H
	DD	FLAT:??_R3DAPlayerDataClass@@8
rdata$r	ENDS
;	COMDAT ??_R2DAPlayerDataClass@@8
rdata$r	SEGMENT
??_R2DAPlayerDataClass@@8 DD FLAT:??_R1A@?0A@EA@DAPlayerDataClass@@8 ; DAPlayerDataClass::`RTTI Base Class Array'
rdata$r	ENDS
;	COMDAT ??_R3DAPlayerDataClass@@8
rdata$r	SEGMENT
??_R3DAPlayerDataClass@@8 DD 00H			; DAPlayerDataClass::`RTTI Class Hierarchy Descriptor'
	DD	00H
	DD	01H
	DD	FLAT:??_R2DAPlayerDataClass@@8
rdata$r	ENDS
;	COMDAT ??_R0?AVDAPlayerDataClass@@@8
_DATA	SEGMENT
??_R0?AVDAPlayerDataClass@@@8 DD FLAT:??_7type_info@@6B@ ; DAPlayerDataClass `RTTI Type Descriptor'
	DD	00H
	DB	'.?AVDAPlayerDataClass@@', 00H
_DATA	ENDS
;	COMDAT ??_R4DAPlayerDataClass@@6B@
rdata$r	SEGMENT
??_R4DAPlayerDataClass@@6B@ DD 00H			; DAPlayerDataClass::`RTTI Complete Object Locator'
	DD	00H
	DD	00H
	DD	FLAT:??_R0?AVDAPlayerDataClass@@@8
	DD	FLAT:??_R3DAPlayerDataClass@@8
rdata$r	ENDS
;	COMDAT ??_R1A@?0A@EA@DAPlayerObserverClass@@8
rdata$r	SEGMENT
??_R1A@?0A@EA@DAPlayerObserverClass@@8 DD FLAT:??_R0?AVDAPlayerObserverClass@@@8 ; DAPlayerObserverClass::`RTTI Base Class Descriptor at (0,-1,0,64)'
	DD	00H
	DD	00H
	DD	0ffffffffH
	DD	00H
	DD	040H
	DD	FLAT:??_R3DAPlayerObserverClass@@8
rdata$r	ENDS
;	COMDAT ??_R2DAPlayerObserverClass@@8
rdata$r	SEGMENT
??_R2DAPlayerObserverClass@@8 DD FLAT:??_R1A@?0A@EA@DAPlayerObserverClass@@8 ; DAPlayerObserverClass::`RTTI Base Class Array'
rdata$r	ENDS
;	COMDAT ??_R3DAPlayerObserverClass@@8
rdata$r	SEGMENT
??_R3DAPlayerObserverClass@@8 DD 00H			; DAPlayerObserverClass::`RTTI Class Hierarchy Descriptor'
	DD	00H
	DD	01H
	DD	FLAT:??_R2DAPlayerObserverClass@@8
rdata$r	ENDS
;	COMDAT ??_R0?AVDAPlayerObserverClass@@@8
_DATA	SEGMENT
??_R0?AVDAPlayerObserverClass@@@8 DD FLAT:??_7type_info@@6B@ ; DAPlayerObserverClass `RTTI Type Descriptor'
	DD	00H
	DB	'.?AVDAPlayerObserverClass@@', 00H
_DATA	ENDS
;	COMDAT ??_R4DAPlayerObserverClass@@6B@
rdata$r	SEGMENT
??_R4DAPlayerObserverClass@@6B@ DD 00H			; DAPlayerObserverClass::`RTTI Complete Object Locator'
	DD	00H
	DD	00H
	DD	FLAT:??_R0?AVDAPlayerObserverClass@@@8
	DD	FLAT:??_R3DAPlayerObserverClass@@8
rdata$r	ENDS
;	COMDAT ??_R1A@?0A@EA@DAPlayerDataFactoryClass@@8
rdata$r	SEGMENT
??_R1A@?0A@EA@DAPlayerDataFactoryClass@@8 DD FLAT:??_R0?AVDAPlayerDataFactoryClass@@@8 ; DAPlayerDataFactoryClass::`RTTI Base Class Descriptor at (0,-1,0,64)'
	DD	00H
	DD	00H
	DD	0ffffffffH
	DD	00H
	DD	040H
	DD	FLAT:??_R3DAPlayerDataFactoryClass@@8
rdata$r	ENDS
;	COMDAT ??_R2DAPlayerDataFactoryClass@@8
rdata$r	SEGMENT
??_R2DAPlayerDataFactoryClass@@8 DD FLAT:??_R1A@?0A@EA@DAPlayerDataFactoryClass@@8 ; DAPlayerDataFactoryClass::`RTTI Base Class Array'
rdata$r	ENDS
;	COMDAT ??_R3DAPlayerDataFactoryClass@@8
rdata$r	SEGMENT
??_R3DAPlayerDataFactoryClass@@8 DD 00H			; DAPlayerDataFactoryClass::`RTTI Class Hierarchy Descriptor'
	DD	00H
	DD	01H
	DD	FLAT:??_R2DAPlayerDataFactoryClass@@8
rdata$r	ENDS
;	COMDAT ??_R0?AVDAPlayerDataFactoryClass@@@8
_DATA	SEGMENT
??_R0?AVDAPlayerDataFactoryClass@@@8 DD FLAT:??_7type_info@@6B@ ; DAPlayerDataFactoryClass `RTTI Type Descriptor'
	DD	00H
	DB	'.?AVDAPlayerDataFactoryClass@@', 00H
_DATA	ENDS
;	COMDAT ??_R4DAPlayerDataFactoryClass@@6B@
rdata$r	SEGMENT
??_R4DAPlayerDataFactoryClass@@6B@ DD 00H		; DAPlayerDataFactoryClass::`RTTI Complete Object Locator'
	DD	00H
	DD	00H
	DD	FLAT:??_R0?AVDAPlayerDataFactoryClass@@@8
	DD	FLAT:??_R3DAPlayerDataFactoryClass@@8
rdata$r	ENDS
;	COMDAT ??_R1A@?0A@EA@DAGameFeatureFactoryClass@@8
rdata$r	SEGMENT
??_R1A@?0A@EA@DAGameFeatureFactoryClass@@8 DD FLAT:??_R0?AVDAGameFeatureFactoryClass@@@8 ; DAGameFeatureFactoryClass::`RTTI Base Class Descriptor at (0,-1,0,64)'
	DD	00H
	DD	00H
	DD	0ffffffffH
	DD	00H
	DD	040H
	DD	FLAT:??_R3DAGameFeatureFactoryClass@@8
rdata$r	ENDS
;	COMDAT ??_R2DAGameFeatureFactoryClass@@8
rdata$r	SEGMENT
??_R2DAGameFeatureFactoryClass@@8 DD FLAT:??_R1A@?0A@EA@DAGameFeatureFactoryClass@@8 ; DAGameFeatureFactoryClass::`RTTI Base Class Array'
rdata$r	ENDS
;	COMDAT ??_R3DAGameFeatureFactoryClass@@8
rdata$r	SEGMENT
??_R3DAGameFeatureFactoryClass@@8 DD 00H		; DAGameFeatureFactoryClass::`RTTI Class Hierarchy Descriptor'
	DD	00H
	DD	01H
	DD	FLAT:??_R2DAGameFeatureFactoryClass@@8
rdata$r	ENDS
;	COMDAT ??_R0?AVDAGameFeatureFactoryClass@@@8
_DATA	SEGMENT
??_R0?AVDAGameFeatureFactoryClass@@@8 DD FLAT:??_7type_info@@6B@ ; DAGameFeatureFactoryClass `RTTI Type Descriptor'
	DD	00H
	DB	'.?AVDAGameFeatureFactoryClass@@', 00H
_DATA	ENDS
;	COMDAT ??_R4DAGameFeatureFactoryClass@@6B@
rdata$r	SEGMENT
??_R4DAGameFeatureFactoryClass@@6B@ DD 00H		; DAGameFeatureFactoryClass::`RTTI Complete Object Locator'
	DD	00H
	DD	00H
	DD	FLAT:??_R0?AVDAGameFeatureFactoryClass@@@8
	DD	FLAT:??_R3DAGameFeatureFactoryClass@@8
rdata$r	ENDS
;	COMDAT ??_R1A@?0A@EA@DAGameFeatureClass@@8
rdata$r	SEGMENT
??_R1A@?0A@EA@DAGameFeatureClass@@8 DD FLAT:??_R0?AVDAGameFeatureClass@@@8 ; DAGameFeatureClass::`RTTI Base Class Descriptor at (0,-1,0,64)'
	DD	00H
	DD	00H
	DD	0ffffffffH
	DD	00H
	DD	040H
	DD	FLAT:??_R3DAGameFeatureClass@@8
rdata$r	ENDS
;	COMDAT ??_R2DAGameFeatureClass@@8
rdata$r	SEGMENT
??_R2DAGameFeatureClass@@8 DD FLAT:??_R1A@?0A@EA@DAGameFeatureClass@@8 ; DAGameFeatureClass::`RTTI Base Class Array'
rdata$r	ENDS
;	COMDAT ??_R3DAGameFeatureClass@@8
rdata$r	SEGMENT
??_R3DAGameFeatureClass@@8 DD 00H			; DAGameFeatureClass::`RTTI Class Hierarchy Descriptor'
	DD	00H
	DD	01H
	DD	FLAT:??_R2DAGameFeatureClass@@8
rdata$r	ENDS
;	COMDAT ??_R0?AVDAGameFeatureClass@@@8
_DATA	SEGMENT
??_R0?AVDAGameFeatureClass@@@8 DD FLAT:??_7type_info@@6B@ ; DAGameFeatureClass `RTTI Type Descriptor'
	DD	00H
	DB	'.?AVDAGameFeatureClass@@', 00H
_DATA	ENDS
;	COMDAT ??_R4DAGameFeatureClass@@6B@
rdata$r	SEGMENT
??_R4DAGameFeatureClass@@6B@ DD 00H			; DAGameFeatureClass::`RTTI Complete Object Locator'
	DD	00H
	DD	00H
	DD	FLAT:??_R0?AVDAGameFeatureClass@@@8
	DD	FLAT:??_R3DAGameFeatureClass@@8
rdata$r	ENDS
;	COMDAT ??_R1A@?0A@EA@DAEventClass@@8
rdata$r	SEGMENT
??_R1A@?0A@EA@DAEventClass@@8 DD FLAT:??_R0?AVDAEventClass@@@8 ; DAEventClass::`RTTI Base Class Descriptor at (0,-1,0,64)'
	DD	00H
	DD	00H
	DD	0ffffffffH
	DD	00H
	DD	040H
	DD	FLAT:??_R3DAEventClass@@8
rdata$r	ENDS
;	COMDAT ??_R2DAEventClass@@8
rdata$r	SEGMENT
??_R2DAEventClass@@8 DD FLAT:??_R1A@?0A@EA@DAEventClass@@8 ; DAEventClass::`RTTI Base Class Array'
rdata$r	ENDS
;	COMDAT ??_R3DAEventClass@@8
rdata$r	SEGMENT
??_R3DAEventClass@@8 DD 00H				; DAEventClass::`RTTI Class Hierarchy Descriptor'
	DD	00H
	DD	01H
	DD	FLAT:??_R2DAEventClass@@8
rdata$r	ENDS
;	COMDAT ??_R0?AVDAEventClass@@@8
_DATA	SEGMENT
??_R0?AVDAEventClass@@@8 DD FLAT:??_7type_info@@6B@	; DAEventClass `RTTI Type Descriptor'
	DD	00H
	DB	'.?AVDAEventClass@@', 00H
_DATA	ENDS
;	COMDAT ??_R4DAEventClass@@6B@
rdata$r	SEGMENT
??_R4DAEventClass@@6B@ DD 00H				; DAEventClass::`RTTI Complete Object Locator'
	DD	00H
	DD	00H
	DD	FLAT:??_R0?AVDAEventClass@@@8
	DD	FLAT:??_R3DAEventClass@@8
rdata$r	ENDS
;	COMDAT ??_R1A@?0A@EA@JFW_Object_Created_Hook_Base@@8
rdata$r	SEGMENT
??_R1A@?0A@EA@JFW_Object_Created_Hook_Base@@8 DD FLAT:??_R0?AVJFW_Object_Created_Hook_Base@@@8 ; JFW_Object_Created_Hook_Base::`RTTI Base Class Descriptor at (0,-1,0,64)'
	DD	03H
	DD	00H
	DD	0ffffffffH
	DD	00H
	DD	040H
	DD	FLAT:??_R3JFW_Object_Created_Hook_Base@@8
rdata$r	ENDS
;	COMDAT ??_R2JFW_Object_Created_Hook_Base@@8
rdata$r	SEGMENT
??_R2JFW_Object_Created_Hook_Base@@8 DD FLAT:??_R1A@?0A@EA@JFW_Object_Created_Hook_Base@@8 ; JFW_Object_Created_Hook_Base::`RTTI Base Class Array'
	DD	FLAT:??_R1A@?0A@EA@ScriptImpClass@@8
	DD	FLAT:??_R1A@?0A@EA@ScriptClass@@8
	DD	FLAT:??_R1A@?0A@EA@GameObjObserverClass@@8
rdata$r	ENDS
;	COMDAT ??_R3JFW_Object_Created_Hook_Base@@8
rdata$r	SEGMENT
??_R3JFW_Object_Created_Hook_Base@@8 DD 00H		; JFW_Object_Created_Hook_Base::`RTTI Class Hierarchy Descriptor'
	DD	00H
	DD	04H
	DD	FLAT:??_R2JFW_Object_Created_Hook_Base@@8
rdata$r	ENDS
;	COMDAT ??_R0?AVJFW_Object_Created_Hook_Base@@@8
_DATA	SEGMENT
??_R0?AVJFW_Object_Created_Hook_Base@@@8 DD FLAT:??_7type_info@@6B@ ; JFW_Object_Created_Hook_Base `RTTI Type Descriptor'
	DD	00H
	DB	'.?AVJFW_Object_Created_Hook_Base@@', 00H
_DATA	ENDS
;	COMDAT ??_R4JFW_Object_Created_Hook_Base@@6B@
rdata$r	SEGMENT
??_R4JFW_Object_Created_Hook_Base@@6B@ DD 00H		; JFW_Object_Created_Hook_Base::`RTTI Complete Object Locator'
	DD	00H
	DD	00H
	DD	FLAT:??_R0?AVJFW_Object_Created_Hook_Base@@@8
	DD	FLAT:??_R3JFW_Object_Created_Hook_Base@@8
rdata$r	ENDS
;	COMDAT ??_R1A@?0A@EA@?$SList@UKeyHookWrapperStruct@MultiKeyHookScriptImpClass@@@@8
rdata$r	SEGMENT
??_R1A@?0A@EA@?$SList@UKeyHookWrapperStruct@MultiKeyHookScriptImpClass@@@@8 DD FLAT:??_R0?AV?$SList@UKeyHookWrapperStruct@MultiKeyHookScriptImpClass@@@@@8 ; SList<MultiKeyHookScriptImpClass::KeyHookWrapperStruct>::`RTTI Base Class Descriptor at (0,-1,0,64)'
	DD	00H
	DD	00H
	DD	0ffffffffH
	DD	00H
	DD	040H
	DD	FLAT:??_R3?$SList@UKeyHookWrapperStruct@MultiKeyHookScriptImpClass@@@@8
rdata$r	ENDS
;	COMDAT ??_R2?$SList@UKeyHookWrapperStruct@MultiKeyHookScriptImpClass@@@@8
rdata$r	SEGMENT
??_R2?$SList@UKeyHookWrapperStruct@MultiKeyHookScriptImpClass@@@@8 DD FLAT:??_R1A@?0A@EA@?$SList@UKeyHookWrapperStruct@MultiKeyHookScriptImpClass@@@@8 ; SList<MultiKeyHookScriptImpClass::KeyHookWrapperStruct>::`RTTI Base Class Array'
rdata$r	ENDS
;	COMDAT ??_R3?$SList@UKeyHookWrapperStruct@MultiKeyHookScriptImpClass@@@@8
rdata$r	SEGMENT
??_R3?$SList@UKeyHookWrapperStruct@MultiKeyHookScriptImpClass@@@@8 DD 00H ; SList<MultiKeyHookScriptImpClass::KeyHookWrapperStruct>::`RTTI Class Hierarchy Descriptor'
	DD	00H
	DD	01H
	DD	FLAT:??_R2?$SList@UKeyHookWrapperStruct@MultiKeyHookScriptImpClass@@@@8
rdata$r	ENDS
;	COMDAT ??_R0?AV?$SList@UKeyHookWrapperStruct@MultiKeyHookScriptImpClass@@@@@8
_DATA	SEGMENT
??_R0?AV?$SList@UKeyHookWrapperStruct@MultiKeyHookScriptImpClass@@@@@8 DD FLAT:??_7type_info@@6B@ ; SList<MultiKeyHookScriptImpClass::KeyHookWrapperStruct> `RTTI Type Descriptor'
	DD	00H
	DB	'.?AV?$SList@UKeyHookWrapperStruct@MultiKeyHookScriptImpC'
	DB	'lass@@@@', 00H
_DATA	ENDS
;	COMDAT ??_R4?$SList@UKeyHookWrapperStruct@MultiKeyHookScriptImpClass@@@@6B@
rdata$r	SEGMENT
??_R4?$SList@UKeyHookWrapperStruct@MultiKeyHookScriptImpClass@@@@6B@ DD 00H ; SList<MultiKeyHookScriptImpClass::KeyHookWrapperStruct>::`RTTI Complete Object Locator'
	DD	00H
	DD	00H
	DD	FLAT:??_R0?AV?$SList@UKeyHookWrapperStruct@MultiKeyHookScriptImpClass@@@@@8
	DD	FLAT:??_R3?$SList@UKeyHookWrapperStruct@MultiKeyHookScriptImpClass@@@@8
rdata$r	ENDS
;	COMDAT ??_R1A@?0A@EA@MultiKeyHookScriptImpClass@@8
rdata$r	SEGMENT
??_R1A@?0A@EA@MultiKeyHookScriptImpClass@@8 DD FLAT:??_R0?AVMultiKeyHookScriptImpClass@@@8 ; MultiKeyHookScriptImpClass::`RTTI Base Class Descriptor at (0,-1,0,64)'
	DD	03H
	DD	00H
	DD	0ffffffffH
	DD	00H
	DD	040H
	DD	FLAT:??_R3MultiKeyHookScriptImpClass@@8
rdata$r	ENDS
;	COMDAT ??_R2MultiKeyHookScriptImpClass@@8
rdata$r	SEGMENT
??_R2MultiKeyHookScriptImpClass@@8 DD FLAT:??_R1A@?0A@EA@MultiKeyHookScriptImpClass@@8 ; MultiKeyHookScriptImpClass::`RTTI Base Class Array'
	DD	FLAT:??_R1A@?0A@EA@ScriptImpClass@@8
	DD	FLAT:??_R1A@?0A@EA@ScriptClass@@8
	DD	FLAT:??_R1A@?0A@EA@GameObjObserverClass@@8
rdata$r	ENDS
;	COMDAT ??_R3MultiKeyHookScriptImpClass@@8
rdata$r	SEGMENT
??_R3MultiKeyHookScriptImpClass@@8 DD 00H		; MultiKeyHookScriptImpClass::`RTTI Class Hierarchy Descriptor'
	DD	00H
	DD	04H
	DD	FLAT:??_R2MultiKeyHookScriptImpClass@@8
rdata$r	ENDS
;	COMDAT ??_R0?AVMultiKeyHookScriptImpClass@@@8
_DATA	SEGMENT
??_R0?AVMultiKeyHookScriptImpClass@@@8 DD FLAT:??_7type_info@@6B@ ; MultiKeyHookScriptImpClass `RTTI Type Descriptor'
	DD	00H
	DB	'.?AVMultiKeyHookScriptImpClass@@', 00H
_DATA	ENDS
;	COMDAT ??_R4MultiKeyHookScriptImpClass@@6B@
rdata$r	SEGMENT
??_R4MultiKeyHookScriptImpClass@@6B@ DD 00H		; MultiKeyHookScriptImpClass::`RTTI Complete Object Locator'
	DD	00H
	DD	00H
	DD	FLAT:??_R0?AVMultiKeyHookScriptImpClass@@@8
	DD	FLAT:??_R3MultiKeyHookScriptImpClass@@8
rdata$r	ENDS
;	COMDAT ??_R1A@?0A@EA@JFW_Key_Hook_Base@@8
rdata$r	SEGMENT
??_R1A@?0A@EA@JFW_Key_Hook_Base@@8 DD FLAT:??_R0?AVJFW_Key_Hook_Base@@@8 ; JFW_Key_Hook_Base::`RTTI Base Class Descriptor at (0,-1,0,64)'
	DD	03H
	DD	00H
	DD	0ffffffffH
	DD	00H
	DD	040H
	DD	FLAT:??_R3JFW_Key_Hook_Base@@8
rdata$r	ENDS
;	COMDAT ??_R2JFW_Key_Hook_Base@@8
rdata$r	SEGMENT
??_R2JFW_Key_Hook_Base@@8 DD FLAT:??_R1A@?0A@EA@JFW_Key_Hook_Base@@8 ; JFW_Key_Hook_Base::`RTTI Base Class Array'
	DD	FLAT:??_R1A@?0A@EA@ScriptImpClass@@8
	DD	FLAT:??_R1A@?0A@EA@ScriptClass@@8
	DD	FLAT:??_R1A@?0A@EA@GameObjObserverClass@@8
rdata$r	ENDS
;	COMDAT ??_R3JFW_Key_Hook_Base@@8
rdata$r	SEGMENT
??_R3JFW_Key_Hook_Base@@8 DD 00H			; JFW_Key_Hook_Base::`RTTI Class Hierarchy Descriptor'
	DD	00H
	DD	04H
	DD	FLAT:??_R2JFW_Key_Hook_Base@@8
rdata$r	ENDS
;	COMDAT ??_R0?AVJFW_Key_Hook_Base@@@8
_DATA	SEGMENT
??_R0?AVJFW_Key_Hook_Base@@@8 DD FLAT:??_7type_info@@6B@ ; JFW_Key_Hook_Base `RTTI Type Descriptor'
	DD	00H
	DB	'.?AVJFW_Key_Hook_Base@@', 00H
_DATA	ENDS
;	COMDAT ??_R4JFW_Key_Hook_Base@@6B@
rdata$r	SEGMENT
??_R4JFW_Key_Hook_Base@@6B@ DD 00H			; JFW_Key_Hook_Base::`RTTI Complete Object Locator'
	DD	00H
	DD	00H
	DD	FLAT:??_R0?AVJFW_Key_Hook_Base@@@8
	DD	FLAT:??_R3JFW_Key_Hook_Base@@8
rdata$r	ENDS
;	COMDAT ??_R1A@?0A@EA@ReferencerClass@@8
rdata$r	SEGMENT
??_R1A@?0A@EA@ReferencerClass@@8 DD FLAT:??_R0?AVReferencerClass@@@8 ; ReferencerClass::`RTTI Base Class Descriptor at (0,-1,0,64)'
	DD	01H
	DD	00H
	DD	0ffffffffH
	DD	00H
	DD	040H
	DD	FLAT:??_R3ReferencerClass@@8
rdata$r	ENDS
;	COMDAT ??_R2ReferencerClass@@8
rdata$r	SEGMENT
??_R2ReferencerClass@@8 DD FLAT:??_R1A@?0A@EA@ReferencerClass@@8 ; ReferencerClass::`RTTI Base Class Array'
	DD	FLAT:??_R1A@?0A@EA@PostLoadableClass@@8
rdata$r	ENDS
;	COMDAT ??_R3ReferencerClass@@8
rdata$r	SEGMENT
??_R3ReferencerClass@@8 DD 00H				; ReferencerClass::`RTTI Class Hierarchy Descriptor'
	DD	00H
	DD	02H
	DD	FLAT:??_R2ReferencerClass@@8
rdata$r	ENDS
;	COMDAT ??_R0?AVReferencerClass@@@8
_DATA	SEGMENT
??_R0?AVReferencerClass@@@8 DD FLAT:??_7type_info@@6B@	; ReferencerClass `RTTI Type Descriptor'
	DD	00H
	DB	'.?AVReferencerClass@@', 00H
_DATA	ENDS
;	COMDAT ??_R4ReferencerClass@@6B@
rdata$r	SEGMENT
??_R4ReferencerClass@@6B@ DD 00H			; ReferencerClass::`RTTI Complete Object Locator'
	DD	00H
	DD	00H
	DD	FLAT:??_R0?AVReferencerClass@@@8
	DD	FLAT:??_R3ReferencerClass@@8
rdata$r	ENDS
;	COMDAT ??_R4PostLoadableClass@@6B@
rdata$r	SEGMENT
??_R4PostLoadableClass@@6B@ DD 00H			; PostLoadableClass::`RTTI Complete Object Locator'
	DD	00H
	DD	00H
	DD	FLAT:??_R0?AVPostLoadableClass@@@8
	DD	FLAT:??_R3PostLoadableClass@@8
rdata$r	ENDS
;	COMDAT ??_R2PostLoadableClass@@8
rdata$r	SEGMENT
??_R2PostLoadableClass@@8 DD FLAT:??_R1A@?0A@EA@PostLoadableClass@@8 ; PostLoadableClass::`RTTI Base Class Array'
rdata$r	ENDS
;	COMDAT ??_R3PostLoadableClass@@8
rdata$r	SEGMENT
??_R3PostLoadableClass@@8 DD 00H			; PostLoadableClass::`RTTI Class Hierarchy Descriptor'
	DD	00H
	DD	01H
	DD	FLAT:??_R2PostLoadableClass@@8
rdata$r	ENDS
;	COMDAT ??_R0?AVPostLoadableClass@@@8
_DATA	SEGMENT
??_R0?AVPostLoadableClass@@@8 DD FLAT:??_7type_info@@6B@ ; PostLoadableClass `RTTI Type Descriptor'
	DD	00H
	DB	'.?AVPostLoadableClass@@', 00H
_DATA	ENDS
;	COMDAT ??_R1A@?0A@EA@PostLoadableClass@@8
rdata$r	SEGMENT
??_R1A@?0A@EA@PostLoadableClass@@8 DD FLAT:??_R0?AVPostLoadableClass@@@8 ; PostLoadableClass::`RTTI Base Class Descriptor at (0,-1,0,64)'
	DD	00H
	DD	00H
	DD	0ffffffffH
	DD	00H
	DD	040H
	DD	FLAT:??_R3PostLoadableClass@@8
rdata$r	ENDS
;	COMDAT ??_R1A@?0A@EA@INIClass@@8
rdata$r	SEGMENT
??_R1A@?0A@EA@INIClass@@8 DD FLAT:??_R0?AVINIClass@@@8	; INIClass::`RTTI Base Class Descriptor at (0,-1,0,64)'
	DD	00H
	DD	00H
	DD	0ffffffffH
	DD	00H
	DD	040H
	DD	FLAT:??_R3INIClass@@8
rdata$r	ENDS
;	COMDAT ??_R2INIClass@@8
rdata$r	SEGMENT
??_R2INIClass@@8 DD FLAT:??_R1A@?0A@EA@INIClass@@8	; INIClass::`RTTI Base Class Array'
rdata$r	ENDS
;	COMDAT ??_R3INIClass@@8
rdata$r	SEGMENT
??_R3INIClass@@8 DD 00H					; INIClass::`RTTI Class Hierarchy Descriptor'
	DD	00H
	DD	01H
	DD	FLAT:??_R2INIClass@@8
rdata$r	ENDS
;	COMDAT ??_R0?AVINIClass@@@8
_DATA	SEGMENT
??_R0?AVINIClass@@@8 DD FLAT:??_7type_info@@6B@		; INIClass `RTTI Type Descriptor'
	DD	00H
	DB	'.?AVINIClass@@', 00H
_DATA	ENDS
;	COMDAT ??_R4INIClass@@6B@
rdata$r	SEGMENT
??_R4INIClass@@6B@ DD 00H				; INIClass::`RTTI Complete Object Locator'
	DD	00H
	DD	00H
	DD	FLAT:??_R0?AVINIClass@@@8
	DD	FLAT:??_R3INIClass@@8
rdata$r	ENDS
;	COMDAT ??_R1A@?0A@EA@ThreadClass@@8
rdata$r	SEGMENT
??_R1A@?0A@EA@ThreadClass@@8 DD FLAT:??_R0?AVThreadClass@@@8 ; ThreadClass::`RTTI Base Class Descriptor at (0,-1,0,64)'
	DD	00H
	DD	00H
	DD	0ffffffffH
	DD	00H
	DD	040H
	DD	FLAT:??_R3ThreadClass@@8
rdata$r	ENDS
;	COMDAT ??_R2ThreadClass@@8
rdata$r	SEGMENT
??_R2ThreadClass@@8 DD FLAT:??_R1A@?0A@EA@ThreadClass@@8 ; ThreadClass::`RTTI Base Class Array'
rdata$r	ENDS
;	COMDAT ??_R3ThreadClass@@8
rdata$r	SEGMENT
??_R3ThreadClass@@8 DD 00H				; ThreadClass::`RTTI Class Hierarchy Descriptor'
	DD	00H
	DD	01H
	DD	FLAT:??_R2ThreadClass@@8
rdata$r	ENDS
;	COMDAT ??_R0?AVThreadClass@@@8
_DATA	SEGMENT
??_R0?AVThreadClass@@@8 DD FLAT:??_7type_info@@6B@	; ThreadClass `RTTI Type Descriptor'
	DD	00H
	DB	'.?AVThreadClass@@', 00H
_DATA	ENDS
;	COMDAT ??_R4ThreadClass@@6B@
rdata$r	SEGMENT
??_R4ThreadClass@@6B@ DD 00H				; ThreadClass::`RTTI Complete Object Locator'
	DD	00H
	DD	00H
	DD	FLAT:??_R0?AVThreadClass@@@8
	DD	FLAT:??_R3ThreadClass@@8
rdata$r	ENDS
;	COMDAT ??_R1A@?0A@EA@ScriptImpClass@@8
rdata$r	SEGMENT
??_R1A@?0A@EA@ScriptImpClass@@8 DD FLAT:??_R0?AVScriptImpClass@@@8 ; ScriptImpClass::`RTTI Base Class Descriptor at (0,-1,0,64)'
	DD	02H
	DD	00H
	DD	0ffffffffH
	DD	00H
	DD	040H
	DD	FLAT:??_R3ScriptImpClass@@8
rdata$r	ENDS
;	COMDAT ??_R2ScriptImpClass@@8
rdata$r	SEGMENT
??_R2ScriptImpClass@@8 DD FLAT:??_R1A@?0A@EA@ScriptImpClass@@8 ; ScriptImpClass::`RTTI Base Class Array'
	DD	FLAT:??_R1A@?0A@EA@ScriptClass@@8
	DD	FLAT:??_R1A@?0A@EA@GameObjObserverClass@@8
rdata$r	ENDS
;	COMDAT ??_R3ScriptImpClass@@8
rdata$r	SEGMENT
??_R3ScriptImpClass@@8 DD 00H				; ScriptImpClass::`RTTI Class Hierarchy Descriptor'
	DD	00H
	DD	03H
	DD	FLAT:??_R2ScriptImpClass@@8
rdata$r	ENDS
;	COMDAT ??_R0?AVScriptImpClass@@@8
_DATA	SEGMENT
??_R0?AVScriptImpClass@@@8 DD FLAT:??_7type_info@@6B@	; ScriptImpClass `RTTI Type Descriptor'
	DD	00H
	DB	'.?AVScriptImpClass@@', 00H
_DATA	ENDS
;	COMDAT ??_R4ScriptImpClass@@6B@
rdata$r	SEGMENT
??_R4ScriptImpClass@@6B@ DD 00H				; ScriptImpClass::`RTTI Complete Object Locator'
	DD	00H
	DD	00H
	DD	FLAT:??_R0?AVScriptImpClass@@@8
	DD	FLAT:??_R3ScriptImpClass@@8
rdata$r	ENDS
;	COMDAT ??_R4GameObjObserverClass@@6B@
rdata$r	SEGMENT
??_R4GameObjObserverClass@@6B@ DD 00H			; GameObjObserverClass::`RTTI Complete Object Locator'
	DD	00H
	DD	00H
	DD	FLAT:??_R0?AVGameObjObserverClass@@@8
	DD	FLAT:??_R3GameObjObserverClass@@8
rdata$r	ENDS
;	COMDAT ??_R2GameObjObserverClass@@8
rdata$r	SEGMENT
??_R2GameObjObserverClass@@8 DD FLAT:??_R1A@?0A@EA@GameObjObserverClass@@8 ; GameObjObserverClass::`RTTI Base Class Array'
rdata$r	ENDS
;	COMDAT ??_R3GameObjObserverClass@@8
rdata$r	SEGMENT
??_R3GameObjObserverClass@@8 DD 00H			; GameObjObserverClass::`RTTI Class Hierarchy Descriptor'
	DD	00H
	DD	01H
	DD	FLAT:??_R2GameObjObserverClass@@8
rdata$r	ENDS
;	COMDAT ??_R0?AVGameObjObserverClass@@@8
_DATA	SEGMENT
??_R0?AVGameObjObserverClass@@@8 DD FLAT:??_7type_info@@6B@ ; GameObjObserverClass `RTTI Type Descriptor'
	DD	00H
	DB	'.?AVGameObjObserverClass@@', 00H
_DATA	ENDS
;	COMDAT ??_R1A@?0A@EA@GameObjObserverClass@@8
rdata$r	SEGMENT
??_R1A@?0A@EA@GameObjObserverClass@@8 DD FLAT:??_R0?AVGameObjObserverClass@@@8 ; GameObjObserverClass::`RTTI Base Class Descriptor at (0,-1,0,64)'
	DD	00H
	DD	00H
	DD	0ffffffffH
	DD	00H
	DD	040H
	DD	FLAT:??_R3GameObjObserverClass@@8
rdata$r	ENDS
;	COMDAT ??_R1A@?0A@EA@ScriptClass@@8
rdata$r	SEGMENT
??_R1A@?0A@EA@ScriptClass@@8 DD FLAT:??_R0?AVScriptClass@@@8 ; ScriptClass::`RTTI Base Class Descriptor at (0,-1,0,64)'
	DD	01H
	DD	00H
	DD	0ffffffffH
	DD	00H
	DD	040H
	DD	FLAT:??_R3ScriptClass@@8
rdata$r	ENDS
;	COMDAT ??_R2ScriptClass@@8
rdata$r	SEGMENT
??_R2ScriptClass@@8 DD FLAT:??_R1A@?0A@EA@ScriptClass@@8 ; ScriptClass::`RTTI Base Class Array'
	DD	FLAT:??_R1A@?0A@EA@GameObjObserverClass@@8
rdata$r	ENDS
;	COMDAT ??_R3ScriptClass@@8
rdata$r	SEGMENT
??_R3ScriptClass@@8 DD 00H				; ScriptClass::`RTTI Class Hierarchy Descriptor'
	DD	00H
	DD	02H
	DD	FLAT:??_R2ScriptClass@@8
rdata$r	ENDS
;	COMDAT ??_R0?AVScriptClass@@@8
_DATA	SEGMENT
??_R0?AVScriptClass@@@8 DD FLAT:??_7type_info@@6B@	; ScriptClass `RTTI Type Descriptor'
	DD	00H
	DB	'.?AVScriptClass@@', 00H
_DATA	ENDS
;	COMDAT ??_R4ScriptClass@@6B@
rdata$r	SEGMENT
??_R4ScriptClass@@6B@ DD 00H				; ScriptClass::`RTTI Complete Object Locator'
	DD	00H
	DD	00H
	DD	FLAT:??_R0?AVScriptClass@@@8
	DD	FLAT:??_R3ScriptClass@@8
rdata$r	ENDS
;	COMDAT ??_R1A@?0A@EA@ScriptFactory@@8
rdata$r	SEGMENT
??_R1A@?0A@EA@ScriptFactory@@8 DD FLAT:??_R0?AVScriptFactory@@@8 ; ScriptFactory::`RTTI Base Class Descriptor at (0,-1,0,64)'
	DD	00H
	DD	00H
	DD	0ffffffffH
	DD	00H
	DD	040H
	DD	FLAT:??_R3ScriptFactory@@8
rdata$r	ENDS
;	COMDAT ??_R2ScriptFactory@@8
rdata$r	SEGMENT
??_R2ScriptFactory@@8 DD FLAT:??_R1A@?0A@EA@ScriptFactory@@8 ; ScriptFactory::`RTTI Base Class Array'
rdata$r	ENDS
;	COMDAT ??_R3ScriptFactory@@8
rdata$r	SEGMENT
??_R3ScriptFactory@@8 DD 00H				; ScriptFactory::`RTTI Class Hierarchy Descriptor'
	DD	00H
	DD	01H
	DD	FLAT:??_R2ScriptFactory@@8
rdata$r	ENDS
;	COMDAT ??_R0?AVScriptFactory@@@8
_DATA	SEGMENT
??_R0?AVScriptFactory@@@8 DD FLAT:??_7type_info@@6B@	; ScriptFactory `RTTI Type Descriptor'
	DD	00H
	DB	'.?AVScriptFactory@@', 00H
_DATA	ENDS
;	COMDAT ??_R4ScriptFactory@@6B@
rdata$r	SEGMENT
??_R4ScriptFactory@@6B@ DD 00H				; ScriptFactory::`RTTI Complete Object Locator'
	DD	00H
	DD	00H
	DD	FLAT:??_R0?AVScriptFactory@@@8
	DD	FLAT:??_R3ScriptFactory@@8
rdata$r	ENDS
;	COMDAT ??_C@_0DL@BOENBDGI@ObjectPoolClass?$DMclass?5GenericSLN@
CONST	SEGMENT
??_C@_0DL@BOENBDGI@ObjectPoolClass?$DMclass?5GenericSLN@ DB 'ObjectPoolCl'
	DB	'ass<class GenericSLNode,256>::~ObjectPoolClass', 00H ; `string'
CONST	ENDS
;	COMDAT ??_C@_0FF@NOANHENP@?$CFd?5memory?5leaks?5found?5in?5ObjectP@
CONST	SEGMENT
??_C@_0FF@NOANHENP@?$CFd?5memory?5leaks?5found?5in?5ObjectP@ DB '%d memor'
	DB	'y leaks found in ObjectPoolClass<class GenericSLNode,256>::~O'
	DB	'bjectPoolClass', 0aH, 00H			; `string'
CONST	ENDS
;	COMDAT ??_C@_0EB@IOGKEECK@ObjectPoolClass?$DMclass?5GenericSLN@
CONST	SEGMENT
??_C@_0EB@IOGKEECK@ObjectPoolClass?$DMclass?5GenericSLN@ DB 'ObjectPoolCl'
	DB	'ass<class GenericSLNode,256>::Allocate_Object_Memory', 00H ; `string'
CONST	ENDS
;	COMDAT ??_C@_0DD@FBEAADAF@VectorClass?$DMstruct?5DASquadRemixS@
CONST	SEGMENT
??_C@_0DD@FBEAADAF@VectorClass?$DMstruct?5DASquadRemixS@ DB 'VectorClass<'
	DB	'struct DASquadRemixStruct>::operator =', 00H ; `string'
CONST	ENDS
;	COMDAT ??_C@_0DE@NMEEKHFM@VectorClass?$DMstruct?5DASquadRemixS@
CONST	SEGMENT
??_C@_0DE@NMEEKHFM@VectorClass?$DMstruct?5DASquadRemixS@ DB 'VectorClass<'
	DB	'struct DASquadRemixStruct>::VectorClass', 00H ; `string'
CONST	ENDS
;	COMDAT ??_C@_0CO@KGBEAGCK@VectorClass?$DMclass?5DASquadClass?5?$CK@
CONST	SEGMENT
??_C@_0CO@KGBEAGCK@VectorClass?$DMclass?5DASquadClass?5?$CK@ DB 'VectorCl'
	DB	'ass<class DASquadClass *>::operator =', 00H	; `string'
CONST	ENDS
;	COMDAT ??_C@_0CP@HHGCMOAA@VectorClass?$DMclass?5DASquadClass?5?$CK@
CONST	SEGMENT
??_C@_0CP@HHGCMOAA@VectorClass?$DMclass?5DASquadClass?5?$CK@ DB 'VectorCl'
	DB	'ass<class DASquadClass *>::VectorClass', 00H ; `string'
CONST	ENDS
;	COMDAT ??_C@_0DE@HPICBCHH@VectorClass?$DMstruct?5DASquadInvite@
CONST	SEGMENT
??_C@_0DE@HPICBCHH@VectorClass?$DMstruct?5DASquadInvite@ DB 'VectorClass<'
	DB	'struct DASquadInviteStruct>::operator =', 00H ; `string'
CONST	ENDS
;	COMDAT ??_C@_0DF@GCGBHFFN@VectorClass?$DMstruct?5DASquadInvite@
CONST	SEGMENT
??_C@_0DF@GCGBHFFN@VectorClass?$DMstruct?5DASquadInvite@ DB 'VectorClass<'
	DB	'struct DASquadInviteStruct>::VectorClass', 00H ; `string'
CONST	ENDS
;	COMDAT ??_C@_0DE@MCINNNDI@VectorClass?$DMclass?5DASquadMemberC@
CONST	SEGMENT
??_C@_0DE@MCINNNDI@VectorClass?$DMclass?5DASquadMemberC@ DB 'VectorClass<'
	DB	'class DASquadMemberClass *>::operator =', 00H ; `string'
CONST	ENDS
;	COMDAT ??_C@_0DF@IELPCGJD@VectorClass?$DMclass?5DASquadMemberC@
CONST	SEGMENT
??_C@_0DF@IELPCGJD@VectorClass?$DMclass?5DASquadMemberC@ DB 'VectorClass<'
	DB	'class DASquadMemberClass *>::VectorClass', 00H ; `string'
CONST	ENDS
;	COMDAT ??_C@_0EA@DFHGBHJN@VectorClass?$DMstruct?5DAPlayerObser@
CONST	SEGMENT
??_C@_0EA@DFHGBHJN@VectorClass?$DMstruct?5DAPlayerObser@ DB 'VectorClass<'
	DB	'struct DAPlayerObserverKeyHookStruct *>::operator =', 00H ; `string'
CONST	ENDS
;	COMDAT ??_C@_0EB@CCPEIKDO@VectorClass?$DMstruct?5DAPlayerObser@
CONST	SEGMENT
??_C@_0EB@CCPEIKDO@VectorClass?$DMstruct?5DAPlayerObser@ DB 'VectorClass<'
	DB	'struct DAPlayerObserverKeyHookStruct *>::VectorClass', 00H ; `string'
CONST	ENDS
;	COMDAT ??_C@_0EE@JOBDGIII@VectorClass?$DMstruct?5DAPlayerObser@
CONST	SEGMENT
??_C@_0EE@JOBDGIII@VectorClass?$DMstruct?5DAPlayerObser@ DB 'VectorClass<'
	DB	'struct DAPlayerObserverChatCommandStruct *>::operator =', 00H ; `string'
CONST	ENDS
;	COMDAT ??_C@_0EF@EPICALKK@VectorClass?$DMstruct?5DAPlayerObser@
CONST	SEGMENT
??_C@_0EF@EPICALKK@VectorClass?$DMstruct?5DAPlayerObser@ DB 'VectorClass<'
	DB	'struct DAPlayerObserverChatCommandStruct *>::VectorClass', 00H ; `string'
CONST	ENDS
;	COMDAT ??_C@_0DO@PEJOFHLG@VectorClass?$DMstruct?5DAPlayerObser@
CONST	SEGMENT
??_C@_0DO@PEJOFHLG@VectorClass?$DMstruct?5DAPlayerObser@ DB 'VectorClass<'
	DB	'struct DAPlayerObserverTimerStruct *>::operator =', 00H ; `string'
CONST	ENDS
;	COMDAT ??_C@_0DP@IOIJJLDO@VectorClass?$DMstruct?5DAPlayerObser@
CONST	SEGMENT
??_C@_0DP@IOIJJLDO@VectorClass?$DMstruct?5DAPlayerObser@ DB 'VectorClass<'
	DB	'struct DAPlayerObserverTimerStruct *>::VectorClass', 00H ; `string'
CONST	ENDS
;	COMDAT ??_C@_0ED@MCIGMKB@VectorClass?$DMstruct?5DAPlayerClass@
CONST	SEGMENT
??_C@_0ED@MCIGMKB@VectorClass?$DMstruct?5DAPlayerClass@ DB 'VectorClass<s'
	DB	'truct DAPlayerClass::DAPlayerTagStruct *>::operator =', 00H ; `string'
CONST	ENDS
;	COMDAT ??_C@_0DD@OELEBJCM@VectorClass?$DMclass?5DAPlayerDataCl@
CONST	SEGMENT
??_C@_0DD@OELEBJCM@VectorClass?$DMclass?5DAPlayerDataCl@ DB 'VectorClass<'
	DB	'class DAPlayerDataClass *>::operator =', 00H ; `string'
CONST	ENDS
;	COMDAT ??_C@_0DH@FMPAOODI@VectorClass?$DMclass?5DAPlayerObserv@
CONST	SEGMENT
??_C@_0DH@FMPAOODI@VectorClass?$DMclass?5DAPlayerObserv@ DB 'VectorClass<'
	DB	'class DAPlayerObserverClass *>::operator =', 00H ; `string'
CONST	ENDS
;	COMDAT ??_C@_0CO@FLFLOGJD@VectorClass?$DMstruct?5DASquadRemixS@
CONST	SEGMENT
??_C@_0CO@FLFLOGJD@VectorClass?$DMstruct?5DASquadRemixS@ DB 'VectorClass<'
	DB	'struct DASquadRemixStruct>::Clear', 00H	; `string'
CONST	ENDS
;	COMDAT ??_C@_0CP@LDHGNLDN@VectorClass?$DMstruct?5DASquadRemixS@
CONST	SEGMENT
??_C@_0CP@LDHGNLDN@VectorClass?$DMstruct?5DASquadRemixS@ DB 'VectorClass<'
	DB	'struct DASquadRemixStruct>::Resize', 00H	; `string'
CONST	ENDS
;	COMDAT ??_C@_1HE@ONAFOCJP@?$AAx?$AA?3?$AA?2?$AAg?$AAi?$AAt?$AAh?$AAu?$AAb?$AA?2?$AAr?$AAe?$AAn?$AAe?$AAg?$AAa?$AAd?$AAe?$AA?2?$AAd?$AAr?$AAa?$AAg?$AAo?$AAn?$AAa?$AAd?$AAe?$AA_?$AAr?$AAx?$AAd@
CONST	SEGMENT
??_C@_1HE@ONAFOCJP@?$AAx?$AA?3?$AA?2?$AAg?$AAi?$AAt?$AAh?$AAu?$AAb?$AA?2?$AAr?$AAe?$AAn?$AAe?$AAg?$AAa?$AAd?$AAe?$AA?2?$AAd?$AAr?$AAa?$AAg?$AAo?$AAn?$AAa?$AAd?$AAe?$AA_?$AAr?$AAx?$AAd@ DB 'x'
	DB	00H, ':', 00H, '\', 00H, 'g', 00H, 'i', 00H, 't', 00H, 'h', 00H
	DB	'u', 00H, 'b', 00H, '\', 00H, 'r', 00H, 'e', 00H, 'n', 00H, 'e'
	DB	00H, 'g', 00H, 'a', 00H, 'd', 00H, 'e', 00H, '\', 00H, 'd', 00H
	DB	'r', 00H, 'a', 00H, 'g', 00H, 'o', 00H, 'n', 00H, 'a', 00H, 'd'
	DB	00H, 'e', 00H, '_', 00H, 'r', 00H, 'x', 00H, 'd', 00H, '\', 00H
	DB	's', 00H, 'c', 00H, 'r', 00H, 'i', 00H, 'p', 00H, 't', 00H, 's'
	DB	00H, '\', 00H, 'd', 00H, 'a', 00H, '_', 00H, 'g', 00H, 'a', 00H
	DB	'm', 00H, 'e', 00H, 'f', 00H, 'e', 00H, 'a', 00H, 't', 00H, 'u'
	DB	00H, 'r', 00H, 'e', 00H, '.', 00H, 'h', 00H, 00H, 00H ; `string'
CONST	ENDS
;	COMDAT ??_C@_0DK@MFMHCJCF@x?3?2github?2renegade?2dragonade_rxd@
CONST	SEGMENT
??_C@_0DK@MFMHCJCF@x?3?2github?2renegade?2dragonade_rxd@ DB 'x:\github\re'
	DB	'negade\dragonade_rxd\scripts\da_gamefeature.h', 00H ; `string'
CONST	ENDS
;	COMDAT ??_C@_0EE@LLOLIKDP@DAGameFeatureRegistrant?$DMclass?5DA@
CONST	SEGMENT
??_C@_0EE@LLOLIKDP@DAGameFeatureRegistrant?$DMclass?5DA@ DB 'DAGameFeatur'
	DB	'eRegistrant<class DASquadManagerClass>::Create_Instance', 00H ; `string'
CONST	ENDS
;	COMDAT ??_C@_0CJ@EMBKKPNC@VectorClass?$DMclass?5DASquadClass?5?$CK@
CONST	SEGMENT
??_C@_0CJ@EMBKKPNC@VectorClass?$DMclass?5DASquadClass?5?$CK@ DB 'VectorCl'
	DB	'ass<class DASquadClass *>::Clear', 00H	; `string'
CONST	ENDS
;	COMDAT ??_C@_0CK@LCLKOLHC@VectorClass?$DMclass?5DASquadClass?5?$CK@
CONST	SEGMENT
??_C@_0CK@LCLKOLHC@VectorClass?$DMclass?5DASquadClass?5?$CK@ DB 'VectorCl'
	DB	'ass<class DASquadClass *>::Resize', 00H	; `string'
CONST	ENDS
;	COMDAT ??_C@_0CP@OIPLINFC@VectorClass?$DMstruct?5DASquadInvite@
CONST	SEGMENT
??_C@_0CP@OIPLINFC@VectorClass?$DMstruct?5DASquadInvite@ DB 'VectorClass<'
	DB	'struct DASquadInviteStruct>::Clear', 00H	; `string'
CONST	ENDS
;	COMDAT ??_C@_0DA@FPKGIJHA@VectorClass?$DMstruct?5DASquadInvite@
CONST	SEGMENT
??_C@_0DA@FPKGIJHA@VectorClass?$DMstruct?5DASquadInvite@ DB 'VectorClass<'
	DB	'struct DASquadInviteStruct>::Resize', 00H	; `string'
CONST	ENDS
;	COMDAT ??_C@_0CP@NCPDCEMJ@VectorClass?$DMclass?5DASquadMemberC@
CONST	SEGMENT
??_C@_0CP@NCPDCEMJ@VectorClass?$DMclass?5DASquadMemberC@ DB 'VectorClass<'
	DB	'class DASquadMemberClass *>::Clear', 00H	; `string'
CONST	ENDS
;	COMDAT ??_C@_0DA@DIEBMLBF@VectorClass?$DMclass?5DASquadMemberC@
CONST	SEGMENT
??_C@_0DA@DIEBMLBF@VectorClass?$DMclass?5DASquadMemberC@ DB 'VectorClass<'
	DB	'class DASquadMemberClass *>::Resize', 00H	; `string'
CONST	ENDS
;	COMDAT ??_C@_0DL@IEBGHGHF@VectorClass?$DMstruct?5DAPlayerObser@
CONST	SEGMENT
??_C@_0DL@IEBGHGHF@VectorClass?$DMstruct?5DAPlayerObser@ DB 'VectorClass<'
	DB	'struct DAPlayerObserverKeyHookStruct *>::Clear', 00H ; `string'
CONST	ENDS
;	COMDAT ??_C@_0DM@PKMANBOA@VectorClass?$DMstruct?5DAPlayerObser@
CONST	SEGMENT
??_C@_0DM@PKMANBOA@VectorClass?$DMstruct?5DAPlayerObser@ DB 'VectorClass<'
	DB	'struct DAPlayerObserverKeyHookStruct *>::Resize', 00H ; `string'
CONST	ENDS
;	COMDAT ??_C@_0DP@JJGAHOFF@VectorClass?$DMstruct?5DAPlayerObser@
CONST	SEGMENT
??_C@_0DP@JJGAHOFF@VectorClass?$DMstruct?5DAPlayerObser@ DB 'VectorClass<'
	DB	'struct DAPlayerObserverChatCommandStruct *>::Clear', 00H ; `string'
CONST	ENDS
;	COMDAT ??_C@_0EA@MBLDIHCA@VectorClass?$DMstruct?5DAPlayerObser@
CONST	SEGMENT
??_C@_0EA@MBLDIHCA@VectorClass?$DMstruct?5DAPlayerObser@ DB 'VectorClass<'
	DB	'struct DAPlayerObserverChatCommandStruct *>::Resize', 00H ; `string'
CONST	ENDS
;	COMDAT ??_C@_0DJ@MHPEBELA@VectorClass?$DMstruct?5DAPlayerObser@
CONST	SEGMENT
??_C@_0DJ@MHPEBELA@VectorClass?$DMstruct?5DAPlayerObser@ DB 'VectorClass<'
	DB	'struct DAPlayerObserverTimerStruct *>::Clear', 00H ; `string'
CONST	ENDS
;	COMDAT ??_C@_0DK@BBINAFLN@VectorClass?$DMstruct?5DAPlayerObser@
CONST	SEGMENT
??_C@_0DK@BBINAFLN@VectorClass?$DMstruct?5DAPlayerObser@ DB 'VectorClass<'
	DB	'struct DAPlayerObserverTimerStruct *>::Resize', 00H ; `string'
CONST	ENDS
;	COMDAT ??_C@_0DO@MAHPNNNF@VectorClass?$DMstruct?5DAPlayerClass@
CONST	SEGMENT
??_C@_0DO@MAHPNNNF@VectorClass?$DMstruct?5DAPlayerClass@ DB 'VectorClass<'
	DB	'struct DAPlayerClass::DAPlayerTagStruct *>::Clear', 00H ; `string'
CONST	ENDS
;	COMDAT ??_C@_0DP@CMFCBLKD@VectorClass?$DMstruct?5DAPlayerClass@
CONST	SEGMENT
??_C@_0DP@CMFCBLKD@VectorClass?$DMstruct?5DAPlayerClass@ DB 'VectorClass<'
	DB	'struct DAPlayerClass::DAPlayerTagStruct *>::Resize', 00H ; `string'
CONST	ENDS
;	COMDAT ??_C@_0CO@NDDDNNIA@VectorClass?$DMclass?5DAPlayerDataCl@
CONST	SEGMENT
??_C@_0CO@NDDDNNIA@VectorClass?$DMclass?5DAPlayerDataCl@ DB 'VectorClass<'
	DB	'class DAPlayerDataClass *>::Clear', 00H	; `string'
CONST	ENDS
;	COMDAT ??_C@_0CP@DHEAPCNI@VectorClass?$DMclass?5DAPlayerDataCl@
CONST	SEGMENT
??_C@_0CP@DHEAPCNI@VectorClass?$DMclass?5DAPlayerDataCl@ DB 'VectorClass<'
	DB	'class DAPlayerDataClass *>::Resize', 00H	; `string'
CONST	ENDS
;	COMDAT ??_C@_0DC@JEMMOOD@VectorClass?$DMclass?5DAPlayerObserv@
CONST	SEGMENT
??_C@_0DC@JEMMOOD@VectorClass?$DMclass?5DAPlayerObserv@ DB 'VectorClass<c'
	DB	'lass DAPlayerObserverClass *>::Clear', 00H	; `string'
CONST	ENDS
;	COMDAT ??_C@_0DD@ODCBLNCJ@VectorClass?$DMclass?5DAPlayerObserv@
CONST	SEGMENT
??_C@_0DD@ODCBLNCJ@VectorClass?$DMclass?5DAPlayerObserv@ DB 'VectorClass<'
	DB	'class DAPlayerObserverClass *>::Resize', 00H ; `string'
CONST	ENDS
;	COMDAT ??_C@_0EN@HIHNAGN@SList?$DMstruct?5MultiKeyHookScriptI@
CONST	SEGMENT
??_C@_0EN@HIHNAGN@SList?$DMstruct?5MultiKeyHookScriptI@ DB 'SList<struct '
	DB	'MultiKeyHookScriptImpClass::KeyHookWrapperStruct>::Insert_Aft'
	DB	'er', 00H					; `string'
CONST	ENDS
;	COMDAT ??_C@_0EO@OJGPEJGC@SList?$DMstruct?5MultiKeyHookScriptI@
CONST	SEGMENT
??_C@_0EO@OJGPEJGC@SList?$DMstruct?5MultiKeyHookScriptI@ DB 'SList<struct'
	DB	' MultiKeyHookScriptImpClass::KeyHookWrapperStruct>::Insert_Be'
	DB	'fore', 00H					; `string'
CONST	ENDS
;	COMDAT ??_C@_0EL@MPFHHNNA@SList?$DMstruct?5MultiKeyHookScriptI@
CONST	SEGMENT
??_C@_0EL@MPFHHNNA@SList?$DMstruct?5MultiKeyHookScriptI@ DB 'SList<struct'
	DB	' MultiKeyHookScriptImpClass::KeyHookWrapperStruct>::Remove_Al'
	DB	'l', 00H					; `string'
CONST	ENDS
;	COMDAT ??_C@_0EH@CGJBMJBC@SList?$DMstruct?5MultiKeyHookScriptI@
CONST	SEGMENT
??_C@_0EH@CGJBMJBC@SList?$DMstruct?5MultiKeyHookScriptI@ DB 'SList<struct'
	DB	' MultiKeyHookScriptImpClass::KeyHookWrapperStruct>::Remove', 00H ; `string'
CONST	ENDS
;	COMDAT ??_C@_0EM@PPENJFKC@SList?$DMstruct?5MultiKeyHookScriptI@
CONST	SEGMENT
??_C@_0EM@PPENJFKC@SList?$DMstruct?5MultiKeyHookScriptI@ DB 'SList<struct'
	DB	' MultiKeyHookScriptImpClass::KeyHookWrapperStruct>::Remove_He'
	DB	'ad', 00H					; `string'
CONST	ENDS
;	COMDAT ??_C@_0EJ@OIGECPDF@SList?$DMstruct?5MultiKeyHookScriptI@
CONST	SEGMENT
??_C@_0EJ@OIGECPDF@SList?$DMstruct?5MultiKeyHookScriptI@ DB 'SList<struct'
	DB	' MultiKeyHookScriptImpClass::KeyHookWrapperStruct>::Add_Tail', 00H ; `string'
CONST	ENDS
;	COMDAT ??_C@_1GC@LJHGOLFN@?$AAx?$AA?3?$AA?2?$AAg?$AAi?$AAt?$AAh?$AAu?$AAb?$AA?2?$AAr?$AAe?$AAn?$AAe?$AAg?$AAa?$AAd?$AAe?$AA?2?$AAd?$AAr?$AAa?$AAg?$AAo?$AAn?$AAa?$AAd?$AAe?$AA_?$AAr?$AAx?$AAd@
CONST	SEGMENT
??_C@_1GC@LJHGOLFN@?$AAx?$AA?3?$AA?2?$AAg?$AAi?$AAt?$AAh?$AAu?$AAb?$AA?2?$AAr?$AAe?$AAn?$AAe?$AAg?$AAa?$AAd?$AAe?$AA?2?$AAd?$AAr?$AAa?$AAg?$AAo?$AAn?$AAa?$AAd?$AAe?$AA_?$AAr?$AAx?$AAd@ DB 'x'
	DB	00H, ':', 00H, '\', 00H, 'g', 00H, 'i', 00H, 't', 00H, 'h', 00H
	DB	'u', 00H, 'b', 00H, '\', 00H, 'r', 00H, 'e', 00H, 'n', 00H, 'e'
	DB	00H, 'g', 00H, 'a', 00H, 'd', 00H, 'e', 00H, '\', 00H, 'd', 00H
	DB	'r', 00H, 'a', 00H, 'g', 00H, 'o', 00H, 'n', 00H, 'a', 00H, 'd'
	DB	00H, 'e', 00H, '_', 00H, 'r', 00H, 'x', 00H, 'd', 00H, '\', 00H
	DB	's', 00H, 'c', 00H, 'r', 00H, 'i', 00H, 'p', 00H, 't', 00H, 's'
	DB	00H, '\', 00H, 's', 00H, 'l', 00H, 'i', 00H, 's', 00H, 't', 00H
	DB	'.', 00H, 'h', 00H, 00H, 00H			; `string'
CONST	ENDS
;	COMDAT ??_C@_0DB@DFBFLIIO@x?3?2github?2renegade?2dragonade_rxd@
CONST	SEGMENT
??_C@_0DB@DFBFLIIO@x?3?2github?2renegade?2dragonade_rxd@ DB 'x:\github\re'
	DB	'negade\dragonade_rxd\scripts\slist.h', 00H	; `string'
CONST	ENDS
;	COMDAT ??_C@_0EJ@ENMBJFB@SList?$DMstruct?5MultiKeyHookScriptI@
CONST	SEGMENT
??_C@_0EJ@ENMBJFB@SList?$DMstruct?5MultiKeyHookScriptI@ DB 'SList<struct '
	DB	'MultiKeyHookScriptImpClass::KeyHookWrapperStruct>::Add_Head', 00H ; `string'
CONST	ENDS
;	COMDAT ??_C@_0N@EIPNBCIO@Squad?5System?$AA@
CONST	SEGMENT
??_C@_0N@EIPNBCIO@Squad?5System?$AA@ DB 'Squad System', 00H ; `string'
CONST	ENDS
;	COMDAT ??_C@_0N@NMHJPOFH@EnableSquads?$AA@
CONST	SEGMENT
??_C@_0N@NMHJPOFH@EnableSquads?$AA@ DB 'EnableSquads', 00H ; `string'
CONST	ENDS
;	COMDAT ??_C@_0GH@GPLNEEHN@?$CFls?5is?5on?5the?5other?5team?4?5You?5ha@
CONST	SEGMENT
??_C@_0GH@GPLNEEHN@?$CFls?5is?5on?5the?5other?5team?4?5You?5ha@ DB '%ls i'
	DB	's on the other team. You have been added to the wait list and'
	DB	' will be teamed with them next game.', 00H	; `string'
CONST	ENDS
;	COMDAT ??_C@_0GH@NIMKFADE@?$CFls?5is?5on?5the?5other?5team?4?5They?5h@
CONST	SEGMENT
??_C@_0GH@NIMKFADE@?$CFls?5is?5on?5the?5other?5team?4?5They?5h@ DB '%ls i'
	DB	's on the other team. They have been added to the wait list an'
	DB	'd will be teamed with you next game.', 00H	; `string'
CONST	ENDS
;	COMDAT ??_C@_0GN@LHHLPFMH@?$CFls?5squad?5is?5on?5the?5other?5team?4?5@
CONST	SEGMENT
??_C@_0GN@LHHLPFMH@?$CFls?5squad?5is?5on?5the?5other?5team?4?5@ DB '%ls s'
	DB	'quad is on the other team. You have been added to the wait li'
	DB	'st and will be teamed with them next game.', 00H ; `string'
CONST	ENDS
;	COMDAT ??_C@_0CJ@DMNPDJHL@You?5have?5invited?5?$CFls?5to?5join?5you@
CONST	SEGMENT
??_C@_0CJ@DMNPDJHL@You?5have?5invited?5?$CFls?5to?5join?5you@ DB 'You hav'
	DB	'e invited %ls to join your squad.', 00H	; `string'
CONST	ENDS
;	COMDAT ??_C@_0FN@FAPBICBC@?$CFls?5has?5invited?5you?5to?5join?5thei@
CONST	SEGMENT
??_C@_0FN@FAPBICBC@?$CFls?5has?5invited?5you?5to?5join?5thei@ DB '%ls has'
	DB	' invited you to join their squad. Type "!accept" to accept, o'
	DB	'r "!decline" to decline.', 00H		; `string'
CONST	ENDS
;	COMDAT ??_C@_0CC@MLBPDJEH@DASquadManagerClass?3?3Create_Squa@
CONST	SEGMENT
??_C@_0CC@MLBPDJEH@DASquadManagerClass?3?3Create_Squa@ DB 'DASquadManager'
	DB	'Class::Create_Squad', 00H			; `string'
CONST	ENDS
;	COMDAT ?__LINE__Var@?1??Create_Squad@DASquadManagerClass@@QAEPAVDASquadClass@@PAVcPlayer@@@Z@4JA
_DATA	SEGMENT
?__LINE__Var@?1??Create_Squad@DASquadManagerClass@@QAEPAVDASquadClass@@PAVcPlayer@@@Z@4JA DD 03a8H ; `DASquadManagerClass::Create_Squad'::`2'::__LINE__Var
_DATA	ENDS
;	COMDAT ??_C@_0CL@MKNEEGGB@You?5have?5rescinded?5your?5squad?5in@
CONST	SEGMENT
??_C@_0CL@MKNEEGGB@You?5have?5rescinded?5your?5squad?5in@ DB 'You have re'
	DB	'scinded your squad invitations.', 00H	; `string'
CONST	ENDS
;	COMDAT ??_C@_0CM@GCNKLHJF@You?5have?5cancelled?5your?5squad?5jo@
CONST	SEGMENT
??_C@_0CM@GCNKLHJF@You?5have?5cancelled?5your?5squad?5jo@ DB 'You have ca'
	DB	'ncelled your squad join request.', 00H	; `string'
CONST	ENDS
;	COMDAT ??_C@_0CD@FIACPEEE@You?5have?5left?5the?5squad?5wait?5lis@
CONST	SEGMENT
??_C@_0CD@FIACPEEE@You?5have?5left?5the?5squad?5wait?5lis@ DB 'You have l'
	DB	'eft the squad wait list.', 00H		; `string'
CONST	ENDS
;	COMDAT ??_C@_0CI@NMGIHPGK@?$CFls?5has?5declined?5your?5squad?5invi@
CONST	SEGMENT
??_C@_0CI@NMGIHPGK@?$CFls?5has?5declined?5your?5squad?5invi@ DB '%ls has '
	DB	'declined your squad invitation.', 00H	; `string'
CONST	ENDS
;	COMDAT ??_C@_0CI@GGGIJGJ@You?5have?5declined?5?$CFls?5squad?5invi@
CONST	SEGMENT
??_C@_0CI@GGGIJGJ@You?5have?5declined?5?$CFls?5squad?5invi@ DB 'You have '
	DB	'declined %ls squad invitation.', 00H	; `string'
CONST	ENDS
;	COMDAT ??_C@_0CD@OJCAMECA@?$CFls?5has?5refused?5your?5join?5reques@
CONST	SEGMENT
??_C@_0CD@OJCAMECA@?$CFls?5has?5refused?5your?5join?5reques@ DB '%ls has '
	DB	'refused your join request.', 00H		; `string'
CONST	ENDS
;	COMDAT ??_C@_0CD@HJPPCGAK@You?5have?5refused?5?$CFls?5join?5reques@
CONST	SEGMENT
??_C@_0CD@HJPPCGAK@You?5have?5refused?5?$CFls?5join?5reques@ DB 'You have'
	DB	' refused %ls join request.', 00H		; `string'
CONST	ENDS
;	COMDAT ??_C@_0DA@CHLAPHG@There?5are?5not?5enough?5players?5to?5@
CONST	SEGMENT
??_C@_0DA@CHLAPHG@There?5are?5not?5enough?5players?5to?5@ DB 'There are n'
	DB	'ot enough players to create a squad.', 00H	; `string'
CONST	ENDS
;	COMDAT ??_C@_0CN@KNHOCKCC@You?5cannot?5invite?5players?5on?5the@
CONST	SEGMENT
??_C@_0CN@KNHOCKCC@You?5cannot?5invite?5players?5on?5the@ DB 'You cannot '
	DB	'invite players on the other team.', 00H	; `string'
CONST	ENDS
;	COMDAT ??_C@_0BL@KAFHDCMF@?$CFls?5is?5already?5in?5a?5squad?4?$AA@
CONST	SEGMENT
??_C@_0BL@KAFHDCMF@?$CFls?5is?5already?5in?5a?5squad?4?$AA@ DB '%ls is al'
	DB	'ready in a squad.', 00H			; `string'
CONST	ENDS
;	COMDAT ??_C@_0CJ@MEKIDFGE@?$CFls?5has?5already?5been?5invited?5to?5@
CONST	SEGMENT
??_C@_0CJ@MEKIDFGE@?$CFls?5has?5already?5been?5invited?5to?5@ DB '%ls has'
	DB	' already been invited to a squad.', 00H	; `string'
CONST	ENDS
;	COMDAT ??_C@_0BE@GNKENNGG@Your?5squad?5is?5full?4?$AA@
CONST	SEGMENT
??_C@_0BE@GNKENNGG@Your?5squad?5is?5full?4?$AA@ DB 'Your squad is full.', 00H ; `string'
CONST	ENDS
;	COMDAT ??_C@_0FK@IFKJGBHN@?$CFls?5has?5requested?5to?5join?5your?5s@
CONST	SEGMENT
??_C@_0FK@IFKJGBHN@?$CFls?5has?5requested?5to?5join?5your?5s@ DB '%ls has'
	DB	' requested to join your squad. Type "!accept" to accept, or "'
	DB	'!decline" to decline.', 00H			; `string'
CONST	ENDS
;	COMDAT ??_C@_0CG@JDOBEPIA@You?5have?5requested?5to?5join?5?$CFls?5s@
CONST	SEGMENT
??_C@_0CG@JDOBEPIA@You?5have?5requested?5to?5join?5?$CFls?5s@ DB 'You hav'
	DB	'e requested to join %ls squad.', 00H	; `string'
CONST	ENDS
;	COMDAT ??_C@_0CK@LBFEDIBG@You?5cannot?5join?5squads?5on?5the?5ot@
CONST	SEGMENT
??_C@_0CK@LBFEDIBG@You?5cannot?5join?5squads?5on?5the?5ot@ DB 'You cannot'
	DB	' join squads on the other team.', 00H	; `string'
CONST	ENDS
;	COMDAT ??_C@_0CO@GIODHNKI@You?5have?5already?5requested?5to?5jo@
CONST	SEGMENT
??_C@_0CO@GIODHNKI@You?5have?5already?5requested?5to?5jo@ DB 'You have al'
	DB	'ready requested to join %ls squad.', 00H	; `string'
CONST	ENDS
;	COMDAT ??_C@_0BD@PEOABBKJ@?$CFls?5squad?5is?5full?4?$AA@
CONST	SEGMENT
??_C@_0BD@PEOABBKJ@?$CFls?5squad?5is?5full?4?$AA@ DB '%ls squad is full.', 00H ; `string'
CONST	ENDS
;	COMDAT ??_C@_0BH@KMCGFIJI@?$CFls?5is?5not?5in?5a?5squad?4?$AA@
CONST	SEGMENT
??_C@_0BH@KMCGFIJI@?$CFls?5is?5not?5in?5a?5squad?4?$AA@ DB '%ls is not in'
	DB	' a squad.', 00H				; `string'
CONST	ENDS
;	COMDAT ??_C@_0BM@DIDOHGHE@You?5are?5already?5in?5a?5squad?4?$AA@
CONST	SEGMENT
??_C@_0BM@DIDOHGHE@You?5are?5already?5in?5a?5squad?4?$AA@ DB 'You are alr'
	DB	'eady in a squad.', 00H			; `string'
CONST	ENDS
;	COMDAT ??_C@_0IM@CJMABAJI@There?5are?5no?5squads?4?5You?5can?5cre@
CONST	SEGMENT
??_C@_0IM@CJMABAJI@There?5are?5no?5squads?4?5You?5can?5cre@ DB 'There are'
	DB	' no squads. You can create one by typing "!invite <player nam'
	DB	'e>" in chat. The current maxiumum size for a squad is %d(%d) '
	DB	'players.', 00H				; `string'
CONST	ENDS
;	COMDAT ??_C@_0IA@COAGKEEN@There?5are?5currently?5not?5enough?5p@
CONST	SEGMENT
??_C@_0IA@COAGKEEN@There?5are?5currently?5not?5enough?5p@ DB 'There are c'
	DB	'urrently not enough players to create a squad. When there are'
	DB	', you can create one by typing "!invite <player name>".', 00H ; `string'
CONST	ENDS
;	COMDAT ??_C@_0LP@EBGMPJHB@You?5can?5request?5to?5join?5one?5of?5t@
CONST	SEGMENT
??_C@_0LP@EBGMPJHB@You?5can?5request?5to?5join?5one?5of?5t@ DB 'You can r'
	DB	'equest to join one of these squads by typing "!join <player n'
	DB	'ame>" in chat. Or create your own with "!invite <player name>'
	DB	'". The current maxiumum size for a squad is %d(%d) players.', 00H ; `string'
CONST	ENDS
;	COMDAT ??_C@_0BD@CHPEFBJL@Active?5Squads?3?5?$CFs?6?$AA@
CONST	SEGMENT
??_C@_0BD@CHPEFBJL@Active?5Squads?3?5?$CFs?6?$AA@ DB 'Active Squads: %s', 0aH
	DB	00H						; `string'
CONST	ENDS
;	COMDAT ??_C@_0BI@EFIGBKOB@Leader?3?5?$CFls?5?9?5Members?3?5?$AA@
CONST	SEGMENT
??_C@_0BI@EFIGBKOB@Leader?3?5?$CFls?5?9?5Members?3?5?$AA@ DB 'Leader: %ls'
	DB	' - Members: ', 00H				; `string'
