; Listing generated by Microsoft (R) Optimizing Compiler Version 17.00.61219.0 

	TITLE	X:\GitHub\Renegade\Dragonade_RxD\scripts\datasafe.cpp
	.686P
	.XMM
	include listing.inc
	.model	flat

INCLUDELIB MSVCRTD
INCLUDELIB OLDNAMES

PUBLIC	?ErrorVal@@3PADA				; ErrorVal
_BSS	SEGMENT
?ErrorVal@@3PADA DB 0400H DUP (?)			; ErrorVal
_BSS	ENDS
PUBLIC	??4SysTimeClass@@QAEAAV0@ABV0@@Z		; SysTimeClass::operator=
PUBLIC	?Get_Entry@GenericDataSafeClass@@SAPAVDataSafeEntryClass@@VDataSafeHandleClass@@@Z ; GenericDataSafeClass::Get_Entry
PUBLIC	?Get_Entry_Type@GenericDataSafeClass@@SAHVDataSafeHandleClass@@@Z ; GenericDataSafeClass::Get_Entry_Type
PUBLIC	?Reset_Timers@GenericDataSafeClass@@SAXXZ	; GenericDataSafeClass::Reset_Timers
PUBLIC	?Shutdown@GenericDataSafeClass@@IAEXXZ		; GenericDataSafeClass::Shutdown
PUBLIC	?Get_Entry_By_Index@GenericDataSafeClass@@KAPAVDataSafeEntryClass@@HH@Z ; GenericDataSafeClass::Get_Entry_By_Index
PUBLIC	?Shuffle@GenericDataSafeClass@@KAX_N@Z		; GenericDataSafeClass::Shuffle
PUBLIC	?Swap_Entries@GenericDataSafeClass@@KAXPAVDataSafeEntryClass@@0H@Z ; GenericDataSafeClass::Swap_Entries
PUBLIC	?Encrypt@GenericDataSafeClass@@KAXPAXHK_N@Z	; GenericDataSafeClass::Encrypt
PUBLIC	?Decrypt@GenericDataSafeClass@@KAXPAXHK_N@Z	; GenericDataSafeClass::Decrypt
PUBLIC	?Mem_Copy_Encrypt@GenericDataSafeClass@@KAXPAX0H_N@Z ; GenericDataSafeClass::Mem_Copy_Encrypt
PUBLIC	?Mem_Copy_Decrypt@GenericDataSafeClass@@KAXPAX0H_N@Z ; GenericDataSafeClass::Mem_Copy_Decrypt
PUBLIC	?Say_Security_Fault@GenericDataSafeClass@@KAXXZ	; GenericDataSafeClass::Say_Security_Fault
PUBLIC	?Get_Random_List_For_Insertion@GenericDataSafeClass@@KAHH@Z ; GenericDataSafeClass::Get_Random_List_For_Insertion
PUBLIC	?Random_Insertion@GenericDataSafeClass@@KAXPAVDataSafeEntryClass@@HH_N@Z ; GenericDataSafeClass::Random_Insertion
PUBLIC	?Create_Safe_List@GenericDataSafeClass@@KAHH@Z	; GenericDataSafeClass::Create_Safe_List
PUBLIC	?Get_Handle_ID@GenericDataSafeClass@@KAHH@Z	; GenericDataSafeClass::Get_Handle_ID
PUBLIC	?Remove_From_List@GenericDataSafeClass@@KAXHPAVDataSafeEntryClass@@@Z ; GenericDataSafeClass::Remove_From_List
PUBLIC	?Free_Handle_ID@GenericDataSafeClass@@KAXHH@Z	; GenericDataSafeClass::Free_Handle_ID
PUBLIC	??$ResolveGameReference@K@@YAAAKHHH@Z		; ResolveGameReference<unsigned long>
PUBLIC	??$ResolveGameReference@VDataSafeHandleClass@@@@YAAAVDataSafeHandleClass@@HHH@Z ; ResolveGameReference<DataSafeHandleClass>
PUBLIC	??$ResolveGameReference@H@@YAAAHHHH@Z		; ResolveGameReference<int>
PUBLIC	??$ResolveGameReference@V?$RefArray@PAVDataSafeEntryListClass@@$0CAAA@@@@@YAAAV?$RefArray@PAVDataSafeEntryListClass@@$0CAAA@@@HHH@Z ; ResolveGameReference<RefArray<DataSafeEntryListClass *,8192> >
PUBLIC	??$ResolveGameReference@V?$RefArray@VDataSafeEntryTypeClass@@$0IA@@@@@YAAAV?$RefArray@VDataSafeEntryTypeClass@@$0IA@@@HHH@Z ; ResolveGameReference<RefArray<DataSafeEntryTypeClass,128> >
PUBLIC	??$ResolveGameReference@I@@YAAAIHHH@Z		; ResolveGameReference<unsigned int>
PUBLIC	??$ResolveGameReference@V?$RefArray@V?$RefArray@D$03@@$07@@@@YAAAV?$RefArray@V?$RefArray@D$03@@$07@@HHH@Z ; ResolveGameReference<RefArray<RefArray<char,4>,8> >
PUBLIC	?PreferredThread@GenericDataSafeClass@@1AAIA	; GenericDataSafeClass::PreferredThread
PUBLIC	?SimpleKey@GenericDataSafeClass@@1AAKA		; GenericDataSafeClass::SimpleKey
PUBLIC	?HandleKey@GenericDataSafeClass@@1AAKA		; GenericDataSafeClass::HandleKey
PUBLIC	?NumLists@GenericDataSafeClass@@1AAHA		; GenericDataSafeClass::NumLists
PUBLIC	?Safe@GenericDataSafeClass@@1AAV?$RefArray@PAVDataSafeEntryListClass@@$0CAAA@@@A ; GenericDataSafeClass::Safe
PUBLIC	?Checksum@GenericDataSafeClass@@1AAKA		; GenericDataSafeClass::Checksum
PUBLIC	?ShuffleDelay@GenericDataSafeClass@@1AAKA	; GenericDataSafeClass::ShuffleDelay
PUBLIC	?SecurityCheckDelay@GenericDataSafeClass@@1AAKA	; GenericDataSafeClass::SecurityCheckDelay
PUBLIC	?TypeList@GenericDataSafeClass@@1AAV?$RefArray@VDataSafeEntryTypeClass@@$0IA@@@A ; GenericDataSafeClass::TypeList
PUBLIC	?TypeListCount@GenericDataSafeClass@@1AAHA	; GenericDataSafeClass::TypeListCount
PUBLIC	?SentinelOne@GenericDataSafeClass@@1AAVDataSafeHandleClass@@A ; GenericDataSafeClass::SentinelOne
PUBLIC	?SentinelTwo@GenericDataSafeClass@@1AAVDataSafeHandleClass@@A ; GenericDataSafeClass::SentinelTwo
PUBLIC	?CRCErrors@GenericDataSafeClass@@1AAHA		; GenericDataSafeClass::CRCErrors
PUBLIC	?Type@?$DataSafeClass@H@@0AAHA			; DataSafeClass<int>::Type
PUBLIC	?MinSlop@?$DataSafeClass@H@@0AAHA		; DataSafeClass<int>::MinSlop
PUBLIC	?ReturnList@?$DataSafeClass@H@@0AAV?$RefArray@V?$RefArray@D$03@@$07@@A ; DataSafeClass<int>::ReturnList
PUBLIC	?ReturnIndex@?$DataSafeClass@H@@0AAHA		; DataSafeClass<int>::ReturnIndex
PUBLIC	?Type@?$DataSafeClass@M@@0AAHA			; DataSafeClass<float>::Type
PUBLIC	?MinSlop@?$DataSafeClass@M@@0AAHA		; DataSafeClass<float>::MinSlop
PUBLIC	?ReturnList@?$DataSafeClass@M@@0AAV?$RefArray@V?$RefArray@D$03@@$07@@A ; DataSafeClass<float>::ReturnList
PUBLIC	?ReturnIndex@?$DataSafeClass@M@@0AAHA		; DataSafeClass<float>::ReturnIndex
PUBLIC	?Type@?$DataSafeClass@I@@0AAHA			; DataSafeClass<unsigned int>::Type
PUBLIC	?MinSlop@?$DataSafeClass@I@@0AAHA		; DataSafeClass<unsigned int>::MinSlop
PUBLIC	?ReturnList@?$DataSafeClass@I@@0AAV?$RefArray@V?$RefArray@D$03@@$07@@A ; DataSafeClass<unsigned int>::ReturnList
PUBLIC	?ReturnIndex@?$DataSafeClass@I@@0AAHA		; DataSafeClass<unsigned int>::ReturnIndex
EXTRN	?HookupAT3@@YAPAXPAX000@Z:PROC			; HookupAT3
EXTRN	?InitEngine@@YAXXZ:PROC				; InitEngine
EXTRN	?Exe@@3HA:DWORD					; Exe
_BSS	SEGMENT
?PreferredThread@GenericDataSafeClass@@1AAIA DD 01H DUP (?) ; GenericDataSafeClass::PreferredThread
?SimpleKey@GenericDataSafeClass@@1AAKA DD 01H DUP (?)	; GenericDataSafeClass::SimpleKey
?HandleKey@GenericDataSafeClass@@1AAKA DD 01H DUP (?)	; GenericDataSafeClass::HandleKey
?NumLists@GenericDataSafeClass@@1AAHA DD 01H DUP (?)	; GenericDataSafeClass::NumLists
?Safe@GenericDataSafeClass@@1AAV?$RefArray@PAVDataSafeEntryListClass@@$0CAAA@@@A DD 01H DUP (?) ; GenericDataSafeClass::Safe
?Checksum@GenericDataSafeClass@@1AAKA DD 01H DUP (?)	; GenericDataSafeClass::Checksum
?ShuffleDelay@GenericDataSafeClass@@1AAKA DD 01H DUP (?) ; GenericDataSafeClass::ShuffleDelay
?SecurityCheckDelay@GenericDataSafeClass@@1AAKA DD 01H DUP (?) ; GenericDataSafeClass::SecurityCheckDelay
?TypeList@GenericDataSafeClass@@1AAV?$RefArray@VDataSafeEntryTypeClass@@$0IA@@@A DD 01H DUP (?) ; GenericDataSafeClass::TypeList
?TypeListCount@GenericDataSafeClass@@1AAHA DD 01H DUP (?) ; GenericDataSafeClass::TypeListCount
?SentinelOne@GenericDataSafeClass@@1AAVDataSafeHandleClass@@A DD 01H DUP (?) ; GenericDataSafeClass::SentinelOne
?SentinelTwo@GenericDataSafeClass@@1AAVDataSafeHandleClass@@A DD 01H DUP (?) ; GenericDataSafeClass::SentinelTwo
?CRCErrors@GenericDataSafeClass@@1AAHA DD 01H DUP (?)	; GenericDataSafeClass::CRCErrors
_BSS	ENDS
;	COMDAT ?Type@?$DataSafeClass@H@@0AAHA
_BSS	SEGMENT
?Type@?$DataSafeClass@H@@0AAHA DD 01H DUP (?)		; DataSafeClass<int>::Type
_BSS	ENDS
;	COMDAT ?MinSlop@?$DataSafeClass@H@@0AAHA
_BSS	SEGMENT
?MinSlop@?$DataSafeClass@H@@0AAHA DD 01H DUP (?)	; DataSafeClass<int>::MinSlop
_BSS	ENDS
;	COMDAT ?ReturnList@?$DataSafeClass@H@@0AAV?$RefArray@V?$RefArray@D$03@@$07@@A
_BSS	SEGMENT
?ReturnList@?$DataSafeClass@H@@0AAV?$RefArray@V?$RefArray@D$03@@$07@@A DD 01H DUP (?) ; DataSafeClass<int>::ReturnList
_BSS	ENDS
;	COMDAT ?ReturnIndex@?$DataSafeClass@H@@0AAHA
_BSS	SEGMENT
?ReturnIndex@?$DataSafeClass@H@@0AAHA DD 01H DUP (?)	; DataSafeClass<int>::ReturnIndex
_BSS	ENDS
;	COMDAT ?Type@?$DataSafeClass@M@@0AAHA
_BSS	SEGMENT
?Type@?$DataSafeClass@M@@0AAHA DD 01H DUP (?)		; DataSafeClass<float>::Type
_BSS	ENDS
;	COMDAT ?MinSlop@?$DataSafeClass@M@@0AAHA
_BSS	SEGMENT
?MinSlop@?$DataSafeClass@M@@0AAHA DD 01H DUP (?)	; DataSafeClass<float>::MinSlop
_BSS	ENDS
;	COMDAT ?ReturnList@?$DataSafeClass@M@@0AAV?$RefArray@V?$RefArray@D$03@@$07@@A
_BSS	SEGMENT
?ReturnList@?$DataSafeClass@M@@0AAV?$RefArray@V?$RefArray@D$03@@$07@@A DD 01H DUP (?) ; DataSafeClass<float>::ReturnList
_BSS	ENDS
;	COMDAT ?ReturnIndex@?$DataSafeClass@M@@0AAHA
_BSS	SEGMENT
?ReturnIndex@?$DataSafeClass@M@@0AAHA DD 01H DUP (?)	; DataSafeClass<float>::ReturnIndex
_BSS	ENDS
;	COMDAT ?Type@?$DataSafeClass@I@@0AAHA
_BSS	SEGMENT
?Type@?$DataSafeClass@I@@0AAHA DD 01H DUP (?)		; DataSafeClass<unsigned int>::Type
_BSS	ENDS
;	COMDAT ?MinSlop@?$DataSafeClass@I@@0AAHA
_BSS	SEGMENT
?MinSlop@?$DataSafeClass@I@@0AAHA DD 01H DUP (?)	; DataSafeClass<unsigned int>::MinSlop
_BSS	ENDS
;	COMDAT ?ReturnList@?$DataSafeClass@I@@0AAV?$RefArray@V?$RefArray@D$03@@$07@@A
_BSS	SEGMENT
?ReturnList@?$DataSafeClass@I@@0AAV?$RefArray@V?$RefArray@D$03@@$07@@A DD 01H DUP (?) ; DataSafeClass<unsigned int>::ReturnList
_BSS	ENDS
;	COMDAT ?ReturnIndex@?$DataSafeClass@I@@0AAHA
_BSS	SEGMENT
?ReturnIndex@?$DataSafeClass@I@@0AAHA DD 01H DUP (?)	; DataSafeClass<unsigned int>::ReturnIndex
_BSS	ENDS
CRT$XCL	SEGMENT
?SimpleKey$initializer$@GenericDataSafeClass@@1P6AXXZA DD FLAT:??__E?SimpleKey@GenericDataSafeClass@@1AAKA@@YAXXZ ; GenericDataSafeClass::SimpleKey$initializer$
CRT$XCL	ENDS
CRT$XCL	SEGMENT
?HandleKey$initializer$@GenericDataSafeClass@@1P6AXXZA DD FLAT:??__E?HandleKey@GenericDataSafeClass@@1AAKA@@YAXXZ ; GenericDataSafeClass::HandleKey$initializer$
CRT$XCL	ENDS
CRT$XCL	SEGMENT
?Checksum$initializer$@GenericDataSafeClass@@1P6AXXZA DD FLAT:??__E?Checksum@GenericDataSafeClass@@1AAKA@@YAXXZ ; GenericDataSafeClass::Checksum$initializer$
CRT$XCL	ENDS
CRT$XCL	SEGMENT
?ShuffleDelay$initializer$@GenericDataSafeClass@@1P6AXXZA DD FLAT:??__E?ShuffleDelay@GenericDataSafeClass@@1AAKA@@YAXXZ ; GenericDataSafeClass::ShuffleDelay$initializer$
CRT$XCL	ENDS
CRT$XCL	SEGMENT
?SecurityCheckDelay$initializer$@GenericDataSafeClass@@1P6AXXZA DD FLAT:??__E?SecurityCheckDelay@GenericDataSafeClass@@1AAKA@@YAXXZ ; GenericDataSafeClass::SecurityCheckDelay$initializer$
CRT$XCL	ENDS
CRT$XCL	SEGMENT
?SentinelOne$initializer$@GenericDataSafeClass@@1P6AXXZA DD FLAT:??__E?SentinelOne@GenericDataSafeClass@@1AAVDataSafeHandleClass@@A@@YAXXZ ; GenericDataSafeClass::SentinelOne$initializer$
CRT$XCL	ENDS
CRT$XCL	SEGMENT
?NumLists$initializer$@GenericDataSafeClass@@1P6AXXZA DD FLAT:??__E?NumLists@GenericDataSafeClass@@1AAHA@@YAXXZ ; GenericDataSafeClass::NumLists$initializer$
CRT$XCL	ENDS
CRT$XCL	SEGMENT
?Safe$initializer$@GenericDataSafeClass@@1P6AXXZA DD FLAT:??__E?Safe@GenericDataSafeClass@@1AAV?$RefArray@PAVDataSafeEntryListClass@@$0CAAA@@@A@@YAXXZ ; GenericDataSafeClass::Safe$initializer$
CRT$XCL	ENDS
CRT$XCL	SEGMENT
?TypeList$initializer$@GenericDataSafeClass@@1P6AXXZA DD FLAT:??__E?TypeList@GenericDataSafeClass@@1AAV?$RefArray@VDataSafeEntryTypeClass@@$0IA@@@A@@YAXXZ ; GenericDataSafeClass::TypeList$initializer$
CRT$XCL	ENDS
CRT$XCL	SEGMENT
?TypeListCount$initializer$@GenericDataSafeClass@@1P6AXXZA DD FLAT:??__E?TypeListCount@GenericDataSafeClass@@1AAHA@@YAXXZ ; GenericDataSafeClass::TypeListCount$initializer$
CRT$XCL	ENDS
CRT$XCL	SEGMENT
?SentinelTwo$initializer$@GenericDataSafeClass@@1P6AXXZA DD FLAT:??__E?SentinelTwo@GenericDataSafeClass@@1AAVDataSafeHandleClass@@A@@YAXXZ ; GenericDataSafeClass::SentinelTwo$initializer$
CRT$XCL	ENDS
CRT$XCL	SEGMENT
?CRCErrors$initializer$@GenericDataSafeClass@@1P6AXXZA DD FLAT:??__E?CRCErrors@GenericDataSafeClass@@1AAHA@@YAXXZ ; GenericDataSafeClass::CRCErrors$initializer$
CRT$XCL	ENDS
CRT$XCL	SEGMENT
?PreferredThread$initializer$@GenericDataSafeClass@@1P6AXXZA DD FLAT:??__E?PreferredThread@GenericDataSafeClass@@1AAIA@@YAXXZ ; GenericDataSafeClass::PreferredThread$initializer$
CRT$XCL	ENDS
;	COMDAT CRT$XCL
CRT$XCL	SEGMENT
?ReturnIndex$initializer$@?$DataSafeClass@H@@0P6AXXZA DD FLAT:??__E?ReturnIndex@?$DataSafeClass@H@@0AAHA@@YAXXZ ; DataSafeClass<int>::ReturnIndex$initializer$
CRT$XCL	ENDS
;	COMDAT CRT$XCL
CRT$XCL	SEGMENT
?ReturnList$initializer$@?$DataSafeClass@H@@0P6AXXZA DD FLAT:??__E?ReturnList@?$DataSafeClass@H@@0AAV?$RefArray@V?$RefArray@D$03@@$07@@A@@YAXXZ ; DataSafeClass<int>::ReturnList$initializer$
CRT$XCL	ENDS
;	COMDAT CRT$XCL
CRT$XCL	SEGMENT
?MinSlop$initializer$@?$DataSafeClass@H@@0P6AXXZA DD FLAT:??__E?MinSlop@?$DataSafeClass@H@@0AAHA@@YAXXZ ; DataSafeClass<int>::MinSlop$initializer$
CRT$XCL	ENDS
;	COMDAT CRT$XCL
CRT$XCL	SEGMENT
?Type$initializer$@?$DataSafeClass@H@@0P6AXXZA DD FLAT:??__E?Type@?$DataSafeClass@H@@0AAHA@@YAXXZ ; DataSafeClass<int>::Type$initializer$
CRT$XCL	ENDS
;	COMDAT CRT$XCL
CRT$XCL	SEGMENT
?ReturnIndex$initializer$@?$DataSafeClass@M@@0P6AXXZA DD FLAT:??__E?ReturnIndex@?$DataSafeClass@M@@0AAHA@@YAXXZ ; DataSafeClass<float>::ReturnIndex$initializer$
CRT$XCL	ENDS
;	COMDAT CRT$XCL
CRT$XCL	SEGMENT
?ReturnList$initializer$@?$DataSafeClass@M@@0P6AXXZA DD FLAT:??__E?ReturnList@?$DataSafeClass@M@@0AAV?$RefArray@V?$RefArray@D$03@@$07@@A@@YAXXZ ; DataSafeClass<float>::ReturnList$initializer$
CRT$XCL	ENDS
;	COMDAT CRT$XCL
CRT$XCL	SEGMENT
?MinSlop$initializer$@?$DataSafeClass@M@@0P6AXXZA DD FLAT:??__E?MinSlop@?$DataSafeClass@M@@0AAHA@@YAXXZ ; DataSafeClass<float>::MinSlop$initializer$
CRT$XCL	ENDS
;	COMDAT CRT$XCL
CRT$XCL	SEGMENT
?Type$initializer$@?$DataSafeClass@M@@0P6AXXZA DD FLAT:??__E?Type@?$DataSafeClass@M@@0AAHA@@YAXXZ ; DataSafeClass<float>::Type$initializer$
CRT$XCL	ENDS
;	COMDAT CRT$XCL
CRT$XCL	SEGMENT
?ReturnIndex$initializer$@?$DataSafeClass@I@@0P6AXXZA DD FLAT:??__E?ReturnIndex@?$DataSafeClass@I@@0AAHA@@YAXXZ ; DataSafeClass<unsigned int>::ReturnIndex$initializer$
CRT$XCL	ENDS
;	COMDAT CRT$XCL
CRT$XCL	SEGMENT
?ReturnList$initializer$@?$DataSafeClass@I@@0P6AXXZA DD FLAT:??__E?ReturnList@?$DataSafeClass@I@@0AAV?$RefArray@V?$RefArray@D$03@@$07@@A@@YAXXZ ; DataSafeClass<unsigned int>::ReturnList$initializer$
CRT$XCL	ENDS
;	COMDAT CRT$XCL
CRT$XCL	SEGMENT
?MinSlop$initializer$@?$DataSafeClass@I@@0P6AXXZA DD FLAT:??__E?MinSlop@?$DataSafeClass@I@@0AAHA@@YAXXZ ; DataSafeClass<unsigned int>::MinSlop$initializer$
CRT$XCL	ENDS
;	COMDAT CRT$XCL
CRT$XCL	SEGMENT
?Type$initializer$@?$DataSafeClass@I@@0P6AXXZA DD FLAT:??__E?Type@?$DataSafeClass@I@@0AAHA@@YAXXZ ; DataSafeClass<unsigned int>::Type$initializer$
CRT$XCL	ENDS
; Function compile flags: /Odtp /ZI
; File x:\github\renegade\dragonade_rxd\scripts\datasafe.cpp
;	COMDAT ??__E?Type@?$DataSafeClass@I@@0AAHA@@YAXXZ
text$yc	SEGMENT
??__E?Type@?$DataSafeClass@I@@0AAHA@@YAXXZ PROC		; `dynamic initializer for 'DataSafeClass<unsigned int>::Type'', COMDAT

; 124  : SCRIPTS_API REF_DEF2(int, DataSafeClass<unsigned int>::Type, 0x0082947C, 0x00828664);

	push	ebp
	mov	ebp, esp
	sub	esp, 64					; 00000040H
	push	ebx
	push	esi
	push	edi
	push	0
	push	8554084					; 00828664H
	push	8557692					; 0082947cH
	call	??$ResolveGameReference@H@@YAAAHHHH@Z	; ResolveGameReference<int>
	add	esp, 12					; 0000000cH
	mov	DWORD PTR ?Type@?$DataSafeClass@I@@0AAHA, eax ; DataSafeClass<unsigned int>::Type
	pop	edi
	pop	esi
	pop	ebx
	mov	esp, ebp
	pop	ebp
	ret	0
??__E?Type@?$DataSafeClass@I@@0AAHA@@YAXXZ ENDP		; `dynamic initializer for 'DataSafeClass<unsigned int>::Type''
text$yc	ENDS
; Function compile flags: /Odtp /ZI
; File x:\github\renegade\dragonade_rxd\scripts\datasafe.cpp
;	COMDAT ??__E?MinSlop@?$DataSafeClass@I@@0AAHA@@YAXXZ
text$yc	SEGMENT
??__E?MinSlop@?$DataSafeClass@I@@0AAHA@@YAXXZ PROC	; `dynamic initializer for 'DataSafeClass<unsigned int>::MinSlop'', COMDAT

; 123  : SCRIPTS_API REF_DEF2(int, DataSafeClass<unsigned int>::MinSlop, 0x00820DD4, 0x0081FFBC);

	push	ebp
	mov	ebp, esp
	sub	esp, 64					; 00000040H
	push	ebx
	push	esi
	push	edi
	push	0
	push	8519612					; 0081ffbcH
	push	8523220					; 00820dd4H
	call	??$ResolveGameReference@H@@YAAAHHHH@Z	; ResolveGameReference<int>
	add	esp, 12					; 0000000cH
	mov	DWORD PTR ?MinSlop@?$DataSafeClass@I@@0AAHA, eax ; DataSafeClass<unsigned int>::MinSlop
	pop	edi
	pop	esi
	pop	ebx
	mov	esp, ebp
	pop	ebp
	ret	0
??__E?MinSlop@?$DataSafeClass@I@@0AAHA@@YAXXZ ENDP	; `dynamic initializer for 'DataSafeClass<unsigned int>::MinSlop''
text$yc	ENDS
; Function compile flags: /Odtp /ZI
; File x:\github\renegade\dragonade_rxd\scripts\datasafe.cpp
;	COMDAT ??__E?ReturnList@?$DataSafeClass@I@@0AAV?$RefArray@V?$RefArray@D$03@@$07@@A@@YAXXZ
text$yc	SEGMENT
??__E?ReturnList@?$DataSafeClass@I@@0AAV?$RefArray@V?$RefArray@D$03@@$07@@A@@YAXXZ PROC ; `dynamic initializer for 'DataSafeClass<unsigned int>::ReturnList'', COMDAT

; 122  : SCRIPTS_API REF_DEF2(TT_NOOP(RefArray<RefArray<char, sizeof(unsigned int)>, MAX_OBJECT_COPIES>), DataSafeClass<unsigned int>::ReturnList, 0x00820DE0, 0x0081FFC8);

	push	ebp
	mov	ebp, esp
	sub	esp, 64					; 00000040H
	push	ebx
	push	esi
	push	edi
	push	0
	push	8519624					; 0081ffc8H
	push	8523232					; 00820de0H
	call	??$ResolveGameReference@V?$RefArray@V?$RefArray@D$03@@$07@@@@YAAAV?$RefArray@V?$RefArray@D$03@@$07@@HHH@Z ; ResolveGameReference<RefArray<RefArray<char,4>,8> >
	add	esp, 12					; 0000000cH
	mov	DWORD PTR ?ReturnList@?$DataSafeClass@I@@0AAV?$RefArray@V?$RefArray@D$03@@$07@@A, eax ; DataSafeClass<unsigned int>::ReturnList
	pop	edi
	pop	esi
	pop	ebx
	mov	esp, ebp
	pop	ebp
	ret	0
??__E?ReturnList@?$DataSafeClass@I@@0AAV?$RefArray@V?$RefArray@D$03@@$07@@A@@YAXXZ ENDP ; `dynamic initializer for 'DataSafeClass<unsigned int>::ReturnList''
text$yc	ENDS
; Function compile flags: /Odtp /ZI
; File x:\github\renegade\dragonade_rxd\scripts\datasafe.cpp
;	COMDAT ??__E?ReturnIndex@?$DataSafeClass@I@@0AAHA@@YAXXZ
text$yc	SEGMENT
??__E?ReturnIndex@?$DataSafeClass@I@@0AAHA@@YAXXZ PROC	; `dynamic initializer for 'DataSafeClass<unsigned int>::ReturnIndex'', COMDAT

; 121  : SCRIPTS_API REF_DEF2(int, DataSafeClass<unsigned int>::ReturnIndex, 0x00829474, 0x0082865C);

	push	ebp
	mov	ebp, esp
	sub	esp, 64					; 00000040H
	push	ebx
	push	esi
	push	edi
	push	0
	push	8554076					; 0082865cH
	push	8557684					; 00829474H
	call	??$ResolveGameReference@H@@YAAAHHHH@Z	; ResolveGameReference<int>
	add	esp, 12					; 0000000cH
	mov	DWORD PTR ?ReturnIndex@?$DataSafeClass@I@@0AAHA, eax ; DataSafeClass<unsigned int>::ReturnIndex
	pop	edi
	pop	esi
	pop	ebx
	mov	esp, ebp
	pop	ebp
	ret	0
??__E?ReturnIndex@?$DataSafeClass@I@@0AAHA@@YAXXZ ENDP	; `dynamic initializer for 'DataSafeClass<unsigned int>::ReturnIndex''
text$yc	ENDS
; Function compile flags: /Odtp /ZI
; File x:\github\renegade\dragonade_rxd\scripts\datasafe.cpp
;	COMDAT ??__E?Type@?$DataSafeClass@M@@0AAHA@@YAXXZ
text$yc	SEGMENT
??__E?Type@?$DataSafeClass@M@@0AAHA@@YAXXZ PROC		; `dynamic initializer for 'DataSafeClass<float>::Type'', COMDAT

; 119  : SCRIPTS_API REF_DEF2(int, DataSafeClass<float>::Type, 0x008294E0, 0x008286C8);

	push	ebp
	mov	ebp, esp
	sub	esp, 64					; 00000040H
	push	ebx
	push	esi
	push	edi
	push	0
	push	8554184					; 008286c8H
	push	8557792					; 008294e0H
	call	??$ResolveGameReference@H@@YAAAHHHH@Z	; ResolveGameReference<int>
	add	esp, 12					; 0000000cH
	mov	DWORD PTR ?Type@?$DataSafeClass@M@@0AAHA, eax ; DataSafeClass<float>::Type
	pop	edi
	pop	esi
	pop	ebx
	mov	esp, ebp
	pop	ebp
	ret	0
??__E?Type@?$DataSafeClass@M@@0AAHA@@YAXXZ ENDP		; `dynamic initializer for 'DataSafeClass<float>::Type''
text$yc	ENDS
; Function compile flags: /Odtp /ZI
; File x:\github\renegade\dragonade_rxd\scripts\datasafe.cpp
;	COMDAT ??__E?MinSlop@?$DataSafeClass@M@@0AAHA@@YAXXZ
text$yc	SEGMENT
??__E?MinSlop@?$DataSafeClass@M@@0AAHA@@YAXXZ PROC	; `dynamic initializer for 'DataSafeClass<float>::MinSlop'', COMDAT

; 118  : SCRIPTS_API REF_DEF2(int, DataSafeClass<float>::MinSlop, 0x0082946C, 0x00828654);

	push	ebp
	mov	ebp, esp
	sub	esp, 64					; 00000040H
	push	ebx
	push	esi
	push	edi
	push	0
	push	8554068					; 00828654H
	push	8557676					; 0082946cH
	call	??$ResolveGameReference@H@@YAAAHHHH@Z	; ResolveGameReference<int>
	add	esp, 12					; 0000000cH
	mov	DWORD PTR ?MinSlop@?$DataSafeClass@M@@0AAHA, eax ; DataSafeClass<float>::MinSlop
	pop	edi
	pop	esi
	pop	ebx
	mov	esp, ebp
	pop	ebp
	ret	0
??__E?MinSlop@?$DataSafeClass@M@@0AAHA@@YAXXZ ENDP	; `dynamic initializer for 'DataSafeClass<float>::MinSlop''
text$yc	ENDS
; Function compile flags: /Odtp /ZI
; File x:\github\renegade\dragonade_rxd\scripts\datasafe.cpp
;	COMDAT ??__E?ReturnList@?$DataSafeClass@M@@0AAV?$RefArray@V?$RefArray@D$03@@$07@@A@@YAXXZ
text$yc	SEGMENT
??__E?ReturnList@?$DataSafeClass@M@@0AAV?$RefArray@V?$RefArray@D$03@@$07@@A@@YAXXZ PROC ; `dynamic initializer for 'DataSafeClass<float>::ReturnList'', COMDAT

; 117  : SCRIPTS_API REF_DEF2(TT_NOOP(RefArray<RefArray<char, sizeof(float)>, MAX_OBJECT_COPIES>), DataSafeClass<float>::ReturnList, 0x008294B4, 0x0082869C);

	push	ebp
	mov	ebp, esp
	sub	esp, 64					; 00000040H
	push	ebx
	push	esi
	push	edi
	push	0
	push	8554140					; 0082869cH
	push	8557748					; 008294b4H
	call	??$ResolveGameReference@V?$RefArray@V?$RefArray@D$03@@$07@@@@YAAAV?$RefArray@V?$RefArray@D$03@@$07@@HHH@Z ; ResolveGameReference<RefArray<RefArray<char,4>,8> >
	add	esp, 12					; 0000000cH
	mov	DWORD PTR ?ReturnList@?$DataSafeClass@M@@0AAV?$RefArray@V?$RefArray@D$03@@$07@@A, eax ; DataSafeClass<float>::ReturnList
	pop	edi
	pop	esi
	pop	ebx
	mov	esp, ebp
	pop	ebp
	ret	0
??__E?ReturnList@?$DataSafeClass@M@@0AAV?$RefArray@V?$RefArray@D$03@@$07@@A@@YAXXZ ENDP ; `dynamic initializer for 'DataSafeClass<float>::ReturnList''
text$yc	ENDS
; Function compile flags: /Odtp /ZI
; File x:\github\renegade\dragonade_rxd\scripts\datasafe.cpp
;	COMDAT ??__E?ReturnIndex@?$DataSafeClass@M@@0AAHA@@YAXXZ
text$yc	SEGMENT
??__E?ReturnIndex@?$DataSafeClass@M@@0AAHA@@YAXXZ PROC	; `dynamic initializer for 'DataSafeClass<float>::ReturnIndex'', COMDAT

; 116  : SCRIPTS_API REF_DEF2(int, DataSafeClass<float>::ReturnIndex, 0x008294DC, 0x008286C4);

	push	ebp
	mov	ebp, esp
	sub	esp, 64					; 00000040H
	push	ebx
	push	esi
	push	edi
	push	0
	push	8554180					; 008286c4H
	push	8557788					; 008294dcH
	call	??$ResolveGameReference@H@@YAAAHHHH@Z	; ResolveGameReference<int>
	add	esp, 12					; 0000000cH
	mov	DWORD PTR ?ReturnIndex@?$DataSafeClass@M@@0AAHA, eax ; DataSafeClass<float>::ReturnIndex
	pop	edi
	pop	esi
	pop	ebx
	mov	esp, ebp
	pop	ebp
	ret	0
??__E?ReturnIndex@?$DataSafeClass@M@@0AAHA@@YAXXZ ENDP	; `dynamic initializer for 'DataSafeClass<float>::ReturnIndex''
text$yc	ENDS
; Function compile flags: /Odtp /ZI
; File x:\github\renegade\dragonade_rxd\scripts\datasafe.cpp
;	COMDAT ??__E?Type@?$DataSafeClass@H@@0AAHA@@YAXXZ
text$yc	SEGMENT
??__E?Type@?$DataSafeClass@H@@0AAHA@@YAXXZ PROC		; `dynamic initializer for 'DataSafeClass<int>::Type'', COMDAT

; 114  : SCRIPTS_API REF_DEF2(int, DataSafeClass<int>::Type, 0x00820DDC, 0x0081FFC4);

	push	ebp
	mov	ebp, esp
	sub	esp, 64					; 00000040H
	push	ebx
	push	esi
	push	edi
	push	0
	push	8519620					; 0081ffc4H
	push	8523228					; 00820ddcH
	call	??$ResolveGameReference@H@@YAAAHHHH@Z	; ResolveGameReference<int>
	add	esp, 12					; 0000000cH
	mov	DWORD PTR ?Type@?$DataSafeClass@H@@0AAHA, eax ; DataSafeClass<int>::Type
	pop	edi
	pop	esi
	pop	ebx
	mov	esp, ebp
	pop	ebp
	ret	0
??__E?Type@?$DataSafeClass@H@@0AAHA@@YAXXZ ENDP		; `dynamic initializer for 'DataSafeClass<int>::Type''
text$yc	ENDS
; Function compile flags: /Odtp /ZI
; File x:\github\renegade\dragonade_rxd\scripts\datasafe.cpp
;	COMDAT ??__E?MinSlop@?$DataSafeClass@H@@0AAHA@@YAXXZ
text$yc	SEGMENT
??__E?MinSlop@?$DataSafeClass@H@@0AAHA@@YAXXZ PROC	; `dynamic initializer for 'DataSafeClass<int>::MinSlop'', COMDAT

; 113  : SCRIPTS_API REF_DEF2(int, DataSafeClass<int>::MinSlop, 0x00828E44, 0x0082802C);

	push	ebp
	mov	ebp, esp
	sub	esp, 64					; 00000040H
	push	ebx
	push	esi
	push	edi
	push	0
	push	8552492					; 0082802cH
	push	8556100					; 00828e44H
	call	??$ResolveGameReference@H@@YAAAHHHH@Z	; ResolveGameReference<int>
	add	esp, 12					; 0000000cH
	mov	DWORD PTR ?MinSlop@?$DataSafeClass@H@@0AAHA, eax ; DataSafeClass<int>::MinSlop
	pop	edi
	pop	esi
	pop	ebx
	mov	esp, ebp
	pop	ebp
	ret	0
??__E?MinSlop@?$DataSafeClass@H@@0AAHA@@YAXXZ ENDP	; `dynamic initializer for 'DataSafeClass<int>::MinSlop''
text$yc	ENDS
; Function compile flags: /Odtp /ZI
; File x:\github\renegade\dragonade_rxd\scripts\datasafe.cpp
;	COMDAT ??__E?ReturnList@?$DataSafeClass@H@@0AAV?$RefArray@V?$RefArray@D$03@@$07@@A@@YAXXZ
text$yc	SEGMENT
??__E?ReturnList@?$DataSafeClass@H@@0AAV?$RefArray@V?$RefArray@D$03@@$07@@A@@YAXXZ PROC ; `dynamic initializer for 'DataSafeClass<int>::ReturnList'', COMDAT

; 112  : SCRIPTS_API REF_DEF2(TT_NOOP(RefArray<RefArray<char, sizeof(int)>, MAX_OBJECT_COPIES>), DataSafeClass<int>::ReturnList, 0x0082948C, 0x00828674);

	push	ebp
	mov	ebp, esp
	sub	esp, 64					; 00000040H
	push	ebx
	push	esi
	push	edi
	push	0
	push	8554100					; 00828674H
	push	8557708					; 0082948cH
	call	??$ResolveGameReference@V?$RefArray@V?$RefArray@D$03@@$07@@@@YAAAV?$RefArray@V?$RefArray@D$03@@$07@@HHH@Z ; ResolveGameReference<RefArray<RefArray<char,4>,8> >
	add	esp, 12					; 0000000cH
	mov	DWORD PTR ?ReturnList@?$DataSafeClass@H@@0AAV?$RefArray@V?$RefArray@D$03@@$07@@A, eax ; DataSafeClass<int>::ReturnList
	pop	edi
	pop	esi
	pop	ebx
	mov	esp, ebp
	pop	ebp
	ret	0
??__E?ReturnList@?$DataSafeClass@H@@0AAV?$RefArray@V?$RefArray@D$03@@$07@@A@@YAXXZ ENDP ; `dynamic initializer for 'DataSafeClass<int>::ReturnList''
text$yc	ENDS
; Function compile flags: /Odtp /ZI
; File x:\github\renegade\dragonade_rxd\scripts\defines.h
;	COMDAT ??$ResolveGameReference@V?$RefArray@V?$RefArray@D$03@@$07@@@@YAAAV?$RefArray@V?$RefArray@D$03@@$07@@HHH@Z
_TEXT	SEGMENT
tv68 = -76						; size = 4
tv69 = -72						; size = 4
tv70 = -68						; size = 4
_client$ = 8						; size = 4
_server$ = 12						; size = 4
_leveledit$ = 16					; size = 4
??$ResolveGameReference@V?$RefArray@V?$RefArray@D$03@@$07@@@@YAAAV?$RefArray@V?$RefArray@D$03@@$07@@HHH@Z PROC ; ResolveGameReference<RefArray<RefArray<char,4>,8> >, COMDAT

; 149  : {

	push	ebp
	mov	ebp, esp
	sub	esp, 76					; 0000004cH
	push	ebx
	push	esi
	push	edi

; 150  : 	if (Exe == 6) InitEngine();

	cmp	DWORD PTR ?Exe@@3HA, 6			; Exe
	jne	SHORT $LN1@ResolveGam
	call	?InitEngine@@YAXXZ			; InitEngine
$LN1@ResolveGam:

; 151  : #pragma warning(suppress: 6011) //warning C6011: dereferencing NULL pointer <name>
; 152  : 	return *((T*)((Exe == 0) ? client : ((Exe == 1) ? server : ((Exe == 4) ? leveledit : 0))));

	cmp	DWORD PTR ?Exe@@3HA, 0			; Exe
	jne	SHORT $LN8@ResolveGam
	mov	eax, DWORD PTR _client$[ebp]
	mov	DWORD PTR tv70[ebp], eax
	jmp	SHORT $LN9@ResolveGam
$LN8@ResolveGam:
	cmp	DWORD PTR ?Exe@@3HA, 1			; Exe
	jne	SHORT $LN6@ResolveGam
	mov	ecx, DWORD PTR _server$[ebp]
	mov	DWORD PTR tv69[ebp], ecx
	jmp	SHORT $LN7@ResolveGam
$LN6@ResolveGam:
	cmp	DWORD PTR ?Exe@@3HA, 4			; Exe
	jne	SHORT $LN4@ResolveGam
	mov	edx, DWORD PTR _leveledit$[ebp]
	mov	DWORD PTR tv68[ebp], edx
	jmp	SHORT $LN5@ResolveGam
$LN4@ResolveGam:
	mov	DWORD PTR tv68[ebp], 0
$LN5@ResolveGam:
	mov	eax, DWORD PTR tv68[ebp]
	mov	DWORD PTR tv69[ebp], eax
$LN7@ResolveGam:
	mov	ecx, DWORD PTR tv69[ebp]
	mov	DWORD PTR tv70[ebp], ecx
$LN9@ResolveGam:
	mov	eax, DWORD PTR tv70[ebp]

; 153  : };

	pop	edi
	pop	esi
	pop	ebx
	mov	esp, ebp
	pop	ebp
	ret	0
??$ResolveGameReference@V?$RefArray@V?$RefArray@D$03@@$07@@@@YAAAV?$RefArray@V?$RefArray@D$03@@$07@@HHH@Z ENDP ; ResolveGameReference<RefArray<RefArray<char,4>,8> >
_TEXT	ENDS
; Function compile flags: /Odtp /ZI
; File x:\github\renegade\dragonade_rxd\scripts\datasafe.cpp
;	COMDAT ??__E?ReturnIndex@?$DataSafeClass@H@@0AAHA@@YAXXZ
text$yc	SEGMENT
??__E?ReturnIndex@?$DataSafeClass@H@@0AAHA@@YAXXZ PROC	; `dynamic initializer for 'DataSafeClass<int>::ReturnIndex'', COMDAT

; 111  : SCRIPTS_API REF_DEF2(int, DataSafeClass<int>::ReturnIndex, 0x00829488, 0x00828670);

	push	ebp
	mov	ebp, esp
	sub	esp, 64					; 00000040H
	push	ebx
	push	esi
	push	edi
	push	0
	push	8554096					; 00828670H
	push	8557704					; 00829488H
	call	??$ResolveGameReference@H@@YAAAHHHH@Z	; ResolveGameReference<int>
	add	esp, 12					; 0000000cH
	mov	DWORD PTR ?ReturnIndex@?$DataSafeClass@H@@0AAHA, eax ; DataSafeClass<int>::ReturnIndex
	pop	edi
	pop	esi
	pop	ebx
	mov	esp, ebp
	pop	ebp
	ret	0
??__E?ReturnIndex@?$DataSafeClass@H@@0AAHA@@YAXXZ ENDP	; `dynamic initializer for 'DataSafeClass<int>::ReturnIndex''
text$yc	ENDS
; Function compile flags: /Odtp /ZI
; File x:\github\renegade\dragonade_rxd\scripts\datasafe.cpp
;	COMDAT ??__E?PreferredThread@GenericDataSafeClass@@1AAIA@@YAXXZ
text$yc	SEGMENT
??__E?PreferredThread@GenericDataSafeClass@@1AAIA@@YAXXZ PROC ; `dynamic initializer for 'GenericDataSafeClass::PreferredThread'', COMDAT

; 32   : SCRIPTS_API REF_DEF2(unsigned int, GenericDataSafeClass::PreferredThread, 0x00829480, 0x00828668);

	push	ebp
	mov	ebp, esp
	sub	esp, 64					; 00000040H
	push	ebx
	push	esi
	push	edi
	push	0
	push	8554088					; 00828668H
	push	8557696					; 00829480H
	call	??$ResolveGameReference@I@@YAAAIHHH@Z	; ResolveGameReference<unsigned int>
	add	esp, 12					; 0000000cH
	mov	DWORD PTR ?PreferredThread@GenericDataSafeClass@@1AAIA, eax ; GenericDataSafeClass::PreferredThread
	pop	edi
	pop	esi
	pop	ebx
	mov	esp, ebp
	pop	ebp
	ret	0
??__E?PreferredThread@GenericDataSafeClass@@1AAIA@@YAXXZ ENDP ; `dynamic initializer for 'GenericDataSafeClass::PreferredThread''
text$yc	ENDS
; Function compile flags: /Odtp /ZI
; File x:\github\renegade\dragonade_rxd\scripts\defines.h
;	COMDAT ??$ResolveGameReference@I@@YAAAIHHH@Z
_TEXT	SEGMENT
tv68 = -76						; size = 4
tv69 = -72						; size = 4
tv70 = -68						; size = 4
_client$ = 8						; size = 4
_server$ = 12						; size = 4
_leveledit$ = 16					; size = 4
??$ResolveGameReference@I@@YAAAIHHH@Z PROC		; ResolveGameReference<unsigned int>, COMDAT

; 149  : {

	push	ebp
	mov	ebp, esp
	sub	esp, 76					; 0000004cH
	push	ebx
	push	esi
	push	edi

; 150  : 	if (Exe == 6) InitEngine();

	cmp	DWORD PTR ?Exe@@3HA, 6			; Exe
	jne	SHORT $LN1@ResolveGam
	call	?InitEngine@@YAXXZ			; InitEngine
$LN1@ResolveGam:

; 151  : #pragma warning(suppress: 6011) //warning C6011: dereferencing NULL pointer <name>
; 152  : 	return *((T*)((Exe == 0) ? client : ((Exe == 1) ? server : ((Exe == 4) ? leveledit : 0))));

	cmp	DWORD PTR ?Exe@@3HA, 0			; Exe
	jne	SHORT $LN8@ResolveGam
	mov	eax, DWORD PTR _client$[ebp]
	mov	DWORD PTR tv70[ebp], eax
	jmp	SHORT $LN9@ResolveGam
$LN8@ResolveGam:
	cmp	DWORD PTR ?Exe@@3HA, 1			; Exe
	jne	SHORT $LN6@ResolveGam
	mov	ecx, DWORD PTR _server$[ebp]
	mov	DWORD PTR tv69[ebp], ecx
	jmp	SHORT $LN7@ResolveGam
$LN6@ResolveGam:
	cmp	DWORD PTR ?Exe@@3HA, 4			; Exe
	jne	SHORT $LN4@ResolveGam
	mov	edx, DWORD PTR _leveledit$[ebp]
	mov	DWORD PTR tv68[ebp], edx
	jmp	SHORT $LN5@ResolveGam
$LN4@ResolveGam:
	mov	DWORD PTR tv68[ebp], 0
$LN5@ResolveGam:
	mov	eax, DWORD PTR tv68[ebp]
	mov	DWORD PTR tv69[ebp], eax
$LN7@ResolveGam:
	mov	ecx, DWORD PTR tv69[ebp]
	mov	DWORD PTR tv70[ebp], ecx
$LN9@ResolveGam:
	mov	eax, DWORD PTR tv70[ebp]

; 153  : };

	pop	edi
	pop	esi
	pop	ebx
	mov	esp, ebp
	pop	ebp
	ret	0
??$ResolveGameReference@I@@YAAAIHHH@Z ENDP		; ResolveGameReference<unsigned int>
_TEXT	ENDS
; Function compile flags: /Odtp /ZI
; File x:\github\renegade\dragonade_rxd\scripts\datasafe.cpp
;	COMDAT ??__E?CRCErrors@GenericDataSafeClass@@1AAHA@@YAXXZ
text$yc	SEGMENT
??__E?CRCErrors@GenericDataSafeClass@@1AAHA@@YAXXZ PROC	; `dynamic initializer for 'GenericDataSafeClass::CRCErrors'', COMDAT

; 31   : SCRIPTS_API REF_DEF2(int, GenericDataSafeClass::CRCErrors, 0x008294F0, 0x008286D8);

	push	ebp
	mov	ebp, esp
	sub	esp, 64					; 00000040H
	push	ebx
	push	esi
	push	edi
	push	0
	push	8554200					; 008286d8H
	push	8557808					; 008294f0H
	call	??$ResolveGameReference@H@@YAAAHHHH@Z	; ResolveGameReference<int>
	add	esp, 12					; 0000000cH
	mov	DWORD PTR ?CRCErrors@GenericDataSafeClass@@1AAHA, eax ; GenericDataSafeClass::CRCErrors
	pop	edi
	pop	esi
	pop	ebx
	mov	esp, ebp
	pop	ebp
	ret	0
??__E?CRCErrors@GenericDataSafeClass@@1AAHA@@YAXXZ ENDP	; `dynamic initializer for 'GenericDataSafeClass::CRCErrors''
text$yc	ENDS
; Function compile flags: /Odtp /ZI
; File x:\github\renegade\dragonade_rxd\scripts\datasafe.cpp
;	COMDAT ??__E?SentinelTwo@GenericDataSafeClass@@1AAVDataSafeHandleClass@@A@@YAXXZ
text$yc	SEGMENT
??__E?SentinelTwo@GenericDataSafeClass@@1AAVDataSafeHandleClass@@A@@YAXXZ PROC ; `dynamic initializer for 'GenericDataSafeClass::SentinelTwo'', COMDAT

; 30   : SCRIPTS_API REF_DEF2(DataSafeHandleClass, GenericDataSafeClass::SentinelTwo, 0x008294B0, 0x00828698);

	push	ebp
	mov	ebp, esp
	sub	esp, 64					; 00000040H
	push	ebx
	push	esi
	push	edi
	push	0
	push	8554136					; 00828698H
	push	8557744					; 008294b0H
	call	??$ResolveGameReference@VDataSafeHandleClass@@@@YAAAVDataSafeHandleClass@@HHH@Z ; ResolveGameReference<DataSafeHandleClass>
	add	esp, 12					; 0000000cH
	mov	DWORD PTR ?SentinelTwo@GenericDataSafeClass@@1AAVDataSafeHandleClass@@A, eax ; GenericDataSafeClass::SentinelTwo
	pop	edi
	pop	esi
	pop	ebx
	mov	esp, ebp
	pop	ebp
	ret	0
??__E?SentinelTwo@GenericDataSafeClass@@1AAVDataSafeHandleClass@@A@@YAXXZ ENDP ; `dynamic initializer for 'GenericDataSafeClass::SentinelTwo''
text$yc	ENDS
; Function compile flags: /Odtp /ZI
; File x:\github\renegade\dragonade_rxd\scripts\datasafe.cpp
;	COMDAT ??__E?TypeListCount@GenericDataSafeClass@@1AAHA@@YAXXZ
text$yc	SEGMENT
??__E?TypeListCount@GenericDataSafeClass@@1AAHA@@YAXXZ PROC ; `dynamic initializer for 'GenericDataSafeClass::TypeListCount'', COMDAT

; 29   : SCRIPTS_API REF_DEF2(int, GenericDataSafeClass::TypeListCount, 0x008294EC, 0x008286D4);

	push	ebp
	mov	ebp, esp
	sub	esp, 64					; 00000040H
	push	ebx
	push	esi
	push	edi
	push	0
	push	8554196					; 008286d4H
	push	8557804					; 008294ecH
	call	??$ResolveGameReference@H@@YAAAHHHH@Z	; ResolveGameReference<int>
	add	esp, 12					; 0000000cH
	mov	DWORD PTR ?TypeListCount@GenericDataSafeClass@@1AAHA, eax ; GenericDataSafeClass::TypeListCount
	pop	edi
	pop	esi
	pop	ebx
	mov	esp, ebp
	pop	ebp
	ret	0
??__E?TypeListCount@GenericDataSafeClass@@1AAHA@@YAXXZ ENDP ; `dynamic initializer for 'GenericDataSafeClass::TypeListCount''
text$yc	ENDS
; Function compile flags: /Odtp /ZI
; File x:\github\renegade\dragonade_rxd\scripts\datasafe.cpp
;	COMDAT ??__E?TypeList@GenericDataSafeClass@@1AAV?$RefArray@VDataSafeEntryTypeClass@@$0IA@@@A@@YAXXZ
text$yc	SEGMENT
??__E?TypeList@GenericDataSafeClass@@1AAV?$RefArray@VDataSafeEntryTypeClass@@$0IA@@@A@@YAXXZ PROC ; `dynamic initializer for 'GenericDataSafeClass::TypeList'', COMDAT

; 28   : SCRIPTS_API REF_DEF2(TT_NOOP(RefArray<DataSafeEntryTypeClass, MAX_DATASAFE_TYPES>), GenericDataSafeClass::TypeList, 0x00828E60, 0x00828048);

	push	ebp
	mov	ebp, esp
	sub	esp, 64					; 00000040H
	push	ebx
	push	esi
	push	edi
	push	0
	push	8552520					; 00828048H
	push	8556128					; 00828e60H
	call	??$ResolveGameReference@V?$RefArray@VDataSafeEntryTypeClass@@$0IA@@@@@YAAAV?$RefArray@VDataSafeEntryTypeClass@@$0IA@@@HHH@Z ; ResolveGameReference<RefArray<DataSafeEntryTypeClass,128> >
	add	esp, 12					; 0000000cH
	mov	DWORD PTR ?TypeList@GenericDataSafeClass@@1AAV?$RefArray@VDataSafeEntryTypeClass@@$0IA@@@A, eax ; GenericDataSafeClass::TypeList
	pop	edi
	pop	esi
	pop	ebx
	mov	esp, ebp
	pop	ebp
	ret	0
??__E?TypeList@GenericDataSafeClass@@1AAV?$RefArray@VDataSafeEntryTypeClass@@$0IA@@@A@@YAXXZ ENDP ; `dynamic initializer for 'GenericDataSafeClass::TypeList''
text$yc	ENDS
; Function compile flags: /Odtp /ZI
; File x:\github\renegade\dragonade_rxd\scripts\defines.h
;	COMDAT ??$ResolveGameReference@V?$RefArray@VDataSafeEntryTypeClass@@$0IA@@@@@YAAAV?$RefArray@VDataSafeEntryTypeClass@@$0IA@@@HHH@Z
_TEXT	SEGMENT
tv68 = -76						; size = 4
tv69 = -72						; size = 4
tv70 = -68						; size = 4
_client$ = 8						; size = 4
_server$ = 12						; size = 4
_leveledit$ = 16					; size = 4
??$ResolveGameReference@V?$RefArray@VDataSafeEntryTypeClass@@$0IA@@@@@YAAAV?$RefArray@VDataSafeEntryTypeClass@@$0IA@@@HHH@Z PROC ; ResolveGameReference<RefArray<DataSafeEntryTypeClass,128> >, COMDAT

; 149  : {

	push	ebp
	mov	ebp, esp
	sub	esp, 76					; 0000004cH
	push	ebx
	push	esi
	push	edi

; 150  : 	if (Exe == 6) InitEngine();

	cmp	DWORD PTR ?Exe@@3HA, 6			; Exe
	jne	SHORT $LN1@ResolveGam
	call	?InitEngine@@YAXXZ			; InitEngine
$LN1@ResolveGam:

; 151  : #pragma warning(suppress: 6011) //warning C6011: dereferencing NULL pointer <name>
; 152  : 	return *((T*)((Exe == 0) ? client : ((Exe == 1) ? server : ((Exe == 4) ? leveledit : 0))));

	cmp	DWORD PTR ?Exe@@3HA, 0			; Exe
	jne	SHORT $LN8@ResolveGam
	mov	eax, DWORD PTR _client$[ebp]
	mov	DWORD PTR tv70[ebp], eax
	jmp	SHORT $LN9@ResolveGam
$LN8@ResolveGam:
	cmp	DWORD PTR ?Exe@@3HA, 1			; Exe
	jne	SHORT $LN6@ResolveGam
	mov	ecx, DWORD PTR _server$[ebp]
	mov	DWORD PTR tv69[ebp], ecx
	jmp	SHORT $LN7@ResolveGam
$LN6@ResolveGam:
	cmp	DWORD PTR ?Exe@@3HA, 4			; Exe
	jne	SHORT $LN4@ResolveGam
	mov	edx, DWORD PTR _leveledit$[ebp]
	mov	DWORD PTR tv68[ebp], edx
	jmp	SHORT $LN5@ResolveGam
$LN4@ResolveGam:
	mov	DWORD PTR tv68[ebp], 0
$LN5@ResolveGam:
	mov	eax, DWORD PTR tv68[ebp]
	mov	DWORD PTR tv69[ebp], eax
$LN7@ResolveGam:
	mov	ecx, DWORD PTR tv69[ebp]
	mov	DWORD PTR tv70[ebp], ecx
$LN9@ResolveGam:
	mov	eax, DWORD PTR tv70[ebp]

; 153  : };

	pop	edi
	pop	esi
	pop	ebx
	mov	esp, ebp
	pop	ebp
	ret	0
??$ResolveGameReference@V?$RefArray@VDataSafeEntryTypeClass@@$0IA@@@@@YAAAV?$RefArray@VDataSafeEntryTypeClass@@$0IA@@@HHH@Z ENDP ; ResolveGameReference<RefArray<DataSafeEntryTypeClass,128> >
_TEXT	ENDS
; Function compile flags: /Odtp /ZI
; File x:\github\renegade\dragonade_rxd\scripts\datasafe.cpp
;	COMDAT ??__E?Safe@GenericDataSafeClass@@1AAV?$RefArray@PAVDataSafeEntryListClass@@$0CAAA@@@A@@YAXXZ
text$yc	SEGMENT
??__E?Safe@GenericDataSafeClass@@1AAV?$RefArray@PAVDataSafeEntryListClass@@$0CAAA@@@A@@YAXXZ PROC ; `dynamic initializer for 'GenericDataSafeClass::Safe'', COMDAT

; 27   : SCRIPTS_API REF_DEF2(TT_NOOP(RefArray<DataSafeEntryListClass *, MAX_DATASAFE_LISTS>), GenericDataSafeClass::Safe, 0x00820E44, 0x0082002C);

	push	ebp
	mov	ebp, esp
	sub	esp, 64					; 00000040H
	push	ebx
	push	esi
	push	edi
	push	0
	push	8519724					; 0082002cH
	push	8523332					; 00820e44H
	call	??$ResolveGameReference@V?$RefArray@PAVDataSafeEntryListClass@@$0CAAA@@@@@YAAAV?$RefArray@PAVDataSafeEntryListClass@@$0CAAA@@@HHH@Z ; ResolveGameReference<RefArray<DataSafeEntryListClass *,8192> >
	add	esp, 12					; 0000000cH
	mov	DWORD PTR ?Safe@GenericDataSafeClass@@1AAV?$RefArray@PAVDataSafeEntryListClass@@$0CAAA@@@A, eax ; GenericDataSafeClass::Safe
	pop	edi
	pop	esi
	pop	ebx
	mov	esp, ebp
	pop	ebp
	ret	0
??__E?Safe@GenericDataSafeClass@@1AAV?$RefArray@PAVDataSafeEntryListClass@@$0CAAA@@@A@@YAXXZ ENDP ; `dynamic initializer for 'GenericDataSafeClass::Safe''
text$yc	ENDS
; Function compile flags: /Odtp /ZI
; File x:\github\renegade\dragonade_rxd\scripts\defines.h
;	COMDAT ??$ResolveGameReference@V?$RefArray@PAVDataSafeEntryListClass@@$0CAAA@@@@@YAAAV?$RefArray@PAVDataSafeEntryListClass@@$0CAAA@@@HHH@Z
_TEXT	SEGMENT
tv68 = -76						; size = 4
tv69 = -72						; size = 4
tv70 = -68						; size = 4
_client$ = 8						; size = 4
_server$ = 12						; size = 4
_leveledit$ = 16					; size = 4
??$ResolveGameReference@V?$RefArray@PAVDataSafeEntryListClass@@$0CAAA@@@@@YAAAV?$RefArray@PAVDataSafeEntryListClass@@$0CAAA@@@HHH@Z PROC ; ResolveGameReference<RefArray<DataSafeEntryListClass *,8192> >, COMDAT

; 149  : {

	push	ebp
	mov	ebp, esp
	sub	esp, 76					; 0000004cH
	push	ebx
	push	esi
	push	edi

; 150  : 	if (Exe == 6) InitEngine();

	cmp	DWORD PTR ?Exe@@3HA, 6			; Exe
	jne	SHORT $LN1@ResolveGam
	call	?InitEngine@@YAXXZ			; InitEngine
$LN1@ResolveGam:

; 151  : #pragma warning(suppress: 6011) //warning C6011: dereferencing NULL pointer <name>
; 152  : 	return *((T*)((Exe == 0) ? client : ((Exe == 1) ? server : ((Exe == 4) ? leveledit : 0))));

	cmp	DWORD PTR ?Exe@@3HA, 0			; Exe
	jne	SHORT $LN8@ResolveGam
	mov	eax, DWORD PTR _client$[ebp]
	mov	DWORD PTR tv70[ebp], eax
	jmp	SHORT $LN9@ResolveGam
$LN8@ResolveGam:
	cmp	DWORD PTR ?Exe@@3HA, 1			; Exe
	jne	SHORT $LN6@ResolveGam
	mov	ecx, DWORD PTR _server$[ebp]
	mov	DWORD PTR tv69[ebp], ecx
	jmp	SHORT $LN7@ResolveGam
$LN6@ResolveGam:
	cmp	DWORD PTR ?Exe@@3HA, 4			; Exe
	jne	SHORT $LN4@ResolveGam
	mov	edx, DWORD PTR _leveledit$[ebp]
	mov	DWORD PTR tv68[ebp], edx
	jmp	SHORT $LN5@ResolveGam
$LN4@ResolveGam:
	mov	DWORD PTR tv68[ebp], 0
$LN5@ResolveGam:
	mov	eax, DWORD PTR tv68[ebp]
	mov	DWORD PTR tv69[ebp], eax
$LN7@ResolveGam:
	mov	ecx, DWORD PTR tv69[ebp]
	mov	DWORD PTR tv70[ebp], ecx
$LN9@ResolveGam:
	mov	eax, DWORD PTR tv70[ebp]

; 153  : };

	pop	edi
	pop	esi
	pop	ebx
	mov	esp, ebp
	pop	ebp
	ret	0
??$ResolveGameReference@V?$RefArray@PAVDataSafeEntryListClass@@$0CAAA@@@@@YAAAV?$RefArray@PAVDataSafeEntryListClass@@$0CAAA@@@HHH@Z ENDP ; ResolveGameReference<RefArray<DataSafeEntryListClass *,8192> >
_TEXT	ENDS
; Function compile flags: /Odtp /ZI
; File x:\github\renegade\dragonade_rxd\scripts\datasafe.cpp
;	COMDAT ??__E?NumLists@GenericDataSafeClass@@1AAHA@@YAXXZ
text$yc	SEGMENT
??__E?NumLists@GenericDataSafeClass@@1AAHA@@YAXXZ PROC	; `dynamic initializer for 'GenericDataSafeClass::NumLists'', COMDAT

; 26   : SCRIPTS_API REF_DEF2(int, GenericDataSafeClass::NumLists, 0x008294E8, 0x008286D0);

	push	ebp
	mov	ebp, esp
	sub	esp, 64					; 00000040H
	push	ebx
	push	esi
	push	edi
	push	0
	push	8554192					; 008286d0H
	push	8557800					; 008294e8H
	call	??$ResolveGameReference@H@@YAAAHHHH@Z	; ResolveGameReference<int>
	add	esp, 12					; 0000000cH
	mov	DWORD PTR ?NumLists@GenericDataSafeClass@@1AAHA, eax ; GenericDataSafeClass::NumLists
	pop	edi
	pop	esi
	pop	ebx
	mov	esp, ebp
	pop	ebp
	ret	0
??__E?NumLists@GenericDataSafeClass@@1AAHA@@YAXXZ ENDP	; `dynamic initializer for 'GenericDataSafeClass::NumLists''
text$yc	ENDS
; Function compile flags: /Odtp /ZI
; File x:\github\renegade\dragonade_rxd\scripts\defines.h
;	COMDAT ??$ResolveGameReference@H@@YAAAHHHH@Z
_TEXT	SEGMENT
tv68 = -76						; size = 4
tv69 = -72						; size = 4
tv70 = -68						; size = 4
_client$ = 8						; size = 4
_server$ = 12						; size = 4
_leveledit$ = 16					; size = 4
??$ResolveGameReference@H@@YAAAHHHH@Z PROC		; ResolveGameReference<int>, COMDAT

; 149  : {

	push	ebp
	mov	ebp, esp
	sub	esp, 76					; 0000004cH
	push	ebx
	push	esi
	push	edi

; 150  : 	if (Exe == 6) InitEngine();

	cmp	DWORD PTR ?Exe@@3HA, 6			; Exe
	jne	SHORT $LN1@ResolveGam
	call	?InitEngine@@YAXXZ			; InitEngine
$LN1@ResolveGam:

; 151  : #pragma warning(suppress: 6011) //warning C6011: dereferencing NULL pointer <name>
; 152  : 	return *((T*)((Exe == 0) ? client : ((Exe == 1) ? server : ((Exe == 4) ? leveledit : 0))));

	cmp	DWORD PTR ?Exe@@3HA, 0			; Exe
	jne	SHORT $LN8@ResolveGam
	mov	eax, DWORD PTR _client$[ebp]
	mov	DWORD PTR tv70[ebp], eax
	jmp	SHORT $LN9@ResolveGam
$LN8@ResolveGam:
	cmp	DWORD PTR ?Exe@@3HA, 1			; Exe
	jne	SHORT $LN6@ResolveGam
	mov	ecx, DWORD PTR _server$[ebp]
	mov	DWORD PTR tv69[ebp], ecx
	jmp	SHORT $LN7@ResolveGam
$LN6@ResolveGam:
	cmp	DWORD PTR ?Exe@@3HA, 4			; Exe
	jne	SHORT $LN4@ResolveGam
	mov	edx, DWORD PTR _leveledit$[ebp]
	mov	DWORD PTR tv68[ebp], edx
	jmp	SHORT $LN5@ResolveGam
$LN4@ResolveGam:
	mov	DWORD PTR tv68[ebp], 0
$LN5@ResolveGam:
	mov	eax, DWORD PTR tv68[ebp]
	mov	DWORD PTR tv69[ebp], eax
$LN7@ResolveGam:
	mov	ecx, DWORD PTR tv69[ebp]
	mov	DWORD PTR tv70[ebp], ecx
$LN9@ResolveGam:
	mov	eax, DWORD PTR tv70[ebp]

; 153  : };

	pop	edi
	pop	esi
	pop	ebx
	mov	esp, ebp
	pop	ebp
	ret	0
??$ResolveGameReference@H@@YAAAHHHH@Z ENDP		; ResolveGameReference<int>
_TEXT	ENDS
; Function compile flags: /Odtp /ZI
; File x:\github\renegade\dragonade_rxd\scripts\datasafe.cpp
;	COMDAT ??__E?SentinelOne@GenericDataSafeClass@@1AAVDataSafeHandleClass@@A@@YAXXZ
text$yc	SEGMENT
??__E?SentinelOne@GenericDataSafeClass@@1AAVDataSafeHandleClass@@A@@YAXXZ PROC ; `dynamic initializer for 'GenericDataSafeClass::SentinelOne'', COMDAT

; 25   : SCRIPTS_API REF_DEF2(DataSafeHandleClass, GenericDataSafeClass::SentinelOne, 0x00829464, 0x0082864C);

	push	ebp
	mov	ebp, esp
	sub	esp, 64					; 00000040H
	push	ebx
	push	esi
	push	edi
	push	0
	push	8554060					; 0082864cH
	push	8557668					; 00829464H
	call	??$ResolveGameReference@VDataSafeHandleClass@@@@YAAAVDataSafeHandleClass@@HHH@Z ; ResolveGameReference<DataSafeHandleClass>
	add	esp, 12					; 0000000cH
	mov	DWORD PTR ?SentinelOne@GenericDataSafeClass@@1AAVDataSafeHandleClass@@A, eax ; GenericDataSafeClass::SentinelOne
	pop	edi
	pop	esi
	pop	ebx
	mov	esp, ebp
	pop	ebp
	ret	0
??__E?SentinelOne@GenericDataSafeClass@@1AAVDataSafeHandleClass@@A@@YAXXZ ENDP ; `dynamic initializer for 'GenericDataSafeClass::SentinelOne''
text$yc	ENDS
; Function compile flags: /Odtp /ZI
; File x:\github\renegade\dragonade_rxd\scripts\defines.h
;	COMDAT ??$ResolveGameReference@VDataSafeHandleClass@@@@YAAAVDataSafeHandleClass@@HHH@Z
_TEXT	SEGMENT
tv68 = -76						; size = 4
tv69 = -72						; size = 4
tv70 = -68						; size = 4
_client$ = 8						; size = 4
_server$ = 12						; size = 4
_leveledit$ = 16					; size = 4
??$ResolveGameReference@VDataSafeHandleClass@@@@YAAAVDataSafeHandleClass@@HHH@Z PROC ; ResolveGameReference<DataSafeHandleClass>, COMDAT

; 149  : {

	push	ebp
	mov	ebp, esp
	sub	esp, 76					; 0000004cH
	push	ebx
	push	esi
	push	edi

; 150  : 	if (Exe == 6) InitEngine();

	cmp	DWORD PTR ?Exe@@3HA, 6			; Exe
	jne	SHORT $LN1@ResolveGam
	call	?InitEngine@@YAXXZ			; InitEngine
$LN1@ResolveGam:

; 151  : #pragma warning(suppress: 6011) //warning C6011: dereferencing NULL pointer <name>
; 152  : 	return *((T*)((Exe == 0) ? client : ((Exe == 1) ? server : ((Exe == 4) ? leveledit : 0))));

	cmp	DWORD PTR ?Exe@@3HA, 0			; Exe
	jne	SHORT $LN8@ResolveGam
	mov	eax, DWORD PTR _client$[ebp]
	mov	DWORD PTR tv70[ebp], eax
	jmp	SHORT $LN9@ResolveGam
$LN8@ResolveGam:
	cmp	DWORD PTR ?Exe@@3HA, 1			; Exe
	jne	SHORT $LN6@ResolveGam
	mov	ecx, DWORD PTR _server$[ebp]
	mov	DWORD PTR tv69[ebp], ecx
	jmp	SHORT $LN7@ResolveGam
$LN6@ResolveGam:
	cmp	DWORD PTR ?Exe@@3HA, 4			; Exe
	jne	SHORT $LN4@ResolveGam
	mov	edx, DWORD PTR _leveledit$[ebp]
	mov	DWORD PTR tv68[ebp], edx
	jmp	SHORT $LN5@ResolveGam
$LN4@ResolveGam:
	mov	DWORD PTR tv68[ebp], 0
$LN5@ResolveGam:
	mov	eax, DWORD PTR tv68[ebp]
	mov	DWORD PTR tv69[ebp], eax
$LN7@ResolveGam:
	mov	ecx, DWORD PTR tv69[ebp]
	mov	DWORD PTR tv70[ebp], ecx
$LN9@ResolveGam:
	mov	eax, DWORD PTR tv70[ebp]

; 153  : };

	pop	edi
	pop	esi
	pop	ebx
	mov	esp, ebp
	pop	ebp
	ret	0
??$ResolveGameReference@VDataSafeHandleClass@@@@YAAAVDataSafeHandleClass@@HHH@Z ENDP ; ResolveGameReference<DataSafeHandleClass>
_TEXT	ENDS
; Function compile flags: /Odtp /ZI
; File x:\github\renegade\dragonade_rxd\scripts\datasafe.cpp
;	COMDAT ??__E?SecurityCheckDelay@GenericDataSafeClass@@1AAKA@@YAXXZ
text$yc	SEGMENT
??__E?SecurityCheckDelay@GenericDataSafeClass@@1AAKA@@YAXXZ PROC ; `dynamic initializer for 'GenericDataSafeClass::SecurityCheckDelay'', COMDAT

; 24   : SCRIPTS_API REF_DEF2(unsigned long, GenericDataSafeClass::SecurityCheckDelay, 0x00829468, 0x00828650);

	push	ebp
	mov	ebp, esp
	sub	esp, 64					; 00000040H
	push	ebx
	push	esi
	push	edi
	push	0
	push	8554064					; 00828650H
	push	8557672					; 00829468H
	call	??$ResolveGameReference@K@@YAAAKHHH@Z	; ResolveGameReference<unsigned long>
	add	esp, 12					; 0000000cH
	mov	DWORD PTR ?SecurityCheckDelay@GenericDataSafeClass@@1AAKA, eax ; GenericDataSafeClass::SecurityCheckDelay
	pop	edi
	pop	esi
	pop	ebx
	mov	esp, ebp
	pop	ebp
	ret	0
??__E?SecurityCheckDelay@GenericDataSafeClass@@1AAKA@@YAXXZ ENDP ; `dynamic initializer for 'GenericDataSafeClass::SecurityCheckDelay''
text$yc	ENDS
; Function compile flags: /Odtp /ZI
; File x:\github\renegade\dragonade_rxd\scripts\datasafe.cpp
;	COMDAT ??__E?ShuffleDelay@GenericDataSafeClass@@1AAKA@@YAXXZ
text$yc	SEGMENT
??__E?ShuffleDelay@GenericDataSafeClass@@1AAKA@@YAXXZ PROC ; `dynamic initializer for 'GenericDataSafeClass::ShuffleDelay'', COMDAT

; 23   : SCRIPTS_API REF_DEF2(unsigned long, GenericDataSafeClass::ShuffleDelay, 0x00829470, 0x00828658);

	push	ebp
	mov	ebp, esp
	sub	esp, 64					; 00000040H
	push	ebx
	push	esi
	push	edi
	push	0
	push	8554072					; 00828658H
	push	8557680					; 00829470H
	call	??$ResolveGameReference@K@@YAAAKHHH@Z	; ResolveGameReference<unsigned long>
	add	esp, 12					; 0000000cH
	mov	DWORD PTR ?ShuffleDelay@GenericDataSafeClass@@1AAKA, eax ; GenericDataSafeClass::ShuffleDelay
	pop	edi
	pop	esi
	pop	ebx
	mov	esp, ebp
	pop	ebp
	ret	0
??__E?ShuffleDelay@GenericDataSafeClass@@1AAKA@@YAXXZ ENDP ; `dynamic initializer for 'GenericDataSafeClass::ShuffleDelay''
text$yc	ENDS
; Function compile flags: /Odtp /ZI
; File x:\github\renegade\dragonade_rxd\scripts\datasafe.cpp
;	COMDAT ??__E?Checksum@GenericDataSafeClass@@1AAKA@@YAXXZ
text$yc	SEGMENT
??__E?Checksum@GenericDataSafeClass@@1AAKA@@YAXXZ PROC	; `dynamic initializer for 'GenericDataSafeClass::Checksum'', COMDAT

; 22   : SCRIPTS_API REF_DEF2(unsigned long, GenericDataSafeClass::Checksum, 0x008294D8, 0x008286C0);

	push	ebp
	mov	ebp, esp
	sub	esp, 64					; 00000040H
	push	ebx
	push	esi
	push	edi
	push	0
	push	8554176					; 008286c0H
	push	8557784					; 008294d8H
	call	??$ResolveGameReference@K@@YAAAKHHH@Z	; ResolveGameReference<unsigned long>
	add	esp, 12					; 0000000cH
	mov	DWORD PTR ?Checksum@GenericDataSafeClass@@1AAKA, eax ; GenericDataSafeClass::Checksum
	pop	edi
	pop	esi
	pop	ebx
	mov	esp, ebp
	pop	ebp
	ret	0
??__E?Checksum@GenericDataSafeClass@@1AAKA@@YAXXZ ENDP	; `dynamic initializer for 'GenericDataSafeClass::Checksum''
text$yc	ENDS
; Function compile flags: /Odtp /ZI
; File x:\github\renegade\dragonade_rxd\scripts\datasafe.cpp
;	COMDAT ??__E?HandleKey@GenericDataSafeClass@@1AAKA@@YAXXZ
text$yc	SEGMENT
??__E?HandleKey@GenericDataSafeClass@@1AAKA@@YAXXZ PROC	; `dynamic initializer for 'GenericDataSafeClass::HandleKey'', COMDAT

; 21   : SCRIPTS_API REF_DEF2(unsigned long, GenericDataSafeClass::HandleKey, 0x00820DD0, 0x0081FFB8);

	push	ebp
	mov	ebp, esp
	sub	esp, 64					; 00000040H
	push	ebx
	push	esi
	push	edi
	push	0
	push	8519608					; 0081ffb8H
	push	8523216					; 00820dd0H
	call	??$ResolveGameReference@K@@YAAAKHHH@Z	; ResolveGameReference<unsigned long>
	add	esp, 12					; 0000000cH
	mov	DWORD PTR ?HandleKey@GenericDataSafeClass@@1AAKA, eax ; GenericDataSafeClass::HandleKey
	pop	edi
	pop	esi
	pop	ebx
	mov	esp, ebp
	pop	ebp
	ret	0
??__E?HandleKey@GenericDataSafeClass@@1AAKA@@YAXXZ ENDP	; `dynamic initializer for 'GenericDataSafeClass::HandleKey''
text$yc	ENDS
; Function compile flags: /Odtp /ZI
; File x:\github\renegade\dragonade_rxd\scripts\datasafe.cpp
;	COMDAT ??__E?SimpleKey@GenericDataSafeClass@@1AAKA@@YAXXZ
text$yc	SEGMENT
??__E?SimpleKey@GenericDataSafeClass@@1AAKA@@YAXXZ PROC	; `dynamic initializer for 'GenericDataSafeClass::SimpleKey'', COMDAT

; 20   : SCRIPTS_API REF_DEF2(unsigned long, GenericDataSafeClass::SimpleKey, 0x00829478, 0x00828660);

	push	ebp
	mov	ebp, esp
	sub	esp, 64					; 00000040H
	push	ebx
	push	esi
	push	edi
	push	0
	push	8554080					; 00828660H
	push	8557688					; 00829478H
	call	??$ResolveGameReference@K@@YAAAKHHH@Z	; ResolveGameReference<unsigned long>
	add	esp, 12					; 0000000cH
	mov	DWORD PTR ?SimpleKey@GenericDataSafeClass@@1AAKA, eax ; GenericDataSafeClass::SimpleKey
	pop	edi
	pop	esi
	pop	ebx
	mov	esp, ebp
	pop	ebp
	ret	0
??__E?SimpleKey@GenericDataSafeClass@@1AAKA@@YAXXZ ENDP	; `dynamic initializer for 'GenericDataSafeClass::SimpleKey''
text$yc	ENDS
; Function compile flags: /Odtp /ZI
; File x:\github\renegade\dragonade_rxd\scripts\defines.h
;	COMDAT ??$ResolveGameReference@K@@YAAAKHHH@Z
_TEXT	SEGMENT
tv68 = -76						; size = 4
tv69 = -72						; size = 4
tv70 = -68						; size = 4
_client$ = 8						; size = 4
_server$ = 12						; size = 4
_leveledit$ = 16					; size = 4
??$ResolveGameReference@K@@YAAAKHHH@Z PROC		; ResolveGameReference<unsigned long>, COMDAT

; 149  : {

	push	ebp
	mov	ebp, esp
	sub	esp, 76					; 0000004cH
	push	ebx
	push	esi
	push	edi

; 150  : 	if (Exe == 6) InitEngine();

	cmp	DWORD PTR ?Exe@@3HA, 6			; Exe
	jne	SHORT $LN1@ResolveGam
	call	?InitEngine@@YAXXZ			; InitEngine
$LN1@ResolveGam:

; 151  : #pragma warning(suppress: 6011) //warning C6011: dereferencing NULL pointer <name>
; 152  : 	return *((T*)((Exe == 0) ? client : ((Exe == 1) ? server : ((Exe == 4) ? leveledit : 0))));

	cmp	DWORD PTR ?Exe@@3HA, 0			; Exe
	jne	SHORT $LN8@ResolveGam
	mov	eax, DWORD PTR _client$[ebp]
	mov	DWORD PTR tv70[ebp], eax
	jmp	SHORT $LN9@ResolveGam
$LN8@ResolveGam:
	cmp	DWORD PTR ?Exe@@3HA, 1			; Exe
	jne	SHORT $LN6@ResolveGam
	mov	ecx, DWORD PTR _server$[ebp]
	mov	DWORD PTR tv69[ebp], ecx
	jmp	SHORT $LN7@ResolveGam
$LN6@ResolveGam:
	cmp	DWORD PTR ?Exe@@3HA, 4			; Exe
	jne	SHORT $LN4@ResolveGam
	mov	edx, DWORD PTR _leveledit$[ebp]
	mov	DWORD PTR tv68[ebp], edx
	jmp	SHORT $LN5@ResolveGam
$LN4@ResolveGam:
	mov	DWORD PTR tv68[ebp], 0
$LN5@ResolveGam:
	mov	eax, DWORD PTR tv68[ebp]
	mov	DWORD PTR tv69[ebp], eax
$LN7@ResolveGam:
	mov	ecx, DWORD PTR tv69[ebp]
	mov	DWORD PTR tv70[ebp], ecx
$LN9@ResolveGam:
	mov	eax, DWORD PTR tv70[ebp]

; 153  : };

	pop	edi
	pop	esi
	pop	ebx
	mov	esp, ebp
	pop	ebp
	ret	0
??$ResolveGameReference@K@@YAAAKHHH@Z ENDP		; ResolveGameReference<unsigned long>
_TEXT	ENDS
; Function compile flags: /Odtp /ZI
; File x:\github\renegade\dragonade_rxd\scripts\datasafe.cpp
;	COMDAT ?Free_Handle_ID@GenericDataSafeClass@@KAXHH@Z
_TEXT	SEGMENT
_list$ = 8						; size = 4
_id$ = 12						; size = 4
?Free_Handle_ID@GenericDataSafeClass@@KAXHH@Z PROC	; GenericDataSafeClass::Free_Handle_ID, COMDAT

; 101  : AT2(0x0045DC80,0x0045D710)

$AT3PatchStart$3:
	push	ecx
	push	edx
	push	OFFSET $AT3PatchStart$3
	push	0
	push	4577040					; 0045d710H
	push	4578432					; 0045dc80H
	call	?HookupAT3@@YAPAXPAX000@Z		; HookupAT3
	add	esp, 16					; 00000010H
	pop	edx
	pop	ecx
	jmp	eax
?Free_Handle_ID@GenericDataSafeClass@@KAXHH@Z ENDP	; GenericDataSafeClass::Free_Handle_ID
_TEXT	ENDS
; Function compile flags: /Odtp /ZI
; File x:\github\renegade\dragonade_rxd\scripts\datasafe.cpp
;	COMDAT ?Remove_From_List@GenericDataSafeClass@@KAXHPAVDataSafeEntryClass@@@Z
_TEXT	SEGMENT
_list$ = 8						; size = 4
_entry_ptr$ = 12					; size = 4
?Remove_From_List@GenericDataSafeClass@@KAXHPAVDataSafeEntryClass@@@Z PROC ; GenericDataSafeClass::Remove_From_List, COMDAT

; 89   : AT2(0x0045D050,0x0045CAE0)

$AT3PatchStart$3:
	push	ecx
	push	edx
	push	OFFSET $AT3PatchStart$3
	push	0
	push	4573920					; 0045cae0H
	push	4575312					; 0045d050H
	call	?HookupAT3@@YAPAXPAX000@Z		; HookupAT3
	add	esp, 16					; 00000010H
	pop	edx
	pop	ecx
	jmp	eax
?Remove_From_List@GenericDataSafeClass@@KAXHPAVDataSafeEntryClass@@@Z ENDP ; GenericDataSafeClass::Remove_From_List
_TEXT	ENDS
; Function compile flags: /Odtp /ZI
; File x:\github\renegade\dragonade_rxd\scripts\datasafe.cpp
;	COMDAT ?Get_Handle_ID@GenericDataSafeClass@@KAHH@Z
_TEXT	SEGMENT
_list$ = 8						; size = 4
?Get_Handle_ID@GenericDataSafeClass@@KAHH@Z PROC	; GenericDataSafeClass::Get_Handle_ID, COMDAT

; 97   : AT2(0x0045DC50,0x0045D6E0)

$AT3PatchStart$3:
	push	ecx
	push	edx
	push	OFFSET $AT3PatchStart$3
	push	0
	push	4576992					; 0045d6e0H
	push	4578384					; 0045dc50H
	call	?HookupAT3@@YAPAXPAX000@Z		; HookupAT3
	add	esp, 16					; 00000010H
	pop	edx
	pop	ecx
	jmp	eax
?Get_Handle_ID@GenericDataSafeClass@@KAHH@Z ENDP	; GenericDataSafeClass::Get_Handle_ID
_TEXT	ENDS
; Function compile flags: /Odtp /ZI
; File x:\github\renegade\dragonade_rxd\scripts\datasafe.cpp
;	COMDAT ?Create_Safe_List@GenericDataSafeClass@@KAHH@Z
_TEXT	SEGMENT
_type$ = 8						; size = 4
?Create_Safe_List@GenericDataSafeClass@@KAHH@Z PROC	; GenericDataSafeClass::Create_Safe_List, COMDAT

; 77   : AT2(0x0045CE60,0x0045C8F0)

$AT3PatchStart$3:
	push	ecx
	push	edx
	push	OFFSET $AT3PatchStart$3
	push	0
	push	4573424					; 0045c8f0H
	push	4574816					; 0045ce60H
	call	?HookupAT3@@YAPAXPAX000@Z		; HookupAT3
	add	esp, 16					; 00000010H
	pop	edx
	pop	ecx
	jmp	eax
?Create_Safe_List@GenericDataSafeClass@@KAHH@Z ENDP	; GenericDataSafeClass::Create_Safe_List
_TEXT	ENDS
; Function compile flags: /Odtp /ZI
; File x:\github\renegade\dragonade_rxd\scripts\datasafe.cpp
;	COMDAT ?Random_Insertion@GenericDataSafeClass@@KAXPAVDataSafeEntryClass@@HH_N@Z
_TEXT	SEGMENT
_entry_ptr$ = 8						; size = 4
_list$ = 12						; size = 4
_type$ = 16						; size = 4
_is_slop$ = 20						; size = 1
?Random_Insertion@GenericDataSafeClass@@KAXPAVDataSafeEntryClass@@HH_N@Z PROC ; GenericDataSafeClass::Random_Insertion, COMDAT

; 81   : AT2(0x0045CED0,0x0045C960)

$AT3PatchStart$3:
	push	ecx
	push	edx
	push	OFFSET $AT3PatchStart$3
	push	0
	push	4573536					; 0045c960H
	push	4574928					; 0045ced0H
	call	?HookupAT3@@YAPAXPAX000@Z		; HookupAT3
	add	esp, 16					; 00000010H
	pop	edx
	pop	ecx
	jmp	eax
?Random_Insertion@GenericDataSafeClass@@KAXPAVDataSafeEntryClass@@HH_N@Z ENDP ; GenericDataSafeClass::Random_Insertion
_TEXT	ENDS
; Function compile flags: /Odtp /ZI
; File x:\github\renegade\dragonade_rxd\scripts\datasafe.cpp
;	COMDAT ?Get_Random_List_For_Insertion@GenericDataSafeClass@@KAHH@Z
_TEXT	SEGMENT
_type$ = 8						; size = 4
?Get_Random_List_For_Insertion@GenericDataSafeClass@@KAHH@Z PROC ; GenericDataSafeClass::Get_Random_List_For_Insertion, COMDAT

; 73   : AT2(0x0045CCF0,0x0045C780)

$AT3PatchStart$3:
	push	ecx
	push	edx
	push	OFFSET $AT3PatchStart$3
	push	0
	push	4573056					; 0045c780H
	push	4574448					; 0045ccf0H
	call	?HookupAT3@@YAPAXPAX000@Z		; HookupAT3
	add	esp, 16					; 00000010H
	pop	edx
	pop	ecx
	jmp	eax
?Get_Random_List_For_Insertion@GenericDataSafeClass@@KAHH@Z ENDP ; GenericDataSafeClass::Get_Random_List_For_Insertion
_TEXT	ENDS
; Function compile flags: /Odtp /ZI
; File x:\github\renegade\dragonade_rxd\scripts\datasafe.cpp
;	COMDAT ?Say_Security_Fault@GenericDataSafeClass@@KAXXZ
_TEXT	SEGMENT
?Say_Security_Fault@GenericDataSafeClass@@KAXXZ PROC	; GenericDataSafeClass::Say_Security_Fault, COMDAT

; 105  : {

	push	ebp
	mov	ebp, esp
	sub	esp, 64					; 00000040H
	push	ebx
	push	esi
	push	edi

; 106  : 	__debugbreak();

	int	3

; 107  : }

	pop	edi
	pop	esi
	pop	ebx
	mov	esp, ebp
	pop	ebp
	ret	0
?Say_Security_Fault@GenericDataSafeClass@@KAXXZ ENDP	; GenericDataSafeClass::Say_Security_Fault
_TEXT	ENDS
; Function compile flags: /Odtp /ZI
; File x:\github\renegade\dragonade_rxd\scripts\datasafe.cpp
;	COMDAT ?Mem_Copy_Decrypt@GenericDataSafeClass@@KAXPAX0H_N@Z
_TEXT	SEGMENT
_dest$ = 8						; size = 4
_src$ = 12						; size = 4
_size$ = 16						; size = 4
_do_checksum$ = 20					; size = 1
?Mem_Copy_Decrypt@GenericDataSafeClass@@KAXPAX0H_N@Z PROC ; GenericDataSafeClass::Mem_Copy_Decrypt, COMDAT

; 61   : AT2(0x0045CBA0,0x0045C630)

$AT3PatchStart$3:
	push	ecx
	push	edx
	push	OFFSET $AT3PatchStart$3
	push	0
	push	4572720					; 0045c630H
	push	4574112					; 0045cba0H
	call	?HookupAT3@@YAPAXPAX000@Z		; HookupAT3
	add	esp, 16					; 00000010H
	pop	edx
	pop	ecx
	jmp	eax
?Mem_Copy_Decrypt@GenericDataSafeClass@@KAXPAX0H_N@Z ENDP ; GenericDataSafeClass::Mem_Copy_Decrypt
_TEXT	ENDS
; Function compile flags: /Odtp /ZI
; File x:\github\renegade\dragonade_rxd\scripts\datasafe.cpp
;	COMDAT ?Mem_Copy_Encrypt@GenericDataSafeClass@@KAXPAX0H_N@Z
_TEXT	SEGMENT
_dest$ = 8						; size = 4
_src$ = 12						; size = 4
_size$ = 16						; size = 4
_do_checksum$ = 20					; size = 1
?Mem_Copy_Encrypt@GenericDataSafeClass@@KAXPAX0H_N@Z PROC ; GenericDataSafeClass::Mem_Copy_Encrypt, COMDAT

; 57   : AT2(0x0045CB20,0x0045C5B0)

$AT3PatchStart$3:
	push	ecx
	push	edx
	push	OFFSET $AT3PatchStart$3
	push	0
	push	4572592					; 0045c5b0H
	push	4573984					; 0045cb20H
	call	?HookupAT3@@YAPAXPAX000@Z		; HookupAT3
	add	esp, 16					; 00000010H
	pop	edx
	pop	ecx
	jmp	eax
?Mem_Copy_Encrypt@GenericDataSafeClass@@KAXPAX0H_N@Z ENDP ; GenericDataSafeClass::Mem_Copy_Encrypt
_TEXT	ENDS
; Function compile flags: /Odtp /ZI
; File x:\github\renegade\dragonade_rxd\scripts\datasafe.cpp
;	COMDAT ?Decrypt@GenericDataSafeClass@@KAXPAXHK_N@Z
_TEXT	SEGMENT
_data$ = 8						; size = 4
_size$ = 12						; size = 4
_key$ = 16						; size = 4
_do_checksum$ = 20					; size = 1
?Decrypt@GenericDataSafeClass@@KAXPAXHK_N@Z PROC	; GenericDataSafeClass::Decrypt, COMDAT

; 69   : AT2(0x0045CC80,0x0045C710)

$AT3PatchStart$3:
	push	ecx
	push	edx
	push	OFFSET $AT3PatchStart$3
	push	0
	push	4572944					; 0045c710H
	push	4574336					; 0045cc80H
	call	?HookupAT3@@YAPAXPAX000@Z		; HookupAT3
	add	esp, 16					; 00000010H
	pop	edx
	pop	ecx
	jmp	eax
?Decrypt@GenericDataSafeClass@@KAXPAXHK_N@Z ENDP	; GenericDataSafeClass::Decrypt
_TEXT	ENDS
; Function compile flags: /Odtp /ZI
; File x:\github\renegade\dragonade_rxd\scripts\datasafe.cpp
;	COMDAT ?Encrypt@GenericDataSafeClass@@KAXPAXHK_N@Z
_TEXT	SEGMENT
_data$ = 8						; size = 4
_size$ = 12						; size = 4
_key$ = 16						; size = 4
_do_checksum$ = 20					; size = 1
?Encrypt@GenericDataSafeClass@@KAXPAXHK_N@Z PROC	; GenericDataSafeClass::Encrypt, COMDAT

; 65   : AT2(0x0045CC20,0x0045C6B0)

$AT3PatchStart$3:
	push	ecx
	push	edx
	push	OFFSET $AT3PatchStart$3
	push	0
	push	4572848					; 0045c6b0H
	push	4574240					; 0045cc20H
	call	?HookupAT3@@YAPAXPAX000@Z		; HookupAT3
	add	esp, 16					; 00000010H
	pop	edx
	pop	ecx
	jmp	eax
?Encrypt@GenericDataSafeClass@@KAXPAXHK_N@Z ENDP	; GenericDataSafeClass::Encrypt
_TEXT	ENDS
; Function compile flags: /Odtp /ZI
; File x:\github\renegade\dragonade_rxd\scripts\datasafe.cpp
;	COMDAT ?Swap_Entries@GenericDataSafeClass@@KAXPAVDataSafeEntryClass@@0H@Z
_TEXT	SEGMENT
_first$ = 8						; size = 4
_second$ = 12						; size = 4
_type$ = 16						; size = 4
?Swap_Entries@GenericDataSafeClass@@KAXPAVDataSafeEntryClass@@0H@Z PROC ; GenericDataSafeClass::Swap_Entries, COMDAT

; 85   : AT2(0x0045CF90,0x0045CA20)

$AT3PatchStart$3:
	push	ecx
	push	edx
	push	OFFSET $AT3PatchStart$3
	push	0
	push	4573728					; 0045ca20H
	push	4575120					; 0045cf90H
	call	?HookupAT3@@YAPAXPAX000@Z		; HookupAT3
	add	esp, 16					; 00000010H
	pop	edx
	pop	ecx
	jmp	eax
?Swap_Entries@GenericDataSafeClass@@KAXPAVDataSafeEntryClass@@0H@Z ENDP ; GenericDataSafeClass::Swap_Entries
_TEXT	ENDS
; Function compile flags: /Odtp /ZI
; File x:\github\renegade\dragonade_rxd\scripts\datasafe.cpp
;	COMDAT ?Shuffle@GenericDataSafeClass@@KAX_N@Z
_TEXT	SEGMENT
_forced$ = 8						; size = 1
?Shuffle@GenericDataSafeClass@@KAX_N@Z PROC		; GenericDataSafeClass::Shuffle, COMDAT

; 93   : AT2(0x0045D120,0x0045CBB0)

$AT3PatchStart$3:
	push	ecx
	push	edx
	push	OFFSET $AT3PatchStart$3
	push	0
	push	4574128					; 0045cbb0H
	push	4575520					; 0045d120H
	call	?HookupAT3@@YAPAXPAX000@Z		; HookupAT3
	add	esp, 16					; 00000010H
	pop	edx
	pop	ecx
	jmp	eax
?Shuffle@GenericDataSafeClass@@KAX_N@Z ENDP		; GenericDataSafeClass::Shuffle
_TEXT	ENDS
; Function compile flags: /Odtp /ZI
; File x:\github\renegade\dragonade_rxd\scripts\datasafe.cpp
;	COMDAT ?Get_Entry_By_Index@GenericDataSafeClass@@KAPAVDataSafeEntryClass@@HH@Z
_TEXT	SEGMENT
_list$ = 8						; size = 4
_index$ = 12						; size = 4
?Get_Entry_By_Index@GenericDataSafeClass@@KAPAVDataSafeEntryClass@@HH@Z PROC ; GenericDataSafeClass::Get_Entry_By_Index, COMDAT

; 53   : AT2(0x0045CAF0,0x0045C580)

$AT3PatchStart$3:
	push	ecx
	push	edx
	push	OFFSET $AT3PatchStart$3
	push	0
	push	4572544					; 0045c580H
	push	4573936					; 0045caf0H
	call	?HookupAT3@@YAPAXPAX000@Z		; HookupAT3
	add	esp, 16					; 00000010H
	pop	edx
	pop	ecx
	jmp	eax
?Get_Entry_By_Index@GenericDataSafeClass@@KAPAVDataSafeEntryClass@@HH@Z ENDP ; GenericDataSafeClass::Get_Entry_By_Index
_TEXT	ENDS
; Function compile flags: /Odtp /ZI
; File x:\github\renegade\dragonade_rxd\scripts\datasafe.cpp
;	COMDAT ?Shutdown@GenericDataSafeClass@@IAEXXZ
_TEXT	SEGMENT
?Shutdown@GenericDataSafeClass@@IAEXXZ PROC		; GenericDataSafeClass::Shutdown, COMDAT
; _this$ = ecx

; 41   : AT2(0x0045C050,0x0045BAE0)

$AT3PatchStart$3:
	push	ecx
	push	edx
	push	OFFSET $AT3PatchStart$3
	push	0
	push	4569824					; 0045bae0H
	push	4571216					; 0045c050H
	call	?HookupAT3@@YAPAXPAX000@Z		; HookupAT3
	add	esp, 16					; 00000010H
	pop	edx
	pop	ecx
	jmp	eax
?Shutdown@GenericDataSafeClass@@IAEXXZ ENDP		; GenericDataSafeClass::Shutdown
_TEXT	ENDS
; Function compile flags: /Odtp /ZI
; File x:\github\renegade\dragonade_rxd\scripts\datasafe.cpp
;	COMDAT ?Reset_Timers@GenericDataSafeClass@@SAXXZ
_TEXT	SEGMENT
?Reset_Timers@GenericDataSafeClass@@SAXXZ PROC		; GenericDataSafeClass::Reset_Timers, COMDAT

; 37   : AT2(0x0045B5C0,0x0045B050);

$AT3PatchStart$3:
	push	ecx
	push	edx
	push	OFFSET $AT3PatchStart$3
	push	0
	push	4567120					; 0045b050H
	push	4568512					; 0045b5c0H
	call	?HookupAT3@@YAPAXPAX000@Z		; HookupAT3
	add	esp, 16					; 00000010H
	pop	edx
	pop	ecx
	jmp	eax
?Reset_Timers@GenericDataSafeClass@@SAXXZ ENDP		; GenericDataSafeClass::Reset_Timers
_TEXT	ENDS
; Function compile flags: /Odtp /ZI
; File x:\github\renegade\dragonade_rxd\scripts\datasafe.cpp
;	COMDAT ?Get_Entry_Type@GenericDataSafeClass@@SAHVDataSafeHandleClass@@@Z
_TEXT	SEGMENT
_handle$ = 8						; size = 4
?Get_Entry_Type@GenericDataSafeClass@@SAHVDataSafeHandleClass@@@Z PROC ; GenericDataSafeClass::Get_Entry_Type, COMDAT

; 49   : AT2(0x0045C4E0,0x0045BF70)

$AT3PatchStart$3:
	push	ecx
	push	edx
	push	OFFSET $AT3PatchStart$3
	push	0
	push	4570992					; 0045bf70H
	push	4572384					; 0045c4e0H
	call	?HookupAT3@@YAPAXPAX000@Z		; HookupAT3
	add	esp, 16					; 00000010H
	pop	edx
	pop	ecx
	jmp	eax
?Get_Entry_Type@GenericDataSafeClass@@SAHVDataSafeHandleClass@@@Z ENDP ; GenericDataSafeClass::Get_Entry_Type
_TEXT	ENDS
; Function compile flags: /Odtp /ZI
; File x:\github\renegade\dragonade_rxd\scripts\datasafe.cpp
;	COMDAT ?Get_Entry@GenericDataSafeClass@@SAPAVDataSafeEntryClass@@VDataSafeHandleClass@@@Z
_TEXT	SEGMENT
_handle$ = 8						; size = 4
?Get_Entry@GenericDataSafeClass@@SAPAVDataSafeEntryClass@@VDataSafeHandleClass@@@Z PROC ; GenericDataSafeClass::Get_Entry, COMDAT

; 45   : AT2(0x0045C0B0,0x0045BB40)

$AT3PatchStart$3:
	push	ecx
	push	edx
	push	OFFSET $AT3PatchStart$3
	push	0
	push	4569920					; 0045bb40H
	push	4571312					; 0045c0b0H
	call	?HookupAT3@@YAPAXPAX000@Z		; HookupAT3
	add	esp, 16					; 00000010H
	pop	edx
	pop	ecx
	jmp	eax
?Get_Entry@GenericDataSafeClass@@SAPAVDataSafeEntryClass@@VDataSafeHandleClass@@@Z ENDP ; GenericDataSafeClass::Get_Entry
_TEXT	ENDS
; Function compile flags: /Odtp /ZI
;	COMDAT ??4SysTimeClass@@QAEAAV0@ABV0@@Z
_TEXT	SEGMENT
_this$ = -4						; size = 4
___that$ = 8						; size = 4
??4SysTimeClass@@QAEAAV0@ABV0@@Z PROC			; SysTimeClass::operator=, COMDAT
; _this$ = ecx
	push	ebp
	mov	ebp, esp
	sub	esp, 68					; 00000044H
	push	ebx
	push	esi
	push	edi
	mov	DWORD PTR _this$[ebp], ecx
	mov	eax, DWORD PTR ___that$[ebp]
	mov	ecx, DWORD PTR [eax]
	mov	edx, DWORD PTR [eax+4]
	mov	eax, DWORD PTR _this$[ebp]
	mov	DWORD PTR [eax], ecx
	mov	DWORD PTR [eax+4], edx
	mov	eax, DWORD PTR _this$[ebp]
	pop	edi
	pop	esi
	pop	ebx
	mov	esp, ebp
	pop	ebp
	ret	4
??4SysTimeClass@@QAEAAV0@ABV0@@Z ENDP			; SysTimeClass::operator=
_TEXT	ENDS
END
