; Listing generated by Microsoft (R) Optimizing Compiler Version 17.00.61219.0 

	TITLE	X:\GitHub\Renegade\Dragonade_RxD\scripts\DBIKScripts.cpp
	.686P
	.XMM
	include listing.inc
	.model	flat

INCLUDELIB MSVCRTD
INCLUDELIB OLDNAMES

CONST	SEGMENT
_DONT_MOVE_ARRIVED_DIST DD 0447a0000r		; 1000
CONST	ENDS
PUBLIC	??_H@YGXPAXIHP6EPAX0@Z@Z			; `vector constructor iterator'
PUBLIC	??_I@YGXPAXIHP6EX0@Z@Z				; `vector destructor iterator'
PUBLIC	_fabsf
PUBLIC	_acosf
PUBLIC	_asinf
PUBLIC	_atanf
PUBLIC	_atan2f
PUBLIC	_ceilf
PUBLIC	_cosf
PUBLIC	_floorf
PUBLIC	_sinf
PUBLIC	_sqrtf
PUBLIC	?abs@@YAMM@Z					; abs
PUBLIC	?acos@@YAMM@Z					; acos
PUBLIC	?asin@@YAMM@Z					; asin
PUBLIC	?atan@@YAMM@Z					; atan
PUBLIC	?atan2@@YAMMM@Z					; atan2
PUBLIC	?cos@@YAMM@Z					; cos
PUBLIC	?fabs@@YAMM@Z					; fabs
PUBLIC	?sin@@YAMM@Z					; sin
PUBLIC	?sqrt@@YAMM@Z					; sqrt
PUBLIC	?Fabs@WWMath@@SAMM@Z				; WWMath::Fabs
PUBLIC	?Float_To_Int_Chop@WWMath@@SAHABM@Z		; WWMath::Float_To_Int_Chop
PUBLIC	?Float_To_Int_Floor@WWMath@@SAHABM@Z		; WWMath::Float_To_Int_Floor
PUBLIC	?Cos@WWMath@@SAMM@Z				; WWMath::Cos
PUBLIC	?Sin@WWMath@@SAMM@Z				; WWMath::Sin
PUBLIC	?Sqrt@WWMath@@SAMM@Z				; WWMath::Sqrt
PUBLIC	?Inv_Sqrt@WWMath@@SIMM@Z			; WWMath::Inv_Sqrt
PUBLIC	?Float_To_Long@WWMath@@SAJM@Z			; WWMath::Float_To_Long
PUBLIC	?Fast_Sin@WWMath@@SAMM@Z			; WWMath::Fast_Sin
PUBLIC	?Fast_Inv_Sin@WWMath@@SAMM@Z			; WWMath::Fast_Inv_Sin
PUBLIC	?Fast_Cos@WWMath@@SAMM@Z			; WWMath::Fast_Cos
PUBLIC	?Fast_Inv_Cos@WWMath@@SAMM@Z			; WWMath::Fast_Inv_Cos
PUBLIC	?Fast_Acos@WWMath@@SAMM@Z			; WWMath::Fast_Acos
PUBLIC	?Fast_Asin@WWMath@@SAMM@Z			; WWMath::Fast_Asin
PUBLIC	?Acos@WWMath@@SAMM@Z				; WWMath::Acos
PUBLIC	?Asin@WWMath@@SAMM@Z				; WWMath::Asin
PUBLIC	?Atan@WWMath@@SAMM@Z				; WWMath::Atan
PUBLIC	?Atan2@WWMath@@SAMMM@Z				; WWMath::Atan2
PUBLIC	?Sign@WWMath@@SAMM@Z				; WWMath::Sign
PUBLIC	?Ceil@WWMath@@SAMM@Z				; WWMath::Ceil
PUBLIC	?Floor@WWMath@@SAMM@Z				; WWMath::Floor
PUBLIC	?Fast_Is_Float_Positive@WWMath@@SA_NABM@Z	; WWMath::Fast_Is_Float_Positive
PUBLIC	?Random_Float@WWMath@@SAMMM@Z			; WWMath::Random_Float
PUBLIC	?Clamp@WWMath@@SAMMMM@Z				; WWMath::Clamp
PUBLIC	?Clamp@WWMath@@SANNNN@Z				; WWMath::Clamp
PUBLIC	?Clamp_Int@WWMath@@SAHHHH@Z			; WWMath::Clamp_Int
PUBLIC	?Wrap@WWMath@@SAMMMM@Z				; WWMath::Wrap
PUBLIC	?Wrap@WWMath@@SANNNN@Z				; WWMath::Wrap
PUBLIC	?Min@WWMath@@SAMMM@Z				; WWMath::Min
PUBLIC	?Max@WWMath@@SAMMM@Z				; WWMath::Max
PUBLIC	?Lerp@WWMath@@SAMMMM@Z				; WWMath::Lerp
PUBLIC	?Lerp@WWMath@@SANNNM@Z				; WWMath::Lerp
PUBLIC	?Lerp@WWMath@@SAHHHM@Z				; WWMath::Lerp
PUBLIC	?Float_To_Long@WWMath@@SAJN@Z			; WWMath::Float_To_Long
PUBLIC	?Unit_Float_To_Byte@WWMath@@SAEM@Z		; WWMath::Unit_Float_To_Byte
PUBLIC	?Byte_To_Unit_Float@WWMath@@SAME@Z		; WWMath::Byte_To_Unit_Float
PUBLIC	?Is_Valid_Float@WWMath@@SA_NM@Z			; WWMath::Is_Valid_Float
PUBLIC	?Is_Valid_Double@WWMath@@SA_NN@Z		; WWMath::Is_Valid_Double
PUBLIC	??4WWMath@@QAEAAV0@ABV0@@Z			; WWMath::operator=
PUBLIC	??B?$RefArrayHelper@M$0EAA@@@QAEPAMXZ		; RefArrayHelper<float,1024>::operator float *
PUBLIC	??0Vector3@@QAE@XZ				; Vector3::Vector3
PUBLIC	??0Vector3@@QAE@ABV0@@Z				; Vector3::Vector3
PUBLIC	??0Vector3@@QAE@MMM@Z				; Vector3::Vector3
PUBLIC	??4Vector3@@QAEAAV0@ABV0@@Z			; Vector3::operator=
PUBLIC	?Set@Vector3@@QAEXMMM@Z				; Vector3::Set
PUBLIC	??AVector3@@QAEAAMH@Z				; Vector3::operator[]
PUBLIC	??AVector3@@QBEABMH@Z				; Vector3::operator[]
PUBLIC	?Normalize@Vector3@@QAEXXZ			; Vector3::Normalize
PUBLIC	?Length@Vector3@@QBEMXZ				; Vector3::Length
PUBLIC	?Length2@Vector3@@QBEMXZ			; Vector3::Length2
PUBLIC	??YVector3@@QAEAAV0@ABV0@@Z			; Vector3::operator+=
PUBLIC	??ZVector3@@QAEAAV0@ABV0@@Z			; Vector3::operator-=
PUBLIC	??XVector3@@QAEAAV0@M@Z				; Vector3::operator*=
PUBLIC	??_0Vector3@@QAEAAV0@M@Z			; Vector3::operator/=
PUBLIC	??D@YA?AVVector3@@ABV0@M@Z			; operator*
PUBLIC	??D@YA?AVVector3@@MABV0@@Z			; operator*
PUBLIC	??H@YA?AVVector3@@ABV0@0@Z			; operator+
PUBLIC	??G@YA?AVVector3@@ABV0@0@Z			; operator-
PUBLIC	?Add@Vector3@@SAXABV1@0PAV1@@Z			; Vector3::Add
PUBLIC	?Subtract@Vector3@@SAXABV1@0PAV1@@Z		; Vector3::Subtract
PUBLIC	?Swap@@YAXAAVVector3@@0@Z			; Swap
PUBLIC	??0GameObjObserverClass@@QAE@XZ			; GameObjObserverClass::GameObjObserverClass
PUBLIC	??1GameObjObserverClass@@UAE@XZ			; GameObjObserverClass::~GameObjObserverClass
PUBLIC	?Set_ID@GameObjObserverClass@@QAEXH@Z		; GameObjObserverClass::Set_ID
PUBLIC	?Get_ID@GameObjObserverClass@@QAEHXZ		; GameObjObserverClass::Get_ID
PUBLIC	?Owner@GameObjObserverClass@@UAEPAVScriptableGameObj@@XZ ; GameObjObserverClass::Owner
PUBLIC	??0GameObjObserverClass@@QAE@ABV0@@Z		; GameObjObserverClass::GameObjObserverClass
PUBLIC	??4GameObjObserverClass@@QAEAAV0@ABV0@@Z	; GameObjObserverClass::operator=
PUBLIC	??_GGameObjObserverClass@@UAEPAXI@Z		; GameObjObserverClass::`scalar deleting destructor'
PUBLIC	??_EGameObjObserverClass@@UAEPAXI@Z		; GameObjObserverClass::`vector deleting destructor'
PUBLIC	??1ScriptClass@@UAE@XZ				; ScriptClass::~ScriptClass
PUBLIC	??0ScriptClass@@QAE@XZ				; ScriptClass::ScriptClass
PUBLIC	??0ScriptClass@@QAE@ABV0@@Z			; ScriptClass::ScriptClass
PUBLIC	??4ScriptClass@@QAEAAV0@ABV0@@Z			; ScriptClass::operator=
PUBLIC	??_GScriptClass@@UAEPAXI@Z			; ScriptClass::`scalar deleting destructor'
PUBLIC	??_EScriptClass@@UAEPAXI@Z			; ScriptClass::`vector deleting destructor'
PUBLIC	?SetFactory@ScriptImpClass@@QAEXPAVScriptFactory@@@Z ; ScriptImpClass::SetFactory
PUBLIC	?Created@ScriptImpClass@@UAEXPAVScriptableGameObj@@@Z ; ScriptImpClass::Created
PUBLIC	?Destroyed@ScriptImpClass@@UAEXPAVScriptableGameObj@@@Z ; ScriptImpClass::Destroyed
PUBLIC	?Killed@ScriptImpClass@@UAEXPAVScriptableGameObj@@0@Z ; ScriptImpClass::Killed
PUBLIC	?Damaged@ScriptImpClass@@UAEXPAVScriptableGameObj@@0M@Z ; ScriptImpClass::Damaged
PUBLIC	?Custom@ScriptImpClass@@UAEXPAVScriptableGameObj@@HH0@Z ; ScriptImpClass::Custom
PUBLIC	?Sound_Heard@ScriptImpClass@@UAEXPAVScriptableGameObj@@ABUCombatSound@@@Z ; ScriptImpClass::Sound_Heard
PUBLIC	?Enemy_Seen@ScriptImpClass@@UAEXPAVScriptableGameObj@@0@Z ; ScriptImpClass::Enemy_Seen
PUBLIC	?Action_Complete@ScriptImpClass@@UAEXPAVScriptableGameObj@@HW4ActionCompleteReason@@@Z ; ScriptImpClass::Action_Complete
PUBLIC	?Timer_Expired@ScriptImpClass@@UAEXPAVScriptableGameObj@@H@Z ; ScriptImpClass::Timer_Expired
PUBLIC	?Animation_Complete@ScriptImpClass@@UAEXPAVScriptableGameObj@@PBD@Z ; ScriptImpClass::Animation_Complete
PUBLIC	?Poked@ScriptImpClass@@UAEXPAVScriptableGameObj@@0@Z ; ScriptImpClass::Poked
PUBLIC	?Entered@ScriptImpClass@@UAEXPAVScriptableGameObj@@0@Z ; ScriptImpClass::Entered
PUBLIC	?Exited@ScriptImpClass@@UAEXPAVScriptableGameObj@@0@Z ; ScriptImpClass::Exited
PUBLIC	?Owner@ScriptImpClass@@UAEPAVScriptableGameObj@@XZ ; ScriptImpClass::Owner
PUBLIC	?Get_Owner_Ptr@ScriptImpClass@@UAEPAPAVScriptableGameObj@@XZ ; ScriptImpClass::Get_Owner_Ptr
PUBLIC	?Save_Data@ScriptImpClass@@UAEXAAVScriptSaver@@@Z ; ScriptImpClass::Save_Data
PUBLIC	?Load_Data@ScriptImpClass@@UAEXAAVScriptLoader@@@Z ; ScriptImpClass::Load_Data
PUBLIC	?Register_Auto_Save_Variables@ScriptImpClass@@UAEXXZ ; ScriptImpClass::Register_Auto_Save_Variables
PUBLIC	?Get_Parameter_Count@ScriptImpClass@@QAEHXZ	; ScriptImpClass::Get_Parameter_Count
PUBLIC	?Get_Int_Parameter@ScriptImpClass@@QAEHH@Z	; ScriptImpClass::Get_Int_Parameter
PUBLIC	?Get_Float_Parameter@ScriptImpClass@@QAEMH@Z	; ScriptImpClass::Get_Float_Parameter
PUBLIC	?Get_Bool_Parameter@ScriptImpClass@@QAE_NPBD@Z	; ScriptImpClass::Get_Bool_Parameter
PUBLIC	?Get_Bool_Parameter@ScriptImpClass@@QAE_NH@Z	; ScriptImpClass::Get_Bool_Parameter
PUBLIC	??0ScriptImpClass@@QAE@ABV0@@Z			; ScriptImpClass::ScriptImpClass
PUBLIC	??4ScriptImpClass@@QAEAAV0@ABV0@@Z		; ScriptImpClass::operator=
PUBLIC	??_GScriptImpClass@@UAEPAXI@Z			; ScriptImpClass::`scalar deleting destructor'
PUBLIC	??_EScriptImpClass@@UAEPAXI@Z			; ScriptImpClass::`vector deleting destructor'
PUBLIC	??0ActionParamsStruct@@QAE@XZ			; ActionParamsStruct::ActionParamsStruct
PUBLIC	?Set_Basic@ActionParamsStruct@@QAEXPAVGameObjObserverClass@@MHW4SoldierAIState@@@Z ; ActionParamsStruct::Set_Basic
PUBLIC	?Set_Movement@ActionParamsStruct@@QAEXABVVector3@@MM_N@Z ; ActionParamsStruct::Set_Movement
PUBLIC	?Set_Movement@ActionParamsStruct@@QAEXPAVScriptableGameObj@@MM_N@Z ; ActionParamsStruct::Set_Movement
PUBLIC	?Set_Attack@ActionParamsStruct@@QAEXABVVector3@@MM_N@Z ; ActionParamsStruct::Set_Attack
PUBLIC	?Set_Attack@ActionParamsStruct@@QAEXPAVScriptableGameObj@@MM_N@Z ; ActionParamsStruct::Set_Attack
PUBLIC	??0ScriptFactory@@QAE@ABV0@@Z			; ScriptFactory::ScriptFactory
PUBLIC	??4ScriptFactory@@QAEAAV0@ABV0@@Z		; ScriptFactory::operator=
PUBLIC	??_GScriptFactory@@UAEPAXI@Z			; ScriptFactory::`scalar deleting destructor'
PUBLIC	??_EScriptFactory@@UAEPAXI@Z			; ScriptFactory::`vector deleting destructor'
PUBLIC	??4ScriptRegistrar@@QAEAAV0@ABV0@@Z		; ScriptRegistrar::operator=
PUBLIC	?Is_Running@ThreadClass@@QAE_NXZ		; ThreadClass::Is_Running
PUBLIC	?Get_Current_Thread_ID@ThreadClass@@SAHXZ	; ThreadClass::Get_Current_Thread_ID
PUBLIC	?Get_Name@ThreadClass@@QAEPBDXZ			; ThreadClass::Get_Name
PUBLIC	??0ThreadClass@@QAE@ABV0@@Z			; ThreadClass::ThreadClass
PUBLIC	??4ThreadClass@@QAEAAV0@ABV0@@Z			; ThreadClass::operator=
PUBLIC	??_GThreadClass@@UAEPAXI@Z			; ThreadClass::`scalar deleting destructor'
PUBLIC	??_EThreadClass@@UAEPAXI@Z			; ThreadClass::`vector deleting destructor'
PUBLIC	??4CriticalSectionClass@@QAEAAV0@ABV0@@Z	; CriticalSectionClass::operator=
PUBLIC	?Enter@FastCriticalSectionClass@@AAEXXZ		; FastCriticalSectionClass::Enter
PUBLIC	?Leave@FastCriticalSectionClass@@AAEXXZ		; FastCriticalSectionClass::Leave
PUBLIC	??0LockClass@FastCriticalSectionClass@@QAE@AAV1@@Z ; FastCriticalSectionClass::LockClass::LockClass
PUBLIC	??1LockClass@FastCriticalSectionClass@@QAE@XZ	; FastCriticalSectionClass::LockClass::~LockClass
PUBLIC	??0FastCriticalSectionClass@@QAE@XZ		; FastCriticalSectionClass::FastCriticalSectionClass
PUBLIC	?Release_Ref@RefCountClass@@QAEXXZ		; RefCountClass::Release_Ref
PUBLIC	??0StringClass@@QAE@H_N@Z			; StringClass::StringClass
PUBLIC	??0StringClass@@QAE@ABV0@_N@Z			; StringClass::StringClass
PUBLIC	??0StringClass@@QAE@PBD_N@Z			; StringClass::StringClass
PUBLIC	??1StringClass@@QAE@XZ				; StringClass::~StringClass
PUBLIC	??4StringClass@@QAEABV0@PBD@Z			; StringClass::operator=
PUBLIC	??4StringClass@@QAEABV0@ABV0@@Z			; StringClass::operator=
PUBLIC	??BStringClass@@QBEPBDXZ			; StringClass::operator char const *
PUBLIC	?Get_Length@StringClass@@QBEHXZ			; StringClass::Get_Length
PUBLIC	?getFormattedString@StringClass@@SA?AV1@PBDZZ	; StringClass::getFormattedString
PUBLIC	?Store_Length@StringClass@@AAEXH@Z		; StringClass::Store_Length
PUBLIC	?Get_Header@StringClass@@ABEPAU_HEADER@1@XZ	; StringClass::Get_Header
PUBLIC	??_EStringClass@@QAEPAXI@Z			; StringClass::`vector deleting destructor'
PUBLIC	??1WideStringClass@@QAE@XZ			; WideStringClass::~WideStringClass
PUBLIC	??_EWideStringClass@@QAEPAXI@Z			; WideStringClass::`vector deleting destructor'
PUBLIC	??4ChunkLoadClass@@QAEAAV0@ABV0@@Z		; ChunkLoadClass::operator=
PUBLIC	?Set_Contains_Chunks@ChunkSaveClass@@QAEXXZ	; ChunkSaveClass::Set_Contains_Chunks
PUBLIC	??4ChunkSaveClass@@QAEAAV0@ABV0@@Z		; ChunkSaveClass::operator=
PUBLIC	?Is_Present@INIClass@@QBE_NPBD0@Z		; INIClass::Is_Present
PUBLIC	?Section_Present@INIClass@@QBE_NPBD@Z		; INIClass::Section_Present
PUBLIC	?Get_Section_List@INIClass@@QAEAAV?$List@PAUINISection@@@@XZ ; INIClass::Get_Section_List
PUBLIC	?Get_Section_Index@INIClass@@QAEAAV?$IndexClass@HPAUINISection@@@@XZ ; INIClass::Get_Section_Index
PUBLIC	?Get_File_Name@INIClass@@QAEPBDXZ		; INIClass::Get_File_Name
PUBLIC	??0INIClass@@QAE@ABV0@@Z			; INIClass::INIClass
PUBLIC	??4INIClass@@QAEAAV0@ABV0@@Z			; INIClass::operator=
PUBLIC	??_GINIClass@@UAEPAXI@Z				; INIClass::`scalar deleting destructor'
PUBLIC	??_EINIClass@@UAEPAXI@Z				; INIClass::`vector deleting destructor'
PUBLIC	??Cfile_auto_ptr@@QAEPAVFileClass@@XZ		; file_auto_ptr::operator->
PUBLIC	??Bfile_auto_ptr@@QAEPAVFileClass@@XZ		; file_auto_ptr::operator FileClass *
PUBLIC	??Dfile_auto_ptr@@QAEAAVFileClass@@XZ		; file_auto_ptr::operator*
PUBLIC	?get@file_auto_ptr@@QAEPAVFileClass@@XZ		; file_auto_ptr::get
PUBLIC	??4file_auto_ptr@@QAEAAV0@ABV0@@Z		; file_auto_ptr::operator=
PUBLIC	??0Vector4@@QAE@XZ				; Vector4::Vector4
PUBLIC	??0Vector4@@QAE@MMMM@Z				; Vector4::Vector4
PUBLIC	??4Vector4@@QAEAAV0@ABV0@@Z			; Vector4::operator=
PUBLIC	?Set@Vector4@@QAEXMMMM@Z			; Vector4::Set
PUBLIC	??AVector4@@QAEAAMH@Z				; Vector4::operator[]
PUBLIC	??AVector4@@QBEABMH@Z				; Vector4::operator[]
PUBLIC	??YVector4@@QAEAAV0@ABV0@@Z			; Vector4::operator+=
PUBLIC	??ZVector4@@QAEAAV0@ABV0@@Z			; Vector4::operator-=
PUBLIC	??XVector4@@QAEAAV0@M@Z				; Vector4::operator*=
PUBLIC	??AMatrix3D@@QAEAAVVector4@@H@Z			; Matrix3D::operator[]
PUBLIC	??AMatrix3D@@QBEABVVector4@@H@Z			; Matrix3D::operator[]
PUBLIC	??0Matrix3D@@QAE@_N@Z				; Matrix3D::Matrix3D
PUBLIC	??0Matrix3D@@QAE@QAM@Z				; Matrix3D::Matrix3D
PUBLIC	??0Matrix3D@@QAE@ABVVector3@@000@Z		; Matrix3D::Matrix3D
PUBLIC	??0Matrix3D@@QAE@ABVVector3@@M@Z		; Matrix3D::Matrix3D
PUBLIC	??0Matrix3D@@QAE@ABVVector3@@MM@Z		; Matrix3D::Matrix3D
PUBLIC	??0Matrix3D@@QAE@ABVMatrix3@@ABVVector3@@@Z	; Matrix3D::Matrix3D
PUBLIC	??0Matrix3D@@QAE@ABVQuaternion@@ABVVector3@@@Z	; Matrix3D::Matrix3D
PUBLIC	??0Matrix3D@@QAE@ABVVector3@@@Z			; Matrix3D::Matrix3D
PUBLIC	??0Matrix3D@@QAE@ABV0@@Z			; Matrix3D::Matrix3D
PUBLIC	??4Matrix3D@@QAEAAV0@ABV0@@Z			; Matrix3D::operator=
PUBLIC	?Set@Matrix3D@@QAEXQAM@Z			; Matrix3D::Set
PUBLIC	?Set@Matrix3D@@QAEXMMMMMMMMMMMM@Z		; Matrix3D::Set
PUBLIC	?Set@Matrix3D@@QAEXABVVector3@@000@Z		; Matrix3D::Set
PUBLIC	?Set@Matrix3D@@QAEXABVVector3@@M@Z		; Matrix3D::Set
PUBLIC	?Set@Matrix3D@@QAEXABVVector3@@MM@Z		; Matrix3D::Set
PUBLIC	?Set@Matrix3D@@QAEXABVVector3@@@Z		; Matrix3D::Set
PUBLIC	?Get_Translation@Matrix3D@@QBE?AVVector3@@XZ	; Matrix3D::Get_Translation
PUBLIC	?Get_Translation@Matrix3D@@QBEXPAVVector3@@@Z	; Matrix3D::Get_Translation
PUBLIC	?Set_Translation@Matrix3D@@QAEXABVVector3@@@Z	; Matrix3D::Set_Translation
PUBLIC	?Get_X_Translation@Matrix3D@@QBEMXZ		; Matrix3D::Get_X_Translation
PUBLIC	?Get_Y_Translation@Matrix3D@@QBEMXZ		; Matrix3D::Get_Y_Translation
PUBLIC	?Get_Z_Translation@Matrix3D@@QBEMXZ		; Matrix3D::Get_Z_Translation
PUBLIC	?Set_X_Translation@Matrix3D@@QAEXM@Z		; Matrix3D::Set_X_Translation
PUBLIC	?Set_Y_Translation@Matrix3D@@QAEXM@Z		; Matrix3D::Set_Y_Translation
PUBLIC	?Set_Z_Translation@Matrix3D@@QAEXM@Z		; Matrix3D::Set_Z_Translation
PUBLIC	?Adjust_Translation@Matrix3D@@QAEXABVVector3@@@Z ; Matrix3D::Adjust_Translation
PUBLIC	?Adjust_X_Translation@Matrix3D@@QAEXM@Z		; Matrix3D::Adjust_X_Translation
PUBLIC	?Adjust_Y_Translation@Matrix3D@@QAEXM@Z		; Matrix3D::Adjust_Y_Translation
PUBLIC	?Adjust_Z_Translation@Matrix3D@@QAEXM@Z		; Matrix3D::Adjust_Z_Translation
PUBLIC	?Make_Identity@Matrix3D@@QAEXXZ			; Matrix3D::Make_Identity
PUBLIC	?Translate@Matrix3D@@QAEXMMM@Z			; Matrix3D::Translate
PUBLIC	?Translate@Matrix3D@@QAEXABVVector3@@@Z		; Matrix3D::Translate
PUBLIC	?Translate_X@Matrix3D@@QAEXM@Z			; Matrix3D::Translate_X
PUBLIC	?Translate_Y@Matrix3D@@QAEXM@Z			; Matrix3D::Translate_Y
PUBLIC	?Translate_Z@Matrix3D@@QAEXM@Z			; Matrix3D::Translate_Z
PUBLIC	?Rotate_X@Matrix3D@@QAEXM@Z			; Matrix3D::Rotate_X
PUBLIC	?Rotate_Y@Matrix3D@@QAEXM@Z			; Matrix3D::Rotate_Y
PUBLIC	?Rotate_Z@Matrix3D@@QAEXM@Z			; Matrix3D::Rotate_Z
PUBLIC	?Rotate_X@Matrix3D@@QAEXMM@Z			; Matrix3D::Rotate_X
PUBLIC	?Rotate_Y@Matrix3D@@QAEXMM@Z			; Matrix3D::Rotate_Y
PUBLIC	?Rotate_Z@Matrix3D@@QAEXMM@Z			; Matrix3D::Rotate_Z
PUBLIC	?Scale@Matrix3D@@QAEXM@Z			; Matrix3D::Scale
PUBLIC	?Scale@Matrix3D@@QAEXMMM@Z			; Matrix3D::Scale
PUBLIC	?Scale@Matrix3D@@QAEXAAVVector3@@@Z		; Matrix3D::Scale
PUBLIC	?Pre_Rotate_X@Matrix3D@@QAEXM@Z			; Matrix3D::Pre_Rotate_X
PUBLIC	?Pre_Rotate_Y@Matrix3D@@QAEXM@Z			; Matrix3D::Pre_Rotate_Y
PUBLIC	?Pre_Rotate_Z@Matrix3D@@QAEXM@Z			; Matrix3D::Pre_Rotate_Z
PUBLIC	?Pre_Rotate_X@Matrix3D@@QAEXMM@Z		; Matrix3D::Pre_Rotate_X
PUBLIC	?Pre_Rotate_Y@Matrix3D@@QAEXMM@Z		; Matrix3D::Pre_Rotate_Y
PUBLIC	?Pre_Rotate_Z@Matrix3D@@QAEXMM@Z		; Matrix3D::Pre_Rotate_Z
PUBLIC	?In_Place_Pre_Rotate_X@Matrix3D@@QAEXM@Z	; Matrix3D::In_Place_Pre_Rotate_X
PUBLIC	?In_Place_Pre_Rotate_Y@Matrix3D@@QAEXM@Z	; Matrix3D::In_Place_Pre_Rotate_Y
PUBLIC	?In_Place_Pre_Rotate_Z@Matrix3D@@QAEXM@Z	; Matrix3D::In_Place_Pre_Rotate_Z
PUBLIC	?In_Place_Pre_Rotate_X@Matrix3D@@QAEXMM@Z	; Matrix3D::In_Place_Pre_Rotate_X
PUBLIC	?In_Place_Pre_Rotate_Y@Matrix3D@@QAEXMM@Z	; Matrix3D::In_Place_Pre_Rotate_Y
PUBLIC	?In_Place_Pre_Rotate_Z@Matrix3D@@QAEXMM@Z	; Matrix3D::In_Place_Pre_Rotate_Z
PUBLIC	?Transform_Vector@Matrix3D@@SAXABV1@ABVVector3@@PAV2@@Z ; Matrix3D::Transform_Vector
PUBLIC	?Get_X_Vector@Matrix3D@@QBE?AVVector3@@XZ	; Matrix3D::Get_X_Vector
PUBLIC	?Get_Y_Vector@Matrix3D@@QBE?AVVector3@@XZ	; Matrix3D::Get_Y_Vector
PUBLIC	?Get_Z_Vector@Matrix3D@@QBE?AVVector3@@XZ	; Matrix3D::Get_Z_Vector
PUBLIC	?Get_X_Vector@Matrix3D@@QBEXPAVVector3@@@Z	; Matrix3D::Get_X_Vector
PUBLIC	?Get_Y_Vector@Matrix3D@@QBEXPAVVector3@@@Z	; Matrix3D::Get_Y_Vector
PUBLIC	?Get_Z_Vector@Matrix3D@@QBEXPAVVector3@@@Z	; Matrix3D::Get_Z_Vector
PUBLIC	?Rotate_Vector@Matrix3D@@SAXABV1@ABVVector3@@PAV2@@Z ; Matrix3D::Rotate_Vector
PUBLIC	?Inverse_Transform_Vector@Matrix3D@@SAXABV1@ABVVector3@@PAV2@@Z ; Matrix3D::Inverse_Transform_Vector
PUBLIC	?Inverse_Rotate_Vector@Matrix3D@@SAXABV1@ABVVector3@@PAV2@@Z ; Matrix3D::Inverse_Rotate_Vector
PUBLIC	?Get_Network_ID@NetworkObjectClass@@QBEHXZ	; NetworkObjectClass::Get_Network_ID
PUBLIC	??0Matrix4@@QAE@XZ				; Matrix4::Matrix4
PUBLIC	??0Matrix4@@QAE@ABV0@@Z				; Matrix4::Matrix4
PUBLIC	??0Matrix4@@QAE@_N@Z				; Matrix4::Matrix4
PUBLIC	??0Matrix4@@QAE@ABVMatrix3D@@@Z			; Matrix4::Matrix4
PUBLIC	??0Matrix4@@QAE@ABVVector4@@000@Z		; Matrix4::Matrix4
PUBLIC	?Make_Identity@Matrix4@@QAEXXZ			; Matrix4::Make_Identity
PUBLIC	?Init@Matrix4@@QAEXABVMatrix3D@@@Z		; Matrix4::Init
PUBLIC	?Init@Matrix4@@QAEXABVVector4@@000@Z		; Matrix4::Init
PUBLIC	?Init_Ortho_OGL@Matrix4@@QAEXMMMMMM@Z		; Matrix4::Init_Ortho_OGL
PUBLIC	?Init_Perspective_OGL@Matrix4@@QAEXMMMM@Z	; Matrix4::Init_Perspective_OGL
PUBLIC	?Init_Perspective_OGL@Matrix4@@QAEXMMMMMM@Z	; Matrix4::Init_Perspective_OGL
PUBLIC	?Init_Ortho@Matrix4@@QAEXMMMMMM@Z		; Matrix4::Init_Ortho
PUBLIC	?Init_Perspective@Matrix4@@QAEXMMMMMM@Z		; Matrix4::Init_Perspective
PUBLIC	??AMatrix4@@QAEAAVVector4@@H@Z			; Matrix4::operator[]
PUBLIC	??AMatrix4@@QBEABVVector4@@H@Z			; Matrix4::operator[]
PUBLIC	?Transpose@Matrix4@@QBE?AV1@XZ			; Matrix4::Transpose
PUBLIC	?Determinant@Matrix4@@QBEMXZ			; Matrix4::Determinant
PUBLIC	?Inverse@Matrix4@@QBE?AV1@XZ			; Matrix4::Inverse
PUBLIC	??4Matrix4@@QAEAAV0@ABV0@@Z			; Matrix4::operator=
PUBLIC	??YMatrix4@@QAEAAV0@ABV0@@Z			; Matrix4::operator+=
PUBLIC	??ZMatrix4@@QAEAAV0@ABV0@@Z			; Matrix4::operator-=
PUBLIC	??XMatrix4@@QAEAAV0@M@Z				; Matrix4::operator*=
PUBLIC	??_0Matrix4@@QAEAAV0@M@Z			; Matrix4::operator/=
PUBLIC	?Transform_Vector@Matrix4@@SAXABV1@ABVVector3@@PAV2@@Z ; Matrix4::Transform_Vector
PUBLIC	?Transform_Vector@Matrix4@@SAXABV1@ABVVector3@@PAVVector4@@@Z ; Matrix4::Transform_Vector
PUBLIC	?Transform_Vector@Matrix4@@SAXABV1@ABVVector4@@PAV2@@Z ; Matrix4::Transform_Vector
PUBLIC	??0Matrix3@@QAE@XZ				; Matrix3::Matrix3
PUBLIC	??0Matrix3@@QAE@ABV0@@Z				; Matrix3::Matrix3
PUBLIC	??0Matrix3@@QAE@_N@Z				; Matrix3::Matrix3
PUBLIC	??0Matrix3@@QAE@ABVVector3@@00@Z		; Matrix3::Matrix3
PUBLIC	??0Matrix3@@QAE@MMMMMMMMM@Z			; Matrix3::Matrix3
PUBLIC	??0Matrix3@@QAE@ABVVector3@@M@Z			; Matrix3::Matrix3
PUBLIC	??0Matrix3@@QAE@ABVVector3@@MM@Z		; Matrix3::Matrix3
PUBLIC	??0Matrix3@@QAE@ABVQuaternion@@@Z		; Matrix3::Matrix3
PUBLIC	?Set@Matrix3@@QAEXABVVector3@@00@Z		; Matrix3::Set
PUBLIC	?Set@Matrix3@@QAEXMMMMMMMMM@Z			; Matrix3::Set
PUBLIC	?Set@Matrix3@@QAEXABVVector3@@M@Z		; Matrix3::Set
PUBLIC	?Set@Matrix3@@QAEXABVVector3@@MM@Z		; Matrix3::Set
PUBLIC	??AMatrix3@@QAEAAVVector3@@H@Z			; Matrix3::operator[]
PUBLIC	??AMatrix3@@QBEABVVector3@@H@Z			; Matrix3::operator[]
PUBLIC	?Transpose@Matrix3@@QBE?AV1@XZ			; Matrix3::Transpose
PUBLIC	?Determinant@Matrix3@@QBEMXZ			; Matrix3::Determinant
PUBLIC	??4Matrix3@@QAEAAV0@ABV0@@Z			; Matrix3::operator=
PUBLIC	??YMatrix3@@QAEAAV0@ABV0@@Z			; Matrix3::operator+=
PUBLIC	??ZMatrix3@@QAEAAV0@ABV0@@Z			; Matrix3::operator-=
PUBLIC	??XMatrix3@@QAEAAV0@M@Z				; Matrix3::operator*=
PUBLIC	??_0Matrix3@@QAEAAV0@M@Z			; Matrix3::operator/=
PUBLIC	?Make_Identity@Matrix3@@QAEXXZ			; Matrix3::Make_Identity
PUBLIC	?Rotate_X@Matrix3@@QAEXM@Z			; Matrix3::Rotate_X
PUBLIC	?Rotate_X@Matrix3@@QAEXMM@Z			; Matrix3::Rotate_X
PUBLIC	?Rotate_Y@Matrix3@@QAEXM@Z			; Matrix3::Rotate_Y
PUBLIC	?Rotate_Y@Matrix3@@QAEXMM@Z			; Matrix3::Rotate_Y
PUBLIC	?Rotate_Z@Matrix3@@QAEXM@Z			; Matrix3::Rotate_Z
PUBLIC	?Rotate_Z@Matrix3@@QAEXMM@Z			; Matrix3::Rotate_Z
PUBLIC	?Get_X_Rotation@Matrix3@@QBEMXZ			; Matrix3::Get_X_Rotation
PUBLIC	?Get_Y_Rotation@Matrix3@@QBEMXZ			; Matrix3::Get_Y_Rotation
PUBLIC	?Get_Z_Rotation@Matrix3@@QBEMXZ			; Matrix3::Get_Z_Rotation
PUBLIC	?Get_X_Vector@Matrix3@@QBE?AVVector3@@XZ	; Matrix3::Get_X_Vector
PUBLIC	?Get_Y_Vector@Matrix3@@QBE?AVVector3@@XZ	; Matrix3::Get_Y_Vector
PUBLIC	?Get_Z_Vector@Matrix3@@QBE?AVVector3@@XZ	; Matrix3::Get_Z_Vector
PUBLIC	?Get_X_Vector@Matrix3@@QBEXPAVVector3@@@Z	; Matrix3::Get_X_Vector
PUBLIC	?Get_Y_Vector@Matrix3@@QBEXPAVVector3@@@Z	; Matrix3::Get_Y_Vector
PUBLIC	?Get_Z_Vector@Matrix3@@QBEXPAVVector3@@@Z	; Matrix3::Get_Z_Vector
PUBLIC	??D@YA?AVVector3@@ABVMatrix3@@ABV0@@Z		; operator*
PUBLIC	?Add@Matrix3@@SAXABV1@0PAV1@@Z			; Matrix3::Add
PUBLIC	?Subtract@Matrix3@@SAXABV1@0PAV1@@Z		; Matrix3::Subtract
PUBLIC	?Rotate_Vector@Matrix3@@SAXABV1@ABVVector3@@PAV2@@Z ; Matrix3::Rotate_Vector
PUBLIC	?Transpose_Rotate_Vector@Matrix3@@SAXABV1@ABVVector3@@PAV2@@Z ; Matrix3::Transpose_Rotate_Vector
PUBLIC	?Rotate_AABox_Extent@Matrix3@@QAEXABVVector3@@PAV2@@Z ; Matrix3::Rotate_AABox_Extent
PUBLIC	?Inverse@Matrix3@@QBE?AV1@XZ			; Matrix3::Inverse
PUBLIC	??0OBBoxClass@@QAE@ABVVector3@@0ABVMatrix3@@@Z	; OBBoxClass::OBBoxClass
PUBLIC	??4SysTimeClass@@QAEAAV0@ABV0@@Z		; SysTimeClass::operator=
PUBLIC	?Is_Valid@DataSafeHandleClass@@QBE_NXZ		; DataSafeHandleClass::Is_Valid
PUBLIC	??BDataSafeHandleClass@@QAEHXZ			; DataSafeHandleClass::operator int
PUBLIC	?Security_Check@GenericDataSafeClass@@KAXXZ	; GenericDataSafeClass::Security_Check
PUBLIC	?Security_Fault@GenericDataSafeClass@@KAXXZ	; GenericDataSafeClass::Security_Fault
PUBLIC	??B?$RefArray@PAVDataSafeEntryListClass@@$0CAAA@@@QAEPAPAVDataSafeEntryListClass@@XZ ; RefArray<DataSafeEntryListClass *,8192>::operator DataSafeEntryListClass * *
PUBLIC	?Get@?$DataSafeClass@H@@SA_NVDataSafeHandleClass@@AAPAH@Z ; DataSafeClass<int>::Get
PUBLIC	??0PostLoadableClass@@QAE@XZ			; PostLoadableClass::PostLoadableClass
PUBLIC	??1PostLoadableClass@@UAE@XZ			; PostLoadableClass::~PostLoadableClass
PUBLIC	?On_Post_Load@PostLoadableClass@@UAEXXZ		; PostLoadableClass::On_Post_Load
PUBLIC	?Is_Post_Load_Registered@PostLoadableClass@@QBE_NXZ ; PostLoadableClass::Is_Post_Load_Registered
PUBLIC	?Set_Post_Load_Registered@PostLoadableClass@@QAEX_N@Z ; PostLoadableClass::Set_Post_Load_Registered
PUBLIC	??0PostLoadableClass@@QAE@ABV0@@Z		; PostLoadableClass::PostLoadableClass
PUBLIC	??4PostLoadableClass@@QAEAAV0@ABV0@@Z		; PostLoadableClass::operator=
PUBLIC	??_GPostLoadableClass@@UAEPAXI@Z		; PostLoadableClass::`scalar deleting destructor'
PUBLIC	??_EPostLoadableClass@@UAEPAXI@Z		; PostLoadableClass::`vector deleting destructor'
PUBLIC	??CReferencerClass@@QAEPAVScriptableGameObj@@XZ	; ReferencerClass::operator->
PUBLIC	??0ReferencerClass@@QAE@XZ			; ReferencerClass::ReferencerClass
PUBLIC	??0ReferencerClass@@QAE@PAVScriptableGameObj@@@Z ; ReferencerClass::ReferencerClass
PUBLIC	?Get_Ptr@ReferencerClass@@QBEPAVScriptableGameObj@@XZ ; ReferencerClass::Get_Ptr
PUBLIC	?Set_Ptr@ReferencerClass@@QAEXPAVScriptableGameObj@@@Z ; ReferencerClass::Set_Ptr
PUBLIC	??0ReferencerClass@@QAE@ABV0@@Z			; ReferencerClass::ReferencerClass
PUBLIC	??_GReferencerClass@@UAEPAXI@Z			; ReferencerClass::`scalar deleting destructor'
PUBLIC	??_EReferencerClass@@UAEPAXI@Z			; ReferencerClass::`vector deleting destructor'
PUBLIC	?Get_Data@?$ReferenceableClass@VScriptableGameObj@@@@IBEPAVScriptableGameObj@@XZ ; ReferenceableClass<ScriptableGameObj>::Get_Data
PUBLIC	?Get_ID@BaseGameObj@@QBEHXZ			; BaseGameObj::Get_ID
PUBLIC	?Set_Skin@DefenseObjectClass@@QAEXI@Z		; DefenseObjectClass::Set_Skin
PUBLIC	?Get_Skin@DefenseObjectClass@@QBEIXZ		; DefenseObjectClass::Get_Skin
PUBLIC	?Get_Shield_Type@DefenseObjectClass@@QBEKXZ	; DefenseObjectClass::Get_Shield_Type
PUBLIC	?Set_Can_Object_Die@DefenseObjectClass@@QAEX_N@Z ; DefenseObjectClass::Set_Can_Object_Die
PUBLIC	?Set_Damage_Points@DefenseObjectClass@@QAEXM@Z	; DefenseObjectClass::Set_Damage_Points
PUBLIC	?Set_Death_Points@DefenseObjectClass@@QAEXM@Z	; DefenseObjectClass::Set_Death_Points
PUBLIC	??4?$SafeDataClass@M@@QAEAAMABM@Z		; SafeDataClass<float>::operator=
PUBLIC	??R?$SafeDataClass@I@@QBEAAIXZ			; SafeDataClass<unsigned int>::operator()
PUBLIC	??4?$SafeDataClass@I@@QAEAAIABI@Z		; SafeDataClass<unsigned int>::operator=
PUBLIC	??B?$SafeDataClass@I@@QBEIXZ			; SafeDataClass<unsigned int>::operator unsigned int
PUBLIC	?Get_Defense_Object@DamageableGameObj@@QAEPAVDefenseObjectClass@@XZ ; DamageableGameObj::Get_Defense_Object
PUBLIC	??0LineSegClass@@QAE@XZ				; LineSegClass::LineSegClass
PUBLIC	??0LineSegClass@@QAE@ABVVector3@@0@Z		; LineSegClass::LineSegClass
PUBLIC	??0LineSegClass@@QAE@ABVVector3@@0M@Z		; LineSegClass::LineSegClass
PUBLIC	??0LineSegClass@@QAE@ABV0@ABVMatrix3D@@@Z	; LineSegClass::LineSegClass
PUBLIC	?Set@LineSegClass@@QAEXABVVector3@@0@Z		; LineSegClass::Set
PUBLIC	?Set@LineSegClass@@QAEXABVVector3@@0M@Z		; LineSegClass::Set
PUBLIC	?Get_P0@LineSegClass@@QBEABVVector3@@XZ		; LineSegClass::Get_P0
PUBLIC	?Get_P1@LineSegClass@@QBEABVVector3@@XZ		; LineSegClass::Get_P1
PUBLIC	?Get_DP@LineSegClass@@QBEABVVector3@@XZ		; LineSegClass::Get_DP
PUBLIC	?Get_Dir@LineSegClass@@QBEABVVector3@@XZ	; LineSegClass::Get_Dir
PUBLIC	?Get_Length@LineSegClass@@QBEMXZ		; LineSegClass::Get_Length
PUBLIC	?Compute_Point@LineSegClass@@QBEXMPAVVector3@@@Z ; LineSegClass::Compute_Point
PUBLIC	?recalculate@LineSegClass@@IAEXXZ		; LineSegClass::recalculate
PUBLIC	??0LineSegClass@@QAE@ABV0@@Z			; LineSegClass::LineSegClass
PUBLIC	??4LineSegClass@@QAEAAV0@ABV0@@Z		; LineSegClass::operator=
PUBLIC	?Get_Transform@RenderObjClass@@QBEABVMatrix3D@@XZ ; RenderObjClass::Get_Transform
PUBLIC	?Get_Position@PhysClass@@QBEXPAVVector3@@@Z	; PhysClass::Get_Position
PUBLIC	?Peek_Model@PhysClass@@QAEPAVRenderObjClass@@XZ	; PhysClass::Peek_Model
PUBLIC	?Peek_Physical_Object@PhysicalGameObj@@QBEPAVPhysClass@@XZ ; PhysicalGameObj::Peek_Physical_Object
PUBLIC	?Get_Position@PhysicalGameObj@@QAE?AVVector3@@XZ ; PhysicalGameObj::Get_Position
PUBLIC	?Peek_Model@PhysicalGameObj@@QAEPAVRenderObjClass@@XZ ; PhysicalGameObj::Peek_Model
PUBLIC	??R?$SafeDataClass@H@@QBEAAHXZ			; SafeDataClass<int>::operator()
PUBLIC	??B?$SafeDataClass@H@@QBEHXZ			; SafeDataClass<int>::operator int
PUBLIC	?Get_Targeting_Pos@ArmedGameObj@@QAE?AVVector3@@XZ ; ArmedGameObj::Get_Targeting_Pos
PUBLIC	??2?$AutoPoolClass@VGenericSLNode@@$0BAA@@@SAPAXIPBDI0@Z ; AutoPoolClass<GenericSLNode,256>::operator new
PUBLIC	??3?$AutoPoolClass@VGenericSLNode@@$0BAA@@@SAXPAX@Z ; AutoPoolClass<GenericSLNode,256>::operator delete
PUBLIC	??0GenericSLNode@@IAE@PAX@Z			; GenericSLNode::GenericSLNode
PUBLIC	?Set_Definition@PurchaseSettingsDefClass@@QAEXHH@Z ; PurchaseSettingsDefClass::Set_Definition
PUBLIC	?Set_Alt_Definition@PurchaseSettingsDefClass@@QAEXHHH@Z ; PurchaseSettingsDefClass::Set_Alt_Definition
PUBLIC	??0JFW_Key_Hook_Base@@QAE@XZ			; JFW_Key_Hook_Base::JFW_Key_Hook_Base
PUBLIC	??0JFW_Key_Hook_Base@@QAE@ABV0@@Z		; JFW_Key_Hook_Base::JFW_Key_Hook_Base
PUBLIC	??4JFW_Key_Hook_Base@@QAEAAV0@ABV0@@Z		; JFW_Key_Hook_Base::operator=
PUBLIC	??_GJFW_Key_Hook_Base@@UAEPAXI@Z		; JFW_Key_Hook_Base::`scalar deleting destructor'
PUBLIC	??_EJFW_Key_Hook_Base@@UAEPAXI@Z		; JFW_Key_Hook_Base::`vector deleting destructor'
PUBLIC	??0?$SList@UKeyHookWrapperStruct@MultiKeyHookScriptImpClass@@@@QAE@XZ ; SList<MultiKeyHookScriptImpClass::KeyHookWrapperStruct>::SList<MultiKeyHookScriptImpClass::KeyHookWrapperStruct>
PUBLIC	??1?$SList@UKeyHookWrapperStruct@MultiKeyHookScriptImpClass@@@@UAE@XZ ; SList<MultiKeyHookScriptImpClass::KeyHookWrapperStruct>::~SList<MultiKeyHookScriptImpClass::KeyHookWrapperStruct>
PUBLIC	?Add_Head@?$SList@UKeyHookWrapperStruct@MultiKeyHookScriptImpClass@@@@UAE_NPAUKeyHookWrapperStruct@MultiKeyHookScriptImpClass@@@Z ; SList<MultiKeyHookScriptImpClass::KeyHookWrapperStruct>::Add_Head
PUBLIC	?Add_Head@?$SList@UKeyHookWrapperStruct@MultiKeyHookScriptImpClass@@@@UAE_NAAV1@@Z ; SList<MultiKeyHookScriptImpClass::KeyHookWrapperStruct>::Add_Head
PUBLIC	?Add_Tail@?$SList@UKeyHookWrapperStruct@MultiKeyHookScriptImpClass@@@@UAE_NPAUKeyHookWrapperStruct@MultiKeyHookScriptImpClass@@@Z ; SList<MultiKeyHookScriptImpClass::KeyHookWrapperStruct>::Add_Tail
PUBLIC	?Add_Tail@?$SList@UKeyHookWrapperStruct@MultiKeyHookScriptImpClass@@@@UAE_NAAV1@@Z ; SList<MultiKeyHookScriptImpClass::KeyHookWrapperStruct>::Add_Tail
PUBLIC	?Remove_Head@?$SList@UKeyHookWrapperStruct@MultiKeyHookScriptImpClass@@@@UAEPAUKeyHookWrapperStruct@MultiKeyHookScriptImpClass@@XZ ; SList<MultiKeyHookScriptImpClass::KeyHookWrapperStruct>::Remove_Head
PUBLIC	?Remove_Tail@?$SList@UKeyHookWrapperStruct@MultiKeyHookScriptImpClass@@@@UAEPAUKeyHookWrapperStruct@MultiKeyHookScriptImpClass@@XZ ; SList<MultiKeyHookScriptImpClass::KeyHookWrapperStruct>::Remove_Tail
PUBLIC	?Remove@?$SList@UKeyHookWrapperStruct@MultiKeyHookScriptImpClass@@@@UAE_NPBUKeyHookWrapperStruct@MultiKeyHookScriptImpClass@@@Z ; SList<MultiKeyHookScriptImpClass::KeyHookWrapperStruct>::Remove
PUBLIC	?Remove_All@?$SList@UKeyHookWrapperStruct@MultiKeyHookScriptImpClass@@@@UAEXXZ ; SList<MultiKeyHookScriptImpClass::KeyHookWrapperStruct>::Remove_All
PUBLIC	?Insert_Before@?$SList@UKeyHookWrapperStruct@MultiKeyHookScriptImpClass@@@@UAE_NPAUKeyHookWrapperStruct@MultiKeyHookScriptImpClass@@PBU23@@Z ; SList<MultiKeyHookScriptImpClass::KeyHookWrapperStruct>::Insert_Before
PUBLIC	?Insert_After@?$SList@UKeyHookWrapperStruct@MultiKeyHookScriptImpClass@@@@UAE_NPAUKeyHookWrapperStruct@MultiKeyHookScriptImpClass@@PBU23@@Z ; SList<MultiKeyHookScriptImpClass::KeyHookWrapperStruct>::Insert_After
PUBLIC	?Is_Empty@?$SList@UKeyHookWrapperStruct@MultiKeyHookScriptImpClass@@@@UBE_NXZ ; SList<MultiKeyHookScriptImpClass::KeyHookWrapperStruct>::Is_Empty
PUBLIC	?Get_Count@?$SList@UKeyHookWrapperStruct@MultiKeyHookScriptImpClass@@@@UBEIXZ ; SList<MultiKeyHookScriptImpClass::KeyHookWrapperStruct>::Get_Count
PUBLIC	??0?$SList@UKeyHookWrapperStruct@MultiKeyHookScriptImpClass@@@@QAE@ABV0@@Z ; SList<MultiKeyHookScriptImpClass::KeyHookWrapperStruct>::SList<MultiKeyHookScriptImpClass::KeyHookWrapperStruct>
PUBLIC	??4?$SList@UKeyHookWrapperStruct@MultiKeyHookScriptImpClass@@@@QAEAAV0@ABV0@@Z ; SList<MultiKeyHookScriptImpClass::KeyHookWrapperStruct>::operator=
PUBLIC	??_G?$SList@UKeyHookWrapperStruct@MultiKeyHookScriptImpClass@@@@UAEPAXI@Z ; SList<MultiKeyHookScriptImpClass::KeyHookWrapperStruct>::`scalar deleting destructor'
PUBLIC	??0MultiKeyHookScriptImpClass@@QAE@XZ		; MultiKeyHookScriptImpClass::MultiKeyHookScriptImpClass
PUBLIC	??1MultiKeyHookScriptImpClass@@UAE@XZ		; MultiKeyHookScriptImpClass::~MultiKeyHookScriptImpClass
PUBLIC	??0MultiKeyHookScriptImpClass@@QAE@ABV0@@Z	; MultiKeyHookScriptImpClass::MultiKeyHookScriptImpClass
PUBLIC	??4MultiKeyHookScriptImpClass@@QAEAAV0@ABV0@@Z	; MultiKeyHookScriptImpClass::operator=
PUBLIC	??_GMultiKeyHookScriptImpClass@@UAEPAXI@Z	; MultiKeyHookScriptImpClass::`scalar deleting destructor'
PUBLIC	??_EMultiKeyHookScriptImpClass@@UAEPAXI@Z	; MultiKeyHookScriptImpClass::`vector deleting destructor'
PUBLIC	??0JFW_Object_Created_Hook_Base@@QAE@XZ		; JFW_Object_Created_Hook_Base::JFW_Object_Created_Hook_Base
PUBLIC	??0JFW_Object_Created_Hook_Base@@QAE@ABV0@@Z	; JFW_Object_Created_Hook_Base::JFW_Object_Created_Hook_Base
PUBLIC	??4JFW_Object_Created_Hook_Base@@QAEAAV0@ABV0@@Z ; JFW_Object_Created_Hook_Base::operator=
PUBLIC	??_GJFW_Object_Created_Hook_Base@@UAEPAXI@Z	; JFW_Object_Created_Hook_Base::`scalar deleting destructor'
PUBLIC	??_EJFW_Object_Created_Hook_Base@@UAEPAXI@Z	; JFW_Object_Created_Hook_Base::`vector deleting destructor'
PUBLIC	?Created@DB_Shield_Generator_Vehicle@@EAEXPAVScriptableGameObj@@@Z ; DB_Shield_Generator_Vehicle::Created
PUBLIC	?Custom@DB_Shield_Generator_Vehicle@@EAEXPAVScriptableGameObj@@HH0@Z ; DB_Shield_Generator_Vehicle::Custom
PUBLIC	?Timer_Expired@DB_Shield_Generator_Vehicle@@EAEXPAVScriptableGameObj@@H@Z ; DB_Shield_Generator_Vehicle::Timer_Expired
PUBLIC	?Destroyed@DB_Shield_Generator_Vehicle@@EAEXPAVScriptableGameObj@@@Z ; DB_Shield_Generator_Vehicle::Destroyed
PUBLIC	??0DB_Shield_Generator_Vehicle@@QAE@XZ		; DB_Shield_Generator_Vehicle::DB_Shield_Generator_Vehicle
PUBLIC	??1DB_Shield_Generator_Vehicle@@UAE@XZ		; DB_Shield_Generator_Vehicle::~DB_Shield_Generator_Vehicle
PUBLIC	??_GDB_Shield_Generator_Vehicle@@UAEPAXI@Z	; DB_Shield_Generator_Vehicle::`scalar deleting destructor'
PUBLIC	?Created@DB_Controllable_Turret@@EAEXPAVScriptableGameObj@@@Z ; DB_Controllable_Turret::Created
PUBLIC	?Custom@DB_Controllable_Turret@@EAEXPAVScriptableGameObj@@HH0@Z ; DB_Controllable_Turret::Custom
PUBLIC	?Timer_Expired@DB_Controllable_Turret@@EAEXPAVScriptableGameObj@@H@Z ; DB_Controllable_Turret::Timer_Expired
PUBLIC	??0DB_Controllable_Turret@@QAE@XZ		; DB_Controllable_Turret::DB_Controllable_Turret
PUBLIC	??1DB_Controllable_Turret@@UAE@XZ		; DB_Controllable_Turret::~DB_Controllable_Turret
PUBLIC	??_GDB_Controllable_Turret@@UAEPAXI@Z		; DB_Controllable_Turret::`scalar deleting destructor'
PUBLIC	?Created@DB_Guard_Bot@@EAEXPAVScriptableGameObj@@@Z ; DB_Guard_Bot::Created
PUBLIC	?Damaged@DB_Guard_Bot@@EAEXPAVScriptableGameObj@@0M@Z ; DB_Guard_Bot::Damaged
PUBLIC	?Custom@DB_Guard_Bot@@EAEXPAVScriptableGameObj@@HH0@Z ; DB_Guard_Bot::Custom
PUBLIC	?Timer_Expired@DB_Guard_Bot@@EAEXPAVScriptableGameObj@@H@Z ; DB_Guard_Bot::Timer_Expired
PUBLIC	??0DB_Guard_Bot@@QAE@XZ				; DB_Guard_Bot::DB_Guard_Bot
PUBLIC	??1DB_Guard_Bot@@UAE@XZ				; DB_Guard_Bot::~DB_Guard_Bot
PUBLIC	??_GDB_Guard_Bot@@UAEPAXI@Z			; DB_Guard_Bot::`scalar deleting destructor'
PUBLIC	?Created@DB_Support_Bot@@EAEXPAVScriptableGameObj@@@Z ; DB_Support_Bot::Created
PUBLIC	?Damaged@DB_Support_Bot@@EAEXPAVScriptableGameObj@@0M@Z ; DB_Support_Bot::Damaged
PUBLIC	?Poked@DB_Support_Bot@@EAEXPAVScriptableGameObj@@0@Z ; DB_Support_Bot::Poked
PUBLIC	?Timer_Expired@DB_Support_Bot@@EAEXPAVScriptableGameObj@@H@Z ; DB_Support_Bot::Timer_Expired
PUBLIC	??0DB_Support_Bot@@QAE@XZ			; DB_Support_Bot::DB_Support_Bot
PUBLIC	??1DB_Support_Bot@@UAE@XZ			; DB_Support_Bot::~DB_Support_Bot
PUBLIC	??_GDB_Support_Bot@@UAEPAXI@Z			; DB_Support_Bot::`scalar deleting destructor'
PUBLIC	?Created@dblaney_Nod_Obelisk@@EAEXPAVScriptableGameObj@@@Z ; dblaney_Nod_Obelisk::Created
PUBLIC	?Killed@dblaney_Nod_Obelisk@@EAEXPAVScriptableGameObj@@0@Z ; dblaney_Nod_Obelisk::Killed
PUBLIC	?Destroyed@dblaney_Nod_Obelisk@@EAEXPAVScriptableGameObj@@@Z ; dblaney_Nod_Obelisk::Destroyed
PUBLIC	?Timer_Expired@dblaney_Nod_Obelisk@@EAEXPAVScriptableGameObj@@H@Z ; dblaney_Nod_Obelisk::Timer_Expired
PUBLIC	??0dblaney_Nod_Obelisk@@QAE@XZ			; dblaney_Nod_Obelisk::dblaney_Nod_Obelisk
PUBLIC	??1dblaney_Nod_Obelisk@@UAE@XZ			; dblaney_Nod_Obelisk::~dblaney_Nod_Obelisk
PUBLIC	??_Gdblaney_Nod_Obelisk@@UAEPAXI@Z		; dblaney_Nod_Obelisk::`scalar deleting destructor'
PUBLIC	?Created@dblaney_Nod_Obelisk_Structure@@EAEXPAVScriptableGameObj@@@Z ; dblaney_Nod_Obelisk_Structure::Created
PUBLIC	?Killed@dblaney_Nod_Obelisk_Structure@@EAEXPAVScriptableGameObj@@0@Z ; dblaney_Nod_Obelisk_Structure::Killed
PUBLIC	?Destroyed@dblaney_Nod_Obelisk_Structure@@EAEXPAVScriptableGameObj@@@Z ; dblaney_Nod_Obelisk_Structure::Destroyed
PUBLIC	?Custom@dblaney_Nod_Obelisk_Structure@@EAEXPAVScriptableGameObj@@HH0@Z ; dblaney_Nod_Obelisk_Structure::Custom
PUBLIC	??0dblaney_Nod_Obelisk_Structure@@QAE@XZ	; dblaney_Nod_Obelisk_Structure::dblaney_Nod_Obelisk_Structure
PUBLIC	??1dblaney_Nod_Obelisk_Structure@@UAE@XZ	; dblaney_Nod_Obelisk_Structure::~dblaney_Nod_Obelisk_Structure
PUBLIC	??_Gdblaney_Nod_Obelisk_Structure@@UAEPAXI@Z	; dblaney_Nod_Obelisk_Structure::`scalar deleting destructor'
PUBLIC	?Created@dblaney_Nod_Obelisk_Weapon@@EAEXPAVScriptableGameObj@@@Z ; dblaney_Nod_Obelisk_Weapon::Created
PUBLIC	?Destroyed@dblaney_Nod_Obelisk_Weapon@@EAEXPAVScriptableGameObj@@@Z ; dblaney_Nod_Obelisk_Weapon::Destroyed
PUBLIC	?IsValidEnemy@dblaney_Nod_Obelisk_Weapon@@AAE_NPAVScriptableGameObj@@0@Z ; dblaney_Nod_Obelisk_Weapon::IsValidEnemy
PUBLIC	?StartFiring@dblaney_Nod_Obelisk_Weapon@@AAEXPAVScriptableGameObj@@@Z ; dblaney_Nod_Obelisk_Weapon::StartFiring
PUBLIC	?StopFiring@dblaney_Nod_Obelisk_Weapon@@AAEXPAVScriptableGameObj@@@Z ; dblaney_Nod_Obelisk_Weapon::StopFiring
PUBLIC	?StartEffect@dblaney_Nod_Obelisk_Weapon@@AAEXPAVScriptableGameObj@@@Z ; dblaney_Nod_Obelisk_Weapon::StartEffect
PUBLIC	?StopEffect@dblaney_Nod_Obelisk_Weapon@@AAEXPAVScriptableGameObj@@@Z ; dblaney_Nod_Obelisk_Weapon::StopEffect
PUBLIC	?FireAt@dblaney_Nod_Obelisk_Weapon@@AAEXPAVScriptableGameObj@@0@Z ; dblaney_Nod_Obelisk_Weapon::FireAt
PUBLIC	?FaceEnemy@dblaney_Nod_Obelisk_Weapon@@AAEXPAVScriptableGameObj@@0@Z ; dblaney_Nod_Obelisk_Weapon::FaceEnemy
PUBLIC	?StopFireAt@dblaney_Nod_Obelisk_Weapon@@AAEXPAVScriptableGameObj@@@Z ; dblaney_Nod_Obelisk_Weapon::StopFireAt
PUBLIC	?Timer_Expired@dblaney_Nod_Obelisk_Weapon@@EAEXPAVScriptableGameObj@@H@Z ; dblaney_Nod_Obelisk_Weapon::Timer_Expired
PUBLIC	?Enemy_Seen@dblaney_Nod_Obelisk_Weapon@@EAEXPAVScriptableGameObj@@0@Z ; dblaney_Nod_Obelisk_Weapon::Enemy_Seen
PUBLIC	?Register_Auto_Save_Variables@dblaney_Nod_Obelisk_Weapon@@UAEXXZ ; dblaney_Nod_Obelisk_Weapon::Register_Auto_Save_Variables
PUBLIC	??0dblaney_Nod_Obelisk_Weapon@@QAE@XZ		; dblaney_Nod_Obelisk_Weapon::dblaney_Nod_Obelisk_Weapon
PUBLIC	??1dblaney_Nod_Obelisk_Weapon@@UAE@XZ		; dblaney_Nod_Obelisk_Weapon::~dblaney_Nod_Obelisk_Weapon
PUBLIC	??_Gdblaney_Nod_Obelisk_Weapon@@UAEPAXI@Z	; dblaney_Nod_Obelisk_Weapon::`scalar deleting destructor'
PUBLIC	?Created@DB_Power_Down_Console@@EAEXPAVScriptableGameObj@@@Z ; DB_Power_Down_Console::Created
PUBLIC	?Poked@DB_Power_Down_Console@@EAEXPAVScriptableGameObj@@0@Z ; DB_Power_Down_Console::Poked
PUBLIC	?Timer_Expired@DB_Power_Down_Console@@EAEXPAVScriptableGameObj@@H@Z ; DB_Power_Down_Console::Timer_Expired
PUBLIC	??0DB_Power_Down_Console@@QAE@XZ		; DB_Power_Down_Console::DB_Power_Down_Console
PUBLIC	??1DB_Power_Down_Console@@UAE@XZ		; DB_Power_Down_Console::~DB_Power_Down_Console
PUBLIC	??_GDB_Power_Down_Console@@UAEPAXI@Z		; DB_Power_Down_Console::`scalar deleting destructor'
PUBLIC	?Created@DB_Power_Down_Building_Console@@EAEXPAVScriptableGameObj@@@Z ; DB_Power_Down_Building_Console::Created
PUBLIC	?Poked@DB_Power_Down_Building_Console@@EAEXPAVScriptableGameObj@@0@Z ; DB_Power_Down_Building_Console::Poked
PUBLIC	?Timer_Expired@DB_Power_Down_Building_Console@@EAEXPAVScriptableGameObj@@H@Z ; DB_Power_Down_Building_Console::Timer_Expired
PUBLIC	??0DB_Power_Down_Building_Console@@QAE@XZ	; DB_Power_Down_Building_Console::DB_Power_Down_Building_Console
PUBLIC	??1DB_Power_Down_Building_Console@@UAE@XZ	; DB_Power_Down_Building_Console::~DB_Power_Down_Building_Console
PUBLIC	??_GDB_Power_Down_Building_Console@@UAEPAXI@Z	; DB_Power_Down_Building_Console::`scalar deleting destructor'
PUBLIC	?Created@DB_Disable_Injured_Animations@@EAEXPAVScriptableGameObj@@@Z ; DB_Disable_Injured_Animations::Created
PUBLIC	?Detach@DB_Disable_Injured_Animations@@EAEXPAVScriptableGameObj@@@Z ; DB_Disable_Injured_Animations::Detach
PUBLIC	??0DB_Disable_Injured_Animations@@QAE@XZ	; DB_Disable_Injured_Animations::DB_Disable_Injured_Animations
PUBLIC	??1DB_Disable_Injured_Animations@@UAE@XZ	; DB_Disable_Injured_Animations::~DB_Disable_Injured_Animations
PUBLIC	??_GDB_Disable_Injured_Animations@@UAEPAXI@Z	; DB_Disable_Injured_Animations::`scalar deleting destructor'
PUBLIC	?Created@DB_Set_Scale@@EAEXPAVScriptableGameObj@@@Z ; DB_Set_Scale::Created
PUBLIC	?Detach@DB_Set_Scale@@EAEXPAVScriptableGameObj@@@Z ; DB_Set_Scale::Detach
PUBLIC	??0DB_Set_Scale@@QAE@XZ				; DB_Set_Scale::DB_Set_Scale
PUBLIC	??1DB_Set_Scale@@UAE@XZ				; DB_Set_Scale::~DB_Set_Scale
PUBLIC	??_GDB_Set_Scale@@UAEPAXI@Z			; DB_Set_Scale::`scalar deleting destructor'
PUBLIC	?Killed@DB_Grant_Keycard_Killed@@EAEXPAVScriptableGameObj@@0@Z ; DB_Grant_Keycard_Killed::Killed
PUBLIC	?Destroyed@DB_Grant_Keycard_Killed@@EAEXPAVScriptableGameObj@@@Z ; DB_Grant_Keycard_Killed::Destroyed
PUBLIC	??0DB_Grant_Keycard_Killed@@QAE@XZ		; DB_Grant_Keycard_Killed::DB_Grant_Keycard_Killed
PUBLIC	??1DB_Grant_Keycard_Killed@@UAE@XZ		; DB_Grant_Keycard_Killed::~DB_Grant_Keycard_Killed
PUBLIC	??_GDB_Grant_Keycard_Killed@@UAEPAXI@Z		; DB_Grant_Keycard_Killed::`scalar deleting destructor'
PUBLIC	?Created@DB_Grant_Keycard_Timer@@EAEXPAVScriptableGameObj@@@Z ; DB_Grant_Keycard_Timer::Created
PUBLIC	?Timer_Expired@DB_Grant_Keycard_Timer@@EAEXPAVScriptableGameObj@@H@Z ; DB_Grant_Keycard_Timer::Timer_Expired
PUBLIC	??0DB_Grant_Keycard_Timer@@QAE@XZ		; DB_Grant_Keycard_Timer::DB_Grant_Keycard_Timer
PUBLIC	??1DB_Grant_Keycard_Timer@@UAE@XZ		; DB_Grant_Keycard_Timer::~DB_Grant_Keycard_Timer
PUBLIC	??_GDB_Grant_Keycard_Timer@@UAEPAXI@Z		; DB_Grant_Keycard_Timer::`scalar deleting destructor'
PUBLIC	?Created@DB_Infantry_Place_Buildable_Object@@EAEXPAVScriptableGameObj@@@Z ; DB_Infantry_Place_Buildable_Object::Created
PUBLIC	?Timer_Expired@DB_Infantry_Place_Buildable_Object@@EAEXPAVScriptableGameObj@@H@Z ; DB_Infantry_Place_Buildable_Object::Timer_Expired
PUBLIC	?Custom@DB_Infantry_Place_Buildable_Object@@EAEXPAVScriptableGameObj@@HH0@Z ; DB_Infantry_Place_Buildable_Object::Custom
PUBLIC	?Killed@DB_Infantry_Place_Buildable_Object@@EAEXPAVScriptableGameObj@@0@Z ; DB_Infantry_Place_Buildable_Object::Killed
PUBLIC	?Destroyed@DB_Infantry_Place_Buildable_Object@@EAEXPAVScriptableGameObj@@@Z ; DB_Infantry_Place_Buildable_Object::Destroyed
PUBLIC	?DestroyPreview@DB_Infantry_Place_Buildable_Object@@AAEXXZ ; DB_Infantry_Place_Buildable_Object::DestroyPreview
PUBLIC	??0DB_Infantry_Place_Buildable_Object@@QAE@XZ	; DB_Infantry_Place_Buildable_Object::DB_Infantry_Place_Buildable_Object
PUBLIC	??1DB_Infantry_Place_Buildable_Object@@UAE@XZ	; DB_Infantry_Place_Buildable_Object::~DB_Infantry_Place_Buildable_Object
PUBLIC	??_GDB_Infantry_Place_Buildable_Object@@UAEPAXI@Z ; DB_Infantry_Place_Buildable_Object::`scalar deleting destructor'
PUBLIC	?Created@DB_Stationary_Stealth@@EAEXPAVScriptableGameObj@@@Z ; DB_Stationary_Stealth::Created
PUBLIC	?Register_Auto_Save_Variables@DB_Stationary_Stealth@@UAEXXZ ; DB_Stationary_Stealth::Register_Auto_Save_Variables
PUBLIC	?Timer_Expired@DB_Stationary_Stealth@@UAEXPAVScriptableGameObj@@H@Z ; DB_Stationary_Stealth::Timer_Expired
PUBLIC	??0DB_Stationary_Stealth@@QAE@XZ		; DB_Stationary_Stealth::DB_Stationary_Stealth
PUBLIC	??1DB_Stationary_Stealth@@UAE@XZ		; DB_Stationary_Stealth::~DB_Stationary_Stealth
PUBLIC	??_GDB_Stationary_Stealth@@UAEPAXI@Z		; DB_Stationary_Stealth::`scalar deleting destructor'
PUBLIC	?Created@DB_Turret_Sound@@MAEXPAVScriptableGameObj@@@Z ; DB_Turret_Sound::Created
PUBLIC	?Timer_Expired@DB_Turret_Sound@@MAEXPAVScriptableGameObj@@H@Z ; DB_Turret_Sound::Timer_Expired
PUBLIC	?Get_Turret_Facing@DB_Turret_Sound@@IAEMPAVRenderObjClass@@@Z ; DB_Turret_Sound::Get_Turret_Facing
PUBLIC	?Play_Sound@DB_Turret_Sound@@IAEXPAVScriptableGameObj@@@Z ; DB_Turret_Sound::Play_Sound
PUBLIC	?Stop_Sound@DB_Turret_Sound@@IAEXPAVScriptableGameObj@@@Z ; DB_Turret_Sound::Stop_Sound
PUBLIC	??0DB_Turret_Sound@@QAE@XZ			; DB_Turret_Sound::DB_Turret_Sound
PUBLIC	??1DB_Turret_Sound@@UAE@XZ			; DB_Turret_Sound::~DB_Turret_Sound
PUBLIC	??_GDB_Turret_Sound@@UAEPAXI@Z			; DB_Turret_Sound::`scalar deleting destructor'
PUBLIC	?Created@DB_Turret_Spawn@@EAEXPAVScriptableGameObj@@@Z ; DB_Turret_Spawn::Created
PUBLIC	?Custom@DB_Turret_Spawn@@EAEXPAVScriptableGameObj@@HH0@Z ; DB_Turret_Spawn::Custom
PUBLIC	?Killed@DB_Turret_Spawn@@EAEXPAVScriptableGameObj@@0@Z ; DB_Turret_Spawn::Killed
PUBLIC	?Destroyed@DB_Turret_Spawn@@EAEXPAVScriptableGameObj@@@Z ; DB_Turret_Spawn::Destroyed
PUBLIC	??0DB_Turret_Spawn@@QAE@XZ			; DB_Turret_Spawn::DB_Turret_Spawn
PUBLIC	??1DB_Turret_Spawn@@UAE@XZ			; DB_Turret_Spawn::~DB_Turret_Spawn
PUBLIC	??_GDB_Turret_Spawn@@UAEPAXI@Z			; DB_Turret_Spawn::`scalar deleting destructor'
PUBLIC	?Created@DB_Spawned_Visible_Ammo@@EAEXPAVScriptableGameObj@@@Z ; DB_Spawned_Visible_Ammo::Created
PUBLIC	?Timer_Expired@DB_Spawned_Visible_Ammo@@EAEXPAVScriptableGameObj@@H@Z ; DB_Spawned_Visible_Ammo::Timer_Expired
PUBLIC	?Custom@DB_Spawned_Visible_Ammo@@EAEXPAVScriptableGameObj@@HH0@Z ; DB_Spawned_Visible_Ammo::Custom
PUBLIC	?Destroyed@DB_Spawned_Visible_Ammo@@EAEXPAVScriptableGameObj@@@Z ; DB_Spawned_Visible_Ammo::Destroyed
PUBLIC	??0DB_Spawned_Visible_Ammo@@QAE@XZ		; DB_Spawned_Visible_Ammo::DB_Spawned_Visible_Ammo
PUBLIC	??1DB_Spawned_Visible_Ammo@@UAE@XZ		; DB_Spawned_Visible_Ammo::~DB_Spawned_Visible_Ammo
PUBLIC	??_GDB_Spawned_Visible_Ammo@@UAEPAXI@Z		; DB_Spawned_Visible_Ammo::`scalar deleting destructor'
PUBLIC	?Created@DB_Vehicle_Visible_Ammo@@EAEXPAVScriptableGameObj@@@Z ; DB_Vehicle_Visible_Ammo::Created
PUBLIC	?Timer_Expired@DB_Vehicle_Visible_Ammo@@EAEXPAVScriptableGameObj@@H@Z ; DB_Vehicle_Visible_Ammo::Timer_Expired
PUBLIC	?Custom@DB_Vehicle_Visible_Ammo@@EAEXPAVScriptableGameObj@@HH0@Z ; DB_Vehicle_Visible_Ammo::Custom
PUBLIC	??0DB_Vehicle_Visible_Ammo@@QAE@XZ		; DB_Vehicle_Visible_Ammo::DB_Vehicle_Visible_Ammo
PUBLIC	??1DB_Vehicle_Visible_Ammo@@UAE@XZ		; DB_Vehicle_Visible_Ammo::~DB_Vehicle_Visible_Ammo
PUBLIC	??_GDB_Vehicle_Visible_Ammo@@UAEPAXI@Z		; DB_Vehicle_Visible_Ammo::`scalar deleting destructor'
PUBLIC	?Created@DB_Orca_Lifter@@EAEXPAVScriptableGameObj@@@Z ; DB_Orca_Lifter::Created
PUBLIC	?Custom@DB_Orca_Lifter@@EAEXPAVScriptableGameObj@@HH0@Z ; DB_Orca_Lifter::Custom
PUBLIC	?Destroyed@DB_Orca_Lifter@@EAEXPAVScriptableGameObj@@@Z ; DB_Orca_Lifter::Destroyed
PUBLIC	??0DB_Orca_Lifter@@QAE@XZ			; DB_Orca_Lifter::DB_Orca_Lifter
PUBLIC	??1DB_Orca_Lifter@@UAE@XZ			; DB_Orca_Lifter::~DB_Orca_Lifter
PUBLIC	??_GDB_Orca_Lifter@@UAEPAXI@Z			; DB_Orca_Lifter::`scalar deleting destructor'
PUBLIC	?Created@DB_Turret_Bombard_Ability@@EAEXPAVScriptableGameObj@@@Z ; DB_Turret_Bombard_Ability::Created
PUBLIC	?Custom@DB_Turret_Bombard_Ability@@EAEXPAVScriptableGameObj@@HH0@Z ; DB_Turret_Bombard_Ability::Custom
PUBLIC	??0DB_Turret_Bombard_Ability@@QAE@XZ		; DB_Turret_Bombard_Ability::DB_Turret_Bombard_Ability
PUBLIC	??1DB_Turret_Bombard_Ability@@UAE@XZ		; DB_Turret_Bombard_Ability::~DB_Turret_Bombard_Ability
PUBLIC	??_GDB_Turret_Bombard_Ability@@UAEPAXI@Z	; DB_Turret_Bombard_Ability::`scalar deleting destructor'
PUBLIC	?Created@DB_Turret_Bombard_Player@@EAEXPAVScriptableGameObj@@@Z ; DB_Turret_Bombard_Player::Created
PUBLIC	?KeyHook@DB_Turret_Bombard_Player@@EAEXXZ	; DB_Turret_Bombard_Player::KeyHook
PUBLIC	??0DB_Turret_Bombard_Player@@QAE@XZ		; DB_Turret_Bombard_Player::DB_Turret_Bombard_Player
PUBLIC	??1DB_Turret_Bombard_Player@@UAE@XZ		; DB_Turret_Bombard_Player::~DB_Turret_Bombard_Player
PUBLIC	??_GDB_Turret_Bombard_Player@@UAEPAXI@Z		; DB_Turret_Bombard_Player::`scalar deleting destructor'
PUBLIC	?Created@DB_Health_Sound_Timer@@EAEXPAVScriptableGameObj@@@Z ; DB_Health_Sound_Timer::Created
PUBLIC	?Timer_Expired@DB_Health_Sound_Timer@@EAEXPAVScriptableGameObj@@H@Z ; DB_Health_Sound_Timer::Timer_Expired
PUBLIC	??0DB_Health_Sound_Timer@@QAE@XZ		; DB_Health_Sound_Timer::DB_Health_Sound_Timer
PUBLIC	??1DB_Health_Sound_Timer@@UAE@XZ		; DB_Health_Sound_Timer::~DB_Health_Sound_Timer
PUBLIC	??_GDB_Health_Sound_Timer@@UAEPAXI@Z		; DB_Health_Sound_Timer::`scalar deleting destructor'
PUBLIC	?Created@DB_Visible_Passenger@@EAEXPAVScriptableGameObj@@@Z ; DB_Visible_Passenger::Created
PUBLIC	?Custom@DB_Visible_Passenger@@EAEXPAVScriptableGameObj@@HH0@Z ; DB_Visible_Passenger::Custom
PUBLIC	?Destroyed@DB_Visible_Passenger@@EAEXPAVScriptableGameObj@@@Z ; DB_Visible_Passenger::Destroyed
PUBLIC	?Timer_Expired@DB_Visible_Passenger@@EAEXPAVScriptableGameObj@@H@Z ; DB_Visible_Passenger::Timer_Expired
PUBLIC	?Register_Auto_Save_Variables@DB_Visible_Passenger@@UAEXXZ ; DB_Visible_Passenger::Register_Auto_Save_Variables
PUBLIC	??0DB_Visible_Passenger@@QAE@XZ			; DB_Visible_Passenger::DB_Visible_Passenger
PUBLIC	??1DB_Visible_Passenger@@UAE@XZ			; DB_Visible_Passenger::~DB_Visible_Passenger
PUBLIC	??_GDB_Visible_Passenger@@UAEPAXI@Z		; DB_Visible_Passenger::`scalar deleting destructor'
PUBLIC	?Killed@DB_Drop_Wreckage_On_Death@@EAEXPAVScriptableGameObj@@0@Z ; DB_Drop_Wreckage_On_Death::Killed
PUBLIC	??0DB_Drop_Wreckage_On_Death@@QAE@XZ		; DB_Drop_Wreckage_On_Death::DB_Drop_Wreckage_On_Death
PUBLIC	??1DB_Drop_Wreckage_On_Death@@UAE@XZ		; DB_Drop_Wreckage_On_Death::~DB_Drop_Wreckage_On_Death
PUBLIC	??_GDB_Drop_Wreckage_On_Death@@UAEPAXI@Z	; DB_Drop_Wreckage_On_Death::`scalar deleting destructor'
PUBLIC	?Created@DB_Wreckage_Rebuildable@@EAEXPAVScriptableGameObj@@@Z ; DB_Wreckage_Rebuildable::Created
PUBLIC	?Damaged@DB_Wreckage_Rebuildable@@EAEXPAVScriptableGameObj@@0M@Z ; DB_Wreckage_Rebuildable::Damaged
PUBLIC	?Killed@DB_Wreckage_Rebuildable@@EAEXPAVScriptableGameObj@@0@Z ; DB_Wreckage_Rebuildable::Killed
PUBLIC	?Timer_Expired@DB_Wreckage_Rebuildable@@EAEXPAVScriptableGameObj@@H@Z ; DB_Wreckage_Rebuildable::Timer_Expired
PUBLIC	??0DB_Wreckage_Rebuildable@@QAE@XZ		; DB_Wreckage_Rebuildable::DB_Wreckage_Rebuildable
PUBLIC	??1DB_Wreckage_Rebuildable@@UAE@XZ		; DB_Wreckage_Rebuildable::~DB_Wreckage_Rebuildable
PUBLIC	??_GDB_Wreckage_Rebuildable@@UAEPAXI@Z		; DB_Wreckage_Rebuildable::`scalar deleting destructor'
PUBLIC	?Custom@DB_Supply_Truck@@EAEXPAVScriptableGameObj@@HH0@Z ; DB_Supply_Truck::Custom
PUBLIC	??0DB_Supply_Truck@@QAE@XZ			; DB_Supply_Truck::DB_Supply_Truck
PUBLIC	??1DB_Supply_Truck@@UAE@XZ			; DB_Supply_Truck::~DB_Supply_Truck
PUBLIC	??_GDB_Supply_Truck@@UAEPAXI@Z			; DB_Supply_Truck::`scalar deleting destructor'
PUBLIC	?Killed@DB_Damage_Vehicle_Occupants_Area_Killed@@EAEXPAVScriptableGameObj@@0@Z ; DB_Damage_Vehicle_Occupants_Area_Killed::Killed
PUBLIC	??0DB_Damage_Vehicle_Occupants_Area_Killed@@QAE@XZ ; DB_Damage_Vehicle_Occupants_Area_Killed::DB_Damage_Vehicle_Occupants_Area_Killed
PUBLIC	??1DB_Damage_Vehicle_Occupants_Area_Killed@@UAE@XZ ; DB_Damage_Vehicle_Occupants_Area_Killed::~DB_Damage_Vehicle_Occupants_Area_Killed
PUBLIC	??_GDB_Damage_Vehicle_Occupants_Area_Killed@@UAEPAXI@Z ; DB_Damage_Vehicle_Occupants_Area_Killed::`scalar deleting destructor'
PUBLIC	?Created@DB_Damage_Vehicle_Occupants_Area_Timer@@EAEXPAVScriptableGameObj@@@Z ; DB_Damage_Vehicle_Occupants_Area_Timer::Created
PUBLIC	?Timer_Expired@DB_Damage_Vehicle_Occupants_Area_Timer@@EAEXPAVScriptableGameObj@@H@Z ; DB_Damage_Vehicle_Occupants_Area_Timer::Timer_Expired
PUBLIC	??0DB_Damage_Vehicle_Occupants_Area_Timer@@QAE@XZ ; DB_Damage_Vehicle_Occupants_Area_Timer::DB_Damage_Vehicle_Occupants_Area_Timer
PUBLIC	??1DB_Damage_Vehicle_Occupants_Area_Timer@@UAE@XZ ; DB_Damage_Vehicle_Occupants_Area_Timer::~DB_Damage_Vehicle_Occupants_Area_Timer
PUBLIC	??_GDB_Damage_Vehicle_Occupants_Area_Timer@@UAEPAXI@Z ; DB_Damage_Vehicle_Occupants_Area_Timer::`scalar deleting destructor'
PUBLIC	?Created@DB_Set_PT_Slot@@EAEXPAVScriptableGameObj@@@Z ; DB_Set_PT_Slot::Created
PUBLIC	?Timer_Expired@DB_Set_PT_Slot@@EAEXPAVScriptableGameObj@@H@Z ; DB_Set_PT_Slot::Timer_Expired
PUBLIC	??0DB_Set_PT_Slot@@QAE@XZ			; DB_Set_PT_Slot::DB_Set_PT_Slot
PUBLIC	??1DB_Set_PT_Slot@@UAE@XZ			; DB_Set_PT_Slot::~DB_Set_PT_Slot
PUBLIC	??_GDB_Set_PT_Slot@@UAEPAXI@Z			; DB_Set_PT_Slot::`scalar deleting destructor'
PUBLIC	?Killed@DB_Spawn_When_Killed@@EAEXPAVScriptableGameObj@@0@Z ; DB_Spawn_When_Killed::Killed
PUBLIC	??0DB_Spawn_When_Killed@@QAE@XZ			; DB_Spawn_When_Killed::DB_Spawn_When_Killed
PUBLIC	??1DB_Spawn_When_Killed@@UAE@XZ			; DB_Spawn_When_Killed::~DB_Spawn_When_Killed
PUBLIC	??_GDB_Spawn_When_Killed@@UAEPAXI@Z		; DB_Spawn_When_Killed::`scalar deleting destructor'
PUBLIC	?Damaged@DB_Replace_When_Repaired@@EAEXPAVScriptableGameObj@@0M@Z ; DB_Replace_When_Repaired::Damaged
PUBLIC	??0DB_Replace_When_Repaired@@QAE@XZ		; DB_Replace_When_Repaired::DB_Replace_When_Repaired
PUBLIC	??1DB_Replace_When_Repaired@@UAE@XZ		; DB_Replace_When_Repaired::~DB_Replace_When_Repaired
PUBLIC	??_GDB_Replace_When_Repaired@@UAEPAXI@Z		; DB_Replace_When_Repaired::`scalar deleting destructor'
PUBLIC	?Created@DB_Force_Fire@@EAEXPAVScriptableGameObj@@@Z ; DB_Force_Fire::Created
PUBLIC	?Start_Attack@DB_Force_Fire@@AAEXPAVScriptableGameObj@@@Z ; DB_Force_Fire::Start_Attack
PUBLIC	?Timer_Expired@DB_Force_Fire@@EAEXPAVScriptableGameObj@@H@Z ; DB_Force_Fire::Timer_Expired
PUBLIC	?Detach@DB_Force_Fire@@EAEXPAVScriptableGameObj@@@Z ; DB_Force_Fire::Detach
PUBLIC	??0DB_Force_Fire@@QAE@XZ			; DB_Force_Fire::DB_Force_Fire
PUBLIC	??1DB_Force_Fire@@UAE@XZ			; DB_Force_Fire::~DB_Force_Fire
PUBLIC	??_GDB_Force_Fire@@UAEPAXI@Z			; DB_Force_Fire::`scalar deleting destructor'
PUBLIC	?Get_State@HumanStateClass@@QAE?AW4HumanStateType@1@XZ ; HumanStateClass::Get_State
PUBLIC	??4ArmorWarheadManager@@QAEAAV0@ABV0@@Z		; ArmorWarheadManager::operator=
PUBLIC	?Is_Airborne@SoldierGameObj@@QAE_NXZ		; SoldierGameObj::Is_Airborne
PUBLIC	?Is_On_Ladder@SoldierGameObj@@QAE_NXZ		; SoldierGameObj::Is_On_Ladder
PUBLIC	?Get_State@SoldierGameObj@@QAE?AW4HumanStateType@HumanStateClass@@XZ ; SoldierGameObj::Get_State
PUBLIC	?Set_Can_Play_Damage_Animations@SoldierGameObj@@QAEX_N@Z ; SoldierGameObj::Set_Can_Play_Damage_Animations
PUBLIC	?Set_Scale_Across_Network@SoldierGameObj@@QAEXM@Z ; SoldierGameObj::Set_Scale_Across_Network
PUBLIC	?Get_Scale_Across_Network@SoldierGameObj@@QAEMXZ ; SoldierGameObj::Get_Scale_Across_Network
PUBLIC	?Set_Is_Scripts_Visible@VehicleGameObj@@QAEX_N@Z ; VehicleGameObj::Set_Is_Scripts_Visible
PUBLIC	?Set_Lock_Team@VehicleGameObj@@QAEXH@Z		; VehicleGameObj::Set_Lock_Team
PUBLIC	?Get_Clip_Rounds@WeaponClass@@QAEHXZ		; WeaponClass::Get_Clip_Rounds
PUBLIC	?Head@?$SList@VSoldierGameObj@@@@QBEPAV?$SLNode@VSoldierGameObj@@@@XZ ; SList<SoldierGameObj>::Head
PUBLIC	??0?$HashTemplateClass@II@@QAE@XZ		; HashTemplateClass<unsigned int,unsigned int>::HashTemplateClass<unsigned int,unsigned int>
PUBLIC	??1?$HashTemplateClass@II@@QAE@XZ		; HashTemplateClass<unsigned int,unsigned int>::~HashTemplateClass<unsigned int,unsigned int>
PUBLIC	??1CollideableObjClass@AnimCollisionManagerClass@@QAE@XZ ; AnimCollisionManagerClass::CollideableObjClass::~CollideableObjClass
PUBLIC	??_ECollideableObjClass@AnimCollisionManagerClass@@QAEPAXI@Z ; AnimCollisionManagerClass::CollideableObjClass::`vector deleting destructor'
PUBLIC	??0CollisionTestClass@@QAE@PAUCastResultStruct@@W4Collision_Type@@@Z ; CollisionTestClass::CollisionTestClass
PUBLIC	??0CollisionTestClass@@QAE@ABV0@@Z		; CollisionTestClass::CollisionTestClass
PUBLIC	??4CollisionTestClass@@QAEAAV0@ABV0@@Z		; CollisionTestClass::operator=
PUBLIC	?Cull@AABoxCollisionTestClass@@QAE_NABVVector3@@0@Z ; AABoxCollisionTestClass::Cull
PUBLIC	?Translate@AABoxCollisionTestClass@@QAEXABVVector3@@@Z ; AABoxCollisionTestClass::Translate
PUBLIC	?Cull@OBBoxCollisionTestClass@@QAE_NABVVector3@@0@Z ; OBBoxCollisionTestClass::Cull
PUBLIC	??0?$ScriptRegistrant@VDB_Shield_Generator_Vehicle@@@@QAE@PBD0@Z ; ScriptRegistrant<DB_Shield_Generator_Vehicle>::ScriptRegistrant<DB_Shield_Generator_Vehicle>
PUBLIC	?Create@?$ScriptRegistrant@VDB_Shield_Generator_Vehicle@@@@UAEPAVScriptImpClass@@XZ ; ScriptRegistrant<DB_Shield_Generator_Vehicle>::Create
PUBLIC	??1?$ScriptRegistrant@VDB_Shield_Generator_Vehicle@@@@UAE@XZ ; ScriptRegistrant<DB_Shield_Generator_Vehicle>::~ScriptRegistrant<DB_Shield_Generator_Vehicle>
PUBLIC	??_G?$ScriptRegistrant@VDB_Shield_Generator_Vehicle@@@@UAEPAXI@Z ; ScriptRegistrant<DB_Shield_Generator_Vehicle>::`scalar deleting destructor'
PUBLIC	??0?$ScriptRegistrant@VDB_Controllable_Turret@@@@QAE@PBD0@Z ; ScriptRegistrant<DB_Controllable_Turret>::ScriptRegistrant<DB_Controllable_Turret>
PUBLIC	?Create@?$ScriptRegistrant@VDB_Controllable_Turret@@@@UAEPAVScriptImpClass@@XZ ; ScriptRegistrant<DB_Controllable_Turret>::Create
PUBLIC	??1?$ScriptRegistrant@VDB_Controllable_Turret@@@@UAE@XZ ; ScriptRegistrant<DB_Controllable_Turret>::~ScriptRegistrant<DB_Controllable_Turret>
PUBLIC	??_G?$ScriptRegistrant@VDB_Controllable_Turret@@@@UAEPAXI@Z ; ScriptRegistrant<DB_Controllable_Turret>::`scalar deleting destructor'
PUBLIC	??0?$ScriptRegistrant@VDB_Guard_Bot@@@@QAE@PBD0@Z ; ScriptRegistrant<DB_Guard_Bot>::ScriptRegistrant<DB_Guard_Bot>
PUBLIC	?Create@?$ScriptRegistrant@VDB_Guard_Bot@@@@UAEPAVScriptImpClass@@XZ ; ScriptRegistrant<DB_Guard_Bot>::Create
PUBLIC	??1?$ScriptRegistrant@VDB_Guard_Bot@@@@UAE@XZ	; ScriptRegistrant<DB_Guard_Bot>::~ScriptRegistrant<DB_Guard_Bot>
PUBLIC	??_G?$ScriptRegistrant@VDB_Guard_Bot@@@@UAEPAXI@Z ; ScriptRegistrant<DB_Guard_Bot>::`scalar deleting destructor'
PUBLIC	??0?$ScriptRegistrant@VDB_Support_Bot@@@@QAE@PBD0@Z ; ScriptRegistrant<DB_Support_Bot>::ScriptRegistrant<DB_Support_Bot>
PUBLIC	?Create@?$ScriptRegistrant@VDB_Support_Bot@@@@UAEPAVScriptImpClass@@XZ ; ScriptRegistrant<DB_Support_Bot>::Create
PUBLIC	??1?$ScriptRegistrant@VDB_Support_Bot@@@@UAE@XZ	; ScriptRegistrant<DB_Support_Bot>::~ScriptRegistrant<DB_Support_Bot>
PUBLIC	??_G?$ScriptRegistrant@VDB_Support_Bot@@@@UAEPAXI@Z ; ScriptRegistrant<DB_Support_Bot>::`scalar deleting destructor'
PUBLIC	??0?$ScriptRegistrant@Vdblaney_Nod_Obelisk@@@@QAE@PBD0@Z ; ScriptRegistrant<dblaney_Nod_Obelisk>::ScriptRegistrant<dblaney_Nod_Obelisk>
PUBLIC	?Create@?$ScriptRegistrant@Vdblaney_Nod_Obelisk@@@@UAEPAVScriptImpClass@@XZ ; ScriptRegistrant<dblaney_Nod_Obelisk>::Create
PUBLIC	??1?$ScriptRegistrant@Vdblaney_Nod_Obelisk@@@@UAE@XZ ; ScriptRegistrant<dblaney_Nod_Obelisk>::~ScriptRegistrant<dblaney_Nod_Obelisk>
PUBLIC	??_G?$ScriptRegistrant@Vdblaney_Nod_Obelisk@@@@UAEPAXI@Z ; ScriptRegistrant<dblaney_Nod_Obelisk>::`scalar deleting destructor'
PUBLIC	??0?$ScriptRegistrant@Vdblaney_Nod_Obelisk_Structure@@@@QAE@PBD0@Z ; ScriptRegistrant<dblaney_Nod_Obelisk_Structure>::ScriptRegistrant<dblaney_Nod_Obelisk_Structure>
PUBLIC	?Create@?$ScriptRegistrant@Vdblaney_Nod_Obelisk_Structure@@@@UAEPAVScriptImpClass@@XZ ; ScriptRegistrant<dblaney_Nod_Obelisk_Structure>::Create
PUBLIC	??1?$ScriptRegistrant@Vdblaney_Nod_Obelisk_Structure@@@@UAE@XZ ; ScriptRegistrant<dblaney_Nod_Obelisk_Structure>::~ScriptRegistrant<dblaney_Nod_Obelisk_Structure>
PUBLIC	??_G?$ScriptRegistrant@Vdblaney_Nod_Obelisk_Structure@@@@UAEPAXI@Z ; ScriptRegistrant<dblaney_Nod_Obelisk_Structure>::`scalar deleting destructor'
PUBLIC	??0?$ScriptRegistrant@Vdblaney_Nod_Obelisk_Weapon@@@@QAE@PBD0@Z ; ScriptRegistrant<dblaney_Nod_Obelisk_Weapon>::ScriptRegistrant<dblaney_Nod_Obelisk_Weapon>
PUBLIC	?Create@?$ScriptRegistrant@Vdblaney_Nod_Obelisk_Weapon@@@@UAEPAVScriptImpClass@@XZ ; ScriptRegistrant<dblaney_Nod_Obelisk_Weapon>::Create
PUBLIC	??1?$ScriptRegistrant@Vdblaney_Nod_Obelisk_Weapon@@@@UAE@XZ ; ScriptRegistrant<dblaney_Nod_Obelisk_Weapon>::~ScriptRegistrant<dblaney_Nod_Obelisk_Weapon>
PUBLIC	??_G?$ScriptRegistrant@Vdblaney_Nod_Obelisk_Weapon@@@@UAEPAXI@Z ; ScriptRegistrant<dblaney_Nod_Obelisk_Weapon>::`scalar deleting destructor'
PUBLIC	??0?$ScriptRegistrant@VDB_Power_Down_Console@@@@QAE@PBD0@Z ; ScriptRegistrant<DB_Power_Down_Console>::ScriptRegistrant<DB_Power_Down_Console>
PUBLIC	?Create@?$ScriptRegistrant@VDB_Power_Down_Console@@@@UAEPAVScriptImpClass@@XZ ; ScriptRegistrant<DB_Power_Down_Console>::Create
PUBLIC	??1?$ScriptRegistrant@VDB_Power_Down_Console@@@@UAE@XZ ; ScriptRegistrant<DB_Power_Down_Console>::~ScriptRegistrant<DB_Power_Down_Console>
PUBLIC	??_G?$ScriptRegistrant@VDB_Power_Down_Console@@@@UAEPAXI@Z ; ScriptRegistrant<DB_Power_Down_Console>::`scalar deleting destructor'
PUBLIC	??0?$ScriptRegistrant@VDB_Power_Down_Building_Console@@@@QAE@PBD0@Z ; ScriptRegistrant<DB_Power_Down_Building_Console>::ScriptRegistrant<DB_Power_Down_Building_Console>
PUBLIC	?Create@?$ScriptRegistrant@VDB_Power_Down_Building_Console@@@@UAEPAVScriptImpClass@@XZ ; ScriptRegistrant<DB_Power_Down_Building_Console>::Create
PUBLIC	??1?$ScriptRegistrant@VDB_Power_Down_Building_Console@@@@UAE@XZ ; ScriptRegistrant<DB_Power_Down_Building_Console>::~ScriptRegistrant<DB_Power_Down_Building_Console>
PUBLIC	??_G?$ScriptRegistrant@VDB_Power_Down_Building_Console@@@@UAEPAXI@Z ; ScriptRegistrant<DB_Power_Down_Building_Console>::`scalar deleting destructor'
PUBLIC	??0?$ScriptRegistrant@VDB_Disable_Injured_Animations@@@@QAE@PBD0@Z ; ScriptRegistrant<DB_Disable_Injured_Animations>::ScriptRegistrant<DB_Disable_Injured_Animations>
PUBLIC	?Create@?$ScriptRegistrant@VDB_Disable_Injured_Animations@@@@UAEPAVScriptImpClass@@XZ ; ScriptRegistrant<DB_Disable_Injured_Animations>::Create
PUBLIC	??1?$ScriptRegistrant@VDB_Disable_Injured_Animations@@@@UAE@XZ ; ScriptRegistrant<DB_Disable_Injured_Animations>::~ScriptRegistrant<DB_Disable_Injured_Animations>
PUBLIC	??_G?$ScriptRegistrant@VDB_Disable_Injured_Animations@@@@UAEPAXI@Z ; ScriptRegistrant<DB_Disable_Injured_Animations>::`scalar deleting destructor'
PUBLIC	??0?$ScriptRegistrant@VDB_Set_Scale@@@@QAE@PBD0@Z ; ScriptRegistrant<DB_Set_Scale>::ScriptRegistrant<DB_Set_Scale>
PUBLIC	?Create@?$ScriptRegistrant@VDB_Set_Scale@@@@UAEPAVScriptImpClass@@XZ ; ScriptRegistrant<DB_Set_Scale>::Create
PUBLIC	??1?$ScriptRegistrant@VDB_Set_Scale@@@@UAE@XZ	; ScriptRegistrant<DB_Set_Scale>::~ScriptRegistrant<DB_Set_Scale>
PUBLIC	??_G?$ScriptRegistrant@VDB_Set_Scale@@@@UAEPAXI@Z ; ScriptRegistrant<DB_Set_Scale>::`scalar deleting destructor'
PUBLIC	?Next@?$SLNode@VSoldierGameObj@@@@QBEPAV1@XZ	; SLNode<SoldierGameObj>::Next
PUBLIC	?Data@?$SLNode@VSoldierGameObj@@@@QBEPAVSoldierGameObj@@XZ ; SLNode<SoldierGameObj>::Data
PUBLIC	??0?$ScriptRegistrant@VDB_Grant_Keycard_Killed@@@@QAE@PBD0@Z ; ScriptRegistrant<DB_Grant_Keycard_Killed>::ScriptRegistrant<DB_Grant_Keycard_Killed>
PUBLIC	?Create@?$ScriptRegistrant@VDB_Grant_Keycard_Killed@@@@UAEPAVScriptImpClass@@XZ ; ScriptRegistrant<DB_Grant_Keycard_Killed>::Create
PUBLIC	??1?$ScriptRegistrant@VDB_Grant_Keycard_Killed@@@@UAE@XZ ; ScriptRegistrant<DB_Grant_Keycard_Killed>::~ScriptRegistrant<DB_Grant_Keycard_Killed>
PUBLIC	??_G?$ScriptRegistrant@VDB_Grant_Keycard_Killed@@@@UAEPAXI@Z ; ScriptRegistrant<DB_Grant_Keycard_Killed>::`scalar deleting destructor'
PUBLIC	??0?$ScriptRegistrant@VDB_Grant_Keycard_Timer@@@@QAE@PBD0@Z ; ScriptRegistrant<DB_Grant_Keycard_Timer>::ScriptRegistrant<DB_Grant_Keycard_Timer>
PUBLIC	?Create@?$ScriptRegistrant@VDB_Grant_Keycard_Timer@@@@UAEPAVScriptImpClass@@XZ ; ScriptRegistrant<DB_Grant_Keycard_Timer>::Create
PUBLIC	??1?$ScriptRegistrant@VDB_Grant_Keycard_Timer@@@@UAE@XZ ; ScriptRegistrant<DB_Grant_Keycard_Timer>::~ScriptRegistrant<DB_Grant_Keycard_Timer>
PUBLIC	??_G?$ScriptRegistrant@VDB_Grant_Keycard_Timer@@@@UAEPAXI@Z ; ScriptRegistrant<DB_Grant_Keycard_Timer>::`scalar deleting destructor'
PUBLIC	??0?$ScriptRegistrant@VDB_Infantry_Place_Buildable_Object@@@@QAE@PBD0@Z ; ScriptRegistrant<DB_Infantry_Place_Buildable_Object>::ScriptRegistrant<DB_Infantry_Place_Buildable_Object>
PUBLIC	?Create@?$ScriptRegistrant@VDB_Infantry_Place_Buildable_Object@@@@UAEPAVScriptImpClass@@XZ ; ScriptRegistrant<DB_Infantry_Place_Buildable_Object>::Create
PUBLIC	??1?$ScriptRegistrant@VDB_Infantry_Place_Buildable_Object@@@@UAE@XZ ; ScriptRegistrant<DB_Infantry_Place_Buildable_Object>::~ScriptRegistrant<DB_Infantry_Place_Buildable_Object>
PUBLIC	??_G?$ScriptRegistrant@VDB_Infantry_Place_Buildable_Object@@@@UAEPAXI@Z ; ScriptRegistrant<DB_Infantry_Place_Buildable_Object>::`scalar deleting destructor'
PUBLIC	??0?$ScriptRegistrant@VDB_Stationary_Stealth@@@@QAE@PBD0@Z ; ScriptRegistrant<DB_Stationary_Stealth>::ScriptRegistrant<DB_Stationary_Stealth>
PUBLIC	?Create@?$ScriptRegistrant@VDB_Stationary_Stealth@@@@UAEPAVScriptImpClass@@XZ ; ScriptRegistrant<DB_Stationary_Stealth>::Create
PUBLIC	??1?$ScriptRegistrant@VDB_Stationary_Stealth@@@@UAE@XZ ; ScriptRegistrant<DB_Stationary_Stealth>::~ScriptRegistrant<DB_Stationary_Stealth>
PUBLIC	??_G?$ScriptRegistrant@VDB_Stationary_Stealth@@@@UAEPAXI@Z ; ScriptRegistrant<DB_Stationary_Stealth>::`scalar deleting destructor'
PUBLIC	??0?$ScriptRegistrant@VDB_Turret_Sound@@@@QAE@PBD0@Z ; ScriptRegistrant<DB_Turret_Sound>::ScriptRegistrant<DB_Turret_Sound>
PUBLIC	?Create@?$ScriptRegistrant@VDB_Turret_Sound@@@@UAEPAVScriptImpClass@@XZ ; ScriptRegistrant<DB_Turret_Sound>::Create
PUBLIC	??1?$ScriptRegistrant@VDB_Turret_Sound@@@@UAE@XZ ; ScriptRegistrant<DB_Turret_Sound>::~ScriptRegistrant<DB_Turret_Sound>
PUBLIC	??_G?$ScriptRegistrant@VDB_Turret_Sound@@@@UAEPAXI@Z ; ScriptRegistrant<DB_Turret_Sound>::`scalar deleting destructor'
PUBLIC	??0?$ScriptRegistrant@VDB_Turret_Spawn@@@@QAE@PBD0@Z ; ScriptRegistrant<DB_Turret_Spawn>::ScriptRegistrant<DB_Turret_Spawn>
PUBLIC	?Create@?$ScriptRegistrant@VDB_Turret_Spawn@@@@UAEPAVScriptImpClass@@XZ ; ScriptRegistrant<DB_Turret_Spawn>::Create
PUBLIC	??1?$ScriptRegistrant@VDB_Turret_Spawn@@@@UAE@XZ ; ScriptRegistrant<DB_Turret_Spawn>::~ScriptRegistrant<DB_Turret_Spawn>
PUBLIC	??_G?$ScriptRegistrant@VDB_Turret_Spawn@@@@UAEPAXI@Z ; ScriptRegistrant<DB_Turret_Spawn>::`scalar deleting destructor'
PUBLIC	??0?$ScriptRegistrant@VDB_Spawned_Visible_Ammo@@@@QAE@PBD0@Z ; ScriptRegistrant<DB_Spawned_Visible_Ammo>::ScriptRegistrant<DB_Spawned_Visible_Ammo>
PUBLIC	?Create@?$ScriptRegistrant@VDB_Spawned_Visible_Ammo@@@@UAEPAVScriptImpClass@@XZ ; ScriptRegistrant<DB_Spawned_Visible_Ammo>::Create
PUBLIC	??1?$ScriptRegistrant@VDB_Spawned_Visible_Ammo@@@@UAE@XZ ; ScriptRegistrant<DB_Spawned_Visible_Ammo>::~ScriptRegistrant<DB_Spawned_Visible_Ammo>
PUBLIC	??_G?$ScriptRegistrant@VDB_Spawned_Visible_Ammo@@@@UAEPAXI@Z ; ScriptRegistrant<DB_Spawned_Visible_Ammo>::`scalar deleting destructor'
PUBLIC	??0?$ScriptRegistrant@VDB_Vehicle_Visible_Ammo@@@@QAE@PBD0@Z ; ScriptRegistrant<DB_Vehicle_Visible_Ammo>::ScriptRegistrant<DB_Vehicle_Visible_Ammo>
PUBLIC	?Create@?$ScriptRegistrant@VDB_Vehicle_Visible_Ammo@@@@UAEPAVScriptImpClass@@XZ ; ScriptRegistrant<DB_Vehicle_Visible_Ammo>::Create
PUBLIC	??1?$ScriptRegistrant@VDB_Vehicle_Visible_Ammo@@@@UAE@XZ ; ScriptRegistrant<DB_Vehicle_Visible_Ammo>::~ScriptRegistrant<DB_Vehicle_Visible_Ammo>
PUBLIC	??_G?$ScriptRegistrant@VDB_Vehicle_Visible_Ammo@@@@UAEPAXI@Z ; ScriptRegistrant<DB_Vehicle_Visible_Ammo>::`scalar deleting destructor'
PUBLIC	??0?$ScriptRegistrant@VDB_Orca_Lifter@@@@QAE@PBD0@Z ; ScriptRegistrant<DB_Orca_Lifter>::ScriptRegistrant<DB_Orca_Lifter>
PUBLIC	?Create@?$ScriptRegistrant@VDB_Orca_Lifter@@@@UAEPAVScriptImpClass@@XZ ; ScriptRegistrant<DB_Orca_Lifter>::Create
PUBLIC	??1?$ScriptRegistrant@VDB_Orca_Lifter@@@@UAE@XZ	; ScriptRegistrant<DB_Orca_Lifter>::~ScriptRegistrant<DB_Orca_Lifter>
PUBLIC	??_G?$ScriptRegistrant@VDB_Orca_Lifter@@@@UAEPAXI@Z ; ScriptRegistrant<DB_Orca_Lifter>::`scalar deleting destructor'
PUBLIC	??0?$ScriptRegistrant@VDB_Turret_Bombard_Ability@@@@QAE@PBD0@Z ; ScriptRegistrant<DB_Turret_Bombard_Ability>::ScriptRegistrant<DB_Turret_Bombard_Ability>
PUBLIC	?Create@?$ScriptRegistrant@VDB_Turret_Bombard_Ability@@@@UAEPAVScriptImpClass@@XZ ; ScriptRegistrant<DB_Turret_Bombard_Ability>::Create
PUBLIC	??1?$ScriptRegistrant@VDB_Turret_Bombard_Ability@@@@UAE@XZ ; ScriptRegistrant<DB_Turret_Bombard_Ability>::~ScriptRegistrant<DB_Turret_Bombard_Ability>
PUBLIC	??_G?$ScriptRegistrant@VDB_Turret_Bombard_Ability@@@@UAEPAXI@Z ; ScriptRegistrant<DB_Turret_Bombard_Ability>::`scalar deleting destructor'
PUBLIC	??0?$ScriptRegistrant@VDB_Turret_Bombard_Player@@@@QAE@PBD0@Z ; ScriptRegistrant<DB_Turret_Bombard_Player>::ScriptRegistrant<DB_Turret_Bombard_Player>
PUBLIC	?Create@?$ScriptRegistrant@VDB_Turret_Bombard_Player@@@@UAEPAVScriptImpClass@@XZ ; ScriptRegistrant<DB_Turret_Bombard_Player>::Create
PUBLIC	??1?$ScriptRegistrant@VDB_Turret_Bombard_Player@@@@UAE@XZ ; ScriptRegistrant<DB_Turret_Bombard_Player>::~ScriptRegistrant<DB_Turret_Bombard_Player>
PUBLIC	??_G?$ScriptRegistrant@VDB_Turret_Bombard_Player@@@@UAEPAXI@Z ; ScriptRegistrant<DB_Turret_Bombard_Player>::`scalar deleting destructor'
PUBLIC	??0?$ScriptRegistrant@VDB_Health_Sound_Timer@@@@QAE@PBD0@Z ; ScriptRegistrant<DB_Health_Sound_Timer>::ScriptRegistrant<DB_Health_Sound_Timer>
PUBLIC	?Create@?$ScriptRegistrant@VDB_Health_Sound_Timer@@@@UAEPAVScriptImpClass@@XZ ; ScriptRegistrant<DB_Health_Sound_Timer>::Create
PUBLIC	??1?$ScriptRegistrant@VDB_Health_Sound_Timer@@@@UAE@XZ ; ScriptRegistrant<DB_Health_Sound_Timer>::~ScriptRegistrant<DB_Health_Sound_Timer>
PUBLIC	??_G?$ScriptRegistrant@VDB_Health_Sound_Timer@@@@UAEPAXI@Z ; ScriptRegistrant<DB_Health_Sound_Timer>::`scalar deleting destructor'
PUBLIC	??0?$ScriptRegistrant@VDB_Visible_Passenger@@@@QAE@PBD0@Z ; ScriptRegistrant<DB_Visible_Passenger>::ScriptRegistrant<DB_Visible_Passenger>
PUBLIC	?Create@?$ScriptRegistrant@VDB_Visible_Passenger@@@@UAEPAVScriptImpClass@@XZ ; ScriptRegistrant<DB_Visible_Passenger>::Create
PUBLIC	??1?$ScriptRegistrant@VDB_Visible_Passenger@@@@UAE@XZ ; ScriptRegistrant<DB_Visible_Passenger>::~ScriptRegistrant<DB_Visible_Passenger>
PUBLIC	??_G?$ScriptRegistrant@VDB_Visible_Passenger@@@@UAEPAXI@Z ; ScriptRegistrant<DB_Visible_Passenger>::`scalar deleting destructor'
PUBLIC	??0?$ScriptRegistrant@VDB_Drop_Wreckage_On_Death@@@@QAE@PBD0@Z ; ScriptRegistrant<DB_Drop_Wreckage_On_Death>::ScriptRegistrant<DB_Drop_Wreckage_On_Death>
PUBLIC	?Create@?$ScriptRegistrant@VDB_Drop_Wreckage_On_Death@@@@UAEPAVScriptImpClass@@XZ ; ScriptRegistrant<DB_Drop_Wreckage_On_Death>::Create
PUBLIC	??1?$ScriptRegistrant@VDB_Drop_Wreckage_On_Death@@@@UAE@XZ ; ScriptRegistrant<DB_Drop_Wreckage_On_Death>::~ScriptRegistrant<DB_Drop_Wreckage_On_Death>
PUBLIC	??_G?$ScriptRegistrant@VDB_Drop_Wreckage_On_Death@@@@UAEPAXI@Z ; ScriptRegistrant<DB_Drop_Wreckage_On_Death>::`scalar deleting destructor'
PUBLIC	??0?$ScriptRegistrant@VDB_Wreckage_Rebuildable@@@@QAE@PBD0@Z ; ScriptRegistrant<DB_Wreckage_Rebuildable>::ScriptRegistrant<DB_Wreckage_Rebuildable>
PUBLIC	?Create@?$ScriptRegistrant@VDB_Wreckage_Rebuildable@@@@UAEPAVScriptImpClass@@XZ ; ScriptRegistrant<DB_Wreckage_Rebuildable>::Create
PUBLIC	??1?$ScriptRegistrant@VDB_Wreckage_Rebuildable@@@@UAE@XZ ; ScriptRegistrant<DB_Wreckage_Rebuildable>::~ScriptRegistrant<DB_Wreckage_Rebuildable>
PUBLIC	??_G?$ScriptRegistrant@VDB_Wreckage_Rebuildable@@@@UAEPAXI@Z ; ScriptRegistrant<DB_Wreckage_Rebuildable>::`scalar deleting destructor'
PUBLIC	??0?$ScriptRegistrant@VDB_Supply_Truck@@@@QAE@PBD0@Z ; ScriptRegistrant<DB_Supply_Truck>::ScriptRegistrant<DB_Supply_Truck>
PUBLIC	?Create@?$ScriptRegistrant@VDB_Supply_Truck@@@@UAEPAVScriptImpClass@@XZ ; ScriptRegistrant<DB_Supply_Truck>::Create
PUBLIC	??1?$ScriptRegistrant@VDB_Supply_Truck@@@@UAE@XZ ; ScriptRegistrant<DB_Supply_Truck>::~ScriptRegistrant<DB_Supply_Truck>
PUBLIC	??_G?$ScriptRegistrant@VDB_Supply_Truck@@@@UAEPAXI@Z ; ScriptRegistrant<DB_Supply_Truck>::`scalar deleting destructor'
PUBLIC	??0?$ScriptRegistrant@VDB_Damage_Vehicle_Occupants_Area_Timer@@@@QAE@PBD0@Z ; ScriptRegistrant<DB_Damage_Vehicle_Occupants_Area_Timer>::ScriptRegistrant<DB_Damage_Vehicle_Occupants_Area_Timer>
PUBLIC	?Create@?$ScriptRegistrant@VDB_Damage_Vehicle_Occupants_Area_Timer@@@@UAEPAVScriptImpClass@@XZ ; ScriptRegistrant<DB_Damage_Vehicle_Occupants_Area_Timer>::Create
PUBLIC	??1?$ScriptRegistrant@VDB_Damage_Vehicle_Occupants_Area_Timer@@@@UAE@XZ ; ScriptRegistrant<DB_Damage_Vehicle_Occupants_Area_Timer>::~ScriptRegistrant<DB_Damage_Vehicle_Occupants_Area_Timer>
PUBLIC	??_G?$ScriptRegistrant@VDB_Damage_Vehicle_Occupants_Area_Timer@@@@UAEPAXI@Z ; ScriptRegistrant<DB_Damage_Vehicle_Occupants_Area_Timer>::`scalar deleting destructor'
PUBLIC	??0?$ScriptRegistrant@VDB_Damage_Vehicle_Occupants_Area_Killed@@@@QAE@PBD0@Z ; ScriptRegistrant<DB_Damage_Vehicle_Occupants_Area_Killed>::ScriptRegistrant<DB_Damage_Vehicle_Occupants_Area_Killed>
PUBLIC	?Create@?$ScriptRegistrant@VDB_Damage_Vehicle_Occupants_Area_Killed@@@@UAEPAVScriptImpClass@@XZ ; ScriptRegistrant<DB_Damage_Vehicle_Occupants_Area_Killed>::Create
PUBLIC	??1?$ScriptRegistrant@VDB_Damage_Vehicle_Occupants_Area_Killed@@@@UAE@XZ ; ScriptRegistrant<DB_Damage_Vehicle_Occupants_Area_Killed>::~ScriptRegistrant<DB_Damage_Vehicle_Occupants_Area_Killed>
PUBLIC	??_G?$ScriptRegistrant@VDB_Damage_Vehicle_Occupants_Area_Killed@@@@UAEPAXI@Z ; ScriptRegistrant<DB_Damage_Vehicle_Occupants_Area_Killed>::`scalar deleting destructor'
PUBLIC	??0?$ScriptRegistrant@VDB_Set_PT_Slot@@@@QAE@PBD0@Z ; ScriptRegistrant<DB_Set_PT_Slot>::ScriptRegistrant<DB_Set_PT_Slot>
PUBLIC	?Create@?$ScriptRegistrant@VDB_Set_PT_Slot@@@@UAEPAVScriptImpClass@@XZ ; ScriptRegistrant<DB_Set_PT_Slot>::Create
PUBLIC	??1?$ScriptRegistrant@VDB_Set_PT_Slot@@@@UAE@XZ	; ScriptRegistrant<DB_Set_PT_Slot>::~ScriptRegistrant<DB_Set_PT_Slot>
PUBLIC	??_G?$ScriptRegistrant@VDB_Set_PT_Slot@@@@UAEPAXI@Z ; ScriptRegistrant<DB_Set_PT_Slot>::`scalar deleting destructor'
PUBLIC	??0?$ScriptRegistrant@VDB_Spawn_When_Killed@@@@QAE@PBD0@Z ; ScriptRegistrant<DB_Spawn_When_Killed>::ScriptRegistrant<DB_Spawn_When_Killed>
PUBLIC	?Create@?$ScriptRegistrant@VDB_Spawn_When_Killed@@@@UAEPAVScriptImpClass@@XZ ; ScriptRegistrant<DB_Spawn_When_Killed>::Create
PUBLIC	??1?$ScriptRegistrant@VDB_Spawn_When_Killed@@@@UAE@XZ ; ScriptRegistrant<DB_Spawn_When_Killed>::~ScriptRegistrant<DB_Spawn_When_Killed>
PUBLIC	??_G?$ScriptRegistrant@VDB_Spawn_When_Killed@@@@UAEPAXI@Z ; ScriptRegistrant<DB_Spawn_When_Killed>::`scalar deleting destructor'
PUBLIC	??0?$ScriptRegistrant@VDB_Replace_When_Repaired@@@@QAE@PBD0@Z ; ScriptRegistrant<DB_Replace_When_Repaired>::ScriptRegistrant<DB_Replace_When_Repaired>
PUBLIC	?Create@?$ScriptRegistrant@VDB_Replace_When_Repaired@@@@UAEPAVScriptImpClass@@XZ ; ScriptRegistrant<DB_Replace_When_Repaired>::Create
PUBLIC	??1?$ScriptRegistrant@VDB_Replace_When_Repaired@@@@UAE@XZ ; ScriptRegistrant<DB_Replace_When_Repaired>::~ScriptRegistrant<DB_Replace_When_Repaired>
PUBLIC	??_G?$ScriptRegistrant@VDB_Replace_When_Repaired@@@@UAEPAXI@Z ; ScriptRegistrant<DB_Replace_When_Repaired>::`scalar deleting destructor'
PUBLIC	??0?$ScriptRegistrant@VDB_Force_Fire@@@@QAE@PBD0@Z ; ScriptRegistrant<DB_Force_Fire>::ScriptRegistrant<DB_Force_Fire>
PUBLIC	?Create@?$ScriptRegistrant@VDB_Force_Fire@@@@UAEPAVScriptImpClass@@XZ ; ScriptRegistrant<DB_Force_Fire>::Create
PUBLIC	??1?$ScriptRegistrant@VDB_Force_Fire@@@@UAE@XZ	; ScriptRegistrant<DB_Force_Fire>::~ScriptRegistrant<DB_Force_Fire>
PUBLIC	??_G?$ScriptRegistrant@VDB_Force_Fire@@@@UAEPAXI@Z ; ScriptRegistrant<DB_Force_Fire>::`scalar deleting destructor'
PUBLIC	?Set_Next@?$SLNode@UKeyHookWrapperStruct@MultiKeyHookScriptImpClass@@@@QAEXPAV1@@Z ; SLNode<MultiKeyHookScriptImpClass::KeyHookWrapperStruct>::Set_Next
PUBLIC	?Next@?$SLNode@UKeyHookWrapperStruct@MultiKeyHookScriptImpClass@@@@QBEPAV1@XZ ; SLNode<MultiKeyHookScriptImpClass::KeyHookWrapperStruct>::Next
PUBLIC	?Data@?$SLNode@UKeyHookWrapperStruct@MultiKeyHookScriptImpClass@@@@QBEPAUKeyHookWrapperStruct@MultiKeyHookScriptImpClass@@XZ ; SLNode<MultiKeyHookScriptImpClass::KeyHookWrapperStruct>::Data
PUBLIC	??0?$SLNode@UKeyHookWrapperStruct@MultiKeyHookScriptImpClass@@@@IAE@PAUKeyHookWrapperStruct@MultiKeyHookScriptImpClass@@@Z ; SLNode<MultiKeyHookScriptImpClass::KeyHookWrapperStruct>::SLNode<MultiKeyHookScriptImpClass::KeyHookWrapperStruct>
PUBLIC	?getInstance@?$Singleton@V?$ObjectPoolClass@VGenericSLNode@@$0BAA@@@@@SAAAV?$ObjectPoolClass@VGenericSLNode@@$0BAA@@@XZ ; Singleton<ObjectPoolClass<GenericSLNode,256> >::getInstance
PUBLIC	??0?$ObjectPoolClass@VGenericSLNode@@$0BAA@@@QAE@XZ ; ObjectPoolClass<GenericSLNode,256>::ObjectPoolClass<GenericSLNode,256>
PUBLIC	??1?$ObjectPoolClass@VGenericSLNode@@$0BAA@@@QAE@XZ ; ObjectPoolClass<GenericSLNode,256>::~ObjectPoolClass<GenericSLNode,256>
PUBLIC	?Allocate_Object_Memory@?$ObjectPoolClass@VGenericSLNode@@$0BAA@@@QAEPAVGenericSLNode@@XZ ; ObjectPoolClass<GenericSLNode,256>::Allocate_Object_Memory
PUBLIC	?Free_Object_Memory@?$ObjectPoolClass@VGenericSLNode@@$0BAA@@@QAEXAAVGenericSLNode@@@Z ; ObjectPoolClass<GenericSLNode,256>::Free_Object_Memory
PUBLIC	?writeDummyPattern@?$ObjectPoolClass@VGenericSLNode@@$0BAA@@@QAEXAAVGenericSLNode@@K@Z ; ObjectPoolClass<GenericSLNode,256>::writeDummyPattern
PUBLIC	??__Finstancex@?1??getInstance@?$Singleton@V?$ObjectPoolClass@VGenericSLNode@@$0BAA@@@@@SAAAV?$ObjectPoolClass@VGenericSLNode@@$0BAA@@@XZ@YAXXZ ; `Singleton<ObjectPoolClass<GenericSLNode,256> >::getInstance'::`2'::`dynamic atexit destructor for 'instancex''
PUBLIC	??B?$RefArray@D$03@@QAEPADXZ			; RefArray<char,4>::operator char *
PUBLIC	??B?$RefArray@V?$RefArray@D$03@@$07@@QAEPAV?$RefArray@D$03@@XZ ; RefArray<RefArray<char,4>,8>::operator RefArray<char,4> *
PUBLIC	?Set@?$DataSafeClass@M@@SA_NVDataSafeHandleClass@@PAM@Z ; DataSafeClass<float>::Set
PUBLIC	?Get@?$DataSafeClass@I@@SA_NVDataSafeHandleClass@@AAPAI@Z ; DataSafeClass<unsigned int>::Get
PUBLIC	?Set@?$DataSafeClass@I@@SA_NVDataSafeHandleClass@@PAI@Z ; DataSafeClass<unsigned int>::Set
PUBLIC	??_7GameObjObserverClass@@6B@			; GameObjObserverClass::`vftable'
PUBLIC	??_7ScriptClass@@6B@				; ScriptClass::`vftable'
PUBLIC	??_7ScriptImpClass@@6B@				; ScriptImpClass::`vftable'
PUBLIC	??_7ScriptFactory@@6B@				; ScriptFactory::`vftable'
PUBLIC	??_7ThreadClass@@6B@				; ThreadClass::`vftable'
PUBLIC	??_C@_0DJ@NKJHEMPA@x?3?2github?2renegade?2dragonade_rxd@ ; `string'
PUBLIC	??_C@_1HC@JEIHKHFK@?$AAx?$AA?3?$AA?2?$AAg?$AAi?$AAt?$AAh?$AAu?$AAb?$AA?2?$AAr?$AAe?$AAn?$AAe?$AAg?$AAa?$AAd?$AAe?$AA?2?$AAd?$AAr?$AAa?$AAg?$AAo?$AAn?$AAa?$AAd?$AAe?$AA_?$AAr?$AAx?$AAd@ ; `string'
PUBLIC	??_C@_1M@HLGKFCJM@?$AAf?$AAa?$AAl?$AAs?$AAe?$AA?$AA@ ; `string'
PUBLIC	??_7INIClass@@6B@				; INIClass::`vftable'
PUBLIC	?_checking@?1??Security_Check@GenericDataSafeClass@@KAXXZ@4_NA ; `GenericDataSafeClass::Security_Check'::`2'::_checking
PUBLIC	?_calls@?1??Security_Check@GenericDataSafeClass@@KAXXZ@4KA ; `GenericDataSafeClass::Security_Check'::`2'::_calls
PUBLIC	??_7PostLoadableClass@@6B@			; PostLoadableClass::`vftable'
PUBLIC	??_7ReferencerClass@@6B@			; ReferencerClass::`vftable'
PUBLIC	??_C@_02OLOABKKD@ID?$AA@			; `string'
PUBLIC	??_7JFW_Key_Hook_Base@@6B@			; JFW_Key_Hook_Base::`vftable'
PUBLIC	??_7?$SList@UKeyHookWrapperStruct@MultiKeyHookScriptImpClass@@@@6B@ ; SList<MultiKeyHookScriptImpClass::KeyHookWrapperStruct>::`vftable'
PUBLIC	??_7MultiKeyHookScriptImpClass@@6B@		; MultiKeyHookScriptImpClass::`vftable'
PUBLIC	??_7JFW_Object_Created_Hook_Base@@6B@		; JFW_Object_Created_Hook_Base::`vftable'
PUBLIC	??_7DB_Shield_Generator_Vehicle@@6B@		; DB_Shield_Generator_Vehicle::`vftable'
PUBLIC	??_7DB_Controllable_Turret@@6B@			; DB_Controllable_Turret::`vftable'
PUBLIC	??_7DB_Guard_Bot@@6B@				; DB_Guard_Bot::`vftable'
PUBLIC	??_7DB_Support_Bot@@6B@				; DB_Support_Bot::`vftable'
PUBLIC	??_7dblaney_Nod_Obelisk@@6B@			; dblaney_Nod_Obelisk::`vftable'
PUBLIC	??_7dblaney_Nod_Obelisk_Structure@@6B@		; dblaney_Nod_Obelisk_Structure::`vftable'
PUBLIC	??_7dblaney_Nod_Obelisk_Weapon@@6B@		; dblaney_Nod_Obelisk_Weapon::`vftable'
PUBLIC	??_7DB_Power_Down_Console@@6B@			; DB_Power_Down_Console::`vftable'
PUBLIC	??_7DB_Power_Down_Building_Console@@6B@		; DB_Power_Down_Building_Console::`vftable'
PUBLIC	??_7DB_Disable_Injured_Animations@@6B@		; DB_Disable_Injured_Animations::`vftable'
PUBLIC	??_7DB_Set_Scale@@6B@				; DB_Set_Scale::`vftable'
PUBLIC	??_7DB_Grant_Keycard_Killed@@6B@		; DB_Grant_Keycard_Killed::`vftable'
PUBLIC	??_7DB_Grant_Keycard_Timer@@6B@			; DB_Grant_Keycard_Timer::`vftable'
PUBLIC	??_7DB_Infantry_Place_Buildable_Object@@6B@	; DB_Infantry_Place_Buildable_Object::`vftable'
PUBLIC	??_7DB_Stationary_Stealth@@6B@			; DB_Stationary_Stealth::`vftable'
PUBLIC	??_7DB_Turret_Sound@@6B@			; DB_Turret_Sound::`vftable'
PUBLIC	??_7DB_Turret_Spawn@@6B@			; DB_Turret_Spawn::`vftable'
PUBLIC	??_7DB_Spawned_Visible_Ammo@@6B@		; DB_Spawned_Visible_Ammo::`vftable'
PUBLIC	??_7DB_Vehicle_Visible_Ammo@@6B@		; DB_Vehicle_Visible_Ammo::`vftable'
PUBLIC	??_7DB_Orca_Lifter@@6B@				; DB_Orca_Lifter::`vftable'
PUBLIC	??_7DB_Turret_Bombard_Ability@@6B@		; DB_Turret_Bombard_Ability::`vftable'
PUBLIC	??_7DB_Turret_Bombard_Player@@6B@		; DB_Turret_Bombard_Player::`vftable'
PUBLIC	??_7DB_Health_Sound_Timer@@6B@			; DB_Health_Sound_Timer::`vftable'
PUBLIC	??_7DB_Visible_Passenger@@6B@			; DB_Visible_Passenger::`vftable'
PUBLIC	??_7DB_Drop_Wreckage_On_Death@@6B@		; DB_Drop_Wreckage_On_Death::`vftable'
PUBLIC	??_7DB_Wreckage_Rebuildable@@6B@		; DB_Wreckage_Rebuildable::`vftable'
PUBLIC	??_7DB_Supply_Truck@@6B@			; DB_Supply_Truck::`vftable'
PUBLIC	??_7DB_Damage_Vehicle_Occupants_Area_Killed@@6B@ ; DB_Damage_Vehicle_Occupants_Area_Killed::`vftable'
PUBLIC	??_7DB_Damage_Vehicle_Occupants_Area_Timer@@6B@	; DB_Damage_Vehicle_Occupants_Area_Timer::`vftable'
PUBLIC	??_7DB_Set_PT_Slot@@6B@				; DB_Set_PT_Slot::`vftable'
PUBLIC	??_7DB_Spawn_When_Killed@@6B@			; DB_Spawn_When_Killed::`vftable'
PUBLIC	??_7DB_Replace_When_Repaired@@6B@		; DB_Replace_When_Repaired::`vftable'
PUBLIC	??_7DB_Force_Fire@@6B@				; DB_Force_Fire::`vftable'
PUBLIC	??_C@_0BG@HMJOAAEH@IKDeploy?0?$CFd?0923572385?$AA@ ; `string'
PUBLIC	??_C@_0CB@JECDMCF@Reborn_Deployable_Vehicle_Player@ ; `string'
PUBLIC	??_C@_0O@FBCFJMGJ@ROOTTRANSFORM?$AA@		; `string'
PUBLIC	??_C@_0N@NABMEEEH@ShieldPreset?$AA@		; `string'
PUBLIC	??_C@_06NHCMNMEH@origin?$AA@			; `string'
PUBLIC	??_C@_0P@HMFAAGAC@ShieldUp_Sound?$AA@		; `string'
PUBLIC	??_C@_0BB@KKOCAOCE@ShieldDown_Sound?$AA@	; `string'
PUBLIC	??_7?$ScriptRegistrant@VDB_Shield_Generator_Vehicle@@@@6B@ ; ScriptRegistrant<DB_Shield_Generator_Vehicle>::`vftable'
PUBLIC	?DB_Shield_Generator_Vehicle_Registrant@@3V?$ScriptRegistrant@VDB_Shield_Generator_Vehicle@@@@A ; DB_Shield_Generator_Vehicle_Registrant
PUBLIC	??_C@_0EC@IGGOPCKL@ShieldPreset?3string?0ShieldUp_Sou@ ; `string'
PUBLIC	??_C@_0BM@HENKPJNG@DB_Shield_Generator_Vehicle?$AA@ ; `string'
PUBLIC	??_7?$ScriptRegistrant@VDB_Controllable_Turret@@@@6B@ ; ScriptRegistrant<DB_Controllable_Turret>::`vftable'
PUBLIC	?DB_Controllable_Turret_Registrant@@3V?$ScriptRegistrant@VDB_Controllable_Turret@@@@A ; DB_Controllable_Turret_Registrant
PUBLIC	??_C@_00CNPNBAHC@?$AA@				; `string'
PUBLIC	??_C@_0BH@JJLGBHDE@DB_Controllable_Turret?$AA@	; `string'
PUBLIC	??_C@_0L@FEEMOLEK@0?45?070?00?00?$AA@		; `string'
PUBLIC	??_C@_0BC@COBDJBNK@DB_Innate_Soldier?$AA@	; `string'
PUBLIC	??_C@_0N@LKGAMKG@DB_Guard_Bot?$AA@		; `string'
PUBLIC	??_C@_0BH@KODKILLF@s_a_human?4H_A_a0a0_L23?$AA@	; `string'
PUBLIC	??_7?$ScriptRegistrant@VDB_Guard_Bot@@@@6B@	; ScriptRegistrant<DB_Guard_Bot>::`vftable'
PUBLIC	?DB_Guard_Bot_Registrant@@3V?$ScriptRegistrant@VDB_Guard_Bot@@@@A ; DB_Guard_Bot_Registrant
PUBLIC	??_C@_08DFKPLDPN@Distance?$AA@			; `string'
PUBLIC	??_C@_05HOIAGEJD@Speed?$AA@			; `string'
PUBLIC	??_C@_09OFPEPGAP@0?45?00?00?00?$AA@		; `string'
PUBLIC	??_C@_0CE@LMGLEADJ@This?5bot?5will?5no?5longer?5follow?5y@ ; `string'
PUBLIC	??_C@_0BO@KKLODFF@This?5bot?5will?5now?5follow?5you?4?$AA@ ; `string'
PUBLIC	??_7?$ScriptRegistrant@VDB_Support_Bot@@@@6B@	; ScriptRegistrant<DB_Support_Bot>::`vftable'
PUBLIC	?DB_Support_Bot_Registrant@@3V?$ScriptRegistrant@VDB_Support_Bot@@@@A ; DB_Support_Bot_Registrant
PUBLIC	??_C@_0BL@IAJHMGBA@Distance?3float?0Speed?3float?$AA@ ; `string'
PUBLIC	??_C@_0P@EFPFMHJP@DB_Support_Bot?$AA@		; `string'
PUBLIC	??_C@_0N@CGHBFEHB@OffsetHeight?$AA@		; `string'
PUBLIC	??_C@_0BF@NAIMLHI@ObeliskEmitterPreset?$AA@	; `string'
PUBLIC	??_C@_08JOBCAEBO@MaxRange?$AA@			; `string'
PUBLIC	??_C@_0L@HJJPIMOC@ChargeTime?$AA@		; `string'
PUBLIC	??_C@_0L@IFLADPM@GroundOnly?$AA@		; `string'
PUBLIC	??_C@_0P@JFCABOIN@obel_buildable?$AA@		; `string'
PUBLIC	??_C@_0BO@NCBDDKOB@obel_buildable?4obel_buildable?$AA@ ; `string'
PUBLIC	??_C@_08OOEHIEGC@?$CFf?0?$CFf?0?$CFi?$AA@	; `string'
PUBLIC	??_C@_0BL@HHMOMEMM@dblaney_Nod_Obelisk_Weapon?$AA@ ; `string'
PUBLIC	??_7?$ScriptRegistrant@Vdblaney_Nod_Obelisk@@@@6B@ ; ScriptRegistrant<dblaney_Nod_Obelisk>::`vftable'
PUBLIC	?dblaney_Nod_Obelisk_Registrant@@3V?$ScriptRegistrant@Vdblaney_Nod_Obelisk@@@@A ; dblaney_Nod_Obelisk_Registrant
PUBLIC	??_C@_0HF@HFBANFE@ObeliskEmitterPreset?$DNNod_Obelisk@ ; `string'
PUBLIC	??_C@_0BE@JCFFJJJA@dblaney_Nod_Obelisk?$AA@	; `string'
PUBLIC	??_7?$ScriptRegistrant@Vdblaney_Nod_Obelisk_Structure@@@@6B@ ; ScriptRegistrant<dblaney_Nod_Obelisk_Structure>::`vftable'
PUBLIC	?dblaney_Nod_Obelisk_Structure_Registrant@@3V?$ScriptRegistrant@Vdblaney_Nod_Obelisk_Structure@@@@A ; dblaney_Nod_Obelisk_Structure_Registrant
PUBLIC	??_C@_0BO@BHCPEBKD@dblaney_Nod_Obelisk_Structure?$AA@ ; `string'
PUBLIC	??_C@_0BA@BAMEGIFD@Obelisk_Warm_Up?$AA@		; `string'
PUBLIC	??_C@_0P@CHBJFGHP@Obelisk?5Effect?$AA@		; `string'
PUBLIC	??_C@_06JJLAMBGK@target?$AA@			; `string'
PUBLIC	??_7?$ScriptRegistrant@Vdblaney_Nod_Obelisk_Weapon@@@@6B@ ; ScriptRegistrant<dblaney_Nod_Obelisk_Weapon>::`vftable'
PUBLIC	?dblaney_Nod_Obelisk_Weapon_Registrant@@3V?$ScriptRegistrant@Vdblaney_Nod_Obelisk_Weapon@@@@A ; dblaney_Nod_Obelisk_Weapon_Registrant
PUBLIC	??_C@_0EC@FABKKEN@MaxRange?$DN150?3float?0ChargeTime?$DN2?3@ ; `string'
PUBLIC	??_C@_05MAHMNMLO@Sound?$AA@			; `string'
PUBLIC	??_C@_0L@JFPEKBDK@Power_Time?$AA@		; `string'
PUBLIC	??_C@_0BC@LCFIDEEM@SinglePlayerBonus?$AA@	; `string'
PUBLIC	??_C@_0EF@IBIGCCHD@?$CFs?5base?5power?5offline?4?5Power?5wil@ ; `string'
PUBLIC	??_C@_06MBGJLGCG@Sound2?$AA@			; `string'
PUBLIC	??_C@_0BG@FDPJHMPJ@?$CFs?5base?5power?5online?4?$AA@ ; `string'
PUBLIC	??_C@_0L@OEIGOMAE@Reset_Time?$AA@		; `string'
PUBLIC	??_7?$ScriptRegistrant@VDB_Power_Down_Console@@@@6B@ ; ScriptRegistrant<DB_Power_Down_Console>::`vftable'
PUBLIC	?DB_Power_Down_Console_Registrant@@3V?$ScriptRegistrant@VDB_Power_Down_Console@@@@A ; DB_Power_Down_Console_Registrant
PUBLIC	??_C@_0FM@MMPCMCOF@Power_Time?3float?$DN60?0Reset_Time?3f@ ; `string'
PUBLIC	??_C@_0BG@BBHEDGDH@DB_Power_Down_Console?$AA@	; `string'
PUBLIC	??_C@_0L@EGBHCOFG@BuildingID?$AA@		; `string'
PUBLIC	??_C@_0EK@DEGDEHIJ@?$CFs?5?$CFs?5offline?4?5Power?5to?5the?5?$CFs?5w@ ; `string'
PUBLIC	??_C@_0O@LHHMBLPH@?$CFs?5?$CFs?5online?4?$AA@	; `string'
PUBLIC	??_7?$ScriptRegistrant@VDB_Power_Down_Building_Console@@@@6B@ ; ScriptRegistrant<DB_Power_Down_Building_Console>::`vftable'
PUBLIC	?DB_Power_Down_Building_Console_Registrant@@3V?$ScriptRegistrant@VDB_Power_Down_Building_Console@@@@A ; DB_Power_Down_Building_Console_Registrant
PUBLIC	??_C@_0GN@JGIHEGJP@BuildingID?3int?$DN0?0Power_Time?3floa@ ; `string'
PUBLIC	??_C@_0BP@EJLDIDAL@DB_Power_Down_Building_Console?$AA@ ; `string'
PUBLIC	??_7?$ScriptRegistrant@VDB_Disable_Injured_Animations@@@@6B@ ; ScriptRegistrant<DB_Disable_Injured_Animations>::`vftable'
PUBLIC	?DB_Disable_Injured_Animations_Registrant@@3V?$ScriptRegistrant@VDB_Disable_Injured_Animations@@@@A ; DB_Disable_Injured_Animations_Registrant
PUBLIC	??_C@_0BO@BGHNKBOE@DB_Disable_Injured_Animations?$AA@ ; `string'
PUBLIC	??_C@_05MAGIBEFI@Scale?$AA@			; `string'
PUBLIC	??_7?$ScriptRegistrant@VDB_Set_Scale@@@@6B@	; ScriptRegistrant<DB_Set_Scale>::`vftable'
PUBLIC	?DB_Set_Scale_Registrant@@3V?$ScriptRegistrant@VDB_Set_Scale@@@@A ; DB_Set_Scale_Registrant
PUBLIC	??_C@_0BB@OEFIILNL@Scale?3float?$DN1?400?$AA@	; `string'
PUBLIC	??_C@_0N@INKEPHFN@DB_Set_Scale?$AA@		; `string'
PUBLIC	??_C@_08EEICKNKG@KeyLevel?$AA@			; `string'
PUBLIC	??_C@_0BL@JIFDPIFJ@Level?5?$CFi?5Keycard?5acquired?4?$AA@ ; `string'
PUBLIC	??_C@_0BB@NHJNEILC@Invisible_Object?$AA@	; `string'
PUBLIC	??_C@_02IKAHHCAI@?$CFi?$AA@			; `string'
PUBLIC	??_C@_0BH@DJLPMOIF@DB_Grant_Keycard_Timer?$AA@	; `string'
PUBLIC	??_7?$ScriptRegistrant@VDB_Grant_Keycard_Killed@@@@6B@ ; ScriptRegistrant<DB_Grant_Keycard_Killed>::`vftable'
PUBLIC	?DB_Grant_Keycard_Killed_Registrant@@3V?$ScriptRegistrant@VDB_Grant_Keycard_Killed@@@@A ; DB_Grant_Keycard_Killed_Registrant
PUBLIC	??_C@_0P@NFAGKAJE@KeyLevel?$DN1?3int?$AA@	; `string'
PUBLIC	??_C@_0BI@FEONFJCK@DB_Grant_Keycard_Killed?$AA@	; `string'
PUBLIC	??_7?$ScriptRegistrant@VDB_Grant_Keycard_Timer@@@@6B@ ; ScriptRegistrant<DB_Grant_Keycard_Timer>::`vftable'
PUBLIC	?DB_Grant_Keycard_Timer_Registrant@@3V?$ScriptRegistrant@VDB_Grant_Keycard_Timer@@@@A ; DB_Grant_Keycard_Timer_Registrant
PUBLIC	??_C@_0N@FNADKENL@WeaponPreset?$AA@		; `string'
PUBLIC	??_C@_0M@CNNCFLEK@GrantWeapon?$AA@		; `string'
PUBLIC	??_C@_0BB@PEJHDJIK@PlaceablePreview?$AA@	; `string'
PUBLIC	??_C@_0BD@HJFGIBBJ@UnPlaceablePreview?$AA@	; `string'
PUBLIC	??_C@_0BB@IBIEIDJJ@PlacementMessage?$AA@	; `string'
PUBLIC	??_C@_0N@NPIJOMCO@DeployCustom?$AA@		; `string'
PUBLIC	??_C@_0CJ@NBDHNAEG@You?5must?5be?5on?5the?5ground?5to?5pla@ ; `string'
PUBLIC	??_C@_0CO@MGBENMFP@You?5cannot?5place?5this?5while?5clim@ ; `string'
PUBLIC	??_C@_0BJ@MAFBACOI@DeploymentBlockedMessage?$AA@ ; `string'
PUBLIC	??_C@_0EG@EEENFIJL@You?5must?5repair?5the?5last?5one?5you@ ; `string'
PUBLIC	??_C@_0DM@DDLNJAOI@You?5must?5wait?5another?5?$CFd?5seconds@ ; `string'
PUBLIC	??_C@_04FICPKHNF@Cost?$AA@			; `string'
PUBLIC	??_C@_0BM@BFKBMLNG@You?5need?5$?$CFi?5to?5place?5this?4?$AA@ ; `string'
PUBLIC	??_C@_0BH@OADCPNKP@RegenStartsAfterRepair?$AA@	; `string'
PUBLIC	??_C@_0M@IAIDKDAD@RegainTimer?$AA@		; `string'
PUBLIC	??_C@_0N@HAFKCMJA@DeployPreset?$AA@		; `string'
PUBLIC	??_C@_09BCOHBAJM@MatchTeam?$AA@			; `string'
PUBLIC	??_C@_0P@NMBGIEKF@RepairedPreset?$AA@		; `string'
PUBLIC	??_C@_0P@BGKBFJGM@?$CFd?0?$CFd?0?$CFs?0?$CFd?0?$CFd?$AA@ ; `string'
PUBLIC	??_C@_0DG@KKJONMNL@JMG_Utility_Infantry_Placed_Buil@ ; `string'
PUBLIC	??_C@_0N@BAKFKCLM@EnableCustom?$AA@		; `string'
PUBLIC	??_C@_0O@CNAMPLAP@DisableCustom?$AA@		; `string'
PUBLIC	??_C@_0BD@OOKCOMOP@DestroyedRegenTime?$AA@	; `string'
PUBLIC	??_7?$ScriptRegistrant@VDB_Infantry_Place_Buildable_Object@@@@6B@ ; ScriptRegistrant<DB_Infantry_Place_Buildable_Object>::`vftable'
PUBLIC	?DB_Infantry_Place_Buildable_Object_Registrant@@3V?$ScriptRegistrant@VDB_Infantry_Place_Buildable_Object@@@@A ; DB_Infantry_Place_Buildable_Object_Registrant
PUBLIC	??_C@_0BKG@NKAEMMIH@WeaponPreset?$DNnull?3string?0DeployP@ ; `string'
PUBLIC	??_C@_0CD@JBHMIJBG@DB_Infantry_Place_Buildable_Obje@ ; `string'
PUBLIC	??_C@_0BA@HKIIOOGD@Stealth_Powerup?$AA@		; `string'
PUBLIC	??_C@_0BD@HCDOJIOO@Stealth_Stationary?$AA@	; `string'
PUBLIC	??_7?$ScriptRegistrant@VDB_Stationary_Stealth@@@@6B@ ; ScriptRegistrant<DB_Stationary_Stealth>::`vftable'
PUBLIC	?DB_Stationary_Stealth_Registrant@@3V?$ScriptRegistrant@VDB_Stationary_Stealth@@@@A ; DB_Stationary_Stealth_Registrant
PUBLIC	??_C@_0BG@KAKCEFNM@DB_Stationary_Stealth?$AA@	; `string'
PUBLIC	??_C@_0BC@CEGMHLIB@Min_Rotate_Amount?$AA@	; `string'
PUBLIC	??_C@_06GGDACGEK@turret?$AA@			; `string'
PUBLIC	??_C@_0O@IIPMNKCH@Sound_Emitter?$AA@		; `string'
PUBLIC	??_7?$ScriptRegistrant@VDB_Turret_Sound@@@@6B@	; ScriptRegistrant<DB_Turret_Sound>::`vftable'
PUBLIC	?DB_Turret_Sound_Registrant@@3V?$ScriptRegistrant@VDB_Turret_Sound@@@@A ; DB_Turret_Sound_Registrant
PUBLIC	??_C@_0DC@HNKEJCHB@Sound_Emitter?3string?0Min_Rotate_@ ; `string'
PUBLIC	??_C@_0BA@LOPDOOPJ@DB_Turret_Sound?$AA@		; `string'
PUBLIC	??_C@_0O@IHKIECPM@Turret_Preset?$AA@		; `string'
PUBLIC	??_C@_09NIALNEFH@Bone_Name?$AA@			; `string'
PUBLIC	??_C@_0BK@LCBLLJIE@DB_Turret_Bombard_Ability?$AA@ ; `string'
PUBLIC	??_C@_0DM@KDPNEKEJ@Manual?5Targeting?5set?0?5Press?5?8T?8?5@ ; `string'
PUBLIC	??_C@_0DM@IBANLIGH@Auto?5Targeting?5set?0?5Press?5?8T?8?5to@ ; `string'
PUBLIC	??_C@_0M@IPKOBAPD@BlamoKiller?$AA@		; `string'
PUBLIC	??_7?$ScriptRegistrant@VDB_Turret_Spawn@@@@6B@	; ScriptRegistrant<DB_Turret_Spawn>::`vftable'
PUBLIC	?DB_Turret_Spawn_Registrant@@3V?$ScriptRegistrant@VDB_Turret_Spawn@@@@A ; DB_Turret_Spawn_Registrant
PUBLIC	??_C@_0DA@GKPHLBLP@Turret_Preset?3string?0Bone_Name?$DNT@ ; `string'
PUBLIC	??_C@_0BA@GKCAFOBH@DB_Turret_Spawn?$AA@		; `string'
PUBLIC	??_C@_0M@NHEBDOOE@Ammo_Preset?$AA@		; `string'
PUBLIC	??_7?$ScriptRegistrant@VDB_Spawned_Visible_Ammo@@@@6B@ ; ScriptRegistrant<DB_Spawned_Visible_Ammo>::`vftable'
PUBLIC	?DB_Spawned_Visible_Ammo_Registrant@@3V?$ScriptRegistrant@VDB_Spawned_Visible_Ammo@@@@A ; DB_Spawned_Visible_Ammo_Registrant
PUBLIC	??_C@_0CO@PMKMLMHB@Ammo_Preset?3string?0Bone_Name?$DNAmm@ ; `string'
PUBLIC	??_C@_0BI@JKPKFJLB@DB_Spawned_Visible_Ammo?$AA@	; `string'
PUBLIC	??_C@_0N@JPNDKPN@StartEnabled?$AA@		; `string'
PUBLIC	??_C@_0O@PHHBGFOO@EnableMessage?$AA@		; `string'
PUBLIC	??_C@_0P@KFCECOIB@DisableMessage?$AA@		; `string'
PUBLIC	??_C@_09ONEINPNJ@Animation?$AA@			; `string'
PUBLIC	??_7?$ScriptRegistrant@VDB_Vehicle_Visible_Ammo@@@@6B@ ; ScriptRegistrant<DB_Vehicle_Visible_Ammo>::`vftable'
PUBLIC	?DB_Vehicle_Visible_Ammo_Registrant@@3V?$ScriptRegistrant@VDB_Vehicle_Visible_Ammo@@@@A ; DB_Vehicle_Visible_Ammo_Registrant
PUBLIC	??_C@_0FJ@CADFJHJO@Animation?3string?0StartEnabled?$DN0?3@ ; `string'
PUBLIC	??_C@_0BI@EDGGAAMG@DB_Vehicle_Visible_Ammo?$AA@	; `string'
PUBLIC	??_C@_09KINPNLGC@Zone_Size?$AA@			; `string'
PUBLIC	??_C@_09MLBLDBCA@Zone_Bone?$AA@			; `string'
PUBLIC	??_C@_0BA@HNDGJMLL@Script_Zone_All?$AA@		; `string'
PUBLIC	??_C@_0O@OOANPKLF@Reload_Preset?$AA@		; `string'
PUBLIC	??_C@_05FNAOGBFN@?$CFi?0?$CFs?$AA@		; `string'
PUBLIC	??_C@_0CB@GJDAPNAA@DB_capturable_helipadzone_reload@ ; `string'
PUBLIC	??_C@_0BJ@DAIPKIEG@DB_capturable_Repairzone?$AA@ ; `string'
PUBLIC	??_7?$ScriptRegistrant@VDB_Orca_Lifter@@@@6B@	; ScriptRegistrant<DB_Orca_Lifter>::`vftable'
PUBLIC	?DB_Orca_Lifter_Registrant@@3V?$ScriptRegistrant@VDB_Orca_Lifter@@@@A ; DB_Orca_Lifter_Registrant
PUBLIC	??_C@_0DP@JHIMMKCG@Zone_Bone?$DNOrigin?3string?0Zone_Siz@ ; `string'
PUBLIC	??_C@_0P@PCJLNNFF@DB_Orca_Lifter?$AA@		; `string'
PUBLIC	??_C@_0M@GFPJPLHF@IKDeploy?0?$CFd?$AA@		; `string'
PUBLIC	??_C@_0BJ@HMDPCBKF@DB_Turret_Bombard_Player?$AA@ ; `string'
PUBLIC	??_7?$ScriptRegistrant@VDB_Turret_Bombard_Ability@@@@6B@ ; ScriptRegistrant<DB_Turret_Bombard_Ability>::`vftable'
PUBLIC	?DB_Turret_Bombard_Ability_Registrant@@3V?$ScriptRegistrant@VDB_Turret_Bombard_Ability@@@@A ; DB_Turret_Bombard_Ability_Registrant
PUBLIC	??_C@_03CCEPDEKL@Key?$AA@			; `string'
PUBLIC	??_C@_0DN@JNPFPGCO@Press?5the?5?8T?8?5key?5to?5toggle?5auxi@ ; `string'
PUBLIC	??_7?$ScriptRegistrant@VDB_Turret_Bombard_Player@@@@6B@ ; ScriptRegistrant<DB_Turret_Bombard_Player>::`vftable'
PUBLIC	?DB_Turret_Bombard_Player_Registrant@@3V?$ScriptRegistrant@VDB_Turret_Bombard_Player@@@@A ; DB_Turret_Bombard_Player_Registrant
PUBLIC	??_C@_0BL@LIKPCIOO@Key?$DNDeploy?3string?0ID?$DN0?3int?$AA@ ; `string'
PUBLIC	??_C@_04OKOFBOPB@Time?$AA@			; `string'
PUBLIC	??_C@_08DBAENAIH@TimerNum?$AA@			; `string'
PUBLIC	??_C@_06HJIMLMON@Repeat?$AA@			; `string'
PUBLIC	??_C@_0L@LIFCBMIP@Min_Health?$AA@		; `string'
PUBLIC	??_C@_0L@HEFPGHIA@Max_Health?$AA@		; `string'
PUBLIC	??_7?$ScriptRegistrant@VDB_Health_Sound_Timer@@@@6B@ ; ScriptRegistrant<DB_Health_Sound_Timer>::`vftable'
PUBLIC	?DB_Health_Sound_Timer_Registrant@@3V?$ScriptRegistrant@VDB_Health_Sound_Timer@@@@A ; DB_Health_Sound_Timer_Registrant
PUBLIC	??_C@_0FC@OMGDJLLL@Time?3float?0TimerNum?3int?0Repeat?3i@ ; `string'
PUBLIC	??_C@_0BG@FMALDEIB@DB_Health_Sound_Timer?$AA@	; `string'
PUBLIC	??_C@_04EINAKHCN@Seat?$AA@			; `string'
PUBLIC	??_C@_08FPDFGKEJ@BoneName?$AA@			; `string'
PUBLIC	??_C@_0L@FAPFLKBH@StaticAnim?$AA@		; `string'
PUBLIC	??_C@_0M@OGKIINEL@StaticFrame?$AA@		; `string'
PUBLIC	??_7?$ScriptRegistrant@VDB_Visible_Passenger@@@@6B@ ; ScriptRegistrant<DB_Visible_Passenger>::`vftable'
PUBLIC	?DB_Visible_Passenger_Registrant@@3V?$ScriptRegistrant@VDB_Visible_Passenger@@@@A ; DB_Visible_Passenger_Registrant
PUBLIC	??_C@_0GI@CPLIIHAO@Seat?$DN0?3int?0BoneName?$DNseat0?3string@ ; `string'
PUBLIC	??_C@_0BF@NECCCNHA@DB_Visible_Passenger?$AA@	; `string'
PUBLIC	??_C@_0BA@BKACAECP@Wreckage_Preset?$AA@		; `string'
PUBLIC	??_C@_07IDIGAOFL@Mounted?$AA@			; `string'
PUBLIC	??_C@_0BI@IDMLLKDE@DB_Wreckage_Rebuildable?$AA@	; `string'
PUBLIC	??_C@_0P@LNANEEHL@Vehicle_Preset?$AA@		; `string'
PUBLIC	??_C@_03NKBOLEBK@0?41?$AA@			; `string'
PUBLIC	??_C@_0BA@ENAPIBGD@DB_Face_Forward?$AA@		; `string'
PUBLIC	??_C@_0BM@BDOMCBIJ@Explosion_with_Debris_small?$AA@ ; `string'
PUBLIC	??_7?$ScriptRegistrant@VDB_Drop_Wreckage_On_Death@@@@6B@ ; ScriptRegistrant<DB_Drop_Wreckage_On_Death>::`vftable'
PUBLIC	?DB_Drop_Wreckage_On_Death_Registrant@@3V?$ScriptRegistrant@VDB_Drop_Wreckage_On_Death@@@@A ; DB_Drop_Wreckage_On_Death_Registrant
PUBLIC	??_C@_0BH@BDPHDFEA@Wreckage_Preset?3string?$AA@	; `string'
PUBLIC	??_C@_0BK@ELPAMAOH@DB_Drop_Wreckage_On_Death?$AA@ ; `string'
PUBLIC	??_7?$ScriptRegistrant@VDB_Wreckage_Rebuildable@@@@6B@ ; ScriptRegistrant<DB_Wreckage_Rebuildable>::`vftable'
PUBLIC	?DB_Wreckage_Rebuildable_Registrant@@3V?$ScriptRegistrant@VDB_Wreckage_Rebuildable@@@@A ; DB_Wreckage_Rebuildable_Registrant
PUBLIC	??_C@_0BG@JJNJEEOF@Vehicle_Preset?3string?$AA@	; `string'
PUBLIC	??_C@_0DJ@BHBEGLKC@Supply?5Truck?3?5You?5refill?5everyon@ ; `string'
PUBLIC	??_C@_0P@HKNHAPJN@CnC_Ammo_Crate?$AA@		; `string'
PUBLIC	??_C@_0CP@DPACJOOP@Your?5ammo?0?5health?5and?5armor?5have@ ; `string'
PUBLIC	??_7?$ScriptRegistrant@VDB_Supply_Truck@@@@6B@	; ScriptRegistrant<DB_Supply_Truck>::`vftable'
PUBLIC	?DB_Supply_Truck_Registrant@@3V?$ScriptRegistrant@VDB_Supply_Truck@@@@A ; DB_Supply_Truck_Registrant
PUBLIC	??_C@_0BA@KCIKMOMA@DB_Supply_Truck?$AA@		; `string'
PUBLIC	??_C@_0BA@ODIDFGOB@Damage_Distance?$AA@		; `string'
PUBLIC	??_C@_0O@FFAIMADO@?0Fire?0150?03?45?$AA@	; `string'
PUBLIC	??_C@_0BJ@KBHEMBNB@Occupants_Damage_Warhead?$AA@ ; `string'
PUBLIC	??_C@_0BI@JNKCLGOL@Occupants_Damage_Amount?$AA@	; `string'
PUBLIC	??_C@_0M@CKFCHKCB@?$CFf?0?$CFs?0?$CFf?0?$CFi?$AA@ ; `string'
PUBLIC	??_C@_0CH@IHOHMJLA@DB_Damage_Vehicle_Occupants_Area@ ; `string'
PUBLIC	??_C@_09DGNBOENG@ShooterID?$AA@			; `string'
PUBLIC	??_7?$ScriptRegistrant@VDB_Damage_Vehicle_Occupants_Area_Timer@@@@6B@ ; ScriptRegistrant<DB_Damage_Vehicle_Occupants_Area_Timer>::`vftable'
PUBLIC	?DB_Damage_Vehicle_Occupants_Area_Timer_Registrant@@3V?$ScriptRegistrant@VDB_Damage_Vehicle_Occupants_Area_Timer@@@@A ; DB_Damage_Vehicle_Occupants_Area_Timer_Registrant
PUBLIC	??_C@_0HG@FHCDFJDA@Occupants_Damage_Amount?$DN1000?3flo@ ; `string'
PUBLIC	??_7?$ScriptRegistrant@VDB_Damage_Vehicle_Occupants_Area_Killed@@@@6B@ ; ScriptRegistrant<DB_Damage_Vehicle_Occupants_Area_Killed>::`vftable'
PUBLIC	?DB_Damage_Vehicle_Occupants_Area_Killed_Registrant@@3V?$ScriptRegistrant@VDB_Damage_Vehicle_Occupants_Area_Killed@@@@A ; DB_Damage_Vehicle_Occupants_Area_Killed_Registrant
PUBLIC	??_C@_0IP@LIEAPNPF@Area_Damaging_Explosion?$DNexplosio@ ; `string'
PUBLIC	??_C@_0CI@COAMFAO@DB_Damage_Vehicle_Occupants_Area@ ; `string'
PUBLIC	??_C@_04KOACHJEN@Type?$AA@			; `string'
PUBLIC	??_C@_04GBPANCCF@Team?$AA@			; `string'
PUBLIC	??_C@_04DPEGMFKN@Slot?$AA@			; `string'
PUBLIC	??_C@_03PHINJBAN@Alt?$AA@			; `string'
PUBLIC	??_C@_06CKLLCHIK@Preset?$AA@			; `string'
PUBLIC	??_C@_06PCJDDCLI@mirage?$AA@			; `string'
PUBLIC	??_C@_06DGFOANMH@reload?$AA@			; `string'
PUBLIC	??_7?$ScriptRegistrant@VDB_Set_PT_Slot@@@@6B@	; ScriptRegistrant<DB_Set_PT_Slot>::`vftable'
PUBLIC	?DB_Set_PT_Slot_Registrant@@3V?$ScriptRegistrant@VDB_Set_PT_Slot@@@@A ; DB_Set_PT_Slot_Registrant
PUBLIC	??_C@_0EN@EIEPMADD@Team?$DN0?3int?0Type?$DN0?3int?0Slot?$DN0?3int@ ; `string'
PUBLIC	??_C@_0P@KHFGGDNC@DB_Set_PT_Slot?$AA@		; `string'
PUBLIC	??_C@_0L@FPLAAJEA@PresetName?$AA@		; `string'
PUBLIC	??_C@_0L@DPEGPHCF@DropHeight?$AA@		; `string'
PUBLIC	??_C@_0L@GKBMGALG@SameFacing?$AA@		; `string'
PUBLIC	??_C@_0BA@BCDFFBND@MatchObjectTeam?$AA@		; `string'
PUBLIC	??_C@_0O@KPGKEIEO@HealthPercent?$AA@		; `string'
PUBLIC	??_C@_0N@CMCKONJD@ArmorPercent?$AA@		; `string'
PUBLIC	??_C@_0BA@FKAGLJCA@MatchRepairTeam?$AA@		; `string'
PUBLIC	??_7?$ScriptRegistrant@VDB_Spawn_When_Killed@@@@6B@ ; ScriptRegistrant<DB_Spawn_When_Killed>::`vftable'
PUBLIC	?DB_Spawn_When_Killed_Registrant@@3V?$ScriptRegistrant@VDB_Spawn_When_Killed@@@@A ; DB_Spawn_When_Killed_Registrant
PUBLIC	??_C@_0IF@HEPEAKAL@PresetName?3string?0DropHeight?$DN0?3f@ ; `string'
PUBLIC	??_C@_0BF@EFABJAHE@DB_Spawn_When_Killed?$AA@	; `string'
PUBLIC	??_7?$ScriptRegistrant@VDB_Replace_When_Repaired@@@@6B@ ; ScriptRegistrant<DB_Replace_When_Repaired>::`vftable'
PUBLIC	?DB_Replace_When_Repaired_Registrant@@3V?$ScriptRegistrant@VDB_Replace_When_Repaired@@@@A ; DB_Replace_When_Repaired_Registrant
PUBLIC	??_C@_0IF@GDEBGGJF@PresetName?3string?0DropHeight?$DN0?3f@ ; `string'
PUBLIC	??_C@_0BJ@JAPIMLGF@DB_Replace_When_Repaired?$AA@ ; `string'
PUBLIC	??_C@_0L@DEMPLMLC@StartDelay?$AA@		; `string'
PUBLIC	??_C@_0BD@PMMNBIEA@Use_Secondary_Fire?$AA@	; `string'
PUBLIC	??_C@_09PLKKJOC@ResetTime?$AA@			; `string'
PUBLIC	??_7?$ScriptRegistrant@VDB_Force_Fire@@@@6B@	; ScriptRegistrant<DB_Force_Fire>::`vftable'
PUBLIC	?DB_Force_Fire_Registrant@@3V?$ScriptRegistrant@VDB_Force_Fire@@@@A ; DB_Force_Fire_Registrant
PUBLIC	??_C@_0DM@NILGCDKK@UseSecondaryFire?$DN0?3int?0ResetTime@ ; `string'
PUBLIC	??_C@_0O@IBHLDAMJ@DB_Force_Fire?$AA@		; `string'
PUBLIC	??_C@_0EJ@ENMBJFB@SList?$DMstruct?5MultiKeyHookScriptI@ ; `string'
PUBLIC	??_C@_0DB@DFBFLIIO@x?3?2github?2renegade?2dragonade_rxd@ ; `string'
PUBLIC	??_C@_1GC@LJHGOLFN@?$AAx?$AA?3?$AA?2?$AAg?$AAi?$AAt?$AAh?$AAu?$AAb?$AA?2?$AAr?$AAe?$AAn?$AAe?$AAg?$AAa?$AAd?$AAe?$AA?2?$AAd?$AAr?$AAa?$AAg?$AAo?$AAn?$AAa?$AAd?$AAe?$AA_?$AAr?$AAx?$AAd@ ; `string'
PUBLIC	??_C@_0EJ@OIGECPDF@SList?$DMstruct?5MultiKeyHookScriptI@ ; `string'
PUBLIC	??_C@_0EM@PPENJFKC@SList?$DMstruct?5MultiKeyHookScriptI@ ; `string'
PUBLIC	??_C@_0EH@CGJBMJBC@SList?$DMstruct?5MultiKeyHookScriptI@ ; `string'
PUBLIC	??_C@_0EL@MPFHHNNA@SList?$DMstruct?5MultiKeyHookScriptI@ ; `string'
PUBLIC	??_C@_0EO@OJGPEJGC@SList?$DMstruct?5MultiKeyHookScriptI@ ; `string'
PUBLIC	??_C@_0EN@HIHNAGN@SList?$DMstruct?5MultiKeyHookScriptI@ ; `string'
PUBLIC	??_C@_0EB@LALIFBBC@HashTemplateClass?$DMunsigned?5int?0u@ ; `string'
PUBLIC	??_C@_0DN@EECEFMJH@x?3?2github?2renegade?2dragonade_rxd@ ; `string'
PUBLIC	??_C@_1HK@JEBHJDL@?$AAx?$AA?3?$AA?2?$AAg?$AAi?$AAt?$AAh?$AAu?$AAb?$AA?2?$AAr?$AAe?$AAn?$AAe?$AAg?$AAa?$AAd?$AAe?$AA?2?$AAd?$AAr?$AAa?$AAg?$AAo?$AAn?$AAa?$AAd?$AAe?$AA_?$AAr?$AAx?$AAd@ ; `string'
PUBLIC	??_C@_0DM@OGPPIFMO@ScriptRegistrant?$DMclass?5DB_Shield@ ; `string'
PUBLIC	??_C@_0DD@KMKBFFOF@x?3?2github?2renegade?2dragonade_rxd@ ; `string'
PUBLIC	??_C@_1GG@OGNLNBPD@?$AAx?$AA?3?$AA?2?$AAg?$AAi?$AAt?$AAh?$AAu?$AAb?$AA?2?$AAr?$AAe?$AAn?$AAe?$AAg?$AAa?$AAd?$AAe?$AA?2?$AAd?$AAr?$AAa?$AAg?$AAo?$AAn?$AAa?$AAd?$AAe?$AA_?$AAr?$AAx?$AAd@ ; `string'
PUBLIC	??_C@_0DH@MGBHEAMI@ScriptRegistrant?$DMclass?5DB_Contro@ ; `string'
PUBLIC	??_C@_0CN@KPIOFDAK@ScriptRegistrant?$DMclass?5DB_Guard_@ ; `string'
PUBLIC	??_C@_0CP@OFMAINCJ@ScriptRegistrant?$DMclass?5DB_Suppor@ ; `string'
PUBLIC	??_C@_0DE@GIFEBANB@ScriptRegistrant?$DMclass?5dblaney_N@ ; `string'
PUBLIC	??_C@_0DO@FNOCENEM@ScriptRegistrant?$DMclass?5dblaney_N@ ; `string'
PUBLIC	??_C@_0DL@IMOOHPEI@ScriptRegistrant?$DMclass?5dblaney_N@ ; `string'
PUBLIC	??_C@_0DG@MFPDELPN@ScriptRegistrant?$DMclass?5DB_Power_@ ; `string'
PUBLIC	??_C@_0DP@FHLDAIHB@ScriptRegistrant?$DMclass?5DB_Power_@ ; `string'
PUBLIC	??_C@_0DO@BLNHCNNI@ScriptRegistrant?$DMclass?5DB_Disabl@ ; `string'
PUBLIC	??_C@_0CN@EGFKOALN@ScriptRegistrant?$DMclass?5DB_Set_Sc@ ; `string'
PUBLIC	??_C@_0DI@LJNBFAMH@ScriptRegistrant?$DMclass?5DB_Grant_@ ; `string'
PUBLIC	??_C@_0DH@MNOKNBM@ScriptRegistrant?$DMclass?5DB_Grant_@ ; `string'
PUBLIC	??_C@_0ED@PKKOGAOA@ScriptRegistrant?$DMclass?5DB_Infant@ ; `string'
PUBLIC	??_C@_0DG@EGMKDEBH@ScriptRegistrant?$DMclass?5DB_Statio@ ; `string'
PUBLIC	??_C@_0DA@JBLGDEPB@ScriptRegistrant?$DMclass?5DB_Turret@ ; `string'
PUBLIC	??_C@_0DA@KGDAPPMO@ScriptRegistrant?$DMclass?5DB_Turret@ ; `string'
PUBLIC	??_C@_0DI@HIIKFBKA@ScriptRegistrant?$DMclass?5DB_Spawne@ ; `string'
PUBLIC	??_C@_0DI@LLHIEGPO@ScriptRegistrant?$DMclass?5DB_Vehicl@ ; `string'
PUBLIC	??_C@_0CP@PJBEDNGJ@ScriptRegistrant?$DMclass?5DB_Orca_L@ ; `string'
PUBLIC	??_C@_0DK@DMNNFOMO@ScriptRegistrant?$DMclass?5DB_Turret@ ; `string'
PUBLIC	??_C@_0DJ@LCFKCDNP@ScriptRegistrant?$DMclass?5DB_Turret@ ; `string'
PUBLIC	??_C@_0DG@BFEOEMOH@ScriptRegistrant?$DMclass?5DB_Health@ ; `string'
PUBLIC	??_C@_0DF@DHOLBDGB@ScriptRegistrant?$DMclass?5DB_Visibl@ ; `string'
PUBLIC	??_C@_0DK@NJBGNDCI@ScriptRegistrant?$DMclass?5DB_Drop_W@ ; `string'
PUBLIC	??_C@_0DI@HDNKMLJH@ScriptRegistrant?$DMclass?5DB_Wrecka@ ; `string'
PUBLIC	??_C@_0DA@OHLGHHDG@ScriptRegistrant?$DMclass?5DB_Supply@ ; `string'
PUBLIC	??_C@_0EH@PHFAMPF@ScriptRegistrant?$DMclass?5DB_Damage@ ; `string'
PUBLIC	??_C@_0EI@GAAEKBLK@ScriptRegistrant?$DMclass?5DB_Damage@ ; `string'
PUBLIC	??_C@_0CP@MJNFPDHF@ScriptRegistrant?$DMclass?5DB_Set_PT@ ; `string'
PUBLIC	??_C@_0DF@PJLGHPM@ScriptRegistrant?$DMclass?5DB_Spawn_@ ; `string'
PUBLIC	??_C@_0DJ@HALBGDMC@ScriptRegistrant?$DMclass?5DB_Replac@ ; `string'
PUBLIC	??_C@_0CO@CBABHACK@ScriptRegistrant?$DMclass?5DB_Force_@ ; `string'
PUBLIC	?instancex@?1??getInstance@?$Singleton@V?$ObjectPoolClass@VGenericSLNode@@$0BAA@@@@@SAAAV?$ObjectPoolClass@VGenericSLNode@@$0BAA@@@XZ@4V3@A ; `Singleton<ObjectPoolClass<GenericSLNode,256> >::getInstance'::`2'::instancex
PUBLIC	??_B?1??getInstance@?$Singleton@V?$ObjectPoolClass@VGenericSLNode@@$0BAA@@@@@SAAAV?$ObjectPoolClass@VGenericSLNode@@$0BAA@@@XZ@51 ; `Singleton<ObjectPoolClass<GenericSLNode,256> >::getInstance'::`2'::`local static guard'
PUBLIC	??_C@_0EB@IOGKEECK@ObjectPoolClass?$DMclass?5GenericSLN@ ; `string'
PUBLIC	??_C@_0FF@NOANHENP@?$CFd?5memory?5leaks?5found?5in?5ObjectP@ ; `string'
PUBLIC	??_C@_0DL@BOENBDGI@ObjectPoolClass?$DMclass?5GenericSLN@ ; `string'
PUBLIC	?oh_dear@?7???R?$SafeDataClass@I@@QBEAAIXZ@4IA	; `SafeDataClass<unsigned int>::operator()'::`8'::oh_dear
PUBLIC	?oh_dear@?7???R?$SafeDataClass@H@@QBEAAHXZ@4HA	; `SafeDataClass<int>::operator()'::`8'::oh_dear
PUBLIC	??_R4ScriptFactory@@6B@				; ScriptFactory::`RTTI Complete Object Locator'
PUBLIC	??_R0?AVScriptFactory@@@8			; ScriptFactory `RTTI Type Descriptor'
PUBLIC	??_R3ScriptFactory@@8				; ScriptFactory::`RTTI Class Hierarchy Descriptor'
PUBLIC	??_R2ScriptFactory@@8				; ScriptFactory::`RTTI Base Class Array'
PUBLIC	??_R1A@?0A@EA@ScriptFactory@@8			; ScriptFactory::`RTTI Base Class Descriptor at (0,-1,0,64)'
PUBLIC	??_R4ScriptClass@@6B@				; ScriptClass::`RTTI Complete Object Locator'
PUBLIC	??_R0?AVScriptClass@@@8				; ScriptClass `RTTI Type Descriptor'
PUBLIC	??_R3ScriptClass@@8				; ScriptClass::`RTTI Class Hierarchy Descriptor'
PUBLIC	??_R2ScriptClass@@8				; ScriptClass::`RTTI Base Class Array'
PUBLIC	??_R1A@?0A@EA@ScriptClass@@8			; ScriptClass::`RTTI Base Class Descriptor at (0,-1,0,64)'
PUBLIC	??_R1A@?0A@EA@GameObjObserverClass@@8		; GameObjObserverClass::`RTTI Base Class Descriptor at (0,-1,0,64)'
PUBLIC	??_R0?AVGameObjObserverClass@@@8		; GameObjObserverClass `RTTI Type Descriptor'
PUBLIC	??_R3GameObjObserverClass@@8			; GameObjObserverClass::`RTTI Class Hierarchy Descriptor'
PUBLIC	??_R2GameObjObserverClass@@8			; GameObjObserverClass::`RTTI Base Class Array'
PUBLIC	??_R4GameObjObserverClass@@6B@			; GameObjObserverClass::`RTTI Complete Object Locator'
PUBLIC	??_R4ScriptImpClass@@6B@			; ScriptImpClass::`RTTI Complete Object Locator'
PUBLIC	??_R0?AVScriptImpClass@@@8			; ScriptImpClass `RTTI Type Descriptor'
PUBLIC	??_R3ScriptImpClass@@8				; ScriptImpClass::`RTTI Class Hierarchy Descriptor'
PUBLIC	??_R2ScriptImpClass@@8				; ScriptImpClass::`RTTI Base Class Array'
PUBLIC	??_R1A@?0A@EA@ScriptImpClass@@8			; ScriptImpClass::`RTTI Base Class Descriptor at (0,-1,0,64)'
PUBLIC	??_R4ThreadClass@@6B@				; ThreadClass::`RTTI Complete Object Locator'
PUBLIC	??_R0?AVThreadClass@@@8				; ThreadClass `RTTI Type Descriptor'
PUBLIC	??_R3ThreadClass@@8				; ThreadClass::`RTTI Class Hierarchy Descriptor'
PUBLIC	??_R2ThreadClass@@8				; ThreadClass::`RTTI Base Class Array'
PUBLIC	??_R1A@?0A@EA@ThreadClass@@8			; ThreadClass::`RTTI Base Class Descriptor at (0,-1,0,64)'
PUBLIC	??_R4INIClass@@6B@				; INIClass::`RTTI Complete Object Locator'
PUBLIC	??_R0?AVINIClass@@@8				; INIClass `RTTI Type Descriptor'
PUBLIC	??_R3INIClass@@8				; INIClass::`RTTI Class Hierarchy Descriptor'
PUBLIC	??_R2INIClass@@8				; INIClass::`RTTI Base Class Array'
PUBLIC	??_R1A@?0A@EA@INIClass@@8			; INIClass::`RTTI Base Class Descriptor at (0,-1,0,64)'
PUBLIC	??_R1A@?0A@EA@PostLoadableClass@@8		; PostLoadableClass::`RTTI Base Class Descriptor at (0,-1,0,64)'
PUBLIC	??_R0?AVPostLoadableClass@@@8			; PostLoadableClass `RTTI Type Descriptor'
PUBLIC	??_R3PostLoadableClass@@8			; PostLoadableClass::`RTTI Class Hierarchy Descriptor'
PUBLIC	??_R2PostLoadableClass@@8			; PostLoadableClass::`RTTI Base Class Array'
PUBLIC	??_R4PostLoadableClass@@6B@			; PostLoadableClass::`RTTI Complete Object Locator'
PUBLIC	??_R4ReferencerClass@@6B@			; ReferencerClass::`RTTI Complete Object Locator'
PUBLIC	??_R0?AVReferencerClass@@@8			; ReferencerClass `RTTI Type Descriptor'
PUBLIC	??_R3ReferencerClass@@8				; ReferencerClass::`RTTI Class Hierarchy Descriptor'
PUBLIC	??_R2ReferencerClass@@8				; ReferencerClass::`RTTI Base Class Array'
PUBLIC	??_R1A@?0A@EA@ReferencerClass@@8		; ReferencerClass::`RTTI Base Class Descriptor at (0,-1,0,64)'
PUBLIC	??_R4JFW_Key_Hook_Base@@6B@			; JFW_Key_Hook_Base::`RTTI Complete Object Locator'
PUBLIC	??_R0?AVJFW_Key_Hook_Base@@@8			; JFW_Key_Hook_Base `RTTI Type Descriptor'
PUBLIC	??_R3JFW_Key_Hook_Base@@8			; JFW_Key_Hook_Base::`RTTI Class Hierarchy Descriptor'
PUBLIC	??_R2JFW_Key_Hook_Base@@8			; JFW_Key_Hook_Base::`RTTI Base Class Array'
PUBLIC	??_R1A@?0A@EA@JFW_Key_Hook_Base@@8		; JFW_Key_Hook_Base::`RTTI Base Class Descriptor at (0,-1,0,64)'
PUBLIC	??_R4MultiKeyHookScriptImpClass@@6B@		; MultiKeyHookScriptImpClass::`RTTI Complete Object Locator'
PUBLIC	??_R0?AVMultiKeyHookScriptImpClass@@@8		; MultiKeyHookScriptImpClass `RTTI Type Descriptor'
PUBLIC	??_R3MultiKeyHookScriptImpClass@@8		; MultiKeyHookScriptImpClass::`RTTI Class Hierarchy Descriptor'
PUBLIC	??_R2MultiKeyHookScriptImpClass@@8		; MultiKeyHookScriptImpClass::`RTTI Base Class Array'
PUBLIC	??_R1A@?0A@EA@MultiKeyHookScriptImpClass@@8	; MultiKeyHookScriptImpClass::`RTTI Base Class Descriptor at (0,-1,0,64)'
PUBLIC	??_R4?$SList@UKeyHookWrapperStruct@MultiKeyHookScriptImpClass@@@@6B@ ; SList<MultiKeyHookScriptImpClass::KeyHookWrapperStruct>::`RTTI Complete Object Locator'
PUBLIC	??_R0?AV?$SList@UKeyHookWrapperStruct@MultiKeyHookScriptImpClass@@@@@8 ; SList<MultiKeyHookScriptImpClass::KeyHookWrapperStruct> `RTTI Type Descriptor'
PUBLIC	??_R3?$SList@UKeyHookWrapperStruct@MultiKeyHookScriptImpClass@@@@8 ; SList<MultiKeyHookScriptImpClass::KeyHookWrapperStruct>::`RTTI Class Hierarchy Descriptor'
PUBLIC	??_R2?$SList@UKeyHookWrapperStruct@MultiKeyHookScriptImpClass@@@@8 ; SList<MultiKeyHookScriptImpClass::KeyHookWrapperStruct>::`RTTI Base Class Array'
PUBLIC	??_R1A@?0A@EA@?$SList@UKeyHookWrapperStruct@MultiKeyHookScriptImpClass@@@@8 ; SList<MultiKeyHookScriptImpClass::KeyHookWrapperStruct>::`RTTI Base Class Descriptor at (0,-1,0,64)'
PUBLIC	??_R4JFW_Object_Created_Hook_Base@@6B@		; JFW_Object_Created_Hook_Base::`RTTI Complete Object Locator'
PUBLIC	??_R0?AVJFW_Object_Created_Hook_Base@@@8	; JFW_Object_Created_Hook_Base `RTTI Type Descriptor'
PUBLIC	??_R3JFW_Object_Created_Hook_Base@@8		; JFW_Object_Created_Hook_Base::`RTTI Class Hierarchy Descriptor'
PUBLIC	??_R2JFW_Object_Created_Hook_Base@@8		; JFW_Object_Created_Hook_Base::`RTTI Base Class Array'
PUBLIC	??_R1A@?0A@EA@JFW_Object_Created_Hook_Base@@8	; JFW_Object_Created_Hook_Base::`RTTI Base Class Descriptor at (0,-1,0,64)'
PUBLIC	??_R4DB_Shield_Generator_Vehicle@@6B@		; DB_Shield_Generator_Vehicle::`RTTI Complete Object Locator'
PUBLIC	??_R0?AVDB_Shield_Generator_Vehicle@@@8		; DB_Shield_Generator_Vehicle `RTTI Type Descriptor'
PUBLIC	??_R3DB_Shield_Generator_Vehicle@@8		; DB_Shield_Generator_Vehicle::`RTTI Class Hierarchy Descriptor'
PUBLIC	??_R2DB_Shield_Generator_Vehicle@@8		; DB_Shield_Generator_Vehicle::`RTTI Base Class Array'
PUBLIC	??_R1A@?0A@EA@DB_Shield_Generator_Vehicle@@8	; DB_Shield_Generator_Vehicle::`RTTI Base Class Descriptor at (0,-1,0,64)'
PUBLIC	??_R4DB_Controllable_Turret@@6B@		; DB_Controllable_Turret::`RTTI Complete Object Locator'
PUBLIC	??_R0?AVDB_Controllable_Turret@@@8		; DB_Controllable_Turret `RTTI Type Descriptor'
PUBLIC	??_R3DB_Controllable_Turret@@8			; DB_Controllable_Turret::`RTTI Class Hierarchy Descriptor'
PUBLIC	??_R2DB_Controllable_Turret@@8			; DB_Controllable_Turret::`RTTI Base Class Array'
PUBLIC	??_R1A@?0A@EA@DB_Controllable_Turret@@8		; DB_Controllable_Turret::`RTTI Base Class Descriptor at (0,-1,0,64)'
PUBLIC	??_R4DB_Guard_Bot@@6B@				; DB_Guard_Bot::`RTTI Complete Object Locator'
PUBLIC	??_R0?AVDB_Guard_Bot@@@8			; DB_Guard_Bot `RTTI Type Descriptor'
PUBLIC	??_R3DB_Guard_Bot@@8				; DB_Guard_Bot::`RTTI Class Hierarchy Descriptor'
PUBLIC	??_R2DB_Guard_Bot@@8				; DB_Guard_Bot::`RTTI Base Class Array'
PUBLIC	??_R1A@?0A@EA@DB_Guard_Bot@@8			; DB_Guard_Bot::`RTTI Base Class Descriptor at (0,-1,0,64)'
PUBLIC	??_R4DB_Support_Bot@@6B@			; DB_Support_Bot::`RTTI Complete Object Locator'
PUBLIC	??_R0?AVDB_Support_Bot@@@8			; DB_Support_Bot `RTTI Type Descriptor'
PUBLIC	??_R3DB_Support_Bot@@8				; DB_Support_Bot::`RTTI Class Hierarchy Descriptor'
PUBLIC	??_R2DB_Support_Bot@@8				; DB_Support_Bot::`RTTI Base Class Array'
PUBLIC	??_R1A@?0A@EA@DB_Support_Bot@@8			; DB_Support_Bot::`RTTI Base Class Descriptor at (0,-1,0,64)'
PUBLIC	??_R4dblaney_Nod_Obelisk@@6B@			; dblaney_Nod_Obelisk::`RTTI Complete Object Locator'
PUBLIC	??_R0?AVdblaney_Nod_Obelisk@@@8			; dblaney_Nod_Obelisk `RTTI Type Descriptor'
PUBLIC	??_R3dblaney_Nod_Obelisk@@8			; dblaney_Nod_Obelisk::`RTTI Class Hierarchy Descriptor'
PUBLIC	??_R2dblaney_Nod_Obelisk@@8			; dblaney_Nod_Obelisk::`RTTI Base Class Array'
PUBLIC	??_R1A@?0A@EA@dblaney_Nod_Obelisk@@8		; dblaney_Nod_Obelisk::`RTTI Base Class Descriptor at (0,-1,0,64)'
PUBLIC	??_R4dblaney_Nod_Obelisk_Structure@@6B@		; dblaney_Nod_Obelisk_Structure::`RTTI Complete Object Locator'
PUBLIC	??_R0?AVdblaney_Nod_Obelisk_Structure@@@8	; dblaney_Nod_Obelisk_Structure `RTTI Type Descriptor'
PUBLIC	??_R3dblaney_Nod_Obelisk_Structure@@8		; dblaney_Nod_Obelisk_Structure::`RTTI Class Hierarchy Descriptor'
PUBLIC	??_R2dblaney_Nod_Obelisk_Structure@@8		; dblaney_Nod_Obelisk_Structure::`RTTI Base Class Array'
PUBLIC	??_R1A@?0A@EA@dblaney_Nod_Obelisk_Structure@@8	; dblaney_Nod_Obelisk_Structure::`RTTI Base Class Descriptor at (0,-1,0,64)'
PUBLIC	??_R4dblaney_Nod_Obelisk_Weapon@@6B@		; dblaney_Nod_Obelisk_Weapon::`RTTI Complete Object Locator'
PUBLIC	??_R0?AVdblaney_Nod_Obelisk_Weapon@@@8		; dblaney_Nod_Obelisk_Weapon `RTTI Type Descriptor'
PUBLIC	??_R3dblaney_Nod_Obelisk_Weapon@@8		; dblaney_Nod_Obelisk_Weapon::`RTTI Class Hierarchy Descriptor'
PUBLIC	??_R2dblaney_Nod_Obelisk_Weapon@@8		; dblaney_Nod_Obelisk_Weapon::`RTTI Base Class Array'
PUBLIC	??_R1A@?0A@EA@dblaney_Nod_Obelisk_Weapon@@8	; dblaney_Nod_Obelisk_Weapon::`RTTI Base Class Descriptor at (0,-1,0,64)'
PUBLIC	??_R4DB_Power_Down_Console@@6B@			; DB_Power_Down_Console::`RTTI Complete Object Locator'
PUBLIC	??_R0?AVDB_Power_Down_Console@@@8		; DB_Power_Down_Console `RTTI Type Descriptor'
PUBLIC	??_R3DB_Power_Down_Console@@8			; DB_Power_Down_Console::`RTTI Class Hierarchy Descriptor'
PUBLIC	??_R2DB_Power_Down_Console@@8			; DB_Power_Down_Console::`RTTI Base Class Array'
PUBLIC	??_R1A@?0A@EA@DB_Power_Down_Console@@8		; DB_Power_Down_Console::`RTTI Base Class Descriptor at (0,-1,0,64)'
PUBLIC	??_R4DB_Power_Down_Building_Console@@6B@	; DB_Power_Down_Building_Console::`RTTI Complete Object Locator'
PUBLIC	??_R0?AVDB_Power_Down_Building_Console@@@8	; DB_Power_Down_Building_Console `RTTI Type Descriptor'
PUBLIC	??_R3DB_Power_Down_Building_Console@@8		; DB_Power_Down_Building_Console::`RTTI Class Hierarchy Descriptor'
PUBLIC	??_R2DB_Power_Down_Building_Console@@8		; DB_Power_Down_Building_Console::`RTTI Base Class Array'
PUBLIC	??_R1A@?0A@EA@DB_Power_Down_Building_Console@@8	; DB_Power_Down_Building_Console::`RTTI Base Class Descriptor at (0,-1,0,64)'
PUBLIC	??_R4DB_Disable_Injured_Animations@@6B@		; DB_Disable_Injured_Animations::`RTTI Complete Object Locator'
PUBLIC	??_R0?AVDB_Disable_Injured_Animations@@@8	; DB_Disable_Injured_Animations `RTTI Type Descriptor'
PUBLIC	??_R3DB_Disable_Injured_Animations@@8		; DB_Disable_Injured_Animations::`RTTI Class Hierarchy Descriptor'
PUBLIC	??_R2DB_Disable_Injured_Animations@@8		; DB_Disable_Injured_Animations::`RTTI Base Class Array'
PUBLIC	??_R1A@?0A@EA@DB_Disable_Injured_Animations@@8	; DB_Disable_Injured_Animations::`RTTI Base Class Descriptor at (0,-1,0,64)'
PUBLIC	??_R4DB_Set_Scale@@6B@				; DB_Set_Scale::`RTTI Complete Object Locator'
PUBLIC	??_R0?AVDB_Set_Scale@@@8			; DB_Set_Scale `RTTI Type Descriptor'
PUBLIC	??_R3DB_Set_Scale@@8				; DB_Set_Scale::`RTTI Class Hierarchy Descriptor'
PUBLIC	??_R2DB_Set_Scale@@8				; DB_Set_Scale::`RTTI Base Class Array'
PUBLIC	??_R1A@?0A@EA@DB_Set_Scale@@8			; DB_Set_Scale::`RTTI Base Class Descriptor at (0,-1,0,64)'
PUBLIC	??_R4DB_Grant_Keycard_Killed@@6B@		; DB_Grant_Keycard_Killed::`RTTI Complete Object Locator'
PUBLIC	??_R0?AVDB_Grant_Keycard_Killed@@@8		; DB_Grant_Keycard_Killed `RTTI Type Descriptor'
PUBLIC	??_R3DB_Grant_Keycard_Killed@@8			; DB_Grant_Keycard_Killed::`RTTI Class Hierarchy Descriptor'
PUBLIC	??_R2DB_Grant_Keycard_Killed@@8			; DB_Grant_Keycard_Killed::`RTTI Base Class Array'
PUBLIC	??_R1A@?0A@EA@DB_Grant_Keycard_Killed@@8	; DB_Grant_Keycard_Killed::`RTTI Base Class Descriptor at (0,-1,0,64)'
PUBLIC	??_R4DB_Grant_Keycard_Timer@@6B@		; DB_Grant_Keycard_Timer::`RTTI Complete Object Locator'
PUBLIC	??_R0?AVDB_Grant_Keycard_Timer@@@8		; DB_Grant_Keycard_Timer `RTTI Type Descriptor'
PUBLIC	??_R3DB_Grant_Keycard_Timer@@8			; DB_Grant_Keycard_Timer::`RTTI Class Hierarchy Descriptor'
PUBLIC	??_R2DB_Grant_Keycard_Timer@@8			; DB_Grant_Keycard_Timer::`RTTI Base Class Array'
PUBLIC	??_R1A@?0A@EA@DB_Grant_Keycard_Timer@@8		; DB_Grant_Keycard_Timer::`RTTI Base Class Descriptor at (0,-1,0,64)'
PUBLIC	??_R4DB_Infantry_Place_Buildable_Object@@6B@	; DB_Infantry_Place_Buildable_Object::`RTTI Complete Object Locator'
PUBLIC	??_R0?AVDB_Infantry_Place_Buildable_Object@@@8	; DB_Infantry_Place_Buildable_Object `RTTI Type Descriptor'
PUBLIC	??_R3DB_Infantry_Place_Buildable_Object@@8	; DB_Infantry_Place_Buildable_Object::`RTTI Class Hierarchy Descriptor'
PUBLIC	??_R2DB_Infantry_Place_Buildable_Object@@8	; DB_Infantry_Place_Buildable_Object::`RTTI Base Class Array'
PUBLIC	??_R1A@?0A@EA@DB_Infantry_Place_Buildable_Object@@8 ; DB_Infantry_Place_Buildable_Object::`RTTI Base Class Descriptor at (0,-1,0,64)'
PUBLIC	??_R4DB_Stationary_Stealth@@6B@			; DB_Stationary_Stealth::`RTTI Complete Object Locator'
PUBLIC	??_R0?AVDB_Stationary_Stealth@@@8		; DB_Stationary_Stealth `RTTI Type Descriptor'
PUBLIC	??_R3DB_Stationary_Stealth@@8			; DB_Stationary_Stealth::`RTTI Class Hierarchy Descriptor'
PUBLIC	??_R2DB_Stationary_Stealth@@8			; DB_Stationary_Stealth::`RTTI Base Class Array'
PUBLIC	??_R1A@?0A@EA@DB_Stationary_Stealth@@8		; DB_Stationary_Stealth::`RTTI Base Class Descriptor at (0,-1,0,64)'
PUBLIC	??_R4DB_Turret_Sound@@6B@			; DB_Turret_Sound::`RTTI Complete Object Locator'
PUBLIC	??_R0?AVDB_Turret_Sound@@@8			; DB_Turret_Sound `RTTI Type Descriptor'
PUBLIC	??_R3DB_Turret_Sound@@8				; DB_Turret_Sound::`RTTI Class Hierarchy Descriptor'
PUBLIC	??_R2DB_Turret_Sound@@8				; DB_Turret_Sound::`RTTI Base Class Array'
PUBLIC	??_R1A@?0A@EA@DB_Turret_Sound@@8		; DB_Turret_Sound::`RTTI Base Class Descriptor at (0,-1,0,64)'
PUBLIC	??_R4DB_Turret_Spawn@@6B@			; DB_Turret_Spawn::`RTTI Complete Object Locator'
PUBLIC	??_R0?AVDB_Turret_Spawn@@@8			; DB_Turret_Spawn `RTTI Type Descriptor'
PUBLIC	??_R3DB_Turret_Spawn@@8				; DB_Turret_Spawn::`RTTI Class Hierarchy Descriptor'
PUBLIC	??_R2DB_Turret_Spawn@@8				; DB_Turret_Spawn::`RTTI Base Class Array'
PUBLIC	??_R1A@?0A@EA@DB_Turret_Spawn@@8		; DB_Turret_Spawn::`RTTI Base Class Descriptor at (0,-1,0,64)'
PUBLIC	??_R4DB_Spawned_Visible_Ammo@@6B@		; DB_Spawned_Visible_Ammo::`RTTI Complete Object Locator'
PUBLIC	??_R0?AVDB_Spawned_Visible_Ammo@@@8		; DB_Spawned_Visible_Ammo `RTTI Type Descriptor'
PUBLIC	??_R3DB_Spawned_Visible_Ammo@@8			; DB_Spawned_Visible_Ammo::`RTTI Class Hierarchy Descriptor'
PUBLIC	??_R2DB_Spawned_Visible_Ammo@@8			; DB_Spawned_Visible_Ammo::`RTTI Base Class Array'
PUBLIC	??_R1A@?0A@EA@DB_Spawned_Visible_Ammo@@8	; DB_Spawned_Visible_Ammo::`RTTI Base Class Descriptor at (0,-1,0,64)'
PUBLIC	??_R4DB_Vehicle_Visible_Ammo@@6B@		; DB_Vehicle_Visible_Ammo::`RTTI Complete Object Locator'
PUBLIC	??_R0?AVDB_Vehicle_Visible_Ammo@@@8		; DB_Vehicle_Visible_Ammo `RTTI Type Descriptor'
PUBLIC	??_R3DB_Vehicle_Visible_Ammo@@8			; DB_Vehicle_Visible_Ammo::`RTTI Class Hierarchy Descriptor'
PUBLIC	??_R2DB_Vehicle_Visible_Ammo@@8			; DB_Vehicle_Visible_Ammo::`RTTI Base Class Array'
PUBLIC	??_R1A@?0A@EA@DB_Vehicle_Visible_Ammo@@8	; DB_Vehicle_Visible_Ammo::`RTTI Base Class Descriptor at (0,-1,0,64)'
PUBLIC	??_R4DB_Orca_Lifter@@6B@			; DB_Orca_Lifter::`RTTI Complete Object Locator'
PUBLIC	??_R0?AVDB_Orca_Lifter@@@8			; DB_Orca_Lifter `RTTI Type Descriptor'
PUBLIC	??_R3DB_Orca_Lifter@@8				; DB_Orca_Lifter::`RTTI Class Hierarchy Descriptor'
PUBLIC	??_R2DB_Orca_Lifter@@8				; DB_Orca_Lifter::`RTTI Base Class Array'
PUBLIC	??_R1A@?0A@EA@DB_Orca_Lifter@@8			; DB_Orca_Lifter::`RTTI Base Class Descriptor at (0,-1,0,64)'
PUBLIC	??_R4DB_Turret_Bombard_Ability@@6B@		; DB_Turret_Bombard_Ability::`RTTI Complete Object Locator'
PUBLIC	??_R0?AVDB_Turret_Bombard_Ability@@@8		; DB_Turret_Bombard_Ability `RTTI Type Descriptor'
PUBLIC	??_R3DB_Turret_Bombard_Ability@@8		; DB_Turret_Bombard_Ability::`RTTI Class Hierarchy Descriptor'
PUBLIC	??_R2DB_Turret_Bombard_Ability@@8		; DB_Turret_Bombard_Ability::`RTTI Base Class Array'
PUBLIC	??_R1A@?0A@EA@DB_Turret_Bombard_Ability@@8	; DB_Turret_Bombard_Ability::`RTTI Base Class Descriptor at (0,-1,0,64)'
PUBLIC	??_R4DB_Turret_Bombard_Player@@6B@		; DB_Turret_Bombard_Player::`RTTI Complete Object Locator'
PUBLIC	??_R0?AVDB_Turret_Bombard_Player@@@8		; DB_Turret_Bombard_Player `RTTI Type Descriptor'
PUBLIC	??_R3DB_Turret_Bombard_Player@@8		; DB_Turret_Bombard_Player::`RTTI Class Hierarchy Descriptor'
PUBLIC	??_R2DB_Turret_Bombard_Player@@8		; DB_Turret_Bombard_Player::`RTTI Base Class Array'
PUBLIC	??_R1A@?0A@EA@DB_Turret_Bombard_Player@@8	; DB_Turret_Bombard_Player::`RTTI Base Class Descriptor at (0,-1,0,64)'
PUBLIC	??_R4DB_Health_Sound_Timer@@6B@			; DB_Health_Sound_Timer::`RTTI Complete Object Locator'
PUBLIC	??_R0?AVDB_Health_Sound_Timer@@@8		; DB_Health_Sound_Timer `RTTI Type Descriptor'
PUBLIC	??_R3DB_Health_Sound_Timer@@8			; DB_Health_Sound_Timer::`RTTI Class Hierarchy Descriptor'
PUBLIC	??_R2DB_Health_Sound_Timer@@8			; DB_Health_Sound_Timer::`RTTI Base Class Array'
PUBLIC	??_R1A@?0A@EA@DB_Health_Sound_Timer@@8		; DB_Health_Sound_Timer::`RTTI Base Class Descriptor at (0,-1,0,64)'
PUBLIC	??_R4DB_Visible_Passenger@@6B@			; DB_Visible_Passenger::`RTTI Complete Object Locator'
PUBLIC	??_R0?AVDB_Visible_Passenger@@@8		; DB_Visible_Passenger `RTTI Type Descriptor'
PUBLIC	??_R3DB_Visible_Passenger@@8			; DB_Visible_Passenger::`RTTI Class Hierarchy Descriptor'
PUBLIC	??_R2DB_Visible_Passenger@@8			; DB_Visible_Passenger::`RTTI Base Class Array'
PUBLIC	??_R1A@?0A@EA@DB_Visible_Passenger@@8		; DB_Visible_Passenger::`RTTI Base Class Descriptor at (0,-1,0,64)'
PUBLIC	??_R4DB_Drop_Wreckage_On_Death@@6B@		; DB_Drop_Wreckage_On_Death::`RTTI Complete Object Locator'
PUBLIC	??_R0?AVDB_Drop_Wreckage_On_Death@@@8		; DB_Drop_Wreckage_On_Death `RTTI Type Descriptor'
PUBLIC	??_R3DB_Drop_Wreckage_On_Death@@8		; DB_Drop_Wreckage_On_Death::`RTTI Class Hierarchy Descriptor'
PUBLIC	??_R2DB_Drop_Wreckage_On_Death@@8		; DB_Drop_Wreckage_On_Death::`RTTI Base Class Array'
PUBLIC	??_R1A@?0A@EA@DB_Drop_Wreckage_On_Death@@8	; DB_Drop_Wreckage_On_Death::`RTTI Base Class Descriptor at (0,-1,0,64)'
PUBLIC	??_R4DB_Wreckage_Rebuildable@@6B@		; DB_Wreckage_Rebuildable::`RTTI Complete Object Locator'
PUBLIC	??_R0?AVDB_Wreckage_Rebuildable@@@8		; DB_Wreckage_Rebuildable `RTTI Type Descriptor'
PUBLIC	??_R3DB_Wreckage_Rebuildable@@8			; DB_Wreckage_Rebuildable::`RTTI Class Hierarchy Descriptor'
PUBLIC	??_R2DB_Wreckage_Rebuildable@@8			; DB_Wreckage_Rebuildable::`RTTI Base Class Array'
PUBLIC	??_R1A@?0A@EA@DB_Wreckage_Rebuildable@@8	; DB_Wreckage_Rebuildable::`RTTI Base Class Descriptor at (0,-1,0,64)'
PUBLIC	??_R4DB_Supply_Truck@@6B@			; DB_Supply_Truck::`RTTI Complete Object Locator'
PUBLIC	??_R0?AVDB_Supply_Truck@@@8			; DB_Supply_Truck `RTTI Type Descriptor'
PUBLIC	??_R3DB_Supply_Truck@@8				; DB_Supply_Truck::`RTTI Class Hierarchy Descriptor'
PUBLIC	??_R2DB_Supply_Truck@@8				; DB_Supply_Truck::`RTTI Base Class Array'
PUBLIC	??_R1A@?0A@EA@DB_Supply_Truck@@8		; DB_Supply_Truck::`RTTI Base Class Descriptor at (0,-1,0,64)'
PUBLIC	??_R4DB_Damage_Vehicle_Occupants_Area_Killed@@6B@ ; DB_Damage_Vehicle_Occupants_Area_Killed::`RTTI Complete Object Locator'
PUBLIC	??_R0?AVDB_Damage_Vehicle_Occupants_Area_Killed@@@8 ; DB_Damage_Vehicle_Occupants_Area_Killed `RTTI Type Descriptor'
PUBLIC	??_R3DB_Damage_Vehicle_Occupants_Area_Killed@@8	; DB_Damage_Vehicle_Occupants_Area_Killed::`RTTI Class Hierarchy Descriptor'
PUBLIC	??_R2DB_Damage_Vehicle_Occupants_Area_Killed@@8	; DB_Damage_Vehicle_Occupants_Area_Killed::`RTTI Base Class Array'
PUBLIC	??_R1A@?0A@EA@DB_Damage_Vehicle_Occupants_Area_Killed@@8 ; DB_Damage_Vehicle_Occupants_Area_Killed::`RTTI Base Class Descriptor at (0,-1,0,64)'
PUBLIC	??_R4DB_Damage_Vehicle_Occupants_Area_Timer@@6B@ ; DB_Damage_Vehicle_Occupants_Area_Timer::`RTTI Complete Object Locator'
PUBLIC	??_R0?AVDB_Damage_Vehicle_Occupants_Area_Timer@@@8 ; DB_Damage_Vehicle_Occupants_Area_Timer `RTTI Type Descriptor'
PUBLIC	??_R3DB_Damage_Vehicle_Occupants_Area_Timer@@8	; DB_Damage_Vehicle_Occupants_Area_Timer::`RTTI Class Hierarchy Descriptor'
PUBLIC	??_R2DB_Damage_Vehicle_Occupants_Area_Timer@@8	; DB_Damage_Vehicle_Occupants_Area_Timer::`RTTI Base Class Array'
PUBLIC	??_R1A@?0A@EA@DB_Damage_Vehicle_Occupants_Area_Timer@@8 ; DB_Damage_Vehicle_Occupants_Area_Timer::`RTTI Base Class Descriptor at (0,-1,0,64)'
PUBLIC	??_R4DB_Set_PT_Slot@@6B@			; DB_Set_PT_Slot::`RTTI Complete Object Locator'
PUBLIC	??_R0?AVDB_Set_PT_Slot@@@8			; DB_Set_PT_Slot `RTTI Type Descriptor'
PUBLIC	??_R3DB_Set_PT_Slot@@8				; DB_Set_PT_Slot::`RTTI Class Hierarchy Descriptor'
PUBLIC	??_R2DB_Set_PT_Slot@@8				; DB_Set_PT_Slot::`RTTI Base Class Array'
PUBLIC	??_R1A@?0A@EA@DB_Set_PT_Slot@@8			; DB_Set_PT_Slot::`RTTI Base Class Descriptor at (0,-1,0,64)'
PUBLIC	??_R4DB_Spawn_When_Killed@@6B@			; DB_Spawn_When_Killed::`RTTI Complete Object Locator'
PUBLIC	??_R0?AVDB_Spawn_When_Killed@@@8		; DB_Spawn_When_Killed `RTTI Type Descriptor'
PUBLIC	??_R3DB_Spawn_When_Killed@@8			; DB_Spawn_When_Killed::`RTTI Class Hierarchy Descriptor'
PUBLIC	??_R2DB_Spawn_When_Killed@@8			; DB_Spawn_When_Killed::`RTTI Base Class Array'
PUBLIC	??_R1A@?0A@EA@DB_Spawn_When_Killed@@8		; DB_Spawn_When_Killed::`RTTI Base Class Descriptor at (0,-1,0,64)'
PUBLIC	??_R4DB_Replace_When_Repaired@@6B@		; DB_Replace_When_Repaired::`RTTI Complete Object Locator'
PUBLIC	??_R0?AVDB_Replace_When_Repaired@@@8		; DB_Replace_When_Repaired `RTTI Type Descriptor'
PUBLIC	??_R3DB_Replace_When_Repaired@@8		; DB_Replace_When_Repaired::`RTTI Class Hierarchy Descriptor'
PUBLIC	??_R2DB_Replace_When_Repaired@@8		; DB_Replace_When_Repaired::`RTTI Base Class Array'
PUBLIC	??_R1A@?0A@EA@DB_Replace_When_Repaired@@8	; DB_Replace_When_Repaired::`RTTI Base Class Descriptor at (0,-1,0,64)'
PUBLIC	??_R4DB_Force_Fire@@6B@				; DB_Force_Fire::`RTTI Complete Object Locator'
PUBLIC	??_R0?AVDB_Force_Fire@@@8			; DB_Force_Fire `RTTI Type Descriptor'
PUBLIC	??_R3DB_Force_Fire@@8				; DB_Force_Fire::`RTTI Class Hierarchy Descriptor'
PUBLIC	??_R2DB_Force_Fire@@8				; DB_Force_Fire::`RTTI Base Class Array'
PUBLIC	??_R1A@?0A@EA@DB_Force_Fire@@8			; DB_Force_Fire::`RTTI Base Class Descriptor at (0,-1,0,64)'
PUBLIC	??_R4?$ScriptRegistrant@VDB_Shield_Generator_Vehicle@@@@6B@ ; ScriptRegistrant<DB_Shield_Generator_Vehicle>::`RTTI Complete Object Locator'
PUBLIC	??_R0?AV?$ScriptRegistrant@VDB_Shield_Generator_Vehicle@@@@@8 ; ScriptRegistrant<DB_Shield_Generator_Vehicle> `RTTI Type Descriptor'
PUBLIC	??_R3?$ScriptRegistrant@VDB_Shield_Generator_Vehicle@@@@8 ; ScriptRegistrant<DB_Shield_Generator_Vehicle>::`RTTI Class Hierarchy Descriptor'
PUBLIC	??_R2?$ScriptRegistrant@VDB_Shield_Generator_Vehicle@@@@8 ; ScriptRegistrant<DB_Shield_Generator_Vehicle>::`RTTI Base Class Array'
PUBLIC	??_R1A@?0A@EA@?$ScriptRegistrant@VDB_Shield_Generator_Vehicle@@@@8 ; ScriptRegistrant<DB_Shield_Generator_Vehicle>::`RTTI Base Class Descriptor at (0,-1,0,64)'
PUBLIC	??_R4?$ScriptRegistrant@VDB_Controllable_Turret@@@@6B@ ; ScriptRegistrant<DB_Controllable_Turret>::`RTTI Complete Object Locator'
PUBLIC	??_R0?AV?$ScriptRegistrant@VDB_Controllable_Turret@@@@@8 ; ScriptRegistrant<DB_Controllable_Turret> `RTTI Type Descriptor'
PUBLIC	??_R3?$ScriptRegistrant@VDB_Controllable_Turret@@@@8 ; ScriptRegistrant<DB_Controllable_Turret>::`RTTI Class Hierarchy Descriptor'
PUBLIC	??_R2?$ScriptRegistrant@VDB_Controllable_Turret@@@@8 ; ScriptRegistrant<DB_Controllable_Turret>::`RTTI Base Class Array'
PUBLIC	??_R1A@?0A@EA@?$ScriptRegistrant@VDB_Controllable_Turret@@@@8 ; ScriptRegistrant<DB_Controllable_Turret>::`RTTI Base Class Descriptor at (0,-1,0,64)'
PUBLIC	??_R4?$ScriptRegistrant@VDB_Guard_Bot@@@@6B@	; ScriptRegistrant<DB_Guard_Bot>::`RTTI Complete Object Locator'
PUBLIC	??_R0?AV?$ScriptRegistrant@VDB_Guard_Bot@@@@@8	; ScriptRegistrant<DB_Guard_Bot> `RTTI Type Descriptor'
PUBLIC	??_R3?$ScriptRegistrant@VDB_Guard_Bot@@@@8	; ScriptRegistrant<DB_Guard_Bot>::`RTTI Class Hierarchy Descriptor'
PUBLIC	??_R2?$ScriptRegistrant@VDB_Guard_Bot@@@@8	; ScriptRegistrant<DB_Guard_Bot>::`RTTI Base Class Array'
PUBLIC	??_R1A@?0A@EA@?$ScriptRegistrant@VDB_Guard_Bot@@@@8 ; ScriptRegistrant<DB_Guard_Bot>::`RTTI Base Class Descriptor at (0,-1,0,64)'
PUBLIC	??_R4?$ScriptRegistrant@VDB_Support_Bot@@@@6B@	; ScriptRegistrant<DB_Support_Bot>::`RTTI Complete Object Locator'
PUBLIC	??_R0?AV?$ScriptRegistrant@VDB_Support_Bot@@@@@8 ; ScriptRegistrant<DB_Support_Bot> `RTTI Type Descriptor'
PUBLIC	??_R3?$ScriptRegistrant@VDB_Support_Bot@@@@8	; ScriptRegistrant<DB_Support_Bot>::`RTTI Class Hierarchy Descriptor'
PUBLIC	??_R2?$ScriptRegistrant@VDB_Support_Bot@@@@8	; ScriptRegistrant<DB_Support_Bot>::`RTTI Base Class Array'
PUBLIC	??_R1A@?0A@EA@?$ScriptRegistrant@VDB_Support_Bot@@@@8 ; ScriptRegistrant<DB_Support_Bot>::`RTTI Base Class Descriptor at (0,-1,0,64)'
PUBLIC	??_R4?$ScriptRegistrant@Vdblaney_Nod_Obelisk@@@@6B@ ; ScriptRegistrant<dblaney_Nod_Obelisk>::`RTTI Complete Object Locator'
PUBLIC	??_R0?AV?$ScriptRegistrant@Vdblaney_Nod_Obelisk@@@@@8 ; ScriptRegistrant<dblaney_Nod_Obelisk> `RTTI Type Descriptor'
PUBLIC	??_R3?$ScriptRegistrant@Vdblaney_Nod_Obelisk@@@@8 ; ScriptRegistrant<dblaney_Nod_Obelisk>::`RTTI Class Hierarchy Descriptor'
PUBLIC	??_R2?$ScriptRegistrant@Vdblaney_Nod_Obelisk@@@@8 ; ScriptRegistrant<dblaney_Nod_Obelisk>::`RTTI Base Class Array'
PUBLIC	??_R1A@?0A@EA@?$ScriptRegistrant@Vdblaney_Nod_Obelisk@@@@8 ; ScriptRegistrant<dblaney_Nod_Obelisk>::`RTTI Base Class Descriptor at (0,-1,0,64)'
PUBLIC	??_R4?$ScriptRegistrant@Vdblaney_Nod_Obelisk_Structure@@@@6B@ ; ScriptRegistrant<dblaney_Nod_Obelisk_Structure>::`RTTI Complete Object Locator'
PUBLIC	??_R0?AV?$ScriptRegistrant@Vdblaney_Nod_Obelisk_Structure@@@@@8 ; ScriptRegistrant<dblaney_Nod_Obelisk_Structure> `RTTI Type Descriptor'
PUBLIC	??_R3?$ScriptRegistrant@Vdblaney_Nod_Obelisk_Structure@@@@8 ; ScriptRegistrant<dblaney_Nod_Obelisk_Structure>::`RTTI Class Hierarchy Descriptor'
PUBLIC	??_R2?$ScriptRegistrant@Vdblaney_Nod_Obelisk_Structure@@@@8 ; ScriptRegistrant<dblaney_Nod_Obelisk_Structure>::`RTTI Base Class Array'
PUBLIC	??_R1A@?0A@EA@?$ScriptRegistrant@Vdblaney_Nod_Obelisk_Structure@@@@8 ; ScriptRegistrant<dblaney_Nod_Obelisk_Structure>::`RTTI Base Class Descriptor at (0,-1,0,64)'
PUBLIC	??_R4?$ScriptRegistrant@Vdblaney_Nod_Obelisk_Weapon@@@@6B@ ; ScriptRegistrant<dblaney_Nod_Obelisk_Weapon>::`RTTI Complete Object Locator'
PUBLIC	??_R0?AV?$ScriptRegistrant@Vdblaney_Nod_Obelisk_Weapon@@@@@8 ; ScriptRegistrant<dblaney_Nod_Obelisk_Weapon> `RTTI Type Descriptor'
PUBLIC	??_R3?$ScriptRegistrant@Vdblaney_Nod_Obelisk_Weapon@@@@8 ; ScriptRegistrant<dblaney_Nod_Obelisk_Weapon>::`RTTI Class Hierarchy Descriptor'
PUBLIC	??_R2?$ScriptRegistrant@Vdblaney_Nod_Obelisk_Weapon@@@@8 ; ScriptRegistrant<dblaney_Nod_Obelisk_Weapon>::`RTTI Base Class Array'
PUBLIC	??_R1A@?0A@EA@?$ScriptRegistrant@Vdblaney_Nod_Obelisk_Weapon@@@@8 ; ScriptRegistrant<dblaney_Nod_Obelisk_Weapon>::`RTTI Base Class Descriptor at (0,-1,0,64)'
PUBLIC	??_R4?$ScriptRegistrant@VDB_Power_Down_Console@@@@6B@ ; ScriptRegistrant<DB_Power_Down_Console>::`RTTI Complete Object Locator'
PUBLIC	??_R0?AV?$ScriptRegistrant@VDB_Power_Down_Console@@@@@8 ; ScriptRegistrant<DB_Power_Down_Console> `RTTI Type Descriptor'
PUBLIC	??_R3?$ScriptRegistrant@VDB_Power_Down_Console@@@@8 ; ScriptRegistrant<DB_Power_Down_Console>::`RTTI Class Hierarchy Descriptor'
PUBLIC	??_R2?$ScriptRegistrant@VDB_Power_Down_Console@@@@8 ; ScriptRegistrant<DB_Power_Down_Console>::`RTTI Base Class Array'
PUBLIC	??_R1A@?0A@EA@?$ScriptRegistrant@VDB_Power_Down_Console@@@@8 ; ScriptRegistrant<DB_Power_Down_Console>::`RTTI Base Class Descriptor at (0,-1,0,64)'
PUBLIC	??_R4?$ScriptRegistrant@VDB_Power_Down_Building_Console@@@@6B@ ; ScriptRegistrant<DB_Power_Down_Building_Console>::`RTTI Complete Object Locator'
PUBLIC	??_R0?AV?$ScriptRegistrant@VDB_Power_Down_Building_Console@@@@@8 ; ScriptRegistrant<DB_Power_Down_Building_Console> `RTTI Type Descriptor'
PUBLIC	??_R3?$ScriptRegistrant@VDB_Power_Down_Building_Console@@@@8 ; ScriptRegistrant<DB_Power_Down_Building_Console>::`RTTI Class Hierarchy Descriptor'
PUBLIC	??_R2?$ScriptRegistrant@VDB_Power_Down_Building_Console@@@@8 ; ScriptRegistrant<DB_Power_Down_Building_Console>::`RTTI Base Class Array'
PUBLIC	??_R1A@?0A@EA@?$ScriptRegistrant@VDB_Power_Down_Building_Console@@@@8 ; ScriptRegistrant<DB_Power_Down_Building_Console>::`RTTI Base Class Descriptor at (0,-1,0,64)'
PUBLIC	??_R4?$ScriptRegistrant@VDB_Disable_Injured_Animations@@@@6B@ ; ScriptRegistrant<DB_Disable_Injured_Animations>::`RTTI Complete Object Locator'
PUBLIC	??_R0?AV?$ScriptRegistrant@VDB_Disable_Injured_Animations@@@@@8 ; ScriptRegistrant<DB_Disable_Injured_Animations> `RTTI Type Descriptor'
PUBLIC	??_R3?$ScriptRegistrant@VDB_Disable_Injured_Animations@@@@8 ; ScriptRegistrant<DB_Disable_Injured_Animations>::`RTTI Class Hierarchy Descriptor'
PUBLIC	??_R2?$ScriptRegistrant@VDB_Disable_Injured_Animations@@@@8 ; ScriptRegistrant<DB_Disable_Injured_Animations>::`RTTI Base Class Array'
PUBLIC	??_R1A@?0A@EA@?$ScriptRegistrant@VDB_Disable_Injured_Animations@@@@8 ; ScriptRegistrant<DB_Disable_Injured_Animations>::`RTTI Base Class Descriptor at (0,-1,0,64)'
PUBLIC	??_R4?$ScriptRegistrant@VDB_Set_Scale@@@@6B@	; ScriptRegistrant<DB_Set_Scale>::`RTTI Complete Object Locator'
PUBLIC	??_R0?AV?$ScriptRegistrant@VDB_Set_Scale@@@@@8	; ScriptRegistrant<DB_Set_Scale> `RTTI Type Descriptor'
PUBLIC	??_R3?$ScriptRegistrant@VDB_Set_Scale@@@@8	; ScriptRegistrant<DB_Set_Scale>::`RTTI Class Hierarchy Descriptor'
PUBLIC	??_R2?$ScriptRegistrant@VDB_Set_Scale@@@@8	; ScriptRegistrant<DB_Set_Scale>::`RTTI Base Class Array'
PUBLIC	??_R1A@?0A@EA@?$ScriptRegistrant@VDB_Set_Scale@@@@8 ; ScriptRegistrant<DB_Set_Scale>::`RTTI Base Class Descriptor at (0,-1,0,64)'
PUBLIC	??_R4?$ScriptRegistrant@VDB_Grant_Keycard_Killed@@@@6B@ ; ScriptRegistrant<DB_Grant_Keycard_Killed>::`RTTI Complete Object Locator'
PUBLIC	??_R0?AV?$ScriptRegistrant@VDB_Grant_Keycard_Killed@@@@@8 ; ScriptRegistrant<DB_Grant_Keycard_Killed> `RTTI Type Descriptor'
PUBLIC	??_R3?$ScriptRegistrant@VDB_Grant_Keycard_Killed@@@@8 ; ScriptRegistrant<DB_Grant_Keycard_Killed>::`RTTI Class Hierarchy Descriptor'
PUBLIC	??_R2?$ScriptRegistrant@VDB_Grant_Keycard_Killed@@@@8 ; ScriptRegistrant<DB_Grant_Keycard_Killed>::`RTTI Base Class Array'
PUBLIC	??_R1A@?0A@EA@?$ScriptRegistrant@VDB_Grant_Keycard_Killed@@@@8 ; ScriptRegistrant<DB_Grant_Keycard_Killed>::`RTTI Base Class Descriptor at (0,-1,0,64)'
PUBLIC	??_R4?$ScriptRegistrant@VDB_Grant_Keycard_Timer@@@@6B@ ; ScriptRegistrant<DB_Grant_Keycard_Timer>::`RTTI Complete Object Locator'
PUBLIC	??_R0?AV?$ScriptRegistrant@VDB_Grant_Keycard_Timer@@@@@8 ; ScriptRegistrant<DB_Grant_Keycard_Timer> `RTTI Type Descriptor'
PUBLIC	??_R3?$ScriptRegistrant@VDB_Grant_Keycard_Timer@@@@8 ; ScriptRegistrant<DB_Grant_Keycard_Timer>::`RTTI Class Hierarchy Descriptor'
PUBLIC	??_R2?$ScriptRegistrant@VDB_Grant_Keycard_Timer@@@@8 ; ScriptRegistrant<DB_Grant_Keycard_Timer>::`RTTI Base Class Array'
PUBLIC	??_R1A@?0A@EA@?$ScriptRegistrant@VDB_Grant_Keycard_Timer@@@@8 ; ScriptRegistrant<DB_Grant_Keycard_Timer>::`RTTI Base Class Descriptor at (0,-1,0,64)'
PUBLIC	??_R4?$ScriptRegistrant@VDB_Infantry_Place_Buildable_Object@@@@6B@ ; ScriptRegistrant<DB_Infantry_Place_Buildable_Object>::`RTTI Complete Object Locator'
PUBLIC	??_R0?AV?$ScriptRegistrant@VDB_Infantry_Place_Buildable_Object@@@@@8 ; ScriptRegistrant<DB_Infantry_Place_Buildable_Object> `RTTI Type Descriptor'
PUBLIC	??_R3?$ScriptRegistrant@VDB_Infantry_Place_Buildable_Object@@@@8 ; ScriptRegistrant<DB_Infantry_Place_Buildable_Object>::`RTTI Class Hierarchy Descriptor'
PUBLIC	??_R2?$ScriptRegistrant@VDB_Infantry_Place_Buildable_Object@@@@8 ; ScriptRegistrant<DB_Infantry_Place_Buildable_Object>::`RTTI Base Class Array'
PUBLIC	??_R1A@?0A@EA@?$ScriptRegistrant@VDB_Infantry_Place_Buildable_Object@@@@8 ; ScriptRegistrant<DB_Infantry_Place_Buildable_Object>::`RTTI Base Class Descriptor at (0,-1,0,64)'
PUBLIC	??_R4?$ScriptRegistrant@VDB_Stationary_Stealth@@@@6B@ ; ScriptRegistrant<DB_Stationary_Stealth>::`RTTI Complete Object Locator'
PUBLIC	??_R0?AV?$ScriptRegistrant@VDB_Stationary_Stealth@@@@@8 ; ScriptRegistrant<DB_Stationary_Stealth> `RTTI Type Descriptor'
PUBLIC	??_R3?$ScriptRegistrant@VDB_Stationary_Stealth@@@@8 ; ScriptRegistrant<DB_Stationary_Stealth>::`RTTI Class Hierarchy Descriptor'
PUBLIC	??_R2?$ScriptRegistrant@VDB_Stationary_Stealth@@@@8 ; ScriptRegistrant<DB_Stationary_Stealth>::`RTTI Base Class Array'
PUBLIC	??_R1A@?0A@EA@?$ScriptRegistrant@VDB_Stationary_Stealth@@@@8 ; ScriptRegistrant<DB_Stationary_Stealth>::`RTTI Base Class Descriptor at (0,-1,0,64)'
PUBLIC	??_R4?$ScriptRegistrant@VDB_Turret_Sound@@@@6B@	; ScriptRegistrant<DB_Turret_Sound>::`RTTI Complete Object Locator'
PUBLIC	??_R0?AV?$ScriptRegistrant@VDB_Turret_Sound@@@@@8 ; ScriptRegistrant<DB_Turret_Sound> `RTTI Type Descriptor'
PUBLIC	??_R3?$ScriptRegistrant@VDB_Turret_Sound@@@@8	; ScriptRegistrant<DB_Turret_Sound>::`RTTI Class Hierarchy Descriptor'
PUBLIC	??_R2?$ScriptRegistrant@VDB_Turret_Sound@@@@8	; ScriptRegistrant<DB_Turret_Sound>::`RTTI Base Class Array'
PUBLIC	??_R1A@?0A@EA@?$ScriptRegistrant@VDB_Turret_Sound@@@@8 ; ScriptRegistrant<DB_Turret_Sound>::`RTTI Base Class Descriptor at (0,-1,0,64)'
PUBLIC	??_R4?$ScriptRegistrant@VDB_Turret_Spawn@@@@6B@	; ScriptRegistrant<DB_Turret_Spawn>::`RTTI Complete Object Locator'
PUBLIC	??_R0?AV?$ScriptRegistrant@VDB_Turret_Spawn@@@@@8 ; ScriptRegistrant<DB_Turret_Spawn> `RTTI Type Descriptor'
PUBLIC	??_R3?$ScriptRegistrant@VDB_Turret_Spawn@@@@8	; ScriptRegistrant<DB_Turret_Spawn>::`RTTI Class Hierarchy Descriptor'
PUBLIC	??_R2?$ScriptRegistrant@VDB_Turret_Spawn@@@@8	; ScriptRegistrant<DB_Turret_Spawn>::`RTTI Base Class Array'
PUBLIC	??_R1A@?0A@EA@?$ScriptRegistrant@VDB_Turret_Spawn@@@@8 ; ScriptRegistrant<DB_Turret_Spawn>::`RTTI Base Class Descriptor at (0,-1,0,64)'
PUBLIC	??_R4?$ScriptRegistrant@VDB_Spawned_Visible_Ammo@@@@6B@ ; ScriptRegistrant<DB_Spawned_Visible_Ammo>::`RTTI Complete Object Locator'
PUBLIC	??_R0?AV?$ScriptRegistrant@VDB_Spawned_Visible_Ammo@@@@@8 ; ScriptRegistrant<DB_Spawned_Visible_Ammo> `RTTI Type Descriptor'
PUBLIC	??_R3?$ScriptRegistrant@VDB_Spawned_Visible_Ammo@@@@8 ; ScriptRegistrant<DB_Spawned_Visible_Ammo>::`RTTI Class Hierarchy Descriptor'
PUBLIC	??_R2?$ScriptRegistrant@VDB_Spawned_Visible_Ammo@@@@8 ; ScriptRegistrant<DB_Spawned_Visible_Ammo>::`RTTI Base Class Array'
PUBLIC	??_R1A@?0A@EA@?$ScriptRegistrant@VDB_Spawned_Visible_Ammo@@@@8 ; ScriptRegistrant<DB_Spawned_Visible_Ammo>::`RTTI Base Class Descriptor at (0,-1,0,64)'
PUBLIC	??_R4?$ScriptRegistrant@VDB_Vehicle_Visible_Ammo@@@@6B@ ; ScriptRegistrant<DB_Vehicle_Visible_Ammo>::`RTTI Complete Object Locator'
PUBLIC	??_R0?AV?$ScriptRegistrant@VDB_Vehicle_Visible_Ammo@@@@@8 ; ScriptRegistrant<DB_Vehicle_Visible_Ammo> `RTTI Type Descriptor'
PUBLIC	??_R3?$ScriptRegistrant@VDB_Vehicle_Visible_Ammo@@@@8 ; ScriptRegistrant<DB_Vehicle_Visible_Ammo>::`RTTI Class Hierarchy Descriptor'
PUBLIC	??_R2?$ScriptRegistrant@VDB_Vehicle_Visible_Ammo@@@@8 ; ScriptRegistrant<DB_Vehicle_Visible_Ammo>::`RTTI Base Class Array'
PUBLIC	??_R1A@?0A@EA@?$ScriptRegistrant@VDB_Vehicle_Visible_Ammo@@@@8 ; ScriptRegistrant<DB_Vehicle_Visible_Ammo>::`RTTI Base Class Descriptor at (0,-1,0,64)'
PUBLIC	??_R4?$ScriptRegistrant@VDB_Orca_Lifter@@@@6B@	; ScriptRegistrant<DB_Orca_Lifter>::`RTTI Complete Object Locator'
PUBLIC	??_R0?AV?$ScriptRegistrant@VDB_Orca_Lifter@@@@@8 ; ScriptRegistrant<DB_Orca_Lifter> `RTTI Type Descriptor'
PUBLIC	??_R3?$ScriptRegistrant@VDB_Orca_Lifter@@@@8	; ScriptRegistrant<DB_Orca_Lifter>::`RTTI Class Hierarchy Descriptor'
PUBLIC	??_R2?$ScriptRegistrant@VDB_Orca_Lifter@@@@8	; ScriptRegistrant<DB_Orca_Lifter>::`RTTI Base Class Array'
PUBLIC	??_R1A@?0A@EA@?$ScriptRegistrant@VDB_Orca_Lifter@@@@8 ; ScriptRegistrant<DB_Orca_Lifter>::`RTTI Base Class Descriptor at (0,-1,0,64)'
PUBLIC	??_R4?$ScriptRegistrant@VDB_Turret_Bombard_Ability@@@@6B@ ; ScriptRegistrant<DB_Turret_Bombard_Ability>::`RTTI Complete Object Locator'
PUBLIC	??_R0?AV?$ScriptRegistrant@VDB_Turret_Bombard_Ability@@@@@8 ; ScriptRegistrant<DB_Turret_Bombard_Ability> `RTTI Type Descriptor'
PUBLIC	??_R3?$ScriptRegistrant@VDB_Turret_Bombard_Ability@@@@8 ; ScriptRegistrant<DB_Turret_Bombard_Ability>::`RTTI Class Hierarchy Descriptor'
PUBLIC	??_R2?$ScriptRegistrant@VDB_Turret_Bombard_Ability@@@@8 ; ScriptRegistrant<DB_Turret_Bombard_Ability>::`RTTI Base Class Array'
PUBLIC	??_R1A@?0A@EA@?$ScriptRegistrant@VDB_Turret_Bombard_Ability@@@@8 ; ScriptRegistrant<DB_Turret_Bombard_Ability>::`RTTI Base Class Descriptor at (0,-1,0,64)'
PUBLIC	??_R4?$ScriptRegistrant@VDB_Turret_Bombard_Player@@@@6B@ ; ScriptRegistrant<DB_Turret_Bombard_Player>::`RTTI Complete Object Locator'
PUBLIC	??_R0?AV?$ScriptRegistrant@VDB_Turret_Bombard_Player@@@@@8 ; ScriptRegistrant<DB_Turret_Bombard_Player> `RTTI Type Descriptor'
PUBLIC	??_R3?$ScriptRegistrant@VDB_Turret_Bombard_Player@@@@8 ; ScriptRegistrant<DB_Turret_Bombard_Player>::`RTTI Class Hierarchy Descriptor'
PUBLIC	??_R2?$ScriptRegistrant@VDB_Turret_Bombard_Player@@@@8 ; ScriptRegistrant<DB_Turret_Bombard_Player>::`RTTI Base Class Array'
PUBLIC	??_R1A@?0A@EA@?$ScriptRegistrant@VDB_Turret_Bombard_Player@@@@8 ; ScriptRegistrant<DB_Turret_Bombard_Player>::`RTTI Base Class Descriptor at (0,-1,0,64)'
PUBLIC	??_R4?$ScriptRegistrant@VDB_Health_Sound_Timer@@@@6B@ ; ScriptRegistrant<DB_Health_Sound_Timer>::`RTTI Complete Object Locator'
PUBLIC	??_R0?AV?$ScriptRegistrant@VDB_Health_Sound_Timer@@@@@8 ; ScriptRegistrant<DB_Health_Sound_Timer> `RTTI Type Descriptor'
PUBLIC	??_R3?$ScriptRegistrant@VDB_Health_Sound_Timer@@@@8 ; ScriptRegistrant<DB_Health_Sound_Timer>::`RTTI Class Hierarchy Descriptor'
PUBLIC	??_R2?$ScriptRegistrant@VDB_Health_Sound_Timer@@@@8 ; ScriptRegistrant<DB_Health_Sound_Timer>::`RTTI Base Class Array'
PUBLIC	??_R1A@?0A@EA@?$ScriptRegistrant@VDB_Health_Sound_Timer@@@@8 ; ScriptRegistrant<DB_Health_Sound_Timer>::`RTTI Base Class Descriptor at (0,-1,0,64)'
PUBLIC	??_R4?$ScriptRegistrant@VDB_Visible_Passenger@@@@6B@ ; ScriptRegistrant<DB_Visible_Passenger>::`RTTI Complete Object Locator'
PUBLIC	??_R0?AV?$ScriptRegistrant@VDB_Visible_Passenger@@@@@8 ; ScriptRegistrant<DB_Visible_Passenger> `RTTI Type Descriptor'
PUBLIC	??_R3?$ScriptRegistrant@VDB_Visible_Passenger@@@@8 ; ScriptRegistrant<DB_Visible_Passenger>::`RTTI Class Hierarchy Descriptor'
PUBLIC	??_R2?$ScriptRegistrant@VDB_Visible_Passenger@@@@8 ; ScriptRegistrant<DB_Visible_Passenger>::`RTTI Base Class Array'
PUBLIC	??_R1A@?0A@EA@?$ScriptRegistrant@VDB_Visible_Passenger@@@@8 ; ScriptRegistrant<DB_Visible_Passenger>::`RTTI Base Class Descriptor at (0,-1,0,64)'
PUBLIC	??_R4?$ScriptRegistrant@VDB_Drop_Wreckage_On_Death@@@@6B@ ; ScriptRegistrant<DB_Drop_Wreckage_On_Death>::`RTTI Complete Object Locator'
PUBLIC	??_R0?AV?$ScriptRegistrant@VDB_Drop_Wreckage_On_Death@@@@@8 ; ScriptRegistrant<DB_Drop_Wreckage_On_Death> `RTTI Type Descriptor'
PUBLIC	??_R3?$ScriptRegistrant@VDB_Drop_Wreckage_On_Death@@@@8 ; ScriptRegistrant<DB_Drop_Wreckage_On_Death>::`RTTI Class Hierarchy Descriptor'
PUBLIC	??_R2?$ScriptRegistrant@VDB_Drop_Wreckage_On_Death@@@@8 ; ScriptRegistrant<DB_Drop_Wreckage_On_Death>::`RTTI Base Class Array'
PUBLIC	??_R1A@?0A@EA@?$ScriptRegistrant@VDB_Drop_Wreckage_On_Death@@@@8 ; ScriptRegistrant<DB_Drop_Wreckage_On_Death>::`RTTI Base Class Descriptor at (0,-1,0,64)'
PUBLIC	??_R4?$ScriptRegistrant@VDB_Wreckage_Rebuildable@@@@6B@ ; ScriptRegistrant<DB_Wreckage_Rebuildable>::`RTTI Complete Object Locator'
PUBLIC	??_R0?AV?$ScriptRegistrant@VDB_Wreckage_Rebuildable@@@@@8 ; ScriptRegistrant<DB_Wreckage_Rebuildable> `RTTI Type Descriptor'
PUBLIC	??_R3?$ScriptRegistrant@VDB_Wreckage_Rebuildable@@@@8 ; ScriptRegistrant<DB_Wreckage_Rebuildable>::`RTTI Class Hierarchy Descriptor'
PUBLIC	??_R2?$ScriptRegistrant@VDB_Wreckage_Rebuildable@@@@8 ; ScriptRegistrant<DB_Wreckage_Rebuildable>::`RTTI Base Class Array'
PUBLIC	??_R1A@?0A@EA@?$ScriptRegistrant@VDB_Wreckage_Rebuildable@@@@8 ; ScriptRegistrant<DB_Wreckage_Rebuildable>::`RTTI Base Class Descriptor at (0,-1,0,64)'
PUBLIC	??_R4?$ScriptRegistrant@VDB_Supply_Truck@@@@6B@	; ScriptRegistrant<DB_Supply_Truck>::`RTTI Complete Object Locator'
PUBLIC	??_R0?AV?$ScriptRegistrant@VDB_Supply_Truck@@@@@8 ; ScriptRegistrant<DB_Supply_Truck> `RTTI Type Descriptor'
PUBLIC	??_R3?$ScriptRegistrant@VDB_Supply_Truck@@@@8	; ScriptRegistrant<DB_Supply_Truck>::`RTTI Class Hierarchy Descriptor'
PUBLIC	??_R2?$ScriptRegistrant@VDB_Supply_Truck@@@@8	; ScriptRegistrant<DB_Supply_Truck>::`RTTI Base Class Array'
PUBLIC	??_R1A@?0A@EA@?$ScriptRegistrant@VDB_Supply_Truck@@@@8 ; ScriptRegistrant<DB_Supply_Truck>::`RTTI Base Class Descriptor at (0,-1,0,64)'
PUBLIC	??_R4?$ScriptRegistrant@VDB_Damage_Vehicle_Occupants_Area_Timer@@@@6B@ ; ScriptRegistrant<DB_Damage_Vehicle_Occupants_Area_Timer>::`RTTI Complete Object Locator'
PUBLIC	??_R0?AV?$ScriptRegistrant@VDB_Damage_Vehicle_Occupants_Area_Timer@@@@@8 ; ScriptRegistrant<DB_Damage_Vehicle_Occupants_Area_Timer> `RTTI Type Descriptor'
PUBLIC	??_R3?$ScriptRegistrant@VDB_Damage_Vehicle_Occupants_Area_Timer@@@@8 ; ScriptRegistrant<DB_Damage_Vehicle_Occupants_Area_Timer>::`RTTI Class Hierarchy Descriptor'
PUBLIC	??_R2?$ScriptRegistrant@VDB_Damage_Vehicle_Occupants_Area_Timer@@@@8 ; ScriptRegistrant<DB_Damage_Vehicle_Occupants_Area_Timer>::`RTTI Base Class Array'
PUBLIC	??_R1A@?0A@EA@?$ScriptRegistrant@VDB_Damage_Vehicle_Occupants_Area_Timer@@@@8 ; ScriptRegistrant<DB_Damage_Vehicle_Occupants_Area_Timer>::`RTTI Base Class Descriptor at (0,-1,0,64)'
PUBLIC	??_R4?$ScriptRegistrant@VDB_Damage_Vehicle_Occupants_Area_Killed@@@@6B@ ; ScriptRegistrant<DB_Damage_Vehicle_Occupants_Area_Killed>::`RTTI Complete Object Locator'
PUBLIC	??_R0?AV?$ScriptRegistrant@VDB_Damage_Vehicle_Occupants_Area_Killed@@@@@8 ; ScriptRegistrant<DB_Damage_Vehicle_Occupants_Area_Killed> `RTTI Type Descriptor'
PUBLIC	??_R3?$ScriptRegistrant@VDB_Damage_Vehicle_Occupants_Area_Killed@@@@8 ; ScriptRegistrant<DB_Damage_Vehicle_Occupants_Area_Killed>::`RTTI Class Hierarchy Descriptor'
PUBLIC	??_R2?$ScriptRegistrant@VDB_Damage_Vehicle_Occupants_Area_Killed@@@@8 ; ScriptRegistrant<DB_Damage_Vehicle_Occupants_Area_Killed>::`RTTI Base Class Array'
PUBLIC	??_R1A@?0A@EA@?$ScriptRegistrant@VDB_Damage_Vehicle_Occupants_Area_Killed@@@@8 ; ScriptRegistrant<DB_Damage_Vehicle_Occupants_Area_Killed>::`RTTI Base Class Descriptor at (0,-1,0,64)'
PUBLIC	??_R4?$ScriptRegistrant@VDB_Set_PT_Slot@@@@6B@	; ScriptRegistrant<DB_Set_PT_Slot>::`RTTI Complete Object Locator'
PUBLIC	??_R0?AV?$ScriptRegistrant@VDB_Set_PT_Slot@@@@@8 ; ScriptRegistrant<DB_Set_PT_Slot> `RTTI Type Descriptor'
PUBLIC	??_R3?$ScriptRegistrant@VDB_Set_PT_Slot@@@@8	; ScriptRegistrant<DB_Set_PT_Slot>::`RTTI Class Hierarchy Descriptor'
PUBLIC	??_R2?$ScriptRegistrant@VDB_Set_PT_Slot@@@@8	; ScriptRegistrant<DB_Set_PT_Slot>::`RTTI Base Class Array'
PUBLIC	??_R1A@?0A@EA@?$ScriptRegistrant@VDB_Set_PT_Slot@@@@8 ; ScriptRegistrant<DB_Set_PT_Slot>::`RTTI Base Class Descriptor at (0,-1,0,64)'
PUBLIC	??_R4?$ScriptRegistrant@VDB_Spawn_When_Killed@@@@6B@ ; ScriptRegistrant<DB_Spawn_When_Killed>::`RTTI Complete Object Locator'
PUBLIC	??_R0?AV?$ScriptRegistrant@VDB_Spawn_When_Killed@@@@@8 ; ScriptRegistrant<DB_Spawn_When_Killed> `RTTI Type Descriptor'
PUBLIC	??_R3?$ScriptRegistrant@VDB_Spawn_When_Killed@@@@8 ; ScriptRegistrant<DB_Spawn_When_Killed>::`RTTI Class Hierarchy Descriptor'
PUBLIC	??_R2?$ScriptRegistrant@VDB_Spawn_When_Killed@@@@8 ; ScriptRegistrant<DB_Spawn_When_Killed>::`RTTI Base Class Array'
PUBLIC	??_R1A@?0A@EA@?$ScriptRegistrant@VDB_Spawn_When_Killed@@@@8 ; ScriptRegistrant<DB_Spawn_When_Killed>::`RTTI Base Class Descriptor at (0,-1,0,64)'
PUBLIC	??_R4?$ScriptRegistrant@VDB_Replace_When_Repaired@@@@6B@ ; ScriptRegistrant<DB_Replace_When_Repaired>::`RTTI Complete Object Locator'
PUBLIC	??_R0?AV?$ScriptRegistrant@VDB_Replace_When_Repaired@@@@@8 ; ScriptRegistrant<DB_Replace_When_Repaired> `RTTI Type Descriptor'
PUBLIC	??_R3?$ScriptRegistrant@VDB_Replace_When_Repaired@@@@8 ; ScriptRegistrant<DB_Replace_When_Repaired>::`RTTI Class Hierarchy Descriptor'
PUBLIC	??_R2?$ScriptRegistrant@VDB_Replace_When_Repaired@@@@8 ; ScriptRegistrant<DB_Replace_When_Repaired>::`RTTI Base Class Array'
PUBLIC	??_R1A@?0A@EA@?$ScriptRegistrant@VDB_Replace_When_Repaired@@@@8 ; ScriptRegistrant<DB_Replace_When_Repaired>::`RTTI Base Class Descriptor at (0,-1,0,64)'
PUBLIC	??_R4?$ScriptRegistrant@VDB_Force_Fire@@@@6B@	; ScriptRegistrant<DB_Force_Fire>::`RTTI Complete Object Locator'
PUBLIC	??_R0?AV?$ScriptRegistrant@VDB_Force_Fire@@@@@8	; ScriptRegistrant<DB_Force_Fire> `RTTI Type Descriptor'
PUBLIC	??_R3?$ScriptRegistrant@VDB_Force_Fire@@@@8	; ScriptRegistrant<DB_Force_Fire>::`RTTI Class Hierarchy Descriptor'
PUBLIC	??_R2?$ScriptRegistrant@VDB_Force_Fire@@@@8	; ScriptRegistrant<DB_Force_Fire>::`RTTI Base Class Array'
PUBLIC	??_R1A@?0A@EA@?$ScriptRegistrant@VDB_Force_Fire@@@@8 ; ScriptRegistrant<DB_Force_Fire>::`RTTI Base Class Descriptor at (0,-1,0,64)'
PUBLIC	__real@00000000
PUBLIC	__real@0000000000000000
PUBLIC	__real@02081cea
PUBLIC	__real@3c23d70a
PUBLIC	__real@3c8efa35
PUBLIC	__real@3dcccccd
PUBLIC	__real@3e800000
PUBLIC	__real@3e99999a
PUBLIC	__real@3f79999a
PUBLIC	__real@3f800000
PUBLIC	__real@3fc00000
PUBLIC	__real@3fc90fdb
PUBLIC	__real@3fe0000000000000
PUBLIC	__real@3ff0000000000000
PUBLIC	__real@40000000
PUBLIC	__real@4000000000000000
PUBLIC	__real@40200000
PUBLIC	__real@40490fdb
PUBLIC	__real@40800000
PUBLIC	__real@40900000
PUBLIC	__real@40a00000
PUBLIC	__real@40c90fdb
PUBLIC	__real@41200000
PUBLIC	__real@41700000
PUBLIC	__real@41900000
PUBLIC	__real@41a00000
PUBLIC	__real@42480000
PUBLIC	__real@428c0000
PUBLIC	__real@42b40000
PUBLIC	__real@42c80000
PUBLIC	__real@42ca0000
PUBLIC	__real@43340000
PUBLIC	__real@43490000
PUBLIC	__real@437f0000
PUBLIC	__real@44000000
PUBLIC	__real@447a0000
PUBLIC	__real@44800000
PUBLIC	__real@4b189680
PUBLIC	__real@bf800000
PUBLIC	__real@c0000000
PUBLIC	__real@c0900000
PUBLIC	__xmm@7fffffffffffffff7fffffffffffffff
PUBLIC	__xmm@80000000000000008000000000000000
PUBLIC	__xmm@80000000800000008000000080000000
EXTRN	__purecall:PROC
EXTRN	??2@YAPAXI@Z:PROC				; operator new
EXTRN	??3@YAXPAX@Z:PROC				; operator delete
EXTRN	_atexit:PROC
EXTRN	__imp___wassert:PROC
EXTRN	__imp__atof:PROC
EXTRN	__imp__ceil:PROC
EXTRN	__imp__atoi:PROC
EXTRN	??_V@YAXPAX@Z:PROC				; operator delete[]
EXTRN	??_U@YAPAXI@Z:PROC				; operator new[]
EXTRN	__imp__sprintf:PROC
EXTRN	__imp___stricmp:PROC
EXTRN	__imp__GetCurrentThreadId@0:PROC
EXTRN	__imp__OutputDebugStringA@4:PROC
EXTRN	?SetThreadTrackingInformation@@YAXPBDI0@Z:PROC	; SetThreadTrackingInformation
EXTRN	?Random_Float@WWMath@@SAMXZ:PROC		; WWMath::Random_Float
EXTRN	??0ScriptImpClass@@QAE@XZ:PROC			; ScriptImpClass::ScriptImpClass
EXTRN	?Auto_Save_Variable@ScriptImpClass@@QAEXPAXHH@Z:PROC ; ScriptImpClass::Auto_Save_Variable
EXTRN	??1ScriptImpClass@@UAE@XZ:PROC			; ScriptImpClass::~ScriptImpClass
EXTRN	?Get_Name@ScriptImpClass@@UAEPBDXZ:PROC		; ScriptImpClass::Get_Name
EXTRN	?Set_Parameters_String@ScriptImpClass@@UAEXPBD@Z:PROC ; ScriptImpClass::Set_Parameters_String
EXTRN	?Get_Parameters_String@ScriptImpClass@@UAEXPADI@Z:PROC ; ScriptImpClass::Get_Parameters_String
EXTRN	?Get_Parameter@ScriptImpClass@@QAEPBDPBD@Z:PROC	; ScriptImpClass::Get_Parameter
EXTRN	?Get_Parameter@ScriptImpClass@@QAEPBDH@Z:PROC	; ScriptImpClass::Get_Parameter
EXTRN	?Get_Int_Parameter@ScriptImpClass@@QAEHPBD@Z:PROC ; ScriptImpClass::Get_Int_Parameter
EXTRN	?Get_Float_Parameter@ScriptImpClass@@QAEMPBD@Z:PROC ; ScriptImpClass::Get_Float_Parameter
EXTRN	?Get_Vector3_Parameter@ScriptImpClass@@QAE?AVVector3@@PBD@Z:PROC ; ScriptImpClass::Get_Vector3_Parameter
EXTRN	?Destroy_Script@ScriptImpClass@@QAEXXZ:PROC	; ScriptImpClass::Destroy_Script
EXTRN	?Attach@ScriptImpClass@@MAEXPAVScriptableGameObj@@@Z:PROC ; ScriptImpClass::Attach
EXTRN	?Detach@ScriptImpClass@@MAEXPAVScriptableGameObj@@@Z:PROC ; ScriptImpClass::Detach
EXTRN	?Save@ScriptImpClass@@MAEXAAVScriptSaver@@@Z:PROC ; ScriptImpClass::Save
EXTRN	?Load@ScriptImpClass@@MAEXAAVScriptLoader@@@Z:PROC ; ScriptImpClass::Load
EXTRN	??1ScriptFactory@@UAE@XZ:PROC			; ScriptFactory::~ScriptFactory
EXTRN	??0ScriptFactory@@IAE@PBD0@Z:PROC		; ScriptFactory::ScriptFactory
EXTRN	?Console_Input@@YAXPBD@Z:PROC			; Console_Input
EXTRN	??1ThreadClass@@UAE@XZ:PROC			; ThreadClass::~ThreadClass
EXTRN	__imp_?Format@StringClass@@QAAHPBDZZ:PROC
EXTRN	__imp_?Format_Args@StringClass@@QAAHPBDABQAD@Z:PROC
EXTRN	__imp_?Get_String@StringClass@@AAEXH_N@Z:PROC
EXTRN	__imp_?Uninitialised_Grow@StringClass@@AAEXH@Z:PROC
EXTRN	__imp_?Free_String@StringClass@@AAEXXZ:PROC
EXTRN	__imp_?Free_String@WideStringClass@@AAEXXZ:PROC
EXTRN	?stristr@@YAPBDPBD0@Z:PROC			; stristr
EXTRN	?Find_Entry@INIClass@@QBEPAUINIEntry@@PBD0@Z:PROC ; INIClass::Find_Entry
EXTRN	?Find_Section@INIClass@@QBEPAUINISection@@PBD@Z:PROC ; INIClass::Find_Section
EXTRN	??1INIClass@@UAE@XZ:PROC			; INIClass::~INIClass
EXTRN	?Get_Definition_ID@@YAHPBD@Z:PROC		; Get_Definition_ID
EXTRN	?Find_Named_Definition@@YAPAVDefinitionClass@@PBD@Z:PROC ; Find_Named_Definition
EXTRN	?Get_Z_Rotation@Matrix3D@@QBEMXZ:PROC		; Matrix3D::Get_Z_Rotation
EXTRN	?Set@Matrix3D@@QAEXABVMatrix3@@ABVVector3@@@Z:PROC ; Matrix3D::Set
EXTRN	?Set@Matrix3D@@QAEXABVQuaternion@@ABVVector3@@@Z:PROC ; Matrix3D::Set
EXTRN	?Get_Object_Type@@YAHPAVScriptableGameObj@@@Z:PROC ; Get_Object_Type
EXTRN	?Set_Object_Type@@YAXPAVScriptableGameObj@@H@Z:PROC ; Set_Object_Type
EXTRN	?Get_Player_Count@@YAHXZ:PROC			; Get_Player_Count
EXTRN	?Get_Current_Clip_Bullets@@YAHPAVScriptableGameObj@@@Z:PROC ; Get_Current_Clip_Bullets
EXTRN	?Get_Current_Weapon@@YAPBDPAVScriptableGameObj@@@Z:PROC ; Get_Current_Weapon
EXTRN	?Has_Weapon@@YA_NPAVScriptableGameObj@@PBD@Z:PROC ; Has_Weapon
EXTRN	?Get_Vehicle@@YAPAVScriptableGameObj@@PAV1@@Z:PROC ; Get_Vehicle
EXTRN	?Get_Vehicle_Occupant_Count@@YAHPAVScriptableGameObj@@@Z:PROC ; Get_Vehicle_Occupant_Count
EXTRN	?Get_Vehicle_Driver@@YAPAVScriptableGameObj@@PAV1@@Z:PROC ; Get_Vehicle_Driver
EXTRN	?Is_Stealth@@YA_NPAVScriptableGameObj@@@Z:PROC	; Is_Stealth
EXTRN	?Is_VTOL@@YA_NPAVScriptableGameObj@@@Z:PROC	; Is_VTOL
EXTRN	?Create_Zone@@YAPAVScriptableGameObj@@PBDAAVOBBoxClass@@@Z:PROC ; Create_Zone
EXTRN	?Get_Occupant_Seat@@YAHPAVScriptableGameObj@@0@Z:PROC ; Get_Occupant_Seat
EXTRN	?Set@Matrix3@@QAEXABVQuaternion@@@Z:PROC	; Matrix3::Set
EXTRN	?Get@SysTimeClass@@QAEIXZ:PROC			; SysTimeClass::Get
EXTRN	?Get_Entry@GenericDataSafeClass@@SAPAVDataSafeEntryClass@@VDataSafeHandleClass@@@Z:PROC ; GenericDataSafeClass::Get_Entry
EXTRN	?Shuffle@GenericDataSafeClass@@KAX_N@Z:PROC	; GenericDataSafeClass::Shuffle
EXTRN	?Decrypt@GenericDataSafeClass@@KAXPAXHK_N@Z:PROC ; GenericDataSafeClass::Decrypt
EXTRN	?Mem_Copy_Encrypt@GenericDataSafeClass@@KAXPAX0H_N@Z:PROC ; GenericDataSafeClass::Mem_Copy_Encrypt
EXTRN	?Mem_Copy_Decrypt@GenericDataSafeClass@@KAXPAX0H_N@Z:PROC ; GenericDataSafeClass::Mem_Copy_Decrypt
EXTRN	?Say_Security_Fault@GenericDataSafeClass@@KAXXZ:PROC ; GenericDataSafeClass::Say_Security_Fault
EXTRN	??1ReferencerClass@@UAE@XZ:PROC			; ReferencerClass::~ReferencerClass
EXTRN	?On_Post_Load@ReferencerClass@@UAEXXZ:PROC	; ReferencerClass::On_Post_Load
EXTRN	??4ReferencerClass@@QAEAAV0@PAVScriptableGameObj@@@Z:PROC ; ReferencerClass::operator=
EXTRN	??BReferencerClass@@QBEPAVScriptableGameObj@@XZ:PROC ; ReferencerClass::operator ScriptableGameObj *
EXTRN	?Get_Health@DefenseObjectClass@@QBEMXZ:PROC	; DefenseObjectClass::Get_Health
EXTRN	?Set_Health_Max@DefenseObjectClass@@QAEXM@Z:PROC ; DefenseObjectClass::Set_Health_Max
EXTRN	?Get_Health_Max@DefenseObjectClass@@QBEMXZ:PROC	; DefenseObjectClass::Get_Health_Max
EXTRN	?Get_Shield_Strength@DefenseObjectClass@@QBEMXZ:PROC ; DefenseObjectClass::Get_Shield_Strength
EXTRN	?Set_Shield_Strength_Max@DefenseObjectClass@@QAEXM@Z:PROC ; DefenseObjectClass::Set_Shield_Strength_Max
EXTRN	?Get_Shield_Strength_Max@DefenseObjectClass@@QBEMXZ:PROC ; DefenseObjectClass::Get_Shield_Strength_Max
EXTRN	?Set_Shield_Type@DefenseObjectClass@@QAEXI@Z:PROC ; DefenseObjectClass::Set_Shield_Type
EXTRN	?Is_Enemy@DamageableGameObj@@QAE_NPAV1@@Z:PROC	; DamageableGameObj::Is_Enemy
EXTRN	?Set@LineSegClass@@QAEXABV1@ABVMatrix3D@@@Z:PROC ; LineSegClass::Set
EXTRN	?Set_Transform@PhysicalGameObj@@QAEXABVMatrix3D@@@Z:PROC ; PhysicalGameObj::Set_Transform
EXTRN	?Get_Transform@PhysicalGameObj@@QBEABVMatrix3D@@XZ:PROC ; PhysicalGameObj::Get_Transform
EXTRN	?Set_Collision_Group@PhysicalGameObj@@QAEXH@Z:PROC ; PhysicalGameObj::Set_Collision_Group
EXTRN	?Get_Weapon@ArmedGameObj@@QAEPAVWeaponClass@@XZ:PROC ; ArmedGameObj::Get_Weapon
EXTRN	?Power_Base@@YAXH_N@Z:PROC			; Power_Base
EXTRN	?Is_Building_Dead@@YA_NPAVScriptableGameObj@@@Z:PROC ; Is_Building_Dead
EXTRN	?Find_Building_By_Type@@YAPAVScriptableGameObj@@HH@Z:PROC ; Find_Building_By_Type
EXTRN	?Is_Base_Powered@@YA_NH@Z:PROC			; Is_Base_Powered
EXTRN	?Get_Translated_Preset_Name@@YAPBDPAVScriptableGameObj@@@Z:PROC ; Get_Translated_Preset_Name
EXTRN	?Get_Team_Name@@YAPBDH@Z:PROC			; Get_Team_Name
EXTRN	?Damage_All_Objects_Area_By_Team@@YAXMPBDABVVector3@@MPAVScriptableGameObj@@_N3H@Z:PROC ; Damage_All_Objects_Area_By_Team
EXTRN	?Get_Model@@YAPBDPAVScriptableGameObj@@@Z:PROC	; Get_Model
EXTRN	?Get_Animation_Frame@@YAMPAVScriptableGameObj@@@Z:PROC ; Get_Animation_Frame
EXTRN	?Remove_Script@@YAXPAVScriptableGameObj@@PBD@Z:PROC ; Remove_Script
EXTRN	?Is_Script_Attached@@YA_NPAVScriptableGameObj@@PBD@Z:PROC ; Is_Script_Attached
EXTRN	?Attach_Script_Once@@YAXPAVScriptableGameObj@@PBD1@Z:PROC ; Attach_Script_Once
EXTRN	?Send_Custom_Event_To_Objects_With_Script_Ranged@@YAXPAVScriptableGameObj@@PBDHHMM@Z:PROC ; Send_Custom_Event_To_Objects_With_Script_Ranged
EXTRN	?Attach_Script_Once_V@@YAXPAVScriptableGameObj@@PBD1ZZ:PROC ; Attach_Script_Once_V
EXTRN	?Find_Definition@PurchaseSettingsDefClass@@SAPAV1@W4TYPE@1@W4TEAM@1@@Z:PROC ; PurchaseSettingsDefClass::Find_Definition
EXTRN	?Detach@JFW_Key_Hook_Base@@UAEXPAVScriptableGameObj@@@Z:PROC ; JFW_Key_Hook_Base::Detach
EXTRN	?Destroyed@JFW_Key_Hook_Base@@UAEXPAVScriptableGameObj@@@Z:PROC ; JFW_Key_Hook_Base::Destroyed
EXTRN	?InstallHook@JFW_Key_Hook_Base@@QAEXPBDPAVScriptableGameObj@@@Z:PROC ; JFW_Key_Hook_Base::InstallHook
EXTRN	??1JFW_Key_Hook_Base@@UAE@XZ:PROC		; JFW_Key_Hook_Base::~JFW_Key_Hook_Base
EXTRN	?Detach@MultiKeyHookScriptImpClass@@UAEXPAVScriptableGameObj@@@Z:PROC ; MultiKeyHookScriptImpClass::Detach
EXTRN	?Destroyed@MultiKeyHookScriptImpClass@@UAEXPAVScriptableGameObj@@@Z:PROC ; MultiKeyHookScriptImpClass::Destroyed
EXTRN	??_E?$SList@UKeyHookWrapperStruct@MultiKeyHookScriptImpClass@@@@UAEPAXI@Z:PROC ; SList<MultiKeyHookScriptImpClass::KeyHookWrapperStruct>::`vector deleting destructor'
EXTRN	?Detach@JFW_Object_Created_Hook_Base@@UAEXPAVScriptableGameObj@@@Z:PROC ; JFW_Object_Created_Hook_Base::Detach
EXTRN	?Created@JFW_Object_Created_Hook_Base@@UAEXPAVScriptableGameObj@@@Z:PROC ; JFW_Object_Created_Hook_Base::Created
EXTRN	??1JFW_Object_Created_Hook_Base@@UAE@XZ:PROC	; JFW_Object_Created_Hook_Base::~JFW_Object_Created_Hook_Base
EXTRN	??_EDB_Shield_Generator_Vehicle@@UAEPAXI@Z:PROC	; DB_Shield_Generator_Vehicle::`vector deleting destructor'
EXTRN	??_EDB_Controllable_Turret@@UAEPAXI@Z:PROC	; DB_Controllable_Turret::`vector deleting destructor'
EXTRN	??_EDB_Guard_Bot@@UAEPAXI@Z:PROC		; DB_Guard_Bot::`vector deleting destructor'
EXTRN	??_EDB_Support_Bot@@UAEPAXI@Z:PROC		; DB_Support_Bot::`vector deleting destructor'
EXTRN	??_Edblaney_Nod_Obelisk@@UAEPAXI@Z:PROC		; dblaney_Nod_Obelisk::`vector deleting destructor'
EXTRN	??_Edblaney_Nod_Obelisk_Structure@@UAEPAXI@Z:PROC ; dblaney_Nod_Obelisk_Structure::`vector deleting destructor'
EXTRN	??_Edblaney_Nod_Obelisk_Weapon@@UAEPAXI@Z:PROC	; dblaney_Nod_Obelisk_Weapon::`vector deleting destructor'
EXTRN	??_EDB_Power_Down_Console@@UAEPAXI@Z:PROC	; DB_Power_Down_Console::`vector deleting destructor'
EXTRN	??_EDB_Power_Down_Building_Console@@UAEPAXI@Z:PROC ; DB_Power_Down_Building_Console::`vector deleting destructor'
EXTRN	??_EDB_Disable_Injured_Animations@@UAEPAXI@Z:PROC ; DB_Disable_Injured_Animations::`vector deleting destructor'
EXTRN	??_EDB_Set_Scale@@UAEPAXI@Z:PROC		; DB_Set_Scale::`vector deleting destructor'
EXTRN	??_EDB_Grant_Keycard_Killed@@UAEPAXI@Z:PROC	; DB_Grant_Keycard_Killed::`vector deleting destructor'
EXTRN	??_EDB_Grant_Keycard_Timer@@UAEPAXI@Z:PROC	; DB_Grant_Keycard_Timer::`vector deleting destructor'
EXTRN	??_EDB_Infantry_Place_Buildable_Object@@UAEPAXI@Z:PROC ; DB_Infantry_Place_Buildable_Object::`vector deleting destructor'
EXTRN	??_EDB_Stationary_Stealth@@UAEPAXI@Z:PROC	; DB_Stationary_Stealth::`vector deleting destructor'
EXTRN	??_EDB_Turret_Sound@@UAEPAXI@Z:PROC		; DB_Turret_Sound::`vector deleting destructor'
EXTRN	??_EDB_Turret_Spawn@@UAEPAXI@Z:PROC		; DB_Turret_Spawn::`vector deleting destructor'
EXTRN	??_EDB_Spawned_Visible_Ammo@@UAEPAXI@Z:PROC	; DB_Spawned_Visible_Ammo::`vector deleting destructor'
EXTRN	??_EDB_Vehicle_Visible_Ammo@@UAEPAXI@Z:PROC	; DB_Vehicle_Visible_Ammo::`vector deleting destructor'
EXTRN	??_EDB_Orca_Lifter@@UAEPAXI@Z:PROC		; DB_Orca_Lifter::`vector deleting destructor'
EXTRN	??_EDB_Turret_Bombard_Ability@@UAEPAXI@Z:PROC	; DB_Turret_Bombard_Ability::`vector deleting destructor'
EXTRN	??_EDB_Turret_Bombard_Player@@UAEPAXI@Z:PROC	; DB_Turret_Bombard_Player::`vector deleting destructor'
EXTRN	??_EDB_Health_Sound_Timer@@UAEPAXI@Z:PROC	; DB_Health_Sound_Timer::`vector deleting destructor'
EXTRN	??_EDB_Visible_Passenger@@UAEPAXI@Z:PROC	; DB_Visible_Passenger::`vector deleting destructor'
EXTRN	??_EDB_Drop_Wreckage_On_Death@@UAEPAXI@Z:PROC	; DB_Drop_Wreckage_On_Death::`vector deleting destructor'
EXTRN	??_EDB_Wreckage_Rebuildable@@UAEPAXI@Z:PROC	; DB_Wreckage_Rebuildable::`vector deleting destructor'
EXTRN	??_EDB_Supply_Truck@@UAEPAXI@Z:PROC		; DB_Supply_Truck::`vector deleting destructor'
EXTRN	??_EDB_Damage_Vehicle_Occupants_Area_Killed@@UAEPAXI@Z:PROC ; DB_Damage_Vehicle_Occupants_Area_Killed::`vector deleting destructor'
EXTRN	??_EDB_Damage_Vehicle_Occupants_Area_Timer@@UAEPAXI@Z:PROC ; DB_Damage_Vehicle_Occupants_Area_Timer::`vector deleting destructor'
EXTRN	??_EDB_Set_PT_Slot@@UAEPAXI@Z:PROC		; DB_Set_PT_Slot::`vector deleting destructor'
EXTRN	??_EDB_Spawn_When_Killed@@UAEPAXI@Z:PROC	; DB_Spawn_When_Killed::`vector deleting destructor'
EXTRN	??_EDB_Replace_When_Repaired@@UAEPAXI@Z:PROC	; DB_Replace_When_Repaired::`vector deleting destructor'
EXTRN	??_EDB_Force_Fire@@UAEPAXI@Z:PROC		; DB_Force_Fire::`vector deleting destructor'
EXTRN	?Is_In_Elevator@SoldierGameObj@@QAE_NXZ:PROC	; SoldierGameObj::Is_In_Elevator
EXTRN	?Get_Occupant_Count@VehicleGameObj@@QAEHXZ:PROC	; VehicleGameObj::Get_Occupant_Count
EXTRN	?Get_Total_Rounds@WeaponClass@@QAEHXZ:PROC	; WeaponClass::Get_Total_Rounds
EXTRN	?Fix_Stuck_Objects@@YAXABVVector3@@MM_N@Z:PROC	; Fix_Stuck_Objects
EXTRN	??_E?$ScriptRegistrant@VDB_Shield_Generator_Vehicle@@@@UAEPAXI@Z:PROC ; ScriptRegistrant<DB_Shield_Generator_Vehicle>::`vector deleting destructor'
EXTRN	??_E?$ScriptRegistrant@VDB_Controllable_Turret@@@@UAEPAXI@Z:PROC ; ScriptRegistrant<DB_Controllable_Turret>::`vector deleting destructor'
EXTRN	??_E?$ScriptRegistrant@VDB_Guard_Bot@@@@UAEPAXI@Z:PROC ; ScriptRegistrant<DB_Guard_Bot>::`vector deleting destructor'
EXTRN	??_E?$ScriptRegistrant@VDB_Support_Bot@@@@UAEPAXI@Z:PROC ; ScriptRegistrant<DB_Support_Bot>::`vector deleting destructor'
EXTRN	??_E?$ScriptRegistrant@Vdblaney_Nod_Obelisk@@@@UAEPAXI@Z:PROC ; ScriptRegistrant<dblaney_Nod_Obelisk>::`vector deleting destructor'
EXTRN	??_E?$ScriptRegistrant@Vdblaney_Nod_Obelisk_Structure@@@@UAEPAXI@Z:PROC ; ScriptRegistrant<dblaney_Nod_Obelisk_Structure>::`vector deleting destructor'
EXTRN	??_E?$ScriptRegistrant@Vdblaney_Nod_Obelisk_Weapon@@@@UAEPAXI@Z:PROC ; ScriptRegistrant<dblaney_Nod_Obelisk_Weapon>::`vector deleting destructor'
EXTRN	??_E?$ScriptRegistrant@VDB_Power_Down_Console@@@@UAEPAXI@Z:PROC ; ScriptRegistrant<DB_Power_Down_Console>::`vector deleting destructor'
EXTRN	??_E?$ScriptRegistrant@VDB_Power_Down_Building_Console@@@@UAEPAXI@Z:PROC ; ScriptRegistrant<DB_Power_Down_Building_Console>::`vector deleting destructor'
EXTRN	??_E?$ScriptRegistrant@VDB_Disable_Injured_Animations@@@@UAEPAXI@Z:PROC ; ScriptRegistrant<DB_Disable_Injured_Animations>::`vector deleting destructor'
EXTRN	??_E?$ScriptRegistrant@VDB_Set_Scale@@@@UAEPAXI@Z:PROC ; ScriptRegistrant<DB_Set_Scale>::`vector deleting destructor'
EXTRN	??_E?$ScriptRegistrant@VDB_Grant_Keycard_Killed@@@@UAEPAXI@Z:PROC ; ScriptRegistrant<DB_Grant_Keycard_Killed>::`vector deleting destructor'
EXTRN	??_E?$ScriptRegistrant@VDB_Grant_Keycard_Timer@@@@UAEPAXI@Z:PROC ; ScriptRegistrant<DB_Grant_Keycard_Timer>::`vector deleting destructor'
EXTRN	??_E?$ScriptRegistrant@VDB_Infantry_Place_Buildable_Object@@@@UAEPAXI@Z:PROC ; ScriptRegistrant<DB_Infantry_Place_Buildable_Object>::`vector deleting destructor'
EXTRN	??_E?$ScriptRegistrant@VDB_Stationary_Stealth@@@@UAEPAXI@Z:PROC ; ScriptRegistrant<DB_Stationary_Stealth>::`vector deleting destructor'
EXTRN	??_E?$ScriptRegistrant@VDB_Turret_Sound@@@@UAEPAXI@Z:PROC ; ScriptRegistrant<DB_Turret_Sound>::`vector deleting destructor'
EXTRN	??_E?$ScriptRegistrant@VDB_Turret_Spawn@@@@UAEPAXI@Z:PROC ; ScriptRegistrant<DB_Turret_Spawn>::`vector deleting destructor'
EXTRN	??_E?$ScriptRegistrant@VDB_Spawned_Visible_Ammo@@@@UAEPAXI@Z:PROC ; ScriptRegistrant<DB_Spawned_Visible_Ammo>::`vector deleting destructor'
EXTRN	??_E?$ScriptRegistrant@VDB_Vehicle_Visible_Ammo@@@@UAEPAXI@Z:PROC ; ScriptRegistrant<DB_Vehicle_Visible_Ammo>::`vector deleting destructor'
EXTRN	??_E?$ScriptRegistrant@VDB_Orca_Lifter@@@@UAEPAXI@Z:PROC ; ScriptRegistrant<DB_Orca_Lifter>::`vector deleting destructor'
EXTRN	??_E?$ScriptRegistrant@VDB_Turret_Bombard_Ability@@@@UAEPAXI@Z:PROC ; ScriptRegistrant<DB_Turret_Bombard_Ability>::`vector deleting destructor'
EXTRN	??_E?$ScriptRegistrant@VDB_Turret_Bombard_Player@@@@UAEPAXI@Z:PROC ; ScriptRegistrant<DB_Turret_Bombard_Player>::`vector deleting destructor'
EXTRN	??_E?$ScriptRegistrant@VDB_Health_Sound_Timer@@@@UAEPAXI@Z:PROC ; ScriptRegistrant<DB_Health_Sound_Timer>::`vector deleting destructor'
EXTRN	??_E?$ScriptRegistrant@VDB_Visible_Passenger@@@@UAEPAXI@Z:PROC ; ScriptRegistrant<DB_Visible_Passenger>::`vector deleting destructor'
EXTRN	??_E?$ScriptRegistrant@VDB_Drop_Wreckage_On_Death@@@@UAEPAXI@Z:PROC ; ScriptRegistrant<DB_Drop_Wreckage_On_Death>::`vector deleting destructor'
EXTRN	??_E?$ScriptRegistrant@VDB_Wreckage_Rebuildable@@@@UAEPAXI@Z:PROC ; ScriptRegistrant<DB_Wreckage_Rebuildable>::`vector deleting destructor'
EXTRN	??_E?$ScriptRegistrant@VDB_Supply_Truck@@@@UAEPAXI@Z:PROC ; ScriptRegistrant<DB_Supply_Truck>::`vector deleting destructor'
EXTRN	??_E?$ScriptRegistrant@VDB_Damage_Vehicle_Occupants_Area_Timer@@@@UAEPAXI@Z:PROC ; ScriptRegistrant<DB_Damage_Vehicle_Occupants_Area_Timer>::`vector deleting destructor'
EXTRN	??_E?$ScriptRegistrant@VDB_Damage_Vehicle_Occupants_Area_Killed@@@@UAEPAXI@Z:PROC ; ScriptRegistrant<DB_Damage_Vehicle_Occupants_Area_Killed>::`vector deleting destructor'
EXTRN	??_E?$ScriptRegistrant@VDB_Set_PT_Slot@@@@UAEPAXI@Z:PROC ; ScriptRegistrant<DB_Set_PT_Slot>::`vector deleting destructor'
EXTRN	??_E?$ScriptRegistrant@VDB_Spawn_When_Killed@@@@UAEPAXI@Z:PROC ; ScriptRegistrant<DB_Spawn_When_Killed>::`vector deleting destructor'
EXTRN	??_E?$ScriptRegistrant@VDB_Replace_When_Repaired@@@@UAEPAXI@Z:PROC ; ScriptRegistrant<DB_Replace_When_Repaired>::`vector deleting destructor'
EXTRN	??_E?$ScriptRegistrant@VDB_Force_Fire@@@@UAEPAXI@Z:PROC ; ScriptRegistrant<DB_Force_Fire>::`vector deleting destructor'
EXTRN	__CIatan2:PROC
EXTRN	__ftol2_sse:PROC
EXTRN	__libm_sse2_acos_precise:PROC
EXTRN	__libm_sse2_asin_precise:PROC
EXTRN	__libm_sse2_atan_precise:PROC
EXTRN	__libm_sse2_cos_precise:PROC
EXTRN	__libm_sse2_sin_precise:PROC
EXTRN	__libm_sse2_sqrt_precise:PROC
EXTRN	__libm_sse2_tan_precise:PROC
EXTRN	_floor:PROC
EXTRN	_memcpy:PROC
EXTRN	?Exe@@3HA:DWORD					; Exe
EXTRN	??_7type_info@@6B@:QWORD			; type_info::`vftable'
EXTRN	?_FastAcosTable@@3AAV?$RefArrayHelper@M$0EAA@@@A:DWORD ; _FastAcosTable
EXTRN	?_FastAsinTable@@3AAV?$RefArrayHelper@M$0EAA@@@A:DWORD ; _FastAsinTable
EXTRN	?_FastSinTable@@3AAV?$RefArrayHelper@M$0EAA@@@A:DWORD ; _FastSinTable
EXTRN	?Commands@@3PAUScriptCommands@@A:DWORD		; Commands
EXTRN	__imp_?m_EmptyString@StringClass@@0AAPADA:DWORD
EXTRN	__imp_?m_NullChar@StringClass@@0AADA:DWORD
EXTRN	?SystemTime@SysTimeClass@@2AAV1@A:DWORD		; SysTimeClass::SystemTime
EXTRN	?SimpleKey@GenericDataSafeClass@@1AAKA:DWORD	; GenericDataSafeClass::SimpleKey
EXTRN	?HandleKey@GenericDataSafeClass@@1AAKA:DWORD	; GenericDataSafeClass::HandleKey
EXTRN	?NumLists@GenericDataSafeClass@@1AAHA:DWORD	; GenericDataSafeClass::NumLists
EXTRN	?Safe@GenericDataSafeClass@@1AAV?$RefArray@PAVDataSafeEntryListClass@@$0CAAA@@@A:DWORD ; GenericDataSafeClass::Safe
EXTRN	?Checksum@GenericDataSafeClass@@1AAKA:DWORD	; GenericDataSafeClass::Checksum
EXTRN	?SecurityCheckDelay@GenericDataSafeClass@@1AAKA:DWORD ; GenericDataSafeClass::SecurityCheckDelay
EXTRN	?SentinelOne@GenericDataSafeClass@@1AAVDataSafeHandleClass@@A:DWORD ; GenericDataSafeClass::SentinelOne
EXTRN	?SentinelTwo@GenericDataSafeClass@@1AAVDataSafeHandleClass@@A:DWORD ; GenericDataSafeClass::SentinelTwo
EXTRN	?CRCErrors@GenericDataSafeClass@@1AAHA:DWORD	; GenericDataSafeClass::CRCErrors
EXTRN	?ReturnList@?$DataSafeClass@H@@0AAV?$RefArray@V?$RefArray@D$03@@$07@@A:DWORD ; DataSafeClass<int>::ReturnList
EXTRN	?ReturnIndex@?$DataSafeClass@H@@0AAHA:DWORD	; DataSafeClass<int>::ReturnIndex
EXTRN	?Set_Current_Clip_Bullets@@3P6AXPAVScriptableGameObj@@H@ZA:DWORD ; Set_Current_Clip_Bullets
EXTRN	?Set_Bullets@@3P6AXPAVScriptableGameObj@@PBDH@ZA:DWORD ; Set_Bullets
EXTRN	?Send_Message@@3P6AXIIIPBD@ZA:DWORD		; Send_Message
EXTRN	?Send_Message_Player@@3P6AXPAVScriptableGameObj@@IIIPBD@ZA:DWORD ; Send_Message_Player
EXTRN	?Update_Network_Object@@3P6AXPAVNetworkObjectClass@@@ZA:DWORD ; Update_Network_Object
EXTRN	?Get_Damage_Warhead@@3P6AIXZA:DWORD		; Get_Damage_Warhead
EXTRN	?Force_Position_Update@@3P6AXPAVScriptableGameObj@@@ZA:DWORD ; Force_Position_Update
EXTRN	?Set_HUD_Help_Text_Player_Text@@3P6AXPAVScriptableGameObj@@HPBDVVector3@@@ZA:DWORD ; Set_HUD_Help_Text_Player_Text
EXTRN	?Grant_Weapon@@3P6AXPAVScriptableGameObj@@PBD_NH2@ZA:DWORD ; Grant_Weapon
EXTRN	?Set_Object_Visibility_For_Player@@3P6AXPAVScriptableGameObj@@H_N@ZA:DWORD ; Set_Object_Visibility_For_Player
EXTRN	?Set_Object_Visibility@@3P6AXH_N@ZA:DWORD	; Set_Object_Visibility
EXTRN	?Force_Orientation_Update@@3P6AXPAVScriptableGameObj@@@ZA:DWORD ; Force_Orientation_Update
EXTRN	?StarGameObjList@GameObjManager@@2AAV?$SList@VSoldierGameObj@@@@A:DWORD ; GameObjManager::StarGameObjList
EXTRN	?ReturnList@?$DataSafeClass@I@@0AAV?$RefArray@V?$RefArray@D$03@@$07@@A:DWORD ; DataSafeClass<unsigned int>::ReturnList
EXTRN	?ReturnIndex@?$DataSafeClass@I@@0AAHA:DWORD	; DataSafeClass<unsigned int>::ReturnIndex
EXTRN	__fltused:DWORD
;	COMDAT ?_checking@?1??Security_Check@GenericDataSafeClass@@KAXXZ@4_NA
_BSS	SEGMENT
?_checking@?1??Security_Check@GenericDataSafeClass@@KAXXZ@4_NA DB 01H DUP (?) ; `GenericDataSafeClass::Security_Check'::`2'::_checking
_BSS	ENDS
;	COMDAT ?_calls@?1??Security_Check@GenericDataSafeClass@@KAXXZ@4KA
_BSS	SEGMENT
?_calls@?1??Security_Check@GenericDataSafeClass@@KAXXZ@4KA DD 01H DUP (?) ; `GenericDataSafeClass::Security_Check'::`2'::_calls
_BSS	ENDS
_BSS	SEGMENT
_UpgradeComplete DB 010H DUP (?)
?DB_Shield_Generator_Vehicle_Registrant@@3V?$ScriptRegistrant@VDB_Shield_Generator_Vehicle@@@@A DB 010H DUP (?) ; DB_Shield_Generator_Vehicle_Registrant
?DB_Controllable_Turret_Registrant@@3V?$ScriptRegistrant@VDB_Controllable_Turret@@@@A DB 010H DUP (?) ; DB_Controllable_Turret_Registrant
?DB_Guard_Bot_Registrant@@3V?$ScriptRegistrant@VDB_Guard_Bot@@@@A DB 010H DUP (?) ; DB_Guard_Bot_Registrant
?DB_Support_Bot_Registrant@@3V?$ScriptRegistrant@VDB_Support_Bot@@@@A DB 010H DUP (?) ; DB_Support_Bot_Registrant
?dblaney_Nod_Obelisk_Registrant@@3V?$ScriptRegistrant@Vdblaney_Nod_Obelisk@@@@A DB 010H DUP (?) ; dblaney_Nod_Obelisk_Registrant
?dblaney_Nod_Obelisk_Structure_Registrant@@3V?$ScriptRegistrant@Vdblaney_Nod_Obelisk_Structure@@@@A DB 010H DUP (?) ; dblaney_Nod_Obelisk_Structure_Registrant
?dblaney_Nod_Obelisk_Weapon_Registrant@@3V?$ScriptRegistrant@Vdblaney_Nod_Obelisk_Weapon@@@@A DB 010H DUP (?) ; dblaney_Nod_Obelisk_Weapon_Registrant
?DB_Power_Down_Console_Registrant@@3V?$ScriptRegistrant@VDB_Power_Down_Console@@@@A DB 010H DUP (?) ; DB_Power_Down_Console_Registrant
?DB_Power_Down_Building_Console_Registrant@@3V?$ScriptRegistrant@VDB_Power_Down_Building_Console@@@@A DB 010H DUP (?) ; DB_Power_Down_Building_Console_Registrant
?DB_Disable_Injured_Animations_Registrant@@3V?$ScriptRegistrant@VDB_Disable_Injured_Animations@@@@A DB 010H DUP (?) ; DB_Disable_Injured_Animations_Registrant
?DB_Set_Scale_Registrant@@3V?$ScriptRegistrant@VDB_Set_Scale@@@@A DB 010H DUP (?) ; DB_Set_Scale_Registrant
?DB_Grant_Keycard_Killed_Registrant@@3V?$ScriptRegistrant@VDB_Grant_Keycard_Killed@@@@A DB 010H DUP (?) ; DB_Grant_Keycard_Killed_Registrant
?DB_Grant_Keycard_Timer_Registrant@@3V?$ScriptRegistrant@VDB_Grant_Keycard_Timer@@@@A DB 010H DUP (?) ; DB_Grant_Keycard_Timer_Registrant
?DB_Infantry_Place_Buildable_Object_Registrant@@3V?$ScriptRegistrant@VDB_Infantry_Place_Buildable_Object@@@@A DB 010H DUP (?) ; DB_Infantry_Place_Buildable_Object_Registrant
?DB_Stationary_Stealth_Registrant@@3V?$ScriptRegistrant@VDB_Stationary_Stealth@@@@A DB 010H DUP (?) ; DB_Stationary_Stealth_Registrant
?DB_Turret_Sound_Registrant@@3V?$ScriptRegistrant@VDB_Turret_Sound@@@@A DB 010H DUP (?) ; DB_Turret_Sound_Registrant
?DB_Turret_Spawn_Registrant@@3V?$ScriptRegistrant@VDB_Turret_Spawn@@@@A DB 010H DUP (?) ; DB_Turret_Spawn_Registrant
?DB_Spawned_Visible_Ammo_Registrant@@3V?$ScriptRegistrant@VDB_Spawned_Visible_Ammo@@@@A DB 010H DUP (?) ; DB_Spawned_Visible_Ammo_Registrant
?DB_Vehicle_Visible_Ammo_Registrant@@3V?$ScriptRegistrant@VDB_Vehicle_Visible_Ammo@@@@A DB 010H DUP (?) ; DB_Vehicle_Visible_Ammo_Registrant
?DB_Orca_Lifter_Registrant@@3V?$ScriptRegistrant@VDB_Orca_Lifter@@@@A DB 010H DUP (?) ; DB_Orca_Lifter_Registrant
?DB_Turret_Bombard_Ability_Registrant@@3V?$ScriptRegistrant@VDB_Turret_Bombard_Ability@@@@A DB 010H DUP (?) ; DB_Turret_Bombard_Ability_Registrant
?DB_Turret_Bombard_Player_Registrant@@3V?$ScriptRegistrant@VDB_Turret_Bombard_Player@@@@A DB 010H DUP (?) ; DB_Turret_Bombard_Player_Registrant
?DB_Health_Sound_Timer_Registrant@@3V?$ScriptRegistrant@VDB_Health_Sound_Timer@@@@A DB 010H DUP (?) ; DB_Health_Sound_Timer_Registrant
?DB_Visible_Passenger_Registrant@@3V?$ScriptRegistrant@VDB_Visible_Passenger@@@@A DB 010H DUP (?) ; DB_Visible_Passenger_Registrant
?DB_Drop_Wreckage_On_Death_Registrant@@3V?$ScriptRegistrant@VDB_Drop_Wreckage_On_Death@@@@A DB 010H DUP (?) ; DB_Drop_Wreckage_On_Death_Registrant
?DB_Wreckage_Rebuildable_Registrant@@3V?$ScriptRegistrant@VDB_Wreckage_Rebuildable@@@@A DB 010H DUP (?) ; DB_Wreckage_Rebuildable_Registrant
?DB_Supply_Truck_Registrant@@3V?$ScriptRegistrant@VDB_Supply_Truck@@@@A DB 010H DUP (?) ; DB_Supply_Truck_Registrant
?DB_Damage_Vehicle_Occupants_Area_Timer_Registrant@@3V?$ScriptRegistrant@VDB_Damage_Vehicle_Occupants_Area_Timer@@@@A DB 010H DUP (?) ; DB_Damage_Vehicle_Occupants_Area_Timer_Registrant
?DB_Damage_Vehicle_Occupants_Area_Killed_Registrant@@3V?$ScriptRegistrant@VDB_Damage_Vehicle_Occupants_Area_Killed@@@@A DB 010H DUP (?) ; DB_Damage_Vehicle_Occupants_Area_Killed_Registrant
?DB_Set_PT_Slot_Registrant@@3V?$ScriptRegistrant@VDB_Set_PT_Slot@@@@A DB 010H DUP (?) ; DB_Set_PT_Slot_Registrant
?DB_Spawn_When_Killed_Registrant@@3V?$ScriptRegistrant@VDB_Spawn_When_Killed@@@@A DB 010H DUP (?) ; DB_Spawn_When_Killed_Registrant
?DB_Replace_When_Repaired_Registrant@@3V?$ScriptRegistrant@VDB_Replace_When_Repaired@@@@A DB 010H DUP (?) ; DB_Replace_When_Repaired_Registrant
?DB_Force_Fire_Registrant@@3V?$ScriptRegistrant@VDB_Force_Fire@@@@A DB 010H DUP (?) ; DB_Force_Fire_Registrant
_BSS	ENDS
;	COMDAT ?instancex@?1??getInstance@?$Singleton@V?$ObjectPoolClass@VGenericSLNode@@$0BAA@@@@@SAAAV?$ObjectPoolClass@VGenericSLNode@@$0BAA@@@XZ@4V3@A
_BSS	SEGMENT
?instancex@?1??getInstance@?$Singleton@V?$ObjectPoolClass@VGenericSLNode@@$0BAA@@@@@SAAAV?$ObjectPoolClass@VGenericSLNode@@$0BAA@@@XZ@4V3@A DB 014H DUP (?) ; `Singleton<ObjectPoolClass<GenericSLNode,256> >::getInstance'::`2'::instancex
_BSS	ENDS
;	COMDAT ??_B?1??getInstance@?$Singleton@V?$ObjectPoolClass@VGenericSLNode@@$0BAA@@@@@SAAAV?$ObjectPoolClass@VGenericSLNode@@$0BAA@@@XZ@51
_BSS	SEGMENT
??_B?1??getInstance@?$Singleton@V?$ObjectPoolClass@VGenericSLNode@@$0BAA@@@@@SAAAV?$ObjectPoolClass@VGenericSLNode@@$0BAA@@@XZ@51 DD 01H DUP (?) ; `Singleton<ObjectPoolClass<GenericSLNode,256> >::getInstance'::`2'::`local static guard'
_BSS	ENDS
;	COMDAT ?oh_dear@?7???R?$SafeDataClass@I@@QBEAAIXZ@4IA
_BSS	SEGMENT
?oh_dear@?7???R?$SafeDataClass@I@@QBEAAIXZ@4IA DD 01H DUP (?) ; `SafeDataClass<unsigned int>::operator()'::`8'::oh_dear
_BSS	ENDS
;	COMDAT ?oh_dear@?7???R?$SafeDataClass@H@@QBEAAHXZ@4HA
_BSS	SEGMENT
?oh_dear@?7???R?$SafeDataClass@H@@QBEAAHXZ@4HA DD 01H DUP (?) ; `SafeDataClass<int>::operator()'::`8'::oh_dear
_BSS	ENDS
CRT$XCU	SEGMENT
_UpgradeComplete$initializer$ DD FLAT:??__EUpgradeComplete@@YAXXZ
CRT$XCU	ENDS
;	COMDAT __xmm@80000000800000008000000080000000
CONST	SEGMENT
__xmm@80000000800000008000000080000000 DB 00H, 00H, 00H, 080H, 00H, 00H, 00H
	DB	080H, 00H, 00H, 00H, 080H, 00H, 00H, 00H, 080H
CONST	ENDS
;	COMDAT __xmm@80000000000000008000000000000000
CONST	SEGMENT
__xmm@80000000000000008000000000000000 DB 00H, 00H, 00H, 00H, 00H, 00H, 00H
	DB	080H, 00H, 00H, 00H, 00H, 00H, 00H, 00H, 080H
CONST	ENDS
;	COMDAT __xmm@7fffffffffffffff7fffffffffffffff
CONST	SEGMENT
__xmm@7fffffffffffffff7fffffffffffffff DB 0ffH, 0ffH, 0ffH, 0ffH, 0ffH, 0ffH
	DB	0ffH, 07fH, 0ffH, 0ffH, 0ffH, 0ffH, 0ffH, 0ffH, 0ffH, 07fH
CONST	ENDS
;	COMDAT __real@c0900000
CONST	SEGMENT
__real@c0900000 DD 0c0900000r			; -4.5
CONST	ENDS
;	COMDAT __real@c0000000
CONST	SEGMENT
__real@c0000000 DD 0c0000000r			; -2
CONST	ENDS
;	COMDAT __real@bf800000
CONST	SEGMENT
__real@bf800000 DD 0bf800000r			; -1
CONST	ENDS
;	COMDAT __real@4b189680
CONST	SEGMENT
__real@4b189680 DD 04b189680r			; 1e+007
CONST	ENDS
;	COMDAT __real@44800000
CONST	SEGMENT
__real@44800000 DD 044800000r			; 1024
CONST	ENDS
;	COMDAT __real@447a0000
CONST	SEGMENT
__real@447a0000 DD 0447a0000r			; 1000
CONST	ENDS
;	COMDAT __real@44000000
CONST	SEGMENT
__real@44000000 DD 044000000r			; 512
CONST	ENDS
;	COMDAT __real@437f0000
CONST	SEGMENT
__real@437f0000 DD 0437f0000r			; 255
CONST	ENDS
;	COMDAT __real@43490000
CONST	SEGMENT
__real@43490000 DD 043490000r			; 201
CONST	ENDS
;	COMDAT __real@43340000
CONST	SEGMENT
__real@43340000 DD 043340000r			; 180
CONST	ENDS
;	COMDAT __real@42ca0000
CONST	SEGMENT
__real@42ca0000 DD 042ca0000r			; 101
CONST	ENDS
;	COMDAT __real@42c80000
CONST	SEGMENT
__real@42c80000 DD 042c80000r			; 100
CONST	ENDS
;	COMDAT __real@42b40000
CONST	SEGMENT
__real@42b40000 DD 042b40000r			; 90
CONST	ENDS
;	COMDAT __real@428c0000
CONST	SEGMENT
__real@428c0000 DD 0428c0000r			; 70
CONST	ENDS
;	COMDAT __real@42480000
CONST	SEGMENT
__real@42480000 DD 042480000r			; 50
CONST	ENDS
;	COMDAT __real@41a00000
CONST	SEGMENT
__real@41a00000 DD 041a00000r			; 20
CONST	ENDS
;	COMDAT __real@41900000
CONST	SEGMENT
__real@41900000 DD 041900000r			; 18
CONST	ENDS
;	COMDAT __real@41700000
CONST	SEGMENT
__real@41700000 DD 041700000r			; 15
CONST	ENDS
;	COMDAT __real@41200000
CONST	SEGMENT
__real@41200000 DD 041200000r			; 10
CONST	ENDS
;	COMDAT __real@40c90fdb
CONST	SEGMENT
__real@40c90fdb DD 040c90fdbr			; 6.28319
CONST	ENDS
;	COMDAT __real@40a00000
CONST	SEGMENT
__real@40a00000 DD 040a00000r			; 5
CONST	ENDS
;	COMDAT __real@40900000
CONST	SEGMENT
__real@40900000 DD 040900000r			; 4.5
CONST	ENDS
;	COMDAT __real@40800000
CONST	SEGMENT
__real@40800000 DD 040800000r			; 4
CONST	ENDS
;	COMDAT __real@40490fdb
CONST	SEGMENT
__real@40490fdb DD 040490fdbr			; 3.14159
CONST	ENDS
;	COMDAT __real@40200000
CONST	SEGMENT
__real@40200000 DD 040200000r			; 2.5
CONST	ENDS
;	COMDAT __real@4000000000000000
CONST	SEGMENT
__real@4000000000000000 DQ 04000000000000000r	; 2
CONST	ENDS
;	COMDAT __real@40000000
CONST	SEGMENT
__real@40000000 DD 040000000r			; 2
CONST	ENDS
;	COMDAT __real@3ff0000000000000
CONST	SEGMENT
__real@3ff0000000000000 DQ 03ff0000000000000r	; 1
CONST	ENDS
;	COMDAT __real@3fe0000000000000
CONST	SEGMENT
__real@3fe0000000000000 DQ 03fe0000000000000r	; 0.5
CONST	ENDS
;	COMDAT __real@3fc90fdb
CONST	SEGMENT
__real@3fc90fdb DD 03fc90fdbr			; 1.5708
CONST	ENDS
;	COMDAT __real@3fc00000
CONST	SEGMENT
__real@3fc00000 DD 03fc00000r			; 1.5
CONST	ENDS
;	COMDAT __real@3f800000
CONST	SEGMENT
__real@3f800000 DD 03f800000r			; 1
CONST	ENDS
;	COMDAT __real@3f79999a
CONST	SEGMENT
__real@3f79999a DD 03f79999ar			; 0.975
CONST	ENDS
;	COMDAT __real@3e99999a
CONST	SEGMENT
__real@3e99999a DD 03e99999ar			; 0.3
CONST	ENDS
;	COMDAT __real@3e800000
CONST	SEGMENT
__real@3e800000 DD 03e800000r			; 0.25
CONST	ENDS
;	COMDAT __real@3dcccccd
CONST	SEGMENT
__real@3dcccccd DD 03dcccccdr			; 0.1
CONST	ENDS
;	COMDAT __real@3c8efa35
CONST	SEGMENT
__real@3c8efa35 DD 03c8efa35r			; 0.0174533
CONST	ENDS
;	COMDAT __real@3c23d70a
CONST	SEGMENT
__real@3c23d70a DD 03c23d70ar			; 0.01
CONST	ENDS
;	COMDAT __real@02081cea
CONST	SEGMENT
__real@02081cea DD 002081cear			; 1e-037
CONST	ENDS
;	COMDAT __real@0000000000000000
CONST	SEGMENT
__real@0000000000000000 DQ 00000000000000000r	; 0
CONST	ENDS
;	COMDAT __real@00000000
CONST	SEGMENT
__real@00000000 DD 000000000r			; 0
CONST	ENDS
;	COMDAT ??_R1A@?0A@EA@?$ScriptRegistrant@VDB_Force_Fire@@@@8
rdata$r	SEGMENT
??_R1A@?0A@EA@?$ScriptRegistrant@VDB_Force_Fire@@@@8 DD FLAT:??_R0?AV?$ScriptRegistrant@VDB_Force_Fire@@@@@8 ; ScriptRegistrant<DB_Force_Fire>::`RTTI Base Class Descriptor at (0,-1,0,64)'
	DD	01H
	DD	00H
	DD	0ffffffffH
	DD	00H
	DD	040H
	DD	FLAT:??_R3?$ScriptRegistrant@VDB_Force_Fire@@@@8
rdata$r	ENDS
;	COMDAT ??_R2?$ScriptRegistrant@VDB_Force_Fire@@@@8
rdata$r	SEGMENT
??_R2?$ScriptRegistrant@VDB_Force_Fire@@@@8 DD FLAT:??_R1A@?0A@EA@?$ScriptRegistrant@VDB_Force_Fire@@@@8 ; ScriptRegistrant<DB_Force_Fire>::`RTTI Base Class Array'
	DD	FLAT:??_R1A@?0A@EA@ScriptFactory@@8
rdata$r	ENDS
;	COMDAT ??_R3?$ScriptRegistrant@VDB_Force_Fire@@@@8
rdata$r	SEGMENT
??_R3?$ScriptRegistrant@VDB_Force_Fire@@@@8 DD 00H	; ScriptRegistrant<DB_Force_Fire>::`RTTI Class Hierarchy Descriptor'
	DD	00H
	DD	02H
	DD	FLAT:??_R2?$ScriptRegistrant@VDB_Force_Fire@@@@8
rdata$r	ENDS
;	COMDAT ??_R0?AV?$ScriptRegistrant@VDB_Force_Fire@@@@@8
_DATA	SEGMENT
??_R0?AV?$ScriptRegistrant@VDB_Force_Fire@@@@@8 DD FLAT:??_7type_info@@6B@ ; ScriptRegistrant<DB_Force_Fire> `RTTI Type Descriptor'
	DD	00H
	DB	'.?AV?$ScriptRegistrant@VDB_Force_Fire@@@@', 00H
_DATA	ENDS
;	COMDAT ??_R4?$ScriptRegistrant@VDB_Force_Fire@@@@6B@
rdata$r	SEGMENT
??_R4?$ScriptRegistrant@VDB_Force_Fire@@@@6B@ DD 00H	; ScriptRegistrant<DB_Force_Fire>::`RTTI Complete Object Locator'
	DD	00H
	DD	00H
	DD	FLAT:??_R0?AV?$ScriptRegistrant@VDB_Force_Fire@@@@@8
	DD	FLAT:??_R3?$ScriptRegistrant@VDB_Force_Fire@@@@8
rdata$r	ENDS
;	COMDAT ??_R1A@?0A@EA@?$ScriptRegistrant@VDB_Replace_When_Repaired@@@@8
rdata$r	SEGMENT
??_R1A@?0A@EA@?$ScriptRegistrant@VDB_Replace_When_Repaired@@@@8 DD FLAT:??_R0?AV?$ScriptRegistrant@VDB_Replace_When_Repaired@@@@@8 ; ScriptRegistrant<DB_Replace_When_Repaired>::`RTTI Base Class Descriptor at (0,-1,0,64)'
	DD	01H
	DD	00H
	DD	0ffffffffH
	DD	00H
	DD	040H
	DD	FLAT:??_R3?$ScriptRegistrant@VDB_Replace_When_Repaired@@@@8
rdata$r	ENDS
;	COMDAT ??_R2?$ScriptRegistrant@VDB_Replace_When_Repaired@@@@8
rdata$r	SEGMENT
??_R2?$ScriptRegistrant@VDB_Replace_When_Repaired@@@@8 DD FLAT:??_R1A@?0A@EA@?$ScriptRegistrant@VDB_Replace_When_Repaired@@@@8 ; ScriptRegistrant<DB_Replace_When_Repaired>::`RTTI Base Class Array'
	DD	FLAT:??_R1A@?0A@EA@ScriptFactory@@8
rdata$r	ENDS
;	COMDAT ??_R3?$ScriptRegistrant@VDB_Replace_When_Repaired@@@@8
rdata$r	SEGMENT
??_R3?$ScriptRegistrant@VDB_Replace_When_Repaired@@@@8 DD 00H ; ScriptRegistrant<DB_Replace_When_Repaired>::`RTTI Class Hierarchy Descriptor'
	DD	00H
	DD	02H
	DD	FLAT:??_R2?$ScriptRegistrant@VDB_Replace_When_Repaired@@@@8
rdata$r	ENDS
;	COMDAT ??_R0?AV?$ScriptRegistrant@VDB_Replace_When_Repaired@@@@@8
_DATA	SEGMENT
??_R0?AV?$ScriptRegistrant@VDB_Replace_When_Repaired@@@@@8 DD FLAT:??_7type_info@@6B@ ; ScriptRegistrant<DB_Replace_When_Repaired> `RTTI Type Descriptor'
	DD	00H
	DB	'.?AV?$ScriptRegistrant@VDB_Replace_When_Repaired@@@@', 00H
_DATA	ENDS
;	COMDAT ??_R4?$ScriptRegistrant@VDB_Replace_When_Repaired@@@@6B@
rdata$r	SEGMENT
??_R4?$ScriptRegistrant@VDB_Replace_When_Repaired@@@@6B@ DD 00H ; ScriptRegistrant<DB_Replace_When_Repaired>::`RTTI Complete Object Locator'
	DD	00H
	DD	00H
	DD	FLAT:??_R0?AV?$ScriptRegistrant@VDB_Replace_When_Repaired@@@@@8
	DD	FLAT:??_R3?$ScriptRegistrant@VDB_Replace_When_Repaired@@@@8
rdata$r	ENDS
;	COMDAT ??_R1A@?0A@EA@?$ScriptRegistrant@VDB_Spawn_When_Killed@@@@8
rdata$r	SEGMENT
??_R1A@?0A@EA@?$ScriptRegistrant@VDB_Spawn_When_Killed@@@@8 DD FLAT:??_R0?AV?$ScriptRegistrant@VDB_Spawn_When_Killed@@@@@8 ; ScriptRegistrant<DB_Spawn_When_Killed>::`RTTI Base Class Descriptor at (0,-1,0,64)'
	DD	01H
	DD	00H
	DD	0ffffffffH
	DD	00H
	DD	040H
	DD	FLAT:??_R3?$ScriptRegistrant@VDB_Spawn_When_Killed@@@@8
rdata$r	ENDS
;	COMDAT ??_R2?$ScriptRegistrant@VDB_Spawn_When_Killed@@@@8
rdata$r	SEGMENT
??_R2?$ScriptRegistrant@VDB_Spawn_When_Killed@@@@8 DD FLAT:??_R1A@?0A@EA@?$ScriptRegistrant@VDB_Spawn_When_Killed@@@@8 ; ScriptRegistrant<DB_Spawn_When_Killed>::`RTTI Base Class Array'
	DD	FLAT:??_R1A@?0A@EA@ScriptFactory@@8
rdata$r	ENDS
;	COMDAT ??_R3?$ScriptRegistrant@VDB_Spawn_When_Killed@@@@8
rdata$r	SEGMENT
??_R3?$ScriptRegistrant@VDB_Spawn_When_Killed@@@@8 DD 00H ; ScriptRegistrant<DB_Spawn_When_Killed>::`RTTI Class Hierarchy Descriptor'
	DD	00H
	DD	02H
	DD	FLAT:??_R2?$ScriptRegistrant@VDB_Spawn_When_Killed@@@@8
rdata$r	ENDS
;	COMDAT ??_R0?AV?$ScriptRegistrant@VDB_Spawn_When_Killed@@@@@8
_DATA	SEGMENT
??_R0?AV?$ScriptRegistrant@VDB_Spawn_When_Killed@@@@@8 DD FLAT:??_7type_info@@6B@ ; ScriptRegistrant<DB_Spawn_When_Killed> `RTTI Type Descriptor'
	DD	00H
	DB	'.?AV?$ScriptRegistrant@VDB_Spawn_When_Killed@@@@', 00H
_DATA	ENDS
;	COMDAT ??_R4?$ScriptRegistrant@VDB_Spawn_When_Killed@@@@6B@
rdata$r	SEGMENT
??_R4?$ScriptRegistrant@VDB_Spawn_When_Killed@@@@6B@ DD 00H ; ScriptRegistrant<DB_Spawn_When_Killed>::`RTTI Complete Object Locator'
	DD	00H
	DD	00H
	DD	FLAT:??_R0?AV?$ScriptRegistrant@VDB_Spawn_When_Killed@@@@@8
	DD	FLAT:??_R3?$ScriptRegistrant@VDB_Spawn_When_Killed@@@@8
rdata$r	ENDS
;	COMDAT ??_R1A@?0A@EA@?$ScriptRegistrant@VDB_Set_PT_Slot@@@@8
rdata$r	SEGMENT
??_R1A@?0A@EA@?$ScriptRegistrant@VDB_Set_PT_Slot@@@@8 DD FLAT:??_R0?AV?$ScriptRegistrant@VDB_Set_PT_Slot@@@@@8 ; ScriptRegistrant<DB_Set_PT_Slot>::`RTTI Base Class Descriptor at (0,-1,0,64)'
	DD	01H
	DD	00H
	DD	0ffffffffH
	DD	00H
	DD	040H
	DD	FLAT:??_R3?$ScriptRegistrant@VDB_Set_PT_Slot@@@@8
rdata$r	ENDS
;	COMDAT ??_R2?$ScriptRegistrant@VDB_Set_PT_Slot@@@@8
rdata$r	SEGMENT
??_R2?$ScriptRegistrant@VDB_Set_PT_Slot@@@@8 DD FLAT:??_R1A@?0A@EA@?$ScriptRegistrant@VDB_Set_PT_Slot@@@@8 ; ScriptRegistrant<DB_Set_PT_Slot>::`RTTI Base Class Array'
	DD	FLAT:??_R1A@?0A@EA@ScriptFactory@@8
rdata$r	ENDS
;	COMDAT ??_R3?$ScriptRegistrant@VDB_Set_PT_Slot@@@@8
rdata$r	SEGMENT
??_R3?$ScriptRegistrant@VDB_Set_PT_Slot@@@@8 DD 00H	; ScriptRegistrant<DB_Set_PT_Slot>::`RTTI Class Hierarchy Descriptor'
	DD	00H
	DD	02H
	DD	FLAT:??_R2?$ScriptRegistrant@VDB_Set_PT_Slot@@@@8
rdata$r	ENDS
;	COMDAT ??_R0?AV?$ScriptRegistrant@VDB_Set_PT_Slot@@@@@8
_DATA	SEGMENT
??_R0?AV?$ScriptRegistrant@VDB_Set_PT_Slot@@@@@8 DD FLAT:??_7type_info@@6B@ ; ScriptRegistrant<DB_Set_PT_Slot> `RTTI Type Descriptor'
	DD	00H
	DB	'.?AV?$ScriptRegistrant@VDB_Set_PT_Slot@@@@', 00H
_DATA	ENDS
;	COMDAT ??_R4?$ScriptRegistrant@VDB_Set_PT_Slot@@@@6B@
rdata$r	SEGMENT
??_R4?$ScriptRegistrant@VDB_Set_PT_Slot@@@@6B@ DD 00H	; ScriptRegistrant<DB_Set_PT_Slot>::`RTTI Complete Object Locator'
	DD	00H
	DD	00H
	DD	FLAT:??_R0?AV?$ScriptRegistrant@VDB_Set_PT_Slot@@@@@8
	DD	FLAT:??_R3?$ScriptRegistrant@VDB_Set_PT_Slot@@@@8
rdata$r	ENDS
;	COMDAT ??_R1A@?0A@EA@?$ScriptRegistrant@VDB_Damage_Vehicle_Occupants_Area_Killed@@@@8
rdata$r	SEGMENT
??_R1A@?0A@EA@?$ScriptRegistrant@VDB_Damage_Vehicle_Occupants_Area_Killed@@@@8 DD FLAT:??_R0?AV?$ScriptRegistrant@VDB_Damage_Vehicle_Occupants_Area_Killed@@@@@8 ; ScriptRegistrant<DB_Damage_Vehicle_Occupants_Area_Killed>::`RTTI Base Class Descriptor at (0,-1,0,64)'
	DD	01H
	DD	00H
	DD	0ffffffffH
	DD	00H
	DD	040H
	DD	FLAT:??_R3?$ScriptRegistrant@VDB_Damage_Vehicle_Occupants_Area_Killed@@@@8
rdata$r	ENDS
;	COMDAT ??_R2?$ScriptRegistrant@VDB_Damage_Vehicle_Occupants_Area_Killed@@@@8
rdata$r	SEGMENT
??_R2?$ScriptRegistrant@VDB_Damage_Vehicle_Occupants_Area_Killed@@@@8 DD FLAT:??_R1A@?0A@EA@?$ScriptRegistrant@VDB_Damage_Vehicle_Occupants_Area_Killed@@@@8 ; ScriptRegistrant<DB_Damage_Vehicle_Occupants_Area_Killed>::`RTTI Base Class Array'
	DD	FLAT:??_R1A@?0A@EA@ScriptFactory@@8
rdata$r	ENDS
;	COMDAT ??_R3?$ScriptRegistrant@VDB_Damage_Vehicle_Occupants_Area_Killed@@@@8
rdata$r	SEGMENT
??_R3?$ScriptRegistrant@VDB_Damage_Vehicle_Occupants_Area_Killed@@@@8 DD 00H ; ScriptRegistrant<DB_Damage_Vehicle_Occupants_Area_Killed>::`RTTI Class Hierarchy Descriptor'
	DD	00H
	DD	02H
	DD	FLAT:??_R2?$ScriptRegistrant@VDB_Damage_Vehicle_Occupants_Area_Killed@@@@8
rdata$r	ENDS
;	COMDAT ??_R0?AV?$ScriptRegistrant@VDB_Damage_Vehicle_Occupants_Area_Killed@@@@@8
_DATA	SEGMENT
??_R0?AV?$ScriptRegistrant@VDB_Damage_Vehicle_Occupants_Area_Killed@@@@@8 DD FLAT:??_7type_info@@6B@ ; ScriptRegistrant<DB_Damage_Vehicle_Occupants_Area_Killed> `RTTI Type Descriptor'
	DD	00H
	DB	'.?AV?$ScriptRegistrant@VDB_Damage_Vehicle_Occupants_Area'
	DB	'_Killed@@@@', 00H
_DATA	ENDS
;	COMDAT ??_R4?$ScriptRegistrant@VDB_Damage_Vehicle_Occupants_Area_Killed@@@@6B@
rdata$r	SEGMENT
??_R4?$ScriptRegistrant@VDB_Damage_Vehicle_Occupants_Area_Killed@@@@6B@ DD 00H ; ScriptRegistrant<DB_Damage_Vehicle_Occupants_Area_Killed>::`RTTI Complete Object Locator'
	DD	00H
	DD	00H
	DD	FLAT:??_R0?AV?$ScriptRegistrant@VDB_Damage_Vehicle_Occupants_Area_Killed@@@@@8
	DD	FLAT:??_R3?$ScriptRegistrant@VDB_Damage_Vehicle_Occupants_Area_Killed@@@@8
rdata$r	ENDS
;	COMDAT ??_R1A@?0A@EA@?$ScriptRegistrant@VDB_Damage_Vehicle_Occupants_Area_Timer@@@@8
rdata$r	SEGMENT
??_R1A@?0A@EA@?$ScriptRegistrant@VDB_Damage_Vehicle_Occupants_Area_Timer@@@@8 DD FLAT:??_R0?AV?$ScriptRegistrant@VDB_Damage_Vehicle_Occupants_Area_Timer@@@@@8 ; ScriptRegistrant<DB_Damage_Vehicle_Occupants_Area_Timer>::`RTTI Base Class Descriptor at (0,-1,0,64)'
	DD	01H
	DD	00H
	DD	0ffffffffH
	DD	00H
	DD	040H
	DD	FLAT:??_R3?$ScriptRegistrant@VDB_Damage_Vehicle_Occupants_Area_Timer@@@@8
rdata$r	ENDS
;	COMDAT ??_R2?$ScriptRegistrant@VDB_Damage_Vehicle_Occupants_Area_Timer@@@@8
rdata$r	SEGMENT
??_R2?$ScriptRegistrant@VDB_Damage_Vehicle_Occupants_Area_Timer@@@@8 DD FLAT:??_R1A@?0A@EA@?$ScriptRegistrant@VDB_Damage_Vehicle_Occupants_Area_Timer@@@@8 ; ScriptRegistrant<DB_Damage_Vehicle_Occupants_Area_Timer>::`RTTI Base Class Array'
	DD	FLAT:??_R1A@?0A@EA@ScriptFactory@@8
rdata$r	ENDS
;	COMDAT ??_R3?$ScriptRegistrant@VDB_Damage_Vehicle_Occupants_Area_Timer@@@@8
rdata$r	SEGMENT
??_R3?$ScriptRegistrant@VDB_Damage_Vehicle_Occupants_Area_Timer@@@@8 DD 00H ; ScriptRegistrant<DB_Damage_Vehicle_Occupants_Area_Timer>::`RTTI Class Hierarchy Descriptor'
	DD	00H
	DD	02H
	DD	FLAT:??_R2?$ScriptRegistrant@VDB_Damage_Vehicle_Occupants_Area_Timer@@@@8
rdata$r	ENDS
;	COMDAT ??_R0?AV?$ScriptRegistrant@VDB_Damage_Vehicle_Occupants_Area_Timer@@@@@8
_DATA	SEGMENT
??_R0?AV?$ScriptRegistrant@VDB_Damage_Vehicle_Occupants_Area_Timer@@@@@8 DD FLAT:??_7type_info@@6B@ ; ScriptRegistrant<DB_Damage_Vehicle_Occupants_Area_Timer> `RTTI Type Descriptor'
	DD	00H
	DB	'.?AV?$ScriptRegistrant@VDB_Damage_Vehicle_Occupants_Area'
	DB	'_Timer@@@@', 00H
_DATA	ENDS
;	COMDAT ??_R4?$ScriptRegistrant@VDB_Damage_Vehicle_Occupants_Area_Timer@@@@6B@
rdata$r	SEGMENT
??_R4?$ScriptRegistrant@VDB_Damage_Vehicle_Occupants_Area_Timer@@@@6B@ DD 00H ; ScriptRegistrant<DB_Damage_Vehicle_Occupants_Area_Timer>::`RTTI Complete Object Locator'
	DD	00H
	DD	00H
	DD	FLAT:??_R0?AV?$ScriptRegistrant@VDB_Damage_Vehicle_Occupants_Area_Timer@@@@@8
	DD	FLAT:??_R3?$ScriptRegistrant@VDB_Damage_Vehicle_Occupants_Area_Timer@@@@8
rdata$r	ENDS
;	COMDAT ??_R1A@?0A@EA@?$ScriptRegistrant@VDB_Supply_Truck@@@@8
rdata$r	SEGMENT
??_R1A@?0A@EA@?$ScriptRegistrant@VDB_Supply_Truck@@@@8 DD FLAT:??_R0?AV?$ScriptRegistrant@VDB_Supply_Truck@@@@@8 ; ScriptRegistrant<DB_Supply_Truck>::`RTTI Base Class Descriptor at (0,-1,0,64)'
	DD	01H
	DD	00H
	DD	0ffffffffH
	DD	00H
	DD	040H
	DD	FLAT:??_R3?$ScriptRegistrant@VDB_Supply_Truck@@@@8
rdata$r	ENDS
;	COMDAT ??_R2?$ScriptRegistrant@VDB_Supply_Truck@@@@8
rdata$r	SEGMENT
??_R2?$ScriptRegistrant@VDB_Supply_Truck@@@@8 DD FLAT:??_R1A@?0A@EA@?$ScriptRegistrant@VDB_Supply_Truck@@@@8 ; ScriptRegistrant<DB_Supply_Truck>::`RTTI Base Class Array'
	DD	FLAT:??_R1A@?0A@EA@ScriptFactory@@8
rdata$r	ENDS
;	COMDAT ??_R3?$ScriptRegistrant@VDB_Supply_Truck@@@@8
rdata$r	SEGMENT
??_R3?$ScriptRegistrant@VDB_Supply_Truck@@@@8 DD 00H	; ScriptRegistrant<DB_Supply_Truck>::`RTTI Class Hierarchy Descriptor'
	DD	00H
	DD	02H
	DD	FLAT:??_R2?$ScriptRegistrant@VDB_Supply_Truck@@@@8
rdata$r	ENDS
;	COMDAT ??_R0?AV?$ScriptRegistrant@VDB_Supply_Truck@@@@@8
_DATA	SEGMENT
??_R0?AV?$ScriptRegistrant@VDB_Supply_Truck@@@@@8 DD FLAT:??_7type_info@@6B@ ; ScriptRegistrant<DB_Supply_Truck> `RTTI Type Descriptor'
	DD	00H
	DB	'.?AV?$ScriptRegistrant@VDB_Supply_Truck@@@@', 00H
_DATA	ENDS
;	COMDAT ??_R4?$ScriptRegistrant@VDB_Supply_Truck@@@@6B@
rdata$r	SEGMENT
??_R4?$ScriptRegistrant@VDB_Supply_Truck@@@@6B@ DD 00H	; ScriptRegistrant<DB_Supply_Truck>::`RTTI Complete Object Locator'
	DD	00H
	DD	00H
	DD	FLAT:??_R0?AV?$ScriptRegistrant@VDB_Supply_Truck@@@@@8
	DD	FLAT:??_R3?$ScriptRegistrant@VDB_Supply_Truck@@@@8
rdata$r	ENDS
;	COMDAT ??_R1A@?0A@EA@?$ScriptRegistrant@VDB_Wreckage_Rebuildable@@@@8
rdata$r	SEGMENT
??_R1A@?0A@EA@?$ScriptRegistrant@VDB_Wreckage_Rebuildable@@@@8 DD FLAT:??_R0?AV?$ScriptRegistrant@VDB_Wreckage_Rebuildable@@@@@8 ; ScriptRegistrant<DB_Wreckage_Rebuildable>::`RTTI Base Class Descriptor at (0,-1,0,64)'
	DD	01H
	DD	00H
	DD	0ffffffffH
	DD	00H
	DD	040H
	DD	FLAT:??_R3?$ScriptRegistrant@VDB_Wreckage_Rebuildable@@@@8
rdata$r	ENDS
;	COMDAT ??_R2?$ScriptRegistrant@VDB_Wreckage_Rebuildable@@@@8
rdata$r	SEGMENT
??_R2?$ScriptRegistrant@VDB_Wreckage_Rebuildable@@@@8 DD FLAT:??_R1A@?0A@EA@?$ScriptRegistrant@VDB_Wreckage_Rebuildable@@@@8 ; ScriptRegistrant<DB_Wreckage_Rebuildable>::`RTTI Base Class Array'
	DD	FLAT:??_R1A@?0A@EA@ScriptFactory@@8
rdata$r	ENDS
;	COMDAT ??_R3?$ScriptRegistrant@VDB_Wreckage_Rebuildable@@@@8
rdata$r	SEGMENT
??_R3?$ScriptRegistrant@VDB_Wreckage_Rebuildable@@@@8 DD 00H ; ScriptRegistrant<DB_Wreckage_Rebuildable>::`RTTI Class Hierarchy Descriptor'
	DD	00H
	DD	02H
	DD	FLAT:??_R2?$ScriptRegistrant@VDB_Wreckage_Rebuildable@@@@8
rdata$r	ENDS
;	COMDAT ??_R0?AV?$ScriptRegistrant@VDB_Wreckage_Rebuildable@@@@@8
_DATA	SEGMENT
??_R0?AV?$ScriptRegistrant@VDB_Wreckage_Rebuildable@@@@@8 DD FLAT:??_7type_info@@6B@ ; ScriptRegistrant<DB_Wreckage_Rebuildable> `RTTI Type Descriptor'
	DD	00H
	DB	'.?AV?$ScriptRegistrant@VDB_Wreckage_Rebuildable@@@@', 00H
_DATA	ENDS
;	COMDAT ??_R4?$ScriptRegistrant@VDB_Wreckage_Rebuildable@@@@6B@
rdata$r	SEGMENT
??_R4?$ScriptRegistrant@VDB_Wreckage_Rebuildable@@@@6B@ DD 00H ; ScriptRegistrant<DB_Wreckage_Rebuildable>::`RTTI Complete Object Locator'
	DD	00H
	DD	00H
	DD	FLAT:??_R0?AV?$ScriptRegistrant@VDB_Wreckage_Rebuildable@@@@@8
	DD	FLAT:??_R3?$ScriptRegistrant@VDB_Wreckage_Rebuildable@@@@8
rdata$r	ENDS
;	COMDAT ??_R1A@?0A@EA@?$ScriptRegistrant@VDB_Drop_Wreckage_On_Death@@@@8
rdata$r	SEGMENT
??_R1A@?0A@EA@?$ScriptRegistrant@VDB_Drop_Wreckage_On_Death@@@@8 DD FLAT:??_R0?AV?$ScriptRegistrant@VDB_Drop_Wreckage_On_Death@@@@@8 ; ScriptRegistrant<DB_Drop_Wreckage_On_Death>::`RTTI Base Class Descriptor at (0,-1,0,64)'
	DD	01H
	DD	00H
	DD	0ffffffffH
	DD	00H
	DD	040H
	DD	FLAT:??_R3?$ScriptRegistrant@VDB_Drop_Wreckage_On_Death@@@@8
rdata$r	ENDS
;	COMDAT ??_R2?$ScriptRegistrant@VDB_Drop_Wreckage_On_Death@@@@8
rdata$r	SEGMENT
??_R2?$ScriptRegistrant@VDB_Drop_Wreckage_On_Death@@@@8 DD FLAT:??_R1A@?0A@EA@?$ScriptRegistrant@VDB_Drop_Wreckage_On_Death@@@@8 ; ScriptRegistrant<DB_Drop_Wreckage_On_Death>::`RTTI Base Class Array'
	DD	FLAT:??_R1A@?0A@EA@ScriptFactory@@8
rdata$r	ENDS
;	COMDAT ??_R3?$ScriptRegistrant@VDB_Drop_Wreckage_On_Death@@@@8
rdata$r	SEGMENT
??_R3?$ScriptRegistrant@VDB_Drop_Wreckage_On_Death@@@@8 DD 00H ; ScriptRegistrant<DB_Drop_Wreckage_On_Death>::`RTTI Class Hierarchy Descriptor'
	DD	00H
	DD	02H
	DD	FLAT:??_R2?$ScriptRegistrant@VDB_Drop_Wreckage_On_Death@@@@8
rdata$r	ENDS
;	COMDAT ??_R0?AV?$ScriptRegistrant@VDB_Drop_Wreckage_On_Death@@@@@8
_DATA	SEGMENT
??_R0?AV?$ScriptRegistrant@VDB_Drop_Wreckage_On_Death@@@@@8 DD FLAT:??_7type_info@@6B@ ; ScriptRegistrant<DB_Drop_Wreckage_On_Death> `RTTI Type Descriptor'
	DD	00H
	DB	'.?AV?$ScriptRegistrant@VDB_Drop_Wreckage_On_Death@@@@', 00H
_DATA	ENDS
;	COMDAT ??_R4?$ScriptRegistrant@VDB_Drop_Wreckage_On_Death@@@@6B@
rdata$r	SEGMENT
??_R4?$ScriptRegistrant@VDB_Drop_Wreckage_On_Death@@@@6B@ DD 00H ; ScriptRegistrant<DB_Drop_Wreckage_On_Death>::`RTTI Complete Object Locator'
	DD	00H
	DD	00H
	DD	FLAT:??_R0?AV?$ScriptRegistrant@VDB_Drop_Wreckage_On_Death@@@@@8
	DD	FLAT:??_R3?$ScriptRegistrant@VDB_Drop_Wreckage_On_Death@@@@8
rdata$r	ENDS
;	COMDAT ??_R1A@?0A@EA@?$ScriptRegistrant@VDB_Visible_Passenger@@@@8
rdata$r	SEGMENT
??_R1A@?0A@EA@?$ScriptRegistrant@VDB_Visible_Passenger@@@@8 DD FLAT:??_R0?AV?$ScriptRegistrant@VDB_Visible_Passenger@@@@@8 ; ScriptRegistrant<DB_Visible_Passenger>::`RTTI Base Class Descriptor at (0,-1,0,64)'
	DD	01H
	DD	00H
	DD	0ffffffffH
	DD	00H
	DD	040H
	DD	FLAT:??_R3?$ScriptRegistrant@VDB_Visible_Passenger@@@@8
rdata$r	ENDS
;	COMDAT ??_R2?$ScriptRegistrant@VDB_Visible_Passenger@@@@8
rdata$r	SEGMENT
??_R2?$ScriptRegistrant@VDB_Visible_Passenger@@@@8 DD FLAT:??_R1A@?0A@EA@?$ScriptRegistrant@VDB_Visible_Passenger@@@@8 ; ScriptRegistrant<DB_Visible_Passenger>::`RTTI Base Class Array'
	DD	FLAT:??_R1A@?0A@EA@ScriptFactory@@8
rdata$r	ENDS
;	COMDAT ??_R3?$ScriptRegistrant@VDB_Visible_Passenger@@@@8
rdata$r	SEGMENT
??_R3?$ScriptRegistrant@VDB_Visible_Passenger@@@@8 DD 00H ; ScriptRegistrant<DB_Visible_Passenger>::`RTTI Class Hierarchy Descriptor'
	DD	00H
	DD	02H
	DD	FLAT:??_R2?$ScriptRegistrant@VDB_Visible_Passenger@@@@8
rdata$r	ENDS
;	COMDAT ??_R0?AV?$ScriptRegistrant@VDB_Visible_Passenger@@@@@8
_DATA	SEGMENT
??_R0?AV?$ScriptRegistrant@VDB_Visible_Passenger@@@@@8 DD FLAT:??_7type_info@@6B@ ; ScriptRegistrant<DB_Visible_Passenger> `RTTI Type Descriptor'
	DD	00H
	DB	'.?AV?$ScriptRegistrant@VDB_Visible_Passenger@@@@', 00H
_DATA	ENDS
;	COMDAT ??_R4?$ScriptRegistrant@VDB_Visible_Passenger@@@@6B@
rdata$r	SEGMENT
??_R4?$ScriptRegistrant@VDB_Visible_Passenger@@@@6B@ DD 00H ; ScriptRegistrant<DB_Visible_Passenger>::`RTTI Complete Object Locator'
	DD	00H
	DD	00H
	DD	FLAT:??_R0?AV?$ScriptRegistrant@VDB_Visible_Passenger@@@@@8
	DD	FLAT:??_R3?$ScriptRegistrant@VDB_Visible_Passenger@@@@8
rdata$r	ENDS
;	COMDAT ??_R1A@?0A@EA@?$ScriptRegistrant@VDB_Health_Sound_Timer@@@@8
rdata$r	SEGMENT
??_R1A@?0A@EA@?$ScriptRegistrant@VDB_Health_Sound_Timer@@@@8 DD FLAT:??_R0?AV?$ScriptRegistrant@VDB_Health_Sound_Timer@@@@@8 ; ScriptRegistrant<DB_Health_Sound_Timer>::`RTTI Base Class Descriptor at (0,-1,0,64)'
	DD	01H
	DD	00H
	DD	0ffffffffH
	DD	00H
	DD	040H
	DD	FLAT:??_R3?$ScriptRegistrant@VDB_Health_Sound_Timer@@@@8
rdata$r	ENDS
;	COMDAT ??_R2?$ScriptRegistrant@VDB_Health_Sound_Timer@@@@8
rdata$r	SEGMENT
??_R2?$ScriptRegistrant@VDB_Health_Sound_Timer@@@@8 DD FLAT:??_R1A@?0A@EA@?$ScriptRegistrant@VDB_Health_Sound_Timer@@@@8 ; ScriptRegistrant<DB_Health_Sound_Timer>::`RTTI Base Class Array'
	DD	FLAT:??_R1A@?0A@EA@ScriptFactory@@8
rdata$r	ENDS
;	COMDAT ??_R3?$ScriptRegistrant@VDB_Health_Sound_Timer@@@@8
rdata$r	SEGMENT
??_R3?$ScriptRegistrant@VDB_Health_Sound_Timer@@@@8 DD 00H ; ScriptRegistrant<DB_Health_Sound_Timer>::`RTTI Class Hierarchy Descriptor'
	DD	00H
	DD	02H
	DD	FLAT:??_R2?$ScriptRegistrant@VDB_Health_Sound_Timer@@@@8
rdata$r	ENDS
;	COMDAT ??_R0?AV?$ScriptRegistrant@VDB_Health_Sound_Timer@@@@@8
_DATA	SEGMENT
??_R0?AV?$ScriptRegistrant@VDB_Health_Sound_Timer@@@@@8 DD FLAT:??_7type_info@@6B@ ; ScriptRegistrant<DB_Health_Sound_Timer> `RTTI Type Descriptor'
	DD	00H
	DB	'.?AV?$ScriptRegistrant@VDB_Health_Sound_Timer@@@@', 00H
_DATA	ENDS
;	COMDAT ??_R4?$ScriptRegistrant@VDB_Health_Sound_Timer@@@@6B@
rdata$r	SEGMENT
??_R4?$ScriptRegistrant@VDB_Health_Sound_Timer@@@@6B@ DD 00H ; ScriptRegistrant<DB_Health_Sound_Timer>::`RTTI Complete Object Locator'
	DD	00H
	DD	00H
	DD	FLAT:??_R0?AV?$ScriptRegistrant@VDB_Health_Sound_Timer@@@@@8
	DD	FLAT:??_R3?$ScriptRegistrant@VDB_Health_Sound_Timer@@@@8
rdata$r	ENDS
;	COMDAT ??_R1A@?0A@EA@?$ScriptRegistrant@VDB_Turret_Bombard_Player@@@@8
rdata$r	SEGMENT
??_R1A@?0A@EA@?$ScriptRegistrant@VDB_Turret_Bombard_Player@@@@8 DD FLAT:??_R0?AV?$ScriptRegistrant@VDB_Turret_Bombard_Player@@@@@8 ; ScriptRegistrant<DB_Turret_Bombard_Player>::`RTTI Base Class Descriptor at (0,-1,0,64)'
	DD	01H
	DD	00H
	DD	0ffffffffH
	DD	00H
	DD	040H
	DD	FLAT:??_R3?$ScriptRegistrant@VDB_Turret_Bombard_Player@@@@8
rdata$r	ENDS
;	COMDAT ??_R2?$ScriptRegistrant@VDB_Turret_Bombard_Player@@@@8
rdata$r	SEGMENT
??_R2?$ScriptRegistrant@VDB_Turret_Bombard_Player@@@@8 DD FLAT:??_R1A@?0A@EA@?$ScriptRegistrant@VDB_Turret_Bombard_Player@@@@8 ; ScriptRegistrant<DB_Turret_Bombard_Player>::`RTTI Base Class Array'
	DD	FLAT:??_R1A@?0A@EA@ScriptFactory@@8
rdata$r	ENDS
;	COMDAT ??_R3?$ScriptRegistrant@VDB_Turret_Bombard_Player@@@@8
rdata$r	SEGMENT
??_R3?$ScriptRegistrant@VDB_Turret_Bombard_Player@@@@8 DD 00H ; ScriptRegistrant<DB_Turret_Bombard_Player>::`RTTI Class Hierarchy Descriptor'
	DD	00H
	DD	02H
	DD	FLAT:??_R2?$ScriptRegistrant@VDB_Turret_Bombard_Player@@@@8
rdata$r	ENDS
;	COMDAT ??_R0?AV?$ScriptRegistrant@VDB_Turret_Bombard_Player@@@@@8
_DATA	SEGMENT
??_R0?AV?$ScriptRegistrant@VDB_Turret_Bombard_Player@@@@@8 DD FLAT:??_7type_info@@6B@ ; ScriptRegistrant<DB_Turret_Bombard_Player> `RTTI Type Descriptor'
	DD	00H
	DB	'.?AV?$ScriptRegistrant@VDB_Turret_Bombard_Player@@@@', 00H
_DATA	ENDS
;	COMDAT ??_R4?$ScriptRegistrant@VDB_Turret_Bombard_Player@@@@6B@
rdata$r	SEGMENT
??_R4?$ScriptRegistrant@VDB_Turret_Bombard_Player@@@@6B@ DD 00H ; ScriptRegistrant<DB_Turret_Bombard_Player>::`RTTI Complete Object Locator'
	DD	00H
	DD	00H
	DD	FLAT:??_R0?AV?$ScriptRegistrant@VDB_Turret_Bombard_Player@@@@@8
	DD	FLAT:??_R3?$ScriptRegistrant@VDB_Turret_Bombard_Player@@@@8
rdata$r	ENDS
;	COMDAT ??_R1A@?0A@EA@?$ScriptRegistrant@VDB_Turret_Bombard_Ability@@@@8
rdata$r	SEGMENT
??_R1A@?0A@EA@?$ScriptRegistrant@VDB_Turret_Bombard_Ability@@@@8 DD FLAT:??_R0?AV?$ScriptRegistrant@VDB_Turret_Bombard_Ability@@@@@8 ; ScriptRegistrant<DB_Turret_Bombard_Ability>::`RTTI Base Class Descriptor at (0,-1,0,64)'
	DD	01H
	DD	00H
	DD	0ffffffffH
	DD	00H
	DD	040H
	DD	FLAT:??_R3?$ScriptRegistrant@VDB_Turret_Bombard_Ability@@@@8
rdata$r	ENDS
;	COMDAT ??_R2?$ScriptRegistrant@VDB_Turret_Bombard_Ability@@@@8
rdata$r	SEGMENT
??_R2?$ScriptRegistrant@VDB_Turret_Bombard_Ability@@@@8 DD FLAT:??_R1A@?0A@EA@?$ScriptRegistrant@VDB_Turret_Bombard_Ability@@@@8 ; ScriptRegistrant<DB_Turret_Bombard_Ability>::`RTTI Base Class Array'
	DD	FLAT:??_R1A@?0A@EA@ScriptFactory@@8
rdata$r	ENDS
;	COMDAT ??_R3?$ScriptRegistrant@VDB_Turret_Bombard_Ability@@@@8
rdata$r	SEGMENT
??_R3?$ScriptRegistrant@VDB_Turret_Bombard_Ability@@@@8 DD 00H ; ScriptRegistrant<DB_Turret_Bombard_Ability>::`RTTI Class Hierarchy Descriptor'
	DD	00H
	DD	02H
	DD	FLAT:??_R2?$ScriptRegistrant@VDB_Turret_Bombard_Ability@@@@8
rdata$r	ENDS
;	COMDAT ??_R0?AV?$ScriptRegistrant@VDB_Turret_Bombard_Ability@@@@@8
_DATA	SEGMENT
??_R0?AV?$ScriptRegistrant@VDB_Turret_Bombard_Ability@@@@@8 DD FLAT:??_7type_info@@6B@ ; ScriptRegistrant<DB_Turret_Bombard_Ability> `RTTI Type Descriptor'
	DD	00H
	DB	'.?AV?$ScriptRegistrant@VDB_Turret_Bombard_Ability@@@@', 00H
_DATA	ENDS
;	COMDAT ??_R4?$ScriptRegistrant@VDB_Turret_Bombard_Ability@@@@6B@
rdata$r	SEGMENT
??_R4?$ScriptRegistrant@VDB_Turret_Bombard_Ability@@@@6B@ DD 00H ; ScriptRegistrant<DB_Turret_Bombard_Ability>::`RTTI Complete Object Locator'
	DD	00H
	DD	00H
	DD	FLAT:??_R0?AV?$ScriptRegistrant@VDB_Turret_Bombard_Ability@@@@@8
	DD	FLAT:??_R3?$ScriptRegistrant@VDB_Turret_Bombard_Ability@@@@8
rdata$r	ENDS
;	COMDAT ??_R1A@?0A@EA@?$ScriptRegistrant@VDB_Orca_Lifter@@@@8
rdata$r	SEGMENT
??_R1A@?0A@EA@?$ScriptRegistrant@VDB_Orca_Lifter@@@@8 DD FLAT:??_R0?AV?$ScriptRegistrant@VDB_Orca_Lifter@@@@@8 ; ScriptRegistrant<DB_Orca_Lifter>::`RTTI Base Class Descriptor at (0,-1,0,64)'
	DD	01H
	DD	00H
	DD	0ffffffffH
	DD	00H
	DD	040H
	DD	FLAT:??_R3?$ScriptRegistrant@VDB_Orca_Lifter@@@@8
rdata$r	ENDS
;	COMDAT ??_R2?$ScriptRegistrant@VDB_Orca_Lifter@@@@8
rdata$r	SEGMENT
??_R2?$ScriptRegistrant@VDB_Orca_Lifter@@@@8 DD FLAT:??_R1A@?0A@EA@?$ScriptRegistrant@VDB_Orca_Lifter@@@@8 ; ScriptRegistrant<DB_Orca_Lifter>::`RTTI Base Class Array'
	DD	FLAT:??_R1A@?0A@EA@ScriptFactory@@8
rdata$r	ENDS
;	COMDAT ??_R3?$ScriptRegistrant@VDB_Orca_Lifter@@@@8
rdata$r	SEGMENT
??_R3?$ScriptRegistrant@VDB_Orca_Lifter@@@@8 DD 00H	; ScriptRegistrant<DB_Orca_Lifter>::`RTTI Class Hierarchy Descriptor'
	DD	00H
	DD	02H
	DD	FLAT:??_R2?$ScriptRegistrant@VDB_Orca_Lifter@@@@8
rdata$r	ENDS
;	COMDAT ??_R0?AV?$ScriptRegistrant@VDB_Orca_Lifter@@@@@8
_DATA	SEGMENT
??_R0?AV?$ScriptRegistrant@VDB_Orca_Lifter@@@@@8 DD FLAT:??_7type_info@@6B@ ; ScriptRegistrant<DB_Orca_Lifter> `RTTI Type Descriptor'
	DD	00H
	DB	'.?AV?$ScriptRegistrant@VDB_Orca_Lifter@@@@', 00H
_DATA	ENDS
;	COMDAT ??_R4?$ScriptRegistrant@VDB_Orca_Lifter@@@@6B@
rdata$r	SEGMENT
??_R4?$ScriptRegistrant@VDB_Orca_Lifter@@@@6B@ DD 00H	; ScriptRegistrant<DB_Orca_Lifter>::`RTTI Complete Object Locator'
	DD	00H
	DD	00H
	DD	FLAT:??_R0?AV?$ScriptRegistrant@VDB_Orca_Lifter@@@@@8
	DD	FLAT:??_R3?$ScriptRegistrant@VDB_Orca_Lifter@@@@8
rdata$r	ENDS
;	COMDAT ??_R1A@?0A@EA@?$ScriptRegistrant@VDB_Vehicle_Visible_Ammo@@@@8
rdata$r	SEGMENT
??_R1A@?0A@EA@?$ScriptRegistrant@VDB_Vehicle_Visible_Ammo@@@@8 DD FLAT:??_R0?AV?$ScriptRegistrant@VDB_Vehicle_Visible_Ammo@@@@@8 ; ScriptRegistrant<DB_Vehicle_Visible_Ammo>::`RTTI Base Class Descriptor at (0,-1,0,64)'
	DD	01H
	DD	00H
	DD	0ffffffffH
	DD	00H
	DD	040H
	DD	FLAT:??_R3?$ScriptRegistrant@VDB_Vehicle_Visible_Ammo@@@@8
rdata$r	ENDS
;	COMDAT ??_R2?$ScriptRegistrant@VDB_Vehicle_Visible_Ammo@@@@8
rdata$r	SEGMENT
??_R2?$ScriptRegistrant@VDB_Vehicle_Visible_Ammo@@@@8 DD FLAT:??_R1A@?0A@EA@?$ScriptRegistrant@VDB_Vehicle_Visible_Ammo@@@@8 ; ScriptRegistrant<DB_Vehicle_Visible_Ammo>::`RTTI Base Class Array'
	DD	FLAT:??_R1A@?0A@EA@ScriptFactory@@8
rdata$r	ENDS
;	COMDAT ??_R3?$ScriptRegistrant@VDB_Vehicle_Visible_Ammo@@@@8
rdata$r	SEGMENT
??_R3?$ScriptRegistrant@VDB_Vehicle_Visible_Ammo@@@@8 DD 00H ; ScriptRegistrant<DB_Vehicle_Visible_Ammo>::`RTTI Class Hierarchy Descriptor'
	DD	00H
	DD	02H
	DD	FLAT:??_R2?$ScriptRegistrant@VDB_Vehicle_Visible_Ammo@@@@8
rdata$r	ENDS
;	COMDAT ??_R0?AV?$ScriptRegistrant@VDB_Vehicle_Visible_Ammo@@@@@8
_DATA	SEGMENT
??_R0?AV?$ScriptRegistrant@VDB_Vehicle_Visible_Ammo@@@@@8 DD FLAT:??_7type_info@@6B@ ; ScriptRegistrant<DB_Vehicle_Visible_Ammo> `RTTI Type Descriptor'
	DD	00H
	DB	'.?AV?$ScriptRegistrant@VDB_Vehicle_Visible_Ammo@@@@', 00H
_DATA	ENDS
;	COMDAT ??_R4?$ScriptRegistrant@VDB_Vehicle_Visible_Ammo@@@@6B@
rdata$r	SEGMENT
??_R4?$ScriptRegistrant@VDB_Vehicle_Visible_Ammo@@@@6B@ DD 00H ; ScriptRegistrant<DB_Vehicle_Visible_Ammo>::`RTTI Complete Object Locator'
	DD	00H
	DD	00H
	DD	FLAT:??_R0?AV?$ScriptRegistrant@VDB_Vehicle_Visible_Ammo@@@@@8
	DD	FLAT:??_R3?$ScriptRegistrant@VDB_Vehicle_Visible_Ammo@@@@8
rdata$r	ENDS
;	COMDAT ??_R1A@?0A@EA@?$ScriptRegistrant@VDB_Spawned_Visible_Ammo@@@@8
rdata$r	SEGMENT
??_R1A@?0A@EA@?$ScriptRegistrant@VDB_Spawned_Visible_Ammo@@@@8 DD FLAT:??_R0?AV?$ScriptRegistrant@VDB_Spawned_Visible_Ammo@@@@@8 ; ScriptRegistrant<DB_Spawned_Visible_Ammo>::`RTTI Base Class Descriptor at (0,-1,0,64)'
	DD	01H
	DD	00H
	DD	0ffffffffH
	DD	00H
	DD	040H
	DD	FLAT:??_R3?$ScriptRegistrant@VDB_Spawned_Visible_Ammo@@@@8
rdata$r	ENDS
;	COMDAT ??_R2?$ScriptRegistrant@VDB_Spawned_Visible_Ammo@@@@8
rdata$r	SEGMENT
??_R2?$ScriptRegistrant@VDB_Spawned_Visible_Ammo@@@@8 DD FLAT:??_R1A@?0A@EA@?$ScriptRegistrant@VDB_Spawned_Visible_Ammo@@@@8 ; ScriptRegistrant<DB_Spawned_Visible_Ammo>::`RTTI Base Class Array'
	DD	FLAT:??_R1A@?0A@EA@ScriptFactory@@8
rdata$r	ENDS
;	COMDAT ??_R3?$ScriptRegistrant@VDB_Spawned_Visible_Ammo@@@@8
rdata$r	SEGMENT
??_R3?$ScriptRegistrant@VDB_Spawned_Visible_Ammo@@@@8 DD 00H ; ScriptRegistrant<DB_Spawned_Visible_Ammo>::`RTTI Class Hierarchy Descriptor'
	DD	00H
	DD	02H
	DD	FLAT:??_R2?$ScriptRegistrant@VDB_Spawned_Visible_Ammo@@@@8
rdata$r	ENDS
;	COMDAT ??_R0?AV?$ScriptRegistrant@VDB_Spawned_Visible_Ammo@@@@@8
_DATA	SEGMENT
??_R0?AV?$ScriptRegistrant@VDB_Spawned_Visible_Ammo@@@@@8 DD FLAT:??_7type_info@@6B@ ; ScriptRegistrant<DB_Spawned_Visible_Ammo> `RTTI Type Descriptor'
	DD	00H
	DB	'.?AV?$ScriptRegistrant@VDB_Spawned_Visible_Ammo@@@@', 00H
_DATA	ENDS
;	COMDAT ??_R4?$ScriptRegistrant@VDB_Spawned_Visible_Ammo@@@@6B@
rdata$r	SEGMENT
??_R4?$ScriptRegistrant@VDB_Spawned_Visible_Ammo@@@@6B@ DD 00H ; ScriptRegistrant<DB_Spawned_Visible_Ammo>::`RTTI Complete Object Locator'
	DD	00H
	DD	00H
	DD	FLAT:??_R0?AV?$ScriptRegistrant@VDB_Spawned_Visible_Ammo@@@@@8
	DD	FLAT:??_R3?$ScriptRegistrant@VDB_Spawned_Visible_Ammo@@@@8
rdata$r	ENDS
;	COMDAT ??_R1A@?0A@EA@?$ScriptRegistrant@VDB_Turret_Spawn@@@@8
rdata$r	SEGMENT
??_R1A@?0A@EA@?$ScriptRegistrant@VDB_Turret_Spawn@@@@8 DD FLAT:??_R0?AV?$ScriptRegistrant@VDB_Turret_Spawn@@@@@8 ; ScriptRegistrant<DB_Turret_Spawn>::`RTTI Base Class Descriptor at (0,-1,0,64)'
	DD	01H
	DD	00H
	DD	0ffffffffH
	DD	00H
	DD	040H
	DD	FLAT:??_R3?$ScriptRegistrant@VDB_Turret_Spawn@@@@8
rdata$r	ENDS
;	COMDAT ??_R2?$ScriptRegistrant@VDB_Turret_Spawn@@@@8
rdata$r	SEGMENT
??_R2?$ScriptRegistrant@VDB_Turret_Spawn@@@@8 DD FLAT:??_R1A@?0A@EA@?$ScriptRegistrant@VDB_Turret_Spawn@@@@8 ; ScriptRegistrant<DB_Turret_Spawn>::`RTTI Base Class Array'
	DD	FLAT:??_R1A@?0A@EA@ScriptFactory@@8
rdata$r	ENDS
;	COMDAT ??_R3?$ScriptRegistrant@VDB_Turret_Spawn@@@@8
rdata$r	SEGMENT
??_R3?$ScriptRegistrant@VDB_Turret_Spawn@@@@8 DD 00H	; ScriptRegistrant<DB_Turret_Spawn>::`RTTI Class Hierarchy Descriptor'
	DD	00H
	DD	02H
	DD	FLAT:??_R2?$ScriptRegistrant@VDB_Turret_Spawn@@@@8
rdata$r	ENDS
;	COMDAT ??_R0?AV?$ScriptRegistrant@VDB_Turret_Spawn@@@@@8
_DATA	SEGMENT
??_R0?AV?$ScriptRegistrant@VDB_Turret_Spawn@@@@@8 DD FLAT:??_7type_info@@6B@ ; ScriptRegistrant<DB_Turret_Spawn> `RTTI Type Descriptor'
	DD	00H
	DB	'.?AV?$ScriptRegistrant@VDB_Turret_Spawn@@@@', 00H
_DATA	ENDS
;	COMDAT ??_R4?$ScriptRegistrant@VDB_Turret_Spawn@@@@6B@
rdata$r	SEGMENT
??_R4?$ScriptRegistrant@VDB_Turret_Spawn@@@@6B@ DD 00H	; ScriptRegistrant<DB_Turret_Spawn>::`RTTI Complete Object Locator'
	DD	00H
	DD	00H
	DD	FLAT:??_R0?AV?$ScriptRegistrant@VDB_Turret_Spawn@@@@@8
	DD	FLAT:??_R3?$ScriptRegistrant@VDB_Turret_Spawn@@@@8
rdata$r	ENDS
;	COMDAT ??_R1A@?0A@EA@?$ScriptRegistrant@VDB_Turret_Sound@@@@8
rdata$r	SEGMENT
??_R1A@?0A@EA@?$ScriptRegistrant@VDB_Turret_Sound@@@@8 DD FLAT:??_R0?AV?$ScriptRegistrant@VDB_Turret_Sound@@@@@8 ; ScriptRegistrant<DB_Turret_Sound>::`RTTI Base Class Descriptor at (0,-1,0,64)'
	DD	01H
	DD	00H
	DD	0ffffffffH
	DD	00H
	DD	040H
	DD	FLAT:??_R3?$ScriptRegistrant@VDB_Turret_Sound@@@@8
rdata$r	ENDS
;	COMDAT ??_R2?$ScriptRegistrant@VDB_Turret_Sound@@@@8
rdata$r	SEGMENT
??_R2?$ScriptRegistrant@VDB_Turret_Sound@@@@8 DD FLAT:??_R1A@?0A@EA@?$ScriptRegistrant@VDB_Turret_Sound@@@@8 ; ScriptRegistrant<DB_Turret_Sound>::`RTTI Base Class Array'
	DD	FLAT:??_R1A@?0A@EA@ScriptFactory@@8
rdata$r	ENDS
;	COMDAT ??_R3?$ScriptRegistrant@VDB_Turret_Sound@@@@8
rdata$r	SEGMENT
??_R3?$ScriptRegistrant@VDB_Turret_Sound@@@@8 DD 00H	; ScriptRegistrant<DB_Turret_Sound>::`RTTI Class Hierarchy Descriptor'
	DD	00H
	DD	02H
	DD	FLAT:??_R2?$ScriptRegistrant@VDB_Turret_Sound@@@@8
rdata$r	ENDS
;	COMDAT ??_R0?AV?$ScriptRegistrant@VDB_Turret_Sound@@@@@8
_DATA	SEGMENT
??_R0?AV?$ScriptRegistrant@VDB_Turret_Sound@@@@@8 DD FLAT:??_7type_info@@6B@ ; ScriptRegistrant<DB_Turret_Sound> `RTTI Type Descriptor'
	DD	00H
	DB	'.?AV?$ScriptRegistrant@VDB_Turret_Sound@@@@', 00H
_DATA	ENDS
;	COMDAT ??_R4?$ScriptRegistrant@VDB_Turret_Sound@@@@6B@
rdata$r	SEGMENT
??_R4?$ScriptRegistrant@VDB_Turret_Sound@@@@6B@ DD 00H	; ScriptRegistrant<DB_Turret_Sound>::`RTTI Complete Object Locator'
	DD	00H
	DD	00H
	DD	FLAT:??_R0?AV?$ScriptRegistrant@VDB_Turret_Sound@@@@@8
	DD	FLAT:??_R3?$ScriptRegistrant@VDB_Turret_Sound@@@@8
rdata$r	ENDS
;	COMDAT ??_R1A@?0A@EA@?$ScriptRegistrant@VDB_Stationary_Stealth@@@@8
rdata$r	SEGMENT
??_R1A@?0A@EA@?$ScriptRegistrant@VDB_Stationary_Stealth@@@@8 DD FLAT:??_R0?AV?$ScriptRegistrant@VDB_Stationary_Stealth@@@@@8 ; ScriptRegistrant<DB_Stationary_Stealth>::`RTTI Base Class Descriptor at (0,-1,0,64)'
	DD	01H
	DD	00H
	DD	0ffffffffH
	DD	00H
	DD	040H
	DD	FLAT:??_R3?$ScriptRegistrant@VDB_Stationary_Stealth@@@@8
rdata$r	ENDS
;	COMDAT ??_R2?$ScriptRegistrant@VDB_Stationary_Stealth@@@@8
rdata$r	SEGMENT
??_R2?$ScriptRegistrant@VDB_Stationary_Stealth@@@@8 DD FLAT:??_R1A@?0A@EA@?$ScriptRegistrant@VDB_Stationary_Stealth@@@@8 ; ScriptRegistrant<DB_Stationary_Stealth>::`RTTI Base Class Array'
	DD	FLAT:??_R1A@?0A@EA@ScriptFactory@@8
rdata$r	ENDS
;	COMDAT ??_R3?$ScriptRegistrant@VDB_Stationary_Stealth@@@@8
rdata$r	SEGMENT
??_R3?$ScriptRegistrant@VDB_Stationary_Stealth@@@@8 DD 00H ; ScriptRegistrant<DB_Stationary_Stealth>::`RTTI Class Hierarchy Descriptor'
	DD	00H
	DD	02H
	DD	FLAT:??_R2?$ScriptRegistrant@VDB_Stationary_Stealth@@@@8
rdata$r	ENDS
;	COMDAT ??_R0?AV?$ScriptRegistrant@VDB_Stationary_Stealth@@@@@8
_DATA	SEGMENT
??_R0?AV?$ScriptRegistrant@VDB_Stationary_Stealth@@@@@8 DD FLAT:??_7type_info@@6B@ ; ScriptRegistrant<DB_Stationary_Stealth> `RTTI Type Descriptor'
	DD	00H
	DB	'.?AV?$ScriptRegistrant@VDB_Stationary_Stealth@@@@', 00H
_DATA	ENDS
;	COMDAT ??_R4?$ScriptRegistrant@VDB_Stationary_Stealth@@@@6B@
rdata$r	SEGMENT
??_R4?$ScriptRegistrant@VDB_Stationary_Stealth@@@@6B@ DD 00H ; ScriptRegistrant<DB_Stationary_Stealth>::`RTTI Complete Object Locator'
	DD	00H
	DD	00H
	DD	FLAT:??_R0?AV?$ScriptRegistrant@VDB_Stationary_Stealth@@@@@8
	DD	FLAT:??_R3?$ScriptRegistrant@VDB_Stationary_Stealth@@@@8
rdata$r	ENDS
;	COMDAT ??_R1A@?0A@EA@?$ScriptRegistrant@VDB_Infantry_Place_Buildable_Object@@@@8
rdata$r	SEGMENT
??_R1A@?0A@EA@?$ScriptRegistrant@VDB_Infantry_Place_Buildable_Object@@@@8 DD FLAT:??_R0?AV?$ScriptRegistrant@VDB_Infantry_Place_Buildable_Object@@@@@8 ; ScriptRegistrant<DB_Infantry_Place_Buildable_Object>::`RTTI Base Class Descriptor at (0,-1,0,64)'
	DD	01H
	DD	00H
	DD	0ffffffffH
	DD	00H
	DD	040H
	DD	FLAT:??_R3?$ScriptRegistrant@VDB_Infantry_Place_Buildable_Object@@@@8
rdata$r	ENDS
;	COMDAT ??_R2?$ScriptRegistrant@VDB_Infantry_Place_Buildable_Object@@@@8
rdata$r	SEGMENT
??_R2?$ScriptRegistrant@VDB_Infantry_Place_Buildable_Object@@@@8 DD FLAT:??_R1A@?0A@EA@?$ScriptRegistrant@VDB_Infantry_Place_Buildable_Object@@@@8 ; ScriptRegistrant<DB_Infantry_Place_Buildable_Object>::`RTTI Base Class Array'
	DD	FLAT:??_R1A@?0A@EA@ScriptFactory@@8
rdata$r	ENDS
;	COMDAT ??_R3?$ScriptRegistrant@VDB_Infantry_Place_Buildable_Object@@@@8
rdata$r	SEGMENT
??_R3?$ScriptRegistrant@VDB_Infantry_Place_Buildable_Object@@@@8 DD 00H ; ScriptRegistrant<DB_Infantry_Place_Buildable_Object>::`RTTI Class Hierarchy Descriptor'
	DD	00H
	DD	02H
	DD	FLAT:??_R2?$ScriptRegistrant@VDB_Infantry_Place_Buildable_Object@@@@8
rdata$r	ENDS
;	COMDAT ??_R0?AV?$ScriptRegistrant@VDB_Infantry_Place_Buildable_Object@@@@@8
_DATA	SEGMENT
??_R0?AV?$ScriptRegistrant@VDB_Infantry_Place_Buildable_Object@@@@@8 DD FLAT:??_7type_info@@6B@ ; ScriptRegistrant<DB_Infantry_Place_Buildable_Object> `RTTI Type Descriptor'
	DD	00H
	DB	'.?AV?$ScriptRegistrant@VDB_Infantry_Place_Buildable_Obje'
	DB	'ct@@@@', 00H
_DATA	ENDS
;	COMDAT ??_R4?$ScriptRegistrant@VDB_Infantry_Place_Buildable_Object@@@@6B@
rdata$r	SEGMENT
??_R4?$ScriptRegistrant@VDB_Infantry_Place_Buildable_Object@@@@6B@ DD 00H ; ScriptRegistrant<DB_Infantry_Place_Buildable_Object>::`RTTI Complete Object Locator'
	DD	00H
	DD	00H
	DD	FLAT:??_R0?AV?$ScriptRegistrant@VDB_Infantry_Place_Buildable_Object@@@@@8
	DD	FLAT:??_R3?$ScriptRegistrant@VDB_Infantry_Place_Buildable_Object@@@@8
rdata$r	ENDS
;	COMDAT ??_R1A@?0A@EA@?$ScriptRegistrant@VDB_Grant_Keycard_Timer@@@@8
rdata$r	SEGMENT
??_R1A@?0A@EA@?$ScriptRegistrant@VDB_Grant_Keycard_Timer@@@@8 DD FLAT:??_R0?AV?$ScriptRegistrant@VDB_Grant_Keycard_Timer@@@@@8 ; ScriptRegistrant<DB_Grant_Keycard_Timer>::`RTTI Base Class Descriptor at (0,-1,0,64)'
	DD	01H
	DD	00H
	DD	0ffffffffH
	DD	00H
	DD	040H
	DD	FLAT:??_R3?$ScriptRegistrant@VDB_Grant_Keycard_Timer@@@@8
rdata$r	ENDS
;	COMDAT ??_R2?$ScriptRegistrant@VDB_Grant_Keycard_Timer@@@@8
rdata$r	SEGMENT
??_R2?$ScriptRegistrant@VDB_Grant_Keycard_Timer@@@@8 DD FLAT:??_R1A@?0A@EA@?$ScriptRegistrant@VDB_Grant_Keycard_Timer@@@@8 ; ScriptRegistrant<DB_Grant_Keycard_Timer>::`RTTI Base Class Array'
	DD	FLAT:??_R1A@?0A@EA@ScriptFactory@@8
rdata$r	ENDS
;	COMDAT ??_R3?$ScriptRegistrant@VDB_Grant_Keycard_Timer@@@@8
rdata$r	SEGMENT
??_R3?$ScriptRegistrant@VDB_Grant_Keycard_Timer@@@@8 DD 00H ; ScriptRegistrant<DB_Grant_Keycard_Timer>::`RTTI Class Hierarchy Descriptor'
	DD	00H
	DD	02H
	DD	FLAT:??_R2?$ScriptRegistrant@VDB_Grant_Keycard_Timer@@@@8
rdata$r	ENDS
;	COMDAT ??_R0?AV?$ScriptRegistrant@VDB_Grant_Keycard_Timer@@@@@8
_DATA	SEGMENT
??_R0?AV?$ScriptRegistrant@VDB_Grant_Keycard_Timer@@@@@8 DD FLAT:??_7type_info@@6B@ ; ScriptRegistrant<DB_Grant_Keycard_Timer> `RTTI Type Descriptor'
	DD	00H
	DB	'.?AV?$ScriptRegistrant@VDB_Grant_Keycard_Timer@@@@', 00H
_DATA	ENDS
;	COMDAT ??_R4?$ScriptRegistrant@VDB_Grant_Keycard_Timer@@@@6B@
rdata$r	SEGMENT
??_R4?$ScriptRegistrant@VDB_Grant_Keycard_Timer@@@@6B@ DD 00H ; ScriptRegistrant<DB_Grant_Keycard_Timer>::`RTTI Complete Object Locator'
	DD	00H
	DD	00H
	DD	FLAT:??_R0?AV?$ScriptRegistrant@VDB_Grant_Keycard_Timer@@@@@8
	DD	FLAT:??_R3?$ScriptRegistrant@VDB_Grant_Keycard_Timer@@@@8
rdata$r	ENDS
;	COMDAT ??_R1A@?0A@EA@?$ScriptRegistrant@VDB_Grant_Keycard_Killed@@@@8
rdata$r	SEGMENT
??_R1A@?0A@EA@?$ScriptRegistrant@VDB_Grant_Keycard_Killed@@@@8 DD FLAT:??_R0?AV?$ScriptRegistrant@VDB_Grant_Keycard_Killed@@@@@8 ; ScriptRegistrant<DB_Grant_Keycard_Killed>::`RTTI Base Class Descriptor at (0,-1,0,64)'
	DD	01H
	DD	00H
	DD	0ffffffffH
	DD	00H
	DD	040H
	DD	FLAT:??_R3?$ScriptRegistrant@VDB_Grant_Keycard_Killed@@@@8
rdata$r	ENDS
;	COMDAT ??_R2?$ScriptRegistrant@VDB_Grant_Keycard_Killed@@@@8
rdata$r	SEGMENT
??_R2?$ScriptRegistrant@VDB_Grant_Keycard_Killed@@@@8 DD FLAT:??_R1A@?0A@EA@?$ScriptRegistrant@VDB_Grant_Keycard_Killed@@@@8 ; ScriptRegistrant<DB_Grant_Keycard_Killed>::`RTTI Base Class Array'
	DD	FLAT:??_R1A@?0A@EA@ScriptFactory@@8
rdata$r	ENDS
;	COMDAT ??_R3?$ScriptRegistrant@VDB_Grant_Keycard_Killed@@@@8
rdata$r	SEGMENT
??_R3?$ScriptRegistrant@VDB_Grant_Keycard_Killed@@@@8 DD 00H ; ScriptRegistrant<DB_Grant_Keycard_Killed>::`RTTI Class Hierarchy Descriptor'
	DD	00H
	DD	02H
	DD	FLAT:??_R2?$ScriptRegistrant@VDB_Grant_Keycard_Killed@@@@8
rdata$r	ENDS
;	COMDAT ??_R0?AV?$ScriptRegistrant@VDB_Grant_Keycard_Killed@@@@@8
_DATA	SEGMENT
??_R0?AV?$ScriptRegistrant@VDB_Grant_Keycard_Killed@@@@@8 DD FLAT:??_7type_info@@6B@ ; ScriptRegistrant<DB_Grant_Keycard_Killed> `RTTI Type Descriptor'
	DD	00H
	DB	'.?AV?$ScriptRegistrant@VDB_Grant_Keycard_Killed@@@@', 00H
_DATA	ENDS
;	COMDAT ??_R4?$ScriptRegistrant@VDB_Grant_Keycard_Killed@@@@6B@
rdata$r	SEGMENT
??_R4?$ScriptRegistrant@VDB_Grant_Keycard_Killed@@@@6B@ DD 00H ; ScriptRegistrant<DB_Grant_Keycard_Killed>::`RTTI Complete Object Locator'
	DD	00H
	DD	00H
	DD	FLAT:??_R0?AV?$ScriptRegistrant@VDB_Grant_Keycard_Killed@@@@@8
	DD	FLAT:??_R3?$ScriptRegistrant@VDB_Grant_Keycard_Killed@@@@8
rdata$r	ENDS
;	COMDAT ??_R1A@?0A@EA@?$ScriptRegistrant@VDB_Set_Scale@@@@8
rdata$r	SEGMENT
??_R1A@?0A@EA@?$ScriptRegistrant@VDB_Set_Scale@@@@8 DD FLAT:??_R0?AV?$ScriptRegistrant@VDB_Set_Scale@@@@@8 ; ScriptRegistrant<DB_Set_Scale>::`RTTI Base Class Descriptor at (0,-1,0,64)'
	DD	01H
	DD	00H
	DD	0ffffffffH
	DD	00H
	DD	040H
	DD	FLAT:??_R3?$ScriptRegistrant@VDB_Set_Scale@@@@8
rdata$r	ENDS
;	COMDAT ??_R2?$ScriptRegistrant@VDB_Set_Scale@@@@8
rdata$r	SEGMENT
??_R2?$ScriptRegistrant@VDB_Set_Scale@@@@8 DD FLAT:??_R1A@?0A@EA@?$ScriptRegistrant@VDB_Set_Scale@@@@8 ; ScriptRegistrant<DB_Set_Scale>::`RTTI Base Class Array'
	DD	FLAT:??_R1A@?0A@EA@ScriptFactory@@8
rdata$r	ENDS
;	COMDAT ??_R3?$ScriptRegistrant@VDB_Set_Scale@@@@8
rdata$r	SEGMENT
??_R3?$ScriptRegistrant@VDB_Set_Scale@@@@8 DD 00H	; ScriptRegistrant<DB_Set_Scale>::`RTTI Class Hierarchy Descriptor'
	DD	00H
	DD	02H
	DD	FLAT:??_R2?$ScriptRegistrant@VDB_Set_Scale@@@@8
rdata$r	ENDS
;	COMDAT ??_R0?AV?$ScriptRegistrant@VDB_Set_Scale@@@@@8
_DATA	SEGMENT
??_R0?AV?$ScriptRegistrant@VDB_Set_Scale@@@@@8 DD FLAT:??_7type_info@@6B@ ; ScriptRegistrant<DB_Set_Scale> `RTTI Type Descriptor'
	DD	00H
	DB	'.?AV?$ScriptRegistrant@VDB_Set_Scale@@@@', 00H
_DATA	ENDS
;	COMDAT ??_R4?$ScriptRegistrant@VDB_Set_Scale@@@@6B@
rdata$r	SEGMENT
??_R4?$ScriptRegistrant@VDB_Set_Scale@@@@6B@ DD 00H	; ScriptRegistrant<DB_Set_Scale>::`RTTI Complete Object Locator'
	DD	00H
	DD	00H
	DD	FLAT:??_R0?AV?$ScriptRegistrant@VDB_Set_Scale@@@@@8
	DD	FLAT:??_R3?$ScriptRegistrant@VDB_Set_Scale@@@@8
rdata$r	ENDS
;	COMDAT ??_R1A@?0A@EA@?$ScriptRegistrant@VDB_Disable_Injured_Animations@@@@8
rdata$r	SEGMENT
??_R1A@?0A@EA@?$ScriptRegistrant@VDB_Disable_Injured_Animations@@@@8 DD FLAT:??_R0?AV?$ScriptRegistrant@VDB_Disable_Injured_Animations@@@@@8 ; ScriptRegistrant<DB_Disable_Injured_Animations>::`RTTI Base Class Descriptor at (0,-1,0,64)'
	DD	01H
	DD	00H
	DD	0ffffffffH
	DD	00H
	DD	040H
	DD	FLAT:??_R3?$ScriptRegistrant@VDB_Disable_Injured_Animations@@@@8
rdata$r	ENDS
;	COMDAT ??_R2?$ScriptRegistrant@VDB_Disable_Injured_Animations@@@@8
rdata$r	SEGMENT
??_R2?$ScriptRegistrant@VDB_Disable_Injured_Animations@@@@8 DD FLAT:??_R1A@?0A@EA@?$ScriptRegistrant@VDB_Disable_Injured_Animations@@@@8 ; ScriptRegistrant<DB_Disable_Injured_Animations>::`RTTI Base Class Array'
	DD	FLAT:??_R1A@?0A@EA@ScriptFactory@@8
rdata$r	ENDS
;	COMDAT ??_R3?$ScriptRegistrant@VDB_Disable_Injured_Animations@@@@8
rdata$r	SEGMENT
??_R3?$ScriptRegistrant@VDB_Disable_Injured_Animations@@@@8 DD 00H ; ScriptRegistrant<DB_Disable_Injured_Animations>::`RTTI Class Hierarchy Descriptor'
	DD	00H
	DD	02H
	DD	FLAT:??_R2?$ScriptRegistrant@VDB_Disable_Injured_Animations@@@@8
rdata$r	ENDS
;	COMDAT ??_R0?AV?$ScriptRegistrant@VDB_Disable_Injured_Animations@@@@@8
_DATA	SEGMENT
??_R0?AV?$ScriptRegistrant@VDB_Disable_Injured_Animations@@@@@8 DD FLAT:??_7type_info@@6B@ ; ScriptRegistrant<DB_Disable_Injured_Animations> `RTTI Type Descriptor'
	DD	00H
	DB	'.?AV?$ScriptRegistrant@VDB_Disable_Injured_Animations@@@'
	DB	'@', 00H
_DATA	ENDS
;	COMDAT ??_R4?$ScriptRegistrant@VDB_Disable_Injured_Animations@@@@6B@
rdata$r	SEGMENT
??_R4?$ScriptRegistrant@VDB_Disable_Injured_Animations@@@@6B@ DD 00H ; ScriptRegistrant<DB_Disable_Injured_Animations>::`RTTI Complete Object Locator'
	DD	00H
	DD	00H
	DD	FLAT:??_R0?AV?$ScriptRegistrant@VDB_Disable_Injured_Animations@@@@@8
	DD	FLAT:??_R3?$ScriptRegistrant@VDB_Disable_Injured_Animations@@@@8
rdata$r	ENDS
;	COMDAT ??_R1A@?0A@EA@?$ScriptRegistrant@VDB_Power_Down_Building_Console@@@@8
rdata$r	SEGMENT
??_R1A@?0A@EA@?$ScriptRegistrant@VDB_Power_Down_Building_Console@@@@8 DD FLAT:??_R0?AV?$ScriptRegistrant@VDB_Power_Down_Building_Console@@@@@8 ; ScriptRegistrant<DB_Power_Down_Building_Console>::`RTTI Base Class Descriptor at (0,-1,0,64)'
	DD	01H
	DD	00H
	DD	0ffffffffH
	DD	00H
	DD	040H
	DD	FLAT:??_R3?$ScriptRegistrant@VDB_Power_Down_Building_Console@@@@8
rdata$r	ENDS
;	COMDAT ??_R2?$ScriptRegistrant@VDB_Power_Down_Building_Console@@@@8
rdata$r	SEGMENT
??_R2?$ScriptRegistrant@VDB_Power_Down_Building_Console@@@@8 DD FLAT:??_R1A@?0A@EA@?$ScriptRegistrant@VDB_Power_Down_Building_Console@@@@8 ; ScriptRegistrant<DB_Power_Down_Building_Console>::`RTTI Base Class Array'
	DD	FLAT:??_R1A@?0A@EA@ScriptFactory@@8
rdata$r	ENDS
;	COMDAT ??_R3?$ScriptRegistrant@VDB_Power_Down_Building_Console@@@@8
rdata$r	SEGMENT
??_R3?$ScriptRegistrant@VDB_Power_Down_Building_Console@@@@8 DD 00H ; ScriptRegistrant<DB_Power_Down_Building_Console>::`RTTI Class Hierarchy Descriptor'
	DD	00H
	DD	02H
	DD	FLAT:??_R2?$ScriptRegistrant@VDB_Power_Down_Building_Console@@@@8
rdata$r	ENDS
;	COMDAT ??_R0?AV?$ScriptRegistrant@VDB_Power_Down_Building_Console@@@@@8
_DATA	SEGMENT
??_R0?AV?$ScriptRegistrant@VDB_Power_Down_Building_Console@@@@@8 DD FLAT:??_7type_info@@6B@ ; ScriptRegistrant<DB_Power_Down_Building_Console> `RTTI Type Descriptor'
	DD	00H
	DB	'.?AV?$ScriptRegistrant@VDB_Power_Down_Building_Console@@'
	DB	'@@', 00H
_DATA	ENDS
;	COMDAT ??_R4?$ScriptRegistrant@VDB_Power_Down_Building_Console@@@@6B@
rdata$r	SEGMENT
??_R4?$ScriptRegistrant@VDB_Power_Down_Building_Console@@@@6B@ DD 00H ; ScriptRegistrant<DB_Power_Down_Building_Console>::`RTTI Complete Object Locator'
	DD	00H
	DD	00H
	DD	FLAT:??_R0?AV?$ScriptRegistrant@VDB_Power_Down_Building_Console@@@@@8
	DD	FLAT:??_R3?$ScriptRegistrant@VDB_Power_Down_Building_Console@@@@8
rdata$r	ENDS
;	COMDAT ??_R1A@?0A@EA@?$ScriptRegistrant@VDB_Power_Down_Console@@@@8
rdata$r	SEGMENT
??_R1A@?0A@EA@?$ScriptRegistrant@VDB_Power_Down_Console@@@@8 DD FLAT:??_R0?AV?$ScriptRegistrant@VDB_Power_Down_Console@@@@@8 ; ScriptRegistrant<DB_Power_Down_Console>::`RTTI Base Class Descriptor at (0,-1,0,64)'
	DD	01H
	DD	00H
	DD	0ffffffffH
	DD	00H
	DD	040H
	DD	FLAT:??_R3?$ScriptRegistrant@VDB_Power_Down_Console@@@@8
rdata$r	ENDS
;	COMDAT ??_R2?$ScriptRegistrant@VDB_Power_Down_Console@@@@8
rdata$r	SEGMENT
??_R2?$ScriptRegistrant@VDB_Power_Down_Console@@@@8 DD FLAT:??_R1A@?0A@EA@?$ScriptRegistrant@VDB_Power_Down_Console@@@@8 ; ScriptRegistrant<DB_Power_Down_Console>::`RTTI Base Class Array'
	DD	FLAT:??_R1A@?0A@EA@ScriptFactory@@8
rdata$r	ENDS
;	COMDAT ??_R3?$ScriptRegistrant@VDB_Power_Down_Console@@@@8
rdata$r	SEGMENT
??_R3?$ScriptRegistrant@VDB_Power_Down_Console@@@@8 DD 00H ; ScriptRegistrant<DB_Power_Down_Console>::`RTTI Class Hierarchy Descriptor'
	DD	00H
	DD	02H
	DD	FLAT:??_R2?$ScriptRegistrant@VDB_Power_Down_Console@@@@8
rdata$r	ENDS
;	COMDAT ??_R0?AV?$ScriptRegistrant@VDB_Power_Down_Console@@@@@8
_DATA	SEGMENT
??_R0?AV?$ScriptRegistrant@VDB_Power_Down_Console@@@@@8 DD FLAT:??_7type_info@@6B@ ; ScriptRegistrant<DB_Power_Down_Console> `RTTI Type Descriptor'
	DD	00H
	DB	'.?AV?$ScriptRegistrant@VDB_Power_Down_Console@@@@', 00H
_DATA	ENDS
;	COMDAT ??_R4?$ScriptRegistrant@VDB_Power_Down_Console@@@@6B@
rdata$r	SEGMENT
??_R4?$ScriptRegistrant@VDB_Power_Down_Console@@@@6B@ DD 00H ; ScriptRegistrant<DB_Power_Down_Console>::`RTTI Complete Object Locator'
	DD	00H
	DD	00H
	DD	FLAT:??_R0?AV?$ScriptRegistrant@VDB_Power_Down_Console@@@@@8
	DD	FLAT:??_R3?$ScriptRegistrant@VDB_Power_Down_Console@@@@8
rdata$r	ENDS
;	COMDAT ??_R1A@?0A@EA@?$ScriptRegistrant@Vdblaney_Nod_Obelisk_Weapon@@@@8
rdata$r	SEGMENT
??_R1A@?0A@EA@?$ScriptRegistrant@Vdblaney_Nod_Obelisk_Weapon@@@@8 DD FLAT:??_R0?AV?$ScriptRegistrant@Vdblaney_Nod_Obelisk_Weapon@@@@@8 ; ScriptRegistrant<dblaney_Nod_Obelisk_Weapon>::`RTTI Base Class Descriptor at (0,-1,0,64)'
	DD	01H
	DD	00H
	DD	0ffffffffH
	DD	00H
	DD	040H
	DD	FLAT:??_R3?$ScriptRegistrant@Vdblaney_Nod_Obelisk_Weapon@@@@8
rdata$r	ENDS
;	COMDAT ??_R2?$ScriptRegistrant@Vdblaney_Nod_Obelisk_Weapon@@@@8
rdata$r	SEGMENT
??_R2?$ScriptRegistrant@Vdblaney_Nod_Obelisk_Weapon@@@@8 DD FLAT:??_R1A@?0A@EA@?$ScriptRegistrant@Vdblaney_Nod_Obelisk_Weapon@@@@8 ; ScriptRegistrant<dblaney_Nod_Obelisk_Weapon>::`RTTI Base Class Array'
	DD	FLAT:??_R1A@?0A@EA@ScriptFactory@@8
rdata$r	ENDS
;	COMDAT ??_R3?$ScriptRegistrant@Vdblaney_Nod_Obelisk_Weapon@@@@8
rdata$r	SEGMENT
??_R3?$ScriptRegistrant@Vdblaney_Nod_Obelisk_Weapon@@@@8 DD 00H ; ScriptRegistrant<dblaney_Nod_Obelisk_Weapon>::`RTTI Class Hierarchy Descriptor'
	DD	00H
	DD	02H
	DD	FLAT:??_R2?$ScriptRegistrant@Vdblaney_Nod_Obelisk_Weapon@@@@8
rdata$r	ENDS
;	COMDAT ??_R0?AV?$ScriptRegistrant@Vdblaney_Nod_Obelisk_Weapon@@@@@8
_DATA	SEGMENT
??_R0?AV?$ScriptRegistrant@Vdblaney_Nod_Obelisk_Weapon@@@@@8 DD FLAT:??_7type_info@@6B@ ; ScriptRegistrant<dblaney_Nod_Obelisk_Weapon> `RTTI Type Descriptor'
	DD	00H
	DB	'.?AV?$ScriptRegistrant@Vdblaney_Nod_Obelisk_Weapon@@@@', 00H
_DATA	ENDS
;	COMDAT ??_R4?$ScriptRegistrant@Vdblaney_Nod_Obelisk_Weapon@@@@6B@
rdata$r	SEGMENT
??_R4?$ScriptRegistrant@Vdblaney_Nod_Obelisk_Weapon@@@@6B@ DD 00H ; ScriptRegistrant<dblaney_Nod_Obelisk_Weapon>::`RTTI Complete Object Locator'
	DD	00H
	DD	00H
	DD	FLAT:??_R0?AV?$ScriptRegistrant@Vdblaney_Nod_Obelisk_Weapon@@@@@8
	DD	FLAT:??_R3?$ScriptRegistrant@Vdblaney_Nod_Obelisk_Weapon@@@@8
rdata$r	ENDS
;	COMDAT ??_R1A@?0A@EA@?$ScriptRegistrant@Vdblaney_Nod_Obelisk_Structure@@@@8
rdata$r	SEGMENT
??_R1A@?0A@EA@?$ScriptRegistrant@Vdblaney_Nod_Obelisk_Structure@@@@8 DD FLAT:??_R0?AV?$ScriptRegistrant@Vdblaney_Nod_Obelisk_Structure@@@@@8 ; ScriptRegistrant<dblaney_Nod_Obelisk_Structure>::`RTTI Base Class Descriptor at (0,-1,0,64)'
	DD	01H
	DD	00H
	DD	0ffffffffH
	DD	00H
	DD	040H
	DD	FLAT:??_R3?$ScriptRegistrant@Vdblaney_Nod_Obelisk_Structure@@@@8
rdata$r	ENDS
;	COMDAT ??_R2?$ScriptRegistrant@Vdblaney_Nod_Obelisk_Structure@@@@8
rdata$r	SEGMENT
??_R2?$ScriptRegistrant@Vdblaney_Nod_Obelisk_Structure@@@@8 DD FLAT:??_R1A@?0A@EA@?$ScriptRegistrant@Vdblaney_Nod_Obelisk_Structure@@@@8 ; ScriptRegistrant<dblaney_Nod_Obelisk_Structure>::`RTTI Base Class Array'
	DD	FLAT:??_R1A@?0A@EA@ScriptFactory@@8
rdata$r	ENDS
;	COMDAT ??_R3?$ScriptRegistrant@Vdblaney_Nod_Obelisk_Structure@@@@8
rdata$r	SEGMENT
??_R3?$ScriptRegistrant@Vdblaney_Nod_Obelisk_Structure@@@@8 DD 00H ; ScriptRegistrant<dblaney_Nod_Obelisk_Structure>::`RTTI Class Hierarchy Descriptor'
	DD	00H
	DD	02H
	DD	FLAT:??_R2?$ScriptRegistrant@Vdblaney_Nod_Obelisk_Structure@@@@8
rdata$r	ENDS
;	COMDAT ??_R0?AV?$ScriptRegistrant@Vdblaney_Nod_Obelisk_Structure@@@@@8
_DATA	SEGMENT
??_R0?AV?$ScriptRegistrant@Vdblaney_Nod_Obelisk_Structure@@@@@8 DD FLAT:??_7type_info@@6B@ ; ScriptRegistrant<dblaney_Nod_Obelisk_Structure> `RTTI Type Descriptor'
	DD	00H
	DB	'.?AV?$ScriptRegistrant@Vdblaney_Nod_Obelisk_Structure@@@'
	DB	'@', 00H
_DATA	ENDS
;	COMDAT ??_R4?$ScriptRegistrant@Vdblaney_Nod_Obelisk_Structure@@@@6B@
rdata$r	SEGMENT
??_R4?$ScriptRegistrant@Vdblaney_Nod_Obelisk_Structure@@@@6B@ DD 00H ; ScriptRegistrant<dblaney_Nod_Obelisk_Structure>::`RTTI Complete Object Locator'
	DD	00H
	DD	00H
	DD	FLAT:??_R0?AV?$ScriptRegistrant@Vdblaney_Nod_Obelisk_Structure@@@@@8
	DD	FLAT:??_R3?$ScriptRegistrant@Vdblaney_Nod_Obelisk_Structure@@@@8
rdata$r	ENDS
;	COMDAT ??_R1A@?0A@EA@?$ScriptRegistrant@Vdblaney_Nod_Obelisk@@@@8
rdata$r	SEGMENT
??_R1A@?0A@EA@?$ScriptRegistrant@Vdblaney_Nod_Obelisk@@@@8 DD FLAT:??_R0?AV?$ScriptRegistrant@Vdblaney_Nod_Obelisk@@@@@8 ; ScriptRegistrant<dblaney_Nod_Obelisk>::`RTTI Base Class Descriptor at (0,-1,0,64)'
	DD	01H
	DD	00H
	DD	0ffffffffH
	DD	00H
	DD	040H
	DD	FLAT:??_R3?$ScriptRegistrant@Vdblaney_Nod_Obelisk@@@@8
rdata$r	ENDS
;	COMDAT ??_R2?$ScriptRegistrant@Vdblaney_Nod_Obelisk@@@@8
rdata$r	SEGMENT
??_R2?$ScriptRegistrant@Vdblaney_Nod_Obelisk@@@@8 DD FLAT:??_R1A@?0A@EA@?$ScriptRegistrant@Vdblaney_Nod_Obelisk@@@@8 ; ScriptRegistrant<dblaney_Nod_Obelisk>::`RTTI Base Class Array'
	DD	FLAT:??_R1A@?0A@EA@ScriptFactory@@8
rdata$r	ENDS
;	COMDAT ??_R3?$ScriptRegistrant@Vdblaney_Nod_Obelisk@@@@8
rdata$r	SEGMENT
??_R3?$ScriptRegistrant@Vdblaney_Nod_Obelisk@@@@8 DD 00H ; ScriptRegistrant<dblaney_Nod_Obelisk>::`RTTI Class Hierarchy Descriptor'
	DD	00H
	DD	02H
	DD	FLAT:??_R2?$ScriptRegistrant@Vdblaney_Nod_Obelisk@@@@8
rdata$r	ENDS
;	COMDAT ??_R0?AV?$ScriptRegistrant@Vdblaney_Nod_Obelisk@@@@@8
_DATA	SEGMENT
??_R0?AV?$ScriptRegistrant@Vdblaney_Nod_Obelisk@@@@@8 DD FLAT:??_7type_info@@6B@ ; ScriptRegistrant<dblaney_Nod_Obelisk> `RTTI Type Descriptor'
	DD	00H
	DB	'.?AV?$ScriptRegistrant@Vdblaney_Nod_Obelisk@@@@', 00H
_DATA	ENDS
;	COMDAT ??_R4?$ScriptRegistrant@Vdblaney_Nod_Obelisk@@@@6B@
rdata$r	SEGMENT
??_R4?$ScriptRegistrant@Vdblaney_Nod_Obelisk@@@@6B@ DD 00H ; ScriptRegistrant<dblaney_Nod_Obelisk>::`RTTI Complete Object Locator'
	DD	00H
	DD	00H
	DD	FLAT:??_R0?AV?$ScriptRegistrant@Vdblaney_Nod_Obelisk@@@@@8
	DD	FLAT:??_R3?$ScriptRegistrant@Vdblaney_Nod_Obelisk@@@@8
rdata$r	ENDS
;	COMDAT ??_R1A@?0A@EA@?$ScriptRegistrant@VDB_Support_Bot@@@@8
rdata$r	SEGMENT
??_R1A@?0A@EA@?$ScriptRegistrant@VDB_Support_Bot@@@@8 DD FLAT:??_R0?AV?$ScriptRegistrant@VDB_Support_Bot@@@@@8 ; ScriptRegistrant<DB_Support_Bot>::`RTTI Base Class Descriptor at (0,-1,0,64)'
	DD	01H
	DD	00H
	DD	0ffffffffH
	DD	00H
	DD	040H
	DD	FLAT:??_R3?$ScriptRegistrant@VDB_Support_Bot@@@@8
rdata$r	ENDS
;	COMDAT ??_R2?$ScriptRegistrant@VDB_Support_Bot@@@@8
rdata$r	SEGMENT
??_R2?$ScriptRegistrant@VDB_Support_Bot@@@@8 DD FLAT:??_R1A@?0A@EA@?$ScriptRegistrant@VDB_Support_Bot@@@@8 ; ScriptRegistrant<DB_Support_Bot>::`RTTI Base Class Array'
	DD	FLAT:??_R1A@?0A@EA@ScriptFactory@@8
rdata$r	ENDS
;	COMDAT ??_R3?$ScriptRegistrant@VDB_Support_Bot@@@@8
rdata$r	SEGMENT
??_R3?$ScriptRegistrant@VDB_Support_Bot@@@@8 DD 00H	; ScriptRegistrant<DB_Support_Bot>::`RTTI Class Hierarchy Descriptor'
	DD	00H
	DD	02H
	DD	FLAT:??_R2?$ScriptRegistrant@VDB_Support_Bot@@@@8
rdata$r	ENDS
;	COMDAT ??_R0?AV?$ScriptRegistrant@VDB_Support_Bot@@@@@8
_DATA	SEGMENT
??_R0?AV?$ScriptRegistrant@VDB_Support_Bot@@@@@8 DD FLAT:??_7type_info@@6B@ ; ScriptRegistrant<DB_Support_Bot> `RTTI Type Descriptor'
	DD	00H
	DB	'.?AV?$ScriptRegistrant@VDB_Support_Bot@@@@', 00H
_DATA	ENDS
;	COMDAT ??_R4?$ScriptRegistrant@VDB_Support_Bot@@@@6B@
rdata$r	SEGMENT
??_R4?$ScriptRegistrant@VDB_Support_Bot@@@@6B@ DD 00H	; ScriptRegistrant<DB_Support_Bot>::`RTTI Complete Object Locator'
	DD	00H
	DD	00H
	DD	FLAT:??_R0?AV?$ScriptRegistrant@VDB_Support_Bot@@@@@8
	DD	FLAT:??_R3?$ScriptRegistrant@VDB_Support_Bot@@@@8
rdata$r	ENDS
;	COMDAT ??_R1A@?0A@EA@?$ScriptRegistrant@VDB_Guard_Bot@@@@8
rdata$r	SEGMENT
??_R1A@?0A@EA@?$ScriptRegistrant@VDB_Guard_Bot@@@@8 DD FLAT:??_R0?AV?$ScriptRegistrant@VDB_Guard_Bot@@@@@8 ; ScriptRegistrant<DB_Guard_Bot>::`RTTI Base Class Descriptor at (0,-1,0,64)'
	DD	01H
	DD	00H
	DD	0ffffffffH
	DD	00H
	DD	040H
	DD	FLAT:??_R3?$ScriptRegistrant@VDB_Guard_Bot@@@@8
rdata$r	ENDS
;	COMDAT ??_R2?$ScriptRegistrant@VDB_Guard_Bot@@@@8
rdata$r	SEGMENT
??_R2?$ScriptRegistrant@VDB_Guard_Bot@@@@8 DD FLAT:??_R1A@?0A@EA@?$ScriptRegistrant@VDB_Guard_Bot@@@@8 ; ScriptRegistrant<DB_Guard_Bot>::`RTTI Base Class Array'
	DD	FLAT:??_R1A@?0A@EA@ScriptFactory@@8
rdata$r	ENDS
;	COMDAT ??_R3?$ScriptRegistrant@VDB_Guard_Bot@@@@8
rdata$r	SEGMENT
??_R3?$ScriptRegistrant@VDB_Guard_Bot@@@@8 DD 00H	; ScriptRegistrant<DB_Guard_Bot>::`RTTI Class Hierarchy Descriptor'
	DD	00H
	DD	02H
	DD	FLAT:??_R2?$ScriptRegistrant@VDB_Guard_Bot@@@@8
rdata$r	ENDS
;	COMDAT ??_R0?AV?$ScriptRegistrant@VDB_Guard_Bot@@@@@8
_DATA	SEGMENT
??_R0?AV?$ScriptRegistrant@VDB_Guard_Bot@@@@@8 DD FLAT:??_7type_info@@6B@ ; ScriptRegistrant<DB_Guard_Bot> `RTTI Type Descriptor'
	DD	00H
	DB	'.?AV?$ScriptRegistrant@VDB_Guard_Bot@@@@', 00H
_DATA	ENDS
;	COMDAT ??_R4?$ScriptRegistrant@VDB_Guard_Bot@@@@6B@
rdata$r	SEGMENT
??_R4?$ScriptRegistrant@VDB_Guard_Bot@@@@6B@ DD 00H	; ScriptRegistrant<DB_Guard_Bot>::`RTTI Complete Object Locator'
	DD	00H
	DD	00H
	DD	FLAT:??_R0?AV?$ScriptRegistrant@VDB_Guard_Bot@@@@@8
	DD	FLAT:??_R3?$ScriptRegistrant@VDB_Guard_Bot@@@@8
rdata$r	ENDS
;	COMDAT ??_R1A@?0A@EA@?$ScriptRegistrant@VDB_Controllable_Turret@@@@8
rdata$r	SEGMENT
??_R1A@?0A@EA@?$ScriptRegistrant@VDB_Controllable_Turret@@@@8 DD FLAT:??_R0?AV?$ScriptRegistrant@VDB_Controllable_Turret@@@@@8 ; ScriptRegistrant<DB_Controllable_Turret>::`RTTI Base Class Descriptor at (0,-1,0,64)'
	DD	01H
	DD	00H
	DD	0ffffffffH
	DD	00H
	DD	040H
	DD	FLAT:??_R3?$ScriptRegistrant@VDB_Controllable_Turret@@@@8
rdata$r	ENDS
;	COMDAT ??_R2?$ScriptRegistrant@VDB_Controllable_Turret@@@@8
rdata$r	SEGMENT
??_R2?$ScriptRegistrant@VDB_Controllable_Turret@@@@8 DD FLAT:??_R1A@?0A@EA@?$ScriptRegistrant@VDB_Controllable_Turret@@@@8 ; ScriptRegistrant<DB_Controllable_Turret>::`RTTI Base Class Array'
	DD	FLAT:??_R1A@?0A@EA@ScriptFactory@@8
rdata$r	ENDS
;	COMDAT ??_R3?$ScriptRegistrant@VDB_Controllable_Turret@@@@8
rdata$r	SEGMENT
??_R3?$ScriptRegistrant@VDB_Controllable_Turret@@@@8 DD 00H ; ScriptRegistrant<DB_Controllable_Turret>::`RTTI Class Hierarchy Descriptor'
	DD	00H
	DD	02H
	DD	FLAT:??_R2?$ScriptRegistrant@VDB_Controllable_Turret@@@@8
rdata$r	ENDS
;	COMDAT ??_R0?AV?$ScriptRegistrant@VDB_Controllable_Turret@@@@@8
_DATA	SEGMENT
??_R0?AV?$ScriptRegistrant@VDB_Controllable_Turret@@@@@8 DD FLAT:??_7type_info@@6B@ ; ScriptRegistrant<DB_Controllable_Turret> `RTTI Type Descriptor'
	DD	00H
	DB	'.?AV?$ScriptRegistrant@VDB_Controllable_Turret@@@@', 00H
_DATA	ENDS
;	COMDAT ??_R4?$ScriptRegistrant@VDB_Controllable_Turret@@@@6B@
rdata$r	SEGMENT
??_R4?$ScriptRegistrant@VDB_Controllable_Turret@@@@6B@ DD 00H ; ScriptRegistrant<DB_Controllable_Turret>::`RTTI Complete Object Locator'
	DD	00H
	DD	00H
	DD	FLAT:??_R0?AV?$ScriptRegistrant@VDB_Controllable_Turret@@@@@8
	DD	FLAT:??_R3?$ScriptRegistrant@VDB_Controllable_Turret@@@@8
rdata$r	ENDS
;	COMDAT ??_R1A@?0A@EA@?$ScriptRegistrant@VDB_Shield_Generator_Vehicle@@@@8
rdata$r	SEGMENT
??_R1A@?0A@EA@?$ScriptRegistrant@VDB_Shield_Generator_Vehicle@@@@8 DD FLAT:??_R0?AV?$ScriptRegistrant@VDB_Shield_Generator_Vehicle@@@@@8 ; ScriptRegistrant<DB_Shield_Generator_Vehicle>::`RTTI Base Class Descriptor at (0,-1,0,64)'
	DD	01H
	DD	00H
	DD	0ffffffffH
	DD	00H
	DD	040H
	DD	FLAT:??_R3?$ScriptRegistrant@VDB_Shield_Generator_Vehicle@@@@8
rdata$r	ENDS
;	COMDAT ??_R2?$ScriptRegistrant@VDB_Shield_Generator_Vehicle@@@@8
rdata$r	SEGMENT
??_R2?$ScriptRegistrant@VDB_Shield_Generator_Vehicle@@@@8 DD FLAT:??_R1A@?0A@EA@?$ScriptRegistrant@VDB_Shield_Generator_Vehicle@@@@8 ; ScriptRegistrant<DB_Shield_Generator_Vehicle>::`RTTI Base Class Array'
	DD	FLAT:??_R1A@?0A@EA@ScriptFactory@@8
rdata$r	ENDS
;	COMDAT ??_R3?$ScriptRegistrant@VDB_Shield_Generator_Vehicle@@@@8
rdata$r	SEGMENT
??_R3?$ScriptRegistrant@VDB_Shield_Generator_Vehicle@@@@8 DD 00H ; ScriptRegistrant<DB_Shield_Generator_Vehicle>::`RTTI Class Hierarchy Descriptor'
	DD	00H
	DD	02H
	DD	FLAT:??_R2?$ScriptRegistrant@VDB_Shield_Generator_Vehicle@@@@8
rdata$r	ENDS
;	COMDAT ??_R0?AV?$ScriptRegistrant@VDB_Shield_Generator_Vehicle@@@@@8
_DATA	SEGMENT
??_R0?AV?$ScriptRegistrant@VDB_Shield_Generator_Vehicle@@@@@8 DD FLAT:??_7type_info@@6B@ ; ScriptRegistrant<DB_Shield_Generator_Vehicle> `RTTI Type Descriptor'
	DD	00H
	DB	'.?AV?$ScriptRegistrant@VDB_Shield_Generator_Vehicle@@@@', 00H
_DATA	ENDS
;	COMDAT ??_R4?$ScriptRegistrant@VDB_Shield_Generator_Vehicle@@@@6B@
rdata$r	SEGMENT
??_R4?$ScriptRegistrant@VDB_Shield_Generator_Vehicle@@@@6B@ DD 00H ; ScriptRegistrant<DB_Shield_Generator_Vehicle>::`RTTI Complete Object Locator'
	DD	00H
	DD	00H
	DD	FLAT:??_R0?AV?$ScriptRegistrant@VDB_Shield_Generator_Vehicle@@@@@8
	DD	FLAT:??_R3?$ScriptRegistrant@VDB_Shield_Generator_Vehicle@@@@8
rdata$r	ENDS
;	COMDAT ??_R1A@?0A@EA@DB_Force_Fire@@8
rdata$r	SEGMENT
??_R1A@?0A@EA@DB_Force_Fire@@8 DD FLAT:??_R0?AVDB_Force_Fire@@@8 ; DB_Force_Fire::`RTTI Base Class Descriptor at (0,-1,0,64)'
	DD	03H
	DD	00H
	DD	0ffffffffH
	DD	00H
	DD	040H
	DD	FLAT:??_R3DB_Force_Fire@@8
rdata$r	ENDS
;	COMDAT ??_R2DB_Force_Fire@@8
rdata$r	SEGMENT
??_R2DB_Force_Fire@@8 DD FLAT:??_R1A@?0A@EA@DB_Force_Fire@@8 ; DB_Force_Fire::`RTTI Base Class Array'
	DD	FLAT:??_R1A@?0A@EA@ScriptImpClass@@8
	DD	FLAT:??_R1A@?0A@EA@ScriptClass@@8
	DD	FLAT:??_R1A@?0A@EA@GameObjObserverClass@@8
rdata$r	ENDS
;	COMDAT ??_R3DB_Force_Fire@@8
rdata$r	SEGMENT
??_R3DB_Force_Fire@@8 DD 00H				; DB_Force_Fire::`RTTI Class Hierarchy Descriptor'
	DD	00H
	DD	04H
	DD	FLAT:??_R2DB_Force_Fire@@8
rdata$r	ENDS
;	COMDAT ??_R0?AVDB_Force_Fire@@@8
_DATA	SEGMENT
??_R0?AVDB_Force_Fire@@@8 DD FLAT:??_7type_info@@6B@	; DB_Force_Fire `RTTI Type Descriptor'
	DD	00H
	DB	'.?AVDB_Force_Fire@@', 00H
_DATA	ENDS
;	COMDAT ??_R4DB_Force_Fire@@6B@
rdata$r	SEGMENT
??_R4DB_Force_Fire@@6B@ DD 00H				; DB_Force_Fire::`RTTI Complete Object Locator'
	DD	00H
	DD	00H
	DD	FLAT:??_R0?AVDB_Force_Fire@@@8
	DD	FLAT:??_R3DB_Force_Fire@@8
rdata$r	ENDS
;	COMDAT ??_R1A@?0A@EA@DB_Replace_When_Repaired@@8
rdata$r	SEGMENT
??_R1A@?0A@EA@DB_Replace_When_Repaired@@8 DD FLAT:??_R0?AVDB_Replace_When_Repaired@@@8 ; DB_Replace_When_Repaired::`RTTI Base Class Descriptor at (0,-1,0,64)'
	DD	03H
	DD	00H
	DD	0ffffffffH
	DD	00H
	DD	040H
	DD	FLAT:??_R3DB_Replace_When_Repaired@@8
rdata$r	ENDS
;	COMDAT ??_R2DB_Replace_When_Repaired@@8
rdata$r	SEGMENT
??_R2DB_Replace_When_Repaired@@8 DD FLAT:??_R1A@?0A@EA@DB_Replace_When_Repaired@@8 ; DB_Replace_When_Repaired::`RTTI Base Class Array'
	DD	FLAT:??_R1A@?0A@EA@ScriptImpClass@@8
	DD	FLAT:??_R1A@?0A@EA@ScriptClass@@8
	DD	FLAT:??_R1A@?0A@EA@GameObjObserverClass@@8
rdata$r	ENDS
;	COMDAT ??_R3DB_Replace_When_Repaired@@8
rdata$r	SEGMENT
??_R3DB_Replace_When_Repaired@@8 DD 00H			; DB_Replace_When_Repaired::`RTTI Class Hierarchy Descriptor'
	DD	00H
	DD	04H
	DD	FLAT:??_R2DB_Replace_When_Repaired@@8
rdata$r	ENDS
;	COMDAT ??_R0?AVDB_Replace_When_Repaired@@@8
_DATA	SEGMENT
??_R0?AVDB_Replace_When_Repaired@@@8 DD FLAT:??_7type_info@@6B@ ; DB_Replace_When_Repaired `RTTI Type Descriptor'
	DD	00H
	DB	'.?AVDB_Replace_When_Repaired@@', 00H
_DATA	ENDS
;	COMDAT ??_R4DB_Replace_When_Repaired@@6B@
rdata$r	SEGMENT
??_R4DB_Replace_When_Repaired@@6B@ DD 00H		; DB_Replace_When_Repaired::`RTTI Complete Object Locator'
	DD	00H
	DD	00H
	DD	FLAT:??_R0?AVDB_Replace_When_Repaired@@@8
	DD	FLAT:??_R3DB_Replace_When_Repaired@@8
rdata$r	ENDS
;	COMDAT ??_R1A@?0A@EA@DB_Spawn_When_Killed@@8
rdata$r	SEGMENT
??_R1A@?0A@EA@DB_Spawn_When_Killed@@8 DD FLAT:??_R0?AVDB_Spawn_When_Killed@@@8 ; DB_Spawn_When_Killed::`RTTI Base Class Descriptor at (0,-1,0,64)'
	DD	03H
	DD	00H
	DD	0ffffffffH
	DD	00H
	DD	040H
	DD	FLAT:??_R3DB_Spawn_When_Killed@@8
rdata$r	ENDS
;	COMDAT ??_R2DB_Spawn_When_Killed@@8
rdata$r	SEGMENT
??_R2DB_Spawn_When_Killed@@8 DD FLAT:??_R1A@?0A@EA@DB_Spawn_When_Killed@@8 ; DB_Spawn_When_Killed::`RTTI Base Class Array'
	DD	FLAT:??_R1A@?0A@EA@ScriptImpClass@@8
	DD	FLAT:??_R1A@?0A@EA@ScriptClass@@8
	DD	FLAT:??_R1A@?0A@EA@GameObjObserverClass@@8
rdata$r	ENDS
;	COMDAT ??_R3DB_Spawn_When_Killed@@8
rdata$r	SEGMENT
??_R3DB_Spawn_When_Killed@@8 DD 00H			; DB_Spawn_When_Killed::`RTTI Class Hierarchy Descriptor'
	DD	00H
	DD	04H
	DD	FLAT:??_R2DB_Spawn_When_Killed@@8
rdata$r	ENDS
;	COMDAT ??_R0?AVDB_Spawn_When_Killed@@@8
_DATA	SEGMENT
??_R0?AVDB_Spawn_When_Killed@@@8 DD FLAT:??_7type_info@@6B@ ; DB_Spawn_When_Killed `RTTI Type Descriptor'
	DD	00H
	DB	'.?AVDB_Spawn_When_Killed@@', 00H
_DATA	ENDS
;	COMDAT ??_R4DB_Spawn_When_Killed@@6B@
rdata$r	SEGMENT
??_R4DB_Spawn_When_Killed@@6B@ DD 00H			; DB_Spawn_When_Killed::`RTTI Complete Object Locator'
	DD	00H
	DD	00H
	DD	FLAT:??_R0?AVDB_Spawn_When_Killed@@@8
	DD	FLAT:??_R3DB_Spawn_When_Killed@@8
rdata$r	ENDS
;	COMDAT ??_R1A@?0A@EA@DB_Set_PT_Slot@@8
rdata$r	SEGMENT
??_R1A@?0A@EA@DB_Set_PT_Slot@@8 DD FLAT:??_R0?AVDB_Set_PT_Slot@@@8 ; DB_Set_PT_Slot::`RTTI Base Class Descriptor at (0,-1,0,64)'
	DD	03H
	DD	00H
	DD	0ffffffffH
	DD	00H
	DD	040H
	DD	FLAT:??_R3DB_Set_PT_Slot@@8
rdata$r	ENDS
;	COMDAT ??_R2DB_Set_PT_Slot@@8
rdata$r	SEGMENT
??_R2DB_Set_PT_Slot@@8 DD FLAT:??_R1A@?0A@EA@DB_Set_PT_Slot@@8 ; DB_Set_PT_Slot::`RTTI Base Class Array'
	DD	FLAT:??_R1A@?0A@EA@ScriptImpClass@@8
	DD	FLAT:??_R1A@?0A@EA@ScriptClass@@8
	DD	FLAT:??_R1A@?0A@EA@GameObjObserverClass@@8
rdata$r	ENDS
;	COMDAT ??_R3DB_Set_PT_Slot@@8
rdata$r	SEGMENT
??_R3DB_Set_PT_Slot@@8 DD 00H				; DB_Set_PT_Slot::`RTTI Class Hierarchy Descriptor'
	DD	00H
	DD	04H
	DD	FLAT:??_R2DB_Set_PT_Slot@@8
rdata$r	ENDS
;	COMDAT ??_R0?AVDB_Set_PT_Slot@@@8
_DATA	SEGMENT
??_R0?AVDB_Set_PT_Slot@@@8 DD FLAT:??_7type_info@@6B@	; DB_Set_PT_Slot `RTTI Type Descriptor'
	DD	00H
	DB	'.?AVDB_Set_PT_Slot@@', 00H
_DATA	ENDS
;	COMDAT ??_R4DB_Set_PT_Slot@@6B@
rdata$r	SEGMENT
??_R4DB_Set_PT_Slot@@6B@ DD 00H				; DB_Set_PT_Slot::`RTTI Complete Object Locator'
	DD	00H
	DD	00H
	DD	FLAT:??_R0?AVDB_Set_PT_Slot@@@8
	DD	FLAT:??_R3DB_Set_PT_Slot@@8
rdata$r	ENDS
;	COMDAT ??_R1A@?0A@EA@DB_Damage_Vehicle_Occupants_Area_Timer@@8
rdata$r	SEGMENT
??_R1A@?0A@EA@DB_Damage_Vehicle_Occupants_Area_Timer@@8 DD FLAT:??_R0?AVDB_Damage_Vehicle_Occupants_Area_Timer@@@8 ; DB_Damage_Vehicle_Occupants_Area_Timer::`RTTI Base Class Descriptor at (0,-1,0,64)'
	DD	03H
	DD	00H
	DD	0ffffffffH
	DD	00H
	DD	040H
	DD	FLAT:??_R3DB_Damage_Vehicle_Occupants_Area_Timer@@8
rdata$r	ENDS
;	COMDAT ??_R2DB_Damage_Vehicle_Occupants_Area_Timer@@8
rdata$r	SEGMENT
??_R2DB_Damage_Vehicle_Occupants_Area_Timer@@8 DD FLAT:??_R1A@?0A@EA@DB_Damage_Vehicle_Occupants_Area_Timer@@8 ; DB_Damage_Vehicle_Occupants_Area_Timer::`RTTI Base Class Array'
	DD	FLAT:??_R1A@?0A@EA@ScriptImpClass@@8
	DD	FLAT:??_R1A@?0A@EA@ScriptClass@@8
	DD	FLAT:??_R1A@?0A@EA@GameObjObserverClass@@8
rdata$r	ENDS
;	COMDAT ??_R3DB_Damage_Vehicle_Occupants_Area_Timer@@8
rdata$r	SEGMENT
??_R3DB_Damage_Vehicle_Occupants_Area_Timer@@8 DD 00H	; DB_Damage_Vehicle_Occupants_Area_Timer::`RTTI Class Hierarchy Descriptor'
	DD	00H
	DD	04H
	DD	FLAT:??_R2DB_Damage_Vehicle_Occupants_Area_Timer@@8
rdata$r	ENDS
;	COMDAT ??_R0?AVDB_Damage_Vehicle_Occupants_Area_Timer@@@8
_DATA	SEGMENT
??_R0?AVDB_Damage_Vehicle_Occupants_Area_Timer@@@8 DD FLAT:??_7type_info@@6B@ ; DB_Damage_Vehicle_Occupants_Area_Timer `RTTI Type Descriptor'
	DD	00H
	DB	'.?AVDB_Damage_Vehicle_Occupants_Area_Timer@@', 00H
_DATA	ENDS
;	COMDAT ??_R4DB_Damage_Vehicle_Occupants_Area_Timer@@6B@
rdata$r	SEGMENT
??_R4DB_Damage_Vehicle_Occupants_Area_Timer@@6B@ DD 00H	; DB_Damage_Vehicle_Occupants_Area_Timer::`RTTI Complete Object Locator'
	DD	00H
	DD	00H
	DD	FLAT:??_R0?AVDB_Damage_Vehicle_Occupants_Area_Timer@@@8
	DD	FLAT:??_R3DB_Damage_Vehicle_Occupants_Area_Timer@@8
rdata$r	ENDS
;	COMDAT ??_R1A@?0A@EA@DB_Damage_Vehicle_Occupants_Area_Killed@@8
rdata$r	SEGMENT
??_R1A@?0A@EA@DB_Damage_Vehicle_Occupants_Area_Killed@@8 DD FLAT:??_R0?AVDB_Damage_Vehicle_Occupants_Area_Killed@@@8 ; DB_Damage_Vehicle_Occupants_Area_Killed::`RTTI Base Class Descriptor at (0,-1,0,64)'
	DD	03H
	DD	00H
	DD	0ffffffffH
	DD	00H
	DD	040H
	DD	FLAT:??_R3DB_Damage_Vehicle_Occupants_Area_Killed@@8
rdata$r	ENDS
;	COMDAT ??_R2DB_Damage_Vehicle_Occupants_Area_Killed@@8
rdata$r	SEGMENT
??_R2DB_Damage_Vehicle_Occupants_Area_Killed@@8 DD FLAT:??_R1A@?0A@EA@DB_Damage_Vehicle_Occupants_Area_Killed@@8 ; DB_Damage_Vehicle_Occupants_Area_Killed::`RTTI Base Class Array'
	DD	FLAT:??_R1A@?0A@EA@ScriptImpClass@@8
	DD	FLAT:??_R1A@?0A@EA@ScriptClass@@8
	DD	FLAT:??_R1A@?0A@EA@GameObjObserverClass@@8
rdata$r	ENDS
;	COMDAT ??_R3DB_Damage_Vehicle_Occupants_Area_Killed@@8
rdata$r	SEGMENT
??_R3DB_Damage_Vehicle_Occupants_Area_Killed@@8 DD 00H	; DB_Damage_Vehicle_Occupants_Area_Killed::`RTTI Class Hierarchy Descriptor'
	DD	00H
	DD	04H
	DD	FLAT:??_R2DB_Damage_Vehicle_Occupants_Area_Killed@@8
rdata$r	ENDS
;	COMDAT ??_R0?AVDB_Damage_Vehicle_Occupants_Area_Killed@@@8
_DATA	SEGMENT
??_R0?AVDB_Damage_Vehicle_Occupants_Area_Killed@@@8 DD FLAT:??_7type_info@@6B@ ; DB_Damage_Vehicle_Occupants_Area_Killed `RTTI Type Descriptor'
	DD	00H
	DB	'.?AVDB_Damage_Vehicle_Occupants_Area_Killed@@', 00H
_DATA	ENDS
;	COMDAT ??_R4DB_Damage_Vehicle_Occupants_Area_Killed@@6B@
rdata$r	SEGMENT
??_R4DB_Damage_Vehicle_Occupants_Area_Killed@@6B@ DD 00H ; DB_Damage_Vehicle_Occupants_Area_Killed::`RTTI Complete Object Locator'
	DD	00H
	DD	00H
	DD	FLAT:??_R0?AVDB_Damage_Vehicle_Occupants_Area_Killed@@@8
	DD	FLAT:??_R3DB_Damage_Vehicle_Occupants_Area_Killed@@8
rdata$r	ENDS
;	COMDAT ??_R1A@?0A@EA@DB_Supply_Truck@@8
rdata$r	SEGMENT
??_R1A@?0A@EA@DB_Supply_Truck@@8 DD FLAT:??_R0?AVDB_Supply_Truck@@@8 ; DB_Supply_Truck::`RTTI Base Class Descriptor at (0,-1,0,64)'
	DD	03H
	DD	00H
	DD	0ffffffffH
	DD	00H
	DD	040H
	DD	FLAT:??_R3DB_Supply_Truck@@8
rdata$r	ENDS
