; Listing generated by Microsoft (R) Optimizing Compiler Version 17.00.61219.0 

	TITLE	X:\GitHub\Renegade\Dragonade_RxD\scripts\dp88_ar.cpp
	.686P
	.XMM
	include listing.inc
	.model	flat

INCLUDELIB MSVCRTD
INCLUDELIB OLDNAMES

PUBLIC	?TYPE_OFFENSIVE@dp88_AI_Objective@@2IB		; dp88_AI_Objective::TYPE_OFFENSIVE
PUBLIC	?TYPE_DEFENSIVE@dp88_AI_Objective@@2IB		; dp88_AI_Objective::TYPE_DEFENSIVE
PUBLIC	?TYPE_ENGINEERING@dp88_AI_Objective@@2IB	; dp88_AI_Objective::TYPE_ENGINEERING
PUBLIC	?UNITTYPE_SOLDIER@dp88_AI_Objective@@1EB	; dp88_AI_Objective::UNITTYPE_SOLDIER
PUBLIC	?UNITTYPE_LVEHICLE@dp88_AI_Objective@@1EB	; dp88_AI_Objective::UNITTYPE_LVEHICLE
PUBLIC	?UNITTYPE_HVEHICLE@dp88_AI_Objective@@1EB	; dp88_AI_Objective::UNITTYPE_HVEHICLE
PUBLIC	?UNITTYPE_AIRCRAFT@dp88_AI_Objective@@1EB	; dp88_AI_Objective::UNITTYPE_AIRCRAFT
PUBLIC	?UNITTYPE_MAX@dp88_AI_Objective@@1EB		; dp88_AI_Objective::UNITTYPE_MAX
PUBLIC	?UNITTYPE_UNKNOWN@dp88_AI_Objective@@1EB	; dp88_AI_Objective::UNITTYPE_UNKNOWN
PUBLIC	??_C@_0M@JIDAOJHN@CLEG_Weapon?$AA@		; `string'
PUBLIC	?MODE_DEFAULT@dp88_conquestController@@1EB	; dp88_conquestController::MODE_DEFAULT
PUBLIC	?MODE_DEDUCTION@dp88_conquestController@@1EB	; dp88_conquestController::MODE_DEDUCTION
PUBLIC	?MAX_TOWERS@dp88_AR_Prism_Tower@@0HB		; dp88_AR_Prism_Tower::MAX_TOWERS
PUBLIC	?prismTowerCount@dp88_AR_Prism_Tower@@0HA	; dp88_AR_Prism_Tower::prismTowerCount
PUBLIC	?prismTowerIds@dp88_AR_Prism_Tower@@0PAHA	; dp88_AR_Prism_Tower::prismTowerIds
PUBLIC	?prismTowerScripts@dp88_AR_Prism_Tower@@0PAPAV1@A ; dp88_AR_Prism_Tower::prismTowerScripts
PUBLIC	?ACTION_ID_MOVE_TO_OBJECTIVE@dp88_AI_Unit@@1HB	; dp88_AI_Unit::ACTION_ID_MOVE_TO_OBJECTIVE
PUBLIC	?ACTION_ID_ATTACK_TARGET@dp88_AI_Unit@@1HB	; dp88_AI_Unit::ACTION_ID_ATTACK_TARGET
PUBLIC	?MODE_HEALTH@dp88_RegenerateHitpoints@@1HB	; dp88_RegenerateHitpoints::MODE_HEALTH
PUBLIC	?MODE_ARMOUR@dp88_RegenerateHitpoints@@1HB	; dp88_RegenerateHitpoints::MODE_ARMOUR
PUBLIC	?MODE_PILOTED_HEALTH@dp88_RegenerateHitpoints@@1HB ; dp88_RegenerateHitpoints::MODE_PILOTED_HEALTH
PUBLIC	?MODE_PILOTED_ARMOUR@dp88_RegenerateHitpoints@@1HB ; dp88_RegenerateHitpoints::MODE_PILOTED_ARMOUR
PUBLIC	?MODE_OCCUPIED_HEALTH@dp88_RegenerateHitpoints@@1HB ; dp88_RegenerateHitpoints::MODE_OCCUPIED_HEALTH
PUBLIC	?MODE_OCCUPIED_ARMOUR@dp88_RegenerateHitpoints@@1HB ; dp88_RegenerateHitpoints::MODE_OCCUPIED_ARMOUR
PUBLIC	?MODE_DRIVER_HEALTH@dp88_RegenerateHitpoints@@1HB ; dp88_RegenerateHitpoints::MODE_DRIVER_HEALTH
PUBLIC	?MODE_DRIVER_ARMOUR@dp88_RegenerateHitpoints@@1HB ; dp88_RegenerateHitpoints::MODE_DRIVER_ARMOUR
PUBLIC	?MODE_PASSENGERS_HEALTH@dp88_RegenerateHitpoints@@1HB ; dp88_RegenerateHitpoints::MODE_PASSENGERS_HEALTH
PUBLIC	?MODE_PASSENGERS_ARMOUR@dp88_RegenerateHitpoints@@1HB ; dp88_RegenerateHitpoints::MODE_PASSENGERS_ARMOUR
PUBLIC	?STATE_UNDEPLOYED@dp88_AI_PopupTurret@@1EB	; dp88_AI_PopupTurret::STATE_UNDEPLOYED
PUBLIC	?STATE_DEPLOYING@dp88_AI_PopupTurret@@1EB	; dp88_AI_PopupTurret::STATE_DEPLOYING
PUBLIC	?STATE_DEPLOYED@dp88_AI_PopupTurret@@1EB	; dp88_AI_PopupTurret::STATE_DEPLOYED
PUBLIC	?STATE_UNDEPLOYING@dp88_AI_PopupTurret@@1EB	; dp88_AI_PopupTurret::STATE_UNDEPLOYING
_BSS	SEGMENT
?prismTowerCount@dp88_AR_Prism_Tower@@0HA DD 01H DUP (?) ; dp88_AR_Prism_Tower::prismTowerCount
?prismTowerIds@dp88_AR_Prism_Tower@@0PAHA DD 014H DUP (?) ; dp88_AR_Prism_Tower::prismTowerIds
?prismTowerScripts@dp88_AR_Prism_Tower@@0PAPAV1@A DD 014H DUP (?) ; dp88_AR_Prism_Tower::prismTowerScripts
_BSS	ENDS
;	COMDAT ?STATE_UNDEPLOYING@dp88_AI_PopupTurret@@1EB
CONST	SEGMENT
?STATE_UNDEPLOYING@dp88_AI_PopupTurret@@1EB DB 03H	; dp88_AI_PopupTurret::STATE_UNDEPLOYING
CONST	ENDS
;	COMDAT ?STATE_DEPLOYED@dp88_AI_PopupTurret@@1EB
CONST	SEGMENT
?STATE_DEPLOYED@dp88_AI_PopupTurret@@1EB DB 02H		; dp88_AI_PopupTurret::STATE_DEPLOYED
CONST	ENDS
;	COMDAT ?STATE_DEPLOYING@dp88_AI_PopupTurret@@1EB
CONST	SEGMENT
?STATE_DEPLOYING@dp88_AI_PopupTurret@@1EB DB 01H	; dp88_AI_PopupTurret::STATE_DEPLOYING
CONST	ENDS
;	COMDAT ?STATE_UNDEPLOYED@dp88_AI_PopupTurret@@1EB
CONST	SEGMENT
?STATE_UNDEPLOYED@dp88_AI_PopupTurret@@1EB DB 00H	; dp88_AI_PopupTurret::STATE_UNDEPLOYED
CONST	ENDS
;	COMDAT ?MODE_PASSENGERS_ARMOUR@dp88_RegenerateHitpoints@@1HB
CONST	SEGMENT
?MODE_PASSENGERS_ARMOUR@dp88_RegenerateHitpoints@@1HB DD 0200H ; dp88_RegenerateHitpoints::MODE_PASSENGERS_ARMOUR
CONST	ENDS
;	COMDAT ?MODE_PASSENGERS_HEALTH@dp88_RegenerateHitpoints@@1HB
CONST	SEGMENT
?MODE_PASSENGERS_HEALTH@dp88_RegenerateHitpoints@@1HB DD 0100H ; dp88_RegenerateHitpoints::MODE_PASSENGERS_HEALTH
CONST	ENDS
;	COMDAT ?MODE_DRIVER_ARMOUR@dp88_RegenerateHitpoints@@1HB
CONST	SEGMENT
?MODE_DRIVER_ARMOUR@dp88_RegenerateHitpoints@@1HB DD 080H ; dp88_RegenerateHitpoints::MODE_DRIVER_ARMOUR
CONST	ENDS
;	COMDAT ?MODE_DRIVER_HEALTH@dp88_RegenerateHitpoints@@1HB
CONST	SEGMENT
?MODE_DRIVER_HEALTH@dp88_RegenerateHitpoints@@1HB DD 040H ; dp88_RegenerateHitpoints::MODE_DRIVER_HEALTH
CONST	ENDS
;	COMDAT ?MODE_OCCUPIED_ARMOUR@dp88_RegenerateHitpoints@@1HB
CONST	SEGMENT
?MODE_OCCUPIED_ARMOUR@dp88_RegenerateHitpoints@@1HB DD 020H ; dp88_RegenerateHitpoints::MODE_OCCUPIED_ARMOUR
CONST	ENDS
;	COMDAT ?MODE_OCCUPIED_HEALTH@dp88_RegenerateHitpoints@@1HB
CONST	SEGMENT
?MODE_OCCUPIED_HEALTH@dp88_RegenerateHitpoints@@1HB DD 010H ; dp88_RegenerateHitpoints::MODE_OCCUPIED_HEALTH
CONST	ENDS
;	COMDAT ?MODE_PILOTED_ARMOUR@dp88_RegenerateHitpoints@@1HB
CONST	SEGMENT
?MODE_PILOTED_ARMOUR@dp88_RegenerateHitpoints@@1HB DD 08H ; dp88_RegenerateHitpoints::MODE_PILOTED_ARMOUR
CONST	ENDS
;	COMDAT ?MODE_PILOTED_HEALTH@dp88_RegenerateHitpoints@@1HB
CONST	SEGMENT
?MODE_PILOTED_HEALTH@dp88_RegenerateHitpoints@@1HB DD 04H ; dp88_RegenerateHitpoints::MODE_PILOTED_HEALTH
CONST	ENDS
;	COMDAT ?MODE_ARMOUR@dp88_RegenerateHitpoints@@1HB
CONST	SEGMENT
?MODE_ARMOUR@dp88_RegenerateHitpoints@@1HB DD 02H	; dp88_RegenerateHitpoints::MODE_ARMOUR
CONST	ENDS
;	COMDAT ?MODE_HEALTH@dp88_RegenerateHitpoints@@1HB
CONST	SEGMENT
?MODE_HEALTH@dp88_RegenerateHitpoints@@1HB DD 01H	; dp88_RegenerateHitpoints::MODE_HEALTH
CONST	ENDS
;	COMDAT ?ACTION_ID_ATTACK_TARGET@dp88_AI_Unit@@1HB
CONST	SEGMENT
?ACTION_ID_ATTACK_TARGET@dp88_AI_Unit@@1HB DD 077c812H	; dp88_AI_Unit::ACTION_ID_ATTACK_TARGET
CONST	ENDS
;	COMDAT ?ACTION_ID_MOVE_TO_OBJECTIVE@dp88_AI_Unit@@1HB
CONST	SEGMENT
?ACTION_ID_MOVE_TO_OBJECTIVE@dp88_AI_Unit@@1HB DD 077c811H ; dp88_AI_Unit::ACTION_ID_MOVE_TO_OBJECTIVE
CONST	ENDS
CONST	SEGMENT
_DONT_MOVE_ARRIVED_DIST DD 0447a0000r		; 1000
CONST	ENDS
;	COMDAT ?MAX_TOWERS@dp88_AR_Prism_Tower@@0HB
CONST	SEGMENT
?MAX_TOWERS@dp88_AR_Prism_Tower@@0HB DD 014H		; dp88_AR_Prism_Tower::MAX_TOWERS
CONST	ENDS
;	COMDAT ?MODE_DEDUCTION@dp88_conquestController@@1EB
CONST	SEGMENT
?MODE_DEDUCTION@dp88_conquestController@@1EB DB 01H	; dp88_conquestController::MODE_DEDUCTION
CONST	ENDS
;	COMDAT ?MODE_DEFAULT@dp88_conquestController@@1EB
CONST	SEGMENT
?MODE_DEFAULT@dp88_conquestController@@1EB DB 00H	; dp88_conquestController::MODE_DEFAULT
CONST	ENDS
;	COMDAT ??_C@_0M@JIDAOJHN@CLEG_Weapon?$AA@
CONST	SEGMENT
??_C@_0M@JIDAOJHN@CLEG_Weapon?$AA@ DB 'CLEG_Weapon', 00H ; `string'
CONST	ENDS
_DATA	SEGMENT
?Comparison@?1??Damaged@dp88_AR_CLEG_target@@EAEXPAVScriptableGameObj@@0M@Z@4PBDB DD FLAT:??_C@_0M@JIDAOJHN@CLEG_Weapon?$AA@ ; `dp88_AR_CLEG_target::Damaged'::`2'::Comparison
_DATA	ENDS
;	COMDAT ?UNITTYPE_UNKNOWN@dp88_AI_Objective@@1EB
CONST	SEGMENT
?UNITTYPE_UNKNOWN@dp88_AI_Objective@@1EB DB 0ffH	; dp88_AI_Objective::UNITTYPE_UNKNOWN
CONST	ENDS
;	COMDAT ?UNITTYPE_MAX@dp88_AI_Objective@@1EB
CONST	SEGMENT
?UNITTYPE_MAX@dp88_AI_Objective@@1EB DB 03H		; dp88_AI_Objective::UNITTYPE_MAX
CONST	ENDS
;	COMDAT ?UNITTYPE_AIRCRAFT@dp88_AI_Objective@@1EB
CONST	SEGMENT
?UNITTYPE_AIRCRAFT@dp88_AI_Objective@@1EB DB 03H	; dp88_AI_Objective::UNITTYPE_AIRCRAFT
CONST	ENDS
;	COMDAT ?UNITTYPE_HVEHICLE@dp88_AI_Objective@@1EB
CONST	SEGMENT
?UNITTYPE_HVEHICLE@dp88_AI_Objective@@1EB DB 02H	; dp88_AI_Objective::UNITTYPE_HVEHICLE
CONST	ENDS
;	COMDAT ?UNITTYPE_LVEHICLE@dp88_AI_Objective@@1EB
CONST	SEGMENT
?UNITTYPE_LVEHICLE@dp88_AI_Objective@@1EB DB 01H	; dp88_AI_Objective::UNITTYPE_LVEHICLE
CONST	ENDS
;	COMDAT ?UNITTYPE_SOLDIER@dp88_AI_Objective@@1EB
CONST	SEGMENT
?UNITTYPE_SOLDIER@dp88_AI_Objective@@1EB DB 00H		; dp88_AI_Objective::UNITTYPE_SOLDIER
CONST	ENDS
;	COMDAT ?TYPE_ENGINEERING@dp88_AI_Objective@@2IB
CONST	SEGMENT
?TYPE_ENGINEERING@dp88_AI_Objective@@2IB DD 03H		; dp88_AI_Objective::TYPE_ENGINEERING
CONST	ENDS
;	COMDAT ?TYPE_DEFENSIVE@dp88_AI_Objective@@2IB
CONST	SEGMENT
?TYPE_DEFENSIVE@dp88_AI_Objective@@2IB DD 02H		; dp88_AI_Objective::TYPE_DEFENSIVE
CONST	ENDS
;	COMDAT ?TYPE_OFFENSIVE@dp88_AI_Objective@@2IB
CONST	SEGMENT
?TYPE_OFFENSIVE@dp88_AI_Objective@@2IB DD 01H		; dp88_AI_Objective::TYPE_OFFENSIVE
CONST	ENDS
PUBLIC	??_H@YGXPAXIHP6EPAX0@Z@Z			; `vector constructor iterator'
PUBLIC	??_I@YGXPAXIHP6EX0@Z@Z				; `vector destructor iterator'
PUBLIC	_fabsf
PUBLIC	_acosf
PUBLIC	_asinf
PUBLIC	_atanf
PUBLIC	_atan2f
PUBLIC	_ceilf
PUBLIC	_cosf
PUBLIC	_floorf
PUBLIC	_sinf
PUBLIC	_sqrtf
PUBLIC	?abs@@YAMM@Z					; abs
PUBLIC	?acos@@YAMM@Z					; acos
PUBLIC	?asin@@YAMM@Z					; asin
PUBLIC	?atan@@YAMM@Z					; atan
PUBLIC	?atan2@@YAMMM@Z					; atan2
PUBLIC	?ceil@@YAMM@Z					; ceil
PUBLIC	?cos@@YAMM@Z					; cos
PUBLIC	?fabs@@YAMM@Z					; fabs
PUBLIC	?sin@@YAMM@Z					; sin
PUBLIC	?sqrt@@YAMM@Z					; sqrt
PUBLIC	?Fabs@WWMath@@SAMM@Z				; WWMath::Fabs
PUBLIC	?Float_To_Int_Chop@WWMath@@SAHABM@Z		; WWMath::Float_To_Int_Chop
PUBLIC	?Float_To_Int_Floor@WWMath@@SAHABM@Z		; WWMath::Float_To_Int_Floor
PUBLIC	?Cos@WWMath@@SAMM@Z				; WWMath::Cos
PUBLIC	?Sin@WWMath@@SAMM@Z				; WWMath::Sin
PUBLIC	?Sqrt@WWMath@@SAMM@Z				; WWMath::Sqrt
PUBLIC	?Inv_Sqrt@WWMath@@SIMM@Z			; WWMath::Inv_Sqrt
PUBLIC	?Float_To_Long@WWMath@@SAJM@Z			; WWMath::Float_To_Long
PUBLIC	?Fast_Sin@WWMath@@SAMM@Z			; WWMath::Fast_Sin
PUBLIC	?Fast_Inv_Sin@WWMath@@SAMM@Z			; WWMath::Fast_Inv_Sin
PUBLIC	?Fast_Cos@WWMath@@SAMM@Z			; WWMath::Fast_Cos
PUBLIC	?Fast_Inv_Cos@WWMath@@SAMM@Z			; WWMath::Fast_Inv_Cos
PUBLIC	?Fast_Acos@WWMath@@SAMM@Z			; WWMath::Fast_Acos
PUBLIC	?Fast_Asin@WWMath@@SAMM@Z			; WWMath::Fast_Asin
PUBLIC	?Acos@WWMath@@SAMM@Z				; WWMath::Acos
PUBLIC	?Asin@WWMath@@SAMM@Z				; WWMath::Asin
PUBLIC	?Atan@WWMath@@SAMM@Z				; WWMath::Atan
PUBLIC	?Atan2@WWMath@@SAMMM@Z				; WWMath::Atan2
PUBLIC	?Sign@WWMath@@SAMM@Z				; WWMath::Sign
PUBLIC	?Ceil@WWMath@@SAMM@Z				; WWMath::Ceil
PUBLIC	?Floor@WWMath@@SAMM@Z				; WWMath::Floor
PUBLIC	?Fast_Is_Float_Positive@WWMath@@SA_NABM@Z	; WWMath::Fast_Is_Float_Positive
PUBLIC	?Random_Float@WWMath@@SAMMM@Z			; WWMath::Random_Float
PUBLIC	?Clamp@WWMath@@SAMMMM@Z				; WWMath::Clamp
PUBLIC	?Clamp@WWMath@@SANNNN@Z				; WWMath::Clamp
PUBLIC	?Clamp_Int@WWMath@@SAHHHH@Z			; WWMath::Clamp_Int
PUBLIC	?Wrap@WWMath@@SAMMMM@Z				; WWMath::Wrap
PUBLIC	?Wrap@WWMath@@SANNNN@Z				; WWMath::Wrap
PUBLIC	?Min@WWMath@@SAMMM@Z				; WWMath::Min
PUBLIC	?Max@WWMath@@SAMMM@Z				; WWMath::Max
PUBLIC	?Lerp@WWMath@@SAMMMM@Z				; WWMath::Lerp
PUBLIC	?Lerp@WWMath@@SANNNM@Z				; WWMath::Lerp
PUBLIC	?Lerp@WWMath@@SAHHHM@Z				; WWMath::Lerp
PUBLIC	?Float_To_Long@WWMath@@SAJN@Z			; WWMath::Float_To_Long
PUBLIC	?Unit_Float_To_Byte@WWMath@@SAEM@Z		; WWMath::Unit_Float_To_Byte
PUBLIC	?Byte_To_Unit_Float@WWMath@@SAME@Z		; WWMath::Byte_To_Unit_Float
PUBLIC	?Is_Valid_Float@WWMath@@SA_NM@Z			; WWMath::Is_Valid_Float
PUBLIC	?Is_Valid_Double@WWMath@@SA_NN@Z		; WWMath::Is_Valid_Double
PUBLIC	??4WWMath@@QAEAAV0@ABV0@@Z			; WWMath::operator=
PUBLIC	??B?$RefArrayHelper@M$0EAA@@@QAEPAMXZ		; RefArrayHelper<float,1024>::operator float *
PUBLIC	??0Vector3@@QAE@XZ				; Vector3::Vector3
PUBLIC	??0Vector3@@QAE@ABV0@@Z				; Vector3::Vector3
PUBLIC	??0Vector3@@QAE@MMM@Z				; Vector3::Vector3
PUBLIC	??4Vector3@@QAEAAV0@ABV0@@Z			; Vector3::operator=
PUBLIC	?Set@Vector3@@QAEXMMM@Z				; Vector3::Set
PUBLIC	??AVector3@@QAEAAMH@Z				; Vector3::operator[]
PUBLIC	??AVector3@@QBEABMH@Z				; Vector3::operator[]
PUBLIC	?Normalize@Vector3@@QAEXXZ			; Vector3::Normalize
PUBLIC	?Length@Vector3@@QBEMXZ				; Vector3::Length
PUBLIC	?Length2@Vector3@@QBEMXZ			; Vector3::Length2
PUBLIC	??YVector3@@QAEAAV0@ABV0@@Z			; Vector3::operator+=
PUBLIC	??ZVector3@@QAEAAV0@ABV0@@Z			; Vector3::operator-=
PUBLIC	??XVector3@@QAEAAV0@M@Z				; Vector3::operator*=
PUBLIC	??_0Vector3@@QAEAAV0@M@Z			; Vector3::operator/=
PUBLIC	??D@YA?AVVector3@@ABV0@M@Z			; operator*
PUBLIC	??D@YA?AVVector3@@MABV0@@Z			; operator*
PUBLIC	??H@YA?AVVector3@@ABV0@0@Z			; operator+
PUBLIC	??G@YA?AVVector3@@ABV0@0@Z			; operator-
PUBLIC	?Add@Vector3@@SAXABV1@0PAV1@@Z			; Vector3::Add
PUBLIC	?Subtract@Vector3@@SAXABV1@0PAV1@@Z		; Vector3::Subtract
PUBLIC	?Distance_Squared@Vector3@@SAMABV1@0@Z		; Vector3::Distance_Squared
PUBLIC	?Swap@@YAXAAVVector3@@0@Z			; Swap
PUBLIC	??0GameObjObserverClass@@QAE@XZ			; GameObjObserverClass::GameObjObserverClass
PUBLIC	??1GameObjObserverClass@@UAE@XZ			; GameObjObserverClass::~GameObjObserverClass
PUBLIC	?Set_ID@GameObjObserverClass@@QAEXH@Z		; GameObjObserverClass::Set_ID
PUBLIC	?Get_ID@GameObjObserverClass@@QAEHXZ		; GameObjObserverClass::Get_ID
PUBLIC	?Owner@GameObjObserverClass@@UAEPAVScriptableGameObj@@XZ ; GameObjObserverClass::Owner
PUBLIC	??0GameObjObserverClass@@QAE@ABV0@@Z		; GameObjObserverClass::GameObjObserverClass
PUBLIC	??4GameObjObserverClass@@QAEAAV0@ABV0@@Z	; GameObjObserverClass::operator=
PUBLIC	??_GGameObjObserverClass@@UAEPAXI@Z		; GameObjObserverClass::`scalar deleting destructor'
PUBLIC	??_EGameObjObserverClass@@UAEPAXI@Z		; GameObjObserverClass::`vector deleting destructor'
PUBLIC	??1ScriptClass@@UAE@XZ				; ScriptClass::~ScriptClass
PUBLIC	??0ScriptClass@@QAE@XZ				; ScriptClass::ScriptClass
PUBLIC	??0ScriptClass@@QAE@ABV0@@Z			; ScriptClass::ScriptClass
PUBLIC	??4ScriptClass@@QAEAAV0@ABV0@@Z			; ScriptClass::operator=
PUBLIC	??_GScriptClass@@UAEPAXI@Z			; ScriptClass::`scalar deleting destructor'
PUBLIC	??_EScriptClass@@UAEPAXI@Z			; ScriptClass::`vector deleting destructor'
PUBLIC	?SetFactory@ScriptImpClass@@QAEXPAVScriptFactory@@@Z ; ScriptImpClass::SetFactory
PUBLIC	?Created@ScriptImpClass@@UAEXPAVScriptableGameObj@@@Z ; ScriptImpClass::Created
PUBLIC	?Destroyed@ScriptImpClass@@UAEXPAVScriptableGameObj@@@Z ; ScriptImpClass::Destroyed
PUBLIC	?Killed@ScriptImpClass@@UAEXPAVScriptableGameObj@@0@Z ; ScriptImpClass::Killed
PUBLIC	?Damaged@ScriptImpClass@@UAEXPAVScriptableGameObj@@0M@Z ; ScriptImpClass::Damaged
PUBLIC	?Custom@ScriptImpClass@@UAEXPAVScriptableGameObj@@HH0@Z ; ScriptImpClass::Custom
PUBLIC	?Sound_Heard@ScriptImpClass@@UAEXPAVScriptableGameObj@@ABUCombatSound@@@Z ; ScriptImpClass::Sound_Heard
PUBLIC	?Enemy_Seen@ScriptImpClass@@UAEXPAVScriptableGameObj@@0@Z ; ScriptImpClass::Enemy_Seen
PUBLIC	?Action_Complete@ScriptImpClass@@UAEXPAVScriptableGameObj@@HW4ActionCompleteReason@@@Z ; ScriptImpClass::Action_Complete
PUBLIC	?Timer_Expired@ScriptImpClass@@UAEXPAVScriptableGameObj@@H@Z ; ScriptImpClass::Timer_Expired
PUBLIC	?Animation_Complete@ScriptImpClass@@UAEXPAVScriptableGameObj@@PBD@Z ; ScriptImpClass::Animation_Complete
PUBLIC	?Poked@ScriptImpClass@@UAEXPAVScriptableGameObj@@0@Z ; ScriptImpClass::Poked
PUBLIC	?Entered@ScriptImpClass@@UAEXPAVScriptableGameObj@@0@Z ; ScriptImpClass::Entered
PUBLIC	?Exited@ScriptImpClass@@UAEXPAVScriptableGameObj@@0@Z ; ScriptImpClass::Exited
PUBLIC	?Owner@ScriptImpClass@@UAEPAVScriptableGameObj@@XZ ; ScriptImpClass::Owner
PUBLIC	?Get_Owner_Ptr@ScriptImpClass@@UAEPAPAVScriptableGameObj@@XZ ; ScriptImpClass::Get_Owner_Ptr
PUBLIC	?Save_Data@ScriptImpClass@@UAEXAAVScriptSaver@@@Z ; ScriptImpClass::Save_Data
PUBLIC	?Load_Data@ScriptImpClass@@UAEXAAVScriptLoader@@@Z ; ScriptImpClass::Load_Data
PUBLIC	?Register_Auto_Save_Variables@ScriptImpClass@@UAEXXZ ; ScriptImpClass::Register_Auto_Save_Variables
PUBLIC	?Get_Parameter_Count@ScriptImpClass@@QAEHXZ	; ScriptImpClass::Get_Parameter_Count
PUBLIC	?Get_Int_Parameter@ScriptImpClass@@QAEHH@Z	; ScriptImpClass::Get_Int_Parameter
PUBLIC	?Get_Float_Parameter@ScriptImpClass@@QAEMH@Z	; ScriptImpClass::Get_Float_Parameter
PUBLIC	?Get_Bool_Parameter@ScriptImpClass@@QAE_NPBD@Z	; ScriptImpClass::Get_Bool_Parameter
PUBLIC	?Get_Bool_Parameter@ScriptImpClass@@QAE_NH@Z	; ScriptImpClass::Get_Bool_Parameter
PUBLIC	??0ScriptImpClass@@QAE@ABV0@@Z			; ScriptImpClass::ScriptImpClass
PUBLIC	??4ScriptImpClass@@QAEAAV0@ABV0@@Z		; ScriptImpClass::operator=
PUBLIC	??_GScriptImpClass@@UAEPAXI@Z			; ScriptImpClass::`scalar deleting destructor'
PUBLIC	??_EScriptImpClass@@UAEPAXI@Z			; ScriptImpClass::`vector deleting destructor'
PUBLIC	??0ActionParamsStruct@@QAE@XZ			; ActionParamsStruct::ActionParamsStruct
PUBLIC	?Set_Basic@ActionParamsStruct@@QAEXPAVGameObjObserverClass@@MHW4SoldierAIState@@@Z ; ActionParamsStruct::Set_Basic
PUBLIC	?Set_Movement@ActionParamsStruct@@QAEXABVVector3@@MM_N@Z ; ActionParamsStruct::Set_Movement
PUBLIC	??0ScriptFactory@@QAE@ABV0@@Z			; ScriptFactory::ScriptFactory
PUBLIC	??4ScriptFactory@@QAEAAV0@ABV0@@Z		; ScriptFactory::operator=
PUBLIC	??_GScriptFactory@@UAEPAXI@Z			; ScriptFactory::`scalar deleting destructor'
PUBLIC	??_EScriptFactory@@UAEPAXI@Z			; ScriptFactory::`vector deleting destructor'
PUBLIC	??4ScriptRegistrar@@QAEAAV0@ABV0@@Z		; ScriptRegistrar::operator=
PUBLIC	?Is_Running@ThreadClass@@QAE_NXZ		; ThreadClass::Is_Running
PUBLIC	?Get_Current_Thread_ID@ThreadClass@@SAHXZ	; ThreadClass::Get_Current_Thread_ID
PUBLIC	?Get_Name@ThreadClass@@QAEPBDXZ			; ThreadClass::Get_Name
PUBLIC	??0ThreadClass@@QAE@ABV0@@Z			; ThreadClass::ThreadClass
PUBLIC	??4ThreadClass@@QAEAAV0@ABV0@@Z			; ThreadClass::operator=
PUBLIC	??_GThreadClass@@UAEPAXI@Z			; ThreadClass::`scalar deleting destructor'
PUBLIC	??_EThreadClass@@UAEPAXI@Z			; ThreadClass::`vector deleting destructor'
PUBLIC	??4CriticalSectionClass@@QAEAAV0@ABV0@@Z	; CriticalSectionClass::operator=
PUBLIC	?Enter@FastCriticalSectionClass@@AAEXXZ		; FastCriticalSectionClass::Enter
PUBLIC	?Leave@FastCriticalSectionClass@@AAEXXZ		; FastCriticalSectionClass::Leave
PUBLIC	??0LockClass@FastCriticalSectionClass@@QAE@AAV1@@Z ; FastCriticalSectionClass::LockClass::LockClass
PUBLIC	??1LockClass@FastCriticalSectionClass@@QAE@XZ	; FastCriticalSectionClass::LockClass::~LockClass
PUBLIC	??0FastCriticalSectionClass@@QAE@XZ		; FastCriticalSectionClass::FastCriticalSectionClass
PUBLIC	??0StringClass@@QAE@_N@Z			; StringClass::StringClass
PUBLIC	??0StringClass@@QAE@H_N@Z			; StringClass::StringClass
PUBLIC	??0StringClass@@QAE@ABV0@_N@Z			; StringClass::StringClass
PUBLIC	??0StringClass@@QAE@PBD_N@Z			; StringClass::StringClass
PUBLIC	??1StringClass@@QAE@XZ				; StringClass::~StringClass
PUBLIC	??4StringClass@@QAEABV0@PBD@Z			; StringClass::operator=
PUBLIC	??4StringClass@@QAEABV0@ABV0@@Z			; StringClass::operator=
PUBLIC	??YStringClass@@QAEABV0@PBD@Z			; StringClass::operator+=
PUBLIC	??AStringClass@@QAEAADH@Z			; StringClass::operator[]
PUBLIC	??BStringClass@@QBEPBDXZ			; StringClass::operator char const *
PUBLIC	?Get_Length@StringClass@@QBEHXZ			; StringClass::Get_Length
PUBLIC	?Peek_Buffer@StringClass@@QAEPADXZ		; StringClass::Peek_Buffer
PUBLIC	?getFormattedString@StringClass@@SA?AV1@PBDZZ	; StringClass::getFormattedString
PUBLIC	?Store_Length@StringClass@@AAEXH@Z		; StringClass::Store_Length
PUBLIC	?Get_Header@StringClass@@ABEPAU_HEADER@1@XZ	; StringClass::Get_Header
PUBLIC	??_EStringClass@@QAEPAXI@Z			; StringClass::`vector deleting destructor'
PUBLIC	??1WideStringClass@@QAE@XZ			; WideStringClass::~WideStringClass
PUBLIC	??_EWideStringClass@@QAEPAXI@Z			; WideStringClass::`vector deleting destructor'
PUBLIC	??4ChunkLoadClass@@QAEAAV0@ABV0@@Z		; ChunkLoadClass::operator=
PUBLIC	?Set_Contains_Chunks@ChunkSaveClass@@QAEXXZ	; ChunkSaveClass::Set_Contains_Chunks
PUBLIC	??4ChunkSaveClass@@QAEAAV0@ABV0@@Z		; ChunkSaveClass::operator=
PUBLIC	?Is_Present@INIClass@@QBE_NPBD0@Z		; INIClass::Is_Present
PUBLIC	?Section_Present@INIClass@@QBE_NPBD@Z		; INIClass::Section_Present
PUBLIC	?Get_Section_List@INIClass@@QAEAAV?$List@PAUINISection@@@@XZ ; INIClass::Get_Section_List
PUBLIC	?Get_Section_Index@INIClass@@QAEAAV?$IndexClass@HPAUINISection@@@@XZ ; INIClass::Get_Section_Index
PUBLIC	?Get_File_Name@INIClass@@QAEPBDXZ		; INIClass::Get_File_Name
PUBLIC	??0INIClass@@QAE@ABV0@@Z			; INIClass::INIClass
PUBLIC	??4INIClass@@QAEAAV0@ABV0@@Z			; INIClass::operator=
PUBLIC	??_GINIClass@@UAEPAXI@Z				; INIClass::`scalar deleting destructor'
PUBLIC	??_EINIClass@@UAEPAXI@Z				; INIClass::`vector deleting destructor'
PUBLIC	??Cfile_auto_ptr@@QAEPAVFileClass@@XZ		; file_auto_ptr::operator->
PUBLIC	??Bfile_auto_ptr@@QAEPAVFileClass@@XZ		; file_auto_ptr::operator FileClass *
PUBLIC	??Dfile_auto_ptr@@QAEAAVFileClass@@XZ		; file_auto_ptr::operator*
PUBLIC	?get@file_auto_ptr@@QAEPAVFileClass@@XZ		; file_auto_ptr::get
PUBLIC	??4file_auto_ptr@@QAEAAV0@ABV0@@Z		; file_auto_ptr::operator=
PUBLIC	??0Vector4@@QAE@XZ				; Vector4::Vector4
PUBLIC	??0Vector4@@QAE@MMMM@Z				; Vector4::Vector4
PUBLIC	??4Vector4@@QAEAAV0@ABV0@@Z			; Vector4::operator=
PUBLIC	?Set@Vector4@@QAEXMMMM@Z			; Vector4::Set
PUBLIC	??AVector4@@QAEAAMH@Z				; Vector4::operator[]
PUBLIC	??AVector4@@QBEABMH@Z				; Vector4::operator[]
PUBLIC	??YVector4@@QAEAAV0@ABV0@@Z			; Vector4::operator+=
PUBLIC	??ZVector4@@QAEAAV0@ABV0@@Z			; Vector4::operator-=
PUBLIC	??XVector4@@QAEAAV0@M@Z				; Vector4::operator*=
PUBLIC	??AMatrix3D@@QAEAAVVector4@@H@Z			; Matrix3D::operator[]
PUBLIC	??AMatrix3D@@QBEABVVector4@@H@Z			; Matrix3D::operator[]
PUBLIC	??0Matrix3D@@QAE@_N@Z				; Matrix3D::Matrix3D
PUBLIC	??0Matrix3D@@QAE@QAM@Z				; Matrix3D::Matrix3D
PUBLIC	??0Matrix3D@@QAE@ABVVector3@@000@Z		; Matrix3D::Matrix3D
PUBLIC	??0Matrix3D@@QAE@ABVVector3@@M@Z		; Matrix3D::Matrix3D
PUBLIC	??0Matrix3D@@QAE@ABVVector3@@MM@Z		; Matrix3D::Matrix3D
PUBLIC	??0Matrix3D@@QAE@ABVMatrix3@@ABVVector3@@@Z	; Matrix3D::Matrix3D
PUBLIC	??0Matrix3D@@QAE@ABVQuaternion@@ABVVector3@@@Z	; Matrix3D::Matrix3D
PUBLIC	??0Matrix3D@@QAE@ABVVector3@@@Z			; Matrix3D::Matrix3D
PUBLIC	??0Matrix3D@@QAE@ABV0@@Z			; Matrix3D::Matrix3D
PUBLIC	??4Matrix3D@@QAEAAV0@ABV0@@Z			; Matrix3D::operator=
PUBLIC	?Set@Matrix3D@@QAEXQAM@Z			; Matrix3D::Set
PUBLIC	?Set@Matrix3D@@QAEXMMMMMMMMMMMM@Z		; Matrix3D::Set
PUBLIC	?Set@Matrix3D@@QAEXABVVector3@@000@Z		; Matrix3D::Set
PUBLIC	?Set@Matrix3D@@QAEXABVVector3@@M@Z		; Matrix3D::Set
PUBLIC	?Set@Matrix3D@@QAEXABVVector3@@MM@Z		; Matrix3D::Set
PUBLIC	?Set@Matrix3D@@QAEXABVVector3@@@Z		; Matrix3D::Set
PUBLIC	?Get_Translation@Matrix3D@@QBE?AVVector3@@XZ	; Matrix3D::Get_Translation
PUBLIC	?Get_Translation@Matrix3D@@QBEXPAVVector3@@@Z	; Matrix3D::Get_Translation
PUBLIC	?Set_Translation@Matrix3D@@QAEXABVVector3@@@Z	; Matrix3D::Set_Translation
PUBLIC	?Get_X_Translation@Matrix3D@@QBEMXZ		; Matrix3D::Get_X_Translation
PUBLIC	?Get_Y_Translation@Matrix3D@@QBEMXZ		; Matrix3D::Get_Y_Translation
PUBLIC	?Get_Z_Translation@Matrix3D@@QBEMXZ		; Matrix3D::Get_Z_Translation
PUBLIC	?Set_X_Translation@Matrix3D@@QAEXM@Z		; Matrix3D::Set_X_Translation
PUBLIC	?Set_Y_Translation@Matrix3D@@QAEXM@Z		; Matrix3D::Set_Y_Translation
PUBLIC	?Set_Z_Translation@Matrix3D@@QAEXM@Z		; Matrix3D::Set_Z_Translation
PUBLIC	?Adjust_Translation@Matrix3D@@QAEXABVVector3@@@Z ; Matrix3D::Adjust_Translation
PUBLIC	?Adjust_X_Translation@Matrix3D@@QAEXM@Z		; Matrix3D::Adjust_X_Translation
PUBLIC	?Adjust_Y_Translation@Matrix3D@@QAEXM@Z		; Matrix3D::Adjust_Y_Translation
PUBLIC	?Adjust_Z_Translation@Matrix3D@@QAEXM@Z		; Matrix3D::Adjust_Z_Translation
PUBLIC	?Make_Identity@Matrix3D@@QAEXXZ			; Matrix3D::Make_Identity
PUBLIC	?Translate@Matrix3D@@QAEXMMM@Z			; Matrix3D::Translate
PUBLIC	?Translate@Matrix3D@@QAEXABVVector3@@@Z		; Matrix3D::Translate
PUBLIC	?Translate_X@Matrix3D@@QAEXM@Z			; Matrix3D::Translate_X
PUBLIC	?Translate_Y@Matrix3D@@QAEXM@Z			; Matrix3D::Translate_Y
PUBLIC	?Translate_Z@Matrix3D@@QAEXM@Z			; Matrix3D::Translate_Z
PUBLIC	?Rotate_X@Matrix3D@@QAEXM@Z			; Matrix3D::Rotate_X
PUBLIC	?Rotate_Y@Matrix3D@@QAEXM@Z			; Matrix3D::Rotate_Y
PUBLIC	?Rotate_Z@Matrix3D@@QAEXM@Z			; Matrix3D::Rotate_Z
PUBLIC	?Rotate_X@Matrix3D@@QAEXMM@Z			; Matrix3D::Rotate_X
PUBLIC	?Rotate_Y@Matrix3D@@QAEXMM@Z			; Matrix3D::Rotate_Y
PUBLIC	?Rotate_Z@Matrix3D@@QAEXMM@Z			; Matrix3D::Rotate_Z
PUBLIC	?Scale@Matrix3D@@QAEXM@Z			; Matrix3D::Scale
PUBLIC	?Scale@Matrix3D@@QAEXMMM@Z			; Matrix3D::Scale
PUBLIC	?Scale@Matrix3D@@QAEXAAVVector3@@@Z		; Matrix3D::Scale
PUBLIC	?Pre_Rotate_X@Matrix3D@@QAEXM@Z			; Matrix3D::Pre_Rotate_X
PUBLIC	?Pre_Rotate_Y@Matrix3D@@QAEXM@Z			; Matrix3D::Pre_Rotate_Y
PUBLIC	?Pre_Rotate_Z@Matrix3D@@QAEXM@Z			; Matrix3D::Pre_Rotate_Z
PUBLIC	?Pre_Rotate_X@Matrix3D@@QAEXMM@Z		; Matrix3D::Pre_Rotate_X
PUBLIC	?Pre_Rotate_Y@Matrix3D@@QAEXMM@Z		; Matrix3D::Pre_Rotate_Y
PUBLIC	?Pre_Rotate_Z@Matrix3D@@QAEXMM@Z		; Matrix3D::Pre_Rotate_Z
PUBLIC	?In_Place_Pre_Rotate_X@Matrix3D@@QAEXM@Z	; Matrix3D::In_Place_Pre_Rotate_X
PUBLIC	?In_Place_Pre_Rotate_Y@Matrix3D@@QAEXM@Z	; Matrix3D::In_Place_Pre_Rotate_Y
PUBLIC	?In_Place_Pre_Rotate_Z@Matrix3D@@QAEXM@Z	; Matrix3D::In_Place_Pre_Rotate_Z
PUBLIC	?In_Place_Pre_Rotate_X@Matrix3D@@QAEXMM@Z	; Matrix3D::In_Place_Pre_Rotate_X
PUBLIC	?In_Place_Pre_Rotate_Y@Matrix3D@@QAEXMM@Z	; Matrix3D::In_Place_Pre_Rotate_Y
PUBLIC	?In_Place_Pre_Rotate_Z@Matrix3D@@QAEXMM@Z	; Matrix3D::In_Place_Pre_Rotate_Z
PUBLIC	?Transform_Vector@Matrix3D@@SAXABV1@ABVVector3@@PAV2@@Z ; Matrix3D::Transform_Vector
PUBLIC	?Get_X_Vector@Matrix3D@@QBE?AVVector3@@XZ	; Matrix3D::Get_X_Vector
PUBLIC	?Get_Y_Vector@Matrix3D@@QBE?AVVector3@@XZ	; Matrix3D::Get_Y_Vector
PUBLIC	?Get_Z_Vector@Matrix3D@@QBE?AVVector3@@XZ	; Matrix3D::Get_Z_Vector
PUBLIC	?Get_X_Vector@Matrix3D@@QBEXPAVVector3@@@Z	; Matrix3D::Get_X_Vector
PUBLIC	?Get_Y_Vector@Matrix3D@@QBEXPAVVector3@@@Z	; Matrix3D::Get_Y_Vector
PUBLIC	?Get_Z_Vector@Matrix3D@@QBEXPAVVector3@@@Z	; Matrix3D::Get_Z_Vector
PUBLIC	?Rotate_Vector@Matrix3D@@SAXABV1@ABVVector3@@PAV2@@Z ; Matrix3D::Rotate_Vector
PUBLIC	?Inverse_Transform_Vector@Matrix3D@@SAXABV1@ABVVector3@@PAV2@@Z ; Matrix3D::Inverse_Transform_Vector
PUBLIC	?Inverse_Rotate_Vector@Matrix3D@@SAXABV1@ABVVector3@@PAV2@@Z ; Matrix3D::Inverse_Rotate_Vector
PUBLIC	?Get_Network_ID@NetworkObjectClass@@QBEHXZ	; NetworkObjectClass::Get_Network_ID
PUBLIC	??0Matrix4@@QAE@XZ				; Matrix4::Matrix4
PUBLIC	??0Matrix4@@QAE@ABV0@@Z				; Matrix4::Matrix4
PUBLIC	??0Matrix4@@QAE@_N@Z				; Matrix4::Matrix4
PUBLIC	??0Matrix4@@QAE@ABVMatrix3D@@@Z			; Matrix4::Matrix4
PUBLIC	??0Matrix4@@QAE@ABVVector4@@000@Z		; Matrix4::Matrix4
PUBLIC	?Make_Identity@Matrix4@@QAEXXZ			; Matrix4::Make_Identity
PUBLIC	?Init@Matrix4@@QAEXABVMatrix3D@@@Z		; Matrix4::Init
PUBLIC	?Init@Matrix4@@QAEXABVVector4@@000@Z		; Matrix4::Init
PUBLIC	?Init_Ortho_OGL@Matrix4@@QAEXMMMMMM@Z		; Matrix4::Init_Ortho_OGL
PUBLIC	?Init_Perspective_OGL@Matrix4@@QAEXMMMM@Z	; Matrix4::Init_Perspective_OGL
PUBLIC	?Init_Perspective_OGL@Matrix4@@QAEXMMMMMM@Z	; Matrix4::Init_Perspective_OGL
PUBLIC	?Init_Ortho@Matrix4@@QAEXMMMMMM@Z		; Matrix4::Init_Ortho
PUBLIC	?Init_Perspective@Matrix4@@QAEXMMMMMM@Z		; Matrix4::Init_Perspective
PUBLIC	??AMatrix4@@QAEAAVVector4@@H@Z			; Matrix4::operator[]
PUBLIC	??AMatrix4@@QBEABVVector4@@H@Z			; Matrix4::operator[]
PUBLIC	?Transpose@Matrix4@@QBE?AV1@XZ			; Matrix4::Transpose
PUBLIC	?Determinant@Matrix4@@QBEMXZ			; Matrix4::Determinant
PUBLIC	?Inverse@Matrix4@@QBE?AV1@XZ			; Matrix4::Inverse
PUBLIC	??4Matrix4@@QAEAAV0@ABV0@@Z			; Matrix4::operator=
PUBLIC	??YMatrix4@@QAEAAV0@ABV0@@Z			; Matrix4::operator+=
PUBLIC	??ZMatrix4@@QAEAAV0@ABV0@@Z			; Matrix4::operator-=
PUBLIC	??XMatrix4@@QAEAAV0@M@Z				; Matrix4::operator*=
PUBLIC	??_0Matrix4@@QAEAAV0@M@Z			; Matrix4::operator/=
PUBLIC	?Transform_Vector@Matrix4@@SAXABV1@ABVVector3@@PAV2@@Z ; Matrix4::Transform_Vector
PUBLIC	?Transform_Vector@Matrix4@@SAXABV1@ABVVector3@@PAVVector4@@@Z ; Matrix4::Transform_Vector
PUBLIC	?Transform_Vector@Matrix4@@SAXABV1@ABVVector4@@PAV2@@Z ; Matrix4::Transform_Vector
PUBLIC	??0Matrix3@@QAE@XZ				; Matrix3::Matrix3
PUBLIC	??0Matrix3@@QAE@ABV0@@Z				; Matrix3::Matrix3
PUBLIC	??0Matrix3@@QAE@_N@Z				; Matrix3::Matrix3
PUBLIC	??0Matrix3@@QAE@ABVVector3@@00@Z		; Matrix3::Matrix3
PUBLIC	??0Matrix3@@QAE@MMMMMMMMM@Z			; Matrix3::Matrix3
PUBLIC	??0Matrix3@@QAE@ABVVector3@@M@Z			; Matrix3::Matrix3
PUBLIC	??0Matrix3@@QAE@ABVVector3@@MM@Z		; Matrix3::Matrix3
PUBLIC	??0Matrix3@@QAE@ABVQuaternion@@@Z		; Matrix3::Matrix3
PUBLIC	?Set@Matrix3@@QAEXABVVector3@@00@Z		; Matrix3::Set
PUBLIC	?Set@Matrix3@@QAEXMMMMMMMMM@Z			; Matrix3::Set
PUBLIC	?Set@Matrix3@@QAEXABVVector3@@M@Z		; Matrix3::Set
PUBLIC	?Set@Matrix3@@QAEXABVVector3@@MM@Z		; Matrix3::Set
PUBLIC	??AMatrix3@@QAEAAVVector3@@H@Z			; Matrix3::operator[]
PUBLIC	??AMatrix3@@QBEABVVector3@@H@Z			; Matrix3::operator[]
PUBLIC	?Transpose@Matrix3@@QBE?AV1@XZ			; Matrix3::Transpose
PUBLIC	?Determinant@Matrix3@@QBEMXZ			; Matrix3::Determinant
PUBLIC	??4Matrix3@@QAEAAV0@ABV0@@Z			; Matrix3::operator=
PUBLIC	??YMatrix3@@QAEAAV0@ABV0@@Z			; Matrix3::operator+=
PUBLIC	??ZMatrix3@@QAEAAV0@ABV0@@Z			; Matrix3::operator-=
PUBLIC	??XMatrix3@@QAEAAV0@M@Z				; Matrix3::operator*=
PUBLIC	??_0Matrix3@@QAEAAV0@M@Z			; Matrix3::operator/=
PUBLIC	?Make_Identity@Matrix3@@QAEXXZ			; Matrix3::Make_Identity
PUBLIC	?Rotate_X@Matrix3@@QAEXM@Z			; Matrix3::Rotate_X
PUBLIC	?Rotate_X@Matrix3@@QAEXMM@Z			; Matrix3::Rotate_X
PUBLIC	?Rotate_Y@Matrix3@@QAEXM@Z			; Matrix3::Rotate_Y
PUBLIC	?Rotate_Y@Matrix3@@QAEXMM@Z			; Matrix3::Rotate_Y
PUBLIC	?Rotate_Z@Matrix3@@QAEXM@Z			; Matrix3::Rotate_Z
PUBLIC	?Rotate_Z@Matrix3@@QAEXMM@Z			; Matrix3::Rotate_Z
PUBLIC	?Get_X_Rotation@Matrix3@@QBEMXZ			; Matrix3::Get_X_Rotation
PUBLIC	?Get_Y_Rotation@Matrix3@@QBEMXZ			; Matrix3::Get_Y_Rotation
PUBLIC	?Get_Z_Rotation@Matrix3@@QBEMXZ			; Matrix3::Get_Z_Rotation
PUBLIC	?Get_X_Vector@Matrix3@@QBE?AVVector3@@XZ	; Matrix3::Get_X_Vector
PUBLIC	?Get_Y_Vector@Matrix3@@QBE?AVVector3@@XZ	; Matrix3::Get_Y_Vector
PUBLIC	?Get_Z_Vector@Matrix3@@QBE?AVVector3@@XZ	; Matrix3::Get_Z_Vector
PUBLIC	?Get_X_Vector@Matrix3@@QBEXPAVVector3@@@Z	; Matrix3::Get_X_Vector
PUBLIC	?Get_Y_Vector@Matrix3@@QBEXPAVVector3@@@Z	; Matrix3::Get_Y_Vector
PUBLIC	?Get_Z_Vector@Matrix3@@QBEXPAVVector3@@@Z	; Matrix3::Get_Z_Vector
PUBLIC	??D@YA?AVVector3@@ABVMatrix3@@ABV0@@Z		; operator*
PUBLIC	?Add@Matrix3@@SAXABV1@0PAV1@@Z			; Matrix3::Add
PUBLIC	?Subtract@Matrix3@@SAXABV1@0PAV1@@Z		; Matrix3::Subtract
PUBLIC	?Rotate_Vector@Matrix3@@SAXABV1@ABVVector3@@PAV2@@Z ; Matrix3::Rotate_Vector
PUBLIC	?Transpose_Rotate_Vector@Matrix3@@SAXABV1@ABVVector3@@PAV2@@Z ; Matrix3::Transpose_Rotate_Vector
PUBLIC	?Rotate_AABox_Extent@Matrix3@@QAEXABVVector3@@PAV2@@Z ; Matrix3::Rotate_AABox_Extent
PUBLIC	?Inverse@Matrix3@@QBE?AV1@XZ			; Matrix3::Inverse
PUBLIC	??0OBBoxClass@@QAE@ABVVector3@@0@Z		; OBBoxClass::OBBoxClass
PUBLIC	??0OBBoxClass@@QAE@ABVVector3@@0ABVMatrix3@@@Z	; OBBoxClass::OBBoxClass
PUBLIC	??4SysTimeClass@@QAEAAV0@ABV0@@Z		; SysTimeClass::operator=
PUBLIC	??0PostLoadableClass@@QAE@XZ			; PostLoadableClass::PostLoadableClass
PUBLIC	??1PostLoadableClass@@UAE@XZ			; PostLoadableClass::~PostLoadableClass
PUBLIC	?On_Post_Load@PostLoadableClass@@UAEXXZ		; PostLoadableClass::On_Post_Load
PUBLIC	?Is_Post_Load_Registered@PostLoadableClass@@QBE_NXZ ; PostLoadableClass::Is_Post_Load_Registered
PUBLIC	?Set_Post_Load_Registered@PostLoadableClass@@QAEX_N@Z ; PostLoadableClass::Set_Post_Load_Registered
PUBLIC	??0PostLoadableClass@@QAE@ABV0@@Z		; PostLoadableClass::PostLoadableClass
PUBLIC	??4PostLoadableClass@@QAEAAV0@ABV0@@Z		; PostLoadableClass::operator=
PUBLIC	??_GPostLoadableClass@@UAEPAXI@Z		; PostLoadableClass::`scalar deleting destructor'
PUBLIC	??_EPostLoadableClass@@UAEPAXI@Z		; PostLoadableClass::`vector deleting destructor'
PUBLIC	??CReferencerClass@@QAEPAVScriptableGameObj@@XZ	; ReferencerClass::operator->
PUBLIC	??0ReferencerClass@@QAE@XZ			; ReferencerClass::ReferencerClass
PUBLIC	??0ReferencerClass@@QAE@PAVScriptableGameObj@@@Z ; ReferencerClass::ReferencerClass
PUBLIC	?Get_Ptr@ReferencerClass@@QBEPAVScriptableGameObj@@XZ ; ReferencerClass::Get_Ptr
PUBLIC	?Set_Ptr@ReferencerClass@@QAEXPAVScriptableGameObj@@@Z ; ReferencerClass::Set_Ptr
PUBLIC	??0ReferencerClass@@QAE@ABV0@@Z			; ReferencerClass::ReferencerClass
PUBLIC	??_GReferencerClass@@UAEPAXI@Z			; ReferencerClass::`scalar deleting destructor'
PUBLIC	??_EReferencerClass@@UAEPAXI@Z			; ReferencerClass::`vector deleting destructor'
PUBLIC	?Get_Data@?$ReferenceableClass@VScriptableGameObj@@@@IBEPAVScriptableGameObj@@XZ ; ReferenceableClass<ScriptableGameObj>::Get_Data
PUBLIC	?Get_ID@BaseGameObj@@QBEHXZ			; BaseGameObj::Get_ID
PUBLIC	??0LineSegClass@@QAE@XZ				; LineSegClass::LineSegClass
PUBLIC	??0LineSegClass@@QAE@ABVVector3@@0@Z		; LineSegClass::LineSegClass
PUBLIC	??0LineSegClass@@QAE@ABVVector3@@0M@Z		; LineSegClass::LineSegClass
PUBLIC	??0LineSegClass@@QAE@ABV0@ABVMatrix3D@@@Z	; LineSegClass::LineSegClass
PUBLIC	?Set@LineSegClass@@QAEXABVVector3@@0@Z		; LineSegClass::Set
PUBLIC	?Set@LineSegClass@@QAEXABVVector3@@0M@Z		; LineSegClass::Set
PUBLIC	?Get_P0@LineSegClass@@QBEABVVector3@@XZ		; LineSegClass::Get_P0
PUBLIC	?Get_P1@LineSegClass@@QBEABVVector3@@XZ		; LineSegClass::Get_P1
PUBLIC	?Get_DP@LineSegClass@@QBEABVVector3@@XZ		; LineSegClass::Get_DP
PUBLIC	?Get_Dir@LineSegClass@@QBEABVVector3@@XZ	; LineSegClass::Get_Dir
PUBLIC	?Get_Length@LineSegClass@@QBEMXZ		; LineSegClass::Get_Length
PUBLIC	?Compute_Point@LineSegClass@@QBEXMPAVVector3@@@Z ; LineSegClass::Compute_Point
PUBLIC	?recalculate@LineSegClass@@IAEXXZ		; LineSegClass::recalculate
PUBLIC	??0LineSegClass@@QAE@ABV0@@Z			; LineSegClass::LineSegClass
PUBLIC	??4LineSegClass@@QAEAAV0@ABV0@@Z		; LineSegClass::operator=
PUBLIC	?Get_Position@PhysClass@@QBEXPAVVector3@@@Z	; PhysClass::Get_Position
PUBLIC	?Set_Collision_Group@PhysClass@@QAEXW4Collision_Group_Type@@@Z ; PhysClass::Set_Collision_Group
PUBLIC	?Get_Collision_Group@PhysClass@@QBE?AW4Collision_Group_Type@@XZ ; PhysClass::Get_Collision_Group
PUBLIC	?Peek_Physical_Object@PhysicalGameObj@@QBEPAVPhysClass@@XZ ; PhysicalGameObj::Peek_Physical_Object
PUBLIC	?Get_Position@PhysicalGameObj@@QAE?AVVector3@@XZ ; PhysicalGameObj::Get_Position
PUBLIC	?Clear_Animation@PhysicalGameObj@@QAEXXZ	; PhysicalGameObj::Clear_Animation
PUBLIC	??2?$AutoPoolClass@VGenericSLNode@@$0BAA@@@SAPAXIPBDI0@Z ; AutoPoolClass<GenericSLNode,256>::operator new
PUBLIC	??3?$AutoPoolClass@VGenericSLNode@@$0BAA@@@SAXPAX@Z ; AutoPoolClass<GenericSLNode,256>::operator delete
PUBLIC	??0GenericSLNode@@IAE@PAX@Z			; GenericSLNode::GenericSLNode
PUBLIC	??0JFW_Key_Hook_Base@@QAE@XZ			; JFW_Key_Hook_Base::JFW_Key_Hook_Base
PUBLIC	??0JFW_Key_Hook_Base@@QAE@ABV0@@Z		; JFW_Key_Hook_Base::JFW_Key_Hook_Base
PUBLIC	??4JFW_Key_Hook_Base@@QAEAAV0@ABV0@@Z		; JFW_Key_Hook_Base::operator=
PUBLIC	??_GJFW_Key_Hook_Base@@UAEPAXI@Z		; JFW_Key_Hook_Base::`scalar deleting destructor'
PUBLIC	??_EJFW_Key_Hook_Base@@UAEPAXI@Z		; JFW_Key_Hook_Base::`vector deleting destructor'
PUBLIC	??0?$SList@UKeyHookWrapperStruct@MultiKeyHookScriptImpClass@@@@QAE@XZ ; SList<MultiKeyHookScriptImpClass::KeyHookWrapperStruct>::SList<MultiKeyHookScriptImpClass::KeyHookWrapperStruct>
PUBLIC	??1?$SList@UKeyHookWrapperStruct@MultiKeyHookScriptImpClass@@@@UAE@XZ ; SList<MultiKeyHookScriptImpClass::KeyHookWrapperStruct>::~SList<MultiKeyHookScriptImpClass::KeyHookWrapperStruct>
PUBLIC	?Add_Head@?$SList@UKeyHookWrapperStruct@MultiKeyHookScriptImpClass@@@@UAE_NPAUKeyHookWrapperStruct@MultiKeyHookScriptImpClass@@@Z ; SList<MultiKeyHookScriptImpClass::KeyHookWrapperStruct>::Add_Head
PUBLIC	?Add_Head@?$SList@UKeyHookWrapperStruct@MultiKeyHookScriptImpClass@@@@UAE_NAAV1@@Z ; SList<MultiKeyHookScriptImpClass::KeyHookWrapperStruct>::Add_Head
PUBLIC	?Add_Tail@?$SList@UKeyHookWrapperStruct@MultiKeyHookScriptImpClass@@@@UAE_NPAUKeyHookWrapperStruct@MultiKeyHookScriptImpClass@@@Z ; SList<MultiKeyHookScriptImpClass::KeyHookWrapperStruct>::Add_Tail
PUBLIC	?Add_Tail@?$SList@UKeyHookWrapperStruct@MultiKeyHookScriptImpClass@@@@UAE_NAAV1@@Z ; SList<MultiKeyHookScriptImpClass::KeyHookWrapperStruct>::Add_Tail
PUBLIC	?Remove_Head@?$SList@UKeyHookWrapperStruct@MultiKeyHookScriptImpClass@@@@UAEPAUKeyHookWrapperStruct@MultiKeyHookScriptImpClass@@XZ ; SList<MultiKeyHookScriptImpClass::KeyHookWrapperStruct>::Remove_Head
PUBLIC	?Remove_Tail@?$SList@UKeyHookWrapperStruct@MultiKeyHookScriptImpClass@@@@UAEPAUKeyHookWrapperStruct@MultiKeyHookScriptImpClass@@XZ ; SList<MultiKeyHookScriptImpClass::KeyHookWrapperStruct>::Remove_Tail
PUBLIC	?Remove@?$SList@UKeyHookWrapperStruct@MultiKeyHookScriptImpClass@@@@UAE_NPBUKeyHookWrapperStruct@MultiKeyHookScriptImpClass@@@Z ; SList<MultiKeyHookScriptImpClass::KeyHookWrapperStruct>::Remove
PUBLIC	?Remove_All@?$SList@UKeyHookWrapperStruct@MultiKeyHookScriptImpClass@@@@UAEXXZ ; SList<MultiKeyHookScriptImpClass::KeyHookWrapperStruct>::Remove_All
PUBLIC	?Insert_Before@?$SList@UKeyHookWrapperStruct@MultiKeyHookScriptImpClass@@@@UAE_NPAUKeyHookWrapperStruct@MultiKeyHookScriptImpClass@@PBU23@@Z ; SList<MultiKeyHookScriptImpClass::KeyHookWrapperStruct>::Insert_Before
PUBLIC	?Insert_After@?$SList@UKeyHookWrapperStruct@MultiKeyHookScriptImpClass@@@@UAE_NPAUKeyHookWrapperStruct@MultiKeyHookScriptImpClass@@PBU23@@Z ; SList<MultiKeyHookScriptImpClass::KeyHookWrapperStruct>::Insert_After
PUBLIC	?Is_Empty@?$SList@UKeyHookWrapperStruct@MultiKeyHookScriptImpClass@@@@UBE_NXZ ; SList<MultiKeyHookScriptImpClass::KeyHookWrapperStruct>::Is_Empty
PUBLIC	?Get_Count@?$SList@UKeyHookWrapperStruct@MultiKeyHookScriptImpClass@@@@UBEIXZ ; SList<MultiKeyHookScriptImpClass::KeyHookWrapperStruct>::Get_Count
PUBLIC	??0?$SList@UKeyHookWrapperStruct@MultiKeyHookScriptImpClass@@@@QAE@ABV0@@Z ; SList<MultiKeyHookScriptImpClass::KeyHookWrapperStruct>::SList<MultiKeyHookScriptImpClass::KeyHookWrapperStruct>
PUBLIC	??4?$SList@UKeyHookWrapperStruct@MultiKeyHookScriptImpClass@@@@QAEAAV0@ABV0@@Z ; SList<MultiKeyHookScriptImpClass::KeyHookWrapperStruct>::operator=
PUBLIC	??_G?$SList@UKeyHookWrapperStruct@MultiKeyHookScriptImpClass@@@@UAEPAXI@Z ; SList<MultiKeyHookScriptImpClass::KeyHookWrapperStruct>::`scalar deleting destructor'
PUBLIC	??0MultiKeyHookScriptImpClass@@QAE@XZ		; MultiKeyHookScriptImpClass::MultiKeyHookScriptImpClass
PUBLIC	??1MultiKeyHookScriptImpClass@@UAE@XZ		; MultiKeyHookScriptImpClass::~MultiKeyHookScriptImpClass
PUBLIC	??0MultiKeyHookScriptImpClass@@QAE@ABV0@@Z	; MultiKeyHookScriptImpClass::MultiKeyHookScriptImpClass
PUBLIC	??4MultiKeyHookScriptImpClass@@QAEAAV0@ABV0@@Z	; MultiKeyHookScriptImpClass::operator=
PUBLIC	??_GMultiKeyHookScriptImpClass@@UAEPAXI@Z	; MultiKeyHookScriptImpClass::`scalar deleting destructor'
PUBLIC	??_EMultiKeyHookScriptImpClass@@UAEPAXI@Z	; MultiKeyHookScriptImpClass::`vector deleting destructor'
PUBLIC	??0JFW_Object_Created_Hook_Base@@QAE@XZ		; JFW_Object_Created_Hook_Base::JFW_Object_Created_Hook_Base
PUBLIC	??0JFW_Object_Created_Hook_Base@@QAE@ABV0@@Z	; JFW_Object_Created_Hook_Base::JFW_Object_Created_Hook_Base
PUBLIC	??4JFW_Object_Created_Hook_Base@@QAEAAV0@ABV0@@Z ; JFW_Object_Created_Hook_Base::operator=
PUBLIC	??_GJFW_Object_Created_Hook_Base@@UAEPAXI@Z	; JFW_Object_Created_Hook_Base::`scalar deleting destructor'
PUBLIC	??_EJFW_Object_Created_Hook_Base@@UAEPAXI@Z	; JFW_Object_Created_Hook_Base::`vector deleting destructor'
PUBLIC	??0dp88_customAI@@QAE@XZ			; dp88_customAI::dp88_customAI
PUBLIC	??1dp88_customAI@@UAE@XZ			; dp88_customAI::~dp88_customAI
PUBLIC	??_Gdp88_customAI@@UAEPAXI@Z			; dp88_customAI::`scalar deleting destructor'
PUBLIC	??0dp88_AI_Turret@@QAE@XZ			; dp88_AI_Turret::dp88_AI_Turret
PUBLIC	??1dp88_AI_Turret@@UAE@XZ			; dp88_AI_Turret::~dp88_AI_Turret
PUBLIC	??_Gdp88_AI_Turret@@UAEPAXI@Z			; dp88_AI_Turret::`scalar deleting destructor'
PUBLIC	??0dp88_AI_ChargedTurret@@QAE@XZ		; dp88_AI_ChargedTurret::dp88_AI_ChargedTurret
PUBLIC	??1dp88_AI_ChargedTurret@@UAE@XZ		; dp88_AI_ChargedTurret::~dp88_AI_ChargedTurret
PUBLIC	??_Gdp88_AI_ChargedTurret@@UAEPAXI@Z		; dp88_AI_ChargedTurret::`scalar deleting destructor'
PUBLIC	??0dp88_Camo_Controller@@QAE@XZ			; dp88_Camo_Controller::dp88_Camo_Controller
PUBLIC	??1dp88_Camo_Controller@@UAE@XZ			; dp88_Camo_Controller::~dp88_Camo_Controller
PUBLIC	??_Gdp88_Camo_Controller@@UAEPAXI@Z		; dp88_Camo_Controller::`scalar deleting destructor'
PUBLIC	?Created@dp88_AR_GameController@@UAEXPAVScriptableGameObj@@@Z ; dp88_AR_GameController::Created
PUBLIC	?Custom@dp88_AR_GameController@@UAEXPAVScriptableGameObj@@HH0@Z ; dp88_AR_GameController::Custom
PUBLIC	?Timer_Expired@dp88_AR_GameController@@UAEXPAVScriptableGameObj@@H@Z ; dp88_AR_GameController::Timer_Expired
PUBLIC	?Destroyed@dp88_AR_GameController@@UAEXPAVScriptableGameObj@@@Z ; dp88_AR_GameController::Destroyed
PUBLIC	??0dp88_AR_GameController@@QAE@XZ		; dp88_AR_GameController::dp88_AR_GameController
PUBLIC	??1dp88_AR_GameController@@UAE@XZ		; dp88_AR_GameController::~dp88_AR_GameController
PUBLIC	??_Gdp88_AR_GameController@@UAEPAXI@Z		; dp88_AR_GameController::`scalar deleting destructor'
PUBLIC	?Custom@dp88_AR_Vehicle@@EAEXPAVScriptableGameObj@@HH0@Z ; dp88_AR_Vehicle::Custom
PUBLIC	?Created@dp88_AR_Vehicle@@EAEXPAVScriptableGameObj@@@Z ; dp88_AR_Vehicle::Created
PUBLIC	?Timer_Expired@dp88_AR_Vehicle@@EAEXPAVScriptableGameObj@@H@Z ; dp88_AR_Vehicle::Timer_Expired
PUBLIC	?Killed@dp88_AR_Vehicle@@EAEXPAVScriptableGameObj@@0@Z ; dp88_AR_Vehicle::Killed
PUBLIC	?Damaged@dp88_AR_Vehicle@@EAEXPAVScriptableGameObj@@0M@Z ; dp88_AR_Vehicle::Damaged
PUBLIC	?Animation_Complete@dp88_AR_Vehicle@@EAEXPAVScriptableGameObj@@PBD@Z ; dp88_AR_Vehicle::Animation_Complete
PUBLIC	?Created@dp88_AR_Deployable_Infantry@@UAEXPAVScriptableGameObj@@@Z ; dp88_AR_Deployable_Infantry::Created
PUBLIC	?Killed@dp88_AR_Deployable_Infantry@@UAEXPAVScriptableGameObj@@0@Z ; dp88_AR_Deployable_Infantry::Killed
PUBLIC	?Destroyed@dp88_AR_Deployable_Infantry@@UAEXPAVScriptableGameObj@@@Z ; dp88_AR_Deployable_Infantry::Destroyed
PUBLIC	?KeyHook@dp88_AR_Deployable_Infantry@@UAEXXZ	; dp88_AR_Deployable_Infantry::KeyHook
PUBLIC	?Custom@dp88_AR_Deployable_Infantry@@UAEXPAVScriptableGameObj@@HH0@Z ; dp88_AR_Deployable_Infantry::Custom
PUBLIC	?Timer_Expired@dp88_AR_Deployable_Infantry@@UAEXPAVScriptableGameObj@@H@Z ; dp88_AR_Deployable_Infantry::Timer_Expired
PUBLIC	?GetArmourType@dp88_AR_Deployable_Infantry@@QAEPBDH@Z ; dp88_AR_Deployable_Infantry::GetArmourType
PUBLIC	?GetWeaponPowerup@dp88_AR_Deployable_Infantry@@QAEPBDH@Z ; dp88_AR_Deployable_Infantry::GetWeaponPowerup
PUBLIC	?Deploy@dp88_AR_Deployable_Infantry@@IAEXPAVScriptableGameObj@@@Z ; dp88_AR_Deployable_Infantry::Deploy
PUBLIC	?Undeploy@dp88_AR_Deployable_Infantry@@IAEXPAVScriptableGameObj@@@Z ; dp88_AR_Deployable_Infantry::Undeploy
PUBLIC	??0dp88_AR_Deployable_Infantry@@QAE@XZ		; dp88_AR_Deployable_Infantry::dp88_AR_Deployable_Infantry
PUBLIC	??1dp88_AR_Deployable_Infantry@@UAE@XZ		; dp88_AR_Deployable_Infantry::~dp88_AR_Deployable_Infantry
PUBLIC	??_Gdp88_AR_Deployable_Infantry@@UAEPAXI@Z	; dp88_AR_Deployable_Infantry::`scalar deleting destructor'
PUBLIC	?Created@dp88_AR_CLEG@@EAEXPAVScriptableGameObj@@@Z ; dp88_AR_CLEG::Created
PUBLIC	?Damaged@dp88_AR_CLEG@@EAEXPAVScriptableGameObj@@0M@Z ; dp88_AR_CLEG::Damaged
PUBLIC	?Killed@dp88_AR_CLEG@@EAEXPAVScriptableGameObj@@0@Z ; dp88_AR_CLEG::Killed
PUBLIC	?Timer_Expired@dp88_AR_CLEG@@EAEXPAVScriptableGameObj@@H@Z ; dp88_AR_CLEG::Timer_Expired
PUBLIC	??0dp88_AR_CLEG@@QAE@XZ				; dp88_AR_CLEG::dp88_AR_CLEG
PUBLIC	??1dp88_AR_CLEG@@UAE@XZ				; dp88_AR_CLEG::~dp88_AR_CLEG
PUBLIC	??_Gdp88_AR_CLEG@@UAEPAXI@Z			; dp88_AR_CLEG::`scalar deleting destructor'
PUBLIC	?Created@dp88_AR_CLEG_target@@EAEXPAVScriptableGameObj@@@Z ; dp88_AR_CLEG_target::Created
PUBLIC	?Damaged@dp88_AR_CLEG_target@@EAEXPAVScriptableGameObj@@0M@Z ; dp88_AR_CLEG_target::Damaged
PUBLIC	?Killed@dp88_AR_CLEG_target@@EAEXPAVScriptableGameObj@@0@Z ; dp88_AR_CLEG_target::Killed
PUBLIC	?Timer_Expired@dp88_AR_CLEG_target@@EAEXPAVScriptableGameObj@@H@Z ; dp88_AR_CLEG_target::Timer_Expired
PUBLIC	??0dp88_AR_CLEG_target@@QAE@XZ			; dp88_AR_CLEG_target::dp88_AR_CLEG_target
PUBLIC	??1dp88_AR_CLEG_target@@UAE@XZ			; dp88_AR_CLEG_target::~dp88_AR_CLEG_target
PUBLIC	??_Gdp88_AR_CLEG_target@@UAEPAXI@Z		; dp88_AR_CLEG_target::`scalar deleting destructor'
PUBLIC	?Created@dp88_Ore_Miner@@UAEXPAVScriptableGameObj@@@Z ; dp88_Ore_Miner::Created
PUBLIC	?Custom@dp88_Ore_Miner@@UAEXPAVScriptableGameObj@@HH0@Z ; dp88_Ore_Miner::Custom
PUBLIC	?Action_Complete@dp88_Ore_Miner@@UAEXPAVScriptableGameObj@@HW4ActionCompleteReason@@@Z ; dp88_Ore_Miner::Action_Complete
PUBLIC	?KeyHook@dp88_Ore_Miner@@UAEXXZ			; dp88_Ore_Miner::KeyHook
PUBLIC	?DriveToOreField@dp88_Ore_Miner@@MAEXPAVScriptableGameObj@@@Z ; dp88_Ore_Miner::DriveToOreField
PUBLIC	?EnteredOreField@dp88_Ore_Miner@@MAEXPAVScriptableGameObj@@0@Z ; dp88_Ore_Miner::EnteredOreField
PUBLIC	?ExitedOreField@dp88_Ore_Miner@@MAEXPAVScriptableGameObj@@0@Z ; dp88_Ore_Miner::ExitedOreField
PUBLIC	?ReturnToRefinery@dp88_Ore_Miner@@MAEXPAVScriptableGameObj@@@Z ; dp88_Ore_Miner::ReturnToRefinery
PUBLIC	?DockAtRefinery@dp88_Ore_Miner@@MAEXPAVScriptableGameObj@@@Z ; dp88_Ore_Miner::DockAtRefinery
PUBLIC	?DockedAtRefinery@dp88_Ore_Miner@@MAEXPAVScriptableGameObj@@@Z ; dp88_Ore_Miner::DockedAtRefinery
PUBLIC	?UndockedFromRefinery@dp88_Ore_Miner@@MAEXPAVScriptableGameObj@@@Z ; dp88_Ore_Miner::UndockedFromRefinery
PUBLIC	?UpdateAnimation@dp88_Ore_Miner@@IAEXPAVScriptableGameObj@@W4MINER_ANIMID@1@@Z ; dp88_Ore_Miner::UpdateAnimation
PUBLIC	??0dp88_Ore_Miner@@QAE@XZ			; dp88_Ore_Miner::dp88_Ore_Miner
PUBLIC	??1dp88_Ore_Miner@@UAE@XZ			; dp88_Ore_Miner::~dp88_Ore_Miner
PUBLIC	??_Gdp88_Ore_Miner@@UAEPAXI@Z			; dp88_Ore_Miner::`scalar deleting destructor'
PUBLIC	?Created@dp88_AR_Chrono_Miner@@UAEXPAVScriptableGameObj@@@Z ; dp88_AR_Chrono_Miner::Created
PUBLIC	?Damaged@dp88_AR_Chrono_Miner@@UAEXPAVScriptableGameObj@@0M@Z ; dp88_AR_Chrono_Miner::Damaged
PUBLIC	?Custom@dp88_AR_Chrono_Miner@@UAEXPAVScriptableGameObj@@HH0@Z ; dp88_AR_Chrono_Miner::Custom
PUBLIC	?KeyHook@dp88_AR_Chrono_Miner@@UAEXXZ		; dp88_AR_Chrono_Miner::KeyHook
PUBLIC	?ReturnToRefinery@dp88_AR_Chrono_Miner@@EAEXPAVScriptableGameObj@@@Z ; dp88_AR_Chrono_Miner::ReturnToRefinery
PUBLIC	?Start_Chronoshift@dp88_AR_Chrono_Miner@@AAE_NPAVScriptableGameObj@@@Z ; dp88_AR_Chrono_Miner::Start_Chronoshift
PUBLIC	?Do_Chronoshift@dp88_AR_Chrono_Miner@@AAEXPAVScriptableGameObj@@H@Z ; dp88_AR_Chrono_Miner::Do_Chronoshift
PUBLIC	?CanChronoshiftToLocation@dp88_AR_Chrono_Miner@@AAE_NPAVScriptableGameObj@@AAVVector3@@@Z ; dp88_AR_Chrono_Miner::CanChronoshiftToLocation
PUBLIC	??0dp88_AR_Chrono_Miner@@QAE@XZ			; dp88_AR_Chrono_Miner::dp88_AR_Chrono_Miner
PUBLIC	??1dp88_AR_Chrono_Miner@@UAE@XZ			; dp88_AR_Chrono_Miner::~dp88_AR_Chrono_Miner
PUBLIC	??_Gdp88_AR_Chrono_Miner@@UAEPAXI@Z		; dp88_AR_Chrono_Miner::`scalar deleting destructor'
PUBLIC	?Created@dp88_AR_Chrono_Miner_Chronozone@@EAEXPAVScriptableGameObj@@@Z ; dp88_AR_Chrono_Miner_Chronozone::Created
PUBLIC	??0dp88_AR_Chrono_Miner_Chronozone@@QAE@XZ	; dp88_AR_Chrono_Miner_Chronozone::dp88_AR_Chrono_Miner_Chronozone
PUBLIC	??1dp88_AR_Chrono_Miner_Chronozone@@UAE@XZ	; dp88_AR_Chrono_Miner_Chronozone::~dp88_AR_Chrono_Miner_Chronozone
PUBLIC	??_Gdp88_AR_Chrono_Miner_Chronozone@@UAEPAXI@Z	; dp88_AR_Chrono_Miner_Chronozone::`scalar deleting destructor'
PUBLIC	??0dp88_Ore_Field@@QAE@XZ			; dp88_Ore_Field::dp88_Ore_Field
PUBLIC	?Created@dp88_Ore_Field@@UAEXPAVScriptableGameObj@@@Z ; dp88_Ore_Field::Created
PUBLIC	?Detach@dp88_Ore_Field@@UAEXPAVScriptableGameObj@@@Z ; dp88_Ore_Field::Detach
PUBLIC	?Entered@dp88_Ore_Field@@UAEXPAVScriptableGameObj@@0@Z ; dp88_Ore_Field::Entered
PUBLIC	?Exited@dp88_Ore_Field@@UAEXPAVScriptableGameObj@@0@Z ; dp88_Ore_Field::Exited
PUBLIC	?AddOre@dp88_Ore_Field@@QAEXI@Z			; dp88_Ore_Field::AddOre
PUBLIC	?RemoveOre@dp88_Ore_Field@@QAEII@Z		; dp88_Ore_Field::RemoveOre
PUBLIC	?NumOreUnits@dp88_Ore_Field@@QAEIXZ		; dp88_Ore_Field::NumOreUnits
PUBLIC	?GetOreValue@dp88_Ore_Field@@QAEIXZ		; dp88_Ore_Field::GetOreValue
PUBLIC	?IsInfinite@dp88_Ore_Field@@QAE_NXZ		; dp88_Ore_Field::IsInfinite
PUBLIC	?IsSuitableForAI@dp88_Ore_Field@@QAE_NXZ	; dp88_Ore_Field::IsSuitableForAI
PUBLIC	?UpdateAnimationFrame@dp88_Ore_Field@@IAEXXZ	; dp88_Ore_Field::UpdateAnimationFrame
PUBLIC	?UpdateAnimationFrame@dp88_Ore_Field@@IAEXPAVScriptableGameObj@@@Z ; dp88_Ore_Field::UpdateAnimationFrame
PUBLIC	??0dp88_Ore_Field_Observer@dp88_Ore_Field@@QAE@PAV1@@Z ; dp88_Ore_Field::dp88_Ore_Field_Observer::dp88_Ore_Field_Observer
PUBLIC	?Entered@dp88_Ore_Field_Observer@dp88_Ore_Field@@MAEXPAVScriptableGameObj@@0@Z ; dp88_Ore_Field::dp88_Ore_Field_Observer::Entered
PUBLIC	?Exited@dp88_Ore_Field_Observer@dp88_Ore_Field@@MAEXPAVScriptableGameObj@@0@Z ; dp88_Ore_Field::dp88_Ore_Field_Observer::Exited
PUBLIC	?Attach@dp88_Ore_Field_Observer@dp88_Ore_Field@@EAEXPAVScriptableGameObj@@@Z ; dp88_Ore_Field::dp88_Ore_Field_Observer::Attach
PUBLIC	?Detach@dp88_Ore_Field_Observer@dp88_Ore_Field@@EAEXPAVScriptableGameObj@@@Z ; dp88_Ore_Field::dp88_Ore_Field_Observer::Detach
PUBLIC	?Animation_Complete@dp88_Ore_Field_Observer@dp88_Ore_Field@@EAEXPAVScriptableGameObj@@PBD@Z ; dp88_Ore_Field::dp88_Ore_Field_Observer::Animation_Complete
PUBLIC	?Created@dp88_Ore_Field_Observer@dp88_Ore_Field@@EAEXPAVScriptableGameObj@@@Z ; dp88_Ore_Field::dp88_Ore_Field_Observer::Created
PUBLIC	?Destroyed@dp88_Ore_Field_Observer@dp88_Ore_Field@@EAEXPAVScriptableGameObj@@@Z ; dp88_Ore_Field::dp88_Ore_Field_Observer::Destroyed
PUBLIC	?Killed@dp88_Ore_Field_Observer@dp88_Ore_Field@@EAEXPAVScriptableGameObj@@0@Z ; dp88_Ore_Field::dp88_Ore_Field_Observer::Killed
PUBLIC	?Damaged@dp88_Ore_Field_Observer@dp88_Ore_Field@@EAEXPAVScriptableGameObj@@0M@Z ; dp88_Ore_Field::dp88_Ore_Field_Observer::Damaged
PUBLIC	?Custom@dp88_Ore_Field_Observer@dp88_Ore_Field@@EAEXPAVScriptableGameObj@@HH0@Z ; dp88_Ore_Field::dp88_Ore_Field_Observer::Custom
PUBLIC	?Sound_Heard@dp88_Ore_Field_Observer@dp88_Ore_Field@@EAEXPAVScriptableGameObj@@ABUCombatSound@@@Z ; dp88_Ore_Field::dp88_Ore_Field_Observer::Sound_Heard
PUBLIC	?Enemy_Seen@dp88_Ore_Field_Observer@dp88_Ore_Field@@EAEXPAVScriptableGameObj@@0@Z ; dp88_Ore_Field::dp88_Ore_Field_Observer::Enemy_Seen
PUBLIC	?Action_Complete@dp88_Ore_Field_Observer@dp88_Ore_Field@@EAEXPAVScriptableGameObj@@HW4ActionCompleteReason@@@Z ; dp88_Ore_Field::dp88_Ore_Field_Observer::Action_Complete
PUBLIC	?Timer_Expired@dp88_Ore_Field_Observer@dp88_Ore_Field@@EAEXPAVScriptableGameObj@@H@Z ; dp88_Ore_Field::dp88_Ore_Field_Observer::Timer_Expired
PUBLIC	?Poked@dp88_Ore_Field_Observer@dp88_Ore_Field@@EAEXPAVScriptableGameObj@@0@Z ; dp88_Ore_Field::dp88_Ore_Field_Observer::Poked
PUBLIC	?Get_Name@dp88_Ore_Field_Observer@dp88_Ore_Field@@EAEPBDXZ ; dp88_Ore_Field::dp88_Ore_Field_Observer::Get_Name
PUBLIC	??1dp88_Ore_Field_Observer@dp88_Ore_Field@@UAE@XZ ; dp88_Ore_Field::dp88_Ore_Field_Observer::~dp88_Ore_Field_Observer
PUBLIC	??_Gdp88_Ore_Field_Observer@dp88_Ore_Field@@UAEPAXI@Z ; dp88_Ore_Field::dp88_Ore_Field_Observer::`scalar deleting destructor'
PUBLIC	??1dp88_Ore_Field@@UAE@XZ			; dp88_Ore_Field::~dp88_Ore_Field
PUBLIC	??_Gdp88_Ore_Field@@UAEPAXI@Z			; dp88_Ore_Field::`scalar deleting destructor'
PUBLIC	?Created@dp88_Ore_Extractor@@UAEXPAVScriptableGameObj@@@Z ; dp88_Ore_Extractor::Created
PUBLIC	?Timer_Expired@dp88_Ore_Extractor@@UAEXPAVScriptableGameObj@@H@Z ; dp88_Ore_Extractor::Timer_Expired
PUBLIC	?Animation_Complete@dp88_Ore_Extractor@@UAEXPAVScriptableGameObj@@PBD@Z ; dp88_Ore_Extractor::Animation_Complete
PUBLIC	??0dp88_Ore_Extractor@@QAE@XZ			; dp88_Ore_Extractor::dp88_Ore_Extractor
PUBLIC	??1dp88_Ore_Extractor@@UAE@XZ			; dp88_Ore_Extractor::~dp88_Ore_Extractor
PUBLIC	??_Gdp88_Ore_Extractor@@UAEPAXI@Z		; dp88_Ore_Extractor::`scalar deleting destructor'
PUBLIC	?Entered@dp88_Ore_Dump_Zone@@UAEXPAVScriptableGameObj@@0@Z ; dp88_Ore_Dump_Zone::Entered
PUBLIC	??0dp88_Ore_Dump_Zone@@QAE@XZ			; dp88_Ore_Dump_Zone::dp88_Ore_Dump_Zone
PUBLIC	??1dp88_Ore_Dump_Zone@@UAE@XZ			; dp88_Ore_Dump_Zone::~dp88_Ore_Dump_Zone
PUBLIC	??_Gdp88_Ore_Dump_Zone@@UAEPAXI@Z		; dp88_Ore_Dump_Zone::`scalar deleting destructor'
PUBLIC	?Entered@dp88_Aircraft_LandingZone@@EAEXPAVScriptableGameObj@@0@Z ; dp88_Aircraft_LandingZone::Entered
PUBLIC	?Exited@dp88_Aircraft_LandingZone@@EAEXPAVScriptableGameObj@@0@Z ; dp88_Aircraft_LandingZone::Exited
PUBLIC	??0dp88_Aircraft_LandingZone@@QAE@XZ		; dp88_Aircraft_LandingZone::dp88_Aircraft_LandingZone
PUBLIC	??1dp88_Aircraft_LandingZone@@UAE@XZ		; dp88_Aircraft_LandingZone::~dp88_Aircraft_LandingZone
PUBLIC	??_Gdp88_Aircraft_LandingZone@@UAEPAXI@Z	; dp88_Aircraft_LandingZone::`scalar deleting destructor'
PUBLIC	?Created@dp88_Aircraft_LandingZone_Aircraft@@EAEXPAVScriptableGameObj@@@Z ; dp88_Aircraft_LandingZone_Aircraft::Created
PUBLIC	?Killed@dp88_Aircraft_LandingZone_Aircraft@@EAEXPAVScriptableGameObj@@0@Z ; dp88_Aircraft_LandingZone_Aircraft::Killed
PUBLIC	?Custom@dp88_Aircraft_LandingZone_Aircraft@@EAEXPAVScriptableGameObj@@HH0@Z ; dp88_Aircraft_LandingZone_Aircraft::Custom
PUBLIC	??0dp88_Aircraft_LandingZone_Aircraft@@QAE@XZ	; dp88_Aircraft_LandingZone_Aircraft::dp88_Aircraft_LandingZone_Aircraft
PUBLIC	??1dp88_Aircraft_LandingZone_Aircraft@@UAE@XZ	; dp88_Aircraft_LandingZone_Aircraft::~dp88_Aircraft_LandingZone_Aircraft
PUBLIC	??_Gdp88_Aircraft_LandingZone_Aircraft@@UAEPAXI@Z ; dp88_Aircraft_LandingZone_Aircraft::`scalar deleting destructor'
PUBLIC	?Created@dp88_RemoteControlConsole@@EAEXPAVScriptableGameObj@@@Z ; dp88_RemoteControlConsole::Created
PUBLIC	?Detach@dp88_RemoteControlConsole@@EAEXPAVScriptableGameObj@@@Z ; dp88_RemoteControlConsole::Detach
PUBLIC	?Poked@dp88_RemoteControlConsole@@EAEXPAVScriptableGameObj@@0@Z ; dp88_RemoteControlConsole::Poked
PUBLIC	?Custom@dp88_RemoteControlConsole@@EAEXPAVScriptableGameObj@@HH0@Z ; dp88_RemoteControlConsole::Custom
PUBLIC	?Timer_Expired@dp88_RemoteControlConsole@@EAEXPAVScriptableGameObj@@H@Z ; dp88_RemoteControlConsole::Timer_Expired
PUBLIC	?SetEnabled@dp88_RemoteControlConsole@@AAEXPAVScriptableGameObj@@_N@Z ; dp88_RemoteControlConsole::SetEnabled
PUBLIC	?HandleDriverEnter@dp88_RemoteControlConsole@@AAEXPAVScriptableGameObj@@00@Z ; dp88_RemoteControlConsole::HandleDriverEnter
PUBLIC	?HandleDriverExit@dp88_RemoteControlConsole@@AAEXPAVScriptableGameObj@@00@Z ; dp88_RemoteControlConsole::HandleDriverExit
PUBLIC	?CreateDummy@dp88_RemoteControlConsole@@AAEXPAVScriptableGameObj@@VVector3@@M@Z ; dp88_RemoteControlConsole::CreateDummy
PUBLIC	?DestroyDummy@dp88_RemoteControlConsole@@AAEXXZ	; dp88_RemoteControlConsole::DestroyDummy
PUBLIC	?UpdateAnimation@dp88_RemoteControlConsole@@AAEXPAVScriptableGameObj@@@Z ; dp88_RemoteControlConsole::UpdateAnimation
PUBLIC	??0dp88_RemoteControlConsole@@QAE@XZ		; dp88_RemoteControlConsole::dp88_RemoteControlConsole
PUBLIC	??1dp88_RemoteControlConsole@@UAE@XZ		; dp88_RemoteControlConsole::~dp88_RemoteControlConsole
PUBLIC	??_Gdp88_RemoteControlConsole@@UAEPAXI@Z	; dp88_RemoteControlConsole::`scalar deleting destructor'
PUBLIC	?Created@dp88_RemoteControlVehicle@@EAEXPAVScriptableGameObj@@@Z ; dp88_RemoteControlVehicle::Created
PUBLIC	?Custom@dp88_RemoteControlVehicle@@EAEXPAVScriptableGameObj@@HH0@Z ; dp88_RemoteControlVehicle::Custom
PUBLIC	?Killed@dp88_RemoteControlVehicle@@EAEXPAVScriptableGameObj@@0@Z ; dp88_RemoteControlVehicle::Killed
PUBLIC	??0dp88_RemoteControlVehicle@@QAE@XZ		; dp88_RemoteControlVehicle::dp88_RemoteControlVehicle
PUBLIC	??1dp88_RemoteControlVehicle@@UAE@XZ		; dp88_RemoteControlVehicle::~dp88_RemoteControlVehicle
PUBLIC	??_Gdp88_RemoteControlVehicle@@UAEPAXI@Z	; dp88_RemoteControlVehicle::`scalar deleting destructor'
PUBLIC	?Created@dp88_AR_DemoTruck@@EAEXPAVScriptableGameObj@@@Z ; dp88_AR_DemoTruck::Created
PUBLIC	?Custom@dp88_AR_DemoTruck@@EAEXPAVScriptableGameObj@@HH0@Z ; dp88_AR_DemoTruck::Custom
PUBLIC	?Killed@dp88_AR_DemoTruck@@EAEXPAVScriptableGameObj@@0@Z ; dp88_AR_DemoTruck::Killed
PUBLIC	?Damaged@dp88_AR_DemoTruck@@EAEXPAVScriptableGameObj@@0M@Z ; dp88_AR_DemoTruck::Damaged
PUBLIC	?Detonate@dp88_AR_DemoTruck@@AAEXPAVScriptableGameObj@@@Z ; dp88_AR_DemoTruck::Detonate
PUBLIC	??0dp88_AR_DemoTruck@@QAE@XZ			; dp88_AR_DemoTruck::dp88_AR_DemoTruck
PUBLIC	??1dp88_AR_DemoTruck@@UAE@XZ			; dp88_AR_DemoTruck::~dp88_AR_DemoTruck
PUBLIC	??_Gdp88_AR_DemoTruck@@UAEPAXI@Z		; dp88_AR_DemoTruck::`scalar deleting destructor'
PUBLIC	?Created@dp88_AR_paradrop_Console@@EAEXPAVScriptableGameObj@@@Z ; dp88_AR_paradrop_Console::Created
PUBLIC	?Poked@dp88_AR_paradrop_Console@@EAEXPAVScriptableGameObj@@0@Z ; dp88_AR_paradrop_Console::Poked
PUBLIC	??0dp88_AR_paradrop_Console@@QAE@XZ		; dp88_AR_paradrop_Console::dp88_AR_paradrop_Console
PUBLIC	??1dp88_AR_paradrop_Console@@UAE@XZ		; dp88_AR_paradrop_Console::~dp88_AR_paradrop_Console
PUBLIC	??_Gdp88_AR_paradrop_Console@@UAEPAXI@Z		; dp88_AR_paradrop_Console::`scalar deleting destructor'
PUBLIC	??0dp88_AR_Paradrop@@QAE@XZ			; dp88_AR_Paradrop::dp88_AR_Paradrop
PUBLIC	?Created@dp88_AR_Paradrop@@MAEXPAVScriptableGameObj@@@Z ; dp88_AR_Paradrop::Created
PUBLIC	?Damaged@dp88_AR_Paradrop@@MAEXPAVScriptableGameObj@@0M@Z ; dp88_AR_Paradrop::Damaged
PUBLIC	?Killed@dp88_AR_Paradrop@@MAEXPAVScriptableGameObj@@0@Z ; dp88_AR_Paradrop::Killed
PUBLIC	?Timer_Expired@dp88_AR_Paradrop@@MAEXPAVScriptableGameObj@@H@Z ; dp88_AR_Paradrop::Timer_Expired
PUBLIC	?Detach@dp88_AR_Paradrop@@MAEXPAVScriptableGameObj@@@Z ; dp88_AR_Paradrop::Detach
PUBLIC	?Landed@dp88_AR_Paradrop@@IAEXPAVScriptableGameObj@@@Z ; dp88_AR_Paradrop::Landed
PUBLIC	??1dp88_AR_Paradrop@@UAE@XZ			; dp88_AR_Paradrop::~dp88_AR_Paradrop
PUBLIC	??_Gdp88_AR_Paradrop@@UAEPAXI@Z			; dp88_AR_Paradrop::`scalar deleting destructor'
PUBLIC	?registerTower@dp88_AR_Prism_Tower@@CAXHPAV1@@Z	; dp88_AR_Prism_Tower::registerTower
PUBLIC	?deregisterTower@dp88_AR_Prism_Tower@@CAXH@Z	; dp88_AR_Prism_Tower::deregisterTower
PUBLIC	?clearTowerMap@dp88_AR_Prism_Tower@@CAXH@Z	; dp88_AR_Prism_Tower::clearTowerMap
PUBLIC	?calculateTowerMap@dp88_AR_Prism_Tower@@CAXXZ	; dp88_AR_Prism_Tower::calculateTowerMap
PUBLIC	?calculateTowerMapPathSearch@dp88_AR_Prism_Tower@@CA_NPAHHHH@Z ; dp88_AR_Prism_Tower::calculateTowerMapPathSearch
PUBLIC	?CanAssistTower@dp88_AR_Prism_Tower@@CA_NPAVScriptableGameObj@@0H@Z ; dp88_AR_Prism_Tower::CanAssistTower
PUBLIC	?Created@dp88_AR_Prism_Tower@@EAEXPAVScriptableGameObj@@@Z ; dp88_AR_Prism_Tower::Created
PUBLIC	?Damaged@dp88_AR_Prism_Tower@@EAEXPAVScriptableGameObj@@0M@Z ; dp88_AR_Prism_Tower::Damaged
PUBLIC	?Killed@dp88_AR_Prism_Tower@@EAEXPAVScriptableGameObj@@0@Z ; dp88_AR_Prism_Tower::Killed
PUBLIC	?Destroyed@dp88_AR_Prism_Tower@@EAEXPAVScriptableGameObj@@@Z ; dp88_AR_Prism_Tower::Destroyed
PUBLIC	?Custom@dp88_AR_Prism_Tower@@EAEXPAVScriptableGameObj@@HH0@Z ; dp88_AR_Prism_Tower::Custom
PUBLIC	?Timer_Expired@dp88_AR_Prism_Tower@@EAEXPAVScriptableGameObj@@H@Z ; dp88_AR_Prism_Tower::Timer_Expired
PUBLIC	?getPriority@dp88_AR_Prism_Tower@@EAEMPAVScriptableGameObj@@0@Z ; dp88_AR_Prism_Tower::getPriority
PUBLIC	?checkTeam@dp88_AR_Prism_Tower@@EAE_NPAVScriptableGameObj@@0@Z ; dp88_AR_Prism_Tower::checkTeam
PUBLIC	?attackTarget@dp88_AR_Prism_Tower@@EAEXPAVScriptableGameObj@@0_N@Z ; dp88_AR_Prism_Tower::attackTarget
PUBLIC	?attackLocation@dp88_AR_Prism_Tower@@EAEXPAVScriptableGameObj@@VVector3@@_N@Z ; dp88_AR_Prism_Tower::attackLocation
PUBLIC	?stopAttacking@dp88_AR_Prism_Tower@@EAEXPAVScriptableGameObj@@@Z ; dp88_AR_Prism_Tower::stopAttacking
PUBLIC	?StartAssisting@dp88_AR_Prism_Tower@@AAEXPAVScriptableGameObj@@0M@Z ; dp88_AR_Prism_Tower::StartAssisting
PUBLIC	?StopAssisting@dp88_AR_Prism_Tower@@AAEXPAVScriptableGameObj@@@Z ; dp88_AR_Prism_Tower::StopAssisting
PUBLIC	?GetAssistAimPoint@dp88_AR_Prism_Tower@@CA?AVVector3@@PAVScriptableGameObj@@@Z ; dp88_AR_Prism_Tower::GetAssistAimPoint
PUBLIC	?SendAssistanceRequests@dp88_AR_Prism_Tower@@AAEXPAVScriptableGameObj@@@Z ; dp88_AR_Prism_Tower::SendAssistanceRequests
PUBLIC	?SendEndAssistanceNotifications@dp88_AR_Prism_Tower@@AAEXPAVScriptableGameObj@@@Z ; dp88_AR_Prism_Tower::SendEndAssistanceNotifications
PUBLIC	??0dp88_AR_Prism_Tower@@QAE@XZ			; dp88_AR_Prism_Tower::dp88_AR_Prism_Tower
PUBLIC	??1dp88_AR_Prism_Tower@@UAE@XZ			; dp88_AR_Prism_Tower::~dp88_AR_Prism_Tower
PUBLIC	??_Gdp88_AR_Prism_Tower@@UAEPAXI@Z		; dp88_AR_Prism_Tower::`scalar deleting destructor'
PUBLIC	?Created@dp88_linkHealth@@EAEXPAVScriptableGameObj@@@Z ; dp88_linkHealth::Created
PUBLIC	?Timer_Expired@dp88_linkHealth@@EAEXPAVScriptableGameObj@@H@Z ; dp88_linkHealth::Timer_Expired
PUBLIC	?Killed@dp88_linkHealth@@EAEXPAVScriptableGameObj@@0@Z ; dp88_linkHealth::Killed
PUBLIC	?equaliseHealth@dp88_linkHealth@@AAEXPAVScriptableGameObj@@@Z ; dp88_linkHealth::equaliseHealth
PUBLIC	??0dp88_linkHealth@@QAE@XZ			; dp88_linkHealth::dp88_linkHealth
PUBLIC	??1dp88_linkHealth@@UAE@XZ			; dp88_linkHealth::~dp88_linkHealth
PUBLIC	??_Gdp88_linkHealth@@UAEPAXI@Z			; dp88_linkHealth::`scalar deleting destructor'
PUBLIC	?Get_State@HumanStateClass@@QAE?AW4HumanStateType@1@XZ ; HumanStateClass::Get_State
PUBLIC	??4ArmorWarheadManager@@QAEAAV0@ABV0@@Z		; ArmorWarheadManager::operator=
PUBLIC	?Is_On_Ladder@SoldierGameObj@@QAE_NXZ		; SoldierGameObj::Is_On_Ladder
PUBLIC	?Is_In_Vehicle@SoldierGameObj@@QAE_NXZ		; SoldierGameObj::Is_In_Vehicle
PUBLIC	?Get_State@SoldierGameObj@@QAE?AW4HumanStateType@HumanStateClass@@XZ ; SoldierGameObj::Get_State
PUBLIC	?Set_Can_Drive_Vehicles@SoldierGameObj@@QAEX_N@Z ; SoldierGameObj::Set_Can_Drive_Vehicles
PUBLIC	?Can_Drive_Vehicles@SoldierGameObj@@QAE_NXZ	; SoldierGameObj::Can_Drive_Vehicles
PUBLIC	??0OffenseObjectClass@@QAE@MIPAVArmedGameObj@@@Z ; OffenseObjectClass::OffenseObjectClass
PUBLIC	??1OffenseObjectClass@@QAE@XZ			; OffenseObjectClass::~OffenseObjectClass
PUBLIC	?Set_Owner@OffenseObjectClass@@QAEXPAVArmedGameObj@@@Z ; OffenseObjectClass::Set_Owner
PUBLIC	??0?$SList@VScriptableGameObj@@@@QAE@XZ		; SList<ScriptableGameObj>::SList<ScriptableGameObj>
PUBLIC	??1?$SList@VScriptableGameObj@@@@UAE@XZ		; SList<ScriptableGameObj>::~SList<ScriptableGameObj>
PUBLIC	?Add_Head@?$SList@VScriptableGameObj@@@@UAE_NPAVScriptableGameObj@@@Z ; SList<ScriptableGameObj>::Add_Head
PUBLIC	?Add_Head@?$SList@VScriptableGameObj@@@@UAE_NAAV1@@Z ; SList<ScriptableGameObj>::Add_Head
PUBLIC	?Add_Tail@?$SList@VScriptableGameObj@@@@UAE_NPAVScriptableGameObj@@@Z ; SList<ScriptableGameObj>::Add_Tail
PUBLIC	?Add_Tail@?$SList@VScriptableGameObj@@@@UAE_NAAV1@@Z ; SList<ScriptableGameObj>::Add_Tail
PUBLIC	?Remove_Head@?$SList@VScriptableGameObj@@@@UAEPAVScriptableGameObj@@XZ ; SList<ScriptableGameObj>::Remove_Head
PUBLIC	?Remove_Tail@?$SList@VScriptableGameObj@@@@UAEPAVScriptableGameObj@@XZ ; SList<ScriptableGameObj>::Remove_Tail
PUBLIC	?Remove@?$SList@VScriptableGameObj@@@@UAE_NPBVScriptableGameObj@@@Z ; SList<ScriptableGameObj>::Remove
PUBLIC	?Remove_All@?$SList@VScriptableGameObj@@@@UAEXXZ ; SList<ScriptableGameObj>::Remove_All
PUBLIC	?Insert_Before@?$SList@VScriptableGameObj@@@@UAE_NPAVScriptableGameObj@@PBV2@@Z ; SList<ScriptableGameObj>::Insert_Before
PUBLIC	?Insert_After@?$SList@VScriptableGameObj@@@@UAE_NPAVScriptableGameObj@@PBV2@@Z ; SList<ScriptableGameObj>::Insert_After
PUBLIC	?Is_Empty@?$SList@VScriptableGameObj@@@@UBE_NXZ	; SList<ScriptableGameObj>::Is_Empty
PUBLIC	?Get_Count@?$SList@VScriptableGameObj@@@@UBEIXZ	; SList<ScriptableGameObj>::Get_Count
PUBLIC	?Head@?$SList@VScriptableGameObj@@@@QBEPAV?$SLNode@VScriptableGameObj@@@@XZ ; SList<ScriptableGameObj>::Head
PUBLIC	??_G?$SList@VScriptableGameObj@@@@UAEPAXI@Z	; SList<ScriptableGameObj>::`scalar deleting destructor'
PUBLIC	?Set_Next@?$SLNode@VScriptableGameObj@@@@QAEXPAV1@@Z ; SLNode<ScriptableGameObj>::Set_Next
PUBLIC	?Next@?$SLNode@VScriptableGameObj@@@@QBEPAV1@XZ	; SLNode<ScriptableGameObj>::Next
PUBLIC	?Data@?$SLNode@VScriptableGameObj@@@@QBEPAVScriptableGameObj@@XZ ; SLNode<ScriptableGameObj>::Data
PUBLIC	??0?$SLNode@VScriptableGameObj@@@@IAE@PAVScriptableGameObj@@@Z ; SLNode<ScriptableGameObj>::SLNode<ScriptableGameObj>
PUBLIC	??0?$ScriptRegistrant@Vdp88_Ore_Miner@@@@QAE@PBD0@Z ; ScriptRegistrant<dp88_Ore_Miner>::ScriptRegistrant<dp88_Ore_Miner>
PUBLIC	?Create@?$ScriptRegistrant@Vdp88_Ore_Miner@@@@UAEPAVScriptImpClass@@XZ ; ScriptRegistrant<dp88_Ore_Miner>::Create
PUBLIC	??1?$ScriptRegistrant@Vdp88_Ore_Miner@@@@UAE@XZ	; ScriptRegistrant<dp88_Ore_Miner>::~ScriptRegistrant<dp88_Ore_Miner>
PUBLIC	??_G?$ScriptRegistrant@Vdp88_Ore_Miner@@@@UAEPAXI@Z ; ScriptRegistrant<dp88_Ore_Miner>::`scalar deleting destructor'
PUBLIC	??0?$ScriptRegistrant@Vdp88_AR_Chrono_Miner@@@@QAE@PBD0@Z ; ScriptRegistrant<dp88_AR_Chrono_Miner>::ScriptRegistrant<dp88_AR_Chrono_Miner>
PUBLIC	?Create@?$ScriptRegistrant@Vdp88_AR_Chrono_Miner@@@@UAEPAVScriptImpClass@@XZ ; ScriptRegistrant<dp88_AR_Chrono_Miner>::Create
PUBLIC	??1?$ScriptRegistrant@Vdp88_AR_Chrono_Miner@@@@UAE@XZ ; ScriptRegistrant<dp88_AR_Chrono_Miner>::~ScriptRegistrant<dp88_AR_Chrono_Miner>
PUBLIC	??_G?$ScriptRegistrant@Vdp88_AR_Chrono_Miner@@@@UAEPAXI@Z ; ScriptRegistrant<dp88_AR_Chrono_Miner>::`scalar deleting destructor'
PUBLIC	??0?$ScriptRegistrant@Vdp88_AR_Chrono_Miner_Chronozone@@@@QAE@PBD0@Z ; ScriptRegistrant<dp88_AR_Chrono_Miner_Chronozone>::ScriptRegistrant<dp88_AR_Chrono_Miner_Chronozone>
PUBLIC	?Create@?$ScriptRegistrant@Vdp88_AR_Chrono_Miner_Chronozone@@@@UAEPAVScriptImpClass@@XZ ; ScriptRegistrant<dp88_AR_Chrono_Miner_Chronozone>::Create
PUBLIC	??1?$ScriptRegistrant@Vdp88_AR_Chrono_Miner_Chronozone@@@@UAE@XZ ; ScriptRegistrant<dp88_AR_Chrono_Miner_Chronozone>::~ScriptRegistrant<dp88_AR_Chrono_Miner_Chronozone>
PUBLIC	??_G?$ScriptRegistrant@Vdp88_AR_Chrono_Miner_Chronozone@@@@UAEPAXI@Z ; ScriptRegistrant<dp88_AR_Chrono_Miner_Chronozone>::`scalar deleting destructor'
PUBLIC	??0?$ScriptRegistrant@Vdp88_Ore_Field@@@@QAE@PBD0@Z ; ScriptRegistrant<dp88_Ore_Field>::ScriptRegistrant<dp88_Ore_Field>
PUBLIC	?Create@?$ScriptRegistrant@Vdp88_Ore_Field@@@@UAEPAVScriptImpClass@@XZ ; ScriptRegistrant<dp88_Ore_Field>::Create
PUBLIC	??1?$ScriptRegistrant@Vdp88_Ore_Field@@@@UAE@XZ	; ScriptRegistrant<dp88_Ore_Field>::~ScriptRegistrant<dp88_Ore_Field>
PUBLIC	??_G?$ScriptRegistrant@Vdp88_Ore_Field@@@@UAEPAXI@Z ; ScriptRegistrant<dp88_Ore_Field>::`scalar deleting destructor'
PUBLIC	??0?$ScriptRegistrant@Vdp88_Ore_Extractor@@@@QAE@PBD0@Z ; ScriptRegistrant<dp88_Ore_Extractor>::ScriptRegistrant<dp88_Ore_Extractor>
PUBLIC	?Create@?$ScriptRegistrant@Vdp88_Ore_Extractor@@@@UAEPAVScriptImpClass@@XZ ; ScriptRegistrant<dp88_Ore_Extractor>::Create
PUBLIC	??1?$ScriptRegistrant@Vdp88_Ore_Extractor@@@@UAE@XZ ; ScriptRegistrant<dp88_Ore_Extractor>::~ScriptRegistrant<dp88_Ore_Extractor>
PUBLIC	??_G?$ScriptRegistrant@Vdp88_Ore_Extractor@@@@UAEPAXI@Z ; ScriptRegistrant<dp88_Ore_Extractor>::`scalar deleting destructor'
PUBLIC	??0?$ScriptRegistrant@Vdp88_Ore_Dump_Zone@@@@QAE@PBD0@Z ; ScriptRegistrant<dp88_Ore_Dump_Zone>::ScriptRegistrant<dp88_Ore_Dump_Zone>
PUBLIC	?Create@?$ScriptRegistrant@Vdp88_Ore_Dump_Zone@@@@UAEPAVScriptImpClass@@XZ ; ScriptRegistrant<dp88_Ore_Dump_Zone>::Create
PUBLIC	??1?$ScriptRegistrant@Vdp88_Ore_Dump_Zone@@@@UAE@XZ ; ScriptRegistrant<dp88_Ore_Dump_Zone>::~ScriptRegistrant<dp88_Ore_Dump_Zone>
PUBLIC	??_G?$ScriptRegistrant@Vdp88_Ore_Dump_Zone@@@@UAEPAXI@Z ; ScriptRegistrant<dp88_Ore_Dump_Zone>::`scalar deleting destructor'
PUBLIC	??0?$ScriptRegistrant@Vdp88_AR_Paradrop@@@@QAE@PBD0@Z ; ScriptRegistrant<dp88_AR_Paradrop>::ScriptRegistrant<dp88_AR_Paradrop>
PUBLIC	?Create@?$ScriptRegistrant@Vdp88_AR_Paradrop@@@@UAEPAVScriptImpClass@@XZ ; ScriptRegistrant<dp88_AR_Paradrop>::Create
PUBLIC	??1?$ScriptRegistrant@Vdp88_AR_Paradrop@@@@UAE@XZ ; ScriptRegistrant<dp88_AR_Paradrop>::~ScriptRegistrant<dp88_AR_Paradrop>
PUBLIC	??_G?$ScriptRegistrant@Vdp88_AR_Paradrop@@@@UAEPAXI@Z ; ScriptRegistrant<dp88_AR_Paradrop>::`scalar deleting destructor'
PUBLIC	??0?$ScriptRegistrant@Vdp88_AR_GameController@@@@QAE@PBD0@Z ; ScriptRegistrant<dp88_AR_GameController>::ScriptRegistrant<dp88_AR_GameController>
PUBLIC	?Create@?$ScriptRegistrant@Vdp88_AR_GameController@@@@UAEPAVScriptImpClass@@XZ ; ScriptRegistrant<dp88_AR_GameController>::Create
PUBLIC	??1?$ScriptRegistrant@Vdp88_AR_GameController@@@@UAE@XZ ; ScriptRegistrant<dp88_AR_GameController>::~ScriptRegistrant<dp88_AR_GameController>
PUBLIC	??_G?$ScriptRegistrant@Vdp88_AR_GameController@@@@UAEPAXI@Z ; ScriptRegistrant<dp88_AR_GameController>::`scalar deleting destructor'
PUBLIC	??0?$ScriptRegistrant@Vdp88_AR_Deployable_Infantry@@@@QAE@PBD0@Z ; ScriptRegistrant<dp88_AR_Deployable_Infantry>::ScriptRegistrant<dp88_AR_Deployable_Infantry>
PUBLIC	?Create@?$ScriptRegistrant@Vdp88_AR_Deployable_Infantry@@@@UAEPAVScriptImpClass@@XZ ; ScriptRegistrant<dp88_AR_Deployable_Infantry>::Create
PUBLIC	??1?$ScriptRegistrant@Vdp88_AR_Deployable_Infantry@@@@UAE@XZ ; ScriptRegistrant<dp88_AR_Deployable_Infantry>::~ScriptRegistrant<dp88_AR_Deployable_Infantry>
PUBLIC	??_G?$ScriptRegistrant@Vdp88_AR_Deployable_Infantry@@@@UAEPAXI@Z ; ScriptRegistrant<dp88_AR_Deployable_Infantry>::`scalar deleting destructor'
PUBLIC	??0?$ScriptRegistrant@Vdp88_AR_CLEG@@@@QAE@PBD0@Z ; ScriptRegistrant<dp88_AR_CLEG>::ScriptRegistrant<dp88_AR_CLEG>
PUBLIC	?Create@?$ScriptRegistrant@Vdp88_AR_CLEG@@@@UAEPAVScriptImpClass@@XZ ; ScriptRegistrant<dp88_AR_CLEG>::Create
PUBLIC	??1?$ScriptRegistrant@Vdp88_AR_CLEG@@@@UAE@XZ	; ScriptRegistrant<dp88_AR_CLEG>::~ScriptRegistrant<dp88_AR_CLEG>
PUBLIC	??_G?$ScriptRegistrant@Vdp88_AR_CLEG@@@@UAEPAXI@Z ; ScriptRegistrant<dp88_AR_CLEG>::`scalar deleting destructor'
PUBLIC	??0?$ScriptRegistrant@Vdp88_AR_CLEG_target@@@@QAE@PBD0@Z ; ScriptRegistrant<dp88_AR_CLEG_target>::ScriptRegistrant<dp88_AR_CLEG_target>
PUBLIC	?Create@?$ScriptRegistrant@Vdp88_AR_CLEG_target@@@@UAEPAVScriptImpClass@@XZ ; ScriptRegistrant<dp88_AR_CLEG_target>::Create
PUBLIC	??1?$ScriptRegistrant@Vdp88_AR_CLEG_target@@@@UAE@XZ ; ScriptRegistrant<dp88_AR_CLEG_target>::~ScriptRegistrant<dp88_AR_CLEG_target>
PUBLIC	??_G?$ScriptRegistrant@Vdp88_AR_CLEG_target@@@@UAEPAXI@Z ; ScriptRegistrant<dp88_AR_CLEG_target>::`scalar deleting destructor'
PUBLIC	??0?$ScriptRegistrant@Vdp88_Aircraft_LandingZone@@@@QAE@PBD0@Z ; ScriptRegistrant<dp88_Aircraft_LandingZone>::ScriptRegistrant<dp88_Aircraft_LandingZone>
PUBLIC	?Create@?$ScriptRegistrant@Vdp88_Aircraft_LandingZone@@@@UAEPAVScriptImpClass@@XZ ; ScriptRegistrant<dp88_Aircraft_LandingZone>::Create
PUBLIC	??1?$ScriptRegistrant@Vdp88_Aircraft_LandingZone@@@@UAE@XZ ; ScriptRegistrant<dp88_Aircraft_LandingZone>::~ScriptRegistrant<dp88_Aircraft_LandingZone>
PUBLIC	??_G?$ScriptRegistrant@Vdp88_Aircraft_LandingZone@@@@UAEPAXI@Z ; ScriptRegistrant<dp88_Aircraft_LandingZone>::`scalar deleting destructor'
PUBLIC	??0?$ScriptRegistrant@Vdp88_Aircraft_LandingZone_Aircraft@@@@QAE@PBD0@Z ; ScriptRegistrant<dp88_Aircraft_LandingZone_Aircraft>::ScriptRegistrant<dp88_Aircraft_LandingZone_Aircraft>
PUBLIC	?Create@?$ScriptRegistrant@Vdp88_Aircraft_LandingZone_Aircraft@@@@UAEPAVScriptImpClass@@XZ ; ScriptRegistrant<dp88_Aircraft_LandingZone_Aircraft>::Create
PUBLIC	??1?$ScriptRegistrant@Vdp88_Aircraft_LandingZone_Aircraft@@@@UAE@XZ ; ScriptRegistrant<dp88_Aircraft_LandingZone_Aircraft>::~ScriptRegistrant<dp88_Aircraft_LandingZone_Aircraft>
PUBLIC	??_G?$ScriptRegistrant@Vdp88_Aircraft_LandingZone_Aircraft@@@@UAEPAXI@Z ; ScriptRegistrant<dp88_Aircraft_LandingZone_Aircraft>::`scalar deleting destructor'
PUBLIC	??0?$ScriptRegistrant@Vdp88_RemoteControlConsole@@@@QAE@PBD0@Z ; ScriptRegistrant<dp88_RemoteControlConsole>::ScriptRegistrant<dp88_RemoteControlConsole>
PUBLIC	?Create@?$ScriptRegistrant@Vdp88_RemoteControlConsole@@@@UAEPAVScriptImpClass@@XZ ; ScriptRegistrant<dp88_RemoteControlConsole>::Create
PUBLIC	??1?$ScriptRegistrant@Vdp88_RemoteControlConsole@@@@UAE@XZ ; ScriptRegistrant<dp88_RemoteControlConsole>::~ScriptRegistrant<dp88_RemoteControlConsole>
PUBLIC	??_G?$ScriptRegistrant@Vdp88_RemoteControlConsole@@@@UAEPAXI@Z ; ScriptRegistrant<dp88_RemoteControlConsole>::`scalar deleting destructor'
PUBLIC	??0?$ScriptRegistrant@Vdp88_RemoteControlVehicle@@@@QAE@PBD0@Z ; ScriptRegistrant<dp88_RemoteControlVehicle>::ScriptRegistrant<dp88_RemoteControlVehicle>
PUBLIC	?Create@?$ScriptRegistrant@Vdp88_RemoteControlVehicle@@@@UAEPAVScriptImpClass@@XZ ; ScriptRegistrant<dp88_RemoteControlVehicle>::Create
PUBLIC	??1?$ScriptRegistrant@Vdp88_RemoteControlVehicle@@@@UAE@XZ ; ScriptRegistrant<dp88_RemoteControlVehicle>::~ScriptRegistrant<dp88_RemoteControlVehicle>
PUBLIC	??_G?$ScriptRegistrant@Vdp88_RemoteControlVehicle@@@@UAEPAXI@Z ; ScriptRegistrant<dp88_RemoteControlVehicle>::`scalar deleting destructor'
PUBLIC	??0?$ScriptRegistrant@Vdp88_AR_DemoTruck@@@@QAE@PBD0@Z ; ScriptRegistrant<dp88_AR_DemoTruck>::ScriptRegistrant<dp88_AR_DemoTruck>
PUBLIC	?Create@?$ScriptRegistrant@Vdp88_AR_DemoTruck@@@@UAEPAVScriptImpClass@@XZ ; ScriptRegistrant<dp88_AR_DemoTruck>::Create
PUBLIC	??1?$ScriptRegistrant@Vdp88_AR_DemoTruck@@@@UAE@XZ ; ScriptRegistrant<dp88_AR_DemoTruck>::~ScriptRegistrant<dp88_AR_DemoTruck>
PUBLIC	??_G?$ScriptRegistrant@Vdp88_AR_DemoTruck@@@@UAEPAXI@Z ; ScriptRegistrant<dp88_AR_DemoTruck>::`scalar deleting destructor'
PUBLIC	??0?$ScriptRegistrant@Vdp88_AR_paradrop_Console@@@@QAE@PBD0@Z ; ScriptRegistrant<dp88_AR_paradrop_Console>::ScriptRegistrant<dp88_AR_paradrop_Console>
PUBLIC	?Create@?$ScriptRegistrant@Vdp88_AR_paradrop_Console@@@@UAEPAVScriptImpClass@@XZ ; ScriptRegistrant<dp88_AR_paradrop_Console>::Create
PUBLIC	??1?$ScriptRegistrant@Vdp88_AR_paradrop_Console@@@@UAE@XZ ; ScriptRegistrant<dp88_AR_paradrop_Console>::~ScriptRegistrant<dp88_AR_paradrop_Console>
PUBLIC	??_G?$ScriptRegistrant@Vdp88_AR_paradrop_Console@@@@UAEPAXI@Z ; ScriptRegistrant<dp88_AR_paradrop_Console>::`scalar deleting destructor'
PUBLIC	??0?$ScriptRegistrant@Vdp88_AR_Prism_Tower@@@@QAE@PBD0@Z ; ScriptRegistrant<dp88_AR_Prism_Tower>::ScriptRegistrant<dp88_AR_Prism_Tower>
PUBLIC	?Create@?$ScriptRegistrant@Vdp88_AR_Prism_Tower@@@@UAEPAVScriptImpClass@@XZ ; ScriptRegistrant<dp88_AR_Prism_Tower>::Create
PUBLIC	??1?$ScriptRegistrant@Vdp88_AR_Prism_Tower@@@@UAE@XZ ; ScriptRegistrant<dp88_AR_Prism_Tower>::~ScriptRegistrant<dp88_AR_Prism_Tower>
PUBLIC	??_G?$ScriptRegistrant@Vdp88_AR_Prism_Tower@@@@UAEPAXI@Z ; ScriptRegistrant<dp88_AR_Prism_Tower>::`scalar deleting destructor'
PUBLIC	??0?$ScriptRegistrant@Vdp88_linkHealth@@@@QAE@PBD0@Z ; ScriptRegistrant<dp88_linkHealth>::ScriptRegistrant<dp88_linkHealth>
PUBLIC	?Create@?$ScriptRegistrant@Vdp88_linkHealth@@@@UAEPAVScriptImpClass@@XZ ; ScriptRegistrant<dp88_linkHealth>::Create
PUBLIC	??1?$ScriptRegistrant@Vdp88_linkHealth@@@@UAE@XZ ; ScriptRegistrant<dp88_linkHealth>::~ScriptRegistrant<dp88_linkHealth>
PUBLIC	??_G?$ScriptRegistrant@Vdp88_linkHealth@@@@UAEPAXI@Z ; ScriptRegistrant<dp88_linkHealth>::`scalar deleting destructor'
PUBLIC	?Set_Next@?$SLNode@UKeyHookWrapperStruct@MultiKeyHookScriptImpClass@@@@QAEXPAV1@@Z ; SLNode<MultiKeyHookScriptImpClass::KeyHookWrapperStruct>::Set_Next
PUBLIC	?Next@?$SLNode@UKeyHookWrapperStruct@MultiKeyHookScriptImpClass@@@@QBEPAV1@XZ ; SLNode<MultiKeyHookScriptImpClass::KeyHookWrapperStruct>::Next
PUBLIC	?Data@?$SLNode@UKeyHookWrapperStruct@MultiKeyHookScriptImpClass@@@@QBEPAUKeyHookWrapperStruct@MultiKeyHookScriptImpClass@@XZ ; SLNode<MultiKeyHookScriptImpClass::KeyHookWrapperStruct>::Data
PUBLIC	??0?$SLNode@UKeyHookWrapperStruct@MultiKeyHookScriptImpClass@@@@IAE@PAUKeyHookWrapperStruct@MultiKeyHookScriptImpClass@@@Z ; SLNode<MultiKeyHookScriptImpClass::KeyHookWrapperStruct>::SLNode<MultiKeyHookScriptImpClass::KeyHookWrapperStruct>
PUBLIC	?getInstance@?$Singleton@V?$ObjectPoolClass@VGenericSLNode@@$0BAA@@@@@SAAAV?$ObjectPoolClass@VGenericSLNode@@$0BAA@@@XZ ; Singleton<ObjectPoolClass<GenericSLNode,256> >::getInstance
PUBLIC	??0?$ObjectPoolClass@VGenericSLNode@@$0BAA@@@QAE@XZ ; ObjectPoolClass<GenericSLNode,256>::ObjectPoolClass<GenericSLNode,256>
PUBLIC	??1?$ObjectPoolClass@VGenericSLNode@@$0BAA@@@QAE@XZ ; ObjectPoolClass<GenericSLNode,256>::~ObjectPoolClass<GenericSLNode,256>
PUBLIC	?Allocate_Object_Memory@?$ObjectPoolClass@VGenericSLNode@@$0BAA@@@QAEPAVGenericSLNode@@XZ ; ObjectPoolClass<GenericSLNode,256>::Allocate_Object_Memory
PUBLIC	?Free_Object_Memory@?$ObjectPoolClass@VGenericSLNode@@$0BAA@@@QAEXAAVGenericSLNode@@@Z ; ObjectPoolClass<GenericSLNode,256>::Free_Object_Memory
PUBLIC	?writeDummyPattern@?$ObjectPoolClass@VGenericSLNode@@$0BAA@@@QAEXAAVGenericSLNode@@K@Z ; ObjectPoolClass<GenericSLNode,256>::writeDummyPattern
PUBLIC	??__Finstancex@?1??getInstance@?$Singleton@V?$ObjectPoolClass@VGenericSLNode@@$0BAA@@@@@SAAAV?$ObjectPoolClass@VGenericSLNode@@$0BAA@@@XZ@YAXXZ ; `Singleton<ObjectPoolClass<GenericSLNode,256> >::getInstance'::`2'::`dynamic atexit destructor for 'instancex''
PUBLIC	??_7GameObjObserverClass@@6B@			; GameObjObserverClass::`vftable'
PUBLIC	??_7ScriptClass@@6B@				; ScriptClass::`vftable'
PUBLIC	??_7ScriptImpClass@@6B@				; ScriptImpClass::`vftable'
PUBLIC	??_7ScriptFactory@@6B@				; ScriptFactory::`vftable'
PUBLIC	??_7ThreadClass@@6B@				; ThreadClass::`vftable'
PUBLIC	??_C@_0DJ@NKJHEMPA@x?3?2github?2renegade?2dragonade_rxd@ ; `string'
PUBLIC	??_C@_1HC@JEIHKHFK@?$AAx?$AA?3?$AA?2?$AAg?$AAi?$AAt?$AAh?$AAu?$AAb?$AA?2?$AAr?$AAe?$AAn?$AAe?$AAg?$AAa?$AAd?$AAe?$AA?2?$AAd?$AAr?$AAa?$AAg?$AAo?$AAn?$AAa?$AAd?$AAe?$AA_?$AAr?$AAx?$AAd@ ; `string'
PUBLIC	??_C@_1M@HLGKFCJM@?$AAf?$AAa?$AAl?$AAs?$AAe?$AA?$AA@ ; `string'
PUBLIC	??_7INIClass@@6B@				; INIClass::`vftable'
PUBLIC	??_7PostLoadableClass@@6B@			; PostLoadableClass::`vftable'
PUBLIC	??_7ReferencerClass@@6B@			; ReferencerClass::`vftable'
PUBLIC	??_7JFW_Key_Hook_Base@@6B@			; JFW_Key_Hook_Base::`vftable'
PUBLIC	??_7?$SList@UKeyHookWrapperStruct@MultiKeyHookScriptImpClass@@@@6B@ ; SList<MultiKeyHookScriptImpClass::KeyHookWrapperStruct>::`vftable'
PUBLIC	??_7MultiKeyHookScriptImpClass@@6B@		; MultiKeyHookScriptImpClass::`vftable'
PUBLIC	??_7JFW_Object_Created_Hook_Base@@6B@		; JFW_Object_Created_Hook_Base::`vftable'
PUBLIC	??_7dp88_customAI@@6B@				; dp88_customAI::`vftable'
PUBLIC	??_7dp88_AI_Turret@@6B@				; dp88_AI_Turret::`vftable'
PUBLIC	??_7dp88_AI_ChargedTurret@@6B@			; dp88_AI_ChargedTurret::`vftable'
PUBLIC	??_7dp88_Camo_Controller@@6B@			; dp88_Camo_Controller::`vftable'
PUBLIC	??_7dp88_AR_GameController@@6B@			; dp88_AR_GameController::`vftable'
PUBLIC	??_7dp88_AR_Deployable_Infantry@@6B@		; dp88_AR_Deployable_Infantry::`vftable'
PUBLIC	??_7dp88_AR_CLEG@@6B@				; dp88_AR_CLEG::`vftable'
PUBLIC	??_7dp88_AR_CLEG_target@@6B@			; dp88_AR_CLEG_target::`vftable'
PUBLIC	??_7dp88_Ore_Miner@@6B@				; dp88_Ore_Miner::`vftable'
PUBLIC	??_7dp88_AR_Chrono_Miner@@6B@			; dp88_AR_Chrono_Miner::`vftable'
PUBLIC	??_7dp88_AR_Chrono_Miner_Chronozone@@6B@	; dp88_AR_Chrono_Miner_Chronozone::`vftable'
PUBLIC	??_7dp88_Ore_Field_Observer@dp88_Ore_Field@@6B@	; dp88_Ore_Field::dp88_Ore_Field_Observer::`vftable'
PUBLIC	??_7dp88_Ore_Field@@6B@				; dp88_Ore_Field::`vftable'
PUBLIC	??_C@_0BI@PEPLNIMK@dp88_Ore_Field_Observer?$AA@	; `string'
PUBLIC	??_7dp88_Ore_Extractor@@6B@			; dp88_Ore_Extractor::`vftable'
PUBLIC	??_7dp88_Ore_Dump_Zone@@6B@			; dp88_Ore_Dump_Zone::`vftable'
PUBLIC	??_7dp88_Aircraft_LandingZone@@6B@		; dp88_Aircraft_LandingZone::`vftable'
PUBLIC	??_7dp88_Aircraft_LandingZone_Aircraft@@6B@	; dp88_Aircraft_LandingZone_Aircraft::`vftable'
PUBLIC	??_7dp88_RemoteControlConsole@@6B@		; dp88_RemoteControlConsole::`vftable'
PUBLIC	??_7dp88_RemoteControlVehicle@@6B@		; dp88_RemoteControlVehicle::`vftable'
PUBLIC	??_7dp88_AR_DemoTruck@@6B@			; dp88_AR_DemoTruck::`vftable'
PUBLIC	??_7dp88_AR_paradrop_Console@@6B@		; dp88_AR_paradrop_Console::`vftable'
PUBLIC	??_7dp88_AR_Paradrop@@6B@			; dp88_AR_Paradrop::`vftable'
PUBLIC	??_7dp88_AR_Prism_Tower@@6B@			; dp88_AR_Prism_Tower::`vftable'
PUBLIC	??_7dp88_linkHealth@@6B@			; dp88_linkHealth::`vftable'
PUBLIC	??_C@_0BF@IFBCFJNJ@enableCountry_Russia?$AA@	; `string'
PUBLIC	??_C@_0BD@GCMPBKDK@enableCountry_Cuba?$AA@	; `string'
PUBLIC	??_C@_0BD@PNCMJGCK@enableCountry_Iraq?$AA@	; `string'
PUBLIC	??_C@_0BE@PMPLHGNA@enableCountry_Libya?$AA@	; `string'
PUBLIC	??_C@_0FE@FPMFHLI@msg?5GAME?5CONTROLLER?5ERROR?3?5All?5S@ ; `string'
PUBLIC	??_C@_0BG@MOACNKPG@enableCountry_America?$AA@	; `string'
PUBLIC	??_C@_0BF@NKCONKMO@enableCountry_France?$AA@	; `string'
PUBLIC	??_C@_0BG@IIJGIMID@enableCountry_Germany?$AA@	; `string'
PUBLIC	??_C@_0BL@OILODKNF@enableCountry_GreatBritain?$AA@ ; `string'
PUBLIC	??_C@_0BE@CLJLLOED@enableCountry_Korea?$AA@	; `string'
PUBLIC	??_C@_0FF@GFFDLGON@msg?5GAME?5CONTROLLER?5ERROR?3?5All?5A@ ; `string'
PUBLIC	??_C@_0BM@FDMLICBA@The?5Soviets?5are?5playing?5as?5?$AA@ ; `string'
PUBLIC	??_C@_06HBCOHLEJ@Russia?$AA@			; `string'
PUBLIC	??_C@_0FD@OPLPFHP@As?5the?5Russians?5you?5can?5use?5the?5@ ; `string'
PUBLIC	??_C@_04ENNKDPHN@Cuba?$AA@			; `string'
PUBLIC	??_C@_0FA@BCOJLIFF@As?5the?5Cubans?5you?5can?5use?5the?5in@ ; `string'
PUBLIC	??_C@_04NCDJLDGN@Iraq?$AA@			; `string'
PUBLIC	??_C@_0EN@JLNHEEEP@As?5the?5Iraqis?5you?5can?5use?5the?5de@ ; `string'
PUBLIC	??_C@_05BEGMLHMG@Libya?$AA@			; `string'
PUBLIC	??_C@_0FB@JHHKADDP@As?5the?5Libiyans?5you?5can?5use?5the?5@ ; `string'
PUBLIC	??_C@_0CA@DLJOOLKB@?5and?5the?5Allies?5are?5playing?5as?5?$AA@ ; `string'
PUBLIC	??_C@_07DOPJHFJA@America?$AA@			; `string'
PUBLIC	??_C@_0EG@DOHGOOCN@As?5the?5Americans?5you?5can?5use?5par@ ; `string'
PUBLIC	??_C@_06COBCPIFO@France?$AA@			; `string'
PUBLIC	??_C@_0EG@JKHHPBBE@As?5the?5French?5your?5base?5is?5well?5@ ; `string'
PUBLIC	??_C@_07HIGNCDOF@Germany?$AA@			; `string'
PUBLIC	??_C@_0EP@PMBHCLFE@As?5the?5Germans?5you?5can?5use?5the?5T@ ; `string'
PUBLIC	??_C@_0O@IAGENNII@Great?5Britain?$AA@		; `string'
PUBLIC	??_C@_0EM@BBPIKCAE@As?5the?5British?5you?5can?5use?5snipe@ ; `string'
PUBLIC	??_C@_05MDAMHPFF@Korea?$AA@			; `string'
PUBLIC	??_C@_0EG@NCFIPGCK@As?5the?5Koreans?5you?5can?5use?5Black@ ; `string'
PUBLIC	??_C@_0BM@FHCMLMAC@MirageTank_disguisePreset_1?$AA@ ; `string'
PUBLIC	??_C@_04MLLLIHIP@null?$AA@			; `string'
PUBLIC	?__LINE__Var@?1??Created@dp88_AR_GameController@@UAEXPAVScriptableGameObj@@@Z@4JA ; `dp88_AR_GameController::Created'::`2'::__LINE__Var
PUBLIC	??_C@_0CA@LFBBGCB@dp88_AR_GameController?3?3Created?$AA@ ; `string'
PUBLIC	??_C@_0DF@OJAOOMAH@x?3?2github?2renegade?2dragonade_rxd@ ; `string'
PUBLIC	??_C@_1GK@CJEGDLAP@?$AAx?$AA?3?$AA?2?$AAg?$AAi?$AAt?$AAh?$AAu?$AAb?$AA?2?$AAr?$AAe?$AAn?$AAe?$AAg?$AAa?$AAd?$AAe?$AA?2?$AAd?$AAr?$AAa?$AAg?$AAo?$AAn?$AAa?$AAd?$AAe?$AA_?$AAr?$AAx?$AAd@ ; `string'
PUBLIC	??_C@_0BM@HMABOPMB@MirageTank_disguisePreset_2?$AA@ ; `string'
PUBLIC	??_C@_0BM@GFBKNOIA@MirageTank_disguisePreset_3?$AA@ ; `string'
PUBLIC	?__LINE__Var@?1??Destroyed@dp88_AR_GameController@@UAEXPAVScriptableGameObj@@@Z@4JA ; `dp88_AR_GameController::Destroyed'::`2'::__LINE__Var
PUBLIC	??_C@_0CC@KMBDMHHB@dp88_AR_GameController?3?3Destroye@ ; `string'
PUBLIC	??_C@_0BF@MFBGNGEP@deployedObjectPreset?$AA@	; `string'
PUBLIC	??_C@_0FD@BPGCOALM@dp88_AR_Deployable_Infantry?5?3?3?5S@ ; `string'
PUBLIC	??_C@_0BG@HFLMKGI@deployedWeaponPowerup?$AA@	; `string'
PUBLIC	??_C@_0BO@BDGMBCNO@deployedWeaponPowerup_veteran?$AA@ ; `string'
PUBLIC	??_C@_0BM@ICHLJJHH@deployedWeaponPowerup_elite?$AA@ ; `string'
PUBLIC	??_C@_0BF@IMENNLBL@cannotDeployStringId?$AA@	; `string'
PUBLIC	??_C@_0O@CEFAEEGH@deployKeyhook?$AA@		; `string'
PUBLIC	??_C@_0N@LEPMODEF@undeployTime?$AA@		; `string'
PUBLIC	??_C@_0FK@HJDEIDNN@You?5cannot?5undeploy?5yet?0?5you?5mus@ ; `string'
PUBLIC	??_C@_0L@LGLHGEKK@deployTime?$AA@		; `string'
PUBLIC	??_C@_0FO@HENGAEHL@You?5cannot?5deploy?5yet?0?5you?5must?5@ ; `string'
PUBLIC	??_C@_0BM@LFDCBMI@deployedObjectSpaceRequired?$AA@ ; `string'
PUBLIC	?__LINE__Var@?1??KeyHook@dp88_AR_Deployable_Infantry@@UAEXXZ@4JA ; `dp88_AR_Deployable_Infantry::KeyHook'::`2'::__LINE__Var
PUBLIC	??_C@_0CF@KIKFMCII@dp88_AR_Deployable_Infantry?3?3Key@ ; `string'
PUBLIC	??_C@_0FI@PHLEFKAJ@Deployment?5abuse?5detected?0?5disab@ ; `string'
PUBLIC	??_C@_0BJ@CJLCKMAB@deployedArmourType_elite?$AA@ ; `string'
PUBLIC	??_C@_0BL@DMLKKDEE@deployedArmourType_veteran?$AA@ ; `string'
PUBLIC	??_C@_0BD@BKAKAJAD@deployedArmourType?$AA@	; `string'
PUBLIC	??_C@_0M@DMJJAGLI@deploySound?$AA@		; `string'
PUBLIC	??_C@_0O@MCOLCNG@undeploySound?$AA@		; `string'
PUBLIC	??_C@_0N@HCFBBNOH@CLEG_DropObj?$AA@		; `string'
PUBLIC	??_C@_0P@JHFLIHBN@Phasing?5in?4?4?4?4?$AA@	; `string'
PUBLIC	??_C@_0DD@CBCDBAII@You?5have?5been?5phased?5out?5too?5lon@ ; `string'
PUBLIC	??_C@_05PGGAFPFO@Death?$AA@			; `string'
PUBLIC	??_C@_0DN@ENAIFJPJ@WARNING?3?5You?5have?5?$CFd?5seconds?5to?5@ ; `string'
PUBLIC	??_C@_0L@GDPBJPKC@resistance?$AA@		; `string'
PUBLIC	??_C@_0BB@PNBLNPBJ@clegEffectPreset?$AA@	; `string'
PUBLIC	??_C@_06MJHGNIM@Use_AI?$AA@			; `string'
PUBLIC	??_C@_0O@ODNOLLNH@Resource_Name?$AA@		; `string'
PUBLIC	??_C@_0N@CKLMCBCD@Ore_Capacity?$AA@		; `string'
PUBLIC	??_C@_0BA@CEKFDMBL@Ore_Mining_Time?$AA@		; `string'
PUBLIC	??_C@_0O@BMHFNGDK@Ore_Dump_Time?$AA@		; `string'
PUBLIC	??_C@_0P@DPBHIJDH@Idle_Animation?$AA@		; `string'
PUBLIC	??_C@_0BB@KCLAFENJ@Mining_Animation?$AA@	; `string'
PUBLIC	??_C@_0P@HBIJGFEI@Dump_Animation?$AA@		; `string'
PUBLIC	??_C@_0N@IFNCGEJN@Mining_Sound?$AA@		; `string'
PUBLIC	??_C@_0L@LICJIGHN@Dump_Sound?$AA@		; `string'
PUBLIC	??_C@_0O@OKGKHHLH@AI_Init_Delay?$AA@		; `string'
PUBLIC	??_C@_0P@FDONNPOD@dp88_Ore_Field?$AA@		; `string'
PUBLIC	??_C@_0HH@HMPCAJCL@The?5?$CFs?5field?5is?5depleted?0?5find?5a@ ; `string'
PUBLIC	??_C@_0EK@EMBEDAFA@Fully?5loaded?5with?5?$CFs?0?5dock?5at?5th@ ; `string'
PUBLIC	??_C@_0CB@KJFHADCP@Unloading?5?$CFs?0?5please?5stand?5by?4?4?4@ ; `string'
PUBLIC	??_C@_0GA@KPOINCBL@?$CFs?5unloaded?5successfully?0?5you?5ha@ ; `string'
PUBLIC	??_7?$SList@VScriptableGameObj@@@@6B@		; SList<ScriptableGameObj>::`vftable'
PUBLIC	??_C@_0BB@BAIFIPKL@Collecting?5?$CFs?4?4?4?$AA@	; `string'
PUBLIC	??_C@_0BD@EDKPCDPK@dp88_Ore_Dump_Zone?$AA@	; `string'
PUBLIC	??_7?$ScriptRegistrant@Vdp88_Ore_Miner@@@@6B@	; ScriptRegistrant<dp88_Ore_Miner>::`vftable'
PUBLIC	?dp88_Ore_Miner_Registrant@@3V?$ScriptRegistrant@Vdp88_Ore_Miner@@@@A ; dp88_Ore_Miner_Registrant
PUBLIC	??_C@_0OL@IPNIEICP@Use_AI?$DN1?3int?0Ore_Capacity?$DN10?3int@ ; `string'
PUBLIC	??_C@_0P@PNGCCGHJ@dp88_Ore_Miner?$AA@		; `string'
PUBLIC	??_C@_0CE@GDNCMBMM@emergencyChronoshiftHealthThresh@ ; `string'
PUBLIC	??_C@_0BD@JCAONOKO@chronoshiftKeyhook?$AA@	; `string'
PUBLIC	??_C@_0DL@EGDHOOGB@Unable?5to?5chronoshift?0?5all?5targe@ ; `string'
PUBLIC	??_C@_0FI@PGKDDPLE@The?5AI?5Chronominer?5was?5unable?5to@ ; `string'
PUBLIC	??_C@_0CA@CFCDHMOJ@dp88_AR_Chrono_Miner_Chronozone?$AA@ ; `string'
PUBLIC	??_C@_0BB@DCMPPMMN@chronoshift_time?$AA@	; `string'
PUBLIC	??_C@_0BO@FIFKCKDL@chronoshift_out_effect_preset?$AA@ ; `string'
PUBLIC	??_C@_0BM@ODINNJLO@chronoshift_out_effect_time?$AA@ ; `string'
PUBLIC	??_C@_07DOPKBAAA@?$CF?42f?0?$CFd?$AA@		; `string'
PUBLIC	??_C@_0BH@IMLBMMM@JFW_Destroy_Self_Timer?$AA@	; `string'
PUBLIC	??_C@_0BN@IMGAEHDB@chronoshift_in_effect_preset?$AA@ ; `string'
PUBLIC	??_C@_0BL@HDHHGK@chronoshift_in_effect_time?$AA@ ; `string'
PUBLIC	??_7?$ScriptRegistrant@Vdp88_AR_Chrono_Miner@@@@6B@ ; ScriptRegistrant<dp88_AR_Chrono_Miner>::`vftable'
PUBLIC	?dp88_AR_Chrono_Miner_Registrant@@3V?$ScriptRegistrant@Vdp88_AR_Chrono_Miner@@@@A ; dp88_AR_Chrono_Miner_Registrant
PUBLIC	??_C@_0BMK@OGKPIJCA@Use_AI?$DN1?3int?0chronoshift_time?$DN2?4@ ; `string'
PUBLIC	??_C@_0BF@EMHNCJLM@dp88_AR_Chrono_Miner?$AA@	; `string'
PUBLIC	??_C@_0BH@CAOJFLI@dp88_ar_gameController?$AA@	; `string'
PUBLIC	??_C@_0GM@LGOKCEAC@dp88_AR_Chrono_Miner_Chronozone?5@ ; `string'
PUBLIC	??_7?$ScriptRegistrant@Vdp88_AR_Chrono_Miner_Chronozone@@@@6B@ ; ScriptRegistrant<dp88_AR_Chrono_Miner_Chronozone>::`vftable'
PUBLIC	?dp88_AR_Chrono_Miner_Chronozone_Registrant@@3V?$ScriptRegistrant@Vdp88_AR_Chrono_Miner_Chronozone@@@@A ; dp88_AR_Chrono_Miner_Chronozone_Registrant
PUBLIC	??_C@_00CNPNBAHC@?$AA@				; `string'
PUBLIC	??_C@_09KFMCNPID@Ore_Value?$AA@			; `string'
PUBLIC	??_C@_09ILICBFCO@Ore_Units?$AA@			; `string'
PUBLIC	??_C@_0P@KOIPOOMD@Animation_Name?$AA@		; `string'
PUBLIC	??_C@_0BF@KOGHJIGL@Animation_Full_Frame?$AA@	; `string'
PUBLIC	??_C@_0BG@LKFEMCPO@Animation_Empty_Frame?$AA@	; `string'
PUBLIC	??_C@_09KINPNLGC@Zone_Size?$AA@			; `string'
PUBLIC	??_C@_0BB@HIBECNLG@Zone_Anim_Step_X?$AA@	; `string'
PUBLIC	??_C@_0BB@GBAPBMPH@Zone_Anim_Step_Y?$AA@	; `string'
PUBLIC	??_C@_09FNOAKNMM@AI_Ignore?$AA@			; `string'
PUBLIC	??_C@_0BA@HNDGJMLL@Script_Zone_All?$AA@		; `string'
PUBLIC	?__LINE__Var@?1??Created@dp88_Ore_Field@@UAEXPAVScriptableGameObj@@@Z@4JA ; `dp88_Ore_Field::Created'::`2'::__LINE__Var
PUBLIC	??_C@_0BI@HLHLGIBG@dp88_Ore_Field?3?3Created?$AA@ ; `string'
PUBLIC	??_C@_0FJ@HJNJMOHF@?$FL?$CFd?3?$CFs?3?$CFs?$FN?5Critical?5Error?3?5Unabl@ ; `string'
PUBLIC	?__LINE__Var@?1??Detach@dp88_Ore_Field@@UAEXPAVScriptableGameObj@@@Z@4JA ; `dp88_Ore_Field::Detach'::`2'::__LINE__Var
PUBLIC	??_C@_0BH@KKKPGEKM@dp88_Ore_Field?3?3Detach?$AA@ ; `string'
PUBLIC	??_7?$ScriptRegistrant@Vdp88_Ore_Field@@@@6B@	; ScriptRegistrant<dp88_Ore_Field>::`vftable'
PUBLIC	?dp88_Ore_Field_Registrant@@3V?$ScriptRegistrant@Vdp88_Ore_Field@@@@A ; dp88_Ore_Field_Registrant
PUBLIC	??_C@_0MG@HFFBHDGO@Ore_Value?3int?0Ore_Capacity?3int?0O@ ; `string'
PUBLIC	??_C@_0BE@PJJOFNID@Extraction_Interval?$AA@	; `string'
PUBLIC	??_C@_0BF@HAMAJFGE@Extraction_Animation?$AA@	; `string'
PUBLIC	??_C@_0FF@PEMPDPCP@?$FL?$CFd?3?$CFs?3?$CFs?$FN?5Critical?5Error?3?5Unabl@ ; `string'
PUBLIC	??_7?$ScriptRegistrant@Vdp88_Ore_Extractor@@@@6B@ ; ScriptRegistrant<dp88_Ore_Extractor>::`vftable'
PUBLIC	?dp88_Ore_Extractor_Registrant@@3V?$ScriptRegistrant@Vdp88_Ore_Extractor@@@@A ; dp88_Ore_Extractor_Registrant
PUBLIC	??_C@_0EC@GELKPOJM@Ore_Units?3int?0Extraction_Interva@ ; `string'
PUBLIC	??_C@_0BD@LIFBBGKP@dp88_Ore_Extractor?$AA@	; `string'
PUBLIC	??_C@_04GBPANCCF@Team?$AA@			; `string'
PUBLIC	??_7?$ScriptRegistrant@Vdp88_Ore_Dump_Zone@@@@6B@ ; ScriptRegistrant<dp88_Ore_Dump_Zone>::`vftable'
PUBLIC	?dp88_Ore_Dump_Zone_Registrant@@3V?$ScriptRegistrant@Vdp88_Ore_Dump_Zone@@@@A ; dp88_Ore_Dump_Zone_Registrant
PUBLIC	??_C@_0L@CEMIOEF@Team?$DN0?3int?$AA@		; `string'
PUBLIC	??_C@_0BF@EPONAFJP@require_landing_zone?$AA@	; `string'
PUBLIC	??_C@_0BI@JFPBEDHA@1?40?0547859?05000?40?0Death?$AA@ ; `string'
PUBLIC	??_C@_0BJ@IOLCGKKE@JFW_Timer_Destroy_Object?$AA@ ; `string'
PUBLIC	??_C@_0BI@DCNEIFIO@landing_anim_last_frame?$AA@	; `string'
PUBLIC	??_C@_0BJ@KLMKDHMN@landing_anim_first_frame?$AA@ ; `string'
PUBLIC	??_C@_0BC@KIICMLNP@landing_anim_name?$AA@	; `string'
PUBLIC	??_C@_0L@PPADADDF@chargeTime?$AA@		; `string'
PUBLIC	?__LINE__Var@?1??Created@dp88_RemoteControlConsole@@EAEXPAVScriptableGameObj@@@Z@4JA ; `dp88_RemoteControlConsole::Created'::`2'::__LINE__Var
PUBLIC	??_C@_0CD@JPHIBELA@dp88_RemoteControlConsole?3?3Creat@ ; `string'
PUBLIC	?__LINE__Var@?1??Detach@dp88_RemoteControlConsole@@EAEXPAVScriptableGameObj@@@Z@4JA ; `dp88_RemoteControlConsole::Detach'::`2'::__LINE__Var
PUBLIC	??_C@_0CC@KHBMMJCA@dp88_RemoteControlConsole?3?3Detac@ ; `string'
PUBLIC	??_C@_04KADBPNCB@team?$AA@			; `string'
PUBLIC	??_C@_0BC@ELJPHEC@accessDeniedSound?$AA@	; `string'
PUBLIC	??_C@_0BE@GFAECMKC@consoleOfflineSound?$AA@	; `string'
PUBLIC	??_C@_0BF@MJKOCOEE@consoleChargingSound?$AA@	; `string'
PUBLIC	??_C@_04JJOOIINB@cost?$AA@			; `string'
PUBLIC	??_C@_0BH@GAEICIMG@insufficientFundsSound?$AA@	; `string'
PUBLIC	??_C@_0O@HKFGMBNK@vehiclePreset?$AA@		; `string'
PUBLIC	??_C@_0BA@MCGHCFJE@remoteControlID?$AA@		; `string'
PUBLIC	??_C@_0BL@JNCLKLPE@connectionEstablishedSound?$AA@ ; `string'
PUBLIC	??_C@_0BD@CEGEOPPJ@Invisible_Object_2?$AA@	; `string'
PUBLIC	??_C@_02DPKJAMEF@?$CFd?$AA@			; `string'
PUBLIC	??_C@_0BA@BJMNFBLH@dp88_linkHealth?$AA@		; `string'
PUBLIC	??_C@_0BD@MJLACLOO@S_A_HUMAN?4H_A_A0A0?$AA@	; `string'
PUBLIC	??_C@_0BD@DNBLCDKG@animFrameDisabled2?$AA@	; `string'
PUBLIC	??_C@_0BD@BGDGHAGF@animFrameDisabled1?$AA@	; `string'
PUBLIC	??_C@_0O@MKCKBGNB@animationName?$AA@		; `string'
PUBLIC	??_C@_0BB@BEJFHLAJ@animFrameActive2?$AA@	; `string'
PUBLIC	??_C@_0BB@DPLICIMK@animFrameActive1?$AA@	; `string'
PUBLIC	??_C@_0P@CIHEFPAE@animFrameIdle2?$AA@		; `string'
PUBLIC	??_C@_0P@DFJAMMH@animFrameIdle1?$AA@		; `string'
PUBLIC	??_C@_0BD@ONHOLLAC@animFrameCharging2?$AA@	; `string'
PUBLIC	??_C@_0BD@MGFDOIMB@animFrameCharging1?$AA@	; `string'
PUBLIC	??_C@_0BE@NGBPOKKD@animFrameAvailable2?$AA@	; `string'
PUBLIC	??_C@_0BE@PNDCLJGA@animFrameAvailable1?$AA@	; `string'
PUBLIC	??_C@_0BK@EJNIJBHG@dp88_RemoteControlConsole?$AA@ ; `string'
PUBLIC	??_C@_0BA@PJMIDBDG@explosionPreset?$AA@		; `string'
PUBLIC	??_C@_0BE@OCAKJEGI@buildingDamageRange?$AA@	; `string'
PUBLIC	??_C@_0BG@KMGGAABJ@buildingDamageWarhead?$AA@	; `string'
PUBLIC	??_C@_0BH@FCFHJPEP@buildingDamageStrength?$AA@	; `string'
PUBLIC	??_C@_0BA@FNJCPKOH@cinematicPreset?$AA@		; `string'
PUBLIC	??_C@_01GBGANLPD@0?$AA@				; `string'
PUBLIC	??_C@_0P@JMLOMBPP@RA_DriverDeath?$AA@		; `string'
PUBLIC	??_C@_0BM@PNAKAEKE@Invalid?5Security?5Clearance?6?$AA@ ; `string'
PUBLIC	??_C@_0CM@BGFNOIH@This?5can?5only?5be?5used?5once?5every@ ; `string'
PUBLIC	??_C@_0BD@DKEHFKKN@Allied_GI_Paradrop?$AA@	; `string'
PUBLIC	??_C@_0GL@LLBGFEEK@?$FL?$CFd?3?$CFs?3?$CFs?$FN?5Critical?5Error?3?5This?5@ ; `string'
PUBLIC	??_C@_05IKBANCEK@Earth?$AA@			; `string'
PUBLIC	??_C@_0BA@CGGKAAON@Parachute_Model?$AA@		; `string'
PUBLIC	??_C@_0BB@NHJNEILC@Invisible_Object?$AA@	; `string'
PUBLIC	??_C@_0P@HIPDHOEE@Parachute_Bone?$AA@		; `string'
PUBLIC	??_C@_09ONEINPNJ@Animation?$AA@			; `string'
PUBLIC	?__LINE__Var@?1??Created@dp88_AR_Paradrop@@MAEXPAVScriptableGameObj@@@Z@4JA ; `dp88_AR_Paradrop::Created'::`2'::__LINE__Var
PUBLIC	??_C@_0BK@IDPMNJAO@dp88_AR_Paradrop?3?3Created?$AA@ ; `string'
PUBLIC	??_C@_0BB@FIHKMGIB@Animation_Looped?$AA@	; `string'
PUBLIC	??_C@_0BF@LOKKEGED@Animation_Last_Frame?$AA@	; `string'
PUBLIC	??_C@_0BG@IGICMLKJ@Animation_First_Frame?$AA@	; `string'
PUBLIC	?__LINE__Var@?1??Detach@dp88_AR_Paradrop@@MAEXPAVScriptableGameObj@@@Z@4JA ; `dp88_AR_Paradrop::Detach'::`2'::__LINE__Var
PUBLIC	??_C@_0BJ@EPLABFHB@dp88_AR_Paradrop?3?3Detach?$AA@ ; `string'
PUBLIC	??_C@_0BA@NHMIOHB@Infantry_Preset?$AA@		; `string'
PUBLIC	??_7?$ScriptRegistrant@Vdp88_AR_Paradrop@@@@6B@	; ScriptRegistrant<dp88_AR_Paradrop>::`vftable'
PUBLIC	?dp88_AR_Paradrop_Registrant@@3V?$ScriptRegistrant@Vdp88_AR_Paradrop@@@@A ; dp88_AR_Paradrop_Registrant
PUBLIC	??_C@_0JN@MOLJIONA@Infantry_Preset?3string?0Parachute@ ; `string'
PUBLIC	??_C@_0BB@IILHOKGK@dp88_AR_Paradrop?$AA@	; `string'
PUBLIC	?__LINE__Var@?1??clearTowerMap@dp88_AR_Prism_Tower@@CAXH@Z@4JA@6d493206 ; `dp88_AR_Prism_Tower::clearTowerMap'::`2'::__LINE__Var
PUBLIC	??_C@_0CD@NMNGKBLJ@dp88_AR_Prism_Tower?3?3clearTowerM@ ; `string'
PUBLIC	?__LINE__Var@?1??calculateTowerMap@dp88_AR_Prism_Tower@@CAXXZ@4JA@6d493206 ; `dp88_AR_Prism_Tower::calculateTowerMap'::`2'::__LINE__Var
PUBLIC	??_C@_0CH@FOALLIJB@dp88_AR_Prism_Tower?3?3calculateTo@ ; `string'
PUBLIC	??_C@_0BE@EGGNPPMF@dp88_AR_Prism_Tower?$AA@	; `string'
PUBLIC	??_C@_08HEKCLJAN@muzzlea0?$AA@			; `string'
PUBLIC	??_C@_0P@IPEMGAI@parentObjectId?$AA@		; `string'
PUBLIC	??_C@_04OHJIHAFH@None?$AA@			; `string'
PUBLIC	??_7?$ScriptRegistrant@Vdp88_AR_GameController@@@@6B@ ; ScriptRegistrant<dp88_AR_GameController>::`vftable'
PUBLIC	?dp88_AR_GameController_Registrant@@3V?$ScriptRegistrant@Vdp88_AR_GameController@@@@A ; dp88_AR_GameController_Registrant
PUBLIC	??_C@_0BIE@EKBGJJ@enableCountry_Russia?$DN1?3int?0enabl@ ; `string'
PUBLIC	??_C@_0BH@PJCOCBOM@dp88_AR_GameController?$AA@	; `string'
PUBLIC	??_7?$ScriptRegistrant@Vdp88_AR_Deployable_Infantry@@@@6B@ ; ScriptRegistrant<dp88_AR_Deployable_Infantry>::`vftable'
PUBLIC	?dp88_AR_Deployable_Infantry_Registrant@@3V?$ScriptRegistrant@Vdp88_AR_Deployable_Infantry@@@@A ; dp88_AR_Deployable_Infantry_Registrant
PUBLIC	??_C@_0BOM@OOMAMMGA@deployedObjectPreset?$DNnull?3string@ ; `string'
PUBLIC	??_C@_0BM@EGCLMKMH@dp88_AR_Deployable_Infantry?$AA@ ; `string'
PUBLIC	??_7?$ScriptRegistrant@Vdp88_AR_CLEG@@@@6B@	; ScriptRegistrant<dp88_AR_CLEG>::`vftable'
PUBLIC	?dp88_AR_CLEG_Registrant@@3V?$ScriptRegistrant@Vdp88_AR_CLEG@@@@A ; dp88_AR_CLEG_Registrant
PUBLIC	??_C@_0N@PFLALNEJ@dp88_AR_CLEG?$AA@		; `string'
PUBLIC	??_7?$ScriptRegistrant@Vdp88_AR_CLEG_target@@@@6B@ ; ScriptRegistrant<dp88_AR_CLEG_target>::`vftable'
PUBLIC	?dp88_AR_CLEG_target_Registrant@@3V?$ScriptRegistrant@Vdp88_AR_CLEG_target@@@@A ; dp88_AR_CLEG_target_Registrant
PUBLIC	??_C@_0CP@HPCMPHIH@resistance?$DN20?3int?0clegEffectPres@ ; `string'
PUBLIC	??_C@_0BE@KBJNNOAB@dp88_AR_CLEG_target?$AA@	; `string'
PUBLIC	??_7?$ScriptRegistrant@Vdp88_Aircraft_LandingZone@@@@6B@ ; ScriptRegistrant<dp88_Aircraft_LandingZone>::`vftable'
PUBLIC	?dp88_Aircraft_LandingZone_Registrant@@3V?$ScriptRegistrant@Vdp88_Aircraft_LandingZone@@@@A ; dp88_Aircraft_LandingZone_Registrant
PUBLIC	??_C@_0BK@IKKCDGAC@dp88_Aircraft_LandingZone?$AA@ ; `string'
PUBLIC	??_7?$ScriptRegistrant@Vdp88_Aircraft_LandingZone_Aircraft@@@@6B@ ; ScriptRegistrant<dp88_Aircraft_LandingZone_Aircraft>::`vftable'
PUBLIC	?dp88_Aircraft_LandingZone_Aircraft_Registrant@@3V?$ScriptRegistrant@Vdp88_Aircraft_LandingZone_Aircraft@@@@A ; dp88_Aircraft_LandingZone_Aircraft_Registrant
PUBLIC	??_C@_0IN@KBAICBIG@landing_anim_name?$DNmodelfile?4anim@ ; `string'
PUBLIC	??_C@_0CD@LOAPGCML@dp88_Aircraft_LandingZone_Aircra@ ; `string'
PUBLIC	??_7?$ScriptRegistrant@Vdp88_RemoteControlConsole@@@@6B@ ; ScriptRegistrant<dp88_RemoteControlConsole>::`vftable'
PUBLIC	?dp88_RemoteControlConsole_Registrant@@3V?$ScriptRegistrant@Vdp88_RemoteControlConsole@@@@A ; dp88_RemoteControlConsole_Registrant
PUBLIC	??_C@_0BOB@BNNBNENM@remoteControlID?3int?0vehiclePrese@ ; `string'
PUBLIC	??_7?$ScriptRegistrant@Vdp88_RemoteControlVehicle@@@@6B@ ; ScriptRegistrant<dp88_RemoteControlVehicle>::`vftable'
PUBLIC	?dp88_RemoteControlVehicle_Registrant@@3V?$ScriptRegistrant@Vdp88_RemoteControlVehicle@@@@A ; dp88_RemoteControlVehicle_Registrant
PUBLIC	??_C@_0BE@PHNHOOHC@remoteControlID?3int?$AA@	; `string'
PUBLIC	??_C@_0BK@GPCMCCPB@dp88_RemoteControlVehicle?$AA@ ; `string'
PUBLIC	??_7?$ScriptRegistrant@Vdp88_AR_DemoTruck@@@@6B@ ; ScriptRegistrant<dp88_AR_DemoTruck>::`vftable'
PUBLIC	?dp88_AR_DemoTruck_Registrant@@3V?$ScriptRegistrant@Vdp88_AR_DemoTruck@@@@A ; dp88_AR_DemoTruck_Registrant
PUBLIC	??_C@_0KO@KLKMOMBJ@explosionPreset?$DNExplosion_NukeBe@ ; `string'
PUBLIC	??_C@_0BC@IIFFAIPL@dp88_AR_DemoTruck?$AA@	; `string'
PUBLIC	??_7?$ScriptRegistrant@Vdp88_AR_paradrop_Console@@@@6B@ ; ScriptRegistrant<dp88_AR_paradrop_Console>::`vftable'
PUBLIC	?dp88_AR_paradrop_Console_Registrant@@3V?$ScriptRegistrant@Vdp88_AR_paradrop_Console@@@@A ; dp88_AR_paradrop_Console_Registrant
PUBLIC	??_C@_0L@EPIMNCDH@team?$DN1?3int?$AA@		; `string'
PUBLIC	??_C@_0BJ@IPIIGGCN@dp88_AR_paradrop_Console?$AA@ ; `string'
PUBLIC	??_7?$ScriptRegistrant@Vdp88_AR_Prism_Tower@@@@6B@ ; ScriptRegistrant<dp88_AR_Prism_Tower>::`vftable'
PUBLIC	?dp88_AR_Prism_Tower_Registrant@@3V?$ScriptRegistrant@Vdp88_AR_Prism_Tower@@@@A ; dp88_AR_Prism_Tower_Registrant
PUBLIC	??_C@_0CGM@JMPONBPF@Priority_Infantry?$DN1?40?3float?0Spla@ ; `string'
PUBLIC	??_7?$ScriptRegistrant@Vdp88_linkHealth@@@@6B@	; ScriptRegistrant<dp88_linkHealth>::`vftable'
PUBLIC	?dp88_linkHealth_Registrant@@3V?$ScriptRegistrant@Vdp88_linkHealth@@@@A ; dp88_linkHealth_Registrant
PUBLIC	??_C@_0BF@OEHKMOBH@parentObjectId?$DN0?3int?$AA@ ; `string'
PUBLIC	??_C@_0EJ@ENMBJFB@SList?$DMstruct?5MultiKeyHookScriptI@ ; `string'
PUBLIC	??_C@_0DB@DFBFLIIO@x?3?2github?2renegade?2dragonade_rxd@ ; `string'
PUBLIC	??_C@_1GC@LJHGOLFN@?$AAx?$AA?3?$AA?2?$AAg?$AAi?$AAt?$AAh?$AAu?$AAb?$AA?2?$AAr?$AAe?$AAn?$AAe?$AAg?$AAa?$AAd?$AAe?$AA?2?$AAd?$AAr?$AAa?$AAg?$AAo?$AAn?$AAa?$AAd?$AAe?$AA_?$AAr?$AAx?$AAd@ ; `string'
PUBLIC	??_C@_0EJ@OIGECPDF@SList?$DMstruct?5MultiKeyHookScriptI@ ; `string'
PUBLIC	??_C@_0EM@PPENJFKC@SList?$DMstruct?5MultiKeyHookScriptI@ ; `string'
PUBLIC	??_C@_0EH@CGJBMJBC@SList?$DMstruct?5MultiKeyHookScriptI@ ; `string'
PUBLIC	??_C@_0EL@MPFHHNNA@SList?$DMstruct?5MultiKeyHookScriptI@ ; `string'
PUBLIC	??_C@_0EO@OJGPEJGC@SList?$DMstruct?5MultiKeyHookScriptI@ ; `string'
PUBLIC	??_C@_0EN@HIHNAGN@SList?$DMstruct?5MultiKeyHookScriptI@ ; `string'
PUBLIC	??_C@_0CJ@PFIOMDDA@SList?$DMclass?5ScriptableGameObj?$DO?3?3@ ; `string'
PUBLIC	??_C@_0CJ@BJDGPFFE@SList?$DMclass?5ScriptableGameObj?$DO?3?3@ ; `string'
PUBLIC	??_C@_0CM@EIOKCJAJ@SList?$DMclass?5ScriptableGameObj?$DO?3?3@ ; `string'
PUBLIC	??_C@_0CH@MNGAMMMC@SList?$DMclass?5ScriptableGameObj?$DO?3?3@ ; `string'
PUBLIC	??_C@_0CL@NFLHONKO@SList?$DMclass?5ScriptableGameObj?$DO?3?3@ ; `string'
PUBLIC	??_C@_0CO@GGELGEEA@SList?$DMclass?5ScriptableGameObj?$DO?3?3@ ; `string'
PUBLIC	??_C@_0CN@EGDEANLB@SList?$DMclass?5ScriptableGameObj?$DO?3?3@ ; `string'
PUBLIC	??_C@_0CP@DPGAIJBN@ScriptRegistrant?$DMclass?5dp88_Ore_@ ; `string'
PUBLIC	??_C@_0DD@KMKBFFOF@x?3?2github?2renegade?2dragonade_rxd@ ; `string'
PUBLIC	??_C@_1GG@OGNLNBPD@?$AAx?$AA?3?$AA?2?$AAg?$AAi?$AAt?$AAh?$AAu?$AAb?$AA?2?$AAr?$AAe?$AAn?$AAe?$AAg?$AAa?$AAd?$AAe?$AA?2?$AAd?$AAr?$AAa?$AAg?$AAo?$AAn?$AAa?$AAd?$AAe?$AA_?$AAr?$AAx?$AAd@ ; `string'
PUBLIC	??_C@_0DF@MJPKOALH@ScriptRegistrant?$DMclass?5dp88_AR_C@ ; `string'
PUBLIC	??_C@_0EA@IKNPFBAM@ScriptRegistrant?$DMclass?5dp88_AR_C@ ; `string'
PUBLIC	??_C@_0CP@NNLHKEFJ@ScriptRegistrant?$DMclass?5dp88_Ore_@ ; `string'
PUBLIC	??_C@_0DD@GNEKOMJM@ScriptRegistrant?$DMclass?5dp88_Ore_@ ; `string'
PUBLIC	??_C@_0DD@NDLGBNOC@ScriptRegistrant?$DMclass?5dp88_Ore_@ ; `string'
PUBLIC	??_C@_0DB@FOECPKBO@ScriptRegistrant?$DMclass?5dp88_AR_P@ ; `string'
PUBLIC	??_C@_0DH@POLJMOBC@ScriptRegistrant?$DMclass?5dp88_AR_G@ ; `string'
PUBLIC	??_C@_0DM@NNLNBAKJ@ScriptRegistrant?$DMclass?5dp88_AR_D@ ; `string'
PUBLIC	??_C@_0CN@HLMLBKJE@ScriptRegistrant?$DMclass?5dp88_AR_C@ ; `string'
PUBLIC	??_C@_0DE@OLPOCJLH@ScriptRegistrant?$DMclass?5dp88_AR_C@ ; `string'
PUBLIC	??_C@_0DK@POENDPMO@ScriptRegistrant?$DMclass?5dp88_Airc@ ; `string'
PUBLIC	??_C@_0ED@OKCGICOM@ScriptRegistrant?$DMclass?5dp88_Airc@ ; `string'
PUBLIC	??_C@_0DK@CMOOKAPN@ScriptRegistrant?$DMclass?5dp88_Remo@ ; `string'
PUBLIC	??_C@_0DK@DHGHOENO@ScriptRegistrant?$DMclass?5dp88_Remo@ ; `string'
PUBLIC	??_C@_0DC@PHAIAMPP@ScriptRegistrant?$DMclass?5dp88_AR_D@ ; `string'
PUBLIC	??_C@_0DJ@DKFLFAOF@ScriptRegistrant?$DMclass?5dp88_AR_p@ ; `string'
PUBLIC	??_C@_0DE@FEDGAINI@ScriptRegistrant?$DMclass?5dp88_AR_P@ ; `string'
PUBLIC	??_C@_0DA@HEHFNHDG@ScriptRegistrant?$DMclass?5dp88_link@ ; `string'
PUBLIC	?instancex@?1??getInstance@?$Singleton@V?$ObjectPoolClass@VGenericSLNode@@$0BAA@@@@@SAAAV?$ObjectPoolClass@VGenericSLNode@@$0BAA@@@XZ@4V3@A ; `Singleton<ObjectPoolClass<GenericSLNode,256> >::getInstance'::`2'::instancex
PUBLIC	??_B?1??getInstance@?$Singleton@V?$ObjectPoolClass@VGenericSLNode@@$0BAA@@@@@SAAAV?$ObjectPoolClass@VGenericSLNode@@$0BAA@@@XZ@51 ; `Singleton<ObjectPoolClass<GenericSLNode,256> >::getInstance'::`2'::`local static guard'
PUBLIC	??_C@_0EB@IOGKEECK@ObjectPoolClass?$DMclass?5GenericSLN@ ; `string'
PUBLIC	??_C@_0FF@NOANHENP@?$CFd?5memory?5leaks?5found?5in?5ObjectP@ ; `string'
PUBLIC	??_C@_0DL@BOENBDGI@ObjectPoolClass?$DMclass?5GenericSLN@ ; `string'
PUBLIC	??_R4ScriptFactory@@6B@				; ScriptFactory::`RTTI Complete Object Locator'
PUBLIC	??_R0?AVScriptFactory@@@8			; ScriptFactory `RTTI Type Descriptor'
PUBLIC	??_R3ScriptFactory@@8				; ScriptFactory::`RTTI Class Hierarchy Descriptor'
PUBLIC	??_R2ScriptFactory@@8				; ScriptFactory::`RTTI Base Class Array'
PUBLIC	??_R1A@?0A@EA@ScriptFactory@@8			; ScriptFactory::`RTTI Base Class Descriptor at (0,-1,0,64)'
PUBLIC	??_R4ScriptClass@@6B@				; ScriptClass::`RTTI Complete Object Locator'
PUBLIC	??_R0?AVScriptClass@@@8				; ScriptClass `RTTI Type Descriptor'
PUBLIC	??_R3ScriptClass@@8				; ScriptClass::`RTTI Class Hierarchy Descriptor'
PUBLIC	??_R2ScriptClass@@8				; ScriptClass::`RTTI Base Class Array'
PUBLIC	??_R1A@?0A@EA@ScriptClass@@8			; ScriptClass::`RTTI Base Class Descriptor at (0,-1,0,64)'
PUBLIC	??_R1A@?0A@EA@GameObjObserverClass@@8		; GameObjObserverClass::`RTTI Base Class Descriptor at (0,-1,0,64)'
PUBLIC	??_R0?AVGameObjObserverClass@@@8		; GameObjObserverClass `RTTI Type Descriptor'
PUBLIC	??_R3GameObjObserverClass@@8			; GameObjObserverClass::`RTTI Class Hierarchy Descriptor'
PUBLIC	??_R2GameObjObserverClass@@8			; GameObjObserverClass::`RTTI Base Class Array'
PUBLIC	??_R4GameObjObserverClass@@6B@			; GameObjObserverClass::`RTTI Complete Object Locator'
PUBLIC	??_R4ScriptImpClass@@6B@			; ScriptImpClass::`RTTI Complete Object Locator'
PUBLIC	??_R0?AVScriptImpClass@@@8			; ScriptImpClass `RTTI Type Descriptor'
PUBLIC	??_R3ScriptImpClass@@8				; ScriptImpClass::`RTTI Class Hierarchy Descriptor'
PUBLIC	??_R2ScriptImpClass@@8				; ScriptImpClass::`RTTI Base Class Array'
PUBLIC	??_R1A@?0A@EA@ScriptImpClass@@8			; ScriptImpClass::`RTTI Base Class Descriptor at (0,-1,0,64)'
PUBLIC	??_R4ThreadClass@@6B@				; ThreadClass::`RTTI Complete Object Locator'
PUBLIC	??_R0?AVThreadClass@@@8				; ThreadClass `RTTI Type Descriptor'
PUBLIC	??_R3ThreadClass@@8				; ThreadClass::`RTTI Class Hierarchy Descriptor'
PUBLIC	??_R2ThreadClass@@8				; ThreadClass::`RTTI Base Class Array'
PUBLIC	??_R1A@?0A@EA@ThreadClass@@8			; ThreadClass::`RTTI Base Class Descriptor at (0,-1,0,64)'
PUBLIC	??_R4INIClass@@6B@				; INIClass::`RTTI Complete Object Locator'
PUBLIC	??_R0?AVINIClass@@@8				; INIClass `RTTI Type Descriptor'
PUBLIC	??_R3INIClass@@8				; INIClass::`RTTI Class Hierarchy Descriptor'
PUBLIC	??_R2INIClass@@8				; INIClass::`RTTI Base Class Array'
PUBLIC	??_R1A@?0A@EA@INIClass@@8			; INIClass::`RTTI Base Class Descriptor at (0,-1,0,64)'
PUBLIC	??_R1A@?0A@EA@PostLoadableClass@@8		; PostLoadableClass::`RTTI Base Class Descriptor at (0,-1,0,64)'
PUBLIC	??_R0?AVPostLoadableClass@@@8			; PostLoadableClass `RTTI Type Descriptor'
PUBLIC	??_R3PostLoadableClass@@8			; PostLoadableClass::`RTTI Class Hierarchy Descriptor'
PUBLIC	??_R2PostLoadableClass@@8			; PostLoadableClass::`RTTI Base Class Array'
PUBLIC	??_R4PostLoadableClass@@6B@			; PostLoadableClass::`RTTI Complete Object Locator'
PUBLIC	??_R4ReferencerClass@@6B@			; ReferencerClass::`RTTI Complete Object Locator'
PUBLIC	??_R0?AVReferencerClass@@@8			; ReferencerClass `RTTI Type Descriptor'
PUBLIC	??_R3ReferencerClass@@8				; ReferencerClass::`RTTI Class Hierarchy Descriptor'
PUBLIC	??_R2ReferencerClass@@8				; ReferencerClass::`RTTI Base Class Array'
PUBLIC	??_R1A@?0A@EA@ReferencerClass@@8		; ReferencerClass::`RTTI Base Class Descriptor at (0,-1,0,64)'
PUBLIC	??_R4?$SList@VScriptableGameObj@@@@6B@		; SList<ScriptableGameObj>::`RTTI Complete Object Locator'
PUBLIC	??_R0?AV?$SList@VScriptableGameObj@@@@@8	; SList<ScriptableGameObj> `RTTI Type Descriptor'
PUBLIC	??_R3?$SList@VScriptableGameObj@@@@8		; SList<ScriptableGameObj>::`RTTI Class Hierarchy Descriptor'
PUBLIC	??_R2?$SList@VScriptableGameObj@@@@8		; SList<ScriptableGameObj>::`RTTI Base Class Array'
PUBLIC	??_R1A@?0A@EA@?$SList@VScriptableGameObj@@@@8	; SList<ScriptableGameObj>::`RTTI Base Class Descriptor at (0,-1,0,64)'
PUBLIC	??_R4JFW_Key_Hook_Base@@6B@			; JFW_Key_Hook_Base::`RTTI Complete Object Locator'
PUBLIC	??_R0?AVJFW_Key_Hook_Base@@@8			; JFW_Key_Hook_Base `RTTI Type Descriptor'
PUBLIC	??_R3JFW_Key_Hook_Base@@8			; JFW_Key_Hook_Base::`RTTI Class Hierarchy Descriptor'
PUBLIC	??_R2JFW_Key_Hook_Base@@8			; JFW_Key_Hook_Base::`RTTI Base Class Array'
PUBLIC	??_R1A@?0A@EA@JFW_Key_Hook_Base@@8		; JFW_Key_Hook_Base::`RTTI Base Class Descriptor at (0,-1,0,64)'
PUBLIC	??_R4MultiKeyHookScriptImpClass@@6B@		; MultiKeyHookScriptImpClass::`RTTI Complete Object Locator'
PUBLIC	??_R0?AVMultiKeyHookScriptImpClass@@@8		; MultiKeyHookScriptImpClass `RTTI Type Descriptor'
PUBLIC	??_R3MultiKeyHookScriptImpClass@@8		; MultiKeyHookScriptImpClass::`RTTI Class Hierarchy Descriptor'
PUBLIC	??_R2MultiKeyHookScriptImpClass@@8		; MultiKeyHookScriptImpClass::`RTTI Base Class Array'
PUBLIC	??_R1A@?0A@EA@MultiKeyHookScriptImpClass@@8	; MultiKeyHookScriptImpClass::`RTTI Base Class Descriptor at (0,-1,0,64)'
PUBLIC	??_R4?$SList@UKeyHookWrapperStruct@MultiKeyHookScriptImpClass@@@@6B@ ; SList<MultiKeyHookScriptImpClass::KeyHookWrapperStruct>::`RTTI Complete Object Locator'
PUBLIC	??_R0?AV?$SList@UKeyHookWrapperStruct@MultiKeyHookScriptImpClass@@@@@8 ; SList<MultiKeyHookScriptImpClass::KeyHookWrapperStruct> `RTTI Type Descriptor'
PUBLIC	??_R3?$SList@UKeyHookWrapperStruct@MultiKeyHookScriptImpClass@@@@8 ; SList<MultiKeyHookScriptImpClass::KeyHookWrapperStruct>::`RTTI Class Hierarchy Descriptor'
PUBLIC	??_R2?$SList@UKeyHookWrapperStruct@MultiKeyHookScriptImpClass@@@@8 ; SList<MultiKeyHookScriptImpClass::KeyHookWrapperStruct>::`RTTI Base Class Array'
PUBLIC	??_R1A@?0A@EA@?$SList@UKeyHookWrapperStruct@MultiKeyHookScriptImpClass@@@@8 ; SList<MultiKeyHookScriptImpClass::KeyHookWrapperStruct>::`RTTI Base Class Descriptor at (0,-1,0,64)'
PUBLIC	??_R4JFW_Object_Created_Hook_Base@@6B@		; JFW_Object_Created_Hook_Base::`RTTI Complete Object Locator'
PUBLIC	??_R0?AVJFW_Object_Created_Hook_Base@@@8	; JFW_Object_Created_Hook_Base `RTTI Type Descriptor'
PUBLIC	??_R3JFW_Object_Created_Hook_Base@@8		; JFW_Object_Created_Hook_Base::`RTTI Class Hierarchy Descriptor'
PUBLIC	??_R2JFW_Object_Created_Hook_Base@@8		; JFW_Object_Created_Hook_Base::`RTTI Base Class Array'
PUBLIC	??_R1A@?0A@EA@JFW_Object_Created_Hook_Base@@8	; JFW_Object_Created_Hook_Base::`RTTI Base Class Descriptor at (0,-1,0,64)'
PUBLIC	??_R4dp88_customAI@@6B@				; dp88_customAI::`RTTI Complete Object Locator'
PUBLIC	??_R0?AVdp88_customAI@@@8			; dp88_customAI `RTTI Type Descriptor'
PUBLIC	??_R3dp88_customAI@@8				; dp88_customAI::`RTTI Class Hierarchy Descriptor'
PUBLIC	??_R2dp88_customAI@@8				; dp88_customAI::`RTTI Base Class Array'
PUBLIC	??_R1A@?0A@EA@dp88_customAI@@8			; dp88_customAI::`RTTI Base Class Descriptor at (0,-1,0,64)'
PUBLIC	??_R4dp88_AI_Turret@@6B@			; dp88_AI_Turret::`RTTI Complete Object Locator'
PUBLIC	??_R0?AVdp88_AI_Turret@@@8			; dp88_AI_Turret `RTTI Type Descriptor'
PUBLIC	??_R3dp88_AI_Turret@@8				; dp88_AI_Turret::`RTTI Class Hierarchy Descriptor'
PUBLIC	??_R2dp88_AI_Turret@@8				; dp88_AI_Turret::`RTTI Base Class Array'
PUBLIC	??_R1A@?0A@EA@dp88_AI_Turret@@8			; dp88_AI_Turret::`RTTI Base Class Descriptor at (0,-1,0,64)'
PUBLIC	??_R4dp88_AI_ChargedTurret@@6B@			; dp88_AI_ChargedTurret::`RTTI Complete Object Locator'
PUBLIC	??_R0?AVdp88_AI_ChargedTurret@@@8		; dp88_AI_ChargedTurret `RTTI Type Descriptor'
PUBLIC	??_R3dp88_AI_ChargedTurret@@8			; dp88_AI_ChargedTurret::`RTTI Class Hierarchy Descriptor'
PUBLIC	??_R2dp88_AI_ChargedTurret@@8			; dp88_AI_ChargedTurret::`RTTI Base Class Array'
PUBLIC	??_R1A@?0A@EA@dp88_AI_ChargedTurret@@8		; dp88_AI_ChargedTurret::`RTTI Base Class Descriptor at (0,-1,0,64)'
PUBLIC	??_R4dp88_Camo_Controller@@6B@			; dp88_Camo_Controller::`RTTI Complete Object Locator'
PUBLIC	??_R0?AVdp88_Camo_Controller@@@8		; dp88_Camo_Controller `RTTI Type Descriptor'
PUBLIC	??_R3dp88_Camo_Controller@@8			; dp88_Camo_Controller::`RTTI Class Hierarchy Descriptor'
PUBLIC	??_R2dp88_Camo_Controller@@8			; dp88_Camo_Controller::`RTTI Base Class Array'
PUBLIC	??_R1A@?0A@EA@dp88_Camo_Controller@@8		; dp88_Camo_Controller::`RTTI Base Class Descriptor at (0,-1,0,64)'
PUBLIC	??_R4dp88_AR_GameController@@6B@		; dp88_AR_GameController::`RTTI Complete Object Locator'
PUBLIC	??_R0?AVdp88_AR_GameController@@@8		; dp88_AR_GameController `RTTI Type Descriptor'
PUBLIC	??_R3dp88_AR_GameController@@8			; dp88_AR_GameController::`RTTI Class Hierarchy Descriptor'
PUBLIC	??_R2dp88_AR_GameController@@8			; dp88_AR_GameController::`RTTI Base Class Array'
PUBLIC	??_R1A@?0A@EA@dp88_AR_GameController@@8		; dp88_AR_GameController::`RTTI Base Class Descriptor at (0,-1,0,64)'
PUBLIC	??_R4dp88_AR_Deployable_Infantry@@6B@		; dp88_AR_Deployable_Infantry::`RTTI Complete Object Locator'
PUBLIC	??_R0?AVdp88_AR_Deployable_Infantry@@@8		; dp88_AR_Deployable_Infantry `RTTI Type Descriptor'
PUBLIC	??_R3dp88_AR_Deployable_Infantry@@8		; dp88_AR_Deployable_Infantry::`RTTI Class Hierarchy Descriptor'
PUBLIC	??_R2dp88_AR_Deployable_Infantry@@8		; dp88_AR_Deployable_Infantry::`RTTI Base Class Array'
PUBLIC	??_R1A@?0A@EA@dp88_AR_Deployable_Infantry@@8	; dp88_AR_Deployable_Infantry::`RTTI Base Class Descriptor at (0,-1,0,64)'
PUBLIC	??_R4dp88_AR_CLEG@@6B@				; dp88_AR_CLEG::`RTTI Complete Object Locator'
PUBLIC	??_R0?AVdp88_AR_CLEG@@@8			; dp88_AR_CLEG `RTTI Type Descriptor'
PUBLIC	??_R3dp88_AR_CLEG@@8				; dp88_AR_CLEG::`RTTI Class Hierarchy Descriptor'
PUBLIC	??_R2dp88_AR_CLEG@@8				; dp88_AR_CLEG::`RTTI Base Class Array'
PUBLIC	??_R1A@?0A@EA@dp88_AR_CLEG@@8			; dp88_AR_CLEG::`RTTI Base Class Descriptor at (0,-1,0,64)'
PUBLIC	??_R4dp88_AR_CLEG_target@@6B@			; dp88_AR_CLEG_target::`RTTI Complete Object Locator'
PUBLIC	??_R0?AVdp88_AR_CLEG_target@@@8			; dp88_AR_CLEG_target `RTTI Type Descriptor'
PUBLIC	??_R3dp88_AR_CLEG_target@@8			; dp88_AR_CLEG_target::`RTTI Class Hierarchy Descriptor'
PUBLIC	??_R2dp88_AR_CLEG_target@@8			; dp88_AR_CLEG_target::`RTTI Base Class Array'
PUBLIC	??_R1A@?0A@EA@dp88_AR_CLEG_target@@8		; dp88_AR_CLEG_target::`RTTI Base Class Descriptor at (0,-1,0,64)'
PUBLIC	??_R4dp88_Ore_Miner@@6B@			; dp88_Ore_Miner::`RTTI Complete Object Locator'
PUBLIC	??_R0?AVdp88_Ore_Miner@@@8			; dp88_Ore_Miner `RTTI Type Descriptor'
PUBLIC	??_R3dp88_Ore_Miner@@8				; dp88_Ore_Miner::`RTTI Class Hierarchy Descriptor'
PUBLIC	??_R2dp88_Ore_Miner@@8				; dp88_Ore_Miner::`RTTI Base Class Array'
PUBLIC	??_R1A@?0A@EA@dp88_Ore_Miner@@8			; dp88_Ore_Miner::`RTTI Base Class Descriptor at (0,-1,0,64)'
PUBLIC	??_R4dp88_AR_Chrono_Miner@@6B@			; dp88_AR_Chrono_Miner::`RTTI Complete Object Locator'
PUBLIC	??_R0?AVdp88_AR_Chrono_Miner@@@8		; dp88_AR_Chrono_Miner `RTTI Type Descriptor'
PUBLIC	??_R3dp88_AR_Chrono_Miner@@8			; dp88_AR_Chrono_Miner::`RTTI Class Hierarchy Descriptor'
PUBLIC	??_R2dp88_AR_Chrono_Miner@@8			; dp88_AR_Chrono_Miner::`RTTI Base Class Array'
PUBLIC	??_R1A@?0A@EA@dp88_AR_Chrono_Miner@@8		; dp88_AR_Chrono_Miner::`RTTI Base Class Descriptor at (0,-1,0,64)'
PUBLIC	??_R4dp88_AR_Chrono_Miner_Chronozone@@6B@	; dp88_AR_Chrono_Miner_Chronozone::`RTTI Complete Object Locator'
PUBLIC	??_R0?AVdp88_AR_Chrono_Miner_Chronozone@@@8	; dp88_AR_Chrono_Miner_Chronozone `RTTI Type Descriptor'
PUBLIC	??_R3dp88_AR_Chrono_Miner_Chronozone@@8		; dp88_AR_Chrono_Miner_Chronozone::`RTTI Class Hierarchy Descriptor'
PUBLIC	??_R2dp88_AR_Chrono_Miner_Chronozone@@8		; dp88_AR_Chrono_Miner_Chronozone::`RTTI Base Class Array'
PUBLIC	??_R1A@?0A@EA@dp88_AR_Chrono_Miner_Chronozone@@8 ; dp88_AR_Chrono_Miner_Chronozone::`RTTI Base Class Descriptor at (0,-1,0,64)'
PUBLIC	??_R4dp88_Ore_Field@@6B@			; dp88_Ore_Field::`RTTI Complete Object Locator'
PUBLIC	??_R0?AVdp88_Ore_Field@@@8			; dp88_Ore_Field `RTTI Type Descriptor'
PUBLIC	??_R3dp88_Ore_Field@@8				; dp88_Ore_Field::`RTTI Class Hierarchy Descriptor'
PUBLIC	??_R2dp88_Ore_Field@@8				; dp88_Ore_Field::`RTTI Base Class Array'
PUBLIC	??_R1A@?0A@EA@dp88_Ore_Field@@8			; dp88_Ore_Field::`RTTI Base Class Descriptor at (0,-1,0,64)'
PUBLIC	??_R4dp88_Ore_Field_Observer@dp88_Ore_Field@@6B@ ; dp88_Ore_Field::dp88_Ore_Field_Observer::`RTTI Complete Object Locator'
PUBLIC	??_R0?AVdp88_Ore_Field_Observer@dp88_Ore_Field@@@8 ; dp88_Ore_Field::dp88_Ore_Field_Observer `RTTI Type Descriptor'
PUBLIC	??_R3dp88_Ore_Field_Observer@dp88_Ore_Field@@8	; dp88_Ore_Field::dp88_Ore_Field_Observer::`RTTI Class Hierarchy Descriptor'
PUBLIC	??_R2dp88_Ore_Field_Observer@dp88_Ore_Field@@8	; dp88_Ore_Field::dp88_Ore_Field_Observer::`RTTI Base Class Array'
PUBLIC	??_R1A@?0A@EA@dp88_Ore_Field_Observer@dp88_Ore_Field@@8 ; dp88_Ore_Field::dp88_Ore_Field_Observer::`RTTI Base Class Descriptor at (0,-1,0,64)'
PUBLIC	??_R4dp88_Ore_Extractor@@6B@			; dp88_Ore_Extractor::`RTTI Complete Object Locator'
PUBLIC	??_R0?AVdp88_Ore_Extractor@@@8			; dp88_Ore_Extractor `RTTI Type Descriptor'
PUBLIC	??_R3dp88_Ore_Extractor@@8			; dp88_Ore_Extractor::`RTTI Class Hierarchy Descriptor'
PUBLIC	??_R2dp88_Ore_Extractor@@8			; dp88_Ore_Extractor::`RTTI Base Class Array'
PUBLIC	??_R1A@?0A@EA@dp88_Ore_Extractor@@8		; dp88_Ore_Extractor::`RTTI Base Class Descriptor at (0,-1,0,64)'
PUBLIC	??_R4dp88_Ore_Dump_Zone@@6B@			; dp88_Ore_Dump_Zone::`RTTI Complete Object Locator'
PUBLIC	??_R0?AVdp88_Ore_Dump_Zone@@@8			; dp88_Ore_Dump_Zone `RTTI Type Descriptor'
PUBLIC	??_R3dp88_Ore_Dump_Zone@@8			; dp88_Ore_Dump_Zone::`RTTI Class Hierarchy Descriptor'
PUBLIC	??_R2dp88_Ore_Dump_Zone@@8			; dp88_Ore_Dump_Zone::`RTTI Base Class Array'
PUBLIC	??_R1A@?0A@EA@dp88_Ore_Dump_Zone@@8		; dp88_Ore_Dump_Zone::`RTTI Base Class Descriptor at (0,-1,0,64)'
PUBLIC	??_R4dp88_Aircraft_LandingZone@@6B@		; dp88_Aircraft_LandingZone::`RTTI Complete Object Locator'
PUBLIC	??_R0?AVdp88_Aircraft_LandingZone@@@8		; dp88_Aircraft_LandingZone `RTTI Type Descriptor'
PUBLIC	??_R3dp88_Aircraft_LandingZone@@8		; dp88_Aircraft_LandingZone::`RTTI Class Hierarchy Descriptor'
PUBLIC	??_R2dp88_Aircraft_LandingZone@@8		; dp88_Aircraft_LandingZone::`RTTI Base Class Array'
PUBLIC	??_R1A@?0A@EA@dp88_Aircraft_LandingZone@@8	; dp88_Aircraft_LandingZone::`RTTI Base Class Descriptor at (0,-1,0,64)'
PUBLIC	??_R4dp88_Aircraft_LandingZone_Aircraft@@6B@	; dp88_Aircraft_LandingZone_Aircraft::`RTTI Complete Object Locator'
PUBLIC	??_R0?AVdp88_Aircraft_LandingZone_Aircraft@@@8	; dp88_Aircraft_LandingZone_Aircraft `RTTI Type Descriptor'
PUBLIC	??_R3dp88_Aircraft_LandingZone_Aircraft@@8	; dp88_Aircraft_LandingZone_Aircraft::`RTTI Class Hierarchy Descriptor'
PUBLIC	??_R2dp88_Aircraft_LandingZone_Aircraft@@8	; dp88_Aircraft_LandingZone_Aircraft::`RTTI Base Class Array'
PUBLIC	??_R1A@?0A@EA@dp88_Aircraft_LandingZone_Aircraft@@8 ; dp88_Aircraft_LandingZone_Aircraft::`RTTI Base Class Descriptor at (0,-1,0,64)'
PUBLIC	??_R4dp88_RemoteControlConsole@@6B@		; dp88_RemoteControlConsole::`RTTI Complete Object Locator'
PUBLIC	??_R0?AVdp88_RemoteControlConsole@@@8		; dp88_RemoteControlConsole `RTTI Type Descriptor'
PUBLIC	??_R3dp88_RemoteControlConsole@@8		; dp88_RemoteControlConsole::`RTTI Class Hierarchy Descriptor'
PUBLIC	??_R2dp88_RemoteControlConsole@@8		; dp88_RemoteControlConsole::`RTTI Base Class Array'
PUBLIC	??_R1A@?0A@EA@dp88_RemoteControlConsole@@8	; dp88_RemoteControlConsole::`RTTI Base Class Descriptor at (0,-1,0,64)'
PUBLIC	??_R4dp88_RemoteControlVehicle@@6B@		; dp88_RemoteControlVehicle::`RTTI Complete Object Locator'
PUBLIC	??_R0?AVdp88_RemoteControlVehicle@@@8		; dp88_RemoteControlVehicle `RTTI Type Descriptor'
PUBLIC	??_R3dp88_RemoteControlVehicle@@8		; dp88_RemoteControlVehicle::`RTTI Class Hierarchy Descriptor'
PUBLIC	??_R2dp88_RemoteControlVehicle@@8		; dp88_RemoteControlVehicle::`RTTI Base Class Array'
PUBLIC	??_R1A@?0A@EA@dp88_RemoteControlVehicle@@8	; dp88_RemoteControlVehicle::`RTTI Base Class Descriptor at (0,-1,0,64)'
PUBLIC	??_R4dp88_AR_DemoTruck@@6B@			; dp88_AR_DemoTruck::`RTTI Complete Object Locator'
PUBLIC	??_R0?AVdp88_AR_DemoTruck@@@8			; dp88_AR_DemoTruck `RTTI Type Descriptor'
PUBLIC	??_R3dp88_AR_DemoTruck@@8			; dp88_AR_DemoTruck::`RTTI Class Hierarchy Descriptor'
PUBLIC	??_R2dp88_AR_DemoTruck@@8			; dp88_AR_DemoTruck::`RTTI Base Class Array'
PUBLIC	??_R1A@?0A@EA@dp88_AR_DemoTruck@@8		; dp88_AR_DemoTruck::`RTTI Base Class Descriptor at (0,-1,0,64)'
PUBLIC	??_R4dp88_AR_paradrop_Console@@6B@		; dp88_AR_paradrop_Console::`RTTI Complete Object Locator'
PUBLIC	??_R0?AVdp88_AR_paradrop_Console@@@8		; dp88_AR_paradrop_Console `RTTI Type Descriptor'
PUBLIC	??_R3dp88_AR_paradrop_Console@@8		; dp88_AR_paradrop_Console::`RTTI Class Hierarchy Descriptor'
PUBLIC	??_R2dp88_AR_paradrop_Console@@8		; dp88_AR_paradrop_Console::`RTTI Base Class Array'
PUBLIC	??_R1A@?0A@EA@dp88_AR_paradrop_Console@@8	; dp88_AR_paradrop_Console::`RTTI Base Class Descriptor at (0,-1,0,64)'
PUBLIC	??_R4dp88_AR_Paradrop@@6B@			; dp88_AR_Paradrop::`RTTI Complete Object Locator'
PUBLIC	??_R0?AVdp88_AR_Paradrop@@@8			; dp88_AR_Paradrop `RTTI Type Descriptor'
PUBLIC	??_R3dp88_AR_Paradrop@@8			; dp88_AR_Paradrop::`RTTI Class Hierarchy Descriptor'
PUBLIC	??_R2dp88_AR_Paradrop@@8			; dp88_AR_Paradrop::`RTTI Base Class Array'
PUBLIC	??_R1A@?0A@EA@dp88_AR_Paradrop@@8		; dp88_AR_Paradrop::`RTTI Base Class Descriptor at (0,-1,0,64)'
PUBLIC	??_R4dp88_AR_Prism_Tower@@6B@			; dp88_AR_Prism_Tower::`RTTI Complete Object Locator'
PUBLIC	??_R0?AVdp88_AR_Prism_Tower@@@8			; dp88_AR_Prism_Tower `RTTI Type Descriptor'
PUBLIC	??_R3dp88_AR_Prism_Tower@@8			; dp88_AR_Prism_Tower::`RTTI Class Hierarchy Descriptor'
PUBLIC	??_R2dp88_AR_Prism_Tower@@8			; dp88_AR_Prism_Tower::`RTTI Base Class Array'
PUBLIC	??_R1A@?0A@EA@dp88_AR_Prism_Tower@@8		; dp88_AR_Prism_Tower::`RTTI Base Class Descriptor at (0,-1,0,64)'
PUBLIC	??_R4dp88_linkHealth@@6B@			; dp88_linkHealth::`RTTI Complete Object Locator'
PUBLIC	??_R0?AVdp88_linkHealth@@@8			; dp88_linkHealth `RTTI Type Descriptor'
PUBLIC	??_R3dp88_linkHealth@@8				; dp88_linkHealth::`RTTI Class Hierarchy Descriptor'
PUBLIC	??_R2dp88_linkHealth@@8				; dp88_linkHealth::`RTTI Base Class Array'
PUBLIC	??_R1A@?0A@EA@dp88_linkHealth@@8		; dp88_linkHealth::`RTTI Base Class Descriptor at (0,-1,0,64)'
PUBLIC	??_R4?$ScriptRegistrant@Vdp88_Ore_Miner@@@@6B@	; ScriptRegistrant<dp88_Ore_Miner>::`RTTI Complete Object Locator'
PUBLIC	??_R0?AV?$ScriptRegistrant@Vdp88_Ore_Miner@@@@@8 ; ScriptRegistrant<dp88_Ore_Miner> `RTTI Type Descriptor'
PUBLIC	??_R3?$ScriptRegistrant@Vdp88_Ore_Miner@@@@8	; ScriptRegistrant<dp88_Ore_Miner>::`RTTI Class Hierarchy Descriptor'
PUBLIC	??_R2?$ScriptRegistrant@Vdp88_Ore_Miner@@@@8	; ScriptRegistrant<dp88_Ore_Miner>::`RTTI Base Class Array'
PUBLIC	??_R1A@?0A@EA@?$ScriptRegistrant@Vdp88_Ore_Miner@@@@8 ; ScriptRegistrant<dp88_Ore_Miner>::`RTTI Base Class Descriptor at (0,-1,0,64)'
PUBLIC	??_R4?$ScriptRegistrant@Vdp88_AR_Chrono_Miner@@@@6B@ ; ScriptRegistrant<dp88_AR_Chrono_Miner>::`RTTI Complete Object Locator'
PUBLIC	??_R0?AV?$ScriptRegistrant@Vdp88_AR_Chrono_Miner@@@@@8 ; ScriptRegistrant<dp88_AR_Chrono_Miner> `RTTI Type Descriptor'
PUBLIC	??_R3?$ScriptRegistrant@Vdp88_AR_Chrono_Miner@@@@8 ; ScriptRegistrant<dp88_AR_Chrono_Miner>::`RTTI Class Hierarchy Descriptor'
PUBLIC	??_R2?$ScriptRegistrant@Vdp88_AR_Chrono_Miner@@@@8 ; ScriptRegistrant<dp88_AR_Chrono_Miner>::`RTTI Base Class Array'
PUBLIC	??_R1A@?0A@EA@?$ScriptRegistrant@Vdp88_AR_Chrono_Miner@@@@8 ; ScriptRegistrant<dp88_AR_Chrono_Miner>::`RTTI Base Class Descriptor at (0,-1,0,64)'
PUBLIC	??_R4?$ScriptRegistrant@Vdp88_AR_Chrono_Miner_Chronozone@@@@6B@ ; ScriptRegistrant<dp88_AR_Chrono_Miner_Chronozone>::`RTTI Complete Object Locator'
PUBLIC	??_R0?AV?$ScriptRegistrant@Vdp88_AR_Chrono_Miner_Chronozone@@@@@8 ; ScriptRegistrant<dp88_AR_Chrono_Miner_Chronozone> `RTTI Type Descriptor'
PUBLIC	??_R3?$ScriptRegistrant@Vdp88_AR_Chrono_Miner_Chronozone@@@@8 ; ScriptRegistrant<dp88_AR_Chrono_Miner_Chronozone>::`RTTI Class Hierarchy Descriptor'
PUBLIC	??_R2?$ScriptRegistrant@Vdp88_AR_Chrono_Miner_Chronozone@@@@8 ; ScriptRegistrant<dp88_AR_Chrono_Miner_Chronozone>::`RTTI Base Class Array'
PUBLIC	??_R1A@?0A@EA@?$ScriptRegistrant@Vdp88_AR_Chrono_Miner_Chronozone@@@@8 ; ScriptRegistrant<dp88_AR_Chrono_Miner_Chronozone>::`RTTI Base Class Descriptor at (0,-1,0,64)'
PUBLIC	??_R4?$ScriptRegistrant@Vdp88_Ore_Field@@@@6B@	; ScriptRegistrant<dp88_Ore_Field>::`RTTI Complete Object Locator'
PUBLIC	??_R0?AV?$ScriptRegistrant@Vdp88_Ore_Field@@@@@8 ; ScriptRegistrant<dp88_Ore_Field> `RTTI Type Descriptor'
PUBLIC	??_R3?$ScriptRegistrant@Vdp88_Ore_Field@@@@8	; ScriptRegistrant<dp88_Ore_Field>::`RTTI Class Hierarchy Descriptor'
PUBLIC	??_R2?$ScriptRegistrant@Vdp88_Ore_Field@@@@8	; ScriptRegistrant<dp88_Ore_Field>::`RTTI Base Class Array'
PUBLIC	??_R1A@?0A@EA@?$ScriptRegistrant@Vdp88_Ore_Field@@@@8 ; ScriptRegistrant<dp88_Ore_Field>::`RTTI Base Class Descriptor at (0,-1,0,64)'
PUBLIC	??_R4?$ScriptRegistrant@Vdp88_Ore_Extractor@@@@6B@ ; ScriptRegistrant<dp88_Ore_Extractor>::`RTTI Complete Object Locator'
PUBLIC	??_R0?AV?$ScriptRegistrant@Vdp88_Ore_Extractor@@@@@8 ; ScriptRegistrant<dp88_Ore_Extractor> `RTTI Type Descriptor'
PUBLIC	??_R3?$ScriptRegistrant@Vdp88_Ore_Extractor@@@@8 ; ScriptRegistrant<dp88_Ore_Extractor>::`RTTI Class Hierarchy Descriptor'
PUBLIC	??_R2?$ScriptRegistrant@Vdp88_Ore_Extractor@@@@8 ; ScriptRegistrant<dp88_Ore_Extractor>::`RTTI Base Class Array'
PUBLIC	??_R1A@?0A@EA@?$ScriptRegistrant@Vdp88_Ore_Extractor@@@@8 ; ScriptRegistrant<dp88_Ore_Extractor>::`RTTI Base Class Descriptor at (0,-1,0,64)'
PUBLIC	??_R4?$ScriptRegistrant@Vdp88_Ore_Dump_Zone@@@@6B@ ; ScriptRegistrant<dp88_Ore_Dump_Zone>::`RTTI Complete Object Locator'
PUBLIC	??_R0?AV?$ScriptRegistrant@Vdp88_Ore_Dump_Zone@@@@@8 ; ScriptRegistrant<dp88_Ore_Dump_Zone> `RTTI Type Descriptor'
PUBLIC	??_R3?$ScriptRegistrant@Vdp88_Ore_Dump_Zone@@@@8 ; ScriptRegistrant<dp88_Ore_Dump_Zone>::`RTTI Class Hierarchy Descriptor'
PUBLIC	??_R2?$ScriptRegistrant@Vdp88_Ore_Dump_Zone@@@@8 ; ScriptRegistrant<dp88_Ore_Dump_Zone>::`RTTI Base Class Array'
PUBLIC	??_R1A@?0A@EA@?$ScriptRegistrant@Vdp88_Ore_Dump_Zone@@@@8 ; ScriptRegistrant<dp88_Ore_Dump_Zone>::`RTTI Base Class Descriptor at (0,-1,0,64)'
PUBLIC	??_R4?$ScriptRegistrant@Vdp88_AR_Paradrop@@@@6B@ ; ScriptRegistrant<dp88_AR_Paradrop>::`RTTI Complete Object Locator'
PUBLIC	??_R0?AV?$ScriptRegistrant@Vdp88_AR_Paradrop@@@@@8 ; ScriptRegistrant<dp88_AR_Paradrop> `RTTI Type Descriptor'
PUBLIC	??_R3?$ScriptRegistrant@Vdp88_AR_Paradrop@@@@8	; ScriptRegistrant<dp88_AR_Paradrop>::`RTTI Class Hierarchy Descriptor'
PUBLIC	??_R2?$ScriptRegistrant@Vdp88_AR_Paradrop@@@@8	; ScriptRegistrant<dp88_AR_Paradrop>::`RTTI Base Class Array'
PUBLIC	??_R1A@?0A@EA@?$ScriptRegistrant@Vdp88_AR_Paradrop@@@@8 ; ScriptRegistrant<dp88_AR_Paradrop>::`RTTI Base Class Descriptor at (0,-1,0,64)'
PUBLIC	??_R4?$ScriptRegistrant@Vdp88_AR_GameController@@@@6B@ ; ScriptRegistrant<dp88_AR_GameController>::`RTTI Complete Object Locator'
PUBLIC	??_R0?AV?$ScriptRegistrant@Vdp88_AR_GameController@@@@@8 ; ScriptRegistrant<dp88_AR_GameController> `RTTI Type Descriptor'
PUBLIC	??_R3?$ScriptRegistrant@Vdp88_AR_GameController@@@@8 ; ScriptRegistrant<dp88_AR_GameController>::`RTTI Class Hierarchy Descriptor'
PUBLIC	??_R2?$ScriptRegistrant@Vdp88_AR_GameController@@@@8 ; ScriptRegistrant<dp88_AR_GameController>::`RTTI Base Class Array'
PUBLIC	??_R1A@?0A@EA@?$ScriptRegistrant@Vdp88_AR_GameController@@@@8 ; ScriptRegistrant<dp88_AR_GameController>::`RTTI Base Class Descriptor at (0,-1,0,64)'
PUBLIC	??_R4?$ScriptRegistrant@Vdp88_AR_Deployable_Infantry@@@@6B@ ; ScriptRegistrant<dp88_AR_Deployable_Infantry>::`RTTI Complete Object Locator'
PUBLIC	??_R0?AV?$ScriptRegistrant@Vdp88_AR_Deployable_Infantry@@@@@8 ; ScriptRegistrant<dp88_AR_Deployable_Infantry> `RTTI Type Descriptor'
PUBLIC	??_R3?$ScriptRegistrant@Vdp88_AR_Deployable_Infantry@@@@8 ; ScriptRegistrant<dp88_AR_Deployable_Infantry>::`RTTI Class Hierarchy Descriptor'
PUBLIC	??_R2?$ScriptRegistrant@Vdp88_AR_Deployable_Infantry@@@@8 ; ScriptRegistrant<dp88_AR_Deployable_Infantry>::`RTTI Base Class Array'
PUBLIC	??_R1A@?0A@EA@?$ScriptRegistrant@Vdp88_AR_Deployable_Infantry@@@@8 ; ScriptRegistrant<dp88_AR_Deployable_Infantry>::`RTTI Base Class Descriptor at (0,-1,0,64)'
PUBLIC	??_R4?$ScriptRegistrant@Vdp88_AR_CLEG@@@@6B@	; ScriptRegistrant<dp88_AR_CLEG>::`RTTI Complete Object Locator'
PUBLIC	??_R0?AV?$ScriptRegistrant@Vdp88_AR_CLEG@@@@@8	; ScriptRegistrant<dp88_AR_CLEG> `RTTI Type Descriptor'
PUBLIC	??_R3?$ScriptRegistrant@Vdp88_AR_CLEG@@@@8	; ScriptRegistrant<dp88_AR_CLEG>::`RTTI Class Hierarchy Descriptor'
PUBLIC	??_R2?$ScriptRegistrant@Vdp88_AR_CLEG@@@@8	; ScriptRegistrant<dp88_AR_CLEG>::`RTTI Base Class Array'
PUBLIC	??_R1A@?0A@EA@?$ScriptRegistrant@Vdp88_AR_CLEG@@@@8 ; ScriptRegistrant<dp88_AR_CLEG>::`RTTI Base Class Descriptor at (0,-1,0,64)'
PUBLIC	??_R4?$ScriptRegistrant@Vdp88_AR_CLEG_target@@@@6B@ ; ScriptRegistrant<dp88_AR_CLEG_target>::`RTTI Complete Object Locator'
PUBLIC	??_R0?AV?$ScriptRegistrant@Vdp88_AR_CLEG_target@@@@@8 ; ScriptRegistrant<dp88_AR_CLEG_target> `RTTI Type Descriptor'
PUBLIC	??_R3?$ScriptRegistrant@Vdp88_AR_CLEG_target@@@@8 ; ScriptRegistrant<dp88_AR_CLEG_target>::`RTTI Class Hierarchy Descriptor'
PUBLIC	??_R2?$ScriptRegistrant@Vdp88_AR_CLEG_target@@@@8 ; ScriptRegistrant<dp88_AR_CLEG_target>::`RTTI Base Class Array'
PUBLIC	??_R1A@?0A@EA@?$ScriptRegistrant@Vdp88_AR_CLEG_target@@@@8 ; ScriptRegistrant<dp88_AR_CLEG_target>::`RTTI Base Class Descriptor at (0,-1,0,64)'
PUBLIC	??_R4?$ScriptRegistrant@Vdp88_Aircraft_LandingZone@@@@6B@ ; ScriptRegistrant<dp88_Aircraft_LandingZone>::`RTTI Complete Object Locator'
PUBLIC	??_R0?AV?$ScriptRegistrant@Vdp88_Aircraft_LandingZone@@@@@8 ; ScriptRegistrant<dp88_Aircraft_LandingZone> `RTTI Type Descriptor'
PUBLIC	??_R3?$ScriptRegistrant@Vdp88_Aircraft_LandingZone@@@@8 ; ScriptRegistrant<dp88_Aircraft_LandingZone>::`RTTI Class Hierarchy Descriptor'
PUBLIC	??_R2?$ScriptRegistrant@Vdp88_Aircraft_LandingZone@@@@8 ; ScriptRegistrant<dp88_Aircraft_LandingZone>::`RTTI Base Class Array'
PUBLIC	??_R1A@?0A@EA@?$ScriptRegistrant@Vdp88_Aircraft_LandingZone@@@@8 ; ScriptRegistrant<dp88_Aircraft_LandingZone>::`RTTI Base Class Descriptor at (0,-1,0,64)'
PUBLIC	??_R4?$ScriptRegistrant@Vdp88_Aircraft_LandingZone_Aircraft@@@@6B@ ; ScriptRegistrant<dp88_Aircraft_LandingZone_Aircraft>::`RTTI Complete Object Locator'
PUBLIC	??_R0?AV?$ScriptRegistrant@Vdp88_Aircraft_LandingZone_Aircraft@@@@@8 ; ScriptRegistrant<dp88_Aircraft_LandingZone_Aircraft> `RTTI Type Descriptor'
PUBLIC	??_R3?$ScriptRegistrant@Vdp88_Aircraft_LandingZone_Aircraft@@@@8 ; ScriptRegistrant<dp88_Aircraft_LandingZone_Aircraft>::`RTTI Class Hierarchy Descriptor'
PUBLIC	??_R2?$ScriptRegistrant@Vdp88_Aircraft_LandingZone_Aircraft@@@@8 ; ScriptRegistrant<dp88_Aircraft_LandingZone_Aircraft>::`RTTI Base Class Array'
PUBLIC	??_R1A@?0A@EA@?$ScriptRegistrant@Vdp88_Aircraft_LandingZone_Aircraft@@@@8 ; ScriptRegistrant<dp88_Aircraft_LandingZone_Aircraft>::`RTTI Base Class Descriptor at (0,-1,0,64)'
PUBLIC	??_R4?$ScriptRegistrant@Vdp88_RemoteControlConsole@@@@6B@ ; ScriptRegistrant<dp88_RemoteControlConsole>::`RTTI Complete Object Locator'
PUBLIC	??_R0?AV?$ScriptRegistrant@Vdp88_RemoteControlConsole@@@@@8 ; ScriptRegistrant<dp88_RemoteControlConsole> `RTTI Type Descriptor'
PUBLIC	??_R3?$ScriptRegistrant@Vdp88_RemoteControlConsole@@@@8 ; ScriptRegistrant<dp88_RemoteControlConsole>::`RTTI Class Hierarchy Descriptor'
PUBLIC	??_R2?$ScriptRegistrant@Vdp88_RemoteControlConsole@@@@8 ; ScriptRegistrant<dp88_RemoteControlConsole>::`RTTI Base Class Array'
PUBLIC	??_R1A@?0A@EA@?$ScriptRegistrant@Vdp88_RemoteControlConsole@@@@8 ; ScriptRegistrant<dp88_RemoteControlConsole>::`RTTI Base Class Descriptor at (0,-1,0,64)'
PUBLIC	??_R4?$ScriptRegistrant@Vdp88_RemoteControlVehicle@@@@6B@ ; ScriptRegistrant<dp88_RemoteControlVehicle>::`RTTI Complete Object Locator'
PUBLIC	??_R0?AV?$ScriptRegistrant@Vdp88_RemoteControlVehicle@@@@@8 ; ScriptRegistrant<dp88_RemoteControlVehicle> `RTTI Type Descriptor'
PUBLIC	??_R3?$ScriptRegistrant@Vdp88_RemoteControlVehicle@@@@8 ; ScriptRegistrant<dp88_RemoteControlVehicle>::`RTTI Class Hierarchy Descriptor'
PUBLIC	??_R2?$ScriptRegistrant@Vdp88_RemoteControlVehicle@@@@8 ; ScriptRegistrant<dp88_RemoteControlVehicle>::`RTTI Base Class Array'
PUBLIC	??_R1A@?0A@EA@?$ScriptRegistrant@Vdp88_RemoteControlVehicle@@@@8 ; ScriptRegistrant<dp88_RemoteControlVehicle>::`RTTI Base Class Descriptor at (0,-1,0,64)'
PUBLIC	??_R4?$ScriptRegistrant@Vdp88_AR_DemoTruck@@@@6B@ ; ScriptRegistrant<dp88_AR_DemoTruck>::`RTTI Complete Object Locator'
PUBLIC	??_R0?AV?$ScriptRegistrant@Vdp88_AR_DemoTruck@@@@@8 ; ScriptRegistrant<dp88_AR_DemoTruck> `RTTI Type Descriptor'
PUBLIC	??_R3?$ScriptRegistrant@Vdp88_AR_DemoTruck@@@@8	; ScriptRegistrant<dp88_AR_DemoTruck>::`RTTI Class Hierarchy Descriptor'
PUBLIC	??_R2?$ScriptRegistrant@Vdp88_AR_DemoTruck@@@@8	; ScriptRegistrant<dp88_AR_DemoTruck>::`RTTI Base Class Array'
PUBLIC	??_R1A@?0A@EA@?$ScriptRegistrant@Vdp88_AR_DemoTruck@@@@8 ; ScriptRegistrant<dp88_AR_DemoTruck>::`RTTI Base Class Descriptor at (0,-1,0,64)'
PUBLIC	??_R4?$ScriptRegistrant@Vdp88_AR_paradrop_Console@@@@6B@ ; ScriptRegistrant<dp88_AR_paradrop_Console>::`RTTI Complete Object Locator'
PUBLIC	??_R0?AV?$ScriptRegistrant@Vdp88_AR_paradrop_Console@@@@@8 ; ScriptRegistrant<dp88_AR_paradrop_Console> `RTTI Type Descriptor'
PUBLIC	??_R3?$ScriptRegistrant@Vdp88_AR_paradrop_Console@@@@8 ; ScriptRegistrant<dp88_AR_paradrop_Console>::`RTTI Class Hierarchy Descriptor'
PUBLIC	??_R2?$ScriptRegistrant@Vdp88_AR_paradrop_Console@@@@8 ; ScriptRegistrant<dp88_AR_paradrop_Console>::`RTTI Base Class Array'
PUBLIC	??_R1A@?0A@EA@?$ScriptRegistrant@Vdp88_AR_paradrop_Console@@@@8 ; ScriptRegistrant<dp88_AR_paradrop_Console>::`RTTI Base Class Descriptor at (0,-1,0,64)'
PUBLIC	??_R4?$ScriptRegistrant@Vdp88_AR_Prism_Tower@@@@6B@ ; ScriptRegistrant<dp88_AR_Prism_Tower>::`RTTI Complete Object Locator'
PUBLIC	??_R0?AV?$ScriptRegistrant@Vdp88_AR_Prism_Tower@@@@@8 ; ScriptRegistrant<dp88_AR_Prism_Tower> `RTTI Type Descriptor'
PUBLIC	??_R3?$ScriptRegistrant@Vdp88_AR_Prism_Tower@@@@8 ; ScriptRegistrant<dp88_AR_Prism_Tower>::`RTTI Class Hierarchy Descriptor'
PUBLIC	??_R2?$ScriptRegistrant@Vdp88_AR_Prism_Tower@@@@8 ; ScriptRegistrant<dp88_AR_Prism_Tower>::`RTTI Base Class Array'
PUBLIC	??_R1A@?0A@EA@?$ScriptRegistrant@Vdp88_AR_Prism_Tower@@@@8 ; ScriptRegistrant<dp88_AR_Prism_Tower>::`RTTI Base Class Descriptor at (0,-1,0,64)'
PUBLIC	??_R4?$ScriptRegistrant@Vdp88_linkHealth@@@@6B@	; ScriptRegistrant<dp88_linkHealth>::`RTTI Complete Object Locator'
PUBLIC	??_R0?AV?$ScriptRegistrant@Vdp88_linkHealth@@@@@8 ; ScriptRegistrant<dp88_linkHealth> `RTTI Type Descriptor'
PUBLIC	??_R3?$ScriptRegistrant@Vdp88_linkHealth@@@@8	; ScriptRegistrant<dp88_linkHealth>::`RTTI Class Hierarchy Descriptor'
PUBLIC	??_R2?$ScriptRegistrant@Vdp88_linkHealth@@@@8	; ScriptRegistrant<dp88_linkHealth>::`RTTI Base Class Array'
PUBLIC	??_R1A@?0A@EA@?$ScriptRegistrant@Vdp88_linkHealth@@@@8 ; ScriptRegistrant<dp88_linkHealth>::`RTTI Base Class Descriptor at (0,-1,0,64)'
PUBLIC	__real@00000000
PUBLIC	__real@0000000000000000
PUBLIC	__real@02081cea
PUBLIC	__real@3e4ccccd
PUBLIC	__real@3e800000
PUBLIC	__real@3f000000
PUBLIC	__real@3f50624dd2f1a9fc
PUBLIC	__real@3f79999a
PUBLIC	__real@3f800000
PUBLIC	__real@3fc00000
PUBLIC	__real@3fc90fdb
PUBLIC	__real@3fe0000000000000
PUBLIC	__real@3ff0000000000000
PUBLIC	__real@40000000
PUBLIC	__real@4000000000000000
PUBLIC	__real@4014000000000000
PUBLIC	__real@40490fdb
PUBLIC	__real@40a00000
PUBLIC	__real@40c90fdb
PUBLIC	__real@41200000
PUBLIC	__real@41a00000
PUBLIC	__real@41c80000
PUBLIC	__real@42200000
PUBLIC	__real@42480000
PUBLIC	__real@42b40000
PUBLIC	__real@42c80000
PUBLIC	__real@42ca0000
PUBLIC	__real@42dc0000
PUBLIC	__real@43160000
PUBLIC	__real@43340000
PUBLIC	__real@437f0000
PUBLIC	__real@43fa0000
PUBLIC	__real@44000000
PUBLIC	__real@44800000
PUBLIC	__real@459c4000
PUBLIC	__real@461c4000
PUBLIC	__real@bf800000
PUBLIC	__real@c0000000
PUBLIC	__real@c2200000
PUBLIC	__xmm@41f00000000000000000000000000000
PUBLIC	__xmm@7fffffffffffffff7fffffffffffffff
PUBLIC	__xmm@80000000000000008000000000000000
PUBLIC	__xmm@80000000800000008000000080000000
EXTRN	__purecall:PROC
EXTRN	??2@YAPAXI@Z:PROC				; operator new
EXTRN	??3@YAXPAX@Z:PROC				; operator delete
EXTRN	_atexit:PROC
EXTRN	__imp___wassert:PROC
EXTRN	__imp__atof:PROC
EXTRN	__imp__ceil:PROC
EXTRN	__imp__atoi:PROC
EXTRN	??_V@YAXPAX@Z:PROC				; operator delete[]
EXTRN	??_U@YAPAXI@Z:PROC				; operator new[]
EXTRN	__imp__fclose:PROC
EXTRN	__imp__sprintf:PROC
EXTRN	__imp__strcpy_s:PROC
EXTRN	__imp___stricmp:PROC
EXTRN	__imp__strstr:PROC
EXTRN	__imp__toupper:PROC
EXTRN	__imp__GetCurrentThreadId@0:PROC
EXTRN	__imp__OutputDebugStringA@4:PROC
EXTRN	__imp___time64:PROC
EXTRN	?SetThreadTrackingInformation@@YAXPBDI0@Z:PROC	; SetThreadTrackingInformation
EXTRN	?Random_Float@WWMath@@SAMXZ:PROC		; WWMath::Random_Float
EXTRN	??0ScriptImpClass@@QAE@XZ:PROC			; ScriptImpClass::ScriptImpClass
EXTRN	??1ScriptImpClass@@UAE@XZ:PROC			; ScriptImpClass::~ScriptImpClass
EXTRN	?Get_Name@ScriptImpClass@@UAEPBDXZ:PROC		; ScriptImpClass::Get_Name
EXTRN	?Set_Parameters_String@ScriptImpClass@@UAEXPBD@Z:PROC ; ScriptImpClass::Set_Parameters_String
EXTRN	?Get_Parameters_String@ScriptImpClass@@UAEXPADI@Z:PROC ; ScriptImpClass::Get_Parameters_String
EXTRN	?Get_Parameter@ScriptImpClass@@QAEPBDPBD@Z:PROC	; ScriptImpClass::Get_Parameter
EXTRN	?Get_Parameter@ScriptImpClass@@QAEPBDH@Z:PROC	; ScriptImpClass::Get_Parameter
EXTRN	?Get_Int_Parameter@ScriptImpClass@@QAEHPBD@Z:PROC ; ScriptImpClass::Get_Int_Parameter
EXTRN	?Get_Float_Parameter@ScriptImpClass@@QAEMPBD@Z:PROC ; ScriptImpClass::Get_Float_Parameter
EXTRN	?Get_Vector3_Parameter@ScriptImpClass@@QAE?AVVector3@@PBD@Z:PROC ; ScriptImpClass::Get_Vector3_Parameter
EXTRN	?Destroy_Script@ScriptImpClass@@QAEXXZ:PROC	; ScriptImpClass::Destroy_Script
EXTRN	?Attach@ScriptImpClass@@MAEXPAVScriptableGameObj@@@Z:PROC ; ScriptImpClass::Attach
EXTRN	?Detach@ScriptImpClass@@MAEXPAVScriptableGameObj@@@Z:PROC ; ScriptImpClass::Detach
EXTRN	?Save@ScriptImpClass@@MAEXAAVScriptSaver@@@Z:PROC ; ScriptImpClass::Save
EXTRN	?Load@ScriptImpClass@@MAEXAAVScriptLoader@@@Z:PROC ; ScriptImpClass::Load
EXTRN	??1ScriptFactory@@UAE@XZ:PROC			; ScriptFactory::~ScriptFactory
EXTRN	??0ScriptFactory@@IAE@PBD0@Z:PROC		; ScriptFactory::ScriptFactory
EXTRN	?Console_Input@@YAXPBD@Z:PROC			; Console_Input
EXTRN	?Console_Output@@YAXPBDZZ:PROC			; Console_Output
EXTRN	??1ThreadClass@@UAE@XZ:PROC			; ThreadClass::~ThreadClass
EXTRN	__imp_?Format@StringClass@@QAAHPBDZZ:PROC
EXTRN	__imp_?Format_Args@StringClass@@QAAHPBDABQAD@Z:PROC
EXTRN	__imp_?Get_String@StringClass@@AAEXH_N@Z:PROC
EXTRN	__imp_?Resize@StringClass@@AAEXH@Z:PROC
EXTRN	__imp_?Uninitialised_Grow@StringClass@@AAEXH@Z:PROC
EXTRN	__imp_?Free_String@StringClass@@AAEXXZ:PROC
EXTRN	__imp_?Free_String@WideStringClass@@AAEXXZ:PROC
EXTRN	?Find_Entry@INIClass@@QBEPAUINIEntry@@PBD0@Z:PROC ; INIClass::Find_Entry
EXTRN	?Find_Section@INIClass@@QBEPAUINISection@@PBD@Z:PROC ; INIClass::Find_Section
EXTRN	??1INIClass@@UAE@XZ:PROC			; INIClass::~INIClass
EXTRN	?Get_Definition_Name@@YAPBDK@Z:PROC		; Get_Definition_Name
EXTRN	?Find_Definition@@YAPAVDefinitionClass@@K@Z:PROC ; Find_Definition
EXTRN	?Is_Valid_Preset_ID@@YA_NK@Z:PROC		; Is_Valid_Preset_ID
EXTRN	?Is_Valid_Preset@@YA_NPBD@Z:PROC		; Is_Valid_Preset
EXTRN	?Set@Matrix3D@@QAEXABVMatrix3@@ABVVector3@@@Z:PROC ; Matrix3D::Set
EXTRN	?Set@Matrix3D@@QAEXABVQuaternion@@ABVVector3@@@Z:PROC ; Matrix3D::Set
EXTRN	?Get_Object_Type@@YAHPAVScriptableGameObj@@@Z:PROC ; Get_Object_Type
EXTRN	?Set_Object_Type@@YAXPAVScriptableGameObj@@H@Z:PROC ; Set_Object_Type
EXTRN	?Get_Velocity@@YA?AVVector3@@PAVScriptableGameObj@@@Z:PROC ; Get_Velocity
EXTRN	?Set_Transform@@YAXPAVScriptableGameObj@@VMatrix3D@@@Z:PROC ; Set_Transform
EXTRN	?Get_Closest_Armed_Object_To_Object@@YAPAVScriptableGameObj@@PAV1@H@Z:PROC ; Get_Closest_Armed_Object_To_Object
EXTRN	?Get_Player_ID@@YAJPAVScriptableGameObj@@@Z:PROC ; Get_Player_ID
EXTRN	?Purchase_Item@@YA_NPAVScriptableGameObj@@H@Z:PROC ; Purchase_Item
EXTRN	?Get_Current_Bullets@@YAHPAVScriptableGameObj@@@Z:PROC ; Get_Current_Bullets
EXTRN	?Get_Current_Clip_Bullets@@YAHPAVScriptableGameObj@@@Z:PROC ; Get_Current_Clip_Bullets
EXTRN	?Get_Powerup_Weapon@@YAPBDPBD@Z:PROC		; Get_Powerup_Weapon
EXTRN	?Get_Current_Weapon@@YAPBDPAVScriptableGameObj@@@Z:PROC ; Get_Current_Weapon
EXTRN	?Get_Vehicle@@YAPAVScriptableGameObj@@PAV1@@Z:PROC ; Get_Vehicle
EXTRN	?Change_Character@@YA_NPAVScriptableGameObj@@PBD@Z:PROC ; Change_Character
EXTRN	?Create_Vehicle@@YA_NPBDMPAVScriptableGameObj@@H@Z:PROC ; Create_Vehicle
EXTRN	?Get_Vehicle_Driver@@YAPAVScriptableGameObj@@PAV1@@Z:PROC ; Get_Vehicle_Driver
EXTRN	?Soldier_Transition_Vehicle@@YAXPAVScriptableGameObj@@@Z:PROC ; Soldier_Transition_Vehicle
EXTRN	?Create_Zone@@YAPAVScriptableGameObj@@PBDAAVOBBoxClass@@@Z:PROC ; Create_Zone
EXTRN	?Set@Matrix3@@QAEXABVQuaternion@@@Z:PROC	; Matrix3::Set
EXTRN	??1ReferencerClass@@UAE@XZ:PROC			; ReferencerClass::~ReferencerClass
EXTRN	?On_Post_Load@ReferencerClass@@UAEXXZ:PROC	; ReferencerClass::On_Post_Load
EXTRN	??4ReferencerClass@@QAEAAV0@PAVScriptableGameObj@@@Z:PROC ; ReferencerClass::operator=
EXTRN	??BReferencerClass@@QBEPAVScriptableGameObj@@XZ:PROC ; ReferencerClass::operator ScriptableGameObj *
EXTRN	?Add_Observer@ScriptableGameObj@@QAEXPAVGameObjObserverClass@@@Z:PROC ; ScriptableGameObj::Add_Observer
EXTRN	?Remove_Observer@ScriptableGameObj@@QAEXPAVGameObjObserverClass@@@Z:PROC ; ScriptableGameObj::Remove_Observer
EXTRN	?Set@LineSegClass@@QAEXABV1@ABVMatrix3D@@@Z:PROC ; LineSegClass::Set
EXTRN	?Find_Refinery@@YAPAVScriptableGameObj@@H@Z:PROC ; Find_Refinery
EXTRN	?Get_Translated_String@@YAPBDK@Z:PROC		; Get_Translated_String
EXTRN	?Is_Valid_String_ID@@YA_NK@Z:PROC		; Is_Valid_String_ID
EXTRN	?Get_String_Sound_ID@@YAKK@Z:PROC		; Get_String_Sound_ID
EXTRN	?Set_Max_Health@@YAXPAVScriptableGameObj@@M@Z:PROC ; Set_Max_Health
EXTRN	?Set_Max_Shield_Strength@@YAXPAVScriptableGameObj@@M@Z:PROC ; Set_Max_Shield_Strength
EXTRN	?Get_Shield_Type@@YAPBDPAVScriptableGameObj@@@Z:PROC ; Get_Shield_Type
EXTRN	?Get_Skin@@YAPBDPAVScriptableGameObj@@@Z:PROC	; Get_Skin
EXTRN	?Set_Skin@@YAXPAVScriptableGameObj@@PBD@Z:PROC	; Set_Skin
EXTRN	?Ranged_Scale_Damage_To_Buildings@@YAXMPBDVVector3@@MPAVScriptableGameObj@@@Z:PROC ; Ranged_Scale_Damage_To_Buildings
EXTRN	?Get_Model@@YAPBDPAVScriptableGameObj@@@Z:PROC	; Get_Model
EXTRN	?Wake_Up_Objects_In_OBBox@@YAXAAVOBBoxClass@@@Z:PROC ; Wake_Up_Objects_In_OBBox
EXTRN	?Is_Script_Attached@@YA_NPAVScriptableGameObj@@PBD@Z:PROC ; Is_Script_Attached
EXTRN	?Attach_Script_Once@@YAXPAVScriptableGameObj@@PBD1@Z:PROC ; Attach_Script_Once
EXTRN	?Find_Object_With_Script@@YAPAVScriptableGameObj@@PBD@Z:PROC ; Find_Object_With_Script
EXTRN	?Find_Closest_Object_With_Script@@YAPAVScriptableGameObj@@PBDVVector3@@@Z:PROC ; Find_Closest_Object_With_Script
EXTRN	?Find_All_Objects_With_Script@@YAXPBDAAV?$SList@VScriptableGameObj@@@@@Z:PROC ; Find_All_Objects_With_Script
EXTRN	?Find_All_Objects_With_Script_By_Distance@@YAXPBDAAV?$SList@VScriptableGameObj@@@@VVector3@@@Z:PROC ; Find_All_Objects_With_Script_By_Distance
EXTRN	?Send_Custom_Event_To_Objects_With_Script@@YAXPAVScriptableGameObj@@PBDHHM@Z:PROC ; Send_Custom_Event_To_Objects_With_Script
EXTRN	?Find_Script_On_Object@@YAPAVScriptImpClass@@PAVScriptableGameObj@@PBD@Z:PROC ; Find_Script_On_Object
EXTRN	?Detach@JFW_Key_Hook_Base@@UAEXPAVScriptableGameObj@@@Z:PROC ; JFW_Key_Hook_Base::Detach
EXTRN	?Destroyed@JFW_Key_Hook_Base@@UAEXPAVScriptableGameObj@@@Z:PROC ; JFW_Key_Hook_Base::Destroyed
EXTRN	?InstallHook@JFW_Key_Hook_Base@@QAEXPBDPAVScriptableGameObj@@@Z:PROC ; JFW_Key_Hook_Base::InstallHook
EXTRN	?RemoveHook@JFW_Key_Hook_Base@@QAEXXZ:PROC	; JFW_Key_Hook_Base::RemoveHook
EXTRN	??1JFW_Key_Hook_Base@@UAE@XZ:PROC		; JFW_Key_Hook_Base::~JFW_Key_Hook_Base
EXTRN	?Detach@MultiKeyHookScriptImpClass@@UAEXPAVScriptableGameObj@@@Z:PROC ; MultiKeyHookScriptImpClass::Detach
EXTRN	?Destroyed@MultiKeyHookScriptImpClass@@UAEXPAVScriptableGameObj@@@Z:PROC ; MultiKeyHookScriptImpClass::Destroyed
EXTRN	??_E?$SList@UKeyHookWrapperStruct@MultiKeyHookScriptImpClass@@@@UAEPAXI@Z:PROC ; SList<MultiKeyHookScriptImpClass::KeyHookWrapperStruct>::`vector deleting destructor'
EXTRN	?Detach@JFW_Object_Created_Hook_Base@@UAEXPAVScriptableGameObj@@@Z:PROC ; JFW_Object_Created_Hook_Base::Detach
EXTRN	?Created@JFW_Object_Created_Hook_Base@@UAEXPAVScriptableGameObj@@@Z:PROC ; JFW_Object_Created_Hook_Base::Created
EXTRN	??1JFW_Object_Created_Hook_Base@@UAE@XZ:PROC	; JFW_Object_Created_Hook_Base::~JFW_Object_Created_Hook_Base
EXTRN	?Send_Message_Team@@YAXHIIIPBD@Z:PROC		; Send_Message_Team
EXTRN	?Force_Vehicle_Entry@@YAXPAVScriptableGameObj@@0@Z:PROC ; Force_Vehicle_Entry
EXTRN	??0LoopedAnimationController@@QAE@PAVScriptableGameObj@@@Z:PROC ; LoopedAnimationController::LoopedAnimationController
EXTRN	?PlayAnimation@LoopedAnimationController@@QAEXPBDHHH@Z:PROC ; LoopedAnimationController::PlayAnimation
EXTRN	?Created@dp88_customAI@@UAEXPAVScriptableGameObj@@@Z:PROC ; dp88_customAI::Created
EXTRN	?Timer_Expired@dp88_customAI@@UAEXPAVScriptableGameObj@@H@Z:PROC ; dp88_customAI::Timer_Expired
EXTRN	?Custom@dp88_customAI@@UAEXPAVScriptableGameObj@@HH0@Z:PROC ; dp88_customAI::Custom
EXTRN	?Action_Complete@dp88_customAI@@UAEXPAVScriptableGameObj@@HW4ActionCompleteReason@@@Z:PROC ; dp88_customAI::Action_Complete
EXTRN	?Init@dp88_customAI@@UAEXPAVScriptableGameObj@@@Z:PROC ; dp88_customAI::Init
EXTRN	?loadSettings@dp88_customAI@@UAEXPAVScriptableGameObj@@_N1@Z:PROC ; dp88_customAI::loadSettings
EXTRN	?AIStateChanged@dp88_customAI@@UAEXPAVScriptableGameObj@@_N@Z:PROC ; dp88_customAI::AIStateChanged
EXTRN	?ResetAllActions@dp88_customAI@@UAEXPAVScriptableGameObj@@@Z:PROC ; dp88_customAI::ResetAllActions
EXTRN	?getBasePriority@dp88_customAI@@UAEMPAVScriptableGameObj@@@Z:PROC ; dp88_customAI::getBasePriority
EXTRN	?getPriority@dp88_customAI@@UAEMPAVScriptableGameObj@@0@Z:PROC ; dp88_customAI::getPriority
EXTRN	?getPriority@dp88_customAI@@UAEMPAVScriptableGameObj@@H@Z:PROC ; dp88_customAI::getPriority
EXTRN	?IsVehicleEmpty@dp88_customAI@@UAE_NPAVVehicleGameObj@@@Z:PROC ; dp88_customAI::IsVehicleEmpty
EXTRN	?IsVehicleAIEnabled@dp88_customAI@@UAE_NPAVVehicleGameObj@@@Z:PROC ; dp88_customAI::IsVehicleAIEnabled
EXTRN	??_Edp88_customAI@@UAEPAXI@Z:PROC		; dp88_customAI::`vector deleting destructor'
EXTRN	?Enemy_Seen@dp88_AI_Turret@@UAEXPAVScriptableGameObj@@0@Z:PROC ; dp88_AI_Turret::Enemy_Seen
EXTRN	?Timer_Expired@dp88_AI_Turret@@UAEXPAVScriptableGameObj@@H@Z:PROC ; dp88_AI_Turret::Timer_Expired
EXTRN	?Damaged@dp88_AI_Turret@@UAEXPAVScriptableGameObj@@0M@Z:PROC ; dp88_AI_Turret::Damaged
EXTRN	?Init@dp88_AI_Turret@@UAEXPAVScriptableGameObj@@@Z:PROC ; dp88_AI_Turret::Init
EXTRN	?loadSettings@dp88_AI_Turret@@UAEXPAVScriptableGameObj@@_N1@Z:PROC ; dp88_AI_Turret::loadSettings
EXTRN	?AIStateChanged@dp88_AI_Turret@@UAEXPAVScriptableGameObj@@_N@Z:PROC ; dp88_AI_Turret::AIStateChanged
EXTRN	?checkTeam@dp88_AI_Turret@@MAE_NPAVScriptableGameObj@@0@Z:PROC ; dp88_AI_Turret::checkTeam
EXTRN	?checkRange@dp88_AI_Turret@@MAE_NPAVScriptableGameObj@@0_N@Z:PROC ; dp88_AI_Turret::checkRange
EXTRN	?checkPowerState@dp88_AI_Turret@@MAE_NPAVScriptableGameObj@@@Z:PROC ; dp88_AI_Turret::checkPowerState
EXTRN	?attackTarget@dp88_AI_Turret@@MAEXPAVScriptableGameObj@@0_N@Z:PROC ; dp88_AI_Turret::attackTarget
EXTRN	?attackLocation@dp88_AI_Turret@@MAEXPAVScriptableGameObj@@VVector3@@_N@Z:PROC ; dp88_AI_Turret::attackLocation
EXTRN	?stopAttacking@dp88_AI_Turret@@MAEXPAVScriptableGameObj@@@Z:PROC ; dp88_AI_Turret::stopAttacking
EXTRN	??_Edp88_AI_Turret@@UAEPAXI@Z:PROC		; dp88_AI_Turret::`vector deleting destructor'
EXTRN	?Timer_Expired@dp88_AI_ChargedTurret@@UAEXPAVScriptableGameObj@@H@Z:PROC ; dp88_AI_ChargedTurret::Timer_Expired
EXTRN	?Animation_Complete@dp88_AI_ChargedTurret@@UAEXPAVScriptableGameObj@@PBD@Z:PROC ; dp88_AI_ChargedTurret::Animation_Complete
EXTRN	?Destroyed@dp88_AI_ChargedTurret@@UAEXPAVScriptableGameObj@@@Z:PROC ; dp88_AI_ChargedTurret::Destroyed
EXTRN	?Init@dp88_AI_ChargedTurret@@UAEXPAVScriptableGameObj@@@Z:PROC ; dp88_AI_ChargedTurret::Init
EXTRN	?loadSettings@dp88_AI_ChargedTurret@@UAEXPAVScriptableGameObj@@_N1@Z:PROC ; dp88_AI_ChargedTurret::loadSettings
EXTRN	?attackTarget@dp88_AI_ChargedTurret@@MAEXPAVScriptableGameObj@@0_N@Z:PROC ; dp88_AI_ChargedTurret::attackTarget
EXTRN	?attackLocation@dp88_AI_ChargedTurret@@MAEXPAVScriptableGameObj@@VVector3@@_N@Z:PROC ; dp88_AI_ChargedTurret::attackLocation
EXTRN	?StartCharging@dp88_AI_ChargedTurret@@MAEXPAVScriptableGameObj@@@Z:PROC ; dp88_AI_ChargedTurret::StartCharging
EXTRN	?StartDischarging@dp88_AI_ChargedTurret@@MAEXPAVScriptableGameObj@@@Z:PROC ; dp88_AI_ChargedTurret::StartDischarging
EXTRN	?GetAnimationObject@dp88_AI_ChargedTurret@@MAEPAVScriptableGameObj@@PAV2@@Z:PROC ; dp88_AI_ChargedTurret::GetAnimationObject
EXTRN	?ApplyIdleAnimation@dp88_AI_ChargedTurret@@MAEXPAVScriptableGameObj@@@Z:PROC ; dp88_AI_ChargedTurret::ApplyIdleAnimation
EXTRN	??_Edp88_AI_ChargedTurret@@UAEPAXI@Z:PROC	; dp88_AI_ChargedTurret::`vector deleting destructor'
EXTRN	?Created@dp88_Camo_Controller@@UAEXPAVScriptableGameObj@@@Z:PROC ; dp88_Camo_Controller::Created
EXTRN	??_Edp88_Camo_Controller@@UAEPAXI@Z:PROC	; dp88_Camo_Controller::`vector deleting destructor'
EXTRN	??_Edp88_AR_GameController@@UAEPAXI@Z:PROC	; dp88_AR_GameController::`vector deleting destructor'
EXTRN	??_Edp88_AR_Deployable_Infantry@@UAEPAXI@Z:PROC	; dp88_AR_Deployable_Infantry::`vector deleting destructor'
EXTRN	??_Edp88_AR_CLEG@@UAEPAXI@Z:PROC		; dp88_AR_CLEG::`vector deleting destructor'
EXTRN	??_Edp88_AR_CLEG_target@@UAEPAXI@Z:PROC		; dp88_AR_CLEG_target::`vector deleting destructor'
EXTRN	??_Edp88_Ore_Miner@@UAEPAXI@Z:PROC		; dp88_Ore_Miner::`vector deleting destructor'
EXTRN	??_Edp88_AR_Chrono_Miner@@UAEPAXI@Z:PROC	; dp88_AR_Chrono_Miner::`vector deleting destructor'
EXTRN	??_Edp88_AR_Chrono_Miner_Chronozone@@UAEPAXI@Z:PROC ; dp88_AR_Chrono_Miner_Chronozone::`vector deleting destructor'
EXTRN	??_Edp88_Ore_Field_Observer@dp88_Ore_Field@@UAEPAXI@Z:PROC ; dp88_Ore_Field::dp88_Ore_Field_Observer::`vector deleting destructor'
EXTRN	??_Edp88_Ore_Field@@UAEPAXI@Z:PROC		; dp88_Ore_Field::`vector deleting destructor'
EXTRN	??_Edp88_Ore_Extractor@@UAEPAXI@Z:PROC		; dp88_Ore_Extractor::`vector deleting destructor'
EXTRN	??_Edp88_Ore_Dump_Zone@@UAEPAXI@Z:PROC		; dp88_Ore_Dump_Zone::`vector deleting destructor'
EXTRN	??_Edp88_Aircraft_LandingZone@@UAEPAXI@Z:PROC	; dp88_Aircraft_LandingZone::`vector deleting destructor'
EXTRN	??_Edp88_Aircraft_LandingZone_Aircraft@@UAEPAXI@Z:PROC ; dp88_Aircraft_LandingZone_Aircraft::`vector deleting destructor'
EXTRN	??_Edp88_RemoteControlConsole@@UAEPAXI@Z:PROC	; dp88_RemoteControlConsole::`vector deleting destructor'
EXTRN	??_Edp88_RemoteControlVehicle@@UAEPAXI@Z:PROC	; dp88_RemoteControlVehicle::`vector deleting destructor'
EXTRN	??_Edp88_AR_DemoTruck@@UAEPAXI@Z:PROC		; dp88_AR_DemoTruck::`vector deleting destructor'
EXTRN	??_Edp88_AR_paradrop_Console@@UAEPAXI@Z:PROC	; dp88_AR_paradrop_Console::`vector deleting destructor'
EXTRN	??_Edp88_AR_Paradrop@@UAEPAXI@Z:PROC		; dp88_AR_Paradrop::`vector deleting destructor'
EXTRN	??_Edp88_AR_Prism_Tower@@UAEPAXI@Z:PROC		; dp88_AR_Prism_Tower::`vector deleting destructor'
EXTRN	??_Edp88_linkHealth@@UAEPAXI@Z:PROC		; dp88_linkHealth::`vector deleting destructor'
EXTRN	?Give_Bot_Credits@MS_AccessHelper@@SAXHM@Z:PROC	; MS_AccessHelper::Give_Bot_Credits
EXTRN	?Get_Warhead_Type@ArmorWarheadManager@@SAIPBD@Z:PROC ; ArmorWarheadManager::Get_Warhead_Type
EXTRN	?Is_In_Elevator@SoldierGameObj@@QAE_NXZ:PROC	; SoldierGameObj::Is_In_Elevator
EXTRN	?Set_Immovable@VehicleGameObj@@QAEX_N@Z:PROC	; VehicleGameObj::Set_Immovable
EXTRN	??_E?$SList@VScriptableGameObj@@@@UAEPAXI@Z:PROC ; SList<ScriptableGameObj>::`vector deleting destructor'
EXTRN	??_E?$ScriptRegistrant@Vdp88_Ore_Miner@@@@UAEPAXI@Z:PROC ; ScriptRegistrant<dp88_Ore_Miner>::`vector deleting destructor'
EXTRN	??_E?$ScriptRegistrant@Vdp88_AR_Chrono_Miner@@@@UAEPAXI@Z:PROC ; ScriptRegistrant<dp88_AR_Chrono_Miner>::`vector deleting destructor'
EXTRN	??_E?$ScriptRegistrant@Vdp88_AR_Chrono_Miner_Chronozone@@@@UAEPAXI@Z:PROC ; ScriptRegistrant<dp88_AR_Chrono_Miner_Chronozone>::`vector deleting destructor'
EXTRN	??_E?$ScriptRegistrant@Vdp88_Ore_Field@@@@UAEPAXI@Z:PROC ; ScriptRegistrant<dp88_Ore_Field>::`vector deleting destructor'
EXTRN	??_E?$ScriptRegistrant@Vdp88_Ore_Extractor@@@@UAEPAXI@Z:PROC ; ScriptRegistrant<dp88_Ore_Extractor>::`vector deleting destructor'
EXTRN	??_E?$ScriptRegistrant@Vdp88_Ore_Dump_Zone@@@@UAEPAXI@Z:PROC ; ScriptRegistrant<dp88_Ore_Dump_Zone>::`vector deleting destructor'
EXTRN	??_E?$ScriptRegistrant@Vdp88_AR_Paradrop@@@@UAEPAXI@Z:PROC ; ScriptRegistrant<dp88_AR_Paradrop>::`vector deleting destructor'
EXTRN	??_E?$ScriptRegistrant@Vdp88_AR_GameController@@@@UAEPAXI@Z:PROC ; ScriptRegistrant<dp88_AR_GameController>::`vector deleting destructor'
EXTRN	??_E?$ScriptRegistrant@Vdp88_AR_Deployable_Infantry@@@@UAEPAXI@Z:PROC ; ScriptRegistrant<dp88_AR_Deployable_Infantry>::`vector deleting destructor'
EXTRN	??_E?$ScriptRegistrant@Vdp88_AR_CLEG@@@@UAEPAXI@Z:PROC ; ScriptRegistrant<dp88_AR_CLEG>::`vector deleting destructor'
EXTRN	??_E?$ScriptRegistrant@Vdp88_AR_CLEG_target@@@@UAEPAXI@Z:PROC ; ScriptRegistrant<dp88_AR_CLEG_target>::`vector deleting destructor'
EXTRN	??_E?$ScriptRegistrant@Vdp88_Aircraft_LandingZone@@@@UAEPAXI@Z:PROC ; ScriptRegistrant<dp88_Aircraft_LandingZone>::`vector deleting destructor'
EXTRN	??_E?$ScriptRegistrant@Vdp88_Aircraft_LandingZone_Aircraft@@@@UAEPAXI@Z:PROC ; ScriptRegistrant<dp88_Aircraft_LandingZone_Aircraft>::`vector deleting destructor'
EXTRN	??_E?$ScriptRegistrant@Vdp88_RemoteControlConsole@@@@UAEPAXI@Z:PROC ; ScriptRegistrant<dp88_RemoteControlConsole>::`vector deleting destructor'
EXTRN	??_E?$ScriptRegistrant@Vdp88_RemoteControlVehicle@@@@UAEPAXI@Z:PROC ; ScriptRegistrant<dp88_RemoteControlVehicle>::`vector deleting destructor'
EXTRN	??_E?$ScriptRegistrant@Vdp88_AR_DemoTruck@@@@UAEPAXI@Z:PROC ; ScriptRegistrant<dp88_AR_DemoTruck>::`vector deleting destructor'
EXTRN	??_E?$ScriptRegistrant@Vdp88_AR_paradrop_Console@@@@UAEPAXI@Z:PROC ; ScriptRegistrant<dp88_AR_paradrop_Console>::`vector deleting destructor'
EXTRN	??_E?$ScriptRegistrant@Vdp88_AR_Prism_Tower@@@@UAEPAXI@Z:PROC ; ScriptRegistrant<dp88_AR_Prism_Tower>::`vector deleting destructor'
EXTRN	??_E?$ScriptRegistrant@Vdp88_linkHealth@@@@UAEPAXI@Z:PROC ; ScriptRegistrant<dp88_linkHealth>::`vector deleting destructor'
EXTRN	__CIatan2:PROC
EXTRN	__ftol2_sse:PROC
EXTRN	__libm_sse2_acos_precise:PROC
EXTRN	__libm_sse2_asin_precise:PROC
EXTRN	__libm_sse2_atan_precise:PROC
EXTRN	__libm_sse2_cos_precise:PROC
EXTRN	__libm_sse2_sin_precise:PROC
EXTRN	__libm_sse2_sqrt_precise:PROC
EXTRN	__libm_sse2_tan_precise:PROC
EXTRN	_floor:PROC
EXTRN	_memcpy:PROC
EXTRN	_memset:PROC
EXTRN	??_7type_info@@6B@:QWORD			; type_info::`vftable'
EXTRN	?_FastAcosTable@@3AAV?$RefArrayHelper@M$0EAA@@@A:DWORD ; _FastAcosTable
EXTRN	?_FastAsinTable@@3AAV?$RefArrayHelper@M$0EAA@@@A:DWORD ; _FastAsinTable
EXTRN	?_FastSinTable@@3AAV?$RefArrayHelper@M$0EAA@@@A:DWORD ; _FastSinTable
EXTRN	?Commands@@3PAUScriptCommands@@A:DWORD		; Commands
EXTRN	__imp_?m_EmptyString@StringClass@@0AAPADA:DWORD
EXTRN	__imp_?m_NullChar@StringClass@@0AADA:DWORD
EXTRN	?Set_Current_Bullets@@3P6AXPAVScriptableGameObj@@H@ZA:DWORD ; Set_Current_Bullets
EXTRN	?Set_Current_Clip_Bullets@@3P6AXPAVScriptableGameObj@@H@ZA:DWORD ; Set_Current_Clip_Bullets
EXTRN	?Create_2D_Sound_Player@@3P6AHPAVScriptableGameObj@@PBD@ZA:DWORD ; Create_2D_Sound_Player
EXTRN	?Send_Message@@3P6AXIIIPBD@ZA:DWORD		; Send_Message
EXTRN	?Send_Message_Player@@3P6AXPAVScriptableGameObj@@IIIPBD@ZA:DWORD ; Send_Message_Player
EXTRN	?Remove_Weapon@@3P6AXPAVScriptableGameObj@@PBD@ZA:DWORD ; Remove_Weapon
EXTRN	?Update_Network_Object@@3P6AXPAVNetworkObjectClass@@@ZA:DWORD ; Update_Network_Object
EXTRN	?Get_Damage_Warhead@@3P6AIXZA:DWORD		; Get_Damage_Warhead
EXTRN	__fltused:DWORD
_BSS	SEGMENT
?dp88_Ore_Miner_Registrant@@3V?$ScriptRegistrant@Vdp88_Ore_Miner@@@@A DB 010H DUP (?) ; dp88_Ore_Miner_Registrant
?dp88_AR_Chrono_Miner_Registrant@@3V?$ScriptRegistrant@Vdp88_AR_Chrono_Miner@@@@A DB 010H DUP (?) ; dp88_AR_Chrono_Miner_Registrant
?dp88_AR_Chrono_Miner_Chronozone_Registrant@@3V?$ScriptRegistrant@Vdp88_AR_Chrono_Miner_Chronozone@@@@A DB 010H DUP (?) ; dp88_AR_Chrono_Miner_Chronozone_Registrant
?dp88_Ore_Field_Registrant@@3V?$ScriptRegistrant@Vdp88_Ore_Field@@@@A DB 010H DUP (?) ; dp88_Ore_Field_Registrant
?dp88_Ore_Extractor_Registrant@@3V?$ScriptRegistrant@Vdp88_Ore_Extractor@@@@A DB 010H DUP (?) ; dp88_Ore_Extractor_Registrant
?dp88_Ore_Dump_Zone_Registrant@@3V?$ScriptRegistrant@Vdp88_Ore_Dump_Zone@@@@A DB 010H DUP (?) ; dp88_Ore_Dump_Zone_Registrant
?dp88_AR_Paradrop_Registrant@@3V?$ScriptRegistrant@Vdp88_AR_Paradrop@@@@A DB 010H DUP (?) ; dp88_AR_Paradrop_Registrant
?dp88_AR_GameController_Registrant@@3V?$ScriptRegistrant@Vdp88_AR_GameController@@@@A DB 010H DUP (?) ; dp88_AR_GameController_Registrant
?dp88_AR_Deployable_Infantry_Registrant@@3V?$ScriptRegistrant@Vdp88_AR_Deployable_Infantry@@@@A DB 010H DUP (?) ; dp88_AR_Deployable_Infantry_Registrant
?dp88_AR_CLEG_Registrant@@3V?$ScriptRegistrant@Vdp88_AR_CLEG@@@@A DB 010H DUP (?) ; dp88_AR_CLEG_Registrant
?dp88_AR_CLEG_target_Registrant@@3V?$ScriptRegistrant@Vdp88_AR_CLEG_target@@@@A DB 010H DUP (?) ; dp88_AR_CLEG_target_Registrant
?dp88_Aircraft_LandingZone_Registrant@@3V?$ScriptRegistrant@Vdp88_Aircraft_LandingZone@@@@A DB 010H DUP (?) ; dp88_Aircraft_LandingZone_Registrant
?dp88_Aircraft_LandingZone_Aircraft_Registrant@@3V?$ScriptRegistrant@Vdp88_Aircraft_LandingZone_Aircraft@@@@A DB 010H DUP (?) ; dp88_Aircraft_LandingZone_Aircraft_Registrant
?dp88_RemoteControlConsole_Registrant@@3V?$ScriptRegistrant@Vdp88_RemoteControlConsole@@@@A DB 010H DUP (?) ; dp88_RemoteControlConsole_Registrant
?dp88_RemoteControlVehicle_Registrant@@3V?$ScriptRegistrant@Vdp88_RemoteControlVehicle@@@@A DB 010H DUP (?) ; dp88_RemoteControlVehicle_Registrant
?dp88_AR_DemoTruck_Registrant@@3V?$ScriptRegistrant@Vdp88_AR_DemoTruck@@@@A DB 010H DUP (?) ; dp88_AR_DemoTruck_Registrant
?dp88_AR_paradrop_Console_Registrant@@3V?$ScriptRegistrant@Vdp88_AR_paradrop_Console@@@@A DB 010H DUP (?) ; dp88_AR_paradrop_Console_Registrant
?dp88_AR_Prism_Tower_Registrant@@3V?$ScriptRegistrant@Vdp88_AR_Prism_Tower@@@@A DB 010H DUP (?) ; dp88_AR_Prism_Tower_Registrant
?dp88_linkHealth_Registrant@@3V?$ScriptRegistrant@Vdp88_linkHealth@@@@A DB 010H DUP (?) ; dp88_linkHealth_Registrant
_BSS	ENDS
;	COMDAT ?instancex@?1??getInstance@?$Singleton@V?$ObjectPoolClass@VGenericSLNode@@$0BAA@@@@@SAAAV?$ObjectPoolClass@VGenericSLNode@@$0BAA@@@XZ@4V3@A
_BSS	SEGMENT
?instancex@?1??getInstance@?$Singleton@V?$ObjectPoolClass@VGenericSLNode@@$0BAA@@@@@SAAAV?$ObjectPoolClass@VGenericSLNode@@$0BAA@@@XZ@4V3@A DB 014H DUP (?) ; `Singleton<ObjectPoolClass<GenericSLNode,256> >::getInstance'::`2'::instancex
_BSS	ENDS
;	COMDAT ??_B?1??getInstance@?$Singleton@V?$ObjectPoolClass@VGenericSLNode@@$0BAA@@@@@SAAAV?$ObjectPoolClass@VGenericSLNode@@$0BAA@@@XZ@51
_BSS	SEGMENT
??_B?1??getInstance@?$Singleton@V?$ObjectPoolClass@VGenericSLNode@@$0BAA@@@@@SAAAV?$ObjectPoolClass@VGenericSLNode@@$0BAA@@@XZ@51 DD 01H DUP (?) ; `Singleton<ObjectPoolClass<GenericSLNode,256> >::getInstance'::`2'::`local static guard'
_BSS	ENDS
CRT$XCU	SEGMENT
_dp88_Ore_Miner_Registrant$initializer$ DD FLAT:??__Edp88_Ore_Miner_Registrant@@YAXXZ
CRT$XCU	ENDS
;	COMDAT __xmm@80000000800000008000000080000000
CONST	SEGMENT
__xmm@80000000800000008000000080000000 DB 00H, 00H, 00H, 080H, 00H, 00H, 00H
	DB	080H, 00H, 00H, 00H, 080H, 00H, 00H, 00H, 080H
CONST	ENDS
;	COMDAT __xmm@80000000000000008000000000000000
CONST	SEGMENT
__xmm@80000000000000008000000000000000 DB 00H, 00H, 00H, 00H, 00H, 00H, 00H
	DB	080H, 00H, 00H, 00H, 00H, 00H, 00H, 00H, 080H
CONST	ENDS
;	COMDAT __xmm@7fffffffffffffff7fffffffffffffff
CONST	SEGMENT
__xmm@7fffffffffffffff7fffffffffffffff DB 0ffH, 0ffH, 0ffH, 0ffH, 0ffH, 0ffH
	DB	0ffH, 07fH, 0ffH, 0ffH, 0ffH, 0ffH, 0ffH, 0ffH, 0ffH, 07fH
CONST	ENDS
;	COMDAT __xmm@41f00000000000000000000000000000
CONST	SEGMENT
__xmm@41f00000000000000000000000000000 DB 00H, 00H, 00H, 00H, 00H, 00H, 00H
	DB	00H, 00H, 00H, 00H, 00H, 00H, 00H, 0f0H, 'A'
CONST	ENDS
;	COMDAT __real@c2200000
CONST	SEGMENT
__real@c2200000 DD 0c2200000r			; -40
CONST	ENDS
;	COMDAT __real@c0000000
CONST	SEGMENT
__real@c0000000 DD 0c0000000r			; -2
CONST	ENDS
;	COMDAT __real@bf800000
CONST	SEGMENT
__real@bf800000 DD 0bf800000r			; -1
CONST	ENDS
;	COMDAT __real@461c4000
CONST	SEGMENT
__real@461c4000 DD 0461c4000r			; 10000
CONST	ENDS
;	COMDAT __real@459c4000
CONST	SEGMENT
__real@459c4000 DD 0459c4000r			; 5000
CONST	ENDS
;	COMDAT __real@44800000
CONST	SEGMENT
__real@44800000 DD 044800000r			; 1024
CONST	ENDS
;	COMDAT __real@44000000
CONST	SEGMENT
__real@44000000 DD 044000000r			; 512
CONST	ENDS
;	COMDAT __real@43fa0000
CONST	SEGMENT
__real@43fa0000 DD 043fa0000r			; 500
CONST	ENDS
;	COMDAT __real@437f0000
CONST	SEGMENT
__real@437f0000 DD 0437f0000r			; 255
CONST	ENDS
;	COMDAT __real@43340000
CONST	SEGMENT
__real@43340000 DD 043340000r			; 180
CONST	ENDS
;	COMDAT __real@43160000
CONST	SEGMENT
__real@43160000 DD 043160000r			; 150
CONST	ENDS
;	COMDAT __real@42dc0000
CONST	SEGMENT
__real@42dc0000 DD 042dc0000r			; 110
CONST	ENDS
;	COMDAT __real@42ca0000
CONST	SEGMENT
__real@42ca0000 DD 042ca0000r			; 101
CONST	ENDS
;	COMDAT __real@42c80000
CONST	SEGMENT
__real@42c80000 DD 042c80000r			; 100
CONST	ENDS
;	COMDAT __real@42b40000
CONST	SEGMENT
__real@42b40000 DD 042b40000r			; 90
CONST	ENDS
;	COMDAT __real@42480000
CONST	SEGMENT
__real@42480000 DD 042480000r			; 50
CONST	ENDS
;	COMDAT __real@42200000
CONST	SEGMENT
__real@42200000 DD 042200000r			; 40
CONST	ENDS
;	COMDAT __real@41c80000
CONST	SEGMENT
__real@41c80000 DD 041c80000r			; 25
CONST	ENDS
;	COMDAT __real@41a00000
CONST	SEGMENT
__real@41a00000 DD 041a00000r			; 20
CONST	ENDS
;	COMDAT __real@41200000
CONST	SEGMENT
__real@41200000 DD 041200000r			; 10
CONST	ENDS
;	COMDAT __real@40c90fdb
CONST	SEGMENT
__real@40c90fdb DD 040c90fdbr			; 6.28319
CONST	ENDS
;	COMDAT __real@40a00000
CONST	SEGMENT
__real@40a00000 DD 040a00000r			; 5
CONST	ENDS
;	COMDAT __real@40490fdb
CONST	SEGMENT
__real@40490fdb DD 040490fdbr			; 3.14159
CONST	ENDS
;	COMDAT __real@4014000000000000
CONST	SEGMENT
__real@4014000000000000 DQ 04014000000000000r	; 5
CONST	ENDS
;	COMDAT __real@4000000000000000
CONST	SEGMENT
__real@4000000000000000 DQ 04000000000000000r	; 2
CONST	ENDS
;	COMDAT __real@40000000
CONST	SEGMENT
__real@40000000 DD 040000000r			; 2
CONST	ENDS
;	COMDAT __real@3ff0000000000000
CONST	SEGMENT
__real@3ff0000000000000 DQ 03ff0000000000000r	; 1
CONST	ENDS
;	COMDAT __real@3fe0000000000000
CONST	SEGMENT
__real@3fe0000000000000 DQ 03fe0000000000000r	; 0.5
CONST	ENDS
;	COMDAT __real@3fc90fdb
CONST	SEGMENT
__real@3fc90fdb DD 03fc90fdbr			; 1.5708
CONST	ENDS
;	COMDAT __real@3fc00000
CONST	SEGMENT
__real@3fc00000 DD 03fc00000r			; 1.5
CONST	ENDS
;	COMDAT __real@3f800000
CONST	SEGMENT
__real@3f800000 DD 03f800000r			; 1
CONST	ENDS
;	COMDAT __real@3f79999a
CONST	SEGMENT
__real@3f79999a DD 03f79999ar			; 0.975
CONST	ENDS
;	COMDAT __real@3f50624dd2f1a9fc
CONST	SEGMENT
__real@3f50624dd2f1a9fc DQ 03f50624dd2f1a9fcr	; 0.001
CONST	ENDS
;	COMDAT __real@3f000000
CONST	SEGMENT
__real@3f000000 DD 03f000000r			; 0.5
CONST	ENDS
;	COMDAT __real@3e800000
CONST	SEGMENT
__real@3e800000 DD 03e800000r			; 0.25
CONST	ENDS
;	COMDAT __real@3e4ccccd
CONST	SEGMENT
__real@3e4ccccd DD 03e4ccccdr			; 0.2
CONST	ENDS
;	COMDAT __real@02081cea
CONST	SEGMENT
__real@02081cea DD 002081cear			; 1e-037
CONST	ENDS
;	COMDAT __real@0000000000000000
CONST	SEGMENT
__real@0000000000000000 DQ 00000000000000000r	; 0
CONST	ENDS
;	COMDAT __real@00000000
CONST	SEGMENT
__real@00000000 DD 000000000r			; 0
CONST	ENDS
;	COMDAT ??_R1A@?0A@EA@?$ScriptRegistrant@Vdp88_linkHealth@@@@8
rdata$r	SEGMENT
??_R1A@?0A@EA@?$ScriptRegistrant@Vdp88_linkHealth@@@@8 DD FLAT:??_R0?AV?$ScriptRegistrant@Vdp88_linkHealth@@@@@8 ; ScriptRegistrant<dp88_linkHealth>::`RTTI Base Class Descriptor at (0,-1,0,64)'
	DD	01H
	DD	00H
	DD	0ffffffffH
	DD	00H
	DD	040H
	DD	FLAT:??_R3?$ScriptRegistrant@Vdp88_linkHealth@@@@8
rdata$r	ENDS
;	COMDAT ??_R2?$ScriptRegistrant@Vdp88_linkHealth@@@@8
rdata$r	SEGMENT
??_R2?$ScriptRegistrant@Vdp88_linkHealth@@@@8 DD FLAT:??_R1A@?0A@EA@?$ScriptRegistrant@Vdp88_linkHealth@@@@8 ; ScriptRegistrant<dp88_linkHealth>::`RTTI Base Class Array'
	DD	FLAT:??_R1A@?0A@EA@ScriptFactory@@8
rdata$r	ENDS
;	COMDAT ??_R3?$ScriptRegistrant@Vdp88_linkHealth@@@@8
rdata$r	SEGMENT
??_R3?$ScriptRegistrant@Vdp88_linkHealth@@@@8 DD 00H	; ScriptRegistrant<dp88_linkHealth>::`RTTI Class Hierarchy Descriptor'
	DD	00H
	DD	02H
	DD	FLAT:??_R2?$ScriptRegistrant@Vdp88_linkHealth@@@@8
rdata$r	ENDS
;	COMDAT ??_R0?AV?$ScriptRegistrant@Vdp88_linkHealth@@@@@8
_DATA	SEGMENT
??_R0?AV?$ScriptRegistrant@Vdp88_linkHealth@@@@@8 DD FLAT:??_7type_info@@6B@ ; ScriptRegistrant<dp88_linkHealth> `RTTI Type Descriptor'
	DD	00H
	DB	'.?AV?$ScriptRegistrant@Vdp88_linkHealth@@@@', 00H
_DATA	ENDS
;	COMDAT ??_R4?$ScriptRegistrant@Vdp88_linkHealth@@@@6B@
rdata$r	SEGMENT
??_R4?$ScriptRegistrant@Vdp88_linkHealth@@@@6B@ DD 00H	; ScriptRegistrant<dp88_linkHealth>::`RTTI Complete Object Locator'
	DD	00H
	DD	00H
	DD	FLAT:??_R0?AV?$ScriptRegistrant@Vdp88_linkHealth@@@@@8
	DD	FLAT:??_R3?$ScriptRegistrant@Vdp88_linkHealth@@@@8
rdata$r	ENDS
;	COMDAT ??_R1A@?0A@EA@?$ScriptRegistrant@Vdp88_AR_Prism_Tower@@@@8
rdata$r	SEGMENT
??_R1A@?0A@EA@?$ScriptRegistrant@Vdp88_AR_Prism_Tower@@@@8 DD FLAT:??_R0?AV?$ScriptRegistrant@Vdp88_AR_Prism_Tower@@@@@8 ; ScriptRegistrant<dp88_AR_Prism_Tower>::`RTTI Base Class Descriptor at (0,-1,0,64)'
	DD	01H
	DD	00H
	DD	0ffffffffH
	DD	00H
	DD	040H
	DD	FLAT:??_R3?$ScriptRegistrant@Vdp88_AR_Prism_Tower@@@@8
rdata$r	ENDS
;	COMDAT ??_R2?$ScriptRegistrant@Vdp88_AR_Prism_Tower@@@@8
rdata$r	SEGMENT
??_R2?$ScriptRegistrant@Vdp88_AR_Prism_Tower@@@@8 DD FLAT:??_R1A@?0A@EA@?$ScriptRegistrant@Vdp88_AR_Prism_Tower@@@@8 ; ScriptRegistrant<dp88_AR_Prism_Tower>::`RTTI Base Class Array'
	DD	FLAT:??_R1A@?0A@EA@ScriptFactory@@8
rdata$r	ENDS
;	COMDAT ??_R3?$ScriptRegistrant@Vdp88_AR_Prism_Tower@@@@8
rdata$r	SEGMENT
??_R3?$ScriptRegistrant@Vdp88_AR_Prism_Tower@@@@8 DD 00H ; ScriptRegistrant<dp88_AR_Prism_Tower>::`RTTI Class Hierarchy Descriptor'
	DD	00H
	DD	02H
	DD	FLAT:??_R2?$ScriptRegistrant@Vdp88_AR_Prism_Tower@@@@8
rdata$r	ENDS
;	COMDAT ??_R0?AV?$ScriptRegistrant@Vdp88_AR_Prism_Tower@@@@@8
_DATA	SEGMENT
??_R0?AV?$ScriptRegistrant@Vdp88_AR_Prism_Tower@@@@@8 DD FLAT:??_7type_info@@6B@ ; ScriptRegistrant<dp88_AR_Prism_Tower> `RTTI Type Descriptor'
	DD	00H
	DB	'.?AV?$ScriptRegistrant@Vdp88_AR_Prism_Tower@@@@', 00H
_DATA	ENDS
;	COMDAT ??_R4?$ScriptRegistrant@Vdp88_AR_Prism_Tower@@@@6B@
rdata$r	SEGMENT
??_R4?$ScriptRegistrant@Vdp88_AR_Prism_Tower@@@@6B@ DD 00H ; ScriptRegistrant<dp88_AR_Prism_Tower>::`RTTI Complete Object Locator'
	DD	00H
	DD	00H
	DD	FLAT:??_R0?AV?$ScriptRegistrant@Vdp88_AR_Prism_Tower@@@@@8
	DD	FLAT:??_R3?$ScriptRegistrant@Vdp88_AR_Prism_Tower@@@@8
rdata$r	ENDS
;	COMDAT ??_R1A@?0A@EA@?$ScriptRegistrant@Vdp88_AR_paradrop_Console@@@@8
rdata$r	SEGMENT
??_R1A@?0A@EA@?$ScriptRegistrant@Vdp88_AR_paradrop_Console@@@@8 DD FLAT:??_R0?AV?$ScriptRegistrant@Vdp88_AR_paradrop_Console@@@@@8 ; ScriptRegistrant<dp88_AR_paradrop_Console>::`RTTI Base Class Descriptor at (0,-1,0,64)'
	DD	01H
	DD	00H
	DD	0ffffffffH
	DD	00H
	DD	040H
	DD	FLAT:??_R3?$ScriptRegistrant@Vdp88_AR_paradrop_Console@@@@8
rdata$r	ENDS
;	COMDAT ??_R2?$ScriptRegistrant@Vdp88_AR_paradrop_Console@@@@8
rdata$r	SEGMENT
??_R2?$ScriptRegistrant@Vdp88_AR_paradrop_Console@@@@8 DD FLAT:??_R1A@?0A@EA@?$ScriptRegistrant@Vdp88_AR_paradrop_Console@@@@8 ; ScriptRegistrant<dp88_AR_paradrop_Console>::`RTTI Base Class Array'
	DD	FLAT:??_R1A@?0A@EA@ScriptFactory@@8
rdata$r	ENDS
;	COMDAT ??_R3?$ScriptRegistrant@Vdp88_AR_paradrop_Console@@@@8
rdata$r	SEGMENT
??_R3?$ScriptRegistrant@Vdp88_AR_paradrop_Console@@@@8 DD 00H ; ScriptRegistrant<dp88_AR_paradrop_Console>::`RTTI Class Hierarchy Descriptor'
	DD	00H
	DD	02H
	DD	FLAT:??_R2?$ScriptRegistrant@Vdp88_AR_paradrop_Console@@@@8
rdata$r	ENDS
;	COMDAT ??_R0?AV?$ScriptRegistrant@Vdp88_AR_paradrop_Console@@@@@8
_DATA	SEGMENT
??_R0?AV?$ScriptRegistrant@Vdp88_AR_paradrop_Console@@@@@8 DD FLAT:??_7type_info@@6B@ ; ScriptRegistrant<dp88_AR_paradrop_Console> `RTTI Type Descriptor'
	DD	00H
	DB	'.?AV?$ScriptRegistrant@Vdp88_AR_paradrop_Console@@@@', 00H
_DATA	ENDS
;	COMDAT ??_R4?$ScriptRegistrant@Vdp88_AR_paradrop_Console@@@@6B@
rdata$r	SEGMENT
??_R4?$ScriptRegistrant@Vdp88_AR_paradrop_Console@@@@6B@ DD 00H ; ScriptRegistrant<dp88_AR_paradrop_Console>::`RTTI Complete Object Locator'
	DD	00H
	DD	00H
	DD	FLAT:??_R0?AV?$ScriptRegistrant@Vdp88_AR_paradrop_Console@@@@@8
	DD	FLAT:??_R3?$ScriptRegistrant@Vdp88_AR_paradrop_Console@@@@8
rdata$r	ENDS
;	COMDAT ??_R1A@?0A@EA@?$ScriptRegistrant@Vdp88_AR_DemoTruck@@@@8
rdata$r	SEGMENT
??_R1A@?0A@EA@?$ScriptRegistrant@Vdp88_AR_DemoTruck@@@@8 DD FLAT:??_R0?AV?$ScriptRegistrant@Vdp88_AR_DemoTruck@@@@@8 ; ScriptRegistrant<dp88_AR_DemoTruck>::`RTTI Base Class Descriptor at (0,-1,0,64)'
	DD	01H
	DD	00H
	DD	0ffffffffH
	DD	00H
	DD	040H
	DD	FLAT:??_R3?$ScriptRegistrant@Vdp88_AR_DemoTruck@@@@8
rdata$r	ENDS
;	COMDAT ??_R2?$ScriptRegistrant@Vdp88_AR_DemoTruck@@@@8
rdata$r	SEGMENT
??_R2?$ScriptRegistrant@Vdp88_AR_DemoTruck@@@@8 DD FLAT:??_R1A@?0A@EA@?$ScriptRegistrant@Vdp88_AR_DemoTruck@@@@8 ; ScriptRegistrant<dp88_AR_DemoTruck>::`RTTI Base Class Array'
	DD	FLAT:??_R1A@?0A@EA@ScriptFactory@@8
rdata$r	ENDS
;	COMDAT ??_R3?$ScriptRegistrant@Vdp88_AR_DemoTruck@@@@8
rdata$r	SEGMENT
??_R3?$ScriptRegistrant@Vdp88_AR_DemoTruck@@@@8 DD 00H	; ScriptRegistrant<dp88_AR_DemoTruck>::`RTTI Class Hierarchy Descriptor'
	DD	00H
	DD	02H
	DD	FLAT:??_R2?$ScriptRegistrant@Vdp88_AR_DemoTruck@@@@8
rdata$r	ENDS
;	COMDAT ??_R0?AV?$ScriptRegistrant@Vdp88_AR_DemoTruck@@@@@8
_DATA	SEGMENT
??_R0?AV?$ScriptRegistrant@Vdp88_AR_DemoTruck@@@@@8 DD FLAT:??_7type_info@@6B@ ; ScriptRegistrant<dp88_AR_DemoTruck> `RTTI Type Descriptor'
	DD	00H
	DB	'.?AV?$ScriptRegistrant@Vdp88_AR_DemoTruck@@@@', 00H
_DATA	ENDS
;	COMDAT ??_R4?$ScriptRegistrant@Vdp88_AR_DemoTruck@@@@6B@
rdata$r	SEGMENT
??_R4?$ScriptRegistrant@Vdp88_AR_DemoTruck@@@@6B@ DD 00H ; ScriptRegistrant<dp88_AR_DemoTruck>::`RTTI Complete Object Locator'
	DD	00H
	DD	00H
	DD	FLAT:??_R0?AV?$ScriptRegistrant@Vdp88_AR_DemoTruck@@@@@8
	DD	FLAT:??_R3?$ScriptRegistrant@Vdp88_AR_DemoTruck@@@@8
rdata$r	ENDS
;	COMDAT ??_R1A@?0A@EA@?$ScriptRegistrant@Vdp88_RemoteControlVehicle@@@@8
rdata$r	SEGMENT
??_R1A@?0A@EA@?$ScriptRegistrant@Vdp88_RemoteControlVehicle@@@@8 DD FLAT:??_R0?AV?$ScriptRegistrant@Vdp88_RemoteControlVehicle@@@@@8 ; ScriptRegistrant<dp88_RemoteControlVehicle>::`RTTI Base Class Descriptor at (0,-1,0,64)'
	DD	01H
	DD	00H
	DD	0ffffffffH
	DD	00H
	DD	040H
	DD	FLAT:??_R3?$ScriptRegistrant@Vdp88_RemoteControlVehicle@@@@8
rdata$r	ENDS
;	COMDAT ??_R2?$ScriptRegistrant@Vdp88_RemoteControlVehicle@@@@8
rdata$r	SEGMENT
??_R2?$ScriptRegistrant@Vdp88_RemoteControlVehicle@@@@8 DD FLAT:??_R1A@?0A@EA@?$ScriptRegistrant@Vdp88_RemoteControlVehicle@@@@8 ; ScriptRegistrant<dp88_RemoteControlVehicle>::`RTTI Base Class Array'
	DD	FLAT:??_R1A@?0A@EA@ScriptFactory@@8
rdata$r	ENDS
;	COMDAT ??_R3?$ScriptRegistrant@Vdp88_RemoteControlVehicle@@@@8
rdata$r	SEGMENT
??_R3?$ScriptRegistrant@Vdp88_RemoteControlVehicle@@@@8 DD 00H ; ScriptRegistrant<dp88_RemoteControlVehicle>::`RTTI Class Hierarchy Descriptor'
	DD	00H
	DD	02H
	DD	FLAT:??_R2?$ScriptRegistrant@Vdp88_RemoteControlVehicle@@@@8
rdata$r	ENDS
;	COMDAT ??_R0?AV?$ScriptRegistrant@Vdp88_RemoteControlVehicle@@@@@8
_DATA	SEGMENT
??_R0?AV?$ScriptRegistrant@Vdp88_RemoteControlVehicle@@@@@8 DD FLAT:??_7type_info@@6B@ ; ScriptRegistrant<dp88_RemoteControlVehicle> `RTTI Type Descriptor'
	DD	00H
	DB	'.?AV?$ScriptRegistrant@Vdp88_RemoteControlVehicle@@@@', 00H
_DATA	ENDS
;	COMDAT ??_R4?$ScriptRegistrant@Vdp88_RemoteControlVehicle@@@@6B@
rdata$r	SEGMENT
??_R4?$ScriptRegistrant@Vdp88_RemoteControlVehicle@@@@6B@ DD 00H ; ScriptRegistrant<dp88_RemoteControlVehicle>::`RTTI Complete Object Locator'
	DD	00H
	DD	00H
	DD	FLAT:??_R0?AV?$ScriptRegistrant@Vdp88_RemoteControlVehicle@@@@@8
	DD	FLAT:??_R3?$ScriptRegistrant@Vdp88_RemoteControlVehicle@@@@8
rdata$r	ENDS
;	COMDAT ??_R1A@?0A@EA@?$ScriptRegistrant@Vdp88_RemoteControlConsole@@@@8
rdata$r	SEGMENT
??_R1A@?0A@EA@?$ScriptRegistrant@Vdp88_RemoteControlConsole@@@@8 DD FLAT:??_R0?AV?$ScriptRegistrant@Vdp88_RemoteControlConsole@@@@@8 ; ScriptRegistrant<dp88_RemoteControlConsole>::`RTTI Base Class Descriptor at (0,-1,0,64)'
	DD	01H
	DD	00H
	DD	0ffffffffH
	DD	00H
	DD	040H
	DD	FLAT:??_R3?$ScriptRegistrant@Vdp88_RemoteControlConsole@@@@8
rdata$r	ENDS
;	COMDAT ??_R2?$ScriptRegistrant@Vdp88_RemoteControlConsole@@@@8
rdata$r	SEGMENT
??_R2?$ScriptRegistrant@Vdp88_RemoteControlConsole@@@@8 DD FLAT:??_R1A@?0A@EA@?$ScriptRegistrant@Vdp88_RemoteControlConsole@@@@8 ; ScriptRegistrant<dp88_RemoteControlConsole>::`RTTI Base Class Array'
	DD	FLAT:??_R1A@?0A@EA@ScriptFactory@@8
rdata$r	ENDS
;	COMDAT ??_R3?$ScriptRegistrant@Vdp88_RemoteControlConsole@@@@8
rdata$r	SEGMENT
??_R3?$ScriptRegistrant@Vdp88_RemoteControlConsole@@@@8 DD 00H ; ScriptRegistrant<dp88_RemoteControlConsole>::`RTTI Class Hierarchy Descriptor'
	DD	00H
	DD	02H
	DD	FLAT:??_R2?$ScriptRegistrant@Vdp88_RemoteControlConsole@@@@8
rdata$r	ENDS
;	COMDAT ??_R0?AV?$ScriptRegistrant@Vdp88_RemoteControlConsole@@@@@8
_DATA	SEGMENT
??_R0?AV?$ScriptRegistrant@Vdp88_RemoteControlConsole@@@@@8 DD FLAT:??_7type_info@@6B@ ; ScriptRegistrant<dp88_RemoteControlConsole> `RTTI Type Descriptor'
	DD	00H
	DB	'.?AV?$ScriptRegistrant@Vdp88_RemoteControlConsole@@@@', 00H
_DATA	ENDS
;	COMDAT ??_R4?$ScriptRegistrant@Vdp88_RemoteControlConsole@@@@6B@
rdata$r	SEGMENT
??_R4?$ScriptRegistrant@Vdp88_RemoteControlConsole@@@@6B@ DD 00H ; ScriptRegistrant<dp88_RemoteControlConsole>::`RTTI Complete Object Locator'
	DD	00H
	DD	00H
	DD	FLAT:??_R0?AV?$ScriptRegistrant@Vdp88_RemoteControlConsole@@@@@8
	DD	FLAT:??_R3?$ScriptRegistrant@Vdp88_RemoteControlConsole@@@@8
rdata$r	ENDS
;	COMDAT ??_R1A@?0A@EA@?$ScriptRegistrant@Vdp88_Aircraft_LandingZone_Aircraft@@@@8
rdata$r	SEGMENT
??_R1A@?0A@EA@?$ScriptRegistrant@Vdp88_Aircraft_LandingZone_Aircraft@@@@8 DD FLAT:??_R0?AV?$ScriptRegistrant@Vdp88_Aircraft_LandingZone_Aircraft@@@@@8 ; ScriptRegistrant<dp88_Aircraft_LandingZone_Aircraft>::`RTTI Base Class Descriptor at (0,-1,0,64)'
	DD	01H
	DD	00H
	DD	0ffffffffH
	DD	00H
	DD	040H
	DD	FLAT:??_R3?$ScriptRegistrant@Vdp88_Aircraft_LandingZone_Aircraft@@@@8
rdata$r	ENDS
;	COMDAT ??_R2?$ScriptRegistrant@Vdp88_Aircraft_LandingZone_Aircraft@@@@8
rdata$r	SEGMENT
??_R2?$ScriptRegistrant@Vdp88_Aircraft_LandingZone_Aircraft@@@@8 DD FLAT:??_R1A@?0A@EA@?$ScriptRegistrant@Vdp88_Aircraft_LandingZone_Aircraft@@@@8 ; ScriptRegistrant<dp88_Aircraft_LandingZone_Aircraft>::`RTTI Base Class Array'
	DD	FLAT:??_R1A@?0A@EA@ScriptFactory@@8
rdata$r	ENDS
;	COMDAT ??_R3?$ScriptRegistrant@Vdp88_Aircraft_LandingZone_Aircraft@@@@8
rdata$r	SEGMENT
??_R3?$ScriptRegistrant@Vdp88_Aircraft_LandingZone_Aircraft@@@@8 DD 00H ; ScriptRegistrant<dp88_Aircraft_LandingZone_Aircraft>::`RTTI Class Hierarchy Descriptor'
	DD	00H
	DD	02H
	DD	FLAT:??_R2?$ScriptRegistrant@Vdp88_Aircraft_LandingZone_Aircraft@@@@8
rdata$r	ENDS
;	COMDAT ??_R0?AV?$ScriptRegistrant@Vdp88_Aircraft_LandingZone_Aircraft@@@@@8
_DATA	SEGMENT
??_R0?AV?$ScriptRegistrant@Vdp88_Aircraft_LandingZone_Aircraft@@@@@8 DD FLAT:??_7type_info@@6B@ ; ScriptRegistrant<dp88_Aircraft_LandingZone_Aircraft> `RTTI Type Descriptor'
	DD	00H
	DB	'.?AV?$ScriptRegistrant@Vdp88_Aircraft_LandingZone_Aircra'
	DB	'ft@@@@', 00H
_DATA	ENDS
;	COMDAT ??_R4?$ScriptRegistrant@Vdp88_Aircraft_LandingZone_Aircraft@@@@6B@
rdata$r	SEGMENT
??_R4?$ScriptRegistrant@Vdp88_Aircraft_LandingZone_Aircraft@@@@6B@ DD 00H ; ScriptRegistrant<dp88_Aircraft_LandingZone_Aircraft>::`RTTI Complete Object Locator'
	DD	00H
	DD	00H
	DD	FLAT:??_R0?AV?$ScriptRegistrant@Vdp88_Aircraft_LandingZone_Aircraft@@@@@8
	DD	FLAT:??_R3?$ScriptRegistrant@Vdp88_Aircraft_LandingZone_Aircraft@@@@8
rdata$r	ENDS
;	COMDAT ??_R1A@?0A@EA@?$ScriptRegistrant@Vdp88_Aircraft_LandingZone@@@@8
rdata$r	SEGMENT
??_R1A@?0A@EA@?$ScriptRegistrant@Vdp88_Aircraft_LandingZone@@@@8 DD FLAT:??_R0?AV?$ScriptRegistrant@Vdp88_Aircraft_LandingZone@@@@@8 ; ScriptRegistrant<dp88_Aircraft_LandingZone>::`RTTI Base Class Descriptor at (0,-1,0,64)'
	DD	01H
	DD	00H
	DD	0ffffffffH
	DD	00H
	DD	040H
	DD	FLAT:??_R3?$ScriptRegistrant@Vdp88_Aircraft_LandingZone@@@@8
rdata$r	ENDS
;	COMDAT ??_R2?$ScriptRegistrant@Vdp88_Aircraft_LandingZone@@@@8
rdata$r	SEGMENT
??_R2?$ScriptRegistrant@Vdp88_Aircraft_LandingZone@@@@8 DD FLAT:??_R1A@?0A@EA@?$ScriptRegistrant@Vdp88_Aircraft_LandingZone@@@@8 ; ScriptRegistrant<dp88_Aircraft_LandingZone>::`RTTI Base Class Array'
	DD	FLAT:??_R1A@?0A@EA@ScriptFactory@@8
rdata$r	ENDS
;	COMDAT ??_R3?$ScriptRegistrant@Vdp88_Aircraft_LandingZone@@@@8
rdata$r	SEGMENT
??_R3?$ScriptRegistrant@Vdp88_Aircraft_LandingZone@@@@8 DD 00H ; ScriptRegistrant<dp88_Aircraft_LandingZone>::`RTTI Class Hierarchy Descriptor'
	DD	00H
	DD	02H
	DD	FLAT:??_R2?$ScriptRegistrant@Vdp88_Aircraft_LandingZone@@@@8
rdata$r	ENDS
;	COMDAT ??_R0?AV?$ScriptRegistrant@Vdp88_Aircraft_LandingZone@@@@@8
_DATA	SEGMENT
??_R0?AV?$ScriptRegistrant@Vdp88_Aircraft_LandingZone@@@@@8 DD FLAT:??_7type_info@@6B@ ; ScriptRegistrant<dp88_Aircraft_LandingZone> `RTTI Type Descriptor'
	DD	00H
	DB	'.?AV?$ScriptRegistrant@Vdp88_Aircraft_LandingZone@@@@', 00H
_DATA	ENDS
;	COMDAT ??_R4?$ScriptRegistrant@Vdp88_Aircraft_LandingZone@@@@6B@
rdata$r	SEGMENT
??_R4?$ScriptRegistrant@Vdp88_Aircraft_LandingZone@@@@6B@ DD 00H ; ScriptRegistrant<dp88_Aircraft_LandingZone>::`RTTI Complete Object Locator'
	DD	00H
	DD	00H
	DD	FLAT:??_R0?AV?$ScriptRegistrant@Vdp88_Aircraft_LandingZone@@@@@8
	DD	FLAT:??_R3?$ScriptRegistrant@Vdp88_Aircraft_LandingZone@@@@8
rdata$r	ENDS
;	COMDAT ??_R1A@?0A@EA@?$ScriptRegistrant@Vdp88_AR_CLEG_target@@@@8
rdata$r	SEGMENT
??_R1A@?0A@EA@?$ScriptRegistrant@Vdp88_AR_CLEG_target@@@@8 DD FLAT:??_R0?AV?$ScriptRegistrant@Vdp88_AR_CLEG_target@@@@@8 ; ScriptRegistrant<dp88_AR_CLEG_target>::`RTTI Base Class Descriptor at (0,-1,0,64)'
	DD	01H
	DD	00H
	DD	0ffffffffH
	DD	00H
	DD	040H
	DD	FLAT:??_R3?$ScriptRegistrant@Vdp88_AR_CLEG_target@@@@8
rdata$r	ENDS
;	COMDAT ??_R2?$ScriptRegistrant@Vdp88_AR_CLEG_target@@@@8
rdata$r	SEGMENT
??_R2?$ScriptRegistrant@Vdp88_AR_CLEG_target@@@@8 DD FLAT:??_R1A@?0A@EA@?$ScriptRegistrant@Vdp88_AR_CLEG_target@@@@8 ; ScriptRegistrant<dp88_AR_CLEG_target>::`RTTI Base Class Array'
	DD	FLAT:??_R1A@?0A@EA@ScriptFactory@@8
rdata$r	ENDS
;	COMDAT ??_R3?$ScriptRegistrant@Vdp88_AR_CLEG_target@@@@8
rdata$r	SEGMENT
??_R3?$ScriptRegistrant@Vdp88_AR_CLEG_target@@@@8 DD 00H ; ScriptRegistrant<dp88_AR_CLEG_target>::`RTTI Class Hierarchy Descriptor'
	DD	00H
	DD	02H
	DD	FLAT:??_R2?$ScriptRegistrant@Vdp88_AR_CLEG_target@@@@8
rdata$r	ENDS
;	COMDAT ??_R0?AV?$ScriptRegistrant@Vdp88_AR_CLEG_target@@@@@8
_DATA	SEGMENT
??_R0?AV?$ScriptRegistrant@Vdp88_AR_CLEG_target@@@@@8 DD FLAT:??_7type_info@@6B@ ; ScriptRegistrant<dp88_AR_CLEG_target> `RTTI Type Descriptor'
	DD	00H
	DB	'.?AV?$ScriptRegistrant@Vdp88_AR_CLEG_target@@@@', 00H
_DATA	ENDS
;	COMDAT ??_R4?$ScriptRegistrant@Vdp88_AR_CLEG_target@@@@6B@
rdata$r	SEGMENT
??_R4?$ScriptRegistrant@Vdp88_AR_CLEG_target@@@@6B@ DD 00H ; ScriptRegistrant<dp88_AR_CLEG_target>::`RTTI Complete Object Locator'
	DD	00H
	DD	00H
	DD	FLAT:??_R0?AV?$ScriptRegistrant@Vdp88_AR_CLEG_target@@@@@8
	DD	FLAT:??_R3?$ScriptRegistrant@Vdp88_AR_CLEG_target@@@@8
rdata$r	ENDS
;	COMDAT ??_R1A@?0A@EA@?$ScriptRegistrant@Vdp88_AR_CLEG@@@@8
rdata$r	SEGMENT
??_R1A@?0A@EA@?$ScriptRegistrant@Vdp88_AR_CLEG@@@@8 DD FLAT:??_R0?AV?$ScriptRegistrant@Vdp88_AR_CLEG@@@@@8 ; ScriptRegistrant<dp88_AR_CLEG>::`RTTI Base Class Descriptor at (0,-1,0,64)'
	DD	01H
	DD	00H
	DD	0ffffffffH
	DD	00H
	DD	040H
	DD	FLAT:??_R3?$ScriptRegistrant@Vdp88_AR_CLEG@@@@8
rdata$r	ENDS
;	COMDAT ??_R2?$ScriptRegistrant@Vdp88_AR_CLEG@@@@8
rdata$r	SEGMENT
??_R2?$ScriptRegistrant@Vdp88_AR_CLEG@@@@8 DD FLAT:??_R1A@?0A@EA@?$ScriptRegistrant@Vdp88_AR_CLEG@@@@8 ; ScriptRegistrant<dp88_AR_CLEG>::`RTTI Base Class Array'
	DD	FLAT:??_R1A@?0A@EA@ScriptFactory@@8
rdata$r	ENDS
;	COMDAT ??_R3?$ScriptRegistrant@Vdp88_AR_CLEG@@@@8
rdata$r	SEGMENT
??_R3?$ScriptRegistrant@Vdp88_AR_CLEG@@@@8 DD 00H	; ScriptRegistrant<dp88_AR_CLEG>::`RTTI Class Hierarchy Descriptor'
	DD	00H
	DD	02H
	DD	FLAT:??_R2?$ScriptRegistrant@Vdp88_AR_CLEG@@@@8
rdata$r	ENDS
;	COMDAT ??_R0?AV?$ScriptRegistrant@Vdp88_AR_CLEG@@@@@8
_DATA	SEGMENT
??_R0?AV?$ScriptRegistrant@Vdp88_AR_CLEG@@@@@8 DD FLAT:??_7type_info@@6B@ ; ScriptRegistrant<dp88_AR_CLEG> `RTTI Type Descriptor'
	DD	00H
	DB	'.?AV?$ScriptRegistrant@Vdp88_AR_CLEG@@@@', 00H
_DATA	ENDS
;	COMDAT ??_R4?$ScriptRegistrant@Vdp88_AR_CLEG@@@@6B@
rdata$r	SEGMENT
??_R4?$ScriptRegistrant@Vdp88_AR_CLEG@@@@6B@ DD 00H	; ScriptRegistrant<dp88_AR_CLEG>::`RTTI Complete Object Locator'
	DD	00H
	DD	00H
	DD	FLAT:??_R0?AV?$ScriptRegistrant@Vdp88_AR_CLEG@@@@@8
	DD	FLAT:??_R3?$ScriptRegistrant@Vdp88_AR_CLEG@@@@8
rdata$r	ENDS
;	COMDAT ??_R1A@?0A@EA@?$ScriptRegistrant@Vdp88_AR_Deployable_Infantry@@@@8
rdata$r	SEGMENT
??_R1A@?0A@EA@?$ScriptRegistrant@Vdp88_AR_Deployable_Infantry@@@@8 DD FLAT:??_R0?AV?$ScriptRegistrant@Vdp88_AR_Deployable_Infantry@@@@@8 ; ScriptRegistrant<dp88_AR_Deployable_Infantry>::`RTTI Base Class Descriptor at (0,-1,0,64)'
	DD	01H
	DD	00H
	DD	0ffffffffH
	DD	00H
	DD	040H
	DD	FLAT:??_R3?$ScriptRegistrant@Vdp88_AR_Deployable_Infantry@@@@8
rdata$r	ENDS
;	COMDAT ??_R2?$ScriptRegistrant@Vdp88_AR_Deployable_Infantry@@@@8
rdata$r	SEGMENT
??_R2?$ScriptRegistrant@Vdp88_AR_Deployable_Infantry@@@@8 DD FLAT:??_R1A@?0A@EA@?$ScriptRegistrant@Vdp88_AR_Deployable_Infantry@@@@8 ; ScriptRegistrant<dp88_AR_Deployable_Infantry>::`RTTI Base Class Array'
	DD	FLAT:??_R1A@?0A@EA@ScriptFactory@@8
rdata$r	ENDS
;	COMDAT ??_R3?$ScriptRegistrant@Vdp88_AR_Deployable_Infantry@@@@8
rdata$r	SEGMENT
??_R3?$ScriptRegistrant@Vdp88_AR_Deployable_Infantry@@@@8 DD 00H ; ScriptRegistrant<dp88_AR_Deployable_Infantry>::`RTTI Class Hierarchy Descriptor'
	DD	00H
	DD	02H
	DD	FLAT:??_R2?$ScriptRegistrant@Vdp88_AR_Deployable_Infantry@@@@8
rdata$r	ENDS
;	COMDAT ??_R0?AV?$ScriptRegistrant@Vdp88_AR_Deployable_Infantry@@@@@8
_DATA	SEGMENT
??_R0?AV?$ScriptRegistrant@Vdp88_AR_Deployable_Infantry@@@@@8 DD FLAT:??_7type_info@@6B@ ; ScriptRegistrant<dp88_AR_Deployable_Infantry> `RTTI Type Descriptor'
	DD	00H
	DB	'.?AV?$ScriptRegistrant@Vdp88_AR_Deployable_Infantry@@@@', 00H
_DATA	ENDS
;	COMDAT ??_R4?$ScriptRegistrant@Vdp88_AR_Deployable_Infantry@@@@6B@
rdata$r	SEGMENT
??_R4?$ScriptRegistrant@Vdp88_AR_Deployable_Infantry@@@@6B@ DD 00H ; ScriptRegistrant<dp88_AR_Deployable_Infantry>::`RTTI Complete Object Locator'
	DD	00H
	DD	00H
	DD	FLAT:??_R0?AV?$ScriptRegistrant@Vdp88_AR_Deployable_Infantry@@@@@8
	DD	FLAT:??_R3?$ScriptRegistrant@Vdp88_AR_Deployable_Infantry@@@@8
rdata$r	ENDS
;	COMDAT ??_R1A@?0A@EA@?$ScriptRegistrant@Vdp88_AR_GameController@@@@8
rdata$r	SEGMENT
??_R1A@?0A@EA@?$ScriptRegistrant@Vdp88_AR_GameController@@@@8 DD FLAT:??_R0?AV?$ScriptRegistrant@Vdp88_AR_GameController@@@@@8 ; ScriptRegistrant<dp88_AR_GameController>::`RTTI Base Class Descriptor at (0,-1,0,64)'
	DD	01H
	DD	00H
	DD	0ffffffffH
	DD	00H
	DD	040H
	DD	FLAT:??_R3?$ScriptRegistrant@Vdp88_AR_GameController@@@@8
rdata$r	ENDS
;	COMDAT ??_R2?$ScriptRegistrant@Vdp88_AR_GameController@@@@8
rdata$r	SEGMENT
??_R2?$ScriptRegistrant@Vdp88_AR_GameController@@@@8 DD FLAT:??_R1A@?0A@EA@?$ScriptRegistrant@Vdp88_AR_GameController@@@@8 ; ScriptRegistrant<dp88_AR_GameController>::`RTTI Base Class Array'
	DD	FLAT:??_R1A@?0A@EA@ScriptFactory@@8
rdata$r	ENDS
;	COMDAT ??_R3?$ScriptRegistrant@Vdp88_AR_GameController@@@@8
rdata$r	SEGMENT
??_R3?$ScriptRegistrant@Vdp88_AR_GameController@@@@8 DD 00H ; ScriptRegistrant<dp88_AR_GameController>::`RTTI Class Hierarchy Descriptor'
	DD	00H
	DD	02H
	DD	FLAT:??_R2?$ScriptRegistrant@Vdp88_AR_GameController@@@@8
rdata$r	ENDS
;	COMDAT ??_R0?AV?$ScriptRegistrant@Vdp88_AR_GameController@@@@@8
_DATA	SEGMENT
??_R0?AV?$ScriptRegistrant@Vdp88_AR_GameController@@@@@8 DD FLAT:??_7type_info@@6B@ ; ScriptRegistrant<dp88_AR_GameController> `RTTI Type Descriptor'
	DD	00H
	DB	'.?AV?$ScriptRegistrant@Vdp88_AR_GameController@@@@', 00H
_DATA	ENDS
;	COMDAT ??_R4?$ScriptRegistrant@Vdp88_AR_GameController@@@@6B@
rdata$r	SEGMENT
??_R4?$ScriptRegistrant@Vdp88_AR_GameController@@@@6B@ DD 00H ; ScriptRegistrant<dp88_AR_GameController>::`RTTI Complete Object Locator'
	DD	00H
	DD	00H
	DD	FLAT:??_R0?AV?$ScriptRegistrant@Vdp88_AR_GameController@@@@@8
	DD	FLAT:??_R3?$ScriptRegistrant@Vdp88_AR_GameController@@@@8
rdata$r	ENDS
;	COMDAT ??_R1A@?0A@EA@?$ScriptRegistrant@Vdp88_AR_Paradrop@@@@8
rdata$r	SEGMENT
??_R1A@?0A@EA@?$ScriptRegistrant@Vdp88_AR_Paradrop@@@@8 DD FLAT:??_R0?AV?$ScriptRegistrant@Vdp88_AR_Paradrop@@@@@8 ; ScriptRegistrant<dp88_AR_Paradrop>::`RTTI Base Class Descriptor at (0,-1,0,64)'
	DD	01H
	DD	00H
	DD	0ffffffffH
	DD	00H
	DD	040H
	DD	FLAT:??_R3?$ScriptRegistrant@Vdp88_AR_Paradrop@@@@8
rdata$r	ENDS
;	COMDAT ??_R2?$ScriptRegistrant@Vdp88_AR_Paradrop@@@@8
rdata$r	SEGMENT
??_R2?$ScriptRegistrant@Vdp88_AR_Paradrop@@@@8 DD FLAT:??_R1A@?0A@EA@?$ScriptRegistrant@Vdp88_AR_Paradrop@@@@8 ; ScriptRegistrant<dp88_AR_Paradrop>::`RTTI Base Class Array'
	DD	FLAT:??_R1A@?0A@EA@ScriptFactory@@8
rdata$r	ENDS
;	COMDAT ??_R3?$ScriptRegistrant@Vdp88_AR_Paradrop@@@@8
rdata$r	SEGMENT
??_R3?$ScriptRegistrant@Vdp88_AR_Paradrop@@@@8 DD 00H	; ScriptRegistrant<dp88_AR_Paradrop>::`RTTI Class Hierarchy Descriptor'
	DD	00H
	DD	02H
	DD	FLAT:??_R2?$ScriptRegistrant@Vdp88_AR_Paradrop@@@@8
rdata$r	ENDS
;	COMDAT ??_R0?AV?$ScriptRegistrant@Vdp88_AR_Paradrop@@@@@8
_DATA	SEGMENT
??_R0?AV?$ScriptRegistrant@Vdp88_AR_Paradrop@@@@@8 DD FLAT:??_7type_info@@6B@ ; ScriptRegistrant<dp88_AR_Paradrop> `RTTI Type Descriptor'
	DD	00H
	DB	'.?AV?$ScriptRegistrant@Vdp88_AR_Paradrop@@@@', 00H
_DATA	ENDS
;	COMDAT ??_R4?$ScriptRegistrant@Vdp88_AR_Paradrop@@@@6B@
rdata$r	SEGMENT
??_R4?$ScriptRegistrant@Vdp88_AR_Paradrop@@@@6B@ DD 00H	; ScriptRegistrant<dp88_AR_Paradrop>::`RTTI Complete Object Locator'
	DD	00H
	DD	00H
	DD	FLAT:??_R0?AV?$ScriptRegistrant@Vdp88_AR_Paradrop@@@@@8
	DD	FLAT:??_R3?$ScriptRegistrant@Vdp88_AR_Paradrop@@@@8
rdata$r	ENDS
;	COMDAT ??_R1A@?0A@EA@?$ScriptRegistrant@Vdp88_Ore_Dump_Zone@@@@8
rdata$r	SEGMENT
??_R1A@?0A@EA@?$ScriptRegistrant@Vdp88_Ore_Dump_Zone@@@@8 DD FLAT:??_R0?AV?$ScriptRegistrant@Vdp88_Ore_Dump_Zone@@@@@8 ; ScriptRegistrant<dp88_Ore_Dump_Zone>::`RTTI Base Class Descriptor at (0,-1,0,64)'
	DD	01H
	DD	00H
	DD	0ffffffffH
	DD	00H
	DD	040H
	DD	FLAT:??_R3?$ScriptRegistrant@Vdp88_Ore_Dump_Zone@@@@8
rdata$r	ENDS
;	COMDAT ??_R2?$ScriptRegistrant@Vdp88_Ore_Dump_Zone@@@@8
rdata$r	SEGMENT
??_R2?$ScriptRegistrant@Vdp88_Ore_Dump_Zone@@@@8 DD FLAT:??_R1A@?0A@EA@?$ScriptRegistrant@Vdp88_Ore_Dump_Zone@@@@8 ; ScriptRegistrant<dp88_Ore_Dump_Zone>::`RTTI Base Class Array'
	DD	FLAT:??_R1A@?0A@EA@ScriptFactory@@8
rdata$r	ENDS
;	COMDAT ??_R3?$ScriptRegistrant@Vdp88_Ore_Dump_Zone@@@@8
rdata$r	SEGMENT
??_R3?$ScriptRegistrant@Vdp88_Ore_Dump_Zone@@@@8 DD 00H	; ScriptRegistrant<dp88_Ore_Dump_Zone>::`RTTI Class Hierarchy Descriptor'
	DD	00H
	DD	02H
	DD	FLAT:??_R2?$ScriptRegistrant@Vdp88_Ore_Dump_Zone@@@@8
rdata$r	ENDS
;	COMDAT ??_R0?AV?$ScriptRegistrant@Vdp88_Ore_Dump_Zone@@@@@8
_DATA	SEGMENT
??_R0?AV?$ScriptRegistrant@Vdp88_Ore_Dump_Zone@@@@@8 DD FLAT:??_7type_info@@6B@ ; ScriptRegistrant<dp88_Ore_Dump_Zone> `RTTI Type Descriptor'
	DD	00H
	DB	'.?AV?$ScriptRegistrant@Vdp88_Ore_Dump_Zone@@@@', 00H
_DATA	ENDS
;	COMDAT ??_R4?$ScriptRegistrant@Vdp88_Ore_Dump_Zone@@@@6B@
rdata$r	SEGMENT
??_R4?$ScriptRegistrant@Vdp88_Ore_Dump_Zone@@@@6B@ DD 00H ; ScriptRegistrant<dp88_Ore_Dump_Zone>::`RTTI Complete Object Locator'
	DD	00H
	DD	00H
	DD	FLAT:??_R0?AV?$ScriptRegistrant@Vdp88_Ore_Dump_Zone@@@@@8
	DD	FLAT:??_R3?$ScriptRegistrant@Vdp88_Ore_Dump_Zone@@@@8
rdata$r	ENDS
;	COMDAT ??_R1A@?0A@EA@?$ScriptRegistrant@Vdp88_Ore_Extractor@@@@8
rdata$r	SEGMENT
??_R1A@?0A@EA@?$ScriptRegistrant@Vdp88_Ore_Extractor@@@@8 DD FLAT:??_R0?AV?$ScriptRegistrant@Vdp88_Ore_Extractor@@@@@8 ; ScriptRegistrant<dp88_Ore_Extractor>::`RTTI Base Class Descriptor at (0,-1,0,64)'
	DD	01H
	DD	00H
	DD	0ffffffffH
	DD	00H
	DD	040H
	DD	FLAT:??_R3?$ScriptRegistrant@Vdp88_Ore_Extractor@@@@8
rdata$r	ENDS
;	COMDAT ??_R2?$ScriptRegistrant@Vdp88_Ore_Extractor@@@@8
rdata$r	SEGMENT
??_R2?$ScriptRegistrant@Vdp88_Ore_Extractor@@@@8 DD FLAT:??_R1A@?0A@EA@?$ScriptRegistrant@Vdp88_Ore_Extractor@@@@8 ; ScriptRegistrant<dp88_Ore_Extractor>::`RTTI Base Class Array'
	DD	FLAT:??_R1A@?0A@EA@ScriptFactory@@8
rdata$r	ENDS
;	COMDAT ??_R3?$ScriptRegistrant@Vdp88_Ore_Extractor@@@@8
rdata$r	SEGMENT
??_R3?$ScriptRegistrant@Vdp88_Ore_Extractor@@@@8 DD 00H	; ScriptRegistrant<dp88_Ore_Extractor>::`RTTI Class Hierarchy Descriptor'
	DD	00H
	DD	02H
	DD	FLAT:??_R2?$ScriptRegistrant@Vdp88_Ore_Extractor@@@@8
rdata$r	ENDS
;	COMDAT ??_R0?AV?$ScriptRegistrant@Vdp88_Ore_Extractor@@@@@8
_DATA	SEGMENT
??_R0?AV?$ScriptRegistrant@Vdp88_Ore_Extractor@@@@@8 DD FLAT:??_7type_info@@6B@ ; ScriptRegistrant<dp88_Ore_Extractor> `RTTI Type Descriptor'
	DD	00H
	DB	'.?AV?$ScriptRegistrant@Vdp88_Ore_Extractor@@@@', 00H
_DATA	ENDS
;	COMDAT ??_R4?$ScriptRegistrant@Vdp88_Ore_Extractor@@@@6B@
rdata$r	SEGMENT
??_R4?$ScriptRegistrant@Vdp88_Ore_Extractor@@@@6B@ DD 00H ; ScriptRegistrant<dp88_Ore_Extractor>::`RTTI Complete Object Locator'
	DD	00H
	DD	00H
	DD	FLAT:??_R0?AV?$ScriptRegistrant@Vdp88_Ore_Extractor@@@@@8
	DD	FLAT:??_R3?$ScriptRegistrant@Vdp88_Ore_Extractor@@@@8
rdata$r	ENDS
;	COMDAT ??_R1A@?0A@EA@?$ScriptRegistrant@Vdp88_Ore_Field@@@@8
rdata$r	SEGMENT
??_R1A@?0A@EA@?$ScriptRegistrant@Vdp88_Ore_Field@@@@8 DD FLAT:??_R0?AV?$ScriptRegistrant@Vdp88_Ore_Field@@@@@8 ; ScriptRegistrant<dp88_Ore_Field>::`RTTI Base Class Descriptor at (0,-1,0,64)'
	DD	01H
	DD	00H
	DD	0ffffffffH
	DD	00H
	DD	040H
	DD	FLAT:??_R3?$ScriptRegistrant@Vdp88_Ore_Field@@@@8
rdata$r	ENDS
;	COMDAT ??_R2?$ScriptRegistrant@Vdp88_Ore_Field@@@@8
rdata$r	SEGMENT
??_R2?$ScriptRegistrant@Vdp88_Ore_Field@@@@8 DD FLAT:??_R1A@?0A@EA@?$ScriptRegistrant@Vdp88_Ore_Field@@@@8 ; ScriptRegistrant<dp88_Ore_Field>::`RTTI Base Class Array'
	DD	FLAT:??_R1A@?0A@EA@ScriptFactory@@8
rdata$r	ENDS
;	COMDAT ??_R3?$ScriptRegistrant@Vdp88_Ore_Field@@@@8
rdata$r	SEGMENT
??_R3?$ScriptRegistrant@Vdp88_Ore_Field@@@@8 DD 00H	; ScriptRegistrant<dp88_Ore_Field>::`RTTI Class Hierarchy Descriptor'
	DD	00H
	DD	02H
	DD	FLAT:??_R2?$ScriptRegistrant@Vdp88_Ore_Field@@@@8
rdata$r	ENDS
;	COMDAT ??_R0?AV?$ScriptRegistrant@Vdp88_Ore_Field@@@@@8
_DATA	SEGMENT
??_R0?AV?$ScriptRegistrant@Vdp88_Ore_Field@@@@@8 DD FLAT:??_7type_info@@6B@ ; ScriptRegistrant<dp88_Ore_Field> `RTTI Type Descriptor'
	DD	00H
	DB	'.?AV?$ScriptRegistrant@Vdp88_Ore_Field@@@@', 00H
_DATA	ENDS
;	COMDAT ??_R4?$ScriptRegistrant@Vdp88_Ore_Field@@@@6B@
rdata$r	SEGMENT
??_R4?$ScriptRegistrant@Vdp88_Ore_Field@@@@6B@ DD 00H	; ScriptRegistrant<dp88_Ore_Field>::`RTTI Complete Object Locator'
	DD	00H
	DD	00H
	DD	FLAT:??_R0?AV?$ScriptRegistrant@Vdp88_Ore_Field@@@@@8
	DD	FLAT:??_R3?$ScriptRegistrant@Vdp88_Ore_Field@@@@8
rdata$r	ENDS
;	COMDAT ??_R1A@?0A@EA@?$ScriptRegistrant@Vdp88_AR_Chrono_Miner_Chronozone@@@@8
rdata$r	SEGMENT
??_R1A@?0A@EA@?$ScriptRegistrant@Vdp88_AR_Chrono_Miner_Chronozone@@@@8 DD FLAT:??_R0?AV?$ScriptRegistrant@Vdp88_AR_Chrono_Miner_Chronozone@@@@@8 ; ScriptRegistrant<dp88_AR_Chrono_Miner_Chronozone>::`RTTI Base Class Descriptor at (0,-1,0,64)'
	DD	01H
	DD	00H
	DD	0ffffffffH
	DD	00H
	DD	040H
	DD	FLAT:??_R3?$ScriptRegistrant@Vdp88_AR_Chrono_Miner_Chronozone@@@@8
rdata$r	ENDS
;	COMDAT ??_R2?$ScriptRegistrant@Vdp88_AR_Chrono_Miner_Chronozone@@@@8
rdata$r	SEGMENT
??_R2?$ScriptRegistrant@Vdp88_AR_Chrono_Miner_Chronozone@@@@8 DD FLAT:??_R1A@?0A@EA@?$ScriptRegistrant@Vdp88_AR_Chrono_Miner_Chronozone@@@@8 ; ScriptRegistrant<dp88_AR_Chrono_Miner_Chronozone>::`RTTI Base Class Array'
	DD	FLAT:??_R1A@?0A@EA@ScriptFactory@@8
rdata$r	ENDS
;	COMDAT ??_R3?$ScriptRegistrant@Vdp88_AR_Chrono_Miner_Chronozone@@@@8
rdata$r	SEGMENT
??_R3?$ScriptRegistrant@Vdp88_AR_Chrono_Miner_Chronozone@@@@8 DD 00H ; ScriptRegistrant<dp88_AR_Chrono_Miner_Chronozone>::`RTTI Class Hierarchy Descriptor'
	DD	00H
	DD	02H
	DD	FLAT:??_R2?$ScriptRegistrant@Vdp88_AR_Chrono_Miner_Chronozone@@@@8
rdata$r	ENDS
;	COMDAT ??_R0?AV?$ScriptRegistrant@Vdp88_AR_Chrono_Miner_Chronozone@@@@@8
_DATA	SEGMENT
??_R0?AV?$ScriptRegistrant@Vdp88_AR_Chrono_Miner_Chronozone@@@@@8 DD FLAT:??_7type_info@@6B@ ; ScriptRegistrant<dp88_AR_Chrono_Miner_Chronozone> `RTTI Type Descriptor'
	DD	00H
	DB	'.?AV?$ScriptRegistrant@Vdp88_AR_Chrono_Miner_Chronozone@'
	DB	'@@@', 00H
_DATA	ENDS
;	COMDAT ??_R4?$ScriptRegistrant@Vdp88_AR_Chrono_Miner_Chronozone@@@@6B@
rdata$r	SEGMENT
??_R4?$ScriptRegistrant@Vdp88_AR_Chrono_Miner_Chronozone@@@@6B@ DD 00H ; ScriptRegistrant<dp88_AR_Chrono_Miner_Chronozone>::`RTTI Complete Object Locator'
	DD	00H
	DD	00H
	DD	FLAT:??_R0?AV?$ScriptRegistrant@Vdp88_AR_Chrono_Miner_Chronozone@@@@@8
	DD	FLAT:??_R3?$ScriptRegistrant@Vdp88_AR_Chrono_Miner_Chronozone@@@@8
rdata$r	ENDS
;	COMDAT ??_R1A@?0A@EA@?$ScriptRegistrant@Vdp88_AR_Chrono_Miner@@@@8
rdata$r	SEGMENT
??_R1A@?0A@EA@?$ScriptRegistrant@Vdp88_AR_Chrono_Miner@@@@8 DD FLAT:??_R0?AV?$ScriptRegistrant@Vdp88_AR_Chrono_Miner@@@@@8 ; ScriptRegistrant<dp88_AR_Chrono_Miner>::`RTTI Base Class Descriptor at (0,-1,0,64)'
	DD	01H
	DD	00H
	DD	0ffffffffH
	DD	00H
	DD	040H
	DD	FLAT:??_R3?$ScriptRegistrant@Vdp88_AR_Chrono_Miner@@@@8
rdata$r	ENDS
;	COMDAT ??_R2?$ScriptRegistrant@Vdp88_AR_Chrono_Miner@@@@8
rdata$r	SEGMENT
??_R2?$ScriptRegistrant@Vdp88_AR_Chrono_Miner@@@@8 DD FLAT:??_R1A@?0A@EA@?$ScriptRegistrant@Vdp88_AR_Chrono_Miner@@@@8 ; ScriptRegistrant<dp88_AR_Chrono_Miner>::`RTTI Base Class Array'
	DD	FLAT:??_R1A@?0A@EA@ScriptFactory@@8
rdata$r	ENDS
;	COMDAT ??_R3?$ScriptRegistrant@Vdp88_AR_Chrono_Miner@@@@8
rdata$r	SEGMENT
??_R3?$ScriptRegistrant@Vdp88_AR_Chrono_Miner@@@@8 DD 00H ; ScriptRegistrant<dp88_AR_Chrono_Miner>::`RTTI Class Hierarchy Descriptor'
	DD	00H
	DD	02H
	DD	FLAT:??_R2?$ScriptRegistrant@Vdp88_AR_Chrono_Miner@@@@8
rdata$r	ENDS
;	COMDAT ??_R0?AV?$ScriptRegistrant@Vdp88_AR_Chrono_Miner@@@@@8
_DATA	SEGMENT
??_R0?AV?$ScriptRegistrant@Vdp88_AR_Chrono_Miner@@@@@8 DD FLAT:??_7type_info@@6B@ ; ScriptRegistrant<dp88_AR_Chrono_Miner> `RTTI Type Descriptor'
	DD	00H
	DB	'.?AV?$ScriptRegistrant@Vdp88_AR_Chrono_Miner@@@@', 00H
_DATA	ENDS
;	COMDAT ??_R4?$ScriptRegistrant@Vdp88_AR_Chrono_Miner@@@@6B@
rdata$r	SEGMENT
??_R4?$ScriptRegistrant@Vdp88_AR_Chrono_Miner@@@@6B@ DD 00H ; ScriptRegistrant<dp88_AR_Chrono_Miner>::`RTTI Complete Object Locator'
	DD	00H
	DD	00H
	DD	FLAT:??_R0?AV?$ScriptRegistrant@Vdp88_AR_Chrono_Miner@@@@@8
	DD	FLAT:??_R3?$ScriptRegistrant@Vdp88_AR_Chrono_Miner@@@@8
rdata$r	ENDS
;	COMDAT ??_R1A@?0A@EA@?$ScriptRegistrant@Vdp88_Ore_Miner@@@@8
rdata$r	SEGMENT
??_R1A@?0A@EA@?$ScriptRegistrant@Vdp88_Ore_Miner@@@@8 DD FLAT:??_R0?AV?$ScriptRegistrant@Vdp88_Ore_Miner@@@@@8 ; ScriptRegistrant<dp88_Ore_Miner>::`RTTI Base Class Descriptor at (0,-1,0,64)'
	DD	01H
	DD	00H
	DD	0ffffffffH
	DD	00H
	DD	040H
	DD	FLAT:??_R3?$ScriptRegistrant@Vdp88_Ore_Miner@@@@8
rdata$r	ENDS
;	COMDAT ??_R2?$ScriptRegistrant@Vdp88_Ore_Miner@@@@8
rdata$r	SEGMENT
??_R2?$ScriptRegistrant@Vdp88_Ore_Miner@@@@8 DD FLAT:??_R1A@?0A@EA@?$ScriptRegistrant@Vdp88_Ore_Miner@@@@8 ; ScriptRegistrant<dp88_Ore_Miner>::`RTTI Base Class Array'
	DD	FLAT:??_R1A@?0A@EA@ScriptFactory@@8
rdata$r	ENDS
;	COMDAT ??_R3?$ScriptRegistrant@Vdp88_Ore_Miner@@@@8
rdata$r	SEGMENT
??_R3?$ScriptRegistrant@Vdp88_Ore_Miner@@@@8 DD 00H	; ScriptRegistrant<dp88_Ore_Miner>::`RTTI Class Hierarchy Descriptor'
	DD	00H
	DD	02H
	DD	FLAT:??_R2?$ScriptRegistrant@Vdp88_Ore_Miner@@@@8
rdata$r	ENDS
;	COMDAT ??_R0?AV?$ScriptRegistrant@Vdp88_Ore_Miner@@@@@8
_DATA	SEGMENT
??_R0?AV?$ScriptRegistrant@Vdp88_Ore_Miner@@@@@8 DD FLAT:??_7type_info@@6B@ ; ScriptRegistrant<dp88_Ore_Miner> `RTTI Type Descriptor'
	DD	00H
	DB	'.?AV?$ScriptRegistrant@Vdp88_Ore_Miner@@@@', 00H
_DATA	ENDS
;	COMDAT ??_R4?$ScriptRegistrant@Vdp88_Ore_Miner@@@@6B@
rdata$r	SEGMENT
??_R4?$ScriptRegistrant@Vdp88_Ore_Miner@@@@6B@ DD 00H	; ScriptRegistrant<dp88_Ore_Miner>::`RTTI Complete Object Locator'
	DD	00H
	DD	00H
	DD	FLAT:??_R0?AV?$ScriptRegistrant@Vdp88_Ore_Miner@@@@@8
	DD	FLAT:??_R3?$ScriptRegistrant@Vdp88_Ore_Miner@@@@8
rdata$r	ENDS
;	COMDAT ??_R1A@?0A@EA@dp88_linkHealth@@8
rdata$r	SEGMENT
??_R1A@?0A@EA@dp88_linkHealth@@8 DD FLAT:??_R0?AVdp88_linkHealth@@@8 ; dp88_linkHealth::`RTTI Base Class Descriptor at (0,-1,0,64)'
	DD	03H
	DD	00H
	DD	0ffffffffH
	DD	00H
	DD	040H
	DD	FLAT:??_R3dp88_linkHealth@@8
rdata$r	ENDS
;	COMDAT ??_R2dp88_linkHealth@@8
rdata$r	SEGMENT
??_R2dp88_linkHealth@@8 DD FLAT:??_R1A@?0A@EA@dp88_linkHealth@@8 ; dp88_linkHealth::`RTTI Base Class Array'
	DD	FLAT:??_R1A@?0A@EA@ScriptImpClass@@8
	DD	FLAT:??_R1A@?0A@EA@ScriptClass@@8
	DD	FLAT:??_R1A@?0A@EA@GameObjObserverClass@@8
rdata$r	ENDS
;	COMDAT ??_R3dp88_linkHealth@@8
rdata$r	SEGMENT
??_R3dp88_linkHealth@@8 DD 00H				; dp88_linkHealth::`RTTI Class Hierarchy Descriptor'
	DD	00H
	DD	04H
	DD	FLAT:??_R2dp88_linkHealth@@8
rdata$r	ENDS
;	COMDAT ??_R0?AVdp88_linkHealth@@@8
_DATA	SEGMENT
??_R0?AVdp88_linkHealth@@@8 DD FLAT:??_7type_info@@6B@	; dp88_linkHealth `RTTI Type Descriptor'
	DD	00H
	DB	'.?AVdp88_linkHealth@@', 00H
_DATA	ENDS
;	COMDAT ??_R4dp88_linkHealth@@6B@
rdata$r	SEGMENT
??_R4dp88_linkHealth@@6B@ DD 00H			; dp88_linkHealth::`RTTI Complete Object Locator'
	DD	00H
	DD	00H
	DD	FLAT:??_R0?AVdp88_linkHealth@@@8
	DD	FLAT:??_R3dp88_linkHealth@@8
rdata$r	ENDS
;	COMDAT ??_R1A@?0A@EA@dp88_AR_Prism_Tower@@8
rdata$r	SEGMENT
??_R1A@?0A@EA@dp88_AR_Prism_Tower@@8 DD FLAT:??_R0?AVdp88_AR_Prism_Tower@@@8 ; dp88_AR_Prism_Tower::`RTTI Base Class Descriptor at (0,-1,0,64)'
	DD	06H
	DD	00H
	DD	0ffffffffH
	DD	00H
	DD	040H
	DD	FLAT:??_R3dp88_AR_Prism_Tower@@8
rdata$r	ENDS
;	COMDAT ??_R2dp88_AR_Prism_Tower@@8
rdata$r	SEGMENT
??_R2dp88_AR_Prism_Tower@@8 DD FLAT:??_R1A@?0A@EA@dp88_AR_Prism_Tower@@8 ; dp88_AR_Prism_Tower::`RTTI Base Class Array'
	DD	FLAT:??_R1A@?0A@EA@dp88_AI_ChargedTurret@@8
	DD	FLAT:??_R1A@?0A@EA@dp88_AI_Turret@@8
	DD	FLAT:??_R1A@?0A@EA@dp88_customAI@@8
	DD	FLAT:??_R1A@?0A@EA@ScriptImpClass@@8
	DD	FLAT:??_R1A@?0A@EA@ScriptClass@@8
	DD	FLAT:??_R1A@?0A@EA@GameObjObserverClass@@8
rdata$r	ENDS
;	COMDAT ??_R3dp88_AR_Prism_Tower@@8
rdata$r	SEGMENT
??_R3dp88_AR_Prism_Tower@@8 DD 00H			; dp88_AR_Prism_Tower::`RTTI Class Hierarchy Descriptor'
	DD	00H
	DD	07H
	DD	FLAT:??_R2dp88_AR_Prism_Tower@@8
rdata$r	ENDS
;	COMDAT ??_R0?AVdp88_AR_Prism_Tower@@@8
_DATA	SEGMENT
??_R0?AVdp88_AR_Prism_Tower@@@8 DD FLAT:??_7type_info@@6B@ ; dp88_AR_Prism_Tower `RTTI Type Descriptor'
	DD	00H
	DB	'.?AVdp88_AR_Prism_Tower@@', 00H
_DATA	ENDS
;	COMDAT ??_R4dp88_AR_Prism_Tower@@6B@
rdata$r	SEGMENT
??_R4dp88_AR_Prism_Tower@@6B@ DD 00H			; dp88_AR_Prism_Tower::`RTTI Complete Object Locator'
	DD	00H
	DD	00H
	DD	FLAT:??_R0?AVdp88_AR_Prism_Tower@@@8
	DD	FLAT:??_R3dp88_AR_Prism_Tower@@8
rdata$r	ENDS
;	COMDAT ??_R1A@?0A@EA@dp88_AR_Paradrop@@8
rdata$r	SEGMENT
??_R1A@?0A@EA@dp88_AR_Paradrop@@8 DD FLAT:??_R0?AVdp88_AR_Paradrop@@@8 ; dp88_AR_Paradrop::`RTTI Base Class Descriptor at (0,-1,0,64)'
	DD	03H
	DD	00H
	DD	0ffffffffH
	DD	00H
	DD	040H
	DD	FLAT:??_R3dp88_AR_Paradrop@@8
rdata$r	ENDS
;	COMDAT ??_R2dp88_AR_Paradrop@@8
rdata$r	SEGMENT
??_R2dp88_AR_Paradrop@@8 DD FLAT:??_R1A@?0A@EA@dp88_AR_Paradrop@@8 ; dp88_AR_Paradrop::`RTTI Base Class Array'
	DD	FLAT:??_R1A@?0A@EA@ScriptImpClass@@8
	DD	FLAT:??_R1A@?0A@EA@ScriptClass@@8
	DD	FLAT:??_R1A@?0A@EA@GameObjObserverClass@@8
rdata$r	ENDS
;	COMDAT ??_R3dp88_AR_Paradrop@@8
rdata$r	SEGMENT
??_R3dp88_AR_Paradrop@@8 DD 00H				; dp88_AR_Paradrop::`RTTI Class Hierarchy Descriptor'
	DD	00H
	DD	04H
	DD	FLAT:??_R2dp88_AR_Paradrop@@8
rdata$r	ENDS
;	COMDAT ??_R0?AVdp88_AR_Paradrop@@@8
_DATA	SEGMENT
??_R0?AVdp88_AR_Paradrop@@@8 DD FLAT:??_7type_info@@6B@	; dp88_AR_Paradrop `RTTI Type Descriptor'
	DD	00H
	DB	'.?AVdp88_AR_Paradrop@@', 00H
_DATA	ENDS
;	COMDAT ??_R4dp88_AR_Paradrop@@6B@
rdata$r	SEGMENT
??_R4dp88_AR_Paradrop@@6B@ DD 00H			; dp88_AR_Paradrop::`RTTI Complete Object Locator'
	DD	00H
	DD	00H
	DD	FLAT:??_R0?AVdp88_AR_Paradrop@@@8
	DD	FLAT:??_R3dp88_AR_Paradrop@@8
rdata$r	ENDS
;	COMDAT ??_R1A@?0A@EA@dp88_AR_paradrop_Console@@8
rdata$r	SEGMENT
??_R1A@?0A@EA@dp88_AR_paradrop_Console@@8 DD FLAT:??_R0?AVdp88_AR_paradrop_Console@@@8 ; dp88_AR_paradrop_Console::`RTTI Base Class Descriptor at (0,-1,0,64)'
	DD	03H
	DD	00H
	DD	0ffffffffH
	DD	00H
	DD	040H
	DD	FLAT:??_R3dp88_AR_paradrop_Console@@8
rdata$r	ENDS
;	COMDAT ??_R2dp88_AR_paradrop_Console@@8
rdata$r	SEGMENT
??_R2dp88_AR_paradrop_Console@@8 DD FLAT:??_R1A@?0A@EA@dp88_AR_paradrop_Console@@8 ; dp88_AR_paradrop_Console::`RTTI Base Class Array'
	DD	FLAT:??_R1A@?0A@EA@ScriptImpClass@@8
	DD	FLAT:??_R1A@?0A@EA@ScriptClass@@8
	DD	FLAT:??_R1A@?0A@EA@GameObjObserverClass@@8
rdata$r	ENDS
;	COMDAT ??_R3dp88_AR_paradrop_Console@@8
rdata$r	SEGMENT
??_R3dp88_AR_paradrop_Console@@8 DD 00H			; dp88_AR_paradrop_Console::`RTTI Class Hierarchy Descriptor'
	DD	00H
	DD	04H
	DD	FLAT:??_R2dp88_AR_paradrop_Console@@8
rdata$r	ENDS
;	COMDAT ??_R0?AVdp88_AR_paradrop_Console@@@8
_DATA	SEGMENT
??_R0?AVdp88_AR_paradrop_Console@@@8 DD FLAT:??_7type_info@@6B@ ; dp88_AR_paradrop_Console `RTTI Type Descriptor'
	DD	00H
	DB	'.?AVdp88_AR_paradrop_Console@@', 00H
_DATA	ENDS
;	COMDAT ??_R4dp88_AR_paradrop_Console@@6B@
rdata$r	SEGMENT
??_R4dp88_AR_paradrop_Console@@6B@ DD 00H		; dp88_AR_paradrop_Console::`RTTI Complete Object Locator'
	DD	00H
	DD	00H
	DD	FLAT:??_R0?AVdp88_AR_paradrop_Console@@@8
	DD	FLAT:??_R3dp88_AR_paradrop_Console@@8
rdata$r	ENDS
;	COMDAT ??_R1A@?0A@EA@dp88_AR_DemoTruck@@8
rdata$r	SEGMENT
??_R1A@?0A@EA@dp88_AR_DemoTruck@@8 DD FLAT:??_R0?AVdp88_AR_DemoTruck@@@8 ; dp88_AR_DemoTruck::`RTTI Base Class Descriptor at (0,-1,0,64)'
	DD	03H
	DD	00H
	DD	0ffffffffH
	DD	00H
	DD	040H
	DD	FLAT:??_R3dp88_AR_DemoTruck@@8
rdata$r	ENDS
;	COMDAT ??_R2dp88_AR_DemoTruck@@8
rdata$r	SEGMENT
??_R2dp88_AR_DemoTruck@@8 DD FLAT:??_R1A@?0A@EA@dp88_AR_DemoTruck@@8 ; dp88_AR_DemoTruck::`RTTI Base Class Array'
	DD	FLAT:??_R1A@?0A@EA@ScriptImpClass@@8
	DD	FLAT:??_R1A@?0A@EA@ScriptClass@@8
	DD	FLAT:??_R1A@?0A@EA@GameObjObserverClass@@8
rdata$r	ENDS
;	COMDAT ??_R3dp88_AR_DemoTruck@@8
rdata$r	SEGMENT
??_R3dp88_AR_DemoTruck@@8 DD 00H			; dp88_AR_DemoTruck::`RTTI Class Hierarchy Descriptor'
	DD	00H
	DD	04H
	DD	FLAT:??_R2dp88_AR_DemoTruck@@8
rdata$r	ENDS
;	COMDAT ??_R0?AVdp88_AR_DemoTruck@@@8
_DATA	SEGMENT
??_R0?AVdp88_AR_DemoTruck@@@8 DD FLAT:??_7type_info@@6B@ ; dp88_AR_DemoTruck `RTTI Type Descriptor'
	DD	00H
	DB	'.?AVdp88_AR_DemoTruck@@', 00H
_DATA	ENDS
;	COMDAT ??_R4dp88_AR_DemoTruck@@6B@
rdata$r	SEGMENT
??_R4dp88_AR_DemoTruck@@6B@ DD 00H			; dp88_AR_DemoTruck::`RTTI Complete Object Locator'
	DD	00H
	DD	00H
	DD	FLAT:??_R0?AVdp88_AR_DemoTruck@@@8
	DD	FLAT:??_R3dp88_AR_DemoTruck@@8
rdata$r	ENDS
;	COMDAT ??_R1A@?0A@EA@dp88_RemoteControlVehicle@@8
rdata$r	SEGMENT
??_R1A@?0A@EA@dp88_RemoteControlVehicle@@8 DD FLAT:??_R0?AVdp88_RemoteControlVehicle@@@8 ; dp88_RemoteControlVehicle::`RTTI Base Class Descriptor at (0,-1,0,64)'
	DD	03H
	DD	00H
	DD	0ffffffffH
	DD	00H
	DD	040H
	DD	FLAT:??_R3dp88_RemoteControlVehicle@@8
rdata$r	ENDS
;	COMDAT ??_R2dp88_RemoteControlVehicle@@8
rdata$r	SEGMENT
??_R2dp88_RemoteControlVehicle@@8 DD FLAT:??_R1A@?0A@EA@dp88_RemoteControlVehicle@@8 ; dp88_RemoteControlVehicle::`RTTI Base Class Array'
	DD	FLAT:??_R1A@?0A@EA@ScriptImpClass@@8
	DD	FLAT:??_R1A@?0A@EA@ScriptClass@@8
	DD	FLAT:??_R1A@?0A@EA@GameObjObserverClass@@8
rdata$r	ENDS
;	COMDAT ??_R3dp88_RemoteControlVehicle@@8
rdata$r	SEGMENT
??_R3dp88_RemoteControlVehicle@@8 DD 00H		; dp88_RemoteControlVehicle::`RTTI Class Hierarchy Descriptor'
	DD	00H
	DD	04H
	DD	FLAT:??_R2dp88_RemoteControlVehicle@@8
rdata$r	ENDS
;	COMDAT ??_R0?AVdp88_RemoteControlVehicle@@@8
_DATA	SEGMENT
??_R0?AVdp88_RemoteControlVehicle@@@8 DD FLAT:??_7type_info@@6B@ ; dp88_RemoteControlVehicle `RTTI Type Descriptor'
	DD	00H
	DB	'.?AVdp88_RemoteControlVehicle@@', 00H
_DATA	ENDS
;	COMDAT ??_R4dp88_RemoteControlVehicle@@6B@
rdata$r	SEGMENT
??_R4dp88_RemoteControlVehicle@@6B@ DD 00H		; dp88_RemoteControlVehicle::`RTTI Complete Object Locator'
	DD	00H
	DD	00H
	DD	FLAT:??_R0?AVdp88_RemoteControlVehicle@@@8
	DD	FLAT:??_R3dp88_RemoteControlVehicle@@8
rdata$r	ENDS
;	COMDAT ??_R1A@?0A@EA@dp88_RemoteControlConsole@@8
rdata$r	SEGMENT
??_R1A@?0A@EA@dp88_RemoteControlConsole@@8 DD FLAT:??_R0?AVdp88_RemoteControlConsole@@@8 ; dp88_RemoteControlConsole::`RTTI Base Class Descriptor at (0,-1,0,64)'
	DD	03H
	DD	00H
	DD	0ffffffffH
	DD	00H
	DD	040H
	DD	FLAT:??_R3dp88_RemoteControlConsole@@8
rdata$r	ENDS
;	COMDAT ??_R2dp88_RemoteControlConsole@@8
rdata$r	SEGMENT
??_R2dp88_RemoteControlConsole@@8 DD FLAT:??_R1A@?0A@EA@dp88_RemoteControlConsole@@8 ; dp88_RemoteControlConsole::`RTTI Base Class Array'
	DD	FLAT:??_R1A@?0A@EA@ScriptImpClass@@8
	DD	FLAT:??_R1A@?0A@EA@ScriptClass@@8
	DD	FLAT:??_R1A@?0A@EA@GameObjObserverClass@@8
rdata$r	ENDS
;	COMDAT ??_R3dp88_RemoteControlConsole@@8
rdata$r	SEGMENT
??_R3dp88_RemoteControlConsole@@8 DD 00H		; dp88_RemoteControlConsole::`RTTI Class Hierarchy Descriptor'
	DD	00H
	DD	04H
	DD	FLAT:??_R2dp88_RemoteControlConsole@@8
rdata$r	ENDS
;	COMDAT ??_R0?AVdp88_RemoteControlConsole@@@8
_DATA	SEGMENT
??_R0?AVdp88_RemoteControlConsole@@@8 DD FLAT:??_7type_info@@6B@ ; dp88_RemoteControlConsole `RTTI Type Descriptor'
	DD	00H
	DB	'.?AVdp88_RemoteControlConsole@@', 00H
_DATA	ENDS
;	COMDAT ??_R4dp88_RemoteControlConsole@@6B@
rdata$r	SEGMENT
??_R4dp88_RemoteControlConsole@@6B@ DD 00H		; dp88_RemoteControlConsole::`RTTI Complete Object Locator'
	DD	00H
	DD	00H
	DD	FLAT:??_R0?AVdp88_RemoteControlConsole@@@8
	DD	FLAT:??_R3dp88_RemoteControlConsole@@8
rdata$r	ENDS
;	COMDAT ??_R1A@?0A@EA@dp88_Aircraft_LandingZone_Aircraft@@8
rdata$r	SEGMENT
??_R1A@?0A@EA@dp88_Aircraft_LandingZone_Aircraft@@8 DD FLAT:??_R0?AVdp88_Aircraft_LandingZone_Aircraft@@@8 ; dp88_Aircraft_LandingZone_Aircraft::`RTTI Base Class Descriptor at (0,-1,0,64)'
	DD	03H
	DD	00H
	DD	0ffffffffH
	DD	00H
	DD	040H
	DD	FLAT:??_R3dp88_Aircraft_LandingZone_Aircraft@@8
rdata$r	ENDS
;	COMDAT ??_R2dp88_Aircraft_LandingZone_Aircraft@@8
rdata$r	SEGMENT
??_R2dp88_Aircraft_LandingZone_Aircraft@@8 DD FLAT:??_R1A@?0A@EA@dp88_Aircraft_LandingZone_Aircraft@@8 ; dp88_Aircraft_LandingZone_Aircraft::`RTTI Base Class Array'
	DD	FLAT:??_R1A@?0A@EA@ScriptImpClass@@8
	DD	FLAT:??_R1A@?0A@EA@ScriptClass@@8
	DD	FLAT:??_R1A@?0A@EA@GameObjObserverClass@@8
rdata$r	ENDS
;	COMDAT ??_R3dp88_Aircraft_LandingZone_Aircraft@@8
rdata$r	SEGMENT
??_R3dp88_Aircraft_LandingZone_Aircraft@@8 DD 00H	; dp88_Aircraft_LandingZone_Aircraft::`RTTI Class Hierarchy Descriptor'
	DD	00H
	DD	04H
	DD	FLAT:??_R2dp88_Aircraft_LandingZone_Aircraft@@8
rdata$r	ENDS
;	COMDAT ??_R0?AVdp88_Aircraft_LandingZone_Aircraft@@@8
_DATA	SEGMENT
??_R0?AVdp88_Aircraft_LandingZone_Aircraft@@@8 DD FLAT:??_7type_info@@6B@ ; dp88_Aircraft_LandingZone_Aircraft `RTTI Type Descriptor'
	DD	00H
	DB	'.?AVdp88_Aircraft_LandingZone_Aircraft@@', 00H
_DATA	ENDS
;	COMDAT ??_R4dp88_Aircraft_LandingZone_Aircraft@@6B@
rdata$r	SEGMENT
??_R4dp88_Aircraft_LandingZone_Aircraft@@6B@ DD 00H	; dp88_Aircraft_LandingZone_Aircraft::`RTTI Complete Object Locator'
	DD	00H
	DD	00H
	DD	FLAT:??_R0?AVdp88_Aircraft_LandingZone_Aircraft@@@8
	DD	FLAT:??_R3dp88_Aircraft_LandingZone_Aircraft@@8
rdata$r	ENDS
;	COMDAT ??_R1A@?0A@EA@dp88_Aircraft_LandingZone@@8
rdata$r	SEGMENT
??_R1A@?0A@EA@dp88_Aircraft_LandingZone@@8 DD FLAT:??_R0?AVdp88_Aircraft_LandingZone@@@8 ; dp88_Aircraft_LandingZone::`RTTI Base Class Descriptor at (0,-1,0,64)'
	DD	03H
	DD	00H
	DD	0ffffffffH
	DD	00H
	DD	040H
	DD	FLAT:??_R3dp88_Aircraft_LandingZone@@8
rdata$r	ENDS
;	COMDAT ??_R2dp88_Aircraft_LandingZone@@8
rdata$r	SEGMENT
??_R2dp88_Aircraft_LandingZone@@8 DD FLAT:??_R1A@?0A@EA@dp88_Aircraft_LandingZone@@8 ; dp88_Aircraft_LandingZone::`RTTI Base Class Array'
	DD	FLAT:??_R1A@?0A@EA@ScriptImpClass@@8
	DD	FLAT:??_R1A@?0A@EA@ScriptClass@@8
	DD	FLAT:??_R1A@?0A@EA@GameObjObserverClass@@8
rdata$r	ENDS
;	COMDAT ??_R3dp88_Aircraft_LandingZone@@8
rdata$r	SEGMENT
??_R3dp88_Aircraft_LandingZone@@8 DD 00H		; dp88_Aircraft_LandingZone::`RTTI Class Hierarchy Descriptor'
	DD	00H
	DD	04H
	DD	FLAT:??_R2dp88_Aircraft_LandingZone@@8
rdata$r	ENDS
;	COMDAT ??_R0?AVdp88_Aircraft_LandingZone@@@8
_DATA	SEGMENT
??_R0?AVdp88_Aircraft_LandingZone@@@8 DD FLAT:??_7type_info@@6B@ ; dp88_Aircraft_LandingZone `RTTI Type Descriptor'
	DD	00H
	DB	'.?AVdp88_Aircraft_LandingZone@@', 00H
_DATA	ENDS
;	COMDAT ??_R4dp88_Aircraft_LandingZone@@6B@
rdata$r	SEGMENT
??_R4dp88_Aircraft_LandingZone@@6B@ DD 00H		; dp88_Aircraft_LandingZone::`RTTI Complete Object Locator'
	DD	00H
	DD	00H
	DD	FLAT:??_R0?AVdp88_Aircraft_LandingZone@@@8
	DD	FLAT:??_R3dp88_Aircraft_LandingZone@@8
rdata$r	ENDS
;	COMDAT ??_R1A@?0A@EA@dp88_Ore_Dump_Zone@@8
rdata$r	SEGMENT
??_R1A@?0A@EA@dp88_Ore_Dump_Zone@@8 DD FLAT:??_R0?AVdp88_Ore_Dump_Zone@@@8 ; dp88_Ore_Dump_Zone::`RTTI Base Class Descriptor at (0,-1,0,64)'
	DD	03H
	DD	00H
	DD	0ffffffffH
	DD	00H
	DD	040H
	DD	FLAT:??_R3dp88_Ore_Dump_Zone@@8
rdata$r	ENDS
;	COMDAT ??_R2dp88_Ore_Dump_Zone@@8
rdata$r	SEGMENT
??_R2dp88_Ore_Dump_Zone@@8 DD FLAT:??_R1A@?0A@EA@dp88_Ore_Dump_Zone@@8 ; dp88_Ore_Dump_Zone::`RTTI Base Class Array'
	DD	FLAT:??_R1A@?0A@EA@ScriptImpClass@@8
	DD	FLAT:??_R1A@?0A@EA@ScriptClass@@8
	DD	FLAT:??_R1A@?0A@EA@GameObjObserverClass@@8
rdata$r	ENDS
;	COMDAT ??_R3dp88_Ore_Dump_Zone@@8
rdata$r	SEGMENT
??_R3dp88_Ore_Dump_Zone@@8 DD 00H			; dp88_Ore_Dump_Zone::`RTTI Class Hierarchy Descriptor'
	DD	00H
	DD	04H
	DD	FLAT:??_R2dp88_Ore_Dump_Zone@@8
rdata$r	ENDS
;	COMDAT ??_R0?AVdp88_Ore_Dump_Zone@@@8
_DATA	SEGMENT
??_R0?AVdp88_Ore_Dump_Zone@@@8 DD FLAT:??_7type_info@@6B@ ; dp88_Ore_Dump_Zone `RTTI Type Descriptor'
	DD	00H
	DB	'.?AVdp88_Ore_Dump_Zone@@', 00H
_DATA	ENDS
;	COMDAT ??_R4dp88_Ore_Dump_Zone@@6B@
rdata$r	SEGMENT
??_R4dp88_Ore_Dump_Zone@@6B@ DD 00H			; dp88_Ore_Dump_Zone::`RTTI Complete Object Locator'
	DD	00H
	DD	00H
	DD	FLAT:??_R0?AVdp88_Ore_Dump_Zone@@@8
	DD	FLAT:??_R3dp88_Ore_Dump_Zone@@8
rdata$r	ENDS
;	COMDAT ??_R1A@?0A@EA@dp88_Ore_Extractor@@8
rdata$r	SEGMENT
??_R1A@?0A@EA@dp88_Ore_Extractor@@8 DD FLAT:??_R0?AVdp88_Ore_Extractor@@@8 ; dp88_Ore_Extractor::`RTTI Base Class Descriptor at (0,-1,0,64)'
	DD	03H
	DD	00H
	DD	0ffffffffH
	DD	00H
	DD	040H
	DD	FLAT:??_R3dp88_Ore_Extractor@@8
rdata$r	ENDS
;	COMDAT ??_R2dp88_Ore_Extractor@@8
rdata$r	SEGMENT
??_R2dp88_Ore_Extractor@@8 DD FLAT:??_R1A@?0A@EA@dp88_Ore_Extractor@@8 ; dp88_Ore_Extractor::`RTTI Base Class Array'
	DD	FLAT:??_R1A@?0A@EA@ScriptImpClass@@8
	DD	FLAT:??_R1A@?0A@EA@ScriptClass@@8
	DD	FLAT:??_R1A@?0A@EA@GameObjObserverClass@@8
rdata$r	ENDS
;	COMDAT ??_R3dp88_Ore_Extractor@@8
rdata$r	SEGMENT
??_R3dp88_Ore_Extractor@@8 DD 00H			; dp88_Ore_Extractor::`RTTI Class Hierarchy Descriptor'
	DD	00H
	DD	04H
	DD	FLAT:??_R2dp88_Ore_Extractor@@8
rdata$r	ENDS
;	COMDAT ??_R0?AVdp88_Ore_Extractor@@@8
_DATA	SEGMENT
??_R0?AVdp88_Ore_Extractor@@@8 DD FLAT:??_7type_info@@6B@ ; dp88_Ore_Extractor `RTTI Type Descriptor'
	DD	00H
	DB	'.?AVdp88_Ore_Extractor@@', 00H
_DATA	ENDS
;	COMDAT ??_R4dp88_Ore_Extractor@@6B@
rdata$r	SEGMENT
??_R4dp88_Ore_Extractor@@6B@ DD 00H			; dp88_Ore_Extractor::`RTTI Complete Object Locator'
	DD	00H
	DD	00H
	DD	FLAT:??_R0?AVdp88_Ore_Extractor@@@8
	DD	FLAT:??_R3dp88_Ore_Extractor@@8
rdata$r	ENDS
;	COMDAT ??_R1A@?0A@EA@dp88_Ore_Field_Observer@dp88_Ore_Field@@8
rdata$r	SEGMENT
??_R1A@?0A@EA@dp88_Ore_Field_Observer@dp88_Ore_Field@@8 DD FLAT:??_R0?AVdp88_Ore_Field_Observer@dp88_Ore_Field@@@8 ; dp88_Ore_Field::dp88_Ore_Field_Observer::`RTTI Base Class Descriptor at (0,-1,0,64)'
	DD	01H
	DD	00H
	DD	0ffffffffH
	DD	00H
	DD	040H
	DD	FLAT:??_R3dp88_Ore_Field_Observer@dp88_Ore_Field@@8
rdata$r	ENDS
;	COMDAT ??_R2dp88_Ore_Field_Observer@dp88_Ore_Field@@8
rdata$r	SEGMENT
??_R2dp88_Ore_Field_Observer@dp88_Ore_Field@@8 DD FLAT:??_R1A@?0A@EA@dp88_Ore_Field_Observer@dp88_Ore_Field@@8 ; dp88_Ore_Field::dp88_Ore_Field_Observer::`RTTI Base Class Array'
	DD	FLAT:??_R1A@?0A@EA@GameObjObserverClass@@8
rdata$r	ENDS
;	COMDAT ??_R3dp88_Ore_Field_Observer@dp88_Ore_Field@@8
rdata$r	SEGMENT
??_R3dp88_Ore_Field_Observer@dp88_Ore_Field@@8 DD 00H	; dp88_Ore_Field::dp88_Ore_Field_Observer::`RTTI Class Hierarchy Descriptor'
	DD	00H
	DD	02H
	DD	FLAT:??_R2dp88_Ore_Field_Observer@dp88_Ore_Field@@8
rdata$r	ENDS
;	COMDAT ??_R0?AVdp88_Ore_Field_Observer@dp88_Ore_Field@@@8
_DATA	SEGMENT
??_R0?AVdp88_Ore_Field_Observer@dp88_Ore_Field@@@8 DD FLAT:??_7type_info@@6B@ ; dp88_Ore_Field::dp88_Ore_Field_Observer `RTTI Type Descriptor'
	DD	00H
	DB	'.?AVdp88_Ore_Field_Observer@dp88_Ore_Field@@', 00H
_DATA	ENDS
;	COMDAT ??_R4dp88_Ore_Field_Observer@dp88_Ore_Field@@6B@
rdata$r	SEGMENT
??_R4dp88_Ore_Field_Observer@dp88_Ore_Field@@6B@ DD 00H	; dp88_Ore_Field::dp88_Ore_Field_Observer::`RTTI Complete Object Locator'
	DD	00H
	DD	00H
	DD	FLAT:??_R0?AVdp88_Ore_Field_Observer@dp88_Ore_Field@@@8
	DD	FLAT:??_R3dp88_Ore_Field_Observer@dp88_Ore_Field@@8
rdata$r	ENDS
;	COMDAT ??_R1A@?0A@EA@dp88_Ore_Field@@8
rdata$r	SEGMENT
??_R1A@?0A@EA@dp88_Ore_Field@@8 DD FLAT:??_R0?AVdp88_Ore_Field@@@8 ; dp88_Ore_Field::`RTTI Base Class Descriptor at (0,-1,0,64)'
	DD	03H
	DD	00H
	DD	0ffffffffH
	DD	00H
	DD	040H
	DD	FLAT:??_R3dp88_Ore_Field@@8
rdata$r	ENDS
;	COMDAT ??_R2dp88_Ore_Field@@8
rdata$r	SEGMENT
??_R2dp88_Ore_Field@@8 DD FLAT:??_R1A@?0A@EA@dp88_Ore_Field@@8 ; dp88_Ore_Field::`RTTI Base Class Array'
	DD	FLAT:??_R1A@?0A@EA@ScriptImpClass@@8
	DD	FLAT:??_R1A@?0A@EA@ScriptClass@@8
	DD	FLAT:??_R1A@?0A@EA@GameObjObserverClass@@8
rdata$r	ENDS
;	COMDAT ??_R3dp88_Ore_Field@@8
rdata$r	SEGMENT
??_R3dp88_Ore_Field@@8 DD 00H				; dp88_Ore_Field::`RTTI Class Hierarchy Descriptor'
	DD	00H
	DD	04H
	DD	FLAT:??_R2dp88_Ore_Field@@8
rdata$r	ENDS
;	COMDAT ??_R0?AVdp88_Ore_Field@@@8
_DATA	SEGMENT
??_R0?AVdp88_Ore_Field@@@8 DD FLAT:??_7type_info@@6B@	; dp88_Ore_Field `RTTI Type Descriptor'
	DD	00H
	DB	'.?AVdp88_Ore_Field@@', 00H
_DATA	ENDS
;	COMDAT ??_R4dp88_Ore_Field@@6B@
rdata$r	SEGMENT
??_R4dp88_Ore_Field@@6B@ DD 00H				; dp88_Ore_Field::`RTTI Complete Object Locator'
	DD	00H
	DD	00H
	DD	FLAT:??_R0?AVdp88_Ore_Field@@@8
	DD	FLAT:??_R3dp88_Ore_Field@@8
rdata$r	ENDS
;	COMDAT ??_R1A@?0A@EA@dp88_AR_Chrono_Miner_Chronozone@@8
rdata$r	SEGMENT
??_R1A@?0A@EA@dp88_AR_Chrono_Miner_Chronozone@@8 DD FLAT:??_R0?AVdp88_AR_Chrono_Miner_Chronozone@@@8 ; dp88_AR_Chrono_Miner_Chronozone::`RTTI Base Class Descriptor at (0,-1,0,64)'
	DD	03H
	DD	00H
	DD	0ffffffffH
	DD	00H
	DD	040H
	DD	FLAT:??_R3dp88_AR_Chrono_Miner_Chronozone@@8
rdata$r	ENDS
;	COMDAT ??_R2dp88_AR_Chrono_Miner_Chronozone@@8
rdata$r	SEGMENT
??_R2dp88_AR_Chrono_Miner_Chronozone@@8 DD FLAT:??_R1A@?0A@EA@dp88_AR_Chrono_Miner_Chronozone@@8 ; dp88_AR_Chrono_Miner_Chronozone::`RTTI Base Class Array'
	DD	FLAT:??_R1A@?0A@EA@ScriptImpClass@@8
	DD	FLAT:??_R1A@?0A@EA@ScriptClass@@8
	DD	FLAT:??_R1A@?0A@EA@GameObjObserverClass@@8
rdata$r	ENDS
;	COMDAT ??_R3dp88_AR_Chrono_Miner_Chronozone@@8
rdata$r	SEGMENT
??_R3dp88_AR_Chrono_Miner_Chronozone@@8 DD 00H		; dp88_AR_Chrono_Miner_Chronozone::`RTTI Class Hierarchy Descriptor'
	DD	00H
	DD	04H
	DD	FLAT:??_R2dp88_AR_Chrono_Miner_Chronozone@@8
rdata$r	ENDS
;	COMDAT ??_R0?AVdp88_AR_Chrono_Miner_Chronozone@@@8
_DATA	SEGMENT
??_R0?AVdp88_AR_Chrono_Miner_Chronozone@@@8 DD FLAT:??_7type_info@@6B@ ; dp88_AR_Chrono_Miner_Chronozone `RTTI Type Descriptor'
	DD	00H
	DB	'.?AVdp88_AR_Chrono_Miner_Chronozone@@', 00H
_DATA	ENDS
;	COMDAT ??_R4dp88_AR_Chrono_Miner_Chronozone@@6B@
rdata$r	SEGMENT
??_R4dp88_AR_Chrono_Miner_Chronozone@@6B@ DD 00H	; dp88_AR_Chrono_Miner_Chronozone::`RTTI Complete Object Locator'
	DD	00H
	DD	00H
	DD	FLAT:??_R0?AVdp88_AR_Chrono_Miner_Chronozone@@@8
	DD	FLAT:??_R3dp88_AR_Chrono_Miner_Chronozone@@8
rdata$r	ENDS
;	COMDAT ??_R1A@?0A@EA@dp88_AR_Chrono_Miner@@8
rdata$r	SEGMENT
??_R1A@?0A@EA@dp88_AR_Chrono_Miner@@8 DD FLAT:??_R0?AVdp88_AR_Chrono_Miner@@@8 ; dp88_AR_Chrono_Miner::`RTTI Base Class Descriptor at (0,-1,0,64)'
	DD	05H
	DD	00H
	DD	0ffffffffH
	DD	00H
	DD	040H
	DD	FLAT:??_R3dp88_AR_Chrono_Miner@@8
rdata$r	ENDS
;	COMDAT ??_R2dp88_AR_Chrono_Miner@@8
rdata$r	SEGMENT
??_R2dp88_AR_Chrono_Miner@@8 DD FLAT:??_R1A@?0A@EA@dp88_AR_Chrono_Miner@@8 ; dp88_AR_Chrono_Miner::`RTTI Base Class Array'
	DD	FLAT:??_R1A@?0A@EA@dp88_Ore_Miner@@8
	DD	FLAT:??_R1A@?0A@EA@JFW_Key_Hook_Base@@8
	DD	FLAT:??_R1A@?0A@EA@ScriptImpClass@@8
	DD	FLAT:??_R1A@?0A@EA@ScriptClass@@8
	DD	FLAT:??_R1A@?0A@EA@GameObjObserverClass@@8
rdata$r	ENDS
;	COMDAT ??_R3dp88_AR_Chrono_Miner@@8
rdata$r	SEGMENT
??_R3dp88_AR_Chrono_Miner@@8 DD 00H			; dp88_AR_Chrono_Miner::`RTTI Class Hierarchy Descriptor'
	DD	00H
	DD	06H
	DD	FLAT:??_R2dp88_AR_Chrono_Miner@@8
rdata$r	ENDS
;	COMDAT ??_R0?AVdp88_AR_Chrono_Miner@@@8
_DATA	SEGMENT
??_R0?AVdp88_AR_Chrono_Miner@@@8 DD FLAT:??_7type_info@@6B@ ; dp88_AR_Chrono_Miner `RTTI Type Descriptor'
	DD	00H
	DB	'.?AVdp88_AR_Chrono_Miner@@', 00H
_DATA	ENDS
;	COMDAT ??_R4dp88_AR_Chrono_Miner@@6B@
rdata$r	SEGMENT
??_R4dp88_AR_Chrono_Miner@@6B@ DD 00H			; dp88_AR_Chrono_Miner::`RTTI Complete Object Locator'
	DD	00H
	DD	00H
	DD	FLAT:??_R0?AVdp88_AR_Chrono_Miner@@@8
	DD	FLAT:??_R3dp88_AR_Chrono_Miner@@8
rdata$r	ENDS
;	COMDAT ??_R1A@?0A@EA@dp88_Ore_Miner@@8
rdata$r	SEGMENT
??_R1A@?0A@EA@dp88_Ore_Miner@@8 DD FLAT:??_R0?AVdp88_Ore_Miner@@@8 ; dp88_Ore_Miner::`RTTI Base Class Descriptor at (0,-1,0,64)'
	DD	04H
	DD	00H
	DD	0ffffffffH
	DD	00H
	DD	040H
	DD	FLAT:??_R3dp88_Ore_Miner@@8
rdata$r	ENDS
;	COMDAT ??_R2dp88_Ore_Miner@@8
rdata$r	SEGMENT
??_R2dp88_Ore_Miner@@8 DD FLAT:??_R1A@?0A@EA@dp88_Ore_Miner@@8 ; dp88_Ore_Miner::`RTTI Base Class Array'
	DD	FLAT:??_R1A@?0A@EA@JFW_Key_Hook_Base@@8
	DD	FLAT:??_R1A@?0A@EA@ScriptImpClass@@8
	DD	FLAT:??_R1A@?0A@EA@ScriptClass@@8
	DD	FLAT:??_R1A@?0A@EA@GameObjObserverClass@@8
rdata$r	ENDS
;	COMDAT ??_R3dp88_Ore_Miner@@8
rdata$r	SEGMENT
??_R3dp88_Ore_Miner@@8 DD 00H				; dp88_Ore_Miner::`RTTI Class Hierarchy Descriptor'
	DD	00H
	DD	05H
	DD	FLAT:??_R2dp88_Ore_Miner@@8
rdata$r	ENDS
;	COMDAT ??_R0?AVdp88_Ore_Miner@@@8
_DATA	SEGMENT
??_R0?AVdp88_Ore_Miner@@@8 DD FLAT:??_7type_info@@6B@	; dp88_Ore_Miner `RTTI Type Descriptor'
	DD	00H
	DB	'.?AVdp88_Ore_Miner@@', 00H
_DATA	ENDS
;	COMDAT ??_R4dp88_Ore_Miner@@6B@
rdata$r	SEGMENT
??_R4dp88_Ore_Miner@@6B@ DD 00H				; dp88_Ore_Miner::`RTTI Complete Object Locator'
	DD	00H
	DD	00H
	DD	FLAT:??_R0?AVdp88_Ore_Miner@@@8
	DD	FLAT:??_R3dp88_Ore_Miner@@8
rdata$r	ENDS
;	COMDAT ??_R1A@?0A@EA@dp88_AR_CLEG_target@@8
rdata$r	SEGMENT
??_R1A@?0A@EA@dp88_AR_CLEG_target@@8 DD FLAT:??_R0?AVdp88_AR_CLEG_target@@@8 ; dp88_AR_CLEG_target::`RTTI Base Class Descriptor at (0,-1,0,64)'
	DD	03H
	DD	00H
	DD	0ffffffffH
	DD	00H
	DD	040H
	DD	FLAT:??_R3dp88_AR_CLEG_target@@8
rdata$r	ENDS
;	COMDAT ??_R2dp88_AR_CLEG_target@@8
rdata$r	SEGMENT
??_R2dp88_AR_CLEG_target@@8 DD FLAT:??_R1A@?0A@EA@dp88_AR_CLEG_target@@8 ; dp88_AR_CLEG_target::`RTTI Base Class Array'
	DD	FLAT:??_R1A@?0A@EA@ScriptImpClass@@8
	DD	FLAT:??_R1A@?0A@EA@ScriptClass@@8
	DD	FLAT:??_R1A@?0A@EA@GameObjObserverClass@@8
rdata$r	ENDS
;	COMDAT ??_R3dp88_AR_CLEG_target@@8
rdata$r	SEGMENT
??_R3dp88_AR_CLEG_target@@8 DD 00H			; dp88_AR_CLEG_target::`RTTI Class Hierarchy Descriptor'
	DD	00H
	DD	04H
	DD	FLAT:??_R2dp88_AR_CLEG_target@@8
rdata$r	ENDS
;	COMDAT ??_R0?AVdp88_AR_CLEG_target@@@8
_DATA	SEGMENT
??_R0?AVdp88_AR_CLEG_target@@@8 DD FLAT:??_7type_info@@6B@ ; dp88_AR_CLEG_target `RTTI Type Descriptor'
	DD	00H
	DB	'.?AVdp88_AR_CLEG_target@@', 00H
_DATA	ENDS
;	COMDAT ??_R4dp88_AR_CLEG_target@@6B@
rdata$r	SEGMENT
??_R4dp88_AR_CLEG_target@@6B@ DD 00H			; dp88_AR_CLEG_target::`RTTI Complete Object Locator'
	DD	00H
	DD	00H
	DD	FLAT:??_R0?AVdp88_AR_CLEG_target@@@8
	DD	FLAT:??_R3dp88_AR_CLEG_target@@8
rdata$r	ENDS
;	COMDAT ??_R1A@?0A@EA@dp88_AR_CLEG@@8
rdata$r	SEGMENT
??_R1A@?0A@EA@dp88_AR_CLEG@@8 DD FLAT:??_R0?AVdp88_AR_CLEG@@@8 ; dp88_AR_CLEG::`RTTI Base Class Descriptor at (0,-1,0,64)'
	DD	03H
	DD	00H
	DD	0ffffffffH
	DD	00H
	DD	040H
	DD	FLAT:??_R3dp88_AR_CLEG@@8
rdata$r	ENDS
;	COMDAT ??_R2dp88_AR_CLEG@@8
rdata$r	SEGMENT
??_R2dp88_AR_CLEG@@8 DD FLAT:??_R1A@?0A@EA@dp88_AR_CLEG@@8 ; dp88_AR_CLEG::`RTTI Base Class Array'
	DD	FLAT:??_R1A@?0A@EA@ScriptImpClass@@8
	DD	FLAT:??_R1A@?0A@EA@ScriptClass@@8
	DD	FLAT:??_R1A@?0A@EA@GameObjObserverClass@@8
rdata$r	ENDS
;	COMDAT ??_R3dp88_AR_CLEG@@8
rdata$r	SEGMENT
??_R3dp88_AR_CLEG@@8 DD 00H				; dp88_AR_CLEG::`RTTI Class Hierarchy Descriptor'
	DD	00H
	DD	04H
	DD	FLAT:??_R2dp88_AR_CLEG@@8
rdata$r	ENDS
;	COMDAT ??_R0?AVdp88_AR_CLEG@@@8
_DATA	SEGMENT
??_R0?AVdp88_AR_CLEG@@@8 DD FLAT:??_7type_info@@6B@	; dp88_AR_CLEG `RTTI Type Descriptor'
	DD	00H
	DB	'.?AVdp88_AR_CLEG@@', 00H
_DATA	ENDS
;	COMDAT ??_R4dp88_AR_CLEG@@6B@
rdata$r	SEGMENT
??_R4dp88_AR_CLEG@@6B@ DD 00H				; dp88_AR_CLEG::`RTTI Complete Object Locator'
	DD	00H
	DD	00H
	DD	FLAT:??_R0?AVdp88_AR_CLEG@@@8
	DD	FLAT:??_R3dp88_AR_CLEG@@8
rdata$r	ENDS
;	COMDAT ??_R1A@?0A@EA@dp88_AR_Deployable_Infantry@@8
rdata$r	SEGMENT
??_R1A@?0A@EA@dp88_AR_Deployable_Infantry@@8 DD FLAT:??_R0?AVdp88_AR_Deployable_Infantry@@@8 ; dp88_AR_Deployable_Infantry::`RTTI Base Class Descriptor at (0,-1,0,64)'
	DD	04H
	DD	00H
	DD	0ffffffffH
	DD	00H
	DD	040H
	DD	FLAT:??_R3dp88_AR_Deployable_Infantry@@8
rdata$r	ENDS
;	COMDAT ??_R2dp88_AR_Deployable_Infantry@@8
rdata$r	SEGMENT
??_R2dp88_AR_Deployable_Infantry@@8 DD FLAT:??_R1A@?0A@EA@dp88_AR_Deployable_Infantry@@8 ; dp88_AR_Deployable_Infantry::`RTTI Base Class Array'
	DD	FLAT:??_R1A@?0A@EA@JFW_Key_Hook_Base@@8
	DD	FLAT:??_R1A@?0A@EA@ScriptImpClass@@8
	DD	FLAT:??_R1A@?0A@EA@ScriptClass@@8
	DD	FLAT:??_R1A@?0A@EA@GameObjObserverClass@@8
rdata$r	ENDS
;	COMDAT ??_R3dp88_AR_Deployable_Infantry@@8
rdata$r	SEGMENT
??_R3dp88_AR_Deployable_Infantry@@8 DD 00H		; dp88_AR_Deployable_Infantry::`RTTI Class Hierarchy Descriptor'
	DD	00H
	DD	05H
	DD	FLAT:??_R2dp88_AR_Deployable_Infantry@@8
rdata$r	ENDS
;	COMDAT ??_R0?AVdp88_AR_Deployable_Infantry@@@8
_DATA	SEGMENT
??_R0?AVdp88_AR_Deployable_Infantry@@@8 DD FLAT:??_7type_info@@6B@ ; dp88_AR_Deployable_Infantry `RTTI Type Descriptor'
	DD	00H
	DB	'.?AVdp88_AR_Deployable_Infantry@@', 00H
_DATA	ENDS
;	COMDAT ??_R4dp88_AR_Deployable_Infantry@@6B@
rdata$r	SEGMENT
??_R4dp88_AR_Deployable_Infantry@@6B@ DD 00H		; dp88_AR_Deployable_Infantry::`RTTI Complete Object Locator'
	DD	00H
	DD	00H
	DD	FLAT:??_R0?AVdp88_AR_Deployable_Infantry@@@8
	DD	FLAT:??_R3dp88_AR_Deployable_Infantry@@8
rdata$r	ENDS
;	COMDAT ??_R1A@?0A@EA@dp88_AR_GameController@@8
rdata$r	SEGMENT
??_R1A@?0A@EA@dp88_AR_GameController@@8 DD FLAT:??_R0?AVdp88_AR_GameController@@@8 ; dp88_AR_GameController::`RTTI Base Class Descriptor at (0,-1,0,64)'
	DD	04H
	DD	00H
	DD	0ffffffffH
	DD	00H
	DD	040H
	DD	FLAT:??_R3dp88_AR_GameController@@8
rdata$r	ENDS
;	COMDAT ??_R2dp88_AR_GameController@@8
rdata$r	SEGMENT
??_R2dp88_AR_GameController@@8 DD FLAT:??_R1A@?0A@EA@dp88_AR_GameController@@8 ; dp88_AR_GameController::`RTTI Base Class Array'
	DD	FLAT:??_R1A@?0A@EA@dp88_Camo_Controller@@8
	DD	FLAT:??_R1A@?0A@EA@ScriptImpClass@@8
	DD	FLAT:??_R1A@?0A@EA@ScriptClass@@8
	DD	FLAT:??_R1A@?0A@EA@GameObjObserverClass@@8
rdata$r	ENDS
;	COMDAT ??_R3dp88_AR_GameController@@8
rdata$r	SEGMENT
??_R3dp88_AR_GameController@@8 DD 00H			; dp88_AR_GameController::`RTTI Class Hierarchy Descriptor'
	DD	00H
	DD	05H
	DD	FLAT:??_R2dp88_AR_GameController@@8
rdata$r	ENDS
;	COMDAT ??_R0?AVdp88_AR_GameController@@@8
_DATA	SEGMENT
??_R0?AVdp88_AR_GameController@@@8 DD FLAT:??_7type_info@@6B@ ; dp88_AR_GameController `RTTI Type Descriptor'
	DD	00H
	DB	'.?AVdp88_AR_GameController@@', 00H
_DATA	ENDS
;	COMDAT ??_R4dp88_AR_GameController@@6B@
rdata$r	SEGMENT
??_R4dp88_AR_GameController@@6B@ DD 00H			; dp88_AR_GameController::`RTTI Complete Object Locator'
	DD	00H
	DD	00H
	DD	FLAT:??_R0?AVdp88_AR_GameController@@@8
	DD	FLAT:??_R3dp88_AR_GameController@@8
rdata$r	ENDS
;	COMDAT ??_R1A@?0A@EA@dp88_Camo_Controller@@8
rdata$r	SEGMENT
??_R1A@?0A@EA@dp88_Camo_Controller@@8 DD FLAT:??_R0?AVdp88_Camo_Controller@@@8 ; dp88_Camo_Controller::`RTTI Base Class Descriptor at (0,-1,0,64)'
	DD	03H
	DD	00H
	DD	0ffffffffH
	DD	00H
	DD	040H
	DD	FLAT:??_R3dp88_Camo_Controller@@8
rdata$r	ENDS
;	COMDAT ??_R2dp88_Camo_Controller@@8
rdata$r	SEGMENT
??_R2dp88_Camo_Controller@@8 DD FLAT:??_R1A@?0A@EA@dp88_Camo_Controller@@8 ; dp88_Camo_Controller::`RTTI Base Class Array'
	DD	FLAT:??_R1A@?0A@EA@ScriptImpClass@@8
	DD	FLAT:??_R1A@?0A@EA@ScriptClass@@8
	DD	FLAT:??_R1A@?0A@EA@GameObjObserverClass@@8
rdata$r	ENDS
;	COMDAT ??_R3dp88_Camo_Controller@@8
rdata$r	SEGMENT
??_R3dp88_Camo_Controller@@8 DD 00H			; dp88_Camo_Controller::`RTTI Class Hierarchy Descriptor'
	DD	00H
	DD	04H
	DD	FLAT:??_R2dp88_Camo_Controller@@8
rdata$r	ENDS
;	COMDAT ??_R0?AVdp88_Camo_Controller@@@8
_DATA	SEGMENT
??_R0?AVdp88_Camo_Controller@@@8 DD FLAT:??_7type_info@@6B@ ; dp88_Camo_Controller `RTTI Type Descriptor'
	DD	00H
	DB	'.?AVdp88_Camo_Controller@@', 00H
_DATA	ENDS
;	COMDAT ??_R4dp88_Camo_Controller@@6B@
rdata$r	SEGMENT
??_R4dp88_Camo_Controller@@6B@ DD 00H			; dp88_Camo_Controller::`RTTI Complete Object Locator'
	DD	00H
	DD	00H
	DD	FLAT:??_R0?AVdp88_Camo_Controller@@@8
	DD	FLAT:??_R3dp88_Camo_Controller@@8
rdata$r	ENDS
;	COMDAT ??_R1A@?0A@EA@dp88_AI_ChargedTurret@@8
rdata$r	SEGMENT
??_R1A@?0A@EA@dp88_AI_ChargedTurret@@8 DD FLAT:??_R0?AVdp88_AI_ChargedTurret@@@8 ; dp88_AI_ChargedTurret::`RTTI Base Class Descriptor at (0,-1,0,64)'
	DD	05H
	DD	00H
	DD	0ffffffffH
	DD	00H
	DD	040H
	DD	FLAT:??_R3dp88_AI_ChargedTurret@@8
rdata$r	ENDS
;	COMDAT ??_R2dp88_AI_ChargedTurret@@8
rdata$r	SEGMENT
??_R2dp88_AI_ChargedTurret@@8 DD FLAT:??_R1A@?0A@EA@dp88_AI_ChargedTurret@@8 ; dp88_AI_ChargedTurret::`RTTI Base Class Array'
	DD	FLAT:??_R1A@?0A@EA@dp88_AI_Turret@@8
	DD	FLAT:??_R1A@?0A@EA@dp88_customAI@@8
	DD	FLAT:??_R1A@?0A@EA@ScriptImpClass@@8
	DD	FLAT:??_R1A@?0A@EA@ScriptClass@@8
	DD	FLAT:??_R1A@?0A@EA@GameObjObserverClass@@8
rdata$r	ENDS
;	COMDAT ??_R3dp88_AI_ChargedTurret@@8
rdata$r	SEGMENT
??_R3dp88_AI_ChargedTurret@@8 DD 00H			; dp88_AI_ChargedTurret::`RTTI Class Hierarchy Descriptor'
	DD	00H
	DD	06H
	DD	FLAT:??_R2dp88_AI_ChargedTurret@@8
rdata$r	ENDS
;	COMDAT ??_R0?AVdp88_AI_ChargedTurret@@@8
_DATA	SEGMENT
??_R0?AVdp88_AI_ChargedTurret@@@8 DD FLAT:??_7type_info@@6B@ ; dp88_AI_ChargedTurret `RTTI Type Descriptor'
	DD	00H
	DB	'.?AVdp88_AI_ChargedTurret@@', 00H
_DATA	ENDS
;	COMDAT ??_R4dp88_AI_ChargedTurret@@6B@
rdata$r	SEGMENT
??_R4dp88_AI_ChargedTurret@@6B@ DD 00H			; dp88_AI_ChargedTurret::`RTTI Complete Object Locator'
	DD	00H
	DD	00H
	DD	FLAT:??_R0?AVdp88_AI_ChargedTurret@@@8
	DD	FLAT:??_R3dp88_AI_ChargedTurret@@8
rdata$r	ENDS
;	COMDAT ??_R1A@?0A@EA@dp88_AI_Turret@@8
rdata$r	SEGMENT
??_R1A@?0A@EA@dp88_AI_Turret@@8 DD FLAT:??_R0?AVdp88_AI_Turret@@@8 ; dp88_AI_Turret::`RTTI Base Class Descriptor at (0,-1,0,64)'
	DD	04H
	DD	00H
	DD	0ffffffffH
	DD	00H
	DD	040H
	DD	FLAT:??_R3dp88_AI_Turret@@8
rdata$r	ENDS
;	COMDAT ??_R2dp88_AI_Turret@@8
rdata$r	SEGMENT
??_R2dp88_AI_Turret@@8 DD FLAT:??_R1A@?0A@EA@dp88_AI_Turret@@8 ; dp88_AI_Turret::`RTTI Base Class Array'
	DD	FLAT:??_R1A@?0A@EA@dp88_customAI@@8
	DD	FLAT:??_R1A@?0A@EA@ScriptImpClass@@8
	DD	FLAT:??_R1A@?0A@EA@ScriptClass@@8
	DD	FLAT:??_R1A@?0A@EA@GameObjObserverClass@@8
rdata$r	ENDS
;	COMDAT ??_R3dp88_AI_Turret@@8
rdata$r	SEGMENT
??_R3dp88_AI_Turret@@8 DD 00H				; dp88_AI_Turret::`RTTI Class Hierarchy Descriptor'
	DD	00H
	DD	05H
	DD	FLAT:??_R2dp88_AI_Turret@@8
rdata$r	ENDS
;	COMDAT ??_R0?AVdp88_AI_Turret@@@8
_DATA	SEGMENT
??_R0?AVdp88_AI_Turret@@@8 DD FLAT:??_7type_info@@6B@	; dp88_AI_Turret `RTTI Type Descriptor'
	DD	00H
	DB	'.?AVdp88_AI_Turret@@', 00H
_DATA	ENDS
;	COMDAT ??_R4dp88_AI_Turret@@6B@
rdata$r	SEGMENT
??_R4dp88_AI_Turret@@6B@ DD 00H				; dp88_AI_Turret::`RTTI Complete Object Locator'
	DD	00H
	DD	00H
	DD	FLAT:??_R0?AVdp88_AI_Turret@@@8
	DD	FLAT:??_R3dp88_AI_Turret@@8
rdata$r	ENDS
;	COMDAT ??_R1A@?0A@EA@dp88_customAI@@8
rdata$r	SEGMENT
??_R1A@?0A@EA@dp88_customAI@@8 DD FLAT:??_R0?AVdp88_customAI@@@8 ; dp88_customAI::`RTTI Base Class Descriptor at (0,-1,0,64)'
	DD	03H
	DD	00H
	DD	0ffffffffH
	DD	00H
	DD	040H
	DD	FLAT:??_R3dp88_customAI@@8
rdata$r	ENDS
;	COMDAT ??_R2dp88_customAI@@8
rdata$r	SEGMENT
??_R2dp88_customAI@@8 DD FLAT:??_R1A@?0A@EA@dp88_customAI@@8 ; dp88_customAI::`RTTI Base Class Array'
	DD	FLAT:??_R1A@?0A@EA@ScriptImpClass@@8
	DD	FLAT:??_R1A@?0A@EA@ScriptClass@@8
	DD	FLAT:??_R1A@?0A@EA@GameObjObserverClass@@8
rdata$r	ENDS
;	COMDAT ??_R3dp88_customAI@@8
rdata$r	SEGMENT
??_R3dp88_customAI@@8 DD 00H				; dp88_customAI::`RTTI Class Hierarchy Descriptor'
	DD	00H
	DD	04H
	DD	FLAT:??_R2dp88_customAI@@8
rdata$r	ENDS
;	COMDAT ??_R0?AVdp88_customAI@@@8
_DATA	SEGMENT
??_R0?AVdp88_customAI@@@8 DD FLAT:??_7type_info@@6B@	; dp88_customAI `RTTI Type Descriptor'
	DD	00H
	DB	'.?AVdp88_customAI@@', 00H
_DATA	ENDS
;	COMDAT ??_R4dp88_customAI@@6B@
rdata$r	SEGMENT
??_R4dp88_customAI@@6B@ DD 00H				; dp88_customAI::`RTTI Complete Object Locator'
	DD	00H
	DD	00H
	DD	FLAT:??_R0?AVdp88_customAI@@@8
	DD	FLAT:??_R3dp88_customAI@@8
rdata$r	ENDS
;	COMDAT ??_R1A@?0A@EA@JFW_Object_Created_Hook_Base@@8
rdata$r	SEGMENT
??_R1A@?0A@EA@JFW_Object_Created_Hook_Base@@8 DD FLAT:??_R0?AVJFW_Object_Created_Hook_Base@@@8 ; JFW_Object_Created_Hook_Base::`RTTI Base Class Descriptor at (0,-1,0,64)'
	DD	03H
	DD	00H
	DD	0ffffffffH
	DD	00H
	DD	040H
	DD	FLAT:??_R3JFW_Object_Created_Hook_Base@@8
rdata$r	ENDS
;	COMDAT ??_R2JFW_Object_Created_Hook_Base@@8
rdata$r	SEGMENT
??_R2JFW_Object_Created_Hook_Base@@8 DD FLAT:??_R1A@?0A@EA@JFW_Object_Created_Hook_Base@@8 ; JFW_Object_Created_Hook_Base::`RTTI Base Class Array'
	DD	FLAT:??_R1A@?0A@EA@ScriptImpClass@@8
	DD	FLAT:??_R1A@?0A@EA@ScriptClass@@8
	DD	FLAT:??_R1A@?0A@EA@GameObjObserverClass@@8
rdata$r	ENDS
;	COMDAT ??_R3JFW_Object_Created_Hook_Base@@8
rdata$r	SEGMENT
??_R3JFW_Object_Created_Hook_Base@@8 DD 00H		; JFW_Object_Created_Hook_Base::`RTTI Class Hierarchy Descriptor'
	DD	00H
	DD	04H
	DD	FLAT:??_R2JFW_Object_Created_Hook_Base@@8
rdata$r	ENDS
;	COMDAT ??_R0?AVJFW_Object_Created_Hook_Base@@@8
_DATA	SEGMENT
??_R0?AVJFW_Object_Created_Hook_Base@@@8 DD FLAT:??_7type_info@@6B@ ; JFW_Object_Created_Hook_Base `RTTI Type Descriptor'
	DD	00H
	DB	'.?AVJFW_Object_Created_Hook_Base@@', 00H
_DATA	ENDS
;	COMDAT ??_R4JFW_Object_Created_Hook_Base@@6B@
rdata$r	SEGMENT
??_R4JFW_Object_Created_Hook_Base@@6B@ DD 00H		; JFW_Object_Created_Hook_Base::`RTTI Complete Object Locator'
	DD	00H
	DD	00H
	DD	FLAT:??_R0?AVJFW_Object_Created_Hook_Base@@@8
	DD	FLAT:??_R3JFW_Object_Created_Hook_Base@@8
rdata$r	ENDS
;	COMDAT ??_R1A@?0A@EA@?$SList@UKeyHookWrapperStruct@MultiKeyHookScriptImpClass@@@@8
rdata$r	SEGMENT
??_R1A@?0A@EA@?$SList@UKeyHookWrapperStruct@MultiKeyHookScriptImpClass@@@@8 DD FLAT:??_R0?AV?$SList@UKeyHookWrapperStruct@MultiKeyHookScriptImpClass@@@@@8 ; SList<MultiKeyHookScriptImpClass::KeyHookWrapperStruct>::`RTTI Base Class Descriptor at (0,-1,0,64)'
	DD	00H
	DD	00H
	DD	0ffffffffH
	DD	00H
	DD	040H
	DD	FLAT:??_R3?$SList@UKeyHookWrapperStruct@MultiKeyHookScriptImpClass@@@@8
rdata$r	ENDS
;	COMDAT ??_R2?$SList@UKeyHookWrapperStruct@MultiKeyHookScriptImpClass@@@@8
rdata$r	SEGMENT
??_R2?$SList@UKeyHookWrapperStruct@MultiKeyHookScriptImpClass@@@@8 DD FLAT:??_R1A@?0A@EA@?$SList@UKeyHookWrapperStruct@MultiKeyHookScriptImpClass@@@@8 ; SList<MultiKeyHookScriptImpClass::KeyHookWrapperStruct>::`RTTI Base Class Array'
rdata$r	ENDS
;	COMDAT ??_R3?$SList@UKeyHookWrapperStruct@MultiKeyHookScriptImpClass@@@@8
rdata$r	SEGMENT
??_R3?$SList@UKeyHookWrapperStruct@MultiKeyHookScriptImpClass@@@@8 DD 00H ; SList<MultiKeyHookScriptImpClass::KeyHookWrapperStruct>::`RTTI Class Hierarchy Descriptor'
	DD	00H
	DD	01H
	DD	FLAT:??_R2?$SList@UKeyHookWrapperStruct@MultiKeyHookScriptImpClass@@@@8
rdata$r	ENDS
;	COMDAT ??_R0?AV?$SList@UKeyHookWrapperStruct@MultiKeyHookScriptImpClass@@@@@8
_DATA	SEGMENT
??_R0?AV?$SList@UKeyHookWrapperStruct@MultiKeyHookScriptImpClass@@@@@8 DD FLAT:??_7type_info@@6B@ ; SList<MultiKeyHookScriptImpClass::KeyHookWrapperStruct> `RTTI Type Descriptor'
	DD	00H
	DB	'.?AV?$SList@UKeyHookWrapperStruct@MultiKeyHookScriptImpC'
	DB	'lass@@@@', 00H
_DATA	ENDS
;	COMDAT ??_R4?$SList@UKeyHookWrapperStruct@MultiKeyHookScriptImpClass@@@@6B@
rdata$r	SEGMENT
??_R4?$SList@UKeyHookWrapperStruct@MultiKeyHookScriptImpClass@@@@6B@ DD 00H ; SList<MultiKeyHookScriptImpClass::KeyHookWrapperStruct>::`RTTI Complete Object Locator'
	DD	00H
	DD	00H
	DD	FLAT:??_R0?AV?$SList@UKeyHookWrapperStruct@MultiKeyHookScriptImpClass@@@@@8
	DD	FLAT:??_R3?$SList@UKeyHookWrapperStruct@MultiKeyHookScriptImpClass@@@@8
rdata$r	ENDS
;	COMDAT ??_R1A@?0A@EA@MultiKeyHookScriptImpClass@@8
rdata$r	SEGMENT
??_R1A@?0A@EA@MultiKeyHookScriptImpClass@@8 DD FLAT:??_R0?AVMultiKeyHookScriptImpClass@@@8 ; MultiKeyHookScriptImpClass::`RTTI Base Class Descriptor at (0,-1,0,64)'
	DD	03H
	DD	00H
	DD	0ffffffffH
	DD	00H
	DD	040H
	DD	FLAT:??_R3MultiKeyHookScriptImpClass@@8
rdata$r	ENDS
;	COMDAT ??_R2MultiKeyHookScriptImpClass@@8
rdata$r	SEGMENT
??_R2MultiKeyHookScriptImpClass@@8 DD FLAT:??_R1A@?0A@EA@MultiKeyHookScriptImpClass@@8 ; MultiKeyHookScriptImpClass::`RTTI Base Class Array'
	DD	FLAT:??_R1A@?0A@EA@ScriptImpClass@@8
	DD	FLAT:??_R1A@?0A@EA@ScriptClass@@8
	DD	FLAT:??_R1A@?0A@EA@GameObjObserverClass@@8
rdata$r	ENDS
;	COMDAT ??_R3MultiKeyHookScriptImpClass@@8
rdata$r	SEGMENT
??_R3MultiKeyHookScriptImpClass@@8 DD 00H		; MultiKeyHookScriptImpClass::`RTTI Class Hierarchy Descriptor'
	DD	00H
	DD	04H
	DD	FLAT:??_R2MultiKeyHookScriptImpClass@@8
rdata$r	ENDS
;	COMDAT ??_R0?AVMultiKeyHookScriptImpClass@@@8
_DATA	SEGMENT
??_R0?AVMultiKeyHookScriptImpClass@@@8 DD FLAT:??_7type_info@@6B@ ; MultiKeyHookScriptImpClass `RTTI Type Descriptor'
	DD	00H
	DB	'.?AVMultiKeyHookScriptImpClass@@', 00H
_DATA	ENDS
;	COMDAT ??_R4MultiKeyHookScriptImpClass@@6B@
rdata$r	SEGMENT
??_R4MultiKeyHookScriptImpClass@@6B@ DD 00H		; MultiKeyHookScriptImpClass::`RTTI Complete Object Locator'
	DD	00H
	DD	00H
	DD	FLAT:??_R0?AVMultiKeyHookScriptImpClass@@@8
	DD	FLAT:??_R3MultiKeyHookScriptImpClass@@8
rdata$r	ENDS
;	COMDAT ??_R1A@?0A@EA@JFW_Key_Hook_Base@@8
rdata$r	SEGMENT
??_R1A@?0A@EA@JFW_Key_Hook_Base@@8 DD FLAT:??_R0?AVJFW_Key_Hook_Base@@@8 ; JFW_Key_Hook_Base::`RTTI Base Class Descriptor at (0,-1,0,64)'
	DD	03H
	DD	00H
	DD	0ffffffffH
	DD	00H
	DD	040H
	DD	FLAT:??_R3JFW_Key_Hook_Base@@8
rdata$r	ENDS
;	COMDAT ??_R2JFW_Key_Hook_Base@@8
rdata$r	SEGMENT
??_R2JFW_Key_Hook_Base@@8 DD FLAT:??_R1A@?0A@EA@JFW_Key_Hook_Base@@8 ; JFW_Key_Hook_Base::`RTTI Base Class Array'
	DD	FLAT:??_R1A@?0A@EA@ScriptImpClass@@8
	DD	FLAT:??_R1A@?0A@EA@ScriptClass@@8
	DD	FLAT:??_R1A@?0A@EA@GameObjObserverClass@@8
rdata$r	ENDS
;	COMDAT ??_R3JFW_Key_Hook_Base@@8
rdata$r	SEGMENT
??_R3JFW_Key_Hook_Base@@8 DD 00H			; JFW_Key_Hook_Base::`RTTI Class Hierarchy Descriptor'
	DD	00H
	DD	04H
	DD	FLAT:??_R2JFW_Key_Hook_Base@@8
rdata$r	ENDS
;	COMDAT ??_R0?AVJFW_Key_Hook_Base@@@8
_DATA	SEGMENT
??_R0?AVJFW_Key_Hook_Base@@@8 DD FLAT:??_7type_info@@6B@ ; JFW_Key_Hook_Base `RTTI Type Descriptor'
	DD	00H
	DB	'.?AVJFW_Key_Hook_Base@@', 00H
_DATA	ENDS
;	COMDAT ??_R4JFW_Key_Hook_Base@@6B@
rdata$r	SEGMENT
??_R4JFW_Key_Hook_Base@@6B@ DD 00H			; JFW_Key_Hook_Base::`RTTI Complete Object Locator'
	DD	00H
	DD	00H
	DD	FLAT:??_R0?AVJFW_Key_Hook_Base@@@8
	DD	FLAT:??_R3JFW_Key_Hook_Base@@8
rdata$r	ENDS
;	COMDAT ??_R1A@?0A@EA@?$SList@VScriptableGameObj@@@@8
rdata$r	SEGMENT
??_R1A@?0A@EA@?$SList@VScriptableGameObj@@@@8 DD FLAT:??_R0?AV?$SList@VScriptableGameObj@@@@@8 ; SList<ScriptableGameObj>::`RTTI Base Class Descriptor at (0,-1,0,64)'
	DD	00H
	DD	00H
	DD	0ffffffffH
	DD	00H
	DD	040H
	DD	FLAT:??_R3?$SList@VScriptableGameObj@@@@8
rdata$r	ENDS
;	COMDAT ??_R2?$SList@VScriptableGameObj@@@@8
rdata$r	SEGMENT
??_R2?$SList@VScriptableGameObj@@@@8 DD FLAT:??_R1A@?0A@EA@?$SList@VScriptableGameObj@@@@8 ; SList<ScriptableGameObj>::`RTTI Base Class Array'
rdata$r	ENDS
;	COMDAT ??_R3?$SList@VScriptableGameObj@@@@8
rdata$r	SEGMENT
??_R3?$SList@VScriptableGameObj@@@@8 DD 00H		; SList<ScriptableGameObj>::`RTTI Class Hierarchy Descriptor'
	DD	00H
	DD	01H
	DD	FLAT:??_R2?$SList@VScriptableGameObj@@@@8
rdata$r	ENDS
;	COMDAT ??_R0?AV?$SList@VScriptableGameObj@@@@@8
_DATA	SEGMENT
??_R0?AV?$SList@VScriptableGameObj@@@@@8 DD FLAT:??_7type_info@@6B@ ; SList<ScriptableGameObj> `RTTI Type Descriptor'
	DD	00H
	DB	'.?AV?$SList@VScriptableGameObj@@@@', 00H
_DATA	ENDS
;	COMDAT ??_R4?$SList@VScriptableGameObj@@@@6B@
rdata$r	SEGMENT
??_R4?$SList@VScriptableGameObj@@@@6B@ DD 00H		; SList<ScriptableGameObj>::`RTTI Complete Object Locator'
	DD	00H
	DD	00H
	DD	FLAT:??_R0?AV?$SList@VScriptableGameObj@@@@@8
	DD	FLAT:??_R3?$SList@VScriptableGameObj@@@@8
rdata$r	ENDS
;	COMDAT ??_R1A@?0A@EA@ReferencerClass@@8
rdata$r	SEGMENT
??_R1A@?0A@EA@ReferencerClass@@8 DD FLAT:??_R0?AVReferencerClass@@@8 ; ReferencerClass::`RTTI Base Class Descriptor at (0,-1,0,64)'
	DD	01H
	DD	00H
	DD	0ffffffffH
	DD	00H
	DD	040H
	DD	FLAT:??_R3ReferencerClass@@8
rdata$r	ENDS
;	COMDAT ??_R2ReferencerClass@@8
rdata$r	SEGMENT
??_R2ReferencerClass@@8 DD FLAT:??_R1A@?0A@EA@ReferencerClass@@8 ; ReferencerClass::`RTTI Base Class Array'
	DD	FLAT:??_R1A@?0A@EA@PostLoadableClass@@8
rdata$r	ENDS
;	COMDAT ??_R3ReferencerClass@@8
rdata$r	SEGMENT
??_R3ReferencerClass@@8 DD 00H				; ReferencerClass::`RTTI Class Hierarchy Descriptor'
	DD	00H
	DD	02H
	DD	FLAT:??_R2ReferencerClass@@8
rdata$r	ENDS
;	COMDAT ??_R0?AVReferencerClass@@@8
_DATA	SEGMENT
??_R0?AVReferencerClass@@@8 DD FLAT:??_7type_info@@6B@	; ReferencerClass `RTTI Type Descriptor'
	DD	00H
	DB	'.?AVReferencerClass@@', 00H
_DATA	ENDS
;	COMDAT ??_R4ReferencerClass@@6B@
rdata$r	SEGMENT
??_R4ReferencerClass@@6B@ DD 00H			; ReferencerClass::`RTTI Complete Object Locator'
	DD	00H
	DD	00H
	DD	FLAT:??_R0?AVReferencerClass@@@8
	DD	FLAT:??_R3ReferencerClass@@8
rdata$r	ENDS
;	COMDAT ??_R4PostLoadableClass@@6B@
rdata$r	SEGMENT
??_R4PostLoadableClass@@6B@ DD 00H			; PostLoadableClass::`RTTI Complete Object Locator'
	DD	00H
	DD	00H
	DD	FLAT:??_R0?AVPostLoadableClass@@@8
	DD	FLAT:??_R3PostLoadableClass@@8
rdata$r	ENDS
;	COMDAT ??_R2PostLoadableClass@@8
rdata$r	SEGMENT
??_R2PostLoadableClass@@8 DD FLAT:??_R1A@?0A@EA@PostLoadableClass@@8 ; PostLoadableClass::`RTTI Base Class Array'
rdata$r	ENDS
;	COMDAT ??_R3PostLoadableClass@@8
rdata$r	SEGMENT
??_R3PostLoadableClass@@8 DD 00H			; PostLoadableClass::`RTTI Class Hierarchy Descriptor'
	DD	00H
	DD	01H
	DD	FLAT:??_R2PostLoadableClass@@8
rdata$r	ENDS
;	COMDAT ??_R0?AVPostLoadableClass@@@8
_DATA	SEGMENT
??_R0?AVPostLoadableClass@@@8 DD FLAT:??_7type_info@@6B@ ; PostLoadableClass `RTTI Type Descriptor'
	DD	00H
	DB	'.?AVPostLoadableClass@@', 00H
_DATA	ENDS
;	COMDAT ??_R1A@?0A@EA@PostLoadableClass@@8
rdata$r	SEGMENT
??_R1A@?0A@EA@PostLoadableClass@@8 DD FLAT:??_R0?AVPostLoadableClass@@@8 ; PostLoadableClass::`RTTI Base Class Descriptor at (0,-1,0,64)'
	DD	00H
	DD	00H
	DD	0ffffffffH
	DD	00H
	DD	040H
	DD	FLAT:??_R3PostLoadableClass@@8
rdata$r	ENDS
;	COMDAT ??_R1A@?0A@EA@INIClass@@8
rdata$r	SEGMENT
??_R1A@?0A@EA@INIClass@@8 DD FLAT:??_R0?AVINIClass@@@8	; INIClass::`RTTI Base Class Descriptor at (0,-1,0,64)'
	DD	00H
	DD	00H
	DD	0ffffffffH
	DD	00H
	DD	040H
	DD	FLAT:??_R3INIClass@@8
rdata$r	ENDS
;	COMDAT ??_R2INIClass@@8
rdata$r	SEGMENT
??_R2INIClass@@8 DD FLAT:??_R1A@?0A@EA@INIClass@@8	; INIClass::`RTTI Base Class Array'
rdata$r	ENDS
;	COMDAT ??_R3INIClass@@8
rdata$r	SEGMENT
??_R3INIClass@@8 DD 00H					; INIClass::`RTTI Class Hierarchy Descriptor'
	DD	00H
	DD	01H
	DD	FLAT:??_R2INIClass@@8
rdata$r	ENDS
;	COMDAT ??_R0?AVINIClass@@@8
_DATA	SEGMENT
??_R0?AVINIClass@@@8 DD FLAT:??_7type_info@@6B@		; INIClass `RTTI Type Descriptor'
	DD	00H
	DB	'.?AVINIClass@@', 00H
_DATA	ENDS
;	COMDAT ??_R4INIClass@@6B@
rdata$r	SEGMENT
??_R4INIClass@@6B@ DD 00H				; INIClass::`RTTI Complete Object Locator'
	DD	00H
	DD	00H
	DD	FLAT:??_R0?AVINIClass@@@8
	DD	FLAT:??_R3INIClass@@8
rdata$r	ENDS
;	COMDAT ??_R1A@?0A@EA@ThreadClass@@8
rdata$r	SEGMENT
??_R1A@?0A@EA@ThreadClass@@8 DD FLAT:??_R0?AVThreadClass@@@8 ; ThreadClass::`RTTI Base Class Descriptor at (0,-1,0,64)'
	DD	00H
	DD	00H
	DD	0ffffffffH
	DD	00H
	DD	040H
	DD	FLAT:??_R3ThreadClass@@8
rdata$r	ENDS
;	COMDAT ??_R2ThreadClass@@8
rdata$r	SEGMENT
??_R2ThreadClass@@8 DD FLAT:??_R1A@?0A@EA@ThreadClass@@8 ; ThreadClass::`RTTI Base Class Array'
rdata$r	ENDS
;	COMDAT ??_R3ThreadClass@@8
rdata$r	SEGMENT
??_R3ThreadClass@@8 DD 00H				; ThreadClass::`RTTI Class Hierarchy Descriptor'
	DD	00H
	DD	01H
	DD	FLAT:??_R2ThreadClass@@8
rdata$r	ENDS
;	COMDAT ??_R0?AVThreadClass@@@8
_DATA	SEGMENT
??_R0?AVThreadClass@@@8 DD FLAT:??_7type_info@@6B@	; ThreadClass `RTTI Type Descriptor'
	DD	00H
	DB	'.?AVThreadClass@@', 00H
_DATA	ENDS
;	COMDAT ??_R4ThreadClass@@6B@
rdata$r	SEGMENT
??_R4ThreadClass@@6B@ DD 00H				; ThreadClass::`RTTI Complete Object Locator'
	DD	00H
	DD	00H
	DD	FLAT:??_R0?AVThreadClass@@@8
	DD	FLAT:??_R3ThreadClass@@8
rdata$r	ENDS
;	COMDAT ??_R1A@?0A@EA@ScriptImpClass@@8
rdata$r	SEGMENT
??_R1A@?0A@EA@ScriptImpClass@@8 DD FLAT:??_R0?AVScriptImpClass@@@8 ; ScriptImpClass::`RTTI Base Class Descriptor at (0,-1,0,64)'
	DD	02H
	DD	00H
	DD	0ffffffffH
	DD	00H
	DD	040H
	DD	FLAT:??_R3ScriptImpClass@@8
rdata$r	ENDS
;	COMDAT ??_R2ScriptImpClass@@8
rdata$r	SEGMENT
??_R2ScriptImpClass@@8 DD FLAT:??_R1A@?0A@EA@ScriptImpClass@@8 ; ScriptImpClass::`RTTI Base Class Array'
	DD	FLAT:??_R1A@?0A@EA@ScriptClass@@8
	DD	FLAT:??_R1A@?0A@EA@GameObjObserverClass@@8
rdata$r	ENDS
;	COMDAT ??_R3ScriptImpClass@@8
rdata$r	SEGMENT
??_R3ScriptImpClass@@8 DD 00H				; ScriptImpClass::`RTTI Class Hierarchy Descriptor'
	DD	00H
	DD	03H
	DD	FLAT:??_R2ScriptImpClass@@8
rdata$r	ENDS
;	COMDAT ??_R0?AVScriptImpClass@@@8
_DATA	SEGMENT
??_R0?AVScriptImpClass@@@8 DD FLAT:??_7type_info@@6B@	; ScriptImpClass `RTTI Type Descriptor'
	DD	00H
	DB	'.?AVScriptImpClass@@', 00H
_DATA	ENDS
;	COMDAT ??_R4ScriptImpClass@@6B@
rdata$r	SEGMENT
??_R4ScriptImpClass@@6B@ DD 00H				; ScriptImpClass::`RTTI Complete Object Locator'
	DD	00H
	DD	00H
	DD	FLAT:??_R0?AVScriptImpClass@@@8
	DD	FLAT:??_R3ScriptImpClass@@8
rdata$r	ENDS
;	COMDAT ??_R4GameObjObserverClass@@6B@
rdata$r	SEGMENT
??_R4GameObjObserverClass@@6B@ DD 00H			; GameObjObserverClass::`RTTI Complete Object Locator'
	DD	00H
	DD	00H
	DD	FLAT:??_R0?AVGameObjObserverClass@@@8
	DD	FLAT:??_R3GameObjObserverClass@@8
rdata$r	ENDS
;	COMDAT ??_R2GameObjObserverClass@@8
rdata$r	SEGMENT
??_R2GameObjObserverClass@@8 DD FLAT:??_R1A@?0A@EA@GameObjObserverClass@@8 ; GameObjObserverClass::`RTTI Base Class Array'
rdata$r	ENDS
;	COMDAT ??_R3GameObjObserverClass@@8
rdata$r	SEGMENT
??_R3GameObjObserverClass@@8 DD 00H			; GameObjObserverClass::`RTTI Class Hierarchy Descriptor'
	DD	00H
	DD	01H
	DD	FLAT:??_R2GameObjObserverClass@@8
rdata$r	ENDS
;	COMDAT ??_R0?AVGameObjObserverClass@@@8
_DATA	SEGMENT
??_R0?AVGameObjObserverClass@@@8 DD FLAT:??_7type_info@@6B@ ; GameObjObserverClass `RTTI Type Descriptor'
	DD	00H
	DB	'.?AVGameObjObserverClass@@', 00H
_DATA	ENDS
;	COMDAT ??_R1A@?0A@EA@GameObjObserverClass@@8
rdata$r	SEGMENT
??_R1A@?0A@EA@GameObjObserverClass@@8 DD FLAT:??_R0?AVGameObjObserverClass@@@8 ; GameObjObserverClass::`RTTI Base Class Descriptor at (0,-1,0,64)'
	DD	00H
	DD	00H
	DD	0ffffffffH
	DD	00H
	DD	040H
	DD	FLAT:??_R3GameObjObserverClass@@8
rdata$r	ENDS
;	COMDAT ??_R1A@?0A@EA@ScriptClass@@8
rdata$r	SEGMENT
??_R1A@?0A@EA@ScriptClass@@8 DD FLAT:??_R0?AVScriptClass@@@8 ; ScriptClass::`RTTI Base Class Descriptor at (0,-1,0,64)'
	DD	01H
	DD	00H
	DD	0ffffffffH
	DD	00H
	DD	040H
	DD	FLAT:??_R3ScriptClass@@8
rdata$r	ENDS
;	COMDAT ??_R2ScriptClass@@8
rdata$r	SEGMENT
??_R2ScriptClass@@8 DD FLAT:??_R1A@?0A@EA@ScriptClass@@8 ; ScriptClass::`RTTI Base Class Array'
	DD	FLAT:??_R1A@?0A@EA@GameObjObserverClass@@8
rdata$r	ENDS
;	COMDAT ??_R3ScriptClass@@8
rdata$r	SEGMENT
??_R3ScriptClass@@8 DD 00H				; ScriptClass::`RTTI Class Hierarchy Descriptor'
	DD	00H
	DD	02H
	DD	FLAT:??_R2ScriptClass@@8
rdata$r	ENDS
;	COMDAT ??_R0?AVScriptClass@@@8
_DATA	SEGMENT
??_R0?AVScriptClass@@@8 DD FLAT:??_7type_info@@6B@	; ScriptClass `RTTI Type Descriptor'
	DD	00H
	DB	'.?AVScriptClass@@', 00H
_DATA	ENDS
;	COMDAT ??_R4ScriptClass@@6B@
rdata$r	SEGMENT
??_R4ScriptClass@@6B@ DD 00H				; ScriptClass::`RTTI Complete Object Locator'
	DD	00H
	DD	00H
	DD	FLAT:??_R0?AVScriptClass@@@8
	DD	FLAT:??_R3ScriptClass@@8
rdata$r	ENDS
;	COMDAT ??_R1A@?0A@EA@ScriptFactory@@8
rdata$r	SEGMENT
??_R1A@?0A@EA@ScriptFactory@@8 DD FLAT:??_R0?AVScriptFactory@@@8 ; ScriptFactory::`RTTI Base Class Descriptor at (0,-1,0,64)'
	DD	00H
	DD	00H
	DD	0ffffffffH
	DD	00H
	DD	040H
	DD	FLAT:??_R3ScriptFactory@@8
rdata$r	ENDS
;	COMDAT ??_R2ScriptFactory@@8
rdata$r	SEGMENT
??_R2ScriptFactory@@8 DD FLAT:??_R1A@?0A@EA@ScriptFactory@@8 ; ScriptFactory::`RTTI Base Class Array'
rdata$r	ENDS
;	COMDAT ??_R3ScriptFactory@@8
rdata$r	SEGMENT
??_R3ScriptFactory@@8 DD 00H				; ScriptFactory::`RTTI Class Hierarchy Descriptor'
	DD	00H
	DD	01H
	DD	FLAT:??_R2ScriptFactory@@8
rdata$r	ENDS
;	COMDAT ??_R0?AVScriptFactory@@@8
_DATA	SEGMENT
??_R0?AVScriptFactory@@@8 DD FLAT:??_7type_info@@6B@	; ScriptFactory `RTTI Type Descriptor'
	DD	00H
	DB	'.?AVScriptFactory@@', 00H
_DATA	ENDS
;	COMDAT ??_R4ScriptFactory@@6B@
rdata$r	SEGMENT
??_R4ScriptFactory@@6B@ DD 00H				; ScriptFactory::`RTTI Complete Object Locator'
	DD	00H
	DD	00H
	DD	FLAT:??_R0?AVScriptFactory@@@8
	DD	FLAT:??_R3ScriptFactory@@8
rdata$r	ENDS
;	COMDAT ??_C@_0DL@BOENBDGI@ObjectPoolClass?$DMclass?5GenericSLN@
CONST	SEGMENT
??_C@_0DL@BOENBDGI@ObjectPoolClass?$DMclass?5GenericSLN@ DB 'ObjectPoolCl'
	DB	'ass<class GenericSLNode,256>::~ObjectPoolClass', 00H ; `string'
CONST	ENDS
;	COMDAT ??_C@_0FF@NOANHENP@?$CFd?5memory?5leaks?5found?5in?5ObjectP@
CONST	SEGMENT
??_C@_0FF@NOANHENP@?$CFd?5memory?5leaks?5found?5in?5ObjectP@ DB '%d memor'
	DB	'y leaks found in ObjectPoolClass<class GenericSLNode,256>::~O'
	DB	'bjectPoolClass', 0aH, 00H			; `string'
CONST	ENDS
;	COMDAT ??_C@_0EB@IOGKEECK@ObjectPoolClass?$DMclass?5GenericSLN@
CONST	SEGMENT
??_C@_0EB@IOGKEECK@ObjectPoolClass?$DMclass?5GenericSLN@ DB 'ObjectPoolCl'
	DB	'ass<class GenericSLNode,256>::Allocate_Object_Memory', 00H ; `string'
CONST	ENDS
;	COMDAT ??_C@_0DA@HEHFNHDG@ScriptRegistrant?$DMclass?5dp88_link@
CONST	SEGMENT
??_C@_0DA@HEHFNHDG@ScriptRegistrant?$DMclass?5dp88_link@ DB 'ScriptRegist'
	DB	'rant<class dp88_linkHealth>::Create', 00H	; `string'
CONST	ENDS
;	COMDAT ??_C@_0DE@FEDGAINI@ScriptRegistrant?$DMclass?5dp88_AR_P@
CONST	SEGMENT
??_C@_0DE@FEDGAINI@ScriptRegistrant?$DMclass?5dp88_AR_P@ DB 'ScriptRegist'
	DB	'rant<class dp88_AR_Prism_Tower>::Create', 00H ; `string'
CONST	ENDS
;	COMDAT ??_C@_0DJ@DKFLFAOF@ScriptRegistrant?$DMclass?5dp88_AR_p@
CONST	SEGMENT
??_C@_0DJ@DKFLFAOF@ScriptRegistrant?$DMclass?5dp88_AR_p@ DB 'ScriptRegist'
	DB	'rant<class dp88_AR_paradrop_Console>::Create', 00H ; `string'
CONST	ENDS
;	COMDAT ??_C@_0DC@PHAIAMPP@ScriptRegistrant?$DMclass?5dp88_AR_D@
CONST	SEGMENT
??_C@_0DC@PHAIAMPP@ScriptRegistrant?$DMclass?5dp88_AR_D@ DB 'ScriptRegist'
	DB	'rant<class dp88_AR_DemoTruck>::Create', 00H	; `string'
CONST	ENDS
;	COMDAT ??_C@_0DK@DHGHOENO@ScriptRegistrant?$DMclass?5dp88_Remo@
CONST	SEGMENT
??_C@_0DK@DHGHOENO@ScriptRegistrant?$DMclass?5dp88_Remo@ DB 'ScriptRegist'
	DB	'rant<class dp88_RemoteControlVehicle>::Create', 00H ; `string'
CONST	ENDS
;	COMDAT ??_C@_0DK@CMOOKAPN@ScriptRegistrant?$DMclass?5dp88_Remo@
CONST	SEGMENT
??_C@_0DK@CMOOKAPN@ScriptRegistrant?$DMclass?5dp88_Remo@ DB 'ScriptRegist'
	DB	'rant<class dp88_RemoteControlConsole>::Create', 00H ; `string'
CONST	ENDS
;	COMDAT ??_C@_0ED@OKCGICOM@ScriptRegistrant?$DMclass?5dp88_Airc@
CONST	SEGMENT
??_C@_0ED@OKCGICOM@ScriptRegistrant?$DMclass?5dp88_Airc@ DB 'ScriptRegist'
	DB	'rant<class dp88_Aircraft_LandingZone_Aircraft>::Create', 00H ; `string'
CONST	ENDS
;	COMDAT ??_C@_0DK@POENDPMO@ScriptRegistrant?$DMclass?5dp88_Airc@
CONST	SEGMENT
??_C@_0DK@POENDPMO@ScriptRegistrant?$DMclass?5dp88_Airc@ DB 'ScriptRegist'
	DB	'rant<class dp88_Aircraft_LandingZone>::Create', 00H ; `string'
CONST	ENDS
;	COMDAT ??_C@_0DE@OLPOCJLH@ScriptRegistrant?$DMclass?5dp88_AR_C@
CONST	SEGMENT
??_C@_0DE@OLPOCJLH@ScriptRegistrant?$DMclass?5dp88_AR_C@ DB 'ScriptRegist'
	DB	'rant<class dp88_AR_CLEG_target>::Create', 00H ; `string'
CONST	ENDS
;	COMDAT ??_C@_0CN@HLMLBKJE@ScriptRegistrant?$DMclass?5dp88_AR_C@
CONST	SEGMENT
??_C@_0CN@HLMLBKJE@ScriptRegistrant?$DMclass?5dp88_AR_C@ DB 'ScriptRegist'
	DB	'rant<class dp88_AR_CLEG>::Create', 00H	; `string'
CONST	ENDS
;	COMDAT ??_C@_0DM@NNLNBAKJ@ScriptRegistrant?$DMclass?5dp88_AR_D@
CONST	SEGMENT
??_C@_0DM@NNLNBAKJ@ScriptRegistrant?$DMclass?5dp88_AR_D@ DB 'ScriptRegist'
	DB	'rant<class dp88_AR_Deployable_Infantry>::Create', 00H ; `string'
CONST	ENDS
;	COMDAT ??_C@_0DH@POLJMOBC@ScriptRegistrant?$DMclass?5dp88_AR_G@
CONST	SEGMENT
??_C@_0DH@POLJMOBC@ScriptRegistrant?$DMclass?5dp88_AR_G@ DB 'ScriptRegist'
	DB	'rant<class dp88_AR_GameController>::Create', 00H ; `string'
CONST	ENDS
;	COMDAT ??_C@_0DB@FOECPKBO@ScriptRegistrant?$DMclass?5dp88_AR_P@
CONST	SEGMENT
??_C@_0DB@FOECPKBO@ScriptRegistrant?$DMclass?5dp88_AR_P@ DB 'ScriptRegist'
	DB	'rant<class dp88_AR_Paradrop>::Create', 00H	; `string'
CONST	ENDS
;	COMDAT ??_C@_0DD@NDLGBNOC@ScriptRegistrant?$DMclass?5dp88_Ore_@
CONST	SEGMENT
??_C@_0DD@NDLGBNOC@ScriptRegistrant?$DMclass?5dp88_Ore_@ DB 'ScriptRegist'
	DB	'rant<class dp88_Ore_Dump_Zone>::Create', 00H ; `string'
CONST	ENDS
;	COMDAT ??_C@_0DD@GNEKOMJM@ScriptRegistrant?$DMclass?5dp88_Ore_@
CONST	SEGMENT
??_C@_0DD@GNEKOMJM@ScriptRegistrant?$DMclass?5dp88_Ore_@ DB 'ScriptRegist'
	DB	'rant<class dp88_Ore_Extractor>::Create', 00H ; `string'
CONST	ENDS
;	COMDAT ??_C@_0CP@NNLHKEFJ@ScriptRegistrant?$DMclass?5dp88_Ore_@
CONST	SEGMENT
??_C@_0CP@NNLHKEFJ@ScriptRegistrant?$DMclass?5dp88_Ore_@ DB 'ScriptRegist'
	DB	'rant<class dp88_Ore_Field>::Create', 00H	; `string'
CONST	ENDS
;	COMDAT ??_C@_0EA@IKNPFBAM@ScriptRegistrant?$DMclass?5dp88_AR_C@
CONST	SEGMENT
??_C@_0EA@IKNPFBAM@ScriptRegistrant?$DMclass?5dp88_AR_C@ DB 'ScriptRegist'
	DB	'rant<class dp88_AR_Chrono_Miner_Chronozone>::Create', 00H ; `string'
CONST	ENDS
;	COMDAT ??_C@_0DF@MJPKOALH@ScriptRegistrant?$DMclass?5dp88_AR_C@
CONST	SEGMENT
??_C@_0DF@MJPKOALH@ScriptRegistrant?$DMclass?5dp88_AR_C@ DB 'ScriptRegist'
	DB	'rant<class dp88_AR_Chrono_Miner>::Create', 00H ; `string'
CONST	ENDS
;	COMDAT ??_C@_1GG@OGNLNBPD@?$AAx?$AA?3?$AA?2?$AAg?$AAi?$AAt?$AAh?$AAu?$AAb?$AA?2?$AAr?$AAe?$AAn?$AAe?$AAg?$AAa?$AAd?$AAe?$AA?2?$AAd?$AAr?$AAa?$AAg?$AAo?$AAn?$AAa?$AAd?$AAe?$AA_?$AAr?$AAx?$AAd@
CONST	SEGMENT
??_C@_1GG@OGNLNBPD@?$AAx?$AA?3?$AA?2?$AAg?$AAi?$AAt?$AAh?$AAu?$AAb?$AA?2?$AAr?$AAe?$AAn?$AAe?$AAg?$AAa?$AAd?$AAe?$AA?2?$AAd?$AAr?$AAa?$AAg?$AAo?$AAn?$AAa?$AAd?$AAe?$AA_?$AAr?$AAx?$AAd@ DB 'x'
	DB	00H, ':', 00H, '\', 00H, 'g', 00H, 'i', 00H, 't', 00H, 'h', 00H
	DB	'u', 00H, 'b', 00H, '\', 00H, 'r', 00H, 'e', 00H, 'n', 00H, 'e'
	DB	00H, 'g', 00H, 'a', 00H, 'd', 00H, 'e', 00H, '\', 00H, 'd', 00H
	DB	'r', 00H, 'a', 00H, 'g', 00H, 'o', 00H, 'n', 00H, 'a', 00H, 'd'
	DB	00H, 'e', 00H, '_', 00H, 'r', 00H, 'x', 00H, 'd', 00H, '\', 00H
	DB	's', 00H, 'c', 00H, 'r', 00H, 'i', 00H, 'p', 00H, 't', 00H, 's'
	DB	00H, '\', 00H, 's', 00H, 'c', 00H, 'r', 00H, 'i', 00H, 'p', 00H
	DB	't', 00H, 's', 00H, '.', 00H, 'h', 00H, 00H, 00H ; `string'
CONST	ENDS
;	COMDAT ??_C@_0DD@KMKBFFOF@x?3?2github?2renegade?2dragonade_rxd@
CONST	SEGMENT
??_C@_0DD@KMKBFFOF@x?3?2github?2renegade?2dragonade_rxd@ DB 'x:\github\re'
	DB	'negade\dragonade_rxd\scripts\scripts.h', 00H ; `string'
CONST	ENDS
;	COMDAT ??_C@_0CP@DPGAIJBN@ScriptRegistrant?$DMclass?5dp88_Ore_@
CONST	SEGMENT
??_C@_0CP@DPGAIJBN@ScriptRegistrant?$DMclass?5dp88_Ore_@ DB 'ScriptRegist'
	DB	'rant<class dp88_Ore_Miner>::Create', 00H	; `string'
CONST	ENDS
