; Listing generated by Microsoft (R) Optimizing Compiler Version 17.00.61219.0 

	TITLE	X:\GitHub\Renegade\Dragonade_RxD\scripts\engine_game.cpp
	.686P
	.XMM
	include listing.inc
	.model	flat

INCLUDELIB MSVCRTD
INCLUDELIB OLDNAMES

PUBLIC	?AllMapsAreFlying@@3_NA				; AllMapsAreFlying
_BSS	SEGMENT
?AllMapsAreFlying@@3_NA DB 01H DUP (?)			; AllMapsAreFlying
_BSS	ENDS
CONST	SEGMENT
_DONT_MOVE_ARRIVED_DIST DD 0447a0000r		; 1000
CONST	ENDS
PUBLIC	??_H@YGXPAXIHP6EPAX0@Z@Z			; `vector constructor iterator'
PUBLIC	??_I@YGXPAXIHP6EX0@Z@Z				; `vector destructor iterator'
PUBLIC	_acosf
PUBLIC	_asinf
PUBLIC	_atanf
PUBLIC	_atan2f
PUBLIC	_ceilf
PUBLIC	_cosf
PUBLIC	_floorf
PUBLIC	_sinf
PUBLIC	_sqrtf
PUBLIC	?acos@@YAMM@Z					; acos
PUBLIC	?asin@@YAMM@Z					; asin
PUBLIC	?atan@@YAMM@Z					; atan
PUBLIC	?atan2@@YAMMM@Z					; atan2
PUBLIC	?cos@@YAMM@Z					; cos
PUBLIC	?sin@@YAMM@Z					; sin
PUBLIC	?sqrt@@YAMM@Z					; sqrt
PUBLIC	?Fabs@WWMath@@SAMM@Z				; WWMath::Fabs
PUBLIC	?Float_To_Int_Chop@WWMath@@SAHABM@Z		; WWMath::Float_To_Int_Chop
PUBLIC	?Float_To_Int_Floor@WWMath@@SAHABM@Z		; WWMath::Float_To_Int_Floor
PUBLIC	?Cos@WWMath@@SAMM@Z				; WWMath::Cos
PUBLIC	?Sin@WWMath@@SAMM@Z				; WWMath::Sin
PUBLIC	?Sqrt@WWMath@@SAMM@Z				; WWMath::Sqrt
PUBLIC	?Inv_Sqrt@WWMath@@SIMM@Z			; WWMath::Inv_Sqrt
PUBLIC	?Float_To_Long@WWMath@@SAJM@Z			; WWMath::Float_To_Long
PUBLIC	?Fast_Sin@WWMath@@SAMM@Z			; WWMath::Fast_Sin
PUBLIC	?Fast_Inv_Sin@WWMath@@SAMM@Z			; WWMath::Fast_Inv_Sin
PUBLIC	?Fast_Cos@WWMath@@SAMM@Z			; WWMath::Fast_Cos
PUBLIC	?Fast_Inv_Cos@WWMath@@SAMM@Z			; WWMath::Fast_Inv_Cos
PUBLIC	?Fast_Acos@WWMath@@SAMM@Z			; WWMath::Fast_Acos
PUBLIC	?Fast_Asin@WWMath@@SAMM@Z			; WWMath::Fast_Asin
PUBLIC	?Acos@WWMath@@SAMM@Z				; WWMath::Acos
PUBLIC	?Asin@WWMath@@SAMM@Z				; WWMath::Asin
PUBLIC	?Atan@WWMath@@SAMM@Z				; WWMath::Atan
PUBLIC	?Atan2@WWMath@@SAMMM@Z				; WWMath::Atan2
PUBLIC	?Sign@WWMath@@SAMM@Z				; WWMath::Sign
PUBLIC	?Ceil@WWMath@@SAMM@Z				; WWMath::Ceil
PUBLIC	?Floor@WWMath@@SAMM@Z				; WWMath::Floor
PUBLIC	?Fast_Is_Float_Positive@WWMath@@SA_NABM@Z	; WWMath::Fast_Is_Float_Positive
PUBLIC	?Random_Float@WWMath@@SAMMM@Z			; WWMath::Random_Float
PUBLIC	?Clamp@WWMath@@SAMMMM@Z				; WWMath::Clamp
PUBLIC	?Clamp@WWMath@@SANNNN@Z				; WWMath::Clamp
PUBLIC	?Clamp_Int@WWMath@@SAHHHH@Z			; WWMath::Clamp_Int
PUBLIC	?Wrap@WWMath@@SAMMMM@Z				; WWMath::Wrap
PUBLIC	?Wrap@WWMath@@SANNNN@Z				; WWMath::Wrap
PUBLIC	?Min@WWMath@@SAMMM@Z				; WWMath::Min
PUBLIC	?Max@WWMath@@SAMMM@Z				; WWMath::Max
PUBLIC	?Lerp@WWMath@@SAMMMM@Z				; WWMath::Lerp
PUBLIC	?Lerp@WWMath@@SANNNM@Z				; WWMath::Lerp
PUBLIC	?Lerp@WWMath@@SAHHHM@Z				; WWMath::Lerp
PUBLIC	?Float_To_Long@WWMath@@SAJN@Z			; WWMath::Float_To_Long
PUBLIC	?Unit_Float_To_Byte@WWMath@@SAEM@Z		; WWMath::Unit_Float_To_Byte
PUBLIC	?Byte_To_Unit_Float@WWMath@@SAME@Z		; WWMath::Byte_To_Unit_Float
PUBLIC	?Is_Valid_Float@WWMath@@SA_NM@Z			; WWMath::Is_Valid_Float
PUBLIC	?Is_Valid_Double@WWMath@@SA_NN@Z		; WWMath::Is_Valid_Double
PUBLIC	??4WWMath@@QAEAAV0@ABV0@@Z			; WWMath::operator=
PUBLIC	??B?$RefArrayHelper@M$0EAA@@@QAEPAMXZ		; RefArrayHelper<float,1024>::operator float *
PUBLIC	??0Vector3@@QAE@XZ				; Vector3::Vector3
PUBLIC	??0Vector3@@QAE@ABV0@@Z				; Vector3::Vector3
PUBLIC	??0Vector3@@QAE@MMM@Z				; Vector3::Vector3
PUBLIC	??4Vector3@@QAEAAV0@ABV0@@Z			; Vector3::operator=
PUBLIC	?Set@Vector3@@QAEXMMM@Z				; Vector3::Set
PUBLIC	??AVector3@@QAEAAMH@Z				; Vector3::operator[]
PUBLIC	??AVector3@@QBEABMH@Z				; Vector3::operator[]
PUBLIC	?Normalize@Vector3@@QAEXXZ			; Vector3::Normalize
PUBLIC	?Length@Vector3@@QBEMXZ				; Vector3::Length
PUBLIC	?Length2@Vector3@@QBEMXZ			; Vector3::Length2
PUBLIC	??YVector3@@QAEAAV0@ABV0@@Z			; Vector3::operator+=
PUBLIC	??ZVector3@@QAEAAV0@ABV0@@Z			; Vector3::operator-=
PUBLIC	??XVector3@@QAEAAV0@M@Z				; Vector3::operator*=
PUBLIC	??_0Vector3@@QAEAAV0@M@Z			; Vector3::operator/=
PUBLIC	??D@YA?AVVector3@@ABV0@M@Z			; operator*
PUBLIC	??D@YA?AVVector3@@MABV0@@Z			; operator*
PUBLIC	??H@YA?AVVector3@@ABV0@0@Z			; operator+
PUBLIC	??G@YA?AVVector3@@ABV0@0@Z			; operator-
PUBLIC	?Add@Vector3@@SAXABV1@0PAV1@@Z			; Vector3::Add
PUBLIC	?Subtract@Vector3@@SAXABV1@0PAV1@@Z		; Vector3::Subtract
PUBLIC	?Swap@@YAXAAVVector3@@0@Z			; Swap
PUBLIC	??0Vector4@@QAE@XZ				; Vector4::Vector4
PUBLIC	??0Vector4@@QAE@MMMM@Z				; Vector4::Vector4
PUBLIC	??4Vector4@@QAEAAV0@ABV0@@Z			; Vector4::operator=
PUBLIC	?Set@Vector4@@QAEXMMMM@Z			; Vector4::Set
PUBLIC	??AVector4@@QAEAAMH@Z				; Vector4::operator[]
PUBLIC	??AVector4@@QBEABMH@Z				; Vector4::operator[]
PUBLIC	??YVector4@@QAEAAV0@ABV0@@Z			; Vector4::operator+=
PUBLIC	??ZVector4@@QAEAAV0@ABV0@@Z			; Vector4::operator-=
PUBLIC	??XVector4@@QAEAAV0@M@Z				; Vector4::operator*=
PUBLIC	??AMatrix3D@@QAEAAVVector4@@H@Z			; Matrix3D::operator[]
PUBLIC	??AMatrix3D@@QBEABVVector4@@H@Z			; Matrix3D::operator[]
PUBLIC	??0Matrix3D@@QAE@_N@Z				; Matrix3D::Matrix3D
PUBLIC	??0Matrix3D@@QAE@QAM@Z				; Matrix3D::Matrix3D
PUBLIC	??0Matrix3D@@QAE@ABVVector3@@000@Z		; Matrix3D::Matrix3D
PUBLIC	??0Matrix3D@@QAE@ABVVector3@@M@Z		; Matrix3D::Matrix3D
PUBLIC	??0Matrix3D@@QAE@ABVVector3@@MM@Z		; Matrix3D::Matrix3D
PUBLIC	??0Matrix3D@@QAE@ABVMatrix3@@ABVVector3@@@Z	; Matrix3D::Matrix3D
PUBLIC	??0Matrix3D@@QAE@ABVQuaternion@@ABVVector3@@@Z	; Matrix3D::Matrix3D
PUBLIC	??0Matrix3D@@QAE@ABVVector3@@@Z			; Matrix3D::Matrix3D
PUBLIC	??0Matrix3D@@QAE@ABV0@@Z			; Matrix3D::Matrix3D
PUBLIC	??4Matrix3D@@QAEAAV0@ABV0@@Z			; Matrix3D::operator=
PUBLIC	?Set@Matrix3D@@QAEXQAM@Z			; Matrix3D::Set
PUBLIC	?Set@Matrix3D@@QAEXMMMMMMMMMMMM@Z		; Matrix3D::Set
PUBLIC	?Set@Matrix3D@@QAEXABVVector3@@000@Z		; Matrix3D::Set
PUBLIC	?Set@Matrix3D@@QAEXABVVector3@@M@Z		; Matrix3D::Set
PUBLIC	?Set@Matrix3D@@QAEXABVVector3@@MM@Z		; Matrix3D::Set
PUBLIC	?Set@Matrix3D@@QAEXABVVector3@@@Z		; Matrix3D::Set
PUBLIC	?Get_Translation@Matrix3D@@QBE?AVVector3@@XZ	; Matrix3D::Get_Translation
PUBLIC	?Get_Translation@Matrix3D@@QBEXPAVVector3@@@Z	; Matrix3D::Get_Translation
PUBLIC	?Set_Translation@Matrix3D@@QAEXABVVector3@@@Z	; Matrix3D::Set_Translation
PUBLIC	?Get_X_Translation@Matrix3D@@QBEMXZ		; Matrix3D::Get_X_Translation
PUBLIC	?Get_Y_Translation@Matrix3D@@QBEMXZ		; Matrix3D::Get_Y_Translation
PUBLIC	?Get_Z_Translation@Matrix3D@@QBEMXZ		; Matrix3D::Get_Z_Translation
PUBLIC	?Set_X_Translation@Matrix3D@@QAEXM@Z		; Matrix3D::Set_X_Translation
PUBLIC	?Set_Y_Translation@Matrix3D@@QAEXM@Z		; Matrix3D::Set_Y_Translation
PUBLIC	?Set_Z_Translation@Matrix3D@@QAEXM@Z		; Matrix3D::Set_Z_Translation
PUBLIC	?Adjust_Translation@Matrix3D@@QAEXABVVector3@@@Z ; Matrix3D::Adjust_Translation
PUBLIC	?Adjust_X_Translation@Matrix3D@@QAEXM@Z		; Matrix3D::Adjust_X_Translation
PUBLIC	?Adjust_Y_Translation@Matrix3D@@QAEXM@Z		; Matrix3D::Adjust_Y_Translation
PUBLIC	?Adjust_Z_Translation@Matrix3D@@QAEXM@Z		; Matrix3D::Adjust_Z_Translation
PUBLIC	?Make_Identity@Matrix3D@@QAEXXZ			; Matrix3D::Make_Identity
PUBLIC	?Translate@Matrix3D@@QAEXMMM@Z			; Matrix3D::Translate
PUBLIC	?Translate@Matrix3D@@QAEXABVVector3@@@Z		; Matrix3D::Translate
PUBLIC	?Translate_X@Matrix3D@@QAEXM@Z			; Matrix3D::Translate_X
PUBLIC	?Translate_Y@Matrix3D@@QAEXM@Z			; Matrix3D::Translate_Y
PUBLIC	?Translate_Z@Matrix3D@@QAEXM@Z			; Matrix3D::Translate_Z
PUBLIC	?Rotate_X@Matrix3D@@QAEXM@Z			; Matrix3D::Rotate_X
PUBLIC	?Rotate_Y@Matrix3D@@QAEXM@Z			; Matrix3D::Rotate_Y
PUBLIC	?Rotate_Z@Matrix3D@@QAEXM@Z			; Matrix3D::Rotate_Z
PUBLIC	?Rotate_X@Matrix3D@@QAEXMM@Z			; Matrix3D::Rotate_X
PUBLIC	?Rotate_Y@Matrix3D@@QAEXMM@Z			; Matrix3D::Rotate_Y
PUBLIC	?Rotate_Z@Matrix3D@@QAEXMM@Z			; Matrix3D::Rotate_Z
PUBLIC	?Scale@Matrix3D@@QAEXM@Z			; Matrix3D::Scale
PUBLIC	?Scale@Matrix3D@@QAEXMMM@Z			; Matrix3D::Scale
PUBLIC	?Scale@Matrix3D@@QAEXAAVVector3@@@Z		; Matrix3D::Scale
PUBLIC	?Pre_Rotate_X@Matrix3D@@QAEXM@Z			; Matrix3D::Pre_Rotate_X
PUBLIC	?Pre_Rotate_Y@Matrix3D@@QAEXM@Z			; Matrix3D::Pre_Rotate_Y
PUBLIC	?Pre_Rotate_Z@Matrix3D@@QAEXM@Z			; Matrix3D::Pre_Rotate_Z
PUBLIC	?Pre_Rotate_X@Matrix3D@@QAEXMM@Z		; Matrix3D::Pre_Rotate_X
PUBLIC	?Pre_Rotate_Y@Matrix3D@@QAEXMM@Z		; Matrix3D::Pre_Rotate_Y
PUBLIC	?Pre_Rotate_Z@Matrix3D@@QAEXMM@Z		; Matrix3D::Pre_Rotate_Z
PUBLIC	?In_Place_Pre_Rotate_X@Matrix3D@@QAEXM@Z	; Matrix3D::In_Place_Pre_Rotate_X
PUBLIC	?In_Place_Pre_Rotate_Y@Matrix3D@@QAEXM@Z	; Matrix3D::In_Place_Pre_Rotate_Y
PUBLIC	?In_Place_Pre_Rotate_Z@Matrix3D@@QAEXM@Z	; Matrix3D::In_Place_Pre_Rotate_Z
PUBLIC	?In_Place_Pre_Rotate_X@Matrix3D@@QAEXMM@Z	; Matrix3D::In_Place_Pre_Rotate_X
PUBLIC	?In_Place_Pre_Rotate_Y@Matrix3D@@QAEXMM@Z	; Matrix3D::In_Place_Pre_Rotate_Y
PUBLIC	?In_Place_Pre_Rotate_Z@Matrix3D@@QAEXMM@Z	; Matrix3D::In_Place_Pre_Rotate_Z
PUBLIC	?Transform_Vector@Matrix3D@@SAXABV1@ABVVector3@@PAV2@@Z ; Matrix3D::Transform_Vector
PUBLIC	?Get_X_Vector@Matrix3D@@QBE?AVVector3@@XZ	; Matrix3D::Get_X_Vector
PUBLIC	?Get_Y_Vector@Matrix3D@@QBE?AVVector3@@XZ	; Matrix3D::Get_Y_Vector
PUBLIC	?Get_Z_Vector@Matrix3D@@QBE?AVVector3@@XZ	; Matrix3D::Get_Z_Vector
PUBLIC	?Get_X_Vector@Matrix3D@@QBEXPAVVector3@@@Z	; Matrix3D::Get_X_Vector
PUBLIC	?Get_Y_Vector@Matrix3D@@QBEXPAVVector3@@@Z	; Matrix3D::Get_Y_Vector
PUBLIC	?Get_Z_Vector@Matrix3D@@QBEXPAVVector3@@@Z	; Matrix3D::Get_Z_Vector
PUBLIC	?Rotate_Vector@Matrix3D@@SAXABV1@ABVVector3@@PAV2@@Z ; Matrix3D::Rotate_Vector
PUBLIC	?Inverse_Transform_Vector@Matrix3D@@SAXABV1@ABVVector3@@PAV2@@Z ; Matrix3D::Inverse_Transform_Vector
PUBLIC	?Inverse_Rotate_Vector@Matrix3D@@SAXABV1@ABVVector3@@PAV2@@Z ; Matrix3D::Inverse_Rotate_Vector
PUBLIC	??0Matrix4@@QAE@XZ				; Matrix4::Matrix4
PUBLIC	??0Matrix4@@QAE@ABV0@@Z				; Matrix4::Matrix4
PUBLIC	??0Matrix4@@QAE@_N@Z				; Matrix4::Matrix4
PUBLIC	??0Matrix4@@QAE@ABVMatrix3D@@@Z			; Matrix4::Matrix4
PUBLIC	??0Matrix4@@QAE@ABVVector4@@000@Z		; Matrix4::Matrix4
PUBLIC	?Make_Identity@Matrix4@@QAEXXZ			; Matrix4::Make_Identity
PUBLIC	?Init@Matrix4@@QAEXABVMatrix3D@@@Z		; Matrix4::Init
PUBLIC	?Init@Matrix4@@QAEXABVVector4@@000@Z		; Matrix4::Init
PUBLIC	?Init_Ortho_OGL@Matrix4@@QAEXMMMMMM@Z		; Matrix4::Init_Ortho_OGL
PUBLIC	?Init_Perspective_OGL@Matrix4@@QAEXMMMM@Z	; Matrix4::Init_Perspective_OGL
PUBLIC	?Init_Perspective_OGL@Matrix4@@QAEXMMMMMM@Z	; Matrix4::Init_Perspective_OGL
PUBLIC	?Init_Ortho@Matrix4@@QAEXMMMMMM@Z		; Matrix4::Init_Ortho
PUBLIC	?Init_Perspective@Matrix4@@QAEXMMMMMM@Z		; Matrix4::Init_Perspective
PUBLIC	??AMatrix4@@QAEAAVVector4@@H@Z			; Matrix4::operator[]
PUBLIC	??AMatrix4@@QBEABVVector4@@H@Z			; Matrix4::operator[]
PUBLIC	?Transpose@Matrix4@@QBE?AV1@XZ			; Matrix4::Transpose
PUBLIC	?Determinant@Matrix4@@QBEMXZ			; Matrix4::Determinant
PUBLIC	?Inverse@Matrix4@@QBE?AV1@XZ			; Matrix4::Inverse
PUBLIC	??4Matrix4@@QAEAAV0@ABV0@@Z			; Matrix4::operator=
PUBLIC	??YMatrix4@@QAEAAV0@ABV0@@Z			; Matrix4::operator+=
PUBLIC	??ZMatrix4@@QAEAAV0@ABV0@@Z			; Matrix4::operator-=
PUBLIC	??XMatrix4@@QAEAAV0@M@Z				; Matrix4::operator*=
PUBLIC	??_0Matrix4@@QAEAAV0@M@Z			; Matrix4::operator/=
PUBLIC	?Transform_Vector@Matrix4@@SAXABV1@ABVVector3@@PAV2@@Z ; Matrix4::Transform_Vector
PUBLIC	?Transform_Vector@Matrix4@@SAXABV1@ABVVector3@@PAVVector4@@@Z ; Matrix4::Transform_Vector
PUBLIC	?Transform_Vector@Matrix4@@SAXABV1@ABVVector4@@PAV2@@Z ; Matrix4::Transform_Vector
PUBLIC	??0Matrix3@@QAE@XZ				; Matrix3::Matrix3
PUBLIC	??0Matrix3@@QAE@ABV0@@Z				; Matrix3::Matrix3
PUBLIC	??0Matrix3@@QAE@_N@Z				; Matrix3::Matrix3
PUBLIC	??0Matrix3@@QAE@ABVVector3@@00@Z		; Matrix3::Matrix3
PUBLIC	??0Matrix3@@QAE@MMMMMMMMM@Z			; Matrix3::Matrix3
PUBLIC	??0Matrix3@@QAE@ABVVector3@@M@Z			; Matrix3::Matrix3
PUBLIC	??0Matrix3@@QAE@ABVVector3@@MM@Z		; Matrix3::Matrix3
PUBLIC	??0Matrix3@@QAE@ABVQuaternion@@@Z		; Matrix3::Matrix3
PUBLIC	?Set@Matrix3@@QAEXABVVector3@@00@Z		; Matrix3::Set
PUBLIC	?Set@Matrix3@@QAEXMMMMMMMMM@Z			; Matrix3::Set
PUBLIC	?Set@Matrix3@@QAEXABVVector3@@M@Z		; Matrix3::Set
PUBLIC	?Set@Matrix3@@QAEXABVVector3@@MM@Z		; Matrix3::Set
PUBLIC	??AMatrix3@@QAEAAVVector3@@H@Z			; Matrix3::operator[]
PUBLIC	??AMatrix3@@QBEABVVector3@@H@Z			; Matrix3::operator[]
PUBLIC	?Transpose@Matrix3@@QBE?AV1@XZ			; Matrix3::Transpose
PUBLIC	?Determinant@Matrix3@@QBEMXZ			; Matrix3::Determinant
PUBLIC	??4Matrix3@@QAEAAV0@ABV0@@Z			; Matrix3::operator=
PUBLIC	??YMatrix3@@QAEAAV0@ABV0@@Z			; Matrix3::operator+=
PUBLIC	??ZMatrix3@@QAEAAV0@ABV0@@Z			; Matrix3::operator-=
PUBLIC	??XMatrix3@@QAEAAV0@M@Z				; Matrix3::operator*=
PUBLIC	??_0Matrix3@@QAEAAV0@M@Z			; Matrix3::operator/=
PUBLIC	?Make_Identity@Matrix3@@QAEXXZ			; Matrix3::Make_Identity
PUBLIC	?Rotate_X@Matrix3@@QAEXM@Z			; Matrix3::Rotate_X
PUBLIC	?Rotate_X@Matrix3@@QAEXMM@Z			; Matrix3::Rotate_X
PUBLIC	?Rotate_Y@Matrix3@@QAEXM@Z			; Matrix3::Rotate_Y
PUBLIC	?Rotate_Y@Matrix3@@QAEXMM@Z			; Matrix3::Rotate_Y
PUBLIC	?Rotate_Z@Matrix3@@QAEXM@Z			; Matrix3::Rotate_Z
PUBLIC	?Rotate_Z@Matrix3@@QAEXMM@Z			; Matrix3::Rotate_Z
PUBLIC	?Get_X_Rotation@Matrix3@@QBEMXZ			; Matrix3::Get_X_Rotation
PUBLIC	?Get_Y_Rotation@Matrix3@@QBEMXZ			; Matrix3::Get_Y_Rotation
PUBLIC	?Get_Z_Rotation@Matrix3@@QBEMXZ			; Matrix3::Get_Z_Rotation
PUBLIC	?Get_X_Vector@Matrix3@@QBE?AVVector3@@XZ	; Matrix3::Get_X_Vector
PUBLIC	?Get_Y_Vector@Matrix3@@QBE?AVVector3@@XZ	; Matrix3::Get_Y_Vector
PUBLIC	?Get_Z_Vector@Matrix3@@QBE?AVVector3@@XZ	; Matrix3::Get_Z_Vector
PUBLIC	?Get_X_Vector@Matrix3@@QBEXPAVVector3@@@Z	; Matrix3::Get_X_Vector
PUBLIC	?Get_Y_Vector@Matrix3@@QBEXPAVVector3@@@Z	; Matrix3::Get_Y_Vector
PUBLIC	?Get_Z_Vector@Matrix3@@QBEXPAVVector3@@@Z	; Matrix3::Get_Z_Vector
PUBLIC	??D@YA?AVVector3@@ABVMatrix3@@ABV0@@Z		; operator*
PUBLIC	?Add@Matrix3@@SAXABV1@0PAV1@@Z			; Matrix3::Add
PUBLIC	?Subtract@Matrix3@@SAXABV1@0PAV1@@Z		; Matrix3::Subtract
PUBLIC	?Rotate_Vector@Matrix3@@SAXABV1@ABVVector3@@PAV2@@Z ; Matrix3::Rotate_Vector
PUBLIC	?Transpose_Rotate_Vector@Matrix3@@SAXABV1@ABVVector3@@PAV2@@Z ; Matrix3::Transpose_Rotate_Vector
PUBLIC	?Rotate_AABox_Extent@Matrix3@@QAEXABVVector3@@PAV2@@Z ; Matrix3::Rotate_AABox_Extent
PUBLIC	?Inverse@Matrix3@@QBE?AV1@XZ			; Matrix3::Inverse
PUBLIC	?Is_Running@ThreadClass@@QAE_NXZ		; ThreadClass::Is_Running
PUBLIC	?Get_Current_Thread_ID@ThreadClass@@SAHXZ	; ThreadClass::Get_Current_Thread_ID
PUBLIC	?Get_Name@ThreadClass@@QAEPBDXZ			; ThreadClass::Get_Name
PUBLIC	??0ThreadClass@@QAE@ABV0@@Z			; ThreadClass::ThreadClass
PUBLIC	??4ThreadClass@@QAEAAV0@ABV0@@Z			; ThreadClass::operator=
PUBLIC	??_GThreadClass@@UAEPAXI@Z			; ThreadClass::`scalar deleting destructor'
PUBLIC	??_EThreadClass@@UAEPAXI@Z			; ThreadClass::`vector deleting destructor'
PUBLIC	??4CriticalSectionClass@@QAEAAV0@ABV0@@Z	; CriticalSectionClass::operator=
PUBLIC	?Release_Ref@RefCountClass@@QAEXXZ		; RefCountClass::Release_Ref
PUBLIC	??0GenericMultiListIterator@@QAE@PBVGenericMultiListClass@@@Z ; GenericMultiListIterator::GenericMultiListIterator
PUBLIC	?First@GenericMultiListIterator@@QAEXPBVGenericMultiListClass@@@Z ; GenericMultiListIterator::First
PUBLIC	?Next@GenericMultiListIterator@@QAEXXZ		; GenericMultiListIterator::Next
PUBLIC	?Is_Done@GenericMultiListIterator@@QBE_NXZ	; GenericMultiListIterator::Is_Done
PUBLIC	?Current_Object@GenericMultiListIterator@@IBEPAVMultiListObjectClass@@XZ ; GenericMultiListIterator::Current_Object
PUBLIC	??0GameObjObserverClass@@QAE@XZ			; GameObjObserverClass::GameObjObserverClass
PUBLIC	??1GameObjObserverClass@@UAE@XZ			; GameObjObserverClass::~GameObjObserverClass
PUBLIC	?Set_ID@GameObjObserverClass@@QAEXH@Z		; GameObjObserverClass::Set_ID
PUBLIC	?Get_ID@GameObjObserverClass@@QAEHXZ		; GameObjObserverClass::Get_ID
PUBLIC	?Owner@GameObjObserverClass@@UAEPAVScriptableGameObj@@XZ ; GameObjObserverClass::Owner
PUBLIC	??0GameObjObserverClass@@QAE@ABV0@@Z		; GameObjObserverClass::GameObjObserverClass
PUBLIC	??4GameObjObserverClass@@QAEAAV0@ABV0@@Z	; GameObjObserverClass::operator=
PUBLIC	??_GGameObjObserverClass@@UAEPAXI@Z		; GameObjObserverClass::`scalar deleting destructor'
PUBLIC	??_EGameObjObserverClass@@UAEPAXI@Z		; GameObjObserverClass::`vector deleting destructor'
PUBLIC	??1ScriptClass@@UAE@XZ				; ScriptClass::~ScriptClass
PUBLIC	??0ScriptClass@@QAE@XZ				; ScriptClass::ScriptClass
PUBLIC	??0ScriptClass@@QAE@ABV0@@Z			; ScriptClass::ScriptClass
PUBLIC	??4ScriptClass@@QAEAAV0@ABV0@@Z			; ScriptClass::operator=
PUBLIC	??_GScriptClass@@UAEPAXI@Z			; ScriptClass::`scalar deleting destructor'
PUBLIC	??_EScriptClass@@UAEPAXI@Z			; ScriptClass::`vector deleting destructor'
PUBLIC	?SetFactory@ScriptImpClass@@QAEXPAVScriptFactory@@@Z ; ScriptImpClass::SetFactory
PUBLIC	?Created@ScriptImpClass@@UAEXPAVScriptableGameObj@@@Z ; ScriptImpClass::Created
PUBLIC	?Destroyed@ScriptImpClass@@UAEXPAVScriptableGameObj@@@Z ; ScriptImpClass::Destroyed
PUBLIC	?Killed@ScriptImpClass@@UAEXPAVScriptableGameObj@@0@Z ; ScriptImpClass::Killed
PUBLIC	?Damaged@ScriptImpClass@@UAEXPAVScriptableGameObj@@0M@Z ; ScriptImpClass::Damaged
PUBLIC	?Custom@ScriptImpClass@@UAEXPAVScriptableGameObj@@HH0@Z ; ScriptImpClass::Custom
PUBLIC	?Sound_Heard@ScriptImpClass@@UAEXPAVScriptableGameObj@@ABUCombatSound@@@Z ; ScriptImpClass::Sound_Heard
PUBLIC	?Enemy_Seen@ScriptImpClass@@UAEXPAVScriptableGameObj@@0@Z ; ScriptImpClass::Enemy_Seen
PUBLIC	?Action_Complete@ScriptImpClass@@UAEXPAVScriptableGameObj@@HW4ActionCompleteReason@@@Z ; ScriptImpClass::Action_Complete
PUBLIC	?Timer_Expired@ScriptImpClass@@UAEXPAVScriptableGameObj@@H@Z ; ScriptImpClass::Timer_Expired
PUBLIC	?Animation_Complete@ScriptImpClass@@UAEXPAVScriptableGameObj@@PBD@Z ; ScriptImpClass::Animation_Complete
PUBLIC	?Poked@ScriptImpClass@@UAEXPAVScriptableGameObj@@0@Z ; ScriptImpClass::Poked
PUBLIC	?Entered@ScriptImpClass@@UAEXPAVScriptableGameObj@@0@Z ; ScriptImpClass::Entered
PUBLIC	?Exited@ScriptImpClass@@UAEXPAVScriptableGameObj@@0@Z ; ScriptImpClass::Exited
PUBLIC	?Owner@ScriptImpClass@@UAEPAVScriptableGameObj@@XZ ; ScriptImpClass::Owner
PUBLIC	?Get_Owner_Ptr@ScriptImpClass@@UAEPAPAVScriptableGameObj@@XZ ; ScriptImpClass::Get_Owner_Ptr
PUBLIC	?Save_Data@ScriptImpClass@@UAEXAAVScriptSaver@@@Z ; ScriptImpClass::Save_Data
PUBLIC	?Load_Data@ScriptImpClass@@UAEXAAVScriptLoader@@@Z ; ScriptImpClass::Load_Data
PUBLIC	?Register_Auto_Save_Variables@ScriptImpClass@@UAEXXZ ; ScriptImpClass::Register_Auto_Save_Variables
PUBLIC	?Get_Parameter_Count@ScriptImpClass@@QAEHXZ	; ScriptImpClass::Get_Parameter_Count
PUBLIC	?Get_Int_Parameter@ScriptImpClass@@QAEHH@Z	; ScriptImpClass::Get_Int_Parameter
PUBLIC	?Get_Float_Parameter@ScriptImpClass@@QAEMH@Z	; ScriptImpClass::Get_Float_Parameter
PUBLIC	?Get_Bool_Parameter@ScriptImpClass@@QAE_NPBD@Z	; ScriptImpClass::Get_Bool_Parameter
PUBLIC	?Get_Bool_Parameter@ScriptImpClass@@QAE_NH@Z	; ScriptImpClass::Get_Bool_Parameter
PUBLIC	??0ScriptImpClass@@QAE@ABV0@@Z			; ScriptImpClass::ScriptImpClass
PUBLIC	??4ScriptImpClass@@QAEAAV0@ABV0@@Z		; ScriptImpClass::operator=
PUBLIC	??_GScriptImpClass@@UAEPAXI@Z			; ScriptImpClass::`scalar deleting destructor'
PUBLIC	??_EScriptImpClass@@UAEPAXI@Z			; ScriptImpClass::`vector deleting destructor'
PUBLIC	??0ScriptFactory@@QAE@ABV0@@Z			; ScriptFactory::ScriptFactory
PUBLIC	??4ScriptFactory@@QAEAAV0@ABV0@@Z		; ScriptFactory::operator=
PUBLIC	??_GScriptFactory@@UAEPAXI@Z			; ScriptFactory::`scalar deleting destructor'
PUBLIC	??_EScriptFactory@@UAEPAXI@Z			; ScriptFactory::`vector deleting destructor'
PUBLIC	??4ScriptRegistrar@@QAEAAV0@ABV0@@Z		; ScriptRegistrar::operator=
PUBLIC	??A?$VectorClass@PAVBuildingGameObj@@@@QAEAAPAVBuildingGameObj@@H@Z ; VectorClass<BuildingGameObj *>::operator[]
PUBLIC	?Count@?$DynamicVectorClass@PAVBuildingGameObj@@@@QBEHXZ ; DynamicVectorClass<BuildingGameObj *>::Count
PUBLIC	?Find_Base@BaseControllerClass@@SAPAV1@H@Z	; BaseControllerClass::Find_Base
PUBLIC	?Get_Harvester_Vehicle@BaseControllerClass@@QAEPAVVehicleGameObj@@XZ ; BaseControllerClass::Get_Harvester_Vehicle
PUBLIC	?Find_Building@BaseControllerClass@@QAEPAVBuildingGameObj@@I@Z ; BaseControllerClass::Find_Building
PUBLIC	?Power_Base@BaseControllerClass@@QAEX_N@Z	; BaseControllerClass::Power_Base
PUBLIC	?Set_Can_Generate_Soldiers@BaseControllerClass@@QAEX_N@Z ; BaseControllerClass::Set_Can_Generate_Soldiers
PUBLIC	?Set_Can_Generate_Vehicles@BaseControllerClass@@QAEX_N@Z ; BaseControllerClass::Set_Can_Generate_Vehicles
PUBLIC	?Set_Base_Destroyed@BaseControllerClass@@QAEX_N@Z ; BaseControllerClass::Set_Base_Destroyed
PUBLIC	?Destroy_Base@BaseControllerClass@@QAEXXZ	; BaseControllerClass::Destroy_Base
PUBLIC	?Set_Beacon_Destroyed_Base@BaseControllerClass@@QAEX_N@Z ; BaseControllerClass::Set_Beacon_Destroyed_Base
PUBLIC	?Check_Radar@BaseControllerClass@@QAEXXZ	; BaseControllerClass::Check_Radar
PUBLIC	?Check_Vehicle_Factory@BaseControllerClass@@QAEXXZ ; BaseControllerClass::Check_Vehicle_Factory
PUBLIC	?Is_Base_Powered@BaseControllerClass@@QBE_NXZ	; BaseControllerClass::Is_Base_Powered
PUBLIC	?Can_Generate_Soldiers@BaseControllerClass@@QBE_NXZ ; BaseControllerClass::Can_Generate_Soldiers
PUBLIC	?Can_Generate_Vehicles@BaseControllerClass@@QBE_NXZ ; BaseControllerClass::Can_Generate_Vehicles
PUBLIC	?Is_Radar_Enabled@BaseControllerClass@@QBE_NXZ	; BaseControllerClass::Is_Radar_Enabled
PUBLIC	?Get_Building_List@BaseControllerClass@@QAEAAV?$DynamicVectorClass@PAVBuildingGameObj@@@@XZ ; BaseControllerClass::Get_Building_List
PUBLIC	??4SysTimeClass@@QAEAAV0@ABV0@@Z		; SysTimeClass::operator=
PUBLIC	??0PostLoadableClass@@QAE@XZ			; PostLoadableClass::PostLoadableClass
PUBLIC	??1PostLoadableClass@@UAE@XZ			; PostLoadableClass::~PostLoadableClass
PUBLIC	?On_Post_Load@PostLoadableClass@@UAEXXZ		; PostLoadableClass::On_Post_Load
PUBLIC	?Is_Post_Load_Registered@PostLoadableClass@@QBE_NXZ ; PostLoadableClass::Is_Post_Load_Registered
PUBLIC	?Set_Post_Load_Registered@PostLoadableClass@@QAEX_N@Z ; PostLoadableClass::Set_Post_Load_Registered
PUBLIC	??0PostLoadableClass@@QAE@ABV0@@Z		; PostLoadableClass::PostLoadableClass
PUBLIC	??4PostLoadableClass@@QAEAAV0@ABV0@@Z		; PostLoadableClass::operator=
PUBLIC	??_GPostLoadableClass@@UAEPAXI@Z		; PostLoadableClass::`scalar deleting destructor'
PUBLIC	??_EPostLoadableClass@@UAEPAXI@Z		; PostLoadableClass::`vector deleting destructor'
PUBLIC	??1StringClass@@QAE@XZ				; StringClass::~StringClass
PUBLIC	??_EStringClass@@QAEPAXI@Z			; StringClass::`vector deleting destructor'
PUBLIC	??1WideStringClass@@QAE@XZ			; WideStringClass::~WideStringClass
PUBLIC	??_EWideStringClass@@QAEPAXI@Z			; WideStringClass::`vector deleting destructor'
PUBLIC	??4ChunkLoadClass@@QAEAAV0@ABV0@@Z		; ChunkLoadClass::operator=
PUBLIC	?Set_Contains_Chunks@ChunkSaveClass@@QAEXXZ	; ChunkSaveClass::Set_Contains_Chunks
PUBLIC	??4ChunkSaveClass@@QAEAAV0@ABV0@@Z		; ChunkSaveClass::operator=
PUBLIC	?Is_Present@INIClass@@QBE_NPBD0@Z		; INIClass::Is_Present
PUBLIC	?Section_Present@INIClass@@QBE_NPBD@Z		; INIClass::Section_Present
PUBLIC	?Get_Section_List@INIClass@@QAEAAV?$List@PAUINISection@@@@XZ ; INIClass::Get_Section_List
PUBLIC	?Get_Section_Index@INIClass@@QAEAAV?$IndexClass@HPAUINISection@@@@XZ ; INIClass::Get_Section_Index
PUBLIC	?Get_File_Name@INIClass@@QAEPBDXZ		; INIClass::Get_File_Name
PUBLIC	??0INIClass@@QAE@ABV0@@Z			; INIClass::INIClass
PUBLIC	??4INIClass@@QAEAAV0@ABV0@@Z			; INIClass::operator=
PUBLIC	??_GINIClass@@UAEPAXI@Z				; INIClass::`scalar deleting destructor'
PUBLIC	??_EINIClass@@UAEPAXI@Z				; INIClass::`vector deleting destructor'
PUBLIC	??Cfile_auto_ptr@@QAEPAVFileClass@@XZ		; file_auto_ptr::operator->
PUBLIC	??Bfile_auto_ptr@@QAEPAVFileClass@@XZ		; file_auto_ptr::operator FileClass *
PUBLIC	??Dfile_auto_ptr@@QAEAAVFileClass@@XZ		; file_auto_ptr::operator*
PUBLIC	?get@file_auto_ptr@@QAEPAVFileClass@@XZ		; file_auto_ptr::get
PUBLIC	??4file_auto_ptr@@QAEAAV0@ABV0@@Z		; file_auto_ptr::operator=
PUBLIC	??CReferencerClass@@QAEPAVScriptableGameObj@@XZ	; ReferencerClass::operator->
PUBLIC	??0ReferencerClass@@QAE@XZ			; ReferencerClass::ReferencerClass
PUBLIC	??0ReferencerClass@@QAE@PAVScriptableGameObj@@@Z ; ReferencerClass::ReferencerClass
PUBLIC	?Get_Ptr@ReferencerClass@@QBEPAVScriptableGameObj@@XZ ; ReferencerClass::Get_Ptr
PUBLIC	?Set_Ptr@ReferencerClass@@QAEXPAVScriptableGameObj@@@Z ; ReferencerClass::Set_Ptr
PUBLIC	??0ReferencerClass@@QAE@ABV0@@Z			; ReferencerClass::ReferencerClass
PUBLIC	??_GReferencerClass@@UAEPAXI@Z			; ReferencerClass::`scalar deleting destructor'
PUBLIC	??_EReferencerClass@@UAEPAXI@Z			; ReferencerClass::`vector deleting destructor'
PUBLIC	?Get_Data@?$ReferenceableClass@VScriptableGameObj@@@@IBEPAVScriptableGameObj@@XZ ; ReferenceableClass<ScriptableGameObj>::Get_Data
PUBLIC	?Get_Definition@BaseGameObj@@QBEABVBaseGameObjDef@@XZ ; BaseGameObj::Get_Definition
PUBLIC	??0LineSegClass@@QAE@XZ				; LineSegClass::LineSegClass
PUBLIC	??0LineSegClass@@QAE@ABVVector3@@0@Z		; LineSegClass::LineSegClass
PUBLIC	??0LineSegClass@@QAE@ABVVector3@@0M@Z		; LineSegClass::LineSegClass
PUBLIC	??0LineSegClass@@QAE@ABV0@ABVMatrix3D@@@Z	; LineSegClass::LineSegClass
PUBLIC	?Set@LineSegClass@@QAEXABVVector3@@0@Z		; LineSegClass::Set
PUBLIC	?Set@LineSegClass@@QAEXABVVector3@@0M@Z		; LineSegClass::Set
PUBLIC	?Get_P0@LineSegClass@@QBEABVVector3@@XZ		; LineSegClass::Get_P0
PUBLIC	?Get_P1@LineSegClass@@QBEABVVector3@@XZ		; LineSegClass::Get_P1
PUBLIC	?Get_DP@LineSegClass@@QBEABVVector3@@XZ		; LineSegClass::Get_DP
PUBLIC	?Get_Dir@LineSegClass@@QBEABVVector3@@XZ	; LineSegClass::Get_Dir
PUBLIC	?Get_Length@LineSegClass@@QBEMXZ		; LineSegClass::Get_Length
PUBLIC	?Compute_Point@LineSegClass@@QBEXMPAVVector3@@@Z ; LineSegClass::Compute_Point
PUBLIC	?recalculate@LineSegClass@@IAEXXZ		; LineSegClass::recalculate
PUBLIC	??0LineSegClass@@QAE@ABV0@@Z			; LineSegClass::LineSegClass
PUBLIC	??4LineSegClass@@QAEAAV0@ABV0@@Z		; LineSegClass::operator=
PUBLIC	?Get_Position@PhysClass@@QBEXPAVVector3@@@Z	; PhysClass::Get_Position
PUBLIC	?Peek_Physical_Object@PhysicalGameObj@@QBEPAVPhysClass@@XZ ; PhysicalGameObj::Peek_Physical_Object
PUBLIC	?Get_Position@PhysicalGameObj@@QAE?AVVector3@@XZ ; PhysicalGameObj::Get_Position
PUBLIC	?Power_Base@@YAXH_N@Z				; Power_Base
PUBLIC	?Set_Can_Generate_Soldiers@@YAXH_N@Z		; Set_Can_Generate_Soldiers
PUBLIC	?Set_Can_Generate_Vehicles@@YAXH_N@Z		; Set_Can_Generate_Vehicles
PUBLIC	?Destroy_Base@@YAXH@Z				; Destroy_Base
PUBLIC	?Beacon_Destroyed_Base@@YAXH_N@Z		; Beacon_Destroyed_Base
PUBLIC	?Enable_Base_Radar@@YAXH_N@Z			; Enable_Base_Radar
PUBLIC	?Is_Harvester@@YA_NPAVScriptableGameObj@@@Z	; Is_Harvester
PUBLIC	?Is_Radar_Enabled@@YA_NH@Z			; Is_Radar_Enabled
PUBLIC	?Building_Type@@YAHPAVScriptableGameObj@@@Z	; Building_Type
PUBLIC	?Is_Building_Dead@@YA_NPAVScriptableGameObj@@@Z	; Is_Building_Dead
PUBLIC	?Find_Building_By_Type@@YAPAVScriptableGameObj@@HH@Z ; Find_Building_By_Type
PUBLIC	?Find_Base_Defense@@YAPAVScriptableGameObj@@H@Z	; Find_Base_Defense
PUBLIC	?Is_Map_Flying@@YA_NXZ				; Is_Map_Flying
PUBLIC	?Create_Building@@YAPAVScriptableGameObj@@PBDABVVector3@@@Z ; Create_Building
PUBLIC	?Find_Harvester@@YAPAVScriptableGameObj@@H@Z	; Find_Harvester
PUBLIC	?Is_Base_Powered@@YA_NH@Z			; Is_Base_Powered
PUBLIC	?Can_Generate_Vehicles@@YA_NH@Z			; Can_Generate_Vehicles
PUBLIC	?Can_Generate_Soldiers@@YA_NH@Z			; Can_Generate_Soldiers
PUBLIC	?The_Game@@YAPAVcGameData@@XZ			; The_Game
PUBLIC	?The_Skirmish_Game@@YAPAVcGameDataSkirmish@@XZ	; The_Skirmish_Game
PUBLIC	?The_Cnc_Game@@YAPAVcGameDataCnc@@XZ		; The_Cnc_Game
PUBLIC	?The_Single_Player_Game@@YAPAVcGameDataSinglePlayer@@XZ ; The_Single_Player_Game
PUBLIC	?Get_Building_Count_Team@@YAHH@Z		; Get_Building_Count_Team
PUBLIC	?Find_Building_By_Team@@YAPAVScriptableGameObj@@H@Z ; Find_Building_By_Team
PUBLIC	?Find_Building_By_Preset@@YAPAVScriptableGameObj@@HPBD@Z ; Find_Building_By_Preset
PUBLIC	?Find_Power_Plant@@YAPAVScriptableGameObj@@H@Z	; Find_Power_Plant
PUBLIC	?Find_Construction_Yard@@YAPAVScriptableGameObj@@H@Z ; Find_Construction_Yard
PUBLIC	?Find_Refinery@@YAPAVScriptableGameObj@@H@Z	; Find_Refinery
PUBLIC	?Find_Repair_Bay@@YAPAVScriptableGameObj@@H@Z	; Find_Repair_Bay
PUBLIC	?Find_Soldier_Factory@@YAPAVScriptableGameObj@@H@Z ; Find_Soldier_Factory
PUBLIC	?Find_Vehicle_Factory@@YAPAVScriptableGameObj@@H@Z ; Find_Vehicle_Factory
PUBLIC	?Find_Com_Center@@YAPAVScriptableGameObj@@H@Z	; Find_Com_Center
PUBLIC	?Find_Special@@YAPAVScriptableGameObj@@H@Z	; Find_Special
PUBLIC	?Find_Naval_Factory@@YAPAVScriptableGameObj@@H@Z ; Find_Naval_Factory
PUBLIC	?Find_Tech_Center@@YAPAVScriptableGameObj@@H@Z	; Find_Tech_Center
PUBLIC	?Find_Helipad@@YAPAVScriptableGameObj@@H@Z	; Find_Helipad
PUBLIC	?Find_Shrine@@YAPAVScriptableGameObj@@H@Z	; Find_Shrine
PUBLIC	?Restore_Building@@YAXPAVScriptableGameObj@@@Z	; Restore_Building
PUBLIC	?Is_Gameplay_Permitted@@YA_NXZ			; Is_Gameplay_Permitted
PUBLIC	?Is_Dedicated@@YA_NXZ				; Is_Dedicated
PUBLIC	?Get_Current_Game_Mode@@YAIXZ			; Get_Current_Game_Mode
PUBLIC	?Get_Private_Message_Color@@YAXPAI00@Z		; Get_Private_Message_Color
PUBLIC	?Get_Public_Message_Color@@YAXPAI00@Z		; Get_Public_Message_Color
PUBLIC	?Get_Harvester_Preset_ID@@YAHH@Z		; Get_Harvester_Preset_ID
PUBLIC	?Is_Harvester_Preset@@YA_NPAVScriptableGameObj@@@Z ; Is_Harvester_Preset
PUBLIC	?Vehicle_Preset_Is_Air@@YA_NH@Z			; Vehicle_Preset_Is_Air
PUBLIC	?Vehicle_Preset_Is_Naval@@YA_NH@Z		; Vehicle_Preset_Is_Naval
PUBLIC	?Get_Base_Center@@YA?AVVector3@@H@Z		; Get_Base_Center
PUBLIC	?Seconds_To_Hms@@YAXMAAH00@Z			; Seconds_To_Hms
PUBLIC	??1CollideableObjClass@AnimCollisionManagerClass@@QAE@XZ ; AnimCollisionManagerClass::CollideableObjClass::~CollideableObjClass
PUBLIC	??_ECollideableObjClass@AnimCollisionManagerClass@@QAEPAXI@Z ; AnimCollisionManagerClass::CollideableObjClass::`vector deleting destructor'
PUBLIC	??0CollisionTestClass@@QAE@PAUCastResultStruct@@W4Collision_Type@@@Z ; CollisionTestClass::CollisionTestClass
PUBLIC	??0CollisionTestClass@@QAE@ABV0@@Z		; CollisionTestClass::CollisionTestClass
PUBLIC	??4CollisionTestClass@@QAEAAV0@ABV0@@Z		; CollisionTestClass::operator=
PUBLIC	?Cull@AABoxCollisionTestClass@@QAE_NABVVector3@@0@Z ; AABoxCollisionTestClass::Cull
PUBLIC	?Translate@AABoxCollisionTestClass@@QAEXABVVector3@@@Z ; AABoxCollisionTestClass::Translate
PUBLIC	?Cull@OBBoxCollisionTestClass@@QAE_NABVVector3@@0@Z ; OBBoxCollisionTestClass::Cull
PUBLIC	?Get_Type@BuildingGameObjDef@@QBE?AW4BuildingType@BuildingConstants@@XZ ; BuildingGameObjDef::Get_Type
PUBLIC	?Set_Position@BuildingGameObj@@QAEXABVVector3@@@Z ; BuildingGameObj::Set_Position
PUBLIC	?Is_Destroyed@BuildingGameObj@@QBE_NXZ		; BuildingGameObj::Is_Destroyed
PUBLIC	?Find_MCT@BuildingGameObj@@QAEPAVBuildingAggregateClass@@XZ ; BuildingGameObj::Find_MCT
PUBLIC	?Iterator@?$RefMultiListClass@VBuildingAggregateClass@@@@QBE?AV?$RefMultiListIterator@VBuildingAggregateClass@@@@XZ ; RefMultiListClass<BuildingAggregateClass>::Iterator
PUBLIC	?Get_Harvester_Def_ID@RefineryGameObj@@QBEHXZ	; RefineryGameObj::Get_Harvester_Def_ID
PUBLIC	?Get_Harvester_Vehicle@RefineryGameObj@@QAEPAVVehicleGameObj@@XZ ; RefineryGameObj::Get_Harvester_Vehicle
PUBLIC	?Destroy_Harvester@RefineryGameObj@@QAEXXZ	; RefineryGameObj::Destroy_Harvester
PUBLIC	?Head@?$SList@VBuildingGameObj@@@@QBEPAV?$SLNode@VBuildingGameObj@@@@XZ ; SList<BuildingGameObj>::Head
PUBLIC	?Get_Definition@SimpleGameObj@@QBEABVSimpleGameObjDef@@XZ ; SimpleGameObj::Get_Definition
PUBLIC	?Get_Type@VehicleGameObjDef@@QBE?AW4VehicleType@@XZ ; VehicleGameObjDef::Get_Type
PUBLIC	?Get_Build_At_Ground@VehicleGameObjDef@@QBE_NXZ	; VehicleGameObjDef::Get_Build_At_Ground
PUBLIC	??4ArmorWarheadManager@@QAEAAV0@ABV0@@Z		; ArmorWarheadManager::operator=
PUBLIC	?I_Am_Server@CombatManager@@SA_NXZ		; CombatManager::I_Am_Server
PUBLIC	?Set_Friendly_Fire_Permitted@CombatManager@@SAX_N@Z ; CombatManager::Set_Friendly_Fire_Permitted
PUBLIC	?Is_Friendly_Fire_Permitted@CombatManager@@SA_NXZ ; CombatManager::Is_Friendly_Fire_Permitted
PUBLIC	??$ResolveGameReference@_N@@YAAA_NHHH@Z		; ResolveGameReference<bool>
PUBLIC	?Game_Mode_Find@@YAPAXPBD@Z			; Game_Mode_Find
PUBLIC	??$ResolveGameReference@H@@YAAAHHHH@Z		; ResolveGameReference<int>
PUBLIC	??$ResolveGameReference@VWideStringClass@@@@YAAAVWideStringClass@@HHH@Z ; ResolveGameReference<WideStringClass>
PUBLIC	??$ResolveGameReference@VVector3@@@@YAAAVVector3@@HHH@Z ; ResolveGameReference<Vector3>
PUBLIC	??$ResolveGameReference@I@@YAAAIHHH@Z		; ResolveGameReference<unsigned int>
PUBLIC	?Next@?$SLNode@VBuildingGameObj@@@@QBEPAV1@XZ	; SLNode<BuildingGameObj>::Next
PUBLIC	?Data@?$SLNode@VBuildingGameObj@@@@QBEPAVBuildingGameObj@@XZ ; SLNode<BuildingGameObj>::Data
PUBLIC	?Find_Building_By_Class_ID@@YAPAVScriptableGameObj@@HK@Z ; Find_Building_By_Class_ID
PUBLIC	??0?$RefMultiListIterator@VBuildingAggregateClass@@@@QAE@PBV?$RefMultiListClass@VBuildingAggregateClass@@@@@Z ; RefMultiListIterator<BuildingAggregateClass>::RefMultiListIterator<BuildingAggregateClass>
PUBLIC	?Peek_Obj@?$RefMultiListIterator@VBuildingAggregateClass@@@@QBEPAVBuildingAggregateClass@@XZ ; RefMultiListIterator<BuildingAggregateClass>::Peek_Obj
PUBLIC	??E?$RefMultiListIterator@VBuildingAggregateClass@@@@QAEXXZ ; RefMultiListIterator<BuildingAggregateClass>::operator++
PUBLIC	??B?$RefMultiListIterator@VBuildingAggregateClass@@@@QBE_NXZ ; RefMultiListIterator<BuildingAggregateClass>::operator bool
PUBLIC	??C?$RefMultiListIterator@VBuildingAggregateClass@@@@QBEPAVBuildingAggregateClass@@XZ ; RefMultiListIterator<BuildingAggregateClass>::operator->
PUBLIC	??_7ThreadClass@@6B@				; ThreadClass::`vftable'
PUBLIC	??_7GameObjObserverClass@@6B@			; GameObjObserverClass::`vftable'
PUBLIC	??_7ScriptClass@@6B@				; ScriptClass::`vftable'
PUBLIC	??_7ScriptImpClass@@6B@				; ScriptImpClass::`vftable'
PUBLIC	??_7ScriptFactory@@6B@				; ScriptFactory::`vftable'
PUBLIC	??_7PostLoadableClass@@6B@			; PostLoadableClass::`vftable'
PUBLIC	??_7INIClass@@6B@				; INIClass::`vftable'
PUBLIC	??_7ReferencerClass@@6B@			; ReferencerClass::`vftable'
PUBLIC	?HostedGameNumber@cGameData@@2AAHA		; cGameData::HostedGameNumber
PUBLIC	?WinText@cGameData@@2AAVWideStringClass@@A	; cGameData::WinText
PUBLIC	?IAmServer@CombatManager@@2AA_NA		; CombatManager::IAmServer
PUBLIC	?PrivateMessageColor@@3AAVVector3@@A		; PrivateMessageColor
PUBLIC	?PublicMessageColor@@3AAVVector3@@A		; PublicMessageColor
PUBLIC	?GDIHouseColor@@3AAVVector3@@A			; GDIHouseColor
PUBLIC	?NodHouseColor@@3AAVVector3@@A			; NodHouseColor
PUBLIC	?IsMapVTOL@@3AA_NA				; IsMapVTOL
PUBLIC	?IsListed@@3AA_NA				; IsListed
PUBLIC	?GameMode@@3AAIA				; GameMode
PUBLIC	??_C@_05PGGAFPFO@Death?$AA@			; `string'
PUBLIC	??_C@_03KPGLNNAM@WOL?$AA@			; `string'
PUBLIC	??_C@_03BANLECBK@LAN?$AA@			; `string'
PUBLIC	??_R4ThreadClass@@6B@				; ThreadClass::`RTTI Complete Object Locator'
PUBLIC	??_R0?AVThreadClass@@@8				; ThreadClass `RTTI Type Descriptor'
PUBLIC	??_R3ThreadClass@@8				; ThreadClass::`RTTI Class Hierarchy Descriptor'
PUBLIC	??_R2ThreadClass@@8				; ThreadClass::`RTTI Base Class Array'
PUBLIC	??_R1A@?0A@EA@ThreadClass@@8			; ThreadClass::`RTTI Base Class Descriptor at (0,-1,0,64)'
PUBLIC	??_R4ScriptFactory@@6B@				; ScriptFactory::`RTTI Complete Object Locator'
PUBLIC	??_R0?AVScriptFactory@@@8			; ScriptFactory `RTTI Type Descriptor'
PUBLIC	??_R3ScriptFactory@@8				; ScriptFactory::`RTTI Class Hierarchy Descriptor'
PUBLIC	??_R2ScriptFactory@@8				; ScriptFactory::`RTTI Base Class Array'
PUBLIC	??_R1A@?0A@EA@ScriptFactory@@8			; ScriptFactory::`RTTI Base Class Descriptor at (0,-1,0,64)'
PUBLIC	??_R4ScriptClass@@6B@				; ScriptClass::`RTTI Complete Object Locator'
PUBLIC	??_R0?AVScriptClass@@@8				; ScriptClass `RTTI Type Descriptor'
PUBLIC	??_R3ScriptClass@@8				; ScriptClass::`RTTI Class Hierarchy Descriptor'
PUBLIC	??_R2ScriptClass@@8				; ScriptClass::`RTTI Base Class Array'
PUBLIC	??_R1A@?0A@EA@ScriptClass@@8			; ScriptClass::`RTTI Base Class Descriptor at (0,-1,0,64)'
PUBLIC	??_R1A@?0A@EA@GameObjObserverClass@@8		; GameObjObserverClass::`RTTI Base Class Descriptor at (0,-1,0,64)'
PUBLIC	??_R0?AVGameObjObserverClass@@@8		; GameObjObserverClass `RTTI Type Descriptor'
PUBLIC	??_R3GameObjObserverClass@@8			; GameObjObserverClass::`RTTI Class Hierarchy Descriptor'
PUBLIC	??_R2GameObjObserverClass@@8			; GameObjObserverClass::`RTTI Base Class Array'
PUBLIC	??_R4GameObjObserverClass@@6B@			; GameObjObserverClass::`RTTI Complete Object Locator'
PUBLIC	??_R4ScriptImpClass@@6B@			; ScriptImpClass::`RTTI Complete Object Locator'
PUBLIC	??_R0?AVScriptImpClass@@@8			; ScriptImpClass `RTTI Type Descriptor'
PUBLIC	??_R3ScriptImpClass@@8				; ScriptImpClass::`RTTI Class Hierarchy Descriptor'
PUBLIC	??_R2ScriptImpClass@@8				; ScriptImpClass::`RTTI Base Class Array'
PUBLIC	??_R1A@?0A@EA@ScriptImpClass@@8			; ScriptImpClass::`RTTI Base Class Descriptor at (0,-1,0,64)'
PUBLIC	??_R4PostLoadableClass@@6B@			; PostLoadableClass::`RTTI Complete Object Locator'
PUBLIC	??_R0?AVPostLoadableClass@@@8			; PostLoadableClass `RTTI Type Descriptor'
PUBLIC	??_R3PostLoadableClass@@8			; PostLoadableClass::`RTTI Class Hierarchy Descriptor'
PUBLIC	??_R2PostLoadableClass@@8			; PostLoadableClass::`RTTI Base Class Array'
PUBLIC	??_R1A@?0A@EA@PostLoadableClass@@8		; PostLoadableClass::`RTTI Base Class Descriptor at (0,-1,0,64)'
PUBLIC	??_R4INIClass@@6B@				; INIClass::`RTTI Complete Object Locator'
PUBLIC	??_R0?AVINIClass@@@8				; INIClass `RTTI Type Descriptor'
PUBLIC	??_R3INIClass@@8				; INIClass::`RTTI Class Hierarchy Descriptor'
PUBLIC	??_R2INIClass@@8				; INIClass::`RTTI Base Class Array'
PUBLIC	??_R1A@?0A@EA@INIClass@@8			; INIClass::`RTTI Base Class Descriptor at (0,-1,0,64)'
PUBLIC	??_R4ReferencerClass@@6B@			; ReferencerClass::`RTTI Complete Object Locator'
PUBLIC	??_R0?AVReferencerClass@@@8			; ReferencerClass `RTTI Type Descriptor'
PUBLIC	??_R3ReferencerClass@@8				; ReferencerClass::`RTTI Class Hierarchy Descriptor'
PUBLIC	??_R2ReferencerClass@@8				; ReferencerClass::`RTTI Base Class Array'
PUBLIC	??_R1A@?0A@EA@ReferencerClass@@8		; ReferencerClass::`RTTI Base Class Descriptor at (0,-1,0,64)'
PUBLIC	__real@00000000
PUBLIC	__real@0000000000000000
PUBLIC	__real@02081cea
PUBLIC	__real@3991a2b4
PUBLIC	__real@3c888889
PUBLIC	__real@3f79999a
PUBLIC	__real@3f800000
PUBLIC	__real@3fc90fdb
PUBLIC	__real@3fe0000000000000
PUBLIC	__real@3ff0000000000000
PUBLIC	__real@40000000
PUBLIC	__real@4000000000000000
PUBLIC	__real@40c90fdb
PUBLIC	__real@437f0000
PUBLIC	__real@44000000
PUBLIC	__real@44800000
PUBLIC	__real@47c34f80
PUBLIC	__real@bf800000
PUBLIC	__real@c0000000
PUBLIC	__xmm@80000000000000008000000000000000
PUBLIC	__xmm@80000000800000008000000080000000
EXTRN	__purecall:PROC
EXTRN	??3@YAXPAX@Z:PROC				; operator delete
EXTRN	?HookupAT3@@YAPAXPAX000@Z:PROC			; HookupAT3
EXTRN	?InitEngine@@YAXXZ:PROC				; InitEngine
EXTRN	__imp__atof:PROC
EXTRN	__imp__ceil:PROC
EXTRN	__imp__atoi:PROC
EXTRN	??_V@YAXPAX@Z:PROC				; operator delete[]
EXTRN	__imp___stricmp:PROC
EXTRN	__imp__GetCurrentThreadId@0:PROC
EXTRN	?Random_Float@WWMath@@SAMXZ:PROC		; WWMath::Random_Float
EXTRN	?Set@Matrix3D@@QAEXABVMatrix3@@ABVVector3@@@Z:PROC ; Matrix3D::Set
EXTRN	?Set@Matrix3D@@QAEXABVQuaternion@@ABVVector3@@@Z:PROC ; Matrix3D::Set
EXTRN	?Set@Matrix3@@QAEXABVQuaternion@@@Z:PROC	; Matrix3::Set
EXTRN	??1ThreadClass@@UAE@XZ:PROC			; ThreadClass::~ThreadClass
EXTRN	??1ScriptImpClass@@UAE@XZ:PROC			; ScriptImpClass::~ScriptImpClass
EXTRN	?Get_Name@ScriptImpClass@@UAEPBDXZ:PROC		; ScriptImpClass::Get_Name
EXTRN	?Set_Parameters_String@ScriptImpClass@@UAEXPBD@Z:PROC ; ScriptImpClass::Set_Parameters_String
EXTRN	?Get_Parameters_String@ScriptImpClass@@UAEXPADI@Z:PROC ; ScriptImpClass::Get_Parameters_String
EXTRN	?Get_Parameter@ScriptImpClass@@QAEPBDH@Z:PROC	; ScriptImpClass::Get_Parameter
EXTRN	?Get_Int_Parameter@ScriptImpClass@@QAEHPBD@Z:PROC ; ScriptImpClass::Get_Int_Parameter
EXTRN	?Attach@ScriptImpClass@@MAEXPAVScriptableGameObj@@@Z:PROC ; ScriptImpClass::Attach
EXTRN	?Detach@ScriptImpClass@@MAEXPAVScriptableGameObj@@@Z:PROC ; ScriptImpClass::Detach
EXTRN	?Save@ScriptImpClass@@MAEXAAVScriptSaver@@@Z:PROC ; ScriptImpClass::Save
EXTRN	?Load@ScriptImpClass@@MAEXAAVScriptLoader@@@Z:PROC ; ScriptImpClass::Load
EXTRN	??1ScriptFactory@@UAE@XZ:PROC			; ScriptFactory::~ScriptFactory
EXTRN	?Enable_Radar@BaseControllerClass@@QAEX_N@Z:PROC ; BaseControllerClass::Enable_Radar
EXTRN	__imp_?Free_String@StringClass@@AAEXXZ:PROC
EXTRN	__imp_?Free_String@WideStringClass@@AAEXXZ:PROC
EXTRN	?Find_Entry@INIClass@@QBEPAUINIEntry@@PBD0@Z:PROC ; INIClass::Find_Entry
EXTRN	?Find_Section@INIClass@@QBEPAUINISection@@PBD@Z:PROC ; INIClass::Find_Section
EXTRN	??1INIClass@@UAE@XZ:PROC			; INIClass::~INIClass
EXTRN	??1ReferencerClass@@UAE@XZ:PROC			; ReferencerClass::~ReferencerClass
EXTRN	?On_Post_Load@ReferencerClass@@UAEXXZ:PROC	; ReferencerClass::On_Post_Load
EXTRN	??4ReferencerClass@@QAEAAV0@PAVScriptableGameObj@@@Z:PROC ; ReferencerClass::operator=
EXTRN	?Get_Definition@ScriptableGameObj@@QBEABVScriptableGameObjDef@@XZ:PROC ; ScriptableGameObj::Get_Definition
EXTRN	?Start_Observers@ScriptableGameObj@@QAEXXZ:PROC	; ScriptableGameObj::Start_Observers
EXTRN	?Set@LineSegClass@@QAEXABV1@ABVMatrix3D@@@Z:PROC ; LineSegClass::Set
EXTRN	?Get_Object_Type@@YAHPAVScriptableGameObj@@@Z:PROC ; Get_Object_Type
EXTRN	?Is_MCT@BuildingAggregateClass@@QAE_NXZ:PROC	; BuildingAggregateClass::Is_MCT
EXTRN	?Get_Definition@BuildingGameObj@@QBEABVBuildingGameObjDef@@XZ:PROC ; BuildingGameObj::Get_Definition
EXTRN	?Collect_Building_Components@BuildingGameObj@@QAEXXZ:PROC ; BuildingGameObj::Collect_Building_Components
EXTRN	?Get_Definition@RefineryGameObj@@QBEABVRefineryGameObjDef@@XZ:PROC ; RefineryGameObj::Get_Definition
EXTRN	?Find_Named_Definition@@YAPAVDefinitionClass@@PBD@Z:PROC ; Find_Named_Definition
EXTRN	__imp_?Find_Definition@DefinitionMgrClass@@SAPAVDefinitionClass@@I_N@Z:PROC
EXTRN	__CIatan2:PROC
EXTRN	__libm_sse2_acos_precise:PROC
EXTRN	__libm_sse2_asin_precise:PROC
EXTRN	__libm_sse2_atan_precise:PROC
EXTRN	__libm_sse2_cos_precise:PROC
EXTRN	__libm_sse2_sin_precise:PROC
EXTRN	__libm_sse2_sqrt_precise:PROC
EXTRN	__libm_sse2_tan_precise:PROC
EXTRN	_floor:PROC
EXTRN	?Exe@@3HA:DWORD					; Exe
EXTRN	??_7type_info@@6B@:QWORD			; type_info::`vftable'
EXTRN	?_FastAcosTable@@3AAV?$RefArrayHelper@M$0EAA@@@A:DWORD ; _FastAcosTable
EXTRN	?_FastAsinTable@@3AAV?$RefArrayHelper@M$0EAA@@@A:DWORD ; _FastAsinTable
EXTRN	?_FastSinTable@@3AAV?$RefArrayHelper@M$0EAA@@@A:DWORD ; _FastSinTable
EXTRN	?Commands@@3PAUScriptCommands@@A:DWORD		; Commands
EXTRN	?GameType@cGameType@@2AAHA:DWORD		; cGameType::GameType
EXTRN	?BuildingGameObjList@GameObjManager@@2AAV?$SList@VBuildingGameObj@@@@A:DWORD ; GameObjManager::BuildingGameObjList
EXTRN	?FriendlyFirePermitted@CombatManager@@2AA_NA:DWORD ; CombatManager::FriendlyFirePermitted
EXTRN	__fltused:DWORD
_BSS	SEGMENT
	ALIGN	4

?HostedGameNumber@cGameData@@2AAHA DD 01H DUP (?)	; cGameData::HostedGameNumber
?WinText@cGameData@@2AAVWideStringClass@@A DD 01H DUP (?) ; cGameData::WinText
?IAmServer@CombatManager@@2AA_NA DD 01H DUP (?)		; CombatManager::IAmServer
?PrivateMessageColor@@3AAVVector3@@A DD 01H DUP (?)	; PrivateMessageColor
?PublicMessageColor@@3AAVVector3@@A DD 01H DUP (?)	; PublicMessageColor
?GDIHouseColor@@3AAVVector3@@A DD 01H DUP (?)		; GDIHouseColor
?NodHouseColor@@3AAVVector3@@A DD 01H DUP (?)		; NodHouseColor
?IsMapVTOL@@3AA_NA DD 01H DUP (?)			; IsMapVTOL
?IsListed@@3AA_NA DD 01H DUP (?)			; IsListed
?GameMode@@3AAIA DD 01H DUP (?)				; GameMode
_BSS	ENDS
CRT$XCU	SEGMENT
?IAmServer$initializer$@CombatManager@@2P6AXXZA DD FLAT:??__E?IAmServer@CombatManager@@2AA_NA@@YAXXZ ; CombatManager::IAmServer$initializer$
CRT$XCU	ENDS
;	COMDAT __xmm@80000000800000008000000080000000
CONST	SEGMENT
__xmm@80000000800000008000000080000000 DB 00H, 00H, 00H, 080H, 00H, 00H, 00H
	DB	080H, 00H, 00H, 00H, 080H, 00H, 00H, 00H, 080H
CONST	ENDS
;	COMDAT __xmm@80000000000000008000000000000000
CONST	SEGMENT
__xmm@80000000000000008000000000000000 DB 00H, 00H, 00H, 00H, 00H, 00H, 00H
	DB	080H, 00H, 00H, 00H, 00H, 00H, 00H, 00H, 080H
CONST	ENDS
;	COMDAT __real@c0000000
CONST	SEGMENT
__real@c0000000 DD 0c0000000r			; -2
CONST	ENDS
;	COMDAT __real@bf800000
CONST	SEGMENT
__real@bf800000 DD 0bf800000r			; -1
CONST	ENDS
;	COMDAT __real@47c34f80
CONST	SEGMENT
__real@47c34f80 DD 047c34f80r			; 99999
CONST	ENDS
;	COMDAT __real@44800000
CONST	SEGMENT
__real@44800000 DD 044800000r			; 1024
CONST	ENDS
;	COMDAT __real@44000000
CONST	SEGMENT
__real@44000000 DD 044000000r			; 512
CONST	ENDS
;	COMDAT __real@437f0000
CONST	SEGMENT
__real@437f0000 DD 0437f0000r			; 255
CONST	ENDS
;	COMDAT __real@40c90fdb
CONST	SEGMENT
__real@40c90fdb DD 040c90fdbr			; 6.28319
CONST	ENDS
;	COMDAT __real@4000000000000000
CONST	SEGMENT
__real@4000000000000000 DQ 04000000000000000r	; 2
CONST	ENDS
;	COMDAT __real@40000000
CONST	SEGMENT
__real@40000000 DD 040000000r			; 2
CONST	ENDS
;	COMDAT __real@3ff0000000000000
CONST	SEGMENT
__real@3ff0000000000000 DQ 03ff0000000000000r	; 1
CONST	ENDS
;	COMDAT __real@3fe0000000000000
CONST	SEGMENT
__real@3fe0000000000000 DQ 03fe0000000000000r	; 0.5
CONST	ENDS
;	COMDAT __real@3fc90fdb
CONST	SEGMENT
__real@3fc90fdb DD 03fc90fdbr			; 1.5708
CONST	ENDS
;	COMDAT __real@3f800000
CONST	SEGMENT
__real@3f800000 DD 03f800000r			; 1
CONST	ENDS
;	COMDAT __real@3f79999a
CONST	SEGMENT
__real@3f79999a DD 03f79999ar			; 0.975
CONST	ENDS
;	COMDAT __real@3c888889
CONST	SEGMENT
__real@3c888889 DD 03c888889r			; 0.0166667
CONST	ENDS
;	COMDAT __real@3991a2b4
CONST	SEGMENT
__real@3991a2b4 DD 03991a2b4r			; 0.000277778
CONST	ENDS
;	COMDAT __real@02081cea
CONST	SEGMENT
__real@02081cea DD 002081cear			; 1e-037
CONST	ENDS
;	COMDAT __real@0000000000000000
CONST	SEGMENT
__real@0000000000000000 DQ 00000000000000000r	; 0
CONST	ENDS
;	COMDAT __real@00000000
CONST	SEGMENT
__real@00000000 DD 000000000r			; 0
CONST	ENDS
;	COMDAT ??_R1A@?0A@EA@ReferencerClass@@8
rdata$r	SEGMENT
??_R1A@?0A@EA@ReferencerClass@@8 DD FLAT:??_R0?AVReferencerClass@@@8 ; ReferencerClass::`RTTI Base Class Descriptor at (0,-1,0,64)'
	DD	01H
	DD	00H
	DD	0ffffffffH
	DD	00H
	DD	040H
	DD	FLAT:??_R3ReferencerClass@@8
rdata$r	ENDS
;	COMDAT ??_R2ReferencerClass@@8
rdata$r	SEGMENT
??_R2ReferencerClass@@8 DD FLAT:??_R1A@?0A@EA@ReferencerClass@@8 ; ReferencerClass::`RTTI Base Class Array'
	DD	FLAT:??_R1A@?0A@EA@PostLoadableClass@@8
rdata$r	ENDS
;	COMDAT ??_R3ReferencerClass@@8
rdata$r	SEGMENT
??_R3ReferencerClass@@8 DD 00H				; ReferencerClass::`RTTI Class Hierarchy Descriptor'
	DD	00H
	DD	02H
	DD	FLAT:??_R2ReferencerClass@@8
rdata$r	ENDS
;	COMDAT ??_R0?AVReferencerClass@@@8
_DATA	SEGMENT
??_R0?AVReferencerClass@@@8 DD FLAT:??_7type_info@@6B@	; ReferencerClass `RTTI Type Descriptor'
	DD	00H
	DB	'.?AVReferencerClass@@', 00H
_DATA	ENDS
;	COMDAT ??_R4ReferencerClass@@6B@
rdata$r	SEGMENT
??_R4ReferencerClass@@6B@ DD 00H			; ReferencerClass::`RTTI Complete Object Locator'
	DD	00H
	DD	00H
	DD	FLAT:??_R0?AVReferencerClass@@@8
	DD	FLAT:??_R3ReferencerClass@@8
rdata$r	ENDS
;	COMDAT ??_R1A@?0A@EA@INIClass@@8
rdata$r	SEGMENT
??_R1A@?0A@EA@INIClass@@8 DD FLAT:??_R0?AVINIClass@@@8	; INIClass::`RTTI Base Class Descriptor at (0,-1,0,64)'
	DD	00H
	DD	00H
	DD	0ffffffffH
	DD	00H
	DD	040H
	DD	FLAT:??_R3INIClass@@8
rdata$r	ENDS
;	COMDAT ??_R2INIClass@@8
rdata$r	SEGMENT
??_R2INIClass@@8 DD FLAT:??_R1A@?0A@EA@INIClass@@8	; INIClass::`RTTI Base Class Array'
rdata$r	ENDS
;	COMDAT ??_R3INIClass@@8
rdata$r	SEGMENT
??_R3INIClass@@8 DD 00H					; INIClass::`RTTI Class Hierarchy Descriptor'
	DD	00H
	DD	01H
	DD	FLAT:??_R2INIClass@@8
rdata$r	ENDS
;	COMDAT ??_R0?AVINIClass@@@8
_DATA	SEGMENT
??_R0?AVINIClass@@@8 DD FLAT:??_7type_info@@6B@		; INIClass `RTTI Type Descriptor'
	DD	00H
	DB	'.?AVINIClass@@', 00H
_DATA	ENDS
;	COMDAT ??_R4INIClass@@6B@
rdata$r	SEGMENT
??_R4INIClass@@6B@ DD 00H				; INIClass::`RTTI Complete Object Locator'
	DD	00H
	DD	00H
	DD	FLAT:??_R0?AVINIClass@@@8
	DD	FLAT:??_R3INIClass@@8
rdata$r	ENDS
;	COMDAT ??_R1A@?0A@EA@PostLoadableClass@@8
rdata$r	SEGMENT
??_R1A@?0A@EA@PostLoadableClass@@8 DD FLAT:??_R0?AVPostLoadableClass@@@8 ; PostLoadableClass::`RTTI Base Class Descriptor at (0,-1,0,64)'
	DD	00H
	DD	00H
	DD	0ffffffffH
	DD	00H
	DD	040H
	DD	FLAT:??_R3PostLoadableClass@@8
rdata$r	ENDS
;	COMDAT ??_R2PostLoadableClass@@8
rdata$r	SEGMENT
??_R2PostLoadableClass@@8 DD FLAT:??_R1A@?0A@EA@PostLoadableClass@@8 ; PostLoadableClass::`RTTI Base Class Array'
rdata$r	ENDS
;	COMDAT ??_R3PostLoadableClass@@8
rdata$r	SEGMENT
??_R3PostLoadableClass@@8 DD 00H			; PostLoadableClass::`RTTI Class Hierarchy Descriptor'
	DD	00H
	DD	01H
	DD	FLAT:??_R2PostLoadableClass@@8
rdata$r	ENDS
;	COMDAT ??_R0?AVPostLoadableClass@@@8
_DATA	SEGMENT
??_R0?AVPostLoadableClass@@@8 DD FLAT:??_7type_info@@6B@ ; PostLoadableClass `RTTI Type Descriptor'
	DD	00H
	DB	'.?AVPostLoadableClass@@', 00H
_DATA	ENDS
;	COMDAT ??_R4PostLoadableClass@@6B@
rdata$r	SEGMENT
??_R4PostLoadableClass@@6B@ DD 00H			; PostLoadableClass::`RTTI Complete Object Locator'
	DD	00H
	DD	00H
	DD	FLAT:??_R0?AVPostLoadableClass@@@8
	DD	FLAT:??_R3PostLoadableClass@@8
rdata$r	ENDS
;	COMDAT ??_R1A@?0A@EA@ScriptImpClass@@8
rdata$r	SEGMENT
??_R1A@?0A@EA@ScriptImpClass@@8 DD FLAT:??_R0?AVScriptImpClass@@@8 ; ScriptImpClass::`RTTI Base Class Descriptor at (0,-1,0,64)'
	DD	02H
	DD	00H
	DD	0ffffffffH
	DD	00H
	DD	040H
	DD	FLAT:??_R3ScriptImpClass@@8
rdata$r	ENDS
;	COMDAT ??_R2ScriptImpClass@@8
rdata$r	SEGMENT
??_R2ScriptImpClass@@8 DD FLAT:??_R1A@?0A@EA@ScriptImpClass@@8 ; ScriptImpClass::`RTTI Base Class Array'
	DD	FLAT:??_R1A@?0A@EA@ScriptClass@@8
	DD	FLAT:??_R1A@?0A@EA@GameObjObserverClass@@8
rdata$r	ENDS
;	COMDAT ??_R3ScriptImpClass@@8
rdata$r	SEGMENT
??_R3ScriptImpClass@@8 DD 00H				; ScriptImpClass::`RTTI Class Hierarchy Descriptor'
	DD	00H
	DD	03H
	DD	FLAT:??_R2ScriptImpClass@@8
rdata$r	ENDS
;	COMDAT ??_R0?AVScriptImpClass@@@8
_DATA	SEGMENT
??_R0?AVScriptImpClass@@@8 DD FLAT:??_7type_info@@6B@	; ScriptImpClass `RTTI Type Descriptor'
	DD	00H
	DB	'.?AVScriptImpClass@@', 00H
_DATA	ENDS
;	COMDAT ??_R4ScriptImpClass@@6B@
rdata$r	SEGMENT
??_R4ScriptImpClass@@6B@ DD 00H				; ScriptImpClass::`RTTI Complete Object Locator'
	DD	00H
	DD	00H
	DD	FLAT:??_R0?AVScriptImpClass@@@8
	DD	FLAT:??_R3ScriptImpClass@@8
rdata$r	ENDS
;	COMDAT ??_R4GameObjObserverClass@@6B@
rdata$r	SEGMENT
??_R4GameObjObserverClass@@6B@ DD 00H			; GameObjObserverClass::`RTTI Complete Object Locator'
	DD	00H
	DD	00H
	DD	FLAT:??_R0?AVGameObjObserverClass@@@8
	DD	FLAT:??_R3GameObjObserverClass@@8
rdata$r	ENDS
;	COMDAT ??_R2GameObjObserverClass@@8
rdata$r	SEGMENT
??_R2GameObjObserverClass@@8 DD FLAT:??_R1A@?0A@EA@GameObjObserverClass@@8 ; GameObjObserverClass::`RTTI Base Class Array'
rdata$r	ENDS
;	COMDAT ??_R3GameObjObserverClass@@8
rdata$r	SEGMENT
??_R3GameObjObserverClass@@8 DD 00H			; GameObjObserverClass::`RTTI Class Hierarchy Descriptor'
	DD	00H
	DD	01H
	DD	FLAT:??_R2GameObjObserverClass@@8
rdata$r	ENDS
;	COMDAT ??_R0?AVGameObjObserverClass@@@8
_DATA	SEGMENT
??_R0?AVGameObjObserverClass@@@8 DD FLAT:??_7type_info@@6B@ ; GameObjObserverClass `RTTI Type Descriptor'
	DD	00H
	DB	'.?AVGameObjObserverClass@@', 00H
_DATA	ENDS
;	COMDAT ??_R1A@?0A@EA@GameObjObserverClass@@8
rdata$r	SEGMENT
??_R1A@?0A@EA@GameObjObserverClass@@8 DD FLAT:??_R0?AVGameObjObserverClass@@@8 ; GameObjObserverClass::`RTTI Base Class Descriptor at (0,-1,0,64)'
	DD	00H
	DD	00H
	DD	0ffffffffH
	DD	00H
	DD	040H
	DD	FLAT:??_R3GameObjObserverClass@@8
rdata$r	ENDS
;	COMDAT ??_R1A@?0A@EA@ScriptClass@@8
rdata$r	SEGMENT
??_R1A@?0A@EA@ScriptClass@@8 DD FLAT:??_R0?AVScriptClass@@@8 ; ScriptClass::`RTTI Base Class Descriptor at (0,-1,0,64)'
	DD	01H
	DD	00H
	DD	0ffffffffH
	DD	00H
	DD	040H
	DD	FLAT:??_R3ScriptClass@@8
rdata$r	ENDS
;	COMDAT ??_R2ScriptClass@@8
rdata$r	SEGMENT
??_R2ScriptClass@@8 DD FLAT:??_R1A@?0A@EA@ScriptClass@@8 ; ScriptClass::`RTTI Base Class Array'
	DD	FLAT:??_R1A@?0A@EA@GameObjObserverClass@@8
rdata$r	ENDS
;	COMDAT ??_R3ScriptClass@@8
rdata$r	SEGMENT
??_R3ScriptClass@@8 DD 00H				; ScriptClass::`RTTI Class Hierarchy Descriptor'
	DD	00H
	DD	02H
	DD	FLAT:??_R2ScriptClass@@8
rdata$r	ENDS
;	COMDAT ??_R0?AVScriptClass@@@8
_DATA	SEGMENT
??_R0?AVScriptClass@@@8 DD FLAT:??_7type_info@@6B@	; ScriptClass `RTTI Type Descriptor'
	DD	00H
	DB	'.?AVScriptClass@@', 00H
_DATA	ENDS
;	COMDAT ??_R4ScriptClass@@6B@
rdata$r	SEGMENT
??_R4ScriptClass@@6B@ DD 00H				; ScriptClass::`RTTI Complete Object Locator'
	DD	00H
	DD	00H
	DD	FLAT:??_R0?AVScriptClass@@@8
	DD	FLAT:??_R3ScriptClass@@8
rdata$r	ENDS
;	COMDAT ??_R1A@?0A@EA@ScriptFactory@@8
rdata$r	SEGMENT
??_R1A@?0A@EA@ScriptFactory@@8 DD FLAT:??_R0?AVScriptFactory@@@8 ; ScriptFactory::`RTTI Base Class Descriptor at (0,-1,0,64)'
	DD	00H
	DD	00H
	DD	0ffffffffH
	DD	00H
	DD	040H
	DD	FLAT:??_R3ScriptFactory@@8
rdata$r	ENDS
;	COMDAT ??_R2ScriptFactory@@8
rdata$r	SEGMENT
??_R2ScriptFactory@@8 DD FLAT:??_R1A@?0A@EA@ScriptFactory@@8 ; ScriptFactory::`RTTI Base Class Array'
rdata$r	ENDS
;	COMDAT ??_R3ScriptFactory@@8
rdata$r	SEGMENT
??_R3ScriptFactory@@8 DD 00H				; ScriptFactory::`RTTI Class Hierarchy Descriptor'
	DD	00H
	DD	01H
	DD	FLAT:??_R2ScriptFactory@@8
rdata$r	ENDS
;	COMDAT ??_R0?AVScriptFactory@@@8
_DATA	SEGMENT
??_R0?AVScriptFactory@@@8 DD FLAT:??_7type_info@@6B@	; ScriptFactory `RTTI Type Descriptor'
	DD	00H
	DB	'.?AVScriptFactory@@', 00H
_DATA	ENDS
;	COMDAT ??_R4ScriptFactory@@6B@
rdata$r	SEGMENT
??_R4ScriptFactory@@6B@ DD 00H				; ScriptFactory::`RTTI Complete Object Locator'
	DD	00H
	DD	00H
	DD	FLAT:??_R0?AVScriptFactory@@@8
	DD	FLAT:??_R3ScriptFactory@@8
rdata$r	ENDS
;	COMDAT ??_R1A@?0A@EA@ThreadClass@@8
rdata$r	SEGMENT
??_R1A@?0A@EA@ThreadClass@@8 DD FLAT:??_R0?AVThreadClass@@@8 ; ThreadClass::`RTTI Base Class Descriptor at (0,-1,0,64)'
	DD	00H
	DD	00H
	DD	0ffffffffH
	DD	00H
	DD	040H
	DD	FLAT:??_R3ThreadClass@@8
rdata$r	ENDS
;	COMDAT ??_R2ThreadClass@@8
rdata$r	SEGMENT
??_R2ThreadClass@@8 DD FLAT:??_R1A@?0A@EA@ThreadClass@@8 ; ThreadClass::`RTTI Base Class Array'
rdata$r	ENDS
;	COMDAT ??_R3ThreadClass@@8
rdata$r	SEGMENT
??_R3ThreadClass@@8 DD 00H				; ThreadClass::`RTTI Class Hierarchy Descriptor'
	DD	00H
	DD	01H
	DD	FLAT:??_R2ThreadClass@@8
rdata$r	ENDS
;	COMDAT ??_R0?AVThreadClass@@@8
_DATA	SEGMENT
??_R0?AVThreadClass@@@8 DD FLAT:??_7type_info@@6B@	; ThreadClass `RTTI Type Descriptor'
	DD	00H
	DB	'.?AVThreadClass@@', 00H
_DATA	ENDS
;	COMDAT ??_R4ThreadClass@@6B@
rdata$r	SEGMENT
??_R4ThreadClass@@6B@ DD 00H				; ThreadClass::`RTTI Complete Object Locator'
	DD	00H
	DD	00H
	DD	FLAT:??_R0?AVThreadClass@@@8
	DD	FLAT:??_R3ThreadClass@@8
rdata$r	ENDS
;	COMDAT ??_C@_03BANLECBK@LAN?$AA@
CONST	SEGMENT
??_C@_03BANLECBK@LAN?$AA@ DB 'LAN', 00H			; `string'
CONST	ENDS
;	COMDAT ??_C@_03KPGLNNAM@WOL?$AA@
CONST	SEGMENT
??_C@_03KPGLNNAM@WOL?$AA@ DB 'WOL', 00H			; `string'
CONST	ENDS
;	COMDAT ??_C@_05PGGAFPFO@Death?$AA@
CONST	SEGMENT
??_C@_05PGGAFPFO@Death?$AA@ DB 'Death', 00H		; `string'
CONST	ENDS
;	COMDAT ??_7ReferencerClass@@6B@
CONST	SEGMENT
??_7ReferencerClass@@6B@ DD FLAT:??_R4ReferencerClass@@6B@ ; ReferencerClass::`vftable'
	DD	FLAT:??_EReferencerClass@@UAEPAXI@Z
	DD	FLAT:?On_Post_Load@ReferencerClass@@UAEXXZ
CONST	ENDS
;	COMDAT ??_7INIClass@@6B@
CONST	SEGMENT
??_7INIClass@@6B@ DD FLAT:??_R4INIClass@@6B@		; INIClass::`vftable'
	DD	FLAT:??_EINIClass@@UAEPAXI@Z
CONST	ENDS
;	COMDAT ??_7PostLoadableClass@@6B@
CONST	SEGMENT
??_7PostLoadableClass@@6B@ DD FLAT:??_R4PostLoadableClass@@6B@ ; PostLoadableClass::`vftable'
	DD	FLAT:??_EPostLoadableClass@@UAEPAXI@Z
	DD	FLAT:?On_Post_Load@PostLoadableClass@@UAEXXZ
CONST	ENDS
;	COMDAT ??_7ScriptFactory@@6B@
CONST	SEGMENT
??_7ScriptFactory@@6B@ DD FLAT:??_R4ScriptFactory@@6B@	; ScriptFactory::`vftable'
	DD	FLAT:??_EScriptFactory@@UAEPAXI@Z
	DD	FLAT:__purecall
CONST	ENDS
;	COMDAT ??_7ScriptImpClass@@6B@
CONST	SEGMENT
??_7ScriptImpClass@@6B@ DD FLAT:??_R4ScriptImpClass@@6B@ ; ScriptImpClass::`vftable'
	DD	FLAT:??_EScriptImpClass@@UAEPAXI@Z
	DD	FLAT:?Get_Name@ScriptImpClass@@UAEPBDXZ
	DD	FLAT:?Attach@ScriptImpClass@@MAEXPAVScriptableGameObj@@@Z
	DD	FLAT:?Detach@ScriptImpClass@@MAEXPAVScriptableGameObj@@@Z
	DD	FLAT:?Created@ScriptImpClass@@UAEXPAVScriptableGameObj@@@Z
	DD	FLAT:?Destroyed@ScriptImpClass@@UAEXPAVScriptableGameObj@@@Z
	DD	FLAT:?Killed@ScriptImpClass@@UAEXPAVScriptableGameObj@@0@Z
	DD	FLAT:?Damaged@ScriptImpClass@@UAEXPAVScriptableGameObj@@0M@Z
	DD	FLAT:?Custom@ScriptImpClass@@UAEXPAVScriptableGameObj@@HH0@Z
	DD	FLAT:?Sound_Heard@ScriptImpClass@@UAEXPAVScriptableGameObj@@ABUCombatSound@@@Z
	DD	FLAT:?Enemy_Seen@ScriptImpClass@@UAEXPAVScriptableGameObj@@0@Z
	DD	FLAT:?Action_Complete@ScriptImpClass@@UAEXPAVScriptableGameObj@@HW4ActionCompleteReason@@@Z
	DD	FLAT:?Timer_Expired@ScriptImpClass@@UAEXPAVScriptableGameObj@@H@Z
	DD	FLAT:?Animation_Complete@ScriptImpClass@@UAEXPAVScriptableGameObj@@PBD@Z
	DD	FLAT:?Poked@ScriptImpClass@@UAEXPAVScriptableGameObj@@0@Z
	DD	FLAT:?Entered@ScriptImpClass@@UAEXPAVScriptableGameObj@@0@Z
	DD	FLAT:?Exited@ScriptImpClass@@UAEXPAVScriptableGameObj@@0@Z
	DD	FLAT:?Owner@ScriptImpClass@@UAEPAVScriptableGameObj@@XZ
	DD	FLAT:?Get_Owner_Ptr@ScriptImpClass@@UAEPAPAVScriptableGameObj@@XZ
	DD	FLAT:?Set_Parameters_String@ScriptImpClass@@UAEXPBD@Z
	DD	FLAT:?Get_Parameters_String@ScriptImpClass@@UAEXPADI@Z
	DD	FLAT:?Save@ScriptImpClass@@MAEXAAVScriptSaver@@@Z
	DD	FLAT:?Load@ScriptImpClass@@MAEXAAVScriptLoader@@@Z
	DD	FLAT:?Save_Data@ScriptImpClass@@UAEXAAVScriptSaver@@@Z
	DD	FLAT:?Load_Data@ScriptImpClass@@UAEXAAVScriptLoader@@@Z
	DD	FLAT:?Register_Auto_Save_Variables@ScriptImpClass@@UAEXXZ
CONST	ENDS
;	COMDAT ??_7ScriptClass@@6B@
CONST	SEGMENT
??_7ScriptClass@@6B@ DD FLAT:??_R4ScriptClass@@6B@	; ScriptClass::`vftable'
	DD	FLAT:??_EScriptClass@@UAEPAXI@Z
	DD	FLAT:__purecall
	DD	FLAT:__purecall
	DD	FLAT:__purecall
	DD	FLAT:__purecall
	DD	FLAT:__purecall
	DD	FLAT:__purecall
	DD	FLAT:__purecall
	DD	FLAT:__purecall
	DD	FLAT:__purecall
	DD	FLAT:__purecall
	DD	FLAT:__purecall
	DD	FLAT:__purecall
	DD	FLAT:__purecall
	DD	FLAT:__purecall
	DD	FLAT:__purecall
	DD	FLAT:__purecall
	DD	FLAT:?Owner@GameObjObserverClass@@UAEPAVScriptableGameObj@@XZ
	DD	FLAT:__purecall
	DD	FLAT:__purecall
	DD	FLAT:__purecall
	DD	FLAT:__purecall
	DD	FLAT:__purecall
CONST	ENDS
;	COMDAT ??_7GameObjObserverClass@@6B@
CONST	SEGMENT
??_7GameObjObserverClass@@6B@ DD FLAT:??_R4GameObjObserverClass@@6B@ ; GameObjObserverClass::`vftable'
	DD	FLAT:??_EGameObjObserverClass@@UAEPAXI@Z
	DD	FLAT:__purecall
	DD	FLAT:__purecall
	DD	FLAT:__purecall
	DD	FLAT:__purecall
	DD	FLAT:__purecall
	DD	FLAT:__purecall
	DD	FLAT:__purecall
	DD	FLAT:__purecall
	DD	FLAT:__purecall
	DD	FLAT:__purecall
	DD	FLAT:__purecall
	DD	FLAT:__purecall
	DD	FLAT:__purecall
	DD	FLAT:__purecall
	DD	FLAT:__purecall
	DD	FLAT:__purecall
	DD	FLAT:?Owner@GameObjObserverClass@@UAEPAVScriptableGameObj@@XZ
CONST	ENDS
;	COMDAT ??_7ThreadClass@@6B@
CONST	SEGMENT
??_7ThreadClass@@6B@ DD FLAT:??_R4ThreadClass@@6B@	; ThreadClass::`vftable'
	DD	FLAT:??_EThreadClass@@UAEPAXI@Z
	DD	FLAT:__purecall
CONST	ENDS
CRT$XCU	SEGMENT
?HostedGameNumber$initializer$@cGameData@@2P6AXXZA DD FLAT:??__E?HostedGameNumber@cGameData@@2AAHA@@YAXXZ ; cGameData::HostedGameNumber$initializer$
CRT$XCU	ENDS
CRT$XCU	SEGMENT
?WinText$initializer$@cGameData@@2P6AXXZA DD FLAT:??__E?WinText@cGameData@@2AAVWideStringClass@@A@@YAXXZ ; cGameData::WinText$initializer$
CRT$XCU	ENDS
CRT$XCU	SEGMENT
_PrivateMessageColor$initializer$ DD FLAT:??__EPrivateMessageColor@@YAXXZ
CRT$XCU	ENDS
CRT$XCU	SEGMENT
_PublicMessageColor$initializer$ DD FLAT:??__EPublicMessageColor@@YAXXZ
CRT$XCU	ENDS
CRT$XCU	SEGMENT
_GDIHouseColor$initializer$ DD FLAT:??__EGDIHouseColor@@YAXXZ
CRT$XCU	ENDS
CRT$XCU	SEGMENT
_NodHouseColor$initializer$ DD FLAT:??__ENodHouseColor@@YAXXZ
CRT$XCU	ENDS
CRT$XCU	SEGMENT
_IsMapVTOL$initializer$ DD FLAT:??__EIsMapVTOL@@YAXXZ
CRT$XCU	ENDS
CRT$XCU	SEGMENT
_IsListed$initializer$ DD FLAT:??__EIsListed@@YAXXZ
CRT$XCU	ENDS
CRT$XCU	SEGMENT
_GameMode$initializer$ DD FLAT:??__EGameMode@@YAXXZ
CRT$XCU	ENDS
; Function compile flags: /Odtp /ZI
; File x:\github\renegade\dragonade_rxd\scripts\multilist.h
;	COMDAT ??C?$RefMultiListIterator@VBuildingAggregateClass@@@@QBEPAVBuildingAggregateClass@@XZ
_TEXT	SEGMENT
_this$ = -4						; size = 4
??C?$RefMultiListIterator@VBuildingAggregateClass@@@@QBEPAVBuildingAggregateClass@@XZ PROC ; RefMultiListIterator<BuildingAggregateClass>::operator->, COMDAT
; _this$ = ecx

; 384  : 	T* operator->() const { return Peek_Obj(); }

	push	ebp
	mov	ebp, esp
	sub	esp, 68					; 00000044H
	push	ebx
	push	esi
	push	edi
	mov	DWORD PTR _this$[ebp], ecx
	mov	ecx, DWORD PTR _this$[ebp]
	call	?Peek_Obj@?$RefMultiListIterator@VBuildingAggregateClass@@@@QBEPAVBuildingAggregateClass@@XZ ; RefMultiListIterator<BuildingAggregateClass>::Peek_Obj
	pop	edi
	pop	esi
	pop	ebx
	mov	esp, ebp
	pop	ebp
	ret	0
??C?$RefMultiListIterator@VBuildingAggregateClass@@@@QBEPAVBuildingAggregateClass@@XZ ENDP ; RefMultiListIterator<BuildingAggregateClass>::operator->
_TEXT	ENDS
; Function compile flags: /Odtp /ZI
; File x:\github\renegade\dragonade_rxd\scripts\multilist.h
;	COMDAT ??B?$RefMultiListIterator@VBuildingAggregateClass@@@@QBE_NXZ
_TEXT	SEGMENT
tv72 = -72						; size = 4
_this$ = -4						; size = 4
??B?$RefMultiListIterator@VBuildingAggregateClass@@@@QBE_NXZ PROC ; RefMultiListIterator<BuildingAggregateClass>::operator bool, COMDAT
; _this$ = ecx

; 383  : 	operator bool() const { return !Is_Done(); }

	push	ebp
	mov	ebp, esp
	sub	esp, 72					; 00000048H
	push	ebx
	push	esi
	push	edi
	mov	DWORD PTR _this$[ebp], ecx
	mov	ecx, DWORD PTR _this$[ebp]
	call	?Is_Done@GenericMultiListIterator@@QBE_NXZ ; GenericMultiListIterator::Is_Done
	movzx	eax, al
	test	eax, eax
	jne	SHORT $LN3@operator
	mov	DWORD PTR tv72[ebp], 1
	jmp	SHORT $LN4@operator
$LN3@operator:
	mov	DWORD PTR tv72[ebp], 0
$LN4@operator:
	mov	al, BYTE PTR tv72[ebp]
	pop	edi
	pop	esi
	pop	ebx
	mov	esp, ebp
	pop	ebp
	ret	0
??B?$RefMultiListIterator@VBuildingAggregateClass@@@@QBE_NXZ ENDP ; RefMultiListIterator<BuildingAggregateClass>::operator bool
_TEXT	ENDS
; Function compile flags: /Odtp /ZI
; File x:\github\renegade\dragonade_rxd\scripts\multilist.h
;	COMDAT ??E?$RefMultiListIterator@VBuildingAggregateClass@@@@QAEXXZ
_TEXT	SEGMENT
_this$ = -4						; size = 4
??E?$RefMultiListIterator@VBuildingAggregateClass@@@@QAEXXZ PROC ; RefMultiListIterator<BuildingAggregateClass>::operator++, COMDAT
; _this$ = ecx

; 382  : 	void operator++() { Next(); }

	push	ebp
	mov	ebp, esp
	sub	esp, 68					; 00000044H
	push	ebx
	push	esi
	push	edi
	mov	DWORD PTR _this$[ebp], ecx
	mov	ecx, DWORD PTR _this$[ebp]
	call	?Next@GenericMultiListIterator@@QAEXXZ	; GenericMultiListIterator::Next
	pop	edi
	pop	esi
	pop	ebx
	mov	esp, ebp
	pop	ebp
	ret	0
??E?$RefMultiListIterator@VBuildingAggregateClass@@@@QAEXXZ ENDP ; RefMultiListIterator<BuildingAggregateClass>::operator++
_TEXT	ENDS
; Function compile flags: /Odtp /ZI
; File x:\github\renegade\dragonade_rxd\scripts\multilist.h
;	COMDAT ?Peek_Obj@?$RefMultiListIterator@VBuildingAggregateClass@@@@QBEPAVBuildingAggregateClass@@XZ
_TEXT	SEGMENT
tv74 = -76						; size = 4
tv75 = -72						; size = 4
_this$ = -4						; size = 4
?Peek_Obj@?$RefMultiListIterator@VBuildingAggregateClass@@@@QBEPAVBuildingAggregateClass@@XZ PROC ; RefMultiListIterator<BuildingAggregateClass>::Peek_Obj, COMDAT
; _this$ = ecx

; 369  : 	{

	push	ebp
	mov	ebp, esp
	sub	esp, 76					; 0000004cH
	push	ebx
	push	esi
	push	edi
	mov	DWORD PTR _this$[ebp], ecx

; 370  : 		return (T*)Current_Object();

	mov	ecx, DWORD PTR _this$[ebp]
	call	?Current_Object@GenericMultiListIterator@@IBEPAVMultiListObjectClass@@XZ ; GenericMultiListIterator::Current_Object
	mov	DWORD PTR tv75[ebp], eax
	cmp	DWORD PTR tv75[ebp], 0
	je	SHORT $LN3@Peek_Obj
	mov	eax, DWORD PTR tv75[ebp]
	sub	eax, 48					; 00000030H
	mov	DWORD PTR tv74[ebp], eax
	jmp	SHORT $LN4@Peek_Obj
$LN3@Peek_Obj:
	mov	DWORD PTR tv74[ebp], 0
$LN4@Peek_Obj:
	mov	eax, DWORD PTR tv74[ebp]

; 371  : 	};

	pop	edi
	pop	esi
	pop	ebx
	mov	esp, ebp
	pop	ebp
	ret	0
?Peek_Obj@?$RefMultiListIterator@VBuildingAggregateClass@@@@QBEPAVBuildingAggregateClass@@XZ ENDP ; RefMultiListIterator<BuildingAggregateClass>::Peek_Obj
_TEXT	ENDS
; Function compile flags: /Odtp /ZI
; File x:\github\renegade\dragonade_rxd\scripts\multilist.h
;	COMDAT ??0?$RefMultiListIterator@VBuildingAggregateClass@@@@QAE@PBV?$RefMultiListClass@VBuildingAggregateClass@@@@@Z
_TEXT	SEGMENT
_this$ = -4						; size = 4
_list$ = 8						; size = 4
??0?$RefMultiListIterator@VBuildingAggregateClass@@@@QAE@PBV?$RefMultiListClass@VBuildingAggregateClass@@@@@Z PROC ; RefMultiListIterator<BuildingAggregateClass>::RefMultiListIterator<BuildingAggregateClass>, COMDAT
; _this$ = ecx

; 359  : 	RefMultiListIterator(const RefMultiListClass<T> *list): GenericMultiListIterator(list) {};

	push	ebp
	mov	ebp, esp
	sub	esp, 68					; 00000044H
	push	ebx
	push	esi
	push	edi
	mov	DWORD PTR _this$[ebp], ecx
	mov	eax, DWORD PTR _list$[ebp]
	push	eax
	mov	ecx, DWORD PTR _this$[ebp]
	call	??0GenericMultiListIterator@@QAE@PBVGenericMultiListClass@@@Z ; GenericMultiListIterator::GenericMultiListIterator
	mov	eax, DWORD PTR _this$[ebp]
	pop	edi
	pop	esi
	pop	ebx
	mov	esp, ebp
	pop	ebp
	ret	4
??0?$RefMultiListIterator@VBuildingAggregateClass@@@@QAE@PBV?$RefMultiListClass@VBuildingAggregateClass@@@@@Z ENDP ; RefMultiListIterator<BuildingAggregateClass>::RefMultiListIterator<BuildingAggregateClass>
_TEXT	ENDS
; Function compile flags: /Odtp /ZI
; File x:\github\renegade\dragonade_rxd\scripts\engine_game.cpp
;	COMDAT ?Find_Building_By_Class_ID@@YAPAVScriptableGameObj@@HK@Z
_TEXT	SEGMENT
_d$1 = -12						; size = 4
_o$2 = -8						; size = 4
_x$ = -4						; size = 4
_Team$ = 8						; size = 4
_Class_ID$ = 12						; size = 4
?Find_Building_By_Class_ID@@YAPAVScriptableGameObj@@HK@Z PROC ; Find_Building_By_Class_ID, COMDAT

; 361  : {

	push	ebp
	mov	ebp, esp
	sub	esp, 76					; 0000004cH
	push	ebx
	push	esi
	push	edi

; 362  : 	SLNode<BuildingGameObj> *x = GameObjManager::BuildingGameObjList.Head();

	mov	ecx, DWORD PTR ?BuildingGameObjList@GameObjManager@@2AAV?$SList@VBuildingGameObj@@@@A ; GameObjManager::BuildingGameObjList
	call	?Head@?$SList@VBuildingGameObj@@@@QBEPAV?$SLNode@VBuildingGameObj@@@@XZ ; SList<BuildingGameObj>::Head
	mov	DWORD PTR _x$[ebp], eax
$LN6@Find_Build:

; 363  : 	while (x)

	cmp	DWORD PTR _x$[ebp], 0
	je	SHORT $LN5@Find_Build

; 364  : 	{
; 365  : 		GameObject *o = x->Data();

	mov	ecx, DWORD PTR _x$[ebp]
	call	?Data@?$SLNode@VBuildingGameObj@@@@QBEPAVBuildingGameObj@@XZ ; SLNode<BuildingGameObj>::Data
	mov	DWORD PTR _o$2[ebp], eax

; 366  : 		if (o)

	cmp	DWORD PTR _o$2[ebp], 0
	je	SHORT $LN4@Find_Build

; 367  : 		{
; 368  : 			const DefinitionClass *d = &o->Get_Definition();

	mov	ecx, DWORD PTR _o$2[ebp]
	call	?Get_Definition@ScriptableGameObj@@QBEABVScriptableGameObjDef@@XZ ; ScriptableGameObj::Get_Definition
	mov	DWORD PTR _d$1[ebp], eax

; 369  : 			if (d->Get_Class_ID() == Class_ID)

	mov	eax, DWORD PTR _d$1[ebp]
	mov	edx, DWORD PTR [eax]
	mov	ecx, DWORD PTR _d$1[ebp]
	mov	eax, DWORD PTR [edx+32]
	call	eax
	cmp	eax, DWORD PTR _Class_ID$[ebp]
	jne	SHORT $LN4@Find_Build

; 370  : 			{
; 371  : 				if ((Get_Object_Type(o) == Team) || (Team == 2))

	mov	eax, DWORD PTR _o$2[ebp]
	push	eax
	call	?Get_Object_Type@@YAHPAVScriptableGameObj@@@Z ; Get_Object_Type
	add	esp, 4
	cmp	eax, DWORD PTR _Team$[ebp]
	je	SHORT $LN1@Find_Build
	cmp	DWORD PTR _Team$[ebp], 2
	jne	SHORT $LN4@Find_Build
$LN1@Find_Build:

; 372  : 				{
; 373  : 					return o;

	mov	eax, DWORD PTR _o$2[ebp]
	jmp	SHORT $LN7@Find_Build
$LN4@Find_Build:

; 374  : 				}
; 375  : 			}
; 376  : 		}
; 377  : 		x = x->Next();

	mov	ecx, DWORD PTR _x$[ebp]
	call	?Next@?$SLNode@VBuildingGameObj@@@@QBEPAV1@XZ ; SLNode<BuildingGameObj>::Next
	mov	DWORD PTR _x$[ebp], eax

; 378  : 	}

	jmp	SHORT $LN6@Find_Build
$LN5@Find_Build:

; 379  : 	return 0;

	xor	eax, eax
$LN7@Find_Build:

; 380  : }

	pop	edi
	pop	esi
	pop	ebx
	mov	esp, ebp
	pop	ebp
	ret	0
?Find_Building_By_Class_ID@@YAPAVScriptableGameObj@@HK@Z ENDP ; Find_Building_By_Class_ID
_TEXT	ENDS
; Function compile flags: /Odtp /ZI
; File x:\github\renegade\dragonade_rxd\scripts\slist.h
;	COMDAT ?Data@?$SLNode@VBuildingGameObj@@@@QBEPAVBuildingGameObj@@XZ
_TEXT	SEGMENT
_this$ = -4						; size = 4
?Data@?$SLNode@VBuildingGameObj@@@@QBEPAVBuildingGameObj@@XZ PROC ; SLNode<BuildingGameObj>::Data, COMDAT
; _this$ = ecx

; 65   : 	{

	push	ebp
	mov	ebp, esp
	sub	esp, 68					; 00000044H
	push	ebx
	push	esi
	push	edi
	mov	DWORD PTR _this$[ebp], ecx

; 66   : 		return (T*)NodeData;

	mov	eax, DWORD PTR _this$[ebp]
	mov	eax, DWORD PTR [eax+4]

; 67   : 	}

	pop	edi
	pop	esi
	pop	ebx
	mov	esp, ebp
	pop	ebp
	ret	0
?Data@?$SLNode@VBuildingGameObj@@@@QBEPAVBuildingGameObj@@XZ ENDP ; SLNode<BuildingGameObj>::Data
_TEXT	ENDS
; Function compile flags: /Odtp /ZI
; File x:\github\renegade\dragonade_rxd\scripts\slist.h
;	COMDAT ?Next@?$SLNode@VBuildingGameObj@@@@QBEPAV1@XZ
_TEXT	SEGMENT
_this$ = -4						; size = 4
?Next@?$SLNode@VBuildingGameObj@@@@QBEPAV1@XZ PROC	; SLNode<BuildingGameObj>::Next, COMDAT
; _this$ = ecx

; 61   : 	{

	push	ebp
	mov	ebp, esp
	sub	esp, 68					; 00000044H
	push	ebx
	push	esi
	push	edi
	mov	DWORD PTR _this$[ebp], ecx

; 62   : 		return (SLNode<T>*)NodeNext;

	mov	eax, DWORD PTR _this$[ebp]
	mov	eax, DWORD PTR [eax]

; 63   : 	}

	pop	edi
	pop	esi
	pop	ebx
	mov	esp, ebp
	pop	ebp
	ret	0
?Next@?$SLNode@VBuildingGameObj@@@@QBEPAV1@XZ ENDP	; SLNode<BuildingGameObj>::Next
_TEXT	ENDS
; Function compile flags: /Odtp /ZI
; File x:\github\renegade\dragonade_rxd\scripts\engine_game.cpp
;	COMDAT ??__EGameMode@@YAXXZ
text$yc	SEGMENT
??__EGameMode@@YAXXZ PROC				; `dynamic initializer for 'GameMode'', COMDAT

; 132  : REF_DEF2(unsigned int, GameMode, 0x0081F5F0, 0x0081E7D8);

	push	ebp
	mov	ebp, esp
	sub	esp, 64					; 00000040H
	push	ebx
	push	esi
	push	edi
	push	0
	push	8513496					; 0081e7d8H
	push	8517104					; 0081f5f0H
	call	??$ResolveGameReference@I@@YAAAIHHH@Z	; ResolveGameReference<unsigned int>
	add	esp, 12					; 0000000cH
	mov	DWORD PTR ?GameMode@@3AAIA, eax		; GameMode
	pop	edi
	pop	esi
	pop	ebx
	mov	esp, ebp
	pop	ebp
	ret	0
??__EGameMode@@YAXXZ ENDP				; `dynamic initializer for 'GameMode''
text$yc	ENDS
; Function compile flags: /Odtp /ZI
; File x:\github\renegade\dragonade_rxd\scripts\defines.h
;	COMDAT ??$ResolveGameReference@I@@YAAAIHHH@Z
_TEXT	SEGMENT
tv68 = -76						; size = 4
tv69 = -72						; size = 4
tv70 = -68						; size = 4
_client$ = 8						; size = 4
_server$ = 12						; size = 4
_leveledit$ = 16					; size = 4
??$ResolveGameReference@I@@YAAAIHHH@Z PROC		; ResolveGameReference<unsigned int>, COMDAT

; 149  : {

	push	ebp
	mov	ebp, esp
	sub	esp, 76					; 0000004cH
	push	ebx
	push	esi
	push	edi

; 150  : 	if (Exe == 6) InitEngine();

	cmp	DWORD PTR ?Exe@@3HA, 6			; Exe
	jne	SHORT $LN1@ResolveGam
	call	?InitEngine@@YAXXZ			; InitEngine
$LN1@ResolveGam:

; 151  : #pragma warning(suppress: 6011) //warning C6011: dereferencing NULL pointer <name>
; 152  : 	return *((T*)((Exe == 0) ? client : ((Exe == 1) ? server : ((Exe == 4) ? leveledit : 0))));

	cmp	DWORD PTR ?Exe@@3HA, 0			; Exe
	jne	SHORT $LN8@ResolveGam
	mov	eax, DWORD PTR _client$[ebp]
	mov	DWORD PTR tv70[ebp], eax
	jmp	SHORT $LN9@ResolveGam
$LN8@ResolveGam:
	cmp	DWORD PTR ?Exe@@3HA, 1			; Exe
	jne	SHORT $LN6@ResolveGam
	mov	ecx, DWORD PTR _server$[ebp]
	mov	DWORD PTR tv69[ebp], ecx
	jmp	SHORT $LN7@ResolveGam
$LN6@ResolveGam:
	cmp	DWORD PTR ?Exe@@3HA, 4			; Exe
	jne	SHORT $LN4@ResolveGam
	mov	edx, DWORD PTR _leveledit$[ebp]
	mov	DWORD PTR tv68[ebp], edx
	jmp	SHORT $LN5@ResolveGam
$LN4@ResolveGam:
	mov	DWORD PTR tv68[ebp], 0
$LN5@ResolveGam:
	mov	eax, DWORD PTR tv68[ebp]
	mov	DWORD PTR tv69[ebp], eax
$LN7@ResolveGam:
	mov	ecx, DWORD PTR tv69[ebp]
	mov	DWORD PTR tv70[ebp], ecx
$LN9@ResolveGam:
	mov	eax, DWORD PTR tv70[ebp]

; 153  : };

	pop	edi
	pop	esi
	pop	ebx
	mov	esp, ebp
	pop	ebp
	ret	0
??$ResolveGameReference@I@@YAAAIHHH@Z ENDP		; ResolveGameReference<unsigned int>
_TEXT	ENDS
; Function compile flags: /Odtp /ZI
; File x:\github\renegade\dragonade_rxd\scripts\engine_game.cpp
;	COMDAT ??__EIsListed@@YAXXZ
text$yc	SEGMENT
??__EIsListed@@YAXXZ PROC				; `dynamic initializer for 'IsListed'', COMDAT

; 131  : REF_DEF2(bool, IsListed, 0x0082FD94, 0x0082EF7C);

	push	ebp
	mov	ebp, esp
	sub	esp, 64					; 00000040H
	push	ebx
	push	esi
	push	edi
	push	0
	push	8580988					; 0082ef7cH
	push	8584596					; 0082fd94H
	call	??$ResolveGameReference@_N@@YAAA_NHHH@Z	; ResolveGameReference<bool>
	add	esp, 12					; 0000000cH
	mov	DWORD PTR ?IsListed@@3AA_NA, eax	; IsListed
	pop	edi
	pop	esi
	pop	ebx
	mov	esp, ebp
	pop	ebp
	ret	0
??__EIsListed@@YAXXZ ENDP				; `dynamic initializer for 'IsListed''
text$yc	ENDS
; Function compile flags: /Odtp /ZI
; File x:\github\renegade\dragonade_rxd\scripts\engine_game.cpp
;	COMDAT ??__EIsMapVTOL@@YAXXZ
text$yc	SEGMENT
??__EIsMapVTOL@@YAXXZ PROC				; `dynamic initializer for 'IsMapVTOL'', COMDAT

; 130  : REF_DEF2(bool, IsMapVTOL, 0x0085E31C, 0x0085D4F4);

	push	ebp
	mov	ebp, esp
	sub	esp, 64					; 00000040H
	push	ebx
	push	esi
	push	edi
	push	0
	push	8770804					; 0085d4f4H
	push	8774428					; 0085e31cH
	call	??$ResolveGameReference@_N@@YAAA_NHHH@Z	; ResolveGameReference<bool>
	add	esp, 12					; 0000000cH
	mov	DWORD PTR ?IsMapVTOL@@3AA_NA, eax	; IsMapVTOL
	pop	edi
	pop	esi
	pop	ebx
	mov	esp, ebp
	pop	ebp
	ret	0
??__EIsMapVTOL@@YAXXZ ENDP				; `dynamic initializer for 'IsMapVTOL''
text$yc	ENDS
; Function compile flags: /Odtp /ZI
; File x:\github\renegade\dragonade_rxd\scripts\engine_game.cpp
;	COMDAT ??__ENodHouseColor@@YAXXZ
text$yc	SEGMENT
??__ENodHouseColor@@YAXXZ PROC				; `dynamic initializer for 'NodHouseColor'', COMDAT

; 129  : REF_DEF2(Vector3, NodHouseColor, 0x0085CA98, 0x0085BC80);

	push	ebp
	mov	ebp, esp
	sub	esp, 64					; 00000040H
	push	ebx
	push	esi
	push	edi
	push	0
	push	8764544					; 0085bc80H
	push	8768152					; 0085ca98H
	call	??$ResolveGameReference@VVector3@@@@YAAAVVector3@@HHH@Z ; ResolveGameReference<Vector3>
	add	esp, 12					; 0000000cH
	mov	DWORD PTR ?NodHouseColor@@3AAVVector3@@A, eax ; NodHouseColor
	pop	edi
	pop	esi
	pop	ebx
	mov	esp, ebp
	pop	ebp
	ret	0
??__ENodHouseColor@@YAXXZ ENDP				; `dynamic initializer for 'NodHouseColor''
text$yc	ENDS
; Function compile flags: /Odtp /ZI
; File x:\github\renegade\dragonade_rxd\scripts\engine_game.cpp
;	COMDAT ??__EGDIHouseColor@@YAXXZ
text$yc	SEGMENT
??__EGDIHouseColor@@YAXXZ PROC				; `dynamic initializer for 'GDIHouseColor'', COMDAT

; 128  : REF_DEF2(Vector3, GDIHouseColor, 0x0085CAA8, 0x0085BC90);

	push	ebp
	mov	ebp, esp
	sub	esp, 64					; 00000040H
	push	ebx
	push	esi
	push	edi
	push	0
	push	8764560					; 0085bc90H
	push	8768168					; 0085caa8H
	call	??$ResolveGameReference@VVector3@@@@YAAAVVector3@@HHH@Z ; ResolveGameReference<Vector3>
	add	esp, 12					; 0000000cH
	mov	DWORD PTR ?GDIHouseColor@@3AAVVector3@@A, eax ; GDIHouseColor
	pop	edi
	pop	esi
	pop	ebx
	mov	esp, ebp
	pop	ebp
	ret	0
??__EGDIHouseColor@@YAXXZ ENDP				; `dynamic initializer for 'GDIHouseColor''
text$yc	ENDS
; Function compile flags: /Odtp /ZI
; File x:\github\renegade\dragonade_rxd\scripts\engine_game.cpp
;	COMDAT ??__EPublicMessageColor@@YAXXZ
text$yc	SEGMENT
??__EPublicMessageColor@@YAXXZ PROC			; `dynamic initializer for 'PublicMessageColor'', COMDAT

; 127  : REF_DEF2(Vector3, PublicMessageColor, 0x0082FBA0, 0x0082ED88);

	push	ebp
	mov	ebp, esp
	sub	esp, 64					; 00000040H
	push	ebx
	push	esi
	push	edi
	push	0
	push	8580488					; 0082ed88H
	push	8584096					; 0082fba0H
	call	??$ResolveGameReference@VVector3@@@@YAAAVVector3@@HHH@Z ; ResolveGameReference<Vector3>
	add	esp, 12					; 0000000cH
	mov	DWORD PTR ?PublicMessageColor@@3AAVVector3@@A, eax ; PublicMessageColor
	pop	edi
	pop	esi
	pop	ebx
	mov	esp, ebp
	pop	ebp
	ret	0
??__EPublicMessageColor@@YAXXZ ENDP			; `dynamic initializer for 'PublicMessageColor''
text$yc	ENDS
; Function compile flags: /Odtp /ZI
; File x:\github\renegade\dragonade_rxd\scripts\engine_game.cpp
;	COMDAT ??__EPrivateMessageColor@@YAXXZ
text$yc	SEGMENT
??__EPrivateMessageColor@@YAXXZ PROC			; `dynamic initializer for 'PrivateMessageColor'', COMDAT

; 126  : REF_DEF2(Vector3, PrivateMessageColor, 0x0082FC20, 0x0082EE08);

	push	ebp
	mov	ebp, esp
	sub	esp, 64					; 00000040H
	push	ebx
	push	esi
	push	edi
	push	0
	push	8580616					; 0082ee08H
	push	8584224					; 0082fc20H
	call	??$ResolveGameReference@VVector3@@@@YAAAVVector3@@HHH@Z ; ResolveGameReference<Vector3>
	add	esp, 12					; 0000000cH
	mov	DWORD PTR ?PrivateMessageColor@@3AAVVector3@@A, eax ; PrivateMessageColor
	pop	edi
	pop	esi
	pop	ebx
	mov	esp, ebp
	pop	ebp
	ret	0
??__EPrivateMessageColor@@YAXXZ ENDP			; `dynamic initializer for 'PrivateMessageColor''
text$yc	ENDS
; Function compile flags: /Odtp /ZI
; File x:\github\renegade\dragonade_rxd\scripts\defines.h
;	COMDAT ??$ResolveGameReference@VVector3@@@@YAAAVVector3@@HHH@Z
_TEXT	SEGMENT
tv68 = -76						; size = 4
tv69 = -72						; size = 4
tv70 = -68						; size = 4
_client$ = 8						; size = 4
_server$ = 12						; size = 4
_leveledit$ = 16					; size = 4
??$ResolveGameReference@VVector3@@@@YAAAVVector3@@HHH@Z PROC ; ResolveGameReference<Vector3>, COMDAT

; 149  : {

	push	ebp
	mov	ebp, esp
	sub	esp, 76					; 0000004cH
	push	ebx
	push	esi
	push	edi

; 150  : 	if (Exe == 6) InitEngine();

	cmp	DWORD PTR ?Exe@@3HA, 6			; Exe
	jne	SHORT $LN1@ResolveGam
	call	?InitEngine@@YAXXZ			; InitEngine
$LN1@ResolveGam:

; 151  : #pragma warning(suppress: 6011) //warning C6011: dereferencing NULL pointer <name>
; 152  : 	return *((T*)((Exe == 0) ? client : ((Exe == 1) ? server : ((Exe == 4) ? leveledit : 0))));

	cmp	DWORD PTR ?Exe@@3HA, 0			; Exe
	jne	SHORT $LN8@ResolveGam
	mov	eax, DWORD PTR _client$[ebp]
	mov	DWORD PTR tv70[ebp], eax
	jmp	SHORT $LN9@ResolveGam
$LN8@ResolveGam:
	cmp	DWORD PTR ?Exe@@3HA, 1			; Exe
	jne	SHORT $LN6@ResolveGam
	mov	ecx, DWORD PTR _server$[ebp]
	mov	DWORD PTR tv69[ebp], ecx
	jmp	SHORT $LN7@ResolveGam
$LN6@ResolveGam:
	cmp	DWORD PTR ?Exe@@3HA, 4			; Exe
	jne	SHORT $LN4@ResolveGam
	mov	edx, DWORD PTR _leveledit$[ebp]
	mov	DWORD PTR tv68[ebp], edx
	jmp	SHORT $LN5@ResolveGam
$LN4@ResolveGam:
	mov	DWORD PTR tv68[ebp], 0
$LN5@ResolveGam:
	mov	eax, DWORD PTR tv68[ebp]
	mov	DWORD PTR tv69[ebp], eax
$LN7@ResolveGam:
	mov	ecx, DWORD PTR tv69[ebp]
	mov	DWORD PTR tv70[ebp], ecx
$LN9@ResolveGam:
	mov	eax, DWORD PTR tv70[ebp]

; 153  : };

	pop	edi
	pop	esi
	pop	ebx
	mov	esp, ebp
	pop	ebp
	ret	0
??$ResolveGameReference@VVector3@@@@YAAAVVector3@@HHH@Z ENDP ; ResolveGameReference<Vector3>
_TEXT	ENDS
; Function compile flags: /Odtp /ZI
; File x:\github\renegade\dragonade_rxd\scripts\engine_game.cpp
;	COMDAT ??__E?WinText@cGameData@@2AAVWideStringClass@@A@@YAXXZ
text$yc	SEGMENT
??__E?WinText@cGameData@@2AAVWideStringClass@@A@@YAXXZ PROC ; `dynamic initializer for 'cGameData::WinText'', COMDAT

; 125  : REF_DEF2(WideStringClass, cGameData::WinText, 0x0082F108, 0x0082E2F0);

	push	ebp
	mov	ebp, esp
	sub	esp, 64					; 00000040H
	push	ebx
	push	esi
	push	edi
	push	0
	push	8577776					; 0082e2f0H
	push	8581384					; 0082f108H
	call	??$ResolveGameReference@VWideStringClass@@@@YAAAVWideStringClass@@HHH@Z ; ResolveGameReference<WideStringClass>
	add	esp, 12					; 0000000cH
	mov	DWORD PTR ?WinText@cGameData@@2AAVWideStringClass@@A, eax ; cGameData::WinText
	pop	edi
	pop	esi
	pop	ebx
	mov	esp, ebp
	pop	ebp
	ret	0
??__E?WinText@cGameData@@2AAVWideStringClass@@A@@YAXXZ ENDP ; `dynamic initializer for 'cGameData::WinText''
text$yc	ENDS
; Function compile flags: /Odtp /ZI
; File x:\github\renegade\dragonade_rxd\scripts\defines.h
;	COMDAT ??$ResolveGameReference@VWideStringClass@@@@YAAAVWideStringClass@@HHH@Z
_TEXT	SEGMENT
tv68 = -76						; size = 4
tv69 = -72						; size = 4
tv70 = -68						; size = 4
_client$ = 8						; size = 4
_server$ = 12						; size = 4
_leveledit$ = 16					; size = 4
??$ResolveGameReference@VWideStringClass@@@@YAAAVWideStringClass@@HHH@Z PROC ; ResolveGameReference<WideStringClass>, COMDAT

; 149  : {

	push	ebp
	mov	ebp, esp
	sub	esp, 76					; 0000004cH
	push	ebx
	push	esi
	push	edi

; 150  : 	if (Exe == 6) InitEngine();

	cmp	DWORD PTR ?Exe@@3HA, 6			; Exe
	jne	SHORT $LN1@ResolveGam
	call	?InitEngine@@YAXXZ			; InitEngine
$LN1@ResolveGam:

; 151  : #pragma warning(suppress: 6011) //warning C6011: dereferencing NULL pointer <name>
; 152  : 	return *((T*)((Exe == 0) ? client : ((Exe == 1) ? server : ((Exe == 4) ? leveledit : 0))));

	cmp	DWORD PTR ?Exe@@3HA, 0			; Exe
	jne	SHORT $LN8@ResolveGam
	mov	eax, DWORD PTR _client$[ebp]
	mov	DWORD PTR tv70[ebp], eax
	jmp	SHORT $LN9@ResolveGam
$LN8@ResolveGam:
	cmp	DWORD PTR ?Exe@@3HA, 1			; Exe
	jne	SHORT $LN6@ResolveGam
	mov	ecx, DWORD PTR _server$[ebp]
	mov	DWORD PTR tv69[ebp], ecx
	jmp	SHORT $LN7@ResolveGam
$LN6@ResolveGam:
	cmp	DWORD PTR ?Exe@@3HA, 4			; Exe
	jne	SHORT $LN4@ResolveGam
	mov	edx, DWORD PTR _leveledit$[ebp]
	mov	DWORD PTR tv68[ebp], edx
	jmp	SHORT $LN5@ResolveGam
$LN4@ResolveGam:
	mov	DWORD PTR tv68[ebp], 0
$LN5@ResolveGam:
	mov	eax, DWORD PTR tv68[ebp]
	mov	DWORD PTR tv69[ebp], eax
$LN7@ResolveGam:
	mov	ecx, DWORD PTR tv69[ebp]
	mov	DWORD PTR tv70[ebp], ecx
$LN9@ResolveGam:
	mov	eax, DWORD PTR tv70[ebp]

; 153  : };

	pop	edi
	pop	esi
	pop	ebx
	mov	esp, ebp
	pop	ebp
	ret	0
??$ResolveGameReference@VWideStringClass@@@@YAAAVWideStringClass@@HHH@Z ENDP ; ResolveGameReference<WideStringClass>
_TEXT	ENDS
; Function compile flags: /Odtp /ZI
; File x:\github\renegade\dragonade_rxd\scripts\engine_game.cpp
;	COMDAT ??__E?HostedGameNumber@cGameData@@2AAHA@@YAXXZ
text$yc	SEGMENT
??__E?HostedGameNumber@cGameData@@2AAHA@@YAXXZ PROC	; `dynamic initializer for 'cGameData::HostedGameNumber'', COMDAT

; 124  : REF_DEF2(int, cGameData::HostedGameNumber, 0x0082F120, 0x0082E308);

	push	ebp
	mov	ebp, esp
	sub	esp, 64					; 00000040H
	push	ebx
	push	esi
	push	edi
	push	0
	push	8577800					; 0082e308H
	push	8581408					; 0082f120H
	call	??$ResolveGameReference@H@@YAAAHHHH@Z	; ResolveGameReference<int>
	add	esp, 12					; 0000000cH
	mov	DWORD PTR ?HostedGameNumber@cGameData@@2AAHA, eax ; cGameData::HostedGameNumber
	pop	edi
	pop	esi
	pop	ebx
	mov	esp, ebp
	pop	ebp
	ret	0
??__E?HostedGameNumber@cGameData@@2AAHA@@YAXXZ ENDP	; `dynamic initializer for 'cGameData::HostedGameNumber''
text$yc	ENDS
; Function compile flags: /Odtp /ZI
; File x:\github\renegade\dragonade_rxd\scripts\defines.h
;	COMDAT ??$ResolveGameReference@H@@YAAAHHHH@Z
_TEXT	SEGMENT
tv68 = -76						; size = 4
tv69 = -72						; size = 4
tv70 = -68						; size = 4
_client$ = 8						; size = 4
_server$ = 12						; size = 4
_leveledit$ = 16					; size = 4
??$ResolveGameReference@H@@YAAAHHHH@Z PROC		; ResolveGameReference<int>, COMDAT

; 149  : {

	push	ebp
	mov	ebp, esp
	sub	esp, 76					; 0000004cH
	push	ebx
	push	esi
	push	edi

; 150  : 	if (Exe == 6) InitEngine();

	cmp	DWORD PTR ?Exe@@3HA, 6			; Exe
	jne	SHORT $LN1@ResolveGam
	call	?InitEngine@@YAXXZ			; InitEngine
$LN1@ResolveGam:

; 151  : #pragma warning(suppress: 6011) //warning C6011: dereferencing NULL pointer <name>
; 152  : 	return *((T*)((Exe == 0) ? client : ((Exe == 1) ? server : ((Exe == 4) ? leveledit : 0))));

	cmp	DWORD PTR ?Exe@@3HA, 0			; Exe
	jne	SHORT $LN8@ResolveGam
	mov	eax, DWORD PTR _client$[ebp]
	mov	DWORD PTR tv70[ebp], eax
	jmp	SHORT $LN9@ResolveGam
$LN8@ResolveGam:
	cmp	DWORD PTR ?Exe@@3HA, 1			; Exe
	jne	SHORT $LN6@ResolveGam
	mov	ecx, DWORD PTR _server$[ebp]
	mov	DWORD PTR tv69[ebp], ecx
	jmp	SHORT $LN7@ResolveGam
$LN6@ResolveGam:
	cmp	DWORD PTR ?Exe@@3HA, 4			; Exe
	jne	SHORT $LN4@ResolveGam
	mov	edx, DWORD PTR _leveledit$[ebp]
	mov	DWORD PTR tv68[ebp], edx
	jmp	SHORT $LN5@ResolveGam
$LN4@ResolveGam:
	mov	DWORD PTR tv68[ebp], 0
$LN5@ResolveGam:
	mov	eax, DWORD PTR tv68[ebp]
	mov	DWORD PTR tv69[ebp], eax
$LN7@ResolveGam:
	mov	ecx, DWORD PTR tv69[ebp]
	mov	DWORD PTR tv70[ebp], ecx
$LN9@ResolveGam:
	mov	eax, DWORD PTR tv70[ebp]

; 153  : };

	pop	edi
	pop	esi
	pop	ebx
	mov	esp, ebp
	pop	ebp
	ret	0
??$ResolveGameReference@H@@YAAAHHHH@Z ENDP		; ResolveGameReference<int>
_TEXT	ENDS
; Function compile flags: /Odtp /ZI
; File x:\github\renegade\dragonade_rxd\scripts\engine_game.cpp
;	COMDAT ?Game_Mode_Find@@YAPAXPBD@Z
_TEXT	SEGMENT
___formal$ = 8						; size = 4
?Game_Mode_Find@@YAPAXPBD@Z PROC			; Game_Mode_Find, COMDAT

; 31   : AT2(0x004372B0,0x00437350);

$AT3PatchStart$3:
	push	ecx
	push	edx
	push	OFFSET $AT3PatchStart$3
	push	0
	push	4420432					; 00437350H
	push	4420272					; 004372b0H
	call	?HookupAT3@@YAPAXPAX000@Z		; HookupAT3
	add	esp, 16					; 00000010H
	pop	edx
	pop	ecx
	jmp	eax
?Game_Mode_Find@@YAPAXPBD@Z ENDP			; Game_Mode_Find
_TEXT	ENDS
; Function compile flags: /Odtp /ZI
; File x:\github\renegade\dragonade_rxd\scripts\engine_game.cpp
;	COMDAT ??__E?IAmServer@CombatManager@@2AA_NA@@YAXXZ
text$yc	SEGMENT
??__E?IAmServer@CombatManager@@2AA_NA@@YAXXZ PROC	; `dynamic initializer for 'CombatManager::IAmServer'', COMDAT

; 28   : REF_DEF2(bool, CombatManager::IAmServer, 0x00855EC8, 0x008550B0);

	push	ebp
	mov	ebp, esp
	sub	esp, 64					; 00000040H
	push	ebx
	push	esi
	push	edi
	push	0
	push	8736944					; 008550b0H
	push	8740552					; 00855ec8H
	call	??$ResolveGameReference@_N@@YAAA_NHHH@Z	; ResolveGameReference<bool>
	add	esp, 12					; 0000000cH
	mov	DWORD PTR ?IAmServer@CombatManager@@2AA_NA, eax ; CombatManager::IAmServer
	pop	edi
	pop	esi
	pop	ebx
	mov	esp, ebp
	pop	ebp
	ret	0
??__E?IAmServer@CombatManager@@2AA_NA@@YAXXZ ENDP	; `dynamic initializer for 'CombatManager::IAmServer''
text$yc	ENDS
; Function compile flags: /Odtp /ZI
; File x:\github\renegade\dragonade_rxd\scripts\defines.h
;	COMDAT ??$ResolveGameReference@_N@@YAAA_NHHH@Z
_TEXT	SEGMENT
tv68 = -76						; size = 4
tv69 = -72						; size = 4
tv70 = -68						; size = 4
_client$ = 8						; size = 4
_server$ = 12						; size = 4
_leveledit$ = 16					; size = 4
??$ResolveGameReference@_N@@YAAA_NHHH@Z PROC		; ResolveGameReference<bool>, COMDAT

; 149  : {

	push	ebp
	mov	ebp, esp
	sub	esp, 76					; 0000004cH
	push	ebx
	push	esi
	push	edi

; 150  : 	if (Exe == 6) InitEngine();

	cmp	DWORD PTR ?Exe@@3HA, 6			; Exe
	jne	SHORT $LN1@ResolveGam
	call	?InitEngine@@YAXXZ			; InitEngine
$LN1@ResolveGam:

; 151  : #pragma warning(suppress: 6011) //warning C6011: dereferencing NULL pointer <name>
; 152  : 	return *((T*)((Exe == 0) ? client : ((Exe == 1) ? server : ((Exe == 4) ? leveledit : 0))));

	cmp	DWORD PTR ?Exe@@3HA, 0			; Exe
	jne	SHORT $LN8@ResolveGam
	mov	eax, DWORD PTR _client$[ebp]
	mov	DWORD PTR tv70[ebp], eax
	jmp	SHORT $LN9@ResolveGam
$LN8@ResolveGam:
	cmp	DWORD PTR ?Exe@@3HA, 1			; Exe
	jne	SHORT $LN6@ResolveGam
	mov	ecx, DWORD PTR _server$[ebp]
	mov	DWORD PTR tv69[ebp], ecx
	jmp	SHORT $LN7@ResolveGam
$LN6@ResolveGam:
	cmp	DWORD PTR ?Exe@@3HA, 4			; Exe
	jne	SHORT $LN4@ResolveGam
	mov	edx, DWORD PTR _leveledit$[ebp]
	mov	DWORD PTR tv68[ebp], edx
	jmp	SHORT $LN5@ResolveGam
$LN4@ResolveGam:
	mov	DWORD PTR tv68[ebp], 0
$LN5@ResolveGam:
	mov	eax, DWORD PTR tv68[ebp]
	mov	DWORD PTR tv69[ebp], eax
$LN7@ResolveGam:
	mov	ecx, DWORD PTR tv69[ebp]
	mov	DWORD PTR tv70[ebp], ecx
$LN9@ResolveGam:
	mov	eax, DWORD PTR tv70[ebp]

; 153  : };

	pop	edi
	pop	esi
	pop	ebx
	mov	esp, ebp
	pop	ebp
	ret	0
??$ResolveGameReference@_N@@YAAA_NHHH@Z ENDP		; ResolveGameReference<bool>
_TEXT	ENDS
; Function compile flags: /Odtp /ZI
; File x:\github\renegade\dragonade_rxd\scripts\combatmanager.h
;	COMDAT ?Is_Friendly_Fire_Permitted@CombatManager@@SA_NXZ
_TEXT	SEGMENT
?Is_Friendly_Fire_Permitted@CombatManager@@SA_NXZ PROC	; CombatManager::Is_Friendly_Fire_Permitted, COMDAT

; 90   : 	SCRIPTS_API static bool Is_Friendly_Fire_Permitted( void ) { return FriendlyFirePermitted; }

	push	ebp
	mov	ebp, esp
	sub	esp, 64					; 00000040H
	push	ebx
	push	esi
	push	edi
	mov	eax, DWORD PTR ?FriendlyFirePermitted@CombatManager@@2AA_NA ; CombatManager::FriendlyFirePermitted
	mov	al, BYTE PTR [eax]
	pop	edi
	pop	esi
	pop	ebx
	mov	esp, ebp
	pop	ebp
	ret	0
?Is_Friendly_Fire_Permitted@CombatManager@@SA_NXZ ENDP	; CombatManager::Is_Friendly_Fire_Permitted
_TEXT	ENDS
; Function compile flags: /Odtp /ZI
; File x:\github\renegade\dragonade_rxd\scripts\combatmanager.h
;	COMDAT ?Set_Friendly_Fire_Permitted@CombatManager@@SAX_N@Z
_TEXT	SEGMENT
_yes$ = 8						; size = 1
?Set_Friendly_Fire_Permitted@CombatManager@@SAX_N@Z PROC ; CombatManager::Set_Friendly_Fire_Permitted, COMDAT

; 89   : 	SCRIPTS_API static void Set_Friendly_Fire_Permitted( bool yes ) { FriendlyFirePermitted = yes; }

	push	ebp
	mov	ebp, esp
	sub	esp, 64					; 00000040H
	push	ebx
	push	esi
	push	edi
	mov	eax, DWORD PTR ?FriendlyFirePermitted@CombatManager@@2AA_NA ; CombatManager::FriendlyFirePermitted
	mov	cl, BYTE PTR _yes$[ebp]
	mov	BYTE PTR [eax], cl
	pop	edi
	pop	esi
	pop	ebx
	mov	esp, ebp
	pop	ebp
	ret	0
?Set_Friendly_Fire_Permitted@CombatManager@@SAX_N@Z ENDP ; CombatManager::Set_Friendly_Fire_Permitted
_TEXT	ENDS
; Function compile flags: /Odtp /ZI
; File x:\github\renegade\dragonade_rxd\scripts\combatmanager.h
;	COMDAT ?I_Am_Server@CombatManager@@SA_NXZ
_TEXT	SEGMENT
?I_Am_Server@CombatManager@@SA_NXZ PROC			; CombatManager::I_Am_Server, COMDAT

; 81   : 	static bool I_Am_Server() { return IAmServer; }

	push	ebp
	mov	ebp, esp
	sub	esp, 64					; 00000040H
	push	ebx
	push	esi
	push	edi
	mov	eax, DWORD PTR ?IAmServer@CombatManager@@2AA_NA ; CombatManager::IAmServer
	mov	al, BYTE PTR [eax]
	pop	edi
	pop	esi
	pop	ebx
	mov	esp, ebp
	pop	ebp
	ret	0
?I_Am_Server@CombatManager@@SA_NXZ ENDP			; CombatManager::I_Am_Server
_TEXT	ENDS
; Function compile flags: /Odtp /ZI
;	COMDAT ??4ArmorWarheadManager@@QAEAAV0@ABV0@@Z
_TEXT	SEGMENT
_this$ = -4						; size = 4
___that$ = 8						; size = 4
??4ArmorWarheadManager@@QAEAAV0@ABV0@@Z PROC		; ArmorWarheadManager::operator=, COMDAT
; _this$ = ecx
	push	ebp
	mov	ebp, esp
	sub	esp, 68					; 00000044H
	push	ebx
	push	esi
	push	edi
	mov	DWORD PTR _this$[ebp], ecx
	mov	eax, DWORD PTR _this$[ebp]
	pop	edi
	pop	esi
	pop	ebx
	mov	esp, ebp
	pop	ebp
	ret	4
??4ArmorWarheadManager@@QAEAAV0@ABV0@@Z ENDP		; ArmorWarheadManager::operator=
_TEXT	ENDS
; Function compile flags: /Odtp /ZI
; File x:\github\renegade\dragonade_rxd\scripts\vehiclegameobjdef.h
;	COMDAT ?Get_Build_At_Ground@VehicleGameObjDef@@QBE_NXZ
_TEXT	SEGMENT
_this$ = -4						; size = 4
?Get_Build_At_Ground@VehicleGameObjDef@@QBE_NXZ PROC	; VehicleGameObjDef::Get_Build_At_Ground, COMDAT
; _this$ = ecx

; 62   : 	bool Get_Build_At_Ground() const {return BuildAtGround;}

	push	ebp
	mov	ebp, esp
	sub	esp, 68					; 00000044H
	push	ebx
	push	esi
	push	edi
	mov	DWORD PTR _this$[ebp], ecx
	mov	eax, DWORD PTR _this$[ebp]
	mov	al, BYTE PTR [eax+326]
	pop	edi
	pop	esi
	pop	ebx
	mov	esp, ebp
	pop	ebp
	ret	0
?Get_Build_At_Ground@VehicleGameObjDef@@QBE_NXZ ENDP	; VehicleGameObjDef::Get_Build_At_Ground
_TEXT	ENDS
; Function compile flags: /Odtp /ZI
; File x:\github\renegade\dragonade_rxd\scripts\vehiclegameobjdef.h
;	COMDAT ?Get_Type@VehicleGameObjDef@@QBE?AW4VehicleType@@XZ
_TEXT	SEGMENT
_this$ = -4						; size = 4
?Get_Type@VehicleGameObjDef@@QBE?AW4VehicleType@@XZ PROC ; VehicleGameObjDef::Get_Type, COMDAT
; _this$ = ecx

; 59   : 	VehicleType Get_Type() const {return Type;}

	push	ebp
	mov	ebp, esp
	sub	esp, 68					; 00000044H
	push	ebx
	push	esi
	push	edi
	mov	DWORD PTR _this$[ebp], ecx
	mov	eax, DWORD PTR _this$[ebp]
	mov	eax, DWORD PTR [eax+224]
	pop	edi
	pop	esi
	pop	ebx
	mov	esp, ebp
	pop	ebp
	ret	0
?Get_Type@VehicleGameObjDef@@QBE?AW4VehicleType@@XZ ENDP ; VehicleGameObjDef::Get_Type
_TEXT	ENDS
; Function compile flags: /Odtp /ZI
; File x:\github\renegade\dragonade_rxd\scripts\engine_game.cpp
;	COMDAT ?Get_Definition@SimpleGameObj@@QBEABVSimpleGameObjDef@@XZ
_TEXT	SEGMENT
_this$ = -4						; size = 4
?Get_Definition@SimpleGameObj@@QBEABVSimpleGameObjDef@@XZ PROC ; SimpleGameObj::Get_Definition, COMDAT
; _this$ = ecx

; 584  : {

	push	ebp
	mov	ebp, esp
	sub	esp, 68					; 00000044H
	push	ebx
	push	esi
	push	edi
	mov	DWORD PTR _this$[ebp], ecx

; 585  : 	return (const SimpleGameObjDef &)BaseGameObj::Get_Definition();

	mov	ecx, DWORD PTR _this$[ebp]
	call	?Get_Definition@BaseGameObj@@QBEABVBaseGameObjDef@@XZ ; BaseGameObj::Get_Definition

; 586  : }

	pop	edi
	pop	esi
	pop	ebx
	mov	esp, ebp
	pop	ebp
	ret	0
?Get_Definition@SimpleGameObj@@QBEABVSimpleGameObjDef@@XZ ENDP ; SimpleGameObj::Get_Definition
_TEXT	ENDS
; Function compile flags: /Odtp /ZI
; File x:\github\renegade\dragonade_rxd\scripts\slist.h
;	COMDAT ?Head@?$SList@VBuildingGameObj@@@@QBEPAV?$SLNode@VBuildingGameObj@@@@XZ
_TEXT	SEGMENT
_this$ = -4						; size = 4
?Head@?$SList@VBuildingGameObj@@@@QBEPAV?$SLNode@VBuildingGameObj@@@@XZ PROC ; SList<BuildingGameObj>::Head, COMDAT
; _this$ = ecx

; 313  : 	{

	push	ebp
	mov	ebp, esp
	sub	esp, 68					; 00000044H
	push	ebx
	push	esi
	push	edi
	mov	DWORD PTR _this$[ebp], ecx

; 314  : 		return HeadNode;

	mov	eax, DWORD PTR _this$[ebp]
	mov	eax, DWORD PTR [eax+4]

; 315  : 	}

	pop	edi
	pop	esi
	pop	ebx
	mov	esp, ebp
	pop	ebp
	ret	0
?Head@?$SList@VBuildingGameObj@@@@QBEPAV?$SLNode@VBuildingGameObj@@@@XZ ENDP ; SList<BuildingGameObj>::Head
_TEXT	ENDS
; Function compile flags: /Odtp /ZI
; File x:\github\renegade\dragonade_rxd\scripts\engine_game.cpp
;	COMDAT ?Destroy_Harvester@RefineryGameObj@@QAEXXZ
_TEXT	SEGMENT
_this$ = -4						; size = 4
?Destroy_Harvester@RefineryGameObj@@QAEXXZ PROC		; RefineryGameObj::Destroy_Harvester, COMDAT
; _this$ = ecx

; 289  : {

	push	ebp
	mov	ebp, esp
	sub	esp, 68					; 00000044H
	push	ebx
	push	esi
	push	edi
	mov	DWORD PTR _this$[ebp], ecx

; 290  : 	if (Get_Harvester_Vehicle())

	mov	ecx, DWORD PTR _this$[ebp]
	call	?Get_Harvester_Vehicle@RefineryGameObj@@QAEPAVVehicleGameObj@@XZ ; RefineryGameObj::Get_Harvester_Vehicle
	test	eax, eax
	je	SHORT $LN1@Destroy_Ha

; 291  : 	{
; 292  : 		Commands->Apply_Damage(Get_Harvester_Vehicle(),99999,"Death",0);

	push	0
	push	OFFSET ??_C@_05PGGAFPFO@Death?$AA@
	push	ecx
	movss	xmm0, DWORD PTR __real@47c34f80
	movss	DWORD PTR [esp], xmm0
	mov	ecx, DWORD PTR _this$[ebp]
	call	?Get_Harvester_Vehicle@RefineryGameObj@@QAEPAVVehicleGameObj@@XZ ; RefineryGameObj::Get_Harvester_Vehicle
	push	eax
	mov	eax, DWORD PTR ?Commands@@3PAUScriptCommands@@A ; Commands
	mov	ecx, DWORD PTR [eax+616]
	call	ecx
	add	esp, 16					; 00000010H
$LN1@Destroy_Ha:

; 293  : 	}
; 294  : }

	pop	edi
	pop	esi
	pop	ebx
	mov	esp, ebp
	pop	ebp
	ret	0
?Destroy_Harvester@RefineryGameObj@@QAEXXZ ENDP		; RefineryGameObj::Destroy_Harvester
_TEXT	ENDS
; Function compile flags: /Odtp /ZI
; File x:\github\renegade\dragonade_rxd\scripts\engine_game.cpp
;	COMDAT ?Get_Harvester_Vehicle@RefineryGameObj@@QAEPAVVehicleGameObj@@XZ
_TEXT	SEGMENT
tv76 = -72						; size = 4
_this$ = -4						; size = 4
?Get_Harvester_Vehicle@RefineryGameObj@@QAEPAVVehicleGameObj@@XZ PROC ; RefineryGameObj::Get_Harvester_Vehicle, COMDAT
; _this$ = ecx

; 298  : {

	push	ebp
	mov	ebp, esp
	sub	esp, 72					; 00000048H
	push	ebx
	push	esi
	push	edi
	mov	DWORD PTR _this$[ebp], ecx

; 299  : 	if (HarvesterVehicle.Get_Ptr()) 

	mov	ecx, DWORD PTR _this$[ebp]
	add	ecx, 2260				; 000008d4H
	call	?Get_Ptr@ReferencerClass@@QBEPAVScriptableGameObj@@XZ ; ReferencerClass::Get_Ptr
	test	eax, eax
	je	SHORT $LN1@Get_Harves

; 300  : 	{
; 301  : 		return HarvesterVehicle->As_VehicleGameObj();

	mov	ecx, DWORD PTR _this$[ebp]
	add	ecx, 2260				; 000008d4H
	call	??CReferencerClass@@QAEPAVScriptableGameObj@@XZ ; ReferencerClass::operator->
	mov	DWORD PTR tv76[ebp], eax
	mov	eax, DWORD PTR tv76[ebp]
	mov	edx, DWORD PTR [eax]
	mov	ecx, DWORD PTR tv76[ebp]
	mov	eax, DWORD PTR [edx+40]
	call	eax
	jmp	SHORT $LN2@Get_Harves
$LN1@Get_Harves:

; 302  : 	}
; 303  : 	return 0;

	xor	eax, eax
$LN2@Get_Harves:

; 304  : }

	pop	edi
	pop	esi
	pop	ebx
	mov	esp, ebp
	pop	ebp
	ret	0
?Get_Harvester_Vehicle@RefineryGameObj@@QAEPAVVehicleGameObj@@XZ ENDP ; RefineryGameObj::Get_Harvester_Vehicle
_TEXT	ENDS
; Function compile flags: /Odtp /ZI
; File x:\github\renegade\dragonade_rxd\scripts\refinerygameobj.h
;	COMDAT ?Get_Harvester_Def_ID@RefineryGameObj@@QBEHXZ
_TEXT	SEGMENT
_this$ = -4						; size = 4
?Get_Harvester_Def_ID@RefineryGameObj@@QBEHXZ PROC	; RefineryGameObj::Get_Harvester_Def_ID, COMDAT
; _this$ = ecx

; 39   : 	int					Get_Harvester_Def_ID (void) const	{ return Get_Definition ().HarvesterDefID; }

	push	ebp
	mov	ebp, esp
	sub	esp, 68					; 00000044H
	push	ebx
	push	esi
	push	edi
	mov	DWORD PTR _this$[ebp], ecx
	mov	ecx, DWORD PTR _this$[ebp]
	call	?Get_Definition@RefineryGameObj@@QBEABVRefineryGameObjDef@@XZ ; RefineryGameObj::Get_Definition
	mov	eax, DWORD PTR [eax+172]
	pop	edi
	pop	esi
	pop	ebx
	mov	esp, ebp
	pop	ebp
	ret	0
?Get_Harvester_Def_ID@RefineryGameObj@@QBEHXZ ENDP	; RefineryGameObj::Get_Harvester_Def_ID
_TEXT	ENDS
; Function compile flags: /Odtp /ZI
; File x:\github\renegade\dragonade_rxd\scripts\multilist.h
;	COMDAT ?Iterator@?$RefMultiListClass@VBuildingAggregateClass@@@@QBE?AV?$RefMultiListIterator@VBuildingAggregateClass@@@@XZ
_TEXT	SEGMENT
_this$ = -4						; size = 4
___$ReturnUdt$ = 8					; size = 4
?Iterator@?$RefMultiListClass@VBuildingAggregateClass@@@@QBE?AV?$RefMultiListIterator@VBuildingAggregateClass@@@@XZ PROC ; RefMultiListClass<BuildingAggregateClass>::Iterator, COMDAT
; _this$ = ecx

; 389  : {

	push	ebp
	mov	ebp, esp
	sub	esp, 68					; 00000044H
	push	ebx
	push	esi
	push	edi
	mov	DWORD PTR _this$[ebp], ecx

; 390  : 	return RefMultiListIterator<T>(this);

	mov	eax, DWORD PTR _this$[ebp]
	push	eax
	mov	ecx, DWORD PTR ___$ReturnUdt$[ebp]
	call	??0?$RefMultiListIterator@VBuildingAggregateClass@@@@QAE@PBV?$RefMultiListClass@VBuildingAggregateClass@@@@@Z ; RefMultiListIterator<BuildingAggregateClass>::RefMultiListIterator<BuildingAggregateClass>
	mov	eax, DWORD PTR ___$ReturnUdt$[ebp]

; 391  : };

	pop	edi
	pop	esi
	pop	ebx
	mov	esp, ebp
	pop	ebp
	ret	4
?Iterator@?$RefMultiListClass@VBuildingAggregateClass@@@@QBE?AV?$RefMultiListIterator@VBuildingAggregateClass@@@@XZ ENDP ; RefMultiListClass<BuildingAggregateClass>::Iterator
_TEXT	ENDS
; Function compile flags: /Odtp /ZI
; File x:\github\renegade\dragonade_rxd\scripts\engine_game.cpp
;	COMDAT ?Find_MCT@BuildingGameObj@@QAEPAVBuildingAggregateClass@@XZ
_TEXT	SEGMENT
_it$1 = -12						; size = 8
_this$ = -4						; size = 4
?Find_MCT@BuildingGameObj@@QAEPAVBuildingAggregateClass@@XZ PROC ; BuildingGameObj::Find_MCT, COMDAT
; _this$ = ecx

; 643  : {

	push	ebp
	mov	ebp, esp
	sub	esp, 76					; 0000004cH
	push	ebx
	push	esi
	push	edi
	mov	DWORD PTR _this$[ebp], ecx

; 644  : 	for (auto it = Aggregates.Iterator(); it; ++it)

	lea	eax, DWORD PTR _it$1[ebp]
	push	eax
	mov	ecx, DWORD PTR _this$[ebp]
	add	ecx, 2020				; 000007e4H
	call	?Iterator@?$RefMultiListClass@VBuildingAggregateClass@@@@QBE?AV?$RefMultiListIterator@VBuildingAggregateClass@@@@XZ ; RefMultiListClass<BuildingAggregateClass>::Iterator
	jmp	SHORT $LN4@Find_MCT
$LN3@Find_MCT:
	lea	ecx, DWORD PTR _it$1[ebp]
	call	??E?$RefMultiListIterator@VBuildingAggregateClass@@@@QAEXXZ ; RefMultiListIterator<BuildingAggregateClass>::operator++
$LN4@Find_MCT:
	lea	ecx, DWORD PTR _it$1[ebp]
	call	??B?$RefMultiListIterator@VBuildingAggregateClass@@@@QBE_NXZ ; RefMultiListIterator<BuildingAggregateClass>::operator bool
	movzx	eax, al
	test	eax, eax
	je	SHORT $LN2@Find_MCT

; 645  : 	{
; 646  : 		if (it->Is_MCT())

	lea	ecx, DWORD PTR _it$1[ebp]
	call	??C?$RefMultiListIterator@VBuildingAggregateClass@@@@QBEPAVBuildingAggregateClass@@XZ ; RefMultiListIterator<BuildingAggregateClass>::operator->
	mov	ecx, eax
	call	?Is_MCT@BuildingAggregateClass@@QAE_NXZ	; BuildingAggregateClass::Is_MCT
	movzx	eax, al
	test	eax, eax
	je	SHORT $LN1@Find_MCT

; 647  : 		{
; 648  : 			return it.Peek_Obj();

	lea	ecx, DWORD PTR _it$1[ebp]
	call	?Peek_Obj@?$RefMultiListIterator@VBuildingAggregateClass@@@@QBEPAVBuildingAggregateClass@@XZ ; RefMultiListIterator<BuildingAggregateClass>::Peek_Obj
	jmp	SHORT $LN5@Find_MCT
$LN1@Find_MCT:

; 649  : 		}
; 650  : 	}

	jmp	SHORT $LN3@Find_MCT
$LN2@Find_MCT:

; 651  : 	return 0;

	xor	eax, eax
$LN5@Find_MCT:

; 652  : }

	pop	edi
	pop	esi
	pop	ebx
	mov	esp, ebp
	pop	ebp
	ret	0
?Find_MCT@BuildingGameObj@@QAEPAVBuildingAggregateClass@@XZ ENDP ; BuildingGameObj::Find_MCT
_TEXT	ENDS
; Function compile flags: /Odtp /ZI
; File x:\github\renegade\dragonade_rxd\scripts\buildinggameobj.h
;	COMDAT ?Is_Destroyed@BuildingGameObj@@QBE_NXZ
_TEXT	SEGMENT
_this$ = -4						; size = 4
?Is_Destroyed@BuildingGameObj@@QBE_NXZ PROC		; BuildingGameObj::Is_Destroyed, COMDAT
; _this$ = ecx

; 86   : 	bool											Is_Destroyed (void) const { return IsDestroyed; }

	push	ebp
	mov	ebp, esp
	sub	esp, 68					; 00000044H
	push	ebx
	push	esi
	push	edi
	mov	DWORD PTR _this$[ebp], ecx
	mov	eax, DWORD PTR _this$[ebp]
	mov	al, BYTE PTR [eax+1912]
	pop	edi
	pop	esi
	pop	ebx
	mov	esp, ebp
	pop	ebp
	ret	0
?Is_Destroyed@BuildingGameObj@@QBE_NXZ ENDP		; BuildingGameObj::Is_Destroyed
_TEXT	ENDS
; Function compile flags: /Odtp /ZI
; File x:\github\renegade\dragonade_rxd\scripts\buildinggameobj.h
;	COMDAT ?Set_Position@BuildingGameObj@@QAEXABVVector3@@@Z
_TEXT	SEGMENT
_this$ = -4						; size = 4
_pos$ = 8						; size = 4
?Set_Position@BuildingGameObj@@QAEXABVVector3@@@Z PROC	; BuildingGameObj::Set_Position, COMDAT
; _this$ = ecx

; 62   : 	void											Set_Position(const Vector3 & pos)		{ Position = pos; CollectionSphere.Center = pos; }

	push	ebp
	mov	ebp, esp
	sub	esp, 68					; 00000044H
	push	ebx
	push	esi
	push	edi
	mov	DWORD PTR _this$[ebp], ecx
	mov	eax, DWORD PTR _pos$[ebp]
	push	eax
	mov	ecx, DWORD PTR _this$[ebp]
	add	ecx, 1916				; 0000077cH
	call	??4Vector3@@QAEAAV0@ABV0@@Z		; Vector3::operator=
	mov	eax, DWORD PTR _pos$[ebp]
	push	eax
	mov	ecx, DWORD PTR _this$[ebp]
	add	ecx, 1956				; 000007a4H
	call	??4Vector3@@QAEAAV0@ABV0@@Z		; Vector3::operator=
	pop	edi
	pop	esi
	pop	ebx
	mov	esp, ebp
	pop	ebp
	ret	4
?Set_Position@BuildingGameObj@@QAEXABVVector3@@@Z ENDP	; BuildingGameObj::Set_Position
_TEXT	ENDS
; Function compile flags: /Odtp /ZI
; File x:\github\renegade\dragonade_rxd\scripts\buildinggameobjdef.h
;	COMDAT ?Get_Type@BuildingGameObjDef@@QBE?AW4BuildingType@BuildingConstants@@XZ
_TEXT	SEGMENT
_this$ = -4						; size = 4
?Get_Type@BuildingGameObjDef@@QBE?AW4BuildingType@BuildingConstants@@XZ PROC ; BuildingGameObjDef::Get_Type, COMDAT
; _this$ = ecx

; 68   : 	BuildingConstants::BuildingType				Get_Type (void) const	{ return Type; }

	push	ebp
	mov	ebp, esp
	sub	esp, 68					; 00000044H
	push	ebx
	push	esi
	push	edi
	mov	DWORD PTR _this$[ebp], ecx
	mov	eax, DWORD PTR _this$[ebp]
	mov	eax, DWORD PTR [eax+140]
	pop	edi
	pop	esi
	pop	ebx
	mov	esp, ebp
	pop	ebp
	ret	0
?Get_Type@BuildingGameObjDef@@QBE?AW4BuildingType@BuildingConstants@@XZ ENDP ; BuildingGameObjDef::Get_Type
_TEXT	ENDS
; Function compile flags: /Odtp /ZI
; File x:\github\renegade\dragonade_rxd\scripts\coltest.h
;	COMDAT ?Cull@OBBoxCollisionTestClass@@QAE_NABVVector3@@0@Z
_TEXT	SEGMENT
_this$ = -4						; size = 4
_min$ = 8						; size = 4
_max$ = 12						; size = 4
?Cull@OBBoxCollisionTestClass@@QAE_NABVVector3@@0@Z PROC ; OBBoxCollisionTestClass::Cull, COMDAT
; _this$ = ecx

; 148  : {

	push	ebp
	mov	ebp, esp
	sub	esp, 68					; 00000044H
	push	ebx
	push	esi
	push	edi
	mov	DWORD PTR _this$[ebp], ecx

; 149  : 	if ((SweepMin.X > max.X) || (SweepMax.X < min.X))

	mov	eax, DWORD PTR _this$[ebp]
	mov	ecx, DWORD PTR _max$[ebp]
	movss	xmm0, DWORD PTR [eax+84]
	comiss	xmm0, DWORD PTR [ecx]
	ja	SHORT $LN5@Cull
	mov	eax, DWORD PTR _min$[ebp]
	mov	ecx, DWORD PTR _this$[ebp]
	movss	xmm0, DWORD PTR [eax]
	comiss	xmm0, DWORD PTR [ecx+96]
	jbe	SHORT $LN6@Cull
$LN5@Cull:

; 150  : 	{
; 151  : 		return true;

	mov	al, 1
	jmp	SHORT $LN7@Cull
$LN6@Cull:

; 152  : 	}
; 153  : 	if ((SweepMin.Y > max.Y) || (SweepMax.Y < min.Y))

	mov	eax, DWORD PTR _this$[ebp]
	mov	ecx, DWORD PTR _max$[ebp]
	movss	xmm0, DWORD PTR [eax+88]
	comiss	xmm0, DWORD PTR [ecx+4]
	ja	SHORT $LN3@Cull
	mov	eax, DWORD PTR _min$[ebp]
	mov	ecx, DWORD PTR _this$[ebp]
	movss	xmm0, DWORD PTR [eax+4]
	comiss	xmm0, DWORD PTR [ecx+100]
	jbe	SHORT $LN4@Cull
$LN3@Cull:

; 154  : 	{
; 155  : 		return true;

	mov	al, 1
	jmp	SHORT $LN7@Cull
$LN4@Cull:

; 156  : 	}
; 157  : 	if ((SweepMin.Z > max.Z) || (SweepMax.Z < min.Z))

	mov	eax, DWORD PTR _this$[ebp]
	mov	ecx, DWORD PTR _max$[ebp]
	movss	xmm0, DWORD PTR [eax+92]
	comiss	xmm0, DWORD PTR [ecx+8]
	ja	SHORT $LN1@Cull
	mov	eax, DWORD PTR _min$[ebp]
	mov	ecx, DWORD PTR _this$[ebp]
	movss	xmm0, DWORD PTR [eax+8]
	comiss	xmm0, DWORD PTR [ecx+104]
	jbe	SHORT $LN2@Cull
$LN1@Cull:

; 158  : 	{
; 159  : 		return true;

	mov	al, 1
	jmp	SHORT $LN7@Cull
$LN2@Cull:

; 160  : 	}
; 161  : 	return false;

	xor	al, al
$LN7@Cull:

; 162  : }

	pop	edi
	pop	esi
	pop	ebx
	mov	esp, ebp
	pop	ebp
	ret	8
?Cull@OBBoxCollisionTestClass@@QAE_NABVVector3@@0@Z ENDP ; OBBoxCollisionTestClass::Cull
_TEXT	ENDS
; Function compile flags: /Odtp /ZI
; File x:\github\renegade\dragonade_rxd\scripts\coltest.h
;	COMDAT ?Translate@AABoxCollisionTestClass@@QAEXABVVector3@@@Z
_TEXT	SEGMENT
_this$ = -4						; size = 4
_translation$ = 8					; size = 4
?Translate@AABoxCollisionTestClass@@QAEXABVVector3@@@Z PROC ; AABoxCollisionTestClass::Translate, COMDAT
; _this$ = ecx

; 106  : {

	push	ebp
	mov	ebp, esp
	sub	esp, 68					; 00000044H
	push	ebx
	push	esi
	push	edi
	mov	DWORD PTR _this$[ebp], ecx

; 107  : 	Box.Center += translation;

	mov	eax, DWORD PTR _translation$[ebp]
	push	eax
	mov	ecx, DWORD PTR _this$[ebp]
	add	ecx, 12					; 0000000cH
	call	??YVector3@@QAEAAV0@ABV0@@Z		; Vector3::operator+=

; 108  : 	SweepMin += translation;

	mov	eax, DWORD PTR _translation$[ebp]
	push	eax
	mov	ecx, DWORD PTR _this$[ebp]
	add	ecx, 48					; 00000030H
	call	??YVector3@@QAEAAV0@ABV0@@Z		; Vector3::operator+=

; 109  : 	SweepMax += translation;

	mov	eax, DWORD PTR _translation$[ebp]
	push	eax
	mov	ecx, DWORD PTR _this$[ebp]
	add	ecx, 60					; 0000003cH
	call	??YVector3@@QAEAAV0@ABV0@@Z		; Vector3::operator+=

; 110  : }

	pop	edi
	pop	esi
	pop	ebx
	mov	esp, ebp
	pop	ebp
	ret	4
?Translate@AABoxCollisionTestClass@@QAEXABVVector3@@@Z ENDP ; AABoxCollisionTestClass::Translate
_TEXT	ENDS
; Function compile flags: /Odtp /ZI
; File x:\github\renegade\dragonade_rxd\scripts\coltest.h
;	COMDAT ?Cull@AABoxCollisionTestClass@@QAE_NABVVector3@@0@Z
_TEXT	SEGMENT
_this$ = -4						; size = 4
_min$ = 8						; size = 4
_max$ = 12						; size = 4
?Cull@AABoxCollisionTestClass@@QAE_NABVVector3@@0@Z PROC ; AABoxCollisionTestClass::Cull, COMDAT
; _this$ = ecx

; 113  : {

	push	ebp
	mov	ebp, esp
	sub	esp, 68					; 00000044H
	push	ebx
	push	esi
	push	edi
	mov	DWORD PTR _this$[ebp], ecx

; 114  : 	if ((SweepMin.X > max.X) || (SweepMax.X < min.X))

	mov	eax, DWORD PTR _this$[ebp]
	mov	ecx, DWORD PTR _max$[ebp]
	movss	xmm0, DWORD PTR [eax+48]
	comiss	xmm0, DWORD PTR [ecx]
	ja	SHORT $LN5@Cull
	mov	eax, DWORD PTR _min$[ebp]
	mov	ecx, DWORD PTR _this$[ebp]
	movss	xmm0, DWORD PTR [eax]
	comiss	xmm0, DWORD PTR [ecx+60]
	jbe	SHORT $LN6@Cull
$LN5@Cull:

; 115  : 	{
; 116  : 		return true;

	mov	al, 1
	jmp	SHORT $LN7@Cull
$LN6@Cull:

; 117  : 	}
; 118  : 	if ((SweepMin.Y > max.Y) || (SweepMax.Y < min.Y))

	mov	eax, DWORD PTR _this$[ebp]
	mov	ecx, DWORD PTR _max$[ebp]
	movss	xmm0, DWORD PTR [eax+52]
	comiss	xmm0, DWORD PTR [ecx+4]
	ja	SHORT $LN3@Cull
	mov	eax, DWORD PTR _min$[ebp]
	mov	ecx, DWORD PTR _this$[ebp]
	movss	xmm0, DWORD PTR [eax+4]
	comiss	xmm0, DWORD PTR [ecx+64]
	jbe	SHORT $LN4@Cull
$LN3@Cull:

; 119  : 	{
; 120  : 		return true;

	mov	al, 1
	jmp	SHORT $LN7@Cull
$LN4@Cull:

; 121  : 	}
; 122  : 	if ((SweepMin.Z > max.Z) || (SweepMax.Z < min.Z))

	mov	eax, DWORD PTR _this$[ebp]
	mov	ecx, DWORD PTR _max$[ebp]
	movss	xmm0, DWORD PTR [eax+56]
	comiss	xmm0, DWORD PTR [ecx+8]
	ja	SHORT $LN1@Cull
	mov	eax, DWORD PTR _min$[ebp]
	mov	ecx, DWORD PTR _this$[ebp]
	movss	xmm0, DWORD PTR [eax+8]
	comiss	xmm0, DWORD PTR [ecx+68]
	jbe	SHORT $LN2@Cull
$LN1@Cull:

; 123  : 	{
; 124  : 		return true;

	mov	al, 1
	jmp	SHORT $LN7@Cull
$LN2@Cull:

; 125  : 	}
; 126  : 	return false;

	xor	al, al
$LN7@Cull:

; 127  : }

	pop	edi
	pop	esi
	pop	ebx
	mov	esp, ebp
	pop	ebp
	ret	8
?Cull@AABoxCollisionTestClass@@QAE_NABVVector3@@0@Z ENDP ; AABoxCollisionTestClass::Cull
_TEXT	ENDS
; Function compile flags: /Odtp /ZI
;	COMDAT ??4CollisionTestClass@@QAEAAV0@ABV0@@Z
_TEXT	SEGMENT
_this$ = -4						; size = 4
___that$ = 8						; size = 4
??4CollisionTestClass@@QAEAAV0@ABV0@@Z PROC		; CollisionTestClass::operator=, COMDAT
; _this$ = ecx
	push	ebp
	mov	ebp, esp
	sub	esp, 68					; 00000044H
	push	ebx
	push	esi
	push	edi
	mov	DWORD PTR _this$[ebp], ecx
	mov	eax, DWORD PTR ___that$[ebp]
	mov	ecx, DWORD PTR _this$[ebp]
	mov	edx, DWORD PTR [eax]
	mov	DWORD PTR [ecx], edx
	mov	edx, DWORD PTR [eax+4]
	mov	DWORD PTR [ecx+4], edx
	mov	eax, DWORD PTR [eax+8]
	mov	DWORD PTR [ecx+8], eax
	mov	eax, DWORD PTR _this$[ebp]
	pop	edi
	pop	esi
	pop	ebx
	mov	esp, ebp
	pop	ebp
	ret	4
??4CollisionTestClass@@QAEAAV0@ABV0@@Z ENDP		; CollisionTestClass::operator=
_TEXT	ENDS
; Function compile flags: /Odtp /ZI
; File x:\github\renegade\dragonade_rxd\scripts\coltest.h
;	COMDAT ??0CollisionTestClass@@QAE@ABV0@@Z
_TEXT	SEGMENT
_this$ = -4						; size = 4
_that$ = 8						; size = 4
??0CollisionTestClass@@QAE@ABV0@@Z PROC			; CollisionTestClass::CollisionTestClass, COMDAT
; _this$ = ecx

; 43   : {

	push	ebp
	mov	ebp, esp
	sub	esp, 68					; 00000044H
	push	ebx
	push	esi
	push	edi
	mov	DWORD PTR _this$[ebp], ecx
	mov	eax, DWORD PTR _this$[ebp]
	mov	ecx, DWORD PTR _that$[ebp]
	mov	edx, DWORD PTR [ecx]
	mov	DWORD PTR [eax], edx
	mov	eax, DWORD PTR _this$[ebp]
	mov	ecx, DWORD PTR _that$[ebp]
	mov	edx, DWORD PTR [ecx+4]
	mov	DWORD PTR [eax+4], edx
	mov	eax, DWORD PTR _this$[ebp]
	mov	ecx, DWORD PTR _that$[ebp]
	mov	edx, DWORD PTR [ecx+8]
	mov	DWORD PTR [eax+8], edx

; 44   : }

	mov	eax, DWORD PTR _this$[ebp]
	pop	edi
	pop	esi
	pop	ebx
	mov	esp, ebp
	pop	ebp
	ret	4
??0CollisionTestClass@@QAE@ABV0@@Z ENDP			; CollisionTestClass::CollisionTestClass
_TEXT	ENDS
; Function compile flags: /Odtp /ZI
; File x:\github\renegade\dragonade_rxd\scripts\coltest.h
;	COMDAT ??0CollisionTestClass@@QAE@PAUCastResultStruct@@W4Collision_Type@@@Z
_TEXT	SEGMENT
_this$ = -4						; size = 4
_res$ = 8						; size = 4
_collision_type$ = 12					; size = 4
??0CollisionTestClass@@QAE@PAUCastResultStruct@@W4Collision_Type@@@Z PROC ; CollisionTestClass::CollisionTestClass, COMDAT
; _this$ = ecx

; 36   : {

	push	ebp
	mov	ebp, esp
	sub	esp, 68					; 00000044H
	push	ebx
	push	esi
	push	edi
	mov	DWORD PTR _this$[ebp], ecx
	mov	eax, DWORD PTR _this$[ebp]
	mov	ecx, DWORD PTR _res$[ebp]
	mov	DWORD PTR [eax], ecx
	mov	eax, DWORD PTR _this$[ebp]
	mov	ecx, DWORD PTR _collision_type$[ebp]
	mov	DWORD PTR [eax+4], ecx
	mov	eax, DWORD PTR _this$[ebp]
	mov	DWORD PTR [eax+8], 0

; 37   : }

	mov	eax, DWORD PTR _this$[ebp]
	pop	edi
	pop	esi
	pop	ebx
	mov	esp, ebp
	pop	ebp
	ret	8
??0CollisionTestClass@@QAE@PAUCastResultStruct@@W4Collision_Type@@@Z ENDP ; CollisionTestClass::CollisionTestClass
_TEXT	ENDS
; Function compile flags: /Odtp /ZI
;	COMDAT ??_ECollideableObjClass@AnimCollisionManagerClass@@QAEPAXI@Z
_TEXT	SEGMENT
_this$ = -4						; size = 4
___flags$ = 8						; size = 4
??_ECollideableObjClass@AnimCollisionManagerClass@@QAEPAXI@Z PROC ; AnimCollisionManagerClass::CollideableObjClass::`vector deleting destructor', COMDAT
; _this$ = ecx
	push	ebp
	mov	ebp, esp
	sub	esp, 68					; 00000044H
	push	ebx
	push	esi
	push	edi
	mov	DWORD PTR _this$[ebp], ecx
	mov	eax, DWORD PTR ___flags$[ebp]
	and	eax, 2
	je	SHORT $LN3@vector
	push	OFFSET ??1CollideableObjClass@AnimCollisionManagerClass@@QAE@XZ ; AnimCollisionManagerClass::CollideableObjClass::~CollideableObjClass
	mov	eax, DWORD PTR _this$[ebp]
	mov	ecx, DWORD PTR [eax-4]
	push	ecx
	push	100					; 00000064H
	mov	edx, DWORD PTR _this$[ebp]
	push	edx
	call	??_I@YGXPAXIHP6EX0@Z@Z
	mov	eax, DWORD PTR ___flags$[ebp]
	and	eax, 1
	je	SHORT $LN2@vector
	mov	eax, DWORD PTR _this$[ebp]
	sub	eax, 4
	push	eax
	call	??_V@YAXPAX@Z				; operator delete[]
	add	esp, 4
$LN2@vector:
	mov	eax, DWORD PTR _this$[ebp]
	sub	eax, 4
	jmp	SHORT $LN4@vector
$LN3@vector:
	mov	ecx, DWORD PTR _this$[ebp]
	call	??1CollideableObjClass@AnimCollisionManagerClass@@QAE@XZ ; AnimCollisionManagerClass::CollideableObjClass::~CollideableObjClass
	mov	eax, DWORD PTR ___flags$[ebp]
	and	eax, 1
	je	SHORT $LN1@vector
	mov	eax, DWORD PTR _this$[ebp]
	push	eax
	call	??3@YAXPAX@Z				; operator delete
	add	esp, 4
$LN1@vector:
	mov	eax, DWORD PTR _this$[ebp]
$LN4@vector:
	pop	edi
	pop	esi
	pop	ebx
	mov	esp, ebp
	pop	ebp
	ret	4
??_ECollideableObjClass@AnimCollisionManagerClass@@QAEPAXI@Z ENDP ; AnimCollisionManagerClass::CollideableObjClass::`vector deleting destructor'
_TEXT	ENDS
; Function compile flags: /Odtp /ZI
; File x:\github\renegade\dragonade_rxd\scripts\animcollisionmanagerclass.h
;	COMDAT ??1CollideableObjClass@AnimCollisionManagerClass@@QAE@XZ
_TEXT	SEGMENT
_this$ = -4						; size = 4
??1CollideableObjClass@AnimCollisionManagerClass@@QAE@XZ PROC ; AnimCollisionManagerClass::CollideableObjClass::~CollideableObjClass, COMDAT
; _this$ = ecx

; 120  : 		{

	push	ebp
	mov	ebp, esp
	sub	esp, 68					; 00000044H
	push	ebx
	push	esi
	push	edi
	mov	DWORD PTR _this$[ebp], ecx

; 121  : 			REF_PTR_RELEASE(CollisionMesh);

	mov	eax, DWORD PTR _this$[ebp]
	cmp	DWORD PTR [eax], 0
	je	SHORT $LN1@Collideabl
	mov	eax, DWORD PTR _this$[ebp]
	mov	ecx, DWORD PTR [eax]
	call	?Release_Ref@RefCountClass@@QAEXXZ	; RefCountClass::Release_Ref
$LN1@Collideabl:
	mov	eax, DWORD PTR _this$[ebp]
	mov	DWORD PTR [eax], 0

; 122  : 		}

	pop	edi
	pop	esi
	pop	ebx
	mov	esp, ebp
	pop	ebp
	ret	0
??1CollideableObjClass@AnimCollisionManagerClass@@QAE@XZ ENDP ; AnimCollisionManagerClass::CollideableObjClass::~CollideableObjClass
_TEXT	ENDS
; Function compile flags: /Odtp /ZI
; File x:\github\renegade\dragonade_rxd\scripts\engine_game.cpp
;	COMDAT ?Seconds_To_Hms@@YAXMAAH00@Z
_TEXT	SEGMENT
_i2$ = -12						; size = 4
_f1$ = -8						; size = 4
_i1$ = -4						; size = 4
_secs$ = 8						; size = 4
_hours$ = 12						; size = 4
_minutes$ = 16						; size = 4
_seconds$ = 20						; size = 4
?Seconds_To_Hms@@YAXMAAH00@Z PROC			; Seconds_To_Hms, COMDAT

; 655  : {

	push	ebp
	mov	ebp, esp
	sub	esp, 76					; 0000004cH
	push	ebx
	push	esi
	push	edi

; 656  : 	int i1 = (int) (secs * 0.00027777778f);

	movss	xmm0, DWORD PTR _secs$[ebp]
	mulss	xmm0, DWORD PTR __real@3991a2b4
	cvttss2si eax, xmm0
	mov	DWORD PTR _i1$[ebp], eax

; 657  : 	hours = i1;

	mov	eax, DWORD PTR _hours$[ebp]
	mov	ecx, DWORD PTR _i1$[ebp]
	mov	DWORD PTR [eax], ecx

; 658  : 	float f1 = secs - (float) (3600 * (int) i1);

	mov	eax, DWORD PTR _i1$[ebp]
	imul	eax, 3600				; 00000e10H
	cvtsi2ss xmm0, eax
	movss	xmm1, DWORD PTR _secs$[ebp]
	subss	xmm1, xmm0
	movss	DWORD PTR _f1$[ebp], xmm1

; 659  : 	int i2 = (int) (f1 * 0.016666668f);

	movss	xmm0, DWORD PTR _f1$[ebp]
	mulss	xmm0, DWORD PTR __real@3c888889
	cvttss2si eax, xmm0
	mov	DWORD PTR _i2$[ebp], eax

; 660  : 	minutes = i2;

	mov	eax, DWORD PTR _minutes$[ebp]
	mov	ecx, DWORD PTR _i2$[ebp]
	mov	DWORD PTR [eax], ecx

; 661  : 	seconds = (int) (f1 - (float) (60 * (int) i2));

	mov	eax, DWORD PTR _i2$[ebp]
	imul	eax, 60					; 0000003cH
	cvtsi2ss xmm0, eax
	movss	xmm1, DWORD PTR _f1$[ebp]
	subss	xmm1, xmm0
	cvttss2si ecx, xmm1
	mov	edx, DWORD PTR _seconds$[ebp]
	mov	DWORD PTR [edx], ecx

; 662  : }

	pop	edi
	pop	esi
	pop	ebx
	mov	esp, ebp
	pop	ebp
	ret	0
?Seconds_To_Hms@@YAXMAAH00@Z ENDP			; Seconds_To_Hms
_TEXT	ENDS
; Function compile flags: /Odtp /ZI
; File x:\github\renegade\dragonade_rxd\scripts\engine_game.cpp
;	COMDAT ?Get_Base_Center@@YA?AVVector3@@H@Z
_TEXT	SEGMENT
$T1 = -96						; size = 12
_Num$2 = -20						; size = 4
_Base$ = -16						; size = 4
_ReturnPos$ = -12					; size = 12
___$ReturnUdt$ = 8					; size = 4
_Team$ = 12						; size = 4
?Get_Base_Center@@YA?AVVector3@@H@Z PROC		; Get_Base_Center, COMDAT

; 624  : {

	push	ebp
	mov	ebp, esp
	sub	esp, 96					; 00000060H
	push	ebx
	push	esi
	push	edi

; 625  : 		Vector3 ReturnPos(0.0f,0.0f,0.0f);

	push	ecx
	movss	xmm0, DWORD PTR __real@00000000
	movss	DWORD PTR [esp], xmm0
	push	ecx
	movss	xmm0, DWORD PTR __real@00000000
	movss	DWORD PTR [esp], xmm0
	push	ecx
	movss	xmm0, DWORD PTR __real@00000000
	movss	DWORD PTR [esp], xmm0
	lea	ecx, DWORD PTR _ReturnPos$[ebp]
	call	??0Vector3@@QAE@MMM@Z			; Vector3::Vector3

; 626  : 		BaseControllerClass *Base = BaseControllerClass::Find_Base(Team);

	mov	eax, DWORD PTR _Team$[ebp]
	push	eax
	call	?Find_Base@BaseControllerClass@@SAPAV1@H@Z ; BaseControllerClass::Find_Base
	add	esp, 4
	mov	DWORD PTR _Base$[ebp], eax

; 627  : 		if (Base)

	cmp	DWORD PTR _Base$[ebp], 0
	je	SHORT $LN1@Get_Base_C

; 628  : 		{
; 629  : 				int Num = 0;

	mov	DWORD PTR _Num$2[ebp], 0

; 630  : 				for (Num = 0;Num < Base->Get_Building_List().Count();Num++)

	mov	DWORD PTR _Num$2[ebp], 0
	jmp	SHORT $LN4@Get_Base_C
$LN3@Get_Base_C:
	mov	eax, DWORD PTR _Num$2[ebp]
	add	eax, 1
	mov	DWORD PTR _Num$2[ebp], eax
$LN4@Get_Base_C:
	mov	ecx, DWORD PTR _Base$[ebp]
	call	?Get_Building_List@BaseControllerClass@@QAEAAV?$DynamicVectorClass@PAVBuildingGameObj@@@@XZ ; BaseControllerClass::Get_Building_List
	mov	ecx, eax
	call	?Count@?$DynamicVectorClass@PAVBuildingGameObj@@@@QBEHXZ ; DynamicVectorClass<BuildingGameObj *>::Count
	cmp	DWORD PTR _Num$2[ebp], eax
	jge	SHORT $LN2@Get_Base_C

; 631  : 				{
; 632  : 						ReturnPos += Commands->Get_Position(Base->Get_Building_List()[Num]);

	mov	eax, DWORD PTR _Num$2[ebp]
	push	eax
	mov	ecx, DWORD PTR _Base$[ebp]
	call	?Get_Building_List@BaseControllerClass@@QAEAAV?$DynamicVectorClass@PAVBuildingGameObj@@@@XZ ; BaseControllerClass::Get_Building_List
	mov	ecx, eax
	call	??A?$VectorClass@PAVBuildingGameObj@@@@QAEAAPAVBuildingGameObj@@H@Z ; VectorClass<BuildingGameObj *>::operator[]
	mov	ecx, DWORD PTR [eax]
	push	ecx
	lea	edx, DWORD PTR $T1[ebp]
	push	edx
	mov	eax, DWORD PTR ?Commands@@3PAUScriptCommands@@A ; Commands
	mov	ecx, DWORD PTR [eax+64]
	call	ecx
	add	esp, 8
	push	eax
	lea	ecx, DWORD PTR _ReturnPos$[ebp]
	call	??YVector3@@QAEAAV0@ABV0@@Z		; Vector3::operator+=

; 633  : 				}

	jmp	SHORT $LN3@Get_Base_C
$LN2@Get_Base_C:

; 634  : 				if (Num)

	cmp	DWORD PTR _Num$2[ebp], 0
	je	SHORT $LN1@Get_Base_C

; 635  : 				{
; 636  : 						ReturnPos /= (float)Num;

	cvtsi2ss xmm0, DWORD PTR _Num$2[ebp]
	push	ecx
	movss	DWORD PTR [esp], xmm0
	lea	ecx, DWORD PTR _ReturnPos$[ebp]
	call	??_0Vector3@@QAEAAV0@M@Z		; Vector3::operator/=
$LN1@Get_Base_C:

; 637  : 				}
; 638  : 		}
; 639  : 		return ReturnPos;

	lea	eax, DWORD PTR _ReturnPos$[ebp]
	push	eax
	mov	ecx, DWORD PTR ___$ReturnUdt$[ebp]
	call	??0Vector3@@QAE@ABV0@@Z			; Vector3::Vector3
	mov	eax, DWORD PTR ___$ReturnUdt$[ebp]

; 640  : }

	pop	edi
	pop	esi
	pop	ebx
	mov	esp, ebp
	pop	ebp
	ret	0
?Get_Base_Center@@YA?AVVector3@@H@Z ENDP		; Get_Base_Center
_TEXT	ENDS
; Function compile flags: /Odtp /ZI
; File x:\github\renegade\dragonade_rxd\scripts\engine_game.cpp
;	COMDAT ?Vehicle_Preset_Is_Naval@@YA_NH@Z
_TEXT	SEGMENT
_def2$1 = -8						; size = 4
_def$ = -4						; size = 4
_preset$ = 8						; size = 4
?Vehicle_Preset_Is_Naval@@YA_NH@Z PROC			; Vehicle_Preset_Is_Naval, COMDAT

; 606  : {

	push	ebp
	mov	ebp, esp
	sub	esp, 72					; 00000048H
	push	ebx
	push	esi
	push	edi

; 607  : 	DefinitionClass *def = DefinitionMgrClass::Find_Definition(preset,true);

	push	1
	mov	eax, DWORD PTR _preset$[ebp]
	push	eax
	call	DWORD PTR __imp_?Find_Definition@DefinitionMgrClass@@SAPAVDefinitionClass@@I_N@Z
	add	esp, 8
	mov	DWORD PTR _def$[ebp], eax

; 608  : 	if (!def)

	cmp	DWORD PTR _def$[ebp], 0
	jne	SHORT $LN4@Vehicle_Pr

; 609  : 	{
; 610  : 		return false;

	xor	al, al
	jmp	SHORT $LN5@Vehicle_Pr
$LN4@Vehicle_Pr:

; 611  : 	}
; 612  : 	if (def->Get_Class_ID() == 12304)

	mov	eax, DWORD PTR _def$[ebp]
	mov	edx, DWORD PTR [eax]
	mov	ecx, DWORD PTR _def$[ebp]
	mov	eax, DWORD PTR [edx+32]
	call	eax
	cmp	eax, 12304				; 00003010H
	jne	SHORT $LN3@Vehicle_Pr

; 613  : 	{
; 614  : 		VehicleGameObjDef *def2 = (VehicleGameObjDef *)def;

	mov	eax, DWORD PTR _def$[ebp]
	mov	DWORD PTR _def2$1[ebp], eax

; 615  : 		if (def2->Get_Type() == VEHICLE_TYPE_BOAT || def2->Get_Type() == VEHICLE_TYPE_SUB)

	mov	ecx, DWORD PTR _def2$1[ebp]
	call	?Get_Type@VehicleGameObjDef@@QBE?AW4VehicleType@@XZ ; VehicleGameObjDef::Get_Type
	cmp	eax, 5
	je	SHORT $LN1@Vehicle_Pr
	mov	ecx, DWORD PTR _def2$1[ebp]
	call	?Get_Type@VehicleGameObjDef@@QBE?AW4VehicleType@@XZ ; VehicleGameObjDef::Get_Type
	cmp	eax, 6
	jne	SHORT $LN3@Vehicle_Pr
$LN1@Vehicle_Pr:

; 616  : 		{
; 617  : 			return true;

	mov	al, 1
	jmp	SHORT $LN5@Vehicle_Pr
$LN3@Vehicle_Pr:

; 618  : 		}
; 619  : 	}
; 620  : 	return false;

	xor	al, al
$LN5@Vehicle_Pr:

; 621  : }

	pop	edi
	pop	esi
	pop	ebx
	mov	esp, ebp
	pop	ebp
	ret	0
?Vehicle_Preset_Is_Naval@@YA_NH@Z ENDP			; Vehicle_Preset_Is_Naval
_TEXT	ENDS
; Function compile flags: /Odtp /ZI
; File x:\github\renegade\dragonade_rxd\scripts\engine_game.cpp
;	COMDAT ?Vehicle_Preset_Is_Air@@YA_NH@Z
_TEXT	SEGMENT
_def2$1 = -8						; size = 4
_def$ = -4						; size = 4
_preset$ = 8						; size = 4
?Vehicle_Preset_Is_Air@@YA_NH@Z PROC			; Vehicle_Preset_Is_Air, COMDAT

; 589  : {

	push	ebp
	mov	ebp, esp
	sub	esp, 72					; 00000048H
	push	ebx
	push	esi
	push	edi

; 590  : 	DefinitionClass *def = DefinitionMgrClass::Find_Definition(preset,true);

	push	1
	mov	eax, DWORD PTR _preset$[ebp]
	push	eax
	call	DWORD PTR __imp_?Find_Definition@DefinitionMgrClass@@SAPAVDefinitionClass@@I_N@Z
	add	esp, 8
	mov	DWORD PTR _def$[ebp], eax

; 591  : 	if (!def)

	cmp	DWORD PTR _def$[ebp], 0
	jne	SHORT $LN3@Vehicle_Pr

; 592  : 	{
; 593  : 		return false;

	xor	al, al
	jmp	SHORT $LN4@Vehicle_Pr
$LN3@Vehicle_Pr:

; 594  : 	}
; 595  : 	if (def->Get_Class_ID() == 12304)

	mov	eax, DWORD PTR _def$[ebp]
	mov	edx, DWORD PTR [eax]
	mov	ecx, DWORD PTR _def$[ebp]
	mov	eax, DWORD PTR [edx+32]
	call	eax
	cmp	eax, 12304				; 00003010H
	jne	SHORT $LN2@Vehicle_Pr

; 596  : 	{
; 597  : 		VehicleGameObjDef *def2 = (VehicleGameObjDef *)def;

	mov	eax, DWORD PTR _def$[ebp]
	mov	DWORD PTR _def2$1[ebp], eax

; 598  : 		if (def2->Get_Type() == VEHICLE_TYPE_FLYING && !def2->Get_Build_At_Ground())

	mov	ecx, DWORD PTR _def2$1[ebp]
	call	?Get_Type@VehicleGameObjDef@@QBE?AW4VehicleType@@XZ ; VehicleGameObjDef::Get_Type
	cmp	eax, 3
	jne	SHORT $LN2@Vehicle_Pr
	mov	ecx, DWORD PTR _def2$1[ebp]
	call	?Get_Build_At_Ground@VehicleGameObjDef@@QBE_NXZ ; VehicleGameObjDef::Get_Build_At_Ground
	movzx	eax, al
	test	eax, eax
	jne	SHORT $LN2@Vehicle_Pr

; 599  : 		{
; 600  : 			return true;

	mov	al, 1
	jmp	SHORT $LN4@Vehicle_Pr
$LN2@Vehicle_Pr:

; 601  : 		}
; 602  : 	}
; 603  : 	return false;

	xor	al, al
$LN4@Vehicle_Pr:

; 604  : }

	pop	edi
	pop	esi
	pop	ebx
	mov	esp, ebp
	pop	ebp
	ret	0
?Vehicle_Preset_Is_Air@@YA_NH@Z ENDP			; Vehicle_Preset_Is_Air
_TEXT	ENDS
; Function compile flags: /Odtp /ZI
; File x:\github\renegade\dragonade_rxd\scripts\engine_game.cpp
;	COMDAT ?Is_Harvester_Preset@@YA_NPAVScriptableGameObj@@@Z
_TEXT	SEGMENT
_ID$ = -4						; size = 4
_obj$ = 8						; size = 4
?Is_Harvester_Preset@@YA_NPAVScriptableGameObj@@@Z PROC	; Is_Harvester_Preset, COMDAT

; 574  : {

	push	ebp
	mov	ebp, esp
	sub	esp, 68					; 00000044H
	push	ebx
	push	esi
	push	edi

; 575  : 	int ID = Commands->Get_Preset_ID(obj);

	mov	eax, DWORD PTR _obj$[ebp]
	push	eax
	mov	ecx, DWORD PTR ?Commands@@3PAUScriptCommands@@A ; Commands
	mov	edx, DWORD PTR [ecx+112]
	call	edx
	add	esp, 4
	mov	DWORD PTR _ID$[ebp], eax

; 576  : 	if (Get_Harvester_Preset_ID(0) == ID || Get_Harvester_Preset_ID(1) == ID)

	push	0
	call	?Get_Harvester_Preset_ID@@YAHH@Z	; Get_Harvester_Preset_ID
	add	esp, 4
	cmp	eax, DWORD PTR _ID$[ebp]
	je	SHORT $LN1@Is_Harvest
	push	1
	call	?Get_Harvester_Preset_ID@@YAHH@Z	; Get_Harvester_Preset_ID
	add	esp, 4
	cmp	eax, DWORD PTR _ID$[ebp]
	jne	SHORT $LN2@Is_Harvest
$LN1@Is_Harvest:

; 577  : 	{
; 578  : 		return true;

	mov	al, 1
	jmp	SHORT $LN3@Is_Harvest
$LN2@Is_Harvest:

; 579  : 	}
; 580  : 	return false;

	xor	al, al
$LN3@Is_Harvest:

; 581  : }

	pop	edi
	pop	esi
	pop	ebx
	mov	esp, ebp
	pop	ebp
	ret	0
?Is_Harvester_Preset@@YA_NPAVScriptableGameObj@@@Z ENDP	; Is_Harvester_Preset
_TEXT	ENDS
; Function compile flags: /Odtp /ZI
; File x:\github\renegade\dragonade_rxd\scripts\engine_game.cpp
;	COMDAT ?Get_Harvester_Preset_ID@@YAHH@Z
_TEXT	SEGMENT
tv70 = -72						; size = 4
_Ref$ = -4						; size = 4
_Team$ = 8						; size = 4
?Get_Harvester_Preset_ID@@YAHH@Z PROC			; Get_Harvester_Preset_ID, COMDAT

; 560  : {

	push	ebp
	mov	ebp, esp
	sub	esp, 72					; 00000048H
	push	ebx
	push	esi
	push	edi

; 561  : 	if (!Find_Refinery(Team))

	mov	eax, DWORD PTR _Team$[ebp]
	push	eax
	call	?Find_Refinery@@YAPAVScriptableGameObj@@H@Z ; Find_Refinery
	add	esp, 4
	test	eax, eax
	jne	SHORT $LN3@Get_Harves

; 562  : 	{
; 563  : 		return 0;

	xor	eax, eax
	jmp	SHORT $LN4@Get_Harves
$LN3@Get_Harves:

; 564  : 	}
; 565  : 	BuildingGameObj *Ref = Find_Refinery(Team)->As_BuildingGameObj();

	mov	eax, DWORD PTR _Team$[ebp]
	push	eax
	call	?Find_Refinery@@YAPAVScriptableGameObj@@H@Z ; Find_Refinery
	add	esp, 4
	mov	DWORD PTR tv70[ebp], eax
	mov	ecx, DWORD PTR tv70[ebp]
	mov	edx, DWORD PTR [ecx]
	mov	ecx, DWORD PTR tv70[ebp]
	mov	eax, DWORD PTR [edx+64]
	call	eax
	mov	DWORD PTR _Ref$[ebp], eax

; 566  : 	if (!Ref || !Ref->As_RefineryGameObj())

	cmp	DWORD PTR _Ref$[ebp], 0
	je	SHORT $LN1@Get_Harves
	mov	eax, DWORD PTR _Ref$[ebp]
	mov	edx, DWORD PTR [eax]
	mov	ecx, DWORD PTR _Ref$[ebp]
	mov	eax, DWORD PTR [edx+132]
	call	eax
	test	eax, eax
	jne	SHORT $LN2@Get_Harves
$LN1@Get_Harves:

; 567  : 	{
; 568  : 		return 0;

	xor	eax, eax
	jmp	SHORT $LN4@Get_Harves
$LN2@Get_Harves:

; 569  : 	}
; 570  : 	return Ref->As_RefineryGameObj()->Get_Harvester_Def_ID();

	mov	eax, DWORD PTR _Ref$[ebp]
	mov	edx, DWORD PTR [eax]
	mov	ecx, DWORD PTR _Ref$[ebp]
	mov	eax, DWORD PTR [edx+132]
	call	eax
	mov	ecx, eax
	call	?Get_Harvester_Def_ID@RefineryGameObj@@QBEHXZ ; RefineryGameObj::Get_Harvester_Def_ID
$LN4@Get_Harves:

; 571  : }

	pop	edi
	pop	esi
	pop	ebx
	mov	esp, ebp
	pop	ebp
	ret	0
?Get_Harvester_Preset_ID@@YAHH@Z ENDP			; Get_Harvester_Preset_ID
_TEXT	ENDS
; Function compile flags: /Odtp /ZI
; File x:\github\renegade\dragonade_rxd\scripts\engine_game.cpp
;	COMDAT ?Get_Public_Message_Color@@YAXPAI00@Z
_TEXT	SEGMENT
tv146 = -84						; size = 8
tv133 = -84						; size = 8
tv88 = -84						; size = 8
tv144 = -76						; size = 4
tv131 = -76						; size = 4
tv86 = -76						; size = 4
tv141 = -70						; size = 2
tv128 = -70						; size = 2
tv83 = -70						; size = 2
tv139 = -68						; size = 4
tv94 = -68						; size = 4
tv81 = -68						; size = 4
_red$ = 8						; size = 4
_green$ = 12						; size = 4
_blue$ = 16						; size = 4
?Get_Public_Message_Color@@YAXPAI00@Z PROC		; Get_Public_Message_Color, COMDAT

; 553  : {

	push	ebp
	mov	ebp, esp
	sub	esp, 84					; 00000054H
	push	ebx
	push	esi
	push	edi

; 554  : 	*red = (unsigned int)(PublicMessageColor.X*255);

	mov	eax, DWORD PTR ?PublicMessageColor@@3AAVVector3@@A ; PublicMessageColor
	movss	xmm0, DWORD PTR [eax]
	mulss	xmm0, DWORD PTR __real@437f0000
	movss	DWORD PTR tv81[ebp], xmm0
	fld	DWORD PTR tv81[ebp]
	fnstcw	WORD PTR tv83[ebp]
	movzx	eax, WORD PTR tv83[ebp]
	or	eax, 3072				; 00000c00H
	mov	DWORD PTR tv86[ebp], eax
	fldcw	WORD PTR tv86[ebp]
	fistp	QWORD PTR tv88[ebp]
	fldcw	WORD PTR tv83[ebp]
	mov	ecx, DWORD PTR tv88[ebp]
	mov	edx, DWORD PTR _red$[ebp]
	mov	DWORD PTR [edx], ecx

; 555  : 	*green = (unsigned int)(PublicMessageColor.Y*255);

	mov	eax, DWORD PTR ?PublicMessageColor@@3AAVVector3@@A ; PublicMessageColor
	movss	xmm0, DWORD PTR [eax+4]
	mulss	xmm0, DWORD PTR __real@437f0000
	movss	DWORD PTR tv94[ebp], xmm0
	fld	DWORD PTR tv94[ebp]
	fnstcw	WORD PTR tv128[ebp]
	movzx	eax, WORD PTR tv128[ebp]
	or	eax, 3072				; 00000c00H
	mov	DWORD PTR tv131[ebp], eax
	fldcw	WORD PTR tv131[ebp]
	fistp	QWORD PTR tv133[ebp]
	fldcw	WORD PTR tv128[ebp]
	mov	ecx, DWORD PTR tv133[ebp]
	mov	edx, DWORD PTR _green$[ebp]
	mov	DWORD PTR [edx], ecx

; 556  : 	*blue = (unsigned int)(PublicMessageColor.Z*255);

	mov	eax, DWORD PTR ?PublicMessageColor@@3AAVVector3@@A ; PublicMessageColor
	movss	xmm0, DWORD PTR [eax+8]
	mulss	xmm0, DWORD PTR __real@437f0000
	movss	DWORD PTR tv139[ebp], xmm0
	fld	DWORD PTR tv139[ebp]
	fnstcw	WORD PTR tv141[ebp]
	movzx	eax, WORD PTR tv141[ebp]
	or	eax, 3072				; 00000c00H
	mov	DWORD PTR tv144[ebp], eax
	fldcw	WORD PTR tv144[ebp]
	fistp	QWORD PTR tv146[ebp]
	fldcw	WORD PTR tv141[ebp]
	mov	ecx, DWORD PTR tv146[ebp]
	mov	edx, DWORD PTR _blue$[ebp]
	mov	DWORD PTR [edx], ecx

; 557  : }

	pop	edi
	pop	esi
	pop	ebx
	mov	esp, ebp
	pop	ebp
	ret	0
?Get_Public_Message_Color@@YAXPAI00@Z ENDP		; Get_Public_Message_Color
_TEXT	ENDS
; Function compile flags: /Odtp /ZI
; File x:\github\renegade\dragonade_rxd\scripts\engine_game.cpp
;	COMDAT ?Get_Private_Message_Color@@YAXPAI00@Z
_TEXT	SEGMENT
tv146 = -84						; size = 8
tv133 = -84						; size = 8
tv88 = -84						; size = 8
tv144 = -76						; size = 4
tv131 = -76						; size = 4
tv86 = -76						; size = 4
tv141 = -70						; size = 2
tv128 = -70						; size = 2
tv83 = -70						; size = 2
tv139 = -68						; size = 4
tv94 = -68						; size = 4
tv81 = -68						; size = 4
_red$ = 8						; size = 4
_green$ = 12						; size = 4
_blue$ = 16						; size = 4
?Get_Private_Message_Color@@YAXPAI00@Z PROC		; Get_Private_Message_Color, COMDAT

; 546  : {

	push	ebp
	mov	ebp, esp
	sub	esp, 84					; 00000054H
	push	ebx
	push	esi
	push	edi

; 547  : 	*red = (unsigned int)(PrivateMessageColor.X*255);

	mov	eax, DWORD PTR ?PrivateMessageColor@@3AAVVector3@@A ; PrivateMessageColor
	movss	xmm0, DWORD PTR [eax]
	mulss	xmm0, DWORD PTR __real@437f0000
	movss	DWORD PTR tv81[ebp], xmm0
	fld	DWORD PTR tv81[ebp]
	fnstcw	WORD PTR tv83[ebp]
	movzx	eax, WORD PTR tv83[ebp]
	or	eax, 3072				; 00000c00H
	mov	DWORD PTR tv86[ebp], eax
	fldcw	WORD PTR tv86[ebp]
	fistp	QWORD PTR tv88[ebp]
	fldcw	WORD PTR tv83[ebp]
	mov	ecx, DWORD PTR tv88[ebp]
	mov	edx, DWORD PTR _red$[ebp]
	mov	DWORD PTR [edx], ecx

; 548  : 	*green = (unsigned int)(PrivateMessageColor.Y*255);

	mov	eax, DWORD PTR ?PrivateMessageColor@@3AAVVector3@@A ; PrivateMessageColor
	movss	xmm0, DWORD PTR [eax+4]
	mulss	xmm0, DWORD PTR __real@437f0000
	movss	DWORD PTR tv94[ebp], xmm0
	fld	DWORD PTR tv94[ebp]
	fnstcw	WORD PTR tv128[ebp]
	movzx	eax, WORD PTR tv128[ebp]
	or	eax, 3072				; 00000c00H
	mov	DWORD PTR tv131[ebp], eax
	fldcw	WORD PTR tv131[ebp]
	fistp	QWORD PTR tv133[ebp]
	fldcw	WORD PTR tv128[ebp]
	mov	ecx, DWORD PTR tv133[ebp]
	mov	edx, DWORD PTR _green$[ebp]
	mov	DWORD PTR [edx], ecx

; 549  : 	*blue = (unsigned int)(PrivateMessageColor.Z*255);

	mov	eax, DWORD PTR ?PrivateMessageColor@@3AAVVector3@@A ; PrivateMessageColor
	movss	xmm0, DWORD PTR [eax+8]
	mulss	xmm0, DWORD PTR __real@437f0000
	movss	DWORD PTR tv139[ebp], xmm0
	fld	DWORD PTR tv139[ebp]
	fnstcw	WORD PTR tv141[ebp]
	movzx	eax, WORD PTR tv141[ebp]
	or	eax, 3072				; 00000c00H
	mov	DWORD PTR tv144[ebp], eax
	fldcw	WORD PTR tv144[ebp]
	fistp	QWORD PTR tv146[ebp]
	fldcw	WORD PTR tv141[ebp]
	mov	ecx, DWORD PTR tv146[ebp]
	mov	edx, DWORD PTR _blue$[ebp]
	mov	DWORD PTR [edx], ecx

; 550  : }

	pop	edi
	pop	esi
	pop	ebx
	mov	esp, ebp
	pop	ebp
	ret	0
?Get_Private_Message_Color@@YAXPAI00@Z ENDP		; Get_Private_Message_Color
_TEXT	ENDS
; Function compile flags: /Odtp /ZI
; File x:\github\renegade\dragonade_rxd\scripts\engine_game.cpp
;	COMDAT ?Get_Current_Game_Mode@@YAIXZ
_TEXT	SEGMENT
?Get_Current_Game_Mode@@YAIXZ PROC			; Get_Current_Game_Mode, COMDAT

; 503  : {

	push	ebp
	mov	ebp, esp
	sub	esp, 64					; 00000040H
	push	ebx
	push	esi
	push	edi

; 504  : 	if (cGameType::GameType == 1)

	mov	eax, DWORD PTR ?GameType@cGameType@@2AAHA ; cGameType::GameType
	cmp	DWORD PTR [eax], 1
	jne	SHORT $LN10@Get_Curren

; 505  : 	{
; 506  : 		return 1;

	mov	eax, 1
	jmp	$LN11@Get_Curren
$LN10@Get_Curren:

; 507  : 	}
; 508  : 	if (cGameType::GameType == 2)

	mov	eax, DWORD PTR ?GameType@cGameType@@2AAHA ; cGameType::GameType
	cmp	DWORD PTR [eax], 2
	jne	SHORT $LN9@Get_Curren

; 509  : 	{
; 510  : 		return 2;

	mov	eax, 2
	jmp	$LN11@Get_Curren
$LN9@Get_Curren:

; 511  : 	}
; 512  : 	if (cGameType::GameType == 3)

	mov	eax, DWORD PTR ?GameType@cGameType@@2AAHA ; cGameType::GameType
	cmp	DWORD PTR [eax], 3
	jne	SHORT $LN8@Get_Curren

; 513  : 	{
; 514  : 		if (GameMode == 1)

	mov	eax, DWORD PTR ?GameMode@@3AAIA		; GameMode
	cmp	DWORD PTR [eax], 1
	jne	SHORT $LN7@Get_Curren

; 515  : 		{
; 516  : 			return 5;

	mov	eax, 5
	jmp	SHORT $LN11@Get_Curren
$LN7@Get_Curren:

; 517  : 		}
; 518  : 		if (GameMode == 2)

	mov	eax, DWORD PTR ?GameMode@@3AAIA		; GameMode
	cmp	DWORD PTR [eax], 2
	jne	SHORT $LN6@Get_Curren

; 519  : 		{
; 520  : 			return 3;

	mov	eax, 3
	jmp	SHORT $LN11@Get_Curren
$LN6@Get_Curren:

; 521  : 		}
; 522  : 		if (GameMode == 3)

	mov	eax, DWORD PTR ?GameMode@@3AAIA		; GameMode
	cmp	DWORD PTR [eax], 3
	jne	SHORT $LN5@Get_Curren

; 523  : 		{
; 524  : 			return 4;

	mov	eax, 4
	jmp	SHORT $LN11@Get_Curren
$LN5@Get_Curren:

; 525  : 		}
; 526  : 		if (Game_Mode_Find("WOL"))

	push	OFFSET ??_C@_03KPGLNNAM@WOL?$AA@
	call	?Game_Mode_Find@@YAPAXPBD@Z		; Game_Mode_Find
	add	esp, 4
	test	eax, eax
	je	SHORT $LN4@Get_Curren

; 527  : 		{
; 528  : 			return 3;

	mov	eax, 3
	jmp	SHORT $LN11@Get_Curren
$LN4@Get_Curren:

; 529  : 		}
; 530  : 		if (Game_Mode_Find("LAN"))

	push	OFFSET ??_C@_03BANLECBK@LAN?$AA@
	call	?Game_Mode_Find@@YAPAXPBD@Z		; Game_Mode_Find
	add	esp, 4
	test	eax, eax
	je	SHORT $LN8@Get_Curren

; 531  : 		{
; 532  : 			if (IsListed)

	mov	eax, DWORD PTR ?IsListed@@3AA_NA	; IsListed
	movzx	ecx, BYTE PTR [eax]
	test	ecx, ecx
	je	SHORT $LN2@Get_Curren

; 533  : 			{
; 534  : 				return 4;

	mov	eax, 4
	jmp	SHORT $LN11@Get_Curren

; 535  : 			}
; 536  : 			else

	jmp	SHORT $LN8@Get_Curren
$LN2@Get_Curren:

; 537  : 			{
; 538  : 				return 5;

	mov	eax, 5
	jmp	SHORT $LN11@Get_Curren
$LN8@Get_Curren:

; 539  : 			}
; 540  : 		}
; 541  : 	}
; 542  : 	return 0;

	xor	eax, eax
$LN11@Get_Curren:

; 543  : }

	pop	edi
	pop	esi
	pop	ebx
	mov	esp, ebp
	pop	ebp
	ret	0
?Get_Current_Game_Mode@@YAIXZ ENDP			; Get_Current_Game_Mode
_TEXT	ENDS
; Function compile flags: /Odtp /ZI
; File x:\github\renegade\dragonade_rxd\scripts\engine_game.cpp
;	COMDAT ?Is_Dedicated@@YA_NXZ
_TEXT	SEGMENT
tv65 = -68						; size = 4
?Is_Dedicated@@YA_NXZ PROC				; Is_Dedicated, COMDAT

; 498  : {

	push	ebp
	mov	ebp, esp
	sub	esp, 68					; 00000044H
	push	ebx
	push	esi
	push	edi

; 499  : 	return Exe == 1;

	cmp	DWORD PTR ?Exe@@3HA, 1			; Exe
	jne	SHORT $LN3@Is_Dedicat
	mov	DWORD PTR tv65[ebp], 1
	jmp	SHORT $LN4@Is_Dedicat
$LN3@Is_Dedicat:
	mov	DWORD PTR tv65[ebp], 0
$LN4@Is_Dedicat:
	mov	al, BYTE PTR tv65[ebp]

; 500  : }

	pop	edi
	pop	esi
	pop	ebx
	mov	esp, ebp
	pop	ebp
	ret	0
?Is_Dedicated@@YA_NXZ ENDP				; Is_Dedicated
_TEXT	ENDS
; Function compile flags: /Odtp /ZI
; File x:\github\renegade\dragonade_rxd\scripts\engine_game.cpp
;	COMDAT ?Is_Gameplay_Permitted@@YA_NXZ
_TEXT	SEGMENT
tv66 = -68						; size = 4
?Is_Gameplay_Permitted@@YA_NXZ PROC			; Is_Gameplay_Permitted, COMDAT

; 493  : {

	push	ebp
	mov	ebp, esp
	sub	esp, 68					; 00000044H
	push	ebx
	push	esi
	push	edi

; 494  : 	return The_Game()->Is_Gameplay_Permitted();

	call	?The_Game@@YAPAVcGameData@@XZ		; The_Game
	mov	DWORD PTR tv66[ebp], eax
	mov	eax, DWORD PTR tv66[ebp]
	mov	edx, DWORD PTR [eax]
	mov	ecx, DWORD PTR tv66[ebp]
	mov	eax, DWORD PTR [edx+132]
	call	eax

; 495  : }

	pop	edi
	pop	esi
	pop	ebx
	mov	esp, ebp
	pop	ebp
	ret	0
?Is_Gameplay_Permitted@@YA_NXZ ENDP			; Is_Gameplay_Permitted
_TEXT	ENDS
; Function compile flags: /Odtp /ZI
; File x:\github\renegade\dragonade_rxd\scripts\engine_game.cpp
;	COMDAT ?Restore_Building@@YAXPAVScriptableGameObj@@@Z
_TEXT	SEGMENT
_Building$ = -4						; size = 4
_obj$ = 8						; size = 4
?Restore_Building@@YAXPAVScriptableGameObj@@@Z PROC	; Restore_Building, COMDAT

; 483  : {

	push	ebp
	mov	ebp, esp
	sub	esp, 68					; 00000044H
	push	ebx
	push	esi
	push	edi

; 484  : 	if (!obj) return;

	cmp	DWORD PTR _obj$[ebp], 0
	jne	SHORT $LN2@Restore_Bu
	jmp	SHORT $LN3@Restore_Bu
$LN2@Restore_Bu:

; 485  : 	BuildingGameObj *Building = obj->As_BuildingGameObj();

	mov	eax, DWORD PTR _obj$[ebp]
	mov	edx, DWORD PTR [eax]
	mov	ecx, DWORD PTR _obj$[ebp]
	mov	eax, DWORD PTR [edx+64]
	call	eax
	mov	DWORD PTR _Building$[ebp], eax

; 486  : 	if (Building)

	cmp	DWORD PTR _Building$[ebp], 0
	je	SHORT $LN3@Restore_Bu

; 487  : 	{
; 488  : 		Building->On_Revived();

	mov	eax, DWORD PTR _Building$[ebp]
	mov	edx, DWORD PTR [eax]
	mov	ecx, DWORD PTR _Building$[ebp]
	mov	eax, DWORD PTR [edx+156]
	call	eax
$LN3@Restore_Bu:

; 489  : 	}
; 490  : }

	pop	edi
	pop	esi
	pop	ebx
	mov	esp, ebp
	pop	ebp
	ret	0
?Restore_Building@@YAXPAVScriptableGameObj@@@Z ENDP	; Restore_Building
_TEXT	ENDS
; Function compile flags: /Odtp /ZI
; File x:\github\renegade\dragonade_rxd\scripts\engine_game.cpp
;	COMDAT ?Find_Shrine@@YAPAVScriptableGameObj@@H@Z
_TEXT	SEGMENT
_Team$ = 8						; size = 4
?Find_Shrine@@YAPAVScriptableGameObj@@H@Z PROC		; Find_Shrine, COMDAT

; 413  : {

	push	ebp
	mov	ebp, esp
	sub	esp, 64					; 00000040H
	push	ebx
	push	esi
	push	edi

; 414  : 	return Find_Building_By_Type(Team,BuildingConstants::TYPE_SHRINE);

	push	6
	mov	eax, DWORD PTR _Team$[ebp]
	push	eax
	call	?Find_Building_By_Type@@YAPAVScriptableGameObj@@HH@Z ; Find_Building_By_Type
	add	esp, 8

; 415  : }

	pop	edi
	pop	esi
	pop	ebx
	mov	esp, ebp
	pop	ebp
	ret	0
?Find_Shrine@@YAPAVScriptableGameObj@@H@Z ENDP		; Find_Shrine
_TEXT	ENDS
; Function compile flags: /Odtp /ZI
; File x:\github\renegade\dragonade_rxd\scripts\engine_game.cpp
;	COMDAT ?Find_Helipad@@YAPAVScriptableGameObj@@H@Z
_TEXT	SEGMENT
_Team$ = 8						; size = 4
?Find_Helipad@@YAPAVScriptableGameObj@@H@Z PROC		; Find_Helipad, COMDAT

; 418  : {

	push	ebp
	mov	ebp, esp
	sub	esp, 64					; 00000040H
	push	ebx
	push	esi
	push	edi

; 419  : 	return Find_Building_By_Type(Team,BuildingConstants::TYPE_HELIPAD);

	push	7
	mov	eax, DWORD PTR _Team$[ebp]
	push	eax
	call	?Find_Building_By_Type@@YAPAVScriptableGameObj@@HH@Z ; Find_Building_By_Type
	add	esp, 8

; 420  : }

	pop	edi
	pop	esi
	pop	ebx
	mov	esp, ebp
	pop	ebp
	ret	0
?Find_Helipad@@YAPAVScriptableGameObj@@H@Z ENDP		; Find_Helipad
_TEXT	ENDS
; Function compile flags: /Odtp /ZI
; File x:\github\renegade\dragonade_rxd\scripts\engine_game.cpp
;	COMDAT ?Find_Tech_Center@@YAPAVScriptableGameObj@@H@Z
_TEXT	SEGMENT
_Team$ = 8						; size = 4
?Find_Tech_Center@@YAPAVScriptableGameObj@@H@Z PROC	; Find_Tech_Center, COMDAT

; 423  : {

	push	ebp
	mov	ebp, esp
	sub	esp, 64					; 00000040H
	push	ebx
	push	esi
	push	edi

; 424  : 	return Find_Building_By_Type(Team,BuildingConstants::TYPE_TECH_CENTER);

	push	10					; 0000000aH
	mov	eax, DWORD PTR _Team$[ebp]
	push	eax
	call	?Find_Building_By_Type@@YAPAVScriptableGameObj@@HH@Z ; Find_Building_By_Type
	add	esp, 8

; 425  : }

	pop	edi
	pop	esi
	pop	ebx
	mov	esp, ebp
	pop	ebp
	ret	0
?Find_Tech_Center@@YAPAVScriptableGameObj@@H@Z ENDP	; Find_Tech_Center
_TEXT	ENDS
; Function compile flags: /Odtp /ZI
; File x:\github\renegade\dragonade_rxd\scripts\engine_game.cpp
;	COMDAT ?Find_Naval_Factory@@YAPAVScriptableGameObj@@H@Z
_TEXT	SEGMENT
_Team$ = 8						; size = 4
?Find_Naval_Factory@@YAPAVScriptableGameObj@@H@Z PROC	; Find_Naval_Factory, COMDAT

; 428  : {

	push	ebp
	mov	ebp, esp
	sub	esp, 64					; 00000040H
	push	ebx
	push	esi
	push	edi

; 429  : 	return Find_Building_By_Type(Team,BuildingConstants::TYPE_NAVAL_FACTORY);

	push	11					; 0000000bH
	mov	eax, DWORD PTR _Team$[ebp]
	push	eax
	call	?Find_Building_By_Type@@YAPAVScriptableGameObj@@HH@Z ; Find_Building_By_Type
	add	esp, 8

; 430  : }

	pop	edi
	pop	esi
	pop	ebx
	mov	esp, ebp
	pop	ebp
	ret	0
?Find_Naval_Factory@@YAPAVScriptableGameObj@@H@Z ENDP	; Find_Naval_Factory
_TEXT	ENDS
; Function compile flags: /Odtp /ZI
; File x:\github\renegade\dragonade_rxd\scripts\engine_game.cpp
;	COMDAT ?Find_Special@@YAPAVScriptableGameObj@@H@Z
_TEXT	SEGMENT
_Team$ = 8						; size = 4
?Find_Special@@YAPAVScriptableGameObj@@H@Z PROC		; Find_Special, COMDAT

; 433  : {

	push	ebp
	mov	ebp, esp
	sub	esp, 64					; 00000040H
	push	ebx
	push	esi
	push	edi

; 434  : 	return Find_Building_By_Type(Team,BuildingConstants::TYPE_SPECIAL);

	push	12					; 0000000cH
	mov	eax, DWORD PTR _Team$[ebp]
	push	eax
	call	?Find_Building_By_Type@@YAPAVScriptableGameObj@@HH@Z ; Find_Building_By_Type
	add	esp, 8

; 435  : }

	pop	edi
	pop	esi
	pop	ebx
	mov	esp, ebp
	pop	ebp
	ret	0
?Find_Special@@YAPAVScriptableGameObj@@H@Z ENDP		; Find_Special
_TEXT	ENDS
; Function compile flags: /Odtp /ZI
; File x:\github\renegade\dragonade_rxd\scripts\engine_game.cpp
;	COMDAT ?Find_Com_Center@@YAPAVScriptableGameObj@@H@Z
_TEXT	SEGMENT
_Team$ = 8						; size = 4
?Find_Com_Center@@YAPAVScriptableGameObj@@H@Z PROC	; Find_Com_Center, COMDAT

; 438  : {

	push	ebp
	mov	ebp, esp
	sub	esp, 64					; 00000040H
	push	ebx
	push	esi
	push	edi

; 439  : 	return Find_Building_By_Type(Team,BuildingConstants::TYPE_COM_CENTER);

	push	4
	mov	eax, DWORD PTR _Team$[ebp]
	push	eax
	call	?Find_Building_By_Type@@YAPAVScriptableGameObj@@HH@Z ; Find_Building_By_Type
	add	esp, 8

; 440  : }

	pop	edi
	pop	esi
	pop	ebx
	mov	esp, ebp
	pop	ebp
	ret	0
?Find_Com_Center@@YAPAVScriptableGameObj@@H@Z ENDP	; Find_Com_Center
_TEXT	ENDS
; Function compile flags: /Odtp /ZI
; File x:\github\renegade\dragonade_rxd\scripts\engine_game.cpp
;	COMDAT ?Find_Vehicle_Factory@@YAPAVScriptableGameObj@@H@Z
_TEXT	SEGMENT
_Team$ = 8						; size = 4
?Find_Vehicle_Factory@@YAPAVScriptableGameObj@@H@Z PROC	; Find_Vehicle_Factory, COMDAT

; 408  : {

	push	ebp
	mov	ebp, esp
	sub	esp, 64					; 00000040H
	push	ebx
	push	esi
	push	edi

; 409  : 	return Find_Building_By_Type(Team,BuildingConstants::TYPE_VEHICLE_FACTORY);

	push	2
	mov	eax, DWORD PTR _Team$[ebp]
	push	eax
	call	?Find_Building_By_Type@@YAPAVScriptableGameObj@@HH@Z ; Find_Building_By_Type
	add	esp, 8

; 410  : }

	pop	edi
	pop	esi
	pop	ebx
	mov	esp, ebp
	pop	ebp
	ret	0
?Find_Vehicle_Factory@@YAPAVScriptableGameObj@@H@Z ENDP	; Find_Vehicle_Factory
_TEXT	ENDS
; Function compile flags: /Odtp /ZI
; File x:\github\renegade\dragonade_rxd\scripts\engine_game.cpp
;	COMDAT ?Find_Soldier_Factory@@YAPAVScriptableGameObj@@H@Z
_TEXT	SEGMENT
_Team$ = 8						; size = 4
?Find_Soldier_Factory@@YAPAVScriptableGameObj@@H@Z PROC	; Find_Soldier_Factory, COMDAT

; 403  : {

	push	ebp
	mov	ebp, esp
	sub	esp, 64					; 00000040H
	push	ebx
	push	esi
	push	edi

; 404  : 	return Find_Building_By_Type(Team,BuildingConstants::TYPE_SOLDIER_FACTORY);

	push	1
	mov	eax, DWORD PTR _Team$[ebp]
	push	eax
	call	?Find_Building_By_Type@@YAPAVScriptableGameObj@@HH@Z ; Find_Building_By_Type
	add	esp, 8

; 405  : }

	pop	edi
	pop	esi
	pop	ebx
	mov	esp, ebp
	pop	ebp
	ret	0
?Find_Soldier_Factory@@YAPAVScriptableGameObj@@H@Z ENDP	; Find_Soldier_Factory
_TEXT	ENDS
; Function compile flags: /Odtp /ZI
; File x:\github\renegade\dragonade_rxd\scripts\engine_game.cpp
;	COMDAT ?Find_Repair_Bay@@YAPAVScriptableGameObj@@H@Z
_TEXT	SEGMENT
_Team$ = 8						; size = 4
?Find_Repair_Bay@@YAPAVScriptableGameObj@@H@Z PROC	; Find_Repair_Bay, COMDAT

; 398  : {

	push	ebp
	mov	ebp, esp
	sub	esp, 64					; 00000040H
	push	ebx
	push	esi
	push	edi

; 399  : 	return Find_Building_By_Type(Team,BuildingConstants::TYPE_REPAIR_BAY);

	push	5
	mov	eax, DWORD PTR _Team$[ebp]
	push	eax
	call	?Find_Building_By_Type@@YAPAVScriptableGameObj@@HH@Z ; Find_Building_By_Type
	add	esp, 8

; 400  : }

	pop	edi
	pop	esi
	pop	ebx
	mov	esp, ebp
	pop	ebp
	ret	0
?Find_Repair_Bay@@YAPAVScriptableGameObj@@H@Z ENDP	; Find_Repair_Bay
_TEXT	ENDS
; Function compile flags: /Odtp /ZI
; File x:\github\renegade\dragonade_rxd\scripts\engine_game.cpp
;	COMDAT ?Find_Refinery@@YAPAVScriptableGameObj@@H@Z
_TEXT	SEGMENT
_Team$ = 8						; size = 4
?Find_Refinery@@YAPAVScriptableGameObj@@H@Z PROC	; Find_Refinery, COMDAT

; 393  : {

	push	ebp
	mov	ebp, esp
	sub	esp, 64					; 00000040H
	push	ebx
	push	esi
	push	edi

; 394  : 	return Find_Building_By_Type(Team,BuildingConstants::TYPE_REFINERY);

	push	3
	mov	eax, DWORD PTR _Team$[ebp]
	push	eax
	call	?Find_Building_By_Type@@YAPAVScriptableGameObj@@HH@Z ; Find_Building_By_Type
	add	esp, 8

; 395  : }

	pop	edi
	pop	esi
	pop	ebx
	mov	esp, ebp
	pop	ebp
	ret	0
?Find_Refinery@@YAPAVScriptableGameObj@@H@Z ENDP	; Find_Refinery
_TEXT	ENDS
; Function compile flags: /Odtp /ZI
; File x:\github\renegade\dragonade_rxd\scripts\engine_game.cpp
;	COMDAT ?Find_Construction_Yard@@YAPAVScriptableGameObj@@H@Z
_TEXT	SEGMENT
_Team$ = 8						; size = 4
?Find_Construction_Yard@@YAPAVScriptableGameObj@@H@Z PROC ; Find_Construction_Yard, COMDAT

; 388  : {

	push	ebp
	mov	ebp, esp
	sub	esp, 64					; 00000040H
	push	ebx
	push	esi
	push	edi

; 389  : 	return Find_Building_By_Type(Team,BuildingConstants::TYPE_CONYARD);

	push	8
	mov	eax, DWORD PTR _Team$[ebp]
	push	eax
	call	?Find_Building_By_Type@@YAPAVScriptableGameObj@@HH@Z ; Find_Building_By_Type
	add	esp, 8

; 390  : }

	pop	edi
	pop	esi
	pop	ebx
	mov	esp, ebp
	pop	ebp
	ret	0
?Find_Construction_Yard@@YAPAVScriptableGameObj@@H@Z ENDP ; Find_Construction_Yard
_TEXT	ENDS
; Function compile flags: /Odtp /ZI
; File x:\github\renegade\dragonade_rxd\scripts\engine_game.cpp
;	COMDAT ?Find_Power_Plant@@YAPAVScriptableGameObj@@H@Z
_TEXT	SEGMENT
_Team$ = 8						; size = 4
?Find_Power_Plant@@YAPAVScriptableGameObj@@H@Z PROC	; Find_Power_Plant, COMDAT

; 383  : {

	push	ebp
	mov	ebp, esp
	sub	esp, 64					; 00000040H
	push	ebx
	push	esi
	push	edi

; 384  : 	return Find_Building_By_Type(Team,BuildingConstants::TYPE_POWER_PLANT);

	push	0
	mov	eax, DWORD PTR _Team$[ebp]
	push	eax
	call	?Find_Building_By_Type@@YAPAVScriptableGameObj@@HH@Z ; Find_Building_By_Type
	add	esp, 8

; 385  : }

	pop	edi
	pop	esi
	pop	ebx
	mov	esp, ebp
	pop	ebp
	ret	0
?Find_Power_Plant@@YAPAVScriptableGameObj@@H@Z ENDP	; Find_Power_Plant
_TEXT	ENDS
; Function compile flags: /Odtp /ZI
; File x:\github\renegade\dragonade_rxd\scripts\engine_game.cpp
;	COMDAT ?Find_Building_By_Preset@@YAPAVScriptableGameObj@@HPBD@Z
_TEXT	SEGMENT
_d$1 = -12						; size = 4
_o$2 = -8						; size = 4
_x$ = -4						; size = 4
_Team$ = 8						; size = 4
_Preset_Name$ = 12					; size = 4
?Find_Building_By_Preset@@YAPAVScriptableGameObj@@HPBD@Z PROC ; Find_Building_By_Preset, COMDAT

; 461  : {

	push	ebp
	mov	ebp, esp
	sub	esp, 76					; 0000004cH
	push	ebx
	push	esi
	push	edi

; 462  : 	SLNode<BuildingGameObj> *x = GameObjManager::BuildingGameObjList.Head();

	mov	ecx, DWORD PTR ?BuildingGameObjList@GameObjManager@@2AAV?$SList@VBuildingGameObj@@@@A ; GameObjManager::BuildingGameObjList
	call	?Head@?$SList@VBuildingGameObj@@@@QBEPAV?$SLNode@VBuildingGameObj@@@@XZ ; SList<BuildingGameObj>::Head
	mov	DWORD PTR _x$[ebp], eax
$LN6@Find_Build:

; 463  : 	while (x)

	cmp	DWORD PTR _x$[ebp], 0
	je	SHORT $LN5@Find_Build

; 464  : 	{
; 465  : 		GameObject *o = x->Data();

	mov	ecx, DWORD PTR _x$[ebp]
	call	?Data@?$SLNode@VBuildingGameObj@@@@QBEPAVBuildingGameObj@@XZ ; SLNode<BuildingGameObj>::Data
	mov	DWORD PTR _o$2[ebp], eax

; 466  : 		if (o)

	cmp	DWORD PTR _o$2[ebp], 0
	je	SHORT $LN4@Find_Build

; 467  : 		{
; 468  : 			const DefinitionClass *d = &o->Get_Definition();

	mov	ecx, DWORD PTR _o$2[ebp]
	call	?Get_Definition@ScriptableGameObj@@QBEABVScriptableGameObjDef@@XZ ; ScriptableGameObj::Get_Definition
	mov	DWORD PTR _d$1[ebp], eax

; 469  : 			if (!_stricmp(d->Get_Name(),Preset_Name))

	mov	eax, DWORD PTR _Preset_Name$[ebp]
	push	eax
	mov	ecx, DWORD PTR _d$1[ebp]
	mov	edx, DWORD PTR [ecx]
	mov	ecx, DWORD PTR _d$1[ebp]
	mov	eax, DWORD PTR [edx+48]
	call	eax
	push	eax
	call	DWORD PTR __imp___stricmp
	add	esp, 8
	test	eax, eax
	jne	SHORT $LN4@Find_Build

; 470  : 			{
; 471  : 				if ((Get_Object_Type(o) == Team) || (Team == 2))

	mov	eax, DWORD PTR _o$2[ebp]
	push	eax
	call	?Get_Object_Type@@YAHPAVScriptableGameObj@@@Z ; Get_Object_Type
	add	esp, 4
	cmp	eax, DWORD PTR _Team$[ebp]
	je	SHORT $LN1@Find_Build
	cmp	DWORD PTR _Team$[ebp], 2
	jne	SHORT $LN4@Find_Build
$LN1@Find_Build:

; 472  : 				{
; 473  : 					return o;

	mov	eax, DWORD PTR _o$2[ebp]
	jmp	SHORT $LN7@Find_Build
$LN4@Find_Build:

; 474  : 				}
; 475  : 			}
; 476  : 		}
; 477  : 		x = x->Next();

	mov	ecx, DWORD PTR _x$[ebp]
	call	?Next@?$SLNode@VBuildingGameObj@@@@QBEPAV1@XZ ; SLNode<BuildingGameObj>::Next
	mov	DWORD PTR _x$[ebp], eax

; 478  : 	}

	jmp	SHORT $LN6@Find_Build
$LN5@Find_Build:

; 479  : 	return 0;

	xor	eax, eax
$LN7@Find_Build:

; 480  : }

	pop	edi
	pop	esi
	pop	ebx
	mov	esp, ebp
	pop	ebp
	ret	0
?Find_Building_By_Preset@@YAPAVScriptableGameObj@@HPBD@Z ENDP ; Find_Building_By_Preset
_TEXT	ENDS
; Function compile flags: /Odtp /ZI
; File x:\github\renegade\dragonade_rxd\scripts\engine_game.cpp
;	COMDAT ?Find_Building_By_Team@@YAPAVScriptableGameObj@@H@Z
_TEXT	SEGMENT
_o$1 = -8						; size = 4
_x$ = -4						; size = 4
_Team$ = 8						; size = 4
?Find_Building_By_Team@@YAPAVScriptableGameObj@@H@Z PROC ; Find_Building_By_Team, COMDAT

; 443  : {

	push	ebp
	mov	ebp, esp
	sub	esp, 72					; 00000048H
	push	ebx
	push	esi
	push	edi

; 444  : 	SLNode<BuildingGameObj> *x = GameObjManager::BuildingGameObjList.Head();

	mov	ecx, DWORD PTR ?BuildingGameObjList@GameObjManager@@2AAV?$SList@VBuildingGameObj@@@@A ; GameObjManager::BuildingGameObjList
	call	?Head@?$SList@VBuildingGameObj@@@@QBEPAV?$SLNode@VBuildingGameObj@@@@XZ ; SList<BuildingGameObj>::Head
	mov	DWORD PTR _x$[ebp], eax
$LN4@Find_Build:

; 445  : 	while (x)

	cmp	DWORD PTR _x$[ebp], 0
	je	SHORT $LN3@Find_Build

; 446  : 	{
; 447  : 		GameObject *o = x->Data();

	mov	ecx, DWORD PTR _x$[ebp]
	call	?Data@?$SLNode@VBuildingGameObj@@@@QBEPAVBuildingGameObj@@XZ ; SLNode<BuildingGameObj>::Data
	mov	DWORD PTR _o$1[ebp], eax

; 448  : 		if (o)

	cmp	DWORD PTR _o$1[ebp], 0
	je	SHORT $LN2@Find_Build

; 449  : 		{
; 450  : 			if (Get_Object_Type(o) == Team)

	mov	eax, DWORD PTR _o$1[ebp]
	push	eax
	call	?Get_Object_Type@@YAHPAVScriptableGameObj@@@Z ; Get_Object_Type
	add	esp, 4
	cmp	eax, DWORD PTR _Team$[ebp]
	jne	SHORT $LN2@Find_Build

; 451  : 			{
; 452  : 				return o;

	mov	eax, DWORD PTR _o$1[ebp]
	jmp	SHORT $LN5@Find_Build
$LN2@Find_Build:

; 453  : 			}
; 454  : 		}
; 455  : 		x = x->Next();

	mov	ecx, DWORD PTR _x$[ebp]
	call	?Next@?$SLNode@VBuildingGameObj@@@@QBEPAV1@XZ ; SLNode<BuildingGameObj>::Next
	mov	DWORD PTR _x$[ebp], eax

; 456  : 	}

	jmp	SHORT $LN4@Find_Build
$LN3@Find_Build:

; 457  : 	return 0;

	xor	eax, eax
$LN5@Find_Build:

; 458  : }

	pop	edi
	pop	esi
	pop	ebx
	mov	esp, ebp
	pop	ebp
	ret	0
?Find_Building_By_Team@@YAPAVScriptableGameObj@@H@Z ENDP ; Find_Building_By_Team
_TEXT	ENDS
; Function compile flags: /Odtp /ZI
; File x:\github\renegade\dragonade_rxd\scripts\engine_game.cpp
;	COMDAT ?Get_Building_Count_Team@@YAHH@Z
_TEXT	SEGMENT
tv93 = -80						; size = 4
_o$1 = -12						; size = 4
_Count$ = -8						; size = 4
_x$ = -4						; size = 4
_Team$ = 8						; size = 4
?Get_Building_Count_Team@@YAHH@Z PROC			; Get_Building_Count_Team, COMDAT

; 345  : {

	push	ebp
	mov	ebp, esp
	sub	esp, 80					; 00000050H
	push	ebx
	push	esi
	push	edi

; 346  : 	SLNode<BuildingGameObj> *x = GameObjManager::BuildingGameObjList.Head();

	mov	ecx, DWORD PTR ?BuildingGameObjList@GameObjManager@@2AAV?$SList@VBuildingGameObj@@@@A ; GameObjManager::BuildingGameObjList
	call	?Head@?$SList@VBuildingGameObj@@@@QBEPAV?$SLNode@VBuildingGameObj@@@@XZ ; SList<BuildingGameObj>::Head
	mov	DWORD PTR _x$[ebp], eax

; 347  : 	int Count = 0;

	mov	DWORD PTR _Count$[ebp], 0
$LN4@Get_Buildi:

; 348  : 	while (x)

	cmp	DWORD PTR _x$[ebp], 0
	je	SHORT $LN3@Get_Buildi

; 349  : 	{
; 350  : 		GameObject *o = x->Data();

	mov	ecx, DWORD PTR _x$[ebp]
	call	?Data@?$SLNode@VBuildingGameObj@@@@QBEPAVBuildingGameObj@@XZ ; SLNode<BuildingGameObj>::Data
	mov	DWORD PTR _o$1[ebp], eax

; 351  : 		if (o && Commands->Get_Health(o) > 0 && (Get_Object_Type(o) == Team || Team == 2))

	cmp	DWORD PTR _o$1[ebp], 0
	je	SHORT $LN2@Get_Buildi
	mov	eax, DWORD PTR _o$1[ebp]
	push	eax
	mov	ecx, DWORD PTR ?Commands@@3PAUScriptCommands@@A ; Commands
	mov	edx, DWORD PTR [ecx+220]
	call	edx
	add	esp, 4
	fstp	DWORD PTR tv93[ebp]
	movss	xmm0, DWORD PTR tv93[ebp]
	comiss	xmm0, DWORD PTR __real@00000000
	jbe	SHORT $LN2@Get_Buildi
	mov	eax, DWORD PTR _o$1[ebp]
	push	eax
	call	?Get_Object_Type@@YAHPAVScriptableGameObj@@@Z ; Get_Object_Type
	add	esp, 4
	cmp	eax, DWORD PTR _Team$[ebp]
	je	SHORT $LN1@Get_Buildi
	cmp	DWORD PTR _Team$[ebp], 2
	jne	SHORT $LN2@Get_Buildi
$LN1@Get_Buildi:

; 352  : 		{
; 353  : 			Count++;

	mov	eax, DWORD PTR _Count$[ebp]
	add	eax, 1
	mov	DWORD PTR _Count$[ebp], eax
$LN2@Get_Buildi:

; 354  : 		}
; 355  : 		x = x->Next();

	mov	ecx, DWORD PTR _x$[ebp]
	call	?Next@?$SLNode@VBuildingGameObj@@@@QBEPAV1@XZ ; SLNode<BuildingGameObj>::Next
	mov	DWORD PTR _x$[ebp], eax

; 356  : 	}

	jmp	SHORT $LN4@Get_Buildi
$LN3@Get_Buildi:

; 357  : 	return Count;

	mov	eax, DWORD PTR _Count$[ebp]

; 358  : }

	pop	edi
	pop	esi
	pop	ebx
	mov	esp, ebp
	pop	ebp
	ret	0
?Get_Building_Count_Team@@YAHH@Z ENDP			; Get_Building_Count_Team
_TEXT	ENDS
; Function compile flags: /Odtp /ZI
; File x:\github\renegade\dragonade_rxd\scripts\engine_game.cpp
;	COMDAT ?The_Single_Player_Game@@YAPAVcGameDataSinglePlayer@@XZ
_TEXT	SEGMENT
?The_Single_Player_Game@@YAPAVcGameDataSinglePlayer@@XZ PROC ; The_Single_Player_Game, COMDAT

; 82   : AT2(0x00477CB0,0x00477380);

$AT3PatchStart$3:
	push	ecx
	push	edx
	push	OFFSET $AT3PatchStart$3
	push	0
	push	4682624					; 00477380H
	push	4684976					; 00477cb0H
	call	?HookupAT3@@YAPAXPAX000@Z		; HookupAT3
	add	esp, 16					; 00000010H
	pop	edx
	pop	ecx
	jmp	eax
?The_Single_Player_Game@@YAPAVcGameDataSinglePlayer@@XZ ENDP ; The_Single_Player_Game
_TEXT	ENDS
; Function compile flags: /Odtp /ZI
; File x:\github\renegade\dragonade_rxd\scripts\engine_game.cpp
;	COMDAT ?The_Cnc_Game@@YAPAVcGameDataCnc@@XZ
_TEXT	SEGMENT
?The_Cnc_Game@@YAPAVcGameDataCnc@@XZ PROC		; The_Cnc_Game, COMDAT

; 79   : AT2(0x00477CD0,0x004773A0);

$AT3PatchStart$3:
	push	ecx
	push	edx
	push	OFFSET $AT3PatchStart$3
	push	0
	push	4682656					; 004773a0H
	push	4685008					; 00477cd0H
	call	?HookupAT3@@YAPAXPAX000@Z		; HookupAT3
	add	esp, 16					; 00000010H
	pop	edx
	pop	ecx
	jmp	eax
?The_Cnc_Game@@YAPAVcGameDataCnc@@XZ ENDP		; The_Cnc_Game
_TEXT	ENDS
; Function compile flags: /Odtp /ZI
; File x:\github\renegade\dragonade_rxd\scripts\engine_game.cpp
;	COMDAT ?The_Skirmish_Game@@YAPAVcGameDataSkirmish@@XZ
_TEXT	SEGMENT
?The_Skirmish_Game@@YAPAVcGameDataSkirmish@@XZ PROC	; The_Skirmish_Game, COMDAT

; 76   : AT2(0x00477CC0,0x00477390);

$AT3PatchStart$3:
	push	ecx
	push	edx
	push	OFFSET $AT3PatchStart$3
	push	0
	push	4682640					; 00477390H
	push	4684992					; 00477cc0H
	call	?HookupAT3@@YAPAXPAX000@Z		; HookupAT3
	add	esp, 16					; 00000010H
	pop	edx
	pop	ecx
	jmp	eax
?The_Skirmish_Game@@YAPAVcGameDataSkirmish@@XZ ENDP	; The_Skirmish_Game
_TEXT	ENDS
; Function compile flags: /Odtp /ZI
; File x:\github\renegade\dragonade_rxd\scripts\engine_game.cpp
;	COMDAT ?The_Game@@YAPAVcGameData@@XZ
_TEXT	SEGMENT
?The_Game@@YAPAVcGameData@@XZ PROC			; The_Game, COMDAT

; 34   : AT2(0x00477CA0,0x00477370);

$AT3PatchStart$3:
	push	ecx
	push	edx
	push	OFFSET $AT3PatchStart$3
	push	0
	push	4682608					; 00477370H
	push	4684960					; 00477ca0H
	call	?HookupAT3@@YAPAXPAX000@Z		; HookupAT3
	add	esp, 16					; 00000010H
	pop	edx
	pop	ecx
	jmp	eax
?The_Game@@YAPAVcGameData@@XZ ENDP			; The_Game
_TEXT	ENDS
; Function compile flags: /Odtp /ZI
; File x:\github\renegade\dragonade_rxd\scripts\engine_game.cpp
;	COMDAT ?Can_Generate_Soldiers@@YA_NH@Z
_TEXT	SEGMENT
_c$1 = -4						; size = 4
_team$ = 8						; size = 4
?Can_Generate_Soldiers@@YA_NH@Z PROC			; Can_Generate_Soldiers, COMDAT

; 338  : {

	push	ebp
	mov	ebp, esp
	sub	esp, 68					; 00000044H
	push	ebx
	push	esi
	push	edi

; 339  : 	if ( BaseControllerClass *c = BaseControllerClass::Find_Base(team) )

	mov	eax, DWORD PTR _team$[ebp]
	push	eax
	call	?Find_Base@BaseControllerClass@@SAPAV1@H@Z ; BaseControllerClass::Find_Base
	add	esp, 4
	mov	DWORD PTR _c$1[ebp], eax
	cmp	DWORD PTR _c$1[ebp], 0
	je	SHORT $LN1@Can_Genera

; 340  : 		return c->Can_Generate_Soldiers();

	mov	ecx, DWORD PTR _c$1[ebp]
	call	?Can_Generate_Soldiers@BaseControllerClass@@QBE_NXZ ; BaseControllerClass::Can_Generate_Soldiers
	jmp	SHORT $LN2@Can_Genera
$LN1@Can_Genera:

; 341  : 	return false;

	xor	al, al
$LN2@Can_Genera:

; 342  : }

	pop	edi
	pop	esi
	pop	ebx
	mov	esp, ebp
	pop	ebp
	ret	0
?Can_Generate_Soldiers@@YA_NH@Z ENDP			; Can_Generate_Soldiers
_TEXT	ENDS
; Function compile flags: /Odtp /ZI
; File x:\github\renegade\dragonade_rxd\scripts\engine_game.cpp
;	COMDAT ?Can_Generate_Vehicles@@YA_NH@Z
_TEXT	SEGMENT
_c$ = -4						; size = 4
_team$ = 8						; size = 4
?Can_Generate_Vehicles@@YA_NH@Z PROC			; Can_Generate_Vehicles, COMDAT

; 328  : {

	push	ebp
	mov	ebp, esp
	sub	esp, 68					; 00000044H
	push	ebx
	push	esi
	push	edi

; 329  : 	BaseControllerClass *c = BaseControllerClass::Find_Base(team);

	mov	eax, DWORD PTR _team$[ebp]
	push	eax
	call	?Find_Base@BaseControllerClass@@SAPAV1@H@Z ; BaseControllerClass::Find_Base
	add	esp, 4
	mov	DWORD PTR _c$[ebp], eax

; 330  : 	if (c)

	cmp	DWORD PTR _c$[ebp], 0
	je	SHORT $LN1@Can_Genera

; 331  : 	{
; 332  : 		return c->Can_Generate_Vehicles();

	mov	ecx, DWORD PTR _c$[ebp]
	call	?Can_Generate_Vehicles@BaseControllerClass@@QBE_NXZ ; BaseControllerClass::Can_Generate_Vehicles
	jmp	SHORT $LN2@Can_Genera
$LN1@Can_Genera:

; 333  : 	}
; 334  : 	return false;

	xor	al, al
$LN2@Can_Genera:

; 335  : }

	pop	edi
	pop	esi
	pop	ebx
	mov	esp, ebp
	pop	ebp
	ret	0
?Can_Generate_Vehicles@@YA_NH@Z ENDP			; Can_Generate_Vehicles
_TEXT	ENDS
; Function compile flags: /Odtp /ZI
; File x:\github\renegade\dragonade_rxd\scripts\engine_game.cpp
;	COMDAT ?Is_Base_Powered@@YA_NH@Z
_TEXT	SEGMENT
_c$ = -4						; size = 4
_team$ = 8						; size = 4
?Is_Base_Powered@@YA_NH@Z PROC				; Is_Base_Powered, COMDAT

; 318  : {

	push	ebp
	mov	ebp, esp
	sub	esp, 68					; 00000044H
	push	ebx
	push	esi
	push	edi

; 319  : 	BaseControllerClass *c = BaseControllerClass::Find_Base(team);

	mov	eax, DWORD PTR _team$[ebp]
	push	eax
	call	?Find_Base@BaseControllerClass@@SAPAV1@H@Z ; BaseControllerClass::Find_Base
	add	esp, 4
	mov	DWORD PTR _c$[ebp], eax

; 320  : 	if (c)

	cmp	DWORD PTR _c$[ebp], 0
	je	SHORT $LN1@Is_Base_Po

; 321  : 	{
; 322  : 		return c->Is_Base_Powered();

	mov	ecx, DWORD PTR _c$[ebp]
	call	?Is_Base_Powered@BaseControllerClass@@QBE_NXZ ; BaseControllerClass::Is_Base_Powered
	jmp	SHORT $LN2@Is_Base_Po
$LN1@Is_Base_Po:

; 323  : 	}
; 324  : 	return false;

	xor	al, al
$LN2@Is_Base_Po:

; 325  : }

	pop	edi
	pop	esi
	pop	ebx
	mov	esp, ebp
	pop	ebp
	ret	0
?Is_Base_Powered@@YA_NH@Z ENDP				; Is_Base_Powered
_TEXT	ENDS
; Function compile flags: /Odtp /ZI
; File x:\github\renegade\dragonade_rxd\scripts\engine_game.cpp
;	COMDAT ?Find_Harvester@@YAPAVScriptableGameObj@@H@Z
_TEXT	SEGMENT
_o$ = -8						; size = 4
_c$ = -4						; size = 4
_team$ = 8						; size = 4
?Find_Harvester@@YAPAVScriptableGameObj@@H@Z PROC	; Find_Harvester, COMDAT

; 307  : {

	push	ebp
	mov	ebp, esp
	sub	esp, 72					; 00000048H
	push	ebx
	push	esi
	push	edi

; 308  : 	BaseControllerClass *c = BaseControllerClass::Find_Base(team);

	mov	eax, DWORD PTR _team$[ebp]
	push	eax
	call	?Find_Base@BaseControllerClass@@SAPAV1@H@Z ; BaseControllerClass::Find_Base
	add	esp, 4
	mov	DWORD PTR _c$[ebp], eax

; 309  : 	GameObject *o = 0;

	mov	DWORD PTR _o$[ebp], 0

; 310  : 	if (c)

	cmp	DWORD PTR _c$[ebp], 0
	je	SHORT $LN1@Find_Harve

; 311  : 	{
; 312  : 		o = c->Get_Harvester_Vehicle();

	mov	ecx, DWORD PTR _c$[ebp]
	call	?Get_Harvester_Vehicle@BaseControllerClass@@QAEPAVVehicleGameObj@@XZ ; BaseControllerClass::Get_Harvester_Vehicle
	mov	DWORD PTR _o$[ebp], eax
$LN1@Find_Harve:

; 313  : 	}
; 314  : 	return o;

	mov	eax, DWORD PTR _o$[ebp]

; 315  : }

	pop	edi
	pop	esi
	pop	ebx
	mov	esp, ebp
	pop	ebp
	ret	0
?Find_Harvester@@YAPAVScriptableGameObj@@H@Z ENDP	; Find_Harvester
_TEXT	ENDS
; Function compile flags: /Odtp /ZI
; File x:\github\renegade\dragonade_rxd\scripts\engine_game.cpp
;	COMDAT ?Create_Building@@YAPAVScriptableGameObj@@PBDABVVector3@@@Z
_TEXT	SEGMENT
_c$1 = -12						; size = 4
_obj$ = -8						; size = 4
_d$ = -4						; size = 4
_preset$ = 8						; size = 4
_Position$ = 12						; size = 4
?Create_Building@@YAPAVScriptableGameObj@@PBDABVVector3@@@Z PROC ; Create_Building, COMDAT

; 266  : {

	push	ebp
	mov	ebp, esp
	sub	esp, 76					; 0000004cH
	push	ebx
	push	esi
	push	edi

; 267  : 	DefinitionClass *d = Find_Named_Definition(preset);

	mov	eax, DWORD PTR _preset$[ebp]
	push	eax
	call	?Find_Named_Definition@@YAPAVDefinitionClass@@PBD@Z ; Find_Named_Definition
	add	esp, 4
	mov	DWORD PTR _d$[ebp], eax

; 268  : 	if(!d)

	cmp	DWORD PTR _d$[ebp], 0
	jne	SHORT $LN3@Create_Bui

; 269  : 	{
; 270  : 		return 0;

	xor	eax, eax
	jmp	SHORT $LN4@Create_Bui
$LN3@Create_Bui:

; 271  : 	}
; 272  : 	GameObject *obj = (GameObject *)d->Create();

	mov	eax, DWORD PTR _d$[ebp]
	mov	edx, DWORD PTR [eax]
	mov	ecx, DWORD PTR _d$[ebp]
	mov	eax, DWORD PTR [edx+44]
	call	eax
	mov	DWORD PTR _obj$[ebp], eax

; 273  : 	
; 274  : 	if (obj)

	cmp	DWORD PTR _obj$[ebp], 0
	je	SHORT $LN2@Create_Bui

; 275  : 	{
; 276  : 		BuildingGameObj *c = obj->As_BuildingGameObj();

	mov	eax, DWORD PTR _obj$[ebp]
	mov	edx, DWORD PTR [eax]
	mov	ecx, DWORD PTR _obj$[ebp]
	mov	eax, DWORD PTR [edx+64]
	call	eax
	mov	DWORD PTR _c$1[ebp], eax

; 277  : 		if (c)

	cmp	DWORD PTR _c$1[ebp], 0
	je	SHORT $LN2@Create_Bui

; 278  : 		{
; 279  : 			c->Set_Position(Position);

	mov	eax, DWORD PTR _Position$[ebp]
	push	eax
	mov	ecx, DWORD PTR _c$1[ebp]
	call	?Set_Position@BuildingGameObj@@QAEXABVVector3@@@Z ; BuildingGameObj::Set_Position

; 280  : 			c->Collect_Building_Components();

	mov	ecx, DWORD PTR _c$1[ebp]
	call	?Collect_Building_Components@BuildingGameObj@@QAEXXZ ; BuildingGameObj::Collect_Building_Components

; 281  : 			c->Start_Observers();

	mov	ecx, DWORD PTR _c$1[ebp]
	call	?Start_Observers@ScriptableGameObj@@QAEXXZ ; ScriptableGameObj::Start_Observers

; 282  : 			return c;

	mov	eax, DWORD PTR _c$1[ebp]
	jmp	SHORT $LN4@Create_Bui
$LN2@Create_Bui:

; 283  : 		}
; 284  : 	}
; 285  : 	return 0;

	xor	eax, eax
$LN4@Create_Bui:

; 286  : }

	pop	edi
	pop	esi
	pop	ebx
	mov	esp, ebp
	pop	ebp
	ret	0
?Create_Building@@YAPAVScriptableGameObj@@PBDABVVector3@@@Z ENDP ; Create_Building
_TEXT	ENDS
; Function compile flags: /Odtp /ZI
; File x:\github\renegade\dragonade_rxd\scripts\engine_game.cpp
;	COMDAT ?Is_Map_Flying@@YA_NXZ
_TEXT	SEGMENT
tv68 = -68						; size = 4
?Is_Map_Flying@@YA_NXZ PROC				; Is_Map_Flying, COMDAT

; 261  : {

	push	ebp
	mov	ebp, esp
	sub	esp, 68					; 00000044H
	push	ebx
	push	esi
	push	edi

; 262  : 	return IsMapVTOL || AllMapsAreFlying;

	mov	eax, DWORD PTR ?IsMapVTOL@@3AA_NA	; IsMapVTOL
	movzx	ecx, BYTE PTR [eax]
	test	ecx, ecx
	jne	SHORT $LN3@Is_Map_Fly
	movzx	edx, BYTE PTR ?AllMapsAreFlying@@3_NA	; AllMapsAreFlying
	test	edx, edx
	jne	SHORT $LN3@Is_Map_Fly
	mov	DWORD PTR tv68[ebp], 0
	jmp	SHORT $LN4@Is_Map_Fly
$LN3@Is_Map_Fly:
	mov	DWORD PTR tv68[ebp], 1
$LN4@Is_Map_Fly:
	mov	al, BYTE PTR tv68[ebp]

; 263  : }

	pop	edi
	pop	esi
	pop	ebx
	mov	esp, ebp
	pop	ebp
	ret	0
?Is_Map_Flying@@YA_NXZ ENDP				; Is_Map_Flying
_TEXT	ENDS
; Function compile flags: /Odtp /ZI
; File x:\github\renegade\dragonade_rxd\scripts\engine_game.cpp
;	COMDAT ?Find_Base_Defense@@YAPAVScriptableGameObj@@H@Z
_TEXT	SEGMENT
_c$ = -4						; size = 4
_team$ = 8						; size = 4
?Find_Base_Defense@@YAPAVScriptableGameObj@@H@Z PROC	; Find_Base_Defense, COMDAT

; 251  : {

	push	ebp
	mov	ebp, esp
	sub	esp, 68					; 00000044H
	push	ebx
	push	esi
	push	edi

; 252  : 	BaseControllerClass *c = BaseControllerClass::Find_Base(team);

	mov	eax, DWORD PTR _team$[ebp]
	push	eax
	call	?Find_Base@BaseControllerClass@@SAPAV1@H@Z ; BaseControllerClass::Find_Base
	add	esp, 4
	mov	DWORD PTR _c$[ebp], eax

; 253  : 	if (c)

	cmp	DWORD PTR _c$[ebp], 0
	je	SHORT $LN1@Find_Base_

; 254  : 	{
; 255  : 		return c->Find_Building(BuildingConstants::TYPE_BASE_DEFENSE);

	push	9
	mov	ecx, DWORD PTR _c$[ebp]
	call	?Find_Building@BaseControllerClass@@QAEPAVBuildingGameObj@@I@Z ; BaseControllerClass::Find_Building
	jmp	SHORT $LN2@Find_Base_
$LN1@Find_Base_:

; 256  : 	}
; 257  : 	return 0;

	xor	eax, eax
$LN2@Find_Base_:

; 258  : }

	pop	edi
	pop	esi
	pop	ebx
	mov	esp, ebp
	pop	ebp
	ret	0
?Find_Base_Defense@@YAPAVScriptableGameObj@@H@Z ENDP	; Find_Base_Defense
_TEXT	ENDS
; Function compile flags: /Odtp /ZI
; File x:\github\renegade\dragonade_rxd\scripts\engine_game.cpp
;	COMDAT ?Find_Building_By_Type@@YAPAVScriptableGameObj@@HH@Z
_TEXT	SEGMENT
_c$ = -4						; size = 4
_team$ = 8						; size = 4
_type$ = 12						; size = 4
?Find_Building_By_Type@@YAPAVScriptableGameObj@@HH@Z PROC ; Find_Building_By_Type, COMDAT

; 241  : {

	push	ebp
	mov	ebp, esp
	sub	esp, 68					; 00000044H
	push	ebx
	push	esi
	push	edi

; 242  : 	BaseControllerClass *c = BaseControllerClass::Find_Base(team);

	mov	eax, DWORD PTR _team$[ebp]
	push	eax
	call	?Find_Base@BaseControllerClass@@SAPAV1@H@Z ; BaseControllerClass::Find_Base
	add	esp, 4
	mov	DWORD PTR _c$[ebp], eax

; 243  : 	if (c)

	cmp	DWORD PTR _c$[ebp], 0
	je	SHORT $LN1@Find_Build

; 244  : 	{
; 245  : 		return c->Find_Building(type);

	mov	eax, DWORD PTR _type$[ebp]
	push	eax
	mov	ecx, DWORD PTR _c$[ebp]
	call	?Find_Building@BaseControllerClass@@QAEPAVBuildingGameObj@@I@Z ; BaseControllerClass::Find_Building
	jmp	SHORT $LN2@Find_Build
$LN1@Find_Build:

; 246  : 	}
; 247  : 	return 0;

	xor	eax, eax
$LN2@Find_Build:

; 248  : }

	pop	edi
	pop	esi
	pop	ebx
	mov	esp, ebp
	pop	ebp
	ret	0
?Find_Building_By_Type@@YAPAVScriptableGameObj@@HH@Z ENDP ; Find_Building_By_Type
_TEXT	ENDS
; Function compile flags: /Odtp /ZI
; File x:\github\renegade\dragonade_rxd\scripts\engine_game.cpp
;	COMDAT ?Is_Building_Dead@@YA_NPAVScriptableGameObj@@@Z
_TEXT	SEGMENT
_o$ = -4						; size = 4
_obj$ = 8						; size = 4
?Is_Building_Dead@@YA_NPAVScriptableGameObj@@@Z PROC	; Is_Building_Dead, COMDAT

; 227  : {

	push	ebp
	mov	ebp, esp
	sub	esp, 68					; 00000044H
	push	ebx
	push	esi
	push	edi

; 228  : 	if (!obj)

	cmp	DWORD PTR _obj$[ebp], 0
	jne	SHORT $LN2@Is_Buildin

; 229  : 	{
; 230  : 		return 0;

	xor	al, al
	jmp	SHORT $LN3@Is_Buildin
$LN2@Is_Buildin:

; 231  : 	}
; 232  : 	BuildingGameObj *o = obj->As_BuildingGameObj();

	mov	eax, DWORD PTR _obj$[ebp]
	mov	edx, DWORD PTR [eax]
	mov	ecx, DWORD PTR _obj$[ebp]
	mov	eax, DWORD PTR [edx+64]
	call	eax
	mov	DWORD PTR _o$[ebp], eax

; 233  : 	if (!o)

	cmp	DWORD PTR _o$[ebp], 0
	jne	SHORT $LN1@Is_Buildin

; 234  : 	{
; 235  : 		return 0;

	xor	al, al
	jmp	SHORT $LN3@Is_Buildin
$LN1@Is_Buildin:

; 236  : 	}
; 237  : 	return o->Is_Destroyed();

	mov	ecx, DWORD PTR _o$[ebp]
	call	?Is_Destroyed@BuildingGameObj@@QBE_NXZ	; BuildingGameObj::Is_Destroyed
$LN3@Is_Buildin:

; 238  : }

	pop	edi
	pop	esi
	pop	ebx
	mov	esp, ebp
	pop	ebp
	ret	0
?Is_Building_Dead@@YA_NPAVScriptableGameObj@@@Z ENDP	; Is_Building_Dead
_TEXT	ENDS
; Function compile flags: /Odtp /ZI
; File x:\github\renegade\dragonade_rxd\scripts\engine_game.cpp
;	COMDAT ?Building_Type@@YAHPAVScriptableGameObj@@@Z
_TEXT	SEGMENT
_d$ = -8						; size = 4
_o$ = -4						; size = 4
_obj$ = 8						; size = 4
?Building_Type@@YAHPAVScriptableGameObj@@@Z PROC	; Building_Type, COMDAT

; 212  : {

	push	ebp
	mov	ebp, esp
	sub	esp, 72					; 00000048H
	push	ebx
	push	esi
	push	edi

; 213  : 	if (!obj)

	cmp	DWORD PTR _obj$[ebp], 0
	jne	SHORT $LN2@Building_T

; 214  : 	{
; 215  : 		return 0;

	xor	eax, eax
	jmp	SHORT $LN3@Building_T
$LN2@Building_T:

; 216  : 	}
; 217  : 	BuildingGameObj *o = obj->As_BuildingGameObj();

	mov	eax, DWORD PTR _obj$[ebp]
	mov	edx, DWORD PTR [eax]
	mov	ecx, DWORD PTR _obj$[ebp]
	mov	eax, DWORD PTR [edx+64]
	call	eax
	mov	DWORD PTR _o$[ebp], eax

; 218  : 	if (!o)

	cmp	DWORD PTR _o$[ebp], 0
	jne	SHORT $LN1@Building_T

; 219  : 	{
; 220  : 		return 0;

	xor	eax, eax
	jmp	SHORT $LN3@Building_T
$LN1@Building_T:

; 221  : 	}
; 222  : 	const BuildingGameObjDef &d = o->Get_Definition();

	mov	ecx, DWORD PTR _o$[ebp]
	call	?Get_Definition@BuildingGameObj@@QBEABVBuildingGameObjDef@@XZ ; BuildingGameObj::Get_Definition
	mov	DWORD PTR _d$[ebp], eax

; 223  : 	return d.Get_Type();

	mov	ecx, DWORD PTR _d$[ebp]
	call	?Get_Type@BuildingGameObjDef@@QBE?AW4BuildingType@BuildingConstants@@XZ ; BuildingGameObjDef::Get_Type
$LN3@Building_T:

; 224  : }

	pop	edi
	pop	esi
	pop	ebx
	mov	esp, ebp
	pop	ebp
	ret	0
?Building_Type@@YAHPAVScriptableGameObj@@@Z ENDP	; Building_Type
_TEXT	ENDS
; Function compile flags: /Odtp /ZI
; File x:\github\renegade\dragonade_rxd\scripts\engine_game.cpp
;	COMDAT ?Is_Radar_Enabled@@YA_NH@Z
_TEXT	SEGMENT
_c$ = -4						; size = 4
_team$ = 8						; size = 4
?Is_Radar_Enabled@@YA_NH@Z PROC				; Is_Radar_Enabled, COMDAT

; 202  : {

	push	ebp
	mov	ebp, esp
	sub	esp, 68					; 00000044H
	push	ebx
	push	esi
	push	edi

; 203  : 	BaseControllerClass *c = BaseControllerClass::Find_Base(team);

	mov	eax, DWORD PTR _team$[ebp]
	push	eax
	call	?Find_Base@BaseControllerClass@@SAPAV1@H@Z ; BaseControllerClass::Find_Base
	add	esp, 4
	mov	DWORD PTR _c$[ebp], eax

; 204  : 	if (c)

	cmp	DWORD PTR _c$[ebp], 0
	je	SHORT $LN1@Is_Radar_E

; 205  : 	{
; 206  : 		return c->Is_Radar_Enabled();

	mov	ecx, DWORD PTR _c$[ebp]
	call	?Is_Radar_Enabled@BaseControllerClass@@QBE_NXZ ; BaseControllerClass::Is_Radar_Enabled
	jmp	SHORT $LN2@Is_Radar_E
$LN1@Is_Radar_E:

; 207  : 	}
; 208  : 	return false;

	xor	al, al
$LN2@Is_Radar_E:

; 209  : }

	pop	edi
	pop	esi
	pop	ebx
	mov	esp, ebp
	pop	ebp
	ret	0
?Is_Radar_Enabled@@YA_NH@Z ENDP				; Is_Radar_Enabled
_TEXT	ENDS
; Function compile flags: /Odtp /ZI
; File x:\github\renegade\dragonade_rxd\scripts\engine_game.cpp
;	COMDAT ?Is_Harvester@@YA_NPAVScriptableGameObj@@@Z
_TEXT	SEGMENT
_obj$ = 8						; size = 4
?Is_Harvester@@YA_NPAVScriptableGameObj@@@Z PROC	; Is_Harvester, COMDAT

; 189  : {

	push	ebp
	mov	ebp, esp
	sub	esp, 64					; 00000040H
	push	ebx
	push	esi
	push	edi

; 190  : 	if (!obj)

	cmp	DWORD PTR _obj$[ebp], 0
	jne	SHORT $LN3@Is_Harvest

; 191  : 	{
; 192  : 		return false;

	xor	al, al
	jmp	SHORT $LN4@Is_Harvest
$LN3@Is_Harvest:

; 193  : 	}
; 194  : 	if (Find_Harvester(0) == obj || Find_Harvester(1) == obj)

	push	0
	call	?Find_Harvester@@YAPAVScriptableGameObj@@H@Z ; Find_Harvester
	add	esp, 4
	cmp	eax, DWORD PTR _obj$[ebp]
	je	SHORT $LN1@Is_Harvest
	push	1
	call	?Find_Harvester@@YAPAVScriptableGameObj@@H@Z ; Find_Harvester
	add	esp, 4
	cmp	eax, DWORD PTR _obj$[ebp]
	jne	SHORT $LN2@Is_Harvest
$LN1@Is_Harvest:

; 195  : 	{
; 196  : 		return true;

	mov	al, 1
	jmp	SHORT $LN4@Is_Harvest
$LN2@Is_Harvest:

; 197  : 	}
; 198  : 	return false;

	xor	al, al
$LN4@Is_Harvest:

; 199  : }

	pop	edi
	pop	esi
	pop	ebx
	mov	esp, ebp
	pop	ebp
	ret	0
?Is_Harvester@@YA_NPAVScriptableGameObj@@@Z ENDP	; Is_Harvester
_TEXT	ENDS
; Function compile flags: /Odtp /ZI
; File x:\github\renegade\dragonade_rxd\scripts\engine_game.cpp
;	COMDAT ?Enable_Base_Radar@@YAXH_N@Z
_TEXT	SEGMENT
_c$ = -4						; size = 4
_team$ = 8						; size = 4
_enable$ = 12						; size = 1
?Enable_Base_Radar@@YAXH_N@Z PROC			; Enable_Base_Radar, COMDAT

; 180  : {

	push	ebp
	mov	ebp, esp
	sub	esp, 68					; 00000044H
	push	ebx
	push	esi
	push	edi

; 181  : 	BaseControllerClass *c = BaseControllerClass::Find_Base(team);

	mov	eax, DWORD PTR _team$[ebp]
	push	eax
	call	?Find_Base@BaseControllerClass@@SAPAV1@H@Z ; BaseControllerClass::Find_Base
	add	esp, 4
	mov	DWORD PTR _c$[ebp], eax

; 182  : 	if (c)

	cmp	DWORD PTR _c$[ebp], 0
	je	SHORT $LN2@Enable_Bas

; 183  : 	{
; 184  : 		c->Enable_Radar(enable);

	movzx	eax, BYTE PTR _enable$[ebp]
	push	eax
	mov	ecx, DWORD PTR _c$[ebp]
	call	?Enable_Radar@BaseControllerClass@@QAEX_N@Z ; BaseControllerClass::Enable_Radar
$LN2@Enable_Bas:

; 185  : 	}
; 186  : }

	pop	edi
	pop	esi
	pop	ebx
	mov	esp, ebp
	pop	ebp
	ret	0
?Enable_Base_Radar@@YAXH_N@Z ENDP			; Enable_Base_Radar
_TEXT	ENDS
; Function compile flags: /Odtp /ZI
; File x:\github\renegade\dragonade_rxd\scripts\engine_game.cpp
;	COMDAT ?Beacon_Destroyed_Base@@YAXH_N@Z
_TEXT	SEGMENT
_c$ = -4						; size = 4
_team$ = 8						; size = 4
_destroyed$ = 12					; size = 1
?Beacon_Destroyed_Base@@YAXH_N@Z PROC			; Beacon_Destroyed_Base, COMDAT

; 171  : {

	push	ebp
	mov	ebp, esp
	sub	esp, 68					; 00000044H
	push	ebx
	push	esi
	push	edi

; 172  : 	BaseControllerClass *c = BaseControllerClass::Find_Base(team);

	mov	eax, DWORD PTR _team$[ebp]
	push	eax
	call	?Find_Base@BaseControllerClass@@SAPAV1@H@Z ; BaseControllerClass::Find_Base
	add	esp, 4
	mov	DWORD PTR _c$[ebp], eax

; 173  : 	if (c)

	cmp	DWORD PTR _c$[ebp], 0
	je	SHORT $LN2@Beacon_Des

; 174  : 	{
; 175  : 		c->Set_Beacon_Destroyed_Base(destroyed);

	movzx	eax, BYTE PTR _destroyed$[ebp]
	push	eax
	mov	ecx, DWORD PTR _c$[ebp]
	call	?Set_Beacon_Destroyed_Base@BaseControllerClass@@QAEX_N@Z ; BaseControllerClass::Set_Beacon_Destroyed_Base
$LN2@Beacon_Des:

; 176  : 	}
; 177  : }

	pop	edi
	pop	esi
	pop	ebx
	mov	esp, ebp
	pop	ebp
	ret	0
?Beacon_Destroyed_Base@@YAXH_N@Z ENDP			; Beacon_Destroyed_Base
_TEXT	ENDS
; Function compile flags: /Odtp /ZI
; File x:\github\renegade\dragonade_rxd\scripts\engine_game.cpp
;	COMDAT ?Destroy_Base@@YAXH@Z
_TEXT	SEGMENT
_c$ = -4						; size = 4
_team$ = 8						; size = 4
?Destroy_Base@@YAXH@Z PROC				; Destroy_Base, COMDAT

; 162  : {

	push	ebp
	mov	ebp, esp
	sub	esp, 68					; 00000044H
	push	ebx
	push	esi
	push	edi

; 163  : 	BaseControllerClass *c = BaseControllerClass::Find_Base(team);

	mov	eax, DWORD PTR _team$[ebp]
	push	eax
	call	?Find_Base@BaseControllerClass@@SAPAV1@H@Z ; BaseControllerClass::Find_Base
	add	esp, 4
	mov	DWORD PTR _c$[ebp], eax

; 164  : 	if (c)

	cmp	DWORD PTR _c$[ebp], 0
	je	SHORT $LN2@Destroy_Ba

; 165  : 	{
; 166  : 		c->Destroy_Base();

	mov	ecx, DWORD PTR _c$[ebp]
	call	?Destroy_Base@BaseControllerClass@@QAEXXZ ; BaseControllerClass::Destroy_Base
$LN2@Destroy_Ba:

; 167  : 	}
; 168  : }

	pop	edi
	pop	esi
	pop	ebx
	mov	esp, ebp
	pop	ebp
	ret	0
?Destroy_Base@@YAXH@Z ENDP				; Destroy_Base
_TEXT	ENDS
; Function compile flags: /Odtp /ZI
; File x:\github\renegade\dragonade_rxd\scripts\engine_game.cpp
;	COMDAT ?Set_Can_Generate_Vehicles@@YAXH_N@Z
_TEXT	SEGMENT
_c$ = -4						; size = 4
_team$ = 8						; size = 4
_cangenerate$ = 12					; size = 1
?Set_Can_Generate_Vehicles@@YAXH_N@Z PROC		; Set_Can_Generate_Vehicles, COMDAT

; 153  : {

	push	ebp
	mov	ebp, esp
	sub	esp, 68					; 00000044H
	push	ebx
	push	esi
	push	edi

; 154  : 	BaseControllerClass *c = BaseControllerClass::Find_Base(team);

	mov	eax, DWORD PTR _team$[ebp]
	push	eax
	call	?Find_Base@BaseControllerClass@@SAPAV1@H@Z ; BaseControllerClass::Find_Base
	add	esp, 4
	mov	DWORD PTR _c$[ebp], eax

; 155  : 	if (c)

	cmp	DWORD PTR _c$[ebp], 0
	je	SHORT $LN2@Set_Can_Ge

; 156  : 	{
; 157  : 		c->Set_Can_Generate_Vehicles(cangenerate);

	movzx	eax, BYTE PTR _cangenerate$[ebp]
	push	eax
	mov	ecx, DWORD PTR _c$[ebp]
	call	?Set_Can_Generate_Vehicles@BaseControllerClass@@QAEX_N@Z ; BaseControllerClass::Set_Can_Generate_Vehicles
$LN2@Set_Can_Ge:

; 158  : 	}
; 159  : }

	pop	edi
	pop	esi
	pop	ebx
	mov	esp, ebp
	pop	ebp
	ret	0
?Set_Can_Generate_Vehicles@@YAXH_N@Z ENDP		; Set_Can_Generate_Vehicles
_TEXT	ENDS
; Function compile flags: /Odtp /ZI
; File x:\github\renegade\dragonade_rxd\scripts\engine_game.cpp
;	COMDAT ?Set_Can_Generate_Soldiers@@YAXH_N@Z
_TEXT	SEGMENT
_c$ = -4						; size = 4
_team$ = 8						; size = 4
_cangenerate$ = 12					; size = 1
?Set_Can_Generate_Soldiers@@YAXH_N@Z PROC		; Set_Can_Generate_Soldiers, COMDAT

; 144  : {

	push	ebp
	mov	ebp, esp
	sub	esp, 68					; 00000044H
	push	ebx
	push	esi
	push	edi

; 145  : 	BaseControllerClass *c = BaseControllerClass::Find_Base(team);

	mov	eax, DWORD PTR _team$[ebp]
	push	eax
	call	?Find_Base@BaseControllerClass@@SAPAV1@H@Z ; BaseControllerClass::Find_Base
	add	esp, 4
	mov	DWORD PTR _c$[ebp], eax

; 146  : 	if (c)

	cmp	DWORD PTR _c$[ebp], 0
	je	SHORT $LN2@Set_Can_Ge

; 147  : 	{
; 148  : 		c->Set_Can_Generate_Soldiers(cangenerate);

	movzx	eax, BYTE PTR _cangenerate$[ebp]
	push	eax
	mov	ecx, DWORD PTR _c$[ebp]
	call	?Set_Can_Generate_Soldiers@BaseControllerClass@@QAEX_N@Z ; BaseControllerClass::Set_Can_Generate_Soldiers
$LN2@Set_Can_Ge:

; 149  : 	}
; 150  : }

	pop	edi
	pop	esi
	pop	ebx
	mov	esp, ebp
	pop	ebp
	ret	0
?Set_Can_Generate_Soldiers@@YAXH_N@Z ENDP		; Set_Can_Generate_Soldiers
_TEXT	ENDS
; Function compile flags: /Odtp /ZI
; File x:\github\renegade\dragonade_rxd\scripts\engine_game.cpp
;	COMDAT ?Power_Base@@YAXH_N@Z
_TEXT	SEGMENT
_c$ = -4						; size = 4
_team$ = 8						; size = 4
_powered$ = 12						; size = 1
?Power_Base@@YAXH_N@Z PROC				; Power_Base, COMDAT

; 135  : {

	push	ebp
	mov	ebp, esp
	sub	esp, 68					; 00000044H
	push	ebx
	push	esi
	push	edi

; 136  : 	BaseControllerClass *c = BaseControllerClass::Find_Base(team);

	mov	eax, DWORD PTR _team$[ebp]
	push	eax
	call	?Find_Base@BaseControllerClass@@SAPAV1@H@Z ; BaseControllerClass::Find_Base
	add	esp, 4
	mov	DWORD PTR _c$[ebp], eax

; 137  : 	if (c)

	cmp	DWORD PTR _c$[ebp], 0
	je	SHORT $LN2@Power_Base

; 138  : 	{
; 139  : 		c->Power_Base(powered);

	movzx	eax, BYTE PTR _powered$[ebp]
	push	eax
	mov	ecx, DWORD PTR _c$[ebp]
	call	?Power_Base@BaseControllerClass@@QAEX_N@Z ; BaseControllerClass::Power_Base
$LN2@Power_Base:

; 140  : 	}
; 141  : }

	pop	edi
	pop	esi
	pop	ebx
	mov	esp, ebp
	pop	ebp
	ret	0
?Power_Base@@YAXH_N@Z ENDP				; Power_Base
_TEXT	ENDS
; Function compile flags: /Odtp /ZI
; File x:\github\renegade\dragonade_rxd\scripts\physicalgameobj.h
;	COMDAT ?Get_Position@PhysicalGameObj@@QAE?AVVector3@@XZ
_TEXT	SEGMENT
_Return$ = -16						; size = 12
_this$ = -4						; size = 4
___$ReturnUdt$ = 8					; size = 4
?Get_Position@PhysicalGameObj@@QAE?AVVector3@@XZ PROC	; PhysicalGameObj::Get_Position, COMDAT
; _this$ = ecx

; 47   : 	SCRIPTS_API Vector3 Get_Position() { Vector3 Return; Peek_Physical_Object()->Get_Position(&Return); return Return; }

	push	ebp
	mov	ebp, esp
	sub	esp, 80					; 00000050H
	push	ebx
	push	esi
	push	edi
	mov	DWORD PTR _this$[ebp], ecx
	lea	ecx, DWORD PTR _Return$[ebp]
	call	??0Vector3@@QAE@XZ			; Vector3::Vector3
	lea	eax, DWORD PTR _Return$[ebp]
	push	eax
	mov	ecx, DWORD PTR _this$[ebp]
	call	?Peek_Physical_Object@PhysicalGameObj@@QBEPAVPhysClass@@XZ ; PhysicalGameObj::Peek_Physical_Object
	mov	ecx, eax
	call	?Get_Position@PhysClass@@QBEXPAVVector3@@@Z ; PhysClass::Get_Position
	lea	eax, DWORD PTR _Return$[ebp]
	push	eax
	mov	ecx, DWORD PTR ___$ReturnUdt$[ebp]
	call	??0Vector3@@QAE@ABV0@@Z			; Vector3::Vector3
	mov	eax, DWORD PTR ___$ReturnUdt$[ebp]
	pop	edi
	pop	esi
	pop	ebx
	mov	esp, ebp
	pop	ebp
	ret	4
?Get_Position@PhysicalGameObj@@QAE?AVVector3@@XZ ENDP	; PhysicalGameObj::Get_Position
_TEXT	ENDS
; Function compile flags: /Odtp /ZI
; File x:\github\renegade\dragonade_rxd\scripts\physicalgameobj.h
;	COMDAT ?Peek_Physical_Object@PhysicalGameObj@@QBEPAVPhysClass@@XZ
_TEXT	SEGMENT
_this$ = -4						; size = 4
?Peek_Physical_Object@PhysicalGameObj@@QBEPAVPhysClass@@XZ PROC ; PhysicalGameObj::Peek_Physical_Object, COMDAT
; _this$ = ecx

; 40   : 	inline PhysClass *	Peek_Physical_Object( void ) const { return PhysObj; }

	push	ebp
	mov	ebp, esp
	sub	esp, 68					; 00000044H
	push	ebx
	push	esi
	push	edi
	mov	DWORD PTR _this$[ebp], ecx
	mov	eax, DWORD PTR _this$[ebp]
	mov	eax, DWORD PTR [eax+1908]
	pop	edi
	pop	esi
	pop	ebx
	mov	esp, ebp
	pop	ebp
	ret	0
?Peek_Physical_Object@PhysicalGameObj@@QBEPAVPhysClass@@XZ ENDP ; PhysicalGameObj::Peek_Physical_Object
_TEXT	ENDS
; Function compile flags: /Odtp /ZI
; File x:\github\renegade\dragonade_rxd\scripts\physclass.h
;	COMDAT ?Get_Position@PhysClass@@QBEXPAVVector3@@@Z
_TEXT	SEGMENT
_this$ = -4						; size = 4
_set_pos$ = 8						; size = 4
?Get_Position@PhysClass@@QBEXPAVVector3@@@Z PROC	; PhysClass::Get_Position, COMDAT
; _this$ = ecx

; 73   : 	void								Get_Position(Vector3 * set_pos) const	{ Get_Transform().Get_Translation(set_pos); }

	push	ebp
	mov	ebp, esp
	sub	esp, 68					; 00000044H
	push	ebx
	push	esi
	push	edi
	mov	DWORD PTR _this$[ebp], ecx
	mov	eax, DWORD PTR _set_pos$[ebp]
	push	eax
	mov	ecx, DWORD PTR _this$[ebp]
	mov	edx, DWORD PTR [ecx]
	mov	ecx, DWORD PTR _this$[ebp]
	mov	eax, DWORD PTR [edx+24]
	call	eax
	mov	ecx, eax
	call	?Get_Translation@Matrix3D@@QBEXPAVVector3@@@Z ; Matrix3D::Get_Translation
	pop	edi
	pop	esi
	pop	ebx
	mov	esp, ebp
	pop	ebp
	ret	4
?Get_Position@PhysClass@@QBEXPAVVector3@@@Z ENDP	; PhysClass::Get_Position
_TEXT	ENDS
; Function compile flags: /Odtp /ZI
;	COMDAT ??4LineSegClass@@QAEAAV0@ABV0@@Z
_TEXT	SEGMENT
_this$ = -4						; size = 4
___that$ = 8						; size = 4
??4LineSegClass@@QAEAAV0@ABV0@@Z PROC			; LineSegClass::operator=, COMDAT
; _this$ = ecx
	push	ebp
	mov	ebp, esp
	sub	esp, 68					; 00000044H
	push	ebx
	push	esi
	push	edi
	mov	DWORD PTR _this$[ebp], ecx
	mov	eax, DWORD PTR ___that$[ebp]
	push	eax
	mov	ecx, DWORD PTR _this$[ebp]
	call	??4Vector3@@QAEAAV0@ABV0@@Z		; Vector3::operator=
	mov	eax, DWORD PTR ___that$[ebp]
	add	eax, 12					; 0000000cH
	push	eax
	mov	ecx, DWORD PTR _this$[ebp]
	add	ecx, 12					; 0000000cH
	call	??4Vector3@@QAEAAV0@ABV0@@Z		; Vector3::operator=
	mov	eax, DWORD PTR ___that$[ebp]
	add	eax, 24					; 00000018H
	push	eax
	mov	ecx, DWORD PTR _this$[ebp]
	add	ecx, 24					; 00000018H
	call	??4Vector3@@QAEAAV0@ABV0@@Z		; Vector3::operator=
	mov	eax, DWORD PTR ___that$[ebp]
	add	eax, 36					; 00000024H
	push	eax
	mov	ecx, DWORD PTR _this$[ebp]
	add	ecx, 36					; 00000024H
	call	??4Vector3@@QAEAAV0@ABV0@@Z		; Vector3::operator=
	mov	eax, DWORD PTR _this$[ebp]
	mov	ecx, DWORD PTR ___that$[ebp]
	mov	edx, DWORD PTR [ecx+48]
	mov	DWORD PTR [eax+48], edx
	mov	eax, DWORD PTR _this$[ebp]
	pop	edi
	pop	esi
	pop	ebx
	mov	esp, ebp
	pop	ebp
	ret	4
??4LineSegClass@@QAEAAV0@ABV0@@Z ENDP			; LineSegClass::operator=
_TEXT	ENDS
; Function compile flags: /Odtp /ZI
;	COMDAT ??0LineSegClass@@QAE@ABV0@@Z
_TEXT	SEGMENT
_this$ = -4						; size = 4
___that$ = 8						; size = 4
??0LineSegClass@@QAE@ABV0@@Z PROC			; LineSegClass::LineSegClass, COMDAT
; _this$ = ecx
	push	ebp
	mov	ebp, esp
	sub	esp, 68					; 00000044H
	push	ebx
	push	esi
	push	edi
	mov	DWORD PTR _this$[ebp], ecx
	mov	eax, DWORD PTR ___that$[ebp]
	push	eax
	mov	ecx, DWORD PTR _this$[ebp]
	call	??0Vector3@@QAE@ABV0@@Z			; Vector3::Vector3
	mov	eax, DWORD PTR ___that$[ebp]
	add	eax, 12					; 0000000cH
	push	eax
	mov	ecx, DWORD PTR _this$[ebp]
	add	ecx, 12					; 0000000cH
	call	??0Vector3@@QAE@ABV0@@Z			; Vector3::Vector3
	mov	eax, DWORD PTR ___that$[ebp]
	add	eax, 24					; 00000018H
	push	eax
	mov	ecx, DWORD PTR _this$[ebp]
	add	ecx, 24					; 00000018H
	call	??0Vector3@@QAE@ABV0@@Z			; Vector3::Vector3
	mov	eax, DWORD PTR ___that$[ebp]
	add	eax, 36					; 00000024H
	push	eax
	mov	ecx, DWORD PTR _this$[ebp]
	add	ecx, 36					; 00000024H
	call	??0Vector3@@QAE@ABV0@@Z			; Vector3::Vector3
	mov	eax, DWORD PTR _this$[ebp]
	mov	ecx, DWORD PTR ___that$[ebp]
	mov	edx, DWORD PTR [ecx+48]
	mov	DWORD PTR [eax+48], edx
	mov	eax, DWORD PTR _this$[ebp]
	pop	edi
	pop	esi
	pop	ebx
	mov	esp, ebp
	pop	ebp
	ret	4
??0LineSegClass@@QAE@ABV0@@Z ENDP			; LineSegClass::LineSegClass
_TEXT	ENDS
; Function compile flags: /Odtp /ZI
; File x:\github\renegade\dragonade_rxd\scripts\linesegclass.h
;	COMDAT ?recalculate@LineSegClass@@IAEXXZ
_TEXT	SEGMENT
$T1 = -80						; size = 12
_this$ = -4						; size = 4
?recalculate@LineSegClass@@IAEXXZ PROC			; LineSegClass::recalculate, COMDAT
; _this$ = ecx

; 81   : 	{

	push	ebp
	mov	ebp, esp
	sub	esp, 80					; 00000050H
	push	ebx
	push	esi
	push	edi
	mov	DWORD PTR _this$[ebp], ecx

; 82   : 		DP = P1 - P0;

	mov	eax, DWORD PTR _this$[ebp]
	push	eax
	mov	ecx, DWORD PTR _this$[ebp]
	add	ecx, 12					; 0000000cH
	push	ecx
	lea	edx, DWORD PTR $T1[ebp]
	push	edx
	call	??G@YA?AVVector3@@ABV0@0@Z		; operator-
	add	esp, 12					; 0000000cH
	push	eax
	mov	ecx, DWORD PTR _this$[ebp]
	add	ecx, 24					; 00000018H
	call	??4Vector3@@QAEAAV0@ABV0@@Z		; Vector3::operator=

; 83   : 		Dir = DP;

	mov	eax, DWORD PTR _this$[ebp]
	add	eax, 24					; 00000018H
	push	eax
	mov	ecx, DWORD PTR _this$[ebp]
	add	ecx, 36					; 00000024H
	call	??4Vector3@@QAEAAV0@ABV0@@Z		; Vector3::operator=

; 84   : 		Dir.Normalize();

	mov	ecx, DWORD PTR _this$[ebp]
	add	ecx, 36					; 00000024H
	call	?Normalize@Vector3@@QAEXXZ		; Vector3::Normalize

; 85   : 		Length = DP.Length();

	mov	ecx, DWORD PTR _this$[ebp]
	add	ecx, 24					; 00000018H
	call	?Length@Vector3@@QBEMXZ			; Vector3::Length
	mov	eax, DWORD PTR _this$[ebp]
	fstp	DWORD PTR [eax+48]

; 86   : 	}

	pop	edi
	pop	esi
	pop	ebx
	mov	esp, ebp
	pop	ebp
	ret	0
?recalculate@LineSegClass@@IAEXXZ ENDP			; LineSegClass::recalculate
_TEXT	ENDS
; Function compile flags: /Odtp /ZI
; File x:\github\renegade\dragonade_rxd\scripts\linesegclass.h
;	COMDAT ?Compute_Point@LineSegClass@@QBEXMPAVVector3@@@Z
_TEXT	SEGMENT
$T1 = -80						; size = 12
_this$ = -4						; size = 4
_t$ = 8							; size = 4
_set$ = 12						; size = 4
?Compute_Point@LineSegClass@@QBEXMPAVVector3@@@Z PROC	; LineSegClass::Compute_Point, COMDAT
; _this$ = ecx

; 74   : 	{

	push	ebp
	mov	ebp, esp
	sub	esp, 80					; 00000050H
	push	ebx
	push	esi
	push	edi
	mov	DWORD PTR _this$[ebp], ecx

; 75   : 		Vector3::Add(P0,t*DP,set);

	mov	eax, DWORD PTR _set$[ebp]
	push	eax
	mov	ecx, DWORD PTR _this$[ebp]
	add	ecx, 24					; 00000018H
	push	ecx
	push	ecx
	movss	xmm0, DWORD PTR _t$[ebp]
	movss	DWORD PTR [esp], xmm0
	lea	edx, DWORD PTR $T1[ebp]
	push	edx
	call	??D@YA?AVVector3@@MABV0@@Z		; operator*
	add	esp, 12					; 0000000cH
	push	eax
	mov	eax, DWORD PTR _this$[ebp]
	push	eax
	call	?Add@Vector3@@SAXABV1@0PAV1@@Z		; Vector3::Add
	add	esp, 12					; 0000000cH

; 76   : 	}

	pop	edi
	pop	esi
	pop	ebx
	mov	esp, ebp
	pop	ebp
	ret	8
?Compute_Point@LineSegClass@@QBEXMPAVVector3@@@Z ENDP	; LineSegClass::Compute_Point
_TEXT	ENDS
; Function compile flags: /Odtp /ZI
; File x:\github\renegade\dragonade_rxd\scripts\linesegclass.h
;	COMDAT ?Get_Length@LineSegClass@@QBEMXZ
_TEXT	SEGMENT
_this$ = -4						; size = 4
?Get_Length@LineSegClass@@QBEMXZ PROC			; LineSegClass::Get_Length, COMDAT
; _this$ = ecx

; 70   : 	{

	push	ebp
	mov	ebp, esp
	sub	esp, 68					; 00000044H
	push	ebx
	push	esi
	push	edi
	mov	DWORD PTR _this$[ebp], ecx

; 71   : 		return Length;

	mov	eax, DWORD PTR _this$[ebp]
	fld	DWORD PTR [eax+48]

; 72   : 	}

	pop	edi
	pop	esi
	pop	ebx
	mov	esp, ebp
	pop	ebp
	ret	0
?Get_Length@LineSegClass@@QBEMXZ ENDP			; LineSegClass::Get_Length
_TEXT	ENDS
; Function compile flags: /Odtp /ZI
; File x:\github\renegade\dragonade_rxd\scripts\linesegclass.h
;	COMDAT ?Get_Dir@LineSegClass@@QBEABVVector3@@XZ
_TEXT	SEGMENT
_this$ = -4						; size = 4
?Get_Dir@LineSegClass@@QBEABVVector3@@XZ PROC		; LineSegClass::Get_Dir, COMDAT
; _this$ = ecx

; 66   : 	{

	push	ebp
	mov	ebp, esp
	sub	esp, 68					; 00000044H
	push	ebx
	push	esi
	push	edi
	mov	DWORD PTR _this$[ebp], ecx

; 67   : 		return Dir;

	mov	eax, DWORD PTR _this$[ebp]
	add	eax, 36					; 00000024H

; 68   : 	}

	pop	edi
	pop	esi
	pop	ebx
	mov	esp, ebp
	pop	ebp
	ret	0
?Get_Dir@LineSegClass@@QBEABVVector3@@XZ ENDP		; LineSegClass::Get_Dir
_TEXT	ENDS
; Function compile flags: /Odtp /ZI
; File x:\github\renegade\dragonade_rxd\scripts\linesegclass.h
;	COMDAT ?Get_DP@LineSegClass@@QBEABVVector3@@XZ
_TEXT	SEGMENT
_this$ = -4						; size = 4
?Get_DP@LineSegClass@@QBEABVVector3@@XZ PROC		; LineSegClass::Get_DP, COMDAT
; _this$ = ecx

; 62   : 	{

	push	ebp
	mov	ebp, esp
	sub	esp, 68					; 00000044H
	push	ebx
	push	esi
	push	edi
	mov	DWORD PTR _this$[ebp], ecx

; 63   : 		return DP;

	mov	eax, DWORD PTR _this$[ebp]
	add	eax, 24					; 00000018H

; 64   : 	}

	pop	edi
	pop	esi
	pop	ebx
	mov	esp, ebp
	pop	ebp
	ret	0
?Get_DP@LineSegClass@@QBEABVVector3@@XZ ENDP		; LineSegClass::Get_DP
_TEXT	ENDS
; Function compile flags: /Odtp /ZI
; File x:\github\renegade\dragonade_rxd\scripts\linesegclass.h
;	COMDAT ?Get_P1@LineSegClass@@QBEABVVector3@@XZ
_TEXT	SEGMENT
_this$ = -4						; size = 4
?Get_P1@LineSegClass@@QBEABVVector3@@XZ PROC		; LineSegClass::Get_P1, COMDAT
; _this$ = ecx

; 58   : 	{

	push	ebp
	mov	ebp, esp
	sub	esp, 68					; 00000044H
	push	ebx
	push	esi
	push	edi
	mov	DWORD PTR _this$[ebp], ecx

; 59   : 		return P1;

	mov	eax, DWORD PTR _this$[ebp]
	add	eax, 12					; 0000000cH

; 60   : 	}

	pop	edi
	pop	esi
	pop	ebx
	mov	esp, ebp
	pop	ebp
	ret	0
?Get_P1@LineSegClass@@QBEABVVector3@@XZ ENDP		; LineSegClass::Get_P1
_TEXT	ENDS
; Function compile flags: /Odtp /ZI
; File x:\github\renegade\dragonade_rxd\scripts\linesegclass.h
;	COMDAT ?Get_P0@LineSegClass@@QBEABVVector3@@XZ
_TEXT	SEGMENT
_this$ = -4						; size = 4
?Get_P0@LineSegClass@@QBEABVVector3@@XZ PROC		; LineSegClass::Get_P0, COMDAT
; _this$ = ecx

; 54   : 	{

	push	ebp
	mov	ebp, esp
	sub	esp, 68					; 00000044H
	push	ebx
	push	esi
	push	edi
	mov	DWORD PTR _this$[ebp], ecx

; 55   : 		return P0;

	mov	eax, DWORD PTR _this$[ebp]

; 56   : 	}

	pop	edi
	pop	esi
	pop	ebx
	mov	esp, ebp
	pop	ebp
	ret	0
?Get_P0@LineSegClass@@QBEABVVector3@@XZ ENDP		; LineSegClass::Get_P0
_TEXT	ENDS
; Function compile flags: /Odtp /ZI
; File x:\github\renegade\dragonade_rxd\scripts\linesegclass.h
;	COMDAT ?Set@LineSegClass@@QAEXABVVector3@@0M@Z
_TEXT	SEGMENT
$T1 = -92						; size = 12
$T2 = -80						; size = 12
_this$ = -4						; size = 4
_p0$ = 8						; size = 4
_dir$ = 12						; size = 4
_l$ = 16						; size = 4
?Set@LineSegClass@@QAEXABVVector3@@0M@Z PROC		; LineSegClass::Set, COMDAT
; _this$ = ecx

; 44   : 	{

	push	ebp
	mov	ebp, esp
	sub	esp, 92					; 0000005cH
	push	ebx
	push	esi
	push	edi
	mov	DWORD PTR _this$[ebp], ecx

; 45   : 		DP = dir * l;

	push	ecx
	movss	xmm0, DWORD PTR _l$[ebp]
	movss	DWORD PTR [esp], xmm0
	mov	eax, DWORD PTR _dir$[ebp]
	push	eax
	lea	ecx, DWORD PTR $T1[ebp]
	push	ecx
	call	??D@YA?AVVector3@@ABV0@M@Z		; operator*
	add	esp, 12					; 0000000cH
	push	eax
	mov	ecx, DWORD PTR _this$[ebp]
	add	ecx, 24					; 00000018H
	call	??4Vector3@@QAEAAV0@ABV0@@Z		; Vector3::operator=

; 46   : 		P0 = p0;

	mov	eax, DWORD PTR _p0$[ebp]
	push	eax
	mov	ecx, DWORD PTR _this$[ebp]
	call	??4Vector3@@QAEAAV0@ABV0@@Z		; Vector3::operator=

; 47   : 		P1 = p0 + DP;

	mov	eax, DWORD PTR _this$[ebp]
	add	eax, 24					; 00000018H
	push	eax
	mov	ecx, DWORD PTR _p0$[ebp]
	push	ecx
	lea	edx, DWORD PTR $T2[ebp]
	push	edx
	call	??H@YA?AVVector3@@ABV0@0@Z		; operator+
	add	esp, 12					; 0000000cH
	push	eax
	mov	ecx, DWORD PTR _this$[ebp]
	add	ecx, 12					; 0000000cH
	call	??4Vector3@@QAEAAV0@ABV0@@Z		; Vector3::operator=

; 48   : 		Dir = dir;

	mov	eax, DWORD PTR _dir$[ebp]
	push	eax
	mov	ecx, DWORD PTR _this$[ebp]
	add	ecx, 36					; 00000024H
	call	??4Vector3@@QAEAAV0@ABV0@@Z		; Vector3::operator=

; 49   : 		Length = l;

	mov	eax, DWORD PTR _this$[ebp]
	movss	xmm0, DWORD PTR _l$[ebp]
	movss	DWORD PTR [eax+48], xmm0

; 50   : 	}

	pop	edi
	pop	esi
	pop	ebx
	mov	esp, ebp
	pop	ebp
	ret	12					; 0000000cH
?Set@LineSegClass@@QAEXABVVector3@@0M@Z ENDP		; LineSegClass::Set
_TEXT	ENDS
; Function compile flags: /Odtp /ZI
; File x:\github\renegade\dragonade_rxd\scripts\linesegclass.h
;	COMDAT ?Set@LineSegClass@@QAEXABVVector3@@0@Z
_TEXT	SEGMENT
_this$ = -4						; size = 4
_p0$ = 8						; size = 4
_p1$ = 12						; size = 4
?Set@LineSegClass@@QAEXABVVector3@@0@Z PROC		; LineSegClass::Set, COMDAT
; _this$ = ecx

; 38   : 	{

	push	ebp
	mov	ebp, esp
	sub	esp, 68					; 00000044H
	push	ebx
	push	esi
	push	edi
	mov	DWORD PTR _this$[ebp], ecx

; 39   : 		P0 = p0;

	mov	eax, DWORD PTR _p0$[ebp]
	push	eax
	mov	ecx, DWORD PTR _this$[ebp]
	call	??4Vector3@@QAEAAV0@ABV0@@Z		; Vector3::operator=

; 40   : 		P1 = p1;

	mov	eax, DWORD PTR _p1$[ebp]
	push	eax
	mov	ecx, DWORD PTR _this$[ebp]
	add	ecx, 12					; 0000000cH
	call	??4Vector3@@QAEAAV0@ABV0@@Z		; Vector3::operator=

; 41   : 		recalculate();

	mov	ecx, DWORD PTR _this$[ebp]
	call	?recalculate@LineSegClass@@IAEXXZ	; LineSegClass::recalculate

; 42   : 	}

	pop	edi
	pop	esi
	pop	ebx
	mov	esp, ebp
	pop	ebp
	ret	8
?Set@LineSegClass@@QAEXABVVector3@@0@Z ENDP		; LineSegClass::Set
_TEXT	ENDS
; Function compile flags: /Odtp /ZI
; File x:\github\renegade\dragonade_rxd\scripts\linesegclass.h
;	COMDAT ??0LineSegClass@@QAE@ABV0@ABVMatrix3D@@@Z
_TEXT	SEGMENT
_this$ = -4						; size = 4
_that$ = 8						; size = 4
_tm$ = 12						; size = 4
??0LineSegClass@@QAE@ABV0@ABVMatrix3D@@@Z PROC		; LineSegClass::LineSegClass, COMDAT
; _this$ = ecx

; 33   : 	LineSegClass(const LineSegClass & that,const Matrix3D & tm)

	push	ebp
	mov	ebp, esp
	sub	esp, 68					; 00000044H
	push	ebx
	push	esi
	push	edi
	mov	DWORD PTR _this$[ebp], ecx
	mov	ecx, DWORD PTR _this$[ebp]
	call	??0Vector3@@QAE@XZ			; Vector3::Vector3
	mov	ecx, DWORD PTR _this$[ebp]
	add	ecx, 12					; 0000000cH
	call	??0Vector3@@QAE@XZ			; Vector3::Vector3
	mov	ecx, DWORD PTR _this$[ebp]
	add	ecx, 24					; 00000018H
	call	??0Vector3@@QAE@XZ			; Vector3::Vector3
	mov	ecx, DWORD PTR _this$[ebp]
	add	ecx, 36					; 00000024H
	call	??0Vector3@@QAE@XZ			; Vector3::Vector3

; 34   : 	{
; 35   : 		Set(that,tm);

	mov	eax, DWORD PTR _tm$[ebp]
	push	eax
	mov	ecx, DWORD PTR _that$[ebp]
	push	ecx
	mov	ecx, DWORD PTR _this$[ebp]
	call	?Set@LineSegClass@@QAEXABV1@ABVMatrix3D@@@Z ; LineSegClass::Set

; 36   : 	}

	mov	eax, DWORD PTR _this$[ebp]
	pop	edi
	pop	esi
	pop	ebx
	mov	esp, ebp
	pop	ebp
	ret	8
??0LineSegClass@@QAE@ABV0@ABVMatrix3D@@@Z ENDP		; LineSegClass::LineSegClass
_TEXT	ENDS
; Function compile flags: /Odtp /ZI
; File x:\github\renegade\dragonade_rxd\scripts\linesegclass.h
;	COMDAT ??0LineSegClass@@QAE@ABVVector3@@0M@Z
_TEXT	SEGMENT
$T1 = -92						; size = 12
$T2 = -80						; size = 12
_this$ = -4						; size = 4
_p0$ = 8						; size = 4
_dir$ = 12						; size = 4
_l$ = 16						; size = 4
??0LineSegClass@@QAE@ABVVector3@@0M@Z PROC		; LineSegClass::LineSegClass, COMDAT
; _this$ = ecx

; 29   : 	{

	push	ebp
	mov	ebp, esp
	sub	esp, 92					; 0000005cH
	push	ebx
	push	esi
	push	edi
	mov	DWORD PTR _this$[ebp], ecx
	mov	eax, DWORD PTR _p0$[ebp]
	push	eax
	mov	ecx, DWORD PTR _this$[ebp]
	call	??0Vector3@@QAE@ABV0@@Z			; Vector3::Vector3
	mov	ecx, DWORD PTR _this$[ebp]
	add	ecx, 12					; 0000000cH
	call	??0Vector3@@QAE@XZ			; Vector3::Vector3
	mov	ecx, DWORD PTR _this$[ebp]
	add	ecx, 24					; 00000018H
	call	??0Vector3@@QAE@XZ			; Vector3::Vector3
	mov	eax, DWORD PTR _dir$[ebp]
	push	eax
	mov	ecx, DWORD PTR _this$[ebp]
	add	ecx, 36					; 00000024H
	call	??0Vector3@@QAE@ABV0@@Z			; Vector3::Vector3
	mov	eax, DWORD PTR _this$[ebp]
	movss	xmm0, DWORD PTR _l$[ebp]
	movss	DWORD PTR [eax+48], xmm0

; 30   : 		DP = Dir * Length;

	mov	eax, DWORD PTR _this$[ebp]
	push	ecx
	movss	xmm0, DWORD PTR [eax+48]
	movss	DWORD PTR [esp], xmm0
	mov	ecx, DWORD PTR _this$[ebp]
	add	ecx, 36					; 00000024H
	push	ecx
	lea	edx, DWORD PTR $T1[ebp]
	push	edx
	call	??D@YA?AVVector3@@ABV0@M@Z		; operator*
	add	esp, 12					; 0000000cH
	push	eax
	mov	ecx, DWORD PTR _this$[ebp]
	add	ecx, 24					; 00000018H
	call	??4Vector3@@QAEAAV0@ABV0@@Z		; Vector3::operator=

; 31   : 		P1 = P0 + DP;

	mov	eax, DWORD PTR _this$[ebp]
	add	eax, 24					; 00000018H
	push	eax
	mov	ecx, DWORD PTR _this$[ebp]
	push	ecx
	lea	edx, DWORD PTR $T2[ebp]
	push	edx
	call	??H@YA?AVVector3@@ABV0@0@Z		; operator+
	add	esp, 12					; 0000000cH
	push	eax
	mov	ecx, DWORD PTR _this$[ebp]
	add	ecx, 12					; 0000000cH
	call	??4Vector3@@QAEAAV0@ABV0@@Z		; Vector3::operator=

; 32   : 	}

	mov	eax, DWORD PTR _this$[ebp]
	pop	edi
	pop	esi
	pop	ebx
	mov	esp, ebp
	pop	ebp
	ret	12					; 0000000cH
??0LineSegClass@@QAE@ABVVector3@@0M@Z ENDP		; LineSegClass::LineSegClass
_TEXT	ENDS
; Function compile flags: /Odtp /ZI
; File x:\github\renegade\dragonade_rxd\scripts\linesegclass.h
;	COMDAT ??0LineSegClass@@QAE@ABVVector3@@0@Z
_TEXT	SEGMENT
_this$ = -4						; size = 4
_p0$ = 8						; size = 4
_p1$ = 12						; size = 4
??0LineSegClass@@QAE@ABVVector3@@0@Z PROC		; LineSegClass::LineSegClass, COMDAT
; _this$ = ecx

; 25   : 	{

	push	ebp
	mov	ebp, esp
	sub	esp, 68					; 00000044H
	push	ebx
	push	esi
	push	edi
	mov	DWORD PTR _this$[ebp], ecx
	mov	eax, DWORD PTR _p0$[ebp]
	push	eax
	mov	ecx, DWORD PTR _this$[ebp]
	call	??0Vector3@@QAE@ABV0@@Z			; Vector3::Vector3
	mov	eax, DWORD PTR _p1$[ebp]
	push	eax
	mov	ecx, DWORD PTR _this$[ebp]
	add	ecx, 12					; 0000000cH
	call	??0Vector3@@QAE@ABV0@@Z			; Vector3::Vector3
	mov	ecx, DWORD PTR _this$[ebp]
	add	ecx, 24					; 00000018H
	call	??0Vector3@@QAE@XZ			; Vector3::Vector3
	mov	ecx, DWORD PTR _this$[ebp]
	add	ecx, 36					; 00000024H
	call	??0Vector3@@QAE@XZ			; Vector3::Vector3

; 26   : 		recalculate();

	mov	ecx, DWORD PTR _this$[ebp]
	call	?recalculate@LineSegClass@@IAEXXZ	; LineSegClass::recalculate

; 27   : 	}

	mov	eax, DWORD PTR _this$[ebp]
	pop	edi
	pop	esi
	pop	ebx
	mov	esp, ebp
	pop	ebp
	ret	8
??0LineSegClass@@QAE@ABVVector3@@0@Z ENDP		; LineSegClass::LineSegClass
_TEXT	ENDS
; Function compile flags: /Odtp /ZI
; File x:\github\renegade\dragonade_rxd\scripts\linesegclass.h
;	COMDAT ??0LineSegClass@@QAE@XZ
_TEXT	SEGMENT
_this$ = -4						; size = 4
??0LineSegClass@@QAE@XZ PROC				; LineSegClass::LineSegClass, COMDAT
; _this$ = ecx

; 21   : 	LineSegClass(void)

	push	ebp
	mov	ebp, esp
	sub	esp, 68					; 00000044H
	push	ebx
	push	esi
	push	edi
	mov	DWORD PTR _this$[ebp], ecx
	mov	ecx, DWORD PTR _this$[ebp]
	call	??0Vector3@@QAE@XZ			; Vector3::Vector3
	mov	ecx, DWORD PTR _this$[ebp]
	add	ecx, 12					; 0000000cH
	call	??0Vector3@@QAE@XZ			; Vector3::Vector3
	mov	ecx, DWORD PTR _this$[ebp]
	add	ecx, 24					; 00000018H
	call	??0Vector3@@QAE@XZ			; Vector3::Vector3
	mov	ecx, DWORD PTR _this$[ebp]
	add	ecx, 36					; 00000024H
	call	??0Vector3@@QAE@XZ			; Vector3::Vector3

; 22   : 	{
; 23   : 	}

	mov	eax, DWORD PTR _this$[ebp]
	pop	edi
	pop	esi
	pop	ebx
	mov	esp, ebp
	pop	ebp
	ret	0
??0LineSegClass@@QAE@XZ ENDP				; LineSegClass::LineSegClass
_TEXT	ENDS
; Function compile flags: /Odtp /ZI
; File x:\github\renegade\dragonade_rxd\scripts\basegameobj.h
;	COMDAT ?Get_Definition@BaseGameObj@@QBEABVBaseGameObjDef@@XZ
_TEXT	SEGMENT
_this$ = -4						; size = 4
?Get_Definition@BaseGameObj@@QBEABVBaseGameObjDef@@XZ PROC ; BaseGameObj::Get_Definition, COMDAT
; _this$ = ecx

; 49   :     const BaseGameObjDef&       Get_Definition() const { return *Definition; };

	push	ebp
	mov	ebp, esp
	sub	esp, 68					; 00000044H
	push	ebx
	push	esi
	push	edi
	mov	DWORD PTR _this$[ebp], ecx
	mov	eax, DWORD PTR _this$[ebp]
	mov	eax, DWORD PTR [eax+1724]
	pop	edi
	pop	esi
	pop	ebx
	mov	esp, ebp
	pop	ebp
	ret	0
?Get_Definition@BaseGameObj@@QBEABVBaseGameObjDef@@XZ ENDP ; BaseGameObj::Get_Definition
_TEXT	ENDS
; Function compile flags: /Odtp /ZI
; File x:\github\renegade\dragonade_rxd\scripts\referenceableclass.h
;	COMDAT ?Get_Data@?$ReferenceableClass@VScriptableGameObj@@@@IBEPAVScriptableGameObj@@XZ
_TEXT	SEGMENT
_this$ = -4						; size = 4
?Get_Data@?$ReferenceableClass@VScriptableGameObj@@@@IBEPAVScriptableGameObj@@XZ PROC ; ReferenceableClass<ScriptableGameObj>::Get_Data, COMDAT
; _this$ = ecx

; 30   : 	T * Get_Data( void ) const	{ return ReferenceData; }

	push	ebp
	mov	ebp, esp
	sub	esp, 68					; 00000044H
	push	ebx
	push	esi
	push	edi
	mov	DWORD PTR _this$[ebp], ecx
	mov	eax, DWORD PTR _this$[ebp]
	mov	eax, DWORD PTR [eax+4]
	pop	edi
	pop	esi
	pop	ebx
	mov	esp, ebp
	pop	ebp
	ret	0
?Get_Data@?$ReferenceableClass@VScriptableGameObj@@@@IBEPAVScriptableGameObj@@XZ ENDP ; ReferenceableClass<ScriptableGameObj>::Get_Data
_TEXT	ENDS
; Function compile flags: /Odtp /ZI
;	COMDAT ??_EReferencerClass@@UAEPAXI@Z
_TEXT	SEGMENT
_this$ = -4						; size = 4
___flags$ = 8						; size = 4
??_EReferencerClass@@UAEPAXI@Z PROC			; ReferencerClass::`vector deleting destructor', COMDAT
; _this$ = ecx
	push	ebp
	mov	ebp, esp
	sub	esp, 68					; 00000044H
	push	ebx
	push	esi
	push	edi
	mov	DWORD PTR _this$[ebp], ecx
	mov	eax, DWORD PTR ___flags$[ebp]
	and	eax, 2
	je	SHORT $LN3@vector
	push	OFFSET ??1ReferencerClass@@UAE@XZ	; ReferencerClass::~ReferencerClass
	mov	eax, DWORD PTR _this$[ebp]
	mov	ecx, DWORD PTR [eax-4]
	push	ecx
	push	16					; 00000010H
	mov	edx, DWORD PTR _this$[ebp]
	push	edx
	call	??_I@YGXPAXIHP6EX0@Z@Z
	mov	eax, DWORD PTR ___flags$[ebp]
	and	eax, 1
	je	SHORT $LN2@vector
	mov	eax, DWORD PTR _this$[ebp]
	sub	eax, 4
	push	eax
	call	??_V@YAXPAX@Z				; operator delete[]
	add	esp, 4
$LN2@vector:
	mov	eax, DWORD PTR _this$[ebp]
	sub	eax, 4
	jmp	SHORT $LN4@vector
$LN3@vector:
	mov	ecx, DWORD PTR _this$[ebp]
	call	??1ReferencerClass@@UAE@XZ		; ReferencerClass::~ReferencerClass
	mov	eax, DWORD PTR ___flags$[ebp]
	and	eax, 1
	je	SHORT $LN1@vector
	mov	eax, DWORD PTR _this$[ebp]
	push	eax
	call	??3@YAXPAX@Z				; operator delete
	add	esp, 4
$LN1@vector:
	mov	eax, DWORD PTR _this$[ebp]
$LN4@vector:
	pop	edi
	pop	esi
	pop	ebx
	mov	esp, ebp
	pop	ebp
	ret	4
??_EReferencerClass@@UAEPAXI@Z ENDP			; ReferencerClass::`vector deleting destructor'
_TEXT	ENDS
; Function compile flags: /Odtp /ZI
;	COMDAT ??_GReferencerClass@@UAEPAXI@Z
_TEXT	SEGMENT
_this$ = -4						; size = 4
___flags$ = 8						; size = 4
??_GReferencerClass@@UAEPAXI@Z PROC			; ReferencerClass::`scalar deleting destructor', COMDAT
; _this$ = ecx
	push	ebp
	mov	ebp, esp
	sub	esp, 68					; 00000044H
	push	ebx
	push	esi
	push	edi
	mov	DWORD PTR _this$[ebp], ecx
	mov	ecx, DWORD PTR _this$[ebp]
	call	??1ReferencerClass@@UAE@XZ		; ReferencerClass::~ReferencerClass
	mov	eax, DWORD PTR ___flags$[ebp]
	and	eax, 1
	je	SHORT $LN1@scalar
	mov	eax, DWORD PTR _this$[ebp]
	push	eax
	call	??3@YAXPAX@Z				; operator delete
	add	esp, 4
$LN1@scalar:
	mov	eax, DWORD PTR _this$[ebp]
	pop	edi
	pop	esi
	pop	ebx
	mov	esp, ebp
	pop	ebp
	ret	4
??_GReferencerClass@@UAEPAXI@Z ENDP			; ReferencerClass::`scalar deleting destructor'
_TEXT	ENDS
; Function compile flags: /Odtp /ZI
;	COMDAT ??0ReferencerClass@@QAE@ABV0@@Z
_TEXT	SEGMENT
_this$ = -4						; size = 4
___that$ = 8						; size = 4
??0ReferencerClass@@QAE@ABV0@@Z PROC			; ReferencerClass::ReferencerClass, COMDAT
; _this$ = ecx
	push	ebp
	mov	ebp, esp
	sub	esp, 68					; 00000044H
	push	ebx
	push	esi
	push	edi
	mov	DWORD PTR _this$[ebp], ecx
	mov	eax, DWORD PTR ___that$[ebp]
	push	eax
	mov	ecx, DWORD PTR _this$[ebp]
	call	??0PostLoadableClass@@QAE@ABV0@@Z
	mov	eax, DWORD PTR _this$[ebp]
	mov	DWORD PTR [eax], OFFSET ??_7ReferencerClass@@6B@
	mov	eax, DWORD PTR _this$[ebp]
	mov	ecx, DWORD PTR ___that$[ebp]
	mov	edx, DWORD PTR [ecx+8]
	mov	DWORD PTR [eax+8], edx
	mov	eax, DWORD PTR _this$[ebp]
	mov	ecx, DWORD PTR ___that$[ebp]
	mov	edx, DWORD PTR [ecx+12]
	mov	DWORD PTR [eax+12], edx
	mov	eax, DWORD PTR _this$[ebp]
	pop	edi
	pop	esi
	pop	ebx
	mov	esp, ebp
	pop	ebp
	ret	4
??0ReferencerClass@@QAE@ABV0@@Z ENDP			; ReferencerClass::ReferencerClass
_TEXT	ENDS
; Function compile flags: /Odtp /ZI
; File x:\github\renegade\dragonade_rxd\scripts\referencerclass.h
;	COMDAT ?Set_Ptr@ReferencerClass@@QAEXPAVScriptableGameObj@@@Z
_TEXT	SEGMENT
_this$ = -4						; size = 4
_object$ = 8						; size = 4
?Set_Ptr@ReferencerClass@@QAEXPAVScriptableGameObj@@@Z PROC ; ReferencerClass::Set_Ptr, COMDAT
; _this$ = ecx

; 61   : 	{

	push	ebp
	mov	ebp, esp
	sub	esp, 68					; 00000044H
	push	ebx
	push	esi
	push	edi
	mov	DWORD PTR _this$[ebp], ecx

; 62   : 		*this = object;

	mov	eax, DWORD PTR _object$[ebp]
	push	eax
	mov	ecx, DWORD PTR _this$[ebp]
	call	??4ReferencerClass@@QAEAAV0@PAVScriptableGameObj@@@Z ; ReferencerClass::operator=

; 63   : 	}

	pop	edi
	pop	esi
	pop	ebx
	mov	esp, ebp
	pop	ebp
	ret	4
?Set_Ptr@ReferencerClass@@QAEXPAVScriptableGameObj@@@Z ENDP ; ReferencerClass::Set_Ptr
_TEXT	ENDS
; Function compile flags: /Odtp /ZI
; File x:\github\renegade\dragonade_rxd\scripts\referencerclass.h
;	COMDAT ?Get_Ptr@ReferencerClass@@QBEPAVScriptableGameObj@@XZ
_TEXT	SEGMENT
tv69 = -72						; size = 4
_this$ = -4						; size = 4
?Get_Ptr@ReferencerClass@@QBEPAVScriptableGameObj@@XZ PROC ; ReferencerClass::Get_Ptr, COMDAT
; _this$ = ecx

; 54   : 	{

	push	ebp
	mov	ebp, esp
	sub	esp, 72					; 00000048H
	push	ebx
	push	esi
	push	edi
	mov	DWORD PTR _this$[ebp], ecx

; 55   : 		return ReferenceTarget ? ReferenceTarget->Get_Data() : NULL;

	mov	eax, DWORD PTR _this$[ebp]
	cmp	DWORD PTR [eax+8], 0
	je	SHORT $LN3@Get_Ptr
	mov	ecx, DWORD PTR _this$[ebp]
	mov	ecx, DWORD PTR [ecx+8]
	call	?Get_Data@?$ReferenceableClass@VScriptableGameObj@@@@IBEPAVScriptableGameObj@@XZ ; ReferenceableClass<ScriptableGameObj>::Get_Data
	mov	DWORD PTR tv69[ebp], eax
	jmp	SHORT $LN4@Get_Ptr
$LN3@Get_Ptr:
	mov	DWORD PTR tv69[ebp], 0
$LN4@Get_Ptr:
	mov	eax, DWORD PTR tv69[ebp]

; 56   : 	}

	pop	edi
	pop	esi
	pop	ebx
	mov	esp, ebp
	pop	ebp
	ret	0
?Get_Ptr@ReferencerClass@@QBEPAVScriptableGameObj@@XZ ENDP ; ReferencerClass::Get_Ptr
_TEXT	ENDS
; Function compile flags: /Odtp /ZI
; File x:\github\renegade\dragonade_rxd\scripts\referencerclass.h
;	COMDAT ??0ReferencerClass@@QAE@PAVScriptableGameObj@@@Z
_TEXT	SEGMENT
_this$ = -4						; size = 4
_object$ = 8						; size = 4
??0ReferencerClass@@QAE@PAVScriptableGameObj@@@Z PROC	; ReferencerClass::ReferencerClass, COMDAT
; _this$ = ecx

; 48   : 	{

	push	ebp
	mov	ebp, esp
	sub	esp, 68					; 00000044H
	push	ebx
	push	esi
	push	edi
	mov	DWORD PTR _this$[ebp], ecx
	mov	ecx, DWORD PTR _this$[ebp]
	call	??0PostLoadableClass@@QAE@XZ		; PostLoadableClass::PostLoadableClass
	mov	eax, DWORD PTR _this$[ebp]
	mov	DWORD PTR [eax], OFFSET ??_7ReferencerClass@@6B@
	mov	eax, DWORD PTR _this$[ebp]
	mov	DWORD PTR [eax+8], 0
	mov	eax, DWORD PTR _this$[ebp]
	mov	DWORD PTR [eax+12], 0

; 49   : 		*this = object;

	mov	eax, DWORD PTR _object$[ebp]
	push	eax
	mov	ecx, DWORD PTR _this$[ebp]
	call	??4ReferencerClass@@QAEAAV0@PAVScriptableGameObj@@@Z ; ReferencerClass::operator=

; 50   : 	}

	mov	eax, DWORD PTR _this$[ebp]
	pop	edi
	pop	esi
	pop	ebx
	mov	esp, ebp
	pop	ebp
	ret	4
??0ReferencerClass@@QAE@PAVScriptableGameObj@@@Z ENDP	; ReferencerClass::ReferencerClass
_TEXT	ENDS
; Function compile flags: /Odtp /ZI
; File x:\github\renegade\dragonade_rxd\scripts\referencerclass.h
;	COMDAT ??0ReferencerClass@@QAE@XZ
_TEXT	SEGMENT
_this$ = -4						; size = 4
??0ReferencerClass@@QAE@XZ PROC				; ReferencerClass::ReferencerClass, COMDAT
; _this$ = ecx

; 41   : 	{

	push	ebp
	mov	ebp, esp
	sub	esp, 68					; 00000044H
	push	ebx
	push	esi
	push	edi
	mov	DWORD PTR _this$[ebp], ecx
	mov	ecx, DWORD PTR _this$[ebp]
	call	??0PostLoadableClass@@QAE@XZ		; PostLoadableClass::PostLoadableClass
	mov	eax, DWORD PTR _this$[ebp]
	mov	DWORD PTR [eax], OFFSET ??_7ReferencerClass@@6B@
	mov	eax, DWORD PTR _this$[ebp]
	mov	DWORD PTR [eax+8], 0
	mov	eax, DWORD PTR _this$[ebp]
	mov	DWORD PTR [eax+12], 0

; 42   : 	}

	mov	eax, DWORD PTR _this$[ebp]
	pop	edi
	pop	esi
	pop	ebx
	mov	esp, ebp
	pop	ebp
	ret	0
??0ReferencerClass@@QAE@XZ ENDP				; ReferencerClass::ReferencerClass
_TEXT	ENDS
; Function compile flags: /Odtp /ZI
; File x:\github\renegade\dragonade_rxd\scripts\referencerclass.h
;	COMDAT ??CReferencerClass@@QAEPAVScriptableGameObj@@XZ
_TEXT	SEGMENT
_this$ = -4						; size = 4
??CReferencerClass@@QAEPAVScriptableGameObj@@XZ PROC	; ReferencerClass::operator->, COMDAT
; _this$ = ecx

; 37   : 	inline ScriptableGameObj* operator ->() { return Get_Ptr(); }

	push	ebp
	mov	ebp, esp
	sub	esp, 68					; 00000044H
	push	ebx
	push	esi
	push	edi
	mov	DWORD PTR _this$[ebp], ecx
	mov	ecx, DWORD PTR _this$[ebp]
	call	?Get_Ptr@ReferencerClass@@QBEPAVScriptableGameObj@@XZ ; ReferencerClass::Get_Ptr
	pop	edi
	pop	esi
	pop	ebx
	mov	esp, ebp
	pop	ebp
	ret	0
??CReferencerClass@@QAEPAVScriptableGameObj@@XZ ENDP	; ReferencerClass::operator->
_TEXT	ENDS
; Function compile flags: /Odtp /ZI
;	COMDAT ??4file_auto_ptr@@QAEAAV0@ABV0@@Z
_TEXT	SEGMENT
_this$ = -4						; size = 4
___that$ = 8						; size = 4
??4file_auto_ptr@@QAEAAV0@ABV0@@Z PROC			; file_auto_ptr::operator=, COMDAT
; _this$ = ecx
	push	ebp
	mov	ebp, esp
	sub	esp, 68					; 00000044H
	push	ebx
	push	esi
	push	edi
	mov	DWORD PTR _this$[ebp], ecx
	mov	eax, DWORD PTR ___that$[ebp]
	mov	ecx, DWORD PTR [eax]
	mov	edx, DWORD PTR [eax+4]
	mov	eax, DWORD PTR _this$[ebp]
	mov	DWORD PTR [eax], ecx
	mov	DWORD PTR [eax+4], edx
	mov	eax, DWORD PTR _this$[ebp]
	pop	edi
	pop	esi
	pop	ebx
	mov	esp, ebp
	pop	ebp
	ret	4
??4file_auto_ptr@@QAEAAV0@ABV0@@Z ENDP			; file_auto_ptr::operator=
_TEXT	ENDS
; Function compile flags: /Odtp /ZI
; File x:\github\renegade\dragonade_rxd\scripts\engine_io.h
;	COMDAT ?get@file_auto_ptr@@QAEPAVFileClass@@XZ
_TEXT	SEGMENT
_this$ = -4						; size = 4
?get@file_auto_ptr@@QAEPAVFileClass@@XZ PROC		; file_auto_ptr::get, COMDAT
; _this$ = ecx

; 202  : 	FileClass* get() { return _Ptr; }

	push	ebp
	mov	ebp, esp
	sub	esp, 68					; 00000044H
	push	ebx
	push	esi
	push	edi
	mov	DWORD PTR _this$[ebp], ecx
	mov	eax, DWORD PTR _this$[ebp]
	mov	eax, DWORD PTR [eax]
	pop	edi
	pop	esi
	pop	ebx
	mov	esp, ebp
	pop	ebp
	ret	0
?get@file_auto_ptr@@QAEPAVFileClass@@XZ ENDP		; file_auto_ptr::get
_TEXT	ENDS
; Function compile flags: /Odtp /ZI
; File x:\github\renegade\dragonade_rxd\scripts\engine_io.h
;	COMDAT ??Dfile_auto_ptr@@QAEAAVFileClass@@XZ
_TEXT	SEGMENT
_this$ = -4						; size = 4
??Dfile_auto_ptr@@QAEAAVFileClass@@XZ PROC		; file_auto_ptr::operator*, COMDAT
; _this$ = ecx

; 201  : 	FileClass& operator*() { return *_Ptr; }

	push	ebp
	mov	ebp, esp
	sub	esp, 68					; 00000044H
	push	ebx
	push	esi
	push	edi
	mov	DWORD PTR _this$[ebp], ecx
	mov	eax, DWORD PTR _this$[ebp]
	mov	eax, DWORD PTR [eax]
	pop	edi
	pop	esi
	pop	ebx
	mov	esp, ebp
	pop	ebp
	ret	0
??Dfile_auto_ptr@@QAEAAVFileClass@@XZ ENDP		; file_auto_ptr::operator*
_TEXT	ENDS
; Function compile flags: /Odtp /ZI
; File x:\github\renegade\dragonade_rxd\scripts\engine_io.h
;	COMDAT ??Bfile_auto_ptr@@QAEPAVFileClass@@XZ
_TEXT	SEGMENT
_this$ = -4						; size = 4
??Bfile_auto_ptr@@QAEPAVFileClass@@XZ PROC		; file_auto_ptr::operator FileClass *, COMDAT
; _this$ = ecx

; 200  : 	operator FileClass *() { return _Ptr; }

	push	ebp
	mov	ebp, esp
	sub	esp, 68					; 00000044H
	push	ebx
	push	esi
	push	edi
	mov	DWORD PTR _this$[ebp], ecx
	mov	eax, DWORD PTR _this$[ebp]
	mov	eax, DWORD PTR [eax]
	pop	edi
	pop	esi
	pop	ebx
	mov	esp, ebp
	pop	ebp
	ret	0
??Bfile_auto_ptr@@QAEPAVFileClass@@XZ ENDP		; file_auto_ptr::operator FileClass *
_TEXT	ENDS
; Function compile flags: /Odtp /ZI
; File x:\github\renegade\dragonade_rxd\scripts\engine_io.h
;	COMDAT ??Cfile_auto_ptr@@QAEPAVFileClass@@XZ
_TEXT	SEGMENT
_this$ = -4						; size = 4
??Cfile_auto_ptr@@QAEPAVFileClass@@XZ PROC		; file_auto_ptr::operator->, COMDAT
; _this$ = ecx

; 199  : 	FileClass* operator ->() { return _Ptr; }

	push	ebp
	mov	ebp, esp
	sub	esp, 68					; 00000044H
	push	ebx
	push	esi
	push	edi
	mov	DWORD PTR _this$[ebp], ecx
	mov	eax, DWORD PTR _this$[ebp]
	mov	eax, DWORD PTR [eax]
	pop	edi
	pop	esi
	pop	ebx
	mov	esp, ebp
	pop	ebp
	ret	0
??Cfile_auto_ptr@@QAEPAVFileClass@@XZ ENDP		; file_auto_ptr::operator->
_TEXT	ENDS
; Function compile flags: /Odtp /ZI
;	COMDAT ??_EINIClass@@UAEPAXI@Z
_TEXT	SEGMENT
_this$ = -4						; size = 4
___flags$ = 8						; size = 4
??_EINIClass@@UAEPAXI@Z PROC				; INIClass::`vector deleting destructor', COMDAT
; _this$ = ecx
	push	ebp
	mov	ebp, esp
	sub	esp, 68					; 00000044H
	push	ebx
	push	esi
	push	edi
	mov	DWORD PTR _this$[ebp], ecx
	mov	eax, DWORD PTR ___flags$[ebp]
	and	eax, 2
	je	SHORT $LN3@vector
	push	OFFSET ??1INIClass@@UAE@XZ		; INIClass::~INIClass
	mov	eax, DWORD PTR _this$[ebp]
	mov	ecx, DWORD PTR [eax-4]
	push	ecx
	push	16					; 00000010H
	mov	edx, DWORD PTR _this$[ebp]
	push	edx
	call	??_I@YGXPAXIHP6EX0@Z@Z
	mov	eax, DWORD PTR ___flags$[ebp]
	and	eax, 1
	je	SHORT $LN2@vector
	mov	eax, DWORD PTR _this$[ebp]
	sub	eax, 4
	push	eax
	call	??_V@YAXPAX@Z				; operator delete[]
	add	esp, 4
$LN2@vector:
	mov	eax, DWORD PTR _this$[ebp]
	sub	eax, 4
	jmp	SHORT $LN4@vector
$LN3@vector:
	mov	ecx, DWORD PTR _this$[ebp]
	call	??1INIClass@@UAE@XZ			; INIClass::~INIClass
	mov	eax, DWORD PTR ___flags$[ebp]
	and	eax, 1
	je	SHORT $LN1@vector
	mov	eax, DWORD PTR _this$[ebp]
	push	eax
	call	??3@YAXPAX@Z				; operator delete
	add	esp, 4
$LN1@vector:
	mov	eax, DWORD PTR _this$[ebp]
$LN4@vector:
	pop	edi
	pop	esi
	pop	ebx
	mov	esp, ebp
	pop	ebp
	ret	4
??_EINIClass@@UAEPAXI@Z ENDP				; INIClass::`vector deleting destructor'
_TEXT	ENDS
; Function compile flags: /Odtp /ZI
;	COMDAT ??_GINIClass@@UAEPAXI@Z
_TEXT	SEGMENT
_this$ = -4						; size = 4
___flags$ = 8						; size = 4
??_GINIClass@@UAEPAXI@Z PROC				; INIClass::`scalar deleting destructor', COMDAT
; _this$ = ecx
	push	ebp
	mov	ebp, esp
	sub	esp, 68					; 00000044H
	push	ebx
	push	esi
	push	edi
	mov	DWORD PTR _this$[ebp], ecx
	mov	ecx, DWORD PTR _this$[ebp]
	call	??1INIClass@@UAE@XZ			; INIClass::~INIClass
	mov	eax, DWORD PTR ___flags$[ebp]
	and	eax, 1
	je	SHORT $LN1@scalar
	mov	eax, DWORD PTR _this$[ebp]
	push	eax
	call	??3@YAXPAX@Z				; operator delete
	add	esp, 4
$LN1@scalar:
	mov	eax, DWORD PTR _this$[ebp]
	pop	edi
	pop	esi
	pop	ebx
	mov	esp, ebp
	pop	ebp
	ret	4
??_GINIClass@@UAEPAXI@Z ENDP				; INIClass::`scalar deleting destructor'
_TEXT	ENDS
; Function compile flags: /Odtp /ZI
;	COMDAT ??4INIClass@@QAEAAV0@ABV0@@Z
_TEXT	SEGMENT
_this$ = -4						; size = 4
___that$ = 8						; size = 4
??4INIClass@@QAEAAV0@ABV0@@Z PROC			; INIClass::operator=, COMDAT
; _this$ = ecx
	push	ebp
	mov	ebp, esp
	sub	esp, 68					; 00000044H
	push	ebx
	push	esi
	push	edi
	mov	DWORD PTR _this$[ebp], ecx
	mov	eax, DWORD PTR _this$[ebp]
	mov	ecx, DWORD PTR ___that$[ebp]
	mov	edx, DWORD PTR [ecx+4]
	mov	DWORD PTR [eax+4], edx
	mov	eax, DWORD PTR _this$[ebp]
	mov	ecx, DWORD PTR ___that$[ebp]
	mov	edx, DWORD PTR [ecx+8]
	mov	DWORD PTR [eax+8], edx
	mov	eax, DWORD PTR _this$[ebp]
	mov	ecx, DWORD PTR ___that$[ebp]
	mov	edx, DWORD PTR [ecx+12]
	mov	DWORD PTR [eax+12], edx
	mov	eax, DWORD PTR _this$[ebp]
	pop	edi
	pop	esi
	pop	ebx
	mov	esp, ebp
	pop	ebp
	ret	4
??4INIClass@@QAEAAV0@ABV0@@Z ENDP			; INIClass::operator=
_TEXT	ENDS
; Function compile flags: /Odtp /ZI
;	COMDAT ??0INIClass@@QAE@ABV0@@Z
_TEXT	SEGMENT
_this$ = -4						; size = 4
___that$ = 8						; size = 4
??0INIClass@@QAE@ABV0@@Z PROC				; INIClass::INIClass, COMDAT
; _this$ = ecx
	push	ebp
	mov	ebp, esp
	sub	esp, 68					; 00000044H
	push	ebx
	push	esi
	push	edi
	mov	DWORD PTR _this$[ebp], ecx
	mov	eax, DWORD PTR _this$[ebp]
	mov	DWORD PTR [eax], OFFSET ??_7INIClass@@6B@
	mov	eax, DWORD PTR _this$[ebp]
	mov	ecx, DWORD PTR ___that$[ebp]
	mov	edx, DWORD PTR [ecx+4]
	mov	DWORD PTR [eax+4], edx
	mov	eax, DWORD PTR _this$[ebp]
	mov	ecx, DWORD PTR ___that$[ebp]
	mov	edx, DWORD PTR [ecx+8]
	mov	DWORD PTR [eax+8], edx
	mov	eax, DWORD PTR _this$[ebp]
	mov	ecx, DWORD PTR ___that$[ebp]
	mov	edx, DWORD PTR [ecx+12]
	mov	DWORD PTR [eax+12], edx
	mov	eax, DWORD PTR _this$[ebp]
	pop	edi
	pop	esi
	pop	ebx
	mov	esp, ebp
	pop	ebp
	ret	4
??0INIClass@@QAE@ABV0@@Z ENDP				; INIClass::INIClass
_TEXT	ENDS
; Function compile flags: /Odtp /ZI
; File x:\github\renegade\dragonade_rxd\scripts\engine_io.h
;	COMDAT ?Get_File_Name@INIClass@@QAEPBDXZ
_TEXT	SEGMENT
_this$ = -4						; size = 4
?Get_File_Name@INIClass@@QAEPBDXZ PROC			; INIClass::Get_File_Name, COMDAT
; _this$ = ecx

; 183  : 	const char *Get_File_Name() { //DA

	push	ebp
	mov	ebp, esp
	sub	esp, 68					; 00000044H
	push	ebx
	push	esi
	push	edi
	mov	DWORD PTR _this$[ebp], ecx

; 184  : 		return Filename;

	mov	eax, DWORD PTR _this$[ebp]
	mov	eax, DWORD PTR [eax+12]

; 185  : 	}

	pop	edi
	pop	esi
	pop	ebx
	mov	esp, ebp
	pop	ebp
	ret	0
?Get_File_Name@INIClass@@QAEPBDXZ ENDP			; INIClass::Get_File_Name
_TEXT	ENDS
; Function compile flags: /Odtp /ZI
; File x:\github\renegade\dragonade_rxd\scripts\engine_io.h
;	COMDAT ?Get_Section_Index@INIClass@@QAEAAV?$IndexClass@HPAUINISection@@@@XZ
_TEXT	SEGMENT
_this$ = -4						; size = 4
?Get_Section_Index@INIClass@@QAEAAV?$IndexClass@HPAUINISection@@@@XZ PROC ; INIClass::Get_Section_Index, COMDAT
; _this$ = ecx

; 180  : 	{

	push	ebp
	mov	ebp, esp
	sub	esp, 68					; 00000044H
	push	ebx
	push	esi
	push	edi
	mov	DWORD PTR _this$[ebp], ecx

; 181  : 		return *SectionIndex;

	mov	eax, DWORD PTR _this$[ebp]
	mov	eax, DWORD PTR [eax+8]

; 182  : 	}

	pop	edi
	pop	esi
	pop	ebx
	mov	esp, ebp
	pop	ebp
	ret	0
?Get_Section_Index@INIClass@@QAEAAV?$IndexClass@HPAUINISection@@@@XZ ENDP ; INIClass::Get_Section_Index
_TEXT	ENDS
; Function compile flags: /Odtp /ZI
; File x:\github\renegade\dragonade_rxd\scripts\engine_io.h
;	COMDAT ?Get_Section_List@INIClass@@QAEAAV?$List@PAUINISection@@@@XZ
_TEXT	SEGMENT
_this$ = -4						; size = 4
?Get_Section_List@INIClass@@QAEAAV?$List@PAUINISection@@@@XZ PROC ; INIClass::Get_Section_List, COMDAT
; _this$ = ecx

; 176  : 	{

	push	ebp
	mov	ebp, esp
	sub	esp, 68					; 00000044H
	push	ebx
	push	esi
	push	edi
	mov	DWORD PTR _this$[ebp], ecx

; 177  : 		return *SectionList;

	mov	eax, DWORD PTR _this$[ebp]
	mov	eax, DWORD PTR [eax+4]

; 178  : 	}

	pop	edi
	pop	esi
	pop	ebx
	mov	esp, ebp
	pop	ebp
	ret	0
?Get_Section_List@INIClass@@QAEAAV?$List@PAUINISection@@@@XZ ENDP ; INIClass::Get_Section_List
_TEXT	ENDS
; Function compile flags: /Odtp /ZI
; File x:\github\renegade\dragonade_rxd\scripts\engine_io.h
;	COMDAT ?Section_Present@INIClass@@QBE_NPBD@Z
_TEXT	SEGMENT
tv68 = -72						; size = 4
_this$ = -4						; size = 4
_section$ = 8						; size = 4
?Section_Present@INIClass@@QBE_NPBD@Z PROC		; INIClass::Section_Present, COMDAT
; _this$ = ecx

; 172  : 	{

	push	ebp
	mov	ebp, esp
	sub	esp, 72					; 00000048H
	push	ebx
	push	esi
	push	edi
	mov	DWORD PTR _this$[ebp], ecx

; 173  : 		return Find_Section(section) != 0;

	mov	eax, DWORD PTR _section$[ebp]
	push	eax
	mov	ecx, DWORD PTR _this$[ebp]
	call	?Find_Section@INIClass@@QBEPAUINISection@@PBD@Z ; INIClass::Find_Section
	test	eax, eax
	je	SHORT $LN3@Section_Pr
	mov	DWORD PTR tv68[ebp], 1
	jmp	SHORT $LN4@Section_Pr
$LN3@Section_Pr:
	mov	DWORD PTR tv68[ebp], 0
$LN4@Section_Pr:
	mov	al, BYTE PTR tv68[ebp]

; 174  : 	}

	pop	edi
	pop	esi
	pop	ebx
	mov	esp, ebp
	pop	ebp
	ret	4
?Section_Present@INIClass@@QBE_NPBD@Z ENDP		; INIClass::Section_Present
_TEXT	ENDS
; Function compile flags: /Odtp /ZI
; File x:\github\renegade\dragonade_rxd\scripts\engine_io.h
;	COMDAT ?Is_Present@INIClass@@QBE_NPBD0@Z
_TEXT	SEGMENT
tv76 = -72						; size = 4
tv70 = -72						; size = 4
_this$ = -4						; size = 4
_section$ = 8						; size = 4
_entry$ = 12						; size = 4
?Is_Present@INIClass@@QBE_NPBD0@Z PROC			; INIClass::Is_Present, COMDAT
; _this$ = ecx

; 161  : 	{

	push	ebp
	mov	ebp, esp
	sub	esp, 72					; 00000048H
	push	ebx
	push	esi
	push	edi
	mov	DWORD PTR _this$[ebp], ecx

; 162  : 		if (entry)

	cmp	DWORD PTR _entry$[ebp], 0
	je	SHORT $LN2@Is_Present

; 163  : 		{
; 164  : 			return Find_Entry(section,entry) != 0;

	mov	eax, DWORD PTR _entry$[ebp]
	push	eax
	mov	ecx, DWORD PTR _section$[ebp]
	push	ecx
	mov	ecx, DWORD PTR _this$[ebp]
	call	?Find_Entry@INIClass@@QBEPAUINIEntry@@PBD0@Z ; INIClass::Find_Entry
	test	eax, eax
	je	SHORT $LN5@Is_Present
	mov	DWORD PTR tv70[ebp], 1
	jmp	SHORT $LN6@Is_Present
$LN5@Is_Present:
	mov	DWORD PTR tv70[ebp], 0
$LN6@Is_Present:
	mov	al, BYTE PTR tv70[ebp]
	jmp	SHORT $LN3@Is_Present

; 165  : 		}
; 166  : 		else

	jmp	SHORT $LN3@Is_Present
$LN2@Is_Present:

; 167  : 		{
; 168  : 			return Find_Section(section) != 0;

	mov	eax, DWORD PTR _section$[ebp]
	push	eax
	mov	ecx, DWORD PTR _this$[ebp]
	call	?Find_Section@INIClass@@QBEPAUINISection@@PBD@Z ; INIClass::Find_Section
	test	eax, eax
	je	SHORT $LN7@Is_Present
	mov	DWORD PTR tv76[ebp], 1
	jmp	SHORT $LN8@Is_Present
$LN7@Is_Present:
	mov	DWORD PTR tv76[ebp], 0
$LN8@Is_Present:
	mov	al, BYTE PTR tv76[ebp]
$LN3@Is_Present:

; 169  : 		}
; 170  : 	}

	pop	edi
	pop	esi
	pop	ebx
	mov	esp, ebp
	pop	ebp
	ret	8
?Is_Present@INIClass@@QBE_NPBD0@Z ENDP			; INIClass::Is_Present
_TEXT	ENDS
; Function compile flags: /Odtp /ZI
;	COMDAT ??4ChunkSaveClass@@QAEAAV0@ABV0@@Z
_TEXT	SEGMENT
_this$ = -4						; size = 4
___that$ = 8						; size = 4
??4ChunkSaveClass@@QAEAAV0@ABV0@@Z PROC			; ChunkSaveClass::operator=, COMDAT
; _this$ = ecx
	push	ebp
	mov	ebp, esp
	sub	esp, 68					; 00000044H
	push	ebx
	push	esi
	push	edi
	mov	DWORD PTR _this$[ebp], ecx
	mov	ecx, 773				; 00000305H
	mov	esi, DWORD PTR ___that$[ebp]
	mov	edi, DWORD PTR _this$[ebp]
	rep movsd
	mov	eax, DWORD PTR _this$[ebp]
	pop	edi
	pop	esi
	pop	ebx
	mov	esp, ebp
	pop	ebp
	ret	4
??4ChunkSaveClass@@QAEAAV0@ABV0@@Z ENDP			; ChunkSaveClass::operator=
_TEXT	ENDS
; Function compile flags: /Odtp /ZI
; File x:\github\renegade\dragonade_rxd\scripts\chunkclass.h
;	COMDAT ?Set_Contains_Chunks@ChunkSaveClass@@QAEXXZ
_TEXT	SEGMENT
_this$ = -4						; size = 4
?Set_Contains_Chunks@ChunkSaveClass@@QAEXXZ PROC	; ChunkSaveClass::Set_Contains_Chunks, COMDAT
; _this$ = ecx

; 102  : 	{

	push	ebp
	mov	ebp, esp
	sub	esp, 68					; 00000044H
	push	ebx
	push	esi
	push	edi
	mov	DWORD PTR _this$[ebp], ecx

; 103  : 		HeaderStack[StackIndex-1].ChunkSize |= 0x80000000;

	mov	eax, DWORD PTR _this$[ebp]
	mov	ecx, DWORD PTR [eax+4]
	mov	edx, DWORD PTR _this$[ebp]
	mov	eax, DWORD PTR [edx+ecx*8+1028]
	or	eax, -2147483648			; 80000000H
	mov	ecx, DWORD PTR _this$[ebp]
	mov	edx, DWORD PTR [ecx+4]
	mov	ecx, DWORD PTR _this$[ebp]
	mov	DWORD PTR [ecx+edx*8+1028], eax

; 104  : 	}

	pop	edi
	pop	esi
	pop	ebx
	mov	esp, ebp
	pop	ebp
	ret	0
?Set_Contains_Chunks@ChunkSaveClass@@QAEXXZ ENDP	; ChunkSaveClass::Set_Contains_Chunks
_TEXT	ENDS
; Function compile flags: /Odtp /ZI
;	COMDAT ??4ChunkLoadClass@@QAEAAV0@ABV0@@Z
_TEXT	SEGMENT
_this$ = -4						; size = 4
___that$ = 8						; size = 4
??4ChunkLoadClass@@QAEAAV0@ABV0@@Z PROC			; ChunkLoadClass::operator=, COMDAT
; _this$ = ecx
	push	ebp
	mov	ebp, esp
	sub	esp, 68					; 00000044H
	push	ebx
	push	esi
	push	edi
	mov	DWORD PTR _this$[ebp], ecx
	mov	ecx, 773				; 00000305H
	mov	esi, DWORD PTR ___that$[ebp]
	mov	edi, DWORD PTR _this$[ebp]
	rep movsd
	mov	eax, DWORD PTR _this$[ebp]
	pop	edi
	pop	esi
	pop	ebx
	mov	esp, ebp
	pop	ebp
	ret	4
??4ChunkLoadClass@@QAEAAV0@ABV0@@Z ENDP			; ChunkLoadClass::operator=
_TEXT	ENDS
; Function compile flags: /Odtp /ZI
;	COMDAT ??_EWideStringClass@@QAEPAXI@Z
_TEXT	SEGMENT
_this$ = -4						; size = 4
___flags$ = 8						; size = 4
??_EWideStringClass@@QAEPAXI@Z PROC			; WideStringClass::`vector deleting destructor', COMDAT
; _this$ = ecx
	push	ebp
	mov	ebp, esp
	sub	esp, 68					; 00000044H
	push	ebx
	push	esi
	push	edi
	mov	DWORD PTR _this$[ebp], ecx
	mov	eax, DWORD PTR ___flags$[ebp]
	and	eax, 2
	je	SHORT $LN3@vector
	push	OFFSET ??1WideStringClass@@QAE@XZ	; WideStringClass::~WideStringClass
	mov	eax, DWORD PTR _this$[ebp]
	mov	ecx, DWORD PTR [eax-4]
	push	ecx
	push	4
	mov	edx, DWORD PTR _this$[ebp]
	push	edx
	call	??_I@YGXPAXIHP6EX0@Z@Z
	mov	eax, DWORD PTR ___flags$[ebp]
	and	eax, 1
	je	SHORT $LN2@vector
	mov	eax, DWORD PTR _this$[ebp]
	sub	eax, 4
	push	eax
	call	??_V@YAXPAX@Z				; operator delete[]
	add	esp, 4
$LN2@vector:
	mov	eax, DWORD PTR _this$[ebp]
	sub	eax, 4
	jmp	SHORT $LN4@vector
$LN3@vector:
	mov	ecx, DWORD PTR _this$[ebp]
	call	??1WideStringClass@@QAE@XZ		; WideStringClass::~WideStringClass
	mov	eax, DWORD PTR ___flags$[ebp]
	and	eax, 1
	je	SHORT $LN1@vector
	mov	eax, DWORD PTR _this$[ebp]
	push	eax
	call	??3@YAXPAX@Z				; operator delete
	add	esp, 4
$LN1@vector:
	mov	eax, DWORD PTR _this$[ebp]
$LN4@vector:
	pop	edi
	pop	esi
	pop	ebx
	mov	esp, ebp
	pop	ebp
	ret	4
??_EWideStringClass@@QAEPAXI@Z ENDP			; WideStringClass::`vector deleting destructor'
_TEXT	ENDS
; Function compile flags: /Odtp /ZI
; File x:\github\renegade\dragonade_rxd\scripts\engine_string.h
;	COMDAT ??1WideStringClass@@QAE@XZ
_TEXT	SEGMENT
_this$ = -4						; size = 4
??1WideStringClass@@QAE@XZ PROC				; WideStringClass::~WideStringClass, COMDAT
; _this$ = ecx

; 778  : {

	push	ebp
	mov	ebp, esp
	sub	esp, 68					; 00000044H
	push	ebx
	push	esi
	push	edi
	mov	DWORD PTR _this$[ebp], ecx

; 779  : 	Free_String ();

	mov	ecx, DWORD PTR _this$[ebp]
	call	DWORD PTR __imp_?Free_String@WideStringClass@@AAEXXZ

; 780  : }

	pop	edi
	pop	esi
	pop	ebx
	mov	esp, ebp
	pop	ebp
	ret	0
??1WideStringClass@@QAE@XZ ENDP				; WideStringClass::~WideStringClass
_TEXT	ENDS
; Function compile flags: /Odtp /ZI
;	COMDAT ??_EStringClass@@QAEPAXI@Z
_TEXT	SEGMENT
_this$ = -4						; size = 4
___flags$ = 8						; size = 4
??_EStringClass@@QAEPAXI@Z PROC				; StringClass::`vector deleting destructor', COMDAT
; _this$ = ecx
	push	ebp
	mov	ebp, esp
	sub	esp, 68					; 00000044H
	push	ebx
	push	esi
	push	edi
	mov	DWORD PTR _this$[ebp], ecx
	mov	eax, DWORD PTR ___flags$[ebp]
	and	eax, 2
	je	SHORT $LN3@vector
	push	OFFSET ??1StringClass@@QAE@XZ		; StringClass::~StringClass
	mov	eax, DWORD PTR _this$[ebp]
	mov	ecx, DWORD PTR [eax-4]
	push	ecx
	push	4
	mov	edx, DWORD PTR _this$[ebp]
	push	edx
	call	??_I@YGXPAXIHP6EX0@Z@Z
	mov	eax, DWORD PTR ___flags$[ebp]
	and	eax, 1
	je	SHORT $LN2@vector
	mov	eax, DWORD PTR _this$[ebp]
	sub	eax, 4
	push	eax
	call	??_V@YAXPAX@Z				; operator delete[]
	add	esp, 4
$LN2@vector:
	mov	eax, DWORD PTR _this$[ebp]
	sub	eax, 4
	jmp	SHORT $LN4@vector
$LN3@vector:
	mov	ecx, DWORD PTR _this$[ebp]
	call	??1StringClass@@QAE@XZ			; StringClass::~StringClass
	mov	eax, DWORD PTR ___flags$[ebp]
	and	eax, 1
	je	SHORT $LN1@vector
	mov	eax, DWORD PTR _this$[ebp]
	push	eax
	call	??3@YAXPAX@Z				; operator delete
	add	esp, 4
$LN1@vector:
	mov	eax, DWORD PTR _this$[ebp]
$LN4@vector:
	pop	edi
	pop	esi
	pop	ebx
	mov	esp, ebp
	pop	ebp
	ret	4
??_EStringClass@@QAEPAXI@Z ENDP				; StringClass::`vector deleting destructor'
_TEXT	ENDS
; Function compile flags: /Odtp /ZI
; File x:\github\renegade\dragonade_rxd\scripts\engine_string.h
;	COMDAT ??1StringClass@@QAE@XZ
_TEXT	SEGMENT
_this$ = -4						; size = 4
??1StringClass@@QAE@XZ PROC				; StringClass::~StringClass, COMDAT
; _this$ = ecx

; 366  : {

	push	ebp
	mov	ebp, esp
	sub	esp, 68					; 00000044H
	push	ebx
	push	esi
	push	edi
	mov	DWORD PTR _this$[ebp], ecx

; 367  : 	Free_String ();

	mov	ecx, DWORD PTR _this$[ebp]
	call	DWORD PTR __imp_?Free_String@StringClass@@AAEXXZ

; 368  : }

	pop	edi
	pop	esi
	pop	ebx
	mov	esp, ebp
	pop	ebp
	ret	0
??1StringClass@@QAE@XZ ENDP				; StringClass::~StringClass
_TEXT	ENDS
; Function compile flags: /Odtp /ZI
;	COMDAT ??_EPostLoadableClass@@UAEPAXI@Z
_TEXT	SEGMENT
_this$ = -4						; size = 4
___flags$ = 8						; size = 4
??_EPostLoadableClass@@UAEPAXI@Z PROC			; PostLoadableClass::`vector deleting destructor', COMDAT
; _this$ = ecx
	push	ebp
	mov	ebp, esp
	sub	esp, 68					; 00000044H
	push	ebx
	push	esi
	push	edi
	mov	DWORD PTR _this$[ebp], ecx
	mov	eax, DWORD PTR ___flags$[ebp]
	and	eax, 2
	je	SHORT $LN3@vector
	push	OFFSET ??1PostLoadableClass@@UAE@XZ	; PostLoadableClass::~PostLoadableClass
	mov	eax, DWORD PTR _this$[ebp]
	mov	ecx, DWORD PTR [eax-4]
	push	ecx
	push	8
	mov	edx, DWORD PTR _this$[ebp]
	push	edx
	call	??_I@YGXPAXIHP6EX0@Z@Z
	mov	eax, DWORD PTR ___flags$[ebp]
	and	eax, 1
	je	SHORT $LN2@vector
	mov	eax, DWORD PTR _this$[ebp]
	sub	eax, 4
	push	eax
	call	??_V@YAXPAX@Z				; operator delete[]
	add	esp, 4
$LN2@vector:
	mov	eax, DWORD PTR _this$[ebp]
	sub	eax, 4
	jmp	SHORT $LN4@vector
$LN3@vector:
	mov	ecx, DWORD PTR _this$[ebp]
	call	??1PostLoadableClass@@UAE@XZ		; PostLoadableClass::~PostLoadableClass
	mov	eax, DWORD PTR ___flags$[ebp]
	and	eax, 1
	je	SHORT $LN1@vector
	mov	eax, DWORD PTR _this$[ebp]
	push	eax
	call	??3@YAXPAX@Z				; operator delete
	add	esp, 4
$LN1@vector:
	mov	eax, DWORD PTR _this$[ebp]
$LN4@vector:
	pop	edi
	pop	esi
	pop	ebx
	mov	esp, ebp
	pop	ebp
	ret	4
??_EPostLoadableClass@@UAEPAXI@Z ENDP			; PostLoadableClass::`vector deleting destructor'
_TEXT	ENDS
; Function compile flags: /Odtp /ZI
;	COMDAT ??_GPostLoadableClass@@UAEPAXI@Z
_TEXT	SEGMENT
_this$ = -4						; size = 4
___flags$ = 8						; size = 4
??_GPostLoadableClass@@UAEPAXI@Z PROC			; PostLoadableClass::`scalar deleting destructor', COMDAT
; _this$ = ecx
	push	ebp
	mov	ebp, esp
	sub	esp, 68					; 00000044H
	push	ebx
	push	esi
	push	edi
	mov	DWORD PTR _this$[ebp], ecx
	mov	ecx, DWORD PTR _this$[ebp]
	call	??1PostLoadableClass@@UAE@XZ		; PostLoadableClass::~PostLoadableClass
	mov	eax, DWORD PTR ___flags$[ebp]
	and	eax, 1
	je	SHORT $LN1@scalar
	mov	eax, DWORD PTR _this$[ebp]
	push	eax
	call	??3@YAXPAX@Z				; operator delete
	add	esp, 4
$LN1@scalar:
	mov	eax, DWORD PTR _this$[ebp]
	pop	edi
	pop	esi
	pop	ebx
	mov	esp, ebp
	pop	ebp
	ret	4
??_GPostLoadableClass@@UAEPAXI@Z ENDP			; PostLoadableClass::`scalar deleting destructor'
_TEXT	ENDS
; Function compile flags: /Odtp /ZI
;	COMDAT ??4PostLoadableClass@@QAEAAV0@ABV0@@Z
_TEXT	SEGMENT
_this$ = -4						; size = 4
___that$ = 8						; size = 4
??4PostLoadableClass@@QAEAAV0@ABV0@@Z PROC		; PostLoadableClass::operator=, COMDAT
; _this$ = ecx
	push	ebp
	mov	ebp, esp
	sub	esp, 68					; 00000044H
	push	ebx
	push	esi
	push	edi
	mov	DWORD PTR _this$[ebp], ecx
	mov	eax, DWORD PTR _this$[ebp]
	mov	ecx, DWORD PTR ___that$[ebp]
	mov	dl, BYTE PTR [ecx+4]
	mov	BYTE PTR [eax+4], dl
	mov	eax, DWORD PTR _this$[ebp]
	pop	edi
	pop	esi
	pop	ebx
	mov	esp, ebp
	pop	ebp
	ret	4
??4PostLoadableClass@@QAEAAV0@ABV0@@Z ENDP		; PostLoadableClass::operator=
_TEXT	ENDS
; Function compile flags: /Odtp /ZI
;	COMDAT ??0PostLoadableClass@@QAE@ABV0@@Z
_TEXT	SEGMENT
_this$ = -4						; size = 4
___that$ = 8						; size = 4
??0PostLoadableClass@@QAE@ABV0@@Z PROC			; PostLoadableClass::PostLoadableClass, COMDAT
; _this$ = ecx
	push	ebp
	mov	ebp, esp
	sub	esp, 68					; 00000044H
	push	ebx
	push	esi
	push	edi
	mov	DWORD PTR _this$[ebp], ecx
	mov	eax, DWORD PTR _this$[ebp]
	mov	DWORD PTR [eax], OFFSET ??_7PostLoadableClass@@6B@
	mov	eax, DWORD PTR _this$[ebp]
	mov	ecx, DWORD PTR ___that$[ebp]
	mov	dl, BYTE PTR [ecx+4]
	mov	BYTE PTR [eax+4], dl
	mov	eax, DWORD PTR _this$[ebp]
	pop	edi
	pop	esi
	pop	ebx
	mov	esp, ebp
	pop	ebp
	ret	4
??0PostLoadableClass@@QAE@ABV0@@Z ENDP			; PostLoadableClass::PostLoadableClass
_TEXT	ENDS
; Function compile flags: /Odtp /ZI
; File x:\github\renegade\dragonade_rxd\scripts\postloadableclass.h
;	COMDAT ?Set_Post_Load_Registered@PostLoadableClass@@QAEX_N@Z
_TEXT	SEGMENT
_this$ = -4						; size = 4
_onoff$ = 8						; size = 1
?Set_Post_Load_Registered@PostLoadableClass@@QAEX_N@Z PROC ; PostLoadableClass::Set_Post_Load_Registered, COMDAT
; _this$ = ecx

; 22   : 	void									Set_Post_Load_Registered(bool onoff)	{ IsPostLoadRegistered = onoff; }

	push	ebp
	mov	ebp, esp
	sub	esp, 68					; 00000044H
	push	ebx
	push	esi
	push	edi
	mov	DWORD PTR _this$[ebp], ecx
	mov	eax, DWORD PTR _this$[ebp]
	mov	cl, BYTE PTR _onoff$[ebp]
	mov	BYTE PTR [eax+4], cl
	pop	edi
	pop	esi
	pop	ebx
	mov	esp, ebp
	pop	ebp
	ret	4
?Set_Post_Load_Registered@PostLoadableClass@@QAEX_N@Z ENDP ; PostLoadableClass::Set_Post_Load_Registered
_TEXT	ENDS
; Function compile flags: /Odtp /ZI
; File x:\github\renegade\dragonade_rxd\scripts\postloadableclass.h
;	COMDAT ?Is_Post_Load_Registered@PostLoadableClass@@QBE_NXZ
_TEXT	SEGMENT
_this$ = -4						; size = 4
?Is_Post_Load_Registered@PostLoadableClass@@QBE_NXZ PROC ; PostLoadableClass::Is_Post_Load_Registered, COMDAT
; _this$ = ecx

; 21   : 	bool									Is_Post_Load_Registered(void) const				{ return IsPostLoadRegistered; }

	push	ebp
	mov	ebp, esp
	sub	esp, 68					; 00000044H
	push	ebx
	push	esi
	push	edi
	mov	DWORD PTR _this$[ebp], ecx
	mov	eax, DWORD PTR _this$[ebp]
	mov	al, BYTE PTR [eax+4]
	pop	edi
	pop	esi
	pop	ebx
	mov	esp, ebp
	pop	ebp
	ret	0
?Is_Post_Load_Registered@PostLoadableClass@@QBE_NXZ ENDP ; PostLoadableClass::Is_Post_Load_Registered
_TEXT	ENDS
; Function compile flags: /Odtp /ZI
; File x:\github\renegade\dragonade_rxd\scripts\postloadableclass.h
;	COMDAT ?On_Post_Load@PostLoadableClass@@UAEXXZ
_TEXT	SEGMENT
_this$ = -4						; size = 4
?On_Post_Load@PostLoadableClass@@UAEXXZ PROC		; PostLoadableClass::On_Post_Load, COMDAT
; _this$ = ecx

; 20   : 	virtual void						On_Post_Load (void)							{ }

	push	ebp
	mov	ebp, esp
	sub	esp, 68					; 00000044H
	push	ebx
	push	esi
	push	edi
	mov	DWORD PTR _this$[ebp], ecx
	pop	edi
	pop	esi
	pop	ebx
	mov	esp, ebp
	pop	ebp
	ret	0
?On_Post_Load@PostLoadableClass@@UAEXXZ ENDP		; PostLoadableClass::On_Post_Load
_TEXT	ENDS
; Function compile flags: /Odtp /ZI
; File x:\github\renegade\dragonade_rxd\scripts\postloadableclass.h
;	COMDAT ??1PostLoadableClass@@UAE@XZ
_TEXT	SEGMENT
_this$ = -4						; size = 4
??1PostLoadableClass@@UAE@XZ PROC			; PostLoadableClass::~PostLoadableClass, COMDAT
; _this$ = ecx

; 19   : 	virtual ~PostLoadableClass(void)													{ }

	push	ebp
	mov	ebp, esp
	sub	esp, 68					; 00000044H
	push	ebx
	push	esi
	push	edi
	mov	DWORD PTR _this$[ebp], ecx
	mov	eax, DWORD PTR _this$[ebp]
	mov	DWORD PTR [eax], OFFSET ??_7PostLoadableClass@@6B@
	pop	edi
	pop	esi
	pop	ebx
	mov	esp, ebp
	pop	ebp
	ret	0
??1PostLoadableClass@@UAE@XZ ENDP			; PostLoadableClass::~PostLoadableClass
_TEXT	ENDS
; Function compile flags: /Odtp /ZI
; File x:\github\renegade\dragonade_rxd\scripts\postloadableclass.h
;	COMDAT ??0PostLoadableClass@@QAE@XZ
_TEXT	SEGMENT
_this$ = -4						; size = 4
??0PostLoadableClass@@QAE@XZ PROC			; PostLoadableClass::PostLoadableClass, COMDAT
; _this$ = ecx

; 18   : 	PostLoadableClass(void) : IsPostLoadRegistered(false)						{ }

	push	ebp
	mov	ebp, esp
	sub	esp, 68					; 00000044H
	push	ebx
	push	esi
	push	edi
	mov	DWORD PTR _this$[ebp], ecx
	mov	eax, DWORD PTR _this$[ebp]
	mov	DWORD PTR [eax], OFFSET ??_7PostLoadableClass@@6B@
	mov	eax, DWORD PTR _this$[ebp]
	mov	BYTE PTR [eax+4], 0
	mov	eax, DWORD PTR _this$[ebp]
	pop	edi
	pop	esi
	pop	ebx
	mov	esp, ebp
	pop	ebp
	ret	0
??0PostLoadableClass@@QAE@XZ ENDP			; PostLoadableClass::PostLoadableClass
_TEXT	ENDS
; Function compile flags: /Odtp /ZI
;	COMDAT ??4SysTimeClass@@QAEAAV0@ABV0@@Z
_TEXT	SEGMENT
_this$ = -4						; size = 4
___that$ = 8						; size = 4
??4SysTimeClass@@QAEAAV0@ABV0@@Z PROC			; SysTimeClass::operator=, COMDAT
; _this$ = ecx
	push	ebp
	mov	ebp, esp
	sub	esp, 68					; 00000044H
	push	ebx
	push	esi
	push	edi
	mov	DWORD PTR _this$[ebp], ecx
	mov	eax, DWORD PTR ___that$[ebp]
	mov	ecx, DWORD PTR [eax]
	mov	edx, DWORD PTR [eax+4]
	mov	eax, DWORD PTR _this$[ebp]
	mov	DWORD PTR [eax], ecx
	mov	DWORD PTR [eax+4], edx
	mov	eax, DWORD PTR _this$[ebp]
	pop	edi
	pop	esi
	pop	ebx
	mov	esp, ebp
	pop	ebp
	ret	4
??4SysTimeClass@@QAEAAV0@ABV0@@Z ENDP			; SysTimeClass::operator=
_TEXT	ENDS
; Function compile flags: /Odtp /ZI
; File x:\github\renegade\dragonade_rxd\scripts\basecontrollerclass.h
;	COMDAT ?Get_Building_List@BaseControllerClass@@QAEAAV?$DynamicVectorClass@PAVBuildingGameObj@@@@XZ
_TEXT	SEGMENT
_this$ = -4						; size = 4
?Get_Building_List@BaseControllerClass@@QAEAAV?$DynamicVectorClass@PAVBuildingGameObj@@@@XZ PROC ; BaseControllerClass::Get_Building_List, COMDAT
; _this$ = ecx

; 130  : 	{

	push	ebp
	mov	ebp, esp
	sub	esp, 68					; 00000044H
	push	ebx
	push	esi
	push	edi
	mov	DWORD PTR _this$[ebp], ecx

; 131  : 		return BuildingList;

	mov	eax, DWORD PTR _this$[ebp]
	add	eax, 1724				; 000006bcH

; 132  : 	}

	pop	edi
	pop	esi
	pop	ebx
	mov	esp, ebp
	pop	ebp
	ret	0
?Get_Building_List@BaseControllerClass@@QAEAAV?$DynamicVectorClass@PAVBuildingGameObj@@@@XZ ENDP ; BaseControllerClass::Get_Building_List
_TEXT	ENDS
; Function compile flags: /Odtp /ZI
; File x:\github\renegade\dragonade_rxd\scripts\basecontrollerclass.h
;	COMDAT ?Is_Radar_Enabled@BaseControllerClass@@QBE_NXZ
_TEXT	SEGMENT
_this$ = -4						; size = 4
?Is_Radar_Enabled@BaseControllerClass@@QBE_NXZ PROC	; BaseControllerClass::Is_Radar_Enabled, COMDAT
; _this$ = ecx

; 126  : 	{

	push	ebp
	mov	ebp, esp
	sub	esp, 68					; 00000044H
	push	ebx
	push	esi
	push	edi
	mov	DWORD PTR _this$[ebp], ecx

; 127  : 		return RadarEnabled;

	mov	eax, DWORD PTR _this$[ebp]
	mov	al, BYTE PTR [eax+1751]

; 128  : 	}

	pop	edi
	pop	esi
	pop	ebx
	mov	esp, ebp
	pop	ebp
	ret	0
?Is_Radar_Enabled@BaseControllerClass@@QBE_NXZ ENDP	; BaseControllerClass::Is_Radar_Enabled
_TEXT	ENDS
; Function compile flags: /Odtp /ZI
; File x:\github\renegade\dragonade_rxd\scripts\basecontrollerclass.h
;	COMDAT ?Can_Generate_Vehicles@BaseControllerClass@@QBE_NXZ
_TEXT	SEGMENT
_this$ = -4						; size = 4
?Can_Generate_Vehicles@BaseControllerClass@@QBE_NXZ PROC ; BaseControllerClass::Can_Generate_Vehicles, COMDAT
; _this$ = ecx

; 106  : 	{

	push	ebp
	mov	ebp, esp
	sub	esp, 68					; 00000044H
	push	ebx
	push	esi
	push	edi
	mov	DWORD PTR _this$[ebp], ecx

; 107  : 		return CanGenerateVehicles;

	mov	eax, DWORD PTR _this$[ebp]
	mov	al, BYTE PTR [eax+1750]

; 108  : 	}

	pop	edi
	pop	esi
	pop	ebx
	mov	esp, ebp
	pop	ebp
	ret	0
?Can_Generate_Vehicles@BaseControllerClass@@QBE_NXZ ENDP ; BaseControllerClass::Can_Generate_Vehicles
_TEXT	ENDS
; Function compile flags: /Odtp /ZI
; File x:\github\renegade\dragonade_rxd\scripts\basecontrollerclass.h
;	COMDAT ?Can_Generate_Soldiers@BaseControllerClass@@QBE_NXZ
_TEXT	SEGMENT
_this$ = -4						; size = 4
?Can_Generate_Soldiers@BaseControllerClass@@QBE_NXZ PROC ; BaseControllerClass::Can_Generate_Soldiers, COMDAT
; _this$ = ecx

; 102  : 	{

	push	ebp
	mov	ebp, esp
	sub	esp, 68					; 00000044H
	push	ebx
	push	esi
	push	edi
	mov	DWORD PTR _this$[ebp], ecx

; 103  : 		return CanGenerateSoldiers;

	mov	eax, DWORD PTR _this$[ebp]
	mov	al, BYTE PTR [eax+1749]

; 104  : 	}

	pop	edi
	pop	esi
	pop	ebx
	mov	esp, ebp
	pop	ebp
	ret	0
?Can_Generate_Soldiers@BaseControllerClass@@QBE_NXZ ENDP ; BaseControllerClass::Can_Generate_Soldiers
_TEXT	ENDS
; Function compile flags: /Odtp /ZI
; File x:\github\renegade\dragonade_rxd\scripts\basecontrollerclass.h
;	COMDAT ?Is_Base_Powered@BaseControllerClass@@QBE_NXZ
_TEXT	SEGMENT
_this$ = -4						; size = 4
?Is_Base_Powered@BaseControllerClass@@QBE_NXZ PROC	; BaseControllerClass::Is_Base_Powered, COMDAT
; _this$ = ecx

; 94   : 	{

	push	ebp
	mov	ebp, esp
	sub	esp, 68					; 00000044H
	push	ebx
	push	esi
	push	edi
	mov	DWORD PTR _this$[ebp], ecx

; 95   : 		return IsPowered;

	mov	eax, DWORD PTR _this$[ebp]
	mov	al, BYTE PTR [eax+1748]

; 96   : 	}

	pop	edi
	pop	esi
	pop	ebx
	mov	esp, ebp
	pop	ebp
	ret	0
?Is_Base_Powered@BaseControllerClass@@QBE_NXZ ENDP	; BaseControllerClass::Is_Base_Powered
_TEXT	ENDS
; Function compile flags: /Odtp /ZI
; File x:\github\renegade\dragonade_rxd\scripts\engine_game.cpp
;	COMDAT ?Check_Vehicle_Factory@BaseControllerClass@@QAEXXZ
_TEXT	SEGMENT
_building$1 = -12					; size = 4
_i$2 = -8						; size = 4
_this$ = -4						; size = 4
?Check_Vehicle_Factory@BaseControllerClass@@QAEXXZ PROC	; BaseControllerClass::Check_Vehicle_Factory, COMDAT
; _this$ = ecx

; 87   : {

	push	ebp
	mov	ebp, esp
	sub	esp, 76					; 0000004cH
	push	ebx
	push	esi
	push	edi
	mov	DWORD PTR _this$[ebp], ecx

; 88   : 	if (CombatManager::I_Am_Server())

	call	?I_Am_Server@CombatManager@@SA_NXZ	; CombatManager::I_Am_Server
	movzx	eax, al
	test	eax, eax
	je	$LN8@Check_Vehi

; 89   : 	{
; 90   : 		for (int i = 0; i < BuildingList.Count(); ++i)

	mov	DWORD PTR _i$2[ebp], 0
	jmp	SHORT $LN6@Check_Vehi
$LN5@Check_Vehi:
	mov	eax, DWORD PTR _i$2[ebp]
	add	eax, 1
	mov	DWORD PTR _i$2[ebp], eax
$LN6@Check_Vehi:
	mov	ecx, DWORD PTR _this$[ebp]
	add	ecx, 1724				; 000006bcH
	call	?Count@?$DynamicVectorClass@PAVBuildingGameObj@@@@QBEHXZ ; DynamicVectorClass<BuildingGameObj *>::Count
	cmp	DWORD PTR _i$2[ebp], eax
	jge	SHORT $LN4@Check_Vehi

; 91   : 		{
; 92   : 			BuildingGameObj* building = BuildingList[i];

	mov	eax, DWORD PTR _i$2[ebp]
	push	eax
	mov	ecx, DWORD PTR _this$[ebp]
	add	ecx, 1724				; 000006bcH
	call	??A?$VectorClass@PAVBuildingGameObj@@@@QAEAAPAVBuildingGameObj@@H@Z ; VectorClass<BuildingGameObj *>::operator[]
	mov	ecx, DWORD PTR [eax]
	mov	DWORD PTR _building$1[ebp], ecx

; 93   : 			if (building->As_VehicleFactoryGameObj() || building->As_AirFactoryGameObj() || building->As_NavalFactoryGameObj())

	mov	eax, DWORD PTR _building$1[ebp]
	mov	edx, DWORD PTR [eax]
	mov	ecx, DWORD PTR _building$1[ebp]
	mov	eax, DWORD PTR [edx+120]
	call	eax
	test	eax, eax
	jne	SHORT $LN2@Check_Vehi
	mov	eax, DWORD PTR _building$1[ebp]
	mov	edx, DWORD PTR [eax]
	mov	ecx, DWORD PTR _building$1[ebp]
	mov	eax, DWORD PTR [edx+164]
	call	eax
	test	eax, eax
	jne	SHORT $LN2@Check_Vehi
	mov	eax, DWORD PTR _building$1[ebp]
	mov	edx, DWORD PTR [eax]
	mov	ecx, DWORD PTR _building$1[ebp]
	mov	eax, DWORD PTR [edx+168]
	call	eax
	test	eax, eax
	je	SHORT $LN3@Check_Vehi
$LN2@Check_Vehi:

; 94   : 			{
; 95   : 				if (!building->Is_Destroyed())

	mov	ecx, DWORD PTR _building$1[ebp]
	call	?Is_Destroyed@BuildingGameObj@@QBE_NXZ	; BuildingGameObj::Is_Destroyed
	movzx	eax, al
	test	eax, eax
	jne	SHORT $LN3@Check_Vehi

; 96   : 				{
; 97   : 					Set_Can_Generate_Vehicles(true);

	push	1
	mov	ecx, DWORD PTR _this$[ebp]
	call	?Set_Can_Generate_Vehicles@BaseControllerClass@@QAEX_N@Z ; BaseControllerClass::Set_Can_Generate_Vehicles

; 98   : 					return;

	jmp	SHORT $LN8@Check_Vehi
$LN3@Check_Vehi:

; 99   : 				}
; 100  : 			}
; 101  : 		}

	jmp	$LN5@Check_Vehi
$LN4@Check_Vehi:

; 102  : 		Set_Can_Generate_Vehicles(false);

	push	0
	mov	ecx, DWORD PTR _this$[ebp]
	call	?Set_Can_Generate_Vehicles@BaseControllerClass@@QAEX_N@Z ; BaseControllerClass::Set_Can_Generate_Vehicles
$LN8@Check_Vehi:

; 103  : 	}
; 104  : }

	pop	edi
	pop	esi
	pop	ebx
	mov	esp, ebp
	pop	ebp
	ret	0
?Check_Vehicle_Factory@BaseControllerClass@@QAEXXZ ENDP	; BaseControllerClass::Check_Vehicle_Factory
_TEXT	ENDS
; Function compile flags: /Odtp /ZI
; File x:\github\renegade\dragonade_rxd\scripts\engine_game.cpp
;	COMDAT ?Check_Radar@BaseControllerClass@@QAEXXZ
_TEXT	SEGMENT
tv90 = -84						; size = 4
_building$1 = -16					; size = 4
_i$2 = -12						; size = 4
_radarEnabled$3 = -5					; size = 1
_this$ = -4						; size = 4
?Check_Radar@BaseControllerClass@@QAEXXZ PROC		; BaseControllerClass::Check_Radar, COMDAT
; _this$ = ecx

; 107  : {

	push	ebp
	mov	ebp, esp
	sub	esp, 84					; 00000054H
	push	ebx
	push	esi
	push	edi
	mov	DWORD PTR _this$[ebp], ecx

; 108  : 	if (CombatManager::I_Am_Server())

	call	?I_Am_Server@CombatManager@@SA_NXZ	; CombatManager::I_Am_Server
	movzx	eax, al
	test	eax, eax
	je	$LN6@Check_Rada

; 109  : 	{
; 110  : 		bool radarEnabled = true;

	mov	BYTE PTR _radarEnabled$3[ebp], 1

; 111  : 		for (int i = 0; i < BuildingList.Count(); ++i)

	mov	DWORD PTR _i$2[ebp], 0
	jmp	SHORT $LN4@Check_Rada
$LN3@Check_Rada:
	mov	eax, DWORD PTR _i$2[ebp]
	add	eax, 1
	mov	DWORD PTR _i$2[ebp], eax
$LN4@Check_Rada:
	mov	ecx, DWORD PTR _this$[ebp]
	add	ecx, 1724				; 000006bcH
	call	?Count@?$DynamicVectorClass@PAVBuildingGameObj@@@@QBEHXZ ; DynamicVectorClass<BuildingGameObj *>::Count
	cmp	DWORD PTR _i$2[ebp], eax
	jge	SHORT $LN2@Check_Rada

; 112  : 		{
; 113  : 			const BuildingGameObj* building = BuildingList[i];

	mov	eax, DWORD PTR _i$2[ebp]
	push	eax
	mov	ecx, DWORD PTR _this$[ebp]
	add	ecx, 1724				; 000006bcH
	call	??A?$VectorClass@PAVBuildingGameObj@@@@QAEAAPAVBuildingGameObj@@H@Z ; VectorClass<BuildingGameObj *>::operator[]
	mov	ecx, DWORD PTR [eax]
	mov	DWORD PTR _building$1[ebp], ecx

; 114  : 			if (building->Get_Definition().Get_Type() == BuildingConstants::TYPE_COM_CENTER)

	mov	ecx, DWORD PTR _building$1[ebp]
	call	?Get_Definition@BuildingGameObj@@QBEABVBuildingGameObjDef@@XZ ; BuildingGameObj::Get_Definition
	mov	ecx, eax
	call	?Get_Type@BuildingGameObjDef@@QBE?AW4BuildingType@BuildingConstants@@XZ ; BuildingGameObjDef::Get_Type
	cmp	eax, 4
	jne	SHORT $LN1@Check_Rada

; 115  : 			{
; 116  : 				radarEnabled &= !building->Is_Destroyed(); // We need all communications centres to be online for the radar to work.

	mov	ecx, DWORD PTR _building$1[ebp]
	call	?Is_Destroyed@BuildingGameObj@@QBE_NXZ	; BuildingGameObj::Is_Destroyed
	movzx	eax, al
	test	eax, eax
	jne	SHORT $LN8@Check_Rada
	mov	DWORD PTR tv90[ebp], 1
	jmp	SHORT $LN9@Check_Rada
$LN8@Check_Rada:
	mov	DWORD PTR tv90[ebp], 0
$LN9@Check_Rada:
	movzx	ecx, BYTE PTR _radarEnabled$3[ebp]
	and	ecx, DWORD PTR tv90[ebp]
	mov	BYTE PTR _radarEnabled$3[ebp], cl
$LN1@Check_Rada:

; 117  : 			}
; 118  : 		}

	jmp	SHORT $LN3@Check_Rada
$LN2@Check_Rada:

; 119  : 		Enable_Radar(radarEnabled);

	movzx	eax, BYTE PTR _radarEnabled$3[ebp]
	push	eax
	mov	ecx, DWORD PTR _this$[ebp]
	call	?Enable_Radar@BaseControllerClass@@QAEX_N@Z ; BaseControllerClass::Enable_Radar
$LN6@Check_Rada:

; 120  : 	}
; 121  : }

	pop	edi
	pop	esi
	pop	ebx
	mov	esp, ebp
	pop	ebp
	ret	0
?Check_Radar@BaseControllerClass@@QAEXXZ ENDP		; BaseControllerClass::Check_Radar
_TEXT	ENDS
; Function compile flags: /Odtp /ZI
; File x:\github\renegade\dragonade_rxd\scripts\engine_game.cpp
;	COMDAT ?Set_Beacon_Destroyed_Base@BaseControllerClass@@QAEX_N@Z
_TEXT	SEGMENT
_this$ = -4						; size = 4
_BeaconDestroyed$ = 8					; size = 1
?Set_Beacon_Destroyed_Base@BaseControllerClass@@QAEX_N@Z PROC ; BaseControllerClass::Set_Beacon_Destroyed_Base, COMDAT
; _this$ = ecx

; 67   : {

	push	ebp
	mov	ebp, esp
	sub	esp, 68					; 00000044H
	push	ebx
	push	esi
	push	edi
	mov	DWORD PTR _this$[ebp], ecx

; 68   : 	BeaconDestroyedBase = BeaconDestroyed;

	mov	eax, DWORD PTR _this$[ebp]
	mov	cl, BYTE PTR _BeaconDestroyed$[ebp]
	mov	BYTE PTR [eax+1753], cl

; 69   : 	Set_Object_Dirty_Bit(NetworkObjectClass::BIT_OCCASIONAL,true);

	push	1
	push	3
	mov	eax, DWORD PTR _this$[ebp]
	mov	edx, DWORD PTR [eax]
	mov	ecx, DWORD PTR _this$[ebp]
	mov	eax, DWORD PTR [edx+56]
	call	eax

; 70   : }

	pop	edi
	pop	esi
	pop	ebx
	mov	esp, ebp
	pop	ebp
	ret	4
?Set_Beacon_Destroyed_Base@BaseControllerClass@@QAEX_N@Z ENDP ; BaseControllerClass::Set_Beacon_Destroyed_Base
_TEXT	ENDS
; Function compile flags: /Odtp /ZI
; File x:\github\renegade\dragonade_rxd\scripts\engine_game.cpp
;	COMDAT ?Destroy_Base@BaseControllerClass@@QAEXXZ
_TEXT	SEGMENT
?Destroy_Base@BaseControllerClass@@QAEXXZ PROC		; BaseControllerClass::Destroy_Base, COMDAT
; _this$ = ecx

; 65   : AT2(0x006EF840,0x006EEE00);

$AT3PatchStart$3:
	push	ecx
	push	edx
	push	OFFSET $AT3PatchStart$3
	push	0
	push	7269888					; 006eee00H
	push	7272512					; 006ef840H
	call	?HookupAT3@@YAPAXPAX000@Z		; HookupAT3
	add	esp, 16					; 00000010H
	pop	edx
	pop	ecx
	jmp	eax
?Destroy_Base@BaseControllerClass@@QAEXXZ ENDP		; BaseControllerClass::Destroy_Base
_TEXT	ENDS
; Function compile flags: /Odtp /ZI
; File x:\github\renegade\dragonade_rxd\scripts\engine_game.cpp
;	COMDAT ?Set_Base_Destroyed@BaseControllerClass@@QAEX_N@Z
_TEXT	SEGMENT
_this$ = -4						; size = 4
_newBaseDestroyed$ = 8					; size = 1
?Set_Base_Destroyed@BaseControllerClass@@QAEX_N@Z PROC	; BaseControllerClass::Set_Base_Destroyed, COMDAT
; _this$ = ecx

; 59   : {

	push	ebp
	mov	ebp, esp
	sub	esp, 68					; 00000044H
	push	ebx
	push	esi
	push	edi
	mov	DWORD PTR _this$[ebp], ecx

; 60   : 	BaseDestroyed = newBaseDestroyed;

	mov	eax, DWORD PTR _this$[ebp]
	mov	cl, BYTE PTR _newBaseDestroyed$[ebp]
	mov	BYTE PTR [eax+1752], cl

; 61   : 	Set_Object_Dirty_Bit(NetworkObjectClass::BIT_OCCASIONAL,true);

	push	1
	push	3
	mov	eax, DWORD PTR _this$[ebp]
	mov	edx, DWORD PTR [eax]
	mov	ecx, DWORD PTR _this$[ebp]
	mov	eax, DWORD PTR [edx+56]
	call	eax

; 62   : }

	pop	edi
	pop	esi
	pop	ebx
	mov	esp, ebp
	pop	ebp
	ret	4
?Set_Base_Destroyed@BaseControllerClass@@QAEX_N@Z ENDP	; BaseControllerClass::Set_Base_Destroyed
_TEXT	ENDS
; Function compile flags: /Odtp /ZI
; File x:\github\renegade\dragonade_rxd\scripts\engine_game.cpp
;	COMDAT ?Set_Can_Generate_Vehicles@BaseControllerClass@@QAEX_N@Z
_TEXT	SEGMENT
_this$ = -4						; size = 4
_CanGenerate$ = 8					; size = 1
?Set_Can_Generate_Vehicles@BaseControllerClass@@QAEX_N@Z PROC ; BaseControllerClass::Set_Can_Generate_Vehicles, COMDAT
; _this$ = ecx

; 54   : {

	push	ebp
	mov	ebp, esp
	sub	esp, 68					; 00000044H
	push	ebx
	push	esi
	push	edi
	mov	DWORD PTR _this$[ebp], ecx

; 55   : 	CanGenerateVehicles = CanGenerate;

	mov	eax, DWORD PTR _this$[ebp]
	mov	cl, BYTE PTR _CanGenerate$[ebp]
	mov	BYTE PTR [eax+1750], cl

; 56   : 	Set_Object_Dirty_Bit(NetworkObjectClass::BIT_OCCASIONAL,true);

	push	1
	push	3
	mov	eax, DWORD PTR _this$[ebp]
	mov	edx, DWORD PTR [eax]
	mov	ecx, DWORD PTR _this$[ebp]
	mov	eax, DWORD PTR [edx+56]
	call	eax

; 57   : }

	pop	edi
	pop	esi
	pop	ebx
	mov	esp, ebp
	pop	ebp
	ret	4
?Set_Can_Generate_Vehicles@BaseControllerClass@@QAEX_N@Z ENDP ; BaseControllerClass::Set_Can_Generate_Vehicles
_TEXT	ENDS
; Function compile flags: /Odtp /ZI
; File x:\github\renegade\dragonade_rxd\scripts\engine_game.cpp
;	COMDAT ?Set_Can_Generate_Soldiers@BaseControllerClass@@QAEX_N@Z
_TEXT	SEGMENT
_this$ = -4						; size = 4
_CanGenerate$ = 8					; size = 1
?Set_Can_Generate_Soldiers@BaseControllerClass@@QAEX_N@Z PROC ; BaseControllerClass::Set_Can_Generate_Soldiers, COMDAT
; _this$ = ecx

; 49   : {

	push	ebp
	mov	ebp, esp
	sub	esp, 68					; 00000044H
	push	ebx
	push	esi
	push	edi
	mov	DWORD PTR _this$[ebp], ecx

; 50   : 	CanGenerateSoldiers = CanGenerate;

	mov	eax, DWORD PTR _this$[ebp]
	mov	cl, BYTE PTR _CanGenerate$[ebp]
	mov	BYTE PTR [eax+1749], cl

; 51   : 	Set_Object_Dirty_Bit(NetworkObjectClass::BIT_OCCASIONAL,true);

	push	1
	push	3
	mov	eax, DWORD PTR _this$[ebp]
	mov	edx, DWORD PTR [eax]
	mov	ecx, DWORD PTR _this$[ebp]
	mov	eax, DWORD PTR [edx+56]
	call	eax

; 52   : }

	pop	edi
	pop	esi
	pop	ebx
	mov	esp, ebp
	pop	ebp
	ret	4
?Set_Can_Generate_Soldiers@BaseControllerClass@@QAEX_N@Z ENDP ; BaseControllerClass::Set_Can_Generate_Soldiers
_TEXT	ENDS
; Function compile flags: /Odtp /ZI
; File x:\github\renegade\dragonade_rxd\scripts\engine_game.cpp
;	COMDAT ?Power_Base@BaseControllerClass@@QAEX_N@Z
_TEXT	SEGMENT
_Power$ = 8						; size = 1
?Power_Base@BaseControllerClass@@QAEX_N@Z PROC		; BaseControllerClass::Power_Base, COMDAT
; _this$ = ecx

; 41   : AT2(0x006EF310,0x006EE8D0);

$AT3PatchStart$3:
	push	ecx
	push	edx
	push	OFFSET $AT3PatchStart$3
	push	0
	push	7268560					; 006ee8d0H
	push	7271184					; 006ef310H
	call	?HookupAT3@@YAPAXPAX000@Z		; HookupAT3
	add	esp, 16					; 00000010H
	pop	edx
	pop	ecx
	jmp	eax
?Power_Base@BaseControllerClass@@QAEX_N@Z ENDP		; BaseControllerClass::Power_Base
_TEXT	ENDS
; Function compile flags: /Odtp /ZI
; File x:\github\renegade\dragonade_rxd\scripts\engine_game.cpp
;	COMDAT ?Find_Building@BaseControllerClass@@QAEPAVBuildingGameObj@@I@Z
_TEXT	SEGMENT
_Type$ = 8						; size = 4
?Find_Building@BaseControllerClass@@QAEPAVBuildingGameObj@@I@Z PROC ; BaseControllerClass::Find_Building, COMDAT
; _this$ = ecx

; 73   : AT2(0x006EF6D0,0x006EEC90);

$AT3PatchStart$3:
	push	ecx
	push	edx
	push	OFFSET $AT3PatchStart$3
	push	0
	push	7269520					; 006eec90H
	push	7272144					; 006ef6d0H
	call	?HookupAT3@@YAPAXPAX000@Z		; HookupAT3
	add	esp, 16					; 00000010H
	pop	edx
	pop	ecx
	jmp	eax
?Find_Building@BaseControllerClass@@QAEPAVBuildingGameObj@@I@Z ENDP ; BaseControllerClass::Find_Building
_TEXT	ENDS
; Function compile flags: /Odtp /ZI
; File x:\github\renegade\dragonade_rxd\scripts\engine_game.cpp
;	COMDAT ?Get_Harvester_Vehicle@BaseControllerClass@@QAEPAVVehicleGameObj@@XZ
_TEXT	SEGMENT
tv79 = -76						; size = 4
_refinery$ = -8						; size = 4
_this$ = -4						; size = 4
?Get_Harvester_Vehicle@BaseControllerClass@@QAEPAVVehicleGameObj@@XZ PROC ; BaseControllerClass::Get_Harvester_Vehicle, COMDAT
; _this$ = ecx

