; Listing generated by Microsoft (R) Optimizing Compiler Version 17.00.61219.0 

	TITLE	X:\GitHub\Renegade\Dragonade_RxD\scripts\engine_game.cpp
	.686P
	.XMM
	include listing.inc
	.model	flat

INCLUDELIB MSVCRTD
INCLUDELIB OLDNAMES

PUBLIC	?AllMapsAreFlying@@3_NA				; AllMapsAreFlying
_BSS	SEGMENT
?AllMapsAreFlying@@3_NA DB 01H DUP (?)			; AllMapsAreFlying
_BSS	ENDS
CONST	SEGMENT
_DONT_MOVE_ARRIVED_DIST DD 0447a0000r		; 1000
CONST	ENDS
PUBLIC	??_H@YGXPAXIHP6EPAX0@Z@Z			; `vector constructor iterator'
PUBLIC	??_I@YGXPAXIHP6EX0@Z@Z				; `vector destructor iterator'
PUBLIC	_acosf
PUBLIC	_asinf
PUBLIC	_atanf
PUBLIC	_atan2f
PUBLIC	_ceilf
PUBLIC	_cosf
PUBLIC	_floorf
PUBLIC	_sinf
PUBLIC	_sqrtf
PUBLIC	?acos@@YAMM@Z					; acos
PUBLIC	?asin@@YAMM@Z					; asin
PUBLIC	?atan@@YAMM@Z					; atan
PUBLIC	?atan2@@YAMMM@Z					; atan2
PUBLIC	?cos@@YAMM@Z					; cos
PUBLIC	?sin@@YAMM@Z					; sin
PUBLIC	?sqrt@@YAMM@Z					; sqrt
PUBLIC	?Fabs@WWMath@@SAMM@Z				; WWMath::Fabs
PUBLIC	?Float_To_Int_Chop@WWMath@@SAHABM@Z		; WWMath::Float_To_Int_Chop
PUBLIC	?Float_To_Int_Floor@WWMath@@SAHABM@Z		; WWMath::Float_To_Int_Floor
PUBLIC	?Cos@WWMath@@SAMM@Z				; WWMath::Cos
PUBLIC	?Sin@WWMath@@SAMM@Z				; WWMath::Sin
PUBLIC	?Sqrt@WWMath@@SAMM@Z				; WWMath::Sqrt
PUBLIC	?Inv_Sqrt@WWMath@@SIMM@Z			; WWMath::Inv_Sqrt
PUBLIC	?Float_To_Long@WWMath@@SAJM@Z			; WWMath::Float_To_Long
PUBLIC	?Fast_Sin@WWMath@@SAMM@Z			; WWMath::Fast_Sin
PUBLIC	?Fast_Inv_Sin@WWMath@@SAMM@Z			; WWMath::Fast_Inv_Sin
PUBLIC	?Fast_Cos@WWMath@@SAMM@Z			; WWMath::Fast_Cos
PUBLIC	?Fast_Inv_Cos@WWMath@@SAMM@Z			; WWMath::Fast_Inv_Cos
PUBLIC	?Fast_Acos@WWMath@@SAMM@Z			; WWMath::Fast_Acos
PUBLIC	?Fast_Asin@WWMath@@SAMM@Z			; WWMath::Fast_Asin
PUBLIC	?Acos@WWMath@@SAMM@Z				; WWMath::Acos
PUBLIC	?Asin@WWMath@@SAMM@Z				; WWMath::Asin
PUBLIC	?Atan@WWMath@@SAMM@Z				; WWMath::Atan
PUBLIC	?Atan2@WWMath@@SAMMM@Z				; WWMath::Atan2
PUBLIC	?Sign@WWMath@@SAMM@Z				; WWMath::Sign
PUBLIC	?Ceil@WWMath@@SAMM@Z				; WWMath::Ceil
PUBLIC	?Floor@WWMath@@SAMM@Z				; WWMath::Floor
PUBLIC	?Fast_Is_Float_Positive@WWMath@@SA_NABM@Z	; WWMath::Fast_Is_Float_Positive
PUBLIC	?Random_Float@WWMath@@SAMMM@Z			; WWMath::Random_Float
PUBLIC	?Clamp@WWMath@@SAMMMM@Z				; WWMath::Clamp
PUBLIC	?Clamp@WWMath@@SANNNN@Z				; WWMath::Clamp
PUBLIC	?Clamp_Int@WWMath@@SAHHHH@Z			; WWMath::Clamp_Int
PUBLIC	?Wrap@WWMath@@SAMMMM@Z				; WWMath::Wrap
PUBLIC	?Wrap@WWMath@@SANNNN@Z				; WWMath::Wrap
PUBLIC	?Min@WWMath@@SAMMM@Z				; WWMath::Min
PUBLIC	?Max@WWMath@@SAMMM@Z				; WWMath::Max
PUBLIC	?Lerp@WWMath@@SAMMMM@Z				; WWMath::Lerp
PUBLIC	?Lerp@WWMath@@SANNNM@Z				; WWMath::Lerp
PUBLIC	?Lerp@WWMath@@SAHHHM@Z				; WWMath::Lerp
PUBLIC	?Float_To_Long@WWMath@@SAJN@Z			; WWMath::Float_To_Long
PUBLIC	?Unit_Float_To_Byte@WWMath@@SAEM@Z		; WWMath::Unit_Float_To_Byte
PUBLIC	?Byte_To_Unit_Float@WWMath@@SAME@Z		; WWMath::Byte_To_Unit_Float
PUBLIC	?Is_Valid_Float@WWMath@@SA_NM@Z			; WWMath::Is_Valid_Float
PUBLIC	?Is_Valid_Double@WWMath@@SA_NN@Z		; WWMath::Is_Valid_Double
PUBLIC	??4WWMath@@QAEAAV0@ABV0@@Z			; WWMath::operator=
PUBLIC	??B?$RefArrayHelper@M$0EAA@@@QAEPAMXZ		; RefArrayHelper<float,1024>::operator float *
PUBLIC	??0Vector3@@QAE@XZ				; Vector3::Vector3
PUBLIC	??0Vector3@@QAE@ABV0@@Z				; Vector3::Vector3
PUBLIC	??0Vector3@@QAE@MMM@Z				; Vector3::Vector3
PUBLIC	??4Vector3@@QAEAAV0@ABV0@@Z			; Vector3::operator=
PUBLIC	?Set@Vector3@@QAEXMMM@Z				; Vector3::Set
PUBLIC	??AVector3@@QAEAAMH@Z				; Vector3::operator[]
PUBLIC	??AVector3@@QBEABMH@Z				; Vector3::operator[]
PUBLIC	?Normalize@Vector3@@QAEXXZ			; Vector3::Normalize
PUBLIC	?Length@Vector3@@QBEMXZ				; Vector3::Length
PUBLIC	?Length2@Vector3@@QBEMXZ			; Vector3::Length2
PUBLIC	??YVector3@@QAEAAV0@ABV0@@Z			; Vector3::operator+=
PUBLIC	??ZVector3@@QAEAAV0@ABV0@@Z			; Vector3::operator-=
PUBLIC	??XVector3@@QAEAAV0@M@Z				; Vector3::operator*=
PUBLIC	??_0Vector3@@QAEAAV0@M@Z			; Vector3::operator/=
PUBLIC	??D@YA?AVVector3@@ABV0@M@Z			; operator*
PUBLIC	??D@YA?AVVector3@@MABV0@@Z			; operator*
PUBLIC	??H@YA?AVVector3@@ABV0@0@Z			; operator+
PUBLIC	??G@YA?AVVector3@@ABV0@0@Z			; operator-
PUBLIC	?Add@Vector3@@SAXABV1@0PAV1@@Z			; Vector3::Add
PUBLIC	?Subtract@Vector3@@SAXABV1@0PAV1@@Z		; Vector3::Subtract
PUBLIC	?Swap@@YAXAAVVector3@@0@Z			; Swap
PUBLIC	??0Vector4@@QAE@XZ				; Vector4::Vector4
PUBLIC	??0Vector4@@QAE@MMMM@Z				; Vector4::Vector4
PUBLIC	??4Vector4@@QAEAAV0@ABV0@@Z			; Vector4::operator=
PUBLIC	?Set@Vector4@@QAEXMMMM@Z			; Vector4::Set
PUBLIC	??AVector4@@QAEAAMH@Z				; Vector4::operator[]
PUBLIC	??AVector4@@QBEABMH@Z				; Vector4::operator[]
PUBLIC	??YVector4@@QAEAAV0@ABV0@@Z			; Vector4::operator+=
PUBLIC	??ZVector4@@QAEAAV0@ABV0@@Z			; Vector4::operator-=
PUBLIC	??XVector4@@QAEAAV0@M@Z				; Vector4::operator*=
PUBLIC	??AMatrix3D@@QAEAAVVector4@@H@Z			; Matrix3D::operator[]
PUBLIC	??AMatrix3D@@QBEABVVector4@@H@Z			; Matrix3D::operator[]
PUBLIC	??0Matrix3D@@QAE@_N@Z				; Matrix3D::Matrix3D
PUBLIC	??0Matrix3D@@QAE@QAM@Z				; Matrix3D::Matrix3D
PUBLIC	??0Matrix3D@@QAE@ABVVector3@@000@Z		; Matrix3D::Matrix3D
PUBLIC	??0Matrix3D@@QAE@ABVVector3@@M@Z		; Matrix3D::Matrix3D
PUBLIC	??0Matrix3D@@QAE@ABVVector3@@MM@Z		; Matrix3D::Matrix3D
PUBLIC	??0Matrix3D@@QAE@ABVMatrix3@@ABVVector3@@@Z	; Matrix3D::Matrix3D
PUBLIC	??0Matrix3D@@QAE@ABVQuaternion@@ABVVector3@@@Z	; Matrix3D::Matrix3D
PUBLIC	??0Matrix3D@@QAE@ABVVector3@@@Z			; Matrix3D::Matrix3D
PUBLIC	??0Matrix3D@@QAE@ABV0@@Z			; Matrix3D::Matrix3D
PUBLIC	??4Matrix3D@@QAEAAV0@ABV0@@Z			; Matrix3D::operator=
PUBLIC	?Set@Matrix3D@@QAEXQAM@Z			; Matrix3D::Set
PUBLIC	?Set@Matrix3D@@QAEXMMMMMMMMMMMM@Z		; Matrix3D::Set
PUBLIC	?Set@Matrix3D@@QAEXABVVector3@@000@Z		; Matrix3D::Set
PUBLIC	?Set@Matrix3D@@QAEXABVVector3@@M@Z		; Matrix3D::Set
PUBLIC	?Set@Matrix3D@@QAEXABVVector3@@MM@Z		; Matrix3D::Set
PUBLIC	?Set@Matrix3D@@QAEXABVVector3@@@Z		; Matrix3D::Set
PUBLIC	?Get_Translation@Matrix3D@@QBE?AVVector3@@XZ	; Matrix3D::Get_Translation
PUBLIC	?Get_Translation@Matrix3D@@QBEXPAVVector3@@@Z	; Matrix3D::Get_Translation
PUBLIC	?Set_Translation@Matrix3D@@QAEXABVVector3@@@Z	; Matrix3D::Set_Translation
PUBLIC	?Get_X_Translation@Matrix3D@@QBEMXZ		; Matrix3D::Get_X_Translation
PUBLIC	?Get_Y_Translation@Matrix3D@@QBEMXZ		; Matrix3D::Get_Y_Translation
PUBLIC	?Get_Z_Translation@Matrix3D@@QBEMXZ		; Matrix3D::Get_Z_Translation
PUBLIC	?Set_X_Translation@Matrix3D@@QAEXM@Z		; Matrix3D::Set_X_Translation
PUBLIC	?Set_Y_Translation@Matrix3D@@QAEXM@Z		; Matrix3D::Set_Y_Translation
PUBLIC	?Set_Z_Translation@Matrix3D@@QAEXM@Z		; Matrix3D::Set_Z_Translation
PUBLIC	?Adjust_Translation@Matrix3D@@QAEXABVVector3@@@Z ; Matrix3D::Adjust_Translation
PUBLIC	?Adjust_X_Translation@Matrix3D@@QAEXM@Z		; Matrix3D::Adjust_X_Translation
PUBLIC	?Adjust_Y_Translation@Matrix3D@@QAEXM@Z		; Matrix3D::Adjust_Y_Translation
PUBLIC	?Adjust_Z_Translation@Matrix3D@@QAEXM@Z		; Matrix3D::Adjust_Z_Translation
PUBLIC	?Make_Identity@Matrix3D@@QAEXXZ			; Matrix3D::Make_Identity
PUBLIC	?Translate@Matrix3D@@QAEXMMM@Z			; Matrix3D::Translate
PUBLIC	?Translate@Matrix3D@@QAEXABVVector3@@@Z		; Matrix3D::Translate
PUBLIC	?Translate_X@Matrix3D@@QAEXM@Z			; Matrix3D::Translate_X
PUBLIC	?Translate_Y@Matrix3D@@QAEXM@Z			; Matrix3D::Translate_Y
PUBLIC	?Translate_Z@Matrix3D@@QAEXM@Z			; Matrix3D::Translate_Z
PUBLIC	?Rotate_X@Matrix3D@@QAEXM@Z			; Matrix3D::Rotate_X
PUBLIC	?Rotate_Y@Matrix3D@@QAEXM@Z			; Matrix3D::Rotate_Y
PUBLIC	?Rotate_Z@Matrix3D@@QAEXM@Z			; Matrix3D::Rotate_Z
PUBLIC	?Rotate_X@Matrix3D@@QAEXMM@Z			; Matrix3D::Rotate_X
PUBLIC	?Rotate_Y@Matrix3D@@QAEXMM@Z			; Matrix3D::Rotate_Y
PUBLIC	?Rotate_Z@Matrix3D@@QAEXMM@Z			; Matrix3D::Rotate_Z
PUBLIC	?Scale@Matrix3D@@QAEXM@Z			; Matrix3D::Scale
PUBLIC	?Scale@Matrix3D@@QAEXMMM@Z			; Matrix3D::Scale
PUBLIC	?Scale@Matrix3D@@QAEXAAVVector3@@@Z		; Matrix3D::Scale
PUBLIC	?Pre_Rotate_X@Matrix3D@@QAEXM@Z			; Matrix3D::Pre_Rotate_X
PUBLIC	?Pre_Rotate_Y@Matrix3D@@QAEXM@Z			; Matrix3D::Pre_Rotate_Y
PUBLIC	?Pre_Rotate_Z@Matrix3D@@QAEXM@Z			; Matrix3D::Pre_Rotate_Z
PUBLIC	?Pre_Rotate_X@Matrix3D@@QAEXMM@Z		; Matrix3D::Pre_Rotate_X
PUBLIC	?Pre_Rotate_Y@Matrix3D@@QAEXMM@Z		; Matrix3D::Pre_Rotate_Y
PUBLIC	?Pre_Rotate_Z@Matrix3D@@QAEXMM@Z		; Matrix3D::Pre_Rotate_Z
PUBLIC	?In_Place_Pre_Rotate_X@Matrix3D@@QAEXM@Z	; Matrix3D::In_Place_Pre_Rotate_X
PUBLIC	?In_Place_Pre_Rotate_Y@Matrix3D@@QAEXM@Z	; Matrix3D::In_Place_Pre_Rotate_Y
PUBLIC	?In_Place_Pre_Rotate_Z@Matrix3D@@QAEXM@Z	; Matrix3D::In_Place_Pre_Rotate_Z
PUBLIC	?In_Place_Pre_Rotate_X@Matrix3D@@QAEXMM@Z	; Matrix3D::In_Place_Pre_Rotate_X
PUBLIC	?In_Place_Pre_Rotate_Y@Matrix3D@@QAEXMM@Z	; Matrix3D::In_Place_Pre_Rotate_Y
PUBLIC	?In_Place_Pre_Rotate_Z@Matrix3D@@QAEXMM@Z	; Matrix3D::In_Place_Pre_Rotate_Z
PUBLIC	?Transform_Vector@Matrix3D@@SAXABV1@ABVVector3@@PAV2@@Z ; Matrix3D::Transform_Vector
PUBLIC	?Get_X_Vector@Matrix3D@@QBE?AVVector3@@XZ	; Matrix3D::Get_X_Vector
PUBLIC	?Get_Y_Vector@Matrix3D@@QBE?AVVector3@@XZ	; Matrix3D::Get_Y_Vector
PUBLIC	?Get_Z_Vector@Matrix3D@@QBE?AVVector3@@XZ	; Matrix3D::Get_Z_Vector
PUBLIC	?Get_X_Vector@Matrix3D@@QBEXPAVVector3@@@Z	; Matrix3D::Get_X_Vector
PUBLIC	?Get_Y_Vector@Matrix3D@@QBEXPAVVector3@@@Z	; Matrix3D::Get_Y_Vector
PUBLIC	?Get_Z_Vector@Matrix3D@@QBEXPAVVector3@@@Z	; Matrix3D::Get_Z_Vector
PUBLIC	?Rotate_Vector@Matrix3D@@SAXABV1@ABVVector3@@PAV2@@Z ; Matrix3D::Rotate_Vector
PUBLIC	?Inverse_Transform_Vector@Matrix3D@@SAXABV1@ABVVector3@@PAV2@@Z ; Matrix3D::Inverse_Transform_Vector
PUBLIC	?Inverse_Rotate_Vector@Matrix3D@@SAXABV1@ABVVector3@@PAV2@@Z ; Matrix3D::Inverse_Rotate_Vector
PUBLIC	??0Matrix4@@QAE@XZ				; Matrix4::Matrix4
PUBLIC	??0Matrix4@@QAE@ABV0@@Z				; Matrix4::Matrix4
PUBLIC	??0Matrix4@@QAE@_N@Z				; Matrix4::Matrix4
PUBLIC	??0Matrix4@@QAE@ABVMatrix3D@@@Z			; Matrix4::Matrix4
PUBLIC	??0Matrix4@@QAE@ABVVector4@@000@Z		; Matrix4::Matrix4
PUBLIC	?Make_Identity@Matrix4@@QAEXXZ			; Matrix4::Make_Identity
PUBLIC	?Init@Matrix4@@QAEXABVMatrix3D@@@Z		; Matrix4::Init
PUBLIC	?Init@Matrix4@@QAEXABVVector4@@000@Z		; Matrix4::Init
PUBLIC	?Init_Ortho_OGL@Matrix4@@QAEXMMMMMM@Z		; Matrix4::Init_Ortho_OGL
PUBLIC	?Init_Perspective_OGL@Matrix4@@QAEXMMMM@Z	; Matrix4::Init_Perspective_OGL
PUBLIC	?Init_Perspective_OGL@Matrix4@@QAEXMMMMMM@Z	; Matrix4::Init_Perspective_OGL
PUBLIC	?Init_Ortho@Matrix4@@QAEXMMMMMM@Z		; Matrix4::Init_Ortho
PUBLIC	?Init_Perspective@Matrix4@@QAEXMMMMMM@Z		; Matrix4::Init_Perspective
PUBLIC	??AMatrix4@@QAEAAVVector4@@H@Z			; Matrix4::operator[]
PUBLIC	??AMatrix4@@QBEABVVector4@@H@Z			; Matrix4::operator[]
PUBLIC	?Transpose@Matrix4@@QBE?AV1@XZ			; Matrix4::Transpose
PUBLIC	?Determinant@Matrix4@@QBEMXZ			; Matrix4::Determinant
PUBLIC	?Inverse@Matrix4@@QBE?AV1@XZ			; Matrix4::Inverse
PUBLIC	??4Matrix4@@QAEAAV0@ABV0@@Z			; Matrix4::operator=
PUBLIC	??YMatrix4@@QAEAAV0@ABV0@@Z			; Matrix4::operator+=
PUBLIC	??ZMatrix4@@QAEAAV0@ABV0@@Z			; Matrix4::operator-=
PUBLIC	??XMatrix4@@QAEAAV0@M@Z				; Matrix4::operator*=
PUBLIC	??_0Matrix4@@QAEAAV0@M@Z			; Matrix4::operator/=
PUBLIC	?Transform_Vector@Matrix4@@SAXABV1@ABVVector3@@PAV2@@Z ; Matrix4::Transform_Vector
PUBLIC	?Transform_Vector@Matrix4@@SAXABV1@ABVVector3@@PAVVector4@@@Z ; Matrix4::Transform_Vector
PUBLIC	?Transform_Vector@Matrix4@@SAXABV1@ABVVector4@@PAV2@@Z ; Matrix4::Transform_Vector
PUBLIC	??0Matrix3@@QAE@XZ				; Matrix3::Matrix3
PUBLIC	??0Matrix3@@QAE@ABV0@@Z				; Matrix3::Matrix3
PUBLIC	??0Matrix3@@QAE@_N@Z				; Matrix3::Matrix3
PUBLIC	??0Matrix3@@QAE@ABVVector3@@00@Z		; Matrix3::Matrix3
PUBLIC	??0Matrix3@@QAE@MMMMMMMMM@Z			; Matrix3::Matrix3
PUBLIC	??0Matrix3@@QAE@ABVVector3@@M@Z			; Matrix3::Matrix3
PUBLIC	??0Matrix3@@QAE@ABVVector3@@MM@Z		; Matrix3::Matrix3
PUBLIC	??0Matrix3@@QAE@ABVQuaternion@@@Z		; Matrix3::Matrix3
PUBLIC	?Set@Matrix3@@QAEXABVVector3@@00@Z		; Matrix3::Set
PUBLIC	?Set@Matrix3@@QAEXMMMMMMMMM@Z			; Matrix3::Set
PUBLIC	?Set@Matrix3@@QAEXABVVector3@@M@Z		; Matrix3::Set
PUBLIC	?Set@Matrix3@@QAEXABVVector3@@MM@Z		; Matrix3::Set
PUBLIC	??AMatrix3@@QAEAAVVector3@@H@Z			; Matrix3::operator[]
PUBLIC	??AMatrix3@@QBEABVVector3@@H@Z			; Matrix3::operator[]
PUBLIC	?Transpose@Matrix3@@QBE?AV1@XZ			; Matrix3::Transpose
PUBLIC	?Determinant@Matrix3@@QBEMXZ			; Matrix3::Determinant
PUBLIC	??4Matrix3@@QAEAAV0@ABV0@@Z			; Matrix3::operator=
PUBLIC	??YMatrix3@@QAEAAV0@ABV0@@Z			; Matrix3::operator+=
PUBLIC	??ZMatrix3@@QAEAAV0@ABV0@@Z			; Matrix3::operator-=
PUBLIC	??XMatrix3@@QAEAAV0@M@Z				; Matrix3::operator*=
PUBLIC	??_0Matrix3@@QAEAAV0@M@Z			; Matrix3::operator/=
PUBLIC	?Make_Identity@Matrix3@@QAEXXZ			; Matrix3::Make_Identity
PUBLIC	?Rotate_X@Matrix3@@QAEXM@Z			; Matrix3::Rotate_X
PUBLIC	?Rotate_X@Matrix3@@QAEXMM@Z			; Matrix3::Rotate_X
PUBLIC	?Rotate_Y@Matrix3@@QAEXM@Z			; Matrix3::Rotate_Y
PUBLIC	?Rotate_Y@Matrix3@@QAEXMM@Z			; Matrix3::Rotate_Y
PUBLIC	?Rotate_Z@Matrix3@@QAEXM@Z			; Matrix3::Rotate_Z
PUBLIC	?Rotate_Z@Matrix3@@QAEXMM@Z			; Matrix3::Rotate_Z
PUBLIC	?Get_X_Rotation@Matrix3@@QBEMXZ			; Matrix3::Get_X_Rotation
PUBLIC	?Get_Y_Rotation@Matrix3@@QBEMXZ			; Matrix3::Get_Y_Rotation
PUBLIC	?Get_Z_Rotation@Matrix3@@QBEMXZ			; Matrix3::Get_Z_Rotation
PUBLIC	?Get_X_Vector@Matrix3@@QBE?AVVector3@@XZ	; Matrix3::Get_X_Vector
PUBLIC	?Get_Y_Vector@Matrix3@@QBE?AVVector3@@XZ	; Matrix3::Get_Y_Vector
PUBLIC	?Get_Z_Vector@Matrix3@@QBE?AVVector3@@XZ	; Matrix3::Get_Z_Vector
PUBLIC	?Get_X_Vector@Matrix3@@QBEXPAVVector3@@@Z	; Matrix3::Get_X_Vector
PUBLIC	?Get_Y_Vector@Matrix3@@QBEXPAVVector3@@@Z	; Matrix3::Get_Y_Vector
PUBLIC	?Get_Z_Vector@Matrix3@@QBEXPAVVector3@@@Z	; Matrix3::Get_Z_Vector
PUBLIC	??D@YA?AVVector3@@ABVMatrix3@@ABV0@@Z		; operator*
PUBLIC	?Add@Matrix3@@SAXABV1@0PAV1@@Z			; Matrix3::Add
PUBLIC	?Subtract@Matrix3@@SAXABV1@0PAV1@@Z		; Matrix3::Subtract
PUBLIC	?Rotate_Vector@Matrix3@@SAXABV1@ABVVector3@@PAV2@@Z ; Matrix3::Rotate_Vector
PUBLIC	?Transpose_Rotate_Vector@Matrix3@@SAXABV1@ABVVector3@@PAV2@@Z ; Matrix3::Transpose_Rotate_Vector
PUBLIC	?Rotate_AABox_Extent@Matrix3@@QAEXABVVector3@@PAV2@@Z ; Matrix3::Rotate_AABox_Extent
PUBLIC	?Inverse@Matrix3@@QBE?AV1@XZ			; Matrix3::Inverse
PUBLIC	?Is_Running@ThreadClass@@QAE_NXZ		; ThreadClass::Is_Running
PUBLIC	?Get_Current_Thread_ID@ThreadClass@@SAHXZ	; ThreadClass::Get_Current_Thread_ID
PUBLIC	?Get_Name@ThreadClass@@QAEPBDXZ			; ThreadClass::Get_Name
PUBLIC	??0ThreadClass@@QAE@ABV0@@Z			; ThreadClass::ThreadClass
PUBLIC	??4ThreadClass@@QAEAAV0@ABV0@@Z			; ThreadClass::operator=
PUBLIC	??_GThreadClass@@UAEPAXI@Z			; ThreadClass::`scalar deleting destructor'
PUBLIC	??_EThreadClass@@UAEPAXI@Z			; ThreadClass::`vector deleting destructor'
PUBLIC	??4CriticalSectionClass@@QAEAAV0@ABV0@@Z	; CriticalSectionClass::operator=
PUBLIC	?Release_Ref@RefCountClass@@QAEXXZ		; RefCountClass::Release_Ref
PUBLIC	??0GenericMultiListIterator@@QAE@PBVGenericMultiListClass@@@Z ; GenericMultiListIterator::GenericMultiListIterator
PUBLIC	?First@GenericMultiListIterator@@QAEXPBVGenericMultiListClass@@@Z ; GenericMultiListIterator::First
PUBLIC	?Next@GenericMultiListIterator@@QAEXXZ		; GenericMultiListIterator::Next
PUBLIC	?Is_Done@GenericMultiListIterator@@QBE_NXZ	; GenericMultiListIterator::Is_Done
PUBLIC	?Current_Object@GenericMultiListIterator@@IBEPAVMultiListObjectClass@@XZ ; GenericMultiListIterator::Current_Object
PUBLIC	??0GameObjObserverClass@@QAE@XZ			; GameObjObserverClass::GameObjObserverClass
PUBLIC	??1GameObjObserverClass@@UAE@XZ			; GameObjObserverClass::~GameObjObserverClass
PUBLIC	?Set_ID@GameObjObserverClass@@QAEXH@Z		; GameObjObserverClass::Set_ID
PUBLIC	?Get_ID@GameObjObserverClass@@QAEHXZ		; GameObjObserverClass::Get_ID
PUBLIC	?Owner@GameObjObserverClass@@UAEPAVScriptableGameObj@@XZ ; GameObjObserverClass::Owner
PUBLIC	??0GameObjObserverClass@@QAE@ABV0@@Z		; GameObjObserverClass::GameObjObserverClass
PUBLIC	??4GameObjObserverClass@@QAEAAV0@ABV0@@Z	; GameObjObserverClass::operator=
PUBLIC	??_GGameObjObserverClass@@UAEPAXI@Z		; GameObjObserverClass::`scalar deleting destructor'
PUBLIC	??_EGameObjObserverClass@@UAEPAXI@Z		; GameObjObserverClass::`vector deleting destructor'
PUBLIC	??1ScriptClass@@UAE@XZ				; ScriptClass::~ScriptClass
PUBLIC	??0ScriptClass@@QAE@XZ				; ScriptClass::ScriptClass
PUBLIC	??0ScriptClass@@QAE@ABV0@@Z			; ScriptClass::ScriptClass
PUBLIC	??4ScriptClass@@QAEAAV0@ABV0@@Z			; ScriptClass::operator=
PUBLIC	??_GScriptClass@@UAEPAXI@Z			; ScriptClass::`scalar deleting destructor'
PUBLIC	??_EScriptClass@@UAEPAXI@Z			; ScriptClass::`vector deleting destructor'
PUBLIC	?SetFactory@ScriptImpClass@@QAEXPAVScriptFactory@@@Z ; ScriptImpClass::SetFactory
PUBLIC	?Created@ScriptImpClass@@UAEXPAVScriptableGameObj@@@Z ; ScriptImpClass::Created
PUBLIC	?Destroyed@ScriptImpClass@@UAEXPAVScriptableGameObj@@@Z ; ScriptImpClass::Destroyed
PUBLIC	?Killed@ScriptImpClass@@UAEXPAVScriptableGameObj@@0@Z ; ScriptImpClass::Killed
PUBLIC	?Damaged@ScriptImpClass@@UAEXPAVScriptableGameObj@@0M@Z ; ScriptImpClass::Damaged
PUBLIC	?Custom@ScriptImpClass@@UAEXPAVScriptableGameObj@@HH0@Z ; ScriptImpClass::Custom
PUBLIC	?Sound_Heard@ScriptImpClass@@UAEXPAVScriptableGameObj@@ABUCombatSound@@@Z ; ScriptImpClass::Sound_Heard
PUBLIC	?Enemy_Seen@ScriptImpClass@@UAEXPAVScriptableGameObj@@0@Z ; ScriptImpClass::Enemy_Seen
PUBLIC	?Action_Complete@ScriptImpClass@@UAEXPAVScriptableGameObj@@HW4ActionCompleteReason@@@Z ; ScriptImpClass::Action_Complete
PUBLIC	?Timer_Expired@ScriptImpClass@@UAEXPAVScriptableGameObj@@H@Z ; ScriptImpClass::Timer_Expired
PUBLIC	?Animation_Complete@ScriptImpClass@@UAEXPAVScriptableGameObj@@PBD@Z ; ScriptImpClass::Animation_Complete
PUBLIC	?Poked@ScriptImpClass@@UAEXPAVScriptableGameObj@@0@Z ; ScriptImpClass::Poked
PUBLIC	?Entered@ScriptImpClass@@UAEXPAVScriptableGameObj@@0@Z ; ScriptImpClass::Entered
PUBLIC	?Exited@ScriptImpClass@@UAEXPAVScriptableGameObj@@0@Z ; ScriptImpClass::Exited
PUBLIC	?Owner@ScriptImpClass@@UAEPAVScriptableGameObj@@XZ ; ScriptImpClass::Owner
PUBLIC	?Get_Owner_Ptr@ScriptImpClass@@UAEPAPAVScriptableGameObj@@XZ ; ScriptImpClass::Get_Owner_Ptr
PUBLIC	?Save_Data@ScriptImpClass@@UAEXAAVScriptSaver@@@Z ; ScriptImpClass::Save_Data
PUBLIC	?Load_Data@ScriptImpClass@@UAEXAAVScriptLoader@@@Z ; ScriptImpClass::Load_Data
PUBLIC	?Register_Auto_Save_Variables@ScriptImpClass@@UAEXXZ ; ScriptImpClass::Register_Auto_Save_Variables
PUBLIC	?Get_Parameter_Count@ScriptImpClass@@QAEHXZ	; ScriptImpClass::Get_Parameter_Count
PUBLIC	?Get_Int_Parameter@ScriptImpClass@@QAEHH@Z	; ScriptImpClass::Get_Int_Parameter
PUBLIC	?Get_Float_Parameter@ScriptImpClass@@QAEMH@Z	; ScriptImpClass::Get_Float_Parameter
PUBLIC	?Get_Bool_Parameter@ScriptImpClass@@QAE_NPBD@Z	; ScriptImpClass::Get_Bool_Parameter
PUBLIC	?Get_Bool_Parameter@ScriptImpClass@@QAE_NH@Z	; ScriptImpClass::Get_Bool_Parameter
PUBLIC	??0ScriptImpClass@@QAE@ABV0@@Z			; ScriptImpClass::ScriptImpClass
PUBLIC	??4ScriptImpClass@@QAEAAV0@ABV0@@Z		; ScriptImpClass::operator=
PUBLIC	??_GScriptImpClass@@UAEPAXI@Z			; ScriptImpClass::`scalar deleting destructor'
PUBLIC	??_EScriptImpClass@@UAEPAXI@Z			; ScriptImpClass::`vector deleting destructor'
PUBLIC	??0ScriptFactory@@QAE@ABV0@@Z			; ScriptFactory::ScriptFactory
PUBLIC	??4ScriptFactory@@QAEAAV0@ABV0@@Z		; ScriptFactory::operator=
PUBLIC	??_GScriptFactory@@UAEPAXI@Z			; ScriptFactory::`scalar deleting destructor'
PUBLIC	??_EScriptFactory@@UAEPAXI@Z			; ScriptFactory::`vector deleting destructor'
PUBLIC	??4ScriptRegistrar@@QAEAAV0@ABV0@@Z		; ScriptRegistrar::operator=
PUBLIC	??A?$VectorClass@PAVBuildingGameObj@@@@QAEAAPAVBuildingGameObj@@H@Z ; VectorClass<BuildingGameObj *>::operator[]
PUBLIC	?Count@?$DynamicVectorClass@PAVBuildingGameObj@@@@QBEHXZ ; DynamicVectorClass<BuildingGameObj *>::Count
PUBLIC	?Find_Base@BaseControllerClass@@SAPAV1@H@Z	; BaseControllerClass::Find_Base
PUBLIC	?Get_Harvester_Vehicle@BaseControllerClass@@QAEPAVVehicleGameObj@@XZ ; BaseControllerClass::Get_Harvester_Vehicle
PUBLIC	?Find_Building@BaseControllerClass@@QAEPAVBuildingGameObj@@I@Z ; BaseControllerClass::Find_Building
PUBLIC	?Power_Base@BaseControllerClass@@QAEX_N@Z	; BaseControllerClass::Power_Base
PUBLIC	?Set_Can_Generate_Soldiers@BaseControllerClass@@QAEX_N@Z ; BaseControllerClass::Set_Can_Generate_Soldiers
PUBLIC	?Set_Can_Generate_Vehicles@BaseControllerClass@@QAEX_N@Z ; BaseControllerClass::Set_Can_Generate_Vehicles
PUBLIC	?Set_Base_Destroyed@BaseControllerClass@@QAEX_N@Z ; BaseControllerClass::Set_Base_Destroyed
PUBLIC	?Destroy_Base@BaseControllerClass@@QAEXXZ	; BaseControllerClass::Destroy_Base
PUBLIC	?Set_Beacon_Destroyed_Base@BaseControllerClass@@QAEX_N@Z ; BaseControllerClass::Set_Beacon_Destroyed_Base
PUBLIC	?Check_Radar@BaseControllerClass@@QAEXXZ	; BaseControllerClass::Check_Radar
PUBLIC	?Check_Vehicle_Factory@BaseControllerClass@@QAEXXZ ; BaseControllerClass::Check_Vehicle_Factory
PUBLIC	?Is_Base_Powered@BaseControllerClass@@QBE_NXZ	; BaseControllerClass::Is_Base_Powered
PUBLIC	?Can_Generate_Soldiers@BaseControllerClass@@QBE_NXZ ; BaseControllerClass::Can_Generate_Soldiers
PUBLIC	?Can_Generate_Vehicles@BaseControllerClass@@QBE_NXZ ; BaseControllerClass::Can_Generate_Vehicles
PUBLIC	?Is_Radar_Enabled@BaseControllerClass@@QBE_NXZ	; BaseControllerClass::Is_Radar_Enabled
PUBLIC	?Get_Building_List@BaseControllerClass@@QAEAAV?$DynamicVectorClass@PAVBuildingGameObj@@@@XZ ; BaseControllerClass::Get_Building_List
PUBLIC	??4SysTimeClass@@QAEAAV0@ABV0@@Z		; SysTimeClass::operator=
PUBLIC	??0PostLoadableClass@@QAE@XZ			; PostLoadableClass::PostLoadableClass
PUBLIC	??1PostLoadableClass@@UAE@XZ			; PostLoadableClass::~PostLoadableClass
PUBLIC	?On_Post_Load@PostLoadableClass@@UAEXXZ		; PostLoadableClass::On_Post_Load
PUBLIC	?Is_Post_Load_Registered@PostLoadableClass@@QBE_NXZ ; PostLoadableClass::Is_Post_Load_Registered
PUBLIC	?Set_Post_Load_Registered@PostLoadableClass@@QAEX_N@Z ; PostLoadableClass::Set_Post_Load_Registered
PUBLIC	??0PostLoadableClass@@QAE@ABV0@@Z		; PostLoadableClass::PostLoadableClass
PUBLIC	??4PostLoadableClass@@QAEAAV0@ABV0@@Z		; PostLoadableClass::operator=
PUBLIC	??_GPostLoadableClass@@UAEPAXI@Z		; PostLoadableClass::`scalar deleting destructor'
PUBLIC	??_EPostLoadableClass@@UAEPAXI@Z		; PostLoadableClass::`vector deleting destructor'
PUBLIC	??1StringClass@@QAE@XZ				; StringClass::~StringClass
PUBLIC	??_EStringClass@@QAEPAXI@Z			; StringClass::`vector deleting destructor'
PUBLIC	??1WideStringClass@@QAE@XZ			; WideStringClass::~WideStringClass
PUBLIC	??_EWideStringClass@@QAEPAXI@Z			; WideStringClass::`vector deleting destructor'
PUBLIC	??4ChunkLoadClass@@QAEAAV0@ABV0@@Z		; ChunkLoadClass::operator=
PUBLIC	?Set_Contains_Chunks@ChunkSaveClass@@QAEXXZ	; ChunkSaveClass::Set_Contains_Chunks
PUBLIC	??4ChunkSaveClass@@QAEAAV0@ABV0@@Z		; ChunkSaveClass::operator=
PUBLIC	?Is_Present@INIClass@@QBE_NPBD0@Z		; INIClass::Is_Present
PUBLIC	?Section_Present@INIClass@@QBE_NPBD@Z		; INIClass::Section_Present
PUBLIC	?Get_Section_List@INIClass@@QAEAAV?$List@PAUINISection@@@@XZ ; INIClass::Get_Section_List
PUBLIC	?Get_Section_Index@INIClass@@QAEAAV?$IndexClass@HPAUINISection@@@@XZ ; INIClass::Get_Section_Index
PUBLIC	?Get_File_Name@INIClass@@QAEPBDXZ		; INIClass::Get_File_Name
PUBLIC	??0INIClass@@QAE@ABV0@@Z			; INIClass::INIClass
PUBLIC	??4INIClass@@QAEAAV0@ABV0@@Z			; INIClass::operator=
PUBLIC	??_GINIClass@@UAEPAXI@Z				; INIClass::`scalar deleting destructor'
PUBLIC	??_EINIClass@@UAEPAXI@Z				; INIClass::`vector deleting destructor'
PUBLIC	??Cfile_auto_ptr@@QAEPAVFileClass@@XZ		; file_auto_ptr::operator->
PUBLIC	??Bfile_auto_ptr@@QAEPAVFileClass@@XZ		; file_auto_ptr::operator FileClass *
PUBLIC	??Dfile_auto_ptr@@QAEAAVFileClass@@XZ		; file_auto_ptr::operator*
PUBLIC	?get@file_auto_ptr@@QAEPAVFileClass@@XZ		; file_auto_ptr::get
PUBLIC	??4file_auto_ptr@@QAEAAV0@ABV0@@Z		; file_auto_ptr::operator=
PUBLIC	??CReferencerClass@@QAEPAVScriptableGameObj@@XZ	; ReferencerClass::operator->
PUBLIC	??0ReferencerClass@@QAE@XZ			; ReferencerClass::ReferencerClass
PUBLIC	??0ReferencerClass@@QAE@PAVScriptableGameObj@@@Z ; ReferencerClass::ReferencerClass
PUBLIC	?Get_Ptr@ReferencerClass@@QBEPAVScriptableGameObj@@XZ ; ReferencerClass::Get_Ptr
PUBLIC	?Set_Ptr@ReferencerClass@@QAEXPAVScriptableGameObj@@@Z ; ReferencerClass::Set_Ptr
PUBLIC	??0ReferencerClass@@QAE@ABV0@@Z			; ReferencerClass::ReferencerClass
PUBLIC	??_GReferencerClass@@UAEPAXI@Z			; ReferencerClass::`scalar deleting destructor'
PUBLIC	??_EReferencerClass@@UAEPAXI@Z			; ReferencerClass::`vector deleting destructor'
PUBLIC	?Get_Data@?$ReferenceableClass@VScriptableGameObj@@@@IBEPAVScriptableGameObj@@XZ ; ReferenceableClass<ScriptableGameObj>::Get_Data
PUBLIC	?Get_Definition@BaseGameObj@@QBEABVBaseGameObjDef@@XZ ; BaseGameObj::Get_Definition
PUBLIC	??0LineSegClass@@QAE@XZ				; LineSegClass::LineSegClass
PUBLIC	??0LineSegClass@@QAE@ABVVector3@@0@Z		; LineSegClass::LineSegClass
PUBLIC	??0LineSegClass@@QAE@ABVVector3@@0M@Z		; LineSegClass::LineSegClass
PUBLIC	??0LineSegClass@@QAE@ABV0@ABVMatrix3D@@@Z	; LineSegClass::LineSegClass
PUBLIC	?Set@LineSegClass@@QAEXABVVector3@@0@Z		; LineSegClass::Set
PUBLIC	?Set@LineSegClass@@QAEXABVVector3@@0M@Z		; LineSegClass::Set
PUBLIC	?Get_P0@LineSegClass@@QBEABVVector3@@XZ		; LineSegClass::Get_P0
PUBLIC	?Get_P1@LineSegClass@@QBEABVVector3@@XZ		; LineSegClass::Get_P1
PUBLIC	?Get_DP@LineSegClass@@QBEABVVector3@@XZ		; LineSegClass::Get_DP
PUBLIC	?Get_Dir@LineSegClass@@QBEABVVector3@@XZ	; LineSegClass::Get_Dir
PUBLIC	?Get_Length@LineSegClass@@QBEMXZ		; LineSegClass::Get_Length
PUBLIC	?Compute_Point@LineSegClass@@QBEXMPAVVector3@@@Z ; LineSegClass::Compute_Point
PUBLIC	?recalculate@LineSegClass@@IAEXXZ		; LineSegClass::recalculate
PUBLIC	??0LineSegClass@@QAE@ABV0@@Z			; LineSegClass::LineSegClass
PUBLIC	??4LineSegClass@@QAEAAV0@ABV0@@Z		; LineSegClass::operator=
PUBLIC	?Get_Position@PhysClass@@QBEXPAVVector3@@@Z	; PhysClass::Get_Position
PUBLIC	?Peek_Physical_Object@PhysicalGameObj@@QBEPAVPhysClass@@XZ ; PhysicalGameObj::Peek_Physical_Object
PUBLIC	?Get_Position@PhysicalGameObj@@QAE?AVVector3@@XZ ; PhysicalGameObj::Get_Position
PUBLIC	?Power_Base@@YAXH_N@Z				; Power_Base
PUBLIC	?Set_Can_Generate_Soldiers@@YAXH_N@Z		; Set_Can_Generate_Soldiers
PUBLIC	?Set_Can_Generate_Vehicles@@YAXH_N@Z		; Set_Can_Generate_Vehicles
PUBLIC	?Destroy_Base@@YAXH@Z				; Destroy_Base
PUBLIC	?Beacon_Destroyed_Base@@YAXH_N@Z		; Beacon_Destroyed_Base
PUBLIC	?Enable_Base_Radar@@YAXH_N@Z			; Enable_Base_Radar
PUBLIC	?Is_Harvester@@YA_NPAVScriptableGameObj@@@Z	; Is_Harvester
PUBLIC	?Is_Radar_Enabled@@YA_NH@Z			; Is_Radar_Enabled
PUBLIC	?Building_Type@@YAHPAVScriptableGameObj@@@Z	; Building_Type
PUBLIC	?Is_Building_Dead@@YA_NPAVScriptableGameObj@@@Z	; Is_Building_Dead
PUBLIC	?Find_Building_By_Type@@YAPAVScriptableGameObj@@HH@Z ; Find_Building_By_Type
PUBLIC	?Find_Base_Defense@@YAPAVScriptableGameObj@@H@Z	; Find_Base_Defense
PUBLIC	?Is_Map_Flying@@YA_NXZ				; Is_Map_Flying
PUBLIC	?Create_Building@@YAPAVScriptableGameObj@@PBDABVVector3@@@Z ; Create_Building
PUBLIC	?Find_Harvester@@YAPAVScriptableGameObj@@H@Z	; Find_Harvester
PUBLIC	?Is_Base_Powered@@YA_NH@Z			; Is_Base_Powered
PUBLIC	?Can_Generate_Vehicles@@YA_NH@Z			; Can_Generate_Vehicles
PUBLIC	?Can_Generate_Soldiers@@YA_NH@Z			; Can_Generate_Soldiers
PUBLIC	?The_Game@@YAPAVcGameData@@XZ			; The_Game
PUBLIC	?The_Skirmish_Game@@YAPAVcGameDataSkirmish@@XZ	; The_Skirmish_Game
PUBLIC	?The_Cnc_Game@@YAPAVcGameDataCnc@@XZ		; The_Cnc_Game
PUBLIC	?The_Single_Player_Game@@YAPAVcGameDataSinglePlayer@@XZ ; The_Single_Player_Game
PUBLIC	?Get_Building_Count_Team@@YAHH@Z		; Get_Building_Count_Team
PUBLIC	?Find_Building_By_Team@@YAPAVScriptableGameObj@@H@Z ; Find_Building_By_Team
PUBLIC	?Find_Building_By_Preset@@YAPAVScriptableGameObj@@HPBD@Z ; Find_Building_By_Preset
PUBLIC	?Find_Power_Plant@@YAPAVScriptableGameObj@@H@Z	; Find_Power_Plant
PUBLIC	?Find_Construction_Yard@@YAPAVScriptableGameObj@@H@Z ; Find_Construction_Yard
PUBLIC	?Find_Refinery@@YAPAVScriptableGameObj@@H@Z	; Find_Refinery
PUBLIC	?Find_Repair_Bay@@YAPAVScriptableGameObj@@H@Z	; Find_Repair_Bay
PUBLIC	?Find_Soldier_Factory@@YAPAVScriptableGameObj@@H@Z ; Find_Soldier_Factory
PUBLIC	?Find_Vehicle_Factory@@YAPAVScriptableGameObj@@H@Z ; Find_Vehicle_Factory
PUBLIC	?Find_Com_Center@@YAPAVScriptableGameObj@@H@Z	; Find_Com_Center
PUBLIC	?Find_Special@@YAPAVScriptableGameObj@@H@Z	; Find_Special
PUBLIC	?Find_Naval_Factory@@YAPAVScriptableGameObj@@H@Z ; Find_Naval_Factory
PUBLIC	?Find_Tech_Center@@YAPAVScriptableGameObj@@H@Z	; Find_Tech_Center
PUBLIC	?Find_Helipad@@YAPAVScriptableGameObj@@H@Z	; Find_Helipad
PUBLIC	?Find_Shrine@@YAPAVScriptableGameObj@@H@Z	; Find_Shrine
PUBLIC	?Restore_Building@@YAXPAVScriptableGameObj@@@Z	; Restore_Building
PUBLIC	?Is_Gameplay_Permitted@@YA_NXZ			; Is_Gameplay_Permitted
PUBLIC	?Is_Dedicated@@YA_NXZ				; Is_Dedicated
PUBLIC	?Get_Current_Game_Mode@@YAIXZ			; Get_Current_Game_Mode
PUBLIC	?Get_Private_Message_Color@@YAXPAI00@Z		; Get_Private_Message_Color
PUBLIC	?Get_Public_Message_Color@@YAXPAI00@Z		; Get_Public_Message_Color
PUBLIC	?Get_Harvester_Preset_ID@@YAHH@Z		; Get_Harvester_Preset_ID
PUBLIC	?Is_Harvester_Preset@@YA_NPAVScriptableGameObj@@@Z ; Is_Harvester_Preset
PUBLIC	?Vehicle_Preset_Is_Air@@YA_NH@Z			; Vehicle_Preset_Is_Air
PUBLIC	?Vehicle_Preset_Is_Naval@@YA_NH@Z		; Vehicle_Preset_Is_Naval
PUBLIC	?Get_Base_Center@@YA?AVVector3@@H@Z		; Get_Base_Center
PUBLIC	?Seconds_To_Hms@@YAXMAAH00@Z			; Seconds_To_Hms
PUBLIC	??1CollideableObjClass@AnimCollisionManagerClass@@QAE@XZ ; AnimCollisionManagerClass::CollideableObjClass::~CollideableObjClass
PUBLIC	??_ECollideableObjClass@AnimCollisionManagerClass@@QAEPAXI@Z ; AnimCollisionManagerClass::CollideableObjClass::`vector deleting destructor'
PUBLIC	??0CollisionTestClass@@QAE@PAUCastResultStruct@@W4Collision_Type@@@Z ; CollisionTestClass::CollisionTestClass
PUBLIC	??0CollisionTestClass@@QAE@ABV0@@Z		; CollisionTestClass::CollisionTestClass
PUBLIC	??4CollisionTestClass@@QAEAAV0@ABV0@@Z		; CollisionTestClass::operator=
PUBLIC	?Cull@AABoxCollisionTestClass@@QAE_NABVVector3@@0@Z ; AABoxCollisionTestClass::Cull
PUBLIC	?Translate@AABoxCollisionTestClass@@QAEXABVVector3@@@Z ; AABoxCollisionTestClass::Translate
PUBLIC	?Cull@OBBoxCollisionTestClass@@QAE_NABVVector3@@0@Z ; OBBoxCollisionTestClass::Cull
PUBLIC	?Get_Type@BuildingGameObjDef@@QBE?AW4BuildingType@BuildingConstants@@XZ ; BuildingGameObjDef::Get_Type
PUBLIC	?Set_Position@BuildingGameObj@@QAEXABVVector3@@@Z ; BuildingGameObj::Set_Position
PUBLIC	?Is_Destroyed@BuildingGameObj@@QBE_NXZ		; BuildingGameObj::Is_Destroyed
PUBLIC	?Find_MCT@BuildingGameObj@@QAEPAVBuildingAggregateClass@@XZ ; BuildingGameObj::Find_MCT
PUBLIC	?Iterator@?$RefMultiListClass@VBuildingAggregateClass@@@@QBE?AV?$RefMultiListIterator@VBuildingAggregateClass@@@@XZ ; RefMultiListClass<BuildingAggregateClass>::Iterator
PUBLIC	?Get_Harvester_Def_ID@RefineryGameObj@@QBEHXZ	; RefineryGameObj::Get_Harvester_Def_ID
PUBLIC	?Get_Harvester_Vehicle@RefineryGameObj@@QAEPAVVehicleGameObj@@XZ ; RefineryGameObj::Get_Harvester_Vehicle
PUBLIC	?Destroy_Harvester@RefineryGameObj@@QAEXXZ	; RefineryGameObj::Destroy_Harvester
PUBLIC	?Head@?$SList@VBuildingGameObj@@@@QBEPAV?$SLNode@VBuildingGameObj@@@@XZ ; SList<BuildingGameObj>::Head
PUBLIC	?Get_Definition@SimpleGameObj@@QBEABVSimpleGameObjDef@@XZ ; SimpleGameObj::Get_Definition
PUBLIC	?Get_Type@VehicleGameObjDef@@QBE?AW4VehicleType@@XZ ; VehicleGameObjDef::Get_Type
PUBLIC	?Get_Build_At_Ground@VehicleGameObjDef@@QBE_NXZ	; VehicleGameObjDef::Get_Build_At_Ground
PUBLIC	??4ArmorWarheadManager@@QAEAAV0@ABV0@@Z		; ArmorWarheadManager::operator=
PUBLIC	?I_Am_Server@CombatManager@@SA_NXZ		; CombatManager::I_Am_Server
PUBLIC	?Set_Friendly_Fire_Permitted@CombatManager@@SAX_N@Z ; CombatManager::Set_Friendly_Fire_Permitted
PUBLIC	?Is_Friendly_Fire_Permitted@CombatManager@@SA_NXZ ; CombatManager::Is_Friendly_Fire_Permitted
PUBLIC	??$ResolveGameReference@_N@@YAAA_NHHH@Z		; ResolveGameReference<bool>
PUBLIC	?Game_Mode_Find@@YAPAXPBD@Z			; Game_Mode_Find
PUBLIC	??$ResolveGameReference@H@@YAAAHHHH@Z		; ResolveGameReference<int>
PUBLIC	??$ResolveGameReference@VWideStringClass@@@@YAAAVWideStringClass@@HHH@Z ; ResolveGameReference<WideStringClass>
PUBLIC	??$ResolveGameReference@VVector3@@@@YAAAVVector3@@HHH@Z ; ResolveGameReference<Vector3>
PUBLIC	??$ResolveGameReference@I@@YAAAIHHH@Z		; ResolveGameReference<unsigned int>
PUBLIC	?Next@?$SLNode@VBuildingGameObj@@@@QBEPAV1@XZ	; SLNode<BuildingGameObj>::Next
PUBLIC	?Data@?$SLNode@VBuildingGameObj@@@@QBEPAVBuildingGameObj@@XZ ; SLNode<BuildingGameObj>::Data
PUBLIC	?Find_Building_By_Class_ID@@YAPAVScriptableGameObj@@HK@Z ; Find_Building_By_Class_ID
PUBLIC	??0?$RefMultiListIterator@VBuildingAggregateClass@@@@QAE@PBV?$RefMultiListClass@VBuildingAggregateClass@@@@@Z ; RefMultiListIterator<BuildingAggregateClass>::RefMultiListIterator<BuildingAggregateClass>
PUBLIC	?Peek_Obj@?$RefMultiListIterator@VBuildingAggregateClass@@@@QBEPAVBuildingAggregateClass@@XZ ; RefMultiListIterator<BuildingAggregateClass>::Peek_Obj
PUBLIC	??E?$RefMultiListIterator@VBuildingAggregateClass@@@@QAEXXZ ; RefMultiListIterator<BuildingAggregateClass>::operator++
PUBLIC	??B?$RefMultiListIterator@VBuildingAggregateClass@@@@QBE_NXZ ; RefMultiListIterator<BuildingAggregateClass>::operator bool
PUBLIC	??C?$RefMultiListIterator@VBuildingAggregateClass@@@@QBEPAVBuildingAggregateClass@@XZ ; RefMultiListIterator<BuildingAggregateClass>::operator->
PUBLIC	??_7ThreadClass@@6B@				; ThreadClass::`vftable'
PUBLIC	??_7GameObjObserverClass@@6B@			; GameObjObserverClass::`vftable'
PUBLIC	??_7ScriptClass@@6B@				; ScriptClass::`vftable'
PUBLIC	??_7ScriptImpClass@@6B@				; ScriptImpClass::`vftable'
PUBLIC	??_7ScriptFactory@@6B@				; ScriptFactory::`vftable'
PUBLIC	??_7PostLoadableClass@@6B@			; PostLoadableClass::`vftable'
PUBLIC	??_7INIClass@@6B@				; INIClass::`vftable'
PUBLIC	??_7ReferencerClass@@6B@			; ReferencerClass::`vftable'
PUBLIC	?HostedGameNumber@cGameData@@2AAHA		; cGameData::HostedGameNumber
PUBLIC	?WinText@cGameData@@2AAVWideStringClass@@A	; cGameData::WinText
PUBLIC	?IAmServer@CombatManager@@2AA_NA		; CombatManager::IAmServer
PUBLIC	?PrivateMessageColor@@3AAVVector3@@A		; PrivateMessageColor
PUBLIC	?PublicMessageColor@@3AAVVector3@@A		; PublicMessageColor
PUBLIC	?GDIHouseColor@@3AAVVector3@@A			; GDIHouseColor
PUBLIC	?NodHouseColor@@3AAVVector3@@A			; NodHouseColor
PUBLIC	?IsMapVTOL@@3AA_NA				; IsMapVTOL
PUBLIC	?IsListed@@3AA_NA				; IsListed
PUBLIC	?GameMode@@3AAIA				; GameMode
PUBLIC	??_C@_05PGGAFPFO@Death?$AA@			; `string'
PUBLIC	??_C@_03KPGLNNAM@WOL?$AA@			; `string'
PUBLIC	??_C@_03BANLECBK@LAN?$AA@			; `string'
PUBLIC	??_R4ThreadClass@@6B@				; ThreadClass::`RTTI Complete Object Locator'
PUBLIC	??_R0?AVThreadClass@@@8				; ThreadClass `RTTI Type Descriptor'
PUBLIC	??_R3ThreadClass@@8				; ThreadClass::`RTTI Class Hierarchy Descriptor'
PUBLIC	??_R2ThreadClass@@8				; ThreadClass::`RTTI Base Class Array'
PUBLIC	??_R1A@?0A@EA@ThreadClass@@8			; ThreadClass::`RTTI Base Class Descriptor at (0,-1,0,64)'
PUBLIC	??_R4ScriptFactory@@6B@				; ScriptFactory::`RTTI Complete Object Locator'
PUBLIC	??_R0?AVScriptFactory@@@8			; ScriptFactory `RTTI Type Descriptor'
PUBLIC	??_R3ScriptFactory@@8				; ScriptFactory::`RTTI Class Hierarchy Descriptor'
PUBLIC	??_R2ScriptFactory@@8				; ScriptFactory::`RTTI Base Class Array'
PUBLIC	??_R1A@?0A@EA@ScriptFactory@@8			; ScriptFactory::`RTTI Base Class Descriptor at (0,-1,0,64)'
PUBLIC	??_R4ScriptClass@@6B@				; ScriptClass::`RTTI Complete Object Locator'
PUBLIC	??_R0?AVScriptClass@@@8				; ScriptClass `RTTI Type Descriptor'
PUBLIC	??_R3ScriptClass@@8				; ScriptClass::`RTTI Class Hierarchy Descriptor'
PUBLIC	??_R2ScriptClass@@8				; ScriptClass::`RTTI Base Class Array'
PUBLIC	??_R1A@?0A@EA@ScriptClass@@8			; ScriptClass::`RTTI Base Class Descriptor at (0,-1,0,64)'
PUBLIC	??_R1A@?0A@EA@GameObjObserverClass@@8		; GameObjObserverClass::`RTTI Base Class Descriptor at (0,-1,0,64)'
PUBLIC	??_R0?AVGameObjObserverClass@@@8		; GameObjObserverClass `RTTI Type Descriptor'
PUBLIC	??_R3GameObjObserverClass@@8			; GameObjObserverClass::`RTTI Class Hierarchy Descriptor'
PUBLIC	??_R2GameObjObserverClass@@8			; GameObjObserverClass::`RTTI Base Class Array'
PUBLIC	??_R4GameObjObserverClass@@6B@			; GameObjObserverClass::`RTTI Complete Object Locator'
PUBLIC	??_R4ScriptImpClass@@6B@			; ScriptImpClass::`RTTI Complete Object Locator'
PUBLIC	??_R0?AVScriptImpClass@@@8			; ScriptImpClass `RTTI Type Descriptor'
PUBLIC	??_R3ScriptImpClass@@8				; ScriptImpClass::`RTTI Class Hierarchy Descriptor'
PUBLIC	??_R2ScriptImpClass@@8				; ScriptImpClass::`RTTI Base Class Array'
PUBLIC	??_R1A@?0A@EA@ScriptImpClass@@8			; ScriptImpClass::`RTTI Base Class Descriptor at (0,-1,0,64)'
PUBLIC	??_R4PostLoadableClass@@6B@			; PostLoadableClass::`RTTI Complete Object Locator'
PUBLIC	??_R0?AVPostLoadableClass@@@8			; PostLoadableClass `RTTI Type Descriptor'
PUBLIC	??_R3PostLoadableClass@@8			; PostLoadableClass::`RTTI Class Hierarchy Descriptor'
PUBLIC	??_R2PostLoadableClass@@8			; PostLoadableClass::`RTTI Base Class Array'
PUBLIC	??_R1A@?0A@EA@PostLoadableClass@@8		; PostLoadableClass::`RTTI Base Class Descriptor at (0,-1,0,64)'
PUBLIC	??_R4INIClass@@6B@				; INIClass::`RTTI Complete Object Locator'
PUBLIC	??_R0?AVINIClass@@@8				; INIClass `RTTI Type Descriptor'
PUBLIC	??_R3INIClass@@8				; INIClass::`RTTI Class Hierarchy Descriptor'
PUBLIC	??_R2INIClass@@8				; INIClass::`RTTI Base Class Array'
PUBLIC	??_R1A@?0A@EA@INIClass@@8			; INIClass::`RTTI Base Class Descriptor at (0,-1,0,64)'
PUBLIC	??_R4ReferencerClass@@6B@			; ReferencerClass::`RTTI Complete Object Locator'
PUBLIC	??_R0?AVReferencerClass@@@8			; ReferencerClass `RTTI Type Descriptor'
PUBLIC	??_R3ReferencerClass@@8				; ReferencerClass::`RTTI Class Hierarchy Descriptor'
PUBLIC	??_R2ReferencerClass@@8				; ReferencerClass::`RTTI Base Class Array'
PUBLIC	??_R1A@?0A@EA@ReferencerClass@@8		; ReferencerClass::`RTTI Base Class Descriptor at (0,-1,0,64)'
PUBLIC	__real@00000000
PUBLIC	__real@0000000000000000
PUBLIC	__real@02081cea
PUBLIC	__real@3991a2b4
PUBLIC	__real@3c888889
PUBLIC	__real@3f79999a
PUBLIC	__real@3f800000
PUBLIC	__real@3fc90fdb
PUBLIC	__real@3fe0000000000000
PUBLIC	__real@3ff0000000000000
PUBLIC	__real@40000000
PUBLIC	__real@4000000000000000
PUBLIC	__real@40c90fdb
PUBLIC	__real@437f0000
PUBLIC	__real@44000000
PUBLIC	__real@44800000
PUBLIC	__real@47c34f80
PUBLIC	__real@bf800000
PUBLIC	__real@c0000000
PUBLIC	__xmm@80000000000000008000000000000000
PUBLIC	__xmm@80000000800000008000000080000000
EXTRN	__purecall:PROC
EXTRN	??3@YAXPAX@Z:PROC				; operator delete
EXTRN	?HookupAT3@@YAPAXPAX000@Z:PROC			; HookupAT3
EXTRN	?InitEngine@@YAXXZ:PROC				; InitEngine
EXTRN	__imp__atof:PROC
EXTRN	__imp__ceil:PROC
EXTRN	__imp__atoi:PROC
EXTRN	??_V@YAXPAX@Z:PROC				; operator delete[]
EXTRN	__imp___stricmp:PROC
EXTRN	__imp__GetCurrentThreadId@0:PROC
EXTRN	?Random_Float@WWMath@@SAMXZ:PROC		; WWMath::Random_Float
EXTRN	?Set@Matrix3D@@QAEXABVMatrix3@@ABVVector3@@@Z:PROC ; Matrix3D::Set
EXTRN	?Set@Matrix3D@@QAEXABVQuaternion@@ABVVector3@@@Z:PROC ; Matrix3D::Set
EXTRN	?Set@Matrix3@@QAEXABVQuaternion@@@Z:PROC	; Matrix3::Set
EXTRN	??1ThreadClass@@UAE@XZ:PROC			; ThreadClass::~ThreadClass
EXTRN	??1ScriptImpClass@@UAE@XZ:PROC			; ScriptImpClass::~ScriptImpClass
EXTRN	?Get_Name@ScriptImpClass@@UAEPBDXZ:PROC		; ScriptImpClass::Get_Name
EXTRN	?Set_Parameters_String@ScriptImpClass@@UAEXPBD@Z:PROC ; ScriptImpClass::Set_Parameters_String
EXTRN	?Get_Parameters_String@ScriptImpClass@@UAEXPADI@Z:PROC ; ScriptImpClass::Get_Parameters_String
EXTRN	?Get_Parameter@ScriptImpClass@@QAEPBDH@Z:PROC	; ScriptImpClass::Get_Parameter
EXTRN	?Get_Int_Parameter@ScriptImpClass@@QAEHPBD@Z:PROC ; ScriptImpClass::Get_Int_Parameter
EXTRN	?Attach@ScriptImpClass@@MAEXPAVScriptableGameObj@@@Z:PROC ; ScriptImpClass::Attach
EXTRN	?Detach@ScriptImpClass@@MAEXPAVScriptableGameObj@@@Z:PROC ; ScriptImpClass::Detach
EXTRN	?Save@ScriptImpClass@@MAEXAAVScriptSaver@@@Z:PROC ; ScriptImpClass::Save
EXTRN	?Load@ScriptImpClass@@MAEXAAVScriptLoader@@@Z:PROC ; ScriptImpClass::Load
EXTRN	??1ScriptFactory@@UAE@XZ:PROC			; ScriptFactory::~ScriptFactory
EXTRN	?Enable_Radar@BaseControllerClass@@QAEX_N@Z:PROC ; BaseControllerClass::Enable_Radar
EXTRN	__imp_?Free_String@StringClass@@AAEXXZ:PROC
EXTRN	__imp_?Free_String@WideStringClass@@AAEXXZ:PROC
EXTRN	?Find_Entry@INIClass@@QBEPAUINIEntry@@PBD0@Z:PROC ; INIClass::Find_Entry
EXTRN	?Find_Section@INIClass@@QBEPAUINISection@@PBD@Z:PROC ; INIClass::Find_Section
EXTRN	??1INIClass@@UAE@XZ:PROC			; INIClass::~INIClass
EXTRN	??1ReferencerClass@@UAE@XZ:PROC			; ReferencerClass::~ReferencerClass
EXTRN	?On_Post_Load@ReferencerClass@@UAEXXZ:PROC	; ReferencerClass::On_Post_Load
EXTRN	??4ReferencerClass@@QAEAAV0@PAVScriptableGameObj@@@Z:PROC ; ReferencerClass::operator=
EXTRN	?Get_Definition@ScriptableGameObj@@QBEABVScriptableGameObjDef@@XZ:PROC ; ScriptableGameObj::Get_Definition
EXTRN	?Start_Observers@ScriptableGameObj@@QAEXXZ:PROC	; ScriptableGameObj::Start_Observers
EXTRN	?Set@LineSegClass@@QAEXABV1@ABVMatrix3D@@@Z:PROC ; LineSegClass::Set
EXTRN	?Get_Object_Type@@YAHPAVScriptableGameObj@@@Z:PROC ; Get_Object_Type
EXTRN	?Is_MCT@BuildingAggregateClass@@QAE_NXZ:PROC	; BuildingAggregateClass::Is_MCT
EXTRN	?Get_Definition@BuildingGameObj@@QBEABVBuildingGameObjDef@@XZ:PROC ; BuildingGameObj::Get_Definition
EXTRN	?Collect_Building_Components@BuildingGameObj@@QAEXXZ:PROC ; BuildingGameObj::Collect_Building_Components
EXTRN	?Get_Definition@RefineryGameObj@@QBEABVRefineryGameObjDef@@XZ:PROC ; RefineryGameObj::Get_Definition
EXTRN	?Find_Named_Definition@@YAPAVDefinitionClass@@PBD@Z:PROC ; Find_Named_Definition
EXTRN	__imp_?Find_Definition@DefinitionMgrClass@@SAPAVDefinitionClass@@I_N@Z:PROC
EXTRN	__CIatan2:PROC
EXTRN	__libm_sse2_acos_precise:PROC
EXTRN	__libm_sse2_asin_precise:PROC
EXTRN	__libm_sse2_atan_precise:PROC
EXTRN	__libm_sse2_cos_precise:PROC
EXTRN	__libm_sse2_sin_precise:PROC
EXTRN	__libm_sse2_sqrt_precise:PROC
EXTRN	__libm_sse2_tan_precise:PROC
EXTRN	_floor:PROC
EXTRN	?Exe@@3HA:DWORD					; Exe
EXTRN	??_7type_info@@6B@:QWORD			; type_info::`vftable'
EXTRN	?_FastAcosTable@@3AAV?$RefArrayHelper@M$0EAA@@@A:DWORD ; _FastAcosTable
EXTRN	?_FastAsinTable@@3AAV?$RefArrayHelper@M$0EAA@@@A:DWORD ; _FastAsinTable
EXTRN	?_FastSinTable@@3AAV?$RefArrayHelper@M$0EAA@@@A:DWORD ; _FastSinTable
EXTRN	?Commands@@3PAUScriptCommands@@A:DWORD		; Commands
EXTRN	?GameType@cGameType@@2AAHA:DWORD		; cGameType::GameType
EXTRN	?BuildingGameObjList@GameObjManager@@2AAV?$SList@VBuildingGameObj@@@@A:DWORD ; GameObjManager::BuildingGameObjList
EXTRN	?FriendlyFirePermitted@CombatManager@@2AA_NA:DWORD ; CombatManager::FriendlyFirePermitted
EXTRN	__fltused:DWORD
_BSS	SEGMENT
	ALIGN	4

?HostedGameNumber@cGameData@@2AAHA DD 01H DUP (?)	; cGameData::HostedGameNumber
?WinText@cGameData@@2AAVWideStringClass@@A DD 01H DUP (?) ; cGameData::WinText
?IAmServer@CombatManager@@2AA_NA DD 01H DUP (?)		; CombatManager::IAmServer
?PrivateMessageColor@@3AAVVector3@@A DD 01H DUP (?)	; PrivateMessageColor
?PublicMessageColor@@3AAVVector3@@A DD 01H DUP (?)	; PublicMessageColor
?GDIHouseColor@@3AAVVector3@@A DD 01H DUP (?)		; GDIHouseColor
?NodHouseColor@@3AAVVector3@@A DD 01H DUP (?)		; NodHouseColor
?IsMapVTOL@@3AA_NA DD 01H DUP (?)			; IsMapVTOL
?IsListed@@3AA_NA DD 01H DUP (?)			; IsListed
?GameMode@@3AAIA DD 01H DUP (?)				; GameMode
_BSS	ENDS
CRT$XCU	SEGMENT
?IAmServer$initializer$@CombatManager@@2P6AXXZA DD FLAT:??__E?IAmServer@CombatManager@@2AA_NA@@YAXXZ ; CombatManager::IAmServer$initializer$
CRT$XCU	ENDS
;	COMDAT __xmm@80000000800000008000000080000000
CONST	SEGMENT
__xmm@80000000800000008000000080000000 DB 00H, 00H, 00H, 080H, 00H, 00H, 00H
	DB	080H, 00H, 00H, 00H, 080H, 00H, 00H, 00H, 080H
CONST	ENDS
;	COMDAT __xmm@80000000000000008000000000000000
CONST	SEGMENT
__xmm@80000000000000008000000000000000 DB 00H, 00H, 00H, 00H, 00H, 00H, 00H
	DB	080H, 00H, 00H, 00H, 00H, 00H, 00H, 00H, 080H
CONST	ENDS
;	COMDAT __real@c0000000
CONST	SEGMENT
__real@c0000000 DD 0c0000000r			; -2
CONST	ENDS
;	COMDAT __real@bf800000
CONST	SEGMENT
__real@bf800000 DD 0bf800000r			; -1
CONST	ENDS
;	COMDAT __real@47c34f80
CONST	SEGMENT
__real@47c34f80 DD 047c34f80r			; 99999
CONST	ENDS
;	COMDAT __real@44800000
CONST	SEGMENT
__real@44800000 DD 044800000r			; 1024
CONST	ENDS
;	COMDAT __real@44000000
CONST	SEGMENT
__real@44000000 DD 044000000r			; 512
CONST	ENDS
;	COMDAT __real@437f0000
CONST	SEGMENT
__real@437f0000 DD 0437f0000r			; 255
CONST	ENDS
;	COMDAT __real@40c90fdb
CONST	SEGMENT
__real@40c90fdb DD 040c90fdbr			; 6.28319
CONST	ENDS
;	COMDAT __real@4000000000000000
CONST	SEGMENT
__real@4000000000000000 DQ 04000000000000000r	; 2
CONST	ENDS
;	COMDAT __real@40000000
CONST	SEGMENT
__real@40000000 DD 040000000r			; 2
CONST	ENDS
;	COMDAT __real@3ff0000000000000
CONST	SEGMENT
__real@3ff0000000000000 DQ 03ff0000000000000r	; 1
CONST	ENDS
;	COMDAT __real@3fe0000000000000
CONST	SEGMENT
__real@3fe0000000000000 DQ 03fe0000000000000r	; 0.5
CONST	ENDS
;	COMDAT __real@3fc90fdb
CONST	SEGMENT
__real@3fc90fdb DD 03fc90fdbr			; 1.5708
CONST	ENDS
;	COMDAT __real@3f800000
CONST	SEGMENT
__real@3f800000 DD 03f800000r			; 1
CONST	ENDS
;	COMDAT __real@3f79999a
CONST	SEGMENT
__real@3f79999a DD 03f79999ar			; 0.975
CONST	ENDS
;	COMDAT __real@3c888889
CONST	SEGMENT
__real@3c888889 DD 03c888889r			; 0.0166667
CONST	ENDS
;	COMDAT __real@3991a2b4
CONST	SEGMENT
__real@3991a2b4 DD 03991a2b4r			; 0.000277778
CONST	ENDS
;	COMDAT __real@02081cea
CONST	SEGMENT
__real@02081cea DD 002081cear			; 1e-037
CONST	ENDS
;	COMDAT __real@0000000000000000
CONST	SEGMENT
__real@0000000000000000 DQ 00000000000000000r	; 0
CONST	ENDS
;	COMDAT __real@00000000
CONST	SEGMENT
__real@00000000 DD 000000000r			; 0
CONST	ENDS
;	COMDAT ??_R1A@?0A@EA@ReferencerClass@@8
rdata$r	SEGMENT
??_R1A@?0A@EA@ReferencerClass@@8 DD FLAT:??_R0?AVReferencerClass@@@8 ; ReferencerClass::`RTTI Base Class Descriptor at (0,-1,0,64)'
	DD	01H
	DD	00H
	DD	0ffffffffH
	DD	00H
	DD	040H
	DD	FLAT:??_R3ReferencerClass@@8
rdata$r	ENDS
;	COMDAT ??_R2ReferencerClass@@8
rdata$r	SEGMENT
??_R2ReferencerClass@@8 DD FLAT:??_R1A@?0A@EA@ReferencerClass@@8 ; ReferencerClass::`RTTI Base Class Array'
	DD	FLAT:??_R1A@?0A@EA@PostLoadableClass@@8
rdata$r	ENDS
;	COMDAT ??_R3ReferencerClass@@8
rdata$r	SEGMENT
??_R3ReferencerClass@@8 DD 00H				; ReferencerClass::`RTTI Class Hierarchy Descriptor'
	DD	00H
	DD	02H
	DD	FLAT:??_R2ReferencerClass@@8
rdata$r	ENDS
;	COMDAT ??_R0?AVReferencerClass@@@8
_DATA	SEGMENT
??_R0?AVReferencerClass@@@8 DD FLAT:??_7type_info@@6B@	; ReferencerClass `RTTI Type Descriptor'
	DD	00H
	DB	'.?AVReferencerClass@@', 00H
_DATA	ENDS
;	COMDAT ??_R4ReferencerClass@@6B@
rdata$r	SEGMENT
??_R4ReferencerClass@@6B@ DD 00H			; ReferencerClass::`RTTI Complete Object Locator'
	DD	00H
	DD	00H
	DD	FLAT:??_R0?AVReferencerClass@@@8
	DD	FLAT:??_R3ReferencerClass@@8
rdata$r	ENDS
;	COMDAT ??_R1A@?0A@EA@INIClass@@8
rdata$r	SEGMENT
??_R1A@?0A@EA@INIClass@@8 DD FLAT:??_R0?AVINIClass@@@8	; INIClass::`RTTI Base Class Descriptor at (0,-1,0,64)'
	DD	00H
	DD	00H
	DD	0ffffffffH
	DD	00H
	DD	040H
	DD	FLAT:??_R3INIClass@@8
rdata$r	ENDS
;	COMDAT ??_R2INIClass@@8
rdata$r	SEGMENT
??_R2INIClass@@8 DD FLAT:??_R1A@?0A@EA@INIClass@@8	; INIClass::`RTTI Base Class Array'
rdata$r	ENDS
;	COMDAT ??_R3INIClass@@8
rdata$r	SEGMENT
??_R3INIClass@@8 DD 00H					; INIClass::`RTTI Class Hierarchy Descriptor'
	DD	00H
	DD	01H
	DD	FLAT:??_R2INIClass@@8
rdata$r	ENDS
;	COMDAT ??_R0?AVINIClass@@@8
_DATA	SEGMENT
??_R0?AVINIClass@@@8 DD FLAT:??_7type_info@@6B@		; INIClass `RTTI Type Descriptor'
	DD	00H
	DB	'.?AVINIClass@@', 00H
_DATA	ENDS
;	COMDAT ??_R4INIClass@@6B@
rdata$r	SEGMENT
??_R4INIClass@@6B@ DD 00H				; INIClass::`RTTI Complete Object Locator'
	DD	00H
	DD	00H
	DD	FLAT:??_R0?AVINIClass@@@8
	DD	FLAT:??_R3INIClass@@8
rdata$r	ENDS
;	COMDAT ??_R1A@?0A@EA@PostLoadableClass@@8
rdata$r	SEGMENT
??_R1A@?0A@EA@PostLoadableClass@@8 DD FLAT:??_R0?AVPostLoadableClass@@@8 ; PostLoadableClass::`RTTI Base Class Descriptor at (0,-1,0,64)'
	DD	00H
	DD	00H
	DD	0ffffffffH
	DD	00H
	DD	040H
	DD	FLAT:??_R3PostLoadableClass@@8
rdata$r	ENDS
;	COMDAT ??_R2PostLoadableClass@@8
rdata$r	SEGMENT
??_R2PostLoadableClass@@8 DD FLAT:??_R1A@?0A@EA@PostLoadableClass@@8 ; PostLoadableClass::`RTTI Base Class Array'
rdata$r	ENDS
;	COMDAT ??_R3PostLoadableClass@@8
rdata$r	SEGMENT
??_R3PostLoadableClass@@8 DD 00H			; PostLoadableClass::`RTTI Class Hierarchy Descriptor'
	DD	00H
	DD	01H
	DD	FLAT:??_R2PostLoadableClass@@8
rdata$r	ENDS
;	COMDAT ??_R0?AVPostLoadableClass@@@8
_DATA	SEGMENT
??_R0?AVPostLoadableClass@@@8 DD FLAT:??_7type_info@@6B@ ; PostLoadableClass `RTTI Type Descriptor'
	DD	00H
	DB	'.?AVPostLoadableClass@@', 00H
_DATA	ENDS
;	COMDAT ??_R4PostLoadableClass@@6B@
rdata$r	SEGMENT
??_R4PostLoadableClass@@6B@ DD 00H			; PostLoadableClass::`RTTI Complete Object Locator'
	DD	00H
	DD	00H
	DD	FLAT:??_R0?AVPostLoadableClass@@@8
	DD	FLAT:??_R3PostLoadableClass@@8
rdata$r	ENDS
;	COMDAT ??_R1A@?0A@EA@ScriptImpClass@@8
rdata$r	SEGMENT
??_R1A@?0A@EA@ScriptImpClass@@8 DD FLAT:??_R0?AVScriptImpClass@@@8 ; ScriptImpClass::`RTTI Base Class Descriptor at (0,-1,0,64)'
	DD	02H
	DD	00H
	DD	0ffffffffH
	DD	00H
	DD	040H
	DD	FLAT:??_R3ScriptImpClass@@8
rdata$r	ENDS
;	COMDAT ??_R2ScriptImpClass@@8
rdata$r	SEGMENT
??_R2ScriptImpClass@@8 DD FLAT:??_R1A@?0A@EA@ScriptImpClass@@8 ; ScriptImpClass::`RTTI Base Class Array'
	DD	FLAT:??_R1A@?0A@EA@ScriptClass@@8
	DD	FLAT:??_R1A@?0A@EA@GameObjObserverClass@@8
rdata$r	ENDS
;	COMDAT ??_R3ScriptImpClass@@8
rdata$r	SEGMENT
??_R3ScriptImpClass@@8 DD 00H				; ScriptImpClass::`RTTI Class Hierarchy Descriptor'
	DD	00H
	DD	03H
	DD	FLAT:??_R2ScriptImpClass@@8
rdata$r	ENDS
;	COMDAT ??_R0?AVScriptImpClass@@@8
_DATA	SEGMENT
??_R0?AVScriptImpClass@@@8 DD FLAT:??_7type_info@@6B@	; ScriptImpClass `RTTI Type Descriptor'
	DD	00H
	DB	'.?AVScriptImpClass@@', 00H
_DATA	ENDS
;	COMDAT ??_R4ScriptImpClass@@6B@
rdata$r	SEGMENT
??_R4ScriptImpClass@@6B@ DD 00H				; ScriptImpClass::`RTTI Complete Object Locator'
	DD	00H
	DD	00H
	DD	FLAT:??_R0?AVScriptImpClass@@@8
	DD	FLAT:??_R3ScriptImpClass@@8
rdata$r	ENDS
;	COMDAT ??_R4GameObjObserverClass@@6B@
rdata$r	SEGMENT
??_R4GameObjObserverClass@@6B@ DD 00H			; GameObjObserverClass::`RTTI Complete Object Locator'
	DD	00H
	DD	00H
	DD	FLAT:??_R0?AVGameObjObserverClass@@@8
	DD	FLAT:??_R3GameObjObserverClass@@8
rdata$r	ENDS
;	COMDAT ??_R2GameObjObserverClass@@8
rdata$r	SEGMENT
??_R2GameObjObserverClass@@8 DD FLAT:??_R1A@?0A@EA@GameObjObserverClass@@8 ; GameObjObserverClass::`RTTI Base Class Array'
rdata$r	ENDS
;	COMDAT ??_R3GameObjObserverClass@@8
rdata$r	SEGMENT
??_R3GameObjObserverClass@@8 DD 00H			; GameObjObserverClass::`RTTI Class Hierarchy Descriptor'
	DD	00H
	DD	01H
	DD	FLAT:??_R2GameObjObserverClass@@8
rdata$r	ENDS
;	COMDAT ??_R0?AVGameObjObserverClass@@@8
_DATA	SEGMENT
??_R0?AVGameObjObserverClass@@@8 DD FLAT:??_7type_info@@6B@ ; GameObjObserverClass `RTTI Type Descriptor'
	DD	00H
	DB	'.?AVGameObjObserverClass@@', 00H
_DATA	ENDS
;	COMDAT ??_R1A@?0A@EA@GameObjObserverClass@@8
rdata$r	SEGMENT
??_R1A@?0A@EA@GameObjObserverClass@@8 DD FLAT:??_R0?AVGameObjObserverClass@@@8 ; GameObjObserverClass::`RTTI Base Class Descriptor at (0,-1,0,64)'
	DD	00H
	DD	00H
	DD	0ffffffffH
	DD	00H
	DD	040H
	DD	FLAT:??_R3GameObjObserverClass@@8
rdata$r	ENDS
;	COMDAT ??_R1A@?0A@EA@ScriptClass@@8
rdata$r	SEGMENT
??_R1A@?0A@EA@ScriptClass@@8 DD FLAT:??_R0?AVScriptClass@@@8 ; ScriptClass::`RTTI Base Class Descriptor at (0,-1,0,64)'
	DD	01H
	DD	00H
	DD	0ffffffffH
	DD	00H
	DD	040H
	DD	FLAT:??_R3ScriptClass@@8
rdata$r	ENDS
;	COMDAT ??_R2ScriptClass@@8
rdata$r	SEGMENT
??_R2ScriptClass@@8 DD FLAT:??_R1A@?0A@EA@ScriptClass@@8 ; ScriptClass::`RTTI Base Class Array'
	DD	FLAT:??_R1A@?0A@EA@GameObjObserverClass@@8
rdata$r	ENDS
;	COMDAT ??_R3ScriptClass@@8
rdata$r	SEGMENT
??_R3ScriptClass@@8 DD 00H				; ScriptClass::`RTTI Class Hierarchy Descriptor'
	DD	00H
	DD	02H
	DD	FLAT:??_R2ScriptClass@@8
rdata$r	ENDS
;	COMDAT ??_R0?AVScriptClass@@@8
_DATA	SEGMENT
??_R0?AVScriptClass@@@8 DD FLAT:??_7type_info@@6B@	; ScriptClass `RTTI Type Descriptor'
	DD	00H
	DB	'.?AVScriptClass@@', 00H
_DATA	ENDS
;	COMDAT ??_R4ScriptClass@@6B@
rdata$r	SEGMENT
??_R4ScriptClass@@6B@ DD 00H				; ScriptClass::`RTTI Complete Object Locator'
	DD	00H
	DD	00H
	DD	FLAT:??_R0?AVScriptClass@@@8
	DD	FLAT:??_R3ScriptClass@@8
rdata$r	ENDS
;	COMDAT ??_R1A@?0A@EA@ScriptFactory@@8
rdata$r	SEGMENT
??_R1A@?0A@EA@ScriptFactory@@8 DD FLAT:??_R0?AVScriptFactory@@@8 ; ScriptFactory::`RTTI Base Class Descriptor at (0,-1,0,64)'
	DD	00H
	DD	00H
	DD	0ffffffffH
	DD	00H
	DD	040H
	DD	FLAT:??_R3ScriptFactory@@8
rdata$r	ENDS
;	COMDAT ??_R2ScriptFactory@@8
rdata$r	SEGMENT
??_R2ScriptFactory@@8 DD FLAT:??_R1A@?0A@EA@ScriptFactory@@8 ; ScriptFactory::`RTTI Base Class Array'
rdata$r	ENDS
;	COMDAT ??_R3ScriptFactory@@8
rdata$r	SEGMENT
??_R3ScriptFactory@@8 DD 00H				; ScriptFactory::`RTTI Class Hierarchy Descriptor'
	DD	00H
	DD	01H
	DD	FLAT:??_R2ScriptFactory@@8
rdata$r	ENDS
;	COMDAT ??_R0?AVScriptFactory@@@8
_DATA	SEGMENT
??_R0?AVScriptFactory@@@8 DD FLAT:??_7type_info@@6B@	; ScriptFactory `RTTI Type Descriptor'
	DD	00H
	DB	'.?AVScriptFactory@@', 00H
_DATA	ENDS
;	COMDAT ??_R4ScriptFactory@@6B@
rdata$r	SEGMENT
??_R4ScriptFactory@@6B@ DD 00H				; ScriptFactory::`RTTI Complete Object Locator'
	DD	00H
	DD	00H
	DD	FLAT:??_R0?AVScriptFactory@@@8
	DD	FLAT:??_R3ScriptFactory@@8
rdata$r	ENDS
;	COMDAT ??_R1A@?0A@EA@ThreadClass@@8
rdata$r	SEGMENT
??_R1A@?0A@EA@ThreadClass@@8 DD FLAT:??_R0?AVThreadClass@@@8 ; ThreadClass::`RTTI Base Class Descriptor at (0,-1,0,64)'
	DD	00H
	DD	00H
	DD	0ffffffffH
	DD	00H
	DD	040H
	DD	FLAT:??_R3ThreadClass@@8
rdata$r	ENDS
;	COMDAT ??_R2ThreadClass@@8
rdata$r	SEGMENT
??_R2ThreadClass@@8 DD FLAT:??_R1A@?0A@EA@ThreadClass@@8 ; ThreadClass::`RTTI Base Class Array'
rdata$r	ENDS
;	COMDAT ??_R3ThreadClass@@8
rdata$r	SEGMENT
??_R3ThreadClass@@8 DD 00H				; ThreadClass::`RTTI Class Hierarchy Descriptor'
	DD	00H
	DD	01H
	DD	FLAT:??_R2ThreadClass@@8
rdata$r	ENDS
;	COMDAT ??_R0?AVThreadClass@@@8
_DATA	SEGMENT
??_R0?AVThreadClass@@@8 DD FLAT:??_7type_info@@6B@	; ThreadClass `RTTI Type Descriptor'
	DD	00H
	DB	'.?AVThreadClass@@', 00H
_DATA	ENDS
;	COMDAT ??_R4ThreadClass@@6B@
rdata$r	SEGMENT
??_R4ThreadClass@@6B@ DD 00H				; ThreadClass::`RTTI Complete Object Locator'
	DD	00H
	DD	00H
	DD	FLAT:??_R0?AVThreadClass@@@8
	DD	FLAT:??_R3ThreadClass@@8
rdata$r	ENDS
;	COMDAT ??_C@_03BANLECBK@LAN?$AA@
CONST	SEGMENT
??_C@_03BANLECBK@LAN?$AA@ DB 'LAN', 00H			; `string'
CONST	ENDS
;	COMDAT ??_C@_03KPGLNNAM@WOL?$AA@
CONST	SEGMENT
??_C@_03KPGLNNAM@WOL?$AA@ DB 'WOL', 00H			; `string'
CONST	ENDS
;	COMDAT ??_C@_05PGGAFPFO@Death?$AA@
CONST	SEGMENT
??_C@_05PGGAFPFO@Death?$AA@ DB 'Death', 00H		; `string'
CONST	ENDS
;	COMDAT ??_7ReferencerClass@@6B@
CONST	SEGMENT
??_7ReferencerClass@@6B@ DD FLAT:??_R4ReferencerClass@@6B@ ; ReferencerClass::`vftable'
	DD	FLAT:??_EReferencerClass@@UAEPAXI@Z
	DD	FLAT:?On_Post_Load@ReferencerClass@@UAEXXZ
CONST	ENDS
;	COMDAT ??_7INIClass@@6B@
CONST	SEGMENT
??_7INIClass@@6B@ DD FLAT:??_R4INIClass@@6B@		; INIClass::`vftable'
	DD	FLAT:??_EINIClass@@UAEPAXI@Z
CONST	ENDS
;	COMDAT ??_7PostLoadableClass@@6B@
CONST	SEGMENT
??_7PostLoadableClass@@6B@ DD FLAT:??_R4PostLoadableClass@@6B@ ; PostLoadableClass::`vftable'
	DD	FLAT:??_EPostLoadableClass@@UAEPAXI@Z
	DD	FLAT:?On_Post_Load@PostLoadableClass@@UAEXXZ
CONST	ENDS
;	COMDAT ??_7ScriptFactory@@6B@
CONST	SEGMENT
??_7ScriptFactory@@6B@ DD FLAT:??_R4ScriptFactory@@6B@	; ScriptFactory::`vftable'
	DD	FLAT:??_EScriptFactory@@UAEPAXI@Z
	DD	FLAT:__purecall
CONST	ENDS
;	COMDAT ??_7ScriptImpClass@@6B@
CONST	SEGMENT
??_7ScriptImpClass@@6B@ DD FLAT:??_R4ScriptImpClass@@6B@ ; ScriptImpClass::`vftable'
	DD	FLAT:??_EScriptImpClass@@UAEPAXI@Z
	DD	FLAT:?Get_Name@ScriptImpClass@@UAEPBDXZ
	DD	FLAT:?Attach@ScriptImpClass@@MAEXPAVScriptableGameObj@@@Z
	DD	FLAT:?Detach@ScriptImpClass@@MAEXPAVScriptableGameObj@@@Z
	DD	FLAT:?Created@ScriptImpClass@@UAEXPAVScriptableGameObj@@@Z
	DD	FLAT:?Destroyed@ScriptImpClass@@UAEXPAVScriptableGameObj@@@Z
	DD	FLAT:?Killed@ScriptImpClass@@UAEXPAVScriptableGameObj@@0@Z
	DD	FLAT:?Damaged@ScriptImpClass@@UAEXPAVScriptableGameObj@@0M@Z
	DD	FLAT:?Custom@ScriptImpClass@@UAEXPAVScriptableGameObj@@HH0@Z
	DD	FLAT:?Sound_Heard@ScriptImpClass@@UAEXPAVScriptableGameObj@@ABUCombatSound@@@Z
	DD	FLAT:?Enemy_Seen@ScriptImpClass@@UAEXPAVScriptableGameObj@@0@Z
	DD	FLAT:?Action_Complete@ScriptImpClass@@UAEXPAVScriptableGameObj@@HW4ActionCompleteReason@@@Z
	DD	FLAT:?Timer_Expired@ScriptImpClass@@UAEXPAVScriptableGameObj@@H@Z
	DD	FLAT:?Animation_Complete@ScriptImpClass@@UAEXPAVScriptableGameObj@@PBD@Z
	DD	FLAT:?Poked@ScriptImpClass@@UAEXPAVScriptableGameObj@@0@Z
	DD	FLAT:?Entered@ScriptImpClass@@UAEXPAVScriptableGameObj@@0@Z
	DD	FLAT:?Exited@ScriptImpClass@@UAEXPAVScriptableGameObj@@0@Z
	DD	FLAT:?Owner@ScriptImpClass@@UAEPAVScriptableGameObj@@XZ
	DD	FLAT:?Get_Owner_Ptr@ScriptImpClass@@UAEPAPAVScriptableGameObj@@XZ
	DD	FLAT:?Set_Parameters_String@ScriptImpClass@@UAEXPBD@Z
	DD	FLAT:?Get_Parameters_String@ScriptImpClass@@UAEXPADI@Z
	DD	FLAT:?Save@ScriptImpClass@@MAEXAAVScriptSaver@@@Z
	DD	FLAT:?Load@ScriptImpClass@@MAEXAAVScriptLoader@@@Z
	DD	FLAT:?Save_Data@ScriptImpClass@@UAEXAAVScriptSaver@@@Z
	DD	FLAT:?Load_Data@ScriptImpClass@@UAEXAAVScriptLoader@@@Z
	DD	FLAT:?Register_Auto_Save_Variables@ScriptImpClass@@UAEXXZ
CONST	ENDS
;	COMDAT ??_7ScriptClass@@6B@
CONST	SEGMENT
??_7ScriptClass@@6B@ DD FLAT:??_R4ScriptClass@@6B@	; ScriptClass::`vftable'
	DD	FLAT:??_EScriptClass@@UAEPAXI@Z
	DD	FLAT:__purecall
	DD	FLAT:__purecall
	DD	FLAT:__purecall
	DD	FLAT:__purecall
	DD	FLAT:__purecall
	DD	FLAT:__purecall
	DD	FLAT:__purecall
	DD	FLAT:__purecall
	DD	FLAT:__purecall
	DD	FLAT:__purecall
	DD	FLAT:__purecall
	DD	FLAT:__purecall
	DD	FLAT:__purecall
	DD	FLAT:__purecall
	DD	FLAT:__purecall
	DD	FLAT:__purecall
	DD	FLAT:?Owner@GameObjObserverClass@@UAEPAVScriptableGameObj@@XZ
	DD	FLAT:__purecall
	DD	FLAT:__purecall
	DD	FLAT:__purecall
	DD	FLAT:__purecall
	DD	FLAT:__purecall
CONST	ENDS
;	COMDAT ??_7GameObjObserverClass@@6B@
CONST	SEGMENT
??_7GameObjObserverClass@@6B@ DD FLAT:??_R4GameObjObserverClass@@6B@ ; GameObjObserverClass::`vftable'
	DD	FLAT:??_EGameObjObserverClass@@UAEPAXI@Z
	DD	FLAT:__purecall
	DD	FLAT:__purecall
	DD	FLAT:__purecall
	DD	FLAT:__purecall
	DD	FLAT:__purecall
	DD	FLAT:__purecall
	DD	FLAT:__purecall
	DD	FLAT:__purecall
	DD	FLAT:__purecall
	DD	FLAT:__purecall
	DD	FLAT:__purecall
	DD	FLAT:__purecall
	DD	FLAT:__purecall
	DD	FLAT:__purecall
	DD	FLAT:__purecall
	DD	FLAT:__purecall
	DD	FLAT:?Owner@GameObjObserverClass@@UAEPAVScriptableGameObj@@XZ
CONST	ENDS
;	COMDAT ??_7ThreadClass@@6B@
CONST	SEGMENT
??_7ThreadClass@@6B@ DD FLAT:??_R4ThreadClass@@6B@	; ThreadClass::`vftable'
	DD	FLAT:??_EThreadClass@@UAEPAXI@Z
	DD	FLAT:__purecall
CONST	ENDS
CRT$XCU	SEGMENT
?HostedGameNumber$initializer$@cGameData@@2P6AXXZA DD FLAT:??__E?HostedGameNumber@cGameData@@2AAHA@@YAXXZ ; cGameData::HostedGameNumber$initializer$
CRT$XCU	ENDS
CRT$XCU	SEGMENT
?WinText$initializer$@cGameData@@2P6AXXZA DD FLAT:??__E?WinText@cGameData@@2AAVWideStringClass@@A@@YAXXZ ; cGameData::WinText$initializer$
CRT$XCU	ENDS
CRT$XCU	SEGMENT
_PrivateMessageColor$initializer$ DD FLAT:??__EPrivateMessageColor@@YAXXZ
CRT$XCU	ENDS
CRT$XCU	SEGMENT
_PublicMessageColor$initializer$ DD FLAT:??__EPublicMessageColor@@YAXXZ
CRT$XCU	ENDS
CRT$XCU	SEGMENT
_GDIHouseColor$initializer$ DD FLAT:??__EGDIHouseColor@@YAXXZ
CRT$XCU	ENDS
CRT$XCU	SEGMENT
_NodHouseColor$initializer$ DD FLAT:??__ENodHouseColor@@YAXXZ
CRT$XCU	ENDS
CRT$XCU	SEGMENT
_IsMapVTOL$initializer$ DD FLAT:??__EIsMapVTOL@@YAXXZ
CRT$XCU	ENDS
CRT$XCU	SEGMENT
_IsListed$initializer$ DD FLAT:??__EIsListed@@YAXXZ
CRT$XCU	ENDS
CRT$XCU	SEGMENT
_GameMode$initializer$ DD FLAT:??__EGameMode@@YAXXZ
CRT$XCU	ENDS
; Function compile flags: /Odtp /ZI
; File x:\github\renegade\dragonade_rxd\scripts\multilist.h
;	COMDAT ??C?$RefMultiListIterator@VBuildingAggregateClass@@@@QBEPAVBuildingAggregateClass@@XZ
_TEXT	SEGMENT
_this$ = -4						; size = 4
??C?$RefMultiListIterator@VBuildingAggregateClass@@@@QBEPAVBuildingAggregateClass@@XZ PROC ; RefMultiListIterator<BuildingAggregateClass>::operator->, COMDAT
; _this$ = ecx

; 384  : 	T* operator->() const { return Peek_Obj(); }

	push	ebp
	mov	ebp, esp
	sub	esp, 68					; 00000044H
	push	ebx
	push	esi
	push	edi
	mov	DWORD PTR _this$[ebp], ecx
	mov	ecx, DWORD PTR _this$[ebp]
	call	?Peek_Obj@?$RefMultiListIterator@VBuildingAggregateClass@@@@QBEPAVBuildingAggregateClass@@XZ ; RefMultiListIterator<BuildingAggregateClass>::Peek_Obj
	pop	edi
	pop	esi
	pop	ebx
	mov	esp, ebp
	pop	ebp
	ret	0
??C?$RefMultiListIterator@VBuildingAggregateClass@@@@QBEPAVBuildingAggregateClass@@XZ ENDP ; RefMultiListIterator<BuildingAggregateClass>::operator->
_TEXT	ENDS
; Function compile flags: /Odtp /ZI
; File x:\github\renegade\dragonade_rxd\scripts\multilist.h
;	COMDAT ??B?$RefMultiListIterator@VBuildingAggregateClass@@@@QBE_NXZ
_TEXT	SEGMENT
tv72 = -72						; size = 4
_this$ = -4						; size = 4
??B?$RefMultiListIterator@VBuildingAggregateClass@@@@QBE_NXZ PROC ; RefMultiListIterator<BuildingAggregateClass>::operator bool, COMDAT
; _this$ = ecx

; 383  : 	operator bool() const { return !Is_Done(); }

	push	ebp
	mov	ebp, esp
	sub	esp, 72					; 00000048H
	push	ebx
	push	esi
	push	edi
	mov	DWORD PTR _this$[ebp], ecx
	mov	ecx, DWORD PTR _this$[ebp]
	call	?Is_Done@GenericMultiListIterator@@QBE_NXZ ; GenericMultiListIterator::Is_Done
	movzx	eax, al
	test	eax, eax
	jne	SHORT $LN3@operator
	mov	DWORD PTR tv72[ebp], 1
	jmp	SHORT $LN4@operator
$LN3@operator:
	mov	DWORD PTR tv72[ebp], 0
$LN4@operator:
	mov	al, BYTE PTR tv72[ebp]
	pop	edi
	pop	esi
	pop	ebx
	mov	esp, ebp
	pop	ebp
	ret	0
??B?$RefMultiListIterator@VBuildingAggregateClass@@@@QBE_NXZ ENDP ; RefMultiListIterator<BuildingAggregateClass>::operator bool
_TEXT	ENDS
; Function compile flags: /Odtp /ZI
; File x:\github\renegade\dragonade_rxd\scripts\multilist.h
;	COMDAT ??E?$RefMultiListIterator@VBuildingAggregateClass@@@@QAEXXZ
_TEXT	SEGMENT
_this$ = -4						; size = 4
??E?$RefMultiListIterator@VBuildingAggregateClass@@@@QAEXXZ PROC ; RefMultiListIterator<BuildingAggregateClass>::operator++, COMDAT
; _this$ = ecx

; 382  : 	void operator++() { Next(); }

	push	ebp
	mov	ebp, esp
	sub	esp, 68					; 00000044H
	push	ebx
	push	esi
	push	edi
	mov	DWORD PTR _this$[ebp], ecx
	mov	ecx, DWORD PTR _this$[ebp]
	call	?Next@GenericMultiListIterator@@QAEXXZ	; GenericMultiListIterator::Next
	pop	edi
	pop	esi
	pop	ebx
	mov	esp, ebp
	pop	ebp
	ret	0
??E?$RefMultiListIterator@VBuildingAggregateClass@@@@QAEXXZ ENDP ; RefMultiListIterator<BuildingAggregateClass>::operator++
_TEXT	ENDS
; Function compile flags: /Odtp /ZI
; File x:\github\renegade\dragonade_rxd\scripts\multilist.h
;	COMDAT ?Peek_Obj@?$RefMultiListIterator@VBuildingAggregateClass@@@@QBEPAVBuildingAggregateClass@@XZ
_TEXT	SEGMENT
tv74 = -76						; size = 4
tv75 = -72						; size = 4
_this$ = -4						; size = 4
?Peek_Obj@?$RefMultiListIterator@VBuildingAggregateClass@@@@QBEPAVBuildingAggregateClass@@XZ PROC ; RefMultiListIterator<BuildingAggregateClass>::Peek_Obj, COMDAT
; _this$ = ecx

; 369  : 	{

	push	ebp
	mov	ebp, esp
	sub	esp, 76					; 0000004cH
	push	ebx
	push	esi
	push	edi
	mov	DWORD PTR _this$[ebp], ecx

; 370  : 		return (T*)Current_Object();

	mov	ecx, DWORD PTR _this$[ebp]
	call	?Current_Object@GenericMultiListIterator@@IBEPAVMultiListObjectClass@@XZ ; GenericMultiListIterator::Current_Object
	mov	DWORD PTR tv75[ebp], eax
	cmp	DWORD PTR tv75[ebp], 0
	je	SHORT $LN3@Peek_Obj
	mov	eax, DWORD PTR tv75[ebp]
	sub	eax, 48					; 00000030H
	mov	DWORD PTR tv74[ebp], eax
	jmp	SHORT $LN4@Peek_Obj
$LN3@Peek_Obj:
	mov	DWORD PTR tv74[ebp], 0
$LN4@Peek_Obj:
	mov	eax, DWORD PTR tv74[ebp]

; 371  : 	};

	pop	edi
	pop	esi
	pop	ebx
	mov	esp, ebp
	pop	ebp
	ret	0
?Peek_Obj@?$RefMultiListIterator@VBuildingAggregateClass@@@@QBEPAVBuildingAggregateClass@@XZ ENDP ; RefMultiListIterator<BuildingAggregateClass>::Peek_Obj
_TEXT	ENDS
; Function compile flags: /Odtp /ZI
; File x:\github\renegade\dragonade_rxd\scripts\multilist.h
;	COMDAT ??0?$RefMultiListIterator@VBuildingAggregateClass@@@@QAE@PBV?$RefMultiListClass@VBuildingAggregateClass@@@@@Z
_TEXT	SEGMENT
_this$ = -4						; size = 4
_list$ = 8						; size = 4
??0?$RefMultiListIterator@VBuildingAggregateClass@@@@QAE@PBV?$RefMultiListClass@VBuildingAggregateClass@@@@@Z PROC ; RefMultiListIterator<BuildingAggregateClass>::RefMultiListIterator<BuildingAggregateClass>, COMDAT
; _this$ = ecx

; 359  : 	RefMultiListIterator(const RefMultiListClass<T> *list): GenericMultiListIterator(list) {};

	push	ebp
	mov	ebp, esp
	sub	esp, 68					; 00000044H
	push	ebx
	push	esi
	push	edi
	mov	DWORD PTR _this$[ebp], ecx
	mov	eax, DWORD PTR _list$[ebp]
	push	eax
	mov	ecx, DWORD PTR _this$[ebp]
	call	??0GenericMultiListIterator@@QAE@PBVGenericMultiListClass@@@Z ; GenericMultiListIterator::GenericMultiListIterator
	mov	eax, DWORD PTR _this$[ebp]
	pop	edi
	pop	esi
	pop	ebx
	mov	esp, ebp
	pop	ebp
	ret	4
??0?$RefMultiListIterator@VBuildingAggregateClass@@@@QAE@PBV?$RefMultiListClass@VBuildingAggregateClass@@@@@Z ENDP ; RefMultiListIterator<BuildingAggregateClass>::RefMultiListIterator<BuildingAggregateClass>
_TEXT	ENDS
; Function compile flags: /Odtp /ZI
; File x:\github\renegade\dragonade_rxd\scripts\engine_game.cpp
;	COMDAT ?Find_Building_By_Class_ID@@YAPAVScriptableGameObj@@HK@Z
_TEXT	SEGMENT
_d$1 = -12						; size = 4
_o$2 = -8						; size = 4
_x$ = -4						; size = 4
_Team$ = 8						; size = 4
_Class_ID$ = 12						; size = 4
?Find_Building_By_Class_ID@@YAPAVScriptableGameObj@@HK@Z PROC ; Find_Building_By_Class_ID, COMDAT

; 361  : {

	push	ebp
	mov	ebp, esp
	sub	esp, 76					; 0000004cH
	push	ebx
	push	esi
	push	edi

; 362  : 	SLNode<BuildingGameObj> *x = GameObjManager::BuildingGameObjList.Head();

	mov	ecx, DWORD PTR ?BuildingGameObjList@GameObjManager@@2AAV?$SList@VBuildingGameObj@@@@A ; GameObjManager::BuildingGameObjList
	call	?Head@?$SList@VBuildingGameObj@@@@QBEPAV?$SLNode@VBuildingGameObj@@@@XZ ; SList<BuildingGameObj>::Head
	mov	DWORD PTR _x$[ebp], eax
$LN6@Find_Build:

; 363  : 	while (x)

	cmp	DWORD PTR _x$[ebp], 0
	je	SHORT $LN5@Find_Build

; 364  : 	{
; 365  : 		GameObject *o = x->Data();

	mov	ecx, DWORD PTR _x$[ebp]
	call	?Data@?$SLNode@VBuildingGameObj@@@@QBEPAVBuildingGameObj@@XZ ; SLNode<BuildingGameObj>::Data
	mov	DWORD PTR _o$2[ebp], eax

; 366  : 		if (o)

	cmp	DWORD PTR _o$2[ebp], 0
	je	SHORT $LN4@Find_Build

; 367  : 		{
; 368  : 			const DefinitionClass *d = &o->Get_Definition();

	mov	ecx, DWORD PTR _o$2[ebp]
	call	?Get_Definition@ScriptableGameObj@@QBEABVScriptableGameObjDef@@XZ ; ScriptableGameObj::Get_Definition
	mov	DWORD PTR _d$1[ebp], eax

; 369  : 			if (d->Get_Class_ID() == Class_ID)

	mov	eax, DWORD PTR _d$1[ebp]
	mov	edx, DWORD PTR [eax]
	mov	ecx, DWORD PTR _d$1[ebp]
	mov	eax, DWORD PTR [edx+32]
	call	eax
	cmp	eax, DWORD PTR _Class_ID$[ebp]
	jne	SHORT $LN4@Find_Build

; 370  : 			{
; 371  : 				if ((Get_Object_Type(o) == Team) || (Team == 2))

	mov	eax, DWORD PTR _o$2[ebp]
	push	eax
	call	?Get_Object_Type@@YAHPAVScriptableGameObj@@@Z ; Get_Object_Type
	add	esp, 4
	cmp	eax, DWORD PTR _Team$[ebp]
	je	SHORT $LN1@Find_Build
	cmp	DWORD PTR _Team$[ebp], 2
	jne	SHORT $LN4@Find_Build
$LN1@Find_Build:

; 372  : 				{
; 373  : 					return o;

	mov	eax, DWORD PTR _o$2[ebp]
	jmp	SHORT $LN7@Find_Build
$LN4@Find_Build:

; 374  : 				}
; 375  : 			}
; 376  : 		}
; 377  : 		x = x->Next();

	mov	ecx, DWORD PTR _x$[ebp]
	call	?Next@?$SLNode@VBuildingGameObj@@@@QBEPAV1@XZ ; SLNode<BuildingGameObj>::Next
	mov	DWORD PTR _x$[ebp], eax

; 378  : 	}

	jmp	SHORT $LN6@Find_Build
$LN5@Find_Build:

; 379  : 	return 0;

	xor	eax, eax
$LN7@Find_Build:

; 380  : }

	pop	edi
	pop	esi
	pop	ebx
	mov	esp, ebp
	pop	ebp
	ret	0
?Find_Building_By_Class_ID@@YAPAVScriptableGameObj@@HK@Z ENDP ; Find_Building_By_Class_ID
_TEXT	ENDS
; Function compile flags: /Odtp /ZI
; File x:\github\renegade\dragonade_rxd\scripts\slist.h
;	COMDAT ?Data@?$SLNode@VBuildingGameObj@@@@QBEPAVBuildingGameObj@@XZ
_TEXT	SEGMENT
_this$ = -4						; size = 4
?Data@?$SLNode@VBuildingGameObj@@@@QBEPAVBuildingGameObj@@XZ PROC ; SLNode<BuildingGameObj>::Data, COMDAT
; _this$ = ecx

; 65   : 	{

	push	ebp
	mov	ebp, esp
	sub	esp, 68					; 00000044H
	push	ebx
	push	esi
	push	edi
	mov	DWORD PTR _this$[ebp], ecx

; 66   : 		return (T*)NodeData;

	mov	eax, DWORD PTR _this$[ebp]
	mov	eax, DWORD PTR [eax+4]

; 67   : 	}

	pop	edi
	pop	esi
	pop	ebx
	mov	esp, ebp
	pop	ebp
	ret	0
?Data@?$SLNode@VBuildingGameObj@@@@QBEPAVBuildingGameObj@@XZ ENDP ; SLNode<BuildingGameObj>::Data
_TEXT	ENDS
; Function compile flags: /Odtp /ZI
; File x:\github\renegade\dragonade_rxd\scripts\slist.h
;	COMDAT ?Next@?$SLNode@VBuildingGameObj@@@@QBEPAV1@XZ
_TEXT	SEGMENT
_this$ = -4						; size = 4
?Next@?$SLNode@VBuildingGameObj@@@@QBEPAV1@XZ PROC	; SLNode<BuildingGameObj>::Next, COMDAT
; _this$ = ecx

; 61   : 	{

	push	ebp
	mov	ebp, esp
	sub	esp, 68					; 00000044H
	push	ebx
	push	esi
	push	edi
	mov	DWORD PTR _this$[ebp], ecx

; 62   : 		return (SLNode<T>*)NodeNext;

	mov	eax, DWORD PTR _this$[ebp]
	mov	eax, DWORD PTR [eax]

; 63   : 	}

	pop	edi
	pop	esi
	pop	ebx
	mov	esp, ebp
	pop	ebp
	ret	0
?Next@?$SLNode@VBuildingGameObj@@@@QBEPAV1@XZ ENDP	; SLNode<BuildingGameObj>::Next
_TEXT	ENDS
; Function compile flags: /Odtp /ZI
; File x:\github\renegade\dragonade_rxd\scripts\engine_game.cpp
;	COMDAT ??__EGameMode@@YAXXZ
text$yc	SEGMENT
??__EGameMode@@YAXXZ PROC				; `dynamic initializer for 'GameMode'', COMDAT

; 132  : REF_DEF2(unsigned int, GameMode, 0x0081F5F0, 0x0081E7D8);

	push	ebp
	mov	ebp, esp
	sub	esp, 64					; 00000040H
	push	ebx
	push	esi
	push	edi
	push	0
	push	8513496					; 0081e7d8H
	push	8517104					; 0081f5f0H
	call	??$ResolveGameReference@I@@YAAAIHHH@Z	; ResolveGameReference<unsigned int>
	add	esp, 12					; 0000000cH
	mov	DWORD PTR ?GameMode@@3AAIA, eax		; GameMode
	pop	edi
	pop	esi
	pop	ebx
	mov	esp, ebp
	pop	ebp
	ret	0
??__EGameMode@@YAXXZ ENDP				; `dynamic initializer for 'GameMode''
text$yc	ENDS
; Function compile flags: /Odtp /ZI
; File x:\github\renegade\dragonade_rxd\scripts\defines.h
;	COMDAT ??$ResolveGameReference@I@@YAAAIHHH@Z
_TEXT	SEGMENT
tv68 = -76						; size = 4
tv69 = -72						; size = 4
tv70 = -68						; size = 4
_client$ = 8						; size = 4
_server$ = 12						; size = 4
_leveledit$ = 16					; size = 4
??$ResolveGameReference@I@@YAAAIHHH@Z PROC		; ResolveGameReference<unsigned int>, COMDAT

; 149  : {

	push	ebp
	mov	ebp, esp
	sub	esp, 76					; 0000004cH
	push	ebx
	push	esi
	push	edi

; 150  : 	if (Exe == 6) InitEngine();

	cmp	DWORD PTR ?Exe@@3HA, 6			; Exe
	jne	SHORT $LN1@ResolveGam
	call	?InitEngine@@YAXXZ			; InitEngine
$LN1@ResolveGam:

; 151  : #pragma warning(suppress: 6011) //warning C6011: dereferencing NULL pointer <name>
; 152  : 	return *((T*)((Exe == 0) ? client : ((Exe == 1) ? server : ((Exe == 4) ? leveledit : 0))));

	cmp	DWORD PTR ?Exe@@3HA, 0			; Exe
	jne	SHORT $LN8@ResolveGam
	mov	eax, DWORD PTR _client$[ebp]
	mov	DWORD PTR tv70[ebp], eax
	jmp	SHORT $LN9@ResolveGam
$LN8@ResolveGam:
	cmp	DWORD PTR ?Exe@@3HA, 1			; Exe
	jne	SHORT $LN6@ResolveGam
	mov	ecx, DWORD PTR _server$[ebp]
	mov	DWORD PTR tv69[ebp], ecx
	jmp	SHORT $LN7@ResolveGam
$LN6@ResolveGam:
	cmp	DWORD PTR ?Exe@@3HA, 4			; Exe
	jne	SHORT $LN4@ResolveGam
	mov	edx, DWORD PTR _leveledit$[ebp]
	mov	DWORD PTR tv68[ebp], edx
	jmp	SHORT $LN5@ResolveGam
$LN4@ResolveGam:
	mov	DWORD PTR tv68[ebp], 0
$LN5@ResolveGam:
	mov	eax, DWORD PTR tv68[ebp]
	mov	DWORD PTR tv69[ebp], eax
$LN7@ResolveGam:
	mov	ecx, DWORD PTR tv69[ebp]
	mov	DWORD PTR tv70[ebp], ecx
$LN9@ResolveGam:
	mov	eax, DWORD PTR tv70[ebp]

; 153  : };

	pop	edi
	pop	esi
	pop	ebx
	mov	esp, ebp
	pop	ebp
	ret	0
??$ResolveGameReference@I@@YAAAIHHH@Z ENDP		; ResolveGameReference<unsigned int>
_TEXT	ENDS
; Function compile flags: /Odtp /ZI
; File x:\github\renegade\dragonade_rxd\scripts\engine_game.cpp
;	COMDAT ??__EIsListed@@YAXXZ
text$yc	SEGMENT
??__EIsListed@@YAXXZ PROC				; `dynamic initializer for 'IsListed'', COMDAT

; 131  : REF_DEF2(bool, IsListed, 0x0082FD94, 0x0082EF7C);

	push	ebp
	mov	ebp, esp
	sub	esp, 64					; 00000040H
	push	ebx
	push	esi
	push	edi
	push	0
	push	8580988					; 0082ef7cH
	push	8584596					; 0082fd94H
	call	??$ResolveGameReference@_N@@YAAA_NHHH@Z	; ResolveGameReference<bool>
	add	esp, 12					; 0000000cH
	mov	DWORD PTR ?IsListed@@3AA_NA, eax	; IsListed
	pop	edi
	pop	esi
	pop	ebx
	mov	esp, ebp
	pop	ebp
	ret	0
??__EIsListed@@YAXXZ ENDP				; `dynamic initializer for 'IsListed''
text$yc	ENDS
; Function compile flags: /Odtp /ZI
; File x:\github\renegade\dragonade_rxd\scripts\engine_game.cpp
;	COMDAT ??__EIsMapVTOL@@YAXXZ
text$yc	SEGMENT
??__EIsMapVTOL@@YAXXZ PROC				; `dynamic initializer for 'IsMapVTOL'', COMDAT

; 130  : REF_DEF2(bool, IsMapVTOL, 0x0085E31C, 0x0085D4F4);

	push	ebp
	mov	ebp, esp
	sub	esp, 64					; 00000040H
	push	ebx
	push	esi
	push	edi
	push	0
	push	8770804					; 0085d4f4H
	push	8774428					; 0085e31cH
	call	??$ResolveGameReference@_N@@YAAA_NHHH@Z	; ResolveGameReference<bool>
	add	esp, 12					; 0000000cH
	mov	DWORD PTR ?IsMapVTOL@@3AA_NA, eax	; IsMapVTOL
	pop	edi
	pop	esi
	pop	ebx
	mov	esp, ebp
	pop	ebp
	ret	0
??__EIsMapVTOL@@YAXXZ ENDP				; `dynamic initializer for 'IsMapVTOL''
text$yc	ENDS
; Function compile flags: /Odtp /ZI
; File x:\github\renegade\dragonade_rxd\scripts\engine_game.cpp
;	COMDAT ??__ENodHouseColor@@YAXXZ
text$yc	SEGMENT
??__ENodHouseColor@@YAXXZ PROC				; `dynamic initializer for 'NodHouseColor'', COMDAT

; 129  : REF_DEF2(Vector3, NodHouseColor, 0x0085CA98, 0x0085BC80);

	push	ebp
	mov	ebp, esp
	sub	esp, 64					; 00000040H
	push	ebx
	push	esi
	push	edi
	push	0
	push	8764544					; 0085bc80H
	push	8768152					; 0085ca98H
	call	??$ResolveGameReference@VVector3@@@@YAAAVVector3@@HHH@Z ; ResolveGameReference<Vector3>
	add	esp, 12					; 0000000cH
	mov	DWORD PTR ?NodHouseColor@@3AAVVector3@@A, eax ; NodHouseColor
	pop	edi
	pop	esi
	pop	ebx
	mov	esp, ebp
	pop	ebp
	ret	0
??__ENodHouseColor@@YAXXZ ENDP				; `dynamic initializer for 'NodHouseColor''
text$yc	ENDS
; Function compile flags: /Odtp /ZI
; File x:\github\renegade\dragonade_rxd\scripts\engine_game.cpp
;	COMDAT ??__EGDIHouseColor@@YAXXZ
text$yc	SEGMENT
??__EGDIHouseColor@@YAXXZ PROC				; `dynamic initializer for 'GDIHouseColor'', COMDAT

; 128  : REF_DEF2(Vector3, GDIHouseColor, 0x0085CAA8, 0x0085BC90);

	push	ebp
	mov	ebp, esp
	sub	esp, 64					; 00000040H
	push	ebx
	push	esi
	push	edi
	push	0
	push	8764560					; 0085bc90H
	push	8768168					; 0085caa8H
	call	??$ResolveGameReference@VVector3@@@@YAAAVVector3@@HHH@Z ; ResolveGameReference<Vector3>
	add	esp, 12					; 0000000cH
	mov	DWORD PTR ?GDIHouseColor@@3AAVVector3@@A, eax ; GDIHouseColor
	pop	edi
	pop	esi
	pop	ebx
	mov	esp, ebp
	pop	ebp
	ret	0
??__EGDIHouseColor@@YAXXZ ENDP				; `dynamic initializer for 'GDIHouseColor''
text$yc	ENDS
; Function compile flags: /Odtp /ZI
; File x:\github\renegade\dragonade_rxd\scripts\engine_game.cpp
;	COMDAT ??__EPublicMessageColor@@YAXXZ
text$yc	SEGMENT
??__EPublicMessageColor@@YAXXZ PROC			; `dynamic initializer for 'PublicMessageColor'', COMDAT

; 127  : REF_DEF2(Vector3, PublicMessageColor, 0x0082FBA0, 0x0082ED88);

	push	ebp
	mov	ebp, esp
	sub	esp, 64					; 00000040H
	push	ebx
	push	esi
	push	edi
	push	0
	push	8580488					; 0082ed88H
	push	8584096					; 0082fba0H
	call	??$ResolveGameReference@VVector3@@@@YAAAVVector3@@HHH@Z ; ResolveGameReference<Vector3>
	add	esp, 12					; 0000000cH
	mov	DWORD PTR ?PublicMessageColor@@3AAVVector3@@A, eax ; PublicMessageColor
	pop	edi
	pop	esi
	pop	ebx
	mov	esp, ebp
	pop	ebp
	ret	0
??__EPublicMessageColor@@YAXXZ ENDP			; `dynamic initializer for 'PublicMessageColor''
text$yc	ENDS
; Function compile flags: /Odtp /ZI
; File x:\github\renegade\dragonade_rxd\scripts\engine_game.cpp
;	COMDAT ??__EPrivateMessageColor@@YAXXZ
text$yc	SEGMENT
??__EPrivateMessageColor@@YAXXZ PROC			; `dynamic initializer for 'PrivateMessageColor'', COMDAT

; 126  : REF_DEF2(Vector3, PrivateMessageColor, 0x0082FC20, 0x0082EE08);

	push	ebp
	mov	ebp, esp
	sub	esp, 64					; 00000040H
	push	ebx
	push	esi
	push	edi
	push	0
	push	8580616					; 0082ee08H
	push	8584224					; 0082fc20H
	call	??$ResolveGameReference@VVector3@@@@YAAAVVector3@@HHH@Z ; ResolveGameReference<Vector3>
	add	esp, 12					; 0000000cH
	mov	DWORD PTR ?PrivateMessageColor@@3AAVVector3@@A, eax ; PrivateMessageColor
	pop	edi
	pop	esi
	pop	ebx
	mov	esp, ebp
	pop	ebp
	ret	0
??__EPrivateMessageColor@@YAXXZ ENDP			; `dynamic initializer for 'PrivateMessageColor''
text$yc	ENDS
; Function compile flags: /Odtp /ZI
; File x:\github\renegade\dragonade_rxd\scripts\defines.h
;	COMDAT ??$ResolveGameReference@VVector3@@@@YAAAVVector3@@HHH@Z
_TEXT	SEGMENT
tv68 = -76						; size = 4
tv69 = -72						; size = 4
tv70 = -68						; size = 4
_client$ = 8						; size = 4
_server$ = 12						; size = 4
_leveledit$ = 16					; size = 4
??$ResolveGameReference@VVector3@@@@YAAAVVector3@@HHH@Z PROC ; ResolveGameReference<Vector3>, COMDAT

; 149  : {

	push	ebp
	mov	ebp, esp
	sub	esp, 76					; 0000004cH
	push	ebx
	push	esi
	push	edi

; 150  : 	if (Exe == 6) InitEngine();

	cmp	DWORD PTR ?Exe@@3HA, 6			; Exe
	jne	SHORT $LN1@ResolveGam
	call	?InitEngine@@YAXXZ			; InitEngine
$LN1@ResolveGam:

; 151  : #pragma warning(suppress: 6011) //warning C6011: dereferencing NULL pointer <name>
; 152  : 	return *((T*)((Exe == 0) ? client : ((Exe == 1) ? server : ((Exe == 4) ? leveledit : 0))));

	cmp	DWORD PTR ?Exe@@3HA, 0			; Exe
	jne	SHORT $LN8@ResolveGam
	mov	eax, DWORD PTR _client$[ebp]
	mov	DWORD PTR tv70[ebp], eax
	jmp	SHORT $LN9@ResolveGam
$LN8@ResolveGam:
	cmp	DWORD PTR ?Exe@@3HA, 1			; Exe
	jne	SHORT $LN6@ResolveGam
	mov	ecx, DWORD PTR _server$[ebp]
	mov	DWORD PTR tv69[ebp], ecx
	jmp	SHORT $LN7@ResolveGam
$LN6@ResolveGam:
	cmp	DWORD PTR ?Exe@@3HA, 4			; Exe
	jne	SHORT $LN4@ResolveGam
	mov	edx, DWORD PTR _leveledit$[ebp]
	mov	DWORD PTR tv68[ebp], edx
	jmp	SHORT $LN5@ResolveGam
$LN4@ResolveGam:
	mov	DWORD PTR tv68[ebp], 0
$LN5@ResolveGam:
	mov	eax, DWORD PTR tv68[ebp]
	mov	DWORD PTR tv69[ebp], eax
$LN7@ResolveGam:
	mov	ecx, DWORD PTR tv69[ebp]
	mov	DWORD PTR tv70[ebp], ecx
$LN9@ResolveGam:
	mov	eax, DWORD PTR tv70[ebp]

; 153  : };

	pop	edi
	pop	esi
	pop	ebx
	mov	esp, ebp
	pop	ebp
	ret	0
??$ResolveGameReference@VVector3@@@@YAAAVVector3@@HHH@Z ENDP ; ResolveGameReference<Vector3>
_TEXT	ENDS
; Function compile flags: /Odtp /ZI
; File x:\github\renegade\dragonade_rxd\scripts\engine_game.cpp
;	COMDAT ??__E?WinText@cGameData@@2AAVWideStringClass@@A@@YAXXZ
text$yc	SEGMENT
??__E?WinText@cGameData@@2AAVWideStringClass@@A@@YAXXZ PROC ; `dynamic initializer for 'cGameData::WinText'', COMDAT

; 125  : REF_DEF2(WideStringClass, cGameData::WinText, 0x0082F108, 0x0082E2F0);

	push	ebp
	mov	ebp, esp
	sub	esp, 64					; 00000040H
	push	ebx
	push	esi
	push	edi
	push	0
	push	8577776					; 0082e2f0H
	push	8581384					; 0082f108H
	call	??$ResolveGameReference@VWideStringClass@@@@YAAAVWideStringClass@@HHH@Z ; ResolveGameReference<WideStringClass>
	add	esp, 12					; 0000000cH
	mov	DWORD PTR ?WinText@cGameData@@2AAVWideStringClass@@A, eax ; cGameData::WinText
	pop	edi
	pop	esi
	pop	ebx
	mov	esp, ebp
	pop	ebp
	ret	0
??__E?WinText@cGameData@@2AAVWideStringClass@@A@@YAXXZ ENDP ; `dynamic initializer for 'cGameData::WinText''
text$yc	ENDS
; Function compile flags: /Odtp /ZI
; File x:\github\renegade\dragonade_rxd\scripts\defines.h
;	COMDAT ??$ResolveGameReference@VWideStringClass@@@@YAAAVWideStringClass@@HHH@Z
_TEXT	SEGMENT
tv68 = -76						; size = 4
tv69 = -72						; size = 4
tv70 = -68						; size = 4
_client$ = 8						; size = 4
_server$ = 12						; size = 4
_leveledit$ = 16					; size = 4
??$ResolveGameReference@VWideStringClass@@@@YAAAVWideStringClass@@HHH@Z PROC ; ResolveGameReference<WideStringClass>, COMDAT

; 149  : {

	push	ebp
	mov	ebp, esp
	sub	esp, 76					; 0000004cH
	push	ebx
	push	esi
	push	edi

; 150  : 	if (Exe == 6) InitEngine();

	cmp	DWORD PTR ?Exe@@3HA, 6			; Exe
	jne	SHORT $LN1@ResolveGam
	call	?InitEngine@@YAXXZ			; InitEngine
$LN1@ResolveGam:

; 151  : #pragma warning(suppress: 6011) //warning C6011: dereferencing NULL pointer <name>
; 152  : 	return *((T*)((Exe == 0) ? client : ((Exe == 1) ? server : ((Exe == 4) ? leveledit : 0))));

	cmp	DWORD PTR ?Exe@@3HA, 0			; Exe
	jne	SHORT $LN8@ResolveGam
	mov	eax, DWORD PTR _client$[ebp]
	mov	DWORD PTR tv70[ebp], eax
	jmp	SHORT $LN9@ResolveGam
$LN8@ResolveGam:
	cmp	DWORD PTR ?Exe@@3HA, 1			; Exe
	jne	SHORT $LN6@ResolveGam
	mov	ecx, DWORD PTR _server$[ebp]
	mov	DWORD PTR tv69[ebp], ecx
	jmp	SHORT $LN7@ResolveGam
$LN6@ResolveGam:
	cmp	DWORD PTR ?Exe@@3HA, 4			; Exe
	jne	SHORT $LN4@ResolveGam
	mov	edx, DWORD PTR _leveledit$[ebp]
	mov	DWORD PTR tv68[ebp], edx
	jmp	SHORT $LN5@ResolveGam
$LN4@ResolveGam:
	mov	DWORD PTR tv68[ebp], 0
$LN5@ResolveGam:
	mov	eax, DWORD PTR tv68[ebp]
	mov	DWORD PTR tv69[ebp], eax
$LN7@ResolveGam:
	mov	ecx, DWORD PTR tv69[ebp]
	mov	DWORD PTR tv70[ebp], ecx
$LN9@ResolveGam:
	mov	eax, DWORD PTR tv70[ebp]

; 153  : };

	pop	edi
	pop	esi
	pop	ebx
	mov	esp, ebp
	pop	ebp
	ret	0
??$ResolveGameReference@VWideStringClass@@@@YAAAVWideStringClass@@HHH@Z ENDP ; ResolveGameReference<WideStringClass>
_TEXT	ENDS
; Function compile flags: /Odtp /ZI
; File x:\github\renegade\dragonade_rxd\scripts\engine_game.cpp
;	COMDAT ??__E?HostedGameNumber@cGameData@@2AAHA@@YAXXZ
text$yc	SEGMENT
??__E?HostedGameNumber@cGameData@@2AAHA@@YAXXZ PROC	; `dynamic initializer for 'cGameData::HostedGameNumber'', COMDAT

; 124  : REF_DEF2(int, cGameData::HostedGameNumber, 0x0082F120, 0x0082E308);

	push	ebp
	mov	ebp, esp
	sub	esp, 64					; 00000040H
	push	ebx
	push	esi
	push	edi
	push	0
	push	8577800					; 0082e308H
	push	8581408					; 0082f120H
	call	??$ResolveGameReference@H@@YAAAHHHH@Z	; ResolveGameReference<int>
	add	esp, 12					; 0000000cH
	mov	DWORD PTR ?HostedGameNumber@cGameData@@2AAHA, eax ; cGameData::HostedGameNumber
	pop	edi
	pop	esi
	pop	ebx
	mov	esp, ebp
	pop	ebp
	ret	0
??__E?HostedGameNumber@cGameData@@2AAHA@@YAXXZ ENDP	; `dynamic initializer for 'cGameData::HostedGameNumber''
text$yc	ENDS
; Function compile flags: /Odtp /ZI
; File x:\github\renegade\dragonade_rxd\scripts\defines.h
;	COMDAT ??$ResolveGameReference@H@@YAAAHHHH@Z
_TEXT	SEGMENT
tv68 = -76						; size = 4
tv69 = -72						; size = 4
tv70 = -68						; size = 4
_client$ = 8						; size = 4
_server$ = 12						; size = 4
_leveledit$ = 16					; size = 4
??$ResolveGameReference@H@@YAAAHHHH@Z PROC		; ResolveGameReference<int>, COMDAT

; 149  : {

	push	ebp
	mov	ebp, esp
	sub	esp, 76					; 0000004cH
	push	ebx
	push	esi
	push	edi

; 150  : 	if (Exe == 6) InitEngine();

	cmp	DWORD PTR ?Exe@@3HA, 6			; Exe
	jne	SHORT $LN1@ResolveGam
	call	?InitEngine@@YAXXZ			; InitEngine
$LN1@ResolveGam:

; 151  : #pragma warning(suppress: 6011) //warning C6011: dereferencing NULL pointer <name>
; 152  : 	return *((T*)((Exe == 0) ? client : ((Exe == 1) ? server : ((Exe == 4) ? leveledit : 0))));

	cmp	DWORD PTR ?Exe@@3HA, 0			; Exe
	jne	SHORT $LN8@ResolveGam
	mov	eax, DWORD PTR _client$[ebp]
	mov	DWORD PTR tv70[ebp], eax
	jmp	SHORT $LN9@ResolveGam
$LN8@ResolveGam:
	cmp	DWORD PTR ?Exe@@3HA, 1			; Exe
	jne	SHORT $LN6@ResolveGam
	mov	ecx, DWORD PTR _server$[ebp]
	mov	DWORD PTR tv69[ebp], ecx
	jmp	SHORT $LN7@ResolveGam
$LN6@ResolveGam:
	cmp	DWORD PTR ?Exe@@3HA, 4			; Exe
	jne	SHORT $LN4@ResolveGam
	mov	edx, DWORD PTR _leveledit$[ebp]
	mov	DWORD PTR tv68[ebp], edx
	jmp	SHORT $LN5@ResolveGam
$LN4@ResolveGam:
	mov	DWORD PTR tv68[ebp], 0
$LN5@ResolveGam:
	mov	eax, DWORD PTR tv68[ebp]
	mov	DWORD PTR tv69[ebp], eax
$LN7@ResolveGam:
	mov	ecx, DWORD PTR tv69[ebp]
	mov	DWORD PTR tv70[ebp], ecx
$LN9@ResolveGam:
	mov	eax, DWORD PTR tv70[ebp]

; 153  : };

	pop	edi
	pop	esi
	pop	ebx
	mov	esp, ebp
	pop	ebp
	ret	0
??$ResolveGameReference@H@@YAAAHHHH@Z ENDP		; ResolveGameReference<int>
_TEXT	ENDS
; Function compile flags: /Odtp /ZI
; File x:\github\renegade\dragonade_rxd\scripts\engine_game.cpp
;	COMDAT ?Game_Mode_Find@@YAPAXPBD@Z
_TEXT	SEGMENT
___formal$ = 8						; size = 4
?Game_Mode_Find@@YAPAXPBD@Z PROC			; Game_Mode_Find, COMDAT

; 31   : AT2(0x004372B0,0x00437350);

$AT3PatchStart$3:
	push	ecx
	push	edx
	push	OFFSET $AT3PatchStart$3
	push	0
	push	4420432					; 00437350H
	push	4420272					; 004372b0H
	call	?HookupAT3@@YAPAXPAX000@Z		; HookupAT3
	add	esp, 16					; 00000010H
	pop	edx
	pop	ecx
	jmp	eax
?Game_Mode_Find@@YAPAXPBD@Z ENDP			; Game_Mode_Find
_TEXT	ENDS
; Function compile flags: /Odtp /ZI
; File x:\github\renegade\dragonade_rxd\scripts\engine_game.cpp
;	COMDAT ??__E?IAmServer@CombatManager@@2AA_NA@@YAXXZ
text$yc	SEGMENT
??__E?IAmServer@CombatManager@@2AA_NA@@YAXXZ PROC	; `dynamic initializer for 'CombatManager::IAmServer'', COMDAT

; 28   : REF_DEF2(bool, CombatManager::IAmServer, 0x00855EC8, 0x008550B0);

	push	ebp
	mov	ebp, esp
	sub	esp, 64					; 00000040H
	push	ebx
	push	esi
	push	edi
	push	0
	push	8736944					; 008550b0H
	push	8740552					; 00855ec8H
	call	??$ResolveGameReference@_N@@YAAA_NHHH@Z	; ResolveGameReference<bool>
	add	esp, 12					; 0000000cH
	mov	DWORD PTR ?IAmServer@CombatManager@@2AA_NA, eax ; CombatManager::IAmServer
	pop	edi
	pop	esi
	pop	ebx
	mov	esp, ebp
	pop	ebp
	ret	0
??__E?IAmServer@CombatManager@@2AA_NA@@YAXXZ ENDP	; `dynamic initializer for 'CombatManager::IAmServer''
text$yc	ENDS
; Function compile flags: /Odtp /ZI
; File x:\github\renegade\dragonade_rxd\scripts\defines.h
;	COMDAT ??$ResolveGameReference@_N@@YAAA_NHHH@Z
_TEXT	SEGMENT
tv68 = -76						; size = 4
tv69 = -72						; size = 4
tv70 = -68						; size = 4
_client$ = 8						; size = 4
_server$ = 12						; size = 4
_leveledit$ = 16					; size = 4
??$ResolveGameReference@_N@@YAAA_NHHH@Z PROC		; ResolveGameReference<bool>, COMDAT

; 149  : {

	push	ebp
	mov	ebp, esp
	sub	esp, 76					; 0000004cH
	push	ebx
	push	esi
	push	edi

; 150  : 	if (Exe == 6) InitEngine();

	cmp	DWORD PTR ?Exe@@3HA, 6			; Exe
	jne	SHORT $LN1@ResolveGam
	call	?InitEngine@@YAXXZ			; InitEngine
$LN1@ResolveGam:

; 151  : #pragma warning(suppress: 6011) //warning C6011: dereferencing NULL pointer <name>
; 152  : 	return *((T*)((Exe == 0) ? client : ((Exe == 1) ? server : ((Exe == 4) ? leveledit : 0))));

	cmp	DWORD PTR ?Exe@@3HA, 0			; Exe
	jne	SHORT $LN8@ResolveGam
	mov	eax, DWORD PTR _client$[ebp]
	mov	DWORD PTR tv70[ebp], eax
	jmp	SHORT $LN9@ResolveGam
$LN8@ResolveGam:
	cmp	DWORD PTR ?Exe@@3HA, 1			; Exe
	jne	SHORT $LN6@ResolveGam
	mov	ecx, DWORD PTR _server$[ebp]
	mov	DWORD PTR tv69[ebp], ecx
	jmp	SHORT $LN7@ResolveGam
$LN6@ResolveGam:
	cmp	DWORD PTR ?Exe@@3HA, 4			; Exe
	jne	SHORT $LN4@ResolveGam
	mov	edx, DWORD PTR _leveledit$[ebp]
	mov	DWORD PTR tv68[ebp], edx
	jmp	SHORT $LN5@ResolveGam
$LN4@ResolveGam:
	mov	DWORD PTR tv68[ebp], 0
$LN5@ResolveGam:
	mov	eax, DWORD PTR tv68[ebp]
	mov	DWORD PTR tv69[ebp], eax
$LN7@ResolveGam:
	mov	ecx, DWORD PTR tv69[ebp]
	mov	DWORD PTR tv70[ebp], ecx
$LN9@ResolveGam:
	mov	eax, DWORD PTR tv70[ebp]

; 153  : };

	pop	edi
	pop	esi
	pop	ebx
	mov	esp, ebp
	pop	ebp
	ret	0
??$ResolveGameReference@_N@@YAAA_NHHH@Z ENDP		; ResolveGameReference<bool>
_TEXT	ENDS
; Function compile flags: /Odtp /ZI
; File x:\github\renegade\dragonade_rxd\scripts\combatmanager.h
;	COMDAT ?Is_Friendly_Fire_Permitted@CombatManager@@SA_NXZ
_TEXT	SEGMENT
?Is_Friendly_Fire_Permitted@CombatManager@@SA_NXZ PROC	; CombatManager::Is_Friendly_Fire_Permitted, COMDAT

; 90   : 	SCRIPTS_API static bool Is_Friendly_Fire_Permitted( void ) { return FriendlyFirePermitted; }

	push	ebp
	mov	ebp, esp
	sub	esp, 64					; 00000040H
	push	ebx
	push	esi
	push	edi
	mov	eax, DWORD PTR ?FriendlyFirePermitted@CombatManager@@2AA_NA ; CombatManager::FriendlyFirePermitted
	mov	al, BYTE PTR [eax]
	pop	edi
	pop	esi
	pop	ebx
	mov	esp, ebp
	pop	ebp
	ret	0
?Is_Friendly_Fire_Permitted@CombatManager@@SA_NXZ ENDP	; CombatManager::Is_Friendly_Fire_Permitted
_TEXT	ENDS
; Function compile flags: /Odtp /ZI
; File x:\github\renegade\dragonade_rxd\scripts\combatmanager.h
;	COMDAT ?Set_Friendly_Fire_Permitted@CombatManager@@SAX_N@Z
_TEXT	SEGMENT
_yes$ = 8						; size = 1
?Set_Friendly_Fire_Permitted@CombatManager@@SAX_N@Z PROC ; CombatManager::Set_Friendly_Fire_Permitted, COMDAT

; 89   : 	SCRIPTS_API static void Set_Friendly_Fire_Permitted( bool yes ) { FriendlyFirePermitted = yes; }

	push	ebp
	mov	ebp, esp
	sub	esp, 64					; 00000040H
	push	ebx
	push	esi
	push	edi
	mov	eax, DWORD PTR ?FriendlyFirePermitted@CombatManager@@2AA_NA ; CombatManager::FriendlyFirePermitted
	mov	cl, BYTE PTR _yes$[ebp]
	mov	BYTE PTR [eax], cl
	pop	edi
	pop	esi
	pop	ebx
	mov	esp, ebp
	pop	ebp
	ret	0
?Set_Friendly_Fire_Permitted@CombatManager@@SAX_N@Z ENDP ; CombatManager::Set_Friendly_Fire_Permitted
_TEXT	ENDS
; Function compile flags: /Odtp /ZI
; File x:\github\renegade\dragonade_rxd\scripts\combatmanager.h
;	COMDAT ?I_Am_Server@CombatManager@@SA_NXZ
_TEXT	SEGMENT
?I_Am_Server@CombatManager@@SA_NXZ PROC			; CombatManager::I_Am_Server, COMDAT

; 81   : 	static bool I_Am_Server() { return IAmServer; }

	push	ebp
	mov	ebp, esp
	sub	esp, 64					; 00000040H
	push	ebx
	push	esi
	push	edi
	mov	eax, DWORD PTR ?IAmServer@CombatManager@@2AA_NA ; CombatManager::IAmServer
	mov	al, BYTE PTR [eax]
	pop	edi
	pop	esi
	pop	ebx
	mov	esp, ebp
	pop	ebp
	ret	0
?I_Am_Server@CombatManager@@SA_NXZ ENDP			; CombatManager::I_Am_Server
_TEXT	ENDS
; Function compile flags: /Odtp /ZI
;	COMDAT ??4ArmorWarheadManager@@QAEAAV0@ABV0@@Z
_TEXT	SEGMENT
_this$ = -4						; size = 4
___that$ = 8						; size = 4
??4ArmorWarheadManager@@QAEAAV0@ABV0@@Z PROC		; ArmorWarheadManager::operator=, COMDAT
; _this$ = ecx
	push	ebp
	mov	ebp, esp
	sub	esp, 68					; 00000044H
	push	ebx
	push	esi
	push	edi
	mov	DWORD PTR _this$[ebp], ecx
	mov	eax, DWORD PTR _this$[ebp]
	pop	edi
	pop	esi
	pop	ebx
	mov	esp, ebp
	pop	ebp
	ret	4
??4ArmorWarheadManager@@QAEAAV0@ABV0@@Z ENDP		; ArmorWarheadManager::operator=
_TEXT	ENDS
; Function compile flags: /Odtp /ZI
; File x:\github\renegade\dragonade_rxd\scripts\vehiclegameobjdef.h
;	COMDAT ?Get_Build_At_Ground@VehicleGameObjDef@@QBE_NXZ
_TEXT	SEGMENT
_this$ = -4						; size = 4
?Get_Build_At_Ground@VehicleGameObjDef@@QBE_NXZ PROC	; VehicleGameObjDef::Get_Build_At_Ground, COMDAT
; _this$ = ecx

; 62   : 	bool Get_Build_At_Ground() const {return BuildAtGround;}

	push	ebp
	mov	ebp, esp
	sub	esp, 68					; 00000044H
	push	ebx
	push	esi
	push	edi
	mov	DWORD PTR _this$[ebp], ecx
	mov	eax, DWORD PTR _this$[ebp]
	mov	al, BYTE PTR [eax+326]
	pop	edi
	pop	esi
	pop	ebx
	mov	esp, ebp
	pop	ebp
	ret	0
?Get_Build_At_Ground@VehicleGameObjDef@@QBE_NXZ ENDP	; VehicleGameObjDef::Get_Build_At_Ground
_TEXT	ENDS
; Function compile flags: /Odtp /ZI
; File x:\github\renegade\dragonade_rxd\scripts\vehiclegameobjdef.h
;	COMDAT ?Get_Type@VehicleGameObjDef@@QBE?AW4VehicleType@@XZ
_TEXT	SEGMENT
_this$ = -4						; size = 4
?Get_Type@VehicleGameObjDef@@QBE?AW4VehicleType@@XZ PROC ; VehicleGameObjDef::Get_Type, COMDAT
; _this$ = ecx

; 59   : 	VehicleType Get_Type() const {return Type;}

	push	ebp
	mov	ebp, esp
	sub	esp, 68					; 00000044H
	push	ebx
	push	esi
	push	edi
	mov	DWORD PTR _this$[ebp], ecx
	mov	eax, DWORD PTR _this$[ebp]
	mov	eax, DWORD PTR [eax+224]
	pop	edi
	pop	esi
	pop	ebx
	mov	esp, ebp
	pop	ebp
	ret	0
?Get_Type@VehicleGameObjDef@@QBE?AW4VehicleType@@XZ ENDP ; VehicleGameObjDef::Get_Type
_TEXT	ENDS
; Function compile flags: /Odtp /ZI
; File x:\github\renegade\dragonade_rxd\scripts\engine_game.cpp
;	COMDAT ?Get_Definition@SimpleGameObj@@QBEABVSimpleGameObjDef@@XZ
_TEXT	SEGMENT
_this$ = -4						; size = 4
?Get_Definition@SimpleGameObj@@QBEABVSimpleGameObjDef@@XZ PROC ; SimpleGameObj::Get_Definition, COMDAT
; _this$ = ecx

; 584  : {

	push	ebp
	mov	ebp, esp
	sub	esp, 68					; 00000044H
	push	ebx
	push	esi
	push	edi
	mov	DWORD PTR _this$[ebp], ecx

; 585  : 	return (const SimpleGameObjDef &)BaseGameObj::Get_Definition();

	mov	ecx, DWORD PTR _this$[ebp]
	call	?Get_Definition@BaseGameObj@@QBEABVBaseGameObjDef@@XZ ; BaseGameObj::Get_Definition

; 586  : }

	pop	edi
	pop	esi
	pop	ebx
	mov	esp, ebp
	pop	ebp
	ret	0
?Get_Definition@SimpleGameObj@@QBEABVSimpleGameObjDef@@XZ ENDP ; SimpleGameObj::Get_Definition
_TEXT	ENDS
; Function compile flags: /Odtp /ZI
; File x:\github\renegade\dragonade_rxd\scripts\slist.h
;	COMDAT ?Head@?$SList@VBuildingGameObj@@@@QBEPAV?$SLNode@VBuildingGameObj@@@@XZ
_TEXT	SEGMENT
_this$ = -4						; size = 4
?Head@?$SList@VBuildingGameObj@@@@QBEPAV?$SLNode@VBuildingGameObj@@@@XZ PROC ; SList<BuildingGameObj>::Head, COMDAT
; _this$ = ecx

; 313  : 	{

	push	ebp
	mov	ebp, esp
	sub	esp, 68					; 00000044H
	push	ebx
	push	esi
	push	edi
	mov	DWORD PTR _this$[ebp], ecx

; 314  : 		return HeadNode;

	mov	eax, DWORD PTR _this$[ebp]
	mov	eax, DWORD PTR [eax+4]

; 315  : 	}

	pop	edi
	pop	esi
	pop	ebx
	mov	esp, ebp
	pop	ebp
	ret	0
?Head@?$SList@VBuildingGameObj@@@@QBEPAV?$SLNode@VBuildingGameObj@@@@XZ ENDP ; SList<BuildingGameObj>::Head
_TEXT	ENDS
; Function compile flags: /Odtp /ZI
; File x:\github\renegade\dragonade_rxd\scripts\engine_game.cpp
;	COMDAT ?Destroy_Harvester@RefineryGameObj@@QAEXXZ
_TEXT	SEGMENT
_this$ = -4						; size = 4
?Destroy_Harvester@RefineryGameObj@@QAEXXZ PROC		; RefineryGameObj::Destroy_Harvester, COMDAT
; _this$ = ecx

; 289  : {

	push	ebp
	mov	ebp, esp
	sub	esp, 68					; 00000044H
	push	ebx
	push	esi
	push	edi
	mov	DWORD PTR _this$[ebp], ecx

; 290  : 	if (Get_Harvester_Vehicle())

	mov	ecx, DWORD PTR _this$[ebp]
	call	?Get_Harvester_Vehicle@RefineryGameObj@@QAEPAVVehicleGameObj@@XZ ; RefineryGameObj::Get_Harvester_Vehicle
	test	eax, eax
	je	SHORT $LN1@Destroy_Ha

; 291  : 	{
; 292  : 		Commands->Apply_Damage(Get_Harvester_Vehicle(),99999,"Death",0);

	push	0
	push	OFFSET ??_C@_05PGGAFPFO@Death?$AA@
	push	ecx
	movss	xmm0, DWORD PTR __real@47c34f80
	movss	DWORD PTR [esp], xmm0
	mov	ecx, DWORD PTR _this$[ebp]
	call	?Get_Harvester_Vehicle@RefineryGameObj@@QAEPAVVehicleGameObj@@XZ ; RefineryGameObj::Get_Harvester_Vehicle
	push	eax
	mov	eax, DWORD PTR ?Commands@@3PAUScriptCommands@@A ; Commands
	mov	ecx, DWORD PTR [eax+616]
	call	ecx
	add	esp, 16					; 00000010H
$LN1@Destroy_Ha:

; 293  : 	}
; 294  : }

	pop	edi
	pop	esi
	pop	ebx
	mov	esp, ebp
	pop	ebp
	ret	0
?Destroy_Harvester@RefineryGameObj@@QAEXXZ ENDP		; RefineryGameObj::Destroy_Harvester
_TEXT	ENDS
; Function compile flags: /Odtp /ZI
; File x:\github\renegade\dragonade_rxd\scripts\engine_game.cpp
;	COMDAT ?Get_Harvester_Vehicle@RefineryGameObj@@QAEPAVVehicleGameObj@@XZ
_TEXT	SEGMENT
tv76 = -72						; size = 4
_this$ = -4						; size = 4
?Get_Harvester_Vehicle@RefineryGameObj@@QAEPAVVehicleGameObj@@XZ PROC ; RefineryGameObj::Get_Harvester_Vehicle, COMDAT
; _this$ = ecx

; 298  : {

	push	ebp
	mov	ebp, esp
	sub	esp, 72					; 00000048H
	push	ebx
	push	esi
	push	edi
	mov	DWORD PTR _this$[ebp], ecx

; 299  : 	if (HarvesterVehicle.Get_Ptr()) 

	mov	ecx, DWORD PTR _this$[ebp]
	add	ecx, 2260				; 000008d4H
	call	?Get_Ptr@ReferencerClass@@QBEPAVScriptableGameObj@@XZ ; ReferencerClass::Get_Ptr
	test	eax, eax
	je	SHORT $LN1@Get_Harves

; 300  : 	{
; 301  : 		return HarvesterVehicle->As_VehicleGameObj();

	mov	ecx, DWORD PTR _this$[ebp]
	add	ecx, 2260				; 000008d4H
	call	??CReferencerClass@@QAEPAVScriptableGameObj@@XZ ; ReferencerClass::operator->
	mov	DWORD PTR tv76[ebp], eax
	mov	eax, DWORD PTR tv76[ebp]
	mov	edx, DWORD PTR [eax]
	mov	ecx, DWORD PTR tv76[ebp]
	mov	eax, DWORD PTR [edx+40]
	call	eax
	jmp	SHORT $LN2@Get_Harves
$LN1@Get_Harves:

; 302  : 	}
; 303  : 	return 0;

	xor	eax, eax
$LN2@Get_Harves:

; 304  : }

	pop	edi
	pop	esi
	pop	ebx
	mov	esp, ebp
	pop	ebp
	ret	0
?Get_Harvester_Vehicle@RefineryGameObj@@QAEPAVVehicleGameObj@@XZ ENDP ; RefineryGameObj::Get_Harvester_Vehicle
_TEXT	ENDS
; Function compile flags: /Odtp /ZI
; File x:\github\renegade\dragonade_rxd\scripts\refinerygameobj.h
;	COMDAT ?Get_Harvester_Def_ID@RefineryGameObj@@QBEHXZ
_TEXT	SEGMENT
_this$ = -4						; size = 4
?Get_Harvester_Def_ID@RefineryGameObj@@QBEHXZ PROC	; RefineryGameObj::Get_Harvester_Def_ID, COMDAT
; _this$ = ecx

; 39   : 	int					Get_Harvester_Def_ID (void) const	{ return Get_Definition ().HarvesterDefID; }

	push	ebp
	mov	ebp, esp
	sub	esp, 68					; 00000044H
	push	ebx
	push	esi
	push	edi
	mov	DWORD PTR _this$[ebp], ecx
	mov	ecx, DWORD PTR _this$[ebp]
	call	?Get_Definition@RefineryGameObj@@QBEABVRefineryGameObjDef@@XZ ; RefineryGameObj::Get_Definition
	mov	eax, DWORD PTR [eax+172]
	pop	edi
	pop	esi
	pop	ebx
	mov	esp, ebp
	pop	ebp
	ret	0
?Get_Harvester_Def_ID@RefineryGameObj@@QBEHXZ ENDP	; RefineryGameObj::Get_Harvester_Def_ID
_TEXT	ENDS
; Function compile flags: /Odtp /ZI
; File x:\github\renegade\dragonade_rxd\scripts\multilist.h
;	COMDAT ?Iterator@?$RefMultiListClass@VBuildingAggregateClass@@@@QBE?AV?$RefMultiListIterator@VBuildingAggregateClass@@@@XZ
_TEXT	SEGMENT
_this$ = -4						; size = 4
___$ReturnUdt$ = 8					; size = 4
?Iterator@?$RefMultiListClass@VBuildingAggregateClass@@@@QBE?AV?$RefMultiListIterator@VBuildingAggregateClass@@@@XZ PROC ; RefMultiListClass<BuildingAggregateClass>::Iterator, COMDAT
; _this$ = ecx

; 389  : {

	push	ebp
	mov	ebp, esp
	sub	esp, 68					; 00000044H
	push	ebx
	push	esi
	push	edi
	mov	DWORD PTR _this$[ebp], ecx

; 390  : 	return RefMultiListIterator<T>(this);

	mov	eax, DWORD PTR _this$[ebp]
	push	eax
	mov	ecx, DWORD PTR ___$ReturnUdt$[ebp]
	call	??0?$RefMultiListIterator@VBuildingAggregateClass@@@@QAE@PBV?$RefMultiListClass@VBuildingAggregateClass@@@@@Z ; RefMultiListIterator<BuildingAggregateClass>::RefMultiListIterator<BuildingAggregateClass>
	mov	eax, DWORD PTR ___$ReturnUdt$[ebp]

; 391  : };

	pop	edi
	pop	esi
	pop	ebx
	mov	esp, ebp
	pop	ebp
	ret	4
?Iterator@?$RefMultiListClass@VBuildingAggregateClass@@@@QBE?AV?$RefMultiListIterator@VBuildingAggregateClass@@@@XZ ENDP ; RefMultiListClass<BuildingAggregateClass>::Iterator
_TEXT	ENDS
; Function compile flags: /Odtp /ZI
; File x:\github\renegade\dragonade_rxd\scripts\engine_game.cpp
;	COMDAT ?Find_MCT@BuildingGameObj@@QAEPAVBuildingAggregateClass@@XZ
_TEXT	SEGMENT
_it$1 = -12						; size = 8
_this$ = -4						; size = 4
?Find_MCT@BuildingGameObj@@QAEPAVBuildingAggregateClass@@XZ PROC ; BuildingGameObj::Find_MCT, COMDAT
; _this$ = ecx

; 643  : {

	push	ebp
	mov	ebp, esp
	sub	esp, 76					; 0000004cH
	push	ebx
	push	esi
	push	edi
	mov	DWORD PTR _this$[ebp], ecx

; 644  : 	for (auto it = Aggregates.Iterator(); it; ++it)

	lea	eax, DWORD PTR _it$1[ebp]
	push	eax
	mov	ecx, DWORD PTR _this$[ebp]
	add	ecx, 2020				; 000007e4H
	call	?Iterator@?$RefMultiListClass@VBuildingAggregateClass@@@@QBE?AV?$RefMultiListIterator@VBuildingAggregateClass@@@@XZ ; RefMultiListClass<BuildingAggregateClass>::Iterator
	jmp	SHORT $LN4@Find_MCT
$LN3@Find_MCT:
	lea	ecx, DWORD PTR _it$1[ebp]
	call	??E?$RefMultiListIterator@VBuildingAggregateClass@@@@QAEXXZ ; RefMultiListIterator<BuildingAggregateClass>::operator++
$LN4@Find_MCT:
	lea	ecx, DWORD PTR _it$1[ebp]
	call	??B?$RefMultiListIterator@VBuildingAggregateClass@@@@QBE_NXZ ; RefMultiListIterator<BuildingAggregateClass>::operator bool
	movzx	eax, al
	test	eax, eax
	je	SHORT $LN2@Find_MCT

; 645  : 	{
; 646  : 		if (it->Is_MCT())

	lea	ecx, DWORD PTR _it$1[ebp]
	call	??C?$RefMultiListIterator@VBuildingAggregateClass@@@@QBEPAVBuildingAggregateClass@@XZ ; RefMultiListIterator<BuildingAggregateClass>::operator->
	mov	ecx, eax
	call	?Is_MCT@BuildingAggregateClass@@QAE_NXZ	; BuildingAggregateClass::Is_MCT
	movzx	eax, al
	test	eax, eax
	je	SHORT $LN1@Find_MCT

; 647  : 		{
; 648  : 			return it.Peek_Obj();

	lea	ecx, DWORD PTR _it$1[ebp]
	call	?Peek_Obj@?$RefMultiListIterator@VBuildingAggregateClass@@@@QBEPAVBuildingAggregateClass@@XZ ; RefMultiListIterator<BuildingAggregateClass>::Peek_Obj
	jmp	SHORT $LN5@Find_MCT
$LN1@Find_MCT:

; 649  : 		}
; 650  : 	}

	jmp	SHORT $LN3@Find_MCT
$LN2@Find_MCT:

; 651  : 	return 0;

	xor	eax, eax
$LN5@Find_MCT:

; 652  : }

	pop	edi
	pop	esi
	pop	ebx
	mov	esp, ebp
	pop	ebp
	ret	0
?Find_MCT@BuildingGameObj@@QAEPAVBuildingAggregateClass@@XZ ENDP ; BuildingGameObj::Find_MCT
_TEXT	ENDS
; Function compile flags: /Odtp /ZI
; File x:\github\renegade\dragonade_rxd\scripts\buildinggameobj.h
;	COMDAT ?Is_Destroyed@BuildingGameObj@@QBE_NXZ
_TEXT	SEGMENT
_this$ = -4						; size = 4
?Is_Destroyed@BuildingGameObj@@QBE_NXZ PROC		; BuildingGameObj::Is_Destroyed, COMDAT
; _this$ = ecx

; 86   : 	bool											Is_Destroyed (void) const { return IsDestroyed; }

	push	ebp
	mov	ebp, esp
	sub	esp, 68					; 00000044H
	push	ebx
	push	esi
	push	edi
	mov	DWORD PTR _this$[ebp], ecx
	mov	eax, DWORD PTR _this$[ebp]
	mov	al, BYTE PTR [eax+1912]
	pop	edi
	pop	esi
	pop	ebx
	mov	esp, ebp
	pop	ebp
	ret	0
?Is_Destroyed@BuildingGameObj@@QBE_NXZ ENDP		; BuildingGameObj::Is_Destroyed
_TEXT	ENDS
; Function compile flags: /Odtp /ZI
; File x:\github\renegade\dragonade_rxd\scripts\buildinggameobj.h
;	COMDAT ?Set_Position@BuildingGameObj@@QAEXABVVector3@@@Z
_TEXT	SEGMENT
_this$ = -4						; size = 4
_pos$ = 8						; size = 4
?Set_Position@BuildingGameObj@@QAEXABVVector3@@@Z PROC	; BuildingGameObj::Set_Position, COMDAT
; _this$ = ecx

; 62   : 	void											Set_Position(const Vector3 & pos)		{ Position = pos; CollectionSphere.Center = pos; }

	push	ebp
	mov	ebp, esp
	sub	esp, 68					; 00000044H
	push	ebx
	push	esi
	push	edi
	mov	DWORD PTR _this$[ebp], ecx
	mov	eax, DWORD PTR _pos$[ebp]
	push	eax
	mov	ecx, DWORD PTR _this$[ebp]
	add	ecx, 1916				; 0000077cH
	call	??4Vector3@@QAEAAV0@ABV0@@Z		; Vector3::operator=
	mov	eax, DWORD PTR _pos$[ebp]
	push	eax
	mov	ecx, DWORD PTR _this$[ebp]
	add	ecx, 1956				; 000007a4H
	call	??4Vector3@@QAEAAV0@ABV0@@Z		; Vector3::operator=
	pop	edi
	pop	esi
	pop	ebx
	mov	esp, ebp
	pop	ebp
	ret	4
?Set_Position@BuildingGameObj@@QAEXABVVector3@@@Z ENDP	; BuildingGameObj::Set_Position
_TEXT	ENDS
; Function compile flags: /Odtp /ZI
; File x:\github\renegade\dragonade_rxd\scripts\buildinggameobjdef.h
;	COMDAT ?Get_Type@BuildingGameObjDef@@QBE?AW4BuildingType@BuildingConstants@@XZ
_TEXT	SEGMENT
_this$ = -4						; size = 4
?Get_Type@BuildingGameObjDef@@QBE?AW4BuildingType@BuildingConstants@@XZ PROC ; BuildingGameObjDef::Get_Type, COMDAT
; _this$ = ecx

; 68   : 	BuildingConstants::BuildingType				Get_Type (void) const	{ return Type; }

	push	ebp
	mov	ebp, esp
	sub	esp, 68					; 00000044H
	push	ebx
	push	esi
	push	edi
	mov	DWORD PTR _this$[ebp], ecx
	mov	eax, DWORD PTR _this$[ebp]
	mov	eax, DWORD PTR [eax+140]
	pop	edi
	pop	esi
	pop	ebx
	mov	esp, ebp
	pop	ebp
	ret	0
?Get_Type@BuildingGameObjDef@@QBE?AW4BuildingType@BuildingConstants@@XZ ENDP ; BuildingGameObjDef::Get_Type
_TEXT	ENDS
; Function compile flags: /Odtp /ZI
; File x:\github\renegade\dragonade_rxd\scripts\coltest.h
;	COMDAT ?Cull@OBBoxCollisionTestClass@@QAE_NABVVector3@@0@Z
_TEXT	SEGMENT
_this$ = -4						; size = 4
_min$ = 8						; size = 4
_max$ = 12						; size = 4
?Cull@OBBoxCollisionTestClass@@QAE_NABVVector3@@0@Z PROC ; OBBoxCollisionTestClass::Cull, COMDAT
; _this$ = ecx

; 148  : {

	push	ebp
	mov	ebp, esp
	sub	esp, 68					; 00000044H
	push	ebx
	push	esi
	push	edi
	mov	DWORD PTR _this$[ebp], ecx

; 149  : 	if ((SweepMin.X > max.X) || (SweepMax.X < min.X))

	mov	eax, DWORD PTR _this$[ebp]
	mov	ecx, DWORD PTR _max$[ebp]
	movss	xmm0, DWORD PTR [eax+84]
	comiss	xmm0, DWORD PTR [ecx]
	ja	SHORT $LN5@Cull
	mov	eax, DWORD PTR _min$[ebp]
	mov	ecx, DWORD PTR _this$[ebp]
	movss	xmm0, DWORD PTR [eax]
	comiss	xmm0, DWORD PTR [ecx+96]
	jbe	SHORT $LN6@Cull
$LN5@Cull:

; 150  : 	{
; 151  : 		return true;

	mov	al, 1
	jmp	SHORT $LN7@Cull
$LN6@Cull:

; 152  : 	}
; 153  : 	if ((SweepMin.Y > max.Y) || (SweepMax.Y < min.Y))

	mov	eax, DWORD PTR _this$[ebp]
	mov	ecx, DWORD PTR _max$[ebp]
	movss	xmm0, DWORD PTR [eax+88]
	comiss	xmm0, DWORD PTR [ecx+4]
	ja	SHORT $LN3@Cull
	mov	eax, DWORD PTR _min$[ebp]
	mov	ecx, DWORD PTR _this$[ebp]
	movss	xmm0, DWORD PTR [eax+4]
	comiss	xmm0, DWORD PTR [ecx+100]
	jbe	SHORT $LN4@Cull
$LN3@Cull:

; 154  : 	{
; 155  : 		return true;

	mov	al, 1
	jmp	SHORT $LN7@Cull
$LN4@Cull:

; 156  : 	}
; 157  : 	if ((SweepMin.Z > max.Z) || (SweepMax.Z < min.Z))

	mov	eax, DWORD PTR _this$[ebp]
	mov	ecx, DWORD PTR _max$[ebp]
	movss	xmm0, DWORD PTR [eax+92]
	comiss	xmm0, DWORD PTR [ecx+8]
	ja	SHORT $LN1@Cull
	mov	eax, DWORD PTR _min$[ebp]
	mov	ecx, DWORD PTR _this$[ebp]
	movss	xmm0, DWORD PTR [eax+8]
	comiss	xmm0, DWORD PTR [ecx+104]
	jbe	SHORT $LN2@Cull
$LN1@Cull:

; 158  : 	{
; 159  : 		return true;

	mov	al, 1
	jmp	SHORT $LN7@Cull
$LN2@Cull:

; 160  : 	}
; 161  : 	return false;

	xor	al, al
$LN7@Cull:

; 162  : }

	pop	edi
	pop	esi
	pop	ebx
	mov	esp, ebp
	pop	ebp
	ret	8
?Cull@OBBoxCollisionTestClass@@QAE_NABVVector3@@0@Z ENDP ; OBBoxCollisionTestClass::Cull
_TEXT	ENDS
; Function compile flags: /Odtp /ZI
; File x:\github\renegade\dragonade_rxd\scripts\coltest.h
;	COMDAT ?Translate@AABoxCollisionTestClass@@QAEXABVVector3@@@Z
_TEXT	SEGMENT
_this$ = -4						; size = 4
_translation$ = 8					; size = 4
?Translate@AABoxCollisionTestClass@@QAEXABVVector3@@@Z PROC ; AABoxCollisionTestClass::Translate, COMDAT
; _this$ = ecx

; 106  : {

	push	ebp
	mov	ebp, esp
	sub	esp, 68					; 00000044H
	push	ebx
	push	esi
	push	edi
	mov	DWORD PTR _this$[ebp], ecx

; 107  : 	Box.Center += translation;

	mov	eax, DWORD PTR _translation$[ebp]
	push	eax
	mov	ecx, DWORD PTR _this$[ebp]
	add	ecx, 12					; 0000000cH
	call	??YVector3@@QAEAAV0@ABV0@@Z		; Vector3::operator+=

; 108  : 	SweepMin += translation;

	mov	eax, DWORD PTR _translation$[ebp]
	push	eax
	mov	ecx, DWORD PTR _this$[ebp]
	add	ecx, 48					; 00000030H
	call	??YVector3@@QAEAAV0@ABV0@@Z		; Vector3::operator+=

; 109  : 	SweepMax += translation;

	mov	eax, DWORD PTR _translation$[ebp]
	push	eax
	mov	ecx, DWORD PTR _this$[ebp]
	add	ecx, 60					; 0000003cH
	call	??YVector3@@QAEAAV0@ABV0@@Z		; Vector3::operator+=

; 110  : }

	pop	edi
	pop	esi
	pop	ebx
	mov	esp, ebp
	pop	ebp
	ret	4
?Translate@AABoxCollisionTestClass@@QAEXABVVector3@@@Z ENDP ; AABoxCollisionTestClass::Translate
_TEXT	ENDS
; Function compile flags: /Odtp /ZI
; File x:\github\renegade\dragonade_rxd\scripts\coltest.h
;	COMDAT ?Cull@AABoxCollisionTestClass@@QAE_NABVVector3@@0@Z
_TEXT	SEGMENT
_this$ = -4						; size = 4
_min$ = 8						; size = 4
_max$ = 12						; size = 4
?Cull@AABoxCollisionTestClass@@QAE_NABVVector3@@0@Z PROC ; AABoxCollisionTestClass::Cull, COMDAT
; _this$ = ecx

; 113  : {

	push	ebp
	mov	ebp, esp
	sub	esp, 68					; 00000044H
	push	ebx
	push	esi
	push	edi
	mov	DWORD PTR _this$[ebp], ecx

; 114  : 	if ((SweepMin.X > max.X) || (SweepMax.X < min.X))

	mov	eax, DWORD PTR _this$[ebp]
	mov	ecx, DWORD PTR _max$[ebp]
	movss	xmm0, DWORD PTR [eax+48]
	comiss	xmm0, DWORD PTR [ecx]
	ja	SHORT $LN5@Cull
	mov	eax, DWORD PTR _min$[ebp]
	mov	ecx, DWORD PTR _this$[ebp]
	movss	xmm0, DWORD PTR [eax]
	comiss	xmm0, DWORD PTR [ecx+60]
	jbe	SHORT $LN6@Cull
$LN5@Cull:

; 115  : 	{
; 116  : 		return true;

	mov	al, 1
	jmp	SHORT $LN7@Cull
$LN6@Cull:

; 117  : 	}
; 118  : 	if ((SweepMin.Y > max.Y) || (SweepMax.Y < min.Y))

	mov	eax, DWORD PTR _this$[ebp]
	mov	ecx, DWORD PTR _max$[ebp]
	movss	xmm0, DWORD PTR [eax+52]
	comiss	xmm0, DWORD PTR [ecx+4]
	ja	SHORT $LN3@Cull
	mov	eax, DWORD PTR _min$[ebp]
	mov	ecx, DWORD PTR _this$[ebp]
	movss	xmm0, DWORD PTR [eax+4]
	comiss	xmm0, DWORD PTR [ecx+64]
	jbe	SHORT $LN4@Cull
$LN3@Cull:

; 119  : 	{
; 120  : 		return true;

	mov	al, 1
	jmp	SHORT $LN7@Cull
$LN4@Cull:

; 121  : 	}
; 122  : 	if ((SweepMin.Z > max.Z) || (SweepMax.Z < min.Z))

	mov	eax, DWORD PTR _this$[ebp]
	mov	ecx, DWORD PTR _max$[ebp]
	movss	xmm0, DWORD PTR [eax+56]
	comiss	xmm0, DWORD PTR [ecx+8]
	ja	SHORT $LN1@Cull
	mov	eax, DWORD PTR _min$[ebp]
	mov	ecx, DWORD PTR _this$[ebp]
	movss	xmm0, DWORD PTR [eax+8]
	comiss	xmm0, DWORD PTR [ecx+68]
	jbe	SHORT $LN2@Cull
$LN1@Cull:

; 123  : 	{
; 124  : 		return true;

	mov	al, 1
	jmp	SHORT $LN7@Cull
$LN2@Cull:

; 125  : 	}
; 126  : 	return false;

	xor	al, al
$LN7@Cull:

; 127  : }

	pop	edi
	pop	esi
	pop	ebx
	mov	esp, ebp
	pop	ebp
	ret	8
?Cull@AABoxCollisionTestClass@@QAE_NABVVector3@@0@Z ENDP ; AABoxCollisionTestClass::Cull
_TEXT	ENDS
; Function compile flags: /Odtp /ZI
;	COMDAT ??4CollisionTestClass@@QAEAAV0@ABV0@@Z
_TEXT	SEGMENT
_this$ = -4						; size = 4
___that$ = 8						; size = 4
??4CollisionTestClass@@QAEAAV0@ABV0@@Z PROC		; CollisionTestClass::operator=, COMDAT
; _this$ = ecx
	push	ebp
	mov	ebp, esp
	sub	esp, 68					; 00000044H
	push	ebx
	push	esi
	push	edi
	mov	DWORD PTR _this$[ebp], ecx
	mov	eax, DWORD PTR ___that$[ebp]
	mov	ecx, DWORD PTR _this$[ebp]
	mov	edx, DWORD PTR [eax]
	mov	DWORD PTR [ecx], edx
	mov	edx, DWORD PTR [eax+4]
	mov	DWORD PTR [ecx+4], edx
	mov	eax, DWORD PTR [eax+8]
	mov	DWORD PTR [ecx+8], eax
	mov	eax, DWORD PTR _this$[ebp]
	pop	edi
	pop	esi
	pop	ebx
	mov	esp, ebp
	pop	ebp
	ret	4
??4CollisionTestClass@@QAEAAV0@ABV0@@Z ENDP		; CollisionTestClass::operator=
_TEXT	ENDS
; Function compile flags: /Odtp /ZI
; File x:\github\renegade\dragonade_rxd\scripts\coltest.h
;	COMDAT ??0CollisionTestClass@@QAE@ABV0@@Z
_TEXT	SEGMENT
_this$ = -4						; size = 4
_that$ = 8						; size = 4
??0CollisionTestClass@@QAE@ABV0@@Z PROC			; CollisionTestClass::CollisionTestClass, COMDAT
; _this$ = ecx

; 43   : {

	push	ebp
	mov	ebp, esp
	sub	esp, 68					; 00000044H
	push	ebx
	push	esi
	push	edi
	mov	DWORD PTR _this$[ebp], ecx
	mov	eax, DWORD PTR _this$[ebp]
	mov	ecx, DWORD PTR _that$[ebp]
	mov	edx, DWORD PTR [ecx]
	mov	DWORD PTR [eax], edx
	mov	eax, DWORD PTR _this$[ebp]
	mov	ecx, DWORD PTR _that$[ebp]
	mov	edx, DWORD PTR [ecx+4]
	mov	DWORD PTR [eax+4], edx
	mov	eax, DWORD PTR _this$[ebp]
	mov	ecx, DWORD PTR _that$[ebp]
	mov	edx, DWORD PTR [ecx+8]
	mov	DWORD PTR [eax+8], edx

; 44   : }

	mov	eax, DWORD PTR _this$[ebp]
	pop	edi
	pop	esi
	pop	ebx
	mov	esp, ebp
	pop	ebp
	ret	4
??0CollisionTestClass@@QAE@ABV0@@Z ENDP			; CollisionTestClass::CollisionTestClass
_TEXT	ENDS
; Function compile flags: /Odtp /ZI
; File x:\github\renegade\dragonade_rxd\scripts\coltest.h
;	COMDAT ??0CollisionTestClass@@QAE@PAUCastResultStruct@@W4Collision_Type@@@Z
_TEXT	SEGMENT
_this$ = -4						; size = 4
_res$ = 8						; size = 4
_collision_type$ = 12					; size = 4
??0CollisionTestClass@@QAE@PAUCastResultStruct@@W4Collision_Type@@@Z PROC ; CollisionTestClass::CollisionTestClass, COMDAT
; _this$ = ecx

; 36   : {

	push	ebp
	mov	ebp, esp
	sub	esp, 68					; 00000044H
	push	ebx
	push	esi
	push	edi
	mov	DWORD PTR _this$[ebp], ecx
	mov	eax, DWORD PTR _this$[ebp]
	mov	ecx, DWORD PTR _res$[ebp]
	mov	DWORD PTR [eax], ecx
	mov	eax, DWORD PTR _this$[ebp]
	mov	ecx, DWORD PTR _collision_type$[ebp]
	mov	DWORD PTR [eax+4], ecx
	mov	eax, DWORD PTR _this$[ebp]
	mov	DWORD PTR [eax+8], 0

; 37   : }

	mov	eax, DWORD PTR _this$[ebp]
	pop	edi
	pop	esi
	pop	ebx
	mov	esp, ebp
	pop	ebp
	ret	8
??0CollisionTestClass@@QAE@PAUCastResultStruct@@W4Collision_Type@@@Z ENDP ; CollisionTestClass::CollisionTestClass
_TEXT	ENDS
; Function compile flags: /Odtp /ZI
;	COMDAT ??_ECollideableObjClass@AnimCollisionManagerClass@@QAEPAXI@Z
_TEXT	SEGMENT
_this$ = -4						; size = 4
___flags$ = 8						; size = 4
??_ECollideableObjClass@AnimCollisionManagerClass@@QAEPAXI@Z PROC ; AnimCollisionManagerClass::CollideableObjClass::`vector deleting destructor', COMDAT
; _this$ = ecx
	push	ebp
	mov	ebp, esp
	sub	esp, 68					; 00000044H
	push	ebx
	push	esi
	push	edi
	mov	DWORD PTR _this$[ebp], ecx
	mov	eax, DWORD PTR ___flags$[ebp]
	and	eax, 2
	je	SHORT $LN3@vector
	push	OFFSET ??1CollideableObjClass@AnimCollisionManagerClass@@QAE@XZ ; AnimCollisionManagerClass::CollideableObjClass::~CollideableObjClass
	mov	eax, DWORD PTR _this$[ebp]
	mov	ecx, DWORD PTR [eax-4]
	push	ecx
	push	100					; 00000064H
	mov	edx, DWORD PTR _this$[ebp]
	push	edx
	call	??_I@YGXPAXIHP6EX0@Z@Z
	mov	eax, DWORD PTR ___flags$[ebp]
	and	eax, 1
	je	SHORT $LN2@vector
	mov	eax, DWORD PTR _this$[ebp]
	sub	eax, 4
	push	eax
	call	??_V@YAXPAX@Z				; operator delete[]
	add	esp, 4
$LN2@vector:
	mov	eax, DWORD PTR _this$[ebp]
	sub	eax, 4
	jmp	SHORT $LN4@vector
$LN3@vector:
	mov	ecx, DWORD PTR _this$[ebp]
	call	??1CollideableObjClass@AnimCollisionManagerClass@@QAE@XZ ; AnimCollisionManagerClass::CollideableObjClass::~CollideableObjClass
	mov	eax, DWORD PTR ___flags$[ebp]
	and	eax, 1
	je	SHORT $LN1@vector
	mov	eax, DWORD PTR _this$[ebp]
	push	eax
	call	??3@YAXPAX@Z				; operator delete
	add	esp, 4
$LN1@vector:
	mov	eax, DWORD PTR _this$[ebp]
$LN4@vector:
	pop	edi
	pop	esi
	pop	ebx
	mov	esp, ebp
	pop	ebp
	ret	4
??_ECollideableObjClass@AnimCollisionManagerClass@@QAEPAXI@Z ENDP ; AnimCollisionManagerClass::CollideableObjClass::`vector deleting destructor'
_TEXT	ENDS
; Function compile flags: /Odtp /ZI
; File x:\github\renegade\dragonade_rxd\scripts\animcollisionmanagerclass.h
;	COMDAT ??1CollideableObjClass@AnimCollisionManagerClass@@QAE@XZ
_TEXT	SEGMENT
_this$ = -4						; size = 4
??1CollideableObjClass@AnimCollisionManagerClass@@QAE@XZ PROC ; AnimCollisionManagerClass::CollideableObjClass::~CollideableObjClass, COMDAT
; _this$ = ecx

; 120  : 		{

	push	ebp
	mov	ebp, esp
	sub	esp, 68					; 00000044H
	push	ebx
	push	esi
	push	edi
	mov	DWORD PTR _this$[ebp], ecx

; 121  : 			REF_PTR_RELEASE(CollisionMesh);

	mov	eax, DWORD PTR _this$[ebp]
	cmp	DWORD PTR [eax], 0
	je	SHORT $LN1@Collideabl
	mov	eax, DWORD PTR _this$[ebp]
	mov	ecx, DWORD PTR [eax]
	call	?Release_Ref@RefCountClass@@QAEXXZ	; RefCountClass::Release_Ref
$LN1@Collideabl:
	mov	eax, DWORD PTR _this$[ebp]
	mov	DWORD PTR [eax], 0

; 122  : 		}

	pop	edi
	pop	esi
	pop	ebx
	mov	esp, ebp
	pop	ebp
	ret	0
??1CollideableObjClass@AnimCollisionManagerClass@@QAE@XZ ENDP ; AnimCollisionManagerClass::CollideableObjClass::~CollideableObjClass
_TEXT	ENDS
; Function compile flags: /Odtp /ZI
; File x:\github\renegade\dragonade_rxd\scripts\engine_game.cpp
;	COMDAT ?Seconds_To_Hms@@YAXMAAH00@Z
_TEXT	SEGMENT
_i2$ = -12						; size = 4
_f1$ = -8						; size = 4
_i1$ = -4						; size = 4
_secs$ = 8						; size = 4
_hours$ = 12						; size = 4
_minutes$ = 16						; size = 4
_seconds$ = 20						; size = 4
?Seconds_To_Hms@@YAXMAAH00@Z PROC			; Seconds_To_Hms, COMDAT

; 655  : {

	push	ebp
	mov	ebp, esp
	sub	esp, 76					; 0000004cH
	push	ebx
	push	esi
	push	edi

; 656  : 	int i1 = (int) (secs * 0.00027777778f);

	movss	xmm0, DWORD PTR _secs$[ebp]
	mulss	xmm0, DWORD PTR __real@3991a2b4
	cvttss2si eax, xmm0
	mov	DWORD PTR _i1$[ebp], eax

; 657  : 	hours = i1;

	mov	eax, DWORD PTR _hours$[ebp]
	mov	ecx, DWORD PTR _i1$[ebp]
	mov	DWORD PTR [eax], ecx

; 658  : 	float f1 = secs - (float) (3600 * (int) i1);

	mov	eax, DWORD PTR _i1$[ebp]
	imul	eax, 3600				; 00000e10H
	cvtsi2ss xmm0, eax
	movss	xmm1, DWORD PTR _secs$[ebp]
	subss	xmm1, xmm0
	movss	DWORD PTR _f1$[ebp], xmm1

; 659  : 	int i2 = (int) (f1 * 0.016666668f);

	movss	xmm0, DWORD PTR _f1$[ebp]
	mulss	xmm0, DWORD PTR __real@3c888889
	cvttss2si eax, xmm0
	mov	DWORD PTR _i2$[ebp], eax

; 660  : 	minutes = i2;

	mov	eax, DWORD PTR _minutes$[ebp]
	mov	ecx, DWORD PTR _i2$[ebp]
	mov	DWORD PTR [eax], ecx

; 661  : 	seconds = (int) (f1 - (float) (60 * (int) i2));

	mov	eax, DWORD PTR _i2$[ebp]
	imul	eax, 60					; 0000003cH
	cvtsi2ss xmm0, eax
	movss	xmm1, DWORD PTR _f1$[ebp]
	subss	xmm1, xmm0
	cvttss2si ecx, xmm1
	mov	edx, DWORD PTR _seconds$[ebp]
	mov	DWORD PTR [edx], ecx

; 662  : }

	pop	edi
	pop	esi
	pop	ebx
	mov	esp, ebp
	pop	ebp
	ret	0
?Seconds_To_Hms@@YAXMAAH00@Z ENDP			; Seconds_To_Hms
_TEXT	ENDS
; Function compile flags: /Odtp /ZI
; File x:\github\renegade\dragonade_rxd\scripts\engine_game.cpp
;	COMDAT ?Get_Base_Center@@YA?AVVector3@@H@Z
_TEXT	SEGMENT
$T1 = -96						; size = 12
_Num$2 = -20						; size = 4
_Base$ = -16						; size = 4
_ReturnPos$ = -12					; size = 12
___$ReturnUdt$ = 8					; size = 4
_Team$ = 12						; size = 4
?Get_Base_Center@@YA?AVVector3@@H@Z PROC		; Get_Base_Center, COMDAT

; 624  : {

	push	ebp
	mov	ebp, esp
	sub	esp, 96					; 00000060H
	push	ebx
	push	esi
	push	edi

; 625  : 		Vector3 ReturnPos(0.0f,0.0f,0.0f);

	push	ecx
	movss	xmm0, DWORD PTR __real@00000000
	movss	DWORD PTR [esp], xmm0
	push	ecx
	movss	xmm0, DWORD PTR __real@00000000
	movss	DWORD PTR [esp], xmm0
	push	ecx
	movss	xmm0, DWORD PTR __real@00000000
	movss	DWORD PTR [esp], xmm0
	lea	ecx, DWORD PTR _ReturnPos$[ebp]
	call	??0Vector3@@QAE@MMM@Z			; Vector3::Vector3

; 626  : 		BaseControllerClass *Base = BaseControllerClass::Find_Base(Team);

	mov	eax, DWORD PTR _Team$[ebp]
	push	eax
	call	?Find_Base@BaseControllerClass@@SAPAV1@H@Z ; BaseControllerClass::Find_Base
	add	esp, 4
	mov	DWORD PTR _Base$[ebp], eax

; 627  : 		if (Base)

	cmp	DWORD PTR _Base$[ebp], 0
	je	SHORT $LN1@Get_Base_C

; 628  : 		{
; 629  : 				int Num = 0;

	mov	DWORD PTR _Num$2[ebp], 0

; 630  : 				for (Num = 0;Num < Base->Get_Building_List().Count();Num++)

	mov	DWORD PTR _Num$2[ebp], 0
	jmp	SHORT $LN4@Get_Base_C
$LN3@Get_Base_C:
	mov	eax, DWORD PTR _Num$2[ebp]
	add	eax, 1
	mov	DWORD PTR _Num$2[ebp], eax
$LN4@Get_Base_C:
	mov	ecx, DWORD PTR _Base$[ebp]
	call	?Get_Building_List@BaseControllerClass@@QAEAAV?$DynamicVectorClass@PAVBuildingGameObj@@@@XZ ; BaseControllerClass::Get_Building_List
	mov	ecx, eax
	call	?Count@?$DynamicVectorClass@PAVBuildingGameObj@@@@QBEHXZ ; DynamicVectorClass<BuildingGameObj *>::Count
	cmp	DWORD PTR _Num$2[ebp], eax
	jge	SHORT $LN2@Get_Base_C

; 631  : 				{
; 632  : 						ReturnPos += Commands->Get_Position(Base->Get_Building_List()[Num]);

	mov	eax, DWORD PTR _Num$2[ebp]
	push	eax
	mov	ecx, DWORD PTR _Base$[ebp]
	call	?Get_Building_List@BaseControllerClass@@QAEAAV?$DynamicVectorClass@PAVBuildingGameObj@@@@XZ ; BaseControllerClass::Get_Building_List
	mov	ecx, eax
	call	??A?$VectorClass@PAVBuildingGameObj@@@@QAEAAPAVBuildingGameObj@@H@Z ; VectorClass<BuildingGameObj *>::operator[]
	mov	ecx, DWORD PTR [eax]
	push	ecx
	lea	edx, DWORD PTR $T1[ebp]
	push	edx
	mov	eax, DWORD PTR ?Commands@@3PAUScriptCommands@@A ; Commands
	mov	ecx, DWORD PTR [eax+64]
	call	ecx
	add	esp, 8
	push	eax
	lea	ecx, DWORD PTR _ReturnPos$[ebp]
	call	??YVector3@@QAEAAV0@ABV0@@Z		; Vector3::operator+=

; 633  : 				}

	jmp	SHORT $LN3@Get_Base_C
$LN2@Get_Base_C:

; 634  : 				if (Num)

	cmp	DWORD PTR _Num$2[ebp], 0
	je	SHORT $LN1@Get_Base_C

; 635  : 				{
; 636  : 						ReturnPos /= (float)Num;

	cvtsi2ss xmm0, DWORD PTR _Num$2[ebp]
	push	ecx
	movss	DWORD PTR [esp], xmm0
	lea	ecx, DWORD PTR _ReturnPos$[ebp]
	call	??_0Vector3@@QAEAAV0@M@Z		; Vector3::operator/=
$LN1@Get_Base_C:

; 637  : 				}
; 638  : 		}
; 639  : 		return ReturnPos;

	lea	eax, DWORD PTR _ReturnPos$[ebp]
	push	eax
	mov	ecx, DWORD PTR ___$ReturnUdt$[ebp]
	call	??0Vector3@@QAE@ABV0@@Z			; Vector3::Vector3
	mov	eax, DWORD PTR ___$ReturnUdt$[ebp]

; 640  : }

	pop	edi
	pop	esi
	pop	ebx
	mov	esp, ebp
	pop	ebp
	ret	0
?Get_Base_Center@@YA?AVVector3@@H@Z ENDP		; Get_Base_Center
_TEXT	ENDS
; Function compile flags: /Odtp /ZI
; File x:\github\renegade\dragonade_rxd\scripts\engine_game.cpp
;	COMDAT ?Vehicle_Preset_Is_Naval@@YA_NH@Z
_TEXT	SEGMENT
_def2$1 = -8						; size = 4
_def$ = -4						; size = 4
_preset$ = 8						; size = 4
?Vehicle_Preset_Is_Naval@@YA_NH@Z PROC			; Vehicle_Preset_Is_Naval, COMDAT

; 606  : {

	push	ebp
	mov	ebp, esp
	sub	esp, 72					; 00000048H
	push	ebx
	push	esi
	push	edi

; 607  : 	DefinitionClass *def = DefinitionMgrClass::Find_Definition(preset,true);

	push	1
	mov	eax, DWORD PTR _preset$[ebp]
	push	eax
	call	DWORD PTR __imp_?Find_Definition@DefinitionMgrClass@@SAPAVDefinitionClass@@I_N@Z
	add	esp, 8
	mov	DWORD PTR _def$[ebp], eax

; 608  : 	if (!def)

	cmp	DWORD PTR _def$[ebp], 0
	jne	SHORT $LN4@Vehicle_Pr

; 609  : 	{
; 610  : 		return false;

	xor	al, al
	jmp	SHORT $LN5@Vehicle_Pr
$LN4@Vehicle_Pr:

; 611  : 	}
; 612  : 	if (def->Get_Class_ID() == 12304)

	mov	eax, DWORD PTR _def$[ebp]
	mov	edx, DWORD PTR [eax]
	mov	ecx, DWORD PTR _def$[ebp]
	mov	eax, DWORD PTR [edx+32]
	call	eax
	cmp	eax, 12304				; 00003010H
	jne	SHORT $LN3@Vehicle_Pr

; 613  : 	{
; 614  : 		VehicleGameObjDef *def2 = (VehicleGameObjDef *)def;

	mov	eax, DWORD PTR _def$[ebp]
	mov	DWORD PTR _def2$1[ebp], eax

; 615  : 		if (def2->Get_Type() == VEHICLE_TYPE_BOAT || def2->Get_Type() == VEHICLE_TYPE_SUB)

	mov	ecx, DWORD PTR _def2$1[ebp]
	call	?Get_Type@VehicleGameObjDef@@QBE?AW4VehicleType@@XZ ; VehicleGameObjDef::Get_Type
	cmp	eax, 5
	je	SHORT $LN1@Vehicle_Pr
	mov	ecx, DWORD PTR _def2$1[ebp]
	call	?Get_Type@VehicleGameObjDef@@QBE?AW4VehicleType@@XZ ; VehicleGameObjDef::Get_Type
	cmp	eax, 6
	jne	SHORT $LN3@Vehicle_Pr
$LN1@Vehicle_Pr:

; 616  : 		{
; 617  : 			return true;

	mov	al, 1
	jmp	SHORT $LN5@Vehicle_Pr
$LN3@Vehicle_Pr:

; 618  : 		}
; 619  : 	}
; 620  : 	return false;

	xor	al, al
$LN5@Vehicle_Pr:

; 621  : }

	pop	edi
	pop	esi
	pop	ebx
	mov	esp, ebp
	pop	ebp
	ret	0
?Vehicle_Preset_Is_Naval@@YA_NH@Z ENDP			; Vehicle_Preset_Is_Naval
_TEXT	ENDS
; Function compile flags: /Odtp /ZI
; File x:\github\renegade\dragonade_rxd\scripts\engine_game.cpp
;	COMDAT ?Vehicle_Preset_Is_Air@@YA_NH@Z
_TEXT	SEGMENT
_def2$1 = -8						; size = 4
_def$ = -4						; size = 4
_preset$ = 8						; size = 4
?Vehicle_Preset_Is_Air@@YA_NH@Z PROC			; Vehicle_Preset_Is_Air, COMDAT

; 589  : {

	push	ebp
	mov	ebp, esp
	sub	esp, 72					; 00000048H
	push	ebx
	push	esi
	push	edi

; 590  : 	DefinitionClass *def = DefinitionMgrClass::Find_Definition(preset,true);

	push	1
	mov	eax, DWORD PTR _preset$[ebp]
	push	eax
	call	DWORD PTR __imp_?Find_Definition@DefinitionMgrClass@@SAPAVDefinitionClass@@I_N@Z
	add	esp, 8
	mov	DWORD PTR _def$[ebp], eax

; 591  : 	if (!def)

	cmp	DWORD PTR _def$[ebp], 0
	jne	SHORT $LN3@Vehicle_Pr

; 592  : 	{
; 593  : 		return false;

	xor	al, al
	jmp	SHORT $LN4@Vehicle_Pr
$LN3@Vehicle_Pr:

; 594  : 	}
; 595  : 	if (def->Get_Class_ID() == 12304)

	mov	eax, DWORD PTR _def$[ebp]
	mov	edx, DWORD PTR [eax]
	mov	ecx, DWORD PTR _def$[ebp]
	mov	eax, DWORD PTR [edx+32]
	call	eax
	cmp	eax, 12304				; 00003010H
	jne	SHORT $LN2@Vehicle_Pr

; 596  : 	{
; 597  : 		VehicleGameObjDef *def2 = (VehicleGameObjDef *)def;

	mov	eax, DWORD PTR _def$[ebp]
	mov	DWORD PTR _def2$1[ebp], eax

; 598  : 		if (def2->Get_Type() == VEHICLE_TYPE_FLYING && !def2->Get_Build_At_Ground())

	mov	ecx, DWORD PTR _def2$1[ebp]
	call	?Get_Type@VehicleGameObjDef@@QBE?AW4VehicleType@@XZ ; VehicleGameObjDef::Get_Type
	cmp	eax, 3
	jne	SHORT $LN2@Vehicle_Pr
	mov	ecx, DWORD PTR _def2$1[ebp]
	call	?Get_Build_At_Ground@VehicleGameObjDef@@QBE_NXZ ; VehicleGameObjDef::Get_Build_At_Ground
	movzx	eax, al
	test	eax, eax
	jne	SHORT $LN2@Vehicle_Pr

; 599  : 		{
; 600  : 			return true;

	mov	al, 1
	jmp	SHORT $LN4@Vehicle_Pr
$LN2@Vehicle_Pr:

; 601  : 		}
; 602  : 	}
; 603  : 	return false;

	xor	al, al
$LN4@Vehicle_Pr:

; 604  : }

	pop	edi
	pop	esi
	pop	ebx
	mov	esp, ebp
	pop	ebp
	ret	0
?Vehicle_Preset_Is_Air@@YA_NH@Z ENDP			; Vehicle_Preset_Is_Air
_TEXT	ENDS
; Function compile flags: /Odtp /ZI
; File x:\github\renegade\dragonade_rxd\scripts\engine_game.cpp
;	COMDAT ?Is_Harvester_Preset@@YA_NPAVScriptableGameObj@@@Z
_TEXT	SEGMENT
_ID$ = -4						; size = 4
_obj$ = 8						; size = 4
?Is_Harvester_Preset@@YA_NPAVScriptableGameObj@@@Z PROC	; Is_Harvester_Preset, COMDAT

; 574  : {

	push	ebp
	mov	ebp, esp
	sub	esp, 68					; 00000044H
	push	ebx
	push	esi
	push	edi

; 575  : 	int ID = Commands->Get_Preset_ID(obj);

	mov	eax, DWORD PTR _obj$[ebp]
	push	eax
	mov	ecx, DWORD PTR ?Commands@@3PAUScriptCommands@@A ; Commands
	mov	edx, DWORD PTR [ecx+112]
	call	edx
	add	esp, 4
	mov	DWORD PTR _ID$[ebp], eax

; 576  : 	if (Get_Harvester_Preset_ID(0) == ID || Get_Harvester_Preset_ID(1) == ID)

	push	0
	call	?Get_Harvester_Preset_ID@@YAHH@Z	; Get_Harvester_Preset_ID
	add	esp, 4
	cmp	eax, DWORD PTR _ID$[ebp]
	je	SHORT $LN1@Is_Harvest
	push	1
	call	?Get_Harvester_Preset_ID@@YAHH@Z	; Get_Harvester_Preset_ID
	add	esp, 4
	cmp	eax, DWORD PTR _ID$[ebp]
	jne	SHORT $LN2@Is_Harvest
$LN1@Is_Harvest:

; 577  : 	{
; 578  : 		return true;

	mov	al, 1
	jmp	SHORT $LN3@Is_Harvest
$LN2@Is_Harvest:

; 579  : 	}
; 580  : 	return false;

	xor	al, al
$LN3@Is_Harvest:

; 581  : }

	pop	edi
	pop	esi
	pop	ebx
	mov	esp, ebp
	pop	ebp
	ret	0
?Is_Harvester_Preset@@YA_NPAVScriptableGameObj@@@Z ENDP	; Is_Harvester_Preset
_TEXT	ENDS
; Function compile flags: /Odtp /ZI
; File x:\github\renegade\dragonade_rxd\scripts\engine_game.cpp
;	COMDAT ?Get_Harvester_Preset_ID@@YAHH@Z
_TEXT	SEGMENT
tv70 = -72						; size = 4
_Ref$ = -4						; size = 4
_Team$ = 8						; size = 4
?Get_Harvester_Preset_ID@@YAHH@Z PROC			; Get_Harvester_Preset_ID, COMDAT

; 560  : {

	push	ebp
	mov	ebp, esp
	sub	esp, 72					; 00000048H
	push	ebx
	push	esi
	push	edi

; 561  : 	if (!Find_Refinery(Team))

	mov	eax, DWORD PTR _Team$[ebp]
	push	eax
	call	?Find_Refinery@@YAPAVScriptableGameObj@@H@Z ; Find_Refinery
	add	esp, 4
	test	eax, eax
	jne	SHORT $LN3@Get_Harves

; 562  : 	{
; 563  : 		return 0;

	xor	eax, eax
	jmp	SHORT $LN4@Get_Harves
$LN3@Get_Harves:

; 564  : 	}
; 565  : 	BuildingGameObj *Ref = Find_Refinery(Team)->As_BuildingGameObj();

	mov	eax, DWORD PTR _Team$[ebp]
	push	eax
	call	?Find_Refinery@@YAPAVScriptableGameObj@@H@Z ; Find_Refinery
	add	esp, 4
	mov	DWORD PTR tv70[ebp], eax
	mov	ecx, DWORD PTR tv70[ebp]
	mov	edx, DWORD PTR [ecx]
	mov	ecx, DWORD PTR tv70[ebp]
	mov	eax, DWORD PTR [edx+64]
	call	eax
	mov	DWORD PTR _Ref$[ebp], eax

; 566  : 	if (!Ref || !Ref->As_RefineryGameObj())

	cmp	DWORD PTR _Ref$[ebp], 0
	je	SHORT $LN1@Get_Harves
	mov	eax, DWORD PTR _Ref$[ebp]
	mov	edx, DWORD PTR [eax]
	mov	ecx, DWORD PTR _Ref$[ebp]
	mov	eax, DWORD PTR [edx+132]
	call	eax
	test	eax, eax
	jne	SHORT $LN2@Get_Harves
$LN1@Get_Harves:

; 567  : 	{
; 568  : 		return 0;

	xor	eax, eax
	jmp	SHORT $LN4@Get_Harves
$LN2@Get_Harves:

; 569  : 	}
; 570  : 	return Ref->As_RefineryGameObj()->Get_Harvester_Def_ID();

	mov	eax, DWORD PTR _Ref$[ebp]
	mov	edx, DWORD PTR [eax]
	mov	ecx, DWORD PTR _Ref$[ebp]
	mov	eax, DWORD PTR [edx+132]
	call	eax
	mov	ecx, eax
	call	?Get_Harvester_Def_ID@RefineryGameObj@@QBEHXZ ; RefineryGameObj::Get_Harvester_Def_ID
$LN4@Get_Harves:

; 571  : }

	pop	edi
	pop	esi
	pop	ebx
	mov	esp, ebp
	pop	ebp
	ret	0
?Get_Harvester_Preset_ID@@YAHH@Z ENDP			; Get_Harvester_Preset_ID
_TEXT	ENDS
; Function compile flags: /Odtp /ZI
; File x:\github\renegade\dragonade_rxd\scripts\engine_game.cpp
;	COMDAT ?Get_Public_Message_Color@@YAXPAI00@Z
_TEXT	SEGMENT
tv146 = -84						; size = 8
tv133 = -84						; size = 8
tv88 = -84						; size = 8
tv144 = -76						; size = 4
tv131 = -76						; size = 4
tv86 = -76						; size = 4
tv141 = -70						; size = 2
tv128 = -70						; size = 2
tv83 = -70						; size = 2
tv139 = -68						; size = 4
tv94 = -68						; size = 4
tv81 = -68						; size = 4
_red$ = 8						; size = 4
_green$ = 12						; size = 4
_blue$ = 16						; size = 4
?Get_Public_Message_Color@@YAXPAI00@Z PROC		; Get_Public_Message_Color, COMDAT

; 553  : {

	push	ebp
	mov	ebp, esp
	sub	esp, 84					; 00000054H
	push	ebx
	push	esi
	push	edi

; 554  : 	*red = (unsigned int)(PublicMessageColor.X*255);

	mov	eax, DWORD PTR ?PublicMessageColor@@3AAVVector3@@A ; PublicMessageColor
	movss	xmm0, DWORD PTR [eax]
	mulss	xmm0, DWORD PTR __real@437f0000
	movss	DWORD PTR tv81[ebp], xmm0
	fld	DWORD PTR tv81[ebp]
	fnstcw	WORD PTR tv83[ebp]
	movzx	eax, WORD PTR tv83[ebp]
	or	eax, 3072				; 00000c00H
	mov	DWORD PTR tv86[ebp], eax
	fldcw	WORD PTR tv86[ebp]
	fistp	QWORD PTR tv88[ebp]
	fldcw	WORD PTR tv83[ebp]
	mov	ecx, DWORD PTR tv88[ebp]
	mov	edx, DWORD PTR _red$[ebp]
	mov	DWORD PTR [edx], ecx

; 555  : 	*green = (unsigned int)(PublicMessageColor.Y*255);

	mov	eax, DWORD PTR ?PublicMessageColor@@3AAVVector3@@A ; PublicMessageColor
	movss	xmm0, DWORD PTR [eax+4]
	mulss	xmm0, DWORD PTR __real@437f0000
	movss	DWORD PTR tv94[ebp], xmm0
	fld	DWORD PTR tv94[ebp]
	fnstcw	WORD PTR tv128[ebp]
	movzx	eax, WORD PTR tv128[ebp]
	or	eax, 3072				; 00000c00H
	mov	DWORD PTR tv131[ebp], eax
	fldcw	WORD PTR tv131[ebp]
	fistp	QWORD PTR tv133[ebp]
	fldcw	WORD PTR tv128[ebp]
	mov	ecx, DWORD PTR tv133[ebp]
	mov	edx, DWORD PTR _green$[ebp]
	mov	DWORD PTR [edx], ecx

; 556  : 	*blue = (unsigned int)(PublicMessageColor.Z*255);

	mov	eax, DWORD PTR ?PublicMessageColor@@3AAVVector3@@A ; PublicMessageColor
	movss	xmm0, DWORD PTR [eax+8]
	mulss	xmm0, DWORD PTR __real@437f0000
	movss	DWORD PTR tv139[ebp], xmm0
	fld	DWORD PTR tv139[ebp]
	fnstcw	WORD PTR tv141[ebp]
	movzx	eax, WORD PTR tv141[ebp]
	or	eax, 3072				; 00000c00H
	mov	DWORD PTR tv144[ebp], eax
	fldcw	WORD PTR tv144[ebp]
	fistp	QWORD PTR tv146[ebp]
	fldcw	WORD PTR tv141[ebp]
	mov	ecx, DWORD PTR tv146[ebp]
	mov	edx, DWORD PTR _blue$[ebp]
	mov	DWORD PTR [edx], ecx

; 557  : }

	pop	edi
	pop	esi
	pop	ebx
	mov	esp, ebp
	pop	ebp
	ret	0
?Get_Public_Message_Color@@YAXPAI00@Z ENDP		; Get_Public_Message_Color
_TEXT	ENDS
; Function compile flags: /Odtp /ZI
; File x:\github\renegade\dragonade_rxd\scripts\engine_game.cpp
;	COMDAT ?Get_Private_Message_Color@@YAXPAI00@Z
_TEXT	SEGMENT
tv146 = -84						; size = 8
tv133 = -84						; size = 8
tv88 = -84						; size = 8
tv144 = -76						; size = 4
tv131 = -76						; size = 4
tv86 = -76						; size = 4
tv141 = -70						; size = 2
tv128 = -70						; size = 2
tv83 = -70						; size = 2
tv139 = -68						; size = 4
tv94 = -68						; size = 4
tv81 = -68						; size = 4
_red$ = 8						; size = 4
_green$ = 12						; size = 4
_blue$ = 16						; size = 4
?Get_Private_Message_Color@@YAXPAI00@Z PROC		; Get_Private_Message_Color, COMDAT

; 546  : {

	push	ebp
	mov	ebp, esp
	sub	esp, 84					; 00000054H
	push	ebx
	push	esi
	push	edi

; 547  : 	*red = (unsigned int)(PrivateMessageColor.X*255);

	mov	eax, DWORD PTR ?PrivateMessageColor@@3AAVVector3@@A ; PrivateMessageColor
	movss	xmm0, DWORD PTR [eax]
	mulss	xmm0, DWORD PTR __real@437f0000
	movss	DWORD PTR tv81[ebp], xmm0
	fld	DWORD PTR tv81[ebp]
	fnstcw	WORD PTR tv83[ebp]
	movzx	eax, WORD PTR tv83[ebp]
	or	eax, 3072				; 00000c00H
	mov	DWORD PTR tv86[ebp], eax
	fldcw	WORD PTR tv86[ebp]
	fistp	QWORD PTR tv88[ebp]
	fldcw	WORD PTR tv83[ebp]
	mov	ecx, DWORD PTR tv88[ebp]
	mov	edx, DWORD PTR _red$[ebp]
	mov	DWORD PTR [edx], ecx

; 548  : 	*green = (unsigned int)(PrivateMessageColor.Y*255);

	mov	eax, DWORD PTR ?PrivateMessageColor@@3AAVVector3@@A ; PrivateMessageColor
	movss	xmm0, DWORD PTR [eax+4]
	mulss	xmm0, DWORD PTR __real@437f0000
	movss	DWORD PTR tv94[ebp], xmm0
	fld	DWORD PTR tv94[ebp]
	fnstcw	WORD PTR tv128[ebp]
	movzx	eax, WORD PTR tv128[ebp]
	or	eax, 3072				; 00000c00H
	mov	DWORD PTR tv131[ebp], eax
	fldcw	WORD PTR tv131[ebp]
	fistp	QWORD PTR tv133[ebp]
	fldcw	WORD PTR tv128[ebp]
	mov	ecx, DWORD PTR tv133[ebp]
	mov	edx, DWORD PTR _green$[ebp]
	mov	DWORD PTR [edx], ecx

; 549  : 	*blue = (unsigned int)(PrivateMessageColor.Z*255);

	mov	eax, DWORD PTR ?PrivateMessageColor@@3AAVVector3@@A ; PrivateMessageColor
	movss	xmm0, DWORD PTR [eax+8]
	mulss	xmm0, DWORD PTR __real@437f0000
	movss	DWORD PTR tv139[ebp], xmm0
	fld	DWORD PTR tv139[ebp]
	fnstcw	WORD PTR tv141[ebp]
	movzx	eax, WORD PTR tv141[ebp]
	or	eax, 3072				; 00000c00H
	mov	DWORD PTR tv144[ebp], eax
	fldcw	WORD PTR tv144[ebp]
	fistp	QWORD PTR tv146[ebp]
	fldcw	WORD PTR tv141[ebp]
	mov	ecx, DWORD PTR tv146[ebp]
	mov	edx, DWORD PTR _blue$[ebp]
	mov	DWORD PTR [edx], ecx

; 550  : }

	pop	edi
	pop	esi
	pop	ebx
	mov	esp, ebp
	pop	ebp
	ret	0
?Get_Private_Message_Color@@YAXPAI00@Z ENDP		; Get_Private_Message_Color
_TEXT	ENDS
; Function compile flags: /Odtp /ZI
; File x:\github\renegade\dragonade_rxd\scripts\engine_game.cpp
;	COMDAT ?Get_Current_Game_Mode@@YAIXZ
_TEXT	SEGMENT
?Get_Current_Game_Mode@@YAIXZ PROC			; Get_Current_Game_Mode, COMDAT

; 503  : {

	push	ebp
	mov	ebp, esp
	sub	esp, 64					; 00000040H
	push	ebx
	push	esi
	push	edi

; 504  : 	if (cGameType::GameType == 1)

	mov	eax, DWORD PTR ?GameType@cGameType@@2AAHA ; cGameType::GameType
	cmp	DWORD PTR [eax], 1
	jne	SHORT $LN10@Get_Curren

; 505  : 	{
; 506  : 		return 1;

	mov	eax, 1
	jmp	$LN11@Get_Curren
$LN10@Get_Curren:

; 507  : 	}
; 508  : 	if (cGameType::GameType == 2)

	mov	eax, DWORD PTR ?GameType@cGameType@@2AAHA ; cGameType::GameType
	cmp	DWORD PTR [eax], 2
	jne	SHORT $LN9@Get_Curren

; 509  : 	{
; 510  : 		return 2;

	mov	eax, 2
	jmp	$LN11@Get_Curren
$LN9@Get_Curren:

; 511  : 	}
; 512  : 	if (cGameType::GameType == 3)

	mov	eax, DWORD PTR ?GameType@cGameType@@2AAHA ; cGameType::GameType
	cmp	DWORD PTR [eax], 3
	jne	SHORT $LN8@Get_Curren

; 513  : 	{
; 514  : 		if (GameMode == 1)

	mov	eax, DWORD PTR ?GameMode@@3AAIA		; GameMode
	cmp	DWORD PTR [eax], 1
	jne	SHORT $LN7@Get_Curren

; 515  : 		{
; 516  : 			return 5;

	mov	eax, 5
	jmp	SHORT $LN11@Get_Curren
$LN7@Get_Curren:

; 517  : 		}
; 518  : 		if (GameMode == 2)

	mov	eax, DWORD PTR ?GameMode@@3AAIA		; GameMode
	cmp	DWORD PTR [eax], 2
	jne	SHORT $LN6@Get_Curren

; 519  : 		{
; 520  : 			return 3;

	mov	eax, 3
	jmp	SHORT $LN11@Get_Curren
$LN6@Get_Curren:

; 521  : 		}
; 522  : 		if (GameMode == 3)

	mov	eax, DWORD PTR ?GameMode@@3AAIA		; GameMode
	cmp	DWORD PTR [eax], 3
	jne	SHORT $LN5@Get_Curren

; 523  : 		{
; 524  : 			return 4;

	mov	eax, 4
	jmp	SHORT $LN11@Get_Curren
$LN5@Get_Curren:

; 525  : 		}
; 526  : 		if (Game_Mode_Find("WOL"))

	push	OFFSET ??_C@_03KPGLNNAM@WOL?$AA@
	call	?Game_Mode_Find@@YAPAXPBD@Z		; Game_Mode_Find
	add	esp, 4
	test	eax, eax
	je	SHORT $LN4@Get_Curren

; 527  : 		{
; 528  : 			return 3;

	mov	eax, 3
	jmp	SHORT $LN11@Get_Curren
$LN4@Get_Curren:

; 529  : 		}
; 530  : 		if (Game_Mode_Find("LAN"))

	push	OFFSET ??_C@_03BANLECBK@LAN?$AA@
	call	?Game_Mode_Find@@YAPAXPBD@Z		; Game_Mode_Find
	add	esp, 4
	test	eax, eax
	je	SHORT $LN8@Get_Curren

; 531  : 		{
; 532  : 			if (IsListed)

	mov	eax, DWORD PTR ?IsListed@@3AA_NA	; IsListed
	movzx	ecx, BYTE PTR [eax]
	test	ecx, ecx
	je	SHORT $LN2@Get_Curren

; 533  : 			{
; 534  : 				return 4;

	mov	eax, 4
	jmp	SHORT $LN11@Get_Curren

; 535  : 			}
; 536  : 			else

	jmp	SHORT $LN8@Get_Curren
$LN2@Get_Curren:

; 537  : 			{
; 538  : 				return 5;

	mov	eax, 5
	jmp	SHORT $LN11@Get_Curren
$LN8@Get_Curren:

; 539  : 			}
; 540  : 		}
; 541  : 	}
; 542  : 	return 0;

	xor	eax, eax
$LN11@Get_Curren:

; 543  : }

	pop	edi
	pop	esi
	pop	ebx
	mov	esp, ebp
	pop	ebp
	ret	0
?Get_Current_Game_Mode@@YAIXZ ENDP			; Get_Current_Game_Mode
_TEXT	ENDS
; Function compile flags: /Odtp /ZI
; File x:\github\renegade\dragonade_rxd\scripts\engine_game.cpp
;	COMDAT ?Is_Dedicated@@YA_NXZ
_TEXT	SEGMENT
tv65 = -68						; size = 4
?Is_Dedicated@@YA_NXZ PROC				; Is_Dedicated, COMDAT

; 498  : {

	push	ebp
	mov	ebp, esp
	sub	esp, 68					; 00000044H
	push	ebx
	push	esi
	push	edi

; 499  : 	return Exe == 1;

	cmp	DWORD PTR ?Exe@@3HA, 1			; Exe
	jne	SHORT $LN3@Is_Dedicat
	mov	DWORD PTR tv65[ebp], 1
	jmp	SHORT $LN4@Is_Dedicat
$LN3@Is_Dedicat:
	mov	DWORD PTR tv65[ebp], 0
$LN4@Is_Dedicat:
	mov	al, BYTE PTR tv65[ebp]

; 500  : }

	pop	edi
	pop	esi
	pop	ebx
	mov	esp, ebp
	pop	ebp
	ret	0
?Is_Dedicated@@YA_NXZ ENDP				; Is_Dedicated
_TEXT	ENDS
; Function compile flags: /Odtp /ZI
; File x:\github\renegade\dragonade_rxd\scripts\engine_game.cpp
;	COMDAT ?Is_Gameplay_Permitted@@YA_NXZ
_TEXT	SEGMENT
tv66 = -68						; size = 4
?Is_Gameplay_Permitted@@YA_NXZ PROC			; Is_Gameplay_Permitted, COMDAT

; 493  : {

	push	ebp
	mov	ebp, esp
	sub	esp, 68					; 00000044H
	push	ebx
	push	esi
	push	edi

; 494  : 	return The_Game()->Is_Gameplay_Permitted();

	call	?The_Game@@YAPAVcGameData@@XZ		; The_Game
	mov	DWORD PTR tv66[ebp], eax
	mov	eax, DWORD PTR tv66[ebp]
	mov	edx, DWORD PTR [eax]
	mov	ecx, DWORD PTR tv66[ebp]
	mov	eax, DWORD PTR [edx+132]
	call	eax

; 495  : }

	pop	edi
	pop	esi
	pop	ebx
	mov	esp, ebp
	pop	ebp
	ret	0
?Is_Gameplay_Permitted@@YA_NXZ ENDP			; Is_Gameplay_Permitted
_TEXT	ENDS
; Function compile flags: /Odtp /ZI
; File x:\github\renegade\dragonade_rxd\scripts\engine_game.cpp
;	COMDAT ?Restore_Building@@YAXPAVScriptableGameObj@@@Z
_TEXT	SEGMENT
_Building$ = -4						; size = 4
_obj$ = 8						; size = 4
?Restore_Building@@YAXPAVScriptableGameObj@@@Z PROC	; Restore_Building, COMDAT

; 483  : {

	push	ebp
	mov	ebp, esp
	sub	esp, 68					; 00000044H
	push	ebx
	push	esi
	push	edi

; 484  : 	if (!obj) return;

	cmp	DWORD PTR _obj$[ebp], 0
	jne	SHORT $LN2@Restore_Bu
	jmp	SHORT $LN3@Restore_Bu
$LN2@Restore_Bu:

; 485  : 	BuildingGameObj *Building = obj->As_BuildingGameObj();

	mov	eax, DWORD PTR _obj$[ebp]
	mov	edx, DWORD PTR [eax]
	mov	ecx, DWORD PTR _obj$[ebp]
	mov	eax, DWORD PTR [edx+64]
	call	eax
	mov	DWORD PTR _Building$[ebp], eax

; 486  : 	if (Building)

	cmp	DWORD PTR _Building$[ebp], 0
	je	SHORT $LN3@Restore_Bu

; 487  : 	{
; 488  : 		Building->On_Revived();

	mov	eax, DWORD PTR _Building$[ebp]
	mov	edx, DWORD PTR [eax]
	mov	ecx, DWORD PTR _Building$[ebp]
	mov	eax, DWORD PTR [edx+156]
	call	eax
$LN3@Restore_Bu:

; 489  : 	}
; 490  : }

	pop	edi
	pop	esi
	pop	ebx
	mov	esp, ebp
	pop	ebp
	ret	0
?Restore_Building@@YAXPAVScriptableGameObj@@@Z ENDP	; Restore_Building
_TEXT	ENDS
; Function compile flags: /Odtp /ZI
; File x:\github\renegade\dragonade_rxd\scripts\engine_game.cpp
;	COMDAT ?Find_Shrine@@YAPAVScriptableGameObj@@H@Z
_TEXT	SEGMENT
_Team$ = 8						; size = 4
?Find_Shrine@@YAPAVScriptableGameObj@@H@Z PROC		; Find_Shrine, COMDAT

; 413  : {

	push	ebp
	mov	ebp, esp
	sub	esp, 64					; 00000040H
	push	ebx
	push	esi
	push	edi

; 414  : 	return Find_Building_By_Type(Team,BuildingConstants::TYPE_SHRINE);

	push	6
	mov	eax, DWORD PTR _Team$[ebp]
	push	eax
	call	?Find_Building_By_Type@@YAPAVScriptableGameObj@@HH@Z ; Find_Building_By_Type
	add	esp, 8

; 415  : }

	pop	edi
	pop	esi
	pop	ebx
	mov	esp, ebp
	pop	ebp
	ret	0
?Find_Shrine@@YAPAVScriptableGameObj@@H@Z ENDP		; Find_Shrine
_TEXT	ENDS
; Function compile flags: /Odtp /ZI
; File x:\github\renegade\dragonade_rxd\scripts\engine_game.cpp
;	COMDAT ?Find_Helipad@@YAPAVScriptableGameObj@@H@Z
_TEXT	SEGMENT
_Team$ = 8						; size = 4
?Find_Helipad@@YAPAVScriptableGameObj@@H@Z PROC		; Find_Helipad, COMDAT

; 418  : {

	push	ebp
	mov	ebp, esp
	sub	esp, 64					; 00000040H
	push	ebx
	push	esi
	push	edi

; 419  : 	return Find_Building_By_Type(Team,BuildingConstants::TYPE_HELIPAD);

	push	7
	mov	eax, DWORD PTR _Team$[ebp]
	push	eax
	call	?Find_Building_By_Type@@YAPAVScriptableGameObj@@HH@Z ; Find_Building_By_Type
	add	esp, 8

; 420  : }

	pop	edi
	pop	esi
	pop	ebx
	mov	esp, ebp
	pop	ebp
	ret	0
?Find_Helipad@@YAPAVScriptableGameObj@@H@Z ENDP		; Find_Helipad
_TEXT	ENDS
; Function compile flags: /Odtp /ZI
; File x:\github\renegade\dragonade_rxd\scripts\engine_game.cpp
;	COMDAT ?Find_Tech_Center@@YAPAVScriptableGameObj@@H@Z
_TEXT	SEGMENT
_Team$ = 8						; size = 4
?Find_Tech_Center@@YAPAVScriptableGameObj@@H@Z PROC	; Find_Tech_Center, COMDAT

; 423  : {

	push	ebp
	mov	ebp, esp
	sub	esp, 64					; 00000040H
	push	ebx
	push	esi
	push	edi

; 424  : 	return Find_Building_By_Type(Team,BuildingConstants::TYPE_TECH_CENTER);

	push	10					; 0000000aH
	mov	eax, DWORD PTR _Team$[ebp]
	push	eax
	call	?Find_Building_By_Type@@YAPAVScriptableGameObj@@HH@Z ; Find_Building_By_Type
	add	esp, 8

; 425  : }

	pop	edi
	pop	esi
	pop	ebx
	mov	esp, ebp
	pop	ebp
	ret	0
?Find_Tech_Center@@YAPAVScriptableGameObj@@H@Z ENDP	; Find_Tech_Center
_TEXT	ENDS
; Function compile flags: /Odtp /ZI
; File x:\github\renegade\dragonade_rxd\scripts\engine_game.cpp
;	COMDAT ?Find_Naval_Factory@@YAPAVScriptableGameObj@@H@Z
_TEXT	SEGMENT
_Team$ = 8						; size = 4
?Find_Naval_Factory@@YAPAVScriptableGameObj@@H@Z PROC	; Find_Naval_Factory, COMDAT

; 428  : {

	push	ebp
	mov	ebp, esp
	sub	esp, 64					; 00000040H
	push	ebx
	push	esi
	push	edi

; 429  : 	return Find_Building_By_Type(Team,BuildingConstants::TYPE_NAVAL_FACTORY);

	push	11					; 0000000bH
	mov	eax, DWORD PTR _Team$[ebp]
	push	eax
	call	?Find_Building_By_Type@@YAPAVScriptableGameObj@@HH@Z ; Find_Building_By_Type
	add	esp, 8

; 430  : }

	pop	edi
	pop	esi
	pop	ebx
	mov	esp, ebp
	pop	ebp
	ret	0
?Find_Naval_Factory@@YAPAVScriptableGameObj@@H@Z ENDP	; Find_Naval_Factory
_TEXT	ENDS
; Function compile flags: /Odtp /ZI
; File x:\github\renegade\dragonade_rxd\scripts\engine_game.cpp
;	COMDAT ?Find_Special@@YAPAVScriptableGameObj@@H@Z
_TEXT	SEGMENT
_Team$ = 8						; size = 4
?Find_Special@@YAPAVScriptableGameObj@@H@Z PROC		; Find_Special, COMDAT

; 433  : {

	push	ebp
	mov	ebp, esp
	sub	esp, 64					; 00000040H
	push	ebx
	push	esi
	push	edi

; 434  : 	return Find_Building_By_Type(Team,BuildingConstants::TYPE_SPECIAL);

	push	12					; 0000000cH
	mov	eax, DWORD PTR _Team$[ebp]
	push	eax
	call	?Find_Building_By_Type@@YAPAVScriptableGameObj@@HH@Z ; Find_Building_By_Type
	add	esp, 8

; 435  : }

	pop	edi
	pop	esi
	pop	ebx
	mov	esp, ebp
	pop	ebp
	ret	0
?Find_Special@@YAPAVScriptableGameObj@@H@Z ENDP		; Find_Special
_TEXT	ENDS
; Function compile flags: /Odtp /ZI
; File x:\github\renegade\dragonade_rxd\scripts\engine_game.cpp
;	COMDAT ?Find_Com_Center@@YAPAVScriptableGameObj@@H@Z
_TEXT	SEGMENT
_Team$ = 8						; size = 4
?Find_Com_Center@@YAPAVScriptableGameObj@@H@Z PROC	; Find_Com_Center, COMDAT

; 438  : {

	push	ebp
	mov	ebp, esp
	sub	esp, 64					; 00000040H
	push	ebx
	push	esi
	push	edi

; 439  : 	return Find_Building_By_Type(Team,BuildingConstants::TYPE_COM_CENTER);

	push	4
	mov	eax, DWORD PTR _Team$[ebp]
	push	eax
	call	?Find_Building_By_Type@@YAPAVScriptableGameObj@@HH@Z ; Find_Building_By_Type
	add	esp, 8

; 440  : }

	pop	edi
	pop	esi
	pop	ebx
	mov	esp, ebp
	pop	ebp
	ret	0
?Find_Com_Center@@YAPAVScriptableGameObj@@H@Z ENDP	; Find_Com_Center
_TEXT	ENDS
; Function compile flags: /Odtp /ZI
; File x:\github\renegade\dragonade_rxd\scripts\engine_game.cpp
;	COMDAT ?Find_Vehicle_Factory@@YAPAVScriptableGameObj@@H@Z
_TEXT	SEGMENT
_Team$ = 8						; size = 4
?Find_Vehicle_Factory@@YAPAVScriptableGameObj@@H@Z PROC	; Find_Vehicle_Factory, COMDAT

; 408  : {

	push	ebp
	mov	ebp, esp
	sub	esp, 64					; 00000040H
	push	ebx
	push	esi
	push	edi

; 409  : 	return Find_Building_By_Type(Team,BuildingConstants::TYPE_VEHICLE_FACTORY);

	push	2
	mov	eax, DWORD PTR _Team$[ebp]
	push	eax
	call	?Find_Building_By_Type@@YAPAVScriptableGameObj@@HH@Z ; Find_Building_By_Type
	add	esp, 8

; 410  : }

	pop	edi
	pop	esi
	pop	ebx
	mov	esp, ebp
	pop	ebp
	ret	0
?Find_Vehicle_Factory@@YAPAVScriptableGameObj@@H@Z ENDP	; Find_Vehicle_Factory
_TEXT	ENDS
; Function compile flags: /Odtp /ZI
; File x:\github\renegade\dragonade_rxd\scripts\engine_game.cpp
;	COMDAT ?Find_Soldier_Factory@@YAPAVScriptableGameObj@@H@Z
_TEXT	SEGMENT
_Team$ = 8						; size = 4
?Find_Soldier_Factory@@YAPAVScriptableGameObj@@H@Z PROC	; Find_Soldier_Factory, COMDAT

; 403  : {

	push	ebp
	mov	ebp, esp
	sub	esp, 64					; 00000040H
	push	ebx
	push	esi
	push	edi

; 404  : 	return Find_Building_By_Type(Team,BuildingConstants::TYPE_SOLDIER_FACTORY);

	push	1
	mov	eax, DWORD PTR _Team$[ebp]
	push	eax
	call	?Find_Building_By_Type@@YAPAVScriptableGameObj@@HH@Z ; Find_Building_By_Type
	add	esp, 8

; 405  : }

	pop	edi
	pop	esi
	pop	ebx
	mov	esp, ebp
	pop	ebp
	ret	0
?Find_Soldier_Factory@@YAPAVScriptableGameObj@@H@Z ENDP	; Find_Soldier_Factory
_TEXT	ENDS
; Function compile flags: /Odtp /ZI
; File x:\github\renegade\dragonade_rxd\scripts\engine_game.cpp
;	COMDAT ?Find_Repair_Bay@@YAPAVScriptableGameObj@@H@Z
_TEXT	SEGMENT
_Team$ = 8						; size = 4
?Find_Repair_Bay@@YAPAVScriptableGameObj@@H@Z PROC	; Find_Repair_Bay, COMDAT

; 398  : {

	push	ebp
	mov	ebp, esp
	sub	esp, 64					; 00000040H
	push	ebx
	push	esi
	push	edi

; 399  : 	return Find_Building_By_Type(Team,BuildingConstants::TYPE_REPAIR_BAY);

	push	5
	mov	eax, DWORD PTR _Team$[ebp]
	push	eax
	call	?Find_Building_By_Type@@YAPAVScriptableGameObj@@HH@Z ; Find_Building_By_Type
	add	esp, 8

; 400  : }

	pop	edi
	pop	esi
	pop	ebx
	mov	esp, ebp
	pop	ebp
	ret	0
?Find_Repair_Bay@@YAPAVScriptableGameObj@@H@Z ENDP	; Find_Repair_Bay
_TEXT	ENDS
; Function compile flags: /Odtp /ZI
; File x:\github\renegade\dragonade_rxd\scripts\engine_game.cpp
;	COMDAT ?Find_Refinery@@YAPAVScriptableGameObj@@H@Z
_TEXT	SEGMENT
_Team$ = 8						; size = 4
?Find_Refinery@@YAPAVScriptableGameObj@@H@Z PROC	; Find_Refinery, COMDAT

; 393  : {

	push	ebp
	mov	ebp, esp
	sub	esp, 64					; 00000040H
	push	ebx
	push	esi
	push	edi

; 394  : 	return Find_Building_By_Type(Team,BuildingConstants::TYPE_REFINERY);

	push	3
	mov	eax, DWORD PTR _Team$[ebp]
	push	eax
	call	?Find_Building_By_Type@@YAPAVScriptableGameObj@@HH@Z ; Find_Building_By_Type
	add	esp, 8

; 395  : }

	pop	edi
	pop	esi
	pop	ebx
	mov	esp, ebp
	pop	ebp
	ret	0
?Find_Refinery@@YAPAVScriptableGameObj@@H@Z ENDP	; Find_Refinery
_TEXT	ENDS
; Function compile flags: /Odtp /ZI
; File x:\github\renegade\dragonade_rxd\scripts\engine_game.cpp
;	COMDAT ?Find_Construction_Yard@@YAPAVScriptableGameObj@@H@Z
_TEXT	SEGMENT
_Team$ = 8						; size = 4
?Find_Construction_Yard@@YAPAVScriptableGameObj@@H@Z PROC ; Find_Construction_Yard, COMDAT

; 388  : {

	push	ebp
	mov	ebp, esp
	sub	esp, 64					; 00000040H
	push	ebx
	push	esi
	push	edi

; 389  : 	return Find_Building_By_Type(Team,BuildingConstants::TYPE_CONYARD);

	push	8
	mov	eax, DWORD PTR _Team$[ebp]
	push	eax
	call	?Find_Building_By_Type@@YAPAVScriptableGameObj@@HH@Z ; Find_Building_By_Type
	add	esp, 8

; 390  : }

	pop	edi
	pop	esi
	pop	ebx
	mov	esp, ebp
	pop	ebp
	ret	0
?Find_Construction_Yard@@YAPAVScriptableGameObj@@H@Z ENDP ; Find_Construction_Yard
_TEXT	ENDS
; Function compile flags: /Odtp /ZI
; File x:\github\renegade\dragonade_rxd\scripts\engine_game.cpp
;	COMDAT ?Find_Power_Plant@@YAPAVScriptableGameObj@@H@Z
_TEXT	SEGMENT
_Team$ = 8						; size = 4
?Find_Power_Plant@@YAPAVScriptableGameObj@@H@Z PROC	; Find_Power_Plant, COMDAT

; 383  : {

	push	ebp
	mov	ebp, esp
	sub	esp, 64					; 00000040H
	push	ebx
	push	esi
	push	edi

; 384  : 	return Find_Building_By_Type(Team,BuildingConstants::TYPE_POWER_PLANT);

	push	0
	mov	eax, DWORD PTR _Team$[ebp]
	push	eax
	call	?Find_Building_By_Type@@YAPAVScriptableGameObj@@HH@Z ; Find_Building_By_Type
	add	esp, 8

; 385  : }

	pop	edi
	pop	esi
	pop	ebx
	mov	esp, ebp
	pop	ebp
	ret	0
?Find_Power_Plant@@YAPAVScriptableGameObj@@H@Z ENDP	; Find_Power_Plant
_TEXT	ENDS
; Function compile flags: /Odtp /ZI
; File x:\github\renegade\dragonade_rxd\scripts\engine_game.cpp
;	COMDAT ?Find_Building_By_Preset@@YAPAVScriptableGameObj@@HPBD@Z
_TEXT	SEGMENT
_d$1 = -12						; size = 4
_o$2 = -8						; size = 4
_x$ = -4						; size = 4
_Team$ = 8						; size = 4
_Preset_Name$ = 12					; size = 4
?Find_Building_By_Preset@@YAPAVScriptableGameObj@@HPBD@Z PROC ; Find_Building_By_Preset, COMDAT

; 461  : {

	push	ebp
	mov	ebp, esp
	sub	esp, 76					; 0000004cH
	push	ebx
	push	esi
	push	edi

; 462  : 	SLNode<BuildingGameObj> *x = GameObjManager::BuildingGameObjList.Head();

	mov	ecx, DWORD PTR ?BuildingGameObjList@GameObjManager@@2AAV?$SList@VBuildingGameObj@@@@A ; GameObjManager::BuildingGameObjList
	call	?Head@?$SList@VBuildingGameObj@@@@QBEPAV?$SLNode@VBuildingGameObj@@@@XZ ; SList<BuildingGameObj>::Head
	mov	DWORD PTR _x$[ebp], eax
$LN6@Find_Build:

; 463  : 	while (x)

	cmp	DWORD PTR _x$[ebp], 0
	je	SHORT $LN5@Find_Build

; 464  : 	{
; 465  : 		GameObject *o = x->Data();

	mov	ecx, DWORD PTR _x$[ebp]
	call	?Data@?$SLNode@VBuildingGameObj@@@@QBEPAVBuildingGameObj@@XZ ; SLNode<BuildingGameObj>::Data
	mov	DWORD PTR _o$2[ebp], eax

; 466  : 		if (o)

	cmp	DWORD PTR _o$2[ebp], 0
	je	SHORT $LN4@Find_Build

; 467  : 		{
; 468  : 			const DefinitionClass *d = &o->Get_Definition();

	mov	ecx, DWORD PTR _o$2[ebp]
	call	?Get_Definition@ScriptableGameObj@@QBEABVScriptableGameObjDef@@XZ ; ScriptableGameObj::Get_Definition
	mov	DWORD PTR _d$1[ebp], eax

; 469  : 			if (!_stricmp(d->Get_Name(),Preset_Name))

	mov	eax, DWORD PTR _Preset_Name$[ebp]
	push	eax
	mov	ecx, DWORD PTR _d$1[ebp]
	mov	edx, DWORD PTR [ecx]
	mov	ecx, DWORD PTR _d$1[ebp]
	mov	eax, DWORD PTR [edx+48]
	call	eax
	push	eax
	call	DWORD PTR __imp___stricmp
	add	esp, 8
	test	eax, eax
	jne	SHORT $LN4@Find_Build

; 470  : 			{
; 471  : 				if ((Get_Object_Type(o) == Team) || (Team == 2))

	mov	eax, DWORD PTR _o$2[ebp]
	push	eax
	call	?Get_Object_Type@@YAHPAVScriptableGameObj@@@Z ; Get_Object_Type
	add	esp, 4
	cmp	eax, DWORD PTR _Team$[ebp]
	je	SHORT $LN1@Find_Build
	cmp	DWORD PTR _Team$[ebp], 2
	jne	SHORT $LN4@Find_Build
$LN1@Find_Build:

; 472  : 				{
; 473  : 					return o;

	mov	eax, DWORD PTR _o$2[ebp]
	jmp	SHORT $LN7@Find_Build
$LN4@Find_Build:

; 474  : 				}
; 475  : 			}
; 476  : 		}
; 477  : 		x = x->Next();

	mov	ecx, DWORD PTR _x$[ebp]
	call	?Next@?$SLNode@VBuildingGameObj@@@@QBEPAV1@XZ ; SLNode<BuildingGameObj>::Next
	mov	DWORD PTR _x$[ebp], eax

; 478  : 	}

	jmp	SHORT $LN6@Find_Build
$LN5@Find_Build:

; 479  : 	return 0;

	xor	eax, eax
$LN7@Find_Build:

; 480  : }

	pop	edi
	pop	esi
	pop	ebx
	mov	esp, ebp
	pop	ebp
	ret	0
?Find_Building_By_Preset@@YAPAVScriptableGameObj@@HPBD@Z ENDP ; Find_Building_By_Preset
_TEXT	ENDS
; Function compile flags: /Odtp /ZI
; File x:\github\renegade\dragonade_rxd\scripts\engine_game.cpp
;	COMDAT ?Find_Building_By_Team@@YAPAVScriptableGameObj@@H@Z
_TEXT	SEGMENT
_o$1 = -8						; size = 4
_x$ = -4						; size = 4
_Team$ = 8						; size = 4
?Find_Building_By_Team@@YAPAVScriptableGameObj@@H@Z PROC ; Find_Building_By_Team, COMDAT

; 443  : {

	push	ebp
	mov	ebp, esp
	sub	esp, 72					; 00000048H
	push	ebx
	push	esi
	push	edi

; 444  : 	SLNode<BuildingGameObj> *x = GameObjManager::BuildingGameObjList.Head();

	mov	ecx, DWORD PTR ?BuildingGameObjList@GameObjManager@@2AAV?$SList@VBuildingGameObj@@@@A ; GameObjManager::BuildingGameObjList
	call	?Head@?$SList@VBuildingGameObj@@@@QBEPAV?$SLNode@VBuildingGameObj@@@@XZ ; SList<BuildingGameObj>::Head
	mov	DWORD PTR _x$[ebp], eax
$LN4@Find_Build:

; 445  : 	while (x)

	cmp	DWORD PTR _x$[ebp], 0
	je	SHORT $LN3@Find_Build

; 446  : 	{
; 447  : 		GameObject *o = x->Data();

	mov	ecx, DWORD PTR _x$[ebp]
	call	?Data@?$SLNode@VBuildingGameObj@@@@QBEPAVBuildingGameObj@@XZ ; SLNode<BuildingGameObj>::Data
	mov	DWORD PTR _o$1[ebp], eax

; 448  : 		if (o)

	cmp	DWORD PTR _o$1[ebp], 0
	je	SHORT $LN2@Find_Build

; 449  : 		{
; 450  : 			if (Get_Object_Type(o) == Team)

	mov	eax, DWORD PTR _o$1[ebp]
	push	eax
	call	?Get_Object_Type@@YAHPAVScriptableGameObj@@@Z ; Get_Object_Type
	add	esp, 4
	cmp	eax, DWORD PTR _Team$[ebp]
	jne	SHORT $LN2@Find_Build

; 451  : 			{
; 452  : 				return o;

	mov	eax, DWORD PTR _o$1[ebp]
	jmp	SHORT $LN5@Find_Build
$LN2@Find_Build:

; 453  : 			}
; 454  : 		}
; 455  : 		x = x->Next();

	mov	ecx, DWORD PTR _x$[ebp]
	call	?Next@?$SLNode@VBuildingGameObj@@@@QBEPAV1@XZ ; SLNode<BuildingGameObj>::Next
	mov	DWORD PTR _x$[ebp], eax

; 456  : 	}

	jmp	SHORT $LN4@Find_Build
$LN3@Find_Build:

; 457  : 	return 0;

	xor	eax, eax
$LN5@Find_Build:

; 458  : }

	pop	edi
	pop	esi
	pop	ebx
	mov	esp, ebp
	pop	ebp
	ret	0
?Find_Building_By_Team@@YAPAVScriptableGameObj@@H@Z ENDP ; Find_Building_By_Team
_TEXT	ENDS
; Function compile flags: /Odtp /ZI
; File x:\github\renegade\dragonade_rxd\scripts\engine_game.cpp
;	COMDAT ?Get_Building_Count_Team@@YAHH@Z
_TEXT	SEGMENT
tv93 = -80						; size = 4
_o$1 = -12						; size = 4
_Count$ = -8						; size = 4
_x$ = -4						; size = 4
_Team$ = 8						; size = 4
?Get_Building_Count_Team@@YAHH@Z PROC			; Get_Building_Count_Team, COMDAT

; 345  : {

	push	ebp
	mov	ebp, esp
	sub	esp, 80					; 00000050H
	push	ebx
	push	esi
	push	edi

; 346  : 	SLNode<BuildingGameObj> *x = GameObjManager::BuildingGameObjList.Head();

	mov	ecx, DWORD PTR ?BuildingGameObjList@GameObjManager@@2AAV?$SList@VBuildingGameObj@@@@A ; GameObjManager::BuildingGameObjList
	call	?Head@?$SList@VBuildingGameObj@@@@QBEPAV?$SLNode@VBuildingGameObj@@@@XZ ; SList<BuildingGameObj>::Head
	mov	DWORD PTR _x$[ebp], eax

; 347  : 	int Count = 0;

	mov	DWORD PTR _Count$[ebp], 0
$LN4@Get_Buildi:

; 348  : 	while (x)

	cmp	DWORD PTR _x$[ebp], 0
	je	SHORT $LN3@Get_Buildi

; 349  : 	{
; 350  : 		GameObject *o = x->Data();

	mov	ecx, DWORD PTR _x$[ebp]
	call	?Data@?$SLNode@VBuildingGameObj@@@@QBEPAVBuildingGameObj@@XZ ; SLNode<BuildingGameObj>::Data
	mov	DWORD PTR _o$1[ebp], eax

; 351  : 		if (o && Commands->Get_Health(o) > 0 && (Get_Object_Type(o) == Team || Team == 2))

	cmp	DWORD PTR _o$1[ebp], 0
	je	SHORT $LN2@Get_Buildi
	mov	eax, DWORD PTR _o$1[ebp]
	push	eax
	mov	ecx, DWORD PTR ?Commands@@3PAUScriptCommands@@A ; Commands
	mov	edx, DWORD PTR [ecx+220]
	call	edx
	add	esp, 4
	fstp	DWORD PTR tv93[ebp]
	movss	xmm0, DWORD PTR tv93[ebp]
	comiss	xmm0, DWORD PTR __real@00000000
	jbe	SHORT $LN2@Get_Buildi
	mov	eax, DWORD PTR _o$1[ebp]
	push	eax
	call	?Get_Object_Type@@YAHPAVScriptableGameObj@@@Z ; Get_Object_Type
	add	esp, 4
	cmp	eax, DWORD PTR _Team$[ebp]
	je	SHORT $LN1@Get_Buildi
	cmp	DWORD PTR _Team$[ebp], 2
	jne	SHORT $LN2@Get_Buildi
$LN1@Get_Buildi:

; 352  : 		{
; 353  : 			Count++;

	mov	eax, DWORD PTR _Count$[ebp]
	add	eax, 1
	mov	DWORD PTR _Count$[ebp], eax
$LN2@Get_Buildi:

; 354  : 		}
; 355  : 		x = x->Next();

	mov	ecx, DWORD PTR _x$[ebp]
	call	?Next@?$SLNode@VBuildingGameObj@@@@QBEPAV1@XZ ; SLNode<BuildingGameObj>::Next
	mov	DWORD PTR _x$[ebp], eax

; 356  : 	}

	jmp	SHORT $LN4@Get_Buildi
$LN3@Get_Buildi:

; 357  : 	return Count;

	mov	eax, DWORD PTR _Count$[ebp]

; 358  : }

	pop	edi
	pop	esi
	pop	ebx
	mov	esp, ebp
	pop	ebp
	ret	0
?Get_Building_Count_Team@@YAHH@Z ENDP			; Get_Building_Count_Team
_TEXT	ENDS
; Function compile flags: /Odtp /ZI
; File x:\github\renegade\dragonade_rxd\scripts\engine_game.cpp
;	COMDAT ?The_Single_Player_Game@@YAPAVcGameDataSinglePlayer@@XZ
_TEXT	SEGMENT
?The_Single_Player_Game@@YAPAVcGameDataSinglePlayer@@XZ PROC ; The_Single_Player_Game, COMDAT

; 82   : AT2(0x00477CB0,0x00477380);

$AT3PatchStart$3:
	push	ecx
	push	edx
	push	OFFSET $AT3PatchStart$3
	push	0
	push	4682624					; 00477380H
	push	4684976					; 00477cb0H
	call	?HookupAT3@@YAPAXPAX000@Z		; HookupAT3
	add	esp, 16					; 00000010H
	pop	edx
	pop	ecx
	jmp	eax
?The_Single_Player_Game@@YAPAVcGameDataSinglePlayer@@XZ ENDP ; The_Single_Player_Game
_TEXT	ENDS
; Function compile flags: /Odtp /ZI
; File x:\github\renegade\dragonade_rxd\scripts\engine_game.cpp
;	COMDAT ?The_Cnc_Game@@YAPAVcGameDataCnc@@XZ
_TEXT	SEGMENT
?The_Cnc_Game@@YAPAVcGameDataCnc@@XZ PROC		; The_Cnc_Game, COMDAT

; 79   : AT2(0x00477CD0,0x004773A0);

$AT3PatchStart$3:
	push	ecx
	push	edx
	push	OFFSET $AT3PatchStart$3
	push	0
	push	4682656					; 004773a0H
	push	4685008					; 00477cd0H
	call	?HookupAT3@@YAPAXPAX000@Z		; HookupAT3
	add	esp, 16					; 00000010H
	pop	edx
	pop	ecx
	jmp	eax
?The_Cnc_Game@@YAPAVcGameDataCnc@@XZ ENDP		; The_Cnc_Game
_TEXT	ENDS
; Function compile flags: /Odtp /ZI
; File x:\github\renegade\dragonade_rxd\scripts\engine_game.cpp
;	COMDAT ?The_Skirmish_Game@@YAPAVcGameDataSkirmish@@XZ
_TEXT	SEGMENT
?The_Skirmish_Game@@YAPAVcGameDataSkirmish@@XZ PROC	; The_Skirmish_Game, COMDAT

; 76   : AT2(0x00477CC0,0x00477390);

$AT3PatchStart$3:
	push	ecx
	push	edx
	push	OFFSET $AT3PatchStart$3
	push	0
	push	4682640					; 00477390H
	push	4684992					; 00477cc0H
	call	?HookupAT3@@YAPAXPAX000@Z		; HookupAT3
	add	esp, 16					; 00000010H
	pop	edx
	pop	ecx
	jmp	eax
?The_Skirmish_Game@@YAPAVcGameDataSkirmish@@XZ ENDP	; The_Skirmish_Game
_TEXT	ENDS
; Function compile flags: /Odtp /ZI
; File x:\github\renegade\dragonade_rxd\scripts\engine_game.cpp
;	COMDAT ?The_Game@@YAPAVcGameData@@XZ
_TEXT	SEGMENT
?The_Game@@YAPAVcGameData@@XZ PROC			; The_Game, COMDAT

; 34   : AT2(0x00477CA0,0x00477370);

$AT3PatchStart$3:
	push	ecx
	push	edx
	push	OFFSET $AT3PatchStart$3
	push	0
	push	4682608					; 00477370H
	push	4684960					; 00477ca0H
	call	?HookupAT3@@YAPAXPAX000@Z		; HookupAT3
	add	esp, 16					; 00000010H
	pop	edx
	pop	ecx
	jmp	eax
?The_Game@@YAPAVcGameData@@XZ ENDP			; The_Game
_TEXT	ENDS
; Function compile flags: /Odtp /ZI
; File x:\github\renegade\dragonade_rxd\scripts\engine_game.cpp
;	COMDAT ?Can_Generate_Soldiers@@YA_NH@Z
_TEXT	SEGMENT
_c$1 = -4						; size = 4
_team$ = 8						; size = 4
?Can_Generate_Soldiers@@YA_NH@Z PROC			; Can_Generate_Soldiers, COMDAT

; 338  : {

	push	ebp
	mov	ebp, esp
	sub	esp, 68					; 00000044H
	push	ebx
	push	esi
	push	edi

; 339  : 	if ( BaseControllerClass *c = BaseControllerClass::Find_Base(team) )

	mov	eax, DWORD PTR _team$[ebp]
	push	eax
	call	?Find_Base@BaseControllerClass@@SAPAV1@H@Z ; BaseControllerClass::Find_Base
	add	esp, 4
	mov	DWORD PTR _c$1[ebp], eax
	cmp	DWORD PTR _c$1[ebp], 0
	je	SHORT $LN1@Can_Genera

; 340  : 		return c->Can_Generate_Soldiers();

	mov	ecx, DWORD PTR _c$1[ebp]
	call	?Can_Generate_Soldiers@BaseControllerClass@@QBE_NXZ ; BaseControllerClass::Can_Generate_Soldiers
	jmp	SHORT $LN2@Can_Genera
$LN1@Can_Genera:

; 341  : 	return false;

	xor	al, al
$LN2@Can_Genera:

; 342  : }

	pop	edi
	pop	esi
	pop	ebx
	mov	esp, ebp
	pop	ebp
	ret	0
?Can_Generate_Soldiers@@YA_NH@Z ENDP			; Can_Generate_Soldiers
_TEXT	ENDS
; Function compile flags: /Odtp /ZI
; File x:\github\renegade\dragonade_rxd\scripts\engine_game.cpp
;	COMDAT ?Can_Generate_Vehicles@@YA_NH@Z
_TEXT	SEGMENT
_c$ = -4						; size = 4
_team$ = 8						; size = 4
?Can_Generate_Vehicles@@YA_NH@Z PROC			; Can_Generate_Vehicles, COMDAT

; 328  : {

	push	ebp
	mov	ebp, esp
	sub	esp, 68					; 00000044H
	push	ebx
	push	esi
	push	edi

; 329  : 	BaseControllerClass *c = BaseControllerClass::Find_Base(team);

	mov	eax, DWORD PTR _team$[ebp]
	push	eax
	call	?Find_Base@BaseControllerClass@@SAPAV1@H@Z ; BaseControllerClass::Find_Base
	add	esp, 4
	mov	DWORD PTR _c$[ebp], eax

; 330  : 	if (c)

	cmp	DWORD PTR _c$[ebp], 0
	je	SHORT $LN1@Can_Genera

; 331  : 	{
; 332  : 		return c->Can_Generate_Vehicles();

	mov	ecx, DWORD PTR _c$[ebp]
	call	?Can_Generate_Vehicles@BaseControllerClass@@QBE_NXZ ; BaseControllerClass::Can_Generate_Vehicles
	jmp	SHORT $LN2@Can_Genera
$LN1@Can_Genera:

; 333  : 	}
; 334  : 	return false;

	xor	al, al
$LN2@Can_Genera:

; 335  : }

	pop	edi
	pop	esi
	pop	ebx
	mov	esp, ebp
	pop	ebp
	ret	0
?Can_Generate_Vehicles@@YA_NH@Z ENDP			; Can_Generate_Vehicles
_TEXT	ENDS
; Function compile flags: /Odtp /ZI
; File x:\github\renegade\dragonade_rxd\scripts\engine_game.cpp
;	COMDAT ?Is_Base_Powered@@YA_NH@Z
_TEXT	SEGMENT
_c$ = -4						; size = 4
_team$ = 8						; size = 4
?Is_Base_Powered@@YA_NH@Z PROC				; Is_Base_Powered, COMDAT

; 318  : {

	push	ebp
	mov	ebp, esp
	sub	esp, 68					; 00000044H
	push	ebx
	push	esi
	push	edi

; 319  : 	BaseControllerClass *c = BaseControllerClass::Find_Base(team);

	mov	eax, DWORD PTR _team$[ebp]
	push	eax
	call	?Find_Base@BaseControllerClass@@SAPAV1@H@Z ; BaseControllerClass::Find_Base
	add	esp, 4
	mov	DWORD PTR _c$[ebp], eax

; 320  : 	if (c)

	cmp	DWORD PTR _c$[ebp], 0
	je	SHORT $LN1@Is_Base_Po

; 321  : 	{
; 322  : 		return c->Is_Base_Powered();

	mov	ecx, DWORD PTR _c$[ebp]
	call	?Is_Base_Powered@BaseControllerClass@@QBE_NXZ ; BaseControllerClass::Is_Base_Powered
	jmp	SHORT $LN2@Is_Base_Po
$LN1@Is_Base_Po:

; 323  : 	}
; 324  : 	return false;

	xor	al, al
$LN2@Is_Base_Po:

; 325  : }

	pop	edi
	pop	esi
	pop	ebx
	mov	esp, ebp
	pop	ebp
	ret	0
?Is_Base_Powered@@YA_NH@Z ENDP				; Is_Base_Powered
_TEXT	ENDS
; Function compile flags: /Odtp /ZI
; File x:\github\renegade\dragonade_rxd\scripts\engine_game.cpp
;	COMDAT ?Find_Harvester@@YAPAVScriptableGameObj@@H@Z
_TEXT	SEGMENT
_o$ = -8						; size = 4
_c$ = -4						; size = 4
_team$ = 8						; size = 4
?Find_Harvester@@YAPAVScriptableGameObj@@H@Z PROC	; Find_Harvester, COMDAT

; 307  : {

	push	ebp
	mov	ebp, esp
	sub	esp, 72					; 00000048H
	push	ebx
	push	esi
	push	edi

; 308  : 	BaseControllerClass *c = BaseControllerClass::Find_Base(team);

	mov	eax, DWORD PTR _team$[ebp]
	push	eax
	call	?Find_Base@BaseControllerClass@@SAPAV1@H@Z ; BaseControllerClass::Find_Base
	add	esp, 4
	mov	DWORD PTR _c$[ebp], eax

; 309  : 	GameObject *o = 0;

	mov	DWORD PTR _o$[ebp], 0

; 310  : 	if (c)

	cmp	DWORD PTR _c$[ebp], 0
	je	SHORT $LN1@Find_Harve

; 311  : 	{
; 312  : 		o = c->Get_Harvester_Vehicle();

	mov	ecx, DWORD PTR _c$[ebp]
	call	?Get_Harvester_Vehicle@BaseControllerClass@@QAEPAVVehicleGameObj@@XZ ; BaseControllerClass::Get_Harvester_Vehicle
	mov	DWORD PTR _o$[ebp], eax
$LN1@Find_Harve:

; 313  : 	}
; 314  : 	return o;

	mov	eax, DWORD PTR _o$[ebp]

; 315  : }

	pop	edi
	pop	esi
	pop	ebx
	mov	esp, ebp
	pop	ebp
	ret	0
?Find_Harvester@@YAPAVScriptableGameObj@@H@Z ENDP	; Find_Harvester
_TEXT	ENDS
; Function compile flags: /Odtp /ZI
; File x:\github\renegade\dragonade_rxd\scripts\engine_game.cpp
;	COMDAT ?Create_Building@@YAPAVScriptableGameObj@@PBDABVVector3@@@Z
_TEXT	SEGMENT
_c$1 = -12						; size = 4
_obj$ = -8						; size = 4
_d$ = -4						; size = 4
_preset$ = 8						; size = 4
_Position$ = 12						; size = 4
?Create_Building@@YAPAVScriptableGameObj@@PBDABVVector3@@@Z PROC ; Create_Building, COMDAT

; 266  : {

	push	ebp
	mov	ebp, esp
	sub	esp, 76					; 0000004cH
	push	ebx
	push	esi
	push	edi

; 267  : 	DefinitionClass *d = Find_Named_Definition(preset);

	mov	eax, DWORD PTR _preset$[ebp]
	push	eax
	call	?Find_Named_Definition@@YAPAVDefinitionClass@@PBD@Z ; Find_Named_Definition
	add	esp, 4
	mov	DWORD PTR _d$[ebp], eax

; 268  : 	if(!d)

	cmp	DWORD PTR _d$[ebp], 0
	jne	SHORT $LN3@Create_Bui

; 269  : 	{
; 270  : 		return 0;

	xor	eax, eax
	jmp	SHORT $LN4@Create_Bui
$LN3@Create_Bui:

; 271  : 	}
; 272  : 	GameObject *obj = (GameObject *)d->Create();

	mov	eax, DWORD PTR _d$[ebp]
	mov	edx, DWORD PTR [eax]
	mov	ecx, DWORD PTR _d$[ebp]
	mov	eax, DWORD PTR [edx+44]
	call	eax
	mov	DWORD PTR _obj$[ebp], eax

; 273  : 	
; 274  : 	if (obj)

	cmp	DWORD PTR _obj$[ebp], 0
	je	SHORT $LN2@Create_Bui

; 275  : 	{
; 276  : 		BuildingGameObj *c = obj->As_BuildingGameObj();

	mov	eax, DWORD PTR _obj$[ebp]
	mov	edx, DWORD PTR [eax]
	mov	ecx, DWORD PTR _obj$[ebp]
	mov	eax, DWORD PTR [edx+64]
	call	eax
	mov	DWORD PTR _c$1[ebp], eax

; 277  : 		if (c)

	cmp	DWORD PTR _c$1[ebp], 0
	je	SHORT $LN2@Create_Bui

; 278  : 		{
; 279  : 			c->Set_Position(Position);

	mov	eax, DWORD PTR _Position$[ebp]
	push	eax
	mov	ecx, DWORD PTR _c$1[ebp]
	call	?Set_Position@BuildingGameObj@@QAEXABVVector3@@@Z ; BuildingGameObj::Set_Position

; 280  : 			c->Collect_Building_Components();

	mov	ecx, DWORD PTR _c$1[ebp]
	call	?Collect_Building_Components@BuildingGameObj@@QAEXXZ ; BuildingGameObj::Collect_Building_Components

; 281  : 			c->Start_Observers();

	mov	ecx, DWORD PTR _c$1[ebp]
	call	?Start_Observers@ScriptableGameObj@@QAEXXZ ; ScriptableGameObj::Start_Observers

; 282  : 			return c;

	mov	eax, DWORD PTR _c$1[ebp]
	jmp	SHORT $LN4@Create_Bui
$LN2@Create_Bui:

; 283  : 		}
; 284  : 	}
; 285  : 	return 0;

	xor	eax, eax
$LN4@Create_Bui:

; 286  : }

	pop	edi
	pop	esi
	pop	ebx
	mov	esp, ebp
	pop	ebp
	ret	0
?Create_Building@@YAPAVScriptableGameObj@@PBDABVVector3@@@Z ENDP ; Create_Building
_TEXT	ENDS
; Function compile flags: /Odtp /ZI
; File x:\github\renegade\dragonade_rxd\scripts\engine_game.cpp
;	COMDAT ?Is_Map_Flying@@YA_NXZ
_TEXT	SEGMENT
tv68 = -68						; size = 4
?Is_Map_Flying@@YA_NXZ PROC				; Is_Map_Flying, COMDAT

; 261  : {

	push	ebp
	mov	ebp, esp
	sub	esp, 68					; 00000044H
	push	ebx
	push	esi
	push	edi

; 262  : 	return IsMapVTOL || AllMapsAreFlying;

	mov	eax, DWORD PTR ?IsMapVTOL@@3AA_NA	; IsMapVTOL
	movzx	ecx, BYTE PTR [eax]
	test	ecx, ecx
	jne	SHORT $LN3@Is_Map_Fly
	movzx	edx, BYTE PTR ?AllMapsAreFlying@@3_NA	; AllMapsAreFlying
	test	edx, edx
	jne	SHORT $LN3@Is_Map_Fly
	mov	DWORD PTR tv68[ebp], 0
	jmp	SHORT $LN4@Is_Map_Fly
$LN3@Is_Map_Fly:
	mov	DWORD PTR tv68[ebp], 1
$LN4@Is_Map_Fly:
	mov	al, BYTE PTR tv68[ebp]

; 263  : }

	pop	edi
	pop	esi
	pop	ebx
	mov	esp, ebp
	pop	ebp
	ret	0
?Is_Map_Flying@@YA_NXZ ENDP				; Is_Map_Flying
_TEXT	ENDS
; Function compile flags: /Odtp /ZI
; File x:\github\renegade\dragonade_rxd\scripts\engine_game.cpp
;	COMDAT ?Find_Base_Defense@@YAPAVScriptableGameObj@@H@Z
_TEXT	SEGMENT
_c$ = -4						; size = 4
_team$ = 8						; size = 4
?Find_Base_Defense@@YAPAVScriptableGameObj@@H@Z PROC	; Find_Base_Defense, COMDAT

; 251  : {

	push	ebp
	mov	ebp, esp
	sub	esp, 68					; 00000044H
	push	ebx
	push	esi
	push	edi

; 252  : 	BaseControllerClass *c = BaseControllerClass::Find_Base(team);

	mov	eax, DWORD PTR _team$[ebp]
	push	eax
	call	?Find_Base@BaseControllerClass@@SAPAV1@H@Z ; BaseControllerClass::Find_Base
	add	esp, 4
	mov	DWORD PTR _c$[ebp], eax

; 253  : 	if (c)

	cmp	DWORD PTR _c$[ebp], 0
	je	SHORT $LN1@Find_Base_

; 254  : 	{
; 255  : 		return c->Find_Building(BuildingConstants::TYPE_BASE_DEFENSE);

	push	9
	mov	ecx, DWORD PTR _c$[ebp]
	call	?Find_Building@BaseControllerClass@@QAEPAVBuildingGameObj@@I@Z ; BaseControllerClass::Find_Building
	jmp	SHORT $LN2@Find_Base_
$LN1@Find_Base_:

; 256  : 	}
; 257  : 	return 0;

	xor	eax, eax
$LN2@Find_Base_:

; 258  : }

	pop	edi
	pop	esi
	pop	ebx
	mov	esp, ebp
	pop	ebp
	ret	0
?Find_Base_Defense@@YAPAVScriptableGameObj@@H@Z ENDP	; Find_Base_Defense
_TEXT	ENDS
; Function compile flags: /Odtp /ZI
; File x:\github\renegade\dragonade_rxd\scripts\engine_game.cpp
;	COMDAT ?Find_Building_By_Type@@YAPAVScriptableGameObj@@HH@Z
_TEXT	SEGMENT
_c$ = -4						; size = 4
_team$ = 8						; size = 4
_type$ = 12						; size = 4
?Find_Building_By_Type@@YAPAVScriptableGameObj@@HH@Z PROC ; Find_Building_By_Type, COMDAT

; 241  : {

	push	ebp
	mov	ebp, esp
	sub	esp, 68					; 00000044H
	push	ebx
	push	esi
	push	edi

; 242  : 	BaseControllerClass *c = BaseControllerClass::Find_Base(team);

	mov	eax, DWORD PTR _team$[ebp]
	push	eax
	call	?Find_Base@BaseControllerClass@@SAPAV1@H@Z ; BaseControllerClass::Find_Base
	add	esp, 4
	mov	DWORD PTR _c$[ebp], eax

; 243  : 	if (c)

	cmp	DWORD PTR _c$[ebp], 0
	je	SHORT $LN1@Find_Build

; 244  : 	{
; 245  : 		return c->Find_Building(type);

	mov	eax, DWORD PTR _type$[ebp]
	push	eax
	mov	ecx, DWORD PTR _c$[ebp]
	call	?Find_Building@BaseControllerClass@@QAEPAVBuildingGameObj@@I@Z ; BaseControllerClass::Find_Building
	jmp	SHORT $LN2@Find_Build
$LN1@Find_Build:

; 246  : 	}
; 247  : 	return 0;

	xor	eax, eax
$LN2@Find_Build:

; 248  : }

	pop	edi
	pop	esi
	pop	ebx
	mov	esp, ebp
	pop	ebp
	ret	0
?Find_Building_By_Type@@YAPAVScriptableGameObj@@HH@Z ENDP ; Find_Building_By_Type
_TEXT	ENDS
; Function compile flags: /Odtp /ZI
; File x:\github\renegade\dragonade_rxd\scripts\engine_game.cpp
;	COMDAT ?Is_Building_Dead@@YA_NPAVScriptableGameObj@@@Z
_TEXT	SEGMENT
_o$ = -4						; size = 4
_obj$ = 8						; size = 4
?Is_Building_Dead@@YA_NPAVScriptableGameObj@@@Z PROC	; Is_Building_Dead, COMDAT

; 227  : {

	push	ebp
	mov	ebp, esp
	sub	esp, 68					; 00000044H
	push	ebx
	push	esi
	push	edi

; 228  : 	if (!obj)

	cmp	DWORD PTR _obj$[ebp], 0
	jne	SHORT $LN2@Is_Buildin

; 229  : 	{
; 230  : 		return 0;

	xor	al, al
	jmp	SHORT $LN3@Is_Buildin
$LN2@Is_Buildin:

; 231  : 	}
; 232  : 	BuildingGameObj *o = obj->As_BuildingGameObj();

	mov	eax, DWORD PTR _obj$[ebp]
	mov	edx, DWORD PTR [eax]
	mov	ecx, DWORD PTR _obj$[ebp]
	mov	eax, DWORD PTR [edx+64]
	call	eax
	mov	DWORD PTR _o$[ebp], eax

; 233  : 	if (!o)

	cmp	DWORD PTR _o$[ebp], 0
	jne	SHORT $LN1@Is_Buildin

; 234  : 	{
; 235  : 		return 0;

	xor	al, al
	jmp	SHORT $LN3@Is_Buildin
$LN1@Is_Buildin:

; 236  : 	}
; 237  : 	return o->Is_Destroyed();

	mov	ecx, DWORD PTR _o$[ebp]
	call	?Is_Destroyed@BuildingGameObj@@QBE_NXZ	; BuildingGameObj::Is_Destroyed
$LN3@Is_Buildin:

; 238  : }

	pop	edi
	pop	esi
	pop	ebx
	mov	esp, ebp
	pop	ebp
	ret	0
?Is_Building_Dead@@YA_NPAVScriptableGameObj@@@Z ENDP	; Is_Building_Dead
_TEXT	ENDS
; Function compile flags: /Odtp /ZI
; File x:\github\renegade\dragonade_rxd\scripts\engine_game.cpp
;	COMDAT ?Building_Type@@YAHPAVScriptableGameObj@@@Z
_TEXT	SEGMENT
_d$ = -8						; size = 4
_o$ = -4						; size = 4
_obj$ = 8						; size = 4
?Building_Type@@YAHPAVScriptableGameObj@@@Z PROC	; Building_Type, COMDAT

; 212  : {

	push	ebp
	mov	ebp, esp
	sub	esp, 72					; 00000048H
	push	ebx
	push	esi
	push	edi

; 213  : 	if (!obj)

	cmp	DWORD PTR _obj$[ebp], 0
	jne	SHORT $LN2@Building_T

; 214  : 	{
; 215  : 		return 0;

	xor	eax, eax
	jmp	SHORT $LN3@Building_T
$LN2@Building_T:

; 216  : 	}
; 217  : 	BuildingGameObj *o = obj->As_BuildingGameObj();

	mov	eax, DWORD PTR _obj$[ebp]
	mov	edx, DWORD PTR [eax]
	mov	ecx, DWORD PTR _obj$[ebp]
	mov	eax, DWORD PTR [edx+64]
	call	eax
	mov	DWORD PTR _o$[ebp], eax

; 218  : 	if (!o)

	cmp	DWORD PTR _o$[ebp], 0
	jne	SHORT $LN1@Building_T

; 219  : 	{
; 220  : 		return 0;

	xor	eax, eax
	jmp	SHORT $LN3@Building_T
$LN1@Building_T:

; 221  : 	}
; 222  : 	const BuildingGameObjDef &d = o->Get_Definition();

	mov	ecx, DWORD PTR _o$[ebp]
	call	?Get_Definition@BuildingGameObj@@QBEABVBuildingGameObjDef@@XZ ; BuildingGameObj::Get_Definition
	mov	DWORD PTR _d$[ebp], eax

; 223  : 	return d.Get_Type();

	mov	ecx, DWORD PTR _d$[ebp]
	call	?Get_Type@BuildingGameObjDef@@QBE?AW4BuildingType@BuildingConstants@@XZ ; BuildingGameObjDef::Get_Type
$LN3@Building_T:

; 224  : }

	pop	edi
	pop	esi
	pop	ebx
	mov	esp, ebp
	pop	ebp
	ret	0
?Building_Type@@YAHPAVScriptableGameObj@@@Z ENDP	; Building_Type
_TEXT	ENDS
; Function compile flags: /Odtp /ZI
; File x:\github\renegade\dragonade_rxd\scripts\engine_game.cpp
;	COMDAT ?Is_Radar_Enabled@@YA_NH@Z
_TEXT	SEGMENT
_c$ = -4						; size = 4
_team$ = 8						; size = 4
?Is_Radar_Enabled@@YA_NH@Z PROC				; Is_Radar_Enabled, COMDAT

; 202  : {

	push	ebp
	mov	ebp, esp
	sub	esp, 68					; 00000044H
	push	ebx
	push	esi
	push	edi

; 203  : 	BaseControllerClass *c = BaseControllerClass::Find_Base(team);

	mov	eax, DWORD PTR _team$[ebp]
	push	eax
	call	?Find_Base@BaseControllerClass@@SAPAV1@H@Z ; BaseControllerClass::Find_Base
	add	esp, 4
	mov	DWORD PTR _c$[ebp], eax

; 204  : 	if (c)

	cmp	DWORD PTR _c$[ebp], 0
	je	SHORT $LN1@Is_Radar_E

; 205  : 	{
; 206  : 		return c->Is_Radar_Enabled();

	mov	ecx, DWORD PTR _c$[ebp]
	call	?Is_Radar_Enabled@BaseControllerClass@@QBE_NXZ ; BaseControllerClass::Is_Radar_Enabled
	jmp	SHORT $LN2@Is_Radar_E
$LN1@Is_Radar_E:

; 207  : 	}
; 208  : 	return false;

	xor	al, al
$LN2@Is_Radar_E:

; 209  : }

	pop	edi
	pop	esi
	pop	ebx
	mov	esp, ebp
	pop	ebp
	ret	0
?Is_Radar_Enabled@@YA_NH@Z ENDP				; Is_Radar_Enabled
_TEXT	ENDS
; Function compile flags: /Odtp /ZI
; File x:\github\renegade\dragonade_rxd\scripts\engine_game.cpp
;	COMDAT ?Is_Harvester@@YA_NPAVScriptableGameObj@@@Z
_TEXT	SEGMENT
_obj$ = 8						; size = 4
?Is_Harvester@@YA_NPAVScriptableGameObj@@@Z PROC	; Is_Harvester, COMDAT

; 189  : {

	push	ebp
	mov	ebp, esp
	sub	esp, 64					; 00000040H
	push	ebx
	push	esi
	push	edi

; 190  : 	if (!obj)

	cmp	DWORD PTR _obj$[ebp], 0
	jne	SHORT $LN3@Is_Harvest

; 191  : 	{
; 192  : 		return false;

	xor	al, al
	jmp	SHORT $LN4@Is_Harvest
$LN3@Is_Harvest:

; 193  : 	}
; 194  : 	if (Find_Harvester(0) == obj || Find_Harvester(1) == obj)

	push	0
	call	?Find_Harvester@@YAPAVScriptableGameObj@@H@Z ; Find_Harvester
	add	esp, 4
	cmp	eax, DWORD PTR _obj$[ebp]
	je	SHORT $LN1@Is_Harvest
	push	1
	call	?Find_Harvester@@YAPAVScriptableGameObj@@H@Z ; Find_Harvester
	add	esp, 4
	cmp	eax, DWORD PTR _obj$[ebp]
	jne	SHORT $LN2@Is_Harvest
$LN1@Is_Harvest:

; 195  : 	{
; 196  : 		return true;

	mov	al, 1
	jmp	SHORT $LN4@Is_Harvest
$LN2@Is_Harvest:

; 197  : 	}
; 198  : 	return false;

	xor	al, al
$LN4@Is_Harvest:

; 199  : }

	pop	edi
	pop	esi
	pop	ebx
	mov	esp, ebp
	pop	ebp
	ret	0
?Is_Harvester@@YA_NPAVScriptableGameObj@@@Z ENDP	; Is_Harvester
_TEXT	ENDS
; Function compile flags: /Odtp /ZI
; File x:\github\renegade\dragonade_rxd\scripts\engine_game.cpp
;	COMDAT ?Enable_Base_Radar@@YAXH_N@Z
_TEXT	SEGMENT
_c$ = -4						; size = 4
_team$ = 8						; size = 4
_enable$ = 12						; size = 1
?Enable_Base_Radar@@YAXH_N@Z PROC			; Enable_Base_Radar, COMDAT

; 180  : {

	push	ebp
	mov	ebp, esp
	sub	esp, 68					; 00000044H
	push	ebx
	push	esi
	push	edi

; 181  : 	BaseControllerClass *c = BaseControllerClass::Find_Base(team);

	mov	eax, DWORD PTR _team$[ebp]
	push	eax
	call	?Find_Base@BaseControllerClass@@SAPAV1@H@Z ; BaseControllerClass::Find_Base
	add	esp, 4
	mov	DWORD PTR _c$[ebp], eax

; 182  : 	if (c)

	cmp	DWORD PTR _c$[ebp], 0
	je	SHORT $LN2@Enable_Bas

; 183  : 	{
; 184  : 		c->Enable_Radar(enable);

	movzx	eax, BYTE PTR _enable$[ebp]
	push	eax
	mov	ecx, DWORD PTR _c$[ebp]
	call	?Enable_Radar@BaseControllerClass@@QAEX_N@Z ; BaseControllerClass::Enable_Radar
$LN2@Enable_Bas:

; 185  : 	}
; 186  : }

	pop	edi
	pop	esi
	pop	ebx
	mov	esp, ebp
	pop	ebp
	ret	0
?Enable_Base_Radar@@YAXH_N@Z ENDP			; Enable_Base_Radar
_TEXT	ENDS
; Function compile flags: /Odtp /ZI
; File x:\github\renegade\dragonade_rxd\scripts\engine_game.cpp
;	COMDAT ?Beacon_Destroyed_Base@@YAXH_N@Z
_TEXT	SEGMENT
_c$ = -4						; size = 4
_team$ = 8						; size = 4
_destroyed$ = 12					; size = 1
?Beacon_Destroyed_Base@@YAXH_N@Z PROC			; Beacon_Destroyed_Base, COMDAT

; 171  : {

	push	ebp
	mov	ebp, esp
	sub	esp, 68					; 00000044H
	push	ebx
	push	esi
	push	edi

; 172  : 	BaseControllerClass *c = BaseControllerClass::Find_Base(team);

	mov	eax, DWORD PTR _team$[ebp]
	push	eax
	call	?Find_Base@BaseControllerClass@@SAPAV1@H@Z ; BaseControllerClass::Find_Base
	add	esp, 4
	mov	DWORD PTR _c$[ebp], eax

; 173  : 	if (c)

	cmp	DWORD PTR _c$[ebp], 0
	je	SHORT $LN2@Beacon_Des

; 174  : 	{
; 175  : 		c->Set_Beacon_Destroyed_Base(destroyed);

	movzx	eax, BYTE PTR _destroyed$[ebp]
	push	eax
	mov	ecx, DWORD PTR _c$[ebp]
	call	?Set_Beacon_Destroyed_Base@BaseControllerClass@@QAEX_N@Z ; BaseControllerClass::Set_Beacon_Destroyed_Base
$LN2@Beacon_Des:

; 176  : 	}
; 177  : }

	pop	edi
	pop	esi
	pop	ebx
	mov	esp, ebp
	pop	ebp
	ret	0
?Beacon_Destroyed_Base@@YAXH_N@Z ENDP			; Beacon_Destroyed_Base
_TEXT	ENDS
; Function compile flags: /Odtp /ZI
; File x:\github\renegade\dragonade_rxd\scripts\engine_game.cpp
;	COMDAT ?Destroy_Base@@YAXH@Z
_TEXT	SEGMENT
_c$ = -4						; size = 4
_team$ = 8						; size = 4
?Destroy_Base@@YAXH@Z PROC				; Destroy_Base, COMDAT

; 162  : {

	push	ebp
	mov	ebp, esp
	sub	esp, 68					; 00000044H
	push	ebx
	push	esi
	push	edi

; 163  : 	BaseControllerClass *c = BaseControllerClass::Find_Base(team);

	mov	eax, DWORD PTR _team$[ebp]
	push	eax
	call	?Find_Base@BaseControllerClass@@SAPAV1@H@Z ; BaseControllerClass::Find_Base
	add	esp, 4
	mov	DWORD PTR _c$[ebp], eax

; 164  : 	if (c)

	cmp	DWORD PTR _c$[ebp], 0
	je	SHORT $LN2@Destroy_Ba

; 165  : 	{
; 166  : 		c->Destroy_Base();

	mov	ecx, DWORD PTR _c$[ebp]
	call	?Destroy_Base@BaseControllerClass@@QAEXXZ ; BaseControllerClass::Destroy_Base
$LN2@Destroy_Ba:

; 167  : 	}
; 168  : }

	pop	edi
	pop	esi
	pop	ebx
	mov	esp, ebp
	pop	ebp
	ret	0
?Destroy_Base@@YAXH@Z ENDP				; Destroy_Base
_TEXT	ENDS
; Function compile flags: /Odtp /ZI
; File x:\github\renegade\dragonade_rxd\scripts\engine_game.cpp
;	COMDAT ?Set_Can_Generate_Vehicles@@YAXH_N@Z
_TEXT	SEGMENT
_c$ = -4						; size = 4
_team$ = 8						; size = 4
_cangenerate$ = 12					; size = 1
?Set_Can_Generate_Vehicles@@YAXH_N@Z PROC		; Set_Can_Generate_Vehicles, COMDAT

; 153  : {

	push	ebp
	mov	ebp, esp
	sub	esp, 68					; 00000044H
	push	ebx
	push	esi
	push	edi

; 154  : 	BaseControllerClass *c = BaseControllerClass::Find_Base(team);

	mov	eax, DWORD PTR _team$[ebp]
	push	eax
	call	?Find_Base@BaseControllerClass@@SAPAV1@H@Z ; BaseControllerClass::Find_Base
	add	esp, 4
	mov	DWORD PTR _c$[ebp], eax

; 155  : 	if (c)

	cmp	DWORD PTR _c$[ebp], 0
	je	SHORT $LN2@Set_Can_Ge

; 156  : 	{
; 157  : 		c->Set_Can_Generate_Vehicles(cangenerate);

	movzx	eax, BYTE PTR _cangenerate$[ebp]
	push	eax
	mov	ecx, DWORD PTR _c$[ebp]
	call	?Set_Can_Generate_Vehicles@BaseControllerClass@@QAEX_N@Z ; BaseControllerClass::Set_Can_Generate_Vehicles
$LN2@Set_Can_Ge:

; 158  : 	}
; 159  : }

	pop	edi
	pop	esi
	pop	ebx
	mov	esp, ebp
	pop	ebp
	ret	0
?Set_Can_Generate_Vehicles@@YAXH_N@Z ENDP		; Set_Can_Generate_Vehicles
_TEXT	ENDS
; Function compile flags: /Odtp /ZI
; File x:\github\renegade\dragonade_rxd\scripts\engine_game.cpp
;	COMDAT ?Set_Can_Generate_Soldiers@@YAXH_N@Z
_TEXT	SEGMENT
_c$ = -4						; size = 4
_team$ = 8						; size = 4
_cangenerate$ = 12					; size = 1
?Set_Can_Generate_Soldiers@@YAXH_N@Z PROC		; Set_Can_Generate_Soldiers, COMDAT

; 144  : {

	push	ebp
	mov	ebp, esp
	sub	esp, 68					; 00000044H
	push	ebx
	push	esi
	push	edi

; 145  : 	BaseControllerClass *c = BaseControllerClass::Find_Base(team);

	mov	eax, DWORD PTR _team$[ebp]
	push	eax
	call	?Find_Base@BaseControllerClass@@SAPAV1@H@Z ; BaseControllerClass::Find_Base
	add	esp, 4
	mov	DWORD PTR _c$[ebp], eax

; 146  : 	if (c)

	cmp	DWORD PTR _c$[ebp], 0
	je	SHORT $LN2@Set_Can_Ge

; 147  : 	{
; 148  : 		c->Set_Can_Generate_Soldiers(cangenerate);

	movzx	eax, BYTE PTR _cangenerate$[ebp]
	push	eax
	mov	ecx, DWORD PTR _c$[ebp]
	call	?Set_Can_Generate_Soldiers@BaseControllerClass@@QAEX_N@Z ; BaseControllerClass::Set_Can_Generate_Soldiers
$LN2@Set_Can_Ge:

; 149  : 	}
; 150  : }

	pop	edi
	pop	esi
	pop	ebx
	mov	esp, ebp
	pop	ebp
	ret	0
?Set_Can_Generate_Soldiers@@YAXH_N@Z ENDP		; Set_Can_Generate_Soldiers
_TEXT	ENDS
; Function compile flags: /Odtp /ZI
; File x:\github\renegade\dragonade_rxd\scripts\engine_game.cpp
;	COMDAT ?Power_Base@@YAXH_N@Z
_TEXT	SEGMENT
_c$ = -4						; size = 4
_team$ = 8						; size = 4
_powered$ = 12						; size = 1
?Power_Base@@YAXH_N@Z PROC				; Power_Base, COMDAT

; 135  : {

	push	ebp
	mov	ebp, esp
	sub	esp, 68					; 00000044H
	push	ebx
	push	esi
	push	edi

; 136  : 	BaseControllerClass *c = BaseControllerClass::Find_Base(team);

	mov	eax, DWORD PTR _team$[ebp]
	push	eax
	call	?Find_Base@BaseControllerClass@@SAPAV1@H@Z ; BaseControllerClass::Find_Base
	add	esp, 4
	mov	DWORD PTR _c$[ebp], eax

; 137  : 	if (c)

	cmp	DWORD PTR _c$[ebp], 0
	je	SHORT $LN2@Power_Base

; 138  : 	{
; 139  : 		c->Power_Base(powered);

	movzx	eax, BYTE PTR _powered$[ebp]
	push	eax
	mov	ecx, DWORD PTR _c$[ebp]
	call	?Power_Base@BaseControllerClass@@QAEX_N@Z ; BaseControllerClass::Power_Base
$LN2@Power_Base:

; 140  : 	}
; 141  : }

	pop	edi
	pop	esi
	pop	ebx
	mov	esp, ebp
	pop	ebp
	ret	0
?Power_Base@@YAXH_N@Z ENDP				; Power_Base
_TEXT	ENDS
; Function compile flags: /Odtp /ZI
; File x:\github\renegade\dragonade_rxd\scripts\physicalgameobj.h
;	COMDAT ?Get_Position@PhysicalGameObj@@QAE?AVVector3@@XZ
_TEXT	SEGMENT
_Return$ = -16						; size = 12
_this$ = -4						; size = 4
___$ReturnUdt$ = 8					; size = 4
?Get_Position@PhysicalGameObj@@QAE?AVVector3@@XZ PROC	; PhysicalGameObj::Get_Position, COMDAT
; _this$ = ecx

; 47   : 	SCRIPTS_API Vector3 Get_Position() { Vector3 Return; Peek_Physical_Object()->Get_Position(&Return); return Return; }

	push	ebp
	mov	ebp, esp
	sub	esp, 80					; 00000050H
	push	ebx
	push	esi
	push	edi
	mov	DWORD PTR _this$[ebp], ecx
	lea	ecx, DWORD PTR _Return$[ebp]
	call	??0Vector3@@QAE@XZ			; Vector3::Vector3
	lea	eax, DWORD PTR _Return$[ebp]
	push	eax
	mov	ecx, DWORD PTR _this$[ebp]
	call	?Peek_Physical_Object@PhysicalGameObj@@QBEPAVPhysClass@@XZ ; PhysicalGameObj::Peek_Physical_Object
	mov	ecx, eax
	call	?Get_Position@PhysClass@@QBEXPAVVector3@@@Z ; PhysClass::Get_Position
	lea	eax, DWORD PTR _Return$[ebp]
	push	eax
	mov	ecx, DWORD PTR ___$ReturnUdt$[ebp]
	call	??0Vector3@@QAE@ABV0@@Z			; Vector3::Vector3
	mov	eax, DWORD PTR ___$ReturnUdt$[ebp]
	pop	edi
	pop	esi
	pop	ebx
	mov	esp, ebp
	pop	ebp
	ret	4
?Get_Position@PhysicalGameObj@@QAE?AVVector3@@XZ ENDP	; PhysicalGameObj::Get_Position
_TEXT	ENDS
; Function compile flags: /Odtp /ZI
; File x:\github\renegade\dragonade_rxd\scripts\physicalgameobj.h
;	COMDAT ?Peek_Physical_Object@PhysicalGameObj@@QBEPAVPhysClass@@XZ
_TEXT	SEGMENT
_this$ = -4						; size = 4
?Peek_Physical_Object@PhysicalGameObj@@QBEPAVPhysClass@@XZ PROC ; PhysicalGameObj::Peek_Physical_Object, COMDAT
; _this$ = ecx

; 40   : 	inline PhysClass *	Peek_Physical_Object( void ) const { return PhysObj; }

	push	ebp
	mov	ebp, esp
	sub	esp, 68					; 00000044H
	push	ebx
	push	esi
	push	edi
	mov	DWORD PTR _this$[ebp], ecx
	mov	eax, DWORD PTR _this$[ebp]
	mov	eax, DWORD PTR [eax+1908]
	pop	edi
	pop	esi
	pop	ebx
	mov	esp, ebp
	pop	ebp
	ret	0
?Peek_Physical_Object@PhysicalGameObj@@QBEPAVPhysClass@@XZ ENDP ; PhysicalGameObj::Peek_Physical_Object
_TEXT	ENDS
; Function compile flags: /Odtp /ZI
; File x:\github\renegade\dragonade_rxd\scripts\physclass.h
;	COMDAT ?Get_Position@PhysClass@@QBEXPAVVector3@@@Z
_TEXT	SEGMENT
_this$ = -4						; size = 4
_set_pos$ = 8						; size = 4
?Get_Position@PhysClass@@QBEXPAVVector3@@@Z PROC	; PhysClass::Get_Position, COMDAT
; _this$ = ecx

; 73   : 	void								Get_Position(Vector3 * set_pos) const	{ Get_Transform().Get_Translation(set_pos); }

	push	ebp
	mov	ebp, esp
	sub	esp, 68					; 00000044H
	push	ebx
	push	esi
	push	edi
	mov	DWORD PTR _this$[ebp], ecx
	mov	eax, DWORD PTR _set_pos$[ebp]
	push	eax
	mov	ecx, DWORD PTR _this$[ebp]
	mov	edx, DWORD PTR [ecx]
	mov	ecx, DWORD PTR _this$[ebp]
	mov	eax, DWORD PTR [edx+24]
	call	eax
	mov	ecx, eax
	call	?Get_Translation@Matrix3D@@QBEXPAVVector3@@@Z ; Matrix3D::Get_Translation
	pop	edi
	pop	esi
	pop	ebx
	mov	esp, ebp
	pop	ebp
	ret	4
?Get_Position@PhysClass@@QBEXPAVVector3@@@Z ENDP	; PhysClass::Get_Position
_TEXT	ENDS
; Function compile flags: /Odtp /ZI
;	COMDAT ??4LineSegClass@@QAEAAV0@ABV0@@Z
_TEXT	SEGMENT
_this$ = -4						; size = 4
___that$ = 8						; size = 4
??4LineSegClass@@QAEAAV0@ABV0@@Z PROC			; LineSegClass::operator=, COMDAT
; _this$ = ecx
	push	ebp
	mov	ebp, esp
	sub	esp, 68					; 00000044H
	push	ebx
	push	esi
	push	edi
	mov	DWORD PTR _this$[ebp], ecx
	mov	eax, DWORD PTR ___that$[ebp]
	push	eax
	mov	ecx, DWORD PTR _this$[ebp]
	call	??4Vector3@@QAEAAV0@ABV0@@Z		; Vector3::operator=
	mov	eax, DWORD PTR ___that$[ebp]
	add	eax, 12					; 0000000cH
	push	eax
	mov	ecx, DWORD PTR _this$[ebp]
	add	ecx, 12					; 0000000cH
	call	??4Vector3@@QAEAAV0@ABV0@@Z		; Vector3::operator=
	mov	eax, DWORD PTR ___that$[ebp]
	add	eax, 24					; 00000018H
	push	eax
	mov	ecx, DWORD PTR _this$[ebp]
	add	ecx, 24					; 00000018H
	call	??4Vector3@@QAEAAV0@ABV0@@Z		; Vector3::operator=
	mov	eax, DWORD PTR ___that$[ebp]
	add	eax, 36					; 00000024H
	push	eax
	mov	ecx, DWORD PTR _this$[ebp]
	add	ecx, 36					; 00000024H
	call	??4Vector3@@QAEAAV0@ABV0@@Z		; Vector3::operator=
	mov	eax, DWORD PTR _this$[ebp]
	mov	ecx, DWORD PTR ___that$[ebp]
	mov	edx, DWORD PTR [ecx+48]
	mov	DWORD PTR [eax+48], edx
	mov	eax, DWORD PTR _this$[ebp]
	pop	edi
	pop	esi
	pop	ebx
	mov	esp, ebp
	pop	ebp
	ret	4
??4LineSegClass@@QAEAAV0@ABV0@@Z ENDP			; LineSegClass::operator=
_TEXT	ENDS
; Function compile flags: /Odtp /ZI
;	COMDAT ??0LineSegClass@@QAE@ABV0@@Z
_TEXT	SEGMENT
_this$ = -4						; size = 4
___that$ = 8						; size = 4
??0LineSegClass@@QAE@ABV0@@Z PROC			; LineSegClass::LineSegClass, COMDAT
; _this$ = ecx
	push	ebp
	mov	ebp, esp
	sub	esp, 68					; 00000044H
	push	ebx
	push	esi
	push	edi
	mov	DWORD PTR _this$[ebp], ecx
	mov	eax, DWORD PTR ___that$[ebp]
	push	eax
	mov	ecx, DWORD PTR _this$[ebp]
	call	??0Vector3@@QAE@ABV0@@Z			; Vector3::Vector3
	mov	eax, DWORD PTR ___that$[ebp]
	add	eax, 12					; 0000000cH
	push	eax
	mov	ecx, DWORD PTR _this$[ebp]
	add	ecx, 12					; 0000000cH
	call	??0Vector3@@QAE@ABV0@@Z			; Vector3::Vector3
	mov	eax, DWORD PTR ___that$[ebp]
	add	eax, 24					; 00000018H
	push	eax
	mov	ecx, DWORD PTR _this$[ebp]
	add	ecx, 24					; 00000018H
	call	??0Vector3@@QAE@ABV0@@Z			; Vector3::Vector3
	mov	eax, DWORD PTR ___that$[ebp]
	add	eax, 36					; 00000024H
	push	eax
	mov	ecx, DWORD PTR _this$[ebp]
	add	ecx, 36					; 00000024H
	call	??0Vector3@@QAE@ABV0@@Z			; Vector3::Vector3
	mov	eax, DWORD PTR _this$[ebp]
	mov	ecx, DWORD PTR ___that$[ebp]
	mov	edx, DWORD PTR [ecx+48]
	mov	DWORD PTR [eax+48], edx
	mov	eax, DWORD PTR _this$[ebp]
	pop	edi
	pop	esi
	pop	ebx
	mov	esp, ebp
	pop	ebp
	ret	4
??0LineSegClass@@QAE@ABV0@@Z ENDP			; LineSegClass::LineSegClass
_TEXT	ENDS
; Function compile flags: /Odtp /ZI
; File x:\github\renegade\dragonade_rxd\scripts\linesegclass.h
;	COMDAT ?recalculate@LineSegClass@@IAEXXZ
_TEXT	SEGMENT
$T1 = -80						; size = 12
_this$ = -4						; size = 4
?recalculate@LineSegClass@@IAEXXZ PROC			; LineSegClass::recalculate, COMDAT
; _this$ = ecx

; 81   : 	{

	push	ebp
	mov	ebp, esp
	sub	esp, 80					; 00000050H
	push	ebx
	push	esi
	push	edi
	mov	DWORD PTR _this$[ebp], ecx

; 82   : 		DP = P1 - P0;

	mov	eax, DWORD PTR _this$[ebp]
	push	eax
	mov	ecx, DWORD PTR _this$[ebp]
	add	ecx, 12					; 0000000cH
	push	ecx
	lea	edx, DWORD PTR $T1[ebp]
	push	edx
	call	??G@YA?AVVector3@@ABV0@0@Z		; operator-
	add	esp, 12					; 0000000cH
	push	eax
	mov	ecx, DWORD PTR _this$[ebp]
	add	ecx, 24					; 00000018H
	call	??4Vector3@@QAEAAV0@ABV0@@Z		; Vector3::operator=

; 83   : 		Dir = DP;

	mov	eax, DWORD PTR _this$[ebp]
	add	eax, 24					; 00000018H
	push	eax
	mov	ecx, DWORD PTR _this$[ebp]
	add	ecx, 36					; 00000024H
	call	??4Vector3@@QAEAAV0@ABV0@@Z		; Vector3::operator=

; 84   : 		Dir.Normalize();

	mov	ecx, DWORD PTR _this$[ebp]
	add	ecx, 36					; 00000024H
	call	?Normalize@Vector3@@QAEXXZ		; Vector3::Normalize

; 85   : 		Length = DP.Length();

	mov	ecx, DWORD PTR _this$[ebp]
	add	ecx, 24					; 00000018H
	call	?Length@Vector3@@QBEMXZ			; Vector3::Length
	mov	eax, DWORD PTR _this$[ebp]
	fstp	DWORD PTR [eax+48]

; 86   : 	}

	pop	edi
	pop	esi
	pop	ebx
	mov	esp, ebp
	pop	ebp
	ret	0
?recalculate@LineSegClass@@IAEXXZ ENDP			; LineSegClass::recalculate
_TEXT	ENDS
; Function compile flags: /Odtp /ZI
; File x:\github\renegade\dragonade_rxd\scripts\linesegclass.h
;	COMDAT ?Compute_Point@LineSegClass@@QBEXMPAVVector3@@@Z
_TEXT	SEGMENT
$T1 = -80						; size = 12
_this$ = -4						; size = 4
_t$ = 8							; size = 4
_set$ = 12						; size = 4
?Compute_Point@LineSegClass@@QBEXMPAVVector3@@@Z PROC	; LineSegClass::Compute_Point, COMDAT
; _this$ = ecx

; 74   : 	{

	push	ebp
	mov	ebp, esp
	sub	esp, 80					; 00000050H
	push	ebx
	push	esi
	push	edi
	mov	DWORD PTR _this$[ebp], ecx

; 75   : 		Vector3::Add(P0,t*DP,set);

	mov	eax, DWORD PTR _set$[ebp]
	push	eax
	mov	ecx, DWORD PTR _this$[ebp]
	add	ecx, 24					; 00000018H
	push	ecx
	push	ecx
	movss	xmm0, DWORD PTR _t$[ebp]
	movss	DWORD PTR [esp], xmm0
	lea	edx, DWORD PTR $T1[ebp]
	push	edx
	call	??D@YA?AVVector3@@MABV0@@Z		; operator*
	add	esp, 12					; 0000000cH
	push	eax
	mov	eax, DWORD PTR _this$[ebp]
	push	eax
	call	?Add@Vector3@@SAXABV1@0PAV1@@Z		; Vector3::Add
	add	esp, 12					; 0000000cH

; 76   : 	}

	pop	edi
	pop	esi
	pop	ebx
	mov	esp, ebp
	pop	ebp
	ret	8
?Compute_Point@LineSegClass@@QBEXMPAVVector3@@@Z ENDP	; LineSegClass::Compute_Point
_TEXT	ENDS
; Function compile flags: /Odtp /ZI
; File x:\github\renegade\dragonade_rxd\scripts\linesegclass.h
;	COMDAT ?Get_Length@LineSegClass@@QBEMXZ
_TEXT	SEGMENT
_this$ = -4						; size = 4
?Get_Length@LineSegClass@@QBEMXZ PROC			; LineSegClass::Get_Length, COMDAT
; _this$ = ecx

; 70   : 	{

	push	ebp
	mov	ebp, esp
	sub	esp, 68					; 00000044H
	push	ebx
	push	esi
	push	edi
	mov	DWORD PTR _this$[ebp], ecx

; 71   : 		return Length;

	mov	eax, DWORD PTR _this$[ebp]
	fld	DWORD PTR [eax+48]

; 72   : 	}

	pop	edi
	pop	esi
	pop	ebx
	mov	esp, ebp
	pop	ebp
	ret	0
?Get_Length@LineSegClass@@QBEMXZ ENDP			; LineSegClass::Get_Length
_TEXT	ENDS
; Function compile flags: /Odtp /ZI
; File x:\github\renegade\dragonade_rxd\scripts\linesegclass.h
;	COMDAT ?Get_Dir@LineSegClass@@QBEABVVector3@@XZ
_TEXT	SEGMENT
_this$ = -4						; size = 4
?Get_Dir@LineSegClass@@QBEABVVector3@@XZ PROC		; LineSegClass::Get_Dir, COMDAT
; _this$ = ecx

; 66   : 	{

	push	ebp
	mov	ebp, esp
	sub	esp, 68					; 00000044H
	push	ebx
	push	esi
	push	edi
	mov	DWORD PTR _this$[ebp], ecx

; 67   : 		return Dir;

	mov	eax, DWORD PTR _this$[ebp]
	add	eax, 36					; 00000024H

; 68   : 	}

	pop	edi
	pop	esi
	pop	ebx
	mov	esp, ebp
	pop	ebp
	ret	0
?Get_Dir@LineSegClass@@QBEABVVector3@@XZ ENDP		; LineSegClass::Get_Dir
_TEXT	ENDS
; Function compile flags: /Odtp /ZI
; File x:\github\renegade\dragonade_rxd\scripts\linesegclass.h
;	COMDAT ?Get_DP@LineSegClass@@QBEABVVector3@@XZ
_TEXT	SEGMENT
_this$ = -4						; size = 4
?Get_DP@LineSegClass@@QBEABVVector3@@XZ PROC		; LineSegClass::Get_DP, COMDAT
; _this$ = ecx

; 62   : 	{

	push	ebp
	mov	ebp, esp
	sub	esp, 68					; 00000044H
	push	ebx
	push	esi
	push	edi
	mov	DWORD PTR _this$[ebp], ecx

; 63   : 		return DP;

	mov	eax, DWORD PTR _this$[ebp]
	add	eax, 24					; 00000018H

; 64   : 	}

	pop	edi
	pop	esi
	pop	ebx
	mov	esp, ebp
	pop	ebp
	ret	0
?Get_DP@LineSegClass@@QBEABVVector3@@XZ ENDP		; LineSegClass::Get_DP
_TEXT	ENDS
; Function compile flags: /Odtp /ZI
; File x:\github\renegade\dragonade_rxd\scripts\linesegclass.h
;	COMDAT ?Get_P1@LineSegClass@@QBEABVVector3@@XZ
_TEXT	SEGMENT
_this$ = -4						; size = 4
?Get_P1@LineSegClass@@QBEABVVector3@@XZ PROC		; LineSegClass::Get_P1, COMDAT
; _this$ = ecx

; 58   : 	{

	push	ebp
	mov	ebp, esp
	sub	esp, 68					; 00000044H
	push	ebx
	push	esi
	push	edi
	mov	DWORD PTR _this$[ebp], ecx

; 59   : 		return P1;

	mov	eax, DWORD PTR _this$[ebp]
	add	eax, 12					; 0000000cH

; 60   : 	}

	pop	edi
	pop	esi
	pop	ebx
	mov	esp, ebp
	pop	ebp
	ret	0
?Get_P1@LineSegClass@@QBEABVVector3@@XZ ENDP		; LineSegClass::Get_P1
_TEXT	ENDS
; Function compile flags: /Odtp /ZI
; File x:\github\renegade\dragonade_rxd\scripts\linesegclass.h
;	COMDAT ?Get_P0@LineSegClass@@QBEABVVector3@@XZ
_TEXT	SEGMENT
_this$ = -4						; size = 4
?Get_P0@LineSegClass@@QBEABVVector3@@XZ PROC		; LineSegClass::Get_P0, COMDAT
; _this$ = ecx

; 54   : 	{

	push	ebp
	mov	ebp, esp
	sub	esp, 68					; 00000044H
	push	ebx
	push	esi
	push	edi
	mov	DWORD PTR _this$[ebp], ecx

; 55   : 		return P0;

	mov	eax, DWORD PTR _this$[ebp]

; 56   : 	}

	pop	edi
	pop	esi
	pop	ebx
	mov	esp, ebp
	pop	ebp
	ret	0
?Get_P0@LineSegClass@@QBEABVVector3@@XZ ENDP		; LineSegClass::Get_P0
_TEXT	ENDS
; Function compile flags: /Odtp /ZI
; File x:\github\renegade\dragonade_rxd\scripts\linesegclass.h
;	COMDAT ?Set@LineSegClass@@QAEXABVVector3@@0M@Z
_TEXT	SEGMENT
$T1 = -92						; size = 12
$T2 = -80						; size = 12
_this$ = -4						; size = 4
_p0$ = 8						; size = 4
_dir$ = 12						; size = 4
_l$ = 16						; size = 4
?Set@LineSegClass@@QAEXABVVector3@@0M@Z PROC		; LineSegClass::Set, COMDAT
; _this$ = ecx

; 44   : 	{

	push	ebp
	mov	ebp, esp
	sub	esp, 92					; 0000005cH
	push	ebx
	push	esi
	push	edi
	mov	DWORD PTR _this$[ebp], ecx

; 45   : 		DP = dir * l;

	push	ecx
	movss	xmm0, DWORD PTR _l$[ebp]
	movss	DWORD PTR [esp], xmm0
	mov	eax, DWORD PTR _dir$[ebp]
	push	eax
	lea	ecx, DWORD PTR $T1[ebp]
	push	ecx
	call	??D@YA?AVVector3@@ABV0@M@Z		; operator*
	add	esp, 12					; 0000000cH
	push	eax
	mov	ecx, DWORD PTR _this$[ebp]
	add	ecx, 24					; 00000018H
	call	??4Vector3@@QAEAAV0@ABV0@@Z		; Vector3::operator=

; 46   : 		P0 = p0;

	mov	eax, DWORD PTR _p0$[ebp]
	push	eax
	mov	ecx, DWORD PTR _this$[ebp]
	call	??4Vector3@@QAEAAV0@ABV0@@Z		; Vector3::operator=

; 47   : 		P1 = p0 + DP;

	mov	eax, DWORD PTR _this$[ebp]
	add	eax, 24					; 00000018H
	push	eax
	mov	ecx, DWORD PTR _p0$[ebp]
	push	ecx
	lea	edx, DWORD PTR $T2[ebp]
	push	edx
	call	??H@YA?AVVector3@@ABV0@0@Z		; operator+
	add	esp, 12					; 0000000cH
	push	eax
	mov	ecx, DWORD PTR _this$[ebp]
	add	ecx, 12					; 0000000cH
	call	??4Vector3@@QAEAAV0@ABV0@@Z		; Vector3::operator=

; 48   : 		Dir = dir;

	mov	eax, DWORD PTR _dir$[ebp]
	push	eax
	mov	ecx, DWORD PTR _this$[ebp]
	add	ecx, 36					; 00000024H
	call	??4Vector3@@QAEAAV0@ABV0@@Z		; Vector3::operator=

; 49   : 		Length = l;

	mov	eax, DWORD PTR _this$[ebp]
	movss	xmm0, DWORD PTR _l$[ebp]
	movss	DWORD PTR [eax+48], xmm0

; 50   : 	}

	pop	edi
	pop	esi
	pop	ebx
	mov	esp, ebp
	pop	ebp
	ret	12					; 0000000cH
?Set@LineSegClass@@QAEXABVVector3@@0M@Z ENDP		; LineSegClass::Set
_TEXT	ENDS
; Function compile flags: /Odtp /ZI
; File x:\github\renegade\dragonade_rxd\scripts\linesegclass.h
;	COMDAT ?Set@LineSegClass@@QAEXABVVector3@@0@Z
_TEXT	SEGMENT
_this$ = -4						; size = 4
_p0$ = 8						; size = 4
_p1$ = 12						; size = 4
?Set@LineSegClass@@QAEXABVVector3@@0@Z PROC		; LineSegClass::Set, COMDAT
; _this$ = ecx

; 38   : 	{

	push	ebp
	mov	ebp, esp
	sub	esp, 68					; 00000044H
	push	ebx
	push	esi
	push	edi
	mov	DWORD PTR _this$[ebp], ecx

; 39   : 		P0 = p0;

	mov	eax, DWORD PTR _p0$[ebp]
	push	eax
	mov	ecx, DWORD PTR _this$[ebp]
	call	??4Vector3@@QAEAAV0@ABV0@@Z		; Vector3::operator=

; 40   : 		P1 = p1;

	mov	eax, DWORD PTR _p1$[ebp]
	push	eax
	mov	ecx, DWORD PTR _this$[ebp]
	add	ecx, 12					; 0000000cH
	call	??4Vector3@@QAEAAV0@ABV0@@Z		; Vector3::operator=

; 41   : 		recalculate();

	mov	ecx, DWORD PTR _this$[ebp]
	call	?recalculate@LineSegClass@@IAEXXZ	; LineSegClass::recalculate

; 42   : 	}

	pop	edi
	pop	esi
	pop	ebx
	mov	esp, ebp
	pop	ebp
	ret	8
?Set@LineSegClass@@QAEXABVVector3@@0@Z ENDP		; LineSegClass::Set
_TEXT	ENDS
; Function compile flags: /Odtp /ZI
; File x:\github\renegade\dragonade_rxd\scripts\linesegclass.h
;	COMDAT ??0LineSegClass@@QAE@ABV0@ABVMatrix3D@@@Z
_TEXT	SEGMENT
_this$ = -4						; size = 4
_that$ = 8						; size = 4
_tm$ = 12						; size = 4
??0LineSegClass@@QAE@ABV0@ABVMatrix3D@@@Z PROC		; LineSegClass::LineSegClass, COMDAT
; _this$ = ecx

; 33   : 	LineSegClass(const LineSegClass & that,const Matrix3D & tm)

	push	ebp
	mov	ebp, esp
	sub	esp, 68					; 00000044H
	push	ebx
	push	esi
	push	edi
	mov	DWORD PTR _this$[ebp], ecx
	mov	ecx, DWORD PTR _this$[ebp]
	call	??0Vector3@@QAE@XZ			; Vector3::Vector3
	mov	ecx, DWORD PTR _this$[ebp]
	add	ecx, 12					; 0000000cH
	call	??0Vector3@@QAE@XZ			; Vector3::Vector3
	mov	ecx, DWORD PTR _this$[ebp]
	add	ecx, 24					; 00000018H
	call	??0Vector3@@QAE@XZ			; Vector3::Vector3
	mov	ecx, DWORD PTR _this$[ebp]
	add	ecx, 36					; 00000024H
	call	??0Vector3@@QAE@XZ			; Vector3::Vector3

; 34   : 	{
; 35   : 		Set(that,tm);

	mov	eax, DWORD PTR _tm$[ebp]
	push	eax
	mov	ecx, DWORD PTR _that$[ebp]
	push	ecx
	mov	ecx, DWORD PTR _this$[ebp]
	call	?Set@LineSegClass@@QAEXABV1@ABVMatrix3D@@@Z ; LineSegClass::Set

; 36   : 	}

	mov	eax, DWORD PTR _this$[ebp]
	pop	edi
	pop	esi
	pop	ebx
	mov	esp, ebp
	pop	ebp
	ret	8
??0LineSegClass@@QAE@ABV0@ABVMatrix3D@@@Z ENDP		; LineSegClass::LineSegClass
_TEXT	ENDS
; Function compile flags: /Odtp /ZI
; File x:\github\renegade\dragonade_rxd\scripts\linesegclass.h
;	COMDAT ??0LineSegClass@@QAE@ABVVector3@@0M@Z
_TEXT	SEGMENT
$T1 = -92						; size = 12
$T2 = -80						; size = 12
_this$ = -4						; size = 4
_p0$ = 8						; size = 4
_dir$ = 12						; size = 4
_l$ = 16						; size = 4
??0LineSegClass@@QAE@ABVVector3@@0M@Z PROC		; LineSegClass::LineSegClass, COMDAT
; _this$ = ecx

; 29   : 	{

	push	ebp
	mov	ebp, esp
	sub	esp, 92					; 0000005cH
	push	ebx
	push	esi
	push	edi
	mov	DWORD PTR _this$[ebp], ecx
	mov	eax, DWORD PTR _p0$[ebp]
	push	eax
	mov	ecx, DWORD PTR _this$[ebp]
	call	??0Vector3@@QAE@ABV0@@Z			; Vector3::Vector3
	mov	ecx, DWORD PTR _this$[ebp]
	add	ecx, 12					; 0000000cH
	call	??0Vector3@@QAE@XZ			; Vector3::Vector3
	mov	ecx, DWORD PTR _this$[ebp]
	add	ecx, 24					; 00000018H
	call	??0Vector3@@QAE@XZ			; Vector3::Vector3
	mov	eax, DWORD PTR _dir$[ebp]
	push	eax
	mov	ecx, DWORD PTR _this$[ebp]
	add	ecx, 36					; 00000024H
	call	??0Vector3@@QAE@ABV0@@Z			; Vector3::Vector3
	mov	eax, DWORD PTR _this$[ebp]
	movss	xmm0, DWORD PTR _l$[ebp]
	movss	DWORD PTR [eax+48], xmm0

; 30   : 		DP = Dir * Length;

	mov	eax, DWORD PTR _this$[ebp]
	push	ecx
	movss	xmm0, DWORD PTR [eax+48]
	movss	DWORD PTR [esp], xmm0
	mov	ecx, DWORD PTR _this$[ebp]
	add	ecx, 36					; 00000024H
	push	ecx
	lea	edx, DWORD PTR $T1[ebp]
	push	edx
	call	??D@YA?AVVector3@@ABV0@M@Z		; operator*
	add	esp, 12					; 0000000cH
	push	eax
	mov	ecx, DWORD PTR _this$[ebp]
	add	ecx, 24					; 00000018H
	call	??4Vector3@@QAEAAV0@ABV0@@Z		; Vector3::operator=

; 31   : 		P1 = P0 + DP;

	mov	eax, DWORD PTR _this$[ebp]
	add	eax, 24					; 00000018H
	push	eax
	mov	ecx, DWORD PTR _this$[ebp]
	push	ecx
	lea	edx, DWORD PTR $T2[ebp]
	push	edx
	call	??H@YA?AVVector3@@ABV0@0@Z		; operator+
	add	esp, 12					; 0000000cH
	push	eax
	mov	ecx, DWORD PTR _this$[ebp]
	add	ecx, 12					; 0000000cH
	call	??4Vector3@@QAEAAV0@ABV0@@Z		; Vector3::operator=

; 32   : 	}

	mov	eax, DWORD PTR _this$[ebp]
	pop	edi
	pop	esi
	pop	ebx
	mov	esp, ebp
	pop	ebp
	ret	12					; 0000000cH
??0LineSegClass@@QAE@ABVVector3@@0M@Z ENDP		; LineSegClass::LineSegClass
_TEXT	ENDS
; Function compile flags: /Odtp /ZI
; File x:\github\renegade\dragonade_rxd\scripts\linesegclass.h
;	COMDAT ??0LineSegClass@@QAE@ABVVector3@@0@Z
_TEXT	SEGMENT
_this$ = -4						; size = 4
_p0$ = 8						; size = 4
_p1$ = 12						; size = 4
??0LineSegClass@@QAE@ABVVector3@@0@Z PROC		; LineSegClass::LineSegClass, COMDAT
; _this$ = ecx

; 25   : 	{

	push	ebp
	mov	ebp, esp
	sub	esp, 68					; 00000044H
	push	ebx
	push	esi
	push	edi
	mov	DWORD PTR _this$[ebp], ecx
	mov	eax, DWORD PTR _p0$[ebp]
	push	eax
	mov	ecx, DWORD PTR _this$[ebp]
	call	??0Vector3@@QAE@ABV0@@Z			; Vector3::Vector3
	mov	eax, DWORD PTR _p1$[ebp]
	push	eax
	mov	ecx, DWORD PTR _this$[ebp]
	add	ecx, 12					; 0000000cH
	call	??0Vector3@@QAE@ABV0@@Z			; Vector3::Vector3
	mov	ecx, DWORD PTR _this$[ebp]
	add	ecx, 24					; 00000018H
	call	??0Vector3@@QAE@XZ			; Vector3::Vector3
	mov	ecx, DWORD PTR _this$[ebp]
	add	ecx, 36					; 00000024H
	call	??0Vector3@@QAE@XZ			; Vector3::Vector3

; 26   : 		recalculate();

	mov	ecx, DWORD PTR _this$[ebp]
	call	?recalculate@LineSegClass@@IAEXXZ	; LineSegClass::recalculate

; 27   : 	}

	mov	eax, DWORD PTR _this$[ebp]
	pop	edi
	pop	esi
	pop	ebx
	mov	esp, ebp
	pop	ebp
	ret	8
??0LineSegClass@@QAE@ABVVector3@@0@Z ENDP		; LineSegClass::LineSegClass
_TEXT	ENDS
; Function compile flags: /Odtp /ZI
; File x:\github\renegade\dragonade_rxd\scripts\linesegclass.h
;	COMDAT ??0LineSegClass@@QAE@XZ
_TEXT	SEGMENT
_this$ = -4						; size = 4
??0LineSegClass@@QAE@XZ PROC				; LineSegClass::LineSegClass, COMDAT
; _this$ = ecx

; 21   : 	LineSegClass(void)

	push	ebp
	mov	ebp, esp
	sub	esp, 68					; 00000044H
	push	ebx
	push	esi
	push	edi
	mov	DWORD PTR _this$[ebp], ecx
	mov	ecx, DWORD PTR _this$[ebp]
	call	??0Vector3@@QAE@XZ			; Vector3::Vector3
	mov	ecx, DWORD PTR _this$[ebp]
	add	ecx, 12					; 0000000cH
	call	??0Vector3@@QAE@XZ			; Vector3::Vector3
	mov	ecx, DWORD PTR _this$[ebp]
	add	ecx, 24					; 00000018H
	call	??0Vector3@@QAE@XZ			; Vector3::Vector3
	mov	ecx, DWORD PTR _this$[ebp]
	add	ecx, 36					; 00000024H
	call	??0Vector3@@QAE@XZ			; Vector3::Vector3

; 22   : 	{
; 23   : 	}

	mov	eax, DWORD PTR _this$[ebp]
	pop	edi
	pop	esi
	pop	ebx
	mov	esp, ebp
	pop	ebp
	ret	0
??0LineSegClass@@QAE@XZ ENDP				; LineSegClass::LineSegClass
_TEXT	ENDS
; Function compile flags: /Odtp /ZI
; File x:\github\renegade\dragonade_rxd\scripts\basegameobj.h
;	COMDAT ?Get_Definition@BaseGameObj@@QBEABVBaseGameObjDef@@XZ
_TEXT	SEGMENT
_this$ = -4						; size = 4
?Get_Definition@BaseGameObj@@QBEABVBaseGameObjDef@@XZ PROC ; BaseGameObj::Get_Definition, COMDAT
; _this$ = ecx

; 49   :     const BaseGameObjDef&       Get_Definition() const { return *Definition; };

	push	ebp
	mov	ebp, esp
	sub	esp, 68					; 00000044H
	push	ebx
	push	esi
	push	edi
	mov	DWORD PTR _this$[ebp], ecx
	mov	eax, DWORD PTR _this$[ebp]
	mov	eax, DWORD PTR [eax+1724]
	pop	edi
	pop	esi
	pop	ebx
	mov	esp, ebp
	pop	ebp
	ret	0
?Get_Definition@BaseGameObj@@QBEABVBaseGameObjDef@@XZ ENDP ; BaseGameObj::Get_Definition
_TEXT	ENDS
; Function compile flags: /Odtp /ZI
; File x:\github\renegade\dragonade_rxd\scripts\referenceableclass.h
;	COMDAT ?Get_Data@?$ReferenceableClass@VScriptableGameObj@@@@IBEPAVScriptableGameObj@@XZ
_TEXT	SEGMENT
_this$ = -4						; size = 4
?Get_Data@?$ReferenceableClass@VScriptableGameObj@@@@IBEPAVScriptableGameObj@@XZ PROC ; ReferenceableClass<ScriptableGameObj>::Get_Data, COMDAT
; _this$ = ecx

; 30   : 	T * Get_Data( void ) const	{ return ReferenceData; }

	push	ebp
	mov	ebp, esp
	sub	esp, 68					; 00000044H
	push	ebx
	push	esi
	push	edi
	mov	DWORD PTR _this$[ebp], ecx
	mov	eax, DWORD PTR _this$[ebp]
	mov	eax, DWORD PTR [eax+4]
	pop	edi
	pop	esi
	pop	ebx
	mov	esp, ebp
	pop	ebp
	ret	0
?Get_Data@?$ReferenceableClass@VScriptableGameObj@@@@IBEPAVScriptableGameObj@@XZ ENDP ; ReferenceableClass<ScriptableGameObj>::Get_Data
_TEXT	ENDS
; Function compile flags: /Odtp /ZI
;	COMDAT ??_EReferencerClass@@UAEPAXI@Z
_TEXT	SEGMENT
_this$ = -4						; size = 4
___flags$ = 8						; size = 4
??_EReferencerClass@@UAEPAXI@Z PROC			; ReferencerClass::`vector deleting destructor', COMDAT
; _this$ = ecx
	push	ebp
	mov	ebp, esp
	sub	esp, 68					; 00000044H
	push	ebx
	push	esi
	push	edi
	mov	DWORD PTR _this$[ebp], ecx
	mov	eax, DWORD PTR ___flags$[ebp]
	and	eax, 2
	je	SHORT $LN3@vector
	push	OFFSET ??1ReferencerClass@@UAE@XZ	; ReferencerClass::~ReferencerClass
	mov	eax, DWORD PTR _this$[ebp]
	mov	ecx, DWORD PTR [eax-4]
	push	ecx
	push	16					; 00000010H
	mov	edx, DWORD PTR _this$[ebp]
	push	edx
	call	??_I@YGXPAXIHP6EX0@Z@Z
	mov	eax, DWORD PTR ___flags$[ebp]
	and	eax, 1
	je	SHORT $LN2@vector
	mov	eax, DWORD PTR _this$[ebp]
	sub	eax, 4
	push	eax
	call	??_V@YAXPAX@Z				; operator delete[]
	add	esp, 4
$LN2@vector:
	mov	eax, DWORD PTR _this$[ebp]
	sub	eax, 4
	jmp	SHORT $LN4@vector
$LN3@vector:
	mov	ecx, DWORD PTR _this$[ebp]
	call	??1ReferencerClass@@UAE@XZ		; ReferencerClass::~ReferencerClass
	mov	eax, DWORD PTR ___flags$[ebp]
	and	eax, 1
	je	SHORT $LN1@vector
	mov	eax, DWORD PTR _this$[ebp]
	push	eax
	call	??3@YAXPAX@Z				; operator delete
	add	esp, 4
$LN1@vector:
	mov	eax, DWORD PTR _this$[ebp]
$LN4@vector:
	pop	edi
	pop	esi
	pop	ebx
	mov	esp, ebp
	pop	ebp
	ret	4
??_EReferencerClass@@UAEPAXI@Z ENDP			; ReferencerClass::`vector deleting destructor'
_TEXT	ENDS
; Function compile flags: /Odtp /ZI
;	COMDAT ??_GReferencerClass@@UAEPAXI@Z
_TEXT	SEGMENT
_this$ = -4						; size = 4
___flags$ = 8						; size = 4
??_GReferencerClass@@UAEPAXI@Z PROC			; ReferencerClass::`scalar deleting destructor', COMDAT
; _this$ = ecx
	push	ebp
	mov	ebp, esp
	sub	esp, 68					; 00000044H
	push	ebx
	push	esi
	push	edi
	mov	DWORD PTR _this$[ebp], ecx
	mov	ecx, DWORD PTR _this$[ebp]
	call	??1ReferencerClass@@UAE@XZ		; ReferencerClass::~ReferencerClass
	mov	eax, DWORD PTR ___flags$[ebp]
	and	eax, 1
	je	SHORT $LN1@scalar
	mov	eax, DWORD PTR _this$[ebp]
	push	eax
	call	??3@YAXPAX@Z				; operator delete
	add	esp, 4
$LN1@scalar:
	mov	eax, DWORD PTR _this$[ebp]
	pop	edi
	pop	esi
	pop	ebx
	mov	esp, ebp
	pop	ebp
	ret	4
??_GReferencerClass@@UAEPAXI@Z ENDP			; ReferencerClass::`scalar deleting destructor'
_TEXT	ENDS
; Function compile flags: /Odtp /ZI
;	COMDAT ??0ReferencerClass@@QAE@ABV0@@Z
_TEXT	SEGMENT
_this$ = -4						; size = 4
___that$ = 8						; size = 4
??0ReferencerClass@@QAE@ABV0@@Z PROC			; ReferencerClass::ReferencerClass, COMDAT
; _this$ = ecx
	push	ebp
	mov	ebp, esp
	sub	esp, 68					; 00000044H
	push	ebx
	push	esi
	push	edi
	mov	DWORD PTR _this$[ebp], ecx
	mov	eax, DWORD PTR ___that$[ebp]
	push	eax
	mov	ecx, DWORD PTR _this$[ebp]
	call	??0PostLoadableClass@@QAE@ABV0@@Z
	mov	eax, DWORD PTR _this$[ebp]
	mov	DWORD PTR [eax], OFFSET ??_7ReferencerClass@@6B@
	mov	eax, DWORD PTR _this$[ebp]
	mov	ecx, DWORD PTR ___that$[ebp]
	mov	edx, DWORD PTR [ecx+8]
	mov	DWORD PTR [eax+8], edx
	mov	eax, DWORD PTR _this$[ebp]
	mov	ecx, DWORD PTR ___that$[ebp]
	mov	edx, DWORD PTR [ecx+12]
	mov	DWORD PTR [eax+12], edx
	mov	eax, DWORD PTR _this$[ebp]
	pop	edi
	pop	esi
	pop	ebx
	mov	esp, ebp
	pop	ebp
	ret	4
??0ReferencerClass@@QAE@ABV0@@Z ENDP			; ReferencerClass::ReferencerClass
_TEXT	ENDS
; Function compile flags: /Odtp /ZI
; File x:\github\renegade\dragonade_rxd\scripts\referencerclass.h
;	COMDAT ?Set_Ptr@ReferencerClass@@QAEXPAVScriptableGameObj@@@Z
_TEXT	SEGMENT
_this$ = -4						; size = 4
_object$ = 8						; size = 4
?Set_Ptr@ReferencerClass@@QAEXPAVScriptableGameObj@@@Z PROC ; ReferencerClass::Set_Ptr, COMDAT
; _this$ = ecx

; 61   : 	{

	push	ebp
	mov	ebp, esp
	sub	esp, 68					; 00000044H
	push	ebx
	push	esi
	push	edi
	mov	DWORD PTR _this$[ebp], ecx

; 62   : 		*this = object;

	mov	eax, DWORD PTR _object$[ebp]
	push	eax
	mov	ecx, DWORD PTR _this$[ebp]
	call	??4ReferencerClass@@QAEAAV0@PAVScriptableGameObj@@@Z ; ReferencerClass::operator=

; 63   : 	}

	pop	edi
	pop	esi
	pop	ebx
	mov	esp, ebp
	pop	ebp
	ret	4
?Set_Ptr@ReferencerClass@@QAEXPAVScriptableGameObj@@@Z ENDP ; ReferencerClass::Set_Ptr
_TEXT	ENDS
; Function compile flags: /Odtp /ZI
; File x:\github\renegade\dragonade_rxd\scripts\referencerclass.h
;	COMDAT ?Get_Ptr@ReferencerClass@@QBEPAVScriptableGameObj@@XZ
_TEXT	SEGMENT
tv69 = -72						; size = 4
_this$ = -4						; size = 4
?Get_Ptr@ReferencerClass@@QBEPAVScriptableGameObj@@XZ PROC ; ReferencerClass::Get_Ptr, COMDAT
; _this$ = ecx

; 54   : 	{

	push	ebp
	mov	ebp, esp
	sub	esp, 72					; 00000048H
	push	ebx
	push	esi
	push	edi
	mov	DWORD PTR _this$[ebp], ecx

; 55   : 		return ReferenceTarget ? ReferenceTarget->Get_Data() : NULL;

	mov	eax, DWORD PTR _this$[ebp]
	cmp	DWORD PTR [eax+8], 0
	je	SHORT $LN3@Get_Ptr
	mov	ecx, DWORD PTR _this$[ebp]
	mov	ecx, DWORD PTR [ecx+8]
	call	?Get_Data@?$ReferenceableClass@VScriptableGameObj@@@@IBEPAVScriptableGameObj@@XZ ; ReferenceableClass<ScriptableGameObj>::Get_Data
	mov	DWORD PTR tv69[ebp], eax
	jmp	SHORT $LN4@Get_Ptr
$LN3@Get_Ptr:
	mov	DWORD PTR tv69[ebp], 0
$LN4@Get_Ptr:
	mov	eax, DWORD PTR tv69[ebp]

; 56   : 	}

	pop	edi
	pop	esi
	pop	ebx
	mov	esp, ebp
	pop	ebp
	ret	0
?Get_Ptr@ReferencerClass@@QBEPAVScriptableGameObj@@XZ ENDP ; ReferencerClass::Get_Ptr
_TEXT	ENDS
; Function compile flags: /Odtp /ZI
; File x:\github\renegade\dragonade_rxd\scripts\referencerclass.h
;	COMDAT ??0ReferencerClass@@QAE@PAVScriptableGameObj@@@Z
_TEXT	SEGMENT
_this$ = -4						; size = 4
_object$ = 8						; size = 4
??0ReferencerClass@@QAE@PAVScriptableGameObj@@@Z PROC	; ReferencerClass::ReferencerClass, COMDAT
; _this$ = ecx

; 48   : 	{

	push	ebp
	mov	ebp, esp
	sub	esp, 68					; 00000044H
	push	ebx
	push	esi
	push	edi
	mov	DWORD PTR _this$[ebp], ecx
	mov	ecx, DWORD PTR _this$[ebp]
	call	??0PostLoadableClass@@QAE@XZ		; PostLoadableClass::PostLoadableClass
	mov	eax, DWORD PTR _this$[ebp]
	mov	DWORD PTR [eax], OFFSET ??_7ReferencerClass@@6B@
	mov	eax, DWORD PTR _this$[ebp]
	mov	DWORD PTR [eax+8], 0
	mov	eax, DWORD PTR _this$[ebp]
	mov	DWORD PTR [eax+12], 0

; 49   : 		*this = object;

	mov	eax, DWORD PTR _object$[ebp]
	push	eax
	mov	ecx, DWORD PTR _this$[ebp]
	call	??4ReferencerClass@@QAEAAV0@PAVScriptableGameObj@@@Z ; ReferencerClass::operator=

; 50   : 	}

	mov	eax, DWORD PTR _this$[ebp]
	pop	edi
	pop	esi
	pop	ebx
	mov	esp, ebp
	pop	ebp
	ret	4
??0ReferencerClass@@QAE@PAVScriptableGameObj@@@Z ENDP	; ReferencerClass::ReferencerClass
_TEXT	ENDS
; Function compile flags: /Odtp /ZI
; File x:\github\renegade\dragonade_rxd\scripts\referencerclass.h
;	COMDAT ??0ReferencerClass@@QAE@XZ
_TEXT	SEGMENT
_this$ = -4						; size = 4
??0ReferencerClass@@QAE@XZ PROC				; ReferencerClass::ReferencerClass, COMDAT
; _this$ = ecx

; 41   : 	{

	push	ebp
	mov	ebp, esp
	sub	esp, 68					; 00000044H
	push	ebx
	push	esi
	push	edi
	mov	DWORD PTR _this$[ebp], ecx
	mov	ecx, DWORD PTR _this$[ebp]
	call	??0PostLoadableClass@@QAE@XZ		; PostLoadableClass::PostLoadableClass
	mov	eax, DWORD PTR _this$[ebp]
	mov	DWORD PTR [eax], OFFSET ??_7ReferencerClass@@6B@
	mov	eax, DWORD PTR _this$[ebp]
	mov	DWORD PTR [eax+8], 0
	mov	eax, DWORD PTR _this$[ebp]
	mov	DWORD PTR [eax+12], 0

; 42   : 	}

	mov	eax, DWORD PTR _this$[ebp]
	pop	edi
	pop	esi
	pop	ebx
	mov	esp, ebp
	pop	ebp
	ret	0
??0ReferencerClass@@QAE@XZ ENDP				; ReferencerClass::ReferencerClass
_TEXT	ENDS
; Function compile flags: /Odtp /ZI
; File x:\github\renegade\dragonade_rxd\scripts\referencerclass.h
;	COMDAT ??CReferencerClass@@QAEPAVScriptableGameObj@@XZ
_TEXT	SEGMENT
_this$ = -4						; size = 4
??CReferencerClass@@QAEPAVScriptableGameObj@@XZ PROC	; ReferencerClass::operator->, COMDAT
; _this$ = ecx

; 37   : 	inline ScriptableGameObj* operator ->() { return Get_Ptr(); }

	push	ebp
	mov	ebp, esp
	sub	esp, 68					; 00000044H
	push	ebx
	push	esi
	push	edi
	mov	DWORD PTR _this$[ebp], ecx
	mov	ecx, DWORD PTR _this$[ebp]
	call	?Get_Ptr@ReferencerClass@@QBEPAVScriptableGameObj@@XZ ; ReferencerClass::Get_Ptr
	pop	edi
	pop	esi
	pop	ebx
	mov	esp, ebp
	pop	ebp
	ret	0
??CReferencerClass@@QAEPAVScriptableGameObj@@XZ ENDP	; ReferencerClass::operator->
_TEXT	ENDS
; Function compile flags: /Odtp /ZI
;	COMDAT ??4file_auto_ptr@@QAEAAV0@ABV0@@Z
_TEXT	SEGMENT
_this$ = -4						; size = 4
___that$ = 8						; size = 4
??4file_auto_ptr@@QAEAAV0@ABV0@@Z PROC			; file_auto_ptr::operator=, COMDAT
; _this$ = ecx
	push	ebp
	mov	ebp, esp
	sub	esp, 68					; 00000044H
	push	ebx
	push	esi
	push	edi
	mov	DWORD PTR _this$[ebp], ecx
	mov	eax, DWORD PTR ___that$[ebp]
	mov	ecx, DWORD PTR [eax]
	mov	edx, DWORD PTR [eax+4]
	mov	eax, DWORD PTR _this$[ebp]
	mov	DWORD PTR [eax], ecx
	mov	DWORD PTR [eax+4], edx
	mov	eax, DWORD PTR _this$[ebp]
	pop	edi
	pop	esi
	pop	ebx
	mov	esp, ebp
	pop	ebp
	ret	4
??4file_auto_ptr@@QAEAAV0@ABV0@@Z ENDP			; file_auto_ptr::operator=
_TEXT	ENDS
; Function compile flags: /Odtp /ZI
; File x:\github\renegade\dragonade_rxd\scripts\engine_io.h
;	COMDAT ?get@file_auto_ptr@@QAEPAVFileClass@@XZ
_TEXT	SEGMENT
_this$ = -4						; size = 4
?get@file_auto_ptr@@QAEPAVFileClass@@XZ PROC		; file_auto_ptr::get, COMDAT
; _this$ = ecx

; 202  : 	FileClass* get() { return _Ptr; }

	push	ebp
	mov	ebp, esp
	sub	esp, 68					; 00000044H
	push	ebx
	push	esi
	push	edi
	mov	DWORD PTR _this$[ebp], ecx
	mov	eax, DWORD PTR _this$[ebp]
	mov	eax, DWORD PTR [eax]
	pop	edi
	pop	esi
	pop	ebx
	mov	esp, ebp
	pop	ebp
	ret	0
?get@file_auto_ptr@@QAEPAVFileClass@@XZ ENDP		; file_auto_ptr::get
_TEXT	ENDS
; Function compile flags: /Odtp /ZI
; File x:\github\renegade\dragonade_rxd\scripts\engine_io.h
;	COMDAT ??Dfile_auto_ptr@@QAEAAVFileClass@@XZ
_TEXT	SEGMENT
_this$ = -4						; size = 4
??Dfile_auto_ptr@@QAEAAVFileClass@@XZ PROC		; file_auto_ptr::operator*, COMDAT
; _this$ = ecx

; 201  : 	FileClass& operator*() { return *_Ptr; }

	push	ebp
	mov	ebp, esp
	sub	esp, 68					; 00000044H
	push	ebx
	push	esi
	push	edi
	mov	DWORD PTR _this$[ebp], ecx
	mov	eax, DWORD PTR _this$[ebp]
	mov	eax, DWORD PTR [eax]
	pop	edi
	pop	esi
	pop	ebx
	mov	esp, ebp
	pop	ebp
	ret	0
??Dfile_auto_ptr@@QAEAAVFileClass@@XZ ENDP		; file_auto_ptr::operator*
_TEXT	ENDS
; Function compile flags: /Odtp /ZI
; File x:\github\renegade\dragonade_rxd\scripts\engine_io.h
;	COMDAT ??Bfile_auto_ptr@@QAEPAVFileClass@@XZ
_TEXT	SEGMENT
_this$ = -4						; size = 4
??Bfile_auto_ptr@@QAEPAVFileClass@@XZ PROC		; file_auto_ptr::operator FileClass *, COMDAT
; _this$ = ecx

; 200  : 	operator FileClass *() { return _Ptr; }

	push	ebp
	mov	ebp, esp
	sub	esp, 68					; 00000044H
	push	ebx
	push	esi
	push	edi
	mov	DWORD PTR _this$[ebp], ecx
	mov	eax, DWORD PTR _this$[ebp]
	mov	eax, DWORD PTR [eax]
	pop	edi
	pop	esi
	pop	ebx
	mov	esp, ebp
	pop	ebp
	ret	0
??Bfile_auto_ptr@@QAEPAVFileClass@@XZ ENDP		; file_auto_ptr::operator FileClass *
_TEXT	ENDS
; Function compile flags: /Odtp /ZI
; File x:\github\renegade\dragonade_rxd\scripts\engine_io.h
;	COMDAT ??Cfile_auto_ptr@@QAEPAVFileClass@@XZ
_TEXT	SEGMENT
_this$ = -4						; size = 4
??Cfile_auto_ptr@@QAEPAVFileClass@@XZ PROC		; file_auto_ptr::operator->, COMDAT
; _this$ = ecx

; 199  : 	FileClass* operator ->() { return _Ptr; }

	push	ebp
	mov	ebp, esp
	sub	esp, 68					; 00000044H
	push	ebx
	push	esi
	push	edi
	mov	DWORD PTR _this$[ebp], ecx
	mov	eax, DWORD PTR _this$[ebp]
	mov	eax, DWORD PTR [eax]
	pop	edi
	pop	esi
	pop	ebx
	mov	esp, ebp
	pop	ebp
	ret	0
??Cfile_auto_ptr@@QAEPAVFileClass@@XZ ENDP		; file_auto_ptr::operator->
_TEXT	ENDS
; Function compile flags: /Odtp /ZI
;	COMDAT ??_EINIClass@@UAEPAXI@Z
_TEXT	SEGMENT
_this$ = -4						; size = 4
___flags$ = 8						; size = 4
??_EINIClass@@UAEPAXI@Z PROC				; INIClass::`vector deleting destructor', COMDAT
; _this$ = ecx
	push	ebp
	mov	ebp, esp
	sub	esp, 68					; 00000044H
	push	ebx
	push	esi
	push	edi
	mov	DWORD PTR _this$[ebp], ecx
	mov	eax, DWORD PTR ___flags$[ebp]
	and	eax, 2
	je	SHORT $LN3@vector
	push	OFFSET ??1INIClass@@UAE@XZ		; INIClass::~INIClass
	mov	eax, DWORD PTR _this$[ebp]
	mov	ecx, DWORD PTR [eax-4]
	push	ecx
	push	16					; 00000010H
	mov	edx, DWORD PTR _this$[ebp]
	push	edx
	call	??_I@YGXPAXIHP6EX0@Z@Z
	mov	eax, DWORD PTR ___flags$[ebp]
	and	eax, 1
	je	SHORT $LN2@vector
	mov	eax, DWORD PTR _this$[ebp]
	sub	eax, 4
	push	eax
	call	??_V@YAXPAX@Z				; operator delete[]
	add	esp, 4
$LN2@vector:
	mov	eax, DWORD PTR _this$[ebp]
	sub	eax, 4
	jmp	SHORT $LN4@vector
$LN3@vector:
	mov	ecx, DWORD PTR _this$[ebp]
	call	??1INIClass@@UAE@XZ			; INIClass::~INIClass
	mov	eax, DWORD PTR ___flags$[ebp]
	and	eax, 1
	je	SHORT $LN1@vector
	mov	eax, DWORD PTR _this$[ebp]
	push	eax
	call	??3@YAXPAX@Z				; operator delete
	add	esp, 4
$LN1@vector:
	mov	eax, DWORD PTR _this$[ebp]
$LN4@vector:
	pop	edi
	pop	esi
	pop	ebx
	mov	esp, ebp
	pop	ebp
	ret	4
??_EINIClass@@UAEPAXI@Z ENDP				; INIClass::`vector deleting destructor'
_TEXT	ENDS
; Function compile flags: /Odtp /ZI
;	COMDAT ??_GINIClass@@UAEPAXI@Z
_TEXT	SEGMENT
_this$ = -4						; size = 4
___flags$ = 8						; size = 4
??_GINIClass@@UAEPAXI@Z PROC				; INIClass::`scalar deleting destructor', COMDAT
; _this$ = ecx
	push	ebp
	mov	ebp, esp
	sub	esp, 68					; 00000044H
	push	ebx
	push	esi
	push	edi
	mov	DWORD PTR _this$[ebp], ecx
	mov	ecx, DWORD PTR _this$[ebp]
	call	??1INIClass@@UAE@XZ			; INIClass::~INIClass
	mov	eax, DWORD PTR ___flags$[ebp]
	and	eax, 1
	je	SHORT $LN1@scalar
	mov	eax, DWORD PTR _this$[ebp]
	push	eax
	call	??3@YAXPAX@Z				; operator delete
	add	esp, 4
$LN1@scalar:
	mov	eax, DWORD PTR _this$[ebp]
	pop	edi
	pop	esi
	pop	ebx
	mov	esp, ebp
	pop	ebp
	ret	4
??_GINIClass@@UAEPAXI@Z ENDP				; INIClass::`scalar deleting destructor'
_TEXT	ENDS
; Function compile flags: /Odtp /ZI
;	COMDAT ??4INIClass@@QAEAAV0@ABV0@@Z
_TEXT	SEGMENT
_this$ = -4						; size = 4
___that$ = 8						; size = 4
??4INIClass@@QAEAAV0@ABV0@@Z PROC			; INIClass::operator=, COMDAT
; _this$ = ecx
	push	ebp
	mov	ebp, esp
	sub	esp, 68					; 00000044H
	push	ebx
	push	esi
	push	edi
	mov	DWORD PTR _this$[ebp], ecx
	mov	eax, DWORD PTR _this$[ebp]
	mov	ecx, DWORD PTR ___that$[ebp]
	mov	edx, DWORD PTR [ecx+4]
	mov	DWORD PTR [eax+4], edx
	mov	eax, DWORD PTR _this$[ebp]
	mov	ecx, DWORD PTR ___that$[ebp]
	mov	edx, DWORD PTR [ecx+8]
	mov	DWORD PTR [eax+8], edx
	mov	eax, DWORD PTR _this$[ebp]
	mov	ecx, DWORD PTR ___that$[ebp]
	mov	edx, DWORD PTR [ecx+12]
	mov	DWORD PTR [eax+12], edx
	mov	eax, DWORD PTR _this$[ebp]
	pop	edi
	pop	esi
	pop	ebx
	mov	esp, ebp
	pop	ebp
	ret	4
??4INIClass@@QAEAAV0@ABV0@@Z ENDP			; INIClass::operator=
_TEXT	ENDS
; Function compile flags: /Odtp /ZI
;	COMDAT ??0INIClass@@QAE@ABV0@@Z
_TEXT	SEGMENT
_this$ = -4						; size = 4
___that$ = 8						; size = 4
??0INIClass@@QAE@ABV0@@Z PROC				; INIClass::INIClass, COMDAT
; _this$ = ecx
	push	ebp
	mov	ebp, esp
	sub	esp, 68					; 00000044H
	push	ebx
	push	esi
	push	edi
	mov	DWORD PTR _this$[ebp], ecx
	mov	eax, DWORD PTR _this$[ebp]
	mov	DWORD PTR [eax], OFFSET ??_7INIClass@@6B@
	mov	eax, DWORD PTR _this$[ebp]
	mov	ecx, DWORD PTR ___that$[ebp]
	mov	edx, DWORD PTR [ecx+4]
	mov	DWORD PTR [eax+4], edx
	mov	eax, DWORD PTR _this$[ebp]
	mov	ecx, DWORD PTR ___that$[ebp]
	mov	edx, DWORD PTR [ecx+8]
	mov	DWORD PTR [eax+8], edx
	mov	eax, DWORD PTR _this$[ebp]
	mov	ecx, DWORD PTR ___that$[ebp]
	mov	edx, DWORD PTR [ecx+12]
	mov	DWORD PTR [eax+12], edx
	mov	eax, DWORD PTR _this$[ebp]
	pop	edi
	pop	esi
	pop	ebx
	mov	esp, ebp
	pop	ebp
	ret	4
??0INIClass@@QAE@ABV0@@Z ENDP				; INIClass::INIClass
_TEXT	ENDS
; Function compile flags: /Odtp /ZI
; File x:\github\renegade\dragonade_rxd\scripts\engine_io.h
;	COMDAT ?Get_File_Name@INIClass@@QAEPBDXZ
_TEXT	SEGMENT
_this$ = -4						; size = 4
?Get_File_Name@INIClass@@QAEPBDXZ PROC			; INIClass::Get_File_Name, COMDAT
; _this$ = ecx

; 183  : 	const char *Get_File_Name() { //DA

	push	ebp
	mov	ebp, esp
	sub	esp, 68					; 00000044H
	push	ebx
	push	esi
	push	edi
	mov	DWORD PTR _this$[ebp], ecx

; 184  : 		return Filename;

	mov	eax, DWORD PTR _this$[ebp]
	mov	eax, DWORD PTR [eax+12]

; 185  : 	}

	pop	edi
	pop	esi
	pop	ebx
	mov	esp, ebp
	pop	ebp
	ret	0
?Get_File_Name@INIClass@@QAEPBDXZ ENDP			; INIClass::Get_File_Name
_TEXT	ENDS
; Function compile flags: /Odtp /ZI
; File x:\github\renegade\dragonade_rxd\scripts\engine_io.h
;	COMDAT ?Get_Section_Index@INIClass@@QAEAAV?$IndexClass@HPAUINISection@@@@XZ
_TEXT	SEGMENT
_this$ = -4						; size = 4
?Get_Section_Index@INIClass@@QAEAAV?$IndexClass@HPAUINISection@@@@XZ PROC ; INIClass::Get_Section_Index, COMDAT
; _this$ = ecx

; 180  : 	{

	push	ebp
	mov	ebp, esp
	sub	esp, 68					; 00000044H
	push	ebx
	push	esi
	push	edi
	mov	DWORD PTR _this$[ebp], ecx

; 181  : 		return *SectionIndex;

	mov	eax, DWORD PTR _this$[ebp]
	mov	eax, DWORD PTR [eax+8]

; 182  : 	}

	pop	edi
	pop	esi
	pop	ebx
	mov	esp, ebp
	pop	ebp
	ret	0
?Get_Section_Index@INIClass@@QAEAAV?$IndexClass@HPAUINISection@@@@XZ ENDP ; INIClass::Get_Section_Index
_TEXT	ENDS
; Function compile flags: /Odtp /ZI
; File x:\github\renegade\dragonade_rxd\scripts\engine_io.h
;	COMDAT ?Get_Section_List@INIClass@@QAEAAV?$List@PAUINISection@@@@XZ
_TEXT	SEGMENT
_this$ = -4						; size = 4
?Get_Section_List@INIClass@@QAEAAV?$List@PAUINISection@@@@XZ PROC ; INIClass::Get_Section_List, COMDAT
; _this$ = ecx

; 176  : 	{

	push	ebp
	mov	ebp, esp
	sub	esp, 68					; 00000044H
	push	ebx
	push	esi
	push	edi
	mov	DWORD PTR _this$[ebp], ecx

; 177  : 		return *SectionList;

	mov	eax, DWORD PTR _this$[ebp]
	mov	eax, DWORD PTR [eax+4]

; 178  : 	}

	pop	edi
	pop	esi
	pop	ebx
	mov	esp, ebp
	pop	ebp
	ret	0
?Get_Section_List@INIClass@@QAEAAV?$List@PAUINISection@@@@XZ ENDP ; INIClass::Get_Section_List
_TEXT	ENDS
; Function compile flags: /Odtp /ZI
; File x:\github\renegade\dragonade_rxd\scripts\engine_io.h
;	COMDAT ?Section_Present@INIClass@@QBE_NPBD@Z
_TEXT	SEGMENT
tv68 = -72						; size = 4
_this$ = -4						; size = 4
_section$ = 8						; size = 4
?Section_Present@INIClass@@QBE_NPBD@Z PROC		; INIClass::Section_Present, COMDAT
; _this$ = ecx

; 172  : 	{

	push	ebp
	mov	ebp, esp
	sub	esp, 72					; 00000048H
	push	ebx
	push	esi
	push	edi
	mov	DWORD PTR _this$[ebp], ecx

; 173  : 		return Find_Section(section) != 0;

	mov	eax, DWORD PTR _section$[ebp]
	push	eax
	mov	ecx, DWORD PTR _this$[ebp]
	call	?Find_Section@INIClass@@QBEPAUINISection@@PBD@Z ; INIClass::Find_Section
	test	eax, eax
	je	SHORT $LN3@Section_Pr
	mov	DWORD PTR tv68[ebp], 1
	jmp	SHORT $LN4@Section_Pr
$LN3@Section_Pr:
	mov	DWORD PTR tv68[ebp], 0
$LN4@Section_Pr:
	mov	al, BYTE PTR tv68[ebp]

; 174  : 	}

	pop	edi
	pop	esi
	pop	ebx
	mov	esp, ebp
	pop	ebp
	ret	4
?Section_Present@INIClass@@QBE_NPBD@Z ENDP		; INIClass::Section_Present
_TEXT	ENDS
; Function compile flags: /Odtp /ZI
; File x:\github\renegade\dragonade_rxd\scripts\engine_io.h
;	COMDAT ?Is_Present@INIClass@@QBE_NPBD0@Z
_TEXT	SEGMENT
tv76 = -72						; size = 4
tv70 = -72						; size = 4
_this$ = -4						; size = 4
_section$ = 8						; size = 4
_entry$ = 12						; size = 4
?Is_Present@INIClass@@QBE_NPBD0@Z PROC			; INIClass::Is_Present, COMDAT
; _this$ = ecx

; 161  : 	{

	push	ebp
	mov	ebp, esp
	sub	esp, 72					; 00000048H
	push	ebx
	push	esi
	push	edi
	mov	DWORD PTR _this$[ebp], ecx

; 162  : 		if (entry)

	cmp	DWORD PTR _entry$[ebp], 0
	je	SHORT $LN2@Is_Present

; 163  : 		{
; 164  : 			return Find_Entry(section,entry) != 0;

	mov	eax, DWORD PTR _entry$[ebp]
	push	eax
	mov	ecx, DWORD PTR _section$[ebp]
	push	ecx
	mov	ecx, DWORD PTR _this$[ebp]
	call	?Find_Entry@INIClass@@QBEPAUINIEntry@@PBD0@Z ; INIClass::Find_Entry
	test	eax, eax
	je	SHORT $LN5@Is_Present
	mov	DWORD PTR tv70[ebp], 1
	jmp	SHORT $LN6@Is_Present
$LN5@Is_Present:
	mov	DWORD PTR tv70[ebp], 0
$LN6@Is_Present:
	mov	al, BYTE PTR tv70[ebp]
	jmp	SHORT $LN3@Is_Present

; 165  : 		}
; 166  : 		else

	jmp	SHORT $LN3@Is_Present
$LN2@Is_Present:

; 167  : 		{
; 168  : 			return Find_Section(section) != 0;

	mov	eax, DWORD PTR _section$[ebp]
	push	eax
	mov	ecx, DWORD PTR _this$[ebp]
	call	?Find_Section@INIClass@@QBEPAUINISection@@PBD@Z ; INIClass::Find_Section
	test	eax, eax
	je	SHORT $LN7@Is_Present
	mov	DWORD PTR tv76[ebp], 1
	jmp	SHORT $LN8@Is_Present
$LN7@Is_Present:
	mov	DWORD PTR tv76[ebp], 0
$LN8@Is_Present:
	mov	al, BYTE PTR tv76[ebp]
$LN3@Is_Present:

; 169  : 		}
; 170  : 	}

	pop	edi
	pop	esi
	pop	ebx
	mov	esp, ebp
	pop	ebp
	ret	8
?Is_Present@INIClass@@QBE_NPBD0@Z ENDP			; INIClass::Is_Present
_TEXT	ENDS
; Function compile flags: /Odtp /ZI
;	COMDAT ??4ChunkSaveClass@@QAEAAV0@ABV0@@Z
_TEXT	SEGMENT
_this$ = -4						; size = 4
___that$ = 8						; size = 4
??4ChunkSaveClass@@QAEAAV0@ABV0@@Z PROC			; ChunkSaveClass::operator=, COMDAT
; _this$ = ecx
	push	ebp
	mov	ebp, esp
	sub	esp, 68					; 00000044H
	push	ebx
	push	esi
	push	edi
	mov	DWORD PTR _this$[ebp], ecx
	mov	ecx, 773				; 00000305H
	mov	esi, DWORD PTR ___that$[ebp]
	mov	edi, DWORD PTR _this$[ebp]
	rep movsd
	mov	eax, DWORD PTR _this$[ebp]
	pop	edi
	pop	esi
	pop	ebx
	mov	esp, ebp
	pop	ebp
	ret	4
??4ChunkSaveClass@@QAEAAV0@ABV0@@Z ENDP			; ChunkSaveClass::operator=
_TEXT	ENDS
; Function compile flags: /Odtp /ZI
; File x:\github\renegade\dragonade_rxd\scripts\chunkclass.h
;	COMDAT ?Set_Contains_Chunks@ChunkSaveClass@@QAEXXZ
_TEXT	SEGMENT
_this$ = -4						; size = 4
?Set_Contains_Chunks@ChunkSaveClass@@QAEXXZ PROC	; ChunkSaveClass::Set_Contains_Chunks, COMDAT
; _this$ = ecx

; 102  : 	{

	push	ebp
	mov	ebp, esp
	sub	esp, 68					; 00000044H
	push	ebx
	push	esi
	push	edi
	mov	DWORD PTR _this$[ebp], ecx

; 103  : 		HeaderStack[StackIndex-1].ChunkSize |= 0x80000000;

	mov	eax, DWORD PTR _this$[ebp]
	mov	ecx, DWORD PTR [eax+4]
	mov	edx, DWORD PTR _this$[ebp]
	mov	eax, DWORD PTR [edx+ecx*8+1028]
	or	eax, -2147483648			; 80000000H
	mov	ecx, DWORD PTR _this$[ebp]
	mov	edx, DWORD PTR [ecx+4]
	mov	ecx, DWORD PTR _this$[ebp]
	mov	DWORD PTR [ecx+edx*8+1028], eax

; 104  : 	}

	pop	edi
	pop	esi
	pop	ebx
	mov	esp, ebp
	pop	ebp
	ret	0
?Set_Contains_Chunks@ChunkSaveClass@@QAEXXZ ENDP	; ChunkSaveClass::Set_Contains_Chunks
_TEXT	ENDS
; Function compile flags: /Odtp /ZI
;	COMDAT ??4ChunkLoadClass@@QAEAAV0@ABV0@@Z
_TEXT	SEGMENT
_this$ = -4						; size = 4
___that$ = 8						; size = 4
??4ChunkLoadClass@@QAEAAV0@ABV0@@Z PROC			; ChunkLoadClass::operator=, COMDAT
; _this$ = ecx
	push	ebp
	mov	ebp, esp
	sub	esp, 68					; 00000044H
	push	ebx
	push	esi
	push	edi
	mov	DWORD PTR _this$[ebp], ecx
	mov	ecx, 773				; 00000305H
	mov	esi, DWORD PTR ___that$[ebp]
	mov	edi, DWORD PTR _this$[ebp]
	rep movsd
	mov	eax, DWORD PTR _this$[ebp]
	pop	edi
	pop	esi
	pop	ebx
	mov	esp, ebp
	pop	ebp
	ret	4
??4ChunkLoadClass@@QAEAAV0@ABV0@@Z ENDP			; ChunkLoadClass::operator=
_TEXT	ENDS
; Function compile flags: /Odtp /ZI
;	COMDAT ??_EWideStringClass@@QAEPAXI@Z
_TEXT	SEGMENT
_this$ = -4						; size = 4
___flags$ = 8						; size = 4
??_EWideStringClass@@QAEPAXI@Z PROC			; WideStringClass::`vector deleting destructor', COMDAT
; _this$ = ecx
	push	ebp
	mov	ebp, esp
	sub	esp, 68					; 00000044H
	push	ebx
	push	esi
	push	edi
	mov	DWORD PTR _this$[ebp], ecx
	mov	eax, DWORD PTR ___flags$[ebp]
	and	eax, 2
	je	SHORT $LN3@vector
	push	OFFSET ??1WideStringClass@@QAE@XZ	; WideStringClass::~WideStringClass
	mov	eax, DWORD PTR _this$[ebp]
	mov	ecx, DWORD PTR [eax-4]
	push	ecx
	push	4
	mov	edx, DWORD PTR _this$[ebp]
	push	edx
	call	??_I@YGXPAXIHP6EX0@Z@Z
	mov	eax, DWORD PTR ___flags$[ebp]
	and	eax, 1
	je	SHORT $LN2@vector
	mov	eax, DWORD PTR _this$[ebp]
	sub	eax, 4
	push	eax
	call	??_V@YAXPAX@Z				; operator delete[]
	add	esp, 4
$LN2@vector:
	mov	eax, DWORD PTR _this$[ebp]
	sub	eax, 4
	jmp	SHORT $LN4@vector
$LN3@vector:
	mov	ecx, DWORD PTR _this$[ebp]
	call	??1WideStringClass@@QAE@XZ		; WideStringClass::~WideStringClass
	mov	eax, DWORD PTR ___flags$[ebp]
	and	eax, 1
	je	SHORT $LN1@vector
	mov	eax, DWORD PTR _this$[ebp]
	push	eax
	call	??3@YAXPAX@Z				; operator delete
	add	esp, 4
$LN1@vector:
	mov	eax, DWORD PTR _this$[ebp]
$LN4@vector:
	pop	edi
	pop	esi
	pop	ebx
	mov	esp, ebp
	pop	ebp
	ret	4
??_EWideStringClass@@QAEPAXI@Z ENDP			; WideStringClass::`vector deleting destructor'
_TEXT	ENDS
; Function compile flags: /Odtp /ZI
; File x:\github\renegade\dragonade_rxd\scripts\engine_string.h
;	COMDAT ??1WideStringClass@@QAE@XZ
_TEXT	SEGMENT
_this$ = -4						; size = 4
??1WideStringClass@@QAE@XZ PROC				; WideStringClass::~WideStringClass, COMDAT
; _this$ = ecx

; 778  : {

	push	ebp
	mov	ebp, esp
	sub	esp, 68					; 00000044H
	push	ebx
	push	esi
	push	edi
	mov	DWORD PTR _this$[ebp], ecx

; 779  : 	Free_String ();

	mov	ecx, DWORD PTR _this$[ebp]
	call	DWORD PTR __imp_?Free_String@WideStringClass@@AAEXXZ

; 780  : }

	pop	edi
	pop	esi
	pop	ebx
	mov	esp, ebp
	pop	ebp
	ret	0
??1WideStringClass@@QAE@XZ ENDP				; WideStringClass::~WideStringClass
_TEXT	ENDS
; Function compile flags: /Odtp /ZI
;	COMDAT ??_EStringClass@@QAEPAXI@Z
_TEXT	SEGMENT
_this$ = -4						; size = 4
___flags$ = 8						; size = 4
??_EStringClass@@QAEPAXI@Z PROC				; StringClass::`vector deleting destructor', COMDAT
; _this$ = ecx
	push	ebp
	mov	ebp, esp
	sub	esp, 68					; 00000044H
	push	ebx
	push	esi
	push	edi
	mov	DWORD PTR _this$[ebp], ecx
	mov	eax, DWORD PTR ___flags$[ebp]
	and	eax, 2
	je	SHORT $LN3@vector
	push	OFFSET ??1StringClass@@QAE@XZ		; StringClass::~StringClass
	mov	eax, DWORD PTR _this$[ebp]
	mov	ecx, DWORD PTR [eax-4]
	push	ecx
	push	4
	mov	edx, DWORD PTR _this$[ebp]
	push	edx
	call	??_I@YGXPAXIHP6EX0@Z@Z
	mov	eax, DWORD PTR ___flags$[ebp]
	and	eax, 1
	je	SHORT $LN2@vector
	mov	eax, DWORD PTR _this$[ebp]
	sub	eax, 4
	push	eax
	call	??_V@YAXPAX@Z				; operator delete[]
	add	esp, 4
$LN2@vector:
	mov	eax, DWORD PTR _this$[ebp]
	sub	eax, 4
	jmp	SHORT $LN4@vector
$LN3@vector:
	mov	ecx, DWORD PTR _this$[ebp]
	call	??1StringClass@@QAE@XZ			; StringClass::~StringClass
	mov	eax, DWORD PTR ___flags$[ebp]
	and	eax, 1
	je	SHORT $LN1@vector
	mov	eax, DWORD PTR _this$[ebp]
	push	eax
	call	??3@YAXPAX@Z				; operator delete
	add	esp, 4
$LN1@vector:
	mov	eax, DWORD PTR _this$[ebp]
$LN4@vector:
	pop	edi
	pop	esi
	pop	ebx
	mov	esp, ebp
	pop	ebp
	ret	4
??_EStringClass@@QAEPAXI@Z ENDP				; StringClass::`vector deleting destructor'
_TEXT	ENDS
; Function compile flags: /Odtp /ZI
; File x:\github\renegade\dragonade_rxd\scripts\engine_string.h
;	COMDAT ??1StringClass@@QAE@XZ
_TEXT	SEGMENT
_this$ = -4						; size = 4
??1StringClass@@QAE@XZ PROC				; StringClass::~StringClass, COMDAT
; _this$ = ecx

; 366  : {

	push	ebp
	mov	ebp, esp
	sub	esp, 68					; 00000044H
	push	ebx
	push	esi
	push	edi
	mov	DWORD PTR _this$[ebp], ecx

; 367  : 	Free_String ();

	mov	ecx, DWORD PTR _this$[ebp]
	call	DWORD PTR __imp_?Free_String@StringClass@@AAEXXZ

; 368  : }

	pop	edi
	pop	esi
	pop	ebx
	mov	esp, ebp
	pop	ebp
	ret	0
??1StringClass@@QAE@XZ ENDP				; StringClass::~StringClass
_TEXT	ENDS
; Function compile flags: /Odtp /ZI
;	COMDAT ??_EPostLoadableClass@@UAEPAXI@Z
_TEXT	SEGMENT
_this$ = -4						; size = 4
___flags$ = 8						; size = 4
??_EPostLoadableClass@@UAEPAXI@Z PROC			; PostLoadableClass::`vector deleting destructor', COMDAT
; _this$ = ecx
	push	ebp
	mov	ebp, esp
	sub	esp, 68					; 00000044H
	push	ebx
	push	esi
	push	edi
	mov	DWORD PTR _this$[ebp], ecx
	mov	eax, DWORD PTR ___flags$[ebp]
	and	eax, 2
	je	SHORT $LN3@vector
	push	OFFSET ??1PostLoadableClass@@UAE@XZ	; PostLoadableClass::~PostLoadableClass
	mov	eax, DWORD PTR _this$[ebp]
	mov	ecx, DWORD PTR [eax-4]
	push	ecx
	push	8
	mov	edx, DWORD PTR _this$[ebp]
	push	edx
	call	??_I@YGXPAXIHP6EX0@Z@Z
	mov	eax, DWORD PTR ___flags$[ebp]
	and	eax, 1
	je	SHORT $LN2@vector
	mov	eax, DWORD PTR _this$[ebp]
	sub	eax, 4
	push	eax
	call	??_V@YAXPAX@Z				; operator delete[]
	add	esp, 4
$LN2@vector:
	mov	eax, DWORD PTR _this$[ebp]
	sub	eax, 4
	jmp	SHORT $LN4@vector
$LN3@vector:
	mov	ecx, DWORD PTR _this$[ebp]
	call	??1PostLoadableClass@@UAE@XZ		; PostLoadableClass::~PostLoadableClass
	mov	eax, DWORD PTR ___flags$[ebp]
	and	eax, 1
	je	SHORT $LN1@vector
	mov	eax, DWORD PTR _this$[ebp]
	push	eax
	call	??3@YAXPAX@Z				; operator delete
	add	esp, 4
$LN1@vector:
	mov	eax, DWORD PTR _this$[ebp]
$LN4@vector:
	pop	edi
	pop	esi
	pop	ebx
	mov	esp, ebp
	pop	ebp
	ret	4
??_EPostLoadableClass@@UAEPAXI@Z ENDP			; PostLoadableClass::`vector deleting destructor'
_TEXT	ENDS
; Function compile flags: /Odtp /ZI
;	COMDAT ??_GPostLoadableClass@@UAEPAXI@Z
_TEXT	SEGMENT
_this$ = -4						; size = 4
___flags$ = 8						; size = 4
??_GPostLoadableClass@@UAEPAXI@Z PROC			; PostLoadableClass::`scalar deleting destructor', COMDAT
; _this$ = ecx
	push	ebp
	mov	ebp, esp
	sub	esp, 68					; 00000044H
	push	ebx
	push	esi
	push	edi
	mov	DWORD PTR _this$[ebp], ecx
	mov	ecx, DWORD PTR _this$[ebp]
	call	??1PostLoadableClass@@UAE@XZ		; PostLoadableClass::~PostLoadableClass
	mov	eax, DWORD PTR ___flags$[ebp]
	and	eax, 1
	je	SHORT $LN1@scalar
	mov	eax, DWORD PTR _this$[ebp]
	push	eax
	call	??3@YAXPAX@Z				; operator delete
	add	esp, 4
$LN1@scalar:
	mov	eax, DWORD PTR _this$[ebp]
	pop	edi
	pop	esi
	pop	ebx
	mov	esp, ebp
	pop	ebp
	ret	4
??_GPostLoadableClass@@UAEPAXI@Z ENDP			; PostLoadableClass::`scalar deleting destructor'
_TEXT	ENDS
; Function compile flags: /Odtp /ZI
;	COMDAT ??4PostLoadableClass@@QAEAAV0@ABV0@@Z
_TEXT	SEGMENT
_this$ = -4						; size = 4
___that$ = 8						; size = 4
??4PostLoadableClass@@QAEAAV0@ABV0@@Z PROC		; PostLoadableClass::operator=, COMDAT
; _this$ = ecx
	push	ebp
	mov	ebp, esp
	sub	esp, 68					; 00000044H
	push	ebx
	push	esi
	push	edi
	mov	DWORD PTR _this$[ebp], ecx
	mov	eax, DWORD PTR _this$[ebp]
	mov	ecx, DWORD PTR ___that$[ebp]
	mov	dl, BYTE PTR [ecx+4]
	mov	BYTE PTR [eax+4], dl
	mov	eax, DWORD PTR _this$[ebp]
	pop	edi
	pop	esi
	pop	ebx
	mov	esp, ebp
	pop	ebp
	ret	4
??4PostLoadableClass@@QAEAAV0@ABV0@@Z ENDP		; PostLoadableClass::operator=
_TEXT	ENDS
; Function compile flags: /Odtp /ZI
;	COMDAT ??0PostLoadableClass@@QAE@ABV0@@Z
_TEXT	SEGMENT
_this$ = -4						; size = 4
___that$ = 8						; size = 4
??0PostLoadableClass@@QAE@ABV0@@Z PROC			; PostLoadableClass::PostLoadableClass, COMDAT
; _this$ = ecx
	push	ebp
	mov	ebp, esp
	sub	esp, 68					; 00000044H
	push	ebx
	push	esi
	push	edi
	mov	DWORD PTR _this$[ebp], ecx
	mov	eax, DWORD PTR _this$[ebp]
	mov	DWORD PTR [eax], OFFSET ??_7PostLoadableClass@@6B@
	mov	eax, DWORD PTR _this$[ebp]
	mov	ecx, DWORD PTR ___that$[ebp]
	mov	dl, BYTE PTR [ecx+4]
	mov	BYTE PTR [eax+4], dl
	mov	eax, DWORD PTR _this$[ebp]
	pop	edi
	pop	esi
	pop	ebx
	mov	esp, ebp
	pop	ebp
	ret	4
??0PostLoadableClass@@QAE@ABV0@@Z ENDP			; PostLoadableClass::PostLoadableClass
_TEXT	ENDS
; Function compile flags: /Odtp /ZI
; File x:\github\renegade\dragonade_rxd\scripts\postloadableclass.h
;	COMDAT ?Set_Post_Load_Registered@PostLoadableClass@@QAEX_N@Z
_TEXT	SEGMENT
_this$ = -4						; size = 4
_onoff$ = 8						; size = 1
?Set_Post_Load_Registered@PostLoadableClass@@QAEX_N@Z PROC ; PostLoadableClass::Set_Post_Load_Registered, COMDAT
; _this$ = ecx

; 22   : 	void									Set_Post_Load_Registered(bool onoff)	{ IsPostLoadRegistered = onoff; }

	push	ebp
	mov	ebp, esp
	sub	esp, 68					; 00000044H
	push	ebx
	push	esi
	push	edi
	mov	DWORD PTR _this$[ebp], ecx
	mov	eax, DWORD PTR _this$[ebp]
	mov	cl, BYTE PTR _onoff$[ebp]
	mov	BYTE PTR [eax+4], cl
	pop	edi
	pop	esi
	pop	ebx
	mov	esp, ebp
	pop	ebp
	ret	4
?Set_Post_Load_Registered@PostLoadableClass@@QAEX_N@Z ENDP ; PostLoadableClass::Set_Post_Load_Registered
_TEXT	ENDS
; Function compile flags: /Odtp /ZI
; File x:\github\renegade\dragonade_rxd\scripts\postloadableclass.h
;	COMDAT ?Is_Post_Load_Registered@PostLoadableClass@@QBE_NXZ
_TEXT	SEGMENT
_this$ = -4						; size = 4
?Is_Post_Load_Registered@PostLoadableClass@@QBE_NXZ PROC ; PostLoadableClass::Is_Post_Load_Registered, COMDAT
; _this$ = ecx

; 21   : 	bool									Is_Post_Load_Registered(void) const				{ return IsPostLoadRegistered; }

	push	ebp
	mov	ebp, esp
	sub	esp, 68					; 00000044H
	push	ebx
	push	esi
	push	edi
	mov	DWORD PTR _this$[ebp], ecx
	mov	eax, DWORD PTR _this$[ebp]
	mov	al, BYTE PTR [eax+4]
	pop	edi
	pop	esi
	pop	ebx
	mov	esp, ebp
	pop	ebp
	ret	0
?Is_Post_Load_Registered@PostLoadableClass@@QBE_NXZ ENDP ; PostLoadableClass::Is_Post_Load_Registered
_TEXT	ENDS
; Function compile flags: /Odtp /ZI
; File x:\github\renegade\dragonade_rxd\scripts\postloadableclass.h
;	COMDAT ?On_Post_Load@PostLoadableClass@@UAEXXZ
_TEXT	SEGMENT
_this$ = -4						; size = 4
?On_Post_Load@PostLoadableClass@@UAEXXZ PROC		; PostLoadableClass::On_Post_Load, COMDAT
; _this$ = ecx

; 20   : 	virtual void						On_Post_Load (void)							{ }

	push	ebp
	mov	ebp, esp
	sub	esp, 68					; 00000044H
	push	ebx
	push	esi
	push	edi
	mov	DWORD PTR _this$[ebp], ecx
	pop	edi
	pop	esi
	pop	ebx
	mov	esp, ebp
	pop	ebp
	ret	0
?On_Post_Load@PostLoadableClass@@UAEXXZ ENDP		; PostLoadableClass::On_Post_Load
_TEXT	ENDS
; Function compile flags: /Odtp /ZI
; File x:\github\renegade\dragonade_rxd\scripts\postloadableclass.h
;	COMDAT ??1PostLoadableClass@@UAE@XZ
_TEXT	SEGMENT
_this$ = -4						; size = 4
??1PostLoadableClass@@UAE@XZ PROC			; PostLoadableClass::~PostLoadableClass, COMDAT
; _this$ = ecx

; 19   : 	virtual ~PostLoadableClass(void)													{ }

	push	ebp
	mov	ebp, esp
	sub	esp, 68					; 00000044H
	push	ebx
	push	esi
	push	edi
	mov	DWORD PTR _this$[ebp], ecx
	mov	eax, DWORD PTR _this$[ebp]
	mov	DWORD PTR [eax], OFFSET ??_7PostLoadableClass@@6B@
	pop	edi
	pop	esi
	pop	ebx
	mov	esp, ebp
	pop	ebp
	ret	0
??1PostLoadableClass@@UAE@XZ ENDP			; PostLoadableClass::~PostLoadableClass
_TEXT	ENDS
; Function compile flags: /Odtp /ZI
; File x:\github\renegade\dragonade_rxd\scripts\postloadableclass.h
;	COMDAT ??0PostLoadableClass@@QAE@XZ
_TEXT	SEGMENT
_this$ = -4						; size = 4
??0PostLoadableClass@@QAE@XZ PROC			; PostLoadableClass::PostLoadableClass, COMDAT
; _this$ = ecx

; 18   : 	PostLoadableClass(void) : IsPostLoadRegistered(false)						{ }

	push	ebp
	mov	ebp, esp
	sub	esp, 68					; 00000044H
	push	ebx
	push	esi
	push	edi
	mov	DWORD PTR _this$[ebp], ecx
	mov	eax, DWORD PTR _this$[ebp]
	mov	DWORD PTR [eax], OFFSET ??_7PostLoadableClass@@6B@
	mov	eax, DWORD PTR _this$[ebp]
	mov	BYTE PTR [eax+4], 0
	mov	eax, DWORD PTR _this$[ebp]
	pop	edi
	pop	esi
	pop	ebx
	mov	esp, ebp
	pop	ebp
	ret	0
??0PostLoadableClass@@QAE@XZ ENDP			; PostLoadableClass::PostLoadableClass
_TEXT	ENDS
; Function compile flags: /Odtp /ZI
;	COMDAT ??4SysTimeClass@@QAEAAV0@ABV0@@Z
_TEXT	SEGMENT
_this$ = -4						; size = 4
___that$ = 8						; size = 4
??4SysTimeClass@@QAEAAV0@ABV0@@Z PROC			; SysTimeClass::operator=, COMDAT
; _this$ = ecx
	push	ebp
	mov	ebp, esp
	sub	esp, 68					; 00000044H
	push	ebx
	push	esi
	push	edi
	mov	DWORD PTR _this$[ebp], ecx
	mov	eax, DWORD PTR ___that$[ebp]
	mov	ecx, DWORD PTR [eax]
	mov	edx, DWORD PTR [eax+4]
	mov	eax, DWORD PTR _this$[ebp]
	mov	DWORD PTR [eax], ecx
	mov	DWORD PTR [eax+4], edx
	mov	eax, DWORD PTR _this$[ebp]
	pop	edi
	pop	esi
	pop	ebx
	mov	esp, ebp
	pop	ebp
	ret	4
??4SysTimeClass@@QAEAAV0@ABV0@@Z ENDP			; SysTimeClass::operator=
_TEXT	ENDS
; Function compile flags: /Odtp /ZI
; File x:\github\renegade\dragonade_rxd\scripts\basecontrollerclass.h
;	COMDAT ?Get_Building_List@BaseControllerClass@@QAEAAV?$DynamicVectorClass@PAVBuildingGameObj@@@@XZ
_TEXT	SEGMENT
_this$ = -4						; size = 4
?Get_Building_List@BaseControllerClass@@QAEAAV?$DynamicVectorClass@PAVBuildingGameObj@@@@XZ PROC ; BaseControllerClass::Get_Building_List, COMDAT
; _this$ = ecx

; 130  : 	{

	push	ebp
	mov	ebp, esp
	sub	esp, 68					; 00000044H
	push	ebx
	push	esi
	push	edi
	mov	DWORD PTR _this$[ebp], ecx

; 131  : 		return BuildingList;

	mov	eax, DWORD PTR _this$[ebp]
	add	eax, 1724				; 000006bcH

; 132  : 	}

	pop	edi
	pop	esi
	pop	ebx
	mov	esp, ebp
	pop	ebp
	ret	0
?Get_Building_List@BaseControllerClass@@QAEAAV?$DynamicVectorClass@PAVBuildingGameObj@@@@XZ ENDP ; BaseControllerClass::Get_Building_List
_TEXT	ENDS
; Function compile flags: /Odtp /ZI
; File x:\github\renegade\dragonade_rxd\scripts\basecontrollerclass.h
;	COMDAT ?Is_Radar_Enabled@BaseControllerClass@@QBE_NXZ
_TEXT	SEGMENT
_this$ = -4						; size = 4
?Is_Radar_Enabled@BaseControllerClass@@QBE_NXZ PROC	; BaseControllerClass::Is_Radar_Enabled, COMDAT
; _this$ = ecx

; 126  : 	{

	push	ebp
	mov	ebp, esp
	sub	esp, 68					; 00000044H
	push	ebx
	push	esi
	push	edi
	mov	DWORD PTR _this$[ebp], ecx

; 127  : 		return RadarEnabled;

	mov	eax, DWORD PTR _this$[ebp]
	mov	al, BYTE PTR [eax+1751]

; 128  : 	}

	pop	edi
	pop	esi
	pop	ebx
	mov	esp, ebp
	pop	ebp
	ret	0
?Is_Radar_Enabled@BaseControllerClass@@QBE_NXZ ENDP	; BaseControllerClass::Is_Radar_Enabled
_TEXT	ENDS
; Function compile flags: /Odtp /ZI
; File x:\github\renegade\dragonade_rxd\scripts\basecontrollerclass.h
;	COMDAT ?Can_Generate_Vehicles@BaseControllerClass@@QBE_NXZ
_TEXT	SEGMENT
_this$ = -4						; size = 4
?Can_Generate_Vehicles@BaseControllerClass@@QBE_NXZ PROC ; BaseControllerClass::Can_Generate_Vehicles, COMDAT
; _this$ = ecx

; 106  : 	{

	push	ebp
	mov	ebp, esp
	sub	esp, 68					; 00000044H
	push	ebx
	push	esi
	push	edi
	mov	DWORD PTR _this$[ebp], ecx

; 107  : 		return CanGenerateVehicles;

	mov	eax, DWORD PTR _this$[ebp]
	mov	al, BYTE PTR [eax+1750]

; 108  : 	}

	pop	edi
	pop	esi
	pop	ebx
	mov	esp, ebp
	pop	ebp
	ret	0
?Can_Generate_Vehicles@BaseControllerClass@@QBE_NXZ ENDP ; BaseControllerClass::Can_Generate_Vehicles
_TEXT	ENDS
; Function compile flags: /Odtp /ZI
; File x:\github\renegade\dragonade_rxd\scripts\basecontrollerclass.h
;	COMDAT ?Can_Generate_Soldiers@BaseControllerClass@@QBE_NXZ
_TEXT	SEGMENT
_this$ = -4						; size = 4
?Can_Generate_Soldiers@BaseControllerClass@@QBE_NXZ PROC ; BaseControllerClass::Can_Generate_Soldiers, COMDAT
; _this$ = ecx

; 102  : 	{

	push	ebp
	mov	ebp, esp
	sub	esp, 68					; 00000044H
	push	ebx
	push	esi
	push	edi
	mov	DWORD PTR _this$[ebp], ecx

; 103  : 		return CanGenerateSoldiers;

	mov	eax, DWORD PTR _this$[ebp]
	mov	al, BYTE PTR [eax+1749]

; 104  : 	}

	pop	edi
	pop	esi
	pop	ebx
	mov	esp, ebp
	pop	ebp
	ret	0
?Can_Generate_Soldiers@BaseControllerClass@@QBE_NXZ ENDP ; BaseControllerClass::Can_Generate_Soldiers
_TEXT	ENDS
; Function compile flags: /Odtp /ZI
; File x:\github\renegade\dragonade_rxd\scripts\basecontrollerclass.h
;	COMDAT ?Is_Base_Powered@BaseControllerClass@@QBE_NXZ
_TEXT	SEGMENT
_this$ = -4						; size = 4
?Is_Base_Powered@BaseControllerClass@@QBE_NXZ PROC	; BaseControllerClass::Is_Base_Powered, COMDAT
; _this$ = ecx

; 94   : 	{

	push	ebp
	mov	ebp, esp
	sub	esp, 68					; 00000044H
	push	ebx
	push	esi
	push	edi
	mov	DWORD PTR _this$[ebp], ecx

; 95   : 		return IsPowered;

	mov	eax, DWORD PTR _this$[ebp]
	mov	al, BYTE PTR [eax+1748]

; 96   : 	}

	pop	edi
	pop	esi
	pop	ebx
	mov	esp, ebp
	pop	ebp
	ret	0
?Is_Base_Powered@BaseControllerClass@@QBE_NXZ ENDP	; BaseControllerClass::Is_Base_Powered
_TEXT	ENDS
; Function compile flags: /Odtp /ZI
; File x:\github\renegade\dragonade_rxd\scripts\engine_game.cpp
;	COMDAT ?Check_Vehicle_Factory@BaseControllerClass@@QAEXXZ
_TEXT	SEGMENT
_building$1 = -12					; size = 4
_i$2 = -8						; size = 4
_this$ = -4						; size = 4
?Check_Vehicle_Factory@BaseControllerClass@@QAEXXZ PROC	; BaseControllerClass::Check_Vehicle_Factory, COMDAT
; _this$ = ecx

; 87   : {

	push	ebp
	mov	ebp, esp
	sub	esp, 76					; 0000004cH
	push	ebx
	push	esi
	push	edi
	mov	DWORD PTR _this$[ebp], ecx

; 88   : 	if (CombatManager::I_Am_Server())

	call	?I_Am_Server@CombatManager@@SA_NXZ	; CombatManager::I_Am_Server
	movzx	eax, al
	test	eax, eax
	je	$LN8@Check_Vehi

; 89   : 	{
; 90   : 		for (int i = 0; i < BuildingList.Count(); ++i)

	mov	DWORD PTR _i$2[ebp], 0
	jmp	SHORT $LN6@Check_Vehi
$LN5@Check_Vehi:
	mov	eax, DWORD PTR _i$2[ebp]
	add	eax, 1
	mov	DWORD PTR _i$2[ebp], eax
$LN6@Check_Vehi:
	mov	ecx, DWORD PTR _this$[ebp]
	add	ecx, 1724				; 000006bcH
	call	?Count@?$DynamicVectorClass@PAVBuildingGameObj@@@@QBEHXZ ; DynamicVectorClass<BuildingGameObj *>::Count
	cmp	DWORD PTR _i$2[ebp], eax
	jge	SHORT $LN4@Check_Vehi

; 91   : 		{
; 92   : 			BuildingGameObj* building = BuildingList[i];

	mov	eax, DWORD PTR _i$2[ebp]
	push	eax
	mov	ecx, DWORD PTR _this$[ebp]
	add	ecx, 1724				; 000006bcH
	call	??A?$VectorClass@PAVBuildingGameObj@@@@QAEAAPAVBuildingGameObj@@H@Z ; VectorClass<BuildingGameObj *>::operator[]
	mov	ecx, DWORD PTR [eax]
	mov	DWORD PTR _building$1[ebp], ecx

; 93   : 			if (building->As_VehicleFactoryGameObj() || building->As_AirFactoryGameObj() || building->As_NavalFactoryGameObj())

	mov	eax, DWORD PTR _building$1[ebp]
	mov	edx, DWORD PTR [eax]
	mov	ecx, DWORD PTR _building$1[ebp]
	mov	eax, DWORD PTR [edx+120]
	call	eax
	test	eax, eax
	jne	SHORT $LN2@Check_Vehi
	mov	eax, DWORD PTR _building$1[ebp]
	mov	edx, DWORD PTR [eax]
	mov	ecx, DWORD PTR _building$1[ebp]
	mov	eax, DWORD PTR [edx+164]
	call	eax
	test	eax, eax
	jne	SHORT $LN2@Check_Vehi
	mov	eax, DWORD PTR _building$1[ebp]
	mov	edx, DWORD PTR [eax]
	mov	ecx, DWORD PTR _building$1[ebp]
	mov	eax, DWORD PTR [edx+168]
	call	eax
	test	eax, eax
	je	SHORT $LN3@Check_Vehi
$LN2@Check_Vehi:

; 94   : 			{
; 95   : 				if (!building->Is_Destroyed())

	mov	ecx, DWORD PTR _building$1[ebp]
	call	?Is_Destroyed@BuildingGameObj@@QBE_NXZ	; BuildingGameObj::Is_Destroyed
	movzx	eax, al
	test	eax, eax
	jne	SHORT $LN3@Check_Vehi

; 96   : 				{
; 97   : 					Set_Can_Generate_Vehicles(true);

	push	1
	mov	ecx, DWORD PTR _this$[ebp]
	call	?Set_Can_Generate_Vehicles@BaseControllerClass@@QAEX_N@Z ; BaseControllerClass::Set_Can_Generate_Vehicles

; 98   : 					return;

	jmp	SHORT $LN8@Check_Vehi
$LN3@Check_Vehi:

; 99   : 				}
; 100  : 			}
; 101  : 		}

	jmp	$LN5@Check_Vehi
$LN4@Check_Vehi:

; 102  : 		Set_Can_Generate_Vehicles(false);

	push	0
	mov	ecx, DWORD PTR _this$[ebp]
	call	?Set_Can_Generate_Vehicles@BaseControllerClass@@QAEX_N@Z ; BaseControllerClass::Set_Can_Generate_Vehicles
$LN8@Check_Vehi:

; 103  : 	}
; 104  : }

	pop	edi
	pop	esi
	pop	ebx
	mov	esp, ebp
	pop	ebp
	ret	0
?Check_Vehicle_Factory@BaseControllerClass@@QAEXXZ ENDP	; BaseControllerClass::Check_Vehicle_Factory
_TEXT	ENDS
; Function compile flags: /Odtp /ZI
; File x:\github\renegade\dragonade_rxd\scripts\engine_game.cpp
;	COMDAT ?Check_Radar@BaseControllerClass@@QAEXXZ
_TEXT	SEGMENT
tv90 = -84						; size = 4
_building$1 = -16					; size = 4
_i$2 = -12						; size = 4
_radarEnabled$3 = -5					; size = 1
_this$ = -4						; size = 4
?Check_Radar@BaseControllerClass@@QAEXXZ PROC		; BaseControllerClass::Check_Radar, COMDAT
; _this$ = ecx

; 107  : {

	push	ebp
	mov	ebp, esp
	sub	esp, 84					; 00000054H
	push	ebx
	push	esi
	push	edi
	mov	DWORD PTR _this$[ebp], ecx

; 108  : 	if (CombatManager::I_Am_Server())

	call	?I_Am_Server@CombatManager@@SA_NXZ	; CombatManager::I_Am_Server
	movzx	eax, al
	test	eax, eax
	je	$LN6@Check_Rada

; 109  : 	{
; 110  : 		bool radarEnabled = true;

	mov	BYTE PTR _radarEnabled$3[ebp], 1

; 111  : 		for (int i = 0; i < BuildingList.Count(); ++i)

	mov	DWORD PTR _i$2[ebp], 0
	jmp	SHORT $LN4@Check_Rada
$LN3@Check_Rada:
	mov	eax, DWORD PTR _i$2[ebp]
	add	eax, 1
	mov	DWORD PTR _i$2[ebp], eax
$LN4@Check_Rada:
	mov	ecx, DWORD PTR _this$[ebp]
	add	ecx, 1724				; 000006bcH
	call	?Count@?$DynamicVectorClass@PAVBuildingGameObj@@@@QBEHXZ ; DynamicVectorClass<BuildingGameObj *>::Count
	cmp	DWORD PTR _i$2[ebp], eax
	jge	SHORT $LN2@Check_Rada

; 112  : 		{
; 113  : 			const BuildingGameObj* building = BuildingList[i];

	mov	eax, DWORD PTR _i$2[ebp]
	push	eax
	mov	ecx, DWORD PTR _this$[ebp]
	add	ecx, 1724				; 000006bcH
	call	??A?$VectorClass@PAVBuildingGameObj@@@@QAEAAPAVBuildingGameObj@@H@Z ; VectorClass<BuildingGameObj *>::operator[]
	mov	ecx, DWORD PTR [eax]
	mov	DWORD PTR _building$1[ebp], ecx

; 114  : 			if (building->Get_Definition().Get_Type() == BuildingConstants::TYPE_COM_CENTER)

	mov	ecx, DWORD PTR _building$1[ebp]
	call	?Get_Definition@BuildingGameObj@@QBEABVBuildingGameObjDef@@XZ ; BuildingGameObj::Get_Definition
	mov	ecx, eax
	call	?Get_Type@BuildingGameObjDef@@QBE?AW4BuildingType@BuildingConstants@@XZ ; BuildingGameObjDef::Get_Type
	cmp	eax, 4
	jne	SHORT $LN1@Check_Rada

; 115  : 			{
; 116  : 				radarEnabled &= !building->Is_Destroyed(); // We need all communications centres to be online for the radar to work.

	mov	ecx, DWORD PTR _building$1[ebp]
	call	?Is_Destroyed@BuildingGameObj@@QBE_NXZ	; BuildingGameObj::Is_Destroyed
	movzx	eax, al
	test	eax, eax
	jne	SHORT $LN8@Check_Rada
	mov	DWORD PTR tv90[ebp], 1
	jmp	SHORT $LN9@Check_Rada
$LN8@Check_Rada:
	mov	DWORD PTR tv90[ebp], 0
$LN9@Check_Rada:
	movzx	ecx, BYTE PTR _radarEnabled$3[ebp]
	and	ecx, DWORD PTR tv90[ebp]
	mov	BYTE PTR _radarEnabled$3[ebp], cl
$LN1@Check_Rada:

; 117  : 			}
; 118  : 		}

	jmp	SHORT $LN3@Check_Rada
$LN2@Check_Rada:

; 119  : 		Enable_Radar(radarEnabled);

	movzx	eax, BYTE PTR _radarEnabled$3[ebp]
	push	eax
	mov	ecx, DWORD PTR _this$[ebp]
	call	?Enable_Radar@BaseControllerClass@@QAEX_N@Z ; BaseControllerClass::Enable_Radar
$LN6@Check_Rada:

; 120  : 	}
; 121  : }

	pop	edi
	pop	esi
	pop	ebx
	mov	esp, ebp
	pop	ebp
	ret	0
?Check_Radar@BaseControllerClass@@QAEXXZ ENDP		; BaseControllerClass::Check_Radar
_TEXT	ENDS
; Function compile flags: /Odtp /ZI
; File x:\github\renegade\dragonade_rxd\scripts\engine_game.cpp
;	COMDAT ?Set_Beacon_Destroyed_Base@BaseControllerClass@@QAEX_N@Z
_TEXT	SEGMENT
_this$ = -4						; size = 4
_BeaconDestroyed$ = 8					; size = 1
?Set_Beacon_Destroyed_Base@BaseControllerClass@@QAEX_N@Z PROC ; BaseControllerClass::Set_Beacon_Destroyed_Base, COMDAT
; _this$ = ecx

; 67   : {

	push	ebp
	mov	ebp, esp
	sub	esp, 68					; 00000044H
	push	ebx
	push	esi
	push	edi
	mov	DWORD PTR _this$[ebp], ecx

; 68   : 	BeaconDestroyedBase = BeaconDestroyed;

	mov	eax, DWORD PTR _this$[ebp]
	mov	cl, BYTE PTR _BeaconDestroyed$[ebp]
	mov	BYTE PTR [eax+1753], cl

; 69   : 	Set_Object_Dirty_Bit(NetworkObjectClass::BIT_OCCASIONAL,true);

	push	1
	push	3
	mov	eax, DWORD PTR _this$[ebp]
	mov	edx, DWORD PTR [eax]
	mov	ecx, DWORD PTR _this$[ebp]
	mov	eax, DWORD PTR [edx+56]
	call	eax

; 70   : }

	pop	edi
	pop	esi
	pop	ebx
	mov	esp, ebp
	pop	ebp
	ret	4
?Set_Beacon_Destroyed_Base@BaseControllerClass@@QAEX_N@Z ENDP ; BaseControllerClass::Set_Beacon_Destroyed_Base
_TEXT	ENDS
; Function compile flags: /Odtp /ZI
; File x:\github\renegade\dragonade_rxd\scripts\engine_game.cpp
;	COMDAT ?Destroy_Base@BaseControllerClass@@QAEXXZ
_TEXT	SEGMENT
?Destroy_Base@BaseControllerClass@@QAEXXZ PROC		; BaseControllerClass::Destroy_Base, COMDAT
; _this$ = ecx

; 65   : AT2(0x006EF840,0x006EEE00);

$AT3PatchStart$3:
	push	ecx
	push	edx
	push	OFFSET $AT3PatchStart$3
	push	0
	push	7269888					; 006eee00H
	push	7272512					; 006ef840H
	call	?HookupAT3@@YAPAXPAX000@Z		; HookupAT3
	add	esp, 16					; 00000010H
	pop	edx
	pop	ecx
	jmp	eax
?Destroy_Base@BaseControllerClass@@QAEXXZ ENDP		; BaseControllerClass::Destroy_Base
_TEXT	ENDS
; Function compile flags: /Odtp /ZI
; File x:\github\renegade\dragonade_rxd\scripts\engine_game.cpp
;	COMDAT ?Set_Base_Destroyed@BaseControllerClass@@QAEX_N@Z
_TEXT	SEGMENT
_this$ = -4						; size = 4
_newBaseDestroyed$ = 8					; size = 1
?Set_Base_Destroyed@BaseControllerClass@@QAEX_N@Z PROC	; BaseControllerClass::Set_Base_Destroyed, COMDAT
; _this$ = ecx

; 59   : {

	push	ebp
	mov	ebp, esp
	sub	esp, 68					; 00000044H
	push	ebx
	push	esi
	push	edi
	mov	DWORD PTR _this$[ebp], ecx

; 60   : 	BaseDestroyed = newBaseDestroyed;

	mov	eax, DWORD PTR _this$[ebp]
	mov	cl, BYTE PTR _newBaseDestroyed$[ebp]
	mov	BYTE PTR [eax+1752], cl

; 61   : 	Set_Object_Dirty_Bit(NetworkObjectClass::BIT_OCCASIONAL,true);

	push	1
	push	3
	mov	eax, DWORD PTR _this$[ebp]
	mov	edx, DWORD PTR [eax]
	mov	ecx, DWORD PTR _this$[ebp]
	mov	eax, DWORD PTR [edx+56]
	call	eax

; 62   : }

	pop	edi
	pop	esi
	pop	ebx
	mov	esp, ebp
	pop	ebp
	ret	4
?Set_Base_Destroyed@BaseControllerClass@@QAEX_N@Z ENDP	; BaseControllerClass::Set_Base_Destroyed
_TEXT	ENDS
; Function compile flags: /Odtp /ZI
; File x:\github\renegade\dragonade_rxd\scripts\engine_game.cpp
;	COMDAT ?Set_Can_Generate_Vehicles@BaseControllerClass@@QAEX_N@Z
_TEXT	SEGMENT
_this$ = -4						; size = 4
_CanGenerate$ = 8					; size = 1
?Set_Can_Generate_Vehicles@BaseControllerClass@@QAEX_N@Z PROC ; BaseControllerClass::Set_Can_Generate_Vehicles, COMDAT
; _this$ = ecx

; 54   : {

	push	ebp
	mov	ebp, esp
	sub	esp, 68					; 00000044H
	push	ebx
	push	esi
	push	edi
	mov	DWORD PTR _this$[ebp], ecx

; 55   : 	CanGenerateVehicles = CanGenerate;

	mov	eax, DWORD PTR _this$[ebp]
	mov	cl, BYTE PTR _CanGenerate$[ebp]
	mov	BYTE PTR [eax+1750], cl

; 56   : 	Set_Object_Dirty_Bit(NetworkObjectClass::BIT_OCCASIONAL,true);

	push	1
	push	3
	mov	eax, DWORD PTR _this$[ebp]
	mov	edx, DWORD PTR [eax]
	mov	ecx, DWORD PTR _this$[ebp]
	mov	eax, DWORD PTR [edx+56]
	call	eax

; 57   : }

	pop	edi
	pop	esi
	pop	ebx
	mov	esp, ebp
	pop	ebp
	ret	4
?Set_Can_Generate_Vehicles@BaseControllerClass@@QAEX_N@Z ENDP ; BaseControllerClass::Set_Can_Generate_Vehicles
_TEXT	ENDS
; Function compile flags: /Odtp /ZI
; File x:\github\renegade\dragonade_rxd\scripts\engine_game.cpp
;	COMDAT ?Set_Can_Generate_Soldiers@BaseControllerClass@@QAEX_N@Z
_TEXT	SEGMENT
_this$ = -4						; size = 4
_CanGenerate$ = 8					; size = 1
?Set_Can_Generate_Soldiers@BaseControllerClass@@QAEX_N@Z PROC ; BaseControllerClass::Set_Can_Generate_Soldiers, COMDAT
; _this$ = ecx

; 49   : {

	push	ebp
	mov	ebp, esp
	sub	esp, 68					; 00000044H
	push	ebx
	push	esi
	push	edi
	mov	DWORD PTR _this$[ebp], ecx

; 50   : 	CanGenerateSoldiers = CanGenerate;

	mov	eax, DWORD PTR _this$[ebp]
	mov	cl, BYTE PTR _CanGenerate$[ebp]
	mov	BYTE PTR [eax+1749], cl

; 51   : 	Set_Object_Dirty_Bit(NetworkObjectClass::BIT_OCCASIONAL,true);

	push	1
	push	3
	mov	eax, DWORD PTR _this$[ebp]
	mov	edx, DWORD PTR [eax]
	mov	ecx, DWORD PTR _this$[ebp]
	mov	eax, DWORD PTR [edx+56]
	call	eax

; 52   : }

	pop	edi
	pop	esi
	pop	ebx
	mov	esp, ebp
	pop	ebp
	ret	4
?Set_Can_Generate_Soldiers@BaseControllerClass@@QAEX_N@Z ENDP ; BaseControllerClass::Set_Can_Generate_Soldiers
_TEXT	ENDS
; Function compile flags: /Odtp /ZI
; File x:\github\renegade\dragonade_rxd\scripts\engine_game.cpp
;	COMDAT ?Power_Base@BaseControllerClass@@QAEX_N@Z
_TEXT	SEGMENT
_Power$ = 8						; size = 1
?Power_Base@BaseControllerClass@@QAEX_N@Z PROC		; BaseControllerClass::Power_Base, COMDAT
; _this$ = ecx

; 41   : AT2(0x006EF310,0x006EE8D0);

$AT3PatchStart$3:
	push	ecx
	push	edx
	push	OFFSET $AT3PatchStart$3
	push	0
	push	7268560					; 006ee8d0H
	push	7271184					; 006ef310H
	call	?HookupAT3@@YAPAXPAX000@Z		; HookupAT3
	add	esp, 16					; 00000010H
	pop	edx
	pop	ecx
	jmp	eax
?Power_Base@BaseControllerClass@@QAEX_N@Z ENDP		; BaseControllerClass::Power_Base
_TEXT	ENDS
; Function compile flags: /Odtp /ZI
; File x:\github\renegade\dragonade_rxd\scripts\engine_game.cpp
;	COMDAT ?Find_Building@BaseControllerClass@@QAEPAVBuildingGameObj@@I@Z
_TEXT	SEGMENT
_Type$ = 8						; size = 4
?Find_Building@BaseControllerClass@@QAEPAVBuildingGameObj@@I@Z PROC ; BaseControllerClass::Find_Building, COMDAT
; _this$ = ecx

; 73   : AT2(0x006EF6D0,0x006EEC90);

$AT3PatchStart$3:
	push	ecx
	push	edx
	push	OFFSET $AT3PatchStart$3
	push	0
	push	7269520					; 006eec90H
	push	7272144					; 006ef6d0H
	call	?HookupAT3@@YAPAXPAX000@Z		; HookupAT3
	add	esp, 16					; 00000010H
	pop	edx
	pop	ecx
	jmp	eax
?Find_Building@BaseControllerClass@@QAEPAVBuildingGameObj@@I@Z ENDP ; BaseControllerClass::Find_Building
_TEXT	ENDS
; Function compile flags: /Odtp /ZI
; File x:\github\renegade\dragonade_rxd\scripts\engine_game.cpp
;	COMDAT ?Get_Harvester_Vehicle@BaseControllerClass@@QAEPAVVehicleGameObj@@XZ
_TEXT	SEGMENT
tv79 = -76						; size = 4
_refinery$ = -8						; size = 4
_this$ = -4						; size = 4
?Get_Harvester_Vehicle@BaseControllerClass@@QAEPAVVehicleGameObj@@XZ PROC ; BaseControllerClass::Get_Harvester_Vehicle, COMDAT
; _this$ = ecx

; 44   : {

	push	ebp
	mov	ebp, esp
	sub	esp, 76					; 0000004cH
	push	ebx
	push	esi
	push	edi
	mov	DWORD PTR _this$[ebp], ecx

; 45   : 	BuildingGameObj* refinery = Find_Building(BuildingConstants::TYPE_REFINERY);

	push	3
	mov	ecx, DWORD PTR _this$[ebp]
	call	?Find_Building@BaseControllerClass@@QAEPAVBuildingGameObj@@I@Z ; BaseControllerClass::Find_Building
	mov	DWORD PTR _refinery$[ebp], eax

; 46   : 	return refinery && refinery->As_RefineryGameObj() ? refinery->As_RefineryGameObj()->Get_Harvester_Vehicle() : nullptr;

	cmp	DWORD PTR _refinery$[ebp], 0
	je	SHORT $LN3@Get_Harves
	mov	eax, DWORD PTR _refinery$[ebp]
	mov	edx, DWORD PTR [eax]
	mov	ecx, DWORD PTR _refinery$[ebp]
	mov	eax, DWORD PTR [edx+132]
	call	eax
	test	eax, eax
	je	SHORT $LN3@Get_Harves
	mov	ecx, DWORD PTR _refinery$[ebp]
	mov	edx, DWORD PTR [ecx]
	mov	ecx, DWORD PTR _refinery$[ebp]
	mov	eax, DWORD PTR [edx+132]
	call	eax
	mov	ecx, eax
	call	?Get_Harvester_Vehicle@RefineryGameObj@@QAEPAVVehicleGameObj@@XZ ; RefineryGameObj::Get_Harvester_Vehicle
	mov	DWORD PTR tv79[ebp], eax
	jmp	SHORT $LN4@Get_Harves
$LN3@Get_Harves:
	mov	DWORD PTR tv79[ebp], 0
$LN4@Get_Harves:
	mov	eax, DWORD PTR tv79[ebp]

; 47   : }

	pop	edi
	pop	esi
	pop	ebx
	mov	esp, ebp
	pop	ebp
	ret	0
?Get_Harvester_Vehicle@BaseControllerClass@@QAEPAVVehicleGameObj@@XZ ENDP ; BaseControllerClass::Get_Harvester_Vehicle
_TEXT	ENDS
; Function compile flags: /Odtp /ZI
; File x:\github\renegade\dragonade_rxd\scripts\engine_game.cpp
;	COMDAT ?Find_Base@BaseControllerClass@@SAPAV1@H@Z
_TEXT	SEGMENT
_Team$ = 8						; size = 4
?Find_Base@BaseControllerClass@@SAPAV1@H@Z PROC		; BaseControllerClass::Find_Base, COMDAT

; 37   : AT2(0x006EF790,0x006EED50);

$AT3PatchStart$3:
	push	ecx
	push	edx
	push	OFFSET $AT3PatchStart$3
	push	0
	push	7269712					; 006eed50H
	push	7272336					; 006ef790H
	call	?HookupAT3@@YAPAXPAX000@Z		; HookupAT3
	add	esp, 16					; 00000010H
	pop	edx
	pop	ecx
	jmp	eax
?Find_Base@BaseControllerClass@@SAPAV1@H@Z ENDP		; BaseControllerClass::Find_Base
_TEXT	ENDS
; Function compile flags: /Odtp /ZI
; File x:\github\renegade\dragonade_rxd\scripts\engine_vector.h
;	COMDAT ?Count@?$DynamicVectorClass@PAVBuildingGameObj@@@@QBEHXZ
_TEXT	SEGMENT
_this$ = -4						; size = 4
?Count@?$DynamicVectorClass@PAVBuildingGameObj@@@@QBEHXZ PROC ; DynamicVectorClass<BuildingGameObj *>::Count, COMDAT
; _this$ = ecx

; 314  : 	{

	push	ebp
	mov	ebp, esp
	sub	esp, 68					; 00000044H
	push	ebx
	push	esi
	push	edi
	mov	DWORD PTR _this$[ebp], ecx

; 315  : 		return(ActiveCount);

	mov	eax, DWORD PTR _this$[ebp]
	mov	eax, DWORD PTR [eax+16]

; 316  : 	}

	pop	edi
	pop	esi
	pop	ebx
	mov	esp, ebp
	pop	ebp
	ret	0
?Count@?$DynamicVectorClass@PAVBuildingGameObj@@@@QBEHXZ ENDP ; DynamicVectorClass<BuildingGameObj *>::Count
_TEXT	ENDS
; Function compile flags: /Odtp /ZI
; File x:\github\renegade\dragonade_rxd\scripts\engine_vector.h
;	COMDAT ??A?$VectorClass@PAVBuildingGameObj@@@@QAEAAPAVBuildingGameObj@@H@Z
_TEXT	SEGMENT
_this$ = -4						; size = 4
_index$ = 8						; size = 4
??A?$VectorClass@PAVBuildingGameObj@@@@QAEAAPAVBuildingGameObj@@H@Z PROC ; VectorClass<BuildingGameObj *>::operator[], COMDAT
; _this$ = ecx

; 122  : 	{

	push	ebp
	mov	ebp, esp
	sub	esp, 68					; 00000044H
	push	ebx
	push	esi
	push	edi
	mov	DWORD PTR _this$[ebp], ecx

; 123  : 		return(Vector[index]);

	mov	eax, DWORD PTR _this$[ebp]
	mov	ecx, DWORD PTR [eax+4]
	mov	edx, DWORD PTR _index$[ebp]
	lea	eax, DWORD PTR [ecx+edx*4]

; 124  : 	} 

	pop	edi
	pop	esi
	pop	ebx
	mov	esp, ebp
	pop	ebp
	ret	4
??A?$VectorClass@PAVBuildingGameObj@@@@QAEAAPAVBuildingGameObj@@H@Z ENDP ; VectorClass<BuildingGameObj *>::operator[]
_TEXT	ENDS
; Function compile flags: /Odtp /ZI
;	COMDAT ??4ScriptRegistrar@@QAEAAV0@ABV0@@Z
_TEXT	SEGMENT
_this$ = -4						; size = 4
___that$ = 8						; size = 4
??4ScriptRegistrar@@QAEAAV0@ABV0@@Z PROC		; ScriptRegistrar::operator=, COMDAT
; _this$ = ecx
	push	ebp
	mov	ebp, esp
	sub	esp, 68					; 00000044H
	push	ebx
	push	esi
	push	edi
	mov	DWORD PTR _this$[ebp], ecx
	mov	eax, DWORD PTR _this$[ebp]
	pop	edi
	pop	esi
	pop	ebx
	mov	esp, ebp
	pop	ebp
	ret	4
??4ScriptRegistrar@@QAEAAV0@ABV0@@Z ENDP		; ScriptRegistrar::operator=
_TEXT	ENDS
; Function compile flags: /Odtp /ZI
;	COMDAT ??_EScriptFactory@@UAEPAXI@Z
_TEXT	SEGMENT
_this$ = -4						; size = 4
___flags$ = 8						; size = 4
??_EScriptFactory@@UAEPAXI@Z PROC			; ScriptFactory::`vector deleting destructor', COMDAT
; _this$ = ecx
	push	ebp
	mov	ebp, esp
	sub	esp, 68					; 00000044H
	push	ebx
	push	esi
	push	edi
	mov	DWORD PTR _this$[ebp], ecx
	mov	eax, DWORD PTR ___flags$[ebp]
	and	eax, 2
	je	SHORT $LN3@vector
	push	OFFSET ??1ScriptFactory@@UAE@XZ		; ScriptFactory::~ScriptFactory
	mov	eax, DWORD PTR _this$[ebp]
	mov	ecx, DWORD PTR [eax-4]
	push	ecx
	push	16					; 00000010H
	mov	edx, DWORD PTR _this$[ebp]
	push	edx
	call	??_I@YGXPAXIHP6EX0@Z@Z
	mov	eax, DWORD PTR ___flags$[ebp]
	and	eax, 1
	je	SHORT $LN2@vector
	mov	eax, DWORD PTR _this$[ebp]
	sub	eax, 4
	push	eax
	call	??_V@YAXPAX@Z				; operator delete[]
	add	esp, 4
$LN2@vector:
	mov	eax, DWORD PTR _this$[ebp]
	sub	eax, 4
	jmp	SHORT $LN4@vector
$LN3@vector:
	mov	ecx, DWORD PTR _this$[ebp]
	call	??1ScriptFactory@@UAE@XZ		; ScriptFactory::~ScriptFactory
	mov	eax, DWORD PTR ___flags$[ebp]
	and	eax, 1
	je	SHORT $LN1@vector
	mov	eax, DWORD PTR _this$[ebp]
	push	eax
	call	??3@YAXPAX@Z				; operator delete
	add	esp, 4
$LN1@vector:
	mov	eax, DWORD PTR _this$[ebp]
$LN4@vector:
	pop	edi
	pop	esi
	pop	ebx
	mov	esp, ebp
	pop	ebp
	ret	4
??_EScriptFactory@@UAEPAXI@Z ENDP			; ScriptFactory::`vector deleting destructor'
_TEXT	ENDS
; Function compile flags: /Odtp /ZI
;	COMDAT ??_GScriptFactory@@UAEPAXI@Z
_TEXT	SEGMENT
_this$ = -4						; size = 4
___flags$ = 8						; size = 4
??_GScriptFactory@@UAEPAXI@Z PROC			; ScriptFactory::`scalar deleting destructor', COMDAT
; _this$ = ecx
	push	ebp
	mov	ebp, esp
	sub	esp, 68					; 00000044H
	push	ebx
	push	esi
	push	edi
	mov	DWORD PTR _this$[ebp], ecx
	mov	ecx, DWORD PTR _this$[ebp]
	call	??1ScriptFactory@@UAE@XZ		; ScriptFactory::~ScriptFactory
	mov	eax, DWORD PTR ___flags$[ebp]
	and	eax, 1
	je	SHORT $LN1@scalar
	mov	eax, DWORD PTR _this$[ebp]
	push	eax
	call	??3@YAXPAX@Z				; operator delete
	add	esp, 4
$LN1@scalar:
	mov	eax, DWORD PTR _this$[ebp]
	pop	edi
	pop	esi
	pop	ebx
	mov	esp, ebp
	pop	ebp
	ret	4
??_GScriptFactory@@UAEPAXI@Z ENDP			; ScriptFactory::`scalar deleting destructor'
_TEXT	ENDS
; Function compile flags: /Odtp /ZI
;	COMDAT ??4ScriptFactory@@QAEAAV0@ABV0@@Z
_TEXT	SEGMENT
_this$ = -4						; size = 4
___that$ = 8						; size = 4
??4ScriptFactory@@QAEAAV0@ABV0@@Z PROC			; ScriptFactory::operator=, COMDAT
; _this$ = ecx
	push	ebp
	mov	ebp, esp
	sub	esp, 68					; 00000044H
	push	ebx
	push	esi
	push	edi
	mov	DWORD PTR _this$[ebp], ecx
	mov	eax, DWORD PTR _this$[ebp]
	mov	ecx, DWORD PTR ___that$[ebp]
	mov	edx, DWORD PTR [ecx+4]
	mov	DWORD PTR [eax+4], edx
	mov	eax, DWORD PTR _this$[ebp]
	mov	ecx, DWORD PTR ___that$[ebp]
	mov	edx, DWORD PTR [ecx+8]
	mov	DWORD PTR [eax+8], edx
	mov	eax, DWORD PTR _this$[ebp]
	mov	ecx, DWORD PTR ___that$[ebp]
	mov	edx, DWORD PTR [ecx+12]
	mov	DWORD PTR [eax+12], edx
	mov	eax, DWORD PTR _this$[ebp]
	pop	edi
	pop	esi
	pop	ebx
	mov	esp, ebp
	pop	ebp
	ret	4
??4ScriptFactory@@QAEAAV0@ABV0@@Z ENDP			; ScriptFactory::operator=
_TEXT	ENDS
; Function compile flags: /Odtp /ZI
;	COMDAT ??0ScriptFactory@@QAE@ABV0@@Z
_TEXT	SEGMENT
_this$ = -4						; size = 4
___that$ = 8						; size = 4
??0ScriptFactory@@QAE@ABV0@@Z PROC			; ScriptFactory::ScriptFactory, COMDAT
; _this$ = ecx
	push	ebp
	mov	ebp, esp
	sub	esp, 68					; 00000044H
	push	ebx
	push	esi
	push	edi
	mov	DWORD PTR _this$[ebp], ecx
	mov	eax, DWORD PTR _this$[ebp]
	mov	DWORD PTR [eax], OFFSET ??_7ScriptFactory@@6B@
	mov	eax, DWORD PTR _this$[ebp]
	mov	ecx, DWORD PTR ___that$[ebp]
	mov	edx, DWORD PTR [ecx+4]
	mov	DWORD PTR [eax+4], edx
	mov	eax, DWORD PTR _this$[ebp]
	mov	ecx, DWORD PTR ___that$[ebp]
	mov	edx, DWORD PTR [ecx+8]
	mov	DWORD PTR [eax+8], edx
	mov	eax, DWORD PTR _this$[ebp]
	mov	ecx, DWORD PTR ___that$[ebp]
	mov	edx, DWORD PTR [ecx+12]
	mov	DWORD PTR [eax+12], edx
	mov	eax, DWORD PTR _this$[ebp]
	pop	edi
	pop	esi
	pop	ebx
	mov	esp, ebp
	pop	ebp
	ret	4
??0ScriptFactory@@QAE@ABV0@@Z ENDP			; ScriptFactory::ScriptFactory
_TEXT	ENDS
; Function compile flags: /Odtp /ZI
;	COMDAT ??_EScriptImpClass@@UAEPAXI@Z
_TEXT	SEGMENT
_this$ = -4						; size = 4
___flags$ = 8						; size = 4
??_EScriptImpClass@@UAEPAXI@Z PROC			; ScriptImpClass::`vector deleting destructor', COMDAT
; _this$ = ecx
	push	ebp
	mov	ebp, esp
	sub	esp, 68					; 00000044H
	push	ebx
	push	esi
	push	edi
	mov	DWORD PTR _this$[ebp], ecx
	mov	eax, DWORD PTR ___flags$[ebp]
	and	eax, 2
	je	SHORT $LN3@vector
	push	OFFSET ??1ScriptImpClass@@UAE@XZ	; ScriptImpClass::~ScriptImpClass
	mov	eax, DWORD PTR _this$[ebp]
	mov	ecx, DWORD PTR [eax-4]
	push	ecx
	push	28					; 0000001cH
	mov	edx, DWORD PTR _this$[ebp]
	push	edx
	call	??_I@YGXPAXIHP6EX0@Z@Z
	mov	eax, DWORD PTR ___flags$[ebp]
	and	eax, 1
	je	SHORT $LN2@vector
	mov	eax, DWORD PTR _this$[ebp]
	sub	eax, 4
	push	eax
	call	??_V@YAXPAX@Z				; operator delete[]
	add	esp, 4
$LN2@vector:
	mov	eax, DWORD PTR _this$[ebp]
	sub	eax, 4
	jmp	SHORT $LN4@vector
$LN3@vector:
	mov	ecx, DWORD PTR _this$[ebp]
	call	??1ScriptImpClass@@UAE@XZ		; ScriptImpClass::~ScriptImpClass
	mov	eax, DWORD PTR ___flags$[ebp]
	and	eax, 1
	je	SHORT $LN1@vector
	mov	eax, DWORD PTR _this$[ebp]
	push	eax
	call	??3@YAXPAX@Z				; operator delete
	add	esp, 4
$LN1@vector:
	mov	eax, DWORD PTR _this$[ebp]
$LN4@vector:
	pop	edi
	pop	esi
	pop	ebx
	mov	esp, ebp
	pop	ebp
	ret	4
??_EScriptImpClass@@UAEPAXI@Z ENDP			; ScriptImpClass::`vector deleting destructor'
_TEXT	ENDS
; Function compile flags: /Odtp /ZI
;	COMDAT ??_GScriptImpClass@@UAEPAXI@Z
_TEXT	SEGMENT
_this$ = -4						; size = 4
___flags$ = 8						; size = 4
??_GScriptImpClass@@UAEPAXI@Z PROC			; ScriptImpClass::`scalar deleting destructor', COMDAT
; _this$ = ecx
	push	ebp
	mov	ebp, esp
	sub	esp, 68					; 00000044H
	push	ebx
	push	esi
	push	edi
	mov	DWORD PTR _this$[ebp], ecx
	mov	ecx, DWORD PTR _this$[ebp]
	call	??1ScriptImpClass@@UAE@XZ		; ScriptImpClass::~ScriptImpClass
	mov	eax, DWORD PTR ___flags$[ebp]
	and	eax, 1
	je	SHORT $LN1@scalar
	mov	eax, DWORD PTR _this$[ebp]
	push	eax
	call	??3@YAXPAX@Z				; operator delete
	add	esp, 4
$LN1@scalar:
	mov	eax, DWORD PTR _this$[ebp]
	pop	edi
	pop	esi
	pop	ebx
	mov	esp, ebp
	pop	ebp
	ret	4
??_GScriptImpClass@@UAEPAXI@Z ENDP			; ScriptImpClass::`scalar deleting destructor'
_TEXT	ENDS
; Function compile flags: /Odtp /ZI
;	COMDAT ??4ScriptImpClass@@QAEAAV0@ABV0@@Z
_TEXT	SEGMENT
_this$ = -4						; size = 4
___that$ = 8						; size = 4
??4ScriptImpClass@@QAEAAV0@ABV0@@Z PROC			; ScriptImpClass::operator=, COMDAT
; _this$ = ecx
	push	ebp
	mov	ebp, esp
	sub	esp, 68					; 00000044H
	push	ebx
	push	esi
	push	edi
	mov	DWORD PTR _this$[ebp], ecx
	mov	eax, DWORD PTR ___that$[ebp]
	push	eax
	mov	ecx, DWORD PTR _this$[ebp]
	call	??4ScriptClass@@QAEAAV0@ABV0@@Z
	mov	eax, DWORD PTR _this$[ebp]
	mov	ecx, DWORD PTR ___that$[ebp]
	mov	edx, DWORD PTR [ecx+8]
	mov	DWORD PTR [eax+8], edx
	mov	eax, DWORD PTR _this$[ebp]
	mov	ecx, DWORD PTR ___that$[ebp]
	mov	edx, DWORD PTR [ecx+12]
	mov	DWORD PTR [eax+12], edx
	mov	eax, DWORD PTR _this$[ebp]
	mov	ecx, DWORD PTR ___that$[ebp]
	mov	edx, DWORD PTR [ecx+16]
	mov	DWORD PTR [eax+16], edx
	mov	eax, DWORD PTR _this$[ebp]
	mov	ecx, DWORD PTR ___that$[ebp]
	mov	edx, DWORD PTR [ecx+20]
	mov	DWORD PTR [eax+20], edx
	mov	eax, DWORD PTR _this$[ebp]
	mov	ecx, DWORD PTR ___that$[ebp]
	mov	edx, DWORD PTR [ecx+24]
	mov	DWORD PTR [eax+24], edx
	mov	eax, DWORD PTR _this$[ebp]
	pop	edi
	pop	esi
	pop	ebx
	mov	esp, ebp
	pop	ebp
	ret	4
??4ScriptImpClass@@QAEAAV0@ABV0@@Z ENDP			; ScriptImpClass::operator=
_TEXT	ENDS
; Function compile flags: /Odtp /ZI
;	COMDAT ??0ScriptImpClass@@QAE@ABV0@@Z
_TEXT	SEGMENT
_this$ = -4						; size = 4
___that$ = 8						; size = 4
??0ScriptImpClass@@QAE@ABV0@@Z PROC			; ScriptImpClass::ScriptImpClass, COMDAT
; _this$ = ecx
	push	ebp
	mov	ebp, esp
	sub	esp, 68					; 00000044H
	push	ebx
	push	esi
	push	edi
	mov	DWORD PTR _this$[ebp], ecx
	mov	eax, DWORD PTR ___that$[ebp]
	push	eax
	mov	ecx, DWORD PTR _this$[ebp]
	call	??0ScriptClass@@QAE@ABV0@@Z
	mov	eax, DWORD PTR _this$[ebp]
	mov	DWORD PTR [eax], OFFSET ??_7ScriptImpClass@@6B@
	mov	eax, DWORD PTR _this$[ebp]
	mov	ecx, DWORD PTR ___that$[ebp]
	mov	edx, DWORD PTR [ecx+8]
	mov	DWORD PTR [eax+8], edx
	mov	eax, DWORD PTR _this$[ebp]
	mov	ecx, DWORD PTR ___that$[ebp]
	mov	edx, DWORD PTR [ecx+12]
	mov	DWORD PTR [eax+12], edx
	mov	eax, DWORD PTR _this$[ebp]
	mov	ecx, DWORD PTR ___that$[ebp]
	mov	edx, DWORD PTR [ecx+16]
	mov	DWORD PTR [eax+16], edx
	mov	eax, DWORD PTR _this$[ebp]
	mov	ecx, DWORD PTR ___that$[ebp]
	mov	edx, DWORD PTR [ecx+20]
	mov	DWORD PTR [eax+20], edx
	mov	eax, DWORD PTR _this$[ebp]
	mov	ecx, DWORD PTR ___that$[ebp]
	mov	edx, DWORD PTR [ecx+24]
	mov	DWORD PTR [eax+24], edx
	mov	eax, DWORD PTR _this$[ebp]
	pop	edi
	pop	esi
	pop	ebx
	mov	esp, ebp
	pop	ebp
	ret	4
??0ScriptImpClass@@QAE@ABV0@@Z ENDP			; ScriptImpClass::ScriptImpClass
_TEXT	ENDS
; Function compile flags: /Odtp /ZI
; File x:\github\renegade\dragonade_rxd\scripts\scripts.h
;	COMDAT ?Get_Bool_Parameter@ScriptImpClass@@QAE_NH@Z
_TEXT	SEGMENT
tv68 = -72						; size = 4
_this$ = -4						; size = 4
_index$ = 8						; size = 4
?Get_Bool_Parameter@ScriptImpClass@@QAE_NH@Z PROC	; ScriptImpClass::Get_Bool_Parameter, COMDAT
; _this$ = ecx

; 290  :     {

	push	ebp
	mov	ebp, esp
	sub	esp, 72					; 00000048H
	push	ebx
	push	esi
	push	edi
	mov	DWORD PTR _this$[ebp], ecx

; 291  :         return Get_Int_Parameter(index) != 0;

	mov	eax, DWORD PTR _index$[ebp]
	push	eax
	mov	ecx, DWORD PTR _this$[ebp]
	call	?Get_Int_Parameter@ScriptImpClass@@QAEHH@Z ; ScriptImpClass::Get_Int_Parameter
	test	eax, eax
	je	SHORT $LN3@Get_Bool_P
	mov	DWORD PTR tv68[ebp], 1
	jmp	SHORT $LN4@Get_Bool_P
$LN3@Get_Bool_P:
	mov	DWORD PTR tv68[ebp], 0
$LN4@Get_Bool_P:
	mov	al, BYTE PTR tv68[ebp]

; 292  :     }

	pop	edi
	pop	esi
	pop	ebx
	mov	esp, ebp
	pop	ebp
	ret	4
?Get_Bool_Parameter@ScriptImpClass@@QAE_NH@Z ENDP	; ScriptImpClass::Get_Bool_Parameter
_TEXT	ENDS
; Function compile flags: /Odtp /ZI
; File x:\github\renegade\dragonade_rxd\scripts\scripts.h
;	COMDAT ?Get_Bool_Parameter@ScriptImpClass@@QAE_NPBD@Z
_TEXT	SEGMENT
tv68 = -72						; size = 4
_this$ = -4						; size = 4
_name$ = 8						; size = 4
?Get_Bool_Parameter@ScriptImpClass@@QAE_NPBD@Z PROC	; ScriptImpClass::Get_Bool_Parameter, COMDAT
; _this$ = ecx

; 286  :     {

	push	ebp
	mov	ebp, esp
	sub	esp, 72					; 00000048H
	push	ebx
	push	esi
	push	edi
	mov	DWORD PTR _this$[ebp], ecx

; 287  :         return Get_Int_Parameter(name) != 0;

	mov	eax, DWORD PTR _name$[ebp]
	push	eax
	mov	ecx, DWORD PTR _this$[ebp]
	call	?Get_Int_Parameter@ScriptImpClass@@QAEHPBD@Z ; ScriptImpClass::Get_Int_Parameter
	test	eax, eax
	je	SHORT $LN3@Get_Bool_P
	mov	DWORD PTR tv68[ebp], 1
	jmp	SHORT $LN4@Get_Bool_P
$LN3@Get_Bool_P:
	mov	DWORD PTR tv68[ebp], 0
$LN4@Get_Bool_P:
	mov	al, BYTE PTR tv68[ebp]

; 288  :     }

	pop	edi
	pop	esi
	pop	ebx
	mov	esp, ebp
	pop	ebp
	ret	4
?Get_Bool_Parameter@ScriptImpClass@@QAE_NPBD@Z ENDP	; ScriptImpClass::Get_Bool_Parameter
_TEXT	ENDS
; Function compile flags: /Odtp /ZI
; File x:\github\renegade\dragonade_rxd\scripts\scripts.h
;	COMDAT ?Get_Float_Parameter@ScriptImpClass@@QAEMH@Z
_TEXT	SEGMENT
tv74 = -72						; size = 4
_this$ = -4						; size = 4
_index$ = 8						; size = 4
?Get_Float_Parameter@ScriptImpClass@@QAEMH@Z PROC	; ScriptImpClass::Get_Float_Parameter, COMDAT
; _this$ = ecx

; 282  : 	{

	push	ebp
	mov	ebp, esp
	sub	esp, 72					; 00000048H
	push	ebx
	push	esi
	push	edi
	mov	DWORD PTR _this$[ebp], ecx

; 283  : 		return (float)atof(Get_Parameter(index));

	mov	eax, DWORD PTR _index$[ebp]
	push	eax
	mov	ecx, DWORD PTR _this$[ebp]
	call	?Get_Parameter@ScriptImpClass@@QAEPBDH@Z ; ScriptImpClass::Get_Parameter
	push	eax
	call	DWORD PTR __imp__atof
	add	esp, 4
	fstp	DWORD PTR tv74[ebp]
	fld	DWORD PTR tv74[ebp]

; 284  : 	}

	pop	edi
	pop	esi
	pop	ebx
	mov	esp, ebp
	pop	ebp
	ret	4
?Get_Float_Parameter@ScriptImpClass@@QAEMH@Z ENDP	; ScriptImpClass::Get_Float_Parameter
_TEXT	ENDS
; Function compile flags: /Odtp /ZI
; File x:\github\renegade\dragonade_rxd\scripts\scripts.h
;	COMDAT ?Get_Int_Parameter@ScriptImpClass@@QAEHH@Z
_TEXT	SEGMENT
_this$ = -4						; size = 4
_index$ = 8						; size = 4
?Get_Int_Parameter@ScriptImpClass@@QAEHH@Z PROC		; ScriptImpClass::Get_Int_Parameter, COMDAT
; _this$ = ecx

; 278  : 	{

	push	ebp
	mov	ebp, esp
	sub	esp, 68					; 00000044H
	push	ebx
	push	esi
	push	edi
	mov	DWORD PTR _this$[ebp], ecx

; 279  : 		return atoi(Get_Parameter(index));

	mov	eax, DWORD PTR _index$[ebp]
	push	eax
	mov	ecx, DWORD PTR _this$[ebp]
	call	?Get_Parameter@ScriptImpClass@@QAEPBDH@Z ; ScriptImpClass::Get_Parameter
	push	eax
	call	DWORD PTR __imp__atoi
	add	esp, 4

; 280  : 	}

	pop	edi
	pop	esi
	pop	ebx
	mov	esp, ebp
	pop	ebp
	ret	4
?Get_Int_Parameter@ScriptImpClass@@QAEHH@Z ENDP		; ScriptImpClass::Get_Int_Parameter
_TEXT	ENDS
; Function compile flags: /Odtp /ZI
; File x:\github\renegade\dragonade_rxd\scripts\scripts.h
;	COMDAT ?Get_Parameter_Count@ScriptImpClass@@QAEHXZ
_TEXT	SEGMENT
_this$ = -4						; size = 4
?Get_Parameter_Count@ScriptImpClass@@QAEHXZ PROC	; ScriptImpClass::Get_Parameter_Count, COMDAT
; _this$ = ecx

; 274  : 	{

	push	ebp
	mov	ebp, esp
	sub	esp, 68					; 00000044H
	push	ebx
	push	esi
	push	edi
	mov	DWORD PTR _this$[ebp], ecx

; 275  : 		return mArgC;

	mov	eax, DWORD PTR _this$[ebp]
	mov	eax, DWORD PTR [eax+12]

; 276  : 	}

	pop	edi
	pop	esi
	pop	ebx
	mov	esp, ebp
	pop	ebp
	ret	0
?Get_Parameter_Count@ScriptImpClass@@QAEHXZ ENDP	; ScriptImpClass::Get_Parameter_Count
_TEXT	ENDS
; Function compile flags: /Odtp /ZI
; File x:\github\renegade\dragonade_rxd\scripts\scripts.h
;	COMDAT ?Register_Auto_Save_Variables@ScriptImpClass@@UAEXXZ
_TEXT	SEGMENT
_this$ = -4						; size = 4
?Register_Auto_Save_Variables@ScriptImpClass@@UAEXXZ PROC ; ScriptImpClass::Register_Auto_Save_Variables, COMDAT
; _this$ = ecx

; 265  : 	virtual	void Register_Auto_Save_Variables()	{}

	push	ebp
	mov	ebp, esp
	sub	esp, 68					; 00000044H
	push	ebx
	push	esi
	push	edi
	mov	DWORD PTR _this$[ebp], ecx
	pop	edi
	pop	esi
	pop	ebx
	mov	esp, ebp
	pop	ebp
	ret	0
?Register_Auto_Save_Variables@ScriptImpClass@@UAEXXZ ENDP ; ScriptImpClass::Register_Auto_Save_Variables
_TEXT	ENDS
; Function compile flags: /Odtp /ZI
; File x:\github\renegade\dragonade_rxd\scripts\scripts.h
;	COMDAT ?Load_Data@ScriptImpClass@@UAEXAAVScriptLoader@@@Z
_TEXT	SEGMENT
_this$ = -4						; size = 4
_loader$ = 8						; size = 4
?Load_Data@ScriptImpClass@@UAEXAAVScriptLoader@@@Z PROC	; ScriptImpClass::Load_Data, COMDAT
; _this$ = ecx

; 264  : 	virtual void Load_Data(ScriptLoader& loader) {}

	push	ebp
	mov	ebp, esp
	sub	esp, 68					; 00000044H
	push	ebx
	push	esi
	push	edi
	mov	DWORD PTR _this$[ebp], ecx
	pop	edi
	pop	esi
	pop	ebx
	mov	esp, ebp
	pop	ebp
	ret	4
?Load_Data@ScriptImpClass@@UAEXAAVScriptLoader@@@Z ENDP	; ScriptImpClass::Load_Data
_TEXT	ENDS
; Function compile flags: /Odtp /ZI
; File x:\github\renegade\dragonade_rxd\scripts\scripts.h
;	COMDAT ?Save_Data@ScriptImpClass@@UAEXAAVScriptSaver@@@Z
_TEXT	SEGMENT
_this$ = -4						; size = 4
_saver$ = 8						; size = 4
?Save_Data@ScriptImpClass@@UAEXAAVScriptSaver@@@Z PROC	; ScriptImpClass::Save_Data, COMDAT
; _this$ = ecx

; 263  : 	virtual void Save_Data(ScriptSaver& saver) {}

	push	ebp
	mov	ebp, esp
	sub	esp, 68					; 00000044H
	push	ebx
	push	esi
	push	edi
	mov	DWORD PTR _this$[ebp], ecx
	pop	edi
	pop	esi
	pop	ebx
	mov	esp, ebp
	pop	ebp
	ret	4
?Save_Data@ScriptImpClass@@UAEXAAVScriptSaver@@@Z ENDP	; ScriptImpClass::Save_Data
_TEXT	ENDS
; Function compile flags: /Odtp /ZI
; File x:\github\renegade\dragonade_rxd\scripts\scripts.h
;	COMDAT ?Get_Owner_Ptr@ScriptImpClass@@UAEPAPAVScriptableGameObj@@XZ
_TEXT	SEGMENT
_this$ = -4						; size = 4
?Get_Owner_Ptr@ScriptImpClass@@UAEPAPAVScriptableGameObj@@XZ PROC ; ScriptImpClass::Get_Owner_Ptr, COMDAT
; _this$ = ecx

; 258  : 	{

	push	ebp
	mov	ebp, esp
	sub	esp, 68					; 00000044H
	push	ebx
	push	esi
	push	edi
	mov	DWORD PTR _this$[ebp], ecx

; 259  : 		return &mOwner;

	mov	eax, DWORD PTR _this$[ebp]
	add	eax, 8

; 260  : 	}

	pop	edi
	pop	esi
	pop	ebx
	mov	esp, ebp
	pop	ebp
	ret	0
?Get_Owner_Ptr@ScriptImpClass@@UAEPAPAVScriptableGameObj@@XZ ENDP ; ScriptImpClass::Get_Owner_Ptr
_TEXT	ENDS
; Function compile flags: /Odtp /ZI
; File x:\github\renegade\dragonade_rxd\scripts\scripts.h
;	COMDAT ?Owner@ScriptImpClass@@UAEPAVScriptableGameObj@@XZ
_TEXT	SEGMENT
_this$ = -4						; size = 4
?Owner@ScriptImpClass@@UAEPAVScriptableGameObj@@XZ PROC	; ScriptImpClass::Owner, COMDAT
; _this$ = ecx

; 254  : 	{

	push	ebp
	mov	ebp, esp
	sub	esp, 68					; 00000044H
	push	ebx
	push	esi
	push	edi
	mov	DWORD PTR _this$[ebp], ecx

; 255  : 		return mOwner;

	mov	eax, DWORD PTR _this$[ebp]
	mov	eax, DWORD PTR [eax+8]

; 256  : 	}

	pop	edi
	pop	esi
	pop	ebx
	mov	esp, ebp
	pop	ebp
	ret	0
?Owner@ScriptImpClass@@UAEPAVScriptableGameObj@@XZ ENDP	; ScriptImpClass::Owner
_TEXT	ENDS
; Function compile flags: /Odtp /ZI
; File x:\github\renegade\dragonade_rxd\scripts\scripts.h
;	COMDAT ?Exited@ScriptImpClass@@UAEXPAVScriptableGameObj@@0@Z
_TEXT	SEGMENT
_this$ = -4						; size = 4
_obj$ = 8						; size = 4
_exiter$ = 12						; size = 4
?Exited@ScriptImpClass@@UAEXPAVScriptableGameObj@@0@Z PROC ; ScriptImpClass::Exited, COMDAT
; _this$ = ecx

; 251  :   void Exited(GameObject *obj,GameObject *exiter) {}

	push	ebp
	mov	ebp, esp
	sub	esp, 68					; 00000044H
	push	ebx
	push	esi
	push	edi
	mov	DWORD PTR _this$[ebp], ecx
	pop	edi
	pop	esi
	pop	ebx
	mov	esp, ebp
	pop	ebp
	ret	8
?Exited@ScriptImpClass@@UAEXPAVScriptableGameObj@@0@Z ENDP ; ScriptImpClass::Exited
_TEXT	ENDS
; Function compile flags: /Odtp /ZI
; File x:\github\renegade\dragonade_rxd\scripts\scripts.h
;	COMDAT ?Entered@ScriptImpClass@@UAEXPAVScriptableGameObj@@0@Z
_TEXT	SEGMENT
_this$ = -4						; size = 4
_obj$ = 8						; size = 4
_enterer$ = 12						; size = 4
?Entered@ScriptImpClass@@UAEXPAVScriptableGameObj@@0@Z PROC ; ScriptImpClass::Entered, COMDAT
; _this$ = ecx

; 244  :   void Entered(GameObject *obj,GameObject *enterer) {}

	push	ebp
	mov	ebp, esp
	sub	esp, 68					; 00000044H
	push	ebx
	push	esi
	push	edi
	mov	DWORD PTR _this$[ebp], ecx
	pop	edi
	pop	esi
	pop	ebx
	mov	esp, ebp
	pop	ebp
	ret	8
?Entered@ScriptImpClass@@UAEXPAVScriptableGameObj@@0@Z ENDP ; ScriptImpClass::Entered
_TEXT	ENDS
; Function compile flags: /Odtp /ZI
; File x:\github\renegade\dragonade_rxd\scripts\scripts.h
;	COMDAT ?Poked@ScriptImpClass@@UAEXPAVScriptableGameObj@@0@Z
_TEXT	SEGMENT
_this$ = -4						; size = 4
_obj$ = 8						; size = 4
_poker$ = 12						; size = 4
?Poked@ScriptImpClass@@UAEXPAVScriptableGameObj@@0@Z PROC ; ScriptImpClass::Poked, COMDAT
; _this$ = ecx

; 237  :   void Poked(GameObject *obj,GameObject *poker) {}

	push	ebp
	mov	ebp, esp
	sub	esp, 68					; 00000044H
	push	ebx
	push	esi
	push	edi
	mov	DWORD PTR _this$[ebp], ecx
	pop	edi
	pop	esi
	pop	ebx
	mov	esp, ebp
	pop	ebp
	ret	8
?Poked@ScriptImpClass@@UAEXPAVScriptableGameObj@@0@Z ENDP ; ScriptImpClass::Poked
_TEXT	ENDS
; Function compile flags: /Odtp /ZI
; File x:\github\renegade\dragonade_rxd\scripts\scripts.h
;	COMDAT ?Animation_Complete@ScriptImpClass@@UAEXPAVScriptableGameObj@@PBD@Z
_TEXT	SEGMENT
_this$ = -4						; size = 4
_obj$ = 8						; size = 4
_animation_name$ = 12					; size = 4
?Animation_Complete@ScriptImpClass@@UAEXPAVScriptableGameObj@@PBD@Z PROC ; ScriptImpClass::Animation_Complete, COMDAT
; _this$ = ecx

; 229  :   void Animation_Complete(GameObject *obj,const char *animation_name) {}

	push	ebp
	mov	ebp, esp
	sub	esp, 68					; 00000044H
	push	ebx
	push	esi
	push	edi
	mov	DWORD PTR _this$[ebp], ecx
	pop	edi
	pop	esi
	pop	ebx
	mov	esp, ebp
	pop	ebp
	ret	8
?Animation_Complete@ScriptImpClass@@UAEXPAVScriptableGameObj@@PBD@Z ENDP ; ScriptImpClass::Animation_Complete
_TEXT	ENDS
; Function compile flags: /Odtp /ZI
; File x:\github\renegade\dragonade_rxd\scripts\scripts.h
;	COMDAT ?Timer_Expired@ScriptImpClass@@UAEXPAVScriptableGameObj@@H@Z
_TEXT	SEGMENT
_this$ = -4						; size = 4
_obj$ = 8						; size = 4
_number$ = 12						; size = 4
?Timer_Expired@ScriptImpClass@@UAEXPAVScriptableGameObj@@H@Z PROC ; ScriptImpClass::Timer_Expired, COMDAT
; _this$ = ecx

; 221  :   void Timer_Expired(GameObject *obj,int number) {}

	push	ebp
	mov	ebp, esp
	sub	esp, 68					; 00000044H
	push	ebx
	push	esi
	push	edi
	mov	DWORD PTR _this$[ebp], ecx
	pop	edi
	pop	esi
	pop	ebx
	mov	esp, ebp
	pop	ebp
	ret	8
?Timer_Expired@ScriptImpClass@@UAEXPAVScriptableGameObj@@H@Z ENDP ; ScriptImpClass::Timer_Expired
_TEXT	ENDS
; Function compile flags: /Odtp /ZI
; File x:\github\renegade\dragonade_rxd\scripts\scripts.h
;	COMDAT ?Action_Complete@ScriptImpClass@@UAEXPAVScriptableGameObj@@HW4ActionCompleteReason@@@Z
_TEXT	SEGMENT
_this$ = -4						; size = 4
_obj$ = 8						; size = 4
_action_id$ = 12					; size = 4
_complete_reason$ = 16					; size = 4
?Action_Complete@ScriptImpClass@@UAEXPAVScriptableGameObj@@HW4ActionCompleteReason@@@Z PROC ; ScriptImpClass::Action_Complete, COMDAT
; _this$ = ecx

; 212  :   void Action_Complete(GameObject *obj,int action_id,ActionCompleteReason complete_reason) {}

	push	ebp
	mov	ebp, esp
	sub	esp, 68					; 00000044H
	push	ebx
	push	esi
	push	edi
	mov	DWORD PTR _this$[ebp], ecx
	pop	edi
	pop	esi
	pop	ebx
	mov	esp, ebp
	pop	ebp
	ret	12					; 0000000cH
?Action_Complete@ScriptImpClass@@UAEXPAVScriptableGameObj@@HW4ActionCompleteReason@@@Z ENDP ; ScriptImpClass::Action_Complete
_TEXT	ENDS
; Function compile flags: /Odtp /ZI
; File x:\github\renegade\dragonade_rxd\scripts\scripts.h
;	COMDAT ?Enemy_Seen@ScriptImpClass@@UAEXPAVScriptableGameObj@@0@Z
_TEXT	SEGMENT
_this$ = -4						; size = 4
_obj$ = 8						; size = 4
_enemy$ = 12						; size = 4
?Enemy_Seen@ScriptImpClass@@UAEXPAVScriptableGameObj@@0@Z PROC ; ScriptImpClass::Enemy_Seen, COMDAT
; _this$ = ecx

; 201  :   void Enemy_Seen(GameObject *obj,GameObject *enemy) {}

	push	ebp
	mov	ebp, esp
	sub	esp, 68					; 00000044H
	push	ebx
	push	esi
	push	edi
	mov	DWORD PTR _this$[ebp], ecx
	pop	edi
	pop	esi
	pop	ebx
	mov	esp, ebp
	pop	ebp
	ret	8
?Enemy_Seen@ScriptImpClass@@UAEXPAVScriptableGameObj@@0@Z ENDP ; ScriptImpClass::Enemy_Seen
_TEXT	ENDS
; Function compile flags: /Odtp /ZI
; File x:\github\renegade\dragonade_rxd\scripts\scripts.h
;	COMDAT ?Sound_Heard@ScriptImpClass@@UAEXPAVScriptableGameObj@@ABUCombatSound@@@Z
_TEXT	SEGMENT
_this$ = -4						; size = 4
_obj$ = 8						; size = 4
_sound$ = 12						; size = 4
?Sound_Heard@ScriptImpClass@@UAEXPAVScriptableGameObj@@ABUCombatSound@@@Z PROC ; ScriptImpClass::Sound_Heard, COMDAT
; _this$ = ecx

; 193  :   void Sound_Heard(GameObject *obj,const CombatSound & sound) {}

	push	ebp
	mov	ebp, esp
	sub	esp, 68					; 00000044H
	push	ebx
	push	esi
	push	edi
	mov	DWORD PTR _this$[ebp], ecx
	pop	edi
	pop	esi
	pop	ebx
	mov	esp, ebp
	pop	ebp
	ret	8
?Sound_Heard@ScriptImpClass@@UAEXPAVScriptableGameObj@@ABUCombatSound@@@Z ENDP ; ScriptImpClass::Sound_Heard
_TEXT	ENDS
; Function compile flags: /Odtp /ZI
; File x:\github\renegade\dragonade_rxd\scripts\scripts.h
;	COMDAT ?Custom@ScriptImpClass@@UAEXPAVScriptableGameObj@@HH0@Z
_TEXT	SEGMENT
_this$ = -4						; size = 4
_obj$ = 8						; size = 4
_type$ = 12						; size = 4
_param$ = 16						; size = 4
_sender$ = 20						; size = 4
?Custom@ScriptImpClass@@UAEXPAVScriptableGameObj@@HH0@Z PROC ; ScriptImpClass::Custom, COMDAT
; _this$ = ecx

; 184  :   void Custom(GameObject *obj,int type,int param,GameObject *sender) {}

	push	ebp
	mov	ebp, esp
	sub	esp, 68					; 00000044H
	push	ebx
	push	esi
	push	edi
	mov	DWORD PTR _this$[ebp], ecx
	pop	edi
	pop	esi
	pop	ebx
	mov	esp, ebp
	pop	ebp
	ret	16					; 00000010H
?Custom@ScriptImpClass@@UAEXPAVScriptableGameObj@@HH0@Z ENDP ; ScriptImpClass::Custom
_TEXT	ENDS
; Function compile flags: /Odtp /ZI
; File x:\github\renegade\dragonade_rxd\scripts\scripts.h
;	COMDAT ?Damaged@ScriptImpClass@@UAEXPAVScriptableGameObj@@0M@Z
_TEXT	SEGMENT
_this$ = -4						; size = 4
_obj$ = 8						; size = 4
_damager$ = 12						; size = 4
_amount$ = 16						; size = 4
?Damaged@ScriptImpClass@@UAEXPAVScriptableGameObj@@0M@Z PROC ; ScriptImpClass::Damaged, COMDAT
; _this$ = ecx

; 174  :   void Damaged(GameObject *obj,GameObject *damager,float amount) {}

	push	ebp
	mov	ebp, esp
	sub	esp, 68					; 00000044H
	push	ebx
	push	esi
	push	edi
	mov	DWORD PTR _this$[ebp], ecx
	pop	edi
	pop	esi
	pop	ebx
	mov	esp, ebp
	pop	ebp
	ret	12					; 0000000cH
?Damaged@ScriptImpClass@@UAEXPAVScriptableGameObj@@0M@Z ENDP ; ScriptImpClass::Damaged
_TEXT	ENDS
; Function compile flags: /Odtp /ZI
; File x:\github\renegade\dragonade_rxd\scripts\scripts.h
;	COMDAT ?Killed@ScriptImpClass@@UAEXPAVScriptableGameObj@@0@Z
_TEXT	SEGMENT
_this$ = -4						; size = 4
_obj$ = 8						; size = 4
_killer$ = 12						; size = 4
?Killed@ScriptImpClass@@UAEXPAVScriptableGameObj@@0@Z PROC ; ScriptImpClass::Killed, COMDAT
; _this$ = ecx

; 164  :   void Killed(GameObject *obj,GameObject *killer) {}

	push	ebp
	mov	ebp, esp
	sub	esp, 68					; 00000044H
	push	ebx
	push	esi
	push	edi
	mov	DWORD PTR _this$[ebp], ecx
	pop	edi
	pop	esi
	pop	ebx
	mov	esp, ebp
	pop	ebp
	ret	8
?Killed@ScriptImpClass@@UAEXPAVScriptableGameObj@@0@Z ENDP ; ScriptImpClass::Killed
_TEXT	ENDS
; Function compile flags: /Odtp /ZI
; File x:\github\renegade\dragonade_rxd\scripts\scripts.h
;	COMDAT ?Destroyed@ScriptImpClass@@UAEXPAVScriptableGameObj@@@Z
_TEXT	SEGMENT
_this$ = -4						; size = 4
_obj$ = 8						; size = 4
?Destroyed@ScriptImpClass@@UAEXPAVScriptableGameObj@@@Z PROC ; ScriptImpClass::Destroyed, COMDAT
; _this$ = ecx

; 155  :   void Destroyed(GameObject *obj) {}

	push	ebp
	mov	ebp, esp
	sub	esp, 68					; 00000044H
	push	ebx
	push	esi
	push	edi
	mov	DWORD PTR _this$[ebp], ecx
	pop	edi
	pop	esi
	pop	ebx
	mov	esp, ebp
	pop	ebp
	ret	4
?Destroyed@ScriptImpClass@@UAEXPAVScriptableGameObj@@@Z ENDP ; ScriptImpClass::Destroyed
_TEXT	ENDS
; Function compile flags: /Odtp /ZI
; File x:\github\renegade\dragonade_rxd\scripts\scripts.h
;	COMDAT ?Created@ScriptImpClass@@UAEXPAVScriptableGameObj@@@Z
_TEXT	SEGMENT
_this$ = -4						; size = 4
_obj$ = 8						; size = 4
?Created@ScriptImpClass@@UAEXPAVScriptableGameObj@@@Z PROC ; ScriptImpClass::Created, COMDAT
; _this$ = ecx

; 149  :   void Created(GameObject *obj) {}

	push	ebp
	mov	ebp, esp
	sub	esp, 68					; 00000044H
	push	ebx
	push	esi
	push	edi
	mov	DWORD PTR _this$[ebp], ecx
	pop	edi
	pop	esi
	pop	ebx
	mov	esp, ebp
	pop	ebp
	ret	4
?Created@ScriptImpClass@@UAEXPAVScriptableGameObj@@@Z ENDP ; ScriptImpClass::Created
_TEXT	ENDS
; Function compile flags: /Odtp /ZI
; File x:\github\renegade\dragonade_rxd\scripts\scripts.h
;	COMDAT ?SetFactory@ScriptImpClass@@QAEXPAVScriptFactory@@@Z
_TEXT	SEGMENT
_this$ = -4						; size = 4
_factory$ = 8						; size = 4
?SetFactory@ScriptImpClass@@QAEXPAVScriptFactory@@@Z PROC ; ScriptImpClass::SetFactory, COMDAT
; _this$ = ecx

; 136  : 	{

	push	ebp
	mov	ebp, esp
	sub	esp, 68					; 00000044H
	push	ebx
	push	esi
	push	edi
	mov	DWORD PTR _this$[ebp], ecx

; 137  : 		mFactory = factory;

	mov	eax, DWORD PTR _this$[ebp]
	mov	ecx, DWORD PTR _factory$[ebp]
	mov	DWORD PTR [eax+20], ecx

; 138  : 	}

	pop	edi
	pop	esi
	pop	ebx
	mov	esp, ebp
	pop	ebp
	ret	4
?SetFactory@ScriptImpClass@@QAEXPAVScriptFactory@@@Z ENDP ; ScriptImpClass::SetFactory
_TEXT	ENDS
; Function compile flags: /Odtp /ZI
;	COMDAT ??_EScriptClass@@UAEPAXI@Z
_TEXT	SEGMENT
_this$ = -4						; size = 4
___flags$ = 8						; size = 4
??_EScriptClass@@UAEPAXI@Z PROC				; ScriptClass::`vector deleting destructor', COMDAT
; _this$ = ecx
	push	ebp
	mov	ebp, esp
	sub	esp, 68					; 00000044H
	push	ebx
	push	esi
	push	edi
	mov	DWORD PTR _this$[ebp], ecx
	mov	eax, DWORD PTR ___flags$[ebp]
	and	eax, 2
	je	SHORT $LN3@vector
	push	OFFSET ??1ScriptClass@@UAE@XZ		; ScriptClass::~ScriptClass
	mov	eax, DWORD PTR _this$[ebp]
	mov	ecx, DWORD PTR [eax-4]
	push	ecx
	push	8
	mov	edx, DWORD PTR _this$[ebp]
	push	edx
	call	??_I@YGXPAXIHP6EX0@Z@Z
	mov	eax, DWORD PTR ___flags$[ebp]
	and	eax, 1
	je	SHORT $LN2@vector
	mov	eax, DWORD PTR _this$[ebp]
	sub	eax, 4
	push	eax
	call	??_V@YAXPAX@Z				; operator delete[]
	add	esp, 4
$LN2@vector:
	mov	eax, DWORD PTR _this$[ebp]
	sub	eax, 4
	jmp	SHORT $LN4@vector
$LN3@vector:
	mov	ecx, DWORD PTR _this$[ebp]
	call	??1ScriptClass@@UAE@XZ			; ScriptClass::~ScriptClass
	mov	eax, DWORD PTR ___flags$[ebp]
	and	eax, 1
	je	SHORT $LN1@vector
	mov	eax, DWORD PTR _this$[ebp]
	push	eax
	call	??3@YAXPAX@Z				; operator delete
	add	esp, 4
$LN1@vector:
	mov	eax, DWORD PTR _this$[ebp]
$LN4@vector:
	pop	edi
	pop	esi
	pop	ebx
	mov	esp, ebp
	pop	ebp
	ret	4
??_EScriptClass@@UAEPAXI@Z ENDP				; ScriptClass::`vector deleting destructor'
_TEXT	ENDS
; Function compile flags: /Odtp /ZI
;	COMDAT ??_GScriptClass@@UAEPAXI@Z
_TEXT	SEGMENT
_this$ = -4						; size = 4
___flags$ = 8						; size = 4
??_GScriptClass@@UAEPAXI@Z PROC				; ScriptClass::`scalar deleting destructor', COMDAT
; _this$ = ecx
	push	ebp
	mov	ebp, esp
	sub	esp, 68					; 00000044H
	push	ebx
	push	esi
	push	edi
	mov	DWORD PTR _this$[ebp], ecx
	mov	ecx, DWORD PTR _this$[ebp]
	call	??1ScriptClass@@UAE@XZ			; ScriptClass::~ScriptClass
	mov	eax, DWORD PTR ___flags$[ebp]
	and	eax, 1
	je	SHORT $LN1@scalar
	mov	eax, DWORD PTR _this$[ebp]
	push	eax
	call	??3@YAXPAX@Z				; operator delete
	add	esp, 4
$LN1@scalar:
	mov	eax, DWORD PTR _this$[ebp]
	pop	edi
	pop	esi
	pop	ebx
	mov	esp, ebp
	pop	ebp
	ret	4
??_GScriptClass@@UAEPAXI@Z ENDP				; ScriptClass::`scalar deleting destructor'
_TEXT	ENDS
; Function compile flags: /Odtp /ZI
;	COMDAT ??4ScriptClass@@QAEAAV0@ABV0@@Z
_TEXT	SEGMENT
_this$ = -4						; size = 4
___that$ = 8						; size = 4
??4ScriptClass@@QAEAAV0@ABV0@@Z PROC			; ScriptClass::operator=, COMDAT
; _this$ = ecx
	push	ebp
	mov	ebp, esp
	sub	esp, 68					; 00000044H
	push	ebx
	push	esi
	push	edi
	mov	DWORD PTR _this$[ebp], ecx
	mov	eax, DWORD PTR ___that$[ebp]
	push	eax
	mov	ecx, DWORD PTR _this$[ebp]
	call	??4GameObjObserverClass@@QAEAAV0@ABV0@@Z
	mov	eax, DWORD PTR _this$[ebp]
	pop	edi
	pop	esi
	pop	ebx
	mov	esp, ebp
	pop	ebp
	ret	4
??4ScriptClass@@QAEAAV0@ABV0@@Z ENDP			; ScriptClass::operator=
_TEXT	ENDS
; Function compile flags: /Odtp /ZI
;	COMDAT ??0ScriptClass@@QAE@ABV0@@Z
_TEXT	SEGMENT
_this$ = -4						; size = 4
___that$ = 8						; size = 4
??0ScriptClass@@QAE@ABV0@@Z PROC			; ScriptClass::ScriptClass, COMDAT
; _this$ = ecx
	push	ebp
	mov	ebp, esp
	sub	esp, 68					; 00000044H
	push	ebx
	push	esi
	push	edi
	mov	DWORD PTR _this$[ebp], ecx
	mov	eax, DWORD PTR ___that$[ebp]
	push	eax
	mov	ecx, DWORD PTR _this$[ebp]
	call	??0GameObjObserverClass@@QAE@ABV0@@Z
	mov	eax, DWORD PTR _this$[ebp]
	mov	DWORD PTR [eax], OFFSET ??_7ScriptClass@@6B@
	mov	eax, DWORD PTR _this$[ebp]
	pop	edi
	pop	esi
	pop	ebx
	mov	esp, ebp
	pop	ebp
	ret	4
??0ScriptClass@@QAE@ABV0@@Z ENDP			; ScriptClass::ScriptClass
_TEXT	ENDS
; Function compile flags: /Odtp /ZI
;	COMDAT ??0ScriptClass@@QAE@XZ
_TEXT	SEGMENT
_this$ = -4						; size = 4
??0ScriptClass@@QAE@XZ PROC				; ScriptClass::ScriptClass, COMDAT
; _this$ = ecx
	push	ebp
	mov	ebp, esp
	sub	esp, 68					; 00000044H
	push	ebx
	push	esi
	push	edi
	mov	DWORD PTR _this$[ebp], ecx
	mov	ecx, DWORD PTR _this$[ebp]
	call	??0GameObjObserverClass@@QAE@XZ		; GameObjObserverClass::GameObjObserverClass
	mov	eax, DWORD PTR _this$[ebp]
	mov	DWORD PTR [eax], OFFSET ??_7ScriptClass@@6B@
	mov	eax, DWORD PTR _this$[ebp]
	pop	edi
	pop	esi
	pop	ebx
	mov	esp, ebp
	pop	ebp
	ret	0
??0ScriptClass@@QAE@XZ ENDP				; ScriptClass::ScriptClass
_TEXT	ENDS
; Function compile flags: /Odtp /ZI
; File x:\github\renegade\dragonade_rxd\scripts\scripts.h
;	COMDAT ??1ScriptClass@@UAE@XZ
_TEXT	SEGMENT
_this$ = -4						; size = 4
??1ScriptClass@@UAE@XZ PROC				; ScriptClass::~ScriptClass, COMDAT
; _this$ = ecx

; 124  : 	virtual ~ScriptClass() {}

	push	ebp
	mov	ebp, esp
	sub	esp, 68					; 00000044H
	push	ebx
	push	esi
	push	edi
	mov	DWORD PTR _this$[ebp], ecx
	mov	eax, DWORD PTR _this$[ebp]
	mov	DWORD PTR [eax], OFFSET ??_7ScriptClass@@6B@
	mov	ecx, DWORD PTR _this$[ebp]
	call	??1GameObjObserverClass@@UAE@XZ		; GameObjObserverClass::~GameObjObserverClass
	pop	edi
	pop	esi
	pop	ebx
	mov	esp, ebp
	pop	ebp
	ret	0
??1ScriptClass@@UAE@XZ ENDP				; ScriptClass::~ScriptClass
_TEXT	ENDS
; Function compile flags: /Odtp /ZI
;	COMDAT ??_EGameObjObserverClass@@UAEPAXI@Z
_TEXT	SEGMENT
_this$ = -4						; size = 4
___flags$ = 8						; size = 4
??_EGameObjObserverClass@@UAEPAXI@Z PROC		; GameObjObserverClass::`vector deleting destructor', COMDAT
; _this$ = ecx
	push	ebp
	mov	ebp, esp
	sub	esp, 68					; 00000044H
	push	ebx
	push	esi
	push	edi
	mov	DWORD PTR _this$[ebp], ecx
	mov	eax, DWORD PTR ___flags$[ebp]
	and	eax, 2
	je	SHORT $LN3@vector
	push	OFFSET ??1GameObjObserverClass@@UAE@XZ	; GameObjObserverClass::~GameObjObserverClass
	mov	eax, DWORD PTR _this$[ebp]
	mov	ecx, DWORD PTR [eax-4]
	push	ecx
	push	8
	mov	edx, DWORD PTR _this$[ebp]
	push	edx
	call	??_I@YGXPAXIHP6EX0@Z@Z
	mov	eax, DWORD PTR ___flags$[ebp]
	and	eax, 1
	je	SHORT $LN2@vector
	mov	eax, DWORD PTR _this$[ebp]
	sub	eax, 4
	push	eax
	call	??_V@YAXPAX@Z				; operator delete[]
	add	esp, 4
$LN2@vector:
	mov	eax, DWORD PTR _this$[ebp]
	sub	eax, 4
	jmp	SHORT $LN4@vector
$LN3@vector:
	mov	ecx, DWORD PTR _this$[ebp]
	call	??1GameObjObserverClass@@UAE@XZ		; GameObjObserverClass::~GameObjObserverClass
	mov	eax, DWORD PTR ___flags$[ebp]
	and	eax, 1
	je	SHORT $LN1@vector
	mov	eax, DWORD PTR _this$[ebp]
	push	eax
	call	??3@YAXPAX@Z				; operator delete
	add	esp, 4
$LN1@vector:
	mov	eax, DWORD PTR _this$[ebp]
$LN4@vector:
	pop	edi
	pop	esi
	pop	ebx
	mov	esp, ebp
	pop	ebp
	ret	4
??_EGameObjObserverClass@@UAEPAXI@Z ENDP		; GameObjObserverClass::`vector deleting destructor'
_TEXT	ENDS
; Function compile flags: /Odtp /ZI
;	COMDAT ??_GGameObjObserverClass@@UAEPAXI@Z
_TEXT	SEGMENT
_this$ = -4						; size = 4
___flags$ = 8						; size = 4
??_GGameObjObserverClass@@UAEPAXI@Z PROC		; GameObjObserverClass::`scalar deleting destructor', COMDAT
; _this$ = ecx
	push	ebp
	mov	ebp, esp
	sub	esp, 68					; 00000044H
	push	ebx
	push	esi
	push	edi
	mov	DWORD PTR _this$[ebp], ecx
	mov	ecx, DWORD PTR _this$[ebp]
	call	??1GameObjObserverClass@@UAE@XZ		; GameObjObserverClass::~GameObjObserverClass
	mov	eax, DWORD PTR ___flags$[ebp]
	and	eax, 1
	je	SHORT $LN1@scalar
	mov	eax, DWORD PTR _this$[ebp]
	push	eax
	call	??3@YAXPAX@Z				; operator delete
	add	esp, 4
$LN1@scalar:
	mov	eax, DWORD PTR _this$[ebp]
	pop	edi
	pop	esi
	pop	ebx
	mov	esp, ebp
	pop	ebp
	ret	4
??_GGameObjObserverClass@@UAEPAXI@Z ENDP		; GameObjObserverClass::`scalar deleting destructor'
_TEXT	ENDS
; Function compile flags: /Odtp /ZI
;	COMDAT ??4GameObjObserverClass@@QAEAAV0@ABV0@@Z
_TEXT	SEGMENT
_this$ = -4						; size = 4
___that$ = 8						; size = 4
??4GameObjObserverClass@@QAEAAV0@ABV0@@Z PROC		; GameObjObserverClass::operator=, COMDAT
; _this$ = ecx
	push	ebp
	mov	ebp, esp
	sub	esp, 68					; 00000044H
	push	ebx
	push	esi
	push	edi
	mov	DWORD PTR _this$[ebp], ecx
	mov	eax, DWORD PTR _this$[ebp]
	mov	ecx, DWORD PTR ___that$[ebp]
	mov	edx, DWORD PTR [ecx+4]
	mov	DWORD PTR [eax+4], edx
	mov	eax, DWORD PTR _this$[ebp]
	pop	edi
	pop	esi
	pop	ebx
	mov	esp, ebp
	pop	ebp
	ret	4
??4GameObjObserverClass@@QAEAAV0@ABV0@@Z ENDP		; GameObjObserverClass::operator=
_TEXT	ENDS
; Function compile flags: /Odtp /ZI
;	COMDAT ??0GameObjObserverClass@@QAE@ABV0@@Z
_TEXT	SEGMENT
_this$ = -4						; size = 4
___that$ = 8						; size = 4
??0GameObjObserverClass@@QAE@ABV0@@Z PROC		; GameObjObserverClass::GameObjObserverClass, COMDAT
; _this$ = ecx
	push	ebp
	mov	ebp, esp
	sub	esp, 68					; 00000044H
	push	ebx
	push	esi
	push	edi
	mov	DWORD PTR _this$[ebp], ecx
	mov	eax, DWORD PTR _this$[ebp]
	mov	DWORD PTR [eax], OFFSET ??_7GameObjObserverClass@@6B@
	mov	eax, DWORD PTR _this$[ebp]
	mov	ecx, DWORD PTR ___that$[ebp]
	mov	edx, DWORD PTR [ecx+4]
	mov	DWORD PTR [eax+4], edx
	mov	eax, DWORD PTR _this$[ebp]
	pop	edi
	pop	esi
	pop	ebx
	mov	esp, ebp
	pop	ebp
	ret	4
??0GameObjObserverClass@@QAE@ABV0@@Z ENDP		; GameObjObserverClass::GameObjObserverClass
_TEXT	ENDS
; Function compile flags: /Odtp /ZI
; File x:\github\renegade\dragonade_rxd\scripts\scripts.h
;	COMDAT ?Owner@GameObjObserverClass@@UAEPAVScriptableGameObj@@XZ
_TEXT	SEGMENT
_this$ = -4						; size = 4
?Owner@GameObjObserverClass@@UAEPAVScriptableGameObj@@XZ PROC ; GameObjObserverClass::Owner, COMDAT
; _this$ = ecx

; 117  : 	virtual GameObject* Owner() {return 0;}

	push	ebp
	mov	ebp, esp
	sub	esp, 68					; 00000044H
	push	ebx
	push	esi
	push	edi
	mov	DWORD PTR _this$[ebp], ecx
	xor	eax, eax
	pop	edi
	pop	esi
	pop	ebx
	mov	esp, ebp
	pop	ebp
	ret	0
?Owner@GameObjObserverClass@@UAEPAVScriptableGameObj@@XZ ENDP ; GameObjObserverClass::Owner
_TEXT	ENDS
; Function compile flags: /Odtp /ZI
; File x:\github\renegade\dragonade_rxd\scripts\scripts.h
;	COMDAT ?Get_ID@GameObjObserverClass@@QAEHXZ
_TEXT	SEGMENT
_this$ = -4						; size = 4
?Get_ID@GameObjObserverClass@@QAEHXZ PROC		; GameObjObserverClass::Get_ID, COMDAT
; _this$ = ecx

; 99   : 	{

	push	ebp
	mov	ebp, esp
	sub	esp, 68					; 00000044H
	push	ebx
	push	esi
	push	edi
	mov	DWORD PTR _this$[ebp], ecx

; 100  : 		return ID;

	mov	eax, DWORD PTR _this$[ebp]
	mov	eax, DWORD PTR [eax+4]

; 101  : 	}

	pop	edi
	pop	esi
	pop	ebx
	mov	esp, ebp
	pop	ebp
	ret	0
?Get_ID@GameObjObserverClass@@QAEHXZ ENDP		; GameObjObserverClass::Get_ID
_TEXT	ENDS
; Function compile flags: /Odtp /ZI
; File x:\github\renegade\dragonade_rxd\scripts\scripts.h
;	COMDAT ?Set_ID@GameObjObserverClass@@QAEXH@Z
_TEXT	SEGMENT
_this$ = -4						; size = 4
_id$ = 8						; size = 4
?Set_ID@GameObjObserverClass@@QAEXH@Z PROC		; GameObjObserverClass::Set_ID, COMDAT
; _this$ = ecx

; 95   : 	{

	push	ebp
	mov	ebp, esp
	sub	esp, 68					; 00000044H
	push	ebx
	push	esi
	push	edi
	mov	DWORD PTR _this$[ebp], ecx

; 96   : 		ID = id;

	mov	eax, DWORD PTR _this$[ebp]
	mov	ecx, DWORD PTR _id$[ebp]
	mov	DWORD PTR [eax+4], ecx

; 97   : 	}

	pop	edi
	pop	esi
	pop	ebx
	mov	esp, ebp
	pop	ebp
	ret	4
?Set_ID@GameObjObserverClass@@QAEXH@Z ENDP		; GameObjObserverClass::Set_ID
_TEXT	ENDS
; Function compile flags: /Odtp /ZI
; File x:\github\renegade\dragonade_rxd\scripts\scripts.h
;	COMDAT ??1GameObjObserverClass@@UAE@XZ
_TEXT	SEGMENT
_this$ = -4						; size = 4
??1GameObjObserverClass@@UAE@XZ PROC			; GameObjObserverClass::~GameObjObserverClass, COMDAT
; _this$ = ecx

; 92   : 	virtual	~GameObjObserverClass() {}

	push	ebp
	mov	ebp, esp
	sub	esp, 68					; 00000044H
	push	ebx
	push	esi
	push	edi
	mov	DWORD PTR _this$[ebp], ecx
	mov	eax, DWORD PTR _this$[ebp]
	mov	DWORD PTR [eax], OFFSET ??_7GameObjObserverClass@@6B@
	pop	edi
	pop	esi
	pop	ebx
	mov	esp, ebp
	pop	ebp
	ret	0
??1GameObjObserverClass@@UAE@XZ ENDP			; GameObjObserverClass::~GameObjObserverClass
_TEXT	ENDS
; Function compile flags: /Odtp /ZI
; File x:\github\renegade\dragonade_rxd\scripts\scripts.h
;	COMDAT ??0GameObjObserverClass@@QAE@XZ
_TEXT	SEGMENT
_this$ = -4						; size = 4
??0GameObjObserverClass@@QAE@XZ PROC			; GameObjObserverClass::GameObjObserverClass, COMDAT
; _this$ = ecx

; 91   : 	GameObjObserverClass() : ID( 0 ) {}

	push	ebp
	mov	ebp, esp
	sub	esp, 68					; 00000044H
	push	ebx
	push	esi
	push	edi
	mov	DWORD PTR _this$[ebp], ecx
	mov	eax, DWORD PTR _this$[ebp]
	mov	DWORD PTR [eax], OFFSET ??_7GameObjObserverClass@@6B@
	mov	eax, DWORD PTR _this$[ebp]
	mov	DWORD PTR [eax+4], 0
	mov	eax, DWORD PTR _this$[ebp]
	pop	edi
	pop	esi
	pop	ebx
	mov	esp, ebp
	pop	ebp
	ret	0
??0GameObjObserverClass@@QAE@XZ ENDP			; GameObjObserverClass::GameObjObserverClass
_TEXT	ENDS
; Function compile flags: /Odtp /ZI
; File x:\github\renegade\dragonade_rxd\scripts\multilist.h
;	COMDAT ?Current_Object@GenericMultiListIterator@@IBEPAVMultiListObjectClass@@XZ
_TEXT	SEGMENT
_this$ = -4						; size = 4
?Current_Object@GenericMultiListIterator@@IBEPAVMultiListObjectClass@@XZ PROC ; GenericMultiListIterator::Current_Object, COMDAT
; _this$ = ecx

; 160  : 	{ 

	push	ebp
	mov	ebp, esp
	sub	esp, 68					; 00000044H
	push	ebx
	push	esi
	push	edi
	mov	DWORD PTR _this$[ebp], ecx

; 161  : 		return CurNode->Object; 

	mov	eax, DWORD PTR _this$[ebp]
	mov	ecx, DWORD PTR [eax+4]
	mov	eax, DWORD PTR [ecx+12]

; 162  : 	};

	pop	edi
	pop	esi
	pop	ebx
	mov	esp, ebp
	pop	ebp
	ret	0
?Current_Object@GenericMultiListIterator@@IBEPAVMultiListObjectClass@@XZ ENDP ; GenericMultiListIterator::Current_Object
_TEXT	ENDS
; Function compile flags: /Odtp /ZI
; File x:\github\renegade\dragonade_rxd\scripts\multilist.h
;	COMDAT ?Is_Done@GenericMultiListIterator@@QBE_NXZ
_TEXT	SEGMENT
tv68 = -72						; size = 4
_this$ = -4						; size = 4
?Is_Done@GenericMultiListIterator@@QBE_NXZ PROC		; GenericMultiListIterator::Is_Done, COMDAT
; _this$ = ecx

; 154  : 	{ 

	push	ebp
	mov	ebp, esp
	sub	esp, 72					; 00000048H
	push	ebx
	push	esi
	push	edi
	mov	DWORD PTR _this$[ebp], ecx

; 155  : 		return (CurNode == &(List->Head)); 

	mov	eax, DWORD PTR _this$[ebp]
	mov	ecx, DWORD PTR [eax]
	add	ecx, 4
	mov	edx, DWORD PTR _this$[ebp]
	cmp	DWORD PTR [edx+4], ecx
	jne	SHORT $LN3@Is_Done
	mov	DWORD PTR tv68[ebp], 1
	jmp	SHORT $LN4@Is_Done
$LN3@Is_Done:
	mov	DWORD PTR tv68[ebp], 0
$LN4@Is_Done:
	mov	al, BYTE PTR tv68[ebp]

; 156  : 	};

	pop	edi
	pop	esi
	pop	ebx
	mov	esp, ebp
	pop	ebp
	ret	0
?Is_Done@GenericMultiListIterator@@QBE_NXZ ENDP		; GenericMultiListIterator::Is_Done
_TEXT	ENDS
; Function compile flags: /Odtp /ZI
; File x:\github\renegade\dragonade_rxd\scripts\multilist.h
;	COMDAT ?Next@GenericMultiListIterator@@QAEXXZ
_TEXT	SEGMENT
_this$ = -4						; size = 4
?Next@GenericMultiListIterator@@QAEXXZ PROC		; GenericMultiListIterator::Next, COMDAT
; _this$ = ecx

; 144  : 	{ 

	push	ebp
	mov	ebp, esp
	sub	esp, 68					; 00000044H
	push	ebx
	push	esi
	push	edi
	mov	DWORD PTR _this$[ebp], ecx

; 145  : 		CurNode = CurNode->Next; 

	mov	eax, DWORD PTR _this$[ebp]
	mov	ecx, DWORD PTR [eax+4]
	mov	edx, DWORD PTR _this$[ebp]
	mov	eax, DWORD PTR [ecx+4]
	mov	DWORD PTR [edx+4], eax

; 146  : 	};

	pop	edi
	pop	esi
	pop	ebx
	mov	esp, ebp
	pop	ebp
	ret	0
?Next@GenericMultiListIterator@@QAEXXZ ENDP		; GenericMultiListIterator::Next
_TEXT	ENDS
; Function compile flags: /Odtp /ZI
; File x:\github\renegade\dragonade_rxd\scripts\multilist.h
;	COMDAT ?First@GenericMultiListIterator@@QAEXPBVGenericMultiListClass@@@Z
_TEXT	SEGMENT
_this$ = -4						; size = 4
_list$ = 8						; size = 4
?First@GenericMultiListIterator@@QAEXPBVGenericMultiListClass@@@Z PROC ; GenericMultiListIterator::First, COMDAT
; _this$ = ecx

; 133  : 	{ 

	push	ebp
	mov	ebp, esp
	sub	esp, 68					; 00000044H
	push	ebx
	push	esi
	push	edi
	mov	DWORD PTR _this$[ebp], ecx

; 134  : 		List = list; 

	mov	eax, DWORD PTR _this$[ebp]
	mov	ecx, DWORD PTR _list$[ebp]
	mov	DWORD PTR [eax], ecx

; 135  : 		CurNode = List->Head.Next; 

	mov	eax, DWORD PTR _this$[ebp]
	mov	ecx, DWORD PTR [eax]
	mov	edx, DWORD PTR _this$[ebp]
	mov	eax, DWORD PTR [ecx+8]
	mov	DWORD PTR [edx+4], eax

; 136  : 	};

	pop	edi
	pop	esi
	pop	ebx
	mov	esp, ebp
	pop	ebp
	ret	4
?First@GenericMultiListIterator@@QAEXPBVGenericMultiListClass@@@Z ENDP ; GenericMultiListIterator::First
_TEXT	ENDS
; Function compile flags: /Odtp /ZI
; File x:\github\renegade\dragonade_rxd\scripts\multilist.h
;	COMDAT ??0GenericMultiListIterator@@QAE@PBVGenericMultiListClass@@@Z
_TEXT	SEGMENT
_this$ = -4						; size = 4
_list$ = 8						; size = 4
??0GenericMultiListIterator@@QAE@PBVGenericMultiListClass@@@Z PROC ; GenericMultiListIterator::GenericMultiListIterator, COMDAT
; _this$ = ecx

; 126  : 	GenericMultiListIterator(const GenericMultiListClass *list)	

	push	ebp
	mov	ebp, esp
	sub	esp, 68					; 00000044H
	push	ebx
	push	esi
	push	edi
	mov	DWORD PTR _this$[ebp], ecx
$LN3@GenericMul:

; 127  : 	{ 
; 128  : 		TT_ASSERT(list); 

	xor	eax, eax
	jne	SHORT $LN3@GenericMul
	cmp	DWORD PTR _list$[ebp], 0
	jne	SHORT $LN1@GenericMul
	int	3
$LN1@GenericMul:

; 129  : 		First(list); 

	mov	eax, DWORD PTR _list$[ebp]
	push	eax
	mov	ecx, DWORD PTR _this$[ebp]
	call	?First@GenericMultiListIterator@@QAEXPBVGenericMultiListClass@@@Z ; GenericMultiListIterator::First

; 130  : 	};

	mov	eax, DWORD PTR _this$[ebp]
	pop	edi
	pop	esi
	pop	ebx
	mov	esp, ebp
	pop	ebp
	ret	4
??0GenericMultiListIterator@@QAE@PBVGenericMultiListClass@@@Z ENDP ; GenericMultiListIterator::GenericMultiListIterator
_TEXT	ENDS
; Function compile flags: /Odtp /ZI
; File x:\github\renegade\dragonade_rxd\scripts\engine_vector.h
;	COMDAT ?Release_Ref@RefCountClass@@QAEXXZ
_TEXT	SEGMENT
tv69 = -72						; size = 4
_this$ = -4						; size = 4
?Release_Ref@RefCountClass@@QAEXXZ PROC			; RefCountClass::Release_Ref, COMDAT
; _this$ = ecx

; 1516 : 	{

	push	ebp
	mov	ebp, esp
	sub	esp, 72					; 00000048H
	push	ebx
	push	esi
	push	edi
	mov	DWORD PTR _this$[ebp], ecx
$LN4@Release_Re:

; 1517 : 		TT_ASSERT(NumRefs > 0);

	xor	eax, eax
	jne	SHORT $LN4@Release_Re
	mov	eax, DWORD PTR _this$[ebp]
	cmp	DWORD PTR [eax+4], 0
	jg	SHORT $LN2@Release_Re
	int	3
$LN2@Release_Re:

; 1518 : 		if (--NumRefs == 0)

	mov	eax, DWORD PTR _this$[ebp]
	mov	ecx, DWORD PTR [eax+4]
	sub	ecx, 1
	mov	DWORD PTR tv69[ebp], ecx
	mov	edx, DWORD PTR _this$[ebp]
	mov	eax, DWORD PTR tv69[ebp]
	mov	DWORD PTR [edx+4], eax
	cmp	DWORD PTR tv69[ebp], 0
	jne	SHORT $LN6@Release_Re

; 1519 : 			Delete_This();

	mov	eax, DWORD PTR _this$[ebp]
	mov	edx, DWORD PTR [eax]
	mov	ecx, DWORD PTR _this$[ebp]
	mov	eax, DWORD PTR [edx]
	call	eax
$LN6@Release_Re:

; 1520 : 	}

	pop	edi
	pop	esi
	pop	ebx
	mov	esp, ebp
	pop	ebp
	ret	0
?Release_Ref@RefCountClass@@QAEXXZ ENDP			; RefCountClass::Release_Ref
_TEXT	ENDS
; Function compile flags: /Odtp /ZI
;	COMDAT ??4CriticalSectionClass@@QAEAAV0@ABV0@@Z
_TEXT	SEGMENT
_this$ = -4						; size = 4
___that$ = 8						; size = 4
??4CriticalSectionClass@@QAEAAV0@ABV0@@Z PROC		; CriticalSectionClass::operator=, COMDAT
; _this$ = ecx
	push	ebp
	mov	ebp, esp
	sub	esp, 68					; 00000044H
	push	ebx
	push	esi
	push	edi
	mov	DWORD PTR _this$[ebp], ecx
	mov	eax, DWORD PTR ___that$[ebp]
	mov	ecx, DWORD PTR [eax]
	mov	edx, DWORD PTR [eax+4]
	mov	eax, DWORD PTR _this$[ebp]
	mov	DWORD PTR [eax], ecx
	mov	DWORD PTR [eax+4], edx
	mov	eax, DWORD PTR _this$[ebp]
	pop	edi
	pop	esi
	pop	ebx
	mov	esp, ebp
	pop	ebp
	ret	4
??4CriticalSectionClass@@QAEAAV0@ABV0@@Z ENDP		; CriticalSectionClass::operator=
_TEXT	ENDS
; Function compile flags: /Odtp /ZI
;	COMDAT ??_EThreadClass@@UAEPAXI@Z
_TEXT	SEGMENT
_this$ = -4						; size = 4
___flags$ = 8						; size = 4
??_EThreadClass@@UAEPAXI@Z PROC				; ThreadClass::`vector deleting destructor', COMDAT
; _this$ = ecx
	push	ebp
	mov	ebp, esp
	sub	esp, 68					; 00000044H
	push	ebx
	push	esi
	push	edi
	mov	DWORD PTR _this$[ebp], ecx
	mov	eax, DWORD PTR ___flags$[ebp]
	and	eax, 2
	je	SHORT $LN3@vector
	push	OFFSET ??1ThreadClass@@UAE@XZ		; ThreadClass::~ThreadClass
	mov	eax, DWORD PTR _this$[ebp]
	mov	ecx, DWORD PTR [eax-4]
	push	ecx
	push	88					; 00000058H
	mov	edx, DWORD PTR _this$[ebp]
	push	edx
	call	??_I@YGXPAXIHP6EX0@Z@Z
	mov	eax, DWORD PTR ___flags$[ebp]
	and	eax, 1
	je	SHORT $LN2@vector
	mov	eax, DWORD PTR _this$[ebp]
	sub	eax, 4
	push	eax
	call	??_V@YAXPAX@Z				; operator delete[]
	add	esp, 4
$LN2@vector:
	mov	eax, DWORD PTR _this$[ebp]
	sub	eax, 4
	jmp	SHORT $LN4@vector
$LN3@vector:
	mov	ecx, DWORD PTR _this$[ebp]
	call	??1ThreadClass@@UAE@XZ			; ThreadClass::~ThreadClass
	mov	eax, DWORD PTR ___flags$[ebp]
	and	eax, 1
	je	SHORT $LN1@vector
	mov	eax, DWORD PTR _this$[ebp]
	push	eax
	call	??3@YAXPAX@Z				; operator delete
	add	esp, 4
$LN1@vector:
	mov	eax, DWORD PTR _this$[ebp]
$LN4@vector:
	pop	edi
	pop	esi
	pop	ebx
	mov	esp, ebp
	pop	ebp
	ret	4
??_EThreadClass@@UAEPAXI@Z ENDP				; ThreadClass::`vector deleting destructor'
_TEXT	ENDS
; Function compile flags: /Odtp /ZI
;	COMDAT ??_GThreadClass@@UAEPAXI@Z
_TEXT	SEGMENT
_this$ = -4						; size = 4
___flags$ = 8						; size = 4
??_GThreadClass@@UAEPAXI@Z PROC				; ThreadClass::`scalar deleting destructor', COMDAT
; _this$ = ecx
	push	ebp
	mov	ebp, esp
	sub	esp, 68					; 00000044H
	push	ebx
	push	esi
	push	edi
	mov	DWORD PTR _this$[ebp], ecx
	mov	ecx, DWORD PTR _this$[ebp]
	call	??1ThreadClass@@UAE@XZ			; ThreadClass::~ThreadClass
	mov	eax, DWORD PTR ___flags$[ebp]
	and	eax, 1
	je	SHORT $LN1@scalar
	mov	eax, DWORD PTR _this$[ebp]
	push	eax
	call	??3@YAXPAX@Z				; operator delete
	add	esp, 4
$LN1@scalar:
	mov	eax, DWORD PTR _this$[ebp]
	pop	edi
	pop	esi
	pop	ebx
	mov	esp, ebp
	pop	ebp
	ret	4
??_GThreadClass@@UAEPAXI@Z ENDP				; ThreadClass::`scalar deleting destructor'
_TEXT	ENDS
; Function compile flags: /Odtp /ZI
;	COMDAT ??4ThreadClass@@QAEAAV0@ABV0@@Z
_TEXT	SEGMENT
_$S1$1 = -8						; size = 4
_this$ = -4						; size = 4
___that$ = 8						; size = 4
??4ThreadClass@@QAEAAV0@ABV0@@Z PROC			; ThreadClass::operator=, COMDAT
; _this$ = ecx
	push	ebp
	mov	ebp, esp
	sub	esp, 72					; 00000048H
	push	ebx
	push	esi
	push	edi
	mov	DWORD PTR _this$[ebp], ecx
	mov	eax, DWORD PTR _this$[ebp]
	mov	ecx, DWORD PTR ___that$[ebp]
	mov	dl, BYTE PTR [ecx+4]
	mov	BYTE PTR [eax+4], dl
	mov	DWORD PTR _$S1$1[ebp], 0
	jmp	SHORT $LN3@operator
$LN2@operator:
	mov	eax, DWORD PTR _$S1$1[ebp]
	add	eax, 1
	mov	DWORD PTR _$S1$1[ebp], eax
$LN3@operator:
	cmp	DWORD PTR _$S1$1[ebp], 67		; 00000043H
	jae	SHORT $LN1@operator
	mov	eax, DWORD PTR _this$[ebp]
	add	eax, DWORD PTR _$S1$1[ebp]
	mov	ecx, DWORD PTR ___that$[ebp]
	add	ecx, DWORD PTR _$S1$1[ebp]
	mov	dl, BYTE PTR [ecx+5]
	mov	BYTE PTR [eax+5], dl
	jmp	SHORT $LN2@operator
$LN1@operator:
	mov	eax, DWORD PTR _this$[ebp]
	mov	ecx, DWORD PTR ___that$[ebp]
	mov	edx, DWORD PTR [ecx+72]
	mov	DWORD PTR [eax+72], edx
	mov	eax, DWORD PTR _this$[ebp]
	mov	ecx, DWORD PTR ___that$[ebp]
	mov	edx, DWORD PTR [ecx+76]
	mov	DWORD PTR [eax+76], edx
	mov	eax, DWORD PTR _this$[ebp]
	mov	ecx, DWORD PTR ___that$[ebp]
	mov	edx, DWORD PTR [ecx+80]
	mov	DWORD PTR [eax+80], edx
	mov	eax, DWORD PTR _this$[ebp]
	mov	ecx, DWORD PTR ___that$[ebp]
	mov	edx, DWORD PTR [ecx+84]
	mov	DWORD PTR [eax+84], edx
	mov	eax, DWORD PTR _this$[ebp]
	pop	edi
	pop	esi
	pop	ebx
	mov	esp, ebp
	pop	ebp
	ret	4
??4ThreadClass@@QAEAAV0@ABV0@@Z ENDP			; ThreadClass::operator=
_TEXT	ENDS
; Function compile flags: /Odtp /ZI
;	COMDAT ??0ThreadClass@@QAE@ABV0@@Z
_TEXT	SEGMENT
_this$ = -4						; size = 4
___that$ = 8						; size = 4
??0ThreadClass@@QAE@ABV0@@Z PROC			; ThreadClass::ThreadClass, COMDAT
; _this$ = ecx
	push	ebp
	mov	ebp, esp
	sub	esp, 68					; 00000044H
	push	ebx
	push	esi
	push	edi
	mov	DWORD PTR _this$[ebp], ecx
	mov	eax, DWORD PTR _this$[ebp]
	mov	DWORD PTR [eax], OFFSET ??_7ThreadClass@@6B@
	mov	eax, DWORD PTR _this$[ebp]
	mov	ecx, DWORD PTR ___that$[ebp]
	mov	dl, BYTE PTR [ecx+4]
	mov	BYTE PTR [eax+4], dl
	mov	esi, DWORD PTR ___that$[ebp]
	add	esi, 5
	mov	edi, DWORD PTR _this$[ebp]
	add	edi, 5
	mov	ecx, 16					; 00000010H
	rep movsd
	movsw
	movsb
	mov	eax, DWORD PTR _this$[ebp]
	mov	ecx, DWORD PTR ___that$[ebp]
	mov	edx, DWORD PTR [ecx+72]
	mov	DWORD PTR [eax+72], edx
	mov	eax, DWORD PTR _this$[ebp]
	mov	ecx, DWORD PTR ___that$[ebp]
	mov	edx, DWORD PTR [ecx+76]
	mov	DWORD PTR [eax+76], edx
	mov	eax, DWORD PTR _this$[ebp]
	mov	ecx, DWORD PTR ___that$[ebp]
	mov	edx, DWORD PTR [ecx+80]
	mov	DWORD PTR [eax+80], edx
	mov	eax, DWORD PTR _this$[ebp]
	mov	ecx, DWORD PTR ___that$[ebp]
	mov	edx, DWORD PTR [ecx+84]
	mov	DWORD PTR [eax+84], edx
	mov	eax, DWORD PTR _this$[ebp]
	pop	edi
	pop	esi
	pop	ebx
	mov	esp, ebp
	pop	ebp
	ret	4
??0ThreadClass@@QAE@ABV0@@Z ENDP			; ThreadClass::ThreadClass
_TEXT	ENDS
; Function compile flags: /Odtp /ZI
; File x:\github\renegade\dragonade_rxd\scripts\threadclass.h
;	COMDAT ?Get_Name@ThreadClass@@QAEPBDXZ
_TEXT	SEGMENT
_this$ = -4						; size = 4
?Get_Name@ThreadClass@@QAEPBDXZ PROC			; ThreadClass::Get_Name, COMDAT
; _this$ = ecx

; 45   : 	{

	push	ebp
	mov	ebp, esp
	sub	esp, 68					; 00000044H
	push	ebx
	push	esi
	push	edi
	mov	DWORD PTR _this$[ebp], ecx

; 46   : 		return name;

	mov	eax, DWORD PTR _this$[ebp]
	add	eax, 5

; 47   : 	}

	pop	edi
	pop	esi
	pop	ebx
	mov	esp, ebp
	pop	ebp
	ret	0
?Get_Name@ThreadClass@@QAEPBDXZ ENDP			; ThreadClass::Get_Name
_TEXT	ENDS
; Function compile flags: /Odtp /ZI
; File x:\github\renegade\dragonade_rxd\scripts\threadclass.h
;	COMDAT ?Get_Current_Thread_ID@ThreadClass@@SAHXZ
_TEXT	SEGMENT
?Get_Current_Thread_ID@ThreadClass@@SAHXZ PROC		; ThreadClass::Get_Current_Thread_ID, COMDAT

; 41   : 	{

	push	ebp
	mov	ebp, esp
	sub	esp, 64					; 00000040H
	push	ebx
	push	esi
	push	edi

; 42   : 		return GetCurrentThreadId();

	call	DWORD PTR __imp__GetCurrentThreadId@0

; 43   : 	}

	pop	edi
	pop	esi
	pop	ebx
	mov	esp, ebp
	pop	ebp
	ret	0
?Get_Current_Thread_ID@ThreadClass@@SAHXZ ENDP		; ThreadClass::Get_Current_Thread_ID
_TEXT	ENDS
; Function compile flags: /Odtp /ZI
; File x:\github\renegade\dragonade_rxd\scripts\threadclass.h
;	COMDAT ?Is_Running@ThreadClass@@QAE_NXZ
_TEXT	SEGMENT
tv66 = -72						; size = 4
_this$ = -4						; size = 4
?Is_Running@ThreadClass@@QAE_NXZ PROC			; ThreadClass::Is_Running, COMDAT
; _this$ = ecx

; 37   : 	{

	push	ebp
	mov	ebp, esp
	sub	esp, 72					; 00000048H
	push	ebx
	push	esi
	push	edi
	mov	DWORD PTR _this$[ebp], ecx

; 38   : 		return handle != 0;

	mov	eax, DWORD PTR _this$[ebp]
	cmp	DWORD PTR [eax+80], 0
	je	SHORT $LN3@Is_Running
	mov	DWORD PTR tv66[ebp], 1
	jmp	SHORT $LN4@Is_Running
$LN3@Is_Running:
	mov	DWORD PTR tv66[ebp], 0
$LN4@Is_Running:
	mov	al, BYTE PTR tv66[ebp]

; 39   : 	}

	pop	edi
	pop	esi
	pop	ebx
	mov	esp, ebp
	pop	ebp
	ret	0
?Is_Running@ThreadClass@@QAE_NXZ ENDP			; ThreadClass::Is_Running
_TEXT	ENDS
; Function compile flags: /Odtp /ZI
; File x:\github\renegade\dragonade_rxd\scripts\matrix3.h
;	COMDAT ?Inverse@Matrix3@@QBE?AV1@XZ
_TEXT	SEGMENT
tv222 = -188						; size = 4
tv272 = -184						; size = 4
tv212 = -180						; size = 4
$T1 = -176						; size = 12
$T2 = -164						; size = 12
_i1$ = -88						; size = 4
_j$ = -84						; size = 4
_i$ = -80						; size = 4
_b$ = -76						; size = 36
_a$ = -40						; size = 36
_this$ = -4						; size = 4
___$ReturnUdt$ = 8					; size = 4
?Inverse@Matrix3@@QBE?AV1@XZ PROC			; Matrix3::Inverse, COMDAT
; _this$ = ecx

; 309  : 	{

	push	ebp
	mov	ebp, esp
	sub	esp, 188				; 000000bcH
	push	ebx
	push	esi
	push	edi
	mov	DWORD PTR _this$[ebp], ecx

; 310  : 		Matrix3 a(*this);				// As a evolves from original mat into identity

	mov	eax, DWORD PTR _this$[ebp]
	push	eax
	lea	ecx, DWORD PTR _a$[ebp]
	call	??0Matrix3@@QAE@ABV0@@Z			; Matrix3::Matrix3

; 311  : 		Matrix3 b(true);				// b evolves from identity into inverse(a)

	push	1
	lea	ecx, DWORD PTR _b$[ebp]
	call	??0Matrix3@@QAE@_N@Z			; Matrix3::Matrix3

; 312  : 		int i, j, i1;
; 313  : 
; 314  : 		// Loop over cols of a from left to right, eliminating above and below diagonal
; 315  : 		for (j=0; j<3; j++) {

	mov	DWORD PTR _j$[ebp], 0
	jmp	SHORT $LN12@Inverse
$LN11@Inverse:
	mov	eax, DWORD PTR _j$[ebp]
	add	eax, 1
	mov	DWORD PTR _j$[ebp], eax
$LN12@Inverse:
	cmp	DWORD PTR _j$[ebp], 3
	jge	$LN10@Inverse

; 316  : 
; 317  : 			// Find largest pivot in column j among rows j..3
; 318  : 			i1 = j;

	mov	eax, DWORD PTR _j$[ebp]
	mov	DWORD PTR _i1$[ebp], eax

; 319  : 			for (i=j+1; i<3; i++) {

	mov	eax, DWORD PTR _j$[ebp]
	add	eax, 1
	mov	DWORD PTR _i$[ebp], eax
	jmp	SHORT $LN9@Inverse
$LN8@Inverse:
	mov	eax, DWORD PTR _i$[ebp]
	add	eax, 1
	mov	DWORD PTR _i$[ebp], eax
$LN9@Inverse:
	cmp	DWORD PTR _i$[ebp], 3
	jge	$LN7@Inverse

; 320  : 				if (WWMath::Fabs(a[i][j]) > WWMath::Fabs(a[i1][j])) {

	mov	eax, DWORD PTR _j$[ebp]
	push	eax
	mov	ecx, DWORD PTR _i$[ebp]
	push	ecx
	lea	ecx, DWORD PTR _a$[ebp]
	call	??AMatrix3@@QAEAAVVector3@@H@Z		; Matrix3::operator[]
	mov	ecx, eax
	call	??AVector3@@QAEAAMH@Z			; Vector3::operator[]
	push	ecx
	movss	xmm0, DWORD PTR [eax]
	movss	DWORD PTR [esp], xmm0
	call	?Fabs@WWMath@@SAMM@Z			; WWMath::Fabs
	add	esp, 4
	fstp	DWORD PTR tv212[ebp]
	movss	xmm0, DWORD PTR tv212[ebp]
	mov	edx, DWORD PTR _j$[ebp]
	push	edx
	mov	eax, DWORD PTR _i1$[ebp]
	push	eax
	lea	ecx, DWORD PTR _a$[ebp]
	movss	DWORD PTR tv272[ebp], xmm0
	call	??AMatrix3@@QAEAAVVector3@@H@Z		; Matrix3::operator[]
	mov	ecx, eax
	call	??AVector3@@QAEAAMH@Z			; Vector3::operator[]
	push	ecx
	movss	xmm0, DWORD PTR [eax]
	movss	DWORD PTR [esp], xmm0
	call	?Fabs@WWMath@@SAMM@Z			; WWMath::Fabs
	add	esp, 4
	fstp	DWORD PTR tv222[ebp]
	movss	xmm0, DWORD PTR tv272[ebp]
	comiss	xmm0, DWORD PTR tv222[ebp]
	jbe	SHORT $LN6@Inverse

; 321  : 					i1 = i;

	mov	eax, DWORD PTR _i$[ebp]
	mov	DWORD PTR _i1$[ebp], eax
$LN6@Inverse:

; 322  : 				}
; 323  : 			}

	jmp	$LN8@Inverse
$LN7@Inverse:

; 324  : 
; 325  : 			// Swap rows i1 and j in a and b to put pivot on diagonal
; 326  : 			Swap(a.Row[i1], a.Row[j]);

	mov	eax, DWORD PTR _j$[ebp]
	imul	eax, 12					; 0000000cH
	lea	ecx, DWORD PTR _a$[ebp+eax]
	push	ecx
	mov	edx, DWORD PTR _i1$[ebp]
	imul	edx, 12					; 0000000cH
	lea	eax, DWORD PTR _a$[ebp+edx]
	push	eax
	call	?Swap@@YAXAAVVector3@@0@Z		; Swap
	add	esp, 8

; 327  : 			Swap(b.Row[i1], b.Row[j]);

	mov	eax, DWORD PTR _j$[ebp]
	imul	eax, 12					; 0000000cH
	lea	ecx, DWORD PTR _b$[ebp+eax]
	push	ecx
	mov	edx, DWORD PTR _i1$[ebp]
	imul	edx, 12					; 0000000cH
	lea	eax, DWORD PTR _b$[ebp+edx]
	push	eax
	call	?Swap@@YAXAAVVector3@@0@Z		; Swap
	add	esp, 8

; 328  : 
; 329  : 			// Scale row j to have a unit diagonal
; 330  : 			if (a[j][j]==0.) {

	mov	eax, DWORD PTR _j$[ebp]
	push	eax
	mov	ecx, DWORD PTR _j$[ebp]
	push	ecx
	lea	ecx, DWORD PTR _a$[ebp]
	call	??AMatrix3@@QAEAAVVector3@@H@Z		; Matrix3::operator[]
	mov	ecx, eax
	call	??AVector3@@QAEAAMH@Z			; Vector3::operator[]

; 331  : 				//Matrix3::inverse: singular matrix; can't invert
; 332  : 			}
; 333  : 			b.Row[j] /= a.Row[j][j];

	mov	eax, DWORD PTR _j$[ebp]
	push	eax
	mov	ecx, DWORD PTR _j$[ebp]
	imul	ecx, 12					; 0000000cH
	lea	ecx, DWORD PTR _a$[ebp+ecx]
	call	??AVector3@@QAEAAMH@Z			; Vector3::operator[]
	push	ecx
	movss	xmm0, DWORD PTR [eax]
	movss	DWORD PTR [esp], xmm0
	mov	edx, DWORD PTR _j$[ebp]
	imul	edx, 12					; 0000000cH
	lea	ecx, DWORD PTR _b$[ebp+edx]
	call	??_0Vector3@@QAEAAV0@M@Z		; Vector3::operator/=

; 334  : 			a.Row[j] /= a.Row[j][j];

	mov	eax, DWORD PTR _j$[ebp]
	push	eax
	mov	ecx, DWORD PTR _j$[ebp]
	imul	ecx, 12					; 0000000cH
	lea	ecx, DWORD PTR _a$[ebp+ecx]
	call	??AVector3@@QAEAAMH@Z			; Vector3::operator[]
	push	ecx
	movss	xmm0, DWORD PTR [eax]
	movss	DWORD PTR [esp], xmm0
	mov	edx, DWORD PTR _j$[ebp]
	imul	edx, 12					; 0000000cH
	lea	ecx, DWORD PTR _a$[ebp+edx]
	call	??_0Vector3@@QAEAAV0@M@Z		; Vector3::operator/=

; 335  : 
; 336  : 			// Eliminate off-diagonal elems in col j of a, doing identical ops to b
; 337  : 			for (i=0; i<3; i++) {

	mov	DWORD PTR _i$[ebp], 0
	jmp	SHORT $LN4@Inverse
$LN3@Inverse:
	mov	eax, DWORD PTR _i$[ebp]
	add	eax, 1
	mov	DWORD PTR _i$[ebp], eax
$LN4@Inverse:
	cmp	DWORD PTR _i$[ebp], 3
	jge	$LN2@Inverse

; 338  : 				if (i != j) {

	mov	eax, DWORD PTR _i$[ebp]
	cmp	eax, DWORD PTR _j$[ebp]
	je	$LN1@Inverse

; 339  : 					b.Row[i] -= a[i][j] * b.Row[j];

	mov	eax, DWORD PTR _j$[ebp]
	imul	eax, 12					; 0000000cH
	lea	ecx, DWORD PTR _b$[ebp+eax]
	push	ecx
	mov	edx, DWORD PTR _j$[ebp]
	push	edx
	mov	eax, DWORD PTR _i$[ebp]
	push	eax
	lea	ecx, DWORD PTR _a$[ebp]
	call	??AMatrix3@@QAEAAVVector3@@H@Z		; Matrix3::operator[]
	mov	ecx, eax
	call	??AVector3@@QAEAAMH@Z			; Vector3::operator[]
	push	ecx
	movss	xmm0, DWORD PTR [eax]
	movss	DWORD PTR [esp], xmm0
	lea	ecx, DWORD PTR $T1[ebp]
	push	ecx
	call	??D@YA?AVVector3@@MABV0@@Z		; operator*
	add	esp, 12					; 0000000cH
	push	eax
	mov	edx, DWORD PTR _i$[ebp]
	imul	edx, 12					; 0000000cH
	lea	ecx, DWORD PTR _b$[ebp+edx]
	call	??ZVector3@@QAEAAV0@ABV0@@Z		; Vector3::operator-=

; 340  : 					a.Row[i] -= a[i][j] * a.Row[j];

	mov	eax, DWORD PTR _j$[ebp]
	imul	eax, 12					; 0000000cH
	lea	ecx, DWORD PTR _a$[ebp+eax]
	push	ecx
	mov	edx, DWORD PTR _j$[ebp]
	push	edx
	mov	eax, DWORD PTR _i$[ebp]
	push	eax
	lea	ecx, DWORD PTR _a$[ebp]
	call	??AMatrix3@@QAEAAVVector3@@H@Z		; Matrix3::operator[]
	mov	ecx, eax
	call	??AVector3@@QAEAAMH@Z			; Vector3::operator[]
	push	ecx
	movss	xmm0, DWORD PTR [eax]
	movss	DWORD PTR [esp], xmm0
	lea	ecx, DWORD PTR $T2[ebp]
	push	ecx
	call	??D@YA?AVVector3@@MABV0@@Z		; operator*
	add	esp, 12					; 0000000cH
	push	eax
	mov	edx, DWORD PTR _i$[ebp]
	imul	edx, 12					; 0000000cH
	lea	ecx, DWORD PTR _a$[ebp+edx]
	call	??ZVector3@@QAEAAV0@ABV0@@Z		; Vector3::operator-=
$LN1@Inverse:

; 341  : 				}
; 342  : 			}

	jmp	$LN3@Inverse
$LN2@Inverse:

; 343  : 		}

	jmp	$LN11@Inverse
$LN10@Inverse:

; 344  : 		return b;

	lea	eax, DWORD PTR _b$[ebp]
	push	eax
	mov	ecx, DWORD PTR ___$ReturnUdt$[ebp]
	call	??0Matrix3@@QAE@ABV0@@Z			; Matrix3::Matrix3
	mov	eax, DWORD PTR ___$ReturnUdt$[ebp]

; 345  : 	}

	pop	edi
	pop	esi
	pop	ebx
	mov	esp, ebp
	pop	ebp
	ret	4
?Inverse@Matrix3@@QBE?AV1@XZ ENDP			; Matrix3::Inverse
_TEXT	ENDS
; Function compile flags: /Odtp /ZI
; File x:\github\renegade\dragonade_rxd\scripts\matrix3.h
;	COMDAT ?Rotate_AABox_Extent@Matrix3@@QAEXABVVector3@@PAV2@@Z
_TEXT	SEGMENT
tv137 = -84						; size = 4
tv86 = -80						; size = 4
_j$1 = -12						; size = 4
_i$2 = -8						; size = 4
_this$ = -4						; size = 4
_extent$ = 8						; size = 4
_new_extent$ = 12					; size = 4
?Rotate_AABox_Extent@Matrix3@@QAEXABVVector3@@PAV2@@Z PROC ; Matrix3::Rotate_AABox_Extent, COMDAT
; _this$ = ecx

; 298  : 	{

	push	ebp
	mov	ebp, esp
	sub	esp, 84					; 00000054H
	push	ebx
	push	esi
	push	edi
	mov	DWORD PTR _this$[ebp], ecx

; 299  : 		for (int i=0; i<3; i++)

	mov	DWORD PTR _i$2[ebp], 0
	jmp	SHORT $LN6@Rotate_AAB
$LN5@Rotate_AAB:
	mov	eax, DWORD PTR _i$2[ebp]
	add	eax, 1
	mov	DWORD PTR _i$2[ebp], eax
$LN6@Rotate_AAB:
	cmp	DWORD PTR _i$2[ebp], 3
	jge	$LN4@Rotate_AAB

; 300  : 		{
; 301  : 			(*new_extent)[i] = 0.0f;

	mov	eax, DWORD PTR _i$2[ebp]
	push	eax
	mov	ecx, DWORD PTR _new_extent$[ebp]
	call	??AVector3@@QAEAAMH@Z			; Vector3::operator[]
	movss	xmm0, DWORD PTR __real@00000000
	movss	DWORD PTR [eax], xmm0

; 302  : 			for (int j=0; j<3; j++)

	mov	DWORD PTR _j$1[ebp], 0
	jmp	SHORT $LN3@Rotate_AAB
$LN2@Rotate_AAB:
	mov	eax, DWORD PTR _j$1[ebp]
	add	eax, 1
	mov	DWORD PTR _j$1[ebp], eax
$LN3@Rotate_AAB:
	cmp	DWORD PTR _j$1[ebp], 3
	jge	SHORT $LN1@Rotate_AAB

; 303  : 			{
; 304  : 				(*new_extent)[i] += WWMath::Fabs(Row[i][j] * extent[j]);

	mov	eax, DWORD PTR _i$2[ebp]
	push	eax
	mov	ecx, DWORD PTR _new_extent$[ebp]
	call	??AVector3@@QAEAAMH@Z			; Vector3::operator[]
	mov	DWORD PTR tv86[ebp], eax
	mov	ecx, DWORD PTR _j$1[ebp]
	push	ecx
	mov	ecx, DWORD PTR _i$2[ebp]
	imul	ecx, 12					; 0000000cH
	add	ecx, DWORD PTR _this$[ebp]
	call	??AVector3@@QAEAAMH@Z			; Vector3::operator[]
	mov	esi, eax
	mov	edx, DWORD PTR _j$1[ebp]
	push	edx
	mov	ecx, DWORD PTR _extent$[ebp]
	call	??AVector3@@QBEABMH@Z			; Vector3::operator[]
	movss	xmm0, DWORD PTR [esi]
	mulss	xmm0, DWORD PTR [eax]
	push	ecx
	movss	DWORD PTR [esp], xmm0
	call	?Fabs@WWMath@@SAMM@Z			; WWMath::Fabs
	add	esp, 4
	fstp	DWORD PTR tv137[ebp]
	mov	eax, DWORD PTR tv86[ebp]
	movss	xmm0, DWORD PTR tv137[ebp]
	addss	xmm0, DWORD PTR [eax]
	mov	ecx, DWORD PTR tv86[ebp]
	movss	DWORD PTR [ecx], xmm0

; 305  : 			}

	jmp	SHORT $LN2@Rotate_AAB
$LN1@Rotate_AAB:

; 306  : 		}

	jmp	$LN5@Rotate_AAB
$LN4@Rotate_AAB:

; 307  : 	}

	pop	edi
	pop	esi
	pop	ebx
	mov	esp, ebp
	pop	ebp
	ret	8
?Rotate_AABox_Extent@Matrix3@@QAEXABVVector3@@PAV2@@Z ENDP ; Matrix3::Rotate_AABox_Extent
_TEXT	ENDS
; Function compile flags: /Odtp /ZI
; File x:\github\renegade\dragonade_rxd\scripts\matrix3.h
;	COMDAT ?Transpose_Rotate_Vector@Matrix3@@SAXABV1@ABVVector3@@PAV2@@Z
_TEXT	SEGMENT
tv237 = -88						; size = 4
tv233 = -88						; size = 4
tv229 = -88						; size = 4
tv235 = -84						; size = 4
tv231 = -84						; size = 4
tv227 = -84						; size = 4
_v$ = -16						; size = 4
_tmp$ = -12						; size = 12
_A$ = 8							; size = 4
_in$ = 12						; size = 4
_out$ = 16						; size = 4
?Transpose_Rotate_Vector@Matrix3@@SAXABV1@ABVVector3@@PAV2@@Z PROC ; Matrix3::Transpose_Rotate_Vector, COMDAT

; 283  : 	{

	push	ebp
	mov	ebp, esp
	sub	esp, 88					; 00000058H
	push	ebx
	push	esi
	push	edi

; 284  : 		Vector3 tmp;

	lea	ecx, DWORD PTR _tmp$[ebp]
	call	??0Vector3@@QAE@XZ			; Vector3::Vector3

; 285  : 		Vector3 * v;
; 286  : 		if (out == &in)

	mov	eax, DWORD PTR _out$[ebp]
	cmp	eax, DWORD PTR _in$[ebp]
	jne	SHORT $LN2@Transpose_

; 287  : 		{
; 288  : 			tmp = in;

	mov	eax, DWORD PTR _in$[ebp]
	push	eax
	lea	ecx, DWORD PTR _tmp$[ebp]
	call	??4Vector3@@QAEAAV0@ABV0@@Z		; Vector3::operator=

; 289  : 			v = &tmp;

	lea	eax, DWORD PTR _tmp$[ebp]
	mov	DWORD PTR _v$[ebp], eax

; 290  : 		} else {

	jmp	SHORT $LN1@Transpose_
$LN2@Transpose_:

; 291  : 			v = (Vector3 *)&in;

	mov	eax, DWORD PTR _in$[ebp]
	mov	DWORD PTR _v$[ebp], eax
$LN1@Transpose_:

; 292  : 		}
; 293  : 		out->X = (A[0][0] * v->X + A[1][0] * v->Y + A[2][0] * v->Z);

	push	0
	push	0
	mov	ecx, DWORD PTR _A$[ebp]
	call	??AMatrix3@@QBEABVVector3@@H@Z		; Matrix3::operator[]
	mov	ecx, eax
	call	??AVector3@@QBEABMH@Z			; Vector3::operator[]
	mov	ecx, DWORD PTR _v$[ebp]
	movss	xmm0, DWORD PTR [eax]
	mulss	xmm0, DWORD PTR [ecx]
	push	0
	push	1
	mov	ecx, DWORD PTR _A$[ebp]
	movss	DWORD PTR tv227[ebp], xmm0
	call	??AMatrix3@@QBEABVVector3@@H@Z		; Matrix3::operator[]
	mov	ecx, eax
	call	??AVector3@@QBEABMH@Z			; Vector3::operator[]
	mov	edx, DWORD PTR _v$[ebp]
	movss	xmm0, DWORD PTR [eax]
	mulss	xmm0, DWORD PTR [edx+4]
	movss	xmm1, DWORD PTR tv227[ebp]
	addss	xmm1, xmm0
	push	0
	push	2
	mov	ecx, DWORD PTR _A$[ebp]
	movss	DWORD PTR tv229[ebp], xmm1
	call	??AMatrix3@@QBEABVVector3@@H@Z		; Matrix3::operator[]
	mov	ecx, eax
	call	??AVector3@@QBEABMH@Z			; Vector3::operator[]
	mov	ecx, DWORD PTR _v$[ebp]
	movss	xmm0, DWORD PTR [eax]
	mulss	xmm0, DWORD PTR [ecx+8]
	movss	xmm1, DWORD PTR tv229[ebp]
	addss	xmm1, xmm0
	mov	edx, DWORD PTR _out$[ebp]
	movss	DWORD PTR [edx], xmm1

; 294  : 		out->Y = (A[0][1] * v->X + A[1][1] * v->Y + A[2][1] * v->Z);

	push	1
	push	0
	mov	ecx, DWORD PTR _A$[ebp]
	call	??AMatrix3@@QBEABVVector3@@H@Z		; Matrix3::operator[]
	mov	ecx, eax
	call	??AVector3@@QBEABMH@Z			; Vector3::operator[]
	mov	ecx, DWORD PTR _v$[ebp]
	movss	xmm0, DWORD PTR [eax]
	mulss	xmm0, DWORD PTR [ecx]
	push	1
	push	1
	mov	ecx, DWORD PTR _A$[ebp]
	movss	DWORD PTR tv231[ebp], xmm0
	call	??AMatrix3@@QBEABVVector3@@H@Z		; Matrix3::operator[]
	mov	ecx, eax
	call	??AVector3@@QBEABMH@Z			; Vector3::operator[]
	mov	edx, DWORD PTR _v$[ebp]
	movss	xmm0, DWORD PTR [eax]
	mulss	xmm0, DWORD PTR [edx+4]
	movss	xmm1, DWORD PTR tv231[ebp]
	addss	xmm1, xmm0
	push	1
	push	2
	mov	ecx, DWORD PTR _A$[ebp]
	movss	DWORD PTR tv233[ebp], xmm1
	call	??AMatrix3@@QBEABVVector3@@H@Z		; Matrix3::operator[]
	mov	ecx, eax
	call	??AVector3@@QBEABMH@Z			; Vector3::operator[]
	mov	ecx, DWORD PTR _v$[ebp]
	movss	xmm0, DWORD PTR [eax]
	mulss	xmm0, DWORD PTR [ecx+8]
	movss	xmm1, DWORD PTR tv233[ebp]
	addss	xmm1, xmm0
	mov	edx, DWORD PTR _out$[ebp]
	movss	DWORD PTR [edx+4], xmm1

; 295  : 		out->Z = (A[0][2] * v->X + A[1][2] * v->Y + A[2][2] * v->Z);

	push	2
	push	0
	mov	ecx, DWORD PTR _A$[ebp]
	call	??AMatrix3@@QBEABVVector3@@H@Z		; Matrix3::operator[]
	mov	ecx, eax
	call	??AVector3@@QBEABMH@Z			; Vector3::operator[]
	mov	ecx, DWORD PTR _v$[ebp]
	movss	xmm0, DWORD PTR [eax]
	mulss	xmm0, DWORD PTR [ecx]
	push	2
	push	1
	mov	ecx, DWORD PTR _A$[ebp]
	movss	DWORD PTR tv235[ebp], xmm0
	call	??AMatrix3@@QBEABVVector3@@H@Z		; Matrix3::operator[]
	mov	ecx, eax
	call	??AVector3@@QBEABMH@Z			; Vector3::operator[]
	mov	edx, DWORD PTR _v$[ebp]
	movss	xmm0, DWORD PTR [eax]
	mulss	xmm0, DWORD PTR [edx+4]
	movss	xmm1, DWORD PTR tv235[ebp]
	addss	xmm1, xmm0
	push	2
	push	2
	mov	ecx, DWORD PTR _A$[ebp]
	movss	DWORD PTR tv237[ebp], xmm1
	call	??AMatrix3@@QBEABVVector3@@H@Z		; Matrix3::operator[]
	mov	ecx, eax
	call	??AVector3@@QBEABMH@Z			; Vector3::operator[]
	mov	ecx, DWORD PTR _v$[ebp]
	movss	xmm0, DWORD PTR [eax]
	mulss	xmm0, DWORD PTR [ecx+8]
	movss	xmm1, DWORD PTR tv237[ebp]
	addss	xmm1, xmm0
	mov	edx, DWORD PTR _out$[ebp]
	movss	DWORD PTR [edx+8], xmm1

; 296  : 	}

	pop	edi
	pop	esi
	pop	ebx
	mov	esp, ebp
	pop	ebp
	ret	0
?Transpose_Rotate_Vector@Matrix3@@SAXABV1@ABVVector3@@PAV2@@Z ENDP ; Matrix3::Transpose_Rotate_Vector
_TEXT	ENDS
; Function compile flags: /Odtp /ZI
; File x:\github\renegade\dragonade_rxd\scripts\matrix3.h
;	COMDAT ?Rotate_Vector@Matrix3@@SAXABV1@ABVVector3@@PAV2@@Z
_TEXT	SEGMENT
tv237 = -88						; size = 4
tv233 = -88						; size = 4
tv229 = -88						; size = 4
tv235 = -84						; size = 4
tv231 = -84						; size = 4
tv227 = -84						; size = 4
_v$ = -16						; size = 4
_tmp$ = -12						; size = 12
_A$ = 8							; size = 4
_in$ = 12						; size = 4
_out$ = 16						; size = 4
?Rotate_Vector@Matrix3@@SAXABV1@ABVVector3@@PAV2@@Z PROC ; Matrix3::Rotate_Vector, COMDAT

; 266  : 	{

	push	ebp
	mov	ebp, esp
	sub	esp, 88					; 00000058H
	push	ebx
	push	esi
	push	edi

; 267  : 		Vector3 tmp;

	lea	ecx, DWORD PTR _tmp$[ebp]
	call	??0Vector3@@QAE@XZ			; Vector3::Vector3

; 268  : 		Vector3 * v;
; 269  : 		if (out == &in)

	mov	eax, DWORD PTR _out$[ebp]
	cmp	eax, DWORD PTR _in$[ebp]
	jne	SHORT $LN2@Rotate_Vec

; 270  : 		{
; 271  : 			tmp = in;

	mov	eax, DWORD PTR _in$[ebp]
	push	eax
	lea	ecx, DWORD PTR _tmp$[ebp]
	call	??4Vector3@@QAEAAV0@ABV0@@Z		; Vector3::operator=

; 272  : 			v = &tmp;

	lea	eax, DWORD PTR _tmp$[ebp]
	mov	DWORD PTR _v$[ebp], eax

; 273  : 		}
; 274  : 		else

	jmp	SHORT $LN1@Rotate_Vec
$LN2@Rotate_Vec:

; 275  : 		{
; 276  : 			v = (Vector3 *)&in;

	mov	eax, DWORD PTR _in$[ebp]
	mov	DWORD PTR _v$[ebp], eax
$LN1@Rotate_Vec:

; 277  : 		}
; 278  : 		out->X = (A[0][0] * v->X + A[0][1] * v->Y + A[0][2] * v->Z);

	push	0
	push	0
	mov	ecx, DWORD PTR _A$[ebp]
	call	??AMatrix3@@QBEABVVector3@@H@Z		; Matrix3::operator[]
	mov	ecx, eax
	call	??AVector3@@QBEABMH@Z			; Vector3::operator[]
	mov	ecx, DWORD PTR _v$[ebp]
	movss	xmm0, DWORD PTR [eax]
	mulss	xmm0, DWORD PTR [ecx]
	push	1
	push	0
	mov	ecx, DWORD PTR _A$[ebp]
	movss	DWORD PTR tv227[ebp], xmm0
	call	??AMatrix3@@QBEABVVector3@@H@Z		; Matrix3::operator[]
	mov	ecx, eax
	call	??AVector3@@QBEABMH@Z			; Vector3::operator[]
	mov	edx, DWORD PTR _v$[ebp]
	movss	xmm0, DWORD PTR [eax]
	mulss	xmm0, DWORD PTR [edx+4]
	movss	xmm1, DWORD PTR tv227[ebp]
	addss	xmm1, xmm0
	push	2
	push	0
	mov	ecx, DWORD PTR _A$[ebp]
	movss	DWORD PTR tv229[ebp], xmm1
	call	??AMatrix3@@QBEABVVector3@@H@Z		; Matrix3::operator[]
	mov	ecx, eax
	call	??AVector3@@QBEABMH@Z			; Vector3::operator[]
	mov	ecx, DWORD PTR _v$[ebp]
	movss	xmm0, DWORD PTR [eax]
	mulss	xmm0, DWORD PTR [ecx+8]
	movss	xmm1, DWORD PTR tv229[ebp]
	addss	xmm1, xmm0
	mov	edx, DWORD PTR _out$[ebp]
	movss	DWORD PTR [edx], xmm1

; 279  : 		out->Y = (A[1][0] * v->X + A[1][1] * v->Y + A[1][2] * v->Z);

	push	0
	push	1
	mov	ecx, DWORD PTR _A$[ebp]
	call	??AMatrix3@@QBEABVVector3@@H@Z		; Matrix3::operator[]
	mov	ecx, eax
	call	??AVector3@@QBEABMH@Z			; Vector3::operator[]
	mov	ecx, DWORD PTR _v$[ebp]
	movss	xmm0, DWORD PTR [eax]
	mulss	xmm0, DWORD PTR [ecx]
	push	1
	push	1
	mov	ecx, DWORD PTR _A$[ebp]
	movss	DWORD PTR tv231[ebp], xmm0
	call	??AMatrix3@@QBEABVVector3@@H@Z		; Matrix3::operator[]
	mov	ecx, eax
	call	??AVector3@@QBEABMH@Z			; Vector3::operator[]
	mov	edx, DWORD PTR _v$[ebp]
	movss	xmm0, DWORD PTR [eax]
	mulss	xmm0, DWORD PTR [edx+4]
	movss	xmm1, DWORD PTR tv231[ebp]
	addss	xmm1, xmm0
	push	2
	push	1
	mov	ecx, DWORD PTR _A$[ebp]
	movss	DWORD PTR tv233[ebp], xmm1
	call	??AMatrix3@@QBEABVVector3@@H@Z		; Matrix3::operator[]
	mov	ecx, eax
	call	??AVector3@@QBEABMH@Z			; Vector3::operator[]
	mov	ecx, DWORD PTR _v$[ebp]
	movss	xmm0, DWORD PTR [eax]
	mulss	xmm0, DWORD PTR [ecx+8]
	movss	xmm1, DWORD PTR tv233[ebp]
	addss	xmm1, xmm0
	mov	edx, DWORD PTR _out$[ebp]
	movss	DWORD PTR [edx+4], xmm1

; 280  : 		out->Z = (A[2][0] * v->X + A[2][1] * v->Y + A[2][2] * v->Z);

	push	0
	push	2
	mov	ecx, DWORD PTR _A$[ebp]
	call	??AMatrix3@@QBEABVVector3@@H@Z		; Matrix3::operator[]
	mov	ecx, eax
	call	??AVector3@@QBEABMH@Z			; Vector3::operator[]
	mov	ecx, DWORD PTR _v$[ebp]
	movss	xmm0, DWORD PTR [eax]
	mulss	xmm0, DWORD PTR [ecx]
	push	1
	push	2
	mov	ecx, DWORD PTR _A$[ebp]
	movss	DWORD PTR tv235[ebp], xmm0
	call	??AMatrix3@@QBEABVVector3@@H@Z		; Matrix3::operator[]
	mov	ecx, eax
	call	??AVector3@@QBEABMH@Z			; Vector3::operator[]
	mov	edx, DWORD PTR _v$[ebp]
	movss	xmm0, DWORD PTR [eax]
	mulss	xmm0, DWORD PTR [edx+4]
	movss	xmm1, DWORD PTR tv235[ebp]
	addss	xmm1, xmm0
	push	2
	push	2
	mov	ecx, DWORD PTR _A$[ebp]
	movss	DWORD PTR tv237[ebp], xmm1
	call	??AMatrix3@@QBEABVVector3@@H@Z		; Matrix3::operator[]
	mov	ecx, eax
	call	??AVector3@@QBEABMH@Z			; Vector3::operator[]
	mov	ecx, DWORD PTR _v$[ebp]
	movss	xmm0, DWORD PTR [eax]
	mulss	xmm0, DWORD PTR [ecx+8]
	movss	xmm1, DWORD PTR tv237[ebp]
	addss	xmm1, xmm0
	mov	edx, DWORD PTR _out$[ebp]
	movss	DWORD PTR [edx+8], xmm1

; 281  : 	}

	pop	edi
	pop	esi
	pop	ebx
	mov	esp, ebp
	pop	ebp
	ret	0
?Rotate_Vector@Matrix3@@SAXABV1@ABVVector3@@PAV2@@Z ENDP ; Matrix3::Rotate_Vector
_TEXT	ENDS
; Function compile flags: /Odtp /ZI
; File x:\github\renegade\dragonade_rxd\scripts\matrix3.h
;	COMDAT ?Subtract@Matrix3@@SAXABV1@0PAV1@@Z
_TEXT	SEGMENT
_a$ = 8							; size = 4
_b$ = 12						; size = 4
_res$ = 16						; size = 4
?Subtract@Matrix3@@SAXABV1@0PAV1@@Z PROC		; Matrix3::Subtract, COMDAT

; 257  : 	{

	push	ebp
	mov	ebp, esp
	sub	esp, 64					; 00000040H
	push	ebx
	push	esi
	push	edi

; 258  : 		Vector3::Subtract(a.Row[0],b.Row[0],&(res->Row[0]));

	mov	eax, 12					; 0000000cH
	imul	eax, 0
	add	eax, DWORD PTR _res$[ebp]
	push	eax
	mov	ecx, 12					; 0000000cH
	imul	ecx, 0
	add	ecx, DWORD PTR _b$[ebp]
	push	ecx
	mov	edx, 12					; 0000000cH
	imul	edx, 0
	add	edx, DWORD PTR _a$[ebp]
	push	edx
	call	?Subtract@Vector3@@SAXABV1@0PAV1@@Z	; Vector3::Subtract
	add	esp, 12					; 0000000cH

; 259  : 		Vector3::Subtract(a.Row[1],b.Row[1],&(res->Row[1]));

	mov	eax, 12					; 0000000cH
	shl	eax, 0
	add	eax, DWORD PTR _res$[ebp]
	push	eax
	mov	ecx, 12					; 0000000cH
	shl	ecx, 0
	add	ecx, DWORD PTR _b$[ebp]
	push	ecx
	mov	edx, 12					; 0000000cH
	shl	edx, 0
	add	edx, DWORD PTR _a$[ebp]
	push	edx
	call	?Subtract@Vector3@@SAXABV1@0PAV1@@Z	; Vector3::Subtract
	add	esp, 12					; 0000000cH

; 260  : 		Vector3::Subtract(a.Row[2],b.Row[2],&(res->Row[2]));

	mov	eax, 12					; 0000000cH
	shl	eax, 1
	add	eax, DWORD PTR _res$[ebp]
	push	eax
	mov	ecx, 12					; 0000000cH
	shl	ecx, 1
	add	ecx, DWORD PTR _b$[ebp]
	push	ecx
	mov	edx, 12					; 0000000cH
	shl	edx, 1
	add	edx, DWORD PTR _a$[ebp]
	push	edx
	call	?Subtract@Vector3@@SAXABV1@0PAV1@@Z	; Vector3::Subtract
	add	esp, 12					; 0000000cH

; 261  : 	}

	pop	edi
	pop	esi
	pop	ebx
	mov	esp, ebp
	pop	ebp
	ret	0
?Subtract@Matrix3@@SAXABV1@0PAV1@@Z ENDP		; Matrix3::Subtract
_TEXT	ENDS
; Function compile flags: /Odtp /ZI
; File x:\github\renegade\dragonade_rxd\scripts\matrix3.h
;	COMDAT ?Add@Matrix3@@SAXABV1@0PAV1@@Z
_TEXT	SEGMENT
_a$ = 8							; size = 4
_b$ = 12						; size = 4
_res$ = 16						; size = 4
?Add@Matrix3@@SAXABV1@0PAV1@@Z PROC			; Matrix3::Add, COMDAT

; 251  : 	{ 

	push	ebp
	mov	ebp, esp
	sub	esp, 64					; 00000040H
	push	ebx
	push	esi
	push	edi

; 252  : 		Vector3::Add(a.Row[0],b.Row[0],&(res->Row[0]));

	mov	eax, 12					; 0000000cH
	imul	eax, 0
	add	eax, DWORD PTR _res$[ebp]
	push	eax
	mov	ecx, 12					; 0000000cH
	imul	ecx, 0
	add	ecx, DWORD PTR _b$[ebp]
	push	ecx
	mov	edx, 12					; 0000000cH
	imul	edx, 0
	add	edx, DWORD PTR _a$[ebp]
	push	edx
	call	?Add@Vector3@@SAXABV1@0PAV1@@Z		; Vector3::Add
	add	esp, 12					; 0000000cH

; 253  : 		Vector3::Add(a.Row[1],b.Row[1],&(res->Row[1]));

	mov	eax, 12					; 0000000cH
	shl	eax, 0
	add	eax, DWORD PTR _res$[ebp]
	push	eax
	mov	ecx, 12					; 0000000cH
	shl	ecx, 0
	add	ecx, DWORD PTR _b$[ebp]
	push	ecx
	mov	edx, 12					; 0000000cH
	shl	edx, 0
	add	edx, DWORD PTR _a$[ebp]
	push	edx
	call	?Add@Vector3@@SAXABV1@0PAV1@@Z		; Vector3::Add
	add	esp, 12					; 0000000cH

; 254  : 		Vector3::Add(a.Row[2],b.Row[2],&(res->Row[2]));

	mov	eax, 12					; 0000000cH
	shl	eax, 1
	add	eax, DWORD PTR _res$[ebp]
	push	eax
	mov	ecx, 12					; 0000000cH
	shl	ecx, 1
	add	ecx, DWORD PTR _b$[ebp]
	push	ecx
	mov	edx, 12					; 0000000cH
	shl	edx, 1
	add	edx, DWORD PTR _a$[ebp]
	push	edx
	call	?Add@Vector3@@SAXABV1@0PAV1@@Z		; Vector3::Add
	add	esp, 12					; 0000000cH

; 255  : 	}

	pop	edi
	pop	esi
	pop	ebx
	mov	esp, ebp
	pop	ebp
	ret	0
?Add@Matrix3@@SAXABV1@0PAV1@@Z ENDP			; Matrix3::Add
_TEXT	ENDS
; Function compile flags: /Odtp /ZI
; File x:\github\renegade\dragonade_rxd\scripts\matrix3.h
;	COMDAT ??D@YA?AVVector3@@ABVMatrix3@@ABV0@@Z
_TEXT	SEGMENT
tv246 = -88						; size = 4
tv244 = -84						; size = 4
tv242 = -80						; size = 4
tv240 = -76						; size = 4
tv238 = -72						; size = 4
tv236 = -68						; size = 4
___$ReturnUdt$ = 8					; size = 4
_a$ = 12						; size = 4
_v$ = 16						; size = 4
??D@YA?AVVector3@@ABVMatrix3@@ABV0@@Z PROC		; operator*, COMDAT

; 398  : {

	push	ebp
	mov	ebp, esp
	sub	esp, 88					; 00000058H
	push	ebx
	push	esi
	push	edi

; 399  : 	return Vector3(
; 400  : 		a[0][0] * v[0] + a[0][1] * v[1] + a[0][2] * v[2],
; 401  : 		a[1][0] * v[0] + a[1][1] * v[1] + a[1][2] * v[2],
; 402  : 		a[2][0] * v[0] + a[2][1] * v[1] + a[2][2] * v[2] 
; 403  : 	);

	push	0
	push	2
	mov	ecx, DWORD PTR _a$[ebp]
	call	??AMatrix3@@QBEABVVector3@@H@Z		; Matrix3::operator[]
	mov	ecx, eax
	call	??AVector3@@QBEABMH@Z			; Vector3::operator[]
	mov	esi, eax
	push	0
	mov	ecx, DWORD PTR _v$[ebp]
	call	??AVector3@@QBEABMH@Z			; Vector3::operator[]
	movss	xmm0, DWORD PTR [esi]
	mulss	xmm0, DWORD PTR [eax]
	push	1
	push	2
	mov	ecx, DWORD PTR _a$[ebp]
	movss	DWORD PTR tv236[ebp], xmm0
	call	??AMatrix3@@QBEABVVector3@@H@Z		; Matrix3::operator[]
	mov	ecx, eax
	call	??AVector3@@QBEABMH@Z			; Vector3::operator[]
	mov	esi, eax
	push	1
	mov	ecx, DWORD PTR _v$[ebp]
	call	??AVector3@@QBEABMH@Z			; Vector3::operator[]
	movss	xmm0, DWORD PTR [esi]
	mulss	xmm0, DWORD PTR [eax]
	movss	xmm1, DWORD PTR tv236[ebp]
	addss	xmm1, xmm0
	push	2
	push	2
	mov	ecx, DWORD PTR _a$[ebp]
	movss	DWORD PTR tv238[ebp], xmm1
	call	??AMatrix3@@QBEABVVector3@@H@Z		; Matrix3::operator[]
	mov	ecx, eax
	call	??AVector3@@QBEABMH@Z			; Vector3::operator[]
	mov	esi, eax
	push	2
	mov	ecx, DWORD PTR _v$[ebp]
	call	??AVector3@@QBEABMH@Z			; Vector3::operator[]
	movss	xmm0, DWORD PTR [esi]
	mulss	xmm0, DWORD PTR [eax]
	movss	xmm1, DWORD PTR tv238[ebp]
	addss	xmm1, xmm0
	push	ecx
	movss	DWORD PTR [esp], xmm1
	push	0
	push	1
	mov	ecx, DWORD PTR _a$[ebp]
	call	??AMatrix3@@QBEABVVector3@@H@Z		; Matrix3::operator[]
	mov	ecx, eax
	call	??AVector3@@QBEABMH@Z			; Vector3::operator[]
	mov	esi, eax
	push	0
	mov	ecx, DWORD PTR _v$[ebp]
	call	??AVector3@@QBEABMH@Z			; Vector3::operator[]
	movss	xmm0, DWORD PTR [esi]
	mulss	xmm0, DWORD PTR [eax]
	push	1
	push	1
	mov	ecx, DWORD PTR _a$[ebp]
	movss	DWORD PTR tv240[ebp], xmm0
	call	??AMatrix3@@QBEABVVector3@@H@Z		; Matrix3::operator[]
	mov	ecx, eax
	call	??AVector3@@QBEABMH@Z			; Vector3::operator[]
	mov	esi, eax
	push	1
	mov	ecx, DWORD PTR _v$[ebp]
	call	??AVector3@@QBEABMH@Z			; Vector3::operator[]
	movss	xmm0, DWORD PTR [esi]
	mulss	xmm0, DWORD PTR [eax]
	movss	xmm1, DWORD PTR tv240[ebp]
	addss	xmm1, xmm0
	push	2
	push	1
	mov	ecx, DWORD PTR _a$[ebp]
	movss	DWORD PTR tv242[ebp], xmm1
	call	??AMatrix3@@QBEABVVector3@@H@Z		; Matrix3::operator[]
	mov	ecx, eax
	call	??AVector3@@QBEABMH@Z			; Vector3::operator[]
	mov	esi, eax
	push	2
	mov	ecx, DWORD PTR _v$[ebp]
	call	??AVector3@@QBEABMH@Z			; Vector3::operator[]
	movss	xmm0, DWORD PTR [esi]
	mulss	xmm0, DWORD PTR [eax]
	movss	xmm1, DWORD PTR tv242[ebp]
	addss	xmm1, xmm0
	push	ecx
	movss	DWORD PTR [esp], xmm1
	push	0
	push	0
	mov	ecx, DWORD PTR _a$[ebp]
	call	??AMatrix3@@QBEABVVector3@@H@Z		; Matrix3::operator[]
	mov	ecx, eax
	call	??AVector3@@QBEABMH@Z			; Vector3::operator[]
	mov	esi, eax
	push	0
	mov	ecx, DWORD PTR _v$[ebp]
	call	??AVector3@@QBEABMH@Z			; Vector3::operator[]
	movss	xmm0, DWORD PTR [esi]
	mulss	xmm0, DWORD PTR [eax]
	push	1
	push	0
	mov	ecx, DWORD PTR _a$[ebp]
	movss	DWORD PTR tv244[ebp], xmm0
	call	??AMatrix3@@QBEABVVector3@@H@Z		; Matrix3::operator[]
	mov	ecx, eax
	call	??AVector3@@QBEABMH@Z			; Vector3::operator[]
	mov	esi, eax
	push	1
	mov	ecx, DWORD PTR _v$[ebp]
	call	??AVector3@@QBEABMH@Z			; Vector3::operator[]
	movss	xmm0, DWORD PTR [esi]
	mulss	xmm0, DWORD PTR [eax]
	movss	xmm1, DWORD PTR tv244[ebp]
	addss	xmm1, xmm0
	push	2
	push	0
	mov	ecx, DWORD PTR _a$[ebp]
	movss	DWORD PTR tv246[ebp], xmm1
	call	??AMatrix3@@QBEABVVector3@@H@Z		; Matrix3::operator[]
	mov	ecx, eax
	call	??AVector3@@QBEABMH@Z			; Vector3::operator[]
	mov	esi, eax
	push	2
	mov	ecx, DWORD PTR _v$[ebp]
	call	??AVector3@@QBEABMH@Z			; Vector3::operator[]
	movss	xmm0, DWORD PTR [esi]
	mulss	xmm0, DWORD PTR [eax]
	movss	xmm1, DWORD PTR tv246[ebp]
	addss	xmm1, xmm0
	push	ecx
	movss	DWORD PTR [esp], xmm1
	mov	ecx, DWORD PTR ___$ReturnUdt$[ebp]
	call	??0Vector3@@QAE@MMM@Z			; Vector3::Vector3
	mov	eax, DWORD PTR ___$ReturnUdt$[ebp]

; 404  : }

	pop	edi
	pop	esi
	pop	ebx
	mov	esp, ebp
	pop	ebp
	ret	0
??D@YA?AVVector3@@ABVMatrix3@@ABV0@@Z ENDP		; operator*
_TEXT	ENDS
; Function compile flags: /Odtp /ZI
; File x:\github\renegade\dragonade_rxd\scripts\matrix3.h
;	COMDAT ?Get_Z_Vector@Matrix3@@QBEXPAVVector3@@@Z
_TEXT	SEGMENT
_this$ = -4						; size = 4
_set_z$ = 8						; size = 4
?Get_Z_Vector@Matrix3@@QBEXPAVVector3@@@Z PROC		; Matrix3::Get_Z_Vector, COMDAT
; _this$ = ecx

; 234  : 	{

	push	ebp
	mov	ebp, esp
	sub	esp, 68					; 00000044H
	push	ebx
	push	esi
	push	edi
	mov	DWORD PTR _this$[ebp], ecx

; 235  : 		set_z->Set(Row[0][2], Row[1][2], Row[2][2]);

	push	2
	mov	ecx, 12					; 0000000cH
	shl	ecx, 1
	add	ecx, DWORD PTR _this$[ebp]
	call	??AVector3@@QBEABMH@Z			; Vector3::operator[]
	push	ecx
	movss	xmm0, DWORD PTR [eax]
	movss	DWORD PTR [esp], xmm0
	push	2
	mov	ecx, 12					; 0000000cH
	shl	ecx, 0
	add	ecx, DWORD PTR _this$[ebp]
	call	??AVector3@@QBEABMH@Z			; Vector3::operator[]
	push	ecx
	movss	xmm0, DWORD PTR [eax]
	movss	DWORD PTR [esp], xmm0
	push	2
	mov	ecx, 12					; 0000000cH
	imul	ecx, 0
	add	ecx, DWORD PTR _this$[ebp]
	call	??AVector3@@QBEABMH@Z			; Vector3::operator[]
	push	ecx
	movss	xmm0, DWORD PTR [eax]
	movss	DWORD PTR [esp], xmm0
	mov	ecx, DWORD PTR _set_z$[ebp]
	call	?Set@Vector3@@QAEXMMM@Z			; Vector3::Set

; 236  : 	}

	pop	edi
	pop	esi
	pop	ebx
	mov	esp, ebp
	pop	ebp
	ret	4
?Get_Z_Vector@Matrix3@@QBEXPAVVector3@@@Z ENDP		; Matrix3::Get_Z_Vector
_TEXT	ENDS
; Function compile flags: /Odtp /ZI
; File x:\github\renegade\dragonade_rxd\scripts\matrix3.h
;	COMDAT ?Get_Y_Vector@Matrix3@@QBEXPAVVector3@@@Z
_TEXT	SEGMENT
_this$ = -4						; size = 4
_set_y$ = 8						; size = 4
?Get_Y_Vector@Matrix3@@QBEXPAVVector3@@@Z PROC		; Matrix3::Get_Y_Vector, COMDAT
; _this$ = ecx

; 230  : 	{

	push	ebp
	mov	ebp, esp
	sub	esp, 68					; 00000044H
	push	ebx
	push	esi
	push	edi
	mov	DWORD PTR _this$[ebp], ecx

; 231  : 		set_y->Set(Row[0][1], Row[1][1], Row[2][1]);

	push	1
	mov	ecx, 12					; 0000000cH
	shl	ecx, 1
	add	ecx, DWORD PTR _this$[ebp]
	call	??AVector3@@QBEABMH@Z			; Vector3::operator[]
	push	ecx
	movss	xmm0, DWORD PTR [eax]
	movss	DWORD PTR [esp], xmm0
	push	1
	mov	ecx, 12					; 0000000cH
	shl	ecx, 0
	add	ecx, DWORD PTR _this$[ebp]
	call	??AVector3@@QBEABMH@Z			; Vector3::operator[]
	push	ecx
	movss	xmm0, DWORD PTR [eax]
	movss	DWORD PTR [esp], xmm0
	push	1
	mov	ecx, 12					; 0000000cH
	imul	ecx, 0
	add	ecx, DWORD PTR _this$[ebp]
	call	??AVector3@@QBEABMH@Z			; Vector3::operator[]
	push	ecx
	movss	xmm0, DWORD PTR [eax]
	movss	DWORD PTR [esp], xmm0
	mov	ecx, DWORD PTR _set_y$[ebp]
	call	?Set@Vector3@@QAEXMMM@Z			; Vector3::Set

; 232  : 	}

	pop	edi
	pop	esi
	pop	ebx
	mov	esp, ebp
	pop	ebp
	ret	4
?Get_Y_Vector@Matrix3@@QBEXPAVVector3@@@Z ENDP		; Matrix3::Get_Y_Vector
_TEXT	ENDS
; Function compile flags: /Odtp /ZI
; File x:\github\renegade\dragonade_rxd\scripts\matrix3.h
;	COMDAT ?Get_X_Vector@Matrix3@@QBEXPAVVector3@@@Z
_TEXT	SEGMENT
_this$ = -4						; size = 4
_set_x$ = 8						; size = 4
?Get_X_Vector@Matrix3@@QBEXPAVVector3@@@Z PROC		; Matrix3::Get_X_Vector, COMDAT
; _this$ = ecx

; 226  : 	{

	push	ebp
	mov	ebp, esp
	sub	esp, 68					; 00000044H
	push	ebx
	push	esi
	push	edi
	mov	DWORD PTR _this$[ebp], ecx

; 227  : 		set_x->Set(Row[0][0], Row[1][0], Row[2][0]);

	push	0
	mov	ecx, 12					; 0000000cH
	shl	ecx, 1
	add	ecx, DWORD PTR _this$[ebp]
	call	??AVector3@@QBEABMH@Z			; Vector3::operator[]
	push	ecx
	movss	xmm0, DWORD PTR [eax]
	movss	DWORD PTR [esp], xmm0
	push	0
	mov	ecx, 12					; 0000000cH
	shl	ecx, 0
	add	ecx, DWORD PTR _this$[ebp]
	call	??AVector3@@QBEABMH@Z			; Vector3::operator[]
	push	ecx
	movss	xmm0, DWORD PTR [eax]
	movss	DWORD PTR [esp], xmm0
	push	0
	mov	ecx, 12					; 0000000cH
	imul	ecx, 0
	add	ecx, DWORD PTR _this$[ebp]
	call	??AVector3@@QBEABMH@Z			; Vector3::operator[]
	push	ecx
	movss	xmm0, DWORD PTR [eax]
	movss	DWORD PTR [esp], xmm0
	mov	ecx, DWORD PTR _set_x$[ebp]
	call	?Set@Vector3@@QAEXMMM@Z			; Vector3::Set

; 228  : 	}

	pop	edi
	pop	esi
	pop	ebx
	mov	esp, ebp
	pop	ebp
	ret	4
?Get_X_Vector@Matrix3@@QBEXPAVVector3@@@Z ENDP		; Matrix3::Get_X_Vector
_TEXT	ENDS
; Function compile flags: /Odtp /ZI
; File x:\github\renegade\dragonade_rxd\scripts\matrix3.h
;	COMDAT ?Get_Z_Vector@Matrix3@@QBE?AVVector3@@XZ
_TEXT	SEGMENT
_this$ = -4						; size = 4
___$ReturnUdt$ = 8					; size = 4
?Get_Z_Vector@Matrix3@@QBE?AVVector3@@XZ PROC		; Matrix3::Get_Z_Vector, COMDAT
; _this$ = ecx

; 222  : 	{

	push	ebp
	mov	ebp, esp
	sub	esp, 68					; 00000044H
	push	ebx
	push	esi
	push	edi
	mov	DWORD PTR _this$[ebp], ecx

; 223  : 		return Vector3(Row[0][2], Row[1][2], Row[2][2]);

	push	2
	mov	ecx, 12					; 0000000cH
	shl	ecx, 1
	add	ecx, DWORD PTR _this$[ebp]
	call	??AVector3@@QBEABMH@Z			; Vector3::operator[]
	push	ecx
	movss	xmm0, DWORD PTR [eax]
	movss	DWORD PTR [esp], xmm0
	push	2
	mov	ecx, 12					; 0000000cH
	shl	ecx, 0
	add	ecx, DWORD PTR _this$[ebp]
	call	??AVector3@@QBEABMH@Z			; Vector3::operator[]
	push	ecx
	movss	xmm0, DWORD PTR [eax]
	movss	DWORD PTR [esp], xmm0
	push	2
	mov	ecx, 12					; 0000000cH
	imul	ecx, 0
	add	ecx, DWORD PTR _this$[ebp]
	call	??AVector3@@QBEABMH@Z			; Vector3::operator[]
	push	ecx
	movss	xmm0, DWORD PTR [eax]
	movss	DWORD PTR [esp], xmm0
	mov	ecx, DWORD PTR ___$ReturnUdt$[ebp]
	call	??0Vector3@@QAE@MMM@Z			; Vector3::Vector3
	mov	eax, DWORD PTR ___$ReturnUdt$[ebp]

; 224  : 	}

	pop	edi
	pop	esi
	pop	ebx
	mov	esp, ebp
	pop	ebp
	ret	4
?Get_Z_Vector@Matrix3@@QBE?AVVector3@@XZ ENDP		; Matrix3::Get_Z_Vector
_TEXT	ENDS
; Function compile flags: /Odtp /ZI
; File x:\github\renegade\dragonade_rxd\scripts\matrix3.h
;	COMDAT ?Get_Y_Vector@Matrix3@@QBE?AVVector3@@XZ
_TEXT	SEGMENT
_this$ = -4						; size = 4
___$ReturnUdt$ = 8					; size = 4
?Get_Y_Vector@Matrix3@@QBE?AVVector3@@XZ PROC		; Matrix3::Get_Y_Vector, COMDAT
; _this$ = ecx

; 218  : 	{

	push	ebp
	mov	ebp, esp
	sub	esp, 68					; 00000044H
	push	ebx
	push	esi
	push	edi
	mov	DWORD PTR _this$[ebp], ecx

; 219  : 		return Vector3(Row[0][1], Row[1][1], Row[2][1]);

	push	1
	mov	ecx, 12					; 0000000cH
	shl	ecx, 1
	add	ecx, DWORD PTR _this$[ebp]
	call	??AVector3@@QBEABMH@Z			; Vector3::operator[]
	push	ecx
	movss	xmm0, DWORD PTR [eax]
	movss	DWORD PTR [esp], xmm0
	push	1
	mov	ecx, 12					; 0000000cH
	shl	ecx, 0
	add	ecx, DWORD PTR _this$[ebp]
	call	??AVector3@@QBEABMH@Z			; Vector3::operator[]
	push	ecx
	movss	xmm0, DWORD PTR [eax]
	movss	DWORD PTR [esp], xmm0
	push	1
	mov	ecx, 12					; 0000000cH
	imul	ecx, 0
	add	ecx, DWORD PTR _this$[ebp]
	call	??AVector3@@QBEABMH@Z			; Vector3::operator[]
	push	ecx
	movss	xmm0, DWORD PTR [eax]
	movss	DWORD PTR [esp], xmm0
	mov	ecx, DWORD PTR ___$ReturnUdt$[ebp]
	call	??0Vector3@@QAE@MMM@Z			; Vector3::Vector3
	mov	eax, DWORD PTR ___$ReturnUdt$[ebp]

; 220  : 	}

	pop	edi
	pop	esi
	pop	ebx
	mov	esp, ebp
	pop	ebp
	ret	4
?Get_Y_Vector@Matrix3@@QBE?AVVector3@@XZ ENDP		; Matrix3::Get_Y_Vector
_TEXT	ENDS
; Function compile flags: /Odtp /ZI
; File x:\github\renegade\dragonade_rxd\scripts\matrix3.h
;	COMDAT ?Get_X_Vector@Matrix3@@QBE?AVVector3@@XZ
_TEXT	SEGMENT
_this$ = -4						; size = 4
___$ReturnUdt$ = 8					; size = 4
?Get_X_Vector@Matrix3@@QBE?AVVector3@@XZ PROC		; Matrix3::Get_X_Vector, COMDAT
; _this$ = ecx

; 214  : 	{

	push	ebp
	mov	ebp, esp
	sub	esp, 68					; 00000044H
	push	ebx
	push	esi
	push	edi
	mov	DWORD PTR _this$[ebp], ecx

; 215  : 		return Vector3(Row[0][0], Row[1][0], Row[2][0]);

	push	0
	mov	ecx, 12					; 0000000cH
	shl	ecx, 1
	add	ecx, DWORD PTR _this$[ebp]
	call	??AVector3@@QBEABMH@Z			; Vector3::operator[]
	push	ecx
	movss	xmm0, DWORD PTR [eax]
	movss	DWORD PTR [esp], xmm0
	push	0
	mov	ecx, 12					; 0000000cH
	shl	ecx, 0
	add	ecx, DWORD PTR _this$[ebp]
	call	??AVector3@@QBEABMH@Z			; Vector3::operator[]
	push	ecx
	movss	xmm0, DWORD PTR [eax]
	movss	DWORD PTR [esp], xmm0
	push	0
	mov	ecx, 12					; 0000000cH
	imul	ecx, 0
	add	ecx, DWORD PTR _this$[ebp]
	call	??AVector3@@QBEABMH@Z			; Vector3::operator[]
	push	ecx
	movss	xmm0, DWORD PTR [eax]
	movss	DWORD PTR [esp], xmm0
	mov	ecx, DWORD PTR ___$ReturnUdt$[ebp]
	call	??0Vector3@@QAE@MMM@Z			; Vector3::Vector3
	mov	eax, DWORD PTR ___$ReturnUdt$[ebp]

; 216  : 	}

	pop	edi
	pop	esi
	pop	ebx
	mov	esp, ebp
	pop	ebp
	ret	4
?Get_X_Vector@Matrix3@@QBE?AVVector3@@XZ ENDP		; Matrix3::Get_X_Vector
_TEXT	ENDS
; Function compile flags: /Odtp /ZI
; File x:\github\renegade\dragonade_rxd\scripts\matrix3.h
;	COMDAT ?Get_Z_Rotation@Matrix3@@QBEMXZ
_TEXT	SEGMENT
$T1 = -92						; size = 12
_v$ = -16						; size = 12
_this$ = -4						; size = 4
?Get_Z_Rotation@Matrix3@@QBEMXZ PROC			; Matrix3::Get_Z_Rotation, COMDAT
; _this$ = ecx

; 209  : 	{

	push	ebp
	mov	ebp, esp
	sub	esp, 92					; 0000005cH
	push	ebx
	push	esi
	push	edi
	mov	DWORD PTR _this$[ebp], ecx

; 210  : 		Vector3 v = (*this) * Vector3(1.0,0.0,0.0);

	push	ecx
	movss	xmm0, DWORD PTR __real@00000000
	movss	DWORD PTR [esp], xmm0
	push	ecx
	movss	xmm0, DWORD PTR __real@00000000
	movss	DWORD PTR [esp], xmm0
	push	ecx
	movss	xmm0, DWORD PTR __real@3f800000
	movss	DWORD PTR [esp], xmm0
	lea	ecx, DWORD PTR $T1[ebp]
	call	??0Vector3@@QAE@MMM@Z			; Vector3::Vector3
	push	eax
	mov	eax, DWORD PTR _this$[ebp]
	push	eax
	lea	ecx, DWORD PTR _v$[ebp]
	push	ecx
	call	??D@YA?AVVector3@@ABVMatrix3@@ABV0@@Z	; operator*
	add	esp, 12					; 0000000cH

; 211  : 		return atan2(v[1],v[0]);

	push	0
	lea	ecx, DWORD PTR _v$[ebp]
	call	??AVector3@@QAEAAMH@Z			; Vector3::operator[]
	push	ecx
	movss	xmm0, DWORD PTR [eax]
	movss	DWORD PTR [esp], xmm0
	push	1
	lea	ecx, DWORD PTR _v$[ebp]
	call	??AVector3@@QAEAAMH@Z			; Vector3::operator[]
	push	ecx
	movss	xmm0, DWORD PTR [eax]
	movss	DWORD PTR [esp], xmm0
	call	?atan2@@YAMMM@Z				; atan2
	add	esp, 8

; 212  : 	}

	pop	edi
	pop	esi
	pop	ebx
	mov	esp, ebp
	pop	ebp
	ret	0
?Get_Z_Rotation@Matrix3@@QBEMXZ ENDP			; Matrix3::Get_Z_Rotation
_TEXT	ENDS
; Function compile flags: /Odtp /ZI
; File x:\github\renegade\dragonade_rxd\scripts\matrix3.h
;	COMDAT ?Get_Y_Rotation@Matrix3@@QBEMXZ
_TEXT	SEGMENT
$T1 = -92						; size = 12
_v$ = -16						; size = 12
_this$ = -4						; size = 4
?Get_Y_Rotation@Matrix3@@QBEMXZ PROC			; Matrix3::Get_Y_Rotation, COMDAT
; _this$ = ecx

; 204  : 	{

	push	ebp
	mov	ebp, esp
	sub	esp, 92					; 0000005cH
	push	ebx
	push	esi
	push	edi
	mov	DWORD PTR _this$[ebp], ecx

; 205  : 		Vector3 v = (*this) * Vector3(0.0,0.0,1.0);

	push	ecx
	movss	xmm0, DWORD PTR __real@3f800000
	movss	DWORD PTR [esp], xmm0
	push	ecx
	movss	xmm0, DWORD PTR __real@00000000
	movss	DWORD PTR [esp], xmm0
	push	ecx
	movss	xmm0, DWORD PTR __real@00000000
	movss	DWORD PTR [esp], xmm0
	lea	ecx, DWORD PTR $T1[ebp]
	call	??0Vector3@@QAE@MMM@Z			; Vector3::Vector3
	push	eax
	mov	eax, DWORD PTR _this$[ebp]
	push	eax
	lea	ecx, DWORD PTR _v$[ebp]
	push	ecx
	call	??D@YA?AVVector3@@ABVMatrix3@@ABV0@@Z	; operator*
	add	esp, 12					; 0000000cH

; 206  : 		return atan2(v[0],v[2]);

	push	2
	lea	ecx, DWORD PTR _v$[ebp]
	call	??AVector3@@QAEAAMH@Z			; Vector3::operator[]
	push	ecx
	movss	xmm0, DWORD PTR [eax]
	movss	DWORD PTR [esp], xmm0
	push	0
	lea	ecx, DWORD PTR _v$[ebp]
	call	??AVector3@@QAEAAMH@Z			; Vector3::operator[]
	push	ecx
	movss	xmm0, DWORD PTR [eax]
	movss	DWORD PTR [esp], xmm0
	call	?atan2@@YAMMM@Z				; atan2
	add	esp, 8

; 207  : 	}

	pop	edi
	pop	esi
	pop	ebx
	mov	esp, ebp
	pop	ebp
	ret	0
?Get_Y_Rotation@Matrix3@@QBEMXZ ENDP			; Matrix3::Get_Y_Rotation
_TEXT	ENDS
; Function compile flags: /Odtp /ZI
; File x:\github\renegade\dragonade_rxd\scripts\matrix3.h
;	COMDAT ?Get_X_Rotation@Matrix3@@QBEMXZ
_TEXT	SEGMENT
$T1 = -92						; size = 12
_v$ = -16						; size = 12
_this$ = -4						; size = 4
?Get_X_Rotation@Matrix3@@QBEMXZ PROC			; Matrix3::Get_X_Rotation, COMDAT
; _this$ = ecx

; 199  : 	{

	push	ebp
	mov	ebp, esp
	sub	esp, 92					; 0000005cH
	push	ebx
	push	esi
	push	edi
	mov	DWORD PTR _this$[ebp], ecx

; 200  : 		Vector3 v = (*this) * Vector3(0.0,1.0,0.0);

	push	ecx
	movss	xmm0, DWORD PTR __real@00000000
	movss	DWORD PTR [esp], xmm0
	push	ecx
	movss	xmm0, DWORD PTR __real@3f800000
	movss	DWORD PTR [esp], xmm0
	push	ecx
	movss	xmm0, DWORD PTR __real@00000000
	movss	DWORD PTR [esp], xmm0
	lea	ecx, DWORD PTR $T1[ebp]
	call	??0Vector3@@QAE@MMM@Z			; Vector3::Vector3
	push	eax
	mov	eax, DWORD PTR _this$[ebp]
	push	eax
	lea	ecx, DWORD PTR _v$[ebp]
	push	ecx
	call	??D@YA?AVVector3@@ABVMatrix3@@ABV0@@Z	; operator*
	add	esp, 12					; 0000000cH

; 201  : 		return atan2(v[2], v[1]);

	push	1
	lea	ecx, DWORD PTR _v$[ebp]
	call	??AVector3@@QAEAAMH@Z			; Vector3::operator[]
	push	ecx
	movss	xmm0, DWORD PTR [eax]
	movss	DWORD PTR [esp], xmm0
	push	2
	lea	ecx, DWORD PTR _v$[ebp]
	call	??AVector3@@QAEAAMH@Z			; Vector3::operator[]
	push	ecx
	movss	xmm0, DWORD PTR [eax]
	movss	DWORD PTR [esp], xmm0
	call	?atan2@@YAMMM@Z				; atan2
	add	esp, 8

; 202  : 	}

	pop	edi
	pop	esi
	pop	ebx
	mov	esp, ebp
	pop	ebp
	ret	0
?Get_X_Rotation@Matrix3@@QBEMXZ ENDP			; Matrix3::Get_X_Rotation
_TEXT	ENDS
; Function compile flags: /Odtp /ZI
; File x:\github\renegade\dragonade_rxd\scripts\matrix3.h
;	COMDAT ?Rotate_Z@Matrix3@@QAEXMM@Z
_TEXT	SEGMENT
tv248 = -80						; size = 4
tv246 = -80						; size = 4
tv244 = -80						; size = 4
tv242 = -80						; size = 4
tv240 = -80						; size = 4
tv238 = -80						; size = 4
_tmp2$ = -12						; size = 4
_tmp1$ = -8						; size = 4
_this$ = -4						; size = 4
_s$ = 8							; size = 4
_c$ = 12						; size = 4
?Rotate_Z@Matrix3@@QAEXMM@Z PROC			; Matrix3::Rotate_Z, COMDAT
; _this$ = ecx

; 186  : 	{

	push	ebp
	mov	ebp, esp
	sub	esp, 80					; 00000050H
	push	ebx
	push	esi
	push	edi
	mov	DWORD PTR _this$[ebp], ecx

; 187  : 		float tmp1,tmp2;
; 188  : 		tmp1 = Row[0][0]; tmp2 = Row[0][1];

	push	0
	mov	ecx, 12					; 0000000cH
	imul	ecx, 0
	add	ecx, DWORD PTR _this$[ebp]
	call	??AVector3@@QAEAAMH@Z			; Vector3::operator[]
	movss	xmm0, DWORD PTR [eax]
	movss	DWORD PTR _tmp1$[ebp], xmm0
	push	1
	mov	ecx, 12					; 0000000cH
	imul	ecx, 0
	add	ecx, DWORD PTR _this$[ebp]
	call	??AVector3@@QAEAAMH@Z			; Vector3::operator[]
	movss	xmm0, DWORD PTR [eax]
	movss	DWORD PTR _tmp2$[ebp], xmm0

; 189  : 		Row[0][0] = (float)( c*tmp1 + s*tmp2);

	movss	xmm0, DWORD PTR _c$[ebp]
	mulss	xmm0, DWORD PTR _tmp1$[ebp]
	movss	xmm1, DWORD PTR _s$[ebp]
	mulss	xmm1, DWORD PTR _tmp2$[ebp]
	addss	xmm0, xmm1
	push	0
	mov	ecx, 12					; 0000000cH
	imul	ecx, 0
	add	ecx, DWORD PTR _this$[ebp]
	movss	DWORD PTR tv238[ebp], xmm0
	call	??AVector3@@QAEAAMH@Z			; Vector3::operator[]
	movss	xmm0, DWORD PTR tv238[ebp]
	movss	DWORD PTR [eax], xmm0

; 190  : 		Row[0][1] = (float)(-s*tmp1 + c*tmp2);

	movss	xmm0, DWORD PTR _s$[ebp]
	xorps	xmm0, DWORD PTR __xmm@80000000800000008000000080000000
	mulss	xmm0, DWORD PTR _tmp1$[ebp]
	movss	xmm1, DWORD PTR _c$[ebp]
	mulss	xmm1, DWORD PTR _tmp2$[ebp]
	addss	xmm0, xmm1
	push	1
	mov	ecx, 12					; 0000000cH
	imul	ecx, 0
	add	ecx, DWORD PTR _this$[ebp]
	movss	DWORD PTR tv240[ebp], xmm0
	call	??AVector3@@QAEAAMH@Z			; Vector3::operator[]
	movss	xmm0, DWORD PTR tv240[ebp]
	movss	DWORD PTR [eax], xmm0

; 191  : 		tmp1 = Row[1][0]; tmp2 = Row[1][1];

	push	0
	mov	ecx, 12					; 0000000cH
	shl	ecx, 0
	add	ecx, DWORD PTR _this$[ebp]
	call	??AVector3@@QAEAAMH@Z			; Vector3::operator[]
	movss	xmm0, DWORD PTR [eax]
	movss	DWORD PTR _tmp1$[ebp], xmm0
	push	1
	mov	ecx, 12					; 0000000cH
	shl	ecx, 0
	add	ecx, DWORD PTR _this$[ebp]
	call	??AVector3@@QAEAAMH@Z			; Vector3::operator[]
	movss	xmm0, DWORD PTR [eax]
	movss	DWORD PTR _tmp2$[ebp], xmm0

; 192  : 		Row[1][0] = (float)( c*tmp1 + s*tmp2);

	movss	xmm0, DWORD PTR _c$[ebp]
	mulss	xmm0, DWORD PTR _tmp1$[ebp]
	movss	xmm1, DWORD PTR _s$[ebp]
	mulss	xmm1, DWORD PTR _tmp2$[ebp]
	addss	xmm0, xmm1
	push	0
	mov	ecx, 12					; 0000000cH
	shl	ecx, 0
	add	ecx, DWORD PTR _this$[ebp]
	movss	DWORD PTR tv242[ebp], xmm0
	call	??AVector3@@QAEAAMH@Z			; Vector3::operator[]
	movss	xmm0, DWORD PTR tv242[ebp]
	movss	DWORD PTR [eax], xmm0

; 193  : 		Row[1][1] = (float)(-s*tmp1 + c*tmp2);

	movss	xmm0, DWORD PTR _s$[ebp]
	xorps	xmm0, DWORD PTR __xmm@80000000800000008000000080000000
	mulss	xmm0, DWORD PTR _tmp1$[ebp]
	movss	xmm1, DWORD PTR _c$[ebp]
	mulss	xmm1, DWORD PTR _tmp2$[ebp]
	addss	xmm0, xmm1
	push	1
	mov	ecx, 12					; 0000000cH
	shl	ecx, 0
	add	ecx, DWORD PTR _this$[ebp]
	movss	DWORD PTR tv244[ebp], xmm0
	call	??AVector3@@QAEAAMH@Z			; Vector3::operator[]
	movss	xmm0, DWORD PTR tv244[ebp]
	movss	DWORD PTR [eax], xmm0

; 194  : 		tmp1 = Row[2][0]; tmp2 = Row[2][1];

	push	0
	mov	ecx, 12					; 0000000cH
	shl	ecx, 1
	add	ecx, DWORD PTR _this$[ebp]
	call	??AVector3@@QAEAAMH@Z			; Vector3::operator[]
	movss	xmm0, DWORD PTR [eax]
	movss	DWORD PTR _tmp1$[ebp], xmm0
	push	1
	mov	ecx, 12					; 0000000cH
	shl	ecx, 1
	add	ecx, DWORD PTR _this$[ebp]
	call	??AVector3@@QAEAAMH@Z			; Vector3::operator[]
	movss	xmm0, DWORD PTR [eax]
	movss	DWORD PTR _tmp2$[ebp], xmm0

; 195  : 		Row[2][0] = (float)( c*tmp1 + s*tmp2);

	movss	xmm0, DWORD PTR _c$[ebp]
	mulss	xmm0, DWORD PTR _tmp1$[ebp]
	movss	xmm1, DWORD PTR _s$[ebp]
	mulss	xmm1, DWORD PTR _tmp2$[ebp]
	addss	xmm0, xmm1
	push	0
	mov	ecx, 12					; 0000000cH
	shl	ecx, 1
	add	ecx, DWORD PTR _this$[ebp]
	movss	DWORD PTR tv246[ebp], xmm0
	call	??AVector3@@QAEAAMH@Z			; Vector3::operator[]
	movss	xmm0, DWORD PTR tv246[ebp]
	movss	DWORD PTR [eax], xmm0

; 196  : 		Row[2][1] = (float)(-s*tmp1 + c*tmp2);

	movss	xmm0, DWORD PTR _s$[ebp]
	xorps	xmm0, DWORD PTR __xmm@80000000800000008000000080000000
	mulss	xmm0, DWORD PTR _tmp1$[ebp]
	movss	xmm1, DWORD PTR _c$[ebp]
	mulss	xmm1, DWORD PTR _tmp2$[ebp]
	addss	xmm0, xmm1
	push	1
	mov	ecx, 12					; 0000000cH
	shl	ecx, 1
	add	ecx, DWORD PTR _this$[ebp]
	movss	DWORD PTR tv248[ebp], xmm0
	call	??AVector3@@QAEAAMH@Z			; Vector3::operator[]
	movss	xmm0, DWORD PTR tv248[ebp]
	movss	DWORD PTR [eax], xmm0

; 197  : 	}

	pop	edi
	pop	esi
	pop	ebx
	mov	esp, ebp
	pop	ebp
	ret	8
?Rotate_Z@Matrix3@@QAEXMM@Z ENDP			; Matrix3::Rotate_Z
_TEXT	ENDS
; Function compile flags: /Odtp /ZI
; File x:\github\renegade\dragonade_rxd\scripts\matrix3.h
;	COMDAT ?Rotate_Z@Matrix3@@QAEXM@Z
_TEXT	SEGMENT
_this$ = -4						; size = 4
_theta$ = 8						; size = 4
?Rotate_Z@Matrix3@@QAEXM@Z PROC				; Matrix3::Rotate_Z, COMDAT
; _this$ = ecx

; 182  : 	{

	push	ebp
	mov	ebp, esp
	sub	esp, 68					; 00000044H
	push	ebx
	push	esi
	push	edi
	mov	DWORD PTR _this$[ebp], ecx

; 183  : 		Rotate_Z(sinf(theta),cosf(theta));

	push	ecx
	movss	xmm0, DWORD PTR _theta$[ebp]
	movss	DWORD PTR [esp], xmm0
	call	_cosf
	fstp	DWORD PTR [esp]
	push	ecx
	movss	xmm0, DWORD PTR _theta$[ebp]
	movss	DWORD PTR [esp], xmm0
	call	_sinf
	fstp	DWORD PTR [esp]
	mov	ecx, DWORD PTR _this$[ebp]
	call	?Rotate_Z@Matrix3@@QAEXMM@Z		; Matrix3::Rotate_Z

; 184  : 	}

	pop	edi
	pop	esi
	pop	ebx
	mov	esp, ebp
	pop	ebp
	ret	4
?Rotate_Z@Matrix3@@QAEXM@Z ENDP				; Matrix3::Rotate_Z
_TEXT	ENDS
; Function compile flags: /Odtp /ZI
; File x:\github\renegade\dragonade_rxd\scripts\matrix3.h
;	COMDAT ?Rotate_Y@Matrix3@@QAEXMM@Z
_TEXT	SEGMENT
tv245 = -80						; size = 4
tv243 = -80						; size = 4
tv241 = -80						; size = 4
tv239 = -80						; size = 4
tv237 = -80						; size = 4
tv235 = -80						; size = 4
_tmp2$ = -12						; size = 4
_tmp1$ = -8						; size = 4
_this$ = -4						; size = 4
_s$ = 8							; size = 4
_c$ = 12						; size = 4
?Rotate_Y@Matrix3@@QAEXMM@Z PROC			; Matrix3::Rotate_Y, COMDAT
; _this$ = ecx

; 169  : 	{

	push	ebp
	mov	ebp, esp
	sub	esp, 80					; 00000050H
	push	ebx
	push	esi
	push	edi
	mov	DWORD PTR _this$[ebp], ecx

; 170  : 		float tmp1,tmp2;
; 171  : 		tmp1 = Row[0][0]; tmp2 = Row[0][2];

	push	0
	mov	ecx, 12					; 0000000cH
	imul	ecx, 0
	add	ecx, DWORD PTR _this$[ebp]
	call	??AVector3@@QAEAAMH@Z			; Vector3::operator[]
	movss	xmm0, DWORD PTR [eax]
	movss	DWORD PTR _tmp1$[ebp], xmm0
	push	2
	mov	ecx, 12					; 0000000cH
	imul	ecx, 0
	add	ecx, DWORD PTR _this$[ebp]
	call	??AVector3@@QAEAAMH@Z			; Vector3::operator[]
	movss	xmm0, DWORD PTR [eax]
	movss	DWORD PTR _tmp2$[ebp], xmm0

; 172  : 		Row[0][0] = (float)(c*tmp1 - s*tmp2);

	movss	xmm0, DWORD PTR _c$[ebp]
	mulss	xmm0, DWORD PTR _tmp1$[ebp]
	movss	xmm1, DWORD PTR _s$[ebp]
	mulss	xmm1, DWORD PTR _tmp2$[ebp]
	subss	xmm0, xmm1
	push	0
	mov	ecx, 12					; 0000000cH
	imul	ecx, 0
	add	ecx, DWORD PTR _this$[ebp]
	movss	DWORD PTR tv235[ebp], xmm0
	call	??AVector3@@QAEAAMH@Z			; Vector3::operator[]
	movss	xmm0, DWORD PTR tv235[ebp]
	movss	DWORD PTR [eax], xmm0

; 173  : 		Row[0][2] = (float)(s*tmp1 + c*tmp2);

	movss	xmm0, DWORD PTR _s$[ebp]
	mulss	xmm0, DWORD PTR _tmp1$[ebp]
	movss	xmm1, DWORD PTR _c$[ebp]
	mulss	xmm1, DWORD PTR _tmp2$[ebp]
	addss	xmm0, xmm1
	push	2
	mov	ecx, 12					; 0000000cH
	imul	ecx, 0
	add	ecx, DWORD PTR _this$[ebp]
	movss	DWORD PTR tv237[ebp], xmm0
	call	??AVector3@@QAEAAMH@Z			; Vector3::operator[]
	movss	xmm0, DWORD PTR tv237[ebp]
	movss	DWORD PTR [eax], xmm0

; 174  : 		tmp1 = Row[1][0]; tmp2 = Row[1][2];

	push	0
	mov	ecx, 12					; 0000000cH
	shl	ecx, 0
	add	ecx, DWORD PTR _this$[ebp]
	call	??AVector3@@QAEAAMH@Z			; Vector3::operator[]
	movss	xmm0, DWORD PTR [eax]
	movss	DWORD PTR _tmp1$[ebp], xmm0
	push	2
	mov	ecx, 12					; 0000000cH
	shl	ecx, 0
	add	ecx, DWORD PTR _this$[ebp]
	call	??AVector3@@QAEAAMH@Z			; Vector3::operator[]
	movss	xmm0, DWORD PTR [eax]
	movss	DWORD PTR _tmp2$[ebp], xmm0

; 175  : 		Row[1][0] = (float)(c*tmp1 - s*tmp2);

	movss	xmm0, DWORD PTR _c$[ebp]
	mulss	xmm0, DWORD PTR _tmp1$[ebp]
	movss	xmm1, DWORD PTR _s$[ebp]
	mulss	xmm1, DWORD PTR _tmp2$[ebp]
	subss	xmm0, xmm1
	push	0
	mov	ecx, 12					; 0000000cH
	shl	ecx, 0
	add	ecx, DWORD PTR _this$[ebp]
	movss	DWORD PTR tv239[ebp], xmm0
	call	??AVector3@@QAEAAMH@Z			; Vector3::operator[]
	movss	xmm0, DWORD PTR tv239[ebp]
	movss	DWORD PTR [eax], xmm0

; 176  : 		Row[1][2] = (float)(s*tmp1 + c*tmp2);

	movss	xmm0, DWORD PTR _s$[ebp]
	mulss	xmm0, DWORD PTR _tmp1$[ebp]
	movss	xmm1, DWORD PTR _c$[ebp]
	mulss	xmm1, DWORD PTR _tmp2$[ebp]
	addss	xmm0, xmm1
	push	2
	mov	ecx, 12					; 0000000cH
	shl	ecx, 0
	add	ecx, DWORD PTR _this$[ebp]
	movss	DWORD PTR tv241[ebp], xmm0
	call	??AVector3@@QAEAAMH@Z			; Vector3::operator[]
	movss	xmm0, DWORD PTR tv241[ebp]
	movss	DWORD PTR [eax], xmm0

; 177  : 		tmp1 = Row[2][0]; tmp2 = Row[2][2];

	push	0
	mov	ecx, 12					; 0000000cH
	shl	ecx, 1
	add	ecx, DWORD PTR _this$[ebp]
	call	??AVector3@@QAEAAMH@Z			; Vector3::operator[]
	movss	xmm0, DWORD PTR [eax]
	movss	DWORD PTR _tmp1$[ebp], xmm0
	push	2
	mov	ecx, 12					; 0000000cH
	shl	ecx, 1
	add	ecx, DWORD PTR _this$[ebp]
	call	??AVector3@@QAEAAMH@Z			; Vector3::operator[]
	movss	xmm0, DWORD PTR [eax]
	movss	DWORD PTR _tmp2$[ebp], xmm0

; 178  : 		Row[2][0] = (float)(c*tmp1 - s*tmp2);

	movss	xmm0, DWORD PTR _c$[ebp]
	mulss	xmm0, DWORD PTR _tmp1$[ebp]
	movss	xmm1, DWORD PTR _s$[ebp]
	mulss	xmm1, DWORD PTR _tmp2$[ebp]
	subss	xmm0, xmm1
	push	0
	mov	ecx, 12					; 0000000cH
	shl	ecx, 1
	add	ecx, DWORD PTR _this$[ebp]
	movss	DWORD PTR tv243[ebp], xmm0
	call	??AVector3@@QAEAAMH@Z			; Vector3::operator[]
	movss	xmm0, DWORD PTR tv243[ebp]
	movss	DWORD PTR [eax], xmm0

; 179  : 		Row[2][2] = (float)(s*tmp1 + c*tmp2);

	movss	xmm0, DWORD PTR _s$[ebp]
	mulss	xmm0, DWORD PTR _tmp1$[ebp]
	movss	xmm1, DWORD PTR _c$[ebp]
	mulss	xmm1, DWORD PTR _tmp2$[ebp]
	addss	xmm0, xmm1
	push	2
	mov	ecx, 12					; 0000000cH
	shl	ecx, 1
	add	ecx, DWORD PTR _this$[ebp]
	movss	DWORD PTR tv245[ebp], xmm0
	call	??AVector3@@QAEAAMH@Z			; Vector3::operator[]
	movss	xmm0, DWORD PTR tv245[ebp]
	movss	DWORD PTR [eax], xmm0

; 180  : 	}

	pop	edi
	pop	esi
	pop	ebx
	mov	esp, ebp
	pop	ebp
	ret	8
?Rotate_Y@Matrix3@@QAEXMM@Z ENDP			; Matrix3::Rotate_Y
_TEXT	ENDS
; Function compile flags: /Odtp /ZI
; File x:\github\renegade\dragonade_rxd\scripts\matrix3.h
;	COMDAT ?Rotate_Y@Matrix3@@QAEXM@Z
_TEXT	SEGMENT
_this$ = -4						; size = 4
_theta$ = 8						; size = 4
?Rotate_Y@Matrix3@@QAEXM@Z PROC				; Matrix3::Rotate_Y, COMDAT
; _this$ = ecx

; 165  : 	{

	push	ebp
	mov	ebp, esp
	sub	esp, 68					; 00000044H
	push	ebx
	push	esi
	push	edi
	mov	DWORD PTR _this$[ebp], ecx

; 166  : 		Rotate_Y(sinf(theta),cosf(theta));

	push	ecx
	movss	xmm0, DWORD PTR _theta$[ebp]
	movss	DWORD PTR [esp], xmm0
	call	_cosf
	fstp	DWORD PTR [esp]
	push	ecx
	movss	xmm0, DWORD PTR _theta$[ebp]
	movss	DWORD PTR [esp], xmm0
	call	_sinf
	fstp	DWORD PTR [esp]
	mov	ecx, DWORD PTR _this$[ebp]
	call	?Rotate_Y@Matrix3@@QAEXMM@Z		; Matrix3::Rotate_Y

; 167  : 	}

	pop	edi
	pop	esi
	pop	ebx
	mov	esp, ebp
	pop	ebp
	ret	4
?Rotate_Y@Matrix3@@QAEXM@Z ENDP				; Matrix3::Rotate_Y
_TEXT	ENDS
; Function compile flags: /Odtp /ZI
; File x:\github\renegade\dragonade_rxd\scripts\matrix3.h
;	COMDAT ?Rotate_X@Matrix3@@QAEXMM@Z
_TEXT	SEGMENT
tv248 = -80						; size = 4
tv246 = -80						; size = 4
tv244 = -80						; size = 4
tv242 = -80						; size = 4
tv240 = -80						; size = 4
tv238 = -80						; size = 4
_tmp2$ = -12						; size = 4
_tmp1$ = -8						; size = 4
_this$ = -4						; size = 4
_s$ = 8							; size = 4
_c$ = 12						; size = 4
?Rotate_X@Matrix3@@QAEXMM@Z PROC			; Matrix3::Rotate_X, COMDAT
; _this$ = ecx

; 152  : 	{

	push	ebp
	mov	ebp, esp
	sub	esp, 80					; 00000050H
	push	ebx
	push	esi
	push	edi
	mov	DWORD PTR _this$[ebp], ecx

; 153  : 		float tmp1,tmp2;
; 154  : 		tmp1 = Row[0][1]; tmp2 = Row[0][2];

	push	1
	mov	ecx, 12					; 0000000cH
	imul	ecx, 0
	add	ecx, DWORD PTR _this$[ebp]
	call	??AVector3@@QAEAAMH@Z			; Vector3::operator[]
	movss	xmm0, DWORD PTR [eax]
	movss	DWORD PTR _tmp1$[ebp], xmm0
	push	2
	mov	ecx, 12					; 0000000cH
	imul	ecx, 0
	add	ecx, DWORD PTR _this$[ebp]
	call	??AVector3@@QAEAAMH@Z			; Vector3::operator[]
	movss	xmm0, DWORD PTR [eax]
	movss	DWORD PTR _tmp2$[ebp], xmm0

; 155  : 		Row[0][1] = (float)( c*tmp1 + s*tmp2);

	movss	xmm0, DWORD PTR _c$[ebp]
	mulss	xmm0, DWORD PTR _tmp1$[ebp]
	movss	xmm1, DWORD PTR _s$[ebp]
	mulss	xmm1, DWORD PTR _tmp2$[ebp]
	addss	xmm0, xmm1
	push	1
	mov	ecx, 12					; 0000000cH
	imul	ecx, 0
	add	ecx, DWORD PTR _this$[ebp]
	movss	DWORD PTR tv238[ebp], xmm0
	call	??AVector3@@QAEAAMH@Z			; Vector3::operator[]
	movss	xmm0, DWORD PTR tv238[ebp]
	movss	DWORD PTR [eax], xmm0

; 156  : 		Row[0][2] = (float)(-s*tmp1 + c*tmp2);

	movss	xmm0, DWORD PTR _s$[ebp]
	xorps	xmm0, DWORD PTR __xmm@80000000800000008000000080000000
	mulss	xmm0, DWORD PTR _tmp1$[ebp]
	movss	xmm1, DWORD PTR _c$[ebp]
	mulss	xmm1, DWORD PTR _tmp2$[ebp]
	addss	xmm0, xmm1
	push	2
	mov	ecx, 12					; 0000000cH
	imul	ecx, 0
	add	ecx, DWORD PTR _this$[ebp]
	movss	DWORD PTR tv240[ebp], xmm0
	call	??AVector3@@QAEAAMH@Z			; Vector3::operator[]
	movss	xmm0, DWORD PTR tv240[ebp]
	movss	DWORD PTR [eax], xmm0

; 157  : 		tmp1 = Row[1][1]; tmp2 = Row[1][2];

	push	1
	mov	ecx, 12					; 0000000cH
	shl	ecx, 0
	add	ecx, DWORD PTR _this$[ebp]
	call	??AVector3@@QAEAAMH@Z			; Vector3::operator[]
	movss	xmm0, DWORD PTR [eax]
	movss	DWORD PTR _tmp1$[ebp], xmm0
	push	2
	mov	ecx, 12					; 0000000cH
	shl	ecx, 0
	add	ecx, DWORD PTR _this$[ebp]
	call	??AVector3@@QAEAAMH@Z			; Vector3::operator[]
	movss	xmm0, DWORD PTR [eax]
	movss	DWORD PTR _tmp2$[ebp], xmm0

; 158  : 		Row[1][1] = (float)( c*tmp1 + s*tmp2);

	movss	xmm0, DWORD PTR _c$[ebp]
	mulss	xmm0, DWORD PTR _tmp1$[ebp]
	movss	xmm1, DWORD PTR _s$[ebp]
	mulss	xmm1, DWORD PTR _tmp2$[ebp]
	addss	xmm0, xmm1
	push	1
	mov	ecx, 12					; 0000000cH
	shl	ecx, 0
	add	ecx, DWORD PTR _this$[ebp]
	movss	DWORD PTR tv242[ebp], xmm0
	call	??AVector3@@QAEAAMH@Z			; Vector3::operator[]
	movss	xmm0, DWORD PTR tv242[ebp]
	movss	DWORD PTR [eax], xmm0

; 159  : 		Row[1][2] = (float)(-s*tmp1 + c*tmp2);

	movss	xmm0, DWORD PTR _s$[ebp]
	xorps	xmm0, DWORD PTR __xmm@80000000800000008000000080000000
	mulss	xmm0, DWORD PTR _tmp1$[ebp]
	movss	xmm1, DWORD PTR _c$[ebp]
	mulss	xmm1, DWORD PTR _tmp2$[ebp]
	addss	xmm0, xmm1
	push	2
	mov	ecx, 12					; 0000000cH
	shl	ecx, 0
	add	ecx, DWORD PTR _this$[ebp]
	movss	DWORD PTR tv244[ebp], xmm0
	call	??AVector3@@QAEAAMH@Z			; Vector3::operator[]
	movss	xmm0, DWORD PTR tv244[ebp]
	movss	DWORD PTR [eax], xmm0

; 160  : 		tmp1 = Row[2][1]; tmp2 = Row[2][2];

	push	1
	mov	ecx, 12					; 0000000cH
	shl	ecx, 1
	add	ecx, DWORD PTR _this$[ebp]
	call	??AVector3@@QAEAAMH@Z			; Vector3::operator[]
	movss	xmm0, DWORD PTR [eax]
	movss	DWORD PTR _tmp1$[ebp], xmm0
	push	2
	mov	ecx, 12					; 0000000cH
	shl	ecx, 1
	add	ecx, DWORD PTR _this$[ebp]
	call	??AVector3@@QAEAAMH@Z			; Vector3::operator[]
	movss	xmm0, DWORD PTR [eax]
	movss	DWORD PTR _tmp2$[ebp], xmm0

; 161  : 		Row[2][1] = (float)( c*tmp1 + s*tmp2);

	movss	xmm0, DWORD PTR _c$[ebp]
	mulss	xmm0, DWORD PTR _tmp1$[ebp]
	movss	xmm1, DWORD PTR _s$[ebp]
	mulss	xmm1, DWORD PTR _tmp2$[ebp]
	addss	xmm0, xmm1
	push	1
	mov	ecx, 12					; 0000000cH
	shl	ecx, 1
	add	ecx, DWORD PTR _this$[ebp]
	movss	DWORD PTR tv246[ebp], xmm0
	call	??AVector3@@QAEAAMH@Z			; Vector3::operator[]
	movss	xmm0, DWORD PTR tv246[ebp]
	movss	DWORD PTR [eax], xmm0

; 162  : 		Row[2][2] = (float)(-s*tmp1 + c*tmp2);

	movss	xmm0, DWORD PTR _s$[ebp]
	xorps	xmm0, DWORD PTR __xmm@80000000800000008000000080000000
	mulss	xmm0, DWORD PTR _tmp1$[ebp]
	movss	xmm1, DWORD PTR _c$[ebp]
	mulss	xmm1, DWORD PTR _tmp2$[ebp]
	addss	xmm0, xmm1
	push	2
	mov	ecx, 12					; 0000000cH
	shl	ecx, 1
	add	ecx, DWORD PTR _this$[ebp]
	movss	DWORD PTR tv248[ebp], xmm0
	call	??AVector3@@QAEAAMH@Z			; Vector3::operator[]
	movss	xmm0, DWORD PTR tv248[ebp]
	movss	DWORD PTR [eax], xmm0

; 163  : 	}

	pop	edi
	pop	esi
	pop	ebx
	mov	esp, ebp
	pop	ebp
	ret	8
?Rotate_X@Matrix3@@QAEXMM@Z ENDP			; Matrix3::Rotate_X
_TEXT	ENDS
; Function compile flags: /Odtp /ZI
; File x:\github\renegade\dragonade_rxd\scripts\matrix3.h
;	COMDAT ?Rotate_X@Matrix3@@QAEXM@Z
_TEXT	SEGMENT
_this$ = -4						; size = 4
_theta$ = 8						; size = 4
?Rotate_X@Matrix3@@QAEXM@Z PROC				; Matrix3::Rotate_X, COMDAT
; _this$ = ecx

; 148  : 	{

	push	ebp
	mov	ebp, esp
	sub	esp, 68					; 00000044H
	push	ebx
	push	esi
	push	edi
	mov	DWORD PTR _this$[ebp], ecx

; 149  : 		Rotate_X(sinf(theta),cosf(theta));

	push	ecx
	movss	xmm0, DWORD PTR _theta$[ebp]
	movss	DWORD PTR [esp], xmm0
	call	_cosf
	fstp	DWORD PTR [esp]
	push	ecx
	movss	xmm0, DWORD PTR _theta$[ebp]
	movss	DWORD PTR [esp], xmm0
	call	_sinf
	fstp	DWORD PTR [esp]
	mov	ecx, DWORD PTR _this$[ebp]
	call	?Rotate_X@Matrix3@@QAEXMM@Z		; Matrix3::Rotate_X

; 150  : 	}

	pop	edi
	pop	esi
	pop	ebx
	mov	esp, ebp
	pop	ebp
	ret	4
?Rotate_X@Matrix3@@QAEXM@Z ENDP				; Matrix3::Rotate_X
_TEXT	ENDS
; Function compile flags: /Odtp /ZI
; File x:\github\renegade\dragonade_rxd\scripts\matrix3.h
;	COMDAT ?Make_Identity@Matrix3@@QAEXXZ
_TEXT	SEGMENT
_this$ = -4						; size = 4
?Make_Identity@Matrix3@@QAEXXZ PROC			; Matrix3::Make_Identity, COMDAT
; _this$ = ecx

; 142  : 	{

	push	ebp
	mov	ebp, esp
	sub	esp, 68					; 00000044H
	push	ebx
	push	esi
	push	edi
	mov	DWORD PTR _this$[ebp], ecx

; 143  : 		Row[0].Set(1.0f,0.0f,0.0f);

	push	ecx
	movss	xmm0, DWORD PTR __real@00000000
	movss	DWORD PTR [esp], xmm0
	push	ecx
	movss	xmm0, DWORD PTR __real@00000000
	movss	DWORD PTR [esp], xmm0
	push	ecx
	movss	xmm0, DWORD PTR __real@3f800000
	movss	DWORD PTR [esp], xmm0
	mov	ecx, 12					; 0000000cH
	imul	ecx, 0
	add	ecx, DWORD PTR _this$[ebp]
	call	?Set@Vector3@@QAEXMMM@Z			; Vector3::Set

; 144  : 		Row[1].Set(0.0f,1.0f,0.0f);

	push	ecx
	movss	xmm0, DWORD PTR __real@00000000
	movss	DWORD PTR [esp], xmm0
	push	ecx
	movss	xmm0, DWORD PTR __real@3f800000
	movss	DWORD PTR [esp], xmm0
	push	ecx
	movss	xmm0, DWORD PTR __real@00000000
	movss	DWORD PTR [esp], xmm0
	mov	ecx, 12					; 0000000cH
	shl	ecx, 0
	add	ecx, DWORD PTR _this$[ebp]
	call	?Set@Vector3@@QAEXMMM@Z			; Vector3::Set

; 145  : 		Row[2].Set(0.0f,0.0f,1.0f);

	push	ecx
	movss	xmm0, DWORD PTR __real@3f800000
	movss	DWORD PTR [esp], xmm0
	push	ecx
	movss	xmm0, DWORD PTR __real@00000000
	movss	DWORD PTR [esp], xmm0
	push	ecx
	movss	xmm0, DWORD PTR __real@00000000
	movss	DWORD PTR [esp], xmm0
	mov	ecx, 12					; 0000000cH
	shl	ecx, 1
	add	ecx, DWORD PTR _this$[ebp]
	call	?Set@Vector3@@QAEXMMM@Z			; Vector3::Set

; 146  : 	}

	pop	edi
	pop	esi
	pop	ebx
	mov	esp, ebp
	pop	ebp
	ret	0
?Make_Identity@Matrix3@@QAEXXZ ENDP			; Matrix3::Make_Identity
_TEXT	ENDS
; Function compile flags: /Odtp /ZI
; File x:\github\renegade\dragonade_rxd\scripts\matrix3.h
;	COMDAT ??_0Matrix3@@QAEAAV0@M@Z
_TEXT	SEGMENT
_this$ = -4						; size = 4
_d$ = 8							; size = 4
??_0Matrix3@@QAEAAV0@M@Z PROC				; Matrix3::operator/=, COMDAT
; _this$ = ecx

; 137  : 	{

	push	ebp
	mov	ebp, esp
	sub	esp, 68					; 00000044H
	push	ebx
	push	esi
	push	edi
	mov	DWORD PTR _this$[ebp], ecx

; 138  : 		Row[0] /= d; Row[1] /= d; Row[2] /= d; 

	push	ecx
	movss	xmm0, DWORD PTR _d$[ebp]
	movss	DWORD PTR [esp], xmm0
	mov	ecx, 12					; 0000000cH
	imul	ecx, 0
	add	ecx, DWORD PTR _this$[ebp]
	call	??_0Vector3@@QAEAAV0@M@Z		; Vector3::operator/=
	push	ecx
	movss	xmm0, DWORD PTR _d$[ebp]
	movss	DWORD PTR [esp], xmm0
	mov	ecx, 12					; 0000000cH
	shl	ecx, 0
	add	ecx, DWORD PTR _this$[ebp]
	call	??_0Vector3@@QAEAAV0@M@Z		; Vector3::operator/=
	push	ecx
	movss	xmm0, DWORD PTR _d$[ebp]
	movss	DWORD PTR [esp], xmm0
	mov	ecx, 12					; 0000000cH
	shl	ecx, 1
	add	ecx, DWORD PTR _this$[ebp]
	call	??_0Vector3@@QAEAAV0@M@Z		; Vector3::operator/=

; 139  : 		return *this; 

	mov	eax, DWORD PTR _this$[ebp]

; 140  : 	}

	pop	edi
	pop	esi
	pop	ebx
	mov	esp, ebp
	pop	ebp
	ret	4
??_0Matrix3@@QAEAAV0@M@Z ENDP				; Matrix3::operator/=
_TEXT	ENDS
; Function compile flags: /Odtp /ZI
; File x:\github\renegade\dragonade_rxd\scripts\matrix3.h
;	COMDAT ??XMatrix3@@QAEAAV0@M@Z
_TEXT	SEGMENT
_this$ = -4						; size = 4
_d$ = 8							; size = 4
??XMatrix3@@QAEAAV0@M@Z PROC				; Matrix3::operator*=, COMDAT
; _this$ = ecx

; 132  : 	{

	push	ebp
	mov	ebp, esp
	sub	esp, 68					; 00000044H
	push	ebx
	push	esi
	push	edi
	mov	DWORD PTR _this$[ebp], ecx

; 133  : 		Row[0] *= d; Row[1] *= d; Row[2] *= d; 

	push	ecx
	movss	xmm0, DWORD PTR _d$[ebp]
	movss	DWORD PTR [esp], xmm0
	mov	ecx, 12					; 0000000cH
	imul	ecx, 0
	add	ecx, DWORD PTR _this$[ebp]
	call	??XVector3@@QAEAAV0@M@Z			; Vector3::operator*=
	push	ecx
	movss	xmm0, DWORD PTR _d$[ebp]
	movss	DWORD PTR [esp], xmm0
	mov	ecx, 12					; 0000000cH
	shl	ecx, 0
	add	ecx, DWORD PTR _this$[ebp]
	call	??XVector3@@QAEAAV0@M@Z			; Vector3::operator*=
	push	ecx
	movss	xmm0, DWORD PTR _d$[ebp]
	movss	DWORD PTR [esp], xmm0
	mov	ecx, 12					; 0000000cH
	shl	ecx, 1
	add	ecx, DWORD PTR _this$[ebp]
	call	??XVector3@@QAEAAV0@M@Z			; Vector3::operator*=

; 134  : 		return *this; 

	mov	eax, DWORD PTR _this$[ebp]

; 135  : 	}

	pop	edi
	pop	esi
	pop	ebx
	mov	esp, ebp
	pop	ebp
	ret	4
??XMatrix3@@QAEAAV0@M@Z ENDP				; Matrix3::operator*=
_TEXT	ENDS
; Function compile flags: /Odtp /ZI
; File x:\github\renegade\dragonade_rxd\scripts\matrix3.h
;	COMDAT ??ZMatrix3@@QAEAAV0@ABV0@@Z
_TEXT	SEGMENT
_this$ = -4						; size = 4
_m$ = 8							; size = 4
??ZMatrix3@@QAEAAV0@ABV0@@Z PROC			; Matrix3::operator-=, COMDAT
; _this$ = ecx

; 127  : 	{

	push	ebp
	mov	ebp, esp
	sub	esp, 68					; 00000044H
	push	ebx
	push	esi
	push	edi
	mov	DWORD PTR _this$[ebp], ecx

; 128  : 		Row[0] -= m.Row[0]; Row[1] -= m.Row[1]; Row[2] -= m.Row[2]; 

	mov	eax, 12					; 0000000cH
	imul	eax, 0
	add	eax, DWORD PTR _m$[ebp]
	push	eax
	mov	ecx, 12					; 0000000cH
	imul	ecx, 0
	add	ecx, DWORD PTR _this$[ebp]
	call	??ZVector3@@QAEAAV0@ABV0@@Z		; Vector3::operator-=
	mov	eax, 12					; 0000000cH
	shl	eax, 0
	add	eax, DWORD PTR _m$[ebp]
	push	eax
	mov	ecx, 12					; 0000000cH
	shl	ecx, 0
	add	ecx, DWORD PTR _this$[ebp]
	call	??ZVector3@@QAEAAV0@ABV0@@Z		; Vector3::operator-=
	mov	eax, 12					; 0000000cH
	shl	eax, 1
	add	eax, DWORD PTR _m$[ebp]
	push	eax
	mov	ecx, 12					; 0000000cH
	shl	ecx, 1
	add	ecx, DWORD PTR _this$[ebp]
	call	??ZVector3@@QAEAAV0@ABV0@@Z		; Vector3::operator-=

; 129  : 		return *this; 

	mov	eax, DWORD PTR _this$[ebp]

; 130  : 	}

	pop	edi
	pop	esi
	pop	ebx
	mov	esp, ebp
	pop	ebp
	ret	4
??ZMatrix3@@QAEAAV0@ABV0@@Z ENDP			; Matrix3::operator-=
_TEXT	ENDS
; Function compile flags: /Odtp /ZI
; File x:\github\renegade\dragonade_rxd\scripts\matrix3.h
;	COMDAT ??YMatrix3@@QAEAAV0@ABV0@@Z
_TEXT	SEGMENT
_this$ = -4						; size = 4
_m$ = 8							; size = 4
??YMatrix3@@QAEAAV0@ABV0@@Z PROC			; Matrix3::operator+=, COMDAT
; _this$ = ecx

; 122  : 	{

	push	ebp
	mov	ebp, esp
	sub	esp, 68					; 00000044H
	push	ebx
	push	esi
	push	edi
	mov	DWORD PTR _this$[ebp], ecx

; 123  : 		Row[0] += m.Row[0]; Row[1] += m.Row[1]; Row[2] += m.Row[2]; 

	mov	eax, 12					; 0000000cH
	imul	eax, 0
	add	eax, DWORD PTR _m$[ebp]
	push	eax
	mov	ecx, 12					; 0000000cH
	imul	ecx, 0
	add	ecx, DWORD PTR _this$[ebp]
	call	??YVector3@@QAEAAV0@ABV0@@Z		; Vector3::operator+=
	mov	eax, 12					; 0000000cH
	shl	eax, 0
	add	eax, DWORD PTR _m$[ebp]
	push	eax
	mov	ecx, 12					; 0000000cH
	shl	ecx, 0
	add	ecx, DWORD PTR _this$[ebp]
	call	??YVector3@@QAEAAV0@ABV0@@Z		; Vector3::operator+=
	mov	eax, 12					; 0000000cH
	shl	eax, 1
	add	eax, DWORD PTR _m$[ebp]
	push	eax
	mov	ecx, 12					; 0000000cH
	shl	ecx, 1
	add	ecx, DWORD PTR _this$[ebp]
	call	??YVector3@@QAEAAV0@ABV0@@Z		; Vector3::operator+=

; 124  : 		return *this; 

	mov	eax, DWORD PTR _this$[ebp]

; 125  : 	}

	pop	edi
	pop	esi
	pop	ebx
	mov	esp, ebp
	pop	ebp
	ret	4
??YMatrix3@@QAEAAV0@ABV0@@Z ENDP			; Matrix3::operator+=
_TEXT	ENDS
; Function compile flags: /Odtp /ZI
; File x:\github\renegade\dragonade_rxd\scripts\matrix3.h
;	COMDAT ??4Matrix3@@QAEAAV0@ABV0@@Z
_TEXT	SEGMENT
_this$ = -4						; size = 4
_m$ = 8							; size = 4
??4Matrix3@@QAEAAV0@ABV0@@Z PROC			; Matrix3::operator=, COMDAT
; _this$ = ecx

; 115  : 	{

	push	ebp
	mov	ebp, esp
	sub	esp, 68					; 00000044H
	push	ebx
	push	esi
	push	edi
	mov	DWORD PTR _this$[ebp], ecx

; 116  : 		Row[0] = m.Row[0]; Row[1] = m.Row[1]; Row[2] = m.Row[2];

	mov	eax, 12					; 0000000cH
	imul	eax, 0
	add	eax, DWORD PTR _m$[ebp]
	push	eax
	mov	ecx, 12					; 0000000cH
	imul	ecx, 0
	add	ecx, DWORD PTR _this$[ebp]
	call	??4Vector3@@QAEAAV0@ABV0@@Z		; Vector3::operator=
	mov	eax, 12					; 0000000cH
	shl	eax, 0
	add	eax, DWORD PTR _m$[ebp]
	push	eax
	mov	ecx, 12					; 0000000cH
	shl	ecx, 0
	add	ecx, DWORD PTR _this$[ebp]
	call	??4Vector3@@QAEAAV0@ABV0@@Z		; Vector3::operator=
	mov	eax, 12					; 0000000cH
	shl	eax, 1
	add	eax, DWORD PTR _m$[ebp]
	push	eax
	mov	ecx, 12					; 0000000cH
	shl	ecx, 1
	add	ecx, DWORD PTR _this$[ebp]
	call	??4Vector3@@QAEAAV0@ABV0@@Z		; Vector3::operator=

; 117  : 		return *this; 

	mov	eax, DWORD PTR _this$[ebp]

; 118  : 	}

	pop	edi
	pop	esi
	pop	ebx
	mov	esp, ebp
	pop	ebp
	ret	4
??4Matrix3@@QAEAAV0@ABV0@@Z ENDP			; Matrix3::operator=
_TEXT	ENDS
; Function compile flags: /Odtp /ZI
; File x:\github\renegade\dragonade_rxd\scripts\matrix3.h
;	COMDAT ?Determinant@Matrix3@@QBEMXZ
_TEXT	SEGMENT
tv243 = -92						; size = 4
tv255 = -88						; size = 4
tv253 = -84						; size = 4
tv251 = -80						; size = 4
tv249 = -76						; size = 4
tv247 = -72						; size = 4
_this$ = -4						; size = 4
?Determinant@Matrix3@@QBEMXZ PROC			; Matrix3::Determinant, COMDAT
; _this$ = ecx

; 109  : 	{

	push	ebp
	mov	ebp, esp
	sub	esp, 92					; 0000005cH
	push	ebx
	push	esi
	push	edi
	mov	DWORD PTR _this$[ebp], ecx

; 110  : 		return   Row[0][0] * (Row[1][1] * Row[2][2] - Row[1][2] * Row[2][1])
; 111  : 				- Row[0][1] * (Row[1][0] * Row[2][2] - Row[1][2] * Row[2][0])
; 112  : 				- Row[0][2] * (Row[1][0] * Row[2][1] - Row[1][1] * Row[2][0]);

	push	0
	mov	ecx, 12					; 0000000cH
	imul	ecx, 0
	add	ecx, DWORD PTR _this$[ebp]
	call	??AVector3@@QBEABMH@Z			; Vector3::operator[]
	mov	esi, eax
	push	1
	mov	ecx, 12					; 0000000cH
	shl	ecx, 0
	add	ecx, DWORD PTR _this$[ebp]
	call	??AVector3@@QBEABMH@Z			; Vector3::operator[]
	mov	edi, eax
	push	2
	mov	ecx, 12					; 0000000cH
	shl	ecx, 1
	add	ecx, DWORD PTR _this$[ebp]
	call	??AVector3@@QBEABMH@Z			; Vector3::operator[]
	movss	xmm0, DWORD PTR [edi]
	mulss	xmm0, DWORD PTR [eax]
	push	2
	mov	ecx, 12					; 0000000cH
	shl	ecx, 0
	add	ecx, DWORD PTR _this$[ebp]
	movss	DWORD PTR tv247[ebp], xmm0
	call	??AVector3@@QBEABMH@Z			; Vector3::operator[]
	mov	edi, eax
	push	1
	mov	ecx, 12					; 0000000cH
	shl	ecx, 1
	add	ecx, DWORD PTR _this$[ebp]
	call	??AVector3@@QBEABMH@Z			; Vector3::operator[]
	movss	xmm0, DWORD PTR [edi]
	mulss	xmm0, DWORD PTR [eax]
	movss	xmm1, DWORD PTR tv247[ebp]
	subss	xmm1, xmm0
	mulss	xmm1, DWORD PTR [esi]
	push	1
	mov	ecx, 12					; 0000000cH
	imul	ecx, 0
	add	ecx, DWORD PTR _this$[ebp]
	movss	DWORD PTR tv249[ebp], xmm1
	call	??AVector3@@QBEABMH@Z			; Vector3::operator[]
	mov	esi, eax
	push	0
	mov	ecx, 12					; 0000000cH
	shl	ecx, 0
	add	ecx, DWORD PTR _this$[ebp]
	call	??AVector3@@QBEABMH@Z			; Vector3::operator[]
	mov	edi, eax
	push	2
	mov	ecx, 12					; 0000000cH
	shl	ecx, 1
	add	ecx, DWORD PTR _this$[ebp]
	call	??AVector3@@QBEABMH@Z			; Vector3::operator[]
	movss	xmm0, DWORD PTR [edi]
	mulss	xmm0, DWORD PTR [eax]
	push	2
	mov	ecx, 12					; 0000000cH
	shl	ecx, 0
	add	ecx, DWORD PTR _this$[ebp]
	movss	DWORD PTR tv251[ebp], xmm0
	call	??AVector3@@QBEABMH@Z			; Vector3::operator[]
	mov	edi, eax
	push	0
	mov	ecx, 12					; 0000000cH
	shl	ecx, 1
	add	ecx, DWORD PTR _this$[ebp]
	call	??AVector3@@QBEABMH@Z			; Vector3::operator[]
	movss	xmm0, DWORD PTR [edi]
	mulss	xmm0, DWORD PTR [eax]
	movss	xmm1, DWORD PTR tv251[ebp]
	subss	xmm1, xmm0
	mulss	xmm1, DWORD PTR [esi]
	movss	xmm0, DWORD PTR tv249[ebp]
	subss	xmm0, xmm1
	push	2
	mov	ecx, 12					; 0000000cH
	imul	ecx, 0
	add	ecx, DWORD PTR _this$[ebp]
	movss	DWORD PTR tv253[ebp], xmm0
	call	??AVector3@@QBEABMH@Z			; Vector3::operator[]
	mov	esi, eax
	push	0
	mov	ecx, 12					; 0000000cH
	shl	ecx, 0
	add	ecx, DWORD PTR _this$[ebp]
	call	??AVector3@@QBEABMH@Z			; Vector3::operator[]
	mov	edi, eax
	push	1
	mov	ecx, 12					; 0000000cH
	shl	ecx, 1
	add	ecx, DWORD PTR _this$[ebp]
	call	??AVector3@@QBEABMH@Z			; Vector3::operator[]
	movss	xmm0, DWORD PTR [edi]
	mulss	xmm0, DWORD PTR [eax]
	push	1
	mov	ecx, 12					; 0000000cH
	shl	ecx, 0
	add	ecx, DWORD PTR _this$[ebp]
	movss	DWORD PTR tv255[ebp], xmm0
	call	??AVector3@@QBEABMH@Z			; Vector3::operator[]
	mov	edi, eax
	push	0
	mov	ecx, 12					; 0000000cH
	shl	ecx, 1
	add	ecx, DWORD PTR _this$[ebp]
	call	??AVector3@@QBEABMH@Z			; Vector3::operator[]
	movss	xmm0, DWORD PTR [edi]
	mulss	xmm0, DWORD PTR [eax]
	movss	xmm1, DWORD PTR tv255[ebp]
	subss	xmm1, xmm0
	mulss	xmm1, DWORD PTR [esi]
	movss	xmm0, DWORD PTR tv253[ebp]
	subss	xmm0, xmm1
	movss	DWORD PTR tv243[ebp], xmm0
	fld	DWORD PTR tv243[ebp]

; 113  : 	}

	pop	edi
	pop	esi
	pop	ebx
	mov	esp, ebp
	pop	ebp
	ret	0
?Determinant@Matrix3@@QBEMXZ ENDP			; Matrix3::Determinant
_TEXT	ENDS
; Function compile flags: /Odtp /ZI
; File x:\github\renegade\dragonade_rxd\scripts\matrix3.h
;	COMDAT ?Transpose@Matrix3@@QBE?AV1@XZ
_TEXT	SEGMENT
$T1 = -104						; size = 12
$T2 = -92						; size = 12
$T3 = -80						; size = 12
_this$ = -4						; size = 4
___$ReturnUdt$ = 8					; size = 4
?Transpose@Matrix3@@QBE?AV1@XZ PROC			; Matrix3::Transpose, COMDAT
; _this$ = ecx

; 101  : 	{

	push	ebp
	mov	ebp, esp
	sub	esp, 104				; 00000068H
	push	ebx
	push	esi
	push	edi
	mov	DWORD PTR _this$[ebp], ecx

; 102  : 		return Matrix3(
; 103  : 				Vector3(Row[0][0], Row[1][0], Row[2][0]),
; 104  : 				Vector3(Row[0][1], Row[1][1], Row[2][1]),
; 105  : 				Vector3(Row[0][2], Row[1][2], Row[2][2])
; 106  : 		);

	push	2
	mov	ecx, 12					; 0000000cH
	shl	ecx, 1
	add	ecx, DWORD PTR _this$[ebp]
	call	??AVector3@@QBEABMH@Z			; Vector3::operator[]
	push	ecx
	movss	xmm0, DWORD PTR [eax]
	movss	DWORD PTR [esp], xmm0
	push	2
	mov	ecx, 12					; 0000000cH
	shl	ecx, 0
	add	ecx, DWORD PTR _this$[ebp]
	call	??AVector3@@QBEABMH@Z			; Vector3::operator[]
	push	ecx
	movss	xmm0, DWORD PTR [eax]
	movss	DWORD PTR [esp], xmm0
	push	2
	mov	ecx, 12					; 0000000cH
	imul	ecx, 0
	add	ecx, DWORD PTR _this$[ebp]
	call	??AVector3@@QBEABMH@Z			; Vector3::operator[]
	push	ecx
	movss	xmm0, DWORD PTR [eax]
	movss	DWORD PTR [esp], xmm0
	lea	ecx, DWORD PTR $T1[ebp]
	call	??0Vector3@@QAE@MMM@Z			; Vector3::Vector3
	push	eax
	push	1
	mov	ecx, 12					; 0000000cH
	shl	ecx, 1
	add	ecx, DWORD PTR _this$[ebp]
	call	??AVector3@@QBEABMH@Z			; Vector3::operator[]
	push	ecx
	movss	xmm0, DWORD PTR [eax]
	movss	DWORD PTR [esp], xmm0
	push	1
	mov	ecx, 12					; 0000000cH
	shl	ecx, 0
	add	ecx, DWORD PTR _this$[ebp]
	call	??AVector3@@QBEABMH@Z			; Vector3::operator[]
	push	ecx
	movss	xmm0, DWORD PTR [eax]
	movss	DWORD PTR [esp], xmm0
	push	1
	mov	ecx, 12					; 0000000cH
	imul	ecx, 0
	add	ecx, DWORD PTR _this$[ebp]
	call	??AVector3@@QBEABMH@Z			; Vector3::operator[]
	push	ecx
	movss	xmm0, DWORD PTR [eax]
	movss	DWORD PTR [esp], xmm0
	lea	ecx, DWORD PTR $T2[ebp]
	call	??0Vector3@@QAE@MMM@Z			; Vector3::Vector3
	push	eax
	push	0
	mov	ecx, 12					; 0000000cH
	shl	ecx, 1
	add	ecx, DWORD PTR _this$[ebp]
	call	??AVector3@@QBEABMH@Z			; Vector3::operator[]
	push	ecx
	movss	xmm0, DWORD PTR [eax]
	movss	DWORD PTR [esp], xmm0
	push	0
	mov	ecx, 12					; 0000000cH
	shl	ecx, 0
	add	ecx, DWORD PTR _this$[ebp]
	call	??AVector3@@QBEABMH@Z			; Vector3::operator[]
	push	ecx
	movss	xmm0, DWORD PTR [eax]
	movss	DWORD PTR [esp], xmm0
	push	0
	mov	ecx, 12					; 0000000cH
	imul	ecx, 0
	add	ecx, DWORD PTR _this$[ebp]
	call	??AVector3@@QBEABMH@Z			; Vector3::operator[]
	push	ecx
	movss	xmm0, DWORD PTR [eax]
	movss	DWORD PTR [esp], xmm0
	lea	ecx, DWORD PTR $T3[ebp]
	call	??0Vector3@@QAE@MMM@Z			; Vector3::Vector3
	push	eax
	mov	ecx, DWORD PTR ___$ReturnUdt$[ebp]
	call	??0Matrix3@@QAE@ABVVector3@@00@Z	; Matrix3::Matrix3
	mov	eax, DWORD PTR ___$ReturnUdt$[ebp]

; 107  : 	}

	pop	edi
	pop	esi
	pop	ebx
	mov	esp, ebp
	pop	ebp
	ret	4
?Transpose@Matrix3@@QBE?AV1@XZ ENDP			; Matrix3::Transpose
_TEXT	ENDS
; Function compile flags: /Odtp /ZI
; File x:\github\renegade\dragonade_rxd\scripts\matrix3.h
;	COMDAT ??AMatrix3@@QBEABVVector3@@H@Z
_TEXT	SEGMENT
_this$ = -4						; size = 4
_i$ = 8							; size = 4
??AMatrix3@@QBEABVVector3@@H@Z PROC			; Matrix3::operator[], COMDAT
; _this$ = ecx

; 99   : 	TT_INLINE const Vector3 & operator [] (int i) const { return Row[i]; }

	push	ebp
	mov	ebp, esp
	sub	esp, 68					; 00000044H
	push	ebx
	push	esi
	push	edi
	mov	DWORD PTR _this$[ebp], ecx
	mov	eax, DWORD PTR _i$[ebp]
	imul	eax, 12					; 0000000cH
	add	eax, DWORD PTR _this$[ebp]
	pop	edi
	pop	esi
	pop	ebx
	mov	esp, ebp
	pop	ebp
	ret	4
??AMatrix3@@QBEABVVector3@@H@Z ENDP			; Matrix3::operator[]
_TEXT	ENDS
; Function compile flags: /Odtp /ZI
; File x:\github\renegade\dragonade_rxd\scripts\matrix3.h
;	COMDAT ??AMatrix3@@QAEAAVVector3@@H@Z
_TEXT	SEGMENT
_this$ = -4						; size = 4
_i$ = 8							; size = 4
??AMatrix3@@QAEAAVVector3@@H@Z PROC			; Matrix3::operator[], COMDAT
; _this$ = ecx

; 98   : 	TT_INLINE Vector3 & operator [] (int i) { return Row[i]; }

	push	ebp
	mov	ebp, esp
	sub	esp, 68					; 00000044H
	push	ebx
	push	esi
	push	edi
	mov	DWORD PTR _this$[ebp], ecx
	mov	eax, DWORD PTR _i$[ebp]
	imul	eax, 12					; 0000000cH
	add	eax, DWORD PTR _this$[ebp]
	pop	edi
	pop	esi
	pop	ebx
	mov	esp, ebp
	pop	ebp
	ret	4
??AMatrix3@@QAEAAVVector3@@H@Z ENDP			; Matrix3::operator[]
_TEXT	ENDS
; Function compile flags: /Odtp /ZI
; File x:\github\renegade\dragonade_rxd\scripts\matrix3.h
;	COMDAT ?Set@Matrix3@@QAEXABVVector3@@MM@Z
_TEXT	SEGMENT
tv359 = -80						; size = 4
tv353 = -80						; size = 4
tv347 = -80						; size = 4
tv357 = -76						; size = 4
tv351 = -76						; size = 4
tv345 = -76						; size = 4
tv355 = -72						; size = 4
tv349 = -72						; size = 4
tv343 = -72						; size = 4
_this$ = -4						; size = 4
_axis$ = 8						; size = 4
_s$ = 12						; size = 4
_c$ = 16						; size = 4
?Set@Matrix3@@QAEXABVVector3@@MM@Z PROC			; Matrix3::Set, COMDAT
; _this$ = ecx

; 80   : 	{

	push	ebp
	mov	ebp, esp
	sub	esp, 80					; 00000050H
	push	ebx
	push	esi
	push	edi
	mov	DWORD PTR _this$[ebp], ecx

; 81   : 		Row[0].Set(
; 82   : 			(float)(axis[0]*axis[0] + c*(1.0f - axis[0]*axis[0])),
; 83   : 			(float)(axis[0]*axis[1]*(1.0f - c) - axis[2]*s),
; 84   : 			(float)(axis[2]*axis[0]*(1.0f - c) + axis[1]*s)
; 85   : 		);

	push	2
	mov	ecx, DWORD PTR _axis$[ebp]
	call	??AVector3@@QBEABMH@Z			; Vector3::operator[]
	mov	esi, eax
	push	0
	mov	ecx, DWORD PTR _axis$[ebp]
	call	??AVector3@@QBEABMH@Z			; Vector3::operator[]
	movss	xmm0, DWORD PTR [esi]
	mulss	xmm0, DWORD PTR [eax]
	movss	xmm1, DWORD PTR __real@3f800000
	subss	xmm1, DWORD PTR _c$[ebp]
	mulss	xmm0, xmm1
	push	1
	mov	ecx, DWORD PTR _axis$[ebp]
	movss	DWORD PTR tv343[ebp], xmm0
	call	??AVector3@@QBEABMH@Z			; Vector3::operator[]
	movss	xmm0, DWORD PTR [eax]
	mulss	xmm0, DWORD PTR _s$[ebp]
	movss	xmm1, DWORD PTR tv343[ebp]
	addss	xmm1, xmm0
	push	ecx
	movss	DWORD PTR [esp], xmm1
	push	0
	mov	ecx, DWORD PTR _axis$[ebp]
	call	??AVector3@@QBEABMH@Z			; Vector3::operator[]
	mov	esi, eax
	push	1
	mov	ecx, DWORD PTR _axis$[ebp]
	call	??AVector3@@QBEABMH@Z			; Vector3::operator[]
	movss	xmm0, DWORD PTR [esi]
	mulss	xmm0, DWORD PTR [eax]
	movss	xmm1, DWORD PTR __real@3f800000
	subss	xmm1, DWORD PTR _c$[ebp]
	mulss	xmm0, xmm1
	push	2
	mov	ecx, DWORD PTR _axis$[ebp]
	movss	DWORD PTR tv345[ebp], xmm0
	call	??AVector3@@QBEABMH@Z			; Vector3::operator[]
	movss	xmm0, DWORD PTR [eax]
	mulss	xmm0, DWORD PTR _s$[ebp]
	movss	xmm1, DWORD PTR tv345[ebp]
	subss	xmm1, xmm0
	push	ecx
	movss	DWORD PTR [esp], xmm1
	push	0
	mov	ecx, DWORD PTR _axis$[ebp]
	call	??AVector3@@QBEABMH@Z			; Vector3::operator[]
	mov	esi, eax
	push	0
	mov	ecx, DWORD PTR _axis$[ebp]
	call	??AVector3@@QBEABMH@Z			; Vector3::operator[]
	movss	xmm0, DWORD PTR [esi]
	mulss	xmm0, DWORD PTR [eax]
	push	0
	mov	ecx, DWORD PTR _axis$[ebp]
	movss	DWORD PTR tv347[ebp], xmm0
	call	??AVector3@@QBEABMH@Z			; Vector3::operator[]
	mov	esi, eax
	push	0
	mov	ecx, DWORD PTR _axis$[ebp]
	call	??AVector3@@QBEABMH@Z			; Vector3::operator[]
	movss	xmm0, DWORD PTR [esi]
	mulss	xmm0, DWORD PTR [eax]
	movss	xmm1, DWORD PTR __real@3f800000
	subss	xmm1, xmm0
	mulss	xmm1, DWORD PTR _c$[ebp]
	movss	xmm0, DWORD PTR tv347[ebp]
	addss	xmm0, xmm1
	push	ecx
	movss	DWORD PTR [esp], xmm0
	mov	ecx, 12					; 0000000cH
	imul	ecx, 0
	add	ecx, DWORD PTR _this$[ebp]
	call	?Set@Vector3@@QAEXMMM@Z			; Vector3::Set

; 86   : 		Row[1].Set(
; 87   : 			(float)(axis[0]*axis[1]*(1.0f - c) + axis[2]*s),
; 88   : 			(float)(axis[1]*axis[1] + c*(1.0f - axis[1]*axis[1])),
; 89   : 			(float)(axis[1]*axis[2]*(1.0f - c) - axis[0]*s)
; 90   : 		);

	push	1
	mov	ecx, DWORD PTR _axis$[ebp]
	call	??AVector3@@QBEABMH@Z			; Vector3::operator[]
	mov	esi, eax
	push	2
	mov	ecx, DWORD PTR _axis$[ebp]
	call	??AVector3@@QBEABMH@Z			; Vector3::operator[]
	movss	xmm0, DWORD PTR [esi]
	mulss	xmm0, DWORD PTR [eax]
	movss	xmm1, DWORD PTR __real@3f800000
	subss	xmm1, DWORD PTR _c$[ebp]
	mulss	xmm0, xmm1
	push	0
	mov	ecx, DWORD PTR _axis$[ebp]
	movss	DWORD PTR tv349[ebp], xmm0
	call	??AVector3@@QBEABMH@Z			; Vector3::operator[]
	movss	xmm0, DWORD PTR [eax]
	mulss	xmm0, DWORD PTR _s$[ebp]
	movss	xmm1, DWORD PTR tv349[ebp]
	subss	xmm1, xmm0
	push	ecx
	movss	DWORD PTR [esp], xmm1
	push	1
	mov	ecx, DWORD PTR _axis$[ebp]
	call	??AVector3@@QBEABMH@Z			; Vector3::operator[]
	mov	esi, eax
	push	1
	mov	ecx, DWORD PTR _axis$[ebp]
	call	??AVector3@@QBEABMH@Z			; Vector3::operator[]
	movss	xmm0, DWORD PTR [esi]
	mulss	xmm0, DWORD PTR [eax]
	push	1
	mov	ecx, DWORD PTR _axis$[ebp]
	movss	DWORD PTR tv351[ebp], xmm0
	call	??AVector3@@QBEABMH@Z			; Vector3::operator[]
	mov	esi, eax
	push	1
	mov	ecx, DWORD PTR _axis$[ebp]
	call	??AVector3@@QBEABMH@Z			; Vector3::operator[]
	movss	xmm0, DWORD PTR [esi]
	mulss	xmm0, DWORD PTR [eax]
	movss	xmm1, DWORD PTR __real@3f800000
	subss	xmm1, xmm0
	mulss	xmm1, DWORD PTR _c$[ebp]
	movss	xmm0, DWORD PTR tv351[ebp]
	addss	xmm0, xmm1
	push	ecx
	movss	DWORD PTR [esp], xmm0
	push	0
	mov	ecx, DWORD PTR _axis$[ebp]
	call	??AVector3@@QBEABMH@Z			; Vector3::operator[]
	mov	esi, eax
	push	1
	mov	ecx, DWORD PTR _axis$[ebp]
	call	??AVector3@@QBEABMH@Z			; Vector3::operator[]
	movss	xmm0, DWORD PTR [esi]
	mulss	xmm0, DWORD PTR [eax]
	movss	xmm1, DWORD PTR __real@3f800000
	subss	xmm1, DWORD PTR _c$[ebp]
	mulss	xmm0, xmm1
	push	2
	mov	ecx, DWORD PTR _axis$[ebp]
	movss	DWORD PTR tv353[ebp], xmm0
	call	??AVector3@@QBEABMH@Z			; Vector3::operator[]
	movss	xmm0, DWORD PTR [eax]
	mulss	xmm0, DWORD PTR _s$[ebp]
	movss	xmm1, DWORD PTR tv353[ebp]
	addss	xmm1, xmm0
	push	ecx
	movss	DWORD PTR [esp], xmm1
	mov	ecx, 12					; 0000000cH
	shl	ecx, 0
	add	ecx, DWORD PTR _this$[ebp]
	call	?Set@Vector3@@QAEXMMM@Z			; Vector3::Set

; 91   : 	Row[2].Set(
; 92   : 			(float)(axis[2]*axis[0]*(1.0f - c) - axis[1]*s),
; 93   : 			(float)(axis[1]*axis[2]*(1.0f - c) + axis[0]*s),
; 94   : 			(float)(axis[2]*axis[2] + c*(1 - axis[2]*axis[2]))
; 95   : 		);

	push	2
	mov	ecx, DWORD PTR _axis$[ebp]
	call	??AVector3@@QBEABMH@Z			; Vector3::operator[]
	mov	esi, eax
	push	2
	mov	ecx, DWORD PTR _axis$[ebp]
	call	??AVector3@@QBEABMH@Z			; Vector3::operator[]
	movss	xmm0, DWORD PTR [esi]
	mulss	xmm0, DWORD PTR [eax]
	push	2
	mov	ecx, DWORD PTR _axis$[ebp]
	movss	DWORD PTR tv355[ebp], xmm0
	call	??AVector3@@QBEABMH@Z			; Vector3::operator[]
	mov	esi, eax
	push	2
	mov	ecx, DWORD PTR _axis$[ebp]
	call	??AVector3@@QBEABMH@Z			; Vector3::operator[]
	movss	xmm0, DWORD PTR [esi]
	mulss	xmm0, DWORD PTR [eax]
	movss	xmm1, DWORD PTR __real@3f800000
	subss	xmm1, xmm0
	mulss	xmm1, DWORD PTR _c$[ebp]
	movss	xmm0, DWORD PTR tv355[ebp]
	addss	xmm0, xmm1
	push	ecx
	movss	DWORD PTR [esp], xmm0
	push	1
	mov	ecx, DWORD PTR _axis$[ebp]
	call	??AVector3@@QBEABMH@Z			; Vector3::operator[]
	mov	esi, eax
	push	2
	mov	ecx, DWORD PTR _axis$[ebp]
	call	??AVector3@@QBEABMH@Z			; Vector3::operator[]
	movss	xmm0, DWORD PTR [esi]
	mulss	xmm0, DWORD PTR [eax]
	movss	xmm1, DWORD PTR __real@3f800000
	subss	xmm1, DWORD PTR _c$[ebp]
	mulss	xmm0, xmm1
	push	0
	mov	ecx, DWORD PTR _axis$[ebp]
	movss	DWORD PTR tv357[ebp], xmm0
	call	??AVector3@@QBEABMH@Z			; Vector3::operator[]
	movss	xmm0, DWORD PTR [eax]
	mulss	xmm0, DWORD PTR _s$[ebp]
	movss	xmm1, DWORD PTR tv357[ebp]
	addss	xmm1, xmm0
	push	ecx
	movss	DWORD PTR [esp], xmm1
	push	2
	mov	ecx, DWORD PTR _axis$[ebp]
	call	??AVector3@@QBEABMH@Z			; Vector3::operator[]
	mov	esi, eax
	push	0
	mov	ecx, DWORD PTR _axis$[ebp]
	call	??AVector3@@QBEABMH@Z			; Vector3::operator[]
	movss	xmm0, DWORD PTR [esi]
	mulss	xmm0, DWORD PTR [eax]
	movss	xmm1, DWORD PTR __real@3f800000
	subss	xmm1, DWORD PTR _c$[ebp]
	mulss	xmm0, xmm1
	push	1
	mov	ecx, DWORD PTR _axis$[ebp]
	movss	DWORD PTR tv359[ebp], xmm0
	call	??AVector3@@QBEABMH@Z			; Vector3::operator[]
	movss	xmm0, DWORD PTR [eax]
	mulss	xmm0, DWORD PTR _s$[ebp]
	movss	xmm1, DWORD PTR tv359[ebp]
	subss	xmm1, xmm0
	push	ecx
	movss	DWORD PTR [esp], xmm1
	mov	ecx, 12					; 0000000cH
	shl	ecx, 1
	add	ecx, DWORD PTR _this$[ebp]
	call	?Set@Vector3@@QAEXMMM@Z			; Vector3::Set

; 96   : 	}

	pop	edi
	pop	esi
	pop	ebx
	mov	esp, ebp
	pop	ebp
	ret	12					; 0000000cH
?Set@Matrix3@@QAEXABVVector3@@MM@Z ENDP			; Matrix3::Set
_TEXT	ENDS
; Function compile flags: /Odtp /ZI
; File x:\github\renegade\dragonade_rxd\scripts\matrix3.h
;	COMDAT ?Set@Matrix3@@QAEXABVVector3@@M@Z
_TEXT	SEGMENT
_this$ = -4						; size = 4
_axis$ = 8						; size = 4
_angle$ = 12						; size = 4
?Set@Matrix3@@QAEXABVVector3@@M@Z PROC			; Matrix3::Set, COMDAT
; _this$ = ecx

; 76   : 	{

	push	ebp
	mov	ebp, esp
	sub	esp, 68					; 00000044H
	push	ebx
	push	esi
	push	edi
	mov	DWORD PTR _this$[ebp], ecx

; 77   : 		Set(axis,sinf(angle),cosf(angle));

	push	ecx
	movss	xmm0, DWORD PTR _angle$[ebp]
	movss	DWORD PTR [esp], xmm0
	call	_cosf
	fstp	DWORD PTR [esp]
	push	ecx
	movss	xmm0, DWORD PTR _angle$[ebp]
	movss	DWORD PTR [esp], xmm0
	call	_sinf
	fstp	DWORD PTR [esp]
	mov	eax, DWORD PTR _axis$[ebp]
	push	eax
	mov	ecx, DWORD PTR _this$[ebp]
	call	?Set@Matrix3@@QAEXABVVector3@@MM@Z	; Matrix3::Set

; 78   : 	}

	pop	edi
	pop	esi
	pop	ebx
	mov	esp, ebp
	pop	ebp
	ret	8
?Set@Matrix3@@QAEXABVVector3@@M@Z ENDP			; Matrix3::Set
_TEXT	ENDS
; Function compile flags: /Odtp /ZI
; File x:\github\renegade\dragonade_rxd\scripts\matrix3.h
;	COMDAT ?Set@Matrix3@@QAEXMMMMMMMMM@Z
_TEXT	SEGMENT
_this$ = -4						; size = 4
_m11$ = 8						; size = 4
_m12$ = 12						; size = 4
_m13$ = 16						; size = 4
_m21$ = 20						; size = 4
_m22$ = 24						; size = 4
_m23$ = 28						; size = 4
_m31$ = 32						; size = 4
_m32$ = 36						; size = 4
_m33$ = 40						; size = 4
?Set@Matrix3@@QAEXMMMMMMMMM@Z PROC			; Matrix3::Set, COMDAT
; _this$ = ecx

; 70   : 	{

	push	ebp
	mov	ebp, esp
	sub	esp, 68					; 00000044H
	push	ebx
	push	esi
	push	edi
	mov	DWORD PTR _this$[ebp], ecx

; 71   : 		Row[0].Set(m11,m12,m13);

	push	ecx
	movss	xmm0, DWORD PTR _m13$[ebp]
	movss	DWORD PTR [esp], xmm0
	push	ecx
	movss	xmm0, DWORD PTR _m12$[ebp]
	movss	DWORD PTR [esp], xmm0
	push	ecx
	movss	xmm0, DWORD PTR _m11$[ebp]
	movss	DWORD PTR [esp], xmm0
	mov	ecx, 12					; 0000000cH
	imul	ecx, 0
	add	ecx, DWORD PTR _this$[ebp]
	call	?Set@Vector3@@QAEXMMM@Z			; Vector3::Set

; 72   : 		Row[1].Set(m21,m22,m23);

	push	ecx
	movss	xmm0, DWORD PTR _m23$[ebp]
	movss	DWORD PTR [esp], xmm0
	push	ecx
	movss	xmm0, DWORD PTR _m22$[ebp]
	movss	DWORD PTR [esp], xmm0
	push	ecx
	movss	xmm0, DWORD PTR _m21$[ebp]
	movss	DWORD PTR [esp], xmm0
	mov	ecx, 12					; 0000000cH
	shl	ecx, 0
	add	ecx, DWORD PTR _this$[ebp]
	call	?Set@Vector3@@QAEXMMM@Z			; Vector3::Set

; 73   : 		Row[2].Set(m31,m32,m33);

	push	ecx
	movss	xmm0, DWORD PTR _m33$[ebp]
	movss	DWORD PTR [esp], xmm0
	push	ecx
	movss	xmm0, DWORD PTR _m32$[ebp]
	movss	DWORD PTR [esp], xmm0
	push	ecx
	movss	xmm0, DWORD PTR _m31$[ebp]
	movss	DWORD PTR [esp], xmm0
	mov	ecx, 12					; 0000000cH
	shl	ecx, 1
	add	ecx, DWORD PTR _this$[ebp]
	call	?Set@Vector3@@QAEXMMM@Z			; Vector3::Set

; 74   : 	}

	pop	edi
	pop	esi
	pop	ebx
	mov	esp, ebp
	pop	ebp
	ret	36					; 00000024H
?Set@Matrix3@@QAEXMMMMMMMMM@Z ENDP			; Matrix3::Set
_TEXT	ENDS
; Function compile flags: /Odtp /ZI
; File x:\github\renegade\dragonade_rxd\scripts\matrix3.h
;	COMDAT ?Set@Matrix3@@QAEXABVVector3@@00@Z
_TEXT	SEGMENT
_this$ = -4						; size = 4
_v0$ = 8						; size = 4
_v1$ = 12						; size = 4
_v2$ = 16						; size = 4
?Set@Matrix3@@QAEXABVVector3@@00@Z PROC			; Matrix3::Set, COMDAT
; _this$ = ecx

; 64   : 	{ 

	push	ebp
	mov	ebp, esp
	sub	esp, 68					; 00000044H
	push	ebx
	push	esi
	push	edi
	mov	DWORD PTR _this$[ebp], ecx

; 65   : 		Row[0] = v0; 

	mov	eax, DWORD PTR _v0$[ebp]
	push	eax
	mov	ecx, 12					; 0000000cH
	imul	ecx, 0
	add	ecx, DWORD PTR _this$[ebp]
	call	??4Vector3@@QAEAAV0@ABV0@@Z		; Vector3::operator=

; 66   : 		Row[1] = v1; 

	mov	eax, DWORD PTR _v1$[ebp]
	push	eax
	mov	ecx, 12					; 0000000cH
	shl	ecx, 0
	add	ecx, DWORD PTR _this$[ebp]
	call	??4Vector3@@QAEAAV0@ABV0@@Z		; Vector3::operator=

; 67   : 		Row[2] = v2; 

	mov	eax, DWORD PTR _v2$[ebp]
	push	eax
	mov	ecx, 12					; 0000000cH
	shl	ecx, 1
	add	ecx, DWORD PTR _this$[ebp]
	call	??4Vector3@@QAEAAV0@ABV0@@Z		; Vector3::operator=

; 68   : 	}

	pop	edi
	pop	esi
	pop	ebx
	mov	esp, ebp
	pop	ebp
	ret	12					; 0000000cH
?Set@Matrix3@@QAEXABVVector3@@00@Z ENDP			; Matrix3::Set
_TEXT	ENDS
; Function compile flags: /Odtp /ZI
; File x:\github\renegade\dragonade_rxd\scripts\matrix3.h
;	COMDAT ??0Matrix3@@QAE@ABVQuaternion@@@Z
_TEXT	SEGMENT
_this$ = -4						; size = 4
_q$ = 8							; size = 4
??0Matrix3@@QAE@ABVQuaternion@@@Z PROC			; Matrix3::Matrix3, COMDAT
; _this$ = ecx

; 57   : 	TT_INLINE Matrix3(const Quaternion & q)

	push	ebp
	mov	ebp, esp
	sub	esp, 68					; 00000044H
	push	ebx
	push	esi
	push	edi
	mov	DWORD PTR _this$[ebp], ecx
	push	OFFSET ??0Vector3@@QAE@XZ		; Vector3::Vector3
	push	3
	push	12					; 0000000cH
	mov	eax, DWORD PTR _this$[ebp]
	push	eax
	call	??_H@YGXPAXIHP6EPAX0@Z@Z

; 58   : 	{
; 59   : 		this->Set(q);

	mov	eax, DWORD PTR _q$[ebp]
	push	eax
	mov	ecx, DWORD PTR _this$[ebp]
	call	?Set@Matrix3@@QAEXABVQuaternion@@@Z	; Matrix3::Set

; 60   : 	}

	mov	eax, DWORD PTR _this$[ebp]
	pop	edi
	pop	esi
	pop	ebx
	mov	esp, ebp
	pop	ebp
	ret	4
??0Matrix3@@QAE@ABVQuaternion@@@Z ENDP			; Matrix3::Matrix3
_TEXT	ENDS
; Function compile flags: /Odtp /ZI
; File x:\github\renegade\dragonade_rxd\scripts\matrix3.h
;	COMDAT ??0Matrix3@@QAE@ABVVector3@@MM@Z
_TEXT	SEGMENT
_this$ = -4						; size = 4
_axis$ = 8						; size = 4
_s_angle$ = 12						; size = 4
_c_angle$ = 16						; size = 4
??0Matrix3@@QAE@ABVVector3@@MM@Z PROC			; Matrix3::Matrix3, COMDAT
; _this$ = ecx

; 53   : 	TT_INLINE explicit Matrix3(const Vector3 & axis,float s_angle,float c_angle)

	push	ebp
	mov	ebp, esp
	sub	esp, 68					; 00000044H
	push	ebx
	push	esi
	push	edi
	mov	DWORD PTR _this$[ebp], ecx
	push	OFFSET ??0Vector3@@QAE@XZ		; Vector3::Vector3
	push	3
	push	12					; 0000000cH
	mov	eax, DWORD PTR _this$[ebp]
	push	eax
	call	??_H@YGXPAXIHP6EPAX0@Z@Z

; 54   : 	{ 
; 55   : 		Set(axis,s_angle,c_angle); 

	push	ecx
	movss	xmm0, DWORD PTR _c_angle$[ebp]
	movss	DWORD PTR [esp], xmm0
	push	ecx
	movss	xmm0, DWORD PTR _s_angle$[ebp]
	movss	DWORD PTR [esp], xmm0
	mov	eax, DWORD PTR _axis$[ebp]
	push	eax
	mov	ecx, DWORD PTR _this$[ebp]
	call	?Set@Matrix3@@QAEXABVVector3@@MM@Z	; Matrix3::Set

; 56   : 	}

	mov	eax, DWORD PTR _this$[ebp]
	pop	edi
	pop	esi
	pop	ebx
	mov	esp, ebp
	pop	ebp
	ret	12					; 0000000cH
??0Matrix3@@QAE@ABVVector3@@MM@Z ENDP			; Matrix3::Matrix3
_TEXT	ENDS
; Function compile flags: /Odtp /ZI
; File x:\github\renegade\dragonade_rxd\scripts\matrix3.h
;	COMDAT ??0Matrix3@@QAE@ABVVector3@@M@Z
_TEXT	SEGMENT
_this$ = -4						; size = 4
_axis$ = 8						; size = 4
_angle$ = 12						; size = 4
??0Matrix3@@QAE@ABVVector3@@M@Z PROC			; Matrix3::Matrix3, COMDAT
; _this$ = ecx

; 49   : 	TT_INLINE explicit Matrix3(const Vector3 & axis,float angle)

	push	ebp
	mov	ebp, esp
	sub	esp, 68					; 00000044H
	push	ebx
	push	esi
	push	edi
	mov	DWORD PTR _this$[ebp], ecx
	push	OFFSET ??0Vector3@@QAE@XZ		; Vector3::Vector3
	push	3
	push	12					; 0000000cH
	mov	eax, DWORD PTR _this$[ebp]
	push	eax
	call	??_H@YGXPAXIHP6EPAX0@Z@Z

; 50   : 	{ 
; 51   : 		Set(axis,angle); 

	push	ecx
	movss	xmm0, DWORD PTR _angle$[ebp]
	movss	DWORD PTR [esp], xmm0
	mov	eax, DWORD PTR _axis$[ebp]
	push	eax
	mov	ecx, DWORD PTR _this$[ebp]
	call	?Set@Matrix3@@QAEXABVVector3@@M@Z	; Matrix3::Set

; 52   : 	}

	mov	eax, DWORD PTR _this$[ebp]
	pop	edi
	pop	esi
	pop	ebx
	mov	esp, ebp
	pop	ebp
	ret	8
??0Matrix3@@QAE@ABVVector3@@M@Z ENDP			; Matrix3::Matrix3
_TEXT	ENDS
; Function compile flags: /Odtp /ZI
; File x:\github\renegade\dragonade_rxd\scripts\matrix3.h
;	COMDAT ??0Matrix3@@QAE@MMMMMMMMM@Z
_TEXT	SEGMENT
_this$ = -4						; size = 4
_m11$ = 8						; size = 4
_m12$ = 12						; size = 4
_m13$ = 16						; size = 4
_m21$ = 20						; size = 4
_m22$ = 24						; size = 4
_m23$ = 28						; size = 4
_m31$ = 32						; size = 4
_m32$ = 36						; size = 4
_m33$ = 40						; size = 4
??0Matrix3@@QAE@MMMMMMMMM@Z PROC			; Matrix3::Matrix3, COMDAT
; _this$ = ecx

; 43   : 	TT_INLINE explicit Matrix3(float m11,float m12,float m13,float m21,float m22,float m23,float m31,float m32,float m33)

	push	ebp
	mov	ebp, esp
	sub	esp, 68					; 00000044H
	push	ebx
	push	esi
	push	edi
	mov	DWORD PTR _this$[ebp], ecx
	push	OFFSET ??0Vector3@@QAE@XZ		; Vector3::Vector3
	push	3
	push	12					; 0000000cH
	mov	eax, DWORD PTR _this$[ebp]
	push	eax
	call	??_H@YGXPAXIHP6EPAX0@Z@Z

; 44   : 	{
; 45   : 		Row[0].Set(m11,m12,m13);

	push	ecx
	movss	xmm0, DWORD PTR _m13$[ebp]
	movss	DWORD PTR [esp], xmm0
	push	ecx
	movss	xmm0, DWORD PTR _m12$[ebp]
	movss	DWORD PTR [esp], xmm0
	push	ecx
	movss	xmm0, DWORD PTR _m11$[ebp]
	movss	DWORD PTR [esp], xmm0
	mov	ecx, 12					; 0000000cH
	imul	ecx, 0
	add	ecx, DWORD PTR _this$[ebp]
	call	?Set@Vector3@@QAEXMMM@Z			; Vector3::Set

; 46   : 		Row[1].Set(m21,m22,m23);

	push	ecx
	movss	xmm0, DWORD PTR _m23$[ebp]
	movss	DWORD PTR [esp], xmm0
	push	ecx
	movss	xmm0, DWORD PTR _m22$[ebp]
	movss	DWORD PTR [esp], xmm0
	push	ecx
	movss	xmm0, DWORD PTR _m21$[ebp]
	movss	DWORD PTR [esp], xmm0
	mov	ecx, 12					; 0000000cH
	shl	ecx, 0
	add	ecx, DWORD PTR _this$[ebp]
	call	?Set@Vector3@@QAEXMMM@Z			; Vector3::Set

; 47   : 		Row[2].Set(m31,m32,m33);

	push	ecx
	movss	xmm0, DWORD PTR _m33$[ebp]
	movss	DWORD PTR [esp], xmm0
	push	ecx
	movss	xmm0, DWORD PTR _m32$[ebp]
	movss	DWORD PTR [esp], xmm0
	push	ecx
	movss	xmm0, DWORD PTR _m31$[ebp]
	movss	DWORD PTR [esp], xmm0
	mov	ecx, 12					; 0000000cH
	shl	ecx, 1
	add	ecx, DWORD PTR _this$[ebp]
	call	?Set@Vector3@@QAEXMMM@Z			; Vector3::Set

; 48   : 	}

	mov	eax, DWORD PTR _this$[ebp]
	pop	edi
	pop	esi
	pop	ebx
	mov	esp, ebp
	pop	ebp
	ret	36					; 00000024H
??0Matrix3@@QAE@MMMMMMMMM@Z ENDP			; Matrix3::Matrix3
_TEXT	ENDS
; Function compile flags: /Odtp /ZI
; File x:\github\renegade\dragonade_rxd\scripts\matrix3.h
;	COMDAT ??0Matrix3@@QAE@ABVVector3@@00@Z
_TEXT	SEGMENT
_this$ = -4						; size = 4
_v0$ = 8						; size = 4
_v1$ = 12						; size = 4
_v2$ = 16						; size = 4
??0Matrix3@@QAE@ABVVector3@@00@Z PROC			; Matrix3::Matrix3, COMDAT
; _this$ = ecx

; 35   : 	TT_INLINE explicit Matrix3(const Vector3 & v0, const Vector3 & v1, const Vector3 & v2)

	push	ebp
	mov	ebp, esp
	sub	esp, 68					; 00000044H
	push	ebx
	push	esi
	push	edi
	mov	DWORD PTR _this$[ebp], ecx
	push	OFFSET ??0Vector3@@QAE@XZ		; Vector3::Vector3
	push	3
	push	12					; 0000000cH
	mov	eax, DWORD PTR _this$[ebp]
	push	eax
	call	??_H@YGXPAXIHP6EPAX0@Z@Z

; 36   : 	{ 
; 37   : 		Row[0] = v0; 

	mov	eax, DWORD PTR _v0$[ebp]
	push	eax
	mov	ecx, 12					; 0000000cH
	imul	ecx, 0
	add	ecx, DWORD PTR _this$[ebp]
	call	??4Vector3@@QAEAAV0@ABV0@@Z		; Vector3::operator=

; 38   : 		Row[1] = v1; 

	mov	eax, DWORD PTR _v1$[ebp]
	push	eax
	mov	ecx, 12					; 0000000cH
	shl	ecx, 0
	add	ecx, DWORD PTR _this$[ebp]
	call	??4Vector3@@QAEAAV0@ABV0@@Z		; Vector3::operator=

; 39   : 		Row[2] = v2; 

	mov	eax, DWORD PTR _v2$[ebp]
	push	eax
	mov	ecx, 12					; 0000000cH
	shl	ecx, 1
	add	ecx, DWORD PTR _this$[ebp]
	call	??4Vector3@@QAEAAV0@ABV0@@Z		; Vector3::operator=

; 40   : 	}

	mov	eax, DWORD PTR _this$[ebp]
	pop	edi
	pop	esi
	pop	ebx
	mov	esp, ebp
	pop	ebp
	ret	12					; 0000000cH
??0Matrix3@@QAE@ABVVector3@@00@Z ENDP			; Matrix3::Matrix3
_TEXT	ENDS
; Function compile flags: /Odtp /ZI
; File x:\github\renegade\dragonade_rxd\scripts\matrix3.h
;	COMDAT ??0Matrix3@@QAE@_N@Z
_TEXT	SEGMENT
_this$ = -4						; size = 4
_identity$ = 8						; size = 1
??0Matrix3@@QAE@_N@Z PROC				; Matrix3::Matrix3, COMDAT
; _this$ = ecx

; 26   : 	TT_INLINE explicit Matrix3(bool identity)

	push	ebp
	mov	ebp, esp
	sub	esp, 68					; 00000044H
	push	ebx
	push	esi
	push	edi
	mov	DWORD PTR _this$[ebp], ecx
	push	OFFSET ??0Vector3@@QAE@XZ		; Vector3::Vector3
	push	3
	push	12					; 0000000cH
	mov	eax, DWORD PTR _this$[ebp]
	push	eax
	call	??_H@YGXPAXIHP6EPAX0@Z@Z

; 27   : 	{
; 28   : 		if (identity)

	movzx	eax, BYTE PTR _identity$[ebp]
	test	eax, eax
	je	$LN1@Matrix3

; 29   : 		{
; 30   : 			Row[0].Set(1.0,0.0,0.0);

	push	ecx
	movss	xmm0, DWORD PTR __real@00000000
	movss	DWORD PTR [esp], xmm0
	push	ecx
	movss	xmm0, DWORD PTR __real@00000000
	movss	DWORD PTR [esp], xmm0
	push	ecx
	movss	xmm0, DWORD PTR __real@3f800000
	movss	DWORD PTR [esp], xmm0
	mov	ecx, 12					; 0000000cH
	imul	ecx, 0
	add	ecx, DWORD PTR _this$[ebp]
	call	?Set@Vector3@@QAEXMMM@Z			; Vector3::Set

; 31   : 			Row[1].Set(0.0,1.0,0.0);

	push	ecx
	movss	xmm0, DWORD PTR __real@00000000
	movss	DWORD PTR [esp], xmm0
	push	ecx
	movss	xmm0, DWORD PTR __real@3f800000
	movss	DWORD PTR [esp], xmm0
	push	ecx
	movss	xmm0, DWORD PTR __real@00000000
	movss	DWORD PTR [esp], xmm0
	mov	ecx, 12					; 0000000cH
	shl	ecx, 0
	add	ecx, DWORD PTR _this$[ebp]
	call	?Set@Vector3@@QAEXMMM@Z			; Vector3::Set

; 32   : 			Row[2].Set(0.0,0.0,1.0);

	push	ecx
	movss	xmm0, DWORD PTR __real@3f800000
	movss	DWORD PTR [esp], xmm0
	push	ecx
	movss	xmm0, DWORD PTR __real@00000000
	movss	DWORD PTR [esp], xmm0
	push	ecx
	movss	xmm0, DWORD PTR __real@00000000
	movss	DWORD PTR [esp], xmm0
	mov	ecx, 12					; 0000000cH
	shl	ecx, 1
	add	ecx, DWORD PTR _this$[ebp]
	call	?Set@Vector3@@QAEXMMM@Z			; Vector3::Set
$LN1@Matrix3:

; 33   : 		}
; 34   : 	}

	mov	eax, DWORD PTR _this$[ebp]
	pop	edi
	pop	esi
	pop	ebx
	mov	esp, ebp
	pop	ebp
	ret	4
??0Matrix3@@QAE@_N@Z ENDP				; Matrix3::Matrix3
_TEXT	ENDS
; Function compile flags: /Odtp /ZI
; File x:\github\renegade\dragonade_rxd\scripts\matrix3.h
;	COMDAT ??0Matrix3@@QAE@ABV0@@Z
_TEXT	SEGMENT
_this$ = -4						; size = 4
_m$ = 8							; size = 4
??0Matrix3@@QAE@ABV0@@Z PROC				; Matrix3::Matrix3, COMDAT
; _this$ = ecx

; 22   : 	TT_INLINE Matrix3(const Matrix3 & m)

	push	ebp
	mov	ebp, esp
	sub	esp, 68					; 00000044H
	push	ebx
	push	esi
	push	edi
	mov	DWORD PTR _this$[ebp], ecx
	push	OFFSET ??0Vector3@@QAE@XZ		; Vector3::Vector3
	push	3
	push	12					; 0000000cH
	mov	eax, DWORD PTR _this$[ebp]
	push	eax
	call	??_H@YGXPAXIHP6EPAX0@Z@Z

; 23   : 	{
; 24   : 		Row[0] = m.Row[0]; Row[1] = m.Row[1]; Row[2] = m.Row[2];

	mov	eax, 12					; 0000000cH
	imul	eax, 0
	add	eax, DWORD PTR _m$[ebp]
	push	eax
	mov	ecx, 12					; 0000000cH
	imul	ecx, 0
	add	ecx, DWORD PTR _this$[ebp]
	call	??4Vector3@@QAEAAV0@ABV0@@Z		; Vector3::operator=
	mov	eax, 12					; 0000000cH
	shl	eax, 0
	add	eax, DWORD PTR _m$[ebp]
	push	eax
	mov	ecx, 12					; 0000000cH
	shl	ecx, 0
	add	ecx, DWORD PTR _this$[ebp]
	call	??4Vector3@@QAEAAV0@ABV0@@Z		; Vector3::operator=
	mov	eax, 12					; 0000000cH
	shl	eax, 1
	add	eax, DWORD PTR _m$[ebp]
	push	eax
	mov	ecx, 12					; 0000000cH
	shl	ecx, 1
	add	ecx, DWORD PTR _this$[ebp]
	call	??4Vector3@@QAEAAV0@ABV0@@Z		; Vector3::operator=

; 25   : 	}

	mov	eax, DWORD PTR _this$[ebp]
	pop	edi
	pop	esi
	pop	ebx
	mov	esp, ebp
	pop	ebp
	ret	4
??0Matrix3@@QAE@ABV0@@Z ENDP				; Matrix3::Matrix3
_TEXT	ENDS
; Function compile flags: /Odtp /ZI
; File x:\github\renegade\dragonade_rxd\scripts\matrix3.h
;	COMDAT ??0Matrix3@@QAE@XZ
_TEXT	SEGMENT
_this$ = -4						; size = 4
??0Matrix3@@QAE@XZ PROC					; Matrix3::Matrix3, COMDAT
; _this$ = ecx

; 21   : 	TT_INLINE Matrix3(void) {};

	push	ebp
	mov	ebp, esp
	sub	esp, 68					; 00000044H
	push	ebx
	push	esi
	push	edi
	mov	DWORD PTR _this$[ebp], ecx
	push	OFFSET ??0Vector3@@QAE@XZ		; Vector3::Vector3
	push	3
	push	12					; 0000000cH
	mov	eax, DWORD PTR _this$[ebp]
	push	eax
	call	??_H@YGXPAXIHP6EPAX0@Z@Z
	mov	eax, DWORD PTR _this$[ebp]
	pop	edi
	pop	esi
	pop	ebx
	mov	esp, ebp
	pop	ebp
	ret	0
??0Matrix3@@QAE@XZ ENDP					; Matrix3::Matrix3
_TEXT	ENDS
; Function compile flags: /Odtp /ZI
; File x:\github\renegade\dragonade_rxd\scripts\matrix4.h
;	COMDAT ?Transform_Vector@Matrix4@@SAXABV1@ABVVector4@@PAV2@@Z
_TEXT	SEGMENT
tv342 = -96						; size = 4
tv336 = -96						; size = 4
tv330 = -96						; size = 4
tv324 = -96						; size = 4
tv340 = -92						; size = 4
tv334 = -92						; size = 4
tv328 = -92						; size = 4
tv322 = -92						; size = 4
tv338 = -88						; size = 4
tv332 = -88						; size = 4
tv326 = -88						; size = 4
tv320 = -88						; size = 4
_v$ = -20						; size = 4
_tmp$ = -16						; size = 16
_A$ = 8							; size = 4
_in$ = 12						; size = 4
_out$ = 16						; size = 4
?Transform_Vector@Matrix4@@SAXABV1@ABVVector4@@PAV2@@Z PROC ; Matrix4::Transform_Vector, COMDAT

; 227  : 	{

	push	ebp
	mov	ebp, esp
	sub	esp, 96					; 00000060H
	push	ebx
	push	esi
	push	edi

; 228  : 		Vector4 tmp;

	lea	ecx, DWORD PTR _tmp$[ebp]
	call	??0Vector4@@QAE@XZ			; Vector4::Vector4

; 229  : 		Vector4 * v;
; 230  : 		if (out == &in)

	mov	eax, DWORD PTR _out$[ebp]
	cmp	eax, DWORD PTR _in$[ebp]
	jne	SHORT $LN2@Transform_

; 231  : 		{
; 232  : 			tmp = in;

	mov	eax, DWORD PTR _in$[ebp]
	push	eax
	lea	ecx, DWORD PTR _tmp$[ebp]
	call	??4Vector4@@QAEAAV0@ABV0@@Z		; Vector4::operator=

; 233  : 			v = &tmp;

	lea	eax, DWORD PTR _tmp$[ebp]
	mov	DWORD PTR _v$[ebp], eax

; 234  : 		}
; 235  : 		else

	jmp	SHORT $LN1@Transform_
$LN2@Transform_:

; 236  : 		{
; 237  : 			v = (Vector4 *)&in;

	mov	eax, DWORD PTR _in$[ebp]
	mov	DWORD PTR _v$[ebp], eax
$LN1@Transform_:

; 238  : 		}
; 239  : 		out->X = (A[0][0] * v->X + A[0][1] * v->Y + A[0][2] * v->Z + A[0][3] * v->W);

	push	0
	push	0
	mov	ecx, DWORD PTR _A$[ebp]
	call	??AMatrix4@@QBEABVVector4@@H@Z		; Matrix4::operator[]
	mov	ecx, eax
	call	??AVector4@@QBEABMH@Z			; Vector4::operator[]
	mov	ecx, DWORD PTR _v$[ebp]
	movss	xmm0, DWORD PTR [eax]
	mulss	xmm0, DWORD PTR [ecx]
	push	1
	push	0
	mov	ecx, DWORD PTR _A$[ebp]
	movss	DWORD PTR tv320[ebp], xmm0
	call	??AMatrix4@@QBEABVVector4@@H@Z		; Matrix4::operator[]
	mov	ecx, eax
	call	??AVector4@@QBEABMH@Z			; Vector4::operator[]
	mov	edx, DWORD PTR _v$[ebp]
	movss	xmm0, DWORD PTR [eax]
	mulss	xmm0, DWORD PTR [edx+4]
	movss	xmm1, DWORD PTR tv320[ebp]
	addss	xmm1, xmm0
	push	2
	push	0
	mov	ecx, DWORD PTR _A$[ebp]
	movss	DWORD PTR tv322[ebp], xmm1
	call	??AMatrix4@@QBEABVVector4@@H@Z		; Matrix4::operator[]
	mov	ecx, eax
	call	??AVector4@@QBEABMH@Z			; Vector4::operator[]
	mov	ecx, DWORD PTR _v$[ebp]
	movss	xmm0, DWORD PTR [eax]
	mulss	xmm0, DWORD PTR [ecx+8]
	movss	xmm1, DWORD PTR tv322[ebp]
	addss	xmm1, xmm0
	push	3
	push	0
	mov	ecx, DWORD PTR _A$[ebp]
	movss	DWORD PTR tv324[ebp], xmm1
	call	??AMatrix4@@QBEABVVector4@@H@Z		; Matrix4::operator[]
	mov	ecx, eax
	call	??AVector4@@QBEABMH@Z			; Vector4::operator[]
	mov	edx, DWORD PTR _v$[ebp]
	movss	xmm0, DWORD PTR [eax]
	mulss	xmm0, DWORD PTR [edx+12]
	movss	xmm1, DWORD PTR tv324[ebp]
	addss	xmm1, xmm0
	mov	eax, DWORD PTR _out$[ebp]
	movss	DWORD PTR [eax], xmm1

; 240  : 		out->Y = (A[1][0] * v->X + A[1][1] * v->Y + A[1][2] * v->Z + A[1][3] * v->W);

	push	0
	push	1
	mov	ecx, DWORD PTR _A$[ebp]
	call	??AMatrix4@@QBEABVVector4@@H@Z		; Matrix4::operator[]
	mov	ecx, eax
	call	??AVector4@@QBEABMH@Z			; Vector4::operator[]
	mov	ecx, DWORD PTR _v$[ebp]
	movss	xmm0, DWORD PTR [eax]
	mulss	xmm0, DWORD PTR [ecx]
	push	1
	push	1
	mov	ecx, DWORD PTR _A$[ebp]
	movss	DWORD PTR tv326[ebp], xmm0
	call	??AMatrix4@@QBEABVVector4@@H@Z		; Matrix4::operator[]
	mov	ecx, eax
	call	??AVector4@@QBEABMH@Z			; Vector4::operator[]
	mov	edx, DWORD PTR _v$[ebp]
	movss	xmm0, DWORD PTR [eax]
	mulss	xmm0, DWORD PTR [edx+4]
	movss	xmm1, DWORD PTR tv326[ebp]
	addss	xmm1, xmm0
	push	2
	push	1
	mov	ecx, DWORD PTR _A$[ebp]
	movss	DWORD PTR tv328[ebp], xmm1
	call	??AMatrix4@@QBEABVVector4@@H@Z		; Matrix4::operator[]
	mov	ecx, eax
	call	??AVector4@@QBEABMH@Z			; Vector4::operator[]
	mov	ecx, DWORD PTR _v$[ebp]
	movss	xmm0, DWORD PTR [eax]
	mulss	xmm0, DWORD PTR [ecx+8]
	movss	xmm1, DWORD PTR tv328[ebp]
	addss	xmm1, xmm0
	push	3
	push	1
	mov	ecx, DWORD PTR _A$[ebp]
	movss	DWORD PTR tv330[ebp], xmm1
	call	??AMatrix4@@QBEABVVector4@@H@Z		; Matrix4::operator[]
	mov	ecx, eax
	call	??AVector4@@QBEABMH@Z			; Vector4::operator[]
	mov	edx, DWORD PTR _v$[ebp]
	movss	xmm0, DWORD PTR [eax]
	mulss	xmm0, DWORD PTR [edx+12]
	movss	xmm1, DWORD PTR tv330[ebp]
	addss	xmm1, xmm0
	mov	eax, DWORD PTR _out$[ebp]
	movss	DWORD PTR [eax+4], xmm1

; 241  : 		out->Z = (A[2][0] * v->X + A[2][1] * v->Y + A[2][2] * v->Z + A[2][3] * v->W);

	push	0
	push	2
	mov	ecx, DWORD PTR _A$[ebp]
	call	??AMatrix4@@QBEABVVector4@@H@Z		; Matrix4::operator[]
	mov	ecx, eax
	call	??AVector4@@QBEABMH@Z			; Vector4::operator[]
	mov	ecx, DWORD PTR _v$[ebp]
	movss	xmm0, DWORD PTR [eax]
	mulss	xmm0, DWORD PTR [ecx]
	push	1
	push	2
	mov	ecx, DWORD PTR _A$[ebp]
	movss	DWORD PTR tv332[ebp], xmm0
	call	??AMatrix4@@QBEABVVector4@@H@Z		; Matrix4::operator[]
	mov	ecx, eax
	call	??AVector4@@QBEABMH@Z			; Vector4::operator[]
	mov	edx, DWORD PTR _v$[ebp]
	movss	xmm0, DWORD PTR [eax]
	mulss	xmm0, DWORD PTR [edx+4]
	movss	xmm1, DWORD PTR tv332[ebp]
	addss	xmm1, xmm0
	push	2
	push	2
	mov	ecx, DWORD PTR _A$[ebp]
	movss	DWORD PTR tv334[ebp], xmm1
	call	??AMatrix4@@QBEABVVector4@@H@Z		; Matrix4::operator[]
	mov	ecx, eax
	call	??AVector4@@QBEABMH@Z			; Vector4::operator[]
	mov	ecx, DWORD PTR _v$[ebp]
	movss	xmm0, DWORD PTR [eax]
	mulss	xmm0, DWORD PTR [ecx+8]
	movss	xmm1, DWORD PTR tv334[ebp]
	addss	xmm1, xmm0
	push	3
	push	2
	mov	ecx, DWORD PTR _A$[ebp]
	movss	DWORD PTR tv336[ebp], xmm1
	call	??AMatrix4@@QBEABVVector4@@H@Z		; Matrix4::operator[]
	mov	ecx, eax
	call	??AVector4@@QBEABMH@Z			; Vector4::operator[]
	mov	edx, DWORD PTR _v$[ebp]
	movss	xmm0, DWORD PTR [eax]
	mulss	xmm0, DWORD PTR [edx+12]
	movss	xmm1, DWORD PTR tv336[ebp]
	addss	xmm1, xmm0
	mov	eax, DWORD PTR _out$[ebp]
	movss	DWORD PTR [eax+8], xmm1

; 242  : 		out->W = (A[3][0] * v->X + A[3][1] * v->Y + A[3][2] * v->Z + A[3][3] * v->W);

	push	0
	push	3
	mov	ecx, DWORD PTR _A$[ebp]
	call	??AMatrix4@@QBEABVVector4@@H@Z		; Matrix4::operator[]
	mov	ecx, eax
	call	??AVector4@@QBEABMH@Z			; Vector4::operator[]
	mov	ecx, DWORD PTR _v$[ebp]
	movss	xmm0, DWORD PTR [eax]
	mulss	xmm0, DWORD PTR [ecx]
	push	1
	push	3
	mov	ecx, DWORD PTR _A$[ebp]
	movss	DWORD PTR tv338[ebp], xmm0
	call	??AMatrix4@@QBEABVVector4@@H@Z		; Matrix4::operator[]
	mov	ecx, eax
	call	??AVector4@@QBEABMH@Z			; Vector4::operator[]
	mov	edx, DWORD PTR _v$[ebp]
	movss	xmm0, DWORD PTR [eax]
	mulss	xmm0, DWORD PTR [edx+4]
	movss	xmm1, DWORD PTR tv338[ebp]
	addss	xmm1, xmm0
	push	2
	push	3
	mov	ecx, DWORD PTR _A$[ebp]
	movss	DWORD PTR tv340[ebp], xmm1
	call	??AMatrix4@@QBEABVVector4@@H@Z		; Matrix4::operator[]
	mov	ecx, eax
	call	??AVector4@@QBEABMH@Z			; Vector4::operator[]
	mov	ecx, DWORD PTR _v$[ebp]
	movss	xmm0, DWORD PTR [eax]
	mulss	xmm0, DWORD PTR [ecx+8]
	movss	xmm1, DWORD PTR tv340[ebp]
	addss	xmm1, xmm0
	push	3
	push	3
	mov	ecx, DWORD PTR _A$[ebp]
	movss	DWORD PTR tv342[ebp], xmm1
	call	??AMatrix4@@QBEABVVector4@@H@Z		; Matrix4::operator[]
	mov	ecx, eax
	call	??AVector4@@QBEABMH@Z			; Vector4::operator[]
	mov	edx, DWORD PTR _v$[ebp]
	movss	xmm0, DWORD PTR [eax]
	mulss	xmm0, DWORD PTR [edx+12]
	movss	xmm1, DWORD PTR tv342[ebp]
	addss	xmm1, xmm0
	mov	eax, DWORD PTR _out$[ebp]
	movss	DWORD PTR [eax+12], xmm1

; 243  : 	}

	pop	edi
	pop	esi
	pop	ebx
	mov	esp, ebp
	pop	ebp
	ret	0
?Transform_Vector@Matrix4@@SAXABV1@ABVVector4@@PAV2@@Z ENDP ; Matrix4::Transform_Vector
_TEXT	ENDS
; Function compile flags: /Odtp /ZI
; File x:\github\renegade\dragonade_rxd\scripts\matrix4.h
;	COMDAT ?Transform_Vector@Matrix4@@SAXABV1@ABVVector3@@PAVVector4@@@Z
_TEXT	SEGMENT
tv265 = -76						; size = 4
tv259 = -76						; size = 4
tv253 = -76						; size = 4
tv263 = -72						; size = 4
tv257 = -72						; size = 4
tv251 = -72						; size = 4
tv261 = -68						; size = 4
tv255 = -68						; size = 4
tv249 = -68						; size = 4
_A$ = 8							; size = 4
_in$ = 12						; size = 4
_out$ = 16						; size = 4
?Transform_Vector@Matrix4@@SAXABV1@ABVVector3@@PAVVector4@@@Z PROC ; Matrix4::Transform_Vector, COMDAT

; 220  : 	{

	push	ebp
	mov	ebp, esp
	sub	esp, 76					; 0000004cH
	push	ebx
	push	esi
	push	edi

; 221  : 		out->X = (A[0][0] * in.X + A[0][1] * in.Y + A[0][2] * in.Z + A[0][3]);

	push	0
	push	0
	mov	ecx, DWORD PTR _A$[ebp]
	call	??AMatrix4@@QBEABVVector4@@H@Z		; Matrix4::operator[]
	mov	ecx, eax
	call	??AVector4@@QBEABMH@Z			; Vector4::operator[]
	mov	ecx, DWORD PTR _in$[ebp]
	movss	xmm0, DWORD PTR [eax]
	mulss	xmm0, DWORD PTR [ecx]
	push	1
	push	0
	mov	ecx, DWORD PTR _A$[ebp]
	movss	DWORD PTR tv249[ebp], xmm0
	call	??AMatrix4@@QBEABVVector4@@H@Z		; Matrix4::operator[]
	mov	ecx, eax
	call	??AVector4@@QBEABMH@Z			; Vector4::operator[]
	mov	edx, DWORD PTR _in$[ebp]
	movss	xmm0, DWORD PTR [eax]
	mulss	xmm0, DWORD PTR [edx+4]
	movss	xmm1, DWORD PTR tv249[ebp]
	addss	xmm1, xmm0
	push	2
	push	0
	mov	ecx, DWORD PTR _A$[ebp]
	movss	DWORD PTR tv251[ebp], xmm1
	call	??AMatrix4@@QBEABVVector4@@H@Z		; Matrix4::operator[]
	mov	ecx, eax
	call	??AVector4@@QBEABMH@Z			; Vector4::operator[]
	mov	ecx, DWORD PTR _in$[ebp]
	movss	xmm0, DWORD PTR [eax]
	mulss	xmm0, DWORD PTR [ecx+8]
	movss	xmm1, DWORD PTR tv251[ebp]
	addss	xmm1, xmm0
	push	3
	push	0
	mov	ecx, DWORD PTR _A$[ebp]
	movss	DWORD PTR tv253[ebp], xmm1
	call	??AMatrix4@@QBEABVVector4@@H@Z		; Matrix4::operator[]
	mov	ecx, eax
	call	??AVector4@@QBEABMH@Z			; Vector4::operator[]
	movss	xmm0, DWORD PTR tv253[ebp]
	addss	xmm0, DWORD PTR [eax]
	mov	edx, DWORD PTR _out$[ebp]
	movss	DWORD PTR [edx], xmm0

; 222  : 		out->Y = (A[1][0] * in.X + A[1][1] * in.Y + A[1][2] * in.Z + A[1][3]);

	push	0
	push	1
	mov	ecx, DWORD PTR _A$[ebp]
	call	??AMatrix4@@QBEABVVector4@@H@Z		; Matrix4::operator[]
	mov	ecx, eax
	call	??AVector4@@QBEABMH@Z			; Vector4::operator[]
	mov	ecx, DWORD PTR _in$[ebp]
	movss	xmm0, DWORD PTR [eax]
	mulss	xmm0, DWORD PTR [ecx]
	push	1
	push	1
	mov	ecx, DWORD PTR _A$[ebp]
	movss	DWORD PTR tv255[ebp], xmm0
	call	??AMatrix4@@QBEABVVector4@@H@Z		; Matrix4::operator[]
	mov	ecx, eax
	call	??AVector4@@QBEABMH@Z			; Vector4::operator[]
	mov	edx, DWORD PTR _in$[ebp]
	movss	xmm0, DWORD PTR [eax]
	mulss	xmm0, DWORD PTR [edx+4]
	movss	xmm1, DWORD PTR tv255[ebp]
	addss	xmm1, xmm0
	push	2
	push	1
	mov	ecx, DWORD PTR _A$[ebp]
	movss	DWORD PTR tv257[ebp], xmm1
	call	??AMatrix4@@QBEABVVector4@@H@Z		; Matrix4::operator[]
	mov	ecx, eax
	call	??AVector4@@QBEABMH@Z			; Vector4::operator[]
	mov	ecx, DWORD PTR _in$[ebp]
	movss	xmm0, DWORD PTR [eax]
	mulss	xmm0, DWORD PTR [ecx+8]
	movss	xmm1, DWORD PTR tv257[ebp]
	addss	xmm1, xmm0
	push	3
	push	1
	mov	ecx, DWORD PTR _A$[ebp]
	movss	DWORD PTR tv259[ebp], xmm1
	call	??AMatrix4@@QBEABVVector4@@H@Z		; Matrix4::operator[]
	mov	ecx, eax
	call	??AVector4@@QBEABMH@Z			; Vector4::operator[]
	movss	xmm0, DWORD PTR tv259[ebp]
	addss	xmm0, DWORD PTR [eax]
	mov	edx, DWORD PTR _out$[ebp]
	movss	DWORD PTR [edx+4], xmm0

; 223  : 		out->Z = (A[2][0] * in.X + A[2][1] * in.Y + A[2][2] * in.Z + A[2][3]);

	push	0
	push	2
	mov	ecx, DWORD PTR _A$[ebp]
	call	??AMatrix4@@QBEABVVector4@@H@Z		; Matrix4::operator[]
	mov	ecx, eax
	call	??AVector4@@QBEABMH@Z			; Vector4::operator[]
	mov	ecx, DWORD PTR _in$[ebp]
	movss	xmm0, DWORD PTR [eax]
	mulss	xmm0, DWORD PTR [ecx]
	push	1
	push	2
	mov	ecx, DWORD PTR _A$[ebp]
	movss	DWORD PTR tv261[ebp], xmm0
	call	??AMatrix4@@QBEABVVector4@@H@Z		; Matrix4::operator[]
	mov	ecx, eax
	call	??AVector4@@QBEABMH@Z			; Vector4::operator[]
	mov	edx, DWORD PTR _in$[ebp]
	movss	xmm0, DWORD PTR [eax]
	mulss	xmm0, DWORD PTR [edx+4]
	movss	xmm1, DWORD PTR tv261[ebp]
	addss	xmm1, xmm0
	push	2
	push	2
	mov	ecx, DWORD PTR _A$[ebp]
	movss	DWORD PTR tv263[ebp], xmm1
	call	??AMatrix4@@QBEABVVector4@@H@Z		; Matrix4::operator[]
	mov	ecx, eax
	call	??AVector4@@QBEABMH@Z			; Vector4::operator[]
	mov	ecx, DWORD PTR _in$[ebp]
	movss	xmm0, DWORD PTR [eax]
	mulss	xmm0, DWORD PTR [ecx+8]
	movss	xmm1, DWORD PTR tv263[ebp]
	addss	xmm1, xmm0
	push	3
	push	2
	mov	ecx, DWORD PTR _A$[ebp]
	movss	DWORD PTR tv265[ebp], xmm1
	call	??AMatrix4@@QBEABVVector4@@H@Z		; Matrix4::operator[]
	mov	ecx, eax
	call	??AVector4@@QBEABMH@Z			; Vector4::operator[]
	movss	xmm0, DWORD PTR tv265[ebp]
	addss	xmm0, DWORD PTR [eax]
	mov	edx, DWORD PTR _out$[ebp]
	movss	DWORD PTR [edx+8], xmm0

; 224  : 		out->W = 1.0f;

	mov	eax, DWORD PTR _out$[ebp]
	movss	xmm0, DWORD PTR __real@3f800000
	movss	DWORD PTR [eax+12], xmm0

; 225  : 	}

	pop	edi
	pop	esi
	pop	ebx
	mov	esp, ebp
	pop	ebp
	ret	0
?Transform_Vector@Matrix4@@SAXABV1@ABVVector3@@PAVVector4@@@Z ENDP ; Matrix4::Transform_Vector
_TEXT	ENDS
; Function compile flags: /Odtp /ZI
; File x:\github\renegade\dragonade_rxd\scripts\matrix4.h
;	COMDAT ?Transform_Vector@Matrix4@@SAXABV1@ABVVector3@@PAV2@@Z
_TEXT	SEGMENT
tv270 = -92						; size = 4
tv264 = -92						; size = 4
tv258 = -92						; size = 4
tv268 = -88						; size = 4
tv262 = -88						; size = 4
tv256 = -88						; size = 4
tv266 = -84						; size = 4
tv260 = -84						; size = 4
tv254 = -84						; size = 4
_v$ = -16						; size = 4
_tmp$ = -12						; size = 12
_A$ = 8							; size = 4
_in$ = 12						; size = 4
_out$ = 16						; size = 4
?Transform_Vector@Matrix4@@SAXABV1@ABVVector3@@PAV2@@Z PROC ; Matrix4::Transform_Vector, COMDAT

; 203  : 	{

	push	ebp
	mov	ebp, esp
	sub	esp, 92					; 0000005cH
	push	ebx
	push	esi
	push	edi

; 204  : 		Vector3 tmp;

	lea	ecx, DWORD PTR _tmp$[ebp]
	call	??0Vector3@@QAE@XZ			; Vector3::Vector3

; 205  : 		Vector3 *v;
; 206  : 		if (out == &in)

	mov	eax, DWORD PTR _out$[ebp]
	cmp	eax, DWORD PTR _in$[ebp]
	jne	SHORT $LN2@Transform_

; 207  : 		{
; 208  : 			tmp = in;

	mov	eax, DWORD PTR _in$[ebp]
	push	eax
	lea	ecx, DWORD PTR _tmp$[ebp]
	call	??4Vector3@@QAEAAV0@ABV0@@Z		; Vector3::operator=

; 209  : 			v = &tmp;

	lea	eax, DWORD PTR _tmp$[ebp]
	mov	DWORD PTR _v$[ebp], eax

; 210  : 		}
; 211  : 		else

	jmp	SHORT $LN1@Transform_
$LN2@Transform_:

; 212  : 		{
; 213  : 			v = (Vector3 *)&in;

	mov	eax, DWORD PTR _in$[ebp]
	mov	DWORD PTR _v$[ebp], eax
$LN1@Transform_:

; 214  : 		}
; 215  : 		out->X = (A[0][0] * v->X + A[0][1] * v->Y + A[0][2] * v->Z + A[0][3]);

	push	0
	push	0
	mov	ecx, DWORD PTR _A$[ebp]
	call	??AMatrix4@@QBEABVVector4@@H@Z		; Matrix4::operator[]
	mov	ecx, eax
	call	??AVector4@@QBEABMH@Z			; Vector4::operator[]
	mov	ecx, DWORD PTR _v$[ebp]
	movss	xmm0, DWORD PTR [eax]
	mulss	xmm0, DWORD PTR [ecx]
	push	1
	push	0
	mov	ecx, DWORD PTR _A$[ebp]
	movss	DWORD PTR tv254[ebp], xmm0
	call	??AMatrix4@@QBEABVVector4@@H@Z		; Matrix4::operator[]
	mov	ecx, eax
	call	??AVector4@@QBEABMH@Z			; Vector4::operator[]
	mov	edx, DWORD PTR _v$[ebp]
	movss	xmm0, DWORD PTR [eax]
	mulss	xmm0, DWORD PTR [edx+4]
	movss	xmm1, DWORD PTR tv254[ebp]
	addss	xmm1, xmm0
	push	2
	push	0
	mov	ecx, DWORD PTR _A$[ebp]
	movss	DWORD PTR tv256[ebp], xmm1
	call	??AMatrix4@@QBEABVVector4@@H@Z		; Matrix4::operator[]
	mov	ecx, eax
	call	??AVector4@@QBEABMH@Z			; Vector4::operator[]
	mov	ecx, DWORD PTR _v$[ebp]
	movss	xmm0, DWORD PTR [eax]
	mulss	xmm0, DWORD PTR [ecx+8]
	movss	xmm1, DWORD PTR tv256[ebp]
	addss	xmm1, xmm0
	push	3
	push	0
	mov	ecx, DWORD PTR _A$[ebp]
	movss	DWORD PTR tv258[ebp], xmm1
	call	??AMatrix4@@QBEABVVector4@@H@Z		; Matrix4::operator[]
	mov	ecx, eax
	call	??AVector4@@QBEABMH@Z			; Vector4::operator[]
	movss	xmm0, DWORD PTR tv258[ebp]
	addss	xmm0, DWORD PTR [eax]
	mov	edx, DWORD PTR _out$[ebp]
	movss	DWORD PTR [edx], xmm0

; 216  : 		out->Y = (A[1][0] * v->X + A[1][1] * v->Y + A[1][2] * v->Z + A[1][3]);

	push	0
	push	1
	mov	ecx, DWORD PTR _A$[ebp]
	call	??AMatrix4@@QBEABVVector4@@H@Z		; Matrix4::operator[]
	mov	ecx, eax
	call	??AVector4@@QBEABMH@Z			; Vector4::operator[]
	mov	ecx, DWORD PTR _v$[ebp]
	movss	xmm0, DWORD PTR [eax]
	mulss	xmm0, DWORD PTR [ecx]
	push	1
	push	1
	mov	ecx, DWORD PTR _A$[ebp]
	movss	DWORD PTR tv260[ebp], xmm0
	call	??AMatrix4@@QBEABVVector4@@H@Z		; Matrix4::operator[]
	mov	ecx, eax
	call	??AVector4@@QBEABMH@Z			; Vector4::operator[]
	mov	edx, DWORD PTR _v$[ebp]
	movss	xmm0, DWORD PTR [eax]
	mulss	xmm0, DWORD PTR [edx+4]
	movss	xmm1, DWORD PTR tv260[ebp]
	addss	xmm1, xmm0
	push	2
	push	1
	mov	ecx, DWORD PTR _A$[ebp]
	movss	DWORD PTR tv262[ebp], xmm1
	call	??AMatrix4@@QBEABVVector4@@H@Z		; Matrix4::operator[]
	mov	ecx, eax
	call	??AVector4@@QBEABMH@Z			; Vector4::operator[]
	mov	ecx, DWORD PTR _v$[ebp]
	movss	xmm0, DWORD PTR [eax]
	mulss	xmm0, DWORD PTR [ecx+8]
	movss	xmm1, DWORD PTR tv262[ebp]
	addss	xmm1, xmm0
	push	3
	push	1
	mov	ecx, DWORD PTR _A$[ebp]
	movss	DWORD PTR tv264[ebp], xmm1
	call	??AMatrix4@@QBEABVVector4@@H@Z		; Matrix4::operator[]
	mov	ecx, eax
	call	??AVector4@@QBEABMH@Z			; Vector4::operator[]
	movss	xmm0, DWORD PTR tv264[ebp]
	addss	xmm0, DWORD PTR [eax]
	mov	edx, DWORD PTR _out$[ebp]
	movss	DWORD PTR [edx+4], xmm0

; 217  : 		out->Z = (A[2][0] * v->X + A[2][1] * v->Y + A[2][2] * v->Z + A[2][3]);

	push	0
	push	2
	mov	ecx, DWORD PTR _A$[ebp]
	call	??AMatrix4@@QBEABVVector4@@H@Z		; Matrix4::operator[]
	mov	ecx, eax
	call	??AVector4@@QBEABMH@Z			; Vector4::operator[]
	mov	ecx, DWORD PTR _v$[ebp]
	movss	xmm0, DWORD PTR [eax]
	mulss	xmm0, DWORD PTR [ecx]
	push	1
	push	2
	mov	ecx, DWORD PTR _A$[ebp]
	movss	DWORD PTR tv266[ebp], xmm0
	call	??AMatrix4@@QBEABVVector4@@H@Z		; Matrix4::operator[]
	mov	ecx, eax
	call	??AVector4@@QBEABMH@Z			; Vector4::operator[]
	mov	edx, DWORD PTR _v$[ebp]
	movss	xmm0, DWORD PTR [eax]
	mulss	xmm0, DWORD PTR [edx+4]
	movss	xmm1, DWORD PTR tv266[ebp]
	addss	xmm1, xmm0
	push	2
	push	2
	mov	ecx, DWORD PTR _A$[ebp]
	movss	DWORD PTR tv268[ebp], xmm1
	call	??AMatrix4@@QBEABVVector4@@H@Z		; Matrix4::operator[]
	mov	ecx, eax
	call	??AVector4@@QBEABMH@Z			; Vector4::operator[]
	mov	ecx, DWORD PTR _v$[ebp]
	movss	xmm0, DWORD PTR [eax]
	mulss	xmm0, DWORD PTR [ecx+8]
	movss	xmm1, DWORD PTR tv268[ebp]
	addss	xmm1, xmm0
	push	3
	push	2
	mov	ecx, DWORD PTR _A$[ebp]
	movss	DWORD PTR tv270[ebp], xmm1
	call	??AMatrix4@@QBEABVVector4@@H@Z		; Matrix4::operator[]
	mov	ecx, eax
	call	??AVector4@@QBEABMH@Z			; Vector4::operator[]
	movss	xmm0, DWORD PTR tv270[ebp]
	addss	xmm0, DWORD PTR [eax]
	mov	edx, DWORD PTR _out$[ebp]
	movss	DWORD PTR [edx+8], xmm0

; 218  : 	}

	pop	edi
	pop	esi
	pop	ebx
	mov	esp, ebp
	pop	ebp
	ret	0
?Transform_Vector@Matrix4@@SAXABV1@ABVVector3@@PAV2@@Z ENDP ; Matrix4::Transform_Vector
_TEXT	ENDS
; Function compile flags: /Odtp /ZI
; File x:\github\renegade\dragonade_rxd\scripts\matrix4.h
;	COMDAT ??_0Matrix4@@QAEAAV0@M@Z
_TEXT	SEGMENT
_ood$ = -8						; size = 4
_this$ = -4						; size = 4
_d$ = 8							; size = 4
??_0Matrix4@@QAEAAV0@M@Z PROC				; Matrix4::operator/=, COMDAT
; _this$ = ecx

; 177  : 	{

	push	ebp
	mov	ebp, esp
	sub	esp, 72					; 00000048H
	push	ebx
	push	esi
	push	edi
	mov	DWORD PTR _this$[ebp], ecx

; 178  : 		float ood = d;

	movss	xmm0, DWORD PTR _d$[ebp]
	movss	DWORD PTR _ood$[ebp], xmm0

; 179  : 		Row[0] *= ood; Row[1] *= ood; Row[2] *= ood; Row[3] *= ood;

	push	ecx
	movss	xmm0, DWORD PTR _ood$[ebp]
	movss	DWORD PTR [esp], xmm0
	mov	ecx, 16					; 00000010H
	imul	ecx, 0
	add	ecx, DWORD PTR _this$[ebp]
	call	??XVector4@@QAEAAV0@M@Z			; Vector4::operator*=
	push	ecx
	movss	xmm0, DWORD PTR _ood$[ebp]
	movss	DWORD PTR [esp], xmm0
	mov	ecx, 16					; 00000010H
	shl	ecx, 0
	add	ecx, DWORD PTR _this$[ebp]
	call	??XVector4@@QAEAAV0@M@Z			; Vector4::operator*=
	push	ecx
	movss	xmm0, DWORD PTR _ood$[ebp]
	movss	DWORD PTR [esp], xmm0
	mov	ecx, 16					; 00000010H
	shl	ecx, 1
	add	ecx, DWORD PTR _this$[ebp]
	call	??XVector4@@QAEAAV0@M@Z			; Vector4::operator*=
	push	ecx
	movss	xmm0, DWORD PTR _ood$[ebp]
	movss	DWORD PTR [esp], xmm0
	mov	ecx, 16					; 00000010H
	imul	ecx, 3
	add	ecx, DWORD PTR _this$[ebp]
	call	??XVector4@@QAEAAV0@M@Z			; Vector4::operator*=

; 180  : 		return *this;

	mov	eax, DWORD PTR _this$[ebp]

; 181  : 	}

	pop	edi
	pop	esi
	pop	ebx
	mov	esp, ebp
	pop	ebp
	ret	4
??_0Matrix4@@QAEAAV0@M@Z ENDP				; Matrix4::operator/=
_TEXT	ENDS
; Function compile flags: /Odtp /ZI
; File x:\github\renegade\dragonade_rxd\scripts\matrix4.h
;	COMDAT ??XMatrix4@@QAEAAV0@M@Z
_TEXT	SEGMENT
_this$ = -4						; size = 4
_d$ = 8							; size = 4
??XMatrix4@@QAEAAV0@M@Z PROC				; Matrix4::operator*=, COMDAT
; _this$ = ecx

; 172  : 	{

	push	ebp
	mov	ebp, esp
	sub	esp, 68					; 00000044H
	push	ebx
	push	esi
	push	edi
	mov	DWORD PTR _this$[ebp], ecx

; 173  : 		Row[0] *= d; Row[1] *= d; Row[2] *= d; Row[3] *= d;

	push	ecx
	movss	xmm0, DWORD PTR _d$[ebp]
	movss	DWORD PTR [esp], xmm0
	mov	ecx, 16					; 00000010H
	imul	ecx, 0
	add	ecx, DWORD PTR _this$[ebp]
	call	??XVector4@@QAEAAV0@M@Z			; Vector4::operator*=
	push	ecx
	movss	xmm0, DWORD PTR _d$[ebp]
	movss	DWORD PTR [esp], xmm0
	mov	ecx, 16					; 00000010H
	shl	ecx, 0
	add	ecx, DWORD PTR _this$[ebp]
	call	??XVector4@@QAEAAV0@M@Z			; Vector4::operator*=
	push	ecx
	movss	xmm0, DWORD PTR _d$[ebp]
	movss	DWORD PTR [esp], xmm0
	mov	ecx, 16					; 00000010H
	shl	ecx, 1
	add	ecx, DWORD PTR _this$[ebp]
	call	??XVector4@@QAEAAV0@M@Z			; Vector4::operator*=
	push	ecx
	movss	xmm0, DWORD PTR _d$[ebp]
	movss	DWORD PTR [esp], xmm0
	mov	ecx, 16					; 00000010H
	imul	ecx, 3
	add	ecx, DWORD PTR _this$[ebp]
	call	??XVector4@@QAEAAV0@M@Z			; Vector4::operator*=

; 174  : 		return *this;

	mov	eax, DWORD PTR _this$[ebp]

; 175  : 	}

	pop	edi
	pop	esi
	pop	ebx
	mov	esp, ebp
	pop	ebp
	ret	4
??XMatrix4@@QAEAAV0@M@Z ENDP				; Matrix4::operator*=
_TEXT	ENDS
; Function compile flags: /Odtp /ZI
; File x:\github\renegade\dragonade_rxd\scripts\matrix4.h
;	COMDAT ??ZMatrix4@@QAEAAV0@ABV0@@Z
_TEXT	SEGMENT
_this$ = -4						; size = 4
_m$ = 8							; size = 4
??ZMatrix4@@QAEAAV0@ABV0@@Z PROC			; Matrix4::operator-=, COMDAT
; _this$ = ecx

; 167  : 	{

	push	ebp
	mov	ebp, esp
	sub	esp, 68					; 00000044H
	push	ebx
	push	esi
	push	edi
	mov	DWORD PTR _this$[ebp], ecx

; 168  : 		Row[0] -= m.Row[0]; Row[1] -= m.Row[1]; Row[2] -= m.Row[2]; Row[3] -= m.Row[3];

	mov	eax, 16					; 00000010H
	imul	eax, 0
	add	eax, DWORD PTR _m$[ebp]
	push	eax
	mov	ecx, 16					; 00000010H
	imul	ecx, 0
	add	ecx, DWORD PTR _this$[ebp]
	call	??ZVector4@@QAEAAV0@ABV0@@Z		; Vector4::operator-=
	mov	eax, 16					; 00000010H
	shl	eax, 0
	add	eax, DWORD PTR _m$[ebp]
	push	eax
	mov	ecx, 16					; 00000010H
	shl	ecx, 0
	add	ecx, DWORD PTR _this$[ebp]
	call	??ZVector4@@QAEAAV0@ABV0@@Z		; Vector4::operator-=
	mov	eax, 16					; 00000010H
	shl	eax, 1
	add	eax, DWORD PTR _m$[ebp]
	push	eax
	mov	ecx, 16					; 00000010H
	shl	ecx, 1
	add	ecx, DWORD PTR _this$[ebp]
	call	??ZVector4@@QAEAAV0@ABV0@@Z		; Vector4::operator-=
	mov	eax, 16					; 00000010H
	imul	eax, 3
	add	eax, DWORD PTR _m$[ebp]
	push	eax
	mov	ecx, 16					; 00000010H
	imul	ecx, 3
	add	ecx, DWORD PTR _this$[ebp]
	call	??ZVector4@@QAEAAV0@ABV0@@Z		; Vector4::operator-=

; 169  : 		return *this; 

	mov	eax, DWORD PTR _this$[ebp]

; 170  : 	}

	pop	edi
	pop	esi
	pop	ebx
	mov	esp, ebp
	pop	ebp
	ret	4
??ZMatrix4@@QAEAAV0@ABV0@@Z ENDP			; Matrix4::operator-=
_TEXT	ENDS
; Function compile flags: /Odtp /ZI
; File x:\github\renegade\dragonade_rxd\scripts\matrix4.h
;	COMDAT ??YMatrix4@@QAEAAV0@ABV0@@Z
_TEXT	SEGMENT
_this$ = -4						; size = 4
_m$ = 8							; size = 4
??YMatrix4@@QAEAAV0@ABV0@@Z PROC			; Matrix4::operator+=, COMDAT
; _this$ = ecx

; 162  : 	{

	push	ebp
	mov	ebp, esp
	sub	esp, 68					; 00000044H
	push	ebx
	push	esi
	push	edi
	mov	DWORD PTR _this$[ebp], ecx

; 163  : 		Row[0] += m.Row[0]; Row[1] += m.Row[1]; Row[2] += m.Row[2]; Row[3] += m.Row[3];

	mov	eax, 16					; 00000010H
	imul	eax, 0
	add	eax, DWORD PTR _m$[ebp]
	push	eax
	mov	ecx, 16					; 00000010H
	imul	ecx, 0
	add	ecx, DWORD PTR _this$[ebp]
	call	??YVector4@@QAEAAV0@ABV0@@Z		; Vector4::operator+=
	mov	eax, 16					; 00000010H
	shl	eax, 0
	add	eax, DWORD PTR _m$[ebp]
	push	eax
	mov	ecx, 16					; 00000010H
	shl	ecx, 0
	add	ecx, DWORD PTR _this$[ebp]
	call	??YVector4@@QAEAAV0@ABV0@@Z		; Vector4::operator+=
	mov	eax, 16					; 00000010H
	shl	eax, 1
	add	eax, DWORD PTR _m$[ebp]
	push	eax
	mov	ecx, 16					; 00000010H
	shl	ecx, 1
	add	ecx, DWORD PTR _this$[ebp]
	call	??YVector4@@QAEAAV0@ABV0@@Z		; Vector4::operator+=
	mov	eax, 16					; 00000010H
	imul	eax, 3
	add	eax, DWORD PTR _m$[ebp]
	push	eax
	mov	ecx, 16					; 00000010H
	imul	ecx, 3
	add	ecx, DWORD PTR _this$[ebp]
	call	??YVector4@@QAEAAV0@ABV0@@Z		; Vector4::operator+=

; 164  : 		return *this; 

	mov	eax, DWORD PTR _this$[ebp]

; 165  : 	}

	pop	edi
	pop	esi
	pop	ebx
	mov	esp, ebp
	pop	ebp
	ret	4
??YMatrix4@@QAEAAV0@ABV0@@Z ENDP			; Matrix4::operator+=
_TEXT	ENDS
; Function compile flags: /Odtp /ZI
; File x:\github\renegade\dragonade_rxd\scripts\matrix4.h
;	COMDAT ??4Matrix4@@QAEAAV0@ABV0@@Z
_TEXT	SEGMENT
_this$ = -4						; size = 4
_m$ = 8							; size = 4
??4Matrix4@@QAEAAV0@ABV0@@Z PROC			; Matrix4::operator=, COMDAT
; _this$ = ecx

; 157  : 	{

	push	ebp
	mov	ebp, esp
	sub	esp, 68					; 00000044H
	push	ebx
	push	esi
	push	edi
	mov	DWORD PTR _this$[ebp], ecx

; 158  : 		Row[0] = m.Row[0]; Row[1] = m.Row[1]; Row[2] = m.Row[2]; Row[3] = m.Row[3];

	mov	eax, 16					; 00000010H
	imul	eax, 0
	add	eax, DWORD PTR _m$[ebp]
	push	eax
	mov	ecx, 16					; 00000010H
	imul	ecx, 0
	add	ecx, DWORD PTR _this$[ebp]
	call	??4Vector4@@QAEAAV0@ABV0@@Z		; Vector4::operator=
	mov	eax, 16					; 00000010H
	shl	eax, 0
	add	eax, DWORD PTR _m$[ebp]
	push	eax
	mov	ecx, 16					; 00000010H
	shl	ecx, 0
	add	ecx, DWORD PTR _this$[ebp]
	call	??4Vector4@@QAEAAV0@ABV0@@Z		; Vector4::operator=
	mov	eax, 16					; 00000010H
	shl	eax, 1
	add	eax, DWORD PTR _m$[ebp]
	push	eax
	mov	ecx, 16					; 00000010H
	shl	ecx, 1
	add	ecx, DWORD PTR _this$[ebp]
	call	??4Vector4@@QAEAAV0@ABV0@@Z		; Vector4::operator=
	mov	eax, 16					; 00000010H
	imul	eax, 3
	add	eax, DWORD PTR _m$[ebp]
	push	eax
	mov	ecx, 16					; 00000010H
	imul	ecx, 3
	add	ecx, DWORD PTR _this$[ebp]
	call	??4Vector4@@QAEAAV0@ABV0@@Z		; Vector4::operator=

; 159  : 		return *this; 

	mov	eax, DWORD PTR _this$[ebp]

; 160  : 	}

	pop	edi
	pop	esi
	pop	ebx
	mov	esp, ebp
	pop	ebp
	ret	4
??4Matrix4@@QAEAAV0@ABV0@@Z ENDP			; Matrix4::operator=
_TEXT	ENDS
; Function compile flags: /Odtp /ZI
; File x:\github\renegade\dragonade_rxd\scripts\matrix4.h
;	COMDAT ?Inverse@Matrix4@@QBE?AV1@XZ
_TEXT	SEGMENT
_t$ = -72						; size = 64
_s$ = -8						; size = 4
_this$ = -4						; size = 4
___$ReturnUdt$ = 8					; size = 4
?Inverse@Matrix4@@QBE?AV1@XZ PROC			; Matrix4::Inverse, COMDAT
; _this$ = ecx

; 133  : 	{

	push	ebp
	mov	ebp, esp
	sub	esp, 136				; 00000088H
	push	ebx
	push	esi
	push	edi
	mov	DWORD PTR _this$[ebp], ecx

; 134  : 		float s = Determinant();

	mov	ecx, DWORD PTR _this$[ebp]
	call	?Determinant@Matrix4@@QBEMXZ		; Matrix4::Determinant
	fstp	DWORD PTR _s$[ebp]

; 135  : 		if (s == 0.0) return Matrix4();

	cvtss2sd xmm0, DWORD PTR _s$[ebp]
	ucomisd	xmm0, QWORD PTR __real@0000000000000000
	lahf
	test	ah, 68					; 00000044H
	jp	SHORT $LN1@Inverse
	mov	ecx, DWORD PTR ___$ReturnUdt$[ebp]
	call	??0Matrix4@@QAE@XZ			; Matrix4::Matrix4
	mov	eax, DWORD PTR ___$ReturnUdt$[ebp]
	jmp	$LN2@Inverse
$LN1@Inverse:

; 136  : 		s = 1/s;

	movss	xmm0, DWORD PTR __real@3f800000
	divss	xmm0, DWORD PTR _s$[ebp]
	movss	DWORD PTR _s$[ebp], xmm0

; 137  : 		Matrix4 t;

	lea	ecx, DWORD PTR _t$[ebp]
	call	??0Matrix4@@QAE@XZ			; Matrix4::Matrix4

; 138  : 		t.Row[0].X = s*(Row[1].Y*(Row[2].Z*Row[3].W - Row[2].W*Row[3].Z) + Row[1].Z*(Row[2].W*Row[3].Y - Row[2].Y*Row[3].W) + Row[1].W*(Row[2].Y*Row[3].Z - Row[2].Z*Row[3].Y));

	mov	eax, 16					; 00000010H
	shl	eax, 0
	mov	ecx, 16					; 00000010H
	shl	ecx, 1
	mov	edx, 16					; 00000010H
	imul	edx, 3
	mov	esi, DWORD PTR _this$[ebp]
	mov	edi, DWORD PTR _this$[ebp]
	movss	xmm0, DWORD PTR [esi+ecx+8]
	mulss	xmm0, DWORD PTR [edi+edx+12]
	mov	ecx, 16					; 00000010H
	shl	ecx, 1
	mov	edx, 16					; 00000010H
	imul	edx, 3
	mov	esi, DWORD PTR _this$[ebp]
	mov	edi, DWORD PTR _this$[ebp]
	movss	xmm1, DWORD PTR [esi+ecx+12]
	mulss	xmm1, DWORD PTR [edi+edx+8]
	subss	xmm0, xmm1
	mov	ecx, DWORD PTR _this$[ebp]
	mulss	xmm0, DWORD PTR [ecx+eax+4]
	mov	edx, 16					; 00000010H
	shl	edx, 0
	mov	eax, 16					; 00000010H
	shl	eax, 1
	mov	ecx, 16					; 00000010H
	imul	ecx, 3
	mov	esi, DWORD PTR _this$[ebp]
	mov	edi, DWORD PTR _this$[ebp]
	movss	xmm1, DWORD PTR [esi+eax+12]
	mulss	xmm1, DWORD PTR [edi+ecx+4]
	mov	eax, 16					; 00000010H
	shl	eax, 1
	mov	ecx, 16					; 00000010H
	imul	ecx, 3
	mov	esi, DWORD PTR _this$[ebp]
	mov	edi, DWORD PTR _this$[ebp]
	movss	xmm2, DWORD PTR [esi+eax+4]
	mulss	xmm2, DWORD PTR [edi+ecx+12]
	subss	xmm1, xmm2
	mov	eax, DWORD PTR _this$[ebp]
	mulss	xmm1, DWORD PTR [eax+edx+8]
	addss	xmm0, xmm1
	mov	ecx, 16					; 00000010H
	shl	ecx, 0
	mov	edx, 16					; 00000010H
	shl	edx, 1
	mov	eax, 16					; 00000010H
	imul	eax, 3
	mov	esi, DWORD PTR _this$[ebp]
	mov	edi, DWORD PTR _this$[ebp]
	movss	xmm1, DWORD PTR [esi+edx+4]
	mulss	xmm1, DWORD PTR [edi+eax+8]
	mov	edx, 16					; 00000010H
	shl	edx, 1
	mov	eax, 16					; 00000010H
	imul	eax, 3
	mov	esi, DWORD PTR _this$[ebp]
	mov	edi, DWORD PTR _this$[ebp]
	movss	xmm2, DWORD PTR [esi+edx+8]
	mulss	xmm2, DWORD PTR [edi+eax+4]
	subss	xmm1, xmm2
	mov	edx, DWORD PTR _this$[ebp]
	mulss	xmm1, DWORD PTR [edx+ecx+12]
	addss	xmm0, xmm1
	mulss	xmm0, DWORD PTR _s$[ebp]
	mov	eax, 16					; 00000010H
	imul	eax, 0
	movss	DWORD PTR _t$[ebp+eax], xmm0

; 139  : 		t.Row[0].Y = s*(Row[2].Y*(Row[0].Z*Row[3].W - Row[0].W*Row[3].Z) + Row[2].Z*(Row[0].W*Row[3].Y - Row[0].Y*Row[3].W) + Row[2].W*(Row[0].Y*Row[3].Z - Row[0].Z*Row[3].Y));

	mov	eax, 16					; 00000010H
	shl	eax, 1
	mov	ecx, 16					; 00000010H
	imul	ecx, 0
	mov	edx, 16					; 00000010H
	imul	edx, 3
	mov	esi, DWORD PTR _this$[ebp]
	mov	edi, DWORD PTR _this$[ebp]
	movss	xmm0, DWORD PTR [esi+ecx+8]
	mulss	xmm0, DWORD PTR [edi+edx+12]
	mov	ecx, 16					; 00000010H
	imul	ecx, 0
	mov	edx, 16					; 00000010H
	imul	edx, 3
	mov	esi, DWORD PTR _this$[ebp]
	mov	edi, DWORD PTR _this$[ebp]
	movss	xmm1, DWORD PTR [esi+ecx+12]
	mulss	xmm1, DWORD PTR [edi+edx+8]
	subss	xmm0, xmm1
	mov	ecx, DWORD PTR _this$[ebp]
	mulss	xmm0, DWORD PTR [ecx+eax+4]
	mov	edx, 16					; 00000010H
	shl	edx, 1
	mov	eax, 16					; 00000010H
	imul	eax, 0
	mov	ecx, 16					; 00000010H
	imul	ecx, 3
	mov	esi, DWORD PTR _this$[ebp]
	mov	edi, DWORD PTR _this$[ebp]
	movss	xmm1, DWORD PTR [esi+eax+12]
	mulss	xmm1, DWORD PTR [edi+ecx+4]
	mov	eax, 16					; 00000010H
	imul	eax, 0
	mov	ecx, 16					; 00000010H
	imul	ecx, 3
	mov	esi, DWORD PTR _this$[ebp]
	mov	edi, DWORD PTR _this$[ebp]
	movss	xmm2, DWORD PTR [esi+eax+4]
	mulss	xmm2, DWORD PTR [edi+ecx+12]
	subss	xmm1, xmm2
	mov	eax, DWORD PTR _this$[ebp]
	mulss	xmm1, DWORD PTR [eax+edx+8]
	addss	xmm0, xmm1
	mov	ecx, 16					; 00000010H
	shl	ecx, 1
	mov	edx, 16					; 00000010H
	imul	edx, 0
	mov	eax, 16					; 00000010H
	imul	eax, 3
	mov	esi, DWORD PTR _this$[ebp]
	mov	edi, DWORD PTR _this$[ebp]
	movss	xmm1, DWORD PTR [esi+edx+4]
	mulss	xmm1, DWORD PTR [edi+eax+8]
	mov	edx, 16					; 00000010H
	imul	edx, 0
	mov	eax, 16					; 00000010H
	imul	eax, 3
	mov	esi, DWORD PTR _this$[ebp]
	mov	edi, DWORD PTR _this$[ebp]
	movss	xmm2, DWORD PTR [esi+edx+8]
	mulss	xmm2, DWORD PTR [edi+eax+4]
	subss	xmm1, xmm2
	mov	edx, DWORD PTR _this$[ebp]
	mulss	xmm1, DWORD PTR [edx+ecx+12]
	addss	xmm0, xmm1
	mulss	xmm0, DWORD PTR _s$[ebp]
	mov	eax, 16					; 00000010H
	imul	eax, 0
	movss	DWORD PTR _t$[ebp+eax+4], xmm0

; 140  : 		t.Row[0].Z = s*(Row[3].Y*(Row[0].Z*Row[1].W - Row[0].W*Row[1].Z) + Row[3].Z*(Row[0].W*Row[1].Y - Row[0].Y*Row[1].W) + Row[3].W*(Row[0].Y*Row[1].Z - Row[0].Z*Row[1].Y));

	mov	eax, 16					; 00000010H
	imul	eax, 3
	mov	ecx, 16					; 00000010H
	imul	ecx, 0
	mov	edx, 16					; 00000010H
	shl	edx, 0
	mov	esi, DWORD PTR _this$[ebp]
	mov	edi, DWORD PTR _this$[ebp]
	movss	xmm0, DWORD PTR [esi+ecx+8]
	mulss	xmm0, DWORD PTR [edi+edx+12]
	mov	ecx, 16					; 00000010H
	imul	ecx, 0
	mov	edx, 16					; 00000010H
	shl	edx, 0
	mov	esi, DWORD PTR _this$[ebp]
	mov	edi, DWORD PTR _this$[ebp]
	movss	xmm1, DWORD PTR [esi+ecx+12]
	mulss	xmm1, DWORD PTR [edi+edx+8]
	subss	xmm0, xmm1
	mov	ecx, DWORD PTR _this$[ebp]
	mulss	xmm0, DWORD PTR [ecx+eax+4]
	mov	edx, 16					; 00000010H
	imul	edx, 3
	mov	eax, 16					; 00000010H
	imul	eax, 0
	mov	ecx, 16					; 00000010H
	shl	ecx, 0
	mov	esi, DWORD PTR _this$[ebp]
	mov	edi, DWORD PTR _this$[ebp]
	movss	xmm1, DWORD PTR [esi+eax+12]
	mulss	xmm1, DWORD PTR [edi+ecx+4]
	mov	eax, 16					; 00000010H
	imul	eax, 0
	mov	ecx, 16					; 00000010H
	shl	ecx, 0
	mov	esi, DWORD PTR _this$[ebp]
	mov	edi, DWORD PTR _this$[ebp]
	movss	xmm2, DWORD PTR [esi+eax+4]
	mulss	xmm2, DWORD PTR [edi+ecx+12]
	subss	xmm1, xmm2
	mov	eax, DWORD PTR _this$[ebp]
	mulss	xmm1, DWORD PTR [eax+edx+8]
	addss	xmm0, xmm1
	mov	ecx, 16					; 00000010H
	imul	ecx, 3
	mov	edx, 16					; 00000010H
	imul	edx, 0
	mov	eax, 16					; 00000010H
	shl	eax, 0
	mov	esi, DWORD PTR _this$[ebp]
	mov	edi, DWORD PTR _this$[ebp]
	movss	xmm1, DWORD PTR [esi+edx+4]
	mulss	xmm1, DWORD PTR [edi+eax+8]
	mov	edx, 16					; 00000010H
	imul	edx, 0
	mov	eax, 16					; 00000010H
	shl	eax, 0
	mov	esi, DWORD PTR _this$[ebp]
	mov	edi, DWORD PTR _this$[ebp]
	movss	xmm2, DWORD PTR [esi+edx+8]
	mulss	xmm2, DWORD PTR [edi+eax+4]
	subss	xmm1, xmm2
	mov	edx, DWORD PTR _this$[ebp]
	mulss	xmm1, DWORD PTR [edx+ecx+12]
	addss	xmm0, xmm1
	mulss	xmm0, DWORD PTR _s$[ebp]
	mov	eax, 16					; 00000010H
	imul	eax, 0
	movss	DWORD PTR _t$[ebp+eax+8], xmm0

; 141  : 		t.Row[0].W = s*(Row[0].Y*(Row[1].W*Row[2].Z - Row[1].Z*Row[2].W) + Row[0].Z*(Row[1].Y*Row[2].W - Row[1].W*Row[2].Y) + Row[0].W*(Row[1].Z*Row[2].Y - Row[1].Y*Row[2].Z));

	mov	eax, 16					; 00000010H
	imul	eax, 0
	mov	ecx, 16					; 00000010H
	shl	ecx, 0
	mov	edx, 16					; 00000010H
	shl	edx, 1
	mov	esi, DWORD PTR _this$[ebp]
	mov	edi, DWORD PTR _this$[ebp]
	movss	xmm0, DWORD PTR [esi+ecx+12]
	mulss	xmm0, DWORD PTR [edi+edx+8]
	mov	ecx, 16					; 00000010H
	shl	ecx, 0
	mov	edx, 16					; 00000010H
	shl	edx, 1
	mov	esi, DWORD PTR _this$[ebp]
	mov	edi, DWORD PTR _this$[ebp]
	movss	xmm1, DWORD PTR [esi+ecx+8]
	mulss	xmm1, DWORD PTR [edi+edx+12]
	subss	xmm0, xmm1
	mov	ecx, DWORD PTR _this$[ebp]
	mulss	xmm0, DWORD PTR [ecx+eax+4]
	mov	edx, 16					; 00000010H
	imul	edx, 0
	mov	eax, 16					; 00000010H
	shl	eax, 0
	mov	ecx, 16					; 00000010H
	shl	ecx, 1
	mov	esi, DWORD PTR _this$[ebp]
	mov	edi, DWORD PTR _this$[ebp]
	movss	xmm1, DWORD PTR [esi+eax+4]
	mulss	xmm1, DWORD PTR [edi+ecx+12]
	mov	eax, 16					; 00000010H
	shl	eax, 0
	mov	ecx, 16					; 00000010H
	shl	ecx, 1
	mov	esi, DWORD PTR _this$[ebp]
	mov	edi, DWORD PTR _this$[ebp]
	movss	xmm2, DWORD PTR [esi+eax+12]
	mulss	xmm2, DWORD PTR [edi+ecx+4]
	subss	xmm1, xmm2
	mov	eax, DWORD PTR _this$[ebp]
	mulss	xmm1, DWORD PTR [eax+edx+8]
	addss	xmm0, xmm1
	mov	ecx, 16					; 00000010H
	imul	ecx, 0
	mov	edx, 16					; 00000010H
	shl	edx, 0
	mov	eax, 16					; 00000010H
	shl	eax, 1
	mov	esi, DWORD PTR _this$[ebp]
	mov	edi, DWORD PTR _this$[ebp]
	movss	xmm1, DWORD PTR [esi+edx+8]
	mulss	xmm1, DWORD PTR [edi+eax+4]
	mov	edx, 16					; 00000010H
	shl	edx, 0
	mov	eax, 16					; 00000010H
	shl	eax, 1
	mov	esi, DWORD PTR _this$[ebp]
	mov	edi, DWORD PTR _this$[ebp]
	movss	xmm2, DWORD PTR [esi+edx+4]
	mulss	xmm2, DWORD PTR [edi+eax+8]
	subss	xmm1, xmm2
	mov	edx, DWORD PTR _this$[ebp]
	mulss	xmm1, DWORD PTR [edx+ecx+12]
	addss	xmm0, xmm1
	mulss	xmm0, DWORD PTR _s$[ebp]
	mov	eax, 16					; 00000010H
	imul	eax, 0
	movss	DWORD PTR _t$[ebp+eax+12], xmm0

; 142  : 		t.Row[1].X = s*(Row[1].Z*(Row[2].X*Row[3].W - Row[2].W*Row[3].X) + Row[1].W*(Row[2].Z*Row[3].X - Row[2].X*Row[3].Z) + Row[1].X*(Row[2].W*Row[3].Z - Row[2].Z*Row[3].W));

	mov	eax, 16					; 00000010H
	shl	eax, 0
	mov	ecx, 16					; 00000010H
	shl	ecx, 1
	mov	edx, 16					; 00000010H
	imul	edx, 3
	mov	esi, DWORD PTR _this$[ebp]
	mov	edi, DWORD PTR _this$[ebp]
	movss	xmm0, DWORD PTR [esi+ecx]
	mulss	xmm0, DWORD PTR [edi+edx+12]
	mov	ecx, 16					; 00000010H
	shl	ecx, 1
	mov	edx, 16					; 00000010H
	imul	edx, 3
	mov	esi, DWORD PTR _this$[ebp]
	mov	edi, DWORD PTR _this$[ebp]
	movss	xmm1, DWORD PTR [esi+ecx+12]
	mulss	xmm1, DWORD PTR [edi+edx]
	subss	xmm0, xmm1
	mov	ecx, DWORD PTR _this$[ebp]
	mulss	xmm0, DWORD PTR [ecx+eax+8]
	mov	edx, 16					; 00000010H
	shl	edx, 0
	mov	eax, 16					; 00000010H
	shl	eax, 1
	mov	ecx, 16					; 00000010H
	imul	ecx, 3
	mov	esi, DWORD PTR _this$[ebp]
	mov	edi, DWORD PTR _this$[ebp]
	movss	xmm1, DWORD PTR [esi+eax+8]
	mulss	xmm1, DWORD PTR [edi+ecx]
	mov	eax, 16					; 00000010H
	shl	eax, 1
	mov	ecx, 16					; 00000010H
	imul	ecx, 3
	mov	esi, DWORD PTR _this$[ebp]
	mov	edi, DWORD PTR _this$[ebp]
	movss	xmm2, DWORD PTR [esi+eax]
	mulss	xmm2, DWORD PTR [edi+ecx+8]
	subss	xmm1, xmm2
	mov	eax, DWORD PTR _this$[ebp]
	mulss	xmm1, DWORD PTR [eax+edx+12]
	addss	xmm0, xmm1
	mov	ecx, 16					; 00000010H
	shl	ecx, 0
	mov	edx, 16					; 00000010H
	shl	edx, 1
	mov	eax, 16					; 00000010H
	imul	eax, 3
	mov	esi, DWORD PTR _this$[ebp]
	mov	edi, DWORD PTR _this$[ebp]
	movss	xmm1, DWORD PTR [esi+edx+12]
	mulss	xmm1, DWORD PTR [edi+eax+8]
	mov	edx, 16					; 00000010H
	shl	edx, 1
	mov	eax, 16					; 00000010H
	imul	eax, 3
	mov	esi, DWORD PTR _this$[ebp]
	mov	edi, DWORD PTR _this$[ebp]
	movss	xmm2, DWORD PTR [esi+edx+8]
	mulss	xmm2, DWORD PTR [edi+eax+12]
	subss	xmm1, xmm2
	mov	edx, DWORD PTR _this$[ebp]
	mulss	xmm1, DWORD PTR [edx+ecx]
	addss	xmm0, xmm1
	mulss	xmm0, DWORD PTR _s$[ebp]
	mov	eax, 16					; 00000010H
	shl	eax, 0
	movss	DWORD PTR _t$[ebp+eax], xmm0

; 143  : 		t.Row[1].Y = s*(Row[2].Z*(Row[0].X*Row[3].W - Row[0].W*Row[3].X) + Row[2].W*(Row[0].Z*Row[3].X - Row[0].X*Row[3].Z) + Row[2].X*(Row[0].W*Row[3].Z - Row[0].Z*Row[3].W));

	mov	eax, 16					; 00000010H
	shl	eax, 1
	mov	ecx, 16					; 00000010H
	imul	ecx, 0
	mov	edx, 16					; 00000010H
	imul	edx, 3
	mov	esi, DWORD PTR _this$[ebp]
	mov	edi, DWORD PTR _this$[ebp]
	movss	xmm0, DWORD PTR [esi+ecx]
	mulss	xmm0, DWORD PTR [edi+edx+12]
	mov	ecx, 16					; 00000010H
	imul	ecx, 0
	mov	edx, 16					; 00000010H
	imul	edx, 3
	mov	esi, DWORD PTR _this$[ebp]
	mov	edi, DWORD PTR _this$[ebp]
	movss	xmm1, DWORD PTR [esi+ecx+12]
	mulss	xmm1, DWORD PTR [edi+edx]
	subss	xmm0, xmm1
	mov	ecx, DWORD PTR _this$[ebp]
	mulss	xmm0, DWORD PTR [ecx+eax+8]
	mov	edx, 16					; 00000010H
	shl	edx, 1
	mov	eax, 16					; 00000010H
	imul	eax, 0
	mov	ecx, 16					; 00000010H
	imul	ecx, 3
	mov	esi, DWORD PTR _this$[ebp]
	mov	edi, DWORD PTR _this$[ebp]
	movss	xmm1, DWORD PTR [esi+eax+8]
	mulss	xmm1, DWORD PTR [edi+ecx]
	mov	eax, 16					; 00000010H
	imul	eax, 0
	mov	ecx, 16					; 00000010H
	imul	ecx, 3
	mov	esi, DWORD PTR _this$[ebp]
	mov	edi, DWORD PTR _this$[ebp]
	movss	xmm2, DWORD PTR [esi+eax]
	mulss	xmm2, DWORD PTR [edi+ecx+8]
	subss	xmm1, xmm2
	mov	eax, DWORD PTR _this$[ebp]
	mulss	xmm1, DWORD PTR [eax+edx+12]
	addss	xmm0, xmm1
	mov	ecx, 16					; 00000010H
	shl	ecx, 1
	mov	edx, 16					; 00000010H
	imul	edx, 0
	mov	eax, 16					; 00000010H
	imul	eax, 3
	mov	esi, DWORD PTR _this$[ebp]
	mov	edi, DWORD PTR _this$[ebp]
	movss	xmm1, DWORD PTR [esi+edx+12]
	mulss	xmm1, DWORD PTR [edi+eax+8]
	mov	edx, 16					; 00000010H
	imul	edx, 0
	mov	eax, 16					; 00000010H
	imul	eax, 3
	mov	esi, DWORD PTR _this$[ebp]
	mov	edi, DWORD PTR _this$[ebp]
	movss	xmm2, DWORD PTR [esi+edx+8]
	mulss	xmm2, DWORD PTR [edi+eax+12]
	subss	xmm1, xmm2
	mov	edx, DWORD PTR _this$[ebp]
	mulss	xmm1, DWORD PTR [edx+ecx]
	addss	xmm0, xmm1
	mulss	xmm0, DWORD PTR _s$[ebp]
	mov	eax, 16					; 00000010H
	shl	eax, 0
	movss	DWORD PTR _t$[ebp+eax+4], xmm0

; 144  : 		t.Row[1].Z = s*(Row[3].Z*(Row[0].X*Row[1].W - Row[0].W*Row[1].X) + Row[3].W*(Row[0].Z*Row[1].X - Row[0].X*Row[1].Z) + Row[3].X*(Row[0].W*Row[1].Z - Row[0].Z*Row[1].W));

	mov	eax, 16					; 00000010H
	imul	eax, 3
	mov	ecx, 16					; 00000010H
	imul	ecx, 0
	mov	edx, 16					; 00000010H
	shl	edx, 0
	mov	esi, DWORD PTR _this$[ebp]
	mov	edi, DWORD PTR _this$[ebp]
	movss	xmm0, DWORD PTR [esi+ecx]
	mulss	xmm0, DWORD PTR [edi+edx+12]
	mov	ecx, 16					; 00000010H
	imul	ecx, 0
	mov	edx, 16					; 00000010H
	shl	edx, 0
	mov	esi, DWORD PTR _this$[ebp]
	mov	edi, DWORD PTR _this$[ebp]
	movss	xmm1, DWORD PTR [esi+ecx+12]
	mulss	xmm1, DWORD PTR [edi+edx]
	subss	xmm0, xmm1
	mov	ecx, DWORD PTR _this$[ebp]
	mulss	xmm0, DWORD PTR [ecx+eax+8]
	mov	edx, 16					; 00000010H
	imul	edx, 3
	mov	eax, 16					; 00000010H
	imul	eax, 0
	mov	ecx, 16					; 00000010H
	shl	ecx, 0
	mov	esi, DWORD PTR _this$[ebp]
	mov	edi, DWORD PTR _this$[ebp]
	movss	xmm1, DWORD PTR [esi+eax+8]
	mulss	xmm1, DWORD PTR [edi+ecx]
	mov	eax, 16					; 00000010H
	imul	eax, 0
	mov	ecx, 16					; 00000010H
	shl	ecx, 0
	mov	esi, DWORD PTR _this$[ebp]
	mov	edi, DWORD PTR _this$[ebp]
	movss	xmm2, DWORD PTR [esi+eax]
	mulss	xmm2, DWORD PTR [edi+ecx+8]
	subss	xmm1, xmm2
	mov	eax, DWORD PTR _this$[ebp]
	mulss	xmm1, DWORD PTR [eax+edx+12]
	addss	xmm0, xmm1
	mov	ecx, 16					; 00000010H
	imul	ecx, 3
	mov	edx, 16					; 00000010H
	imul	edx, 0
	mov	eax, 16					; 00000010H
	shl	eax, 0
	mov	esi, DWORD PTR _this$[ebp]
	mov	edi, DWORD PTR _this$[ebp]
	movss	xmm1, DWORD PTR [esi+edx+12]
	mulss	xmm1, DWORD PTR [edi+eax+8]
	mov	edx, 16					; 00000010H
	imul	edx, 0
	mov	eax, 16					; 00000010H
	shl	eax, 0
	mov	esi, DWORD PTR _this$[ebp]
	mov	edi, DWORD PTR _this$[ebp]
	movss	xmm2, DWORD PTR [esi+edx+8]
	mulss	xmm2, DWORD PTR [edi+eax+12]
	subss	xmm1, xmm2
	mov	edx, DWORD PTR _this$[ebp]
	mulss	xmm1, DWORD PTR [edx+ecx]
	addss	xmm0, xmm1
	mulss	xmm0, DWORD PTR _s$[ebp]
	mov	eax, 16					; 00000010H
	shl	eax, 0
	movss	DWORD PTR _t$[ebp+eax+8], xmm0

; 145  : 		t.Row[1].W = s*(Row[0].Z*(Row[1].W*Row[2].X - Row[1].X*Row[2].W) + Row[0].W*(Row[1].X*Row[2].Z - Row[1].Z*Row[2].X) + Row[0].X*(Row[1].Z*Row[2].W - Row[1].W*Row[2].Z));

	mov	eax, 16					; 00000010H
	imul	eax, 0
	mov	ecx, 16					; 00000010H
	shl	ecx, 0
	mov	edx, 16					; 00000010H
	shl	edx, 1
	mov	esi, DWORD PTR _this$[ebp]
	mov	edi, DWORD PTR _this$[ebp]
	movss	xmm0, DWORD PTR [esi+ecx+12]
	mulss	xmm0, DWORD PTR [edi+edx]
	mov	ecx, 16					; 00000010H
	shl	ecx, 0
	mov	edx, 16					; 00000010H
	shl	edx, 1
	mov	esi, DWORD PTR _this$[ebp]
	mov	edi, DWORD PTR _this$[ebp]
	movss	xmm1, DWORD PTR [esi+ecx]
	mulss	xmm1, DWORD PTR [edi+edx+12]
	subss	xmm0, xmm1
	mov	ecx, DWORD PTR _this$[ebp]
	mulss	xmm0, DWORD PTR [ecx+eax+8]
	mov	edx, 16					; 00000010H
	imul	edx, 0
	mov	eax, 16					; 00000010H
	shl	eax, 0
	mov	ecx, 16					; 00000010H
	shl	ecx, 1
	mov	esi, DWORD PTR _this$[ebp]
	mov	edi, DWORD PTR _this$[ebp]
	movss	xmm1, DWORD PTR [esi+eax]
	mulss	xmm1, DWORD PTR [edi+ecx+8]
	mov	eax, 16					; 00000010H
	shl	eax, 0
	mov	ecx, 16					; 00000010H
	shl	ecx, 1
	mov	esi, DWORD PTR _this$[ebp]
	mov	edi, DWORD PTR _this$[ebp]
	movss	xmm2, DWORD PTR [esi+eax+8]
	mulss	xmm2, DWORD PTR [edi+ecx]
	subss	xmm1, xmm2
	mov	eax, DWORD PTR _this$[ebp]
	mulss	xmm1, DWORD PTR [eax+edx+12]
	addss	xmm0, xmm1
	mov	ecx, 16					; 00000010H
	imul	ecx, 0
	mov	edx, 16					; 00000010H
	shl	edx, 0
	mov	eax, 16					; 00000010H
	shl	eax, 1
	mov	esi, DWORD PTR _this$[ebp]
	mov	edi, DWORD PTR _this$[ebp]
	movss	xmm1, DWORD PTR [esi+edx+8]
	mulss	xmm1, DWORD PTR [edi+eax+12]
	mov	edx, 16					; 00000010H
	shl	edx, 0
	mov	eax, 16					; 00000010H
	shl	eax, 1
	mov	esi, DWORD PTR _this$[ebp]
	mov	edi, DWORD PTR _this$[ebp]
	movss	xmm2, DWORD PTR [esi+edx+12]
	mulss	xmm2, DWORD PTR [edi+eax+8]
	subss	xmm1, xmm2
	mov	edx, DWORD PTR _this$[ebp]
	mulss	xmm1, DWORD PTR [edx+ecx]
	addss	xmm0, xmm1
	mulss	xmm0, DWORD PTR _s$[ebp]
	mov	eax, 16					; 00000010H
	shl	eax, 0
	movss	DWORD PTR _t$[ebp+eax+12], xmm0

; 146  : 		t.Row[2].X = s*(Row[1].W*(Row[2].X*Row[3].Y - Row[2].Y*Row[3].X) + Row[1].X*(Row[2].Y*Row[3].W - Row[2].W*Row[3].Y) + Row[1].Y*(Row[2].W*Row[3].X - Row[2].X*Row[3].W));

	mov	eax, 16					; 00000010H
	shl	eax, 0
	mov	ecx, 16					; 00000010H
	shl	ecx, 1
	mov	edx, 16					; 00000010H
	imul	edx, 3
	mov	esi, DWORD PTR _this$[ebp]
	mov	edi, DWORD PTR _this$[ebp]
	movss	xmm0, DWORD PTR [esi+ecx]
	mulss	xmm0, DWORD PTR [edi+edx+4]
	mov	ecx, 16					; 00000010H
	shl	ecx, 1
	mov	edx, 16					; 00000010H
	imul	edx, 3
	mov	esi, DWORD PTR _this$[ebp]
	mov	edi, DWORD PTR _this$[ebp]
	movss	xmm1, DWORD PTR [esi+ecx+4]
	mulss	xmm1, DWORD PTR [edi+edx]
	subss	xmm0, xmm1
	mov	ecx, DWORD PTR _this$[ebp]
	mulss	xmm0, DWORD PTR [ecx+eax+12]
	mov	edx, 16					; 00000010H
	shl	edx, 0
	mov	eax, 16					; 00000010H
	shl	eax, 1
	mov	ecx, 16					; 00000010H
	imul	ecx, 3
	mov	esi, DWORD PTR _this$[ebp]
	mov	edi, DWORD PTR _this$[ebp]
	movss	xmm1, DWORD PTR [esi+eax+4]
	mulss	xmm1, DWORD PTR [edi+ecx+12]
	mov	eax, 16					; 00000010H
	shl	eax, 1
	mov	ecx, 16					; 00000010H
	imul	ecx, 3
	mov	esi, DWORD PTR _this$[ebp]
	mov	edi, DWORD PTR _this$[ebp]
	movss	xmm2, DWORD PTR [esi+eax+12]
	mulss	xmm2, DWORD PTR [edi+ecx+4]
	subss	xmm1, xmm2
	mov	eax, DWORD PTR _this$[ebp]
	mulss	xmm1, DWORD PTR [eax+edx]
	addss	xmm0, xmm1
	mov	ecx, 16					; 00000010H
	shl	ecx, 0
	mov	edx, 16					; 00000010H
	shl	edx, 1
	mov	eax, 16					; 00000010H
	imul	eax, 3
	mov	esi, DWORD PTR _this$[ebp]
	mov	edi, DWORD PTR _this$[ebp]
	movss	xmm1, DWORD PTR [esi+edx+12]
	mulss	xmm1, DWORD PTR [edi+eax]
	mov	edx, 16					; 00000010H
	shl	edx, 1
	mov	eax, 16					; 00000010H
	imul	eax, 3
	mov	esi, DWORD PTR _this$[ebp]
	mov	edi, DWORD PTR _this$[ebp]
	movss	xmm2, DWORD PTR [esi+edx]
	mulss	xmm2, DWORD PTR [edi+eax+12]
	subss	xmm1, xmm2
	mov	edx, DWORD PTR _this$[ebp]
	mulss	xmm1, DWORD PTR [edx+ecx+4]
	addss	xmm0, xmm1
	mulss	xmm0, DWORD PTR _s$[ebp]
	mov	eax, 16					; 00000010H
	shl	eax, 1
	movss	DWORD PTR _t$[ebp+eax], xmm0

; 147  : 		t.Row[2].Y = s*(Row[2].W*(Row[0].X*Row[3].Y - Row[0].Y*Row[3].X) + Row[2].X*(Row[0].Y*Row[3].W - Row[0].W*Row[3].Y) + Row[2].Y*(Row[0].W*Row[3].X - Row[0].X*Row[3].W));

	mov	eax, 16					; 00000010H
	shl	eax, 1
	mov	ecx, 16					; 00000010H
	imul	ecx, 0
	mov	edx, 16					; 00000010H
	imul	edx, 3
	mov	esi, DWORD PTR _this$[ebp]
	mov	edi, DWORD PTR _this$[ebp]
	movss	xmm0, DWORD PTR [esi+ecx]
	mulss	xmm0, DWORD PTR [edi+edx+4]
	mov	ecx, 16					; 00000010H
	imul	ecx, 0
	mov	edx, 16					; 00000010H
	imul	edx, 3
	mov	esi, DWORD PTR _this$[ebp]
	mov	edi, DWORD PTR _this$[ebp]
	movss	xmm1, DWORD PTR [esi+ecx+4]
	mulss	xmm1, DWORD PTR [edi+edx]
	subss	xmm0, xmm1
	mov	ecx, DWORD PTR _this$[ebp]
	mulss	xmm0, DWORD PTR [ecx+eax+12]
	mov	edx, 16					; 00000010H
	shl	edx, 1
	mov	eax, 16					; 00000010H
	imul	eax, 0
	mov	ecx, 16					; 00000010H
	imul	ecx, 3
	mov	esi, DWORD PTR _this$[ebp]
	mov	edi, DWORD PTR _this$[ebp]
	movss	xmm1, DWORD PTR [esi+eax+4]
	mulss	xmm1, DWORD PTR [edi+ecx+12]
	mov	eax, 16					; 00000010H
	imul	eax, 0
	mov	ecx, 16					; 00000010H
	imul	ecx, 3
	mov	esi, DWORD PTR _this$[ebp]
	mov	edi, DWORD PTR _this$[ebp]
	movss	xmm2, DWORD PTR [esi+eax+12]
	mulss	xmm2, DWORD PTR [edi+ecx+4]
	subss	xmm1, xmm2
	mov	eax, DWORD PTR _this$[ebp]
	mulss	xmm1, DWORD PTR [eax+edx]
	addss	xmm0, xmm1
	mov	ecx, 16					; 00000010H
	shl	ecx, 1
	mov	edx, 16					; 00000010H
	imul	edx, 0
	mov	eax, 16					; 00000010H
	imul	eax, 3
	mov	esi, DWORD PTR _this$[ebp]
	mov	edi, DWORD PTR _this$[ebp]
	movss	xmm1, DWORD PTR [esi+edx+12]
	mulss	xmm1, DWORD PTR [edi+eax]
	mov	edx, 16					; 00000010H
	imul	edx, 0
	mov	eax, 16					; 00000010H
	imul	eax, 3
	mov	esi, DWORD PTR _this$[ebp]
	mov	edi, DWORD PTR _this$[ebp]
	movss	xmm2, DWORD PTR [esi+edx]
	mulss	xmm2, DWORD PTR [edi+eax+12]
	subss	xmm1, xmm2
	mov	edx, DWORD PTR _this$[ebp]
	mulss	xmm1, DWORD PTR [edx+ecx+4]
	addss	xmm0, xmm1
	mulss	xmm0, DWORD PTR _s$[ebp]
	mov	eax, 16					; 00000010H
	shl	eax, 1
	movss	DWORD PTR _t$[ebp+eax+4], xmm0

; 148  : 		t.Row[2].Z = s*(Row[3].W*(Row[0].X*Row[1].Y - Row[0].Y*Row[1].X) + Row[3].X*(Row[0].Y*Row[1].W - Row[0].W*Row[1].Y) + Row[3].Y*(Row[0].W*Row[1].X - Row[0].X*Row[1].W));

	mov	eax, 16					; 00000010H
	imul	eax, 3
	mov	ecx, 16					; 00000010H
	imul	ecx, 0
	mov	edx, 16					; 00000010H
	shl	edx, 0
	mov	esi, DWORD PTR _this$[ebp]
	mov	edi, DWORD PTR _this$[ebp]
	movss	xmm0, DWORD PTR [esi+ecx]
	mulss	xmm0, DWORD PTR [edi+edx+4]
	mov	ecx, 16					; 00000010H
	imul	ecx, 0
	mov	edx, 16					; 00000010H
	shl	edx, 0
	mov	esi, DWORD PTR _this$[ebp]
	mov	edi, DWORD PTR _this$[ebp]
	movss	xmm1, DWORD PTR [esi+ecx+4]
	mulss	xmm1, DWORD PTR [edi+edx]
	subss	xmm0, xmm1
	mov	ecx, DWORD PTR _this$[ebp]
	mulss	xmm0, DWORD PTR [ecx+eax+12]
	mov	edx, 16					; 00000010H
	imul	edx, 3
	mov	eax, 16					; 00000010H
	imul	eax, 0
	mov	ecx, 16					; 00000010H
	shl	ecx, 0
	mov	esi, DWORD PTR _this$[ebp]
	mov	edi, DWORD PTR _this$[ebp]
	movss	xmm1, DWORD PTR [esi+eax+4]
	mulss	xmm1, DWORD PTR [edi+ecx+12]
	mov	eax, 16					; 00000010H
	imul	eax, 0
	mov	ecx, 16					; 00000010H
	shl	ecx, 0
	mov	esi, DWORD PTR _this$[ebp]
	mov	edi, DWORD PTR _this$[ebp]
	movss	xmm2, DWORD PTR [esi+eax+12]
	mulss	xmm2, DWORD PTR [edi+ecx+4]
	subss	xmm1, xmm2
	mov	eax, DWORD PTR _this$[ebp]
	mulss	xmm1, DWORD PTR [eax+edx]
	addss	xmm0, xmm1
	mov	ecx, 16					; 00000010H
	imul	ecx, 3
	mov	edx, 16					; 00000010H
	imul	edx, 0
	mov	eax, 16					; 00000010H
	shl	eax, 0
	mov	esi, DWORD PTR _this$[ebp]
	mov	edi, DWORD PTR _this$[ebp]
	movss	xmm1, DWORD PTR [esi+edx+12]
	mulss	xmm1, DWORD PTR [edi+eax]
	mov	edx, 16					; 00000010H
	imul	edx, 0
	mov	eax, 16					; 00000010H
	shl	eax, 0
	mov	esi, DWORD PTR _this$[ebp]
	mov	edi, DWORD PTR _this$[ebp]
	movss	xmm2, DWORD PTR [esi+edx]
	mulss	xmm2, DWORD PTR [edi+eax+12]
	subss	xmm1, xmm2
	mov	edx, DWORD PTR _this$[ebp]
	mulss	xmm1, DWORD PTR [edx+ecx+4]
	addss	xmm0, xmm1
	mulss	xmm0, DWORD PTR _s$[ebp]
	mov	eax, 16					; 00000010H
	shl	eax, 1
	movss	DWORD PTR _t$[ebp+eax+8], xmm0

; 149  : 		t.Row[2].W = s*(Row[0].W*(Row[1].Y*Row[2].X - Row[1].X*Row[2].Y) + Row[0].X*(Row[1].W*Row[2].Y - Row[1].Y*Row[2].W) + Row[0].Y*(Row[1].X*Row[2].W - Row[1].W*Row[2].X));

	mov	eax, 16					; 00000010H
	imul	eax, 0
	mov	ecx, 16					; 00000010H
	shl	ecx, 0
	mov	edx, 16					; 00000010H
	shl	edx, 1
	mov	esi, DWORD PTR _this$[ebp]
	mov	edi, DWORD PTR _this$[ebp]
	movss	xmm0, DWORD PTR [esi+ecx+4]
	mulss	xmm0, DWORD PTR [edi+edx]
	mov	ecx, 16					; 00000010H
	shl	ecx, 0
	mov	edx, 16					; 00000010H
	shl	edx, 1
	mov	esi, DWORD PTR _this$[ebp]
	mov	edi, DWORD PTR _this$[ebp]
	movss	xmm1, DWORD PTR [esi+ecx]
	mulss	xmm1, DWORD PTR [edi+edx+4]
	subss	xmm0, xmm1
	mov	ecx, DWORD PTR _this$[ebp]
	mulss	xmm0, DWORD PTR [ecx+eax+12]
	mov	edx, 16					; 00000010H
	imul	edx, 0
	mov	eax, 16					; 00000010H
	shl	eax, 0
	mov	ecx, 16					; 00000010H
	shl	ecx, 1
	mov	esi, DWORD PTR _this$[ebp]
	mov	edi, DWORD PTR _this$[ebp]
	movss	xmm1, DWORD PTR [esi+eax+12]
	mulss	xmm1, DWORD PTR [edi+ecx+4]
	mov	eax, 16					; 00000010H
	shl	eax, 0
	mov	ecx, 16					; 00000010H
	shl	ecx, 1
	mov	esi, DWORD PTR _this$[ebp]
	mov	edi, DWORD PTR _this$[ebp]
	movss	xmm2, DWORD PTR [esi+eax+4]
	mulss	xmm2, DWORD PTR [edi+ecx+12]
	subss	xmm1, xmm2
	mov	eax, DWORD PTR _this$[ebp]
	mulss	xmm1, DWORD PTR [eax+edx]
	addss	xmm0, xmm1
	mov	ecx, 16					; 00000010H
	imul	ecx, 0
	mov	edx, 16					; 00000010H
	shl	edx, 0
	mov	eax, 16					; 00000010H
	shl	eax, 1
	mov	esi, DWORD PTR _this$[ebp]
	mov	edi, DWORD PTR _this$[ebp]
	movss	xmm1, DWORD PTR [esi+edx]
	mulss	xmm1, DWORD PTR [edi+eax+12]
	mov	edx, 16					; 00000010H
	shl	edx, 0
	mov	eax, 16					; 00000010H
	shl	eax, 1
	mov	esi, DWORD PTR _this$[ebp]
	mov	edi, DWORD PTR _this$[ebp]
	movss	xmm2, DWORD PTR [esi+edx+12]
	mulss	xmm2, DWORD PTR [edi+eax]
	subss	xmm1, xmm2
	mov	edx, DWORD PTR _this$[ebp]
	mulss	xmm1, DWORD PTR [edx+ecx+4]
	addss	xmm0, xmm1
	mulss	xmm0, DWORD PTR _s$[ebp]
	mov	eax, 16					; 00000010H
	shl	eax, 1
	movss	DWORD PTR _t$[ebp+eax+12], xmm0

; 150  : 		t.Row[3].X = s*(Row[1].X*(Row[2].Z*Row[3].Y - Row[2].Y*Row[3].Z) + Row[1].Y*(Row[2].X*Row[3].Z - Row[2].Z*Row[3].X) + Row[1].Z*(Row[2].Y*Row[3].X - Row[2].X*Row[3].Y));

	mov	eax, 16					; 00000010H
	shl	eax, 0
	mov	ecx, 16					; 00000010H
	shl	ecx, 1
	mov	edx, 16					; 00000010H
	imul	edx, 3
	mov	esi, DWORD PTR _this$[ebp]
	mov	edi, DWORD PTR _this$[ebp]
	movss	xmm0, DWORD PTR [esi+ecx+8]
	mulss	xmm0, DWORD PTR [edi+edx+4]
	mov	ecx, 16					; 00000010H
	shl	ecx, 1
	mov	edx, 16					; 00000010H
	imul	edx, 3
	mov	esi, DWORD PTR _this$[ebp]
	mov	edi, DWORD PTR _this$[ebp]
	movss	xmm1, DWORD PTR [esi+ecx+4]
	mulss	xmm1, DWORD PTR [edi+edx+8]
	subss	xmm0, xmm1
	mov	ecx, DWORD PTR _this$[ebp]
	mulss	xmm0, DWORD PTR [ecx+eax]
	mov	edx, 16					; 00000010H
	shl	edx, 0
	mov	eax, 16					; 00000010H
	shl	eax, 1
	mov	ecx, 16					; 00000010H
	imul	ecx, 3
	mov	esi, DWORD PTR _this$[ebp]
	mov	edi, DWORD PTR _this$[ebp]
	movss	xmm1, DWORD PTR [esi+eax]
	mulss	xmm1, DWORD PTR [edi+ecx+8]
	mov	eax, 16					; 00000010H
	shl	eax, 1
	mov	ecx, 16					; 00000010H
	imul	ecx, 3
	mov	esi, DWORD PTR _this$[ebp]
	mov	edi, DWORD PTR _this$[ebp]
	movss	xmm2, DWORD PTR [esi+eax+8]
	mulss	xmm2, DWORD PTR [edi+ecx]
	subss	xmm1, xmm2
	mov	eax, DWORD PTR _this$[ebp]
	mulss	xmm1, DWORD PTR [eax+edx+4]
	addss	xmm0, xmm1
	mov	ecx, 16					; 00000010H
	shl	ecx, 0
	mov	edx, 16					; 00000010H
	shl	edx, 1
	mov	eax, 16					; 00000010H
	imul	eax, 3
	mov	esi, DWORD PTR _this$[ebp]
	mov	edi, DWORD PTR _this$[ebp]
	movss	xmm1, DWORD PTR [esi+edx+4]
	mulss	xmm1, DWORD PTR [edi+eax]
	mov	edx, 16					; 00000010H
	shl	edx, 1
	mov	eax, 16					; 00000010H
	imul	eax, 3
	mov	esi, DWORD PTR _this$[ebp]
	mov	edi, DWORD PTR _this$[ebp]
	movss	xmm2, DWORD PTR [esi+edx]
	mulss	xmm2, DWORD PTR [edi+eax+4]
	subss	xmm1, xmm2
	mov	edx, DWORD PTR _this$[ebp]
	mulss	xmm1, DWORD PTR [edx+ecx+8]
	addss	xmm0, xmm1
	mulss	xmm0, DWORD PTR _s$[ebp]
	mov	eax, 16					; 00000010H
	imul	eax, 3
	movss	DWORD PTR _t$[ebp+eax], xmm0

; 151  : 		t.Row[3].Y = s*(Row[2].X*(Row[0].Z*Row[3].Y - Row[0].Y*Row[3].Z) + Row[2].Y*(Row[0].X*Row[3].Z - Row[0].Z*Row[3].X) + Row[2].Z*(Row[0].Y*Row[3].X - Row[0].X*Row[3].Y));

	mov	eax, 16					; 00000010H
	shl	eax, 1
	mov	ecx, 16					; 00000010H
	imul	ecx, 0
	mov	edx, 16					; 00000010H
	imul	edx, 3
	mov	esi, DWORD PTR _this$[ebp]
	mov	edi, DWORD PTR _this$[ebp]
	movss	xmm0, DWORD PTR [esi+ecx+8]
	mulss	xmm0, DWORD PTR [edi+edx+4]
	mov	ecx, 16					; 00000010H
	imul	ecx, 0
	mov	edx, 16					; 00000010H
	imul	edx, 3
	mov	esi, DWORD PTR _this$[ebp]
	mov	edi, DWORD PTR _this$[ebp]
	movss	xmm1, DWORD PTR [esi+ecx+4]
	mulss	xmm1, DWORD PTR [edi+edx+8]
	subss	xmm0, xmm1
	mov	ecx, DWORD PTR _this$[ebp]
	mulss	xmm0, DWORD PTR [ecx+eax]
	mov	edx, 16					; 00000010H
	shl	edx, 1
	mov	eax, 16					; 00000010H
	imul	eax, 0
	mov	ecx, 16					; 00000010H
	imul	ecx, 3
	mov	esi, DWORD PTR _this$[ebp]
	mov	edi, DWORD PTR _this$[ebp]
	movss	xmm1, DWORD PTR [esi+eax]
	mulss	xmm1, DWORD PTR [edi+ecx+8]
	mov	eax, 16					; 00000010H
	imul	eax, 0
	mov	ecx, 16					; 00000010H
	imul	ecx, 3
	mov	esi, DWORD PTR _this$[ebp]
	mov	edi, DWORD PTR _this$[ebp]
	movss	xmm2, DWORD PTR [esi+eax+8]
	mulss	xmm2, DWORD PTR [edi+ecx]
	subss	xmm1, xmm2
	mov	eax, DWORD PTR _this$[ebp]
	mulss	xmm1, DWORD PTR [eax+edx+4]
	addss	xmm0, xmm1
	mov	ecx, 16					; 00000010H
	shl	ecx, 1
	mov	edx, 16					; 00000010H
	imul	edx, 0
	mov	eax, 16					; 00000010H
	imul	eax, 3
	mov	esi, DWORD PTR _this$[ebp]
	mov	edi, DWORD PTR _this$[ebp]
	movss	xmm1, DWORD PTR [esi+edx+4]
	mulss	xmm1, DWORD PTR [edi+eax]
	mov	edx, 16					; 00000010H
	imul	edx, 0
	mov	eax, 16					; 00000010H
	imul	eax, 3
	mov	esi, DWORD PTR _this$[ebp]
	mov	edi, DWORD PTR _this$[ebp]
	movss	xmm2, DWORD PTR [esi+edx]
	mulss	xmm2, DWORD PTR [edi+eax+4]
	subss	xmm1, xmm2
	mov	edx, DWORD PTR _this$[ebp]
	mulss	xmm1, DWORD PTR [edx+ecx+8]
	addss	xmm0, xmm1
	mulss	xmm0, DWORD PTR _s$[ebp]
	mov	eax, 16					; 00000010H
	imul	eax, 3
	movss	DWORD PTR _t$[ebp+eax+4], xmm0

; 152  : 		t.Row[3].Z = s*(Row[3].X*(Row[0].Z*Row[1].Y - Row[0].Y*Row[1].Z) + Row[3].Y*(Row[0].X*Row[1].Z - Row[0].Z*Row[1].X) + Row[3].Z*(Row[0].Y*Row[1].X - Row[0].X*Row[1].Y));

	mov	eax, 16					; 00000010H
	imul	eax, 3
	mov	ecx, 16					; 00000010H
	imul	ecx, 0
	mov	edx, 16					; 00000010H
	shl	edx, 0
	mov	esi, DWORD PTR _this$[ebp]
	mov	edi, DWORD PTR _this$[ebp]
	movss	xmm0, DWORD PTR [esi+ecx+8]
	mulss	xmm0, DWORD PTR [edi+edx+4]
	mov	ecx, 16					; 00000010H
	imul	ecx, 0
	mov	edx, 16					; 00000010H
	shl	edx, 0
	mov	esi, DWORD PTR _this$[ebp]
	mov	edi, DWORD PTR _this$[ebp]
	movss	xmm1, DWORD PTR [esi+ecx+4]
	mulss	xmm1, DWORD PTR [edi+edx+8]
	subss	xmm0, xmm1
	mov	ecx, DWORD PTR _this$[ebp]
	mulss	xmm0, DWORD PTR [ecx+eax]
	mov	edx, 16					; 00000010H
	imul	edx, 3
	mov	eax, 16					; 00000010H
	imul	eax, 0
	mov	ecx, 16					; 00000010H
	shl	ecx, 0
	mov	esi, DWORD PTR _this$[ebp]
	mov	edi, DWORD PTR _this$[ebp]
	movss	xmm1, DWORD PTR [esi+eax]
	mulss	xmm1, DWORD PTR [edi+ecx+8]
	mov	eax, 16					; 00000010H
	imul	eax, 0
	mov	ecx, 16					; 00000010H
	shl	ecx, 0
	mov	esi, DWORD PTR _this$[ebp]
	mov	edi, DWORD PTR _this$[ebp]
	movss	xmm2, DWORD PTR [esi+eax+8]
	mulss	xmm2, DWORD PTR [edi+ecx]
	subss	xmm1, xmm2
	mov	eax, DWORD PTR _this$[ebp]
	mulss	xmm1, DWORD PTR [eax+edx+4]
	addss	xmm0, xmm1
	mov	ecx, 16					; 00000010H
	imul	ecx, 3
	mov	edx, 16					; 00000010H
	imul	edx, 0
	mov	eax, 16					; 00000010H
	shl	eax, 0
	mov	esi, DWORD PTR _this$[ebp]
	mov	edi, DWORD PTR _this$[ebp]
	movss	xmm1, DWORD PTR [esi+edx+4]
	mulss	xmm1, DWORD PTR [edi+eax]
	mov	edx, 16					; 00000010H
	imul	edx, 0
	mov	eax, 16					; 00000010H
	shl	eax, 0
	mov	esi, DWORD PTR _this$[ebp]
	mov	edi, DWORD PTR _this$[ebp]
	movss	xmm2, DWORD PTR [esi+edx]
	mulss	xmm2, DWORD PTR [edi+eax+4]
	subss	xmm1, xmm2
	mov	edx, DWORD PTR _this$[ebp]
	mulss	xmm1, DWORD PTR [edx+ecx+8]
	addss	xmm0, xmm1
	mulss	xmm0, DWORD PTR _s$[ebp]
	mov	eax, 16					; 00000010H
	imul	eax, 3
	movss	DWORD PTR _t$[ebp+eax+8], xmm0

; 153  : 		t.Row[3].W = s*(Row[0].X*(Row[1].Y*Row[2].Z - Row[1].Z*Row[2].Y) + Row[0].Y*(Row[1].Z*Row[2].X - Row[1].X*Row[2].Z) + Row[0].Z*(Row[1].X*Row[2].Y - Row[1].Y*Row[2].X));

	mov	eax, 16					; 00000010H
	imul	eax, 0
	mov	ecx, 16					; 00000010H
	shl	ecx, 0
	mov	edx, 16					; 00000010H
	shl	edx, 1
	mov	esi, DWORD PTR _this$[ebp]
	mov	edi, DWORD PTR _this$[ebp]
	movss	xmm0, DWORD PTR [esi+ecx+4]
	mulss	xmm0, DWORD PTR [edi+edx+8]
	mov	ecx, 16					; 00000010H
	shl	ecx, 0
	mov	edx, 16					; 00000010H
	shl	edx, 1
	mov	esi, DWORD PTR _this$[ebp]
	mov	edi, DWORD PTR _this$[ebp]
	movss	xmm1, DWORD PTR [esi+ecx+8]
	mulss	xmm1, DWORD PTR [edi+edx+4]
	subss	xmm0, xmm1
	mov	ecx, DWORD PTR _this$[ebp]
	mulss	xmm0, DWORD PTR [ecx+eax]
	mov	edx, 16					; 00000010H
	imul	edx, 0
	mov	eax, 16					; 00000010H
	shl	eax, 0
	mov	ecx, 16					; 00000010H
	shl	ecx, 1
	mov	esi, DWORD PTR _this$[ebp]
	mov	edi, DWORD PTR _this$[ebp]
	movss	xmm1, DWORD PTR [esi+eax+8]
	mulss	xmm1, DWORD PTR [edi+ecx]
	mov	eax, 16					; 00000010H
	shl	eax, 0
	mov	ecx, 16					; 00000010H
	shl	ecx, 1
	mov	esi, DWORD PTR _this$[ebp]
	mov	edi, DWORD PTR _this$[ebp]
	movss	xmm2, DWORD PTR [esi+eax]
	mulss	xmm2, DWORD PTR [edi+ecx+8]
	subss	xmm1, xmm2
	mov	eax, DWORD PTR _this$[ebp]
	mulss	xmm1, DWORD PTR [eax+edx+4]
	addss	xmm0, xmm1
	mov	ecx, 16					; 00000010H
	imul	ecx, 0
	mov	edx, 16					; 00000010H
	shl	edx, 0
	mov	eax, 16					; 00000010H
	shl	eax, 1
	mov	esi, DWORD PTR _this$[ebp]
	mov	edi, DWORD PTR _this$[ebp]
	movss	xmm1, DWORD PTR [esi+edx]
	mulss	xmm1, DWORD PTR [edi+eax+4]
	mov	edx, 16					; 00000010H
	shl	edx, 0
	mov	eax, 16					; 00000010H
	shl	eax, 1
	mov	esi, DWORD PTR _this$[ebp]
	mov	edi, DWORD PTR _this$[ebp]
	movss	xmm2, DWORD PTR [esi+edx+4]
	mulss	xmm2, DWORD PTR [edi+eax]
	subss	xmm1, xmm2
	mov	edx, DWORD PTR _this$[ebp]
	mulss	xmm1, DWORD PTR [edx+ecx+8]
	addss	xmm0, xmm1
	mulss	xmm0, DWORD PTR _s$[ebp]
	mov	eax, 16					; 00000010H
	imul	eax, 3
	movss	DWORD PTR _t$[ebp+eax+12], xmm0

; 154  : 		return t;

	lea	eax, DWORD PTR _t$[ebp]
	push	eax
	mov	ecx, DWORD PTR ___$ReturnUdt$[ebp]
	call	??0Matrix4@@QAE@ABV0@@Z			; Matrix4::Matrix4
	mov	eax, DWORD PTR ___$ReturnUdt$[ebp]
$LN2@Inverse:

; 155  : 	}

	pop	edi
	pop	esi
	pop	ebx
	mov	esp, ebp
	pop	ebp
	ret	4
?Inverse@Matrix4@@QBE?AV1@XZ ENDP			; Matrix4::Inverse
_TEXT	ENDS
; Function compile flags: /Odtp /ZI
; File x:\github\renegade\dragonade_rxd\scripts\matrix4.h
;	COMDAT ?Determinant@Matrix4@@QBEMXZ
_TEXT	SEGMENT
_det$ = -8						; size = 4
_this$ = -4						; size = 4
?Determinant@Matrix4@@QBEMXZ PROC			; Matrix4::Determinant, COMDAT
; _this$ = ecx

; 122  : 	{

	push	ebp
	mov	ebp, esp
	sub	esp, 72					; 00000048H
	push	ebx
	push	esi
	push	edi
	mov	DWORD PTR _this$[ebp], ecx

; 123  : 		float det;
; 124  : 		det =	(Row[0].X * Row[1].Y - Row[0].Y * Row[1].X) * (Row[2].Z * Row[3].W - Row[2].W * Row[3].Z);

	mov	eax, 16					; 00000010H
	imul	eax, 0
	mov	ecx, 16					; 00000010H
	shl	ecx, 0
	mov	edx, DWORD PTR _this$[ebp]
	mov	esi, DWORD PTR _this$[ebp]
	movss	xmm0, DWORD PTR [edx+eax]
	mulss	xmm0, DWORD PTR [esi+ecx+4]
	mov	eax, 16					; 00000010H
	imul	eax, 0
	mov	ecx, 16					; 00000010H
	shl	ecx, 0
	mov	edx, DWORD PTR _this$[ebp]
	mov	esi, DWORD PTR _this$[ebp]
	movss	xmm1, DWORD PTR [edx+eax+4]
	mulss	xmm1, DWORD PTR [esi+ecx]
	subss	xmm0, xmm1
	mov	eax, 16					; 00000010H
	shl	eax, 1
	mov	ecx, 16					; 00000010H
	imul	ecx, 3
	mov	edx, DWORD PTR _this$[ebp]
	mov	esi, DWORD PTR _this$[ebp]
	movss	xmm1, DWORD PTR [edx+eax+8]
	mulss	xmm1, DWORD PTR [esi+ecx+12]
	mov	eax, 16					; 00000010H
	shl	eax, 1
	mov	ecx, 16					; 00000010H
	imul	ecx, 3
	mov	edx, DWORD PTR _this$[ebp]
	mov	esi, DWORD PTR _this$[ebp]
	movss	xmm2, DWORD PTR [edx+eax+12]
	mulss	xmm2, DWORD PTR [esi+ecx+8]
	subss	xmm1, xmm2
	mulss	xmm0, xmm1
	movss	DWORD PTR _det$[ebp], xmm0

; 125  : 		det -=	(Row[0].X * Row[1].Z - Row[0].Z * Row[1].X) * (Row[2].Y * Row[3].W - Row[2].W * Row[3].Y);

	mov	eax, 16					; 00000010H
	imul	eax, 0
	mov	ecx, 16					; 00000010H
	shl	ecx, 0
	mov	edx, DWORD PTR _this$[ebp]
	mov	esi, DWORD PTR _this$[ebp]
	movss	xmm0, DWORD PTR [edx+eax]
	mulss	xmm0, DWORD PTR [esi+ecx+8]
	mov	eax, 16					; 00000010H
	imul	eax, 0
	mov	ecx, 16					; 00000010H
	shl	ecx, 0
	mov	edx, DWORD PTR _this$[ebp]
	mov	esi, DWORD PTR _this$[ebp]
	movss	xmm1, DWORD PTR [edx+eax+8]
	mulss	xmm1, DWORD PTR [esi+ecx]
	subss	xmm0, xmm1
	mov	eax, 16					; 00000010H
	shl	eax, 1
	mov	ecx, 16					; 00000010H
	imul	ecx, 3
	mov	edx, DWORD PTR _this$[ebp]
	mov	esi, DWORD PTR _this$[ebp]
	movss	xmm1, DWORD PTR [edx+eax+4]
	mulss	xmm1, DWORD PTR [esi+ecx+12]
	mov	eax, 16					; 00000010H
	shl	eax, 1
	mov	ecx, 16					; 00000010H
	imul	ecx, 3
	mov	edx, DWORD PTR _this$[ebp]
	mov	esi, DWORD PTR _this$[ebp]
	movss	xmm2, DWORD PTR [edx+eax+12]
	mulss	xmm2, DWORD PTR [esi+ecx+4]
	subss	xmm1, xmm2
	mulss	xmm0, xmm1
	movss	xmm1, DWORD PTR _det$[ebp]
	subss	xmm1, xmm0
	movss	DWORD PTR _det$[ebp], xmm1

; 126  : 		det +=	(Row[0].X * Row[1].W - Row[0].W * Row[1].X) * (Row[2].Y * Row[3].Z - Row[2].Z * Row[3].Y);

	mov	eax, 16					; 00000010H
	imul	eax, 0
	mov	ecx, 16					; 00000010H
	shl	ecx, 0
	mov	edx, DWORD PTR _this$[ebp]
	mov	esi, DWORD PTR _this$[ebp]
	movss	xmm0, DWORD PTR [edx+eax]
	mulss	xmm0, DWORD PTR [esi+ecx+12]
	mov	eax, 16					; 00000010H
	imul	eax, 0
	mov	ecx, 16					; 00000010H
	shl	ecx, 0
	mov	edx, DWORD PTR _this$[ebp]
	mov	esi, DWORD PTR _this$[ebp]
	movss	xmm1, DWORD PTR [edx+eax+12]
	mulss	xmm1, DWORD PTR [esi+ecx]
	subss	xmm0, xmm1
	mov	eax, 16					; 00000010H
	shl	eax, 1
	mov	ecx, 16					; 00000010H
	imul	ecx, 3
	mov	edx, DWORD PTR _this$[ebp]
	mov	esi, DWORD PTR _this$[ebp]
	movss	xmm1, DWORD PTR [edx+eax+4]
	mulss	xmm1, DWORD PTR [esi+ecx+8]
	mov	eax, 16					; 00000010H
	shl	eax, 1
	mov	ecx, 16					; 00000010H
	imul	ecx, 3
	mov	edx, DWORD PTR _this$[ebp]
	mov	esi, DWORD PTR _this$[ebp]
	movss	xmm2, DWORD PTR [edx+eax+8]
	mulss	xmm2, DWORD PTR [esi+ecx+4]
	subss	xmm1, xmm2
	mulss	xmm0, xmm1
	addss	xmm0, DWORD PTR _det$[ebp]
	movss	DWORD PTR _det$[ebp], xmm0

; 127  : 		det +=	(Row[0].Y * Row[1].Z - Row[0].Z * Row[1].Y) * (Row[2].X * Row[3].W - Row[2].W * Row[3].X);

	mov	eax, 16					; 00000010H
	imul	eax, 0
	mov	ecx, 16					; 00000010H
	shl	ecx, 0
	mov	edx, DWORD PTR _this$[ebp]
	mov	esi, DWORD PTR _this$[ebp]
	movss	xmm0, DWORD PTR [edx+eax+4]
	mulss	xmm0, DWORD PTR [esi+ecx+8]
	mov	eax, 16					; 00000010H
	imul	eax, 0
	mov	ecx, 16					; 00000010H
	shl	ecx, 0
	mov	edx, DWORD PTR _this$[ebp]
	mov	esi, DWORD PTR _this$[ebp]
	movss	xmm1, DWORD PTR [edx+eax+8]
	mulss	xmm1, DWORD PTR [esi+ecx+4]
	subss	xmm0, xmm1
	mov	eax, 16					; 00000010H
	shl	eax, 1
	mov	ecx, 16					; 00000010H
	imul	ecx, 3
	mov	edx, DWORD PTR _this$[ebp]
	mov	esi, DWORD PTR _this$[ebp]
	movss	xmm1, DWORD PTR [edx+eax]
	mulss	xmm1, DWORD PTR [esi+ecx+12]
	mov	eax, 16					; 00000010H
	shl	eax, 1
	mov	ecx, 16					; 00000010H
	imul	ecx, 3
	mov	edx, DWORD PTR _this$[ebp]
	mov	esi, DWORD PTR _this$[ebp]
	movss	xmm2, DWORD PTR [edx+eax+12]
	mulss	xmm2, DWORD PTR [esi+ecx]
	subss	xmm1, xmm2
	mulss	xmm0, xmm1
	addss	xmm0, DWORD PTR _det$[ebp]
	movss	DWORD PTR _det$[ebp], xmm0

; 128  : 		det -=	(Row[0].Y * Row[1].W - Row[0].W * Row[1].Y) * (Row[2].X * Row[3].Z - Row[2].Z * Row[3].X);

	mov	eax, 16					; 00000010H
	imul	eax, 0
	mov	ecx, 16					; 00000010H
	shl	ecx, 0
	mov	edx, DWORD PTR _this$[ebp]
	mov	esi, DWORD PTR _this$[ebp]
	movss	xmm0, DWORD PTR [edx+eax+4]
	mulss	xmm0, DWORD PTR [esi+ecx+12]
	mov	eax, 16					; 00000010H
	imul	eax, 0
	mov	ecx, 16					; 00000010H
	shl	ecx, 0
	mov	edx, DWORD PTR _this$[ebp]
	mov	esi, DWORD PTR _this$[ebp]
	movss	xmm1, DWORD PTR [edx+eax+12]
	mulss	xmm1, DWORD PTR [esi+ecx+4]
	subss	xmm0, xmm1
	mov	eax, 16					; 00000010H
	shl	eax, 1
	mov	ecx, 16					; 00000010H
	imul	ecx, 3
	mov	edx, DWORD PTR _this$[ebp]
	mov	esi, DWORD PTR _this$[ebp]
	movss	xmm1, DWORD PTR [edx+eax]
	mulss	xmm1, DWORD PTR [esi+ecx+8]
	mov	eax, 16					; 00000010H
	shl	eax, 1
	mov	ecx, 16					; 00000010H
	imul	ecx, 3
	mov	edx, DWORD PTR _this$[ebp]
	mov	esi, DWORD PTR _this$[ebp]
	movss	xmm2, DWORD PTR [edx+eax+8]
	mulss	xmm2, DWORD PTR [esi+ecx]
	subss	xmm1, xmm2
	mulss	xmm0, xmm1
	movss	xmm1, DWORD PTR _det$[ebp]
	subss	xmm1, xmm0
	movss	DWORD PTR _det$[ebp], xmm1

; 129  : 		det +=	(Row[0].Z * Row[1].W - Row[0].W * Row[1].Z) * (Row[2].X * Row[3].Y - Row[2].Y * Row[3].X);		

	mov	eax, 16					; 00000010H
	imul	eax, 0
	mov	ecx, 16					; 00000010H
	shl	ecx, 0
	mov	edx, DWORD PTR _this$[ebp]
	mov	esi, DWORD PTR _this$[ebp]
	movss	xmm0, DWORD PTR [edx+eax+8]
	mulss	xmm0, DWORD PTR [esi+ecx+12]
	mov	eax, 16					; 00000010H
	imul	eax, 0
	mov	ecx, 16					; 00000010H
	shl	ecx, 0
	mov	edx, DWORD PTR _this$[ebp]
	mov	esi, DWORD PTR _this$[ebp]
	movss	xmm1, DWORD PTR [edx+eax+12]
	mulss	xmm1, DWORD PTR [esi+ecx+8]
	subss	xmm0, xmm1
	mov	eax, 16					; 00000010H
	shl	eax, 1
	mov	ecx, 16					; 00000010H
	imul	ecx, 3
	mov	edx, DWORD PTR _this$[ebp]
	mov	esi, DWORD PTR _this$[ebp]
	movss	xmm1, DWORD PTR [edx+eax]
	mulss	xmm1, DWORD PTR [esi+ecx+4]
	mov	eax, 16					; 00000010H
	shl	eax, 1
	mov	ecx, 16					; 00000010H
	imul	ecx, 3
	mov	edx, DWORD PTR _this$[ebp]
	mov	esi, DWORD PTR _this$[ebp]
	movss	xmm2, DWORD PTR [edx+eax+4]
	mulss	xmm2, DWORD PTR [esi+ecx]
	subss	xmm1, xmm2
	mulss	xmm0, xmm1
	addss	xmm0, DWORD PTR _det$[ebp]
	movss	DWORD PTR _det$[ebp], xmm0

; 130  : 		return det;	

	fld	DWORD PTR _det$[ebp]

; 131  : 	};	

	pop	edi
	pop	esi
	pop	ebx
	mov	esp, ebp
	pop	ebp
	ret	0
?Determinant@Matrix4@@QBEMXZ ENDP			; Matrix4::Determinant
_TEXT	ENDS
; Function compile flags: /Odtp /ZI
; File x:\github\renegade\dragonade_rxd\scripts\matrix4.h
;	COMDAT ?Transpose@Matrix4@@QBE?AV1@XZ
_TEXT	SEGMENT
$T1 = -132						; size = 16
$T2 = -116						; size = 16
$T3 = -100						; size = 16
$T4 = -84						; size = 16
_this$ = -4						; size = 4
___$ReturnUdt$ = 8					; size = 4
?Transpose@Matrix4@@QBE?AV1@XZ PROC			; Matrix4::Transpose, COMDAT
; _this$ = ecx

; 118  : 	{

	push	ebp
	mov	ebp, esp
	sub	esp, 132				; 00000084H
	push	ebx
	push	esi
	push	edi
	mov	DWORD PTR _this$[ebp], ecx

; 119  : 		return Matrix4(Vector4(Row[0][0], Row[1][0], Row[2][0], Row[3][0]),Vector4(Row[0][1], Row[1][1], Row[2][1], Row[3][1]),Vector4(Row[0][2], Row[1][2], Row[2][2], Row[3][2]),Vector4(Row[0][3], Row[1][3], Row[2][3], Row[3][3]));

	push	3
	mov	ecx, 16					; 00000010H
	imul	ecx, 3
	add	ecx, DWORD PTR _this$[ebp]
	call	??AVector4@@QBEABMH@Z			; Vector4::operator[]
	push	ecx
	movss	xmm0, DWORD PTR [eax]
	movss	DWORD PTR [esp], xmm0
	push	3
	mov	ecx, 16					; 00000010H
	shl	ecx, 1
	add	ecx, DWORD PTR _this$[ebp]
	call	??AVector4@@QBEABMH@Z			; Vector4::operator[]
	push	ecx
	movss	xmm0, DWORD PTR [eax]
	movss	DWORD PTR [esp], xmm0
	push	3
	mov	ecx, 16					; 00000010H
	shl	ecx, 0
	add	ecx, DWORD PTR _this$[ebp]
	call	??AVector4@@QBEABMH@Z			; Vector4::operator[]
	push	ecx
	movss	xmm0, DWORD PTR [eax]
	movss	DWORD PTR [esp], xmm0
	push	3
	mov	ecx, 16					; 00000010H
	imul	ecx, 0
	add	ecx, DWORD PTR _this$[ebp]
	call	??AVector4@@QBEABMH@Z			; Vector4::operator[]
	push	ecx
	movss	xmm0, DWORD PTR [eax]
	movss	DWORD PTR [esp], xmm0
	lea	ecx, DWORD PTR $T1[ebp]
	call	??0Vector4@@QAE@MMMM@Z			; Vector4::Vector4
	push	eax
	push	2
	mov	ecx, 16					; 00000010H
	imul	ecx, 3
	add	ecx, DWORD PTR _this$[ebp]
	call	??AVector4@@QBEABMH@Z			; Vector4::operator[]
	push	ecx
	movss	xmm0, DWORD PTR [eax]
	movss	DWORD PTR [esp], xmm0
	push	2
	mov	ecx, 16					; 00000010H
	shl	ecx, 1
	add	ecx, DWORD PTR _this$[ebp]
	call	??AVector4@@QBEABMH@Z			; Vector4::operator[]
	push	ecx
	movss	xmm0, DWORD PTR [eax]
	movss	DWORD PTR [esp], xmm0
	push	2
	mov	ecx, 16					; 00000010H
	shl	ecx, 0
	add	ecx, DWORD PTR _this$[ebp]
	call	??AVector4@@QBEABMH@Z			; Vector4::operator[]
	push	ecx
	movss	xmm0, DWORD PTR [eax]
	movss	DWORD PTR [esp], xmm0
	push	2
	mov	ecx, 16					; 00000010H
	imul	ecx, 0
	add	ecx, DWORD PTR _this$[ebp]
	call	??AVector4@@QBEABMH@Z			; Vector4::operator[]
	push	ecx
	movss	xmm0, DWORD PTR [eax]
	movss	DWORD PTR [esp], xmm0
	lea	ecx, DWORD PTR $T2[ebp]
	call	??0Vector4@@QAE@MMMM@Z			; Vector4::Vector4
	push	eax
	push	1
	mov	ecx, 16					; 00000010H
	imul	ecx, 3
	add	ecx, DWORD PTR _this$[ebp]
	call	??AVector4@@QBEABMH@Z			; Vector4::operator[]
	push	ecx
	movss	xmm0, DWORD PTR [eax]
	movss	DWORD PTR [esp], xmm0
	push	1
	mov	ecx, 16					; 00000010H
	shl	ecx, 1
	add	ecx, DWORD PTR _this$[ebp]
	call	??AVector4@@QBEABMH@Z			; Vector4::operator[]
	push	ecx
	movss	xmm0, DWORD PTR [eax]
	movss	DWORD PTR [esp], xmm0
	push	1
	mov	ecx, 16					; 00000010H
	shl	ecx, 0
	add	ecx, DWORD PTR _this$[ebp]
	call	??AVector4@@QBEABMH@Z			; Vector4::operator[]
	push	ecx
	movss	xmm0, DWORD PTR [eax]
	movss	DWORD PTR [esp], xmm0
	push	1
	mov	ecx, 16					; 00000010H
	imul	ecx, 0
	add	ecx, DWORD PTR _this$[ebp]
	call	??AVector4@@QBEABMH@Z			; Vector4::operator[]
	push	ecx
	movss	xmm0, DWORD PTR [eax]
	movss	DWORD PTR [esp], xmm0
	lea	ecx, DWORD PTR $T3[ebp]
	call	??0Vector4@@QAE@MMMM@Z			; Vector4::Vector4
	push	eax
	push	0
	mov	ecx, 16					; 00000010H
	imul	ecx, 3
	add	ecx, DWORD PTR _this$[ebp]
	call	??AVector4@@QBEABMH@Z			; Vector4::operator[]
	push	ecx
	movss	xmm0, DWORD PTR [eax]
	movss	DWORD PTR [esp], xmm0
	push	0
	mov	ecx, 16					; 00000010H
	shl	ecx, 1
	add	ecx, DWORD PTR _this$[ebp]
	call	??AVector4@@QBEABMH@Z			; Vector4::operator[]
	push	ecx
	movss	xmm0, DWORD PTR [eax]
	movss	DWORD PTR [esp], xmm0
	push	0
	mov	ecx, 16					; 00000010H
	shl	ecx, 0
	add	ecx, DWORD PTR _this$[ebp]
	call	??AVector4@@QBEABMH@Z			; Vector4::operator[]
	push	ecx
	movss	xmm0, DWORD PTR [eax]
	movss	DWORD PTR [esp], xmm0
	push	0
	mov	ecx, 16					; 00000010H
	imul	ecx, 0
	add	ecx, DWORD PTR _this$[ebp]
	call	??AVector4@@QBEABMH@Z			; Vector4::operator[]
	push	ecx
	movss	xmm0, DWORD PTR [eax]
	movss	DWORD PTR [esp], xmm0
	lea	ecx, DWORD PTR $T4[ebp]
	call	??0Vector4@@QAE@MMMM@Z			; Vector4::Vector4
	push	eax
	mov	ecx, DWORD PTR ___$ReturnUdt$[ebp]
	call	??0Matrix4@@QAE@ABVVector4@@000@Z	; Matrix4::Matrix4
	mov	eax, DWORD PTR ___$ReturnUdt$[ebp]

; 120  : 	}

	pop	edi
	pop	esi
	pop	ebx
	mov	esp, ebp
	pop	ebp
	ret	4
?Transpose@Matrix4@@QBE?AV1@XZ ENDP			; Matrix4::Transpose
_TEXT	ENDS
; Function compile flags: /Odtp /ZI
; File x:\github\renegade\dragonade_rxd\scripts\matrix4.h
;	COMDAT ??AMatrix4@@QBEABVVector4@@H@Z
_TEXT	SEGMENT
_this$ = -4						; size = 4
_i$ = 8							; size = 4
??AMatrix4@@QBEABVVector4@@H@Z PROC			; Matrix4::operator[], COMDAT
; _this$ = ecx

; 116  : 	TT_INLINE const Vector4 & operator [] (int i) const { return Row[i]; }

	push	ebp
	mov	ebp, esp
	sub	esp, 68					; 00000044H
	push	ebx
	push	esi
	push	edi
	mov	DWORD PTR _this$[ebp], ecx
	mov	eax, DWORD PTR _i$[ebp]
	shl	eax, 4
	add	eax, DWORD PTR _this$[ebp]
	pop	edi
	pop	esi
	pop	ebx
	mov	esp, ebp
	pop	ebp
	ret	4
??AMatrix4@@QBEABVVector4@@H@Z ENDP			; Matrix4::operator[]
_TEXT	ENDS
; Function compile flags: /Odtp /ZI
; File x:\github\renegade\dragonade_rxd\scripts\matrix4.h
;	COMDAT ??AMatrix4@@QAEAAVVector4@@H@Z
_TEXT	SEGMENT
_this$ = -4						; size = 4
_i$ = 8							; size = 4
??AMatrix4@@QAEAAVVector4@@H@Z PROC			; Matrix4::operator[], COMDAT
; _this$ = ecx

; 115  : 	TT_INLINE Vector4 & operator [] (int i) { return Row[i]; }

	push	ebp
	mov	ebp, esp
	sub	esp, 68					; 00000044H
	push	ebx
	push	esi
	push	edi
	mov	DWORD PTR _this$[ebp], ecx
	mov	eax, DWORD PTR _i$[ebp]
	shl	eax, 4
	add	eax, DWORD PTR _this$[ebp]
	pop	edi
	pop	esi
	pop	ebx
	mov	esp, ebp
	pop	ebp
	ret	4
??AMatrix4@@QAEAAVVector4@@H@Z ENDP			; Matrix4::operator[]
_TEXT	ENDS
; Function compile flags: /Odtp /ZI
; File x:\github\renegade\dragonade_rxd\scripts\matrix4.h
;	COMDAT ?Init_Perspective@Matrix4@@QAEXMMMMMM@Z
_TEXT	SEGMENT
tv218 = -72						; size = 4
tv216 = -72						; size = 4
tv214 = -72						; size = 4
tv212 = -72						; size = 4
tv210 = -72						; size = 4
tv208 = -72						; size = 4
_this$ = -4						; size = 4
_left$ = 8						; size = 4
_right$ = 12						; size = 4
_bottom$ = 16						; size = 4
_top$ = 20						; size = 4
_znear$ = 24						; size = 4
_zfar$ = 28						; size = 4
?Init_Perspective@Matrix4@@QAEXMMMMMM@Z PROC		; Matrix4::Init_Perspective, COMDAT
; _this$ = ecx

; 103  : 	{

	push	ebp
	mov	ebp, esp
	sub	esp, 72					; 00000048H
	push	ebx
	push	esi
	push	edi
	mov	DWORD PTR _this$[ebp], ecx

; 104  : 		Make_Identity();

	mov	ecx, DWORD PTR _this$[ebp]
	call	?Make_Identity@Matrix4@@QAEXXZ		; Matrix4::Make_Identity

; 105  : 		Row[0][0] = static_cast<float>(2.0*znear / (right - left));

	cvtss2sd xmm0, DWORD PTR _znear$[ebp]
	mulsd	xmm0, QWORD PTR __real@4000000000000000
	movss	xmm1, DWORD PTR _right$[ebp]
	subss	xmm1, DWORD PTR _left$[ebp]
	cvtss2sd xmm1, xmm1
	divsd	xmm0, xmm1
	cvtsd2ss xmm0, xmm0
	push	0
	mov	ecx, 16					; 00000010H
	imul	ecx, 0
	add	ecx, DWORD PTR _this$[ebp]
	movss	DWORD PTR tv208[ebp], xmm0
	call	??AVector4@@QAEAAMH@Z			; Vector4::operator[]
	movss	xmm0, DWORD PTR tv208[ebp]
	movss	DWORD PTR [eax], xmm0

; 106  : 		Row[0][2] = (right + left) / (right - left);

	movss	xmm0, DWORD PTR _right$[ebp]
	addss	xmm0, DWORD PTR _left$[ebp]
	movss	xmm1, DWORD PTR _right$[ebp]
	subss	xmm1, DWORD PTR _left$[ebp]
	divss	xmm0, xmm1
	push	2
	mov	ecx, 16					; 00000010H
	imul	ecx, 0
	add	ecx, DWORD PTR _this$[ebp]
	movss	DWORD PTR tv210[ebp], xmm0
	call	??AVector4@@QAEAAMH@Z			; Vector4::operator[]
	movss	xmm0, DWORD PTR tv210[ebp]
	movss	DWORD PTR [eax], xmm0

; 107  : 		Row[1][1] = static_cast<float>(2.0*znear / (top - bottom));

	cvtss2sd xmm0, DWORD PTR _znear$[ebp]
	mulsd	xmm0, QWORD PTR __real@4000000000000000
	movss	xmm1, DWORD PTR _top$[ebp]
	subss	xmm1, DWORD PTR _bottom$[ebp]
	cvtss2sd xmm1, xmm1
	divsd	xmm0, xmm1
	cvtsd2ss xmm0, xmm0
	push	1
	mov	ecx, 16					; 00000010H
	shl	ecx, 0
	add	ecx, DWORD PTR _this$[ebp]
	movss	DWORD PTR tv212[ebp], xmm0
	call	??AVector4@@QAEAAMH@Z			; Vector4::operator[]
	movss	xmm0, DWORD PTR tv212[ebp]
	movss	DWORD PTR [eax], xmm0

; 108  : 		Row[1][2] = (top + bottom) / (top - bottom);

	movss	xmm0, DWORD PTR _top$[ebp]
	addss	xmm0, DWORD PTR _bottom$[ebp]
	movss	xmm1, DWORD PTR _top$[ebp]
	subss	xmm1, DWORD PTR _bottom$[ebp]
	divss	xmm0, xmm1
	push	2
	mov	ecx, 16					; 00000010H
	shl	ecx, 0
	add	ecx, DWORD PTR _this$[ebp]
	movss	DWORD PTR tv214[ebp], xmm0
	call	??AVector4@@QAEAAMH@Z			; Vector4::operator[]
	movss	xmm0, DWORD PTR tv214[ebp]
	movss	DWORD PTR [eax], xmm0

; 109  : 		Row[2][2] = zfar / (znear - zfar);

	movss	xmm0, DWORD PTR _znear$[ebp]
	subss	xmm0, DWORD PTR _zfar$[ebp]
	movss	xmm1, DWORD PTR _zfar$[ebp]
	divss	xmm1, xmm0
	push	2
	mov	ecx, 16					; 00000010H
	shl	ecx, 1
	add	ecx, DWORD PTR _this$[ebp]
	movss	DWORD PTR tv216[ebp], xmm1
	call	??AVector4@@QAEAAMH@Z			; Vector4::operator[]
	movss	xmm0, DWORD PTR tv216[ebp]
	movss	DWORD PTR [eax], xmm0

; 110  : 		Row[2][3] = (znear * zfar) / (znear - zfar);

	movss	xmm0, DWORD PTR _znear$[ebp]
	mulss	xmm0, DWORD PTR _zfar$[ebp]
	movss	xmm1, DWORD PTR _znear$[ebp]
	subss	xmm1, DWORD PTR _zfar$[ebp]
	divss	xmm0, xmm1
	push	3
	mov	ecx, 16					; 00000010H
	shl	ecx, 1
	add	ecx, DWORD PTR _this$[ebp]
	movss	DWORD PTR tv218[ebp], xmm0
	call	??AVector4@@QAEAAMH@Z			; Vector4::operator[]
	movss	xmm0, DWORD PTR tv218[ebp]
	movss	DWORD PTR [eax], xmm0

; 111  : 		Row[3][2] = -1.0f;

	push	2
	mov	ecx, 16					; 00000010H
	imul	ecx, 3
	add	ecx, DWORD PTR _this$[ebp]
	call	??AVector4@@QAEAAMH@Z			; Vector4::operator[]
	movss	xmm0, DWORD PTR __real@bf800000
	movss	DWORD PTR [eax], xmm0

; 112  : 		Row[3][3] = 0.0f;

	push	3
	mov	ecx, 16					; 00000010H
	imul	ecx, 3
	add	ecx, DWORD PTR _this$[ebp]
	call	??AVector4@@QAEAAMH@Z			; Vector4::operator[]
	movss	xmm0, DWORD PTR __real@00000000
	movss	DWORD PTR [eax], xmm0

; 113  : 	}

	pop	edi
	pop	esi
	pop	ebx
	mov	esp, ebp
	pop	ebp
	ret	24					; 00000018H
?Init_Perspective@Matrix4@@QAEXMMMMMM@Z ENDP		; Matrix4::Init_Perspective
_TEXT	ENDS
; Function compile flags: /Odtp /ZI
; File x:\github\renegade\dragonade_rxd\scripts\matrix4.h
;	COMDAT ?Init_Ortho@Matrix4@@QAEXMMMMMM@Z
_TEXT	SEGMENT
tv190 = -72						; size = 4
tv188 = -72						; size = 4
tv186 = -72						; size = 4
tv184 = -72						; size = 4
tv182 = -72						; size = 4
tv180 = -72						; size = 4
_this$ = -4						; size = 4
_left$ = 8						; size = 4
_right$ = 12						; size = 4
_bottom$ = 16						; size = 4
_top$ = 20						; size = 4
_znear$ = 24						; size = 4
_zfar$ = 28						; size = 4
?Init_Ortho@Matrix4@@QAEXMMMMMM@Z PROC			; Matrix4::Init_Ortho, COMDAT
; _this$ = ecx

; 92   : 	{

	push	ebp
	mov	ebp, esp
	sub	esp, 72					; 00000048H
	push	ebx
	push	esi
	push	edi
	mov	DWORD PTR _this$[ebp], ecx

; 93   : 		Make_Identity();

	mov	ecx, DWORD PTR _this$[ebp]
	call	?Make_Identity@Matrix4@@QAEXXZ		; Matrix4::Make_Identity

; 94   : 		Row[0][0] = 2.0f / (right - left);

	movss	xmm0, DWORD PTR _right$[ebp]
	subss	xmm0, DWORD PTR _left$[ebp]
	movss	xmm1, DWORD PTR __real@40000000
	divss	xmm1, xmm0
	push	0
	mov	ecx, 16					; 00000010H
	imul	ecx, 0
	add	ecx, DWORD PTR _this$[ebp]
	movss	DWORD PTR tv180[ebp], xmm1
	call	??AVector4@@QAEAAMH@Z			; Vector4::operator[]
	movss	xmm0, DWORD PTR tv180[ebp]
	movss	DWORD PTR [eax], xmm0

; 95   : 		Row[0][3] = (left + right) / (left - right);

	movss	xmm0, DWORD PTR _left$[ebp]
	addss	xmm0, DWORD PTR _right$[ebp]
	movss	xmm1, DWORD PTR _left$[ebp]
	subss	xmm1, DWORD PTR _right$[ebp]
	divss	xmm0, xmm1
	push	3
	mov	ecx, 16					; 00000010H
	imul	ecx, 0
	add	ecx, DWORD PTR _this$[ebp]
	movss	DWORD PTR tv182[ebp], xmm0
	call	??AVector4@@QAEAAMH@Z			; Vector4::operator[]
	movss	xmm0, DWORD PTR tv182[ebp]
	movss	DWORD PTR [eax], xmm0

; 96   : 		Row[1][1] = 2.0f / (top - bottom);

	movss	xmm0, DWORD PTR _top$[ebp]
	subss	xmm0, DWORD PTR _bottom$[ebp]
	movss	xmm1, DWORD PTR __real@40000000
	divss	xmm1, xmm0
	push	1
	mov	ecx, 16					; 00000010H
	shl	ecx, 0
	add	ecx, DWORD PTR _this$[ebp]
	movss	DWORD PTR tv184[ebp], xmm1
	call	??AVector4@@QAEAAMH@Z			; Vector4::operator[]
	movss	xmm0, DWORD PTR tv184[ebp]
	movss	DWORD PTR [eax], xmm0

; 97   : 		Row[1][3] = (top + bottom) / (bottom - top);

	movss	xmm0, DWORD PTR _top$[ebp]
	addss	xmm0, DWORD PTR _bottom$[ebp]
	movss	xmm1, DWORD PTR _bottom$[ebp]
	subss	xmm1, DWORD PTR _top$[ebp]
	divss	xmm0, xmm1
	push	3
	mov	ecx, 16					; 00000010H
	shl	ecx, 0
	add	ecx, DWORD PTR _this$[ebp]
	movss	DWORD PTR tv186[ebp], xmm0
	call	??AVector4@@QAEAAMH@Z			; Vector4::operator[]
	movss	xmm0, DWORD PTR tv186[ebp]
	movss	DWORD PTR [eax], xmm0

; 98   : 		Row[2][2] = 1.0f / (znear - zfar);

	movss	xmm0, DWORD PTR _znear$[ebp]
	subss	xmm0, DWORD PTR _zfar$[ebp]
	movss	xmm1, DWORD PTR __real@3f800000
	divss	xmm1, xmm0
	push	2
	mov	ecx, 16					; 00000010H
	shl	ecx, 1
	add	ecx, DWORD PTR _this$[ebp]
	movss	DWORD PTR tv188[ebp], xmm1
	call	??AVector4@@QAEAAMH@Z			; Vector4::operator[]
	movss	xmm0, DWORD PTR tv188[ebp]
	movss	DWORD PTR [eax], xmm0

; 99   : 		Row[2][3] = znear / (znear - zfar);

	movss	xmm0, DWORD PTR _znear$[ebp]
	subss	xmm0, DWORD PTR _zfar$[ebp]
	movss	xmm1, DWORD PTR _znear$[ebp]
	divss	xmm1, xmm0
	push	3
	mov	ecx, 16					; 00000010H
	shl	ecx, 1
	add	ecx, DWORD PTR _this$[ebp]
	movss	DWORD PTR tv190[ebp], xmm1
	call	??AVector4@@QAEAAMH@Z			; Vector4::operator[]
	movss	xmm0, DWORD PTR tv190[ebp]
	movss	DWORD PTR [eax], xmm0

; 100  : 
; 101  : 	}

	pop	edi
	pop	esi
	pop	ebx
	mov	esp, ebp
	pop	ebp
	ret	24					; 00000018H
?Init_Ortho@Matrix4@@QAEXMMMMMM@Z ENDP			; Matrix4::Init_Ortho
_TEXT	ENDS
; Function compile flags: /Odtp /ZI
; File x:\github\renegade\dragonade_rxd\scripts\matrix4.h
;	COMDAT ?Init_Perspective_OGL@Matrix4@@QAEXMMMMMM@Z
_TEXT	SEGMENT
tv227 = -72						; size = 4
tv225 = -72						; size = 4
tv223 = -72						; size = 4
tv221 = -72						; size = 4
tv219 = -72						; size = 4
tv217 = -72						; size = 4
_this$ = -4						; size = 4
_left$ = 8						; size = 4
_right$ = 12						; size = 4
_bottom$ = 16						; size = 4
_top$ = 20						; size = 4
_znear$ = 24						; size = 4
_zfar$ = 28						; size = 4
?Init_Perspective_OGL@Matrix4@@QAEXMMMMMM@Z PROC	; Matrix4::Init_Perspective_OGL, COMDAT
; _this$ = ecx

; 80   : 	{

	push	ebp
	mov	ebp, esp
	sub	esp, 72					; 00000048H
	push	ebx
	push	esi
	push	edi
	mov	DWORD PTR _this$[ebp], ecx

; 81   : 		Make_Identity();

	mov	ecx, DWORD PTR _this$[ebp]
	call	?Make_Identity@Matrix4@@QAEXXZ		; Matrix4::Make_Identity

; 82   : 		Row[0][0] = static_cast<float>(2.0*znear / (right - left));

	cvtss2sd xmm0, DWORD PTR _znear$[ebp]
	mulsd	xmm0, QWORD PTR __real@4000000000000000
	movss	xmm1, DWORD PTR _right$[ebp]
	subss	xmm1, DWORD PTR _left$[ebp]
	cvtss2sd xmm1, xmm1
	divsd	xmm0, xmm1
	cvtsd2ss xmm0, xmm0
	push	0
	mov	ecx, 16					; 00000010H
	imul	ecx, 0
	add	ecx, DWORD PTR _this$[ebp]
	movss	DWORD PTR tv217[ebp], xmm0
	call	??AVector4@@QAEAAMH@Z			; Vector4::operator[]
	movss	xmm0, DWORD PTR tv217[ebp]
	movss	DWORD PTR [eax], xmm0

; 83   : 		Row[0][2] = (right + left) / (right - left);

	movss	xmm0, DWORD PTR _right$[ebp]
	addss	xmm0, DWORD PTR _left$[ebp]
	movss	xmm1, DWORD PTR _right$[ebp]
	subss	xmm1, DWORD PTR _left$[ebp]
	divss	xmm0, xmm1
	push	2
	mov	ecx, 16					; 00000010H
	imul	ecx, 0
	add	ecx, DWORD PTR _this$[ebp]
	movss	DWORD PTR tv219[ebp], xmm0
	call	??AVector4@@QAEAAMH@Z			; Vector4::operator[]
	movss	xmm0, DWORD PTR tv219[ebp]
	movss	DWORD PTR [eax], xmm0

; 84   : 		Row[1][1] = static_cast<float>(2.0*znear / (top - bottom));

	cvtss2sd xmm0, DWORD PTR _znear$[ebp]
	mulsd	xmm0, QWORD PTR __real@4000000000000000
	movss	xmm1, DWORD PTR _top$[ebp]
	subss	xmm1, DWORD PTR _bottom$[ebp]
	cvtss2sd xmm1, xmm1
	divsd	xmm0, xmm1
	cvtsd2ss xmm0, xmm0
	push	1
	mov	ecx, 16					; 00000010H
	shl	ecx, 0
	add	ecx, DWORD PTR _this$[ebp]
	movss	DWORD PTR tv221[ebp], xmm0
	call	??AVector4@@QAEAAMH@Z			; Vector4::operator[]
	movss	xmm0, DWORD PTR tv221[ebp]
	movss	DWORD PTR [eax], xmm0

; 85   : 		Row[1][2] = (top + bottom) / (top - bottom);

	movss	xmm0, DWORD PTR _top$[ebp]
	addss	xmm0, DWORD PTR _bottom$[ebp]
	movss	xmm1, DWORD PTR _top$[ebp]
	subss	xmm1, DWORD PTR _bottom$[ebp]
	divss	xmm0, xmm1
	push	2
	mov	ecx, 16					; 00000010H
	shl	ecx, 0
	add	ecx, DWORD PTR _this$[ebp]
	movss	DWORD PTR tv223[ebp], xmm0
	call	??AVector4@@QAEAAMH@Z			; Vector4::operator[]
	movss	xmm0, DWORD PTR tv223[ebp]
	movss	DWORD PTR [eax], xmm0

; 86   : 		Row[2][2] = -(zfar + znear) / (zfar - znear);

	movss	xmm0, DWORD PTR _zfar$[ebp]
	addss	xmm0, DWORD PTR _znear$[ebp]
	xorps	xmm0, DWORD PTR __xmm@80000000800000008000000080000000
	movss	xmm1, DWORD PTR _zfar$[ebp]
	subss	xmm1, DWORD PTR _znear$[ebp]
	divss	xmm0, xmm1
	push	2
	mov	ecx, 16					; 00000010H
	shl	ecx, 1
	add	ecx, DWORD PTR _this$[ebp]
	movss	DWORD PTR tv225[ebp], xmm0
	call	??AVector4@@QAEAAMH@Z			; Vector4::operator[]
	movss	xmm0, DWORD PTR tv225[ebp]
	movss	DWORD PTR [eax], xmm0

; 87   : 		Row[2][3] = static_cast<float>(-(2.0*zfar*znear) / (zfar - znear));

	cvtss2sd xmm0, DWORD PTR _zfar$[ebp]
	mulsd	xmm0, QWORD PTR __real@4000000000000000
	cvtss2sd xmm1, DWORD PTR _znear$[ebp]
	mulsd	xmm0, xmm1
	xorpd	xmm0, QWORD PTR __xmm@80000000000000008000000000000000
	movss	xmm1, DWORD PTR _zfar$[ebp]
	subss	xmm1, DWORD PTR _znear$[ebp]
	cvtss2sd xmm1, xmm1
	divsd	xmm0, xmm1
	cvtsd2ss xmm0, xmm0
	push	3
	mov	ecx, 16					; 00000010H
	shl	ecx, 1
	add	ecx, DWORD PTR _this$[ebp]
	movss	DWORD PTR tv227[ebp], xmm0
	call	??AVector4@@QAEAAMH@Z			; Vector4::operator[]
	movss	xmm0, DWORD PTR tv227[ebp]
	movss	DWORD PTR [eax], xmm0

; 88   : 		Row[3][2] = -1.0f;

	push	2
	mov	ecx, 16					; 00000010H
	imul	ecx, 3
	add	ecx, DWORD PTR _this$[ebp]
	call	??AVector4@@QAEAAMH@Z			; Vector4::operator[]
	movss	xmm0, DWORD PTR __real@bf800000
	movss	DWORD PTR [eax], xmm0

; 89   : 		Row[3][3] = 0.0f;

	push	3
	mov	ecx, 16					; 00000010H
	imul	ecx, 3
	add	ecx, DWORD PTR _this$[ebp]
	call	??AVector4@@QAEAAMH@Z			; Vector4::operator[]
	movss	xmm0, DWORD PTR __real@00000000
	movss	DWORD PTR [eax], xmm0

; 90   : 	}

	pop	edi
	pop	esi
	pop	ebx
	mov	esp, ebp
	pop	ebp
	ret	24					; 00000018H
?Init_Perspective_OGL@Matrix4@@QAEXMMMMMM@Z ENDP	; Matrix4::Init_Perspective_OGL
_TEXT	ENDS
; Function compile flags: /Odtp /ZI
; File x:\github\renegade\dragonade_rxd\scripts\matrix4.h
;	COMDAT ?Init_Perspective_OGL@Matrix4@@QAEXMMMM@Z
_TEXT	SEGMENT
tv191 = -72						; size = 4
tv189 = -72						; size = 4
tv187 = -72						; size = 4
tv185 = -72						; size = 4
_this$ = -4						; size = 4
_hfov$ = 8						; size = 4
_vfov$ = 12						; size = 4
_znear$ = 16						; size = 4
_zfar$ = 20						; size = 4
?Init_Perspective_OGL@Matrix4@@QAEXMMMM@Z PROC		; Matrix4::Init_Perspective_OGL, COMDAT
; _this$ = ecx

; 70   : 	{

	push	ebp
	mov	ebp, esp
	sub	esp, 72					; 00000048H
	push	ebx
	push	esi
	push	edi
	mov	DWORD PTR _this$[ebp], ecx

; 71   : 		Make_Identity();

	mov	ecx, DWORD PTR _this$[ebp]
	call	?Make_Identity@Matrix4@@QAEXXZ		; Matrix4::Make_Identity

; 72   : 		Row[0][0] = static_cast<float>(1.0 / tan(hfov*0.5));

	cvtss2sd xmm0, DWORD PTR _hfov$[ebp]
	mulsd	xmm0, QWORD PTR __real@3fe0000000000000
	call	__libm_sse2_tan_precise
	movsd	xmm1, QWORD PTR __real@3ff0000000000000
	divsd	xmm1, xmm0
	cvtsd2ss xmm0, xmm1
	push	0
	mov	ecx, 16					; 00000010H
	imul	ecx, 0
	add	ecx, DWORD PTR _this$[ebp]
	movss	DWORD PTR tv185[ebp], xmm0
	call	??AVector4@@QAEAAMH@Z			; Vector4::operator[]
	movss	xmm0, DWORD PTR tv185[ebp]
	movss	DWORD PTR [eax], xmm0

; 73   : 		Row[1][1] = static_cast<float>(1.0 / tan(vfov*0.5));

	cvtss2sd xmm0, DWORD PTR _vfov$[ebp]
	mulsd	xmm0, QWORD PTR __real@3fe0000000000000
	call	__libm_sse2_tan_precise
	movsd	xmm1, QWORD PTR __real@3ff0000000000000
	divsd	xmm1, xmm0
	cvtsd2ss xmm0, xmm1
	push	1
	mov	ecx, 16					; 00000010H
	shl	ecx, 0
	add	ecx, DWORD PTR _this$[ebp]
	movss	DWORD PTR tv187[ebp], xmm0
	call	??AVector4@@QAEAAMH@Z			; Vector4::operator[]
	movss	xmm0, DWORD PTR tv187[ebp]
	movss	DWORD PTR [eax], xmm0

; 74   : 		Row[2][2] = -(zfar + znear) / (zfar - znear);

	movss	xmm0, DWORD PTR _zfar$[ebp]
	addss	xmm0, DWORD PTR _znear$[ebp]
	xorps	xmm0, DWORD PTR __xmm@80000000800000008000000080000000
	movss	xmm1, DWORD PTR _zfar$[ebp]
	subss	xmm1, DWORD PTR _znear$[ebp]
	divss	xmm0, xmm1
	push	2
	mov	ecx, 16					; 00000010H
	shl	ecx, 1
	add	ecx, DWORD PTR _this$[ebp]
	movss	DWORD PTR tv189[ebp], xmm0
	call	??AVector4@@QAEAAMH@Z			; Vector4::operator[]
	movss	xmm0, DWORD PTR tv189[ebp]
	movss	DWORD PTR [eax], xmm0

; 75   : 		Row[2][3] = static_cast<float>(-(2.0*zfar*znear) / (zfar - znear));

	cvtss2sd xmm0, DWORD PTR _zfar$[ebp]
	mulsd	xmm0, QWORD PTR __real@4000000000000000
	cvtss2sd xmm1, DWORD PTR _znear$[ebp]
	mulsd	xmm0, xmm1
	xorpd	xmm0, QWORD PTR __xmm@80000000000000008000000000000000
	movss	xmm1, DWORD PTR _zfar$[ebp]
	subss	xmm1, DWORD PTR _znear$[ebp]
	cvtss2sd xmm1, xmm1
	divsd	xmm0, xmm1
	cvtsd2ss xmm0, xmm0
	push	3
	mov	ecx, 16					; 00000010H
	shl	ecx, 1
	add	ecx, DWORD PTR _this$[ebp]
	movss	DWORD PTR tv191[ebp], xmm0
	call	??AVector4@@QAEAAMH@Z			; Vector4::operator[]
	movss	xmm0, DWORD PTR tv191[ebp]
	movss	DWORD PTR [eax], xmm0

; 76   : 		Row[3][2] = -1.0f;

	push	2
	mov	ecx, 16					; 00000010H
	imul	ecx, 3
	add	ecx, DWORD PTR _this$[ebp]
	call	??AVector4@@QAEAAMH@Z			; Vector4::operator[]
	movss	xmm0, DWORD PTR __real@bf800000
	movss	DWORD PTR [eax], xmm0

; 77   : 		Row[3][3] = 0.0f;

	push	3
	mov	ecx, 16					; 00000010H
	imul	ecx, 3
	add	ecx, DWORD PTR _this$[ebp]
	call	??AVector4@@QAEAAMH@Z			; Vector4::operator[]
	movss	xmm0, DWORD PTR __real@00000000
	movss	DWORD PTR [eax], xmm0

; 78   : 	}

	pop	edi
	pop	esi
	pop	ebx
	mov	esp, ebp
	pop	ebp
	ret	16					; 00000010H
?Init_Perspective_OGL@Matrix4@@QAEXMMMM@Z ENDP		; Matrix4::Init_Perspective_OGL
_TEXT	ENDS
; Function compile flags: /Odtp /ZI
; File x:\github\renegade\dragonade_rxd\scripts\matrix4.h
;	COMDAT ?Init_Ortho_OGL@Matrix4@@QAEXMMMMMM@Z
_TEXT	SEGMENT
tv195 = -72						; size = 4
tv193 = -72						; size = 4
tv191 = -72						; size = 4
tv189 = -72						; size = 4
tv187 = -72						; size = 4
tv185 = -72						; size = 4
_this$ = -4						; size = 4
_left$ = 8						; size = 4
_right$ = 12						; size = 4
_bottom$ = 16						; size = 4
_top$ = 20						; size = 4
_znear$ = 24						; size = 4
_zfar$ = 28						; size = 4
?Init_Ortho_OGL@Matrix4@@QAEXMMMMMM@Z PROC		; Matrix4::Init_Ortho_OGL, COMDAT
; _this$ = ecx

; 59   : 	{

	push	ebp
	mov	ebp, esp
	sub	esp, 72					; 00000048H
	push	ebx
	push	esi
	push	edi
	mov	DWORD PTR _this$[ebp], ecx

; 60   : 		Make_Identity();

	mov	ecx, DWORD PTR _this$[ebp]
	call	?Make_Identity@Matrix4@@QAEXXZ		; Matrix4::Make_Identity

; 61   : 		Row[0][0] = 2.0f / (right - left);

	movss	xmm0, DWORD PTR _right$[ebp]
	subss	xmm0, DWORD PTR _left$[ebp]
	movss	xmm1, DWORD PTR __real@40000000
	divss	xmm1, xmm0
	push	0
	mov	ecx, 16					; 00000010H
	imul	ecx, 0
	add	ecx, DWORD PTR _this$[ebp]
	movss	DWORD PTR tv185[ebp], xmm1
	call	??AVector4@@QAEAAMH@Z			; Vector4::operator[]
	movss	xmm0, DWORD PTR tv185[ebp]
	movss	DWORD PTR [eax], xmm0

; 62   : 		Row[0][3] = -(right + left) / (right - left);

	movss	xmm0, DWORD PTR _right$[ebp]
	addss	xmm0, DWORD PTR _left$[ebp]
	xorps	xmm0, DWORD PTR __xmm@80000000800000008000000080000000
	movss	xmm1, DWORD PTR _right$[ebp]
	subss	xmm1, DWORD PTR _left$[ebp]
	divss	xmm0, xmm1
	push	3
	mov	ecx, 16					; 00000010H
	imul	ecx, 0
	add	ecx, DWORD PTR _this$[ebp]
	movss	DWORD PTR tv187[ebp], xmm0
	call	??AVector4@@QAEAAMH@Z			; Vector4::operator[]
	movss	xmm0, DWORD PTR tv187[ebp]
	movss	DWORD PTR [eax], xmm0

; 63   : 		Row[1][1] = 2.0f / (top - bottom);

	movss	xmm0, DWORD PTR _top$[ebp]
	subss	xmm0, DWORD PTR _bottom$[ebp]
	movss	xmm1, DWORD PTR __real@40000000
	divss	xmm1, xmm0
	push	1
	mov	ecx, 16					; 00000010H
	shl	ecx, 0
	add	ecx, DWORD PTR _this$[ebp]
	movss	DWORD PTR tv189[ebp], xmm1
	call	??AVector4@@QAEAAMH@Z			; Vector4::operator[]
	movss	xmm0, DWORD PTR tv189[ebp]
	movss	DWORD PTR [eax], xmm0

; 64   : 		Row[1][3] = -(top + bottom) / (top - bottom);

	movss	xmm0, DWORD PTR _top$[ebp]
	addss	xmm0, DWORD PTR _bottom$[ebp]
	xorps	xmm0, DWORD PTR __xmm@80000000800000008000000080000000
	movss	xmm1, DWORD PTR _top$[ebp]
	subss	xmm1, DWORD PTR _bottom$[ebp]
	divss	xmm0, xmm1
	push	3
	mov	ecx, 16					; 00000010H
	shl	ecx, 0
	add	ecx, DWORD PTR _this$[ebp]
	movss	DWORD PTR tv191[ebp], xmm0
	call	??AVector4@@QAEAAMH@Z			; Vector4::operator[]
	movss	xmm0, DWORD PTR tv191[ebp]
	movss	DWORD PTR [eax], xmm0

; 65   : 		Row[2][2] = -2.0f / (zfar - znear);

	movss	xmm0, DWORD PTR _zfar$[ebp]
	subss	xmm0, DWORD PTR _znear$[ebp]
	movss	xmm1, DWORD PTR __real@c0000000
	divss	xmm1, xmm0
	push	2
	mov	ecx, 16					; 00000010H
	shl	ecx, 1
	add	ecx, DWORD PTR _this$[ebp]
	movss	DWORD PTR tv193[ebp], xmm1
	call	??AVector4@@QAEAAMH@Z			; Vector4::operator[]
	movss	xmm0, DWORD PTR tv193[ebp]
	movss	DWORD PTR [eax], xmm0

; 66   : 		Row[2][3] = -(zfar + znear) / (zfar - znear);

	movss	xmm0, DWORD PTR _zfar$[ebp]
	addss	xmm0, DWORD PTR _znear$[ebp]
	xorps	xmm0, DWORD PTR __xmm@80000000800000008000000080000000
	movss	xmm1, DWORD PTR _zfar$[ebp]
	subss	xmm1, DWORD PTR _znear$[ebp]
	divss	xmm0, xmm1
	push	3
	mov	ecx, 16					; 00000010H
	shl	ecx, 1
	add	ecx, DWORD PTR _this$[ebp]
	movss	DWORD PTR tv195[ebp], xmm0
	call	??AVector4@@QAEAAMH@Z			; Vector4::operator[]
	movss	xmm0, DWORD PTR tv195[ebp]
	movss	DWORD PTR [eax], xmm0

; 67   : 
; 68   : 	}

	pop	edi
	pop	esi
	pop	ebx
	mov	esp, ebp
	pop	ebp
	ret	24					; 00000018H
?Init_Ortho_OGL@Matrix4@@QAEXMMMMMM@Z ENDP		; Matrix4::Init_Ortho_OGL
_TEXT	ENDS
; Function compile flags: /Odtp /ZI
; File x:\github\renegade\dragonade_rxd\scripts\matrix4.h
;	COMDAT ?Init@Matrix4@@QAEXABVVector4@@000@Z
_TEXT	SEGMENT
_this$ = -4						; size = 4
_v0$ = 8						; size = 4
_v1$ = 12						; size = 4
_v2$ = 16						; size = 4
_v3$ = 20						; size = 4
?Init@Matrix4@@QAEXABVVector4@@000@Z PROC		; Matrix4::Init, COMDAT
; _this$ = ecx

; 55   : 	{

	push	ebp
	mov	ebp, esp
	sub	esp, 68					; 00000044H
	push	ebx
	push	esi
	push	edi
	mov	DWORD PTR _this$[ebp], ecx

; 56   : 		Row[0] = v0; Row[1] = v1; Row[2] = v2; Row[3] = v3;

	mov	eax, DWORD PTR _v0$[ebp]
	push	eax
	mov	ecx, 16					; 00000010H
	imul	ecx, 0
	add	ecx, DWORD PTR _this$[ebp]
	call	??4Vector4@@QAEAAV0@ABV0@@Z		; Vector4::operator=
	mov	eax, DWORD PTR _v1$[ebp]
	push	eax
	mov	ecx, 16					; 00000010H
	shl	ecx, 0
	add	ecx, DWORD PTR _this$[ebp]
	call	??4Vector4@@QAEAAV0@ABV0@@Z		; Vector4::operator=
	mov	eax, DWORD PTR _v2$[ebp]
	push	eax
	mov	ecx, 16					; 00000010H
	shl	ecx, 1
	add	ecx, DWORD PTR _this$[ebp]
	call	??4Vector4@@QAEAAV0@ABV0@@Z		; Vector4::operator=
	mov	eax, DWORD PTR _v3$[ebp]
	push	eax
	mov	ecx, 16					; 00000010H
	imul	ecx, 3
	add	ecx, DWORD PTR _this$[ebp]
	call	??4Vector4@@QAEAAV0@ABV0@@Z		; Vector4::operator=

; 57   : 	}

	pop	edi
	pop	esi
	pop	ebx
	mov	esp, ebp
	pop	ebp
	ret	16					; 00000010H
?Init@Matrix4@@QAEXABVVector4@@000@Z ENDP		; Matrix4::Init
_TEXT	ENDS
; Function compile flags: /Odtp /ZI
; File x:\github\renegade\dragonade_rxd\scripts\matrix4.h
;	COMDAT ?Init@Matrix4@@QAEXABVMatrix3D@@@Z
_TEXT	SEGMENT
$T1 = -84						; size = 16
_this$ = -4						; size = 4
_m$ = 8							; size = 4
?Init@Matrix4@@QAEXABVMatrix3D@@@Z PROC			; Matrix4::Init, COMDAT
; _this$ = ecx

; 51   : 	{

	push	ebp
	mov	ebp, esp
	sub	esp, 84					; 00000054H
	push	ebx
	push	esi
	push	edi
	mov	DWORD PTR _this$[ebp], ecx

; 52   : 		Row[0] = m[0]; Row[1] = m[1]; Row[2] = m[2]; Row[3] = Vector4(0.0,0.0,0.0,1.0); 

	push	0
	mov	ecx, DWORD PTR _m$[ebp]
	call	??AMatrix3D@@QBEABVVector4@@H@Z		; Matrix3D::operator[]
	push	eax
	mov	ecx, 16					; 00000010H
	imul	ecx, 0
	add	ecx, DWORD PTR _this$[ebp]
	call	??4Vector4@@QAEAAV0@ABV0@@Z		; Vector4::operator=
	push	1
	mov	ecx, DWORD PTR _m$[ebp]
	call	??AMatrix3D@@QBEABVVector4@@H@Z		; Matrix3D::operator[]
	push	eax
	mov	ecx, 16					; 00000010H
	shl	ecx, 0
	add	ecx, DWORD PTR _this$[ebp]
	call	??4Vector4@@QAEAAV0@ABV0@@Z		; Vector4::operator=
	push	2
	mov	ecx, DWORD PTR _m$[ebp]
	call	??AMatrix3D@@QBEABVVector4@@H@Z		; Matrix3D::operator[]
	push	eax
	mov	ecx, 16					; 00000010H
	shl	ecx, 1
	add	ecx, DWORD PTR _this$[ebp]
	call	??4Vector4@@QAEAAV0@ABV0@@Z		; Vector4::operator=
	push	ecx
	movss	xmm0, DWORD PTR __real@3f800000
	movss	DWORD PTR [esp], xmm0
	push	ecx
	movss	xmm0, DWORD PTR __real@00000000
	movss	DWORD PTR [esp], xmm0
	push	ecx
	movss	xmm0, DWORD PTR __real@00000000
	movss	DWORD PTR [esp], xmm0
	push	ecx
	movss	xmm0, DWORD PTR __real@00000000
	movss	DWORD PTR [esp], xmm0
	lea	ecx, DWORD PTR $T1[ebp]
	call	??0Vector4@@QAE@MMMM@Z			; Vector4::Vector4
	push	eax
	mov	ecx, 16					; 00000010H
	imul	ecx, 3
	add	ecx, DWORD PTR _this$[ebp]
	call	??4Vector4@@QAEAAV0@ABV0@@Z		; Vector4::operator=

; 53   : 	}

	pop	edi
	pop	esi
	pop	ebx
	mov	esp, ebp
	pop	ebp
	ret	4
?Init@Matrix4@@QAEXABVMatrix3D@@@Z ENDP			; Matrix4::Init
_TEXT	ENDS
; Function compile flags: /Odtp /ZI
; File x:\github\renegade\dragonade_rxd\scripts\matrix4.h
;	COMDAT ?Make_Identity@Matrix4@@QAEXXZ
_TEXT	SEGMENT
_this$ = -4						; size = 4
?Make_Identity@Matrix4@@QAEXXZ PROC			; Matrix4::Make_Identity, COMDAT
; _this$ = ecx

; 44   : 	{

	push	ebp
	mov	ebp, esp
	sub	esp, 68					; 00000044H
	push	ebx
	push	esi
	push	edi
	mov	DWORD PTR _this$[ebp], ecx

; 45   : 		Row[0].Set(1.0,0.0,0.0,0.0);

	push	ecx
	movss	xmm0, DWORD PTR __real@00000000
	movss	DWORD PTR [esp], xmm0
	push	ecx
	movss	xmm0, DWORD PTR __real@00000000
	movss	DWORD PTR [esp], xmm0
	push	ecx
	movss	xmm0, DWORD PTR __real@00000000
	movss	DWORD PTR [esp], xmm0
	push	ecx
	movss	xmm0, DWORD PTR __real@3f800000
	movss	DWORD PTR [esp], xmm0
	mov	ecx, 16					; 00000010H
	imul	ecx, 0
	add	ecx, DWORD PTR _this$[ebp]
	call	?Set@Vector4@@QAEXMMMM@Z		; Vector4::Set

; 46   : 		Row[1].Set(0.0,1.0,0.0,0.0);

	push	ecx
	movss	xmm0, DWORD PTR __real@00000000
	movss	DWORD PTR [esp], xmm0
	push	ecx
	movss	xmm0, DWORD PTR __real@00000000
	movss	DWORD PTR [esp], xmm0
	push	ecx
	movss	xmm0, DWORD PTR __real@3f800000
	movss	DWORD PTR [esp], xmm0
	push	ecx
	movss	xmm0, DWORD PTR __real@00000000
	movss	DWORD PTR [esp], xmm0
	mov	ecx, 16					; 00000010H
	shl	ecx, 0
	add	ecx, DWORD PTR _this$[ebp]
	call	?Set@Vector4@@QAEXMMMM@Z		; Vector4::Set

; 47   : 		Row[2].Set(0.0,0.0,1.0,0.0);

	push	ecx
	movss	xmm0, DWORD PTR __real@00000000
	movss	DWORD PTR [esp], xmm0
	push	ecx
	movss	xmm0, DWORD PTR __real@3f800000
	movss	DWORD PTR [esp], xmm0
	push	ecx
	movss	xmm0, DWORD PTR __real@00000000
	movss	DWORD PTR [esp], xmm0
	push	ecx
	movss	xmm0, DWORD PTR __real@00000000
	movss	DWORD PTR [esp], xmm0
	mov	ecx, 16					; 00000010H
	shl	ecx, 1
	add	ecx, DWORD PTR _this$[ebp]
	call	?Set@Vector4@@QAEXMMMM@Z		; Vector4::Set

; 48   : 		Row[3].Set(0.0,0.0,0.0,1.0);

	push	ecx
	movss	xmm0, DWORD PTR __real@3f800000
	movss	DWORD PTR [esp], xmm0
	push	ecx
	movss	xmm0, DWORD PTR __real@00000000
	movss	DWORD PTR [esp], xmm0
	push	ecx
	movss	xmm0, DWORD PTR __real@00000000
	movss	DWORD PTR [esp], xmm0
	push	ecx
	movss	xmm0, DWORD PTR __real@00000000
	movss	DWORD PTR [esp], xmm0
	mov	ecx, 16					; 00000010H
	imul	ecx, 3
	add	ecx, DWORD PTR _this$[ebp]
	call	?Set@Vector4@@QAEXMMMM@Z		; Vector4::Set

; 49   : 	}

	pop	edi
	pop	esi
	pop	ebx
	mov	esp, ebp
	pop	ebp
	ret	0
?Make_Identity@Matrix4@@QAEXXZ ENDP			; Matrix4::Make_Identity
_TEXT	ENDS
; Function compile flags: /Odtp /ZI
; File x:\github\renegade\dragonade_rxd\scripts\matrix4.h
;	COMDAT ??0Matrix4@@QAE@ABVVector4@@000@Z
_TEXT	SEGMENT
_this$ = -4						; size = 4
_v0$ = 8						; size = 4
_v1$ = 12						; size = 4
_v2$ = 16						; size = 4
_v3$ = 20						; size = 4
??0Matrix4@@QAE@ABVVector4@@000@Z PROC			; Matrix4::Matrix4, COMDAT
; _this$ = ecx

; 40   : 	TT_INLINE explicit Matrix4(const Vector4 & v0, const Vector4 & v1, const Vector4 & v2, const Vector4 & v3)	{

	push	ebp
	mov	ebp, esp
	sub	esp, 68					; 00000044H
	push	ebx
	push	esi
	push	edi
	mov	DWORD PTR _this$[ebp], ecx
	push	OFFSET ??0Vector4@@QAE@XZ		; Vector4::Vector4
	push	4
	push	16					; 00000010H
	mov	eax, DWORD PTR _this$[ebp]
	push	eax
	call	??_H@YGXPAXIHP6EPAX0@Z@Z

; 41   : 		Init(v0,v1,v2,v3);

	mov	eax, DWORD PTR _v3$[ebp]
	push	eax
	mov	ecx, DWORD PTR _v2$[ebp]
	push	ecx
	mov	edx, DWORD PTR _v1$[ebp]
	push	edx
	mov	eax, DWORD PTR _v0$[ebp]
	push	eax
	mov	ecx, DWORD PTR _this$[ebp]
	call	?Init@Matrix4@@QAEXABVVector4@@000@Z	; Matrix4::Init

; 42   : 	}

	mov	eax, DWORD PTR _this$[ebp]
	pop	edi
	pop	esi
	pop	ebx
	mov	esp, ebp
	pop	ebp
	ret	16					; 00000010H
??0Matrix4@@QAE@ABVVector4@@000@Z ENDP			; Matrix4::Matrix4
_TEXT	ENDS
; Function compile flags: /Odtp /ZI
; File x:\github\renegade\dragonade_rxd\scripts\matrix4.h
;	COMDAT ??0Matrix4@@QAE@ABVMatrix3D@@@Z
_TEXT	SEGMENT
_this$ = -4						; size = 4
_m$ = 8							; size = 4
??0Matrix4@@QAE@ABVMatrix3D@@@Z PROC			; Matrix4::Matrix4, COMDAT
; _this$ = ecx

; 36   : 	TT_INLINE explicit Matrix4(const Matrix3D & m)

	push	ebp
	mov	ebp, esp
	sub	esp, 68					; 00000044H
	push	ebx
	push	esi
	push	edi
	mov	DWORD PTR _this$[ebp], ecx
	push	OFFSET ??0Vector4@@QAE@XZ		; Vector4::Vector4
	push	4
	push	16					; 00000010H
	mov	eax, DWORD PTR _this$[ebp]
	push	eax
	call	??_H@YGXPAXIHP6EPAX0@Z@Z

; 37   : 	{
; 38   : 		Init(m);

	mov	eax, DWORD PTR _m$[ebp]
	push	eax
	mov	ecx, DWORD PTR _this$[ebp]
	call	?Init@Matrix4@@QAEXABVMatrix3D@@@Z	; Matrix4::Init

; 39   : 	}

	mov	eax, DWORD PTR _this$[ebp]
	pop	edi
	pop	esi
	pop	ebx
	mov	esp, ebp
	pop	ebp
	ret	4
??0Matrix4@@QAE@ABVMatrix3D@@@Z ENDP			; Matrix4::Matrix4
_TEXT	ENDS
; Function compile flags: /Odtp /ZI
; File x:\github\renegade\dragonade_rxd\scripts\matrix4.h
;	COMDAT ??0Matrix4@@QAE@_N@Z
_TEXT	SEGMENT
_this$ = -4						; size = 4
_identity$ = 8						; size = 1
??0Matrix4@@QAE@_N@Z PROC				; Matrix4::Matrix4, COMDAT
; _this$ = ecx

; 29   : 	TT_INLINE explicit Matrix4(bool identity)

	push	ebp
	mov	ebp, esp
	sub	esp, 68					; 00000044H
	push	ebx
	push	esi
	push	edi
	mov	DWORD PTR _this$[ebp], ecx
	push	OFFSET ??0Vector4@@QAE@XZ		; Vector4::Vector4
	push	4
	push	16					; 00000010H
	mov	eax, DWORD PTR _this$[ebp]
	push	eax
	call	??_H@YGXPAXIHP6EPAX0@Z@Z

; 30   : 	{
; 31   : 		if (identity)

	movzx	eax, BYTE PTR _identity$[ebp]
	test	eax, eax
	je	SHORT $LN2@Matrix4

; 32   : 		{
; 33   : 			Make_Identity();

	mov	ecx, DWORD PTR _this$[ebp]
	call	?Make_Identity@Matrix4@@QAEXXZ		; Matrix4::Make_Identity
$LN2@Matrix4:

; 34   : 		}
; 35   : 	}

	mov	eax, DWORD PTR _this$[ebp]
	pop	edi
	pop	esi
	pop	ebx
	mov	esp, ebp
	pop	ebp
	ret	4
??0Matrix4@@QAE@_N@Z ENDP				; Matrix4::Matrix4
_TEXT	ENDS
; Function compile flags: /Odtp /ZI
; File x:\github\renegade\dragonade_rxd\scripts\matrix4.h
;	COMDAT ??0Matrix4@@QAE@ABV0@@Z
_TEXT	SEGMENT
_this$ = -4						; size = 4
_m$ = 8							; size = 4
??0Matrix4@@QAE@ABV0@@Z PROC				; Matrix4::Matrix4, COMDAT
; _this$ = ecx

; 25   : 	TT_INLINE Matrix4(const Matrix4 & m)

	push	ebp
	mov	ebp, esp
	sub	esp, 68					; 00000044H
	push	ebx
	push	esi
	push	edi
	mov	DWORD PTR _this$[ebp], ecx
	push	OFFSET ??0Vector4@@QAE@XZ		; Vector4::Vector4
	push	4
	push	16					; 00000010H
	mov	eax, DWORD PTR _this$[ebp]
	push	eax
	call	??_H@YGXPAXIHP6EPAX0@Z@Z

; 26   : 	{
; 27   : 		Row[0] = m.Row[0]; Row[1] = m.Row[1]; Row[2] = m.Row[2]; Row[3] = m.Row[3];

	mov	eax, 16					; 00000010H
	imul	eax, 0
	add	eax, DWORD PTR _m$[ebp]
	push	eax
	mov	ecx, 16					; 00000010H
	imul	ecx, 0
	add	ecx, DWORD PTR _this$[ebp]
	call	??4Vector4@@QAEAAV0@ABV0@@Z		; Vector4::operator=
	mov	eax, 16					; 00000010H
	shl	eax, 0
	add	eax, DWORD PTR _m$[ebp]
	push	eax
	mov	ecx, 16					; 00000010H
	shl	ecx, 0
	add	ecx, DWORD PTR _this$[ebp]
	call	??4Vector4@@QAEAAV0@ABV0@@Z		; Vector4::operator=
	mov	eax, 16					; 00000010H
	shl	eax, 1
	add	eax, DWORD PTR _m$[ebp]
	push	eax
	mov	ecx, 16					; 00000010H
	shl	ecx, 1
	add	ecx, DWORD PTR _this$[ebp]
	call	??4Vector4@@QAEAAV0@ABV0@@Z		; Vector4::operator=
	mov	eax, 16					; 00000010H
	imul	eax, 3
	add	eax, DWORD PTR _m$[ebp]
	push	eax
	mov	ecx, 16					; 00000010H
	imul	ecx, 3
	add	ecx, DWORD PTR _this$[ebp]
	call	??4Vector4@@QAEAAV0@ABV0@@Z		; Vector4::operator=

; 28   : 	}

	mov	eax, DWORD PTR _this$[ebp]
	pop	edi
	pop	esi
	pop	ebx
	mov	esp, ebp
	pop	ebp
	ret	4
??0Matrix4@@QAE@ABV0@@Z ENDP				; Matrix4::Matrix4
_TEXT	ENDS
; Function compile flags: /Odtp /ZI
; File x:\github\renegade\dragonade_rxd\scripts\matrix4.h
;	COMDAT ??0Matrix4@@QAE@XZ
_TEXT	SEGMENT
_this$ = -4						; size = 4
??0Matrix4@@QAE@XZ PROC					; Matrix4::Matrix4, COMDAT
; _this$ = ecx

; 22   : 	TT_INLINE Matrix4(void)

	push	ebp
	mov	ebp, esp
	sub	esp, 68					; 00000044H
	push	ebx
	push	esi
	push	edi
	mov	DWORD PTR _this$[ebp], ecx
	push	OFFSET ??0Vector4@@QAE@XZ		; Vector4::Vector4
	push	4
	push	16					; 00000010H
	mov	eax, DWORD PTR _this$[ebp]
	push	eax
	call	??_H@YGXPAXIHP6EPAX0@Z@Z

; 23   : 	{
; 24   : 	}

	mov	eax, DWORD PTR _this$[ebp]
	pop	edi
	pop	esi
	pop	ebx
	mov	esp, ebp
	pop	ebp
	ret	0
??0Matrix4@@QAE@XZ ENDP					; Matrix4::Matrix4
_TEXT	ENDS
; Function compile flags: /Odtp /ZI
; File x:\github\renegade\dragonade_rxd\scripts\matrix3d.h
;	COMDAT ?Inverse_Rotate_Vector@Matrix3D@@SAXABV1@ABVVector3@@PAV2@@Z
_TEXT	SEGMENT
tv237 = -88						; size = 4
tv233 = -88						; size = 4
tv229 = -88						; size = 4
tv235 = -84						; size = 4
tv231 = -84						; size = 4
tv227 = -84						; size = 4
_v$ = -16						; size = 4
_tmp$ = -12						; size = 12
_A$ = 8							; size = 4
_in$ = 12						; size = 4
_out$ = 16						; size = 4
?Inverse_Rotate_Vector@Matrix3D@@SAXABV1@ABVVector3@@PAV2@@Z PROC ; Matrix3D::Inverse_Rotate_Vector, COMDAT

; 564  : 	{

	push	ebp
	mov	ebp, esp
	sub	esp, 88					; 00000058H
	push	ebx
	push	esi
	push	edi

; 565  : 		Vector3 tmp;

	lea	ecx, DWORD PTR _tmp$[ebp]
	call	??0Vector3@@QAE@XZ			; Vector3::Vector3

; 566  : 		Vector3 * v;
; 567  : 		if (out == &in)

	mov	eax, DWORD PTR _out$[ebp]
	cmp	eax, DWORD PTR _in$[ebp]
	jne	SHORT $LN2@Inverse_Ro

; 568  : 		{
; 569  : 			tmp = in;

	mov	eax, DWORD PTR _in$[ebp]
	push	eax
	lea	ecx, DWORD PTR _tmp$[ebp]
	call	??4Vector3@@QAEAAV0@ABV0@@Z		; Vector3::operator=

; 570  : 			v = &tmp;

	lea	eax, DWORD PTR _tmp$[ebp]
	mov	DWORD PTR _v$[ebp], eax

; 571  : 		}
; 572  : 		else

	jmp	SHORT $LN1@Inverse_Ro
$LN2@Inverse_Ro:

; 573  : 		{
; 574  : 			v = (Vector3 *)&in;

	mov	eax, DWORD PTR _in$[ebp]
	mov	DWORD PTR _v$[ebp], eax
$LN1@Inverse_Ro:

; 575  : 		}
; 576  : 		out->X = (A[0][0] * v->X + A[1][0] * v->Y + A[2][0] * v->Z);

	push	0
	push	0
	mov	ecx, DWORD PTR _A$[ebp]
	call	??AMatrix3D@@QBEABVVector4@@H@Z		; Matrix3D::operator[]
	mov	ecx, eax
	call	??AVector4@@QBEABMH@Z			; Vector4::operator[]
	mov	ecx, DWORD PTR _v$[ebp]
	movss	xmm0, DWORD PTR [eax]
	mulss	xmm0, DWORD PTR [ecx]
	push	0
	push	1
	mov	ecx, DWORD PTR _A$[ebp]
	movss	DWORD PTR tv227[ebp], xmm0
	call	??AMatrix3D@@QBEABVVector4@@H@Z		; Matrix3D::operator[]
	mov	ecx, eax
	call	??AVector4@@QBEABMH@Z			; Vector4::operator[]
	mov	edx, DWORD PTR _v$[ebp]
	movss	xmm0, DWORD PTR [eax]
	mulss	xmm0, DWORD PTR [edx+4]
	movss	xmm1, DWORD PTR tv227[ebp]
	addss	xmm1, xmm0
	push	0
	push	2
	mov	ecx, DWORD PTR _A$[ebp]
	movss	DWORD PTR tv229[ebp], xmm1
	call	??AMatrix3D@@QBEABVVector4@@H@Z		; Matrix3D::operator[]
	mov	ecx, eax
	call	??AVector4@@QBEABMH@Z			; Vector4::operator[]
	mov	ecx, DWORD PTR _v$[ebp]
	movss	xmm0, DWORD PTR [eax]
	mulss	xmm0, DWORD PTR [ecx+8]
	movss	xmm1, DWORD PTR tv229[ebp]
	addss	xmm1, xmm0
	mov	edx, DWORD PTR _out$[ebp]
	movss	DWORD PTR [edx], xmm1

; 577  : 		out->Y = (A[0][1] * v->X + A[1][1] * v->Y + A[2][1] * v->Z);

	push	1
	push	0
	mov	ecx, DWORD PTR _A$[ebp]
	call	??AMatrix3D@@QBEABVVector4@@H@Z		; Matrix3D::operator[]
	mov	ecx, eax
	call	??AVector4@@QBEABMH@Z			; Vector4::operator[]
	mov	ecx, DWORD PTR _v$[ebp]
	movss	xmm0, DWORD PTR [eax]
	mulss	xmm0, DWORD PTR [ecx]
	push	1
	push	1
	mov	ecx, DWORD PTR _A$[ebp]
	movss	DWORD PTR tv231[ebp], xmm0
	call	??AMatrix3D@@QBEABVVector4@@H@Z		; Matrix3D::operator[]
	mov	ecx, eax
	call	??AVector4@@QBEABMH@Z			; Vector4::operator[]
	mov	edx, DWORD PTR _v$[ebp]
	movss	xmm0, DWORD PTR [eax]
	mulss	xmm0, DWORD PTR [edx+4]
	movss	xmm1, DWORD PTR tv231[ebp]
	addss	xmm1, xmm0
	push	1
	push	2
	mov	ecx, DWORD PTR _A$[ebp]
	movss	DWORD PTR tv233[ebp], xmm1
	call	??AMatrix3D@@QBEABVVector4@@H@Z		; Matrix3D::operator[]
	mov	ecx, eax
	call	??AVector4@@QBEABMH@Z			; Vector4::operator[]
	mov	ecx, DWORD PTR _v$[ebp]
	movss	xmm0, DWORD PTR [eax]
	mulss	xmm0, DWORD PTR [ecx+8]
	movss	xmm1, DWORD PTR tv233[ebp]
	addss	xmm1, xmm0
	mov	edx, DWORD PTR _out$[ebp]
	movss	DWORD PTR [edx+4], xmm1

; 578  : 		out->Z = (A[0][2] * v->X + A[1][2] * v->Y + A[2][2] * v->Z);

	push	2
	push	0
	mov	ecx, DWORD PTR _A$[ebp]
	call	??AMatrix3D@@QBEABVVector4@@H@Z		; Matrix3D::operator[]
	mov	ecx, eax
	call	??AVector4@@QBEABMH@Z			; Vector4::operator[]
	mov	ecx, DWORD PTR _v$[ebp]
	movss	xmm0, DWORD PTR [eax]
	mulss	xmm0, DWORD PTR [ecx]
	push	2
	push	1
	mov	ecx, DWORD PTR _A$[ebp]
	movss	DWORD PTR tv235[ebp], xmm0
	call	??AMatrix3D@@QBEABVVector4@@H@Z		; Matrix3D::operator[]
	mov	ecx, eax
	call	??AVector4@@QBEABMH@Z			; Vector4::operator[]
	mov	edx, DWORD PTR _v$[ebp]
	movss	xmm0, DWORD PTR [eax]
	mulss	xmm0, DWORD PTR [edx+4]
	movss	xmm1, DWORD PTR tv235[ebp]
	addss	xmm1, xmm0
	push	2
	push	2
	mov	ecx, DWORD PTR _A$[ebp]
	movss	DWORD PTR tv237[ebp], xmm1
	call	??AMatrix3D@@QBEABVVector4@@H@Z		; Matrix3D::operator[]
	mov	ecx, eax
	call	??AVector4@@QBEABMH@Z			; Vector4::operator[]
	mov	ecx, DWORD PTR _v$[ebp]
	movss	xmm0, DWORD PTR [eax]
	mulss	xmm0, DWORD PTR [ecx+8]
	movss	xmm1, DWORD PTR tv237[ebp]
	addss	xmm1, xmm0
	mov	edx, DWORD PTR _out$[ebp]
	movss	DWORD PTR [edx+8], xmm1

; 579  : 	}

	pop	edi
	pop	esi
	pop	ebx
	mov	esp, ebp
	pop	ebp
	ret	0
?Inverse_Rotate_Vector@Matrix3D@@SAXABV1@ABVVector3@@PAV2@@Z ENDP ; Matrix3D::Inverse_Rotate_Vector
_TEXT	ENDS
; Function compile flags: /Odtp /ZI
; File x:\github\renegade\dragonade_rxd\scripts\matrix3d.h
;	COMDAT ?Inverse_Transform_Vector@Matrix3D@@SAXABV1@ABVVector3@@PAV2@@Z
_TEXT	SEGMENT
_diff$ = -28						; size = 12
_v$ = -16						; size = 4
_tmp$ = -12						; size = 12
_A$ = 8							; size = 4
_in$ = 12						; size = 4
_out$ = 16						; size = 4
?Inverse_Transform_Vector@Matrix3D@@SAXABV1@ABVVector3@@PAV2@@Z PROC ; Matrix3D::Inverse_Transform_Vector, COMDAT

; 548  : 	{

	push	ebp
	mov	ebp, esp
	sub	esp, 92					; 0000005cH
	push	ebx
	push	esi
	push	edi

; 549  : 		Vector3 tmp;

	lea	ecx, DWORD PTR _tmp$[ebp]
	call	??0Vector3@@QAE@XZ			; Vector3::Vector3

; 550  : 		Vector3 * v;
; 551  : 		if (out == &in)

	mov	eax, DWORD PTR _out$[ebp]
	cmp	eax, DWORD PTR _in$[ebp]
	jne	SHORT $LN2@Inverse_Tr

; 552  : 		{
; 553  : 			tmp = in;

	mov	eax, DWORD PTR _in$[ebp]
	push	eax
	lea	ecx, DWORD PTR _tmp$[ebp]
	call	??4Vector3@@QAEAAV0@ABV0@@Z		; Vector3::operator=

; 554  : 			v = &tmp;

	lea	eax, DWORD PTR _tmp$[ebp]
	mov	DWORD PTR _v$[ebp], eax

; 555  : 		}
; 556  : 		else

	jmp	SHORT $LN1@Inverse_Tr
$LN2@Inverse_Tr:

; 557  : 		{
; 558  : 			v = (Vector3 *)&in;

	mov	eax, DWORD PTR _in$[ebp]
	mov	DWORD PTR _v$[ebp], eax
$LN1@Inverse_Tr:

; 559  : 		}
; 560  : 		Vector3 diff(v->X - A[0][3], v->Y - A[1][3], v->Z - A[2][3]);

	push	3
	push	2
	mov	ecx, DWORD PTR _A$[ebp]
	call	??AMatrix3D@@QBEABVVector4@@H@Z		; Matrix3D::operator[]
	mov	ecx, eax
	call	??AVector4@@QBEABMH@Z			; Vector4::operator[]
	mov	ecx, DWORD PTR _v$[ebp]
	movss	xmm0, DWORD PTR [ecx+8]
	subss	xmm0, DWORD PTR [eax]
	push	ecx
	movss	DWORD PTR [esp], xmm0
	push	3
	push	1
	mov	ecx, DWORD PTR _A$[ebp]
	call	??AMatrix3D@@QBEABVVector4@@H@Z		; Matrix3D::operator[]
	mov	ecx, eax
	call	??AVector4@@QBEABMH@Z			; Vector4::operator[]
	mov	edx, DWORD PTR _v$[ebp]
	movss	xmm0, DWORD PTR [edx+4]
	subss	xmm0, DWORD PTR [eax]
	push	ecx
	movss	DWORD PTR [esp], xmm0
	push	3
	push	0
	mov	ecx, DWORD PTR _A$[ebp]
	call	??AMatrix3D@@QBEABVVector4@@H@Z		; Matrix3D::operator[]
	mov	ecx, eax
	call	??AVector4@@QBEABMH@Z			; Vector4::operator[]
	mov	ecx, DWORD PTR _v$[ebp]
	movss	xmm0, DWORD PTR [ecx]
	subss	xmm0, DWORD PTR [eax]
	push	ecx
	movss	DWORD PTR [esp], xmm0
	lea	ecx, DWORD PTR _diff$[ebp]
	call	??0Vector3@@QAE@MMM@Z			; Vector3::Vector3

; 561  : 		Matrix3D::Inverse_Rotate_Vector(A, diff, out);

	mov	eax, DWORD PTR _out$[ebp]
	push	eax
	lea	ecx, DWORD PTR _diff$[ebp]
	push	ecx
	mov	edx, DWORD PTR _A$[ebp]
	push	edx
	call	?Inverse_Rotate_Vector@Matrix3D@@SAXABV1@ABVVector3@@PAV2@@Z ; Matrix3D::Inverse_Rotate_Vector
	add	esp, 12					; 0000000cH

; 562  : 	}

	pop	edi
	pop	esi
	pop	ebx
	mov	esp, ebp
	pop	ebp
	ret	0
?Inverse_Transform_Vector@Matrix3D@@SAXABV1@ABVVector3@@PAV2@@Z ENDP ; Matrix3D::Inverse_Transform_Vector
_TEXT	ENDS
; Function compile flags: /Odtp /ZI
; File x:\github\renegade\dragonade_rxd\scripts\matrix3d.h
;	COMDAT ?Rotate_Vector@Matrix3D@@SAXABV1@ABVVector3@@PAV2@@Z
_TEXT	SEGMENT
tv237 = -88						; size = 4
tv233 = -88						; size = 4
tv229 = -88						; size = 4
tv235 = -84						; size = 4
tv231 = -84						; size = 4
tv227 = -84						; size = 4
_v$ = -16						; size = 4
_tmp$ = -12						; size = 12
_A$ = 8							; size = 4
_in$ = 12						; size = 4
_out$ = 16						; size = 4
?Rotate_Vector@Matrix3D@@SAXABV1@ABVVector3@@PAV2@@Z PROC ; Matrix3D::Rotate_Vector, COMDAT

; 531  : 	{

	push	ebp
	mov	ebp, esp
	sub	esp, 88					; 00000058H
	push	ebx
	push	esi
	push	edi

; 532  : 		Vector3 tmp;

	lea	ecx, DWORD PTR _tmp$[ebp]
	call	??0Vector3@@QAE@XZ			; Vector3::Vector3

; 533  : 		Vector3 * v;
; 534  : 		if (out == &in)

	mov	eax, DWORD PTR _out$[ebp]
	cmp	eax, DWORD PTR _in$[ebp]
	jne	SHORT $LN2@Rotate_Vec

; 535  : 		{
; 536  : 			tmp = in;

	mov	eax, DWORD PTR _in$[ebp]
	push	eax
	lea	ecx, DWORD PTR _tmp$[ebp]
	call	??4Vector3@@QAEAAV0@ABV0@@Z		; Vector3::operator=

; 537  : 			v = &tmp;

	lea	eax, DWORD PTR _tmp$[ebp]
	mov	DWORD PTR _v$[ebp], eax

; 538  : 		}
; 539  : 		else 

	jmp	SHORT $LN1@Rotate_Vec
$LN2@Rotate_Vec:

; 540  : 		{
; 541  : 			v = (Vector3 *)&in;

	mov	eax, DWORD PTR _in$[ebp]
	mov	DWORD PTR _v$[ebp], eax
$LN1@Rotate_Vec:

; 542  : 		}
; 543  : 		out->X = (A[0][0] * v->X + A[0][1] * v->Y + A[0][2] * v->Z);

	push	0
	push	0
	mov	ecx, DWORD PTR _A$[ebp]
	call	??AMatrix3D@@QBEABVVector4@@H@Z		; Matrix3D::operator[]
	mov	ecx, eax
	call	??AVector4@@QBEABMH@Z			; Vector4::operator[]
	mov	ecx, DWORD PTR _v$[ebp]
	movss	xmm0, DWORD PTR [eax]
	mulss	xmm0, DWORD PTR [ecx]
	push	1
	push	0
	mov	ecx, DWORD PTR _A$[ebp]
	movss	DWORD PTR tv227[ebp], xmm0
	call	??AMatrix3D@@QBEABVVector4@@H@Z		; Matrix3D::operator[]
	mov	ecx, eax
	call	??AVector4@@QBEABMH@Z			; Vector4::operator[]
	mov	edx, DWORD PTR _v$[ebp]
	movss	xmm0, DWORD PTR [eax]
	mulss	xmm0, DWORD PTR [edx+4]
	movss	xmm1, DWORD PTR tv227[ebp]
	addss	xmm1, xmm0
	push	2
	push	0
	mov	ecx, DWORD PTR _A$[ebp]
	movss	DWORD PTR tv229[ebp], xmm1
	call	??AMatrix3D@@QBEABVVector4@@H@Z		; Matrix3D::operator[]
	mov	ecx, eax
	call	??AVector4@@QBEABMH@Z			; Vector4::operator[]
	mov	ecx, DWORD PTR _v$[ebp]
	movss	xmm0, DWORD PTR [eax]
	mulss	xmm0, DWORD PTR [ecx+8]
	movss	xmm1, DWORD PTR tv229[ebp]
	addss	xmm1, xmm0
	mov	edx, DWORD PTR _out$[ebp]
	movss	DWORD PTR [edx], xmm1

; 544  : 		out->Y = (A[1][0] * v->X + A[1][1] * v->Y + A[1][2] * v->Z);

	push	0
	push	1
	mov	ecx, DWORD PTR _A$[ebp]
	call	??AMatrix3D@@QBEABVVector4@@H@Z		; Matrix3D::operator[]
	mov	ecx, eax
	call	??AVector4@@QBEABMH@Z			; Vector4::operator[]
	mov	ecx, DWORD PTR _v$[ebp]
	movss	xmm0, DWORD PTR [eax]
	mulss	xmm0, DWORD PTR [ecx]
	push	1
	push	1
	mov	ecx, DWORD PTR _A$[ebp]
	movss	DWORD PTR tv231[ebp], xmm0
	call	??AMatrix3D@@QBEABVVector4@@H@Z		; Matrix3D::operator[]
	mov	ecx, eax
	call	??AVector4@@QBEABMH@Z			; Vector4::operator[]
	mov	edx, DWORD PTR _v$[ebp]
	movss	xmm0, DWORD PTR [eax]
	mulss	xmm0, DWORD PTR [edx+4]
	movss	xmm1, DWORD PTR tv231[ebp]
	addss	xmm1, xmm0
	push	2
	push	1
	mov	ecx, DWORD PTR _A$[ebp]
	movss	DWORD PTR tv233[ebp], xmm1
	call	??AMatrix3D@@QBEABVVector4@@H@Z		; Matrix3D::operator[]
	mov	ecx, eax
	call	??AVector4@@QBEABMH@Z			; Vector4::operator[]
	mov	ecx, DWORD PTR _v$[ebp]
	movss	xmm0, DWORD PTR [eax]
	mulss	xmm0, DWORD PTR [ecx+8]
	movss	xmm1, DWORD PTR tv233[ebp]
	addss	xmm1, xmm0
	mov	edx, DWORD PTR _out$[ebp]
	movss	DWORD PTR [edx+4], xmm1

; 545  : 		out->Z = (A[2][0] * v->X + A[2][1] * v->Y + A[2][2] * v->Z);

	push	0
	push	2
	mov	ecx, DWORD PTR _A$[ebp]
	call	??AMatrix3D@@QBEABVVector4@@H@Z		; Matrix3D::operator[]
	mov	ecx, eax
	call	??AVector4@@QBEABMH@Z			; Vector4::operator[]
	mov	ecx, DWORD PTR _v$[ebp]
	movss	xmm0, DWORD PTR [eax]
	mulss	xmm0, DWORD PTR [ecx]
	push	1
	push	2
	mov	ecx, DWORD PTR _A$[ebp]
	movss	DWORD PTR tv235[ebp], xmm0
	call	??AMatrix3D@@QBEABVVector4@@H@Z		; Matrix3D::operator[]
	mov	ecx, eax
	call	??AVector4@@QBEABMH@Z			; Vector4::operator[]
	mov	edx, DWORD PTR _v$[ebp]
	movss	xmm0, DWORD PTR [eax]
	mulss	xmm0, DWORD PTR [edx+4]
	movss	xmm1, DWORD PTR tv235[ebp]
	addss	xmm1, xmm0
	push	2
	push	2
	mov	ecx, DWORD PTR _A$[ebp]
	movss	DWORD PTR tv237[ebp], xmm1
	call	??AMatrix3D@@QBEABVVector4@@H@Z		; Matrix3D::operator[]
	mov	ecx, eax
	call	??AVector4@@QBEABMH@Z			; Vector4::operator[]
	mov	ecx, DWORD PTR _v$[ebp]
	movss	xmm0, DWORD PTR [eax]
	mulss	xmm0, DWORD PTR [ecx+8]
	movss	xmm1, DWORD PTR tv237[ebp]
	addss	xmm1, xmm0
	mov	edx, DWORD PTR _out$[ebp]
	movss	DWORD PTR [edx+8], xmm1

; 546  : 	}

	pop	edi
	pop	esi
	pop	ebx
	mov	esp, ebp
	pop	ebp
	ret	0
?Rotate_Vector@Matrix3D@@SAXABV1@ABVVector3@@PAV2@@Z ENDP ; Matrix3D::Rotate_Vector
_TEXT	ENDS
; Function compile flags: /Odtp /ZI
; File x:\github\renegade\dragonade_rxd\scripts\matrix3d.h
;	COMDAT ?Get_Z_Vector@Matrix3D@@QBEXPAVVector3@@@Z
_TEXT	SEGMENT
_this$ = -4						; size = 4
_set_z$ = 8						; size = 4
?Get_Z_Vector@Matrix3D@@QBEXPAVVector3@@@Z PROC		; Matrix3D::Get_Z_Vector, COMDAT
; _this$ = ecx

; 524  : 	TT_INLINE void Get_Z_Vector(Vector3 * set_z) const { set_z->Set(Row[0][2], Row[1][2], Row[2][2]); }

	push	ebp
	mov	ebp, esp
	sub	esp, 68					; 00000044H
	push	ebx
	push	esi
	push	edi
	mov	DWORD PTR _this$[ebp], ecx
	push	2
	mov	ecx, 16					; 00000010H
	shl	ecx, 1
	add	ecx, DWORD PTR _this$[ebp]
	call	??AVector4@@QBEABMH@Z			; Vector4::operator[]
	push	ecx
	movss	xmm0, DWORD PTR [eax]
	movss	DWORD PTR [esp], xmm0
	push	2
	mov	ecx, 16					; 00000010H
	shl	ecx, 0
	add	ecx, DWORD PTR _this$[ebp]
	call	??AVector4@@QBEABMH@Z			; Vector4::operator[]
	push	ecx
	movss	xmm0, DWORD PTR [eax]
	movss	DWORD PTR [esp], xmm0
	push	2
	mov	ecx, 16					; 00000010H
	imul	ecx, 0
	add	ecx, DWORD PTR _this$[ebp]
	call	??AVector4@@QBEABMH@Z			; Vector4::operator[]
	push	ecx
	movss	xmm0, DWORD PTR [eax]
	movss	DWORD PTR [esp], xmm0
	mov	ecx, DWORD PTR _set_z$[ebp]
	call	?Set@Vector3@@QAEXMMM@Z			; Vector3::Set
	pop	edi
	pop	esi
	pop	ebx
	mov	esp, ebp
	pop	ebp
	ret	4
?Get_Z_Vector@Matrix3D@@QBEXPAVVector3@@@Z ENDP		; Matrix3D::Get_Z_Vector
_TEXT	ENDS
; Function compile flags: /Odtp /ZI
; File x:\github\renegade\dragonade_rxd\scripts\matrix3d.h
;	COMDAT ?Get_Y_Vector@Matrix3D@@QBEXPAVVector3@@@Z
_TEXT	SEGMENT
_this$ = -4						; size = 4
_set_y$ = 8						; size = 4
?Get_Y_Vector@Matrix3D@@QBEXPAVVector3@@@Z PROC		; Matrix3D::Get_Y_Vector, COMDAT
; _this$ = ecx

; 523  : 	TT_INLINE void Get_Y_Vector(Vector3 * set_y) const { set_y->Set(Row[0][1], Row[1][1], Row[2][1]); }

	push	ebp
	mov	ebp, esp
	sub	esp, 68					; 00000044H
	push	ebx
	push	esi
	push	edi
	mov	DWORD PTR _this$[ebp], ecx
	push	1
	mov	ecx, 16					; 00000010H
	shl	ecx, 1
	add	ecx, DWORD PTR _this$[ebp]
	call	??AVector4@@QBEABMH@Z			; Vector4::operator[]
	push	ecx
	movss	xmm0, DWORD PTR [eax]
	movss	DWORD PTR [esp], xmm0
	push	1
	mov	ecx, 16					; 00000010H
	shl	ecx, 0
	add	ecx, DWORD PTR _this$[ebp]
	call	??AVector4@@QBEABMH@Z			; Vector4::operator[]
	push	ecx
	movss	xmm0, DWORD PTR [eax]
	movss	DWORD PTR [esp], xmm0
	push	1
	mov	ecx, 16					; 00000010H
	imul	ecx, 0
	add	ecx, DWORD PTR _this$[ebp]
	call	??AVector4@@QBEABMH@Z			; Vector4::operator[]
	push	ecx
	movss	xmm0, DWORD PTR [eax]
	movss	DWORD PTR [esp], xmm0
	mov	ecx, DWORD PTR _set_y$[ebp]
	call	?Set@Vector3@@QAEXMMM@Z			; Vector3::Set
	pop	edi
	pop	esi
	pop	ebx
	mov	esp, ebp
	pop	ebp
	ret	4
?Get_Y_Vector@Matrix3D@@QBEXPAVVector3@@@Z ENDP		; Matrix3D::Get_Y_Vector
_TEXT	ENDS
; Function compile flags: /Odtp /ZI
; File x:\github\renegade\dragonade_rxd\scripts\matrix3d.h
;	COMDAT ?Get_X_Vector@Matrix3D@@QBEXPAVVector3@@@Z
_TEXT	SEGMENT
_this$ = -4						; size = 4
_set_x$ = 8						; size = 4
?Get_X_Vector@Matrix3D@@QBEXPAVVector3@@@Z PROC		; Matrix3D::Get_X_Vector, COMDAT
; _this$ = ecx

; 522  : 	TT_INLINE void Get_X_Vector(Vector3 * set_x) const { set_x->Set(Row[0][0], Row[1][0], Row[2][0]); }

	push	ebp
	mov	ebp, esp
	sub	esp, 68					; 00000044H
	push	ebx
	push	esi
	push	edi
	mov	DWORD PTR _this$[ebp], ecx
	push	0
	mov	ecx, 16					; 00000010H
	shl	ecx, 1
	add	ecx, DWORD PTR _this$[ebp]
	call	??AVector4@@QBEABMH@Z			; Vector4::operator[]
	push	ecx
	movss	xmm0, DWORD PTR [eax]
	movss	DWORD PTR [esp], xmm0
	push	0
	mov	ecx, 16					; 00000010H
	shl	ecx, 0
	add	ecx, DWORD PTR _this$[ebp]
	call	??AVector4@@QBEABMH@Z			; Vector4::operator[]
	push	ecx
	movss	xmm0, DWORD PTR [eax]
	movss	DWORD PTR [esp], xmm0
	push	0
	mov	ecx, 16					; 00000010H
	imul	ecx, 0
	add	ecx, DWORD PTR _this$[ebp]
	call	??AVector4@@QBEABMH@Z			; Vector4::operator[]
	push	ecx
	movss	xmm0, DWORD PTR [eax]
	movss	DWORD PTR [esp], xmm0
	mov	ecx, DWORD PTR _set_x$[ebp]
	call	?Set@Vector3@@QAEXMMM@Z			; Vector3::Set
	pop	edi
	pop	esi
	pop	ebx
	mov	esp, ebp
	pop	ebp
	ret	4
?Get_X_Vector@Matrix3D@@QBEXPAVVector3@@@Z ENDP		; Matrix3D::Get_X_Vector
_TEXT	ENDS
; Function compile flags: /Odtp /ZI
; File x:\github\renegade\dragonade_rxd\scripts\matrix3d.h
;	COMDAT ?Get_Z_Vector@Matrix3D@@QBE?AVVector3@@XZ
_TEXT	SEGMENT
_this$ = -4						; size = 4
___$ReturnUdt$ = 8					; size = 4
?Get_Z_Vector@Matrix3D@@QBE?AVVector3@@XZ PROC		; Matrix3D::Get_Z_Vector, COMDAT
; _this$ = ecx

; 521  : 	TT_INLINE Vector3 Get_Z_Vector() const { return Vector3(Row[0][2], Row[1][2], Row[2][2]); }

	push	ebp
	mov	ebp, esp
	sub	esp, 68					; 00000044H
	push	ebx
	push	esi
	push	edi
	mov	DWORD PTR _this$[ebp], ecx
	push	2
	mov	ecx, 16					; 00000010H
	shl	ecx, 1
	add	ecx, DWORD PTR _this$[ebp]
	call	??AVector4@@QBEABMH@Z			; Vector4::operator[]
	push	ecx
	movss	xmm0, DWORD PTR [eax]
	movss	DWORD PTR [esp], xmm0
	push	2
	mov	ecx, 16					; 00000010H
	shl	ecx, 0
	add	ecx, DWORD PTR _this$[ebp]
	call	??AVector4@@QBEABMH@Z			; Vector4::operator[]
	push	ecx
	movss	xmm0, DWORD PTR [eax]
	movss	DWORD PTR [esp], xmm0
	push	2
	mov	ecx, 16					; 00000010H
	imul	ecx, 0
	add	ecx, DWORD PTR _this$[ebp]
	call	??AVector4@@QBEABMH@Z			; Vector4::operator[]
	push	ecx
	movss	xmm0, DWORD PTR [eax]
	movss	DWORD PTR [esp], xmm0
	mov	ecx, DWORD PTR ___$ReturnUdt$[ebp]
	call	??0Vector3@@QAE@MMM@Z			; Vector3::Vector3
	mov	eax, DWORD PTR ___$ReturnUdt$[ebp]
	pop	edi
	pop	esi
	pop	ebx
	mov	esp, ebp
	pop	ebp
	ret	4
?Get_Z_Vector@Matrix3D@@QBE?AVVector3@@XZ ENDP		; Matrix3D::Get_Z_Vector
_TEXT	ENDS
; Function compile flags: /Odtp /ZI
; File x:\github\renegade\dragonade_rxd\scripts\matrix3d.h
;	COMDAT ?Get_Y_Vector@Matrix3D@@QBE?AVVector3@@XZ
_TEXT	SEGMENT
_this$ = -4						; size = 4
___$ReturnUdt$ = 8					; size = 4
?Get_Y_Vector@Matrix3D@@QBE?AVVector3@@XZ PROC		; Matrix3D::Get_Y_Vector, COMDAT
; _this$ = ecx

; 520  : 	TT_INLINE Vector3 Get_Y_Vector() const { return Vector3(Row[0][1], Row[1][1], Row[2][1]); }

	push	ebp
	mov	ebp, esp
	sub	esp, 68					; 00000044H
	push	ebx
	push	esi
	push	edi
	mov	DWORD PTR _this$[ebp], ecx
	push	1
	mov	ecx, 16					; 00000010H
	shl	ecx, 1
	add	ecx, DWORD PTR _this$[ebp]
	call	??AVector4@@QBEABMH@Z			; Vector4::operator[]
	push	ecx
	movss	xmm0, DWORD PTR [eax]
	movss	DWORD PTR [esp], xmm0
	push	1
	mov	ecx, 16					; 00000010H
	shl	ecx, 0
	add	ecx, DWORD PTR _this$[ebp]
	call	??AVector4@@QBEABMH@Z			; Vector4::operator[]
	push	ecx
	movss	xmm0, DWORD PTR [eax]
	movss	DWORD PTR [esp], xmm0
	push	1
	mov	ecx, 16					; 00000010H
	imul	ecx, 0
	add	ecx, DWORD PTR _this$[ebp]
	call	??AVector4@@QBEABMH@Z			; Vector4::operator[]
	push	ecx
	movss	xmm0, DWORD PTR [eax]
	movss	DWORD PTR [esp], xmm0
	mov	ecx, DWORD PTR ___$ReturnUdt$[ebp]
	call	??0Vector3@@QAE@MMM@Z			; Vector3::Vector3
	mov	eax, DWORD PTR ___$ReturnUdt$[ebp]
	pop	edi
	pop	esi
	pop	ebx
	mov	esp, ebp
	pop	ebp
	ret	4
?Get_Y_Vector@Matrix3D@@QBE?AVVector3@@XZ ENDP		; Matrix3D::Get_Y_Vector
_TEXT	ENDS
; Function compile flags: /Odtp /ZI
; File x:\github\renegade\dragonade_rxd\scripts\matrix3d.h
;	COMDAT ?Get_X_Vector@Matrix3D@@QBE?AVVector3@@XZ
_TEXT	SEGMENT
_this$ = -4						; size = 4
___$ReturnUdt$ = 8					; size = 4
?Get_X_Vector@Matrix3D@@QBE?AVVector3@@XZ PROC		; Matrix3D::Get_X_Vector, COMDAT
; _this$ = ecx

; 519  : 	TT_INLINE Vector3 Get_X_Vector() const { return Vector3(Row[0][0], Row[1][0], Row[2][0]); }

	push	ebp
	mov	ebp, esp
	sub	esp, 68					; 00000044H
	push	ebx
	push	esi
	push	edi
	mov	DWORD PTR _this$[ebp], ecx
	push	0
	mov	ecx, 16					; 00000010H
	shl	ecx, 1
	add	ecx, DWORD PTR _this$[ebp]
	call	??AVector4@@QBEABMH@Z			; Vector4::operator[]
	push	ecx
	movss	xmm0, DWORD PTR [eax]
	movss	DWORD PTR [esp], xmm0
	push	0
	mov	ecx, 16					; 00000010H
	shl	ecx, 0
	add	ecx, DWORD PTR _this$[ebp]
	call	??AVector4@@QBEABMH@Z			; Vector4::operator[]
	push	ecx
	movss	xmm0, DWORD PTR [eax]
	movss	DWORD PTR [esp], xmm0
	push	0
	mov	ecx, 16					; 00000010H
	imul	ecx, 0
	add	ecx, DWORD PTR _this$[ebp]
	call	??AVector4@@QBEABMH@Z			; Vector4::operator[]
	push	ecx
	movss	xmm0, DWORD PTR [eax]
	movss	DWORD PTR [esp], xmm0
	mov	ecx, DWORD PTR ___$ReturnUdt$[ebp]
	call	??0Vector3@@QAE@MMM@Z			; Vector3::Vector3
	mov	eax, DWORD PTR ___$ReturnUdt$[ebp]
	pop	edi
	pop	esi
	pop	ebx
	mov	esp, ebp
	pop	ebp
	ret	4
?Get_X_Vector@Matrix3D@@QBE?AVVector3@@XZ ENDP		; Matrix3D::Get_X_Vector
_TEXT	ENDS
; Function compile flags: /Odtp /ZI
; File x:\github\renegade\dragonade_rxd\scripts\matrix3d.h
;	COMDAT ?Transform_Vector@Matrix3D@@SAXABV1@ABVVector3@@PAV2@@Z
_TEXT	SEGMENT
tv270 = -92						; size = 4
tv264 = -92						; size = 4
tv258 = -92						; size = 4
tv268 = -88						; size = 4
tv262 = -88						; size = 4
tv256 = -88						; size = 4
tv266 = -84						; size = 4
tv260 = -84						; size = 4
tv254 = -84						; size = 4
_v$ = -16						; size = 4
_tmp$ = -12						; size = 12
_A$ = 8							; size = 4
_in$ = 12						; size = 4
_out$ = 16						; size = 4
?Transform_Vector@Matrix3D@@SAXABV1@ABVVector3@@PAV2@@Z PROC ; Matrix3D::Transform_Vector, COMDAT

; 503  :    {

	push	ebp
	mov	ebp, esp
	sub	esp, 92					; 0000005cH
	push	ebx
	push	esi
	push	edi

; 504  : 		Vector3 tmp;

	lea	ecx, DWORD PTR _tmp$[ebp]
	call	??0Vector3@@QAE@XZ			; Vector3::Vector3

; 505  : 		Vector3 * v;
; 506  : 		if (out == &in)

	mov	eax, DWORD PTR _out$[ebp]
	cmp	eax, DWORD PTR _in$[ebp]
	jne	SHORT $LN2@Transform_

; 507  : 		{
; 508  : 			tmp = in;

	mov	eax, DWORD PTR _in$[ebp]
	push	eax
	lea	ecx, DWORD PTR _tmp$[ebp]
	call	??4Vector3@@QAEAAV0@ABV0@@Z		; Vector3::operator=

; 509  : 			v = &tmp;

	lea	eax, DWORD PTR _tmp$[ebp]
	mov	DWORD PTR _v$[ebp], eax

; 510  : 		}
; 511  : 		else

	jmp	SHORT $LN1@Transform_
$LN2@Transform_:

; 512  : 		{
; 513  : 			v = (Vector3 *)&in;

	mov	eax, DWORD PTR _in$[ebp]
	mov	DWORD PTR _v$[ebp], eax
$LN1@Transform_:

; 514  : 		}
; 515  : 		out->X = (A.Row[0][0] * v->X + A.Row[0][1] * v->Y + A.Row[0][2] * v->Z + A.Row[0][3]);

	push	0
	mov	ecx, 16					; 00000010H
	imul	ecx, 0
	add	ecx, DWORD PTR _A$[ebp]
	call	??AVector4@@QBEABMH@Z			; Vector4::operator[]
	mov	ecx, DWORD PTR _v$[ebp]
	movss	xmm0, DWORD PTR [eax]
	mulss	xmm0, DWORD PTR [ecx]
	push	1
	mov	ecx, 16					; 00000010H
	imul	ecx, 0
	add	ecx, DWORD PTR _A$[ebp]
	movss	DWORD PTR tv254[ebp], xmm0
	call	??AVector4@@QBEABMH@Z			; Vector4::operator[]
	mov	edx, DWORD PTR _v$[ebp]
	movss	xmm0, DWORD PTR [eax]
	mulss	xmm0, DWORD PTR [edx+4]
	movss	xmm1, DWORD PTR tv254[ebp]
	addss	xmm1, xmm0
	push	2
	mov	ecx, 16					; 00000010H
	imul	ecx, 0
	add	ecx, DWORD PTR _A$[ebp]
	movss	DWORD PTR tv256[ebp], xmm1
	call	??AVector4@@QBEABMH@Z			; Vector4::operator[]
	mov	ecx, DWORD PTR _v$[ebp]
	movss	xmm0, DWORD PTR [eax]
	mulss	xmm0, DWORD PTR [ecx+8]
	movss	xmm1, DWORD PTR tv256[ebp]
	addss	xmm1, xmm0
	push	3
	mov	ecx, 16					; 00000010H
	imul	ecx, 0
	add	ecx, DWORD PTR _A$[ebp]
	movss	DWORD PTR tv258[ebp], xmm1
	call	??AVector4@@QBEABMH@Z			; Vector4::operator[]
	movss	xmm0, DWORD PTR tv258[ebp]
	addss	xmm0, DWORD PTR [eax]
	mov	edx, DWORD PTR _out$[ebp]
	movss	DWORD PTR [edx], xmm0

; 516  : 		out->Y = (A.Row[1][0] * v->X + A.Row[1][1] * v->Y + A.Row[1][2] * v->Z + A.Row[1][3]);

	push	0
	mov	ecx, 16					; 00000010H
	shl	ecx, 0
	add	ecx, DWORD PTR _A$[ebp]
	call	??AVector4@@QBEABMH@Z			; Vector4::operator[]
	mov	ecx, DWORD PTR _v$[ebp]
	movss	xmm0, DWORD PTR [eax]
	mulss	xmm0, DWORD PTR [ecx]
	push	1
	mov	ecx, 16					; 00000010H
	shl	ecx, 0
	add	ecx, DWORD PTR _A$[ebp]
	movss	DWORD PTR tv260[ebp], xmm0
	call	??AVector4@@QBEABMH@Z			; Vector4::operator[]
	mov	edx, DWORD PTR _v$[ebp]
	movss	xmm0, DWORD PTR [eax]
	mulss	xmm0, DWORD PTR [edx+4]
	movss	xmm1, DWORD PTR tv260[ebp]
	addss	xmm1, xmm0
	push	2
	mov	ecx, 16					; 00000010H
	shl	ecx, 0
	add	ecx, DWORD PTR _A$[ebp]
	movss	DWORD PTR tv262[ebp], xmm1
	call	??AVector4@@QBEABMH@Z			; Vector4::operator[]
	mov	ecx, DWORD PTR _v$[ebp]
	movss	xmm0, DWORD PTR [eax]
	mulss	xmm0, DWORD PTR [ecx+8]
	movss	xmm1, DWORD PTR tv262[ebp]
	addss	xmm1, xmm0
	push	3
	mov	ecx, 16					; 00000010H
	shl	ecx, 0
	add	ecx, DWORD PTR _A$[ebp]
	movss	DWORD PTR tv264[ebp], xmm1
	call	??AVector4@@QBEABMH@Z			; Vector4::operator[]
	movss	xmm0, DWORD PTR tv264[ebp]
	addss	xmm0, DWORD PTR [eax]
	mov	edx, DWORD PTR _out$[ebp]
	movss	DWORD PTR [edx+4], xmm0

; 517  : 		out->Z = (A.Row[2][0] * v->X + A.Row[2][1] * v->Y + A.Row[2][2] * v->Z + A.Row[2][3]);

	push	0
	mov	ecx, 16					; 00000010H
	shl	ecx, 1
	add	ecx, DWORD PTR _A$[ebp]
	call	??AVector4@@QBEABMH@Z			; Vector4::operator[]
	mov	ecx, DWORD PTR _v$[ebp]
	movss	xmm0, DWORD PTR [eax]
	mulss	xmm0, DWORD PTR [ecx]
	push	1
	mov	ecx, 16					; 00000010H
	shl	ecx, 1
	add	ecx, DWORD PTR _A$[ebp]
	movss	DWORD PTR tv266[ebp], xmm0
	call	??AVector4@@QBEABMH@Z			; Vector4::operator[]
	mov	edx, DWORD PTR _v$[ebp]
	movss	xmm0, DWORD PTR [eax]
	mulss	xmm0, DWORD PTR [edx+4]
	movss	xmm1, DWORD PTR tv266[ebp]
	addss	xmm1, xmm0
	push	2
	mov	ecx, 16					; 00000010H
	shl	ecx, 1
	add	ecx, DWORD PTR _A$[ebp]
	movss	DWORD PTR tv268[ebp], xmm1
	call	??AVector4@@QBEABMH@Z			; Vector4::operator[]
	mov	ecx, DWORD PTR _v$[ebp]
	movss	xmm0, DWORD PTR [eax]
	mulss	xmm0, DWORD PTR [ecx+8]
	movss	xmm1, DWORD PTR tv268[ebp]
	addss	xmm1, xmm0
	push	3
	mov	ecx, 16					; 00000010H
	shl	ecx, 1
	add	ecx, DWORD PTR _A$[ebp]
	movss	DWORD PTR tv270[ebp], xmm1
	call	??AVector4@@QBEABMH@Z			; Vector4::operator[]
	movss	xmm0, DWORD PTR tv270[ebp]
	addss	xmm0, DWORD PTR [eax]
	mov	edx, DWORD PTR _out$[ebp]
	movss	DWORD PTR [edx+8], xmm0

; 518  :    }

	pop	edi
	pop	esi
	pop	ebx
	mov	esp, ebp
	pop	ebp
	ret	0
?Transform_Vector@Matrix3D@@SAXABV1@ABVVector3@@PAV2@@Z ENDP ; Matrix3D::Transform_Vector
_TEXT	ENDS
; Function compile flags: /Odtp /ZI
; File x:\github\renegade\dragonade_rxd\scripts\matrix3d.h
;	COMDAT ?In_Place_Pre_Rotate_Z@Matrix3D@@QAEXMM@Z
_TEXT	SEGMENT
tv245 = -80						; size = 4
tv243 = -80						; size = 4
tv241 = -80						; size = 4
tv239 = -80						; size = 4
tv237 = -80						; size = 4
tv235 = -80						; size = 4
_tmp2$ = -12						; size = 4
_tmp1$ = -8						; size = 4
_this$ = -4						; size = 4
_s$ = 8							; size = 4
_c$ = 12						; size = 4
?In_Place_Pre_Rotate_Z@Matrix3D@@QAEXMM@Z PROC		; Matrix3D::In_Place_Pre_Rotate_Z, COMDAT
; _this$ = ecx

; 486  : 	{

	push	ebp
	mov	ebp, esp
	sub	esp, 80					; 00000050H
	push	ebx
	push	esi
	push	edi
	mov	DWORD PTR _this$[ebp], ecx

; 487  : 		float tmp1,tmp2;
; 488  : 		tmp1 = Row[0][0]; tmp2 = Row[1][0];

	push	0
	mov	ecx, 16					; 00000010H
	imul	ecx, 0
	add	ecx, DWORD PTR _this$[ebp]
	call	??AVector4@@QAEAAMH@Z			; Vector4::operator[]
	movss	xmm0, DWORD PTR [eax]
	movss	DWORD PTR _tmp1$[ebp], xmm0
	push	0
	mov	ecx, 16					; 00000010H
	shl	ecx, 0
	add	ecx, DWORD PTR _this$[ebp]
	call	??AVector4@@QAEAAMH@Z			; Vector4::operator[]
	movss	xmm0, DWORD PTR [eax]
	movss	DWORD PTR _tmp2$[ebp], xmm0

; 489  : 		Row[0][0] = (float)(c*tmp1 - s*tmp2);

	movss	xmm0, DWORD PTR _c$[ebp]
	mulss	xmm0, DWORD PTR _tmp1$[ebp]
	movss	xmm1, DWORD PTR _s$[ebp]
	mulss	xmm1, DWORD PTR _tmp2$[ebp]
	subss	xmm0, xmm1
	push	0
	mov	ecx, 16					; 00000010H
	imul	ecx, 0
	add	ecx, DWORD PTR _this$[ebp]
	movss	DWORD PTR tv235[ebp], xmm0
	call	??AVector4@@QAEAAMH@Z			; Vector4::operator[]
	movss	xmm0, DWORD PTR tv235[ebp]
	movss	DWORD PTR [eax], xmm0

; 490  : 		Row[1][0] = (float)(s*tmp1 + c*tmp2);

	movss	xmm0, DWORD PTR _s$[ebp]
	mulss	xmm0, DWORD PTR _tmp1$[ebp]
	movss	xmm1, DWORD PTR _c$[ebp]
	mulss	xmm1, DWORD PTR _tmp2$[ebp]
	addss	xmm0, xmm1
	push	0
	mov	ecx, 16					; 00000010H
	shl	ecx, 0
	add	ecx, DWORD PTR _this$[ebp]
	movss	DWORD PTR tv237[ebp], xmm0
	call	??AVector4@@QAEAAMH@Z			; Vector4::operator[]
	movss	xmm0, DWORD PTR tv237[ebp]
	movss	DWORD PTR [eax], xmm0

; 491  : 		tmp1 = Row[0][1]; tmp2 = Row[1][1];

	push	1
	mov	ecx, 16					; 00000010H
	imul	ecx, 0
	add	ecx, DWORD PTR _this$[ebp]
	call	??AVector4@@QAEAAMH@Z			; Vector4::operator[]
	movss	xmm0, DWORD PTR [eax]
	movss	DWORD PTR _tmp1$[ebp], xmm0
	push	1
	mov	ecx, 16					; 00000010H
	shl	ecx, 0
	add	ecx, DWORD PTR _this$[ebp]
	call	??AVector4@@QAEAAMH@Z			; Vector4::operator[]
	movss	xmm0, DWORD PTR [eax]
	movss	DWORD PTR _tmp2$[ebp], xmm0

; 492  : 		Row[0][1] = (float)(c*tmp1 - s*tmp2);

	movss	xmm0, DWORD PTR _c$[ebp]
	mulss	xmm0, DWORD PTR _tmp1$[ebp]
	movss	xmm1, DWORD PTR _s$[ebp]
	mulss	xmm1, DWORD PTR _tmp2$[ebp]
	subss	xmm0, xmm1
	push	1
	mov	ecx, 16					; 00000010H
	imul	ecx, 0
	add	ecx, DWORD PTR _this$[ebp]
	movss	DWORD PTR tv239[ebp], xmm0
	call	??AVector4@@QAEAAMH@Z			; Vector4::operator[]
	movss	xmm0, DWORD PTR tv239[ebp]
	movss	DWORD PTR [eax], xmm0

; 493  : 		Row[1][1] = (float)(s*tmp1 + c*tmp2);

	movss	xmm0, DWORD PTR _s$[ebp]
	mulss	xmm0, DWORD PTR _tmp1$[ebp]
	movss	xmm1, DWORD PTR _c$[ebp]
	mulss	xmm1, DWORD PTR _tmp2$[ebp]
	addss	xmm0, xmm1
	push	1
	mov	ecx, 16					; 00000010H
	shl	ecx, 0
	add	ecx, DWORD PTR _this$[ebp]
	movss	DWORD PTR tv241[ebp], xmm0
	call	??AVector4@@QAEAAMH@Z			; Vector4::operator[]
	movss	xmm0, DWORD PTR tv241[ebp]
	movss	DWORD PTR [eax], xmm0

; 494  : 		tmp1 = Row[0][2]; tmp2 = Row[1][2];

	push	2
	mov	ecx, 16					; 00000010H
	imul	ecx, 0
	add	ecx, DWORD PTR _this$[ebp]
	call	??AVector4@@QAEAAMH@Z			; Vector4::operator[]
	movss	xmm0, DWORD PTR [eax]
	movss	DWORD PTR _tmp1$[ebp], xmm0
	push	2
	mov	ecx, 16					; 00000010H
	shl	ecx, 0
	add	ecx, DWORD PTR _this$[ebp]
	call	??AVector4@@QAEAAMH@Z			; Vector4::operator[]
	movss	xmm0, DWORD PTR [eax]
	movss	DWORD PTR _tmp2$[ebp], xmm0

; 495  : 		Row[0][2] = (float)(c*tmp1 - s*tmp2);

	movss	xmm0, DWORD PTR _c$[ebp]
	mulss	xmm0, DWORD PTR _tmp1$[ebp]
	movss	xmm1, DWORD PTR _s$[ebp]
	mulss	xmm1, DWORD PTR _tmp2$[ebp]
	subss	xmm0, xmm1
	push	2
	mov	ecx, 16					; 00000010H
	imul	ecx, 0
	add	ecx, DWORD PTR _this$[ebp]
	movss	DWORD PTR tv243[ebp], xmm0
	call	??AVector4@@QAEAAMH@Z			; Vector4::operator[]
	movss	xmm0, DWORD PTR tv243[ebp]
	movss	DWORD PTR [eax], xmm0

; 496  : 		Row[1][2] = (float)(s*tmp1 + c*tmp2);

	movss	xmm0, DWORD PTR _s$[ebp]
	mulss	xmm0, DWORD PTR _tmp1$[ebp]
	movss	xmm1, DWORD PTR _c$[ebp]
	mulss	xmm1, DWORD PTR _tmp2$[ebp]
	addss	xmm0, xmm1
	push	2
	mov	ecx, 16					; 00000010H
	shl	ecx, 0
	add	ecx, DWORD PTR _this$[ebp]
	movss	DWORD PTR tv245[ebp], xmm0
	call	??AVector4@@QAEAAMH@Z			; Vector4::operator[]
	movss	xmm0, DWORD PTR tv245[ebp]
	movss	DWORD PTR [eax], xmm0

; 497  : 	}

	pop	edi
	pop	esi
	pop	ebx
	mov	esp, ebp
	pop	ebp
	ret	8
?In_Place_Pre_Rotate_Z@Matrix3D@@QAEXMM@Z ENDP		; Matrix3D::In_Place_Pre_Rotate_Z
_TEXT	ENDS
; Function compile flags: /Odtp /ZI
; File x:\github\renegade\dragonade_rxd\scripts\matrix3d.h
;	COMDAT ?In_Place_Pre_Rotate_Y@Matrix3D@@QAEXMM@Z
_TEXT	SEGMENT
tv248 = -80						; size = 4
tv246 = -80						; size = 4
tv244 = -80						; size = 4
tv242 = -80						; size = 4
tv240 = -80						; size = 4
tv238 = -80						; size = 4
_tmp2$ = -12						; size = 4
_tmp1$ = -8						; size = 4
_this$ = -4						; size = 4
_s$ = 8							; size = 4
_c$ = 12						; size = 4
?In_Place_Pre_Rotate_Y@Matrix3D@@QAEXMM@Z PROC		; Matrix3D::In_Place_Pre_Rotate_Y, COMDAT
; _this$ = ecx

; 473  : 	{

	push	ebp
	mov	ebp, esp
	sub	esp, 80					; 00000050H
	push	ebx
	push	esi
	push	edi
	mov	DWORD PTR _this$[ebp], ecx

; 474  : 		float tmp1,tmp2;
; 475  : 		tmp1 = Row[0][0]; tmp2 = Row[2][0];

	push	0
	mov	ecx, 16					; 00000010H
	imul	ecx, 0
	add	ecx, DWORD PTR _this$[ebp]
	call	??AVector4@@QAEAAMH@Z			; Vector4::operator[]
	movss	xmm0, DWORD PTR [eax]
	movss	DWORD PTR _tmp1$[ebp], xmm0
	push	0
	mov	ecx, 16					; 00000010H
	shl	ecx, 1
	add	ecx, DWORD PTR _this$[ebp]
	call	??AVector4@@QAEAAMH@Z			; Vector4::operator[]
	movss	xmm0, DWORD PTR [eax]
	movss	DWORD PTR _tmp2$[ebp], xmm0

; 476  : 		Row[0][0] = (float)( c*tmp1 + s*tmp2);

	movss	xmm0, DWORD PTR _c$[ebp]
	mulss	xmm0, DWORD PTR _tmp1$[ebp]
	movss	xmm1, DWORD PTR _s$[ebp]
	mulss	xmm1, DWORD PTR _tmp2$[ebp]
	addss	xmm0, xmm1
	push	0
	mov	ecx, 16					; 00000010H
	imul	ecx, 0
	add	ecx, DWORD PTR _this$[ebp]
	movss	DWORD PTR tv238[ebp], xmm0
	call	??AVector4@@QAEAAMH@Z			; Vector4::operator[]
	movss	xmm0, DWORD PTR tv238[ebp]
	movss	DWORD PTR [eax], xmm0

; 477  : 		Row[2][0] = (float)(-s*tmp1 + c*tmp2);

	movss	xmm0, DWORD PTR _s$[ebp]
	xorps	xmm0, DWORD PTR __xmm@80000000800000008000000080000000
	mulss	xmm0, DWORD PTR _tmp1$[ebp]
	movss	xmm1, DWORD PTR _c$[ebp]
	mulss	xmm1, DWORD PTR _tmp2$[ebp]
	addss	xmm0, xmm1
	push	0
	mov	ecx, 16					; 00000010H
	shl	ecx, 1
	add	ecx, DWORD PTR _this$[ebp]
	movss	DWORD PTR tv240[ebp], xmm0
	call	??AVector4@@QAEAAMH@Z			; Vector4::operator[]
	movss	xmm0, DWORD PTR tv240[ebp]
	movss	DWORD PTR [eax], xmm0

; 478  : 		tmp1 = Row[0][1]; tmp2 = Row[2][1];

	push	1
	mov	ecx, 16					; 00000010H
	imul	ecx, 0
	add	ecx, DWORD PTR _this$[ebp]
	call	??AVector4@@QAEAAMH@Z			; Vector4::operator[]
	movss	xmm0, DWORD PTR [eax]
	movss	DWORD PTR _tmp1$[ebp], xmm0
	push	1
	mov	ecx, 16					; 00000010H
	shl	ecx, 1
	add	ecx, DWORD PTR _this$[ebp]
	call	??AVector4@@QAEAAMH@Z			; Vector4::operator[]
	movss	xmm0, DWORD PTR [eax]
	movss	DWORD PTR _tmp2$[ebp], xmm0

; 479  : 		Row[0][1] = (float)( c*tmp1 + s*tmp2);

	movss	xmm0, DWORD PTR _c$[ebp]
	mulss	xmm0, DWORD PTR _tmp1$[ebp]
	movss	xmm1, DWORD PTR _s$[ebp]
	mulss	xmm1, DWORD PTR _tmp2$[ebp]
	addss	xmm0, xmm1
	push	1
	mov	ecx, 16					; 00000010H
	imul	ecx, 0
	add	ecx, DWORD PTR _this$[ebp]
	movss	DWORD PTR tv242[ebp], xmm0
	call	??AVector4@@QAEAAMH@Z			; Vector4::operator[]
	movss	xmm0, DWORD PTR tv242[ebp]
	movss	DWORD PTR [eax], xmm0

; 480  : 		Row[2][1] = (float)(-s*tmp1 + c*tmp2);

	movss	xmm0, DWORD PTR _s$[ebp]
	xorps	xmm0, DWORD PTR __xmm@80000000800000008000000080000000
	mulss	xmm0, DWORD PTR _tmp1$[ebp]
	movss	xmm1, DWORD PTR _c$[ebp]
	mulss	xmm1, DWORD PTR _tmp2$[ebp]
	addss	xmm0, xmm1
	push	1
	mov	ecx, 16					; 00000010H
	shl	ecx, 1
	add	ecx, DWORD PTR _this$[ebp]
	movss	DWORD PTR tv244[ebp], xmm0
	call	??AVector4@@QAEAAMH@Z			; Vector4::operator[]
	movss	xmm0, DWORD PTR tv244[ebp]
	movss	DWORD PTR [eax], xmm0

; 481  : 		tmp1 = Row[0][2]; tmp2 = Row[2][2];

	push	2
	mov	ecx, 16					; 00000010H
	imul	ecx, 0
	add	ecx, DWORD PTR _this$[ebp]
	call	??AVector4@@QAEAAMH@Z			; Vector4::operator[]
	movss	xmm0, DWORD PTR [eax]
	movss	DWORD PTR _tmp1$[ebp], xmm0
	push	2
	mov	ecx, 16					; 00000010H
	shl	ecx, 1
	add	ecx, DWORD PTR _this$[ebp]
	call	??AVector4@@QAEAAMH@Z			; Vector4::operator[]
	movss	xmm0, DWORD PTR [eax]
	movss	DWORD PTR _tmp2$[ebp], xmm0

; 482  : 		Row[0][2] = (float)( c*tmp1 + s*tmp2);

	movss	xmm0, DWORD PTR _c$[ebp]
	mulss	xmm0, DWORD PTR _tmp1$[ebp]
	movss	xmm1, DWORD PTR _s$[ebp]
	mulss	xmm1, DWORD PTR _tmp2$[ebp]
	addss	xmm0, xmm1
	push	2
	mov	ecx, 16					; 00000010H
	imul	ecx, 0
	add	ecx, DWORD PTR _this$[ebp]
	movss	DWORD PTR tv246[ebp], xmm0
	call	??AVector4@@QAEAAMH@Z			; Vector4::operator[]
	movss	xmm0, DWORD PTR tv246[ebp]
	movss	DWORD PTR [eax], xmm0

; 483  : 		Row[2][2] = (float)(-s*tmp1 + c*tmp2);

	movss	xmm0, DWORD PTR _s$[ebp]
	xorps	xmm0, DWORD PTR __xmm@80000000800000008000000080000000
	mulss	xmm0, DWORD PTR _tmp1$[ebp]
	movss	xmm1, DWORD PTR _c$[ebp]
	mulss	xmm1, DWORD PTR _tmp2$[ebp]
	addss	xmm0, xmm1
	push	2
	mov	ecx, 16					; 00000010H
	shl	ecx, 1
	add	ecx, DWORD PTR _this$[ebp]
	movss	DWORD PTR tv248[ebp], xmm0
	call	??AVector4@@QAEAAMH@Z			; Vector4::operator[]
	movss	xmm0, DWORD PTR tv248[ebp]
	movss	DWORD PTR [eax], xmm0

; 484  : 	}

	pop	edi
	pop	esi
	pop	ebx
	mov	esp, ebp
	pop	ebp
	ret	8
?In_Place_Pre_Rotate_Y@Matrix3D@@QAEXMM@Z ENDP		; Matrix3D::In_Place_Pre_Rotate_Y
_TEXT	ENDS
; Function compile flags: /Odtp /ZI
; File x:\github\renegade\dragonade_rxd\scripts\matrix3d.h
;	COMDAT ?In_Place_Pre_Rotate_X@Matrix3D@@QAEXMM@Z
_TEXT	SEGMENT
tv245 = -80						; size = 4
tv243 = -80						; size = 4
tv241 = -80						; size = 4
tv239 = -80						; size = 4
tv237 = -80						; size = 4
tv235 = -80						; size = 4
_tmp2$ = -12						; size = 4
_tmp1$ = -8						; size = 4
_this$ = -4						; size = 4
_s$ = 8							; size = 4
_c$ = 12						; size = 4
?In_Place_Pre_Rotate_X@Matrix3D@@QAEXMM@Z PROC		; Matrix3D::In_Place_Pre_Rotate_X, COMDAT
; _this$ = ecx

; 460  : 	{

	push	ebp
	mov	ebp, esp
	sub	esp, 80					; 00000050H
	push	ebx
	push	esi
	push	edi
	mov	DWORD PTR _this$[ebp], ecx

; 461  : 		float tmp1,tmp2;
; 462  : 		tmp1 = Row[1][0]; tmp2 = Row[2][0];

	push	0
	mov	ecx, 16					; 00000010H
	shl	ecx, 0
	add	ecx, DWORD PTR _this$[ebp]
	call	??AVector4@@QAEAAMH@Z			; Vector4::operator[]
	movss	xmm0, DWORD PTR [eax]
	movss	DWORD PTR _tmp1$[ebp], xmm0
	push	0
	mov	ecx, 16					; 00000010H
	shl	ecx, 1
	add	ecx, DWORD PTR _this$[ebp]
	call	??AVector4@@QAEAAMH@Z			; Vector4::operator[]
	movss	xmm0, DWORD PTR [eax]
	movss	DWORD PTR _tmp2$[ebp], xmm0

; 463  : 		Row[1][0] = (float)(c*tmp1 - s*tmp2);

	movss	xmm0, DWORD PTR _c$[ebp]
	mulss	xmm0, DWORD PTR _tmp1$[ebp]
	movss	xmm1, DWORD PTR _s$[ebp]
	mulss	xmm1, DWORD PTR _tmp2$[ebp]
	subss	xmm0, xmm1
	push	0
	mov	ecx, 16					; 00000010H
	shl	ecx, 0
	add	ecx, DWORD PTR _this$[ebp]
	movss	DWORD PTR tv235[ebp], xmm0
	call	??AVector4@@QAEAAMH@Z			; Vector4::operator[]
	movss	xmm0, DWORD PTR tv235[ebp]
	movss	DWORD PTR [eax], xmm0

; 464  : 		Row[2][0] = (float)(s*tmp1 + c*tmp2);

	movss	xmm0, DWORD PTR _s$[ebp]
	mulss	xmm0, DWORD PTR _tmp1$[ebp]
	movss	xmm1, DWORD PTR _c$[ebp]
	mulss	xmm1, DWORD PTR _tmp2$[ebp]
	addss	xmm0, xmm1
	push	0
	mov	ecx, 16					; 00000010H
	shl	ecx, 1
	add	ecx, DWORD PTR _this$[ebp]
	movss	DWORD PTR tv237[ebp], xmm0
	call	??AVector4@@QAEAAMH@Z			; Vector4::operator[]
	movss	xmm0, DWORD PTR tv237[ebp]
	movss	DWORD PTR [eax], xmm0

; 465  : 		tmp1 = Row[1][1]; tmp2 = Row[2][1];

	push	1
	mov	ecx, 16					; 00000010H
	shl	ecx, 0
	add	ecx, DWORD PTR _this$[ebp]
	call	??AVector4@@QAEAAMH@Z			; Vector4::operator[]
	movss	xmm0, DWORD PTR [eax]
	movss	DWORD PTR _tmp1$[ebp], xmm0
	push	1
	mov	ecx, 16					; 00000010H
	shl	ecx, 1
	add	ecx, DWORD PTR _this$[ebp]
	call	??AVector4@@QAEAAMH@Z			; Vector4::operator[]
	movss	xmm0, DWORD PTR [eax]
	movss	DWORD PTR _tmp2$[ebp], xmm0

; 466  : 		Row[1][1] = (float)(c*tmp1 - s*tmp2);

	movss	xmm0, DWORD PTR _c$[ebp]
	mulss	xmm0, DWORD PTR _tmp1$[ebp]
	movss	xmm1, DWORD PTR _s$[ebp]
	mulss	xmm1, DWORD PTR _tmp2$[ebp]
	subss	xmm0, xmm1
	push	1
	mov	ecx, 16					; 00000010H
	shl	ecx, 0
	add	ecx, DWORD PTR _this$[ebp]
	movss	DWORD PTR tv239[ebp], xmm0
	call	??AVector4@@QAEAAMH@Z			; Vector4::operator[]
	movss	xmm0, DWORD PTR tv239[ebp]
	movss	DWORD PTR [eax], xmm0

; 467  : 		Row[2][1] = (float)(s*tmp1 + c*tmp2);

	movss	xmm0, DWORD PTR _s$[ebp]
	mulss	xmm0, DWORD PTR _tmp1$[ebp]
	movss	xmm1, DWORD PTR _c$[ebp]
	mulss	xmm1, DWORD PTR _tmp2$[ebp]
	addss	xmm0, xmm1
	push	1
	mov	ecx, 16					; 00000010H
	shl	ecx, 1
	add	ecx, DWORD PTR _this$[ebp]
	movss	DWORD PTR tv241[ebp], xmm0
	call	??AVector4@@QAEAAMH@Z			; Vector4::operator[]
	movss	xmm0, DWORD PTR tv241[ebp]
	movss	DWORD PTR [eax], xmm0

; 468  : 		tmp1 = Row[1][2]; tmp2 = Row[2][2];

	push	2
	mov	ecx, 16					; 00000010H
	shl	ecx, 0
	add	ecx, DWORD PTR _this$[ebp]
	call	??AVector4@@QAEAAMH@Z			; Vector4::operator[]
	movss	xmm0, DWORD PTR [eax]
	movss	DWORD PTR _tmp1$[ebp], xmm0
	push	2
	mov	ecx, 16					; 00000010H
	shl	ecx, 1
	add	ecx, DWORD PTR _this$[ebp]
	call	??AVector4@@QAEAAMH@Z			; Vector4::operator[]
	movss	xmm0, DWORD PTR [eax]
	movss	DWORD PTR _tmp2$[ebp], xmm0

; 469  : 		Row[1][2] = (float)(c*tmp1 - s*tmp2);

	movss	xmm0, DWORD PTR _c$[ebp]
	mulss	xmm0, DWORD PTR _tmp1$[ebp]
	movss	xmm1, DWORD PTR _s$[ebp]
	mulss	xmm1, DWORD PTR _tmp2$[ebp]
	subss	xmm0, xmm1
	push	2
	mov	ecx, 16					; 00000010H
	shl	ecx, 0
	add	ecx, DWORD PTR _this$[ebp]
	movss	DWORD PTR tv243[ebp], xmm0
	call	??AVector4@@QAEAAMH@Z			; Vector4::operator[]
	movss	xmm0, DWORD PTR tv243[ebp]
	movss	DWORD PTR [eax], xmm0

; 470  : 		Row[2][2] = (float)(s*tmp1 + c*tmp2);

	movss	xmm0, DWORD PTR _s$[ebp]
	mulss	xmm0, DWORD PTR _tmp1$[ebp]
	movss	xmm1, DWORD PTR _c$[ebp]
	mulss	xmm1, DWORD PTR _tmp2$[ebp]
	addss	xmm0, xmm1
	push	2
	mov	ecx, 16					; 00000010H
	shl	ecx, 1
	add	ecx, DWORD PTR _this$[ebp]
	movss	DWORD PTR tv245[ebp], xmm0
	call	??AVector4@@QAEAAMH@Z			; Vector4::operator[]
	movss	xmm0, DWORD PTR tv245[ebp]
	movss	DWORD PTR [eax], xmm0

; 471  : 	}

	pop	edi
	pop	esi
	pop	ebx
	mov	esp, ebp
	pop	ebp
	ret	8
?In_Place_Pre_Rotate_X@Matrix3D@@QAEXMM@Z ENDP		; Matrix3D::In_Place_Pre_Rotate_X
_TEXT	ENDS
; Function compile flags: /Odtp /ZI
; File x:\github\renegade\dragonade_rxd\scripts\matrix3d.h
;	COMDAT ?In_Place_Pre_Rotate_Z@Matrix3D@@QAEXM@Z
_TEXT	SEGMENT
tv257 = -88						; size = 4
tv255 = -88						; size = 4
tv253 = -88						; size = 4
tv251 = -88						; size = 4
tv249 = -88						; size = 4
tv247 = -88						; size = 4
_s$ = -20						; size = 4
_c$ = -16						; size = 4
_tmp2$ = -12						; size = 4
_tmp1$ = -8						; size = 4
_this$ = -4						; size = 4
_theta$ = 8						; size = 4
?In_Place_Pre_Rotate_Z@Matrix3D@@QAEXM@Z PROC		; Matrix3D::In_Place_Pre_Rotate_Z, COMDAT
; _this$ = ecx

; 444  : 	{

	push	ebp
	mov	ebp, esp
	sub	esp, 88					; 00000058H
	push	ebx
	push	esi
	push	edi
	mov	DWORD PTR _this$[ebp], ecx

; 445  : 		float tmp1,tmp2;
; 446  : 		float c,s;
; 447  : 		c = cosf(theta);

	push	ecx
	movss	xmm0, DWORD PTR _theta$[ebp]
	movss	DWORD PTR [esp], xmm0
	call	_cosf
	add	esp, 4
	fstp	DWORD PTR _c$[ebp]

; 448  : 		s = sinf(theta);

	push	ecx
	movss	xmm0, DWORD PTR _theta$[ebp]
	movss	DWORD PTR [esp], xmm0
	call	_sinf
	add	esp, 4
	fstp	DWORD PTR _s$[ebp]

; 449  : 		tmp1 = Row[0][0]; tmp2 = Row[1][0];

	push	0
	mov	ecx, 16					; 00000010H
	imul	ecx, 0
	add	ecx, DWORD PTR _this$[ebp]
	call	??AVector4@@QAEAAMH@Z			; Vector4::operator[]
	movss	xmm0, DWORD PTR [eax]
	movss	DWORD PTR _tmp1$[ebp], xmm0
	push	0
	mov	ecx, 16					; 00000010H
	shl	ecx, 0
	add	ecx, DWORD PTR _this$[ebp]
	call	??AVector4@@QAEAAMH@Z			; Vector4::operator[]
	movss	xmm0, DWORD PTR [eax]
	movss	DWORD PTR _tmp2$[ebp], xmm0

; 450  : 		Row[0][0] = (float)(c*tmp1 - s*tmp2);

	movss	xmm0, DWORD PTR _c$[ebp]
	mulss	xmm0, DWORD PTR _tmp1$[ebp]
	movss	xmm1, DWORD PTR _s$[ebp]
	mulss	xmm1, DWORD PTR _tmp2$[ebp]
	subss	xmm0, xmm1
	push	0
	mov	ecx, 16					; 00000010H
	imul	ecx, 0
	add	ecx, DWORD PTR _this$[ebp]
	movss	DWORD PTR tv247[ebp], xmm0
	call	??AVector4@@QAEAAMH@Z			; Vector4::operator[]
	movss	xmm0, DWORD PTR tv247[ebp]
	movss	DWORD PTR [eax], xmm0

; 451  : 		Row[1][0] = (float)(s*tmp1 + c*tmp2);

	movss	xmm0, DWORD PTR _s$[ebp]
	mulss	xmm0, DWORD PTR _tmp1$[ebp]
	movss	xmm1, DWORD PTR _c$[ebp]
	mulss	xmm1, DWORD PTR _tmp2$[ebp]
	addss	xmm0, xmm1
	push	0
	mov	ecx, 16					; 00000010H
	shl	ecx, 0
	add	ecx, DWORD PTR _this$[ebp]
	movss	DWORD PTR tv249[ebp], xmm0
	call	??AVector4@@QAEAAMH@Z			; Vector4::operator[]
	movss	xmm0, DWORD PTR tv249[ebp]
	movss	DWORD PTR [eax], xmm0

; 452  : 		tmp1 = Row[0][1]; tmp2 = Row[1][1];

	push	1
	mov	ecx, 16					; 00000010H
	imul	ecx, 0
	add	ecx, DWORD PTR _this$[ebp]
	call	??AVector4@@QAEAAMH@Z			; Vector4::operator[]
	movss	xmm0, DWORD PTR [eax]
	movss	DWORD PTR _tmp1$[ebp], xmm0
	push	1
	mov	ecx, 16					; 00000010H
	shl	ecx, 0
	add	ecx, DWORD PTR _this$[ebp]
	call	??AVector4@@QAEAAMH@Z			; Vector4::operator[]
	movss	xmm0, DWORD PTR [eax]
	movss	DWORD PTR _tmp2$[ebp], xmm0

; 453  : 		Row[0][1] = (float)(c*tmp1 - s*tmp2);

	movss	xmm0, DWORD PTR _c$[ebp]
	mulss	xmm0, DWORD PTR _tmp1$[ebp]
	movss	xmm1, DWORD PTR _s$[ebp]
	mulss	xmm1, DWORD PTR _tmp2$[ebp]
	subss	xmm0, xmm1
	push	1
	mov	ecx, 16					; 00000010H
	imul	ecx, 0
	add	ecx, DWORD PTR _this$[ebp]
	movss	DWORD PTR tv251[ebp], xmm0
	call	??AVector4@@QAEAAMH@Z			; Vector4::operator[]
	movss	xmm0, DWORD PTR tv251[ebp]
	movss	DWORD PTR [eax], xmm0

; 454  : 		Row[1][1] = (float)(s*tmp1 + c*tmp2);

	movss	xmm0, DWORD PTR _s$[ebp]
	mulss	xmm0, DWORD PTR _tmp1$[ebp]
	movss	xmm1, DWORD PTR _c$[ebp]
	mulss	xmm1, DWORD PTR _tmp2$[ebp]
	addss	xmm0, xmm1
	push	1
	mov	ecx, 16					; 00000010H
	shl	ecx, 0
	add	ecx, DWORD PTR _this$[ebp]
	movss	DWORD PTR tv253[ebp], xmm0
	call	??AVector4@@QAEAAMH@Z			; Vector4::operator[]
	movss	xmm0, DWORD PTR tv253[ebp]
	movss	DWORD PTR [eax], xmm0

; 455  : 		tmp1 = Row[0][2]; tmp2 = Row[1][2];

	push	2
	mov	ecx, 16					; 00000010H
	imul	ecx, 0
	add	ecx, DWORD PTR _this$[ebp]
	call	??AVector4@@QAEAAMH@Z			; Vector4::operator[]
	movss	xmm0, DWORD PTR [eax]
	movss	DWORD PTR _tmp1$[ebp], xmm0
	push	2
	mov	ecx, 16					; 00000010H
	shl	ecx, 0
	add	ecx, DWORD PTR _this$[ebp]
	call	??AVector4@@QAEAAMH@Z			; Vector4::operator[]
	movss	xmm0, DWORD PTR [eax]
	movss	DWORD PTR _tmp2$[ebp], xmm0

; 456  : 		Row[0][2] = (float)(c*tmp1 - s*tmp2);

	movss	xmm0, DWORD PTR _c$[ebp]
	mulss	xmm0, DWORD PTR _tmp1$[ebp]
	movss	xmm1, DWORD PTR _s$[ebp]
	mulss	xmm1, DWORD PTR _tmp2$[ebp]
	subss	xmm0, xmm1
	push	2
	mov	ecx, 16					; 00000010H
	imul	ecx, 0
	add	ecx, DWORD PTR _this$[ebp]
	movss	DWORD PTR tv255[ebp], xmm0
	call	??AVector4@@QAEAAMH@Z			; Vector4::operator[]
	movss	xmm0, DWORD PTR tv255[ebp]
	movss	DWORD PTR [eax], xmm0

; 457  : 		Row[1][2] = (float)(s*tmp1 + c*tmp2);

	movss	xmm0, DWORD PTR _s$[ebp]
	mulss	xmm0, DWORD PTR _tmp1$[ebp]
	movss	xmm1, DWORD PTR _c$[ebp]
	mulss	xmm1, DWORD PTR _tmp2$[ebp]
	addss	xmm0, xmm1
	push	2
	mov	ecx, 16					; 00000010H
	shl	ecx, 0
	add	ecx, DWORD PTR _this$[ebp]
	movss	DWORD PTR tv257[ebp], xmm0
	call	??AVector4@@QAEAAMH@Z			; Vector4::operator[]
	movss	xmm0, DWORD PTR tv257[ebp]
	movss	DWORD PTR [eax], xmm0

; 458  : 	}

	pop	edi
	pop	esi
	pop	ebx
	mov	esp, ebp
	pop	ebp
	ret	4
?In_Place_Pre_Rotate_Z@Matrix3D@@QAEXM@Z ENDP		; Matrix3D::In_Place_Pre_Rotate_Z
_TEXT	ENDS
; Function compile flags: /Odtp /ZI
; File x:\github\renegade\dragonade_rxd\scripts\matrix3d.h
;	COMDAT ?In_Place_Pre_Rotate_Y@Matrix3D@@QAEXM@Z
_TEXT	SEGMENT
tv260 = -88						; size = 4
tv258 = -88						; size = 4
tv256 = -88						; size = 4
tv254 = -88						; size = 4
tv252 = -88						; size = 4
tv250 = -88						; size = 4
_s$ = -20						; size = 4
_c$ = -16						; size = 4
_tmp2$ = -12						; size = 4
_tmp1$ = -8						; size = 4
_this$ = -4						; size = 4
_theta$ = 8						; size = 4
?In_Place_Pre_Rotate_Y@Matrix3D@@QAEXM@Z PROC		; Matrix3D::In_Place_Pre_Rotate_Y, COMDAT
; _this$ = ecx

; 428  : 	{

	push	ebp
	mov	ebp, esp
	sub	esp, 88					; 00000058H
	push	ebx
	push	esi
	push	edi
	mov	DWORD PTR _this$[ebp], ecx

; 429  : 		float tmp1,tmp2;
; 430  : 		float c,s;
; 431  : 		c = cosf(theta);

	push	ecx
	movss	xmm0, DWORD PTR _theta$[ebp]
	movss	DWORD PTR [esp], xmm0
	call	_cosf
	add	esp, 4
	fstp	DWORD PTR _c$[ebp]

; 432  : 		s = sinf(theta);

	push	ecx
	movss	xmm0, DWORD PTR _theta$[ebp]
	movss	DWORD PTR [esp], xmm0
	call	_sinf
	add	esp, 4
	fstp	DWORD PTR _s$[ebp]

; 433  : 		tmp1 = Row[0][0]; tmp2 = Row[2][0];

	push	0
	mov	ecx, 16					; 00000010H
	imul	ecx, 0
	add	ecx, DWORD PTR _this$[ebp]
	call	??AVector4@@QAEAAMH@Z			; Vector4::operator[]
	movss	xmm0, DWORD PTR [eax]
	movss	DWORD PTR _tmp1$[ebp], xmm0
	push	0
	mov	ecx, 16					; 00000010H
	shl	ecx, 1
	add	ecx, DWORD PTR _this$[ebp]
	call	??AVector4@@QAEAAMH@Z			; Vector4::operator[]
	movss	xmm0, DWORD PTR [eax]
	movss	DWORD PTR _tmp2$[ebp], xmm0

; 434  : 		Row[0][0] = (float)( c*tmp1 + s*tmp2);

	movss	xmm0, DWORD PTR _c$[ebp]
	mulss	xmm0, DWORD PTR _tmp1$[ebp]
	movss	xmm1, DWORD PTR _s$[ebp]
	mulss	xmm1, DWORD PTR _tmp2$[ebp]
	addss	xmm0, xmm1
	push	0
	mov	ecx, 16					; 00000010H
	imul	ecx, 0
	add	ecx, DWORD PTR _this$[ebp]
	movss	DWORD PTR tv250[ebp], xmm0
	call	??AVector4@@QAEAAMH@Z			; Vector4::operator[]
	movss	xmm0, DWORD PTR tv250[ebp]
	movss	DWORD PTR [eax], xmm0

; 435  : 		Row[2][0] = (float)(-s*tmp1 + c*tmp2);

	movss	xmm0, DWORD PTR _s$[ebp]
	xorps	xmm0, DWORD PTR __xmm@80000000800000008000000080000000
	mulss	xmm0, DWORD PTR _tmp1$[ebp]
	movss	xmm1, DWORD PTR _c$[ebp]
	mulss	xmm1, DWORD PTR _tmp2$[ebp]
	addss	xmm0, xmm1
	push	0
	mov	ecx, 16					; 00000010H
	shl	ecx, 1
	add	ecx, DWORD PTR _this$[ebp]
	movss	DWORD PTR tv252[ebp], xmm0
	call	??AVector4@@QAEAAMH@Z			; Vector4::operator[]
	movss	xmm0, DWORD PTR tv252[ebp]
	movss	DWORD PTR [eax], xmm0

; 436  : 		tmp1 = Row[0][1]; tmp2 = Row[2][1];

	push	1
	mov	ecx, 16					; 00000010H
	imul	ecx, 0
	add	ecx, DWORD PTR _this$[ebp]
	call	??AVector4@@QAEAAMH@Z			; Vector4::operator[]
	movss	xmm0, DWORD PTR [eax]
	movss	DWORD PTR _tmp1$[ebp], xmm0
	push	1
	mov	ecx, 16					; 00000010H
	shl	ecx, 1
	add	ecx, DWORD PTR _this$[ebp]
	call	??AVector4@@QAEAAMH@Z			; Vector4::operator[]
	movss	xmm0, DWORD PTR [eax]
	movss	DWORD PTR _tmp2$[ebp], xmm0

; 437  : 		Row[0][1] = (float)( c*tmp1 + s*tmp2);

	movss	xmm0, DWORD PTR _c$[ebp]
	mulss	xmm0, DWORD PTR _tmp1$[ebp]
	movss	xmm1, DWORD PTR _s$[ebp]
	mulss	xmm1, DWORD PTR _tmp2$[ebp]
	addss	xmm0, xmm1
	push	1
	mov	ecx, 16					; 00000010H
	imul	ecx, 0
	add	ecx, DWORD PTR _this$[ebp]
	movss	DWORD PTR tv254[ebp], xmm0
	call	??AVector4@@QAEAAMH@Z			; Vector4::operator[]
	movss	xmm0, DWORD PTR tv254[ebp]
	movss	DWORD PTR [eax], xmm0

; 438  : 		Row[2][1] = (float)(-s*tmp1 + c*tmp2);

	movss	xmm0, DWORD PTR _s$[ebp]
	xorps	xmm0, DWORD PTR __xmm@80000000800000008000000080000000
	mulss	xmm0, DWORD PTR _tmp1$[ebp]
	movss	xmm1, DWORD PTR _c$[ebp]
	mulss	xmm1, DWORD PTR _tmp2$[ebp]
	addss	xmm0, xmm1
	push	1
	mov	ecx, 16					; 00000010H
	shl	ecx, 1
	add	ecx, DWORD PTR _this$[ebp]
	movss	DWORD PTR tv256[ebp], xmm0
	call	??AVector4@@QAEAAMH@Z			; Vector4::operator[]
	movss	xmm0, DWORD PTR tv256[ebp]
	movss	DWORD PTR [eax], xmm0

; 439  : 		tmp1 = Row[0][2]; tmp2 = Row[2][2];

	push	2
	mov	ecx, 16					; 00000010H
	imul	ecx, 0
	add	ecx, DWORD PTR _this$[ebp]
	call	??AVector4@@QAEAAMH@Z			; Vector4::operator[]
	movss	xmm0, DWORD PTR [eax]
	movss	DWORD PTR _tmp1$[ebp], xmm0
	push	2
	mov	ecx, 16					; 00000010H
	shl	ecx, 1
	add	ecx, DWORD PTR _this$[ebp]
	call	??AVector4@@QAEAAMH@Z			; Vector4::operator[]
	movss	xmm0, DWORD PTR [eax]
	movss	DWORD PTR _tmp2$[ebp], xmm0

; 440  : 		Row[0][2] = (float)( c*tmp1 + s*tmp2);

	movss	xmm0, DWORD PTR _c$[ebp]
	mulss	xmm0, DWORD PTR _tmp1$[ebp]
	movss	xmm1, DWORD PTR _s$[ebp]
	mulss	xmm1, DWORD PTR _tmp2$[ebp]
	addss	xmm0, xmm1
	push	2
	mov	ecx, 16					; 00000010H
	imul	ecx, 0
	add	ecx, DWORD PTR _this$[ebp]
	movss	DWORD PTR tv258[ebp], xmm0
	call	??AVector4@@QAEAAMH@Z			; Vector4::operator[]
	movss	xmm0, DWORD PTR tv258[ebp]
	movss	DWORD PTR [eax], xmm0

; 441  : 		Row[2][2] = (float)(-s*tmp1 + c*tmp2);

	movss	xmm0, DWORD PTR _s$[ebp]
	xorps	xmm0, DWORD PTR __xmm@80000000800000008000000080000000
	mulss	xmm0, DWORD PTR _tmp1$[ebp]
	movss	xmm1, DWORD PTR _c$[ebp]
	mulss	xmm1, DWORD PTR _tmp2$[ebp]
	addss	xmm0, xmm1
	push	2
	mov	ecx, 16					; 00000010H
	shl	ecx, 1
	add	ecx, DWORD PTR _this$[ebp]
	movss	DWORD PTR tv260[ebp], xmm0
	call	??AVector4@@QAEAAMH@Z			; Vector4::operator[]
	movss	xmm0, DWORD PTR tv260[ebp]
	movss	DWORD PTR [eax], xmm0

; 442  : 	}

	pop	edi
	pop	esi
	pop	ebx
	mov	esp, ebp
	pop	ebp
	ret	4
?In_Place_Pre_Rotate_Y@Matrix3D@@QAEXM@Z ENDP		; Matrix3D::In_Place_Pre_Rotate_Y
_TEXT	ENDS
; Function compile flags: /Odtp /ZI
; File x:\github\renegade\dragonade_rxd\scripts\matrix3d.h
;	COMDAT ?In_Place_Pre_Rotate_X@Matrix3D@@QAEXM@Z
_TEXT	SEGMENT
tv257 = -88						; size = 4
tv255 = -88						; size = 4
tv253 = -88						; size = 4
tv251 = -88						; size = 4
tv249 = -88						; size = 4
tv247 = -88						; size = 4
_s$ = -20						; size = 4
_c$ = -16						; size = 4
_tmp2$ = -12						; size = 4
_tmp1$ = -8						; size = 4
_this$ = -4						; size = 4
_theta$ = 8						; size = 4
?In_Place_Pre_Rotate_X@Matrix3D@@QAEXM@Z PROC		; Matrix3D::In_Place_Pre_Rotate_X, COMDAT
; _this$ = ecx

; 412  : 	{

	push	ebp
	mov	ebp, esp
	sub	esp, 88					; 00000058H
	push	ebx
	push	esi
	push	edi
	mov	DWORD PTR _this$[ebp], ecx

; 413  : 		float tmp1,tmp2;
; 414  : 		float c,s;
; 415  : 		c = cosf(theta);

	push	ecx
	movss	xmm0, DWORD PTR _theta$[ebp]
	movss	DWORD PTR [esp], xmm0
	call	_cosf
	add	esp, 4
	fstp	DWORD PTR _c$[ebp]

; 416  : 		s = sinf(theta);

	push	ecx
	movss	xmm0, DWORD PTR _theta$[ebp]
	movss	DWORD PTR [esp], xmm0
	call	_sinf
	add	esp, 4
	fstp	DWORD PTR _s$[ebp]

; 417  : 		tmp1 = Row[1][0]; tmp2 = Row[2][0];

	push	0
	mov	ecx, 16					; 00000010H
	shl	ecx, 0
	add	ecx, DWORD PTR _this$[ebp]
	call	??AVector4@@QAEAAMH@Z			; Vector4::operator[]
	movss	xmm0, DWORD PTR [eax]
	movss	DWORD PTR _tmp1$[ebp], xmm0
	push	0
	mov	ecx, 16					; 00000010H
	shl	ecx, 1
	add	ecx, DWORD PTR _this$[ebp]
	call	??AVector4@@QAEAAMH@Z			; Vector4::operator[]
	movss	xmm0, DWORD PTR [eax]
	movss	DWORD PTR _tmp2$[ebp], xmm0

; 418  : 		Row[1][0] = (float)(c*tmp1 - s*tmp2);

	movss	xmm0, DWORD PTR _c$[ebp]
	mulss	xmm0, DWORD PTR _tmp1$[ebp]
	movss	xmm1, DWORD PTR _s$[ebp]
	mulss	xmm1, DWORD PTR _tmp2$[ebp]
	subss	xmm0, xmm1
	push	0
	mov	ecx, 16					; 00000010H
	shl	ecx, 0
	add	ecx, DWORD PTR _this$[ebp]
	movss	DWORD PTR tv247[ebp], xmm0
	call	??AVector4@@QAEAAMH@Z			; Vector4::operator[]
	movss	xmm0, DWORD PTR tv247[ebp]
	movss	DWORD PTR [eax], xmm0

; 419  : 		Row[2][0] = (float)(s*tmp1 + c*tmp2);

	movss	xmm0, DWORD PTR _s$[ebp]
	mulss	xmm0, DWORD PTR _tmp1$[ebp]
	movss	xmm1, DWORD PTR _c$[ebp]
	mulss	xmm1, DWORD PTR _tmp2$[ebp]
	addss	xmm0, xmm1
	push	0
	mov	ecx, 16					; 00000010H
	shl	ecx, 1
	add	ecx, DWORD PTR _this$[ebp]
	movss	DWORD PTR tv249[ebp], xmm0
	call	??AVector4@@QAEAAMH@Z			; Vector4::operator[]
	movss	xmm0, DWORD PTR tv249[ebp]
	movss	DWORD PTR [eax], xmm0

; 420  : 		tmp1 = Row[1][1]; tmp2 = Row[2][1];

	push	1
	mov	ecx, 16					; 00000010H
	shl	ecx, 0
	add	ecx, DWORD PTR _this$[ebp]
	call	??AVector4@@QAEAAMH@Z			; Vector4::operator[]
	movss	xmm0, DWORD PTR [eax]
	movss	DWORD PTR _tmp1$[ebp], xmm0
	push	1
	mov	ecx, 16					; 00000010H
	shl	ecx, 1
	add	ecx, DWORD PTR _this$[ebp]
	call	??AVector4@@QAEAAMH@Z			; Vector4::operator[]
	movss	xmm0, DWORD PTR [eax]
	movss	DWORD PTR _tmp2$[ebp], xmm0

; 421  : 		Row[1][1] = (float)(c*tmp1 - s*tmp2);

	movss	xmm0, DWORD PTR _c$[ebp]
	mulss	xmm0, DWORD PTR _tmp1$[ebp]
	movss	xmm1, DWORD PTR _s$[ebp]
	mulss	xmm1, DWORD PTR _tmp2$[ebp]
	subss	xmm0, xmm1
	push	1
	mov	ecx, 16					; 00000010H
	shl	ecx, 0
	add	ecx, DWORD PTR _this$[ebp]
	movss	DWORD PTR tv251[ebp], xmm0
	call	??AVector4@@QAEAAMH@Z			; Vector4::operator[]
	movss	xmm0, DWORD PTR tv251[ebp]
	movss	DWORD PTR [eax], xmm0

; 422  : 		Row[2][1] = (float)(s*tmp1 + c*tmp2);

	movss	xmm0, DWORD PTR _s$[ebp]
	mulss	xmm0, DWORD PTR _tmp1$[ebp]
	movss	xmm1, DWORD PTR _c$[ebp]
	mulss	xmm1, DWORD PTR _tmp2$[ebp]
	addss	xmm0, xmm1
	push	1
	mov	ecx, 16					; 00000010H
	shl	ecx, 1
	add	ecx, DWORD PTR _this$[ebp]
	movss	DWORD PTR tv253[ebp], xmm0
	call	??AVector4@@QAEAAMH@Z			; Vector4::operator[]
	movss	xmm0, DWORD PTR tv253[ebp]
	movss	DWORD PTR [eax], xmm0

; 423  : 		tmp1 = Row[1][2]; tmp2 = Row[2][2];

	push	2
	mov	ecx, 16					; 00000010H
	shl	ecx, 0
	add	ecx, DWORD PTR _this$[ebp]
	call	??AVector4@@QAEAAMH@Z			; Vector4::operator[]
	movss	xmm0, DWORD PTR [eax]
	movss	DWORD PTR _tmp1$[ebp], xmm0
	push	2
	mov	ecx, 16					; 00000010H
	shl	ecx, 1
	add	ecx, DWORD PTR _this$[ebp]
	call	??AVector4@@QAEAAMH@Z			; Vector4::operator[]
	movss	xmm0, DWORD PTR [eax]
	movss	DWORD PTR _tmp2$[ebp], xmm0

; 424  : 		Row[1][2] = (float)(c*tmp1 - s*tmp2);

	movss	xmm0, DWORD PTR _c$[ebp]
	mulss	xmm0, DWORD PTR _tmp1$[ebp]
	movss	xmm1, DWORD PTR _s$[ebp]
	mulss	xmm1, DWORD PTR _tmp2$[ebp]
	subss	xmm0, xmm1
	push	2
	mov	ecx, 16					; 00000010H
	shl	ecx, 0
	add	ecx, DWORD PTR _this$[ebp]
	movss	DWORD PTR tv255[ebp], xmm0
	call	??AVector4@@QAEAAMH@Z			; Vector4::operator[]
	movss	xmm0, DWORD PTR tv255[ebp]
	movss	DWORD PTR [eax], xmm0

; 425  : 		Row[2][2] = (float)(s*tmp1 + c*tmp2);

	movss	xmm0, DWORD PTR _s$[ebp]
	mulss	xmm0, DWORD PTR _tmp1$[ebp]
	movss	xmm1, DWORD PTR _c$[ebp]
	mulss	xmm1, DWORD PTR _tmp2$[ebp]
	addss	xmm0, xmm1
	push	2
	mov	ecx, 16					; 00000010H
	shl	ecx, 1
	add	ecx, DWORD PTR _this$[ebp]
	movss	DWORD PTR tv257[ebp], xmm0
	call	??AVector4@@QAEAAMH@Z			; Vector4::operator[]
	movss	xmm0, DWORD PTR tv257[ebp]
	movss	DWORD PTR [eax], xmm0

; 426  : 	}

	pop	edi
	pop	esi
	pop	ebx
	mov	esp, ebp
	pop	ebp
	ret	4
?In_Place_Pre_Rotate_X@Matrix3D@@QAEXM@Z ENDP		; Matrix3D::In_Place_Pre_Rotate_X
_TEXT	ENDS
; Function compile flags: /Odtp /ZI
; File x:\github\renegade\dragonade_rxd\scripts\matrix3d.h
;	COMDAT ?Pre_Rotate_Z@Matrix3D@@QAEXMM@Z
_TEXT	SEGMENT
tv295 = -80						; size = 4
tv293 = -80						; size = 4
tv291 = -80						; size = 4
tv289 = -80						; size = 4
tv287 = -80						; size = 4
tv285 = -80						; size = 4
tv283 = -80						; size = 4
tv281 = -80						; size = 4
_tmp2$ = -12						; size = 4
_tmp1$ = -8						; size = 4
_this$ = -4						; size = 4
_s$ = 8							; size = 4
_c$ = 12						; size = 4
?Pre_Rotate_Z@Matrix3D@@QAEXMM@Z PROC			; Matrix3D::Pre_Rotate_Z, COMDAT
; _this$ = ecx

; 396  : 	{

	push	ebp
	mov	ebp, esp
	sub	esp, 80					; 00000050H
	push	ebx
	push	esi
	push	edi
	mov	DWORD PTR _this$[ebp], ecx

; 397  : 		float tmp1,tmp2;
; 398  : 		tmp1 = Row[0][0]; tmp2 = Row[1][0];

	push	0
	mov	ecx, 16					; 00000010H
	imul	ecx, 0
	add	ecx, DWORD PTR _this$[ebp]
	call	??AVector4@@QAEAAMH@Z			; Vector4::operator[]
	movss	xmm0, DWORD PTR [eax]
	movss	DWORD PTR _tmp1$[ebp], xmm0
	push	0
	mov	ecx, 16					; 00000010H
	shl	ecx, 0
	add	ecx, DWORD PTR _this$[ebp]
	call	??AVector4@@QAEAAMH@Z			; Vector4::operator[]
	movss	xmm0, DWORD PTR [eax]
	movss	DWORD PTR _tmp2$[ebp], xmm0

; 399  : 		Row[0][0] = (float)(c*tmp1 - s*tmp2);

	movss	xmm0, DWORD PTR _c$[ebp]
	mulss	xmm0, DWORD PTR _tmp1$[ebp]
	movss	xmm1, DWORD PTR _s$[ebp]
	mulss	xmm1, DWORD PTR _tmp2$[ebp]
	subss	xmm0, xmm1
	push	0
	mov	ecx, 16					; 00000010H
	imul	ecx, 0
	add	ecx, DWORD PTR _this$[ebp]
	movss	DWORD PTR tv281[ebp], xmm0
	call	??AVector4@@QAEAAMH@Z			; Vector4::operator[]
	movss	xmm0, DWORD PTR tv281[ebp]
	movss	DWORD PTR [eax], xmm0

; 400  : 		Row[1][0] = (float)(s*tmp1 + c*tmp2);

	movss	xmm0, DWORD PTR _s$[ebp]
	mulss	xmm0, DWORD PTR _tmp1$[ebp]
	movss	xmm1, DWORD PTR _c$[ebp]
	mulss	xmm1, DWORD PTR _tmp2$[ebp]
	addss	xmm0, xmm1
	push	0
	mov	ecx, 16					; 00000010H
	shl	ecx, 0
	add	ecx, DWORD PTR _this$[ebp]
	movss	DWORD PTR tv283[ebp], xmm0
	call	??AVector4@@QAEAAMH@Z			; Vector4::operator[]
	movss	xmm0, DWORD PTR tv283[ebp]
	movss	DWORD PTR [eax], xmm0

; 401  : 		tmp1 = Row[0][1]; tmp2 = Row[1][1];

	push	1
	mov	ecx, 16					; 00000010H
	imul	ecx, 0
	add	ecx, DWORD PTR _this$[ebp]
	call	??AVector4@@QAEAAMH@Z			; Vector4::operator[]
	movss	xmm0, DWORD PTR [eax]
	movss	DWORD PTR _tmp1$[ebp], xmm0
	push	1
	mov	ecx, 16					; 00000010H
	shl	ecx, 0
	add	ecx, DWORD PTR _this$[ebp]
	call	??AVector4@@QAEAAMH@Z			; Vector4::operator[]
	movss	xmm0, DWORD PTR [eax]
	movss	DWORD PTR _tmp2$[ebp], xmm0

; 402  : 		Row[0][1] = (float)(c*tmp1 - s*tmp2);

	movss	xmm0, DWORD PTR _c$[ebp]
	mulss	xmm0, DWORD PTR _tmp1$[ebp]
	movss	xmm1, DWORD PTR _s$[ebp]
	mulss	xmm1, DWORD PTR _tmp2$[ebp]
	subss	xmm0, xmm1
	push	1
	mov	ecx, 16					; 00000010H
	imul	ecx, 0
	add	ecx, DWORD PTR _this$[ebp]
	movss	DWORD PTR tv285[ebp], xmm0
	call	??AVector4@@QAEAAMH@Z			; Vector4::operator[]
	movss	xmm0, DWORD PTR tv285[ebp]
	movss	DWORD PTR [eax], xmm0

; 403  : 		Row[1][1] = (float)(s*tmp1 + c*tmp2);

	movss	xmm0, DWORD PTR _s$[ebp]
	mulss	xmm0, DWORD PTR _tmp1$[ebp]
	movss	xmm1, DWORD PTR _c$[ebp]
	mulss	xmm1, DWORD PTR _tmp2$[ebp]
	addss	xmm0, xmm1
	push	1
	mov	ecx, 16					; 00000010H
	shl	ecx, 0
	add	ecx, DWORD PTR _this$[ebp]
	movss	DWORD PTR tv287[ebp], xmm0
	call	??AVector4@@QAEAAMH@Z			; Vector4::operator[]
	movss	xmm0, DWORD PTR tv287[ebp]
	movss	DWORD PTR [eax], xmm0

; 404  : 		tmp1 = Row[0][2]; tmp2 = Row[1][2];

	push	2
	mov	ecx, 16					; 00000010H
	imul	ecx, 0
	add	ecx, DWORD PTR _this$[ebp]
	call	??AVector4@@QAEAAMH@Z			; Vector4::operator[]
	movss	xmm0, DWORD PTR [eax]
	movss	DWORD PTR _tmp1$[ebp], xmm0
	push	2
	mov	ecx, 16					; 00000010H
	shl	ecx, 0
	add	ecx, DWORD PTR _this$[ebp]
	call	??AVector4@@QAEAAMH@Z			; Vector4::operator[]
	movss	xmm0, DWORD PTR [eax]
	movss	DWORD PTR _tmp2$[ebp], xmm0

; 405  : 		Row[0][2] = (float)(c*tmp1 - s*tmp2);

	movss	xmm0, DWORD PTR _c$[ebp]
	mulss	xmm0, DWORD PTR _tmp1$[ebp]
	movss	xmm1, DWORD PTR _s$[ebp]
	mulss	xmm1, DWORD PTR _tmp2$[ebp]
	subss	xmm0, xmm1
	push	2
	mov	ecx, 16					; 00000010H
	imul	ecx, 0
	add	ecx, DWORD PTR _this$[ebp]
	movss	DWORD PTR tv289[ebp], xmm0
	call	??AVector4@@QAEAAMH@Z			; Vector4::operator[]
	movss	xmm0, DWORD PTR tv289[ebp]
	movss	DWORD PTR [eax], xmm0

; 406  : 		Row[1][2] = (float)(s*tmp1 + c*tmp2);

	movss	xmm0, DWORD PTR _s$[ebp]
	mulss	xmm0, DWORD PTR _tmp1$[ebp]
	movss	xmm1, DWORD PTR _c$[ebp]
	mulss	xmm1, DWORD PTR _tmp2$[ebp]
	addss	xmm0, xmm1
	push	2
	mov	ecx, 16					; 00000010H
	shl	ecx, 0
	add	ecx, DWORD PTR _this$[ebp]
	movss	DWORD PTR tv291[ebp], xmm0
	call	??AVector4@@QAEAAMH@Z			; Vector4::operator[]
	movss	xmm0, DWORD PTR tv291[ebp]
	movss	DWORD PTR [eax], xmm0

; 407  : 		tmp1 = Row[0][3]; tmp2 = Row[1][3];

	push	3
	mov	ecx, 16					; 00000010H
	imul	ecx, 0
	add	ecx, DWORD PTR _this$[ebp]
	call	??AVector4@@QAEAAMH@Z			; Vector4::operator[]
	movss	xmm0, DWORD PTR [eax]
	movss	DWORD PTR _tmp1$[ebp], xmm0
	push	3
	mov	ecx, 16					; 00000010H
	shl	ecx, 0
	add	ecx, DWORD PTR _this$[ebp]
	call	??AVector4@@QAEAAMH@Z			; Vector4::operator[]
	movss	xmm0, DWORD PTR [eax]
	movss	DWORD PTR _tmp2$[ebp], xmm0

; 408  : 		Row[0][3] = (float)(c*tmp1 - s*tmp2);

	movss	xmm0, DWORD PTR _c$[ebp]
	mulss	xmm0, DWORD PTR _tmp1$[ebp]
	movss	xmm1, DWORD PTR _s$[ebp]
	mulss	xmm1, DWORD PTR _tmp2$[ebp]
	subss	xmm0, xmm1
	push	3
	mov	ecx, 16					; 00000010H
	imul	ecx, 0
	add	ecx, DWORD PTR _this$[ebp]
	movss	DWORD PTR tv293[ebp], xmm0
	call	??AVector4@@QAEAAMH@Z			; Vector4::operator[]
	movss	xmm0, DWORD PTR tv293[ebp]
	movss	DWORD PTR [eax], xmm0

; 409  : 		Row[1][3] = (float)(s*tmp1 + c*tmp2);

	movss	xmm0, DWORD PTR _s$[ebp]
	mulss	xmm0, DWORD PTR _tmp1$[ebp]
	movss	xmm1, DWORD PTR _c$[ebp]
	mulss	xmm1, DWORD PTR _tmp2$[ebp]
	addss	xmm0, xmm1
	push	3
	mov	ecx, 16					; 00000010H
	shl	ecx, 0
	add	ecx, DWORD PTR _this$[ebp]
	movss	DWORD PTR tv295[ebp], xmm0
	call	??AVector4@@QAEAAMH@Z			; Vector4::operator[]
	movss	xmm0, DWORD PTR tv295[ebp]
	movss	DWORD PTR [eax], xmm0

; 410  : 	}

	pop	edi
	pop	esi
	pop	ebx
	mov	esp, ebp
	pop	ebp
	ret	8
?Pre_Rotate_Z@Matrix3D@@QAEXMM@Z ENDP			; Matrix3D::Pre_Rotate_Z
_TEXT	ENDS
; Function compile flags: /Odtp /ZI
; File x:\github\renegade\dragonade_rxd\scripts\matrix3d.h
;	COMDAT ?Pre_Rotate_Y@Matrix3D@@QAEXMM@Z
_TEXT	SEGMENT
tv299 = -80						; size = 4
tv297 = -80						; size = 4
tv295 = -80						; size = 4
tv293 = -80						; size = 4
tv291 = -80						; size = 4
tv289 = -80						; size = 4
tv287 = -80						; size = 4
tv285 = -80						; size = 4
_tmp2$ = -12						; size = 4
_tmp1$ = -8						; size = 4
_this$ = -4						; size = 4
_s$ = 8							; size = 4
_c$ = 12						; size = 4
?Pre_Rotate_Y@Matrix3D@@QAEXMM@Z PROC			; Matrix3D::Pre_Rotate_Y, COMDAT
; _this$ = ecx

; 380  : 	{

	push	ebp
	mov	ebp, esp
	sub	esp, 80					; 00000050H
	push	ebx
	push	esi
	push	edi
	mov	DWORD PTR _this$[ebp], ecx

; 381  : 		float tmp1,tmp2;
; 382  : 		tmp1 = Row[0][0]; tmp2 = Row[2][0];

	push	0
	mov	ecx, 16					; 00000010H
	imul	ecx, 0
	add	ecx, DWORD PTR _this$[ebp]
	call	??AVector4@@QAEAAMH@Z			; Vector4::operator[]
	movss	xmm0, DWORD PTR [eax]
	movss	DWORD PTR _tmp1$[ebp], xmm0
	push	0
	mov	ecx, 16					; 00000010H
	shl	ecx, 1
	add	ecx, DWORD PTR _this$[ebp]
	call	??AVector4@@QAEAAMH@Z			; Vector4::operator[]
	movss	xmm0, DWORD PTR [eax]
	movss	DWORD PTR _tmp2$[ebp], xmm0

; 383  : 		Row[0][0] = (float)( c*tmp1 + s*tmp2);

	movss	xmm0, DWORD PTR _c$[ebp]
	mulss	xmm0, DWORD PTR _tmp1$[ebp]
	movss	xmm1, DWORD PTR _s$[ebp]
	mulss	xmm1, DWORD PTR _tmp2$[ebp]
	addss	xmm0, xmm1
	push	0
	mov	ecx, 16					; 00000010H
	imul	ecx, 0
	add	ecx, DWORD PTR _this$[ebp]
	movss	DWORD PTR tv285[ebp], xmm0
	call	??AVector4@@QAEAAMH@Z			; Vector4::operator[]
	movss	xmm0, DWORD PTR tv285[ebp]
	movss	DWORD PTR [eax], xmm0

; 384  : 		Row[2][0] = (float)(-s*tmp1 + c*tmp2);

	movss	xmm0, DWORD PTR _s$[ebp]
	xorps	xmm0, DWORD PTR __xmm@80000000800000008000000080000000
	mulss	xmm0, DWORD PTR _tmp1$[ebp]
	movss	xmm1, DWORD PTR _c$[ebp]
	mulss	xmm1, DWORD PTR _tmp2$[ebp]
	addss	xmm0, xmm1
	push	0
	mov	ecx, 16					; 00000010H
	shl	ecx, 1
	add	ecx, DWORD PTR _this$[ebp]
	movss	DWORD PTR tv287[ebp], xmm0
	call	??AVector4@@QAEAAMH@Z			; Vector4::operator[]
	movss	xmm0, DWORD PTR tv287[ebp]
	movss	DWORD PTR [eax], xmm0

; 385  : 		tmp1 = Row[0][1]; tmp2 = Row[2][1];

	push	1
	mov	ecx, 16					; 00000010H
	imul	ecx, 0
	add	ecx, DWORD PTR _this$[ebp]
	call	??AVector4@@QAEAAMH@Z			; Vector4::operator[]
	movss	xmm0, DWORD PTR [eax]
	movss	DWORD PTR _tmp1$[ebp], xmm0
	push	1
	mov	ecx, 16					; 00000010H
	shl	ecx, 1
	add	ecx, DWORD PTR _this$[ebp]
	call	??AVector4@@QAEAAMH@Z			; Vector4::operator[]
	movss	xmm0, DWORD PTR [eax]
	movss	DWORD PTR _tmp2$[ebp], xmm0

; 386  : 		Row[0][1] = (float)( c*tmp1 + s*tmp2);

	movss	xmm0, DWORD PTR _c$[ebp]
	mulss	xmm0, DWORD PTR _tmp1$[ebp]
	movss	xmm1, DWORD PTR _s$[ebp]
	mulss	xmm1, DWORD PTR _tmp2$[ebp]
	addss	xmm0, xmm1
	push	1
	mov	ecx, 16					; 00000010H
	imul	ecx, 0
	add	ecx, DWORD PTR _this$[ebp]
	movss	DWORD PTR tv289[ebp], xmm0
	call	??AVector4@@QAEAAMH@Z			; Vector4::operator[]
	movss	xmm0, DWORD PTR tv289[ebp]
	movss	DWORD PTR [eax], xmm0

; 387  : 		Row[2][1] = (float)(-s*tmp1 + c*tmp2);

	movss	xmm0, DWORD PTR _s$[ebp]
	xorps	xmm0, DWORD PTR __xmm@80000000800000008000000080000000
	mulss	xmm0, DWORD PTR _tmp1$[ebp]
	movss	xmm1, DWORD PTR _c$[ebp]
	mulss	xmm1, DWORD PTR _tmp2$[ebp]
	addss	xmm0, xmm1
	push	1
	mov	ecx, 16					; 00000010H
	shl	ecx, 1
	add	ecx, DWORD PTR _this$[ebp]
	movss	DWORD PTR tv291[ebp], xmm0
	call	??AVector4@@QAEAAMH@Z			; Vector4::operator[]
	movss	xmm0, DWORD PTR tv291[ebp]
	movss	DWORD PTR [eax], xmm0

; 388  : 		tmp1 = Row[0][2]; tmp2 = Row[2][2];

	push	2
	mov	ecx, 16					; 00000010H
	imul	ecx, 0
	add	ecx, DWORD PTR _this$[ebp]
	call	??AVector4@@QAEAAMH@Z			; Vector4::operator[]
	movss	xmm0, DWORD PTR [eax]
	movss	DWORD PTR _tmp1$[ebp], xmm0
	push	2
	mov	ecx, 16					; 00000010H
	shl	ecx, 1
	add	ecx, DWORD PTR _this$[ebp]
	call	??AVector4@@QAEAAMH@Z			; Vector4::operator[]
	movss	xmm0, DWORD PTR [eax]
	movss	DWORD PTR _tmp2$[ebp], xmm0

; 389  : 		Row[0][2] = (float)( c*tmp1 + s*tmp2);

	movss	xmm0, DWORD PTR _c$[ebp]
	mulss	xmm0, DWORD PTR _tmp1$[ebp]
	movss	xmm1, DWORD PTR _s$[ebp]
	mulss	xmm1, DWORD PTR _tmp2$[ebp]
	addss	xmm0, xmm1
	push	2
	mov	ecx, 16					; 00000010H
	imul	ecx, 0
	add	ecx, DWORD PTR _this$[ebp]
	movss	DWORD PTR tv293[ebp], xmm0
	call	??AVector4@@QAEAAMH@Z			; Vector4::operator[]
	movss	xmm0, DWORD PTR tv293[ebp]
	movss	DWORD PTR [eax], xmm0

; 390  : 		Row[2][2] = (float)(-s*tmp1 + c*tmp2);

	movss	xmm0, DWORD PTR _s$[ebp]
	xorps	xmm0, DWORD PTR __xmm@80000000800000008000000080000000
	mulss	xmm0, DWORD PTR _tmp1$[ebp]
	movss	xmm1, DWORD PTR _c$[ebp]
	mulss	xmm1, DWORD PTR _tmp2$[ebp]
	addss	xmm0, xmm1
	push	2
	mov	ecx, 16					; 00000010H
	shl	ecx, 1
	add	ecx, DWORD PTR _this$[ebp]
	movss	DWORD PTR tv295[ebp], xmm0
	call	??AVector4@@QAEAAMH@Z			; Vector4::operator[]
	movss	xmm0, DWORD PTR tv295[ebp]
	movss	DWORD PTR [eax], xmm0

; 391  : 		tmp1 = Row[0][3]; tmp2 = Row[2][3];

	push	3
	mov	ecx, 16					; 00000010H
	imul	ecx, 0
	add	ecx, DWORD PTR _this$[ebp]
	call	??AVector4@@QAEAAMH@Z			; Vector4::operator[]
	movss	xmm0, DWORD PTR [eax]
	movss	DWORD PTR _tmp1$[ebp], xmm0
	push	3
	mov	ecx, 16					; 00000010H
	shl	ecx, 1
	add	ecx, DWORD PTR _this$[ebp]
	call	??AVector4@@QAEAAMH@Z			; Vector4::operator[]
	movss	xmm0, DWORD PTR [eax]
	movss	DWORD PTR _tmp2$[ebp], xmm0

; 392  : 		Row[0][3] = (float)( c*tmp1 + s*tmp2);

	movss	xmm0, DWORD PTR _c$[ebp]
	mulss	xmm0, DWORD PTR _tmp1$[ebp]
	movss	xmm1, DWORD PTR _s$[ebp]
	mulss	xmm1, DWORD PTR _tmp2$[ebp]
	addss	xmm0, xmm1
	push	3
	mov	ecx, 16					; 00000010H
	imul	ecx, 0
	add	ecx, DWORD PTR _this$[ebp]
	movss	DWORD PTR tv297[ebp], xmm0
	call	??AVector4@@QAEAAMH@Z			; Vector4::operator[]
	movss	xmm0, DWORD PTR tv297[ebp]
	movss	DWORD PTR [eax], xmm0

; 393  : 		Row[2][3] = (float)(-s*tmp1 + c*tmp2);

	movss	xmm0, DWORD PTR _s$[ebp]
	xorps	xmm0, DWORD PTR __xmm@80000000800000008000000080000000
	mulss	xmm0, DWORD PTR _tmp1$[ebp]
	movss	xmm1, DWORD PTR _c$[ebp]
	mulss	xmm1, DWORD PTR _tmp2$[ebp]
	addss	xmm0, xmm1
	push	3
	mov	ecx, 16					; 00000010H
	shl	ecx, 1
	add	ecx, DWORD PTR _this$[ebp]
	movss	DWORD PTR tv299[ebp], xmm0
	call	??AVector4@@QAEAAMH@Z			; Vector4::operator[]
	movss	xmm0, DWORD PTR tv299[ebp]
	movss	DWORD PTR [eax], xmm0

; 394  : 	}

	pop	edi
	pop	esi
	pop	ebx
	mov	esp, ebp
	pop	ebp
	ret	8
?Pre_Rotate_Y@Matrix3D@@QAEXMM@Z ENDP			; Matrix3D::Pre_Rotate_Y
_TEXT	ENDS
; Function compile flags: /Odtp /ZI
; File x:\github\renegade\dragonade_rxd\scripts\matrix3d.h
;	COMDAT ?Pre_Rotate_X@Matrix3D@@QAEXMM@Z
_TEXT	SEGMENT
tv295 = -80						; size = 4
tv293 = -80						; size = 4
tv291 = -80						; size = 4
tv289 = -80						; size = 4
tv287 = -80						; size = 4
tv285 = -80						; size = 4
tv283 = -80						; size = 4
tv281 = -80						; size = 4
_tmp2$ = -12						; size = 4
_tmp1$ = -8						; size = 4
_this$ = -4						; size = 4
_s$ = 8							; size = 4
_c$ = 12						; size = 4
?Pre_Rotate_X@Matrix3D@@QAEXMM@Z PROC			; Matrix3D::Pre_Rotate_X, COMDAT
; _this$ = ecx

; 364  : 	{

	push	ebp
	mov	ebp, esp
	sub	esp, 80					; 00000050H
	push	ebx
	push	esi
	push	edi
	mov	DWORD PTR _this$[ebp], ecx

; 365  : 		float tmp1,tmp2;
; 366  : 		tmp1 = Row[1][0]; tmp2 = Row[2][0];

	push	0
	mov	ecx, 16					; 00000010H
	shl	ecx, 0
	add	ecx, DWORD PTR _this$[ebp]
	call	??AVector4@@QAEAAMH@Z			; Vector4::operator[]
	movss	xmm0, DWORD PTR [eax]
	movss	DWORD PTR _tmp1$[ebp], xmm0
	push	0
	mov	ecx, 16					; 00000010H
	shl	ecx, 1
	add	ecx, DWORD PTR _this$[ebp]
	call	??AVector4@@QAEAAMH@Z			; Vector4::operator[]
	movss	xmm0, DWORD PTR [eax]
	movss	DWORD PTR _tmp2$[ebp], xmm0

; 367  : 		Row[1][0] = (float)(c*tmp1 - s*tmp2);

	movss	xmm0, DWORD PTR _c$[ebp]
	mulss	xmm0, DWORD PTR _tmp1$[ebp]
	movss	xmm1, DWORD PTR _s$[ebp]
	mulss	xmm1, DWORD PTR _tmp2$[ebp]
	subss	xmm0, xmm1
	push	0
	mov	ecx, 16					; 00000010H
	shl	ecx, 0
	add	ecx, DWORD PTR _this$[ebp]
	movss	DWORD PTR tv281[ebp], xmm0
	call	??AVector4@@QAEAAMH@Z			; Vector4::operator[]
	movss	xmm0, DWORD PTR tv281[ebp]
	movss	DWORD PTR [eax], xmm0

; 368  : 		Row[2][0] = (float)(s*tmp1 + c*tmp2);

	movss	xmm0, DWORD PTR _s$[ebp]
	mulss	xmm0, DWORD PTR _tmp1$[ebp]
	movss	xmm1, DWORD PTR _c$[ebp]
	mulss	xmm1, DWORD PTR _tmp2$[ebp]
	addss	xmm0, xmm1
	push	0
	mov	ecx, 16					; 00000010H
	shl	ecx, 1
	add	ecx, DWORD PTR _this$[ebp]
	movss	DWORD PTR tv283[ebp], xmm0
	call	??AVector4@@QAEAAMH@Z			; Vector4::operator[]
	movss	xmm0, DWORD PTR tv283[ebp]
	movss	DWORD PTR [eax], xmm0

; 369  : 		tmp1 = Row[1][1]; tmp2 = Row[2][1];

	push	1
	mov	ecx, 16					; 00000010H
	shl	ecx, 0
	add	ecx, DWORD PTR _this$[ebp]
	call	??AVector4@@QAEAAMH@Z			; Vector4::operator[]
	movss	xmm0, DWORD PTR [eax]
	movss	DWORD PTR _tmp1$[ebp], xmm0
	push	1
	mov	ecx, 16					; 00000010H
	shl	ecx, 1
	add	ecx, DWORD PTR _this$[ebp]
	call	??AVector4@@QAEAAMH@Z			; Vector4::operator[]
	movss	xmm0, DWORD PTR [eax]
	movss	DWORD PTR _tmp2$[ebp], xmm0

; 370  : 		Row[1][1] = (float)(c*tmp1 - s*tmp2);

	movss	xmm0, DWORD PTR _c$[ebp]
	mulss	xmm0, DWORD PTR _tmp1$[ebp]
	movss	xmm1, DWORD PTR _s$[ebp]
	mulss	xmm1, DWORD PTR _tmp2$[ebp]
	subss	xmm0, xmm1
	push	1
	mov	ecx, 16					; 00000010H
	shl	ecx, 0
	add	ecx, DWORD PTR _this$[ebp]
	movss	DWORD PTR tv285[ebp], xmm0
	call	??AVector4@@QAEAAMH@Z			; Vector4::operator[]
	movss	xmm0, DWORD PTR tv285[ebp]
	movss	DWORD PTR [eax], xmm0

; 371  : 		Row[2][1] = (float)(s*tmp1 + c*tmp2);

	movss	xmm0, DWORD PTR _s$[ebp]
	mulss	xmm0, DWORD PTR _tmp1$[ebp]
	movss	xmm1, DWORD PTR _c$[ebp]
	mulss	xmm1, DWORD PTR _tmp2$[ebp]
	addss	xmm0, xmm1
	push	1
	mov	ecx, 16					; 00000010H
	shl	ecx, 1
	add	ecx, DWORD PTR _this$[ebp]
	movss	DWORD PTR tv287[ebp], xmm0
	call	??AVector4@@QAEAAMH@Z			; Vector4::operator[]
	movss	xmm0, DWORD PTR tv287[ebp]
	movss	DWORD PTR [eax], xmm0

; 372  : 		tmp1 = Row[1][2]; tmp2 = Row[2][2];

	push	2
	mov	ecx, 16					; 00000010H
	shl	ecx, 0
	add	ecx, DWORD PTR _this$[ebp]
	call	??AVector4@@QAEAAMH@Z			; Vector4::operator[]
	movss	xmm0, DWORD PTR [eax]
	movss	DWORD PTR _tmp1$[ebp], xmm0
	push	2
	mov	ecx, 16					; 00000010H
	shl	ecx, 1
	add	ecx, DWORD PTR _this$[ebp]
	call	??AVector4@@QAEAAMH@Z			; Vector4::operator[]
	movss	xmm0, DWORD PTR [eax]
	movss	DWORD PTR _tmp2$[ebp], xmm0

; 373  : 		Row[1][2] = (float)(c*tmp1 - s*tmp2);

	movss	xmm0, DWORD PTR _c$[ebp]
	mulss	xmm0, DWORD PTR _tmp1$[ebp]
	movss	xmm1, DWORD PTR _s$[ebp]
	mulss	xmm1, DWORD PTR _tmp2$[ebp]
	subss	xmm0, xmm1
	push	2
	mov	ecx, 16					; 00000010H
	shl	ecx, 0
	add	ecx, DWORD PTR _this$[ebp]
	movss	DWORD PTR tv289[ebp], xmm0
	call	??AVector4@@QAEAAMH@Z			; Vector4::operator[]
	movss	xmm0, DWORD PTR tv289[ebp]
	movss	DWORD PTR [eax], xmm0

; 374  : 		Row[2][2] = (float)(s*tmp1 + c*tmp2);

	movss	xmm0, DWORD PTR _s$[ebp]
	mulss	xmm0, DWORD PTR _tmp1$[ebp]
	movss	xmm1, DWORD PTR _c$[ebp]
	mulss	xmm1, DWORD PTR _tmp2$[ebp]
	addss	xmm0, xmm1
	push	2
	mov	ecx, 16					; 00000010H
	shl	ecx, 1
	add	ecx, DWORD PTR _this$[ebp]
	movss	DWORD PTR tv291[ebp], xmm0
	call	??AVector4@@QAEAAMH@Z			; Vector4::operator[]
	movss	xmm0, DWORD PTR tv291[ebp]
	movss	DWORD PTR [eax], xmm0

; 375  : 		tmp1 = Row[1][3]; tmp2 = Row[2][3];

	push	3
	mov	ecx, 16					; 00000010H
	shl	ecx, 0
	add	ecx, DWORD PTR _this$[ebp]
	call	??AVector4@@QAEAAMH@Z			; Vector4::operator[]
	movss	xmm0, DWORD PTR [eax]
	movss	DWORD PTR _tmp1$[ebp], xmm0
	push	3
	mov	ecx, 16					; 00000010H
	shl	ecx, 1
	add	ecx, DWORD PTR _this$[ebp]
	call	??AVector4@@QAEAAMH@Z			; Vector4::operator[]
	movss	xmm0, DWORD PTR [eax]
	movss	DWORD PTR _tmp2$[ebp], xmm0

; 376  : 		Row[1][3] = (float)(c*tmp1 - s*tmp2);

	movss	xmm0, DWORD PTR _c$[ebp]
	mulss	xmm0, DWORD PTR _tmp1$[ebp]
	movss	xmm1, DWORD PTR _s$[ebp]
	mulss	xmm1, DWORD PTR _tmp2$[ebp]
	subss	xmm0, xmm1
	push	3
	mov	ecx, 16					; 00000010H
	shl	ecx, 0
	add	ecx, DWORD PTR _this$[ebp]
	movss	DWORD PTR tv293[ebp], xmm0
	call	??AVector4@@QAEAAMH@Z			; Vector4::operator[]
	movss	xmm0, DWORD PTR tv293[ebp]
	movss	DWORD PTR [eax], xmm0

; 377  : 		Row[2][3] = (float)(s*tmp1 + c*tmp2);

	movss	xmm0, DWORD PTR _s$[ebp]
	mulss	xmm0, DWORD PTR _tmp1$[ebp]
	movss	xmm1, DWORD PTR _c$[ebp]
	mulss	xmm1, DWORD PTR _tmp2$[ebp]
	addss	xmm0, xmm1
	push	3
	mov	ecx, 16					; 00000010H
	shl	ecx, 1
	add	ecx, DWORD PTR _this$[ebp]
	movss	DWORD PTR tv295[ebp], xmm0
	call	??AVector4@@QAEAAMH@Z			; Vector4::operator[]
	movss	xmm0, DWORD PTR tv295[ebp]
	movss	DWORD PTR [eax], xmm0

; 378  : 	}

	pop	edi
	pop	esi
	pop	ebx
	mov	esp, ebp
	pop	ebp
	ret	8
?Pre_Rotate_X@Matrix3D@@QAEXMM@Z ENDP			; Matrix3D::Pre_Rotate_X
_TEXT	ENDS
; Function compile flags: /Odtp /ZI
; File x:\github\renegade\dragonade_rxd\scripts\matrix3d.h
;	COMDAT ?Pre_Rotate_Z@Matrix3D@@QAEXM@Z
_TEXT	SEGMENT
tv307 = -88						; size = 4
tv305 = -88						; size = 4
tv303 = -88						; size = 4
tv301 = -88						; size = 4
tv299 = -88						; size = 4
tv297 = -88						; size = 4
tv295 = -88						; size = 4
tv293 = -88						; size = 4
_s$ = -20						; size = 4
_c$ = -16						; size = 4
_tmp2$ = -12						; size = 4
_tmp1$ = -8						; size = 4
_this$ = -4						; size = 4
_theta$ = 8						; size = 4
?Pre_Rotate_Z@Matrix3D@@QAEXM@Z PROC			; Matrix3D::Pre_Rotate_Z, COMDAT
; _this$ = ecx

; 345  : 	{

	push	ebp
	mov	ebp, esp
	sub	esp, 88					; 00000058H
	push	ebx
	push	esi
	push	edi
	mov	DWORD PTR _this$[ebp], ecx

; 346  : 		float tmp1,tmp2;
; 347  : 		float c,s;
; 348  : 		c = cosf(theta);

	push	ecx
	movss	xmm0, DWORD PTR _theta$[ebp]
	movss	DWORD PTR [esp], xmm0
	call	_cosf
	add	esp, 4
	fstp	DWORD PTR _c$[ebp]

; 349  : 		s = sinf(theta);

	push	ecx
	movss	xmm0, DWORD PTR _theta$[ebp]
	movss	DWORD PTR [esp], xmm0
	call	_sinf
	add	esp, 4
	fstp	DWORD PTR _s$[ebp]

; 350  : 		tmp1 = Row[0][0]; tmp2 = Row[1][0];

	push	0
	mov	ecx, 16					; 00000010H
	imul	ecx, 0
	add	ecx, DWORD PTR _this$[ebp]
	call	??AVector4@@QAEAAMH@Z			; Vector4::operator[]
	movss	xmm0, DWORD PTR [eax]
	movss	DWORD PTR _tmp1$[ebp], xmm0
	push	0
	mov	ecx, 16					; 00000010H
	shl	ecx, 0
	add	ecx, DWORD PTR _this$[ebp]
	call	??AVector4@@QAEAAMH@Z			; Vector4::operator[]
	movss	xmm0, DWORD PTR [eax]
	movss	DWORD PTR _tmp2$[ebp], xmm0

; 351  : 		Row[0][0] = (float)(c*tmp1 - s*tmp2);

	movss	xmm0, DWORD PTR _c$[ebp]
	mulss	xmm0, DWORD PTR _tmp1$[ebp]
	movss	xmm1, DWORD PTR _s$[ebp]
	mulss	xmm1, DWORD PTR _tmp2$[ebp]
	subss	xmm0, xmm1
	push	0
	mov	ecx, 16					; 00000010H
	imul	ecx, 0
	add	ecx, DWORD PTR _this$[ebp]
	movss	DWORD PTR tv293[ebp], xmm0
	call	??AVector4@@QAEAAMH@Z			; Vector4::operator[]
	movss	xmm0, DWORD PTR tv293[ebp]
	movss	DWORD PTR [eax], xmm0

; 352  : 		Row[1][0] = (float)(s*tmp1 + c*tmp2);

	movss	xmm0, DWORD PTR _s$[ebp]
	mulss	xmm0, DWORD PTR _tmp1$[ebp]
	movss	xmm1, DWORD PTR _c$[ebp]
	mulss	xmm1, DWORD PTR _tmp2$[ebp]
	addss	xmm0, xmm1
	push	0
	mov	ecx, 16					; 00000010H
	shl	ecx, 0
	add	ecx, DWORD PTR _this$[ebp]
	movss	DWORD PTR tv295[ebp], xmm0
	call	??AVector4@@QAEAAMH@Z			; Vector4::operator[]
	movss	xmm0, DWORD PTR tv295[ebp]
	movss	DWORD PTR [eax], xmm0

; 353  : 		tmp1 = Row[0][1]; tmp2 = Row[1][1];

	push	1
	mov	ecx, 16					; 00000010H
	imul	ecx, 0
	add	ecx, DWORD PTR _this$[ebp]
	call	??AVector4@@QAEAAMH@Z			; Vector4::operator[]
	movss	xmm0, DWORD PTR [eax]
	movss	DWORD PTR _tmp1$[ebp], xmm0
	push	1
	mov	ecx, 16					; 00000010H
	shl	ecx, 0
	add	ecx, DWORD PTR _this$[ebp]
	call	??AVector4@@QAEAAMH@Z			; Vector4::operator[]
	movss	xmm0, DWORD PTR [eax]
	movss	DWORD PTR _tmp2$[ebp], xmm0

; 354  : 		Row[0][1] = (float)(c*tmp1 - s*tmp2);

	movss	xmm0, DWORD PTR _c$[ebp]
	mulss	xmm0, DWORD PTR _tmp1$[ebp]
	movss	xmm1, DWORD PTR _s$[ebp]
	mulss	xmm1, DWORD PTR _tmp2$[ebp]
	subss	xmm0, xmm1
	push	1
	mov	ecx, 16					; 00000010H
	imul	ecx, 0
	add	ecx, DWORD PTR _this$[ebp]
	movss	DWORD PTR tv297[ebp], xmm0
	call	??AVector4@@QAEAAMH@Z			; Vector4::operator[]
	movss	xmm0, DWORD PTR tv297[ebp]
	movss	DWORD PTR [eax], xmm0

; 355  : 		Row[1][1] = (float)(s*tmp1 + c*tmp2);

	movss	xmm0, DWORD PTR _s$[ebp]
	mulss	xmm0, DWORD PTR _tmp1$[ebp]
	movss	xmm1, DWORD PTR _c$[ebp]
	mulss	xmm1, DWORD PTR _tmp2$[ebp]
	addss	xmm0, xmm1
	push	1
	mov	ecx, 16					; 00000010H
	shl	ecx, 0
	add	ecx, DWORD PTR _this$[ebp]
	movss	DWORD PTR tv299[ebp], xmm0
	call	??AVector4@@QAEAAMH@Z			; Vector4::operator[]
	movss	xmm0, DWORD PTR tv299[ebp]
	movss	DWORD PTR [eax], xmm0

; 356  : 		tmp1 = Row[0][2]; tmp2 = Row[1][2];

	push	2
	mov	ecx, 16					; 00000010H
	imul	ecx, 0
	add	ecx, DWORD PTR _this$[ebp]
	call	??AVector4@@QAEAAMH@Z			; Vector4::operator[]
	movss	xmm0, DWORD PTR [eax]
	movss	DWORD PTR _tmp1$[ebp], xmm0
	push	2
	mov	ecx, 16					; 00000010H
	shl	ecx, 0
	add	ecx, DWORD PTR _this$[ebp]
	call	??AVector4@@QAEAAMH@Z			; Vector4::operator[]
	movss	xmm0, DWORD PTR [eax]
	movss	DWORD PTR _tmp2$[ebp], xmm0

; 357  : 		Row[0][2] = (float)(c*tmp1 - s*tmp2);

	movss	xmm0, DWORD PTR _c$[ebp]
	mulss	xmm0, DWORD PTR _tmp1$[ebp]
	movss	xmm1, DWORD PTR _s$[ebp]
	mulss	xmm1, DWORD PTR _tmp2$[ebp]
	subss	xmm0, xmm1
	push	2
	mov	ecx, 16					; 00000010H
	imul	ecx, 0
	add	ecx, DWORD PTR _this$[ebp]
	movss	DWORD PTR tv301[ebp], xmm0
	call	??AVector4@@QAEAAMH@Z			; Vector4::operator[]
	movss	xmm0, DWORD PTR tv301[ebp]
	movss	DWORD PTR [eax], xmm0

; 358  : 		Row[1][2] = (float)(s*tmp1 + c*tmp2);

	movss	xmm0, DWORD PTR _s$[ebp]
	mulss	xmm0, DWORD PTR _tmp1$[ebp]
	movss	xmm1, DWORD PTR _c$[ebp]
	mulss	xmm1, DWORD PTR _tmp2$[ebp]
	addss	xmm0, xmm1
	push	2
	mov	ecx, 16					; 00000010H
	shl	ecx, 0
	add	ecx, DWORD PTR _this$[ebp]
	movss	DWORD PTR tv303[ebp], xmm0
	call	??AVector4@@QAEAAMH@Z			; Vector4::operator[]
	movss	xmm0, DWORD PTR tv303[ebp]
	movss	DWORD PTR [eax], xmm0

; 359  : 		tmp1 = Row[0][3]; tmp2 = Row[1][3];

	push	3
	mov	ecx, 16					; 00000010H
	imul	ecx, 0
	add	ecx, DWORD PTR _this$[ebp]
	call	??AVector4@@QAEAAMH@Z			; Vector4::operator[]
	movss	xmm0, DWORD PTR [eax]
	movss	DWORD PTR _tmp1$[ebp], xmm0
	push	3
	mov	ecx, 16					; 00000010H
	shl	ecx, 0
	add	ecx, DWORD PTR _this$[ebp]
	call	??AVector4@@QAEAAMH@Z			; Vector4::operator[]
	movss	xmm0, DWORD PTR [eax]
	movss	DWORD PTR _tmp2$[ebp], xmm0

; 360  : 		Row[0][3] = (float)(c*tmp1 - s*tmp2);

	movss	xmm0, DWORD PTR _c$[ebp]
	mulss	xmm0, DWORD PTR _tmp1$[ebp]
	movss	xmm1, DWORD PTR _s$[ebp]
	mulss	xmm1, DWORD PTR _tmp2$[ebp]
	subss	xmm0, xmm1
	push	3
	mov	ecx, 16					; 00000010H
	imul	ecx, 0
	add	ecx, DWORD PTR _this$[ebp]
	movss	DWORD PTR tv305[ebp], xmm0
	call	??AVector4@@QAEAAMH@Z			; Vector4::operator[]
	movss	xmm0, DWORD PTR tv305[ebp]
	movss	DWORD PTR [eax], xmm0

; 361  : 		Row[1][3] = (float)(s*tmp1 + c*tmp2);

	movss	xmm0, DWORD PTR _s$[ebp]
	mulss	xmm0, DWORD PTR _tmp1$[ebp]
	movss	xmm1, DWORD PTR _c$[ebp]
	mulss	xmm1, DWORD PTR _tmp2$[ebp]
	addss	xmm0, xmm1
	push	3
	mov	ecx, 16					; 00000010H
	shl	ecx, 0
	add	ecx, DWORD PTR _this$[ebp]
	movss	DWORD PTR tv307[ebp], xmm0
	call	??AVector4@@QAEAAMH@Z			; Vector4::operator[]
	movss	xmm0, DWORD PTR tv307[ebp]
	movss	DWORD PTR [eax], xmm0

; 362  : 	}

	pop	edi
	pop	esi
	pop	ebx
	mov	esp, ebp
	pop	ebp
	ret	4
?Pre_Rotate_Z@Matrix3D@@QAEXM@Z ENDP			; Matrix3D::Pre_Rotate_Z
_TEXT	ENDS
; Function compile flags: /Odtp /ZI
; File x:\github\renegade\dragonade_rxd\scripts\matrix3d.h
;	COMDAT ?Pre_Rotate_Y@Matrix3D@@QAEXM@Z
_TEXT	SEGMENT
tv311 = -88						; size = 4
tv309 = -88						; size = 4
tv307 = -88						; size = 4
tv305 = -88						; size = 4
tv303 = -88						; size = 4
tv301 = -88						; size = 4
tv299 = -88						; size = 4
tv297 = -88						; size = 4
_s$ = -20						; size = 4
_c$ = -16						; size = 4
_tmp2$ = -12						; size = 4
_tmp1$ = -8						; size = 4
_this$ = -4						; size = 4
_theta$ = 8						; size = 4
?Pre_Rotate_Y@Matrix3D@@QAEXM@Z PROC			; Matrix3D::Pre_Rotate_Y, COMDAT
; _this$ = ecx

; 326  : 	{

	push	ebp
	mov	ebp, esp
	sub	esp, 88					; 00000058H
	push	ebx
	push	esi
	push	edi
	mov	DWORD PTR _this$[ebp], ecx

; 327  : 		float tmp1,tmp2;
; 328  : 		float c,s;
; 329  : 		c = cosf(theta);

	push	ecx
	movss	xmm0, DWORD PTR _theta$[ebp]
	movss	DWORD PTR [esp], xmm0
	call	_cosf
	add	esp, 4
	fstp	DWORD PTR _c$[ebp]

; 330  : 		s = sinf(theta);

	push	ecx
	movss	xmm0, DWORD PTR _theta$[ebp]
	movss	DWORD PTR [esp], xmm0
	call	_sinf
	add	esp, 4
	fstp	DWORD PTR _s$[ebp]

; 331  : 		tmp1 = Row[0][0]; tmp2 = Row[2][0];

	push	0
	mov	ecx, 16					; 00000010H
	imul	ecx, 0
	add	ecx, DWORD PTR _this$[ebp]
	call	??AVector4@@QAEAAMH@Z			; Vector4::operator[]
	movss	xmm0, DWORD PTR [eax]
	movss	DWORD PTR _tmp1$[ebp], xmm0
	push	0
	mov	ecx, 16					; 00000010H
	shl	ecx, 1
	add	ecx, DWORD PTR _this$[ebp]
	call	??AVector4@@QAEAAMH@Z			; Vector4::operator[]
	movss	xmm0, DWORD PTR [eax]
	movss	DWORD PTR _tmp2$[ebp], xmm0

; 332  : 		Row[0][0] = (float)( c*tmp1 + s*tmp2);

	movss	xmm0, DWORD PTR _c$[ebp]
	mulss	xmm0, DWORD PTR _tmp1$[ebp]
	movss	xmm1, DWORD PTR _s$[ebp]
	mulss	xmm1, DWORD PTR _tmp2$[ebp]
	addss	xmm0, xmm1
	push	0
	mov	ecx, 16					; 00000010H
	imul	ecx, 0
	add	ecx, DWORD PTR _this$[ebp]
	movss	DWORD PTR tv297[ebp], xmm0
	call	??AVector4@@QAEAAMH@Z			; Vector4::operator[]
	movss	xmm0, DWORD PTR tv297[ebp]
	movss	DWORD PTR [eax], xmm0

; 333  : 		Row[2][0] = (float)(-s*tmp1 + c*tmp2);

	movss	xmm0, DWORD PTR _s$[ebp]
	xorps	xmm0, DWORD PTR __xmm@80000000800000008000000080000000
	mulss	xmm0, DWORD PTR _tmp1$[ebp]
	movss	xmm1, DWORD PTR _c$[ebp]
	mulss	xmm1, DWORD PTR _tmp2$[ebp]
	addss	xmm0, xmm1
	push	0
	mov	ecx, 16					; 00000010H
	shl	ecx, 1
	add	ecx, DWORD PTR _this$[ebp]
	movss	DWORD PTR tv299[ebp], xmm0
	call	??AVector4@@QAEAAMH@Z			; Vector4::operator[]
	movss	xmm0, DWORD PTR tv299[ebp]
	movss	DWORD PTR [eax], xmm0

; 334  : 		tmp1 = Row[0][1]; tmp2 = Row[2][1];

	push	1
	mov	ecx, 16					; 00000010H
	imul	ecx, 0
	add	ecx, DWORD PTR _this$[ebp]
	call	??AVector4@@QAEAAMH@Z			; Vector4::operator[]
	movss	xmm0, DWORD PTR [eax]
	movss	DWORD PTR _tmp1$[ebp], xmm0
	push	1
	mov	ecx, 16					; 00000010H
	shl	ecx, 1
	add	ecx, DWORD PTR _this$[ebp]
	call	??AVector4@@QAEAAMH@Z			; Vector4::operator[]
	movss	xmm0, DWORD PTR [eax]
	movss	DWORD PTR _tmp2$[ebp], xmm0

; 335  : 		Row[0][1] = (float)( c*tmp1 + s*tmp2);

	movss	xmm0, DWORD PTR _c$[ebp]
	mulss	xmm0, DWORD PTR _tmp1$[ebp]
	movss	xmm1, DWORD PTR _s$[ebp]
	mulss	xmm1, DWORD PTR _tmp2$[ebp]
	addss	xmm0, xmm1
	push	1
	mov	ecx, 16					; 00000010H
	imul	ecx, 0
	add	ecx, DWORD PTR _this$[ebp]
	movss	DWORD PTR tv301[ebp], xmm0
	call	??AVector4@@QAEAAMH@Z			; Vector4::operator[]
	movss	xmm0, DWORD PTR tv301[ebp]
	movss	DWORD PTR [eax], xmm0

; 336  : 		Row[2][1] = (float)(-s*tmp1 + c*tmp2);

	movss	xmm0, DWORD PTR _s$[ebp]
	xorps	xmm0, DWORD PTR __xmm@80000000800000008000000080000000
	mulss	xmm0, DWORD PTR _tmp1$[ebp]
	movss	xmm1, DWORD PTR _c$[ebp]
	mulss	xmm1, DWORD PTR _tmp2$[ebp]
	addss	xmm0, xmm1
	push	1
	mov	ecx, 16					; 00000010H
	shl	ecx, 1
	add	ecx, DWORD PTR _this$[ebp]
	movss	DWORD PTR tv303[ebp], xmm0
	call	??AVector4@@QAEAAMH@Z			; Vector4::operator[]
	movss	xmm0, DWORD PTR tv303[ebp]
	movss	DWORD PTR [eax], xmm0

; 337  : 		tmp1 = Row[0][2]; tmp2 = Row[2][2];

	push	2
	mov	ecx, 16					; 00000010H
	imul	ecx, 0
	add	ecx, DWORD PTR _this$[ebp]
	call	??AVector4@@QAEAAMH@Z			; Vector4::operator[]
	movss	xmm0, DWORD PTR [eax]
	movss	DWORD PTR _tmp1$[ebp], xmm0
	push	2
	mov	ecx, 16					; 00000010H
	shl	ecx, 1
	add	ecx, DWORD PTR _this$[ebp]
	call	??AVector4@@QAEAAMH@Z			; Vector4::operator[]
	movss	xmm0, DWORD PTR [eax]
	movss	DWORD PTR _tmp2$[ebp], xmm0

; 338  : 		Row[0][2] = (float)( c*tmp1 + s*tmp2);

	movss	xmm0, DWORD PTR _c$[ebp]
	mulss	xmm0, DWORD PTR _tmp1$[ebp]
	movss	xmm1, DWORD PTR _s$[ebp]
	mulss	xmm1, DWORD PTR _tmp2$[ebp]
	addss	xmm0, xmm1
	push	2
	mov	ecx, 16					; 00000010H
	imul	ecx, 0
	add	ecx, DWORD PTR _this$[ebp]
	movss	DWORD PTR tv305[ebp], xmm0
	call	??AVector4@@QAEAAMH@Z			; Vector4::operator[]
	movss	xmm0, DWORD PTR tv305[ebp]
	movss	DWORD PTR [eax], xmm0

; 339  : 		Row[2][2] = (float)(-s*tmp1 + c*tmp2);

	movss	xmm0, DWORD PTR _s$[ebp]
	xorps	xmm0, DWORD PTR __xmm@80000000800000008000000080000000
	mulss	xmm0, DWORD PTR _tmp1$[ebp]
	movss	xmm1, DWORD PTR _c$[ebp]
	mulss	xmm1, DWORD PTR _tmp2$[ebp]
	addss	xmm0, xmm1
	push	2
	mov	ecx, 16					; 00000010H
	shl	ecx, 1
	add	ecx, DWORD PTR _this$[ebp]
	movss	DWORD PTR tv307[ebp], xmm0
	call	??AVector4@@QAEAAMH@Z			; Vector4::operator[]
	movss	xmm0, DWORD PTR tv307[ebp]
	movss	DWORD PTR [eax], xmm0

; 340  : 		tmp1 = Row[0][3]; tmp2 = Row[2][3];

	push	3
	mov	ecx, 16					; 00000010H
	imul	ecx, 0
	add	ecx, DWORD PTR _this$[ebp]
	call	??AVector4@@QAEAAMH@Z			; Vector4::operator[]
	movss	xmm0, DWORD PTR [eax]
	movss	DWORD PTR _tmp1$[ebp], xmm0
	push	3
	mov	ecx, 16					; 00000010H
	shl	ecx, 1
	add	ecx, DWORD PTR _this$[ebp]
	call	??AVector4@@QAEAAMH@Z			; Vector4::operator[]
	movss	xmm0, DWORD PTR [eax]
	movss	DWORD PTR _tmp2$[ebp], xmm0

; 341  : 		Row[0][3] = (float)( c*tmp1 + s*tmp2);

	movss	xmm0, DWORD PTR _c$[ebp]
	mulss	xmm0, DWORD PTR _tmp1$[ebp]
	movss	xmm1, DWORD PTR _s$[ebp]
	mulss	xmm1, DWORD PTR _tmp2$[ebp]
	addss	xmm0, xmm1
	push	3
	mov	ecx, 16					; 00000010H
	imul	ecx, 0
	add	ecx, DWORD PTR _this$[ebp]
	movss	DWORD PTR tv309[ebp], xmm0
	call	??AVector4@@QAEAAMH@Z			; Vector4::operator[]
	movss	xmm0, DWORD PTR tv309[ebp]
	movss	DWORD PTR [eax], xmm0

; 342  : 		Row[2][3] = (float)(-s*tmp1 + c*tmp2);

	movss	xmm0, DWORD PTR _s$[ebp]
	xorps	xmm0, DWORD PTR __xmm@80000000800000008000000080000000
	mulss	xmm0, DWORD PTR _tmp1$[ebp]
	movss	xmm1, DWORD PTR _c$[ebp]
	mulss	xmm1, DWORD PTR _tmp2$[ebp]
	addss	xmm0, xmm1
	push	3
	mov	ecx, 16					; 00000010H
	shl	ecx, 1
	add	ecx, DWORD PTR _this$[ebp]
	movss	DWORD PTR tv311[ebp], xmm0
	call	??AVector4@@QAEAAMH@Z			; Vector4::operator[]
	movss	xmm0, DWORD PTR tv311[ebp]
	movss	DWORD PTR [eax], xmm0

; 343  : 	}

	pop	edi
	pop	esi
	pop	ebx
	mov	esp, ebp
	pop	ebp
	ret	4
?Pre_Rotate_Y@Matrix3D@@QAEXM@Z ENDP			; Matrix3D::Pre_Rotate_Y
_TEXT	ENDS
; Function compile flags: /Odtp /ZI
; File x:\github\renegade\dragonade_rxd\scripts\matrix3d.h
;	COMDAT ?Pre_Rotate_X@Matrix3D@@QAEXM@Z
_TEXT	SEGMENT
tv307 = -88						; size = 4
tv305 = -88						; size = 4
tv303 = -88						; size = 4
tv301 = -88						; size = 4
tv299 = -88						; size = 4
tv297 = -88						; size = 4
tv295 = -88						; size = 4
tv293 = -88						; size = 4
_s$ = -20						; size = 4
_c$ = -16						; size = 4
_tmp2$ = -12						; size = 4
_tmp1$ = -8						; size = 4
_this$ = -4						; size = 4
_theta$ = 8						; size = 4
?Pre_Rotate_X@Matrix3D@@QAEXM@Z PROC			; Matrix3D::Pre_Rotate_X, COMDAT
; _this$ = ecx

; 307  : 	{

	push	ebp
	mov	ebp, esp
	sub	esp, 88					; 00000058H
	push	ebx
	push	esi
	push	edi
	mov	DWORD PTR _this$[ebp], ecx

; 308  : 		float tmp1,tmp2;
; 309  : 		float c,s;
; 310  : 		c = cosf(theta);

	push	ecx
	movss	xmm0, DWORD PTR _theta$[ebp]
	movss	DWORD PTR [esp], xmm0
	call	_cosf
	add	esp, 4
	fstp	DWORD PTR _c$[ebp]

; 311  : 		s = sinf(theta);

	push	ecx
	movss	xmm0, DWORD PTR _theta$[ebp]
	movss	DWORD PTR [esp], xmm0
	call	_sinf
	add	esp, 4
	fstp	DWORD PTR _s$[ebp]

; 312  : 		tmp1 = Row[1][0]; tmp2 = Row[2][0];

	push	0
	mov	ecx, 16					; 00000010H
	shl	ecx, 0
	add	ecx, DWORD PTR _this$[ebp]
	call	??AVector4@@QAEAAMH@Z			; Vector4::operator[]
	movss	xmm0, DWORD PTR [eax]
	movss	DWORD PTR _tmp1$[ebp], xmm0
	push	0
	mov	ecx, 16					; 00000010H
	shl	ecx, 1
	add	ecx, DWORD PTR _this$[ebp]
	call	??AVector4@@QAEAAMH@Z			; Vector4::operator[]
	movss	xmm0, DWORD PTR [eax]
	movss	DWORD PTR _tmp2$[ebp], xmm0

; 313  : 		Row[1][0] = (float)(c*tmp1 - s*tmp2);

	movss	xmm0, DWORD PTR _c$[ebp]
	mulss	xmm0, DWORD PTR _tmp1$[ebp]
	movss	xmm1, DWORD PTR _s$[ebp]
	mulss	xmm1, DWORD PTR _tmp2$[ebp]
	subss	xmm0, xmm1
	push	0
	mov	ecx, 16					; 00000010H
	shl	ecx, 0
	add	ecx, DWORD PTR _this$[ebp]
	movss	DWORD PTR tv293[ebp], xmm0
	call	??AVector4@@QAEAAMH@Z			; Vector4::operator[]
	movss	xmm0, DWORD PTR tv293[ebp]
	movss	DWORD PTR [eax], xmm0

; 314  : 		Row[2][0] = (float)(s*tmp1 + c*tmp2);

	movss	xmm0, DWORD PTR _s$[ebp]
	mulss	xmm0, DWORD PTR _tmp1$[ebp]
	movss	xmm1, DWORD PTR _c$[ebp]
	mulss	xmm1, DWORD PTR _tmp2$[ebp]
	addss	xmm0, xmm1
	push	0
	mov	ecx, 16					; 00000010H
	shl	ecx, 1
	add	ecx, DWORD PTR _this$[ebp]
	movss	DWORD PTR tv295[ebp], xmm0
	call	??AVector4@@QAEAAMH@Z			; Vector4::operator[]
	movss	xmm0, DWORD PTR tv295[ebp]
	movss	DWORD PTR [eax], xmm0

; 315  : 		tmp1 = Row[1][1]; tmp2 = Row[2][1];

	push	1
	mov	ecx, 16					; 00000010H
	shl	ecx, 0
	add	ecx, DWORD PTR _this$[ebp]
	call	??AVector4@@QAEAAMH@Z			; Vector4::operator[]
	movss	xmm0, DWORD PTR [eax]
	movss	DWORD PTR _tmp1$[ebp], xmm0
	push	1
	mov	ecx, 16					; 00000010H
	shl	ecx, 1
	add	ecx, DWORD PTR _this$[ebp]
	call	??AVector4@@QAEAAMH@Z			; Vector4::operator[]
	movss	xmm0, DWORD PTR [eax]
	movss	DWORD PTR _tmp2$[ebp], xmm0

; 316  : 		Row[1][1] = (float)(c*tmp1 - s*tmp2);

	movss	xmm0, DWORD PTR _c$[ebp]
	mulss	xmm0, DWORD PTR _tmp1$[ebp]
	movss	xmm1, DWORD PTR _s$[ebp]
	mulss	xmm1, DWORD PTR _tmp2$[ebp]
	subss	xmm0, xmm1
	push	1
	mov	ecx, 16					; 00000010H
	shl	ecx, 0
	add	ecx, DWORD PTR _this$[ebp]
	movss	DWORD PTR tv297[ebp], xmm0
	call	??AVector4@@QAEAAMH@Z			; Vector4::operator[]
	movss	xmm0, DWORD PTR tv297[ebp]
	movss	DWORD PTR [eax], xmm0

; 317  : 		Row[2][1] = (float)(s*tmp1 + c*tmp2);

	movss	xmm0, DWORD PTR _s$[ebp]
	mulss	xmm0, DWORD PTR _tmp1$[ebp]
	movss	xmm1, DWORD PTR _c$[ebp]
	mulss	xmm1, DWORD PTR _tmp2$[ebp]
	addss	xmm0, xmm1
	push	1
	mov	ecx, 16					; 00000010H
	shl	ecx, 1
	add	ecx, DWORD PTR _this$[ebp]
	movss	DWORD PTR tv299[ebp], xmm0
	call	??AVector4@@QAEAAMH@Z			; Vector4::operator[]
	movss	xmm0, DWORD PTR tv299[ebp]
	movss	DWORD PTR [eax], xmm0

; 318  : 		tmp1 = Row[1][2]; tmp2 = Row[2][2];

	push	2
	mov	ecx, 16					; 00000010H
	shl	ecx, 0
	add	ecx, DWORD PTR _this$[ebp]
	call	??AVector4@@QAEAAMH@Z			; Vector4::operator[]
	movss	xmm0, DWORD PTR [eax]
	movss	DWORD PTR _tmp1$[ebp], xmm0
	push	2
	mov	ecx, 16					; 00000010H
	shl	ecx, 1
	add	ecx, DWORD PTR _this$[ebp]
	call	??AVector4@@QAEAAMH@Z			; Vector4::operator[]
	movss	xmm0, DWORD PTR [eax]
	movss	DWORD PTR _tmp2$[ebp], xmm0

; 319  : 		Row[1][2] = (float)(c*tmp1 - s*tmp2);

	movss	xmm0, DWORD PTR _c$[ebp]
	mulss	xmm0, DWORD PTR _tmp1$[ebp]
	movss	xmm1, DWORD PTR _s$[ebp]
	mulss	xmm1, DWORD PTR _tmp2$[ebp]
	subss	xmm0, xmm1
	push	2
	mov	ecx, 16					; 00000010H
	shl	ecx, 0
	add	ecx, DWORD PTR _this$[ebp]
	movss	DWORD PTR tv301[ebp], xmm0
	call	??AVector4@@QAEAAMH@Z			; Vector4::operator[]
	movss	xmm0, DWORD PTR tv301[ebp]
	movss	DWORD PTR [eax], xmm0

; 320  : 		Row[2][2] = (float)(s*tmp1 + c*tmp2);

	movss	xmm0, DWORD PTR _s$[ebp]
	mulss	xmm0, DWORD PTR _tmp1$[ebp]
	movss	xmm1, DWORD PTR _c$[ebp]
	mulss	xmm1, DWORD PTR _tmp2$[ebp]
	addss	xmm0, xmm1
	push	2
	mov	ecx, 16					; 00000010H
	shl	ecx, 1
	add	ecx, DWORD PTR _this$[ebp]
	movss	DWORD PTR tv303[ebp], xmm0
	call	??AVector4@@QAEAAMH@Z			; Vector4::operator[]
	movss	xmm0, DWORD PTR tv303[ebp]
	movss	DWORD PTR [eax], xmm0

; 321  : 		tmp1 = Row[1][3]; tmp2 = Row[2][3];

	push	3
	mov	ecx, 16					; 00000010H
	shl	ecx, 0
	add	ecx, DWORD PTR _this$[ebp]
	call	??AVector4@@QAEAAMH@Z			; Vector4::operator[]
	movss	xmm0, DWORD PTR [eax]
	movss	DWORD PTR _tmp1$[ebp], xmm0
	push	3
	mov	ecx, 16					; 00000010H
	shl	ecx, 1
	add	ecx, DWORD PTR _this$[ebp]
	call	??AVector4@@QAEAAMH@Z			; Vector4::operator[]
	movss	xmm0, DWORD PTR [eax]
	movss	DWORD PTR _tmp2$[ebp], xmm0

; 322  : 		Row[1][3] = (float)(c*tmp1 - s*tmp2);

	movss	xmm0, DWORD PTR _c$[ebp]
	mulss	xmm0, DWORD PTR _tmp1$[ebp]
	movss	xmm1, DWORD PTR _s$[ebp]
	mulss	xmm1, DWORD PTR _tmp2$[ebp]
	subss	xmm0, xmm1
	push	3
	mov	ecx, 16					; 00000010H
	shl	ecx, 0
	add	ecx, DWORD PTR _this$[ebp]
	movss	DWORD PTR tv305[ebp], xmm0
	call	??AVector4@@QAEAAMH@Z			; Vector4::operator[]
	movss	xmm0, DWORD PTR tv305[ebp]
	movss	DWORD PTR [eax], xmm0

; 323  : 		Row[2][3] = (float)(s*tmp1 + c*tmp2);

	movss	xmm0, DWORD PTR _s$[ebp]
	mulss	xmm0, DWORD PTR _tmp1$[ebp]
	movss	xmm1, DWORD PTR _c$[ebp]
	mulss	xmm1, DWORD PTR _tmp2$[ebp]
	addss	xmm0, xmm1
	push	3
	mov	ecx, 16					; 00000010H
	shl	ecx, 1
	add	ecx, DWORD PTR _this$[ebp]
	movss	DWORD PTR tv307[ebp], xmm0
	call	??AVector4@@QAEAAMH@Z			; Vector4::operator[]
	movss	xmm0, DWORD PTR tv307[ebp]
	movss	DWORD PTR [eax], xmm0

; 324  : 	}

	pop	edi
	pop	esi
	pop	ebx
	mov	esp, ebp
	pop	ebp
	ret	4
?Pre_Rotate_X@Matrix3D@@QAEXM@Z ENDP			; Matrix3D::Pre_Rotate_X
_TEXT	ENDS
; Function compile flags: /Odtp /ZI
; File x:\github\renegade\dragonade_rxd\scripts\matrix3d.h
;	COMDAT ?Scale@Matrix3D@@QAEXAAVVector3@@@Z
_TEXT	SEGMENT
_this$ = -4						; size = 4
_scale$ = 8						; size = 4
?Scale@Matrix3D@@QAEXAAVVector3@@@Z PROC		; Matrix3D::Scale, COMDAT
; _this$ = ecx

; 303  : 	{

	push	ebp
	mov	ebp, esp
	sub	esp, 68					; 00000044H
	push	ebx
	push	esi
	push	edi
	mov	DWORD PTR _this$[ebp], ecx

; 304  : 		Scale(scale.X, scale.Y, scale.Z);

	mov	eax, DWORD PTR _scale$[ebp]
	push	ecx
	movss	xmm0, DWORD PTR [eax+8]
	movss	DWORD PTR [esp], xmm0
	mov	ecx, DWORD PTR _scale$[ebp]
	push	ecx
	movss	xmm0, DWORD PTR [ecx+4]
	movss	DWORD PTR [esp], xmm0
	mov	edx, DWORD PTR _scale$[ebp]
	push	ecx
	movss	xmm0, DWORD PTR [edx]
	movss	DWORD PTR [esp], xmm0
	mov	ecx, DWORD PTR _this$[ebp]
	call	?Scale@Matrix3D@@QAEXMMM@Z		; Matrix3D::Scale

; 305  : 	}

	pop	edi
	pop	esi
	pop	ebx
	mov	esp, ebp
	pop	ebp
	ret	4
?Scale@Matrix3D@@QAEXAAVVector3@@@Z ENDP		; Matrix3D::Scale
_TEXT	ENDS
; Function compile flags: /Odtp /ZI
; File x:\github\renegade\dragonade_rxd\scripts\matrix3d.h
;	COMDAT ?Scale@Matrix3D@@QAEXMMM@Z
_TEXT	SEGMENT
tv166 = -72						; size = 4
tv158 = -72						; size = 4
tv150 = -72						; size = 4
tv142 = -72						; size = 4
tv134 = -72						; size = 4
tv94 = -72						; size = 4
tv86 = -72						; size = 4
tv78 = -72						; size = 4
tv70 = -72						; size = 4
_this$ = -4						; size = 4
_x$ = 8							; size = 4
_y$ = 12						; size = 4
_z$ = 16						; size = 4
?Scale@Matrix3D@@QAEXMMM@Z PROC				; Matrix3D::Scale, COMDAT
; _this$ = ecx

; 291  : 	{

	push	ebp
	mov	ebp, esp
	sub	esp, 72					; 00000048H
	push	ebx
	push	esi
	push	edi
	mov	DWORD PTR _this$[ebp], ecx

; 292  : 		Row[0][0] *= x;

	push	0
	mov	ecx, 16					; 00000010H
	imul	ecx, 0
	add	ecx, DWORD PTR _this$[ebp]
	call	??AVector4@@QAEAAMH@Z			; Vector4::operator[]
	mov	DWORD PTR tv70[ebp], eax
	mov	eax, DWORD PTR tv70[ebp]
	movss	xmm0, DWORD PTR [eax]
	mulss	xmm0, DWORD PTR _x$[ebp]
	mov	ecx, DWORD PTR tv70[ebp]
	movss	DWORD PTR [ecx], xmm0

; 293  : 		Row[1][0] *= x;

	push	0
	mov	ecx, 16					; 00000010H
	shl	ecx, 0
	add	ecx, DWORD PTR _this$[ebp]
	call	??AVector4@@QAEAAMH@Z			; Vector4::operator[]
	mov	DWORD PTR tv78[ebp], eax
	mov	eax, DWORD PTR tv78[ebp]
	movss	xmm0, DWORD PTR [eax]
	mulss	xmm0, DWORD PTR _x$[ebp]
	mov	ecx, DWORD PTR tv78[ebp]
	movss	DWORD PTR [ecx], xmm0

; 294  : 		Row[2][0] *= x;

	push	0
	mov	ecx, 16					; 00000010H
	shl	ecx, 1
	add	ecx, DWORD PTR _this$[ebp]
	call	??AVector4@@QAEAAMH@Z			; Vector4::operator[]
	mov	DWORD PTR tv86[ebp], eax
	mov	eax, DWORD PTR tv86[ebp]
	movss	xmm0, DWORD PTR [eax]
	mulss	xmm0, DWORD PTR _x$[ebp]
	mov	ecx, DWORD PTR tv86[ebp]
	movss	DWORD PTR [ecx], xmm0

; 295  : 		Row[0][1] *= y;

	push	1
	mov	ecx, 16					; 00000010H
	imul	ecx, 0
	add	ecx, DWORD PTR _this$[ebp]
	call	??AVector4@@QAEAAMH@Z			; Vector4::operator[]
	mov	DWORD PTR tv94[ebp], eax
	mov	eax, DWORD PTR tv94[ebp]
	movss	xmm0, DWORD PTR [eax]
	mulss	xmm0, DWORD PTR _y$[ebp]
	mov	ecx, DWORD PTR tv94[ebp]
	movss	DWORD PTR [ecx], xmm0

; 296  : 		Row[1][1] *= y;

	push	1
	mov	ecx, 16					; 00000010H
	shl	ecx, 0
	add	ecx, DWORD PTR _this$[ebp]
	call	??AVector4@@QAEAAMH@Z			; Vector4::operator[]
	mov	DWORD PTR tv134[ebp], eax
	mov	eax, DWORD PTR tv134[ebp]
	movss	xmm0, DWORD PTR [eax]
	mulss	xmm0, DWORD PTR _y$[ebp]
	mov	ecx, DWORD PTR tv134[ebp]
	movss	DWORD PTR [ecx], xmm0

; 297  : 		Row[2][1] *= y;

	push	1
	mov	ecx, 16					; 00000010H
	shl	ecx, 1
	add	ecx, DWORD PTR _this$[ebp]
	call	??AVector4@@QAEAAMH@Z			; Vector4::operator[]
	mov	DWORD PTR tv142[ebp], eax
	mov	eax, DWORD PTR tv142[ebp]
	movss	xmm0, DWORD PTR [eax]
	mulss	xmm0, DWORD PTR _y$[ebp]
	mov	ecx, DWORD PTR tv142[ebp]
	movss	DWORD PTR [ecx], xmm0

; 298  : 		Row[0][2] *= z;

	push	2
	mov	ecx, 16					; 00000010H
	imul	ecx, 0
	add	ecx, DWORD PTR _this$[ebp]
	call	??AVector4@@QAEAAMH@Z			; Vector4::operator[]
	mov	DWORD PTR tv150[ebp], eax
	mov	eax, DWORD PTR tv150[ebp]
	movss	xmm0, DWORD PTR [eax]
	mulss	xmm0, DWORD PTR _z$[ebp]
	mov	ecx, DWORD PTR tv150[ebp]
	movss	DWORD PTR [ecx], xmm0

; 299  : 		Row[1][2] *= z;

	push	2
	mov	ecx, 16					; 00000010H
	shl	ecx, 0
	add	ecx, DWORD PTR _this$[ebp]
	call	??AVector4@@QAEAAMH@Z			; Vector4::operator[]
	mov	DWORD PTR tv158[ebp], eax
	mov	eax, DWORD PTR tv158[ebp]
	movss	xmm0, DWORD PTR [eax]
	mulss	xmm0, DWORD PTR _z$[ebp]
	mov	ecx, DWORD PTR tv158[ebp]
	movss	DWORD PTR [ecx], xmm0

; 300  : 		Row[2][2] *= z;

	push	2
	mov	ecx, 16					; 00000010H
	shl	ecx, 1
	add	ecx, DWORD PTR _this$[ebp]
	call	??AVector4@@QAEAAMH@Z			; Vector4::operator[]
	mov	DWORD PTR tv166[ebp], eax
	mov	eax, DWORD PTR tv166[ebp]
	movss	xmm0, DWORD PTR [eax]
	mulss	xmm0, DWORD PTR _z$[ebp]
	mov	ecx, DWORD PTR tv166[ebp]
	movss	DWORD PTR [ecx], xmm0

; 301  : 	}

	pop	edi
	pop	esi
	pop	ebx
	mov	esp, ebp
	pop	ebp
	ret	12					; 0000000cH
?Scale@Matrix3D@@QAEXMMM@Z ENDP				; Matrix3D::Scale
_TEXT	ENDS
; Function compile flags: /Odtp /ZI
; File x:\github\renegade\dragonade_rxd\scripts\matrix3d.h
;	COMDAT ?Scale@Matrix3D@@QAEXM@Z
_TEXT	SEGMENT
tv166 = -72						; size = 4
tv158 = -72						; size = 4
tv150 = -72						; size = 4
tv142 = -72						; size = 4
tv134 = -72						; size = 4
tv94 = -72						; size = 4
tv86 = -72						; size = 4
tv78 = -72						; size = 4
tv70 = -72						; size = 4
_this$ = -4						; size = 4
_scale$ = 8						; size = 4
?Scale@Matrix3D@@QAEXM@Z PROC				; Matrix3D::Scale, COMDAT
; _this$ = ecx

; 279  : 	{

	push	ebp
	mov	ebp, esp
	sub	esp, 72					; 00000048H
	push	ebx
	push	esi
	push	edi
	mov	DWORD PTR _this$[ebp], ecx

; 280  : 		Row[0][0] *= scale;

	push	0
	mov	ecx, 16					; 00000010H
	imul	ecx, 0
	add	ecx, DWORD PTR _this$[ebp]
	call	??AVector4@@QAEAAMH@Z			; Vector4::operator[]
	mov	DWORD PTR tv70[ebp], eax
	mov	eax, DWORD PTR tv70[ebp]
	movss	xmm0, DWORD PTR [eax]
	mulss	xmm0, DWORD PTR _scale$[ebp]
	mov	ecx, DWORD PTR tv70[ebp]
	movss	DWORD PTR [ecx], xmm0

; 281  : 		Row[1][0] *= scale;

	push	0
	mov	ecx, 16					; 00000010H
	shl	ecx, 0
	add	ecx, DWORD PTR _this$[ebp]
	call	??AVector4@@QAEAAMH@Z			; Vector4::operator[]
	mov	DWORD PTR tv78[ebp], eax
	mov	eax, DWORD PTR tv78[ebp]
	movss	xmm0, DWORD PTR [eax]
	mulss	xmm0, DWORD PTR _scale$[ebp]
	mov	ecx, DWORD PTR tv78[ebp]
	movss	DWORD PTR [ecx], xmm0

; 282  : 		Row[2][0] *= scale;

	push	0
	mov	ecx, 16					; 00000010H
	shl	ecx, 1
	add	ecx, DWORD PTR _this$[ebp]
	call	??AVector4@@QAEAAMH@Z			; Vector4::operator[]
	mov	DWORD PTR tv86[ebp], eax
	mov	eax, DWORD PTR tv86[ebp]
	movss	xmm0, DWORD PTR [eax]
	mulss	xmm0, DWORD PTR _scale$[ebp]
	mov	ecx, DWORD PTR tv86[ebp]
	movss	DWORD PTR [ecx], xmm0

; 283  : 		Row[0][1] *= scale;

	push	1
	mov	ecx, 16					; 00000010H
	imul	ecx, 0
	add	ecx, DWORD PTR _this$[ebp]
	call	??AVector4@@QAEAAMH@Z			; Vector4::operator[]
	mov	DWORD PTR tv94[ebp], eax
	mov	eax, DWORD PTR tv94[ebp]
	movss	xmm0, DWORD PTR [eax]
	mulss	xmm0, DWORD PTR _scale$[ebp]
	mov	ecx, DWORD PTR tv94[ebp]
	movss	DWORD PTR [ecx], xmm0

; 284  : 		Row[1][1] *= scale;

	push	1
	mov	ecx, 16					; 00000010H
	shl	ecx, 0
	add	ecx, DWORD PTR _this$[ebp]
	call	??AVector4@@QAEAAMH@Z			; Vector4::operator[]
	mov	DWORD PTR tv134[ebp], eax
	mov	eax, DWORD PTR tv134[ebp]
	movss	xmm0, DWORD PTR [eax]
	mulss	xmm0, DWORD PTR _scale$[ebp]
	mov	ecx, DWORD PTR tv134[ebp]
	movss	DWORD PTR [ecx], xmm0

; 285  : 		Row[2][1] *= scale;

	push	1
	mov	ecx, 16					; 00000010H
	shl	ecx, 1
	add	ecx, DWORD PTR _this$[ebp]
	call	??AVector4@@QAEAAMH@Z			; Vector4::operator[]
	mov	DWORD PTR tv142[ebp], eax
	mov	eax, DWORD PTR tv142[ebp]
	movss	xmm0, DWORD PTR [eax]
	mulss	xmm0, DWORD PTR _scale$[ebp]
	mov	ecx, DWORD PTR tv142[ebp]
	movss	DWORD PTR [ecx], xmm0

; 286  : 		Row[0][2] *= scale;

	push	2
	mov	ecx, 16					; 00000010H
	imul	ecx, 0
	add	ecx, DWORD PTR _this$[ebp]
	call	??AVector4@@QAEAAMH@Z			; Vector4::operator[]
	mov	DWORD PTR tv150[ebp], eax
	mov	eax, DWORD PTR tv150[ebp]
	movss	xmm0, DWORD PTR [eax]
	mulss	xmm0, DWORD PTR _scale$[ebp]
	mov	ecx, DWORD PTR tv150[ebp]
	movss	DWORD PTR [ecx], xmm0

; 287  : 		Row[1][2] *= scale;

	push	2
	mov	ecx, 16					; 00000010H
	shl	ecx, 0
	add	ecx, DWORD PTR _this$[ebp]
	call	??AVector4@@QAEAAMH@Z			; Vector4::operator[]
	mov	DWORD PTR tv158[ebp], eax
	mov	eax, DWORD PTR tv158[ebp]
	movss	xmm0, DWORD PTR [eax]
	mulss	xmm0, DWORD PTR _scale$[ebp]
	mov	ecx, DWORD PTR tv158[ebp]
	movss	DWORD PTR [ecx], xmm0

; 288  : 		Row[2][2] *= scale;

	push	2
	mov	ecx, 16					; 00000010H
	shl	ecx, 1
	add	ecx, DWORD PTR _this$[ebp]
	call	??AVector4@@QAEAAMH@Z			; Vector4::operator[]
	mov	DWORD PTR tv166[ebp], eax
	mov	eax, DWORD PTR tv166[ebp]
	movss	xmm0, DWORD PTR [eax]
	mulss	xmm0, DWORD PTR _scale$[ebp]
	mov	ecx, DWORD PTR tv166[ebp]
	movss	DWORD PTR [ecx], xmm0

; 289  : 	}

	pop	edi
	pop	esi
	pop	ebx
	mov	esp, ebp
	pop	ebp
	ret	4
?Scale@Matrix3D@@QAEXM@Z ENDP				; Matrix3D::Scale
_TEXT	ENDS
; Function compile flags: /Odtp /ZI
; File x:\github\renegade\dragonade_rxd\scripts\matrix3d.h
;	COMDAT ?Rotate_Z@Matrix3D@@QAEXMM@Z
_TEXT	SEGMENT
tv248 = -80						; size = 4
tv246 = -80						; size = 4
tv244 = -80						; size = 4
tv242 = -80						; size = 4
tv240 = -80						; size = 4
tv238 = -80						; size = 4
_tmp2$ = -12						; size = 4
_tmp1$ = -8						; size = 4
_this$ = -4						; size = 4
_s$ = 8							; size = 4
_c$ = 12						; size = 4
?Rotate_Z@Matrix3D@@QAEXMM@Z PROC			; Matrix3D::Rotate_Z, COMDAT
; _this$ = ecx

; 266  : 	{

	push	ebp
	mov	ebp, esp
	sub	esp, 80					; 00000050H
	push	ebx
	push	esi
	push	edi
	mov	DWORD PTR _this$[ebp], ecx

; 267  : 		float tmp1,tmp2;
; 268  : 		tmp1 = Row[0][0]; tmp2 = Row[0][1];

	push	0
	mov	ecx, 16					; 00000010H
	imul	ecx, 0
	add	ecx, DWORD PTR _this$[ebp]
	call	??AVector4@@QAEAAMH@Z			; Vector4::operator[]
	movss	xmm0, DWORD PTR [eax]
	movss	DWORD PTR _tmp1$[ebp], xmm0
	push	1
	mov	ecx, 16					; 00000010H
	imul	ecx, 0
	add	ecx, DWORD PTR _this$[ebp]
	call	??AVector4@@QAEAAMH@Z			; Vector4::operator[]
	movss	xmm0, DWORD PTR [eax]
	movss	DWORD PTR _tmp2$[ebp], xmm0

; 269  : 		Row[0][0] = (float)( c*tmp1 + s*tmp2);

	movss	xmm0, DWORD PTR _c$[ebp]
	mulss	xmm0, DWORD PTR _tmp1$[ebp]
	movss	xmm1, DWORD PTR _s$[ebp]
	mulss	xmm1, DWORD PTR _tmp2$[ebp]
	addss	xmm0, xmm1
	push	0
	mov	ecx, 16					; 00000010H
	imul	ecx, 0
	add	ecx, DWORD PTR _this$[ebp]
	movss	DWORD PTR tv238[ebp], xmm0
	call	??AVector4@@QAEAAMH@Z			; Vector4::operator[]
	movss	xmm0, DWORD PTR tv238[ebp]
	movss	DWORD PTR [eax], xmm0

; 270  : 		Row[0][1] = (float)(-s*tmp1 + c*tmp2);

	movss	xmm0, DWORD PTR _s$[ebp]
	xorps	xmm0, DWORD PTR __xmm@80000000800000008000000080000000
	mulss	xmm0, DWORD PTR _tmp1$[ebp]
	movss	xmm1, DWORD PTR _c$[ebp]
	mulss	xmm1, DWORD PTR _tmp2$[ebp]
	addss	xmm0, xmm1
	push	1
	mov	ecx, 16					; 00000010H
	imul	ecx, 0
	add	ecx, DWORD PTR _this$[ebp]
	movss	DWORD PTR tv240[ebp], xmm0
	call	??AVector4@@QAEAAMH@Z			; Vector4::operator[]
	movss	xmm0, DWORD PTR tv240[ebp]
	movss	DWORD PTR [eax], xmm0

; 271  : 		tmp1 = Row[1][0]; tmp2 = Row[1][1];

	push	0
	mov	ecx, 16					; 00000010H
	shl	ecx, 0
	add	ecx, DWORD PTR _this$[ebp]
	call	??AVector4@@QAEAAMH@Z			; Vector4::operator[]
	movss	xmm0, DWORD PTR [eax]
	movss	DWORD PTR _tmp1$[ebp], xmm0
	push	1
	mov	ecx, 16					; 00000010H
	shl	ecx, 0
	add	ecx, DWORD PTR _this$[ebp]
	call	??AVector4@@QAEAAMH@Z			; Vector4::operator[]
	movss	xmm0, DWORD PTR [eax]
	movss	DWORD PTR _tmp2$[ebp], xmm0

; 272  : 		Row[1][0] = (float)( c*tmp1 + s*tmp2);

	movss	xmm0, DWORD PTR _c$[ebp]
	mulss	xmm0, DWORD PTR _tmp1$[ebp]
	movss	xmm1, DWORD PTR _s$[ebp]
	mulss	xmm1, DWORD PTR _tmp2$[ebp]
	addss	xmm0, xmm1
	push	0
	mov	ecx, 16					; 00000010H
	shl	ecx, 0
	add	ecx, DWORD PTR _this$[ebp]
	movss	DWORD PTR tv242[ebp], xmm0
	call	??AVector4@@QAEAAMH@Z			; Vector4::operator[]
	movss	xmm0, DWORD PTR tv242[ebp]
	movss	DWORD PTR [eax], xmm0

; 273  : 		Row[1][1] = (float)(-s*tmp1 + c*tmp2);

	movss	xmm0, DWORD PTR _s$[ebp]
	xorps	xmm0, DWORD PTR __xmm@80000000800000008000000080000000
	mulss	xmm0, DWORD PTR _tmp1$[ebp]
	movss	xmm1, DWORD PTR _c$[ebp]
	mulss	xmm1, DWORD PTR _tmp2$[ebp]
	addss	xmm0, xmm1
	push	1
	mov	ecx, 16					; 00000010H
	shl	ecx, 0
	add	ecx, DWORD PTR _this$[ebp]
	movss	DWORD PTR tv244[ebp], xmm0
	call	??AVector4@@QAEAAMH@Z			; Vector4::operator[]
	movss	xmm0, DWORD PTR tv244[ebp]
	movss	DWORD PTR [eax], xmm0

; 274  : 		tmp1 = Row[2][0]; tmp2 = Row[2][1];

	push	0
	mov	ecx, 16					; 00000010H
	shl	ecx, 1
	add	ecx, DWORD PTR _this$[ebp]
	call	??AVector4@@QAEAAMH@Z			; Vector4::operator[]
	movss	xmm0, DWORD PTR [eax]
	movss	DWORD PTR _tmp1$[ebp], xmm0
	push	1
	mov	ecx, 16					; 00000010H
	shl	ecx, 1
	add	ecx, DWORD PTR _this$[ebp]
	call	??AVector4@@QAEAAMH@Z			; Vector4::operator[]
	movss	xmm0, DWORD PTR [eax]
	movss	DWORD PTR _tmp2$[ebp], xmm0

; 275  : 		Row[2][0] = (float)( c*tmp1 + s*tmp2);

	movss	xmm0, DWORD PTR _c$[ebp]
	mulss	xmm0, DWORD PTR _tmp1$[ebp]
	movss	xmm1, DWORD PTR _s$[ebp]
	mulss	xmm1, DWORD PTR _tmp2$[ebp]
	addss	xmm0, xmm1
	push	0
	mov	ecx, 16					; 00000010H
	shl	ecx, 1
	add	ecx, DWORD PTR _this$[ebp]
	movss	DWORD PTR tv246[ebp], xmm0
	call	??AVector4@@QAEAAMH@Z			; Vector4::operator[]
	movss	xmm0, DWORD PTR tv246[ebp]
	movss	DWORD PTR [eax], xmm0

; 276  : 		Row[2][1] = (float)(-s*tmp1 + c*tmp2);

	movss	xmm0, DWORD PTR _s$[ebp]
	xorps	xmm0, DWORD PTR __xmm@80000000800000008000000080000000
	mulss	xmm0, DWORD PTR _tmp1$[ebp]
	movss	xmm1, DWORD PTR _c$[ebp]
	mulss	xmm1, DWORD PTR _tmp2$[ebp]
	addss	xmm0, xmm1
	push	1
	mov	ecx, 16					; 00000010H
	shl	ecx, 1
	add	ecx, DWORD PTR _this$[ebp]
	movss	DWORD PTR tv248[ebp], xmm0
	call	??AVector4@@QAEAAMH@Z			; Vector4::operator[]
	movss	xmm0, DWORD PTR tv248[ebp]
	movss	DWORD PTR [eax], xmm0

; 277  : 	}

	pop	edi
	pop	esi
	pop	ebx
	mov	esp, ebp
	pop	ebp
	ret	8
?Rotate_Z@Matrix3D@@QAEXMM@Z ENDP			; Matrix3D::Rotate_Z
_TEXT	ENDS
; Function compile flags: /Odtp /ZI
; File x:\github\renegade\dragonade_rxd\scripts\matrix3d.h
;	COMDAT ?Rotate_Y@Matrix3D@@QAEXMM@Z
_TEXT	SEGMENT
tv245 = -80						; size = 4
tv243 = -80						; size = 4
tv241 = -80						; size = 4
tv239 = -80						; size = 4
tv237 = -80						; size = 4
tv235 = -80						; size = 4
_tmp2$ = -12						; size = 4
_tmp1$ = -8						; size = 4
_this$ = -4						; size = 4
_s$ = 8							; size = 4
_c$ = 12						; size = 4
?Rotate_Y@Matrix3D@@QAEXMM@Z PROC			; Matrix3D::Rotate_Y, COMDAT
; _this$ = ecx

; 253  : 	{

	push	ebp
	mov	ebp, esp
	sub	esp, 80					; 00000050H
	push	ebx
	push	esi
	push	edi
	mov	DWORD PTR _this$[ebp], ecx

; 254  : 		float tmp1,tmp2;
; 255  : 		tmp1 = Row[0][0]; tmp2 = Row[0][2];

	push	0
	mov	ecx, 16					; 00000010H
	imul	ecx, 0
	add	ecx, DWORD PTR _this$[ebp]
	call	??AVector4@@QAEAAMH@Z			; Vector4::operator[]
	movss	xmm0, DWORD PTR [eax]
	movss	DWORD PTR _tmp1$[ebp], xmm0
	push	2
	mov	ecx, 16					; 00000010H
	imul	ecx, 0
	add	ecx, DWORD PTR _this$[ebp]
	call	??AVector4@@QAEAAMH@Z			; Vector4::operator[]
	movss	xmm0, DWORD PTR [eax]
	movss	DWORD PTR _tmp2$[ebp], xmm0

; 256  : 		Row[0][0] = (float)(c*tmp1 - s*tmp2);

	movss	xmm0, DWORD PTR _c$[ebp]
	mulss	xmm0, DWORD PTR _tmp1$[ebp]
	movss	xmm1, DWORD PTR _s$[ebp]
	mulss	xmm1, DWORD PTR _tmp2$[ebp]
	subss	xmm0, xmm1
	push	0
	mov	ecx, 16					; 00000010H
	imul	ecx, 0
	add	ecx, DWORD PTR _this$[ebp]
	movss	DWORD PTR tv235[ebp], xmm0
	call	??AVector4@@QAEAAMH@Z			; Vector4::operator[]
	movss	xmm0, DWORD PTR tv235[ebp]
	movss	DWORD PTR [eax], xmm0

; 257  : 		Row[0][2] = (float)(s*tmp1 + c*tmp2);

	movss	xmm0, DWORD PTR _s$[ebp]
	mulss	xmm0, DWORD PTR _tmp1$[ebp]
	movss	xmm1, DWORD PTR _c$[ebp]
	mulss	xmm1, DWORD PTR _tmp2$[ebp]
	addss	xmm0, xmm1
	push	2
	mov	ecx, 16					; 00000010H
	imul	ecx, 0
	add	ecx, DWORD PTR _this$[ebp]
	movss	DWORD PTR tv237[ebp], xmm0
	call	??AVector4@@QAEAAMH@Z			; Vector4::operator[]
	movss	xmm0, DWORD PTR tv237[ebp]
	movss	DWORD PTR [eax], xmm0

; 258  : 		tmp1 = Row[1][0]; tmp2 = Row[1][2];

	push	0
	mov	ecx, 16					; 00000010H
	shl	ecx, 0
	add	ecx, DWORD PTR _this$[ebp]
	call	??AVector4@@QAEAAMH@Z			; Vector4::operator[]
	movss	xmm0, DWORD PTR [eax]
	movss	DWORD PTR _tmp1$[ebp], xmm0
	push	2
	mov	ecx, 16					; 00000010H
	shl	ecx, 0
	add	ecx, DWORD PTR _this$[ebp]
	call	??AVector4@@QAEAAMH@Z			; Vector4::operator[]
	movss	xmm0, DWORD PTR [eax]
	movss	DWORD PTR _tmp2$[ebp], xmm0

; 259  : 		Row[1][0] = (float)(c*tmp1 - s*tmp2);

	movss	xmm0, DWORD PTR _c$[ebp]
	mulss	xmm0, DWORD PTR _tmp1$[ebp]
	movss	xmm1, DWORD PTR _s$[ebp]
	mulss	xmm1, DWORD PTR _tmp2$[ebp]
	subss	xmm0, xmm1
	push	0
	mov	ecx, 16					; 00000010H
	shl	ecx, 0
	add	ecx, DWORD PTR _this$[ebp]
	movss	DWORD PTR tv239[ebp], xmm0
	call	??AVector4@@QAEAAMH@Z			; Vector4::operator[]
	movss	xmm0, DWORD PTR tv239[ebp]
	movss	DWORD PTR [eax], xmm0

; 260  : 		Row[1][2] = (float)(s*tmp1 + c*tmp2);

	movss	xmm0, DWORD PTR _s$[ebp]
	mulss	xmm0, DWORD PTR _tmp1$[ebp]
	movss	xmm1, DWORD PTR _c$[ebp]
	mulss	xmm1, DWORD PTR _tmp2$[ebp]
	addss	xmm0, xmm1
	push	2
	mov	ecx, 16					; 00000010H
	shl	ecx, 0
	add	ecx, DWORD PTR _this$[ebp]
	movss	DWORD PTR tv241[ebp], xmm0
	call	??AVector4@@QAEAAMH@Z			; Vector4::operator[]
	movss	xmm0, DWORD PTR tv241[ebp]
	movss	DWORD PTR [eax], xmm0

; 261  : 		tmp1 = Row[2][0]; tmp2 = Row[2][2];

	push	0
	mov	ecx, 16					; 00000010H
	shl	ecx, 1
	add	ecx, DWORD PTR _this$[ebp]
	call	??AVector4@@QAEAAMH@Z			; Vector4::operator[]
	movss	xmm0, DWORD PTR [eax]
	movss	DWORD PTR _tmp1$[ebp], xmm0
	push	2
	mov	ecx, 16					; 00000010H
	shl	ecx, 1
	add	ecx, DWORD PTR _this$[ebp]
	call	??AVector4@@QAEAAMH@Z			; Vector4::operator[]
	movss	xmm0, DWORD PTR [eax]
	movss	DWORD PTR _tmp2$[ebp], xmm0

; 262  : 		Row[2][0] = (float)(c*tmp1 - s*tmp2);

	movss	xmm0, DWORD PTR _c$[ebp]
	mulss	xmm0, DWORD PTR _tmp1$[ebp]
	movss	xmm1, DWORD PTR _s$[ebp]
	mulss	xmm1, DWORD PTR _tmp2$[ebp]
	subss	xmm0, xmm1
	push	0
	mov	ecx, 16					; 00000010H
	shl	ecx, 1
	add	ecx, DWORD PTR _this$[ebp]
	movss	DWORD PTR tv243[ebp], xmm0
	call	??AVector4@@QAEAAMH@Z			; Vector4::operator[]
	movss	xmm0, DWORD PTR tv243[ebp]
	movss	DWORD PTR [eax], xmm0

; 263  : 		Row[2][2] = (float)(s*tmp1 + c*tmp2);

	movss	xmm0, DWORD PTR _s$[ebp]
	mulss	xmm0, DWORD PTR _tmp1$[ebp]
	movss	xmm1, DWORD PTR _c$[ebp]
	mulss	xmm1, DWORD PTR _tmp2$[ebp]
	addss	xmm0, xmm1
	push	2
	mov	ecx, 16					; 00000010H
	shl	ecx, 1
	add	ecx, DWORD PTR _this$[ebp]
	movss	DWORD PTR tv245[ebp], xmm0
	call	??AVector4@@QAEAAMH@Z			; Vector4::operator[]
	movss	xmm0, DWORD PTR tv245[ebp]
	movss	DWORD PTR [eax], xmm0

; 264  : 	}

	pop	edi
	pop	esi
	pop	ebx
	mov	esp, ebp
	pop	ebp
	ret	8
?Rotate_Y@Matrix3D@@QAEXMM@Z ENDP			; Matrix3D::Rotate_Y
_TEXT	ENDS
; Function compile flags: /Odtp /ZI
; File x:\github\renegade\dragonade_rxd\scripts\matrix3d.h
;	COMDAT ?Rotate_X@Matrix3D@@QAEXMM@Z
_TEXT	SEGMENT
tv248 = -80						; size = 4
tv246 = -80						; size = 4
tv244 = -80						; size = 4
tv242 = -80						; size = 4
tv240 = -80						; size = 4
tv238 = -80						; size = 4
_tmp2$ = -12						; size = 4
_tmp1$ = -8						; size = 4
_this$ = -4						; size = 4
_s$ = 8							; size = 4
_c$ = 12						; size = 4
?Rotate_X@Matrix3D@@QAEXMM@Z PROC			; Matrix3D::Rotate_X, COMDAT
; _this$ = ecx

; 240  : 	{

	push	ebp
	mov	ebp, esp
	sub	esp, 80					; 00000050H
	push	ebx
	push	esi
	push	edi
	mov	DWORD PTR _this$[ebp], ecx

; 241  : 		float tmp1,tmp2;
; 242  : 		tmp1 = Row[0][1]; tmp2 = Row[0][2];

	push	1
	mov	ecx, 16					; 00000010H
	imul	ecx, 0
	add	ecx, DWORD PTR _this$[ebp]
	call	??AVector4@@QAEAAMH@Z			; Vector4::operator[]
	movss	xmm0, DWORD PTR [eax]
	movss	DWORD PTR _tmp1$[ebp], xmm0
	push	2
	mov	ecx, 16					; 00000010H
	imul	ecx, 0
	add	ecx, DWORD PTR _this$[ebp]
	call	??AVector4@@QAEAAMH@Z			; Vector4::operator[]
	movss	xmm0, DWORD PTR [eax]
	movss	DWORD PTR _tmp2$[ebp], xmm0

; 243  : 		Row[0][1] = (float)( c*tmp1 + s*tmp2);

	movss	xmm0, DWORD PTR _c$[ebp]
	mulss	xmm0, DWORD PTR _tmp1$[ebp]
	movss	xmm1, DWORD PTR _s$[ebp]
	mulss	xmm1, DWORD PTR _tmp2$[ebp]
	addss	xmm0, xmm1
	push	1
	mov	ecx, 16					; 00000010H
	imul	ecx, 0
	add	ecx, DWORD PTR _this$[ebp]
	movss	DWORD PTR tv238[ebp], xmm0
	call	??AVector4@@QAEAAMH@Z			; Vector4::operator[]
	movss	xmm0, DWORD PTR tv238[ebp]
	movss	DWORD PTR [eax], xmm0

; 244  : 		Row[0][2] = (float)(-s*tmp1 + c*tmp2);

	movss	xmm0, DWORD PTR _s$[ebp]
	xorps	xmm0, DWORD PTR __xmm@80000000800000008000000080000000
	mulss	xmm0, DWORD PTR _tmp1$[ebp]
	movss	xmm1, DWORD PTR _c$[ebp]
	mulss	xmm1, DWORD PTR _tmp2$[ebp]
	addss	xmm0, xmm1
	push	2
	mov	ecx, 16					; 00000010H
	imul	ecx, 0
	add	ecx, DWORD PTR _this$[ebp]
	movss	DWORD PTR tv240[ebp], xmm0
	call	??AVector4@@QAEAAMH@Z			; Vector4::operator[]
	movss	xmm0, DWORD PTR tv240[ebp]
	movss	DWORD PTR [eax], xmm0

; 245  : 		tmp1 = Row[1][1]; tmp2 = Row[1][2];

	push	1
	mov	ecx, 16					; 00000010H
	shl	ecx, 0
	add	ecx, DWORD PTR _this$[ebp]
	call	??AVector4@@QAEAAMH@Z			; Vector4::operator[]
	movss	xmm0, DWORD PTR [eax]
	movss	DWORD PTR _tmp1$[ebp], xmm0
	push	2
	mov	ecx, 16					; 00000010H
	shl	ecx, 0
	add	ecx, DWORD PTR _this$[ebp]
	call	??AVector4@@QAEAAMH@Z			; Vector4::operator[]
	movss	xmm0, DWORD PTR [eax]
	movss	DWORD PTR _tmp2$[ebp], xmm0

; 246  : 		Row[1][1] = (float)( c*tmp1 + s*tmp2);

	movss	xmm0, DWORD PTR _c$[ebp]
	mulss	xmm0, DWORD PTR _tmp1$[ebp]
	movss	xmm1, DWORD PTR _s$[ebp]
	mulss	xmm1, DWORD PTR _tmp2$[ebp]
	addss	xmm0, xmm1
	push	1
	mov	ecx, 16					; 00000010H
	shl	ecx, 0
	add	ecx, DWORD PTR _this$[ebp]
	movss	DWORD PTR tv242[ebp], xmm0
	call	??AVector4@@QAEAAMH@Z			; Vector4::operator[]
	movss	xmm0, DWORD PTR tv242[ebp]
	movss	DWORD PTR [eax], xmm0

; 247  : 		Row[1][2] = (float)(-s*tmp1 + c*tmp2);

	movss	xmm0, DWORD PTR _s$[ebp]
	xorps	xmm0, DWORD PTR __xmm@80000000800000008000000080000000
	mulss	xmm0, DWORD PTR _tmp1$[ebp]
	movss	xmm1, DWORD PTR _c$[ebp]
	mulss	xmm1, DWORD PTR _tmp2$[ebp]
	addss	xmm0, xmm1
	push	2
	mov	ecx, 16					; 00000010H
	shl	ecx, 0
	add	ecx, DWORD PTR _this$[ebp]
	movss	DWORD PTR tv244[ebp], xmm0
	call	??AVector4@@QAEAAMH@Z			; Vector4::operator[]
	movss	xmm0, DWORD PTR tv244[ebp]
	movss	DWORD PTR [eax], xmm0

; 248  : 		tmp1 = Row[2][1]; tmp2 = Row[2][2];

	push	1
	mov	ecx, 16					; 00000010H
	shl	ecx, 1
	add	ecx, DWORD PTR _this$[ebp]
	call	??AVector4@@QAEAAMH@Z			; Vector4::operator[]
	movss	xmm0, DWORD PTR [eax]
	movss	DWORD PTR _tmp1$[ebp], xmm0
	push	2
	mov	ecx, 16					; 00000010H
	shl	ecx, 1
	add	ecx, DWORD PTR _this$[ebp]
	call	??AVector4@@QAEAAMH@Z			; Vector4::operator[]
	movss	xmm0, DWORD PTR [eax]
	movss	DWORD PTR _tmp2$[ebp], xmm0

; 249  : 		Row[2][1] = (float)( c*tmp1 + s*tmp2);

	movss	xmm0, DWORD PTR _c$[ebp]
	mulss	xmm0, DWORD PTR _tmp1$[ebp]
	movss	xmm1, DWORD PTR _s$[ebp]
	mulss	xmm1, DWORD PTR _tmp2$[ebp]
	addss	xmm0, xmm1
	push	1
	mov	ecx, 16					; 00000010H
	shl	ecx, 1
	add	ecx, DWORD PTR _this$[ebp]
	movss	DWORD PTR tv246[ebp], xmm0
	call	??AVector4@@QAEAAMH@Z			; Vector4::operator[]
	movss	xmm0, DWORD PTR tv246[ebp]
	movss	DWORD PTR [eax], xmm0

; 250  : 		Row[2][2] = (float)(-s*tmp1 + c*tmp2);

	movss	xmm0, DWORD PTR _s$[ebp]
	xorps	xmm0, DWORD PTR __xmm@80000000800000008000000080000000
	mulss	xmm0, DWORD PTR _tmp1$[ebp]
	movss	xmm1, DWORD PTR _c$[ebp]
	mulss	xmm1, DWORD PTR _tmp2$[ebp]
	addss	xmm0, xmm1
	push	2
	mov	ecx, 16					; 00000010H
	shl	ecx, 1
	add	ecx, DWORD PTR _this$[ebp]
	movss	DWORD PTR tv248[ebp], xmm0
	call	??AVector4@@QAEAAMH@Z			; Vector4::operator[]
	movss	xmm0, DWORD PTR tv248[ebp]
	movss	DWORD PTR [eax], xmm0

; 251  : 	}

	pop	edi
	pop	esi
	pop	ebx
	mov	esp, ebp
	pop	ebp
	ret	8
?Rotate_X@Matrix3D@@QAEXMM@Z ENDP			; Matrix3D::Rotate_X
_TEXT	ENDS
; Function compile flags: /Odtp /ZI
; File x:\github\renegade\dragonade_rxd\scripts\matrix3d.h
;	COMDAT ?Rotate_Z@Matrix3D@@QAEXM@Z
_TEXT	SEGMENT
tv260 = -88						; size = 4
tv258 = -88						; size = 4
tv256 = -88						; size = 4
tv254 = -88						; size = 4
tv252 = -88						; size = 4
tv250 = -88						; size = 4
_s$ = -20						; size = 4
_c$ = -16						; size = 4
_tmp2$ = -12						; size = 4
_tmp1$ = -8						; size = 4
_this$ = -4						; size = 4
_theta$ = 8						; size = 4
?Rotate_Z@Matrix3D@@QAEXM@Z PROC			; Matrix3D::Rotate_Z, COMDAT
; _this$ = ecx

; 224  : 	{

	push	ebp
	mov	ebp, esp
	sub	esp, 88					; 00000058H
	push	ebx
	push	esi
	push	edi
	mov	DWORD PTR _this$[ebp], ecx

; 225  : 		float tmp1,tmp2;
; 226  : 		float c,s;
; 227  : 		c = cosf(theta);

	push	ecx
	movss	xmm0, DWORD PTR _theta$[ebp]
	movss	DWORD PTR [esp], xmm0
	call	_cosf
	add	esp, 4
	fstp	DWORD PTR _c$[ebp]

; 228  : 		s = sinf(theta);

	push	ecx
	movss	xmm0, DWORD PTR _theta$[ebp]
	movss	DWORD PTR [esp], xmm0
	call	_sinf
	add	esp, 4
	fstp	DWORD PTR _s$[ebp]

; 229  : 		tmp1 = Row[0][0]; tmp2 = Row[0][1];

	push	0
	mov	ecx, 16					; 00000010H
	imul	ecx, 0
	add	ecx, DWORD PTR _this$[ebp]
	call	??AVector4@@QAEAAMH@Z			; Vector4::operator[]
	movss	xmm0, DWORD PTR [eax]
	movss	DWORD PTR _tmp1$[ebp], xmm0
	push	1
	mov	ecx, 16					; 00000010H
	imul	ecx, 0
	add	ecx, DWORD PTR _this$[ebp]
	call	??AVector4@@QAEAAMH@Z			; Vector4::operator[]
	movss	xmm0, DWORD PTR [eax]
	movss	DWORD PTR _tmp2$[ebp], xmm0

; 230  : 		Row[0][0] = (float)( c*tmp1 + s*tmp2);

	movss	xmm0, DWORD PTR _c$[ebp]
	mulss	xmm0, DWORD PTR _tmp1$[ebp]
	movss	xmm1, DWORD PTR _s$[ebp]
	mulss	xmm1, DWORD PTR _tmp2$[ebp]
	addss	xmm0, xmm1
	push	0
	mov	ecx, 16					; 00000010H
	imul	ecx, 0
	add	ecx, DWORD PTR _this$[ebp]
	movss	DWORD PTR tv250[ebp], xmm0
	call	??AVector4@@QAEAAMH@Z			; Vector4::operator[]
	movss	xmm0, DWORD PTR tv250[ebp]
	movss	DWORD PTR [eax], xmm0

; 231  : 		Row[0][1] = (float)(-s*tmp1 + c*tmp2);

	movss	xmm0, DWORD PTR _s$[ebp]
	xorps	xmm0, DWORD PTR __xmm@80000000800000008000000080000000
	mulss	xmm0, DWORD PTR _tmp1$[ebp]
	movss	xmm1, DWORD PTR _c$[ebp]
	mulss	xmm1, DWORD PTR _tmp2$[ebp]
	addss	xmm0, xmm1
	push	1
	mov	ecx, 16					; 00000010H
	imul	ecx, 0
	add	ecx, DWORD PTR _this$[ebp]
	movss	DWORD PTR tv252[ebp], xmm0
	call	??AVector4@@QAEAAMH@Z			; Vector4::operator[]
	movss	xmm0, DWORD PTR tv252[ebp]
	movss	DWORD PTR [eax], xmm0

; 232  : 		tmp1 = Row[1][0]; tmp2 = Row[1][1];

	push	0
	mov	ecx, 16					; 00000010H
	shl	ecx, 0
	add	ecx, DWORD PTR _this$[ebp]
	call	??AVector4@@QAEAAMH@Z			; Vector4::operator[]
	movss	xmm0, DWORD PTR [eax]
	movss	DWORD PTR _tmp1$[ebp], xmm0
	push	1
	mov	ecx, 16					; 00000010H
	shl	ecx, 0
	add	ecx, DWORD PTR _this$[ebp]
	call	??AVector4@@QAEAAMH@Z			; Vector4::operator[]
	movss	xmm0, DWORD PTR [eax]
	movss	DWORD PTR _tmp2$[ebp], xmm0

; 233  : 		Row[1][0] = (float)( c*tmp1 + s*tmp2);

	movss	xmm0, DWORD PTR _c$[ebp]
	mulss	xmm0, DWORD PTR _tmp1$[ebp]
	movss	xmm1, DWORD PTR _s$[ebp]
	mulss	xmm1, DWORD PTR _tmp2$[ebp]
	addss	xmm0, xmm1
	push	0
	mov	ecx, 16					; 00000010H
	shl	ecx, 0
	add	ecx, DWORD PTR _this$[ebp]
	movss	DWORD PTR tv254[ebp], xmm0
	call	??AVector4@@QAEAAMH@Z			; Vector4::operator[]
	movss	xmm0, DWORD PTR tv254[ebp]
	movss	DWORD PTR [eax], xmm0

; 234  : 		Row[1][1] = (float)(-s*tmp1 + c*tmp2);

	movss	xmm0, DWORD PTR _s$[ebp]
	xorps	xmm0, DWORD PTR __xmm@80000000800000008000000080000000
	mulss	xmm0, DWORD PTR _tmp1$[ebp]
	movss	xmm1, DWORD PTR _c$[ebp]
	mulss	xmm1, DWORD PTR _tmp2$[ebp]
	addss	xmm0, xmm1
	push	1
	mov	ecx, 16					; 00000010H
	shl	ecx, 0
	add	ecx, DWORD PTR _this$[ebp]
	movss	DWORD PTR tv256[ebp], xmm0
	call	??AVector4@@QAEAAMH@Z			; Vector4::operator[]
	movss	xmm0, DWORD PTR tv256[ebp]
	movss	DWORD PTR [eax], xmm0

; 235  : 		tmp1 = Row[2][0]; tmp2 = Row[2][1];

	push	0
	mov	ecx, 16					; 00000010H
	shl	ecx, 1
	add	ecx, DWORD PTR _this$[ebp]
	call	??AVector4@@QAEAAMH@Z			; Vector4::operator[]
	movss	xmm0, DWORD PTR [eax]
	movss	DWORD PTR _tmp1$[ebp], xmm0
	push	1
	mov	ecx, 16					; 00000010H
	shl	ecx, 1
	add	ecx, DWORD PTR _this$[ebp]
	call	??AVector4@@QAEAAMH@Z			; Vector4::operator[]
	movss	xmm0, DWORD PTR [eax]
	movss	DWORD PTR _tmp2$[ebp], xmm0

; 236  : 		Row[2][0] = (float)( c*tmp1 + s*tmp2);

	movss	xmm0, DWORD PTR _c$[ebp]
	mulss	xmm0, DWORD PTR _tmp1$[ebp]
	movss	xmm1, DWORD PTR _s$[ebp]
	mulss	xmm1, DWORD PTR _tmp2$[ebp]
	addss	xmm0, xmm1
	push	0
	mov	ecx, 16					; 00000010H
	shl	ecx, 1
	add	ecx, DWORD PTR _this$[ebp]
	movss	DWORD PTR tv258[ebp], xmm0
	call	??AVector4@@QAEAAMH@Z			; Vector4::operator[]
	movss	xmm0, DWORD PTR tv258[ebp]
	movss	DWORD PTR [eax], xmm0

; 237  : 		Row[2][1] = (float)(-s*tmp1 + c*tmp2);

	movss	xmm0, DWORD PTR _s$[ebp]
	xorps	xmm0, DWORD PTR __xmm@80000000800000008000000080000000
	mulss	xmm0, DWORD PTR _tmp1$[ebp]
	movss	xmm1, DWORD PTR _c$[ebp]
	mulss	xmm1, DWORD PTR _tmp2$[ebp]
	addss	xmm0, xmm1
	push	1
	mov	ecx, 16					; 00000010H
	shl	ecx, 1
	add	ecx, DWORD PTR _this$[ebp]
	movss	DWORD PTR tv260[ebp], xmm0
	call	??AVector4@@QAEAAMH@Z			; Vector4::operator[]
	movss	xmm0, DWORD PTR tv260[ebp]
	movss	DWORD PTR [eax], xmm0

; 238  : 	}

	pop	edi
	pop	esi
	pop	ebx
	mov	esp, ebp
	pop	ebp
	ret	4
?Rotate_Z@Matrix3D@@QAEXM@Z ENDP			; Matrix3D::Rotate_Z
_TEXT	ENDS
; Function compile flags: /Odtp /ZI
; File x:\github\renegade\dragonade_rxd\scripts\matrix3d.h
;	COMDAT ?Rotate_Y@Matrix3D@@QAEXM@Z
_TEXT	SEGMENT
tv257 = -88						; size = 4
tv255 = -88						; size = 4
tv253 = -88						; size = 4
tv251 = -88						; size = 4
tv249 = -88						; size = 4
tv247 = -88						; size = 4
_c$ = -20						; size = 4
_s$ = -16						; size = 4
_tmp2$ = -12						; size = 4
_tmp1$ = -8						; size = 4
_this$ = -4						; size = 4
_theta$ = 8						; size = 4
?Rotate_Y@Matrix3D@@QAEXM@Z PROC			; Matrix3D::Rotate_Y, COMDAT
; _this$ = ecx

; 208  : 	{

	push	ebp
	mov	ebp, esp
	sub	esp, 88					; 00000058H
	push	ebx
	push	esi
	push	edi
	mov	DWORD PTR _this$[ebp], ecx

; 209  : 		float tmp1,tmp2;
; 210  : 		float s,c;
; 211  : 		s = sinf(theta);

	push	ecx
	movss	xmm0, DWORD PTR _theta$[ebp]
	movss	DWORD PTR [esp], xmm0
	call	_sinf
	add	esp, 4
	fstp	DWORD PTR _s$[ebp]

; 212  : 		c = cosf(theta);

	push	ecx
	movss	xmm0, DWORD PTR _theta$[ebp]
	movss	DWORD PTR [esp], xmm0
	call	_cosf
	add	esp, 4
	fstp	DWORD PTR _c$[ebp]

; 213  : 		tmp1 = Row[0][0]; tmp2 = Row[0][2];

	push	0
	mov	ecx, 16					; 00000010H
	imul	ecx, 0
	add	ecx, DWORD PTR _this$[ebp]
	call	??AVector4@@QAEAAMH@Z			; Vector4::operator[]
	movss	xmm0, DWORD PTR [eax]
	movss	DWORD PTR _tmp1$[ebp], xmm0
	push	2
	mov	ecx, 16					; 00000010H
	imul	ecx, 0
	add	ecx, DWORD PTR _this$[ebp]
	call	??AVector4@@QAEAAMH@Z			; Vector4::operator[]
	movss	xmm0, DWORD PTR [eax]
	movss	DWORD PTR _tmp2$[ebp], xmm0

; 214  : 		Row[0][0] = (float)(c*tmp1 - s*tmp2);

	movss	xmm0, DWORD PTR _c$[ebp]
	mulss	xmm0, DWORD PTR _tmp1$[ebp]
	movss	xmm1, DWORD PTR _s$[ebp]
	mulss	xmm1, DWORD PTR _tmp2$[ebp]
	subss	xmm0, xmm1
	push	0
	mov	ecx, 16					; 00000010H
	imul	ecx, 0
	add	ecx, DWORD PTR _this$[ebp]
	movss	DWORD PTR tv247[ebp], xmm0
	call	??AVector4@@QAEAAMH@Z			; Vector4::operator[]
	movss	xmm0, DWORD PTR tv247[ebp]
	movss	DWORD PTR [eax], xmm0

; 215  : 		Row[0][2] = (float)(s*tmp1 + c*tmp2);

	movss	xmm0, DWORD PTR _s$[ebp]
	mulss	xmm0, DWORD PTR _tmp1$[ebp]
	movss	xmm1, DWORD PTR _c$[ebp]
	mulss	xmm1, DWORD PTR _tmp2$[ebp]
	addss	xmm0, xmm1
	push	2
	mov	ecx, 16					; 00000010H
	imul	ecx, 0
	add	ecx, DWORD PTR _this$[ebp]
	movss	DWORD PTR tv249[ebp], xmm0
	call	??AVector4@@QAEAAMH@Z			; Vector4::operator[]
	movss	xmm0, DWORD PTR tv249[ebp]
	movss	DWORD PTR [eax], xmm0

; 216  : 		tmp1 = Row[1][0]; tmp2 = Row[1][2];

	push	0
	mov	ecx, 16					; 00000010H
	shl	ecx, 0
	add	ecx, DWORD PTR _this$[ebp]
	call	??AVector4@@QAEAAMH@Z			; Vector4::operator[]
	movss	xmm0, DWORD PTR [eax]
	movss	DWORD PTR _tmp1$[ebp], xmm0
	push	2
	mov	ecx, 16					; 00000010H
	shl	ecx, 0
	add	ecx, DWORD PTR _this$[ebp]
	call	??AVector4@@QAEAAMH@Z			; Vector4::operator[]
	movss	xmm0, DWORD PTR [eax]
	movss	DWORD PTR _tmp2$[ebp], xmm0

; 217  : 		Row[1][0] = (float)(c*tmp1 - s*tmp2);

	movss	xmm0, DWORD PTR _c$[ebp]
	mulss	xmm0, DWORD PTR _tmp1$[ebp]
	movss	xmm1, DWORD PTR _s$[ebp]
	mulss	xmm1, DWORD PTR _tmp2$[ebp]
	subss	xmm0, xmm1
	push	0
	mov	ecx, 16					; 00000010H
	shl	ecx, 0
	add	ecx, DWORD PTR _this$[ebp]
	movss	DWORD PTR tv251[ebp], xmm0
	call	??AVector4@@QAEAAMH@Z			; Vector4::operator[]
	movss	xmm0, DWORD PTR tv251[ebp]
	movss	DWORD PTR [eax], xmm0

; 218  : 		Row[1][2] = (float)(s*tmp1 + c*tmp2);

	movss	xmm0, DWORD PTR _s$[ebp]
	mulss	xmm0, DWORD PTR _tmp1$[ebp]
	movss	xmm1, DWORD PTR _c$[ebp]
	mulss	xmm1, DWORD PTR _tmp2$[ebp]
	addss	xmm0, xmm1
	push	2
	mov	ecx, 16					; 00000010H
	shl	ecx, 0
	add	ecx, DWORD PTR _this$[ebp]
	movss	DWORD PTR tv253[ebp], xmm0
	call	??AVector4@@QAEAAMH@Z			; Vector4::operator[]
	movss	xmm0, DWORD PTR tv253[ebp]
	movss	DWORD PTR [eax], xmm0

; 219  : 		tmp1 = Row[2][0]; tmp2 = Row[2][2];

	push	0
	mov	ecx, 16					; 00000010H
	shl	ecx, 1
	add	ecx, DWORD PTR _this$[ebp]
	call	??AVector4@@QAEAAMH@Z			; Vector4::operator[]
	movss	xmm0, DWORD PTR [eax]
	movss	DWORD PTR _tmp1$[ebp], xmm0
	push	2
	mov	ecx, 16					; 00000010H
	shl	ecx, 1
	add	ecx, DWORD PTR _this$[ebp]
	call	??AVector4@@QAEAAMH@Z			; Vector4::operator[]
	movss	xmm0, DWORD PTR [eax]
	movss	DWORD PTR _tmp2$[ebp], xmm0

; 220  : 		Row[2][0] = (float)(c*tmp1 - s*tmp2);

	movss	xmm0, DWORD PTR _c$[ebp]
	mulss	xmm0, DWORD PTR _tmp1$[ebp]
	movss	xmm1, DWORD PTR _s$[ebp]
	mulss	xmm1, DWORD PTR _tmp2$[ebp]
	subss	xmm0, xmm1
	push	0
	mov	ecx, 16					; 00000010H
	shl	ecx, 1
	add	ecx, DWORD PTR _this$[ebp]
	movss	DWORD PTR tv255[ebp], xmm0
	call	??AVector4@@QAEAAMH@Z			; Vector4::operator[]
	movss	xmm0, DWORD PTR tv255[ebp]
	movss	DWORD PTR [eax], xmm0

; 221  : 		Row[2][2] = (float)(s*tmp1 + c*tmp2);

	movss	xmm0, DWORD PTR _s$[ebp]
	mulss	xmm0, DWORD PTR _tmp1$[ebp]
	movss	xmm1, DWORD PTR _c$[ebp]
	mulss	xmm1, DWORD PTR _tmp2$[ebp]
	addss	xmm0, xmm1
	push	2
	mov	ecx, 16					; 00000010H
	shl	ecx, 1
	add	ecx, DWORD PTR _this$[ebp]
	movss	DWORD PTR tv257[ebp], xmm0
	call	??AVector4@@QAEAAMH@Z			; Vector4::operator[]
	movss	xmm0, DWORD PTR tv257[ebp]
	movss	DWORD PTR [eax], xmm0

; 222  : 	}

	pop	edi
	pop	esi
	pop	ebx
	mov	esp, ebp
	pop	ebp
	ret	4
?Rotate_Y@Matrix3D@@QAEXM@Z ENDP			; Matrix3D::Rotate_Y
_TEXT	ENDS
; Function compile flags: /Odtp /ZI
; File x:\github\renegade\dragonade_rxd\scripts\matrix3d.h
;	COMDAT ?Rotate_X@Matrix3D@@QAEXM@Z
_TEXT	SEGMENT
tv260 = -88						; size = 4
tv258 = -88						; size = 4
tv256 = -88						; size = 4
tv254 = -88						; size = 4
tv252 = -88						; size = 4
tv250 = -88						; size = 4
_c$ = -20						; size = 4
_s$ = -16						; size = 4
_tmp2$ = -12						; size = 4
_tmp1$ = -8						; size = 4
_this$ = -4						; size = 4
_theta$ = 8						; size = 4
?Rotate_X@Matrix3D@@QAEXM@Z PROC			; Matrix3D::Rotate_X, COMDAT
; _this$ = ecx

; 192  : 	{

	push	ebp
	mov	ebp, esp
	sub	esp, 88					; 00000058H
	push	ebx
	push	esi
	push	edi
	mov	DWORD PTR _this$[ebp], ecx

; 193  : 		float tmp1,tmp2;
; 194  : 		float s,c;
; 195  : 		s = sinf(theta);

	push	ecx
	movss	xmm0, DWORD PTR _theta$[ebp]
	movss	DWORD PTR [esp], xmm0
	call	_sinf
	add	esp, 4
	fstp	DWORD PTR _s$[ebp]

; 196  : 		c = cosf(theta);

	push	ecx
	movss	xmm0, DWORD PTR _theta$[ebp]
	movss	DWORD PTR [esp], xmm0
	call	_cosf
	add	esp, 4
	fstp	DWORD PTR _c$[ebp]

; 197  : 		tmp1 = Row[0][1]; tmp2 = Row[0][2];

	push	1
	mov	ecx, 16					; 00000010H
	imul	ecx, 0
	add	ecx, DWORD PTR _this$[ebp]
	call	??AVector4@@QAEAAMH@Z			; Vector4::operator[]
	movss	xmm0, DWORD PTR [eax]
	movss	DWORD PTR _tmp1$[ebp], xmm0
	push	2
	mov	ecx, 16					; 00000010H
	imul	ecx, 0
	add	ecx, DWORD PTR _this$[ebp]
	call	??AVector4@@QAEAAMH@Z			; Vector4::operator[]
	movss	xmm0, DWORD PTR [eax]
	movss	DWORD PTR _tmp2$[ebp], xmm0

; 198  : 		Row[0][1] = (float)( c*tmp1 + s*tmp2);

	movss	xmm0, DWORD PTR _c$[ebp]
	mulss	xmm0, DWORD PTR _tmp1$[ebp]
	movss	xmm1, DWORD PTR _s$[ebp]
	mulss	xmm1, DWORD PTR _tmp2$[ebp]
	addss	xmm0, xmm1
	push	1
	mov	ecx, 16					; 00000010H
	imul	ecx, 0
	add	ecx, DWORD PTR _this$[ebp]
	movss	DWORD PTR tv250[ebp], xmm0
	call	??AVector4@@QAEAAMH@Z			; Vector4::operator[]
	movss	xmm0, DWORD PTR tv250[ebp]
	movss	DWORD PTR [eax], xmm0

; 199  : 		Row[0][2] = (float)(-s*tmp1 + c*tmp2);

	movss	xmm0, DWORD PTR _s$[ebp]
	xorps	xmm0, DWORD PTR __xmm@80000000800000008000000080000000
	mulss	xmm0, DWORD PTR _tmp1$[ebp]
	movss	xmm1, DWORD PTR _c$[ebp]
	mulss	xmm1, DWORD PTR _tmp2$[ebp]
	addss	xmm0, xmm1
	push	2
	mov	ecx, 16					; 00000010H
	imul	ecx, 0
	add	ecx, DWORD PTR _this$[ebp]
	movss	DWORD PTR tv252[ebp], xmm0
	call	??AVector4@@QAEAAMH@Z			; Vector4::operator[]
	movss	xmm0, DWORD PTR tv252[ebp]
	movss	DWORD PTR [eax], xmm0

; 200  : 		tmp1 = Row[1][1]; tmp2 = Row[1][2];

	push	1
	mov	ecx, 16					; 00000010H
	shl	ecx, 0
	add	ecx, DWORD PTR _this$[ebp]
	call	??AVector4@@QAEAAMH@Z			; Vector4::operator[]
	movss	xmm0, DWORD PTR [eax]
	movss	DWORD PTR _tmp1$[ebp], xmm0
	push	2
	mov	ecx, 16					; 00000010H
	shl	ecx, 0
	add	ecx, DWORD PTR _this$[ebp]
	call	??AVector4@@QAEAAMH@Z			; Vector4::operator[]
	movss	xmm0, DWORD PTR [eax]
	movss	DWORD PTR _tmp2$[ebp], xmm0

; 201  : 		Row[1][1] = (float)( c*tmp1 + s*tmp2);

	movss	xmm0, DWORD PTR _c$[ebp]
	mulss	xmm0, DWORD PTR _tmp1$[ebp]
	movss	xmm1, DWORD PTR _s$[ebp]
	mulss	xmm1, DWORD PTR _tmp2$[ebp]
	addss	xmm0, xmm1
	push	1
	mov	ecx, 16					; 00000010H
	shl	ecx, 0
	add	ecx, DWORD PTR _this$[ebp]
	movss	DWORD PTR tv254[ebp], xmm0
	call	??AVector4@@QAEAAMH@Z			; Vector4::operator[]
	movss	xmm0, DWORD PTR tv254[ebp]
	movss	DWORD PTR [eax], xmm0

; 202  : 		Row[1][2] = (float)(-s*tmp1 + c*tmp2);

	movss	xmm0, DWORD PTR _s$[ebp]
	xorps	xmm0, DWORD PTR __xmm@80000000800000008000000080000000
	mulss	xmm0, DWORD PTR _tmp1$[ebp]
	movss	xmm1, DWORD PTR _c$[ebp]
	mulss	xmm1, DWORD PTR _tmp2$[ebp]
	addss	xmm0, xmm1
	push	2
	mov	ecx, 16					; 00000010H
	shl	ecx, 0
	add	ecx, DWORD PTR _this$[ebp]
	movss	DWORD PTR tv256[ebp], xmm0
	call	??AVector4@@QAEAAMH@Z			; Vector4::operator[]
	movss	xmm0, DWORD PTR tv256[ebp]
	movss	DWORD PTR [eax], xmm0

; 203  : 		tmp1 = Row[2][1]; tmp2 = Row[2][2];

	push	1
	mov	ecx, 16					; 00000010H
	shl	ecx, 1
	add	ecx, DWORD PTR _this$[ebp]
	call	??AVector4@@QAEAAMH@Z			; Vector4::operator[]
	movss	xmm0, DWORD PTR [eax]
	movss	DWORD PTR _tmp1$[ebp], xmm0
	push	2
	mov	ecx, 16					; 00000010H
	shl	ecx, 1
	add	ecx, DWORD PTR _this$[ebp]
	call	??AVector4@@QAEAAMH@Z			; Vector4::operator[]
	movss	xmm0, DWORD PTR [eax]
	movss	DWORD PTR _tmp2$[ebp], xmm0

; 204  : 		Row[2][1] = (float)( c*tmp1 + s*tmp2);

	movss	xmm0, DWORD PTR _c$[ebp]
	mulss	xmm0, DWORD PTR _tmp1$[ebp]
	movss	xmm1, DWORD PTR _s$[ebp]
	mulss	xmm1, DWORD PTR _tmp2$[ebp]
	addss	xmm0, xmm1
	push	1
	mov	ecx, 16					; 00000010H
	shl	ecx, 1
	add	ecx, DWORD PTR _this$[ebp]
	movss	DWORD PTR tv258[ebp], xmm0
	call	??AVector4@@QAEAAMH@Z			; Vector4::operator[]
	movss	xmm0, DWORD PTR tv258[ebp]
	movss	DWORD PTR [eax], xmm0

; 205  : 		Row[2][2] = (float)(-s*tmp1 + c*tmp2);

	movss	xmm0, DWORD PTR _s$[ebp]
	xorps	xmm0, DWORD PTR __xmm@80000000800000008000000080000000
	mulss	xmm0, DWORD PTR _tmp1$[ebp]
	movss	xmm1, DWORD PTR _c$[ebp]
	mulss	xmm1, DWORD PTR _tmp2$[ebp]
	addss	xmm0, xmm1
	push	2
	mov	ecx, 16					; 00000010H
	shl	ecx, 1
	add	ecx, DWORD PTR _this$[ebp]
	movss	DWORD PTR tv260[ebp], xmm0
	call	??AVector4@@QAEAAMH@Z			; Vector4::operator[]
	movss	xmm0, DWORD PTR tv260[ebp]
	movss	DWORD PTR [eax], xmm0

; 206  : 	}

	pop	edi
	pop	esi
	pop	ebx
	mov	esp, ebp
	pop	ebp
	ret	4
?Rotate_X@Matrix3D@@QAEXM@Z ENDP			; Matrix3D::Rotate_X
_TEXT	ENDS
; Function compile flags: /Odtp /ZI
; File x:\github\renegade\dragonade_rxd\scripts\matrix3d.h
;	COMDAT ?Translate_Z@Matrix3D@@QAEXM@Z
_TEXT	SEGMENT
tv142 = -72						; size = 4
tv94 = -72						; size = 4
tv78 = -72						; size = 4
_this$ = -4						; size = 4
_z$ = 8							; size = 4
?Translate_Z@Matrix3D@@QAEXM@Z PROC			; Matrix3D::Translate_Z, COMDAT
; _this$ = ecx

; 186  : 	{

	push	ebp
	mov	ebp, esp
	sub	esp, 72					; 00000048H
	push	ebx
	push	esi
	push	edi
	mov	DWORD PTR _this$[ebp], ecx

; 187  : 		Row[0][3]  += (float)(Row[0][2]*z);

	push	3
	mov	ecx, 16					; 00000010H
	imul	ecx, 0
	add	ecx, DWORD PTR _this$[ebp]
	call	??AVector4@@QAEAAMH@Z			; Vector4::operator[]
	mov	DWORD PTR tv78[ebp], eax
	push	2
	mov	ecx, 16					; 00000010H
	imul	ecx, 0
	add	ecx, DWORD PTR _this$[ebp]
	call	??AVector4@@QAEAAMH@Z			; Vector4::operator[]
	movss	xmm0, DWORD PTR [eax]
	mulss	xmm0, DWORD PTR _z$[ebp]
	mov	eax, DWORD PTR tv78[ebp]
	addss	xmm0, DWORD PTR [eax]
	mov	ecx, DWORD PTR tv78[ebp]
	movss	DWORD PTR [ecx], xmm0

; 188  : 		Row[1][3]  += (float)(Row[1][2]*z);

	push	3
	mov	ecx, 16					; 00000010H
	shl	ecx, 0
	add	ecx, DWORD PTR _this$[ebp]
	call	??AVector4@@QAEAAMH@Z			; Vector4::operator[]
	mov	DWORD PTR tv94[ebp], eax
	push	2
	mov	ecx, 16					; 00000010H
	shl	ecx, 0
	add	ecx, DWORD PTR _this$[ebp]
	call	??AVector4@@QAEAAMH@Z			; Vector4::operator[]
	movss	xmm0, DWORD PTR [eax]
	mulss	xmm0, DWORD PTR _z$[ebp]
	mov	eax, DWORD PTR tv94[ebp]
	addss	xmm0, DWORD PTR [eax]
	mov	ecx, DWORD PTR tv94[ebp]
	movss	DWORD PTR [ecx], xmm0

; 189  : 		Row[2][3]  += (float)(Row[2][2]*z);

	push	3
	mov	ecx, 16					; 00000010H
	shl	ecx, 1
	add	ecx, DWORD PTR _this$[ebp]
	call	??AVector4@@QAEAAMH@Z			; Vector4::operator[]
	mov	DWORD PTR tv142[ebp], eax
	push	2
	mov	ecx, 16					; 00000010H
	shl	ecx, 1
	add	ecx, DWORD PTR _this$[ebp]
	call	??AVector4@@QAEAAMH@Z			; Vector4::operator[]
	movss	xmm0, DWORD PTR [eax]
	mulss	xmm0, DWORD PTR _z$[ebp]
	mov	eax, DWORD PTR tv142[ebp]
	addss	xmm0, DWORD PTR [eax]
	mov	ecx, DWORD PTR tv142[ebp]
	movss	DWORD PTR [ecx], xmm0

; 190  : 	}

	pop	edi
	pop	esi
	pop	ebx
	mov	esp, ebp
	pop	ebp
	ret	4
?Translate_Z@Matrix3D@@QAEXM@Z ENDP			; Matrix3D::Translate_Z
_TEXT	ENDS
; Function compile flags: /Odtp /ZI
; File x:\github\renegade\dragonade_rxd\scripts\matrix3d.h
;	COMDAT ?Translate_Y@Matrix3D@@QAEXM@Z
_TEXT	SEGMENT
tv142 = -72						; size = 4
tv94 = -72						; size = 4
tv78 = -72						; size = 4
_this$ = -4						; size = 4
_y$ = 8							; size = 4
?Translate_Y@Matrix3D@@QAEXM@Z PROC			; Matrix3D::Translate_Y, COMDAT
; _this$ = ecx

; 180  : 	{

	push	ebp
	mov	ebp, esp
	sub	esp, 72					; 00000048H
	push	ebx
	push	esi
	push	edi
	mov	DWORD PTR _this$[ebp], ecx

; 181  : 		Row[0][3]  += (float)(Row[0][1]*y);

	push	3
	mov	ecx, 16					; 00000010H
	imul	ecx, 0
	add	ecx, DWORD PTR _this$[ebp]
	call	??AVector4@@QAEAAMH@Z			; Vector4::operator[]
	mov	DWORD PTR tv78[ebp], eax
	push	1
	mov	ecx, 16					; 00000010H
	imul	ecx, 0
	add	ecx, DWORD PTR _this$[ebp]
	call	??AVector4@@QAEAAMH@Z			; Vector4::operator[]
	movss	xmm0, DWORD PTR [eax]
	mulss	xmm0, DWORD PTR _y$[ebp]
	mov	eax, DWORD PTR tv78[ebp]
	addss	xmm0, DWORD PTR [eax]
	mov	ecx, DWORD PTR tv78[ebp]
	movss	DWORD PTR [ecx], xmm0

; 182  : 		Row[1][3]  += (float)(Row[1][1]*y);

	push	3
	mov	ecx, 16					; 00000010H
	shl	ecx, 0
	add	ecx, DWORD PTR _this$[ebp]
	call	??AVector4@@QAEAAMH@Z			; Vector4::operator[]
	mov	DWORD PTR tv94[ebp], eax
	push	1
	mov	ecx, 16					; 00000010H
	shl	ecx, 0
	add	ecx, DWORD PTR _this$[ebp]
	call	??AVector4@@QAEAAMH@Z			; Vector4::operator[]
	movss	xmm0, DWORD PTR [eax]
	mulss	xmm0, DWORD PTR _y$[ebp]
	mov	eax, DWORD PTR tv94[ebp]
	addss	xmm0, DWORD PTR [eax]
	mov	ecx, DWORD PTR tv94[ebp]
	movss	DWORD PTR [ecx], xmm0

; 183  : 		Row[2][3]  += (float)(Row[2][1]*y);

	push	3
	mov	ecx, 16					; 00000010H
	shl	ecx, 1
	add	ecx, DWORD PTR _this$[ebp]
	call	??AVector4@@QAEAAMH@Z			; Vector4::operator[]
	mov	DWORD PTR tv142[ebp], eax
	push	1
	mov	ecx, 16					; 00000010H
	shl	ecx, 1
	add	ecx, DWORD PTR _this$[ebp]
	call	??AVector4@@QAEAAMH@Z			; Vector4::operator[]
	movss	xmm0, DWORD PTR [eax]
	mulss	xmm0, DWORD PTR _y$[ebp]
	mov	eax, DWORD PTR tv142[ebp]
	addss	xmm0, DWORD PTR [eax]
	mov	ecx, DWORD PTR tv142[ebp]
	movss	DWORD PTR [ecx], xmm0

; 184  : 	}

	pop	edi
	pop	esi
	pop	ebx
	mov	esp, ebp
	pop	ebp
	ret	4
?Translate_Y@Matrix3D@@QAEXM@Z ENDP			; Matrix3D::Translate_Y
_TEXT	ENDS
; Function compile flags: /Odtp /ZI
; File x:\github\renegade\dragonade_rxd\scripts\matrix3d.h
;	COMDAT ?Translate_X@Matrix3D@@QAEXM@Z
_TEXT	SEGMENT
tv142 = -72						; size = 4
tv94 = -72						; size = 4
tv78 = -72						; size = 4
_this$ = -4						; size = 4
_x$ = 8							; size = 4
?Translate_X@Matrix3D@@QAEXM@Z PROC			; Matrix3D::Translate_X, COMDAT
; _this$ = ecx

; 174  : 	{

	push	ebp
	mov	ebp, esp
	sub	esp, 72					; 00000048H
	push	ebx
	push	esi
	push	edi
	mov	DWORD PTR _this$[ebp], ecx

; 175  : 		Row[0][3]  += (float)(Row[0][0]*x);

	push	3
	mov	ecx, 16					; 00000010H
	imul	ecx, 0
	add	ecx, DWORD PTR _this$[ebp]
	call	??AVector4@@QAEAAMH@Z			; Vector4::operator[]
	mov	DWORD PTR tv78[ebp], eax
	push	0
	mov	ecx, 16					; 00000010H
	imul	ecx, 0
	add	ecx, DWORD PTR _this$[ebp]
	call	??AVector4@@QAEAAMH@Z			; Vector4::operator[]
	movss	xmm0, DWORD PTR [eax]
	mulss	xmm0, DWORD PTR _x$[ebp]
	mov	eax, DWORD PTR tv78[ebp]
	addss	xmm0, DWORD PTR [eax]
	mov	ecx, DWORD PTR tv78[ebp]
	movss	DWORD PTR [ecx], xmm0

; 176  : 		Row[1][3]  += (float)(Row[1][0]*x);

	push	3
	mov	ecx, 16					; 00000010H
	shl	ecx, 0
	add	ecx, DWORD PTR _this$[ebp]
	call	??AVector4@@QAEAAMH@Z			; Vector4::operator[]
	mov	DWORD PTR tv94[ebp], eax
	push	0
	mov	ecx, 16					; 00000010H
	shl	ecx, 0
	add	ecx, DWORD PTR _this$[ebp]
	call	??AVector4@@QAEAAMH@Z			; Vector4::operator[]
	movss	xmm0, DWORD PTR [eax]
	mulss	xmm0, DWORD PTR _x$[ebp]
	mov	eax, DWORD PTR tv94[ebp]
	addss	xmm0, DWORD PTR [eax]
	mov	ecx, DWORD PTR tv94[ebp]
	movss	DWORD PTR [ecx], xmm0

; 177  : 		Row[2][3]  += (float)(Row[2][0]*x);

	push	3
	mov	ecx, 16					; 00000010H
	shl	ecx, 1
	add	ecx, DWORD PTR _this$[ebp]
	call	??AVector4@@QAEAAMH@Z			; Vector4::operator[]
	mov	DWORD PTR tv142[ebp], eax
	push	0
	mov	ecx, 16					; 00000010H
	shl	ecx, 1
	add	ecx, DWORD PTR _this$[ebp]
	call	??AVector4@@QAEAAMH@Z			; Vector4::operator[]
	movss	xmm0, DWORD PTR [eax]
	mulss	xmm0, DWORD PTR _x$[ebp]
	mov	eax, DWORD PTR tv142[ebp]
	addss	xmm0, DWORD PTR [eax]
	mov	ecx, DWORD PTR tv142[ebp]
	movss	DWORD PTR [ecx], xmm0

; 178  : 	}

	pop	edi
	pop	esi
	pop	ebx
	mov	esp, ebp
	pop	ebp
	ret	4
?Translate_X@Matrix3D@@QAEXM@Z ENDP			; Matrix3D::Translate_X
_TEXT	ENDS
; Function compile flags: /Odtp /ZI
; File x:\github\renegade\dragonade_rxd\scripts\matrix3d.h
;	COMDAT ?Translate@Matrix3D@@QAEXABVVector3@@@Z
_TEXT	SEGMENT
tv278 = -80						; size = 4
tv274 = -80						; size = 4
tv270 = -80						; size = 4
tv276 = -76						; size = 4
tv272 = -76						; size = 4
tv268 = -76						; size = 4
tv214 = -72						; size = 4
tv174 = -72						; size = 4
tv134 = -72						; size = 4
_this$ = -4						; size = 4
_t$ = 8							; size = 4
?Translate@Matrix3D@@QAEXABVVector3@@@Z PROC		; Matrix3D::Translate, COMDAT
; _this$ = ecx

; 168  : 	{

	push	ebp
	mov	ebp, esp
	sub	esp, 80					; 00000050H
	push	ebx
	push	esi
	push	edi
	mov	DWORD PTR _this$[ebp], ecx

; 169  : 		Row[0][3]  += Row[0][0]*t[0] + Row[0][1]*t[1] + Row[0][2]*t[2];

	push	3
	mov	ecx, 16					; 00000010H
	imul	ecx, 0
	add	ecx, DWORD PTR _this$[ebp]
	call	??AVector4@@QAEAAMH@Z			; Vector4::operator[]
	mov	DWORD PTR tv134[ebp], eax
	push	0
	mov	ecx, 16					; 00000010H
	imul	ecx, 0
	add	ecx, DWORD PTR _this$[ebp]
	call	??AVector4@@QAEAAMH@Z			; Vector4::operator[]
	mov	esi, eax
	push	0
	mov	ecx, DWORD PTR _t$[ebp]
	call	??AVector3@@QBEABMH@Z			; Vector3::operator[]
	movss	xmm0, DWORD PTR [esi]
	mulss	xmm0, DWORD PTR [eax]
	push	1
	mov	ecx, 16					; 00000010H
	imul	ecx, 0
	add	ecx, DWORD PTR _this$[ebp]
	movss	DWORD PTR tv268[ebp], xmm0
	call	??AVector4@@QAEAAMH@Z			; Vector4::operator[]
	mov	esi, eax
	push	1
	mov	ecx, DWORD PTR _t$[ebp]
	call	??AVector3@@QBEABMH@Z			; Vector3::operator[]
	movss	xmm0, DWORD PTR [esi]
	mulss	xmm0, DWORD PTR [eax]
	movss	xmm1, DWORD PTR tv268[ebp]
	addss	xmm1, xmm0
	push	2
	mov	ecx, 16					; 00000010H
	imul	ecx, 0
	add	ecx, DWORD PTR _this$[ebp]
	movss	DWORD PTR tv270[ebp], xmm1
	call	??AVector4@@QAEAAMH@Z			; Vector4::operator[]
	mov	esi, eax
	push	2
	mov	ecx, DWORD PTR _t$[ebp]
	call	??AVector3@@QBEABMH@Z			; Vector3::operator[]
	movss	xmm0, DWORD PTR [esi]
	mulss	xmm0, DWORD PTR [eax]
	movss	xmm1, DWORD PTR tv270[ebp]
	addss	xmm1, xmm0
	mov	eax, DWORD PTR tv134[ebp]
	addss	xmm1, DWORD PTR [eax]
	mov	ecx, DWORD PTR tv134[ebp]
	movss	DWORD PTR [ecx], xmm1

; 170  : 		Row[1][3]  += Row[1][0]*t[0] + Row[1][1]*t[1] + Row[1][2]*t[2];

	push	3
	mov	ecx, 16					; 00000010H
	shl	ecx, 0
	add	ecx, DWORD PTR _this$[ebp]
	call	??AVector4@@QAEAAMH@Z			; Vector4::operator[]
	mov	DWORD PTR tv174[ebp], eax
	push	0
	mov	ecx, 16					; 00000010H
	shl	ecx, 0
	add	ecx, DWORD PTR _this$[ebp]
	call	??AVector4@@QAEAAMH@Z			; Vector4::operator[]
	mov	esi, eax
	push	0
	mov	ecx, DWORD PTR _t$[ebp]
	call	??AVector3@@QBEABMH@Z			; Vector3::operator[]
	movss	xmm0, DWORD PTR [esi]
	mulss	xmm0, DWORD PTR [eax]
	push	1
	mov	ecx, 16					; 00000010H
	shl	ecx, 0
	add	ecx, DWORD PTR _this$[ebp]
	movss	DWORD PTR tv272[ebp], xmm0
	call	??AVector4@@QAEAAMH@Z			; Vector4::operator[]
	mov	esi, eax
	push	1
	mov	ecx, DWORD PTR _t$[ebp]
	call	??AVector3@@QBEABMH@Z			; Vector3::operator[]
	movss	xmm0, DWORD PTR [esi]
	mulss	xmm0, DWORD PTR [eax]
	movss	xmm1, DWORD PTR tv272[ebp]
	addss	xmm1, xmm0
	push	2
	mov	ecx, 16					; 00000010H
	shl	ecx, 0
	add	ecx, DWORD PTR _this$[ebp]
	movss	DWORD PTR tv274[ebp], xmm1
	call	??AVector4@@QAEAAMH@Z			; Vector4::operator[]
	mov	esi, eax
	push	2
	mov	ecx, DWORD PTR _t$[ebp]
	call	??AVector3@@QBEABMH@Z			; Vector3::operator[]
	movss	xmm0, DWORD PTR [esi]
	mulss	xmm0, DWORD PTR [eax]
	movss	xmm1, DWORD PTR tv274[ebp]
	addss	xmm1, xmm0
	mov	eax, DWORD PTR tv174[ebp]
	addss	xmm1, DWORD PTR [eax]
	mov	ecx, DWORD PTR tv174[ebp]
	movss	DWORD PTR [ecx], xmm1

; 171  : 		Row[2][3]  += Row[2][0]*t[0] + Row[2][1]*t[1] + Row[2][2]*t[2];

	push	3
	mov	ecx, 16					; 00000010H
	shl	ecx, 1
	add	ecx, DWORD PTR _this$[ebp]
	call	??AVector4@@QAEAAMH@Z			; Vector4::operator[]
	mov	DWORD PTR tv214[ebp], eax
	push	0
	mov	ecx, 16					; 00000010H
	shl	ecx, 1
	add	ecx, DWORD PTR _this$[ebp]
	call	??AVector4@@QAEAAMH@Z			; Vector4::operator[]
	mov	esi, eax
	push	0
	mov	ecx, DWORD PTR _t$[ebp]
	call	??AVector3@@QBEABMH@Z			; Vector3::operator[]
	movss	xmm0, DWORD PTR [esi]
	mulss	xmm0, DWORD PTR [eax]
	push	1
	mov	ecx, 16					; 00000010H
	shl	ecx, 1
	add	ecx, DWORD PTR _this$[ebp]
	movss	DWORD PTR tv276[ebp], xmm0
	call	??AVector4@@QAEAAMH@Z			; Vector4::operator[]
	mov	esi, eax
	push	1
	mov	ecx, DWORD PTR _t$[ebp]
	call	??AVector3@@QBEABMH@Z			; Vector3::operator[]
	movss	xmm0, DWORD PTR [esi]
	mulss	xmm0, DWORD PTR [eax]
	movss	xmm1, DWORD PTR tv276[ebp]
	addss	xmm1, xmm0
	push	2
	mov	ecx, 16					; 00000010H
	shl	ecx, 1
	add	ecx, DWORD PTR _this$[ebp]
	movss	DWORD PTR tv278[ebp], xmm1
	call	??AVector4@@QAEAAMH@Z			; Vector4::operator[]
	mov	esi, eax
	push	2
	mov	ecx, DWORD PTR _t$[ebp]
	call	??AVector3@@QBEABMH@Z			; Vector3::operator[]
	movss	xmm0, DWORD PTR [esi]
	mulss	xmm0, DWORD PTR [eax]
	movss	xmm1, DWORD PTR tv278[ebp]
	addss	xmm1, xmm0
	mov	eax, DWORD PTR tv214[ebp]
	addss	xmm1, DWORD PTR [eax]
	mov	ecx, DWORD PTR tv214[ebp]
	movss	DWORD PTR [ecx], xmm1

; 172  : 	}

	pop	edi
	pop	esi
	pop	ebx
	mov	esp, ebp
	pop	ebp
	ret	4
?Translate@Matrix3D@@QAEXABVVector3@@@Z ENDP		; Matrix3D::Translate
_TEXT	ENDS
; Function compile flags: /Odtp /ZI
; File x:\github\renegade\dragonade_rxd\scripts\matrix3d.h
;	COMDAT ?Translate@Matrix3D@@QAEXMMM@Z
_TEXT	SEGMENT
tv245 = -80						; size = 4
tv241 = -80						; size = 4
tv237 = -80						; size = 4
tv243 = -76						; size = 4
tv239 = -76						; size = 4
tv235 = -76						; size = 4
tv190 = -72						; size = 4
tv158 = -72						; size = 4
tv94 = -72						; size = 4
_this$ = -4						; size = 4
_x$ = 8							; size = 4
_y$ = 12						; size = 4
_z$ = 16						; size = 4
?Translate@Matrix3D@@QAEXMMM@Z PROC			; Matrix3D::Translate, COMDAT
; _this$ = ecx

; 162  : 	{

	push	ebp
	mov	ebp, esp
	sub	esp, 80					; 00000050H
	push	ebx
	push	esi
	push	edi
	mov	DWORD PTR _this$[ebp], ecx

; 163  : 		Row[0][3]  += (float)(Row[0][0]*x + Row[0][1]*y + Row[0][2]*z);

	push	3
	mov	ecx, 16					; 00000010H
	imul	ecx, 0
	add	ecx, DWORD PTR _this$[ebp]
	call	??AVector4@@QAEAAMH@Z			; Vector4::operator[]
	mov	DWORD PTR tv94[ebp], eax
	push	0
	mov	ecx, 16					; 00000010H
	imul	ecx, 0
	add	ecx, DWORD PTR _this$[ebp]
	call	??AVector4@@QAEAAMH@Z			; Vector4::operator[]
	movss	xmm0, DWORD PTR [eax]
	mulss	xmm0, DWORD PTR _x$[ebp]
	push	1
	mov	ecx, 16					; 00000010H
	imul	ecx, 0
	add	ecx, DWORD PTR _this$[ebp]
	movss	DWORD PTR tv235[ebp], xmm0
	call	??AVector4@@QAEAAMH@Z			; Vector4::operator[]
	movss	xmm0, DWORD PTR [eax]
	mulss	xmm0, DWORD PTR _y$[ebp]
	movss	xmm1, DWORD PTR tv235[ebp]
	addss	xmm1, xmm0
	push	2
	mov	ecx, 16					; 00000010H
	imul	ecx, 0
	add	ecx, DWORD PTR _this$[ebp]
	movss	DWORD PTR tv237[ebp], xmm1
	call	??AVector4@@QAEAAMH@Z			; Vector4::operator[]
	movss	xmm0, DWORD PTR [eax]
	mulss	xmm0, DWORD PTR _z$[ebp]
	movss	xmm1, DWORD PTR tv237[ebp]
	addss	xmm1, xmm0
	mov	eax, DWORD PTR tv94[ebp]
	addss	xmm1, DWORD PTR [eax]
	mov	ecx, DWORD PTR tv94[ebp]
	movss	DWORD PTR [ecx], xmm1

; 164  : 		Row[1][3]  += (float)(Row[1][0]*x + Row[1][1]*y + Row[1][2]*z);

	push	3
	mov	ecx, 16					; 00000010H
	shl	ecx, 0
	add	ecx, DWORD PTR _this$[ebp]
	call	??AVector4@@QAEAAMH@Z			; Vector4::operator[]
	mov	DWORD PTR tv158[ebp], eax
	push	0
	mov	ecx, 16					; 00000010H
	shl	ecx, 0
	add	ecx, DWORD PTR _this$[ebp]
	call	??AVector4@@QAEAAMH@Z			; Vector4::operator[]
	movss	xmm0, DWORD PTR [eax]
	mulss	xmm0, DWORD PTR _x$[ebp]
	push	1
	mov	ecx, 16					; 00000010H
	shl	ecx, 0
	add	ecx, DWORD PTR _this$[ebp]
	movss	DWORD PTR tv239[ebp], xmm0
	call	??AVector4@@QAEAAMH@Z			; Vector4::operator[]
	movss	xmm0, DWORD PTR [eax]
	mulss	xmm0, DWORD PTR _y$[ebp]
	movss	xmm1, DWORD PTR tv239[ebp]
	addss	xmm1, xmm0
	push	2
	mov	ecx, 16					; 00000010H
	shl	ecx, 0
	add	ecx, DWORD PTR _this$[ebp]
	movss	DWORD PTR tv241[ebp], xmm1
	call	??AVector4@@QAEAAMH@Z			; Vector4::operator[]
	movss	xmm0, DWORD PTR [eax]
	mulss	xmm0, DWORD PTR _z$[ebp]
	movss	xmm1, DWORD PTR tv241[ebp]
	addss	xmm1, xmm0
	mov	eax, DWORD PTR tv158[ebp]
	addss	xmm1, DWORD PTR [eax]
	mov	ecx, DWORD PTR tv158[ebp]
	movss	DWORD PTR [ecx], xmm1

; 165  : 		Row[2][3]  += (float)(Row[2][0]*x + Row[2][1]*y + Row[2][2]*z);

	push	3
	mov	ecx, 16					; 00000010H
	shl	ecx, 1
	add	ecx, DWORD PTR _this$[ebp]
	call	??AVector4@@QAEAAMH@Z			; Vector4::operator[]
	mov	DWORD PTR tv190[ebp], eax
	push	0
	mov	ecx, 16					; 00000010H
	shl	ecx, 1
	add	ecx, DWORD PTR _this$[ebp]
	call	??AVector4@@QAEAAMH@Z			; Vector4::operator[]
	movss	xmm0, DWORD PTR [eax]
	mulss	xmm0, DWORD PTR _x$[ebp]
	push	1
	mov	ecx, 16					; 00000010H
	shl	ecx, 1
	add	ecx, DWORD PTR _this$[ebp]
	movss	DWORD PTR tv243[ebp], xmm0
	call	??AVector4@@QAEAAMH@Z			; Vector4::operator[]
	movss	xmm0, DWORD PTR [eax]
	mulss	xmm0, DWORD PTR _y$[ebp]
	movss	xmm1, DWORD PTR tv243[ebp]
	addss	xmm1, xmm0
	push	2
	mov	ecx, 16					; 00000010H
	shl	ecx, 1
	add	ecx, DWORD PTR _this$[ebp]
	movss	DWORD PTR tv245[ebp], xmm1
	call	??AVector4@@QAEAAMH@Z			; Vector4::operator[]
	movss	xmm0, DWORD PTR [eax]
	mulss	xmm0, DWORD PTR _z$[ebp]
	movss	xmm1, DWORD PTR tv245[ebp]
	addss	xmm1, xmm0
	mov	eax, DWORD PTR tv190[ebp]
	addss	xmm1, DWORD PTR [eax]
	mov	ecx, DWORD PTR tv190[ebp]
	movss	DWORD PTR [ecx], xmm1

; 166  : 	}

	pop	edi
	pop	esi
	pop	ebx
	mov	esp, ebp
	pop	ebp
	ret	12					; 0000000cH
?Translate@Matrix3D@@QAEXMMM@Z ENDP			; Matrix3D::Translate
_TEXT	ENDS
; Function compile flags: /Odtp /ZI
; File x:\github\renegade\dragonade_rxd\scripts\matrix3d.h
;	COMDAT ?Make_Identity@Matrix3D@@QAEXXZ
_TEXT	SEGMENT
_this$ = -4						; size = 4
?Make_Identity@Matrix3D@@QAEXXZ PROC			; Matrix3D::Make_Identity, COMDAT
; _this$ = ecx

; 156  : 	{

	push	ebp
	mov	ebp, esp
	sub	esp, 68					; 00000044H
	push	ebx
	push	esi
	push	edi
	mov	DWORD PTR _this$[ebp], ecx

; 157  : 		Row[0].Set(1.0f,0.0f,0.0f,0.0f);

	push	ecx
	movss	xmm0, DWORD PTR __real@00000000
	movss	DWORD PTR [esp], xmm0
	push	ecx
	movss	xmm0, DWORD PTR __real@00000000
	movss	DWORD PTR [esp], xmm0
	push	ecx
	movss	xmm0, DWORD PTR __real@00000000
	movss	DWORD PTR [esp], xmm0
	push	ecx
	movss	xmm0, DWORD PTR __real@3f800000
	movss	DWORD PTR [esp], xmm0
	mov	ecx, 16					; 00000010H
	imul	ecx, 0
	add	ecx, DWORD PTR _this$[ebp]
	call	?Set@Vector4@@QAEXMMMM@Z		; Vector4::Set

; 158  : 		Row[1].Set(0.0f,1.0f,0.0f,0.0f);

	push	ecx
	movss	xmm0, DWORD PTR __real@00000000
	movss	DWORD PTR [esp], xmm0
	push	ecx
	movss	xmm0, DWORD PTR __real@00000000
	movss	DWORD PTR [esp], xmm0
	push	ecx
	movss	xmm0, DWORD PTR __real@3f800000
	movss	DWORD PTR [esp], xmm0
	push	ecx
	movss	xmm0, DWORD PTR __real@00000000
	movss	DWORD PTR [esp], xmm0
	mov	ecx, 16					; 00000010H
	shl	ecx, 0
	add	ecx, DWORD PTR _this$[ebp]
	call	?Set@Vector4@@QAEXMMMM@Z		; Vector4::Set

; 159  : 		Row[2].Set(0.0f,0.0f,1.0f,0.0f);

	push	ecx
	movss	xmm0, DWORD PTR __real@00000000
	movss	DWORD PTR [esp], xmm0
	push	ecx
	movss	xmm0, DWORD PTR __real@3f800000
	movss	DWORD PTR [esp], xmm0
	push	ecx
	movss	xmm0, DWORD PTR __real@00000000
	movss	DWORD PTR [esp], xmm0
	push	ecx
	movss	xmm0, DWORD PTR __real@00000000
	movss	DWORD PTR [esp], xmm0
	mov	ecx, 16					; 00000010H
	shl	ecx, 1
	add	ecx, DWORD PTR _this$[ebp]
	call	?Set@Vector4@@QAEXMMMM@Z		; Vector4::Set

; 160  : 	}

	pop	edi
	pop	esi
	pop	ebx
	mov	esp, ebp
	pop	ebp
	ret	0
?Make_Identity@Matrix3D@@QAEXXZ ENDP			; Matrix3D::Make_Identity
_TEXT	ENDS
; Function compile flags: /Odtp /ZI
; File x:\github\renegade\dragonade_rxd\scripts\matrix3d.h
;	COMDAT ?Adjust_Z_Translation@Matrix3D@@QAEXM@Z
_TEXT	SEGMENT
tv70 = -72						; size = 4
_this$ = -4						; size = 4
_z$ = 8							; size = 4
?Adjust_Z_Translation@Matrix3D@@QAEXM@Z PROC		; Matrix3D::Adjust_Z_Translation, COMDAT
; _this$ = ecx

; 154  : 	TT_INLINE void Adjust_Z_Translation(float z) { Row[2][3] += z; };

	push	ebp
	mov	ebp, esp
	sub	esp, 72					; 00000048H
	push	ebx
	push	esi
	push	edi
	mov	DWORD PTR _this$[ebp], ecx
	push	3
	mov	ecx, 16					; 00000010H
	shl	ecx, 1
	add	ecx, DWORD PTR _this$[ebp]
	call	??AVector4@@QAEAAMH@Z			; Vector4::operator[]
	mov	DWORD PTR tv70[ebp], eax
	mov	eax, DWORD PTR tv70[ebp]
	movss	xmm0, DWORD PTR [eax]
	addss	xmm0, DWORD PTR _z$[ebp]
	mov	ecx, DWORD PTR tv70[ebp]
	movss	DWORD PTR [ecx], xmm0
	pop	edi
	pop	esi
	pop	ebx
	mov	esp, ebp
	pop	ebp
	ret	4
?Adjust_Z_Translation@Matrix3D@@QAEXM@Z ENDP		; Matrix3D::Adjust_Z_Translation
_TEXT	ENDS
; Function compile flags: /Odtp /ZI
; File x:\github\renegade\dragonade_rxd\scripts\matrix3d.h
;	COMDAT ?Adjust_Y_Translation@Matrix3D@@QAEXM@Z
_TEXT	SEGMENT
tv70 = -72						; size = 4
_this$ = -4						; size = 4
_y$ = 8							; size = 4
?Adjust_Y_Translation@Matrix3D@@QAEXM@Z PROC		; Matrix3D::Adjust_Y_Translation, COMDAT
; _this$ = ecx

; 153  : 	TT_INLINE void Adjust_Y_Translation(float y) { Row[1][3] += y; };

	push	ebp
	mov	ebp, esp
	sub	esp, 72					; 00000048H
	push	ebx
	push	esi
	push	edi
	mov	DWORD PTR _this$[ebp], ecx
	push	3
	mov	ecx, 16					; 00000010H
	shl	ecx, 0
	add	ecx, DWORD PTR _this$[ebp]
	call	??AVector4@@QAEAAMH@Z			; Vector4::operator[]
	mov	DWORD PTR tv70[ebp], eax
	mov	eax, DWORD PTR tv70[ebp]
	movss	xmm0, DWORD PTR [eax]
	addss	xmm0, DWORD PTR _y$[ebp]
	mov	ecx, DWORD PTR tv70[ebp]
	movss	DWORD PTR [ecx], xmm0
	pop	edi
	pop	esi
	pop	ebx
	mov	esp, ebp
	pop	ebp
	ret	4
?Adjust_Y_Translation@Matrix3D@@QAEXM@Z ENDP		; Matrix3D::Adjust_Y_Translation
_TEXT	ENDS
; Function compile flags: /Odtp /ZI
; File x:\github\renegade\dragonade_rxd\scripts\matrix3d.h
;	COMDAT ?Adjust_X_Translation@Matrix3D@@QAEXM@Z
_TEXT	SEGMENT
tv70 = -72						; size = 4
_this$ = -4						; size = 4
_x$ = 8							; size = 4
?Adjust_X_Translation@Matrix3D@@QAEXM@Z PROC		; Matrix3D::Adjust_X_Translation, COMDAT
; _this$ = ecx

; 152  : 	TT_INLINE void Adjust_X_Translation(float x) { Row[0][3] += x; };

	push	ebp
	mov	ebp, esp
	sub	esp, 72					; 00000048H
	push	ebx
	push	esi
	push	edi
	mov	DWORD PTR _this$[ebp], ecx
	push	3
	mov	ecx, 16					; 00000010H
	imul	ecx, 0
	add	ecx, DWORD PTR _this$[ebp]
	call	??AVector4@@QAEAAMH@Z			; Vector4::operator[]
	mov	DWORD PTR tv70[ebp], eax
	mov	eax, DWORD PTR tv70[ebp]
	movss	xmm0, DWORD PTR [eax]
	addss	xmm0, DWORD PTR _x$[ebp]
	mov	ecx, DWORD PTR tv70[ebp]
	movss	DWORD PTR [ecx], xmm0
	pop	edi
	pop	esi
	pop	ebx
	mov	esp, ebp
	pop	ebp
	ret	4
?Adjust_X_Translation@Matrix3D@@QAEXM@Z ENDP		; Matrix3D::Adjust_X_Translation
_TEXT	ENDS
; Function compile flags: /Odtp /ZI
; File x:\github\renegade\dragonade_rxd\scripts\matrix3d.h
;	COMDAT ?Adjust_Translation@Matrix3D@@QAEXABVVector3@@@Z
_TEXT	SEGMENT
tv95 = -72						; size = 4
tv84 = -72						; size = 4
tv73 = -72						; size = 4
_this$ = -4						; size = 4
_t$ = 8							; size = 4
?Adjust_Translation@Matrix3D@@QAEXABVVector3@@@Z PROC	; Matrix3D::Adjust_Translation, COMDAT
; _this$ = ecx

; 151  : 	TT_INLINE void Adjust_Translation(const Vector3 & t) { Row[0][3] += t[0]; Row[1][3] += t[1]; Row[2][3] += t[2]; };

	push	ebp
	mov	ebp, esp
	sub	esp, 72					; 00000048H
	push	ebx
	push	esi
	push	edi
	mov	DWORD PTR _this$[ebp], ecx
	push	3
	mov	ecx, 16					; 00000010H
	imul	ecx, 0
	add	ecx, DWORD PTR _this$[ebp]
	call	??AVector4@@QAEAAMH@Z			; Vector4::operator[]
	mov	DWORD PTR tv73[ebp], eax
	push	0
	mov	ecx, DWORD PTR _t$[ebp]
	call	??AVector3@@QBEABMH@Z			; Vector3::operator[]
	mov	ecx, DWORD PTR tv73[ebp]
	movss	xmm0, DWORD PTR [ecx]
	addss	xmm0, DWORD PTR [eax]
	mov	edx, DWORD PTR tv73[ebp]
	movss	DWORD PTR [edx], xmm0
	push	3
	mov	ecx, 16					; 00000010H
	shl	ecx, 0
	add	ecx, DWORD PTR _this$[ebp]
	call	??AVector4@@QAEAAMH@Z			; Vector4::operator[]
	mov	DWORD PTR tv84[ebp], eax
	push	1
	mov	ecx, DWORD PTR _t$[ebp]
	call	??AVector3@@QBEABMH@Z			; Vector3::operator[]
	mov	ecx, DWORD PTR tv84[ebp]
	movss	xmm0, DWORD PTR [ecx]
	addss	xmm0, DWORD PTR [eax]
	mov	edx, DWORD PTR tv84[ebp]
	movss	DWORD PTR [edx], xmm0
	push	3
	mov	ecx, 16					; 00000010H
	shl	ecx, 1
	add	ecx, DWORD PTR _this$[ebp]
	call	??AVector4@@QAEAAMH@Z			; Vector4::operator[]
	mov	DWORD PTR tv95[ebp], eax
	push	2
	mov	ecx, DWORD PTR _t$[ebp]
	call	??AVector3@@QBEABMH@Z			; Vector3::operator[]
	mov	ecx, DWORD PTR tv95[ebp]
	movss	xmm0, DWORD PTR [ecx]
	addss	xmm0, DWORD PTR [eax]
	mov	edx, DWORD PTR tv95[ebp]
	movss	DWORD PTR [edx], xmm0
	pop	edi
	pop	esi
	pop	ebx
	mov	esp, ebp
	pop	ebp
	ret	4
?Adjust_Translation@Matrix3D@@QAEXABVVector3@@@Z ENDP	; Matrix3D::Adjust_Translation
_TEXT	ENDS
; Function compile flags: /Odtp /ZI
; File x:\github\renegade\dragonade_rxd\scripts\matrix3d.h
;	COMDAT ?Set_Z_Translation@Matrix3D@@QAEXM@Z
_TEXT	SEGMENT
_this$ = -4						; size = 4
_z$ = 8							; size = 4
?Set_Z_Translation@Matrix3D@@QAEXM@Z PROC		; Matrix3D::Set_Z_Translation, COMDAT
; _this$ = ecx

; 150  : 	TT_INLINE void Set_Z_Translation(float z) { Row[2][3] = z; };

	push	ebp
	mov	ebp, esp
	sub	esp, 68					; 00000044H
	push	ebx
	push	esi
	push	edi
	mov	DWORD PTR _this$[ebp], ecx
	push	3
	mov	ecx, 16					; 00000010H
	shl	ecx, 1
	add	ecx, DWORD PTR _this$[ebp]
	call	??AVector4@@QAEAAMH@Z			; Vector4::operator[]
	movss	xmm0, DWORD PTR _z$[ebp]
	movss	DWORD PTR [eax], xmm0
	pop	edi
	pop	esi
	pop	ebx
	mov	esp, ebp
	pop	ebp
	ret	4
?Set_Z_Translation@Matrix3D@@QAEXM@Z ENDP		; Matrix3D::Set_Z_Translation
_TEXT	ENDS
; Function compile flags: /Odtp /ZI
; File x:\github\renegade\dragonade_rxd\scripts\matrix3d.h
;	COMDAT ?Set_Y_Translation@Matrix3D@@QAEXM@Z
_TEXT	SEGMENT
_this$ = -4						; size = 4
_y$ = 8							; size = 4
?Set_Y_Translation@Matrix3D@@QAEXM@Z PROC		; Matrix3D::Set_Y_Translation, COMDAT
; _this$ = ecx

; 149  : 	TT_INLINE void Set_Y_Translation(float y) { Row[1][3] = y; };

	push	ebp
	mov	ebp, esp
	sub	esp, 68					; 00000044H
	push	ebx
	push	esi
	push	edi
	mov	DWORD PTR _this$[ebp], ecx
	push	3
	mov	ecx, 16					; 00000010H
	shl	ecx, 0
	add	ecx, DWORD PTR _this$[ebp]
	call	??AVector4@@QAEAAMH@Z			; Vector4::operator[]
	movss	xmm0, DWORD PTR _y$[ebp]
	movss	DWORD PTR [eax], xmm0
	pop	edi
	pop	esi
	pop	ebx
	mov	esp, ebp
	pop	ebp
	ret	4
?Set_Y_Translation@Matrix3D@@QAEXM@Z ENDP		; Matrix3D::Set_Y_Translation
_TEXT	ENDS
; Function compile flags: /Odtp /ZI
; File x:\github\renegade\dragonade_rxd\scripts\matrix3d.h
;	COMDAT ?Set_X_Translation@Matrix3D@@QAEXM@Z
_TEXT	SEGMENT
_this$ = -4						; size = 4
_x$ = 8							; size = 4
?Set_X_Translation@Matrix3D@@QAEXM@Z PROC		; Matrix3D::Set_X_Translation, COMDAT
; _this$ = ecx

; 148  : 	TT_INLINE void Set_X_Translation(float x) { Row[0][3] = x; };

	push	ebp
	mov	ebp, esp
	sub	esp, 68					; 00000044H
	push	ebx
	push	esi
	push	edi
	mov	DWORD PTR _this$[ebp], ecx
	push	3
	mov	ecx, 16					; 00000010H
	imul	ecx, 0
	add	ecx, DWORD PTR _this$[ebp]
	call	??AVector4@@QAEAAMH@Z			; Vector4::operator[]
	movss	xmm0, DWORD PTR _x$[ebp]
	movss	DWORD PTR [eax], xmm0
	pop	edi
	pop	esi
	pop	ebx
	mov	esp, ebp
	pop	ebp
	ret	4
?Set_X_Translation@Matrix3D@@QAEXM@Z ENDP		; Matrix3D::Set_X_Translation
_TEXT	ENDS
; Function compile flags: /Odtp /ZI
; File x:\github\renegade\dragonade_rxd\scripts\matrix3d.h
;	COMDAT ?Get_Z_Translation@Matrix3D@@QBEMXZ
_TEXT	SEGMENT
_this$ = -4						; size = 4
?Get_Z_Translation@Matrix3D@@QBEMXZ PROC		; Matrix3D::Get_Z_Translation, COMDAT
; _this$ = ecx

; 147  : 	TT_INLINE float Get_Z_Translation(void) const { return Row[2][3]; };

	push	ebp
	mov	ebp, esp
	sub	esp, 68					; 00000044H
	push	ebx
	push	esi
	push	edi
	mov	DWORD PTR _this$[ebp], ecx
	push	3
	mov	ecx, 16					; 00000010H
	shl	ecx, 1
	add	ecx, DWORD PTR _this$[ebp]
	call	??AVector4@@QBEABMH@Z			; Vector4::operator[]
	fld	DWORD PTR [eax]
	pop	edi
	pop	esi
	pop	ebx
	mov	esp, ebp
	pop	ebp
	ret	0
?Get_Z_Translation@Matrix3D@@QBEMXZ ENDP		; Matrix3D::Get_Z_Translation
_TEXT	ENDS
; Function compile flags: /Odtp /ZI
; File x:\github\renegade\dragonade_rxd\scripts\matrix3d.h
;	COMDAT ?Get_Y_Translation@Matrix3D@@QBEMXZ
_TEXT	SEGMENT
_this$ = -4						; size = 4
?Get_Y_Translation@Matrix3D@@QBEMXZ PROC		; Matrix3D::Get_Y_Translation, COMDAT
; _this$ = ecx

; 146  : 	TT_INLINE float Get_Y_Translation(void) const { return Row[1][3]; };

	push	ebp
	mov	ebp, esp
	sub	esp, 68					; 00000044H
	push	ebx
	push	esi
	push	edi
	mov	DWORD PTR _this$[ebp], ecx
	push	3
	mov	ecx, 16					; 00000010H
	shl	ecx, 0
	add	ecx, DWORD PTR _this$[ebp]
	call	??AVector4@@QBEABMH@Z			; Vector4::operator[]
	fld	DWORD PTR [eax]
	pop	edi
	pop	esi
	pop	ebx
	mov	esp, ebp
	pop	ebp
	ret	0
?Get_Y_Translation@Matrix3D@@QBEMXZ ENDP		; Matrix3D::Get_Y_Translation
_TEXT	ENDS
; Function compile flags: /Odtp /ZI
; File x:\github\renegade\dragonade_rxd\scripts\matrix3d.h
;	COMDAT ?Get_X_Translation@Matrix3D@@QBEMXZ
_TEXT	SEGMENT
_this$ = -4						; size = 4
?Get_X_Translation@Matrix3D@@QBEMXZ PROC		; Matrix3D::Get_X_Translation, COMDAT
; _this$ = ecx

; 145  : 	TT_INLINE float Get_X_Translation(void) const { return Row[0][3]; };

	push	ebp
	mov	ebp, esp
	sub	esp, 68					; 00000044H
	push	ebx
	push	esi
	push	edi
	mov	DWORD PTR _this$[ebp], ecx
	push	3
	mov	ecx, 16					; 00000010H
	imul	ecx, 0
	add	ecx, DWORD PTR _this$[ebp]
	call	??AVector4@@QBEABMH@Z			; Vector4::operator[]
	fld	DWORD PTR [eax]
	pop	edi
	pop	esi
	pop	ebx
	mov	esp, ebp
	pop	ebp
	ret	0
?Get_X_Translation@Matrix3D@@QBEMXZ ENDP		; Matrix3D::Get_X_Translation
_TEXT	ENDS
; Function compile flags: /Odtp /ZI
; File x:\github\renegade\dragonade_rxd\scripts\matrix3d.h
;	COMDAT ?Set_Translation@Matrix3D@@QAEXABVVector3@@@Z
_TEXT	SEGMENT
_this$ = -4						; size = 4
_t$ = 8							; size = 4
?Set_Translation@Matrix3D@@QAEXABVVector3@@@Z PROC	; Matrix3D::Set_Translation, COMDAT
; _this$ = ecx

; 143  : 	TT_INLINE void Set_Translation(const Vector3 & t)  { Row[0][3] = t[0]; Row[1][3] = t[1];Row[2][3] = t[2]; }

	push	ebp
	mov	ebp, esp
	sub	esp, 68					; 00000044H
	push	ebx
	push	esi
	push	edi
	mov	DWORD PTR _this$[ebp], ecx
	push	0
	mov	ecx, DWORD PTR _t$[ebp]
	call	??AVector3@@QBEABMH@Z			; Vector3::operator[]
	mov	esi, eax
	push	3
	mov	ecx, 16					; 00000010H
	imul	ecx, 0
	add	ecx, DWORD PTR _this$[ebp]
	call	??AVector4@@QAEAAMH@Z			; Vector4::operator[]
	mov	ecx, DWORD PTR [esi]
	mov	DWORD PTR [eax], ecx
	push	1
	mov	ecx, DWORD PTR _t$[ebp]
	call	??AVector3@@QBEABMH@Z			; Vector3::operator[]
	mov	esi, eax
	push	3
	mov	ecx, 16					; 00000010H
	shl	ecx, 0
	add	ecx, DWORD PTR _this$[ebp]
	call	??AVector4@@QAEAAMH@Z			; Vector4::operator[]
	mov	ecx, DWORD PTR [esi]
	mov	DWORD PTR [eax], ecx
	push	2
	mov	ecx, DWORD PTR _t$[ebp]
	call	??AVector3@@QBEABMH@Z			; Vector3::operator[]
	mov	esi, eax
	push	3
	mov	ecx, 16					; 00000010H
	shl	ecx, 1
	add	ecx, DWORD PTR _this$[ebp]
	call	??AVector4@@QAEAAMH@Z			; Vector4::operator[]
	mov	ecx, DWORD PTR [esi]
	mov	DWORD PTR [eax], ecx
	pop	edi
	pop	esi
	pop	ebx
	mov	esp, ebp
	pop	ebp
	ret	4
?Set_Translation@Matrix3D@@QAEXABVVector3@@@Z ENDP	; Matrix3D::Set_Translation
_TEXT	ENDS
; Function compile flags: /Odtp /ZI
; File x:\github\renegade\dragonade_rxd\scripts\matrix3d.h
;	COMDAT ?Get_Translation@Matrix3D@@QBEXPAVVector3@@@Z
_TEXT	SEGMENT
_this$ = -4						; size = 4
_set$ = 8						; size = 4
?Get_Translation@Matrix3D@@QBEXPAVVector3@@@Z PROC	; Matrix3D::Get_Translation, COMDAT
; _this$ = ecx

; 142  : 	TT_INLINE void Get_Translation(Vector3 * set) const { set->X = Row[0][3]; set->Y = Row[1][3]; set->Z = Row[2][3]; }

	push	ebp
	mov	ebp, esp
	sub	esp, 68					; 00000044H
	push	ebx
	push	esi
	push	edi
	mov	DWORD PTR _this$[ebp], ecx
	push	3
	mov	ecx, 16					; 00000010H
	imul	ecx, 0
	add	ecx, DWORD PTR _this$[ebp]
	call	??AVector4@@QBEABMH@Z			; Vector4::operator[]
	mov	ecx, DWORD PTR _set$[ebp]
	mov	edx, DWORD PTR [eax]
	mov	DWORD PTR [ecx], edx
	push	3
	mov	ecx, 16					; 00000010H
	shl	ecx, 0
	add	ecx, DWORD PTR _this$[ebp]
	call	??AVector4@@QBEABMH@Z			; Vector4::operator[]
	mov	ecx, DWORD PTR _set$[ebp]
	mov	edx, DWORD PTR [eax]
	mov	DWORD PTR [ecx+4], edx
	push	3
	mov	ecx, 16					; 00000010H
	shl	ecx, 1
	add	ecx, DWORD PTR _this$[ebp]
	call	??AVector4@@QBEABMH@Z			; Vector4::operator[]
	mov	ecx, DWORD PTR _set$[ebp]
	mov	edx, DWORD PTR [eax]
	mov	DWORD PTR [ecx+8], edx
	pop	edi
	pop	esi
	pop	ebx
	mov	esp, ebp
	pop	ebp
	ret	4
?Get_Translation@Matrix3D@@QBEXPAVVector3@@@Z ENDP	; Matrix3D::Get_Translation
_TEXT	ENDS
; Function compile flags: /Odtp /ZI
; File x:\github\renegade\dragonade_rxd\scripts\matrix3d.h
;	COMDAT ?Get_Translation@Matrix3D@@QBE?AVVector3@@XZ
_TEXT	SEGMENT
_this$ = -4						; size = 4
___$ReturnUdt$ = 8					; size = 4
?Get_Translation@Matrix3D@@QBE?AVVector3@@XZ PROC	; Matrix3D::Get_Translation, COMDAT
; _this$ = ecx

; 141  : 	TT_INLINE Vector3 Get_Translation(void) const { return Vector3(Row[0][3],Row[1][3],Row[2][3]); }

	push	ebp
	mov	ebp, esp
	sub	esp, 68					; 00000044H
	push	ebx
	push	esi
	push	edi
	mov	DWORD PTR _this$[ebp], ecx
	push	3
	mov	ecx, 16					; 00000010H
	shl	ecx, 1
	add	ecx, DWORD PTR _this$[ebp]
	call	??AVector4@@QBEABMH@Z			; Vector4::operator[]
	push	ecx
	movss	xmm0, DWORD PTR [eax]
	movss	DWORD PTR [esp], xmm0
	push	3
	mov	ecx, 16					; 00000010H
	shl	ecx, 0
	add	ecx, DWORD PTR _this$[ebp]
	call	??AVector4@@QBEABMH@Z			; Vector4::operator[]
	push	ecx
	movss	xmm0, DWORD PTR [eax]
	movss	DWORD PTR [esp], xmm0
	push	3
	mov	ecx, 16					; 00000010H
	imul	ecx, 0
	add	ecx, DWORD PTR _this$[ebp]
	call	??AVector4@@QBEABMH@Z			; Vector4::operator[]
	push	ecx
	movss	xmm0, DWORD PTR [eax]
	movss	DWORD PTR [esp], xmm0
	mov	ecx, DWORD PTR ___$ReturnUdt$[ebp]
	call	??0Vector3@@QAE@MMM@Z			; Vector3::Vector3
	mov	eax, DWORD PTR ___$ReturnUdt$[ebp]
	pop	edi
	pop	esi
	pop	ebx
	mov	esp, ebp
	pop	ebp
	ret	4
?Get_Translation@Matrix3D@@QBE?AVVector3@@XZ ENDP	; Matrix3D::Get_Translation
_TEXT	ENDS
; Function compile flags: /Odtp /ZI
; File x:\github\renegade\dragonade_rxd\scripts\matrix3d.h
;	COMDAT ?Set@Matrix3D@@QAEXABVVector3@@@Z
_TEXT	SEGMENT
_this$ = -4						; size = 4
_position$ = 8						; size = 4
?Set@Matrix3D@@QAEXABVVector3@@@Z PROC			; Matrix3D::Set, COMDAT
; _this$ = ecx

; 133  : 	{

	push	ebp
	mov	ebp, esp
	sub	esp, 68					; 00000044H
	push	ebx
	push	esi
	push	edi
	mov	DWORD PTR _this$[ebp], ecx

; 134  : 		Row[0].Set(1.0f,0.0f,0.0f,position[0]);

	push	0
	mov	ecx, DWORD PTR _position$[ebp]
	call	??AVector3@@QBEABMH@Z			; Vector3::operator[]
	push	ecx
	movss	xmm0, DWORD PTR [eax]
	movss	DWORD PTR [esp], xmm0
	push	ecx
	movss	xmm0, DWORD PTR __real@00000000
	movss	DWORD PTR [esp], xmm0
	push	ecx
	movss	xmm0, DWORD PTR __real@00000000
	movss	DWORD PTR [esp], xmm0
	push	ecx
	movss	xmm0, DWORD PTR __real@3f800000
	movss	DWORD PTR [esp], xmm0
	mov	ecx, 16					; 00000010H
	imul	ecx, 0
	add	ecx, DWORD PTR _this$[ebp]
	call	?Set@Vector4@@QAEXMMMM@Z		; Vector4::Set

; 135  : 		Row[1].Set(0.0f,1.0f,0.0f,position[1]);

	push	1
	mov	ecx, DWORD PTR _position$[ebp]
	call	??AVector3@@QBEABMH@Z			; Vector3::operator[]
	push	ecx
	movss	xmm0, DWORD PTR [eax]
	movss	DWORD PTR [esp], xmm0
	push	ecx
	movss	xmm0, DWORD PTR __real@00000000
	movss	DWORD PTR [esp], xmm0
	push	ecx
	movss	xmm0, DWORD PTR __real@3f800000
	movss	DWORD PTR [esp], xmm0
	push	ecx
	movss	xmm0, DWORD PTR __real@00000000
	movss	DWORD PTR [esp], xmm0
	mov	ecx, 16					; 00000010H
	shl	ecx, 0
	add	ecx, DWORD PTR _this$[ebp]
	call	?Set@Vector4@@QAEXMMMM@Z		; Vector4::Set

; 136  : 		Row[2].Set(0.0f,0.0f,1.0f,position[2]);

	push	2
	mov	ecx, DWORD PTR _position$[ebp]
	call	??AVector3@@QBEABMH@Z			; Vector3::operator[]
	push	ecx
	movss	xmm0, DWORD PTR [eax]
	movss	DWORD PTR [esp], xmm0
	push	ecx
	movss	xmm0, DWORD PTR __real@3f800000
	movss	DWORD PTR [esp], xmm0
	push	ecx
	movss	xmm0, DWORD PTR __real@00000000
	movss	DWORD PTR [esp], xmm0
	push	ecx
	movss	xmm0, DWORD PTR __real@00000000
	movss	DWORD PTR [esp], xmm0
	mov	ecx, 16					; 00000010H
	shl	ecx, 1
	add	ecx, DWORD PTR _this$[ebp]
	call	?Set@Vector4@@QAEXMMMM@Z		; Vector4::Set

; 137  : 	}

	pop	edi
	pop	esi
	pop	ebx
	mov	esp, ebp
	pop	ebp
	ret	4
?Set@Matrix3D@@QAEXABVVector3@@@Z ENDP			; Matrix3D::Set
_TEXT	ENDS
; Function compile flags: /Odtp /ZI
; File x:\github\renegade\dragonade_rxd\scripts\matrix3d.h
;	COMDAT ?Set@Matrix3D@@QAEXABVVector3@@MM@Z
_TEXT	SEGMENT
tv368 = -80						; size = 4
tv362 = -80						; size = 4
tv356 = -80						; size = 4
tv366 = -76						; size = 4
tv360 = -76						; size = 4
tv354 = -76						; size = 4
tv364 = -72						; size = 4
tv358 = -72						; size = 4
tv352 = -72						; size = 4
_this$ = -4						; size = 4
_axis$ = 8						; size = 4
_s$ = 12						; size = 4
_c$ = 16						; size = 4
?Set@Matrix3D@@QAEXABVVector3@@MM@Z PROC		; Matrix3D::Set, COMDAT
; _this$ = ecx

; 112  : 	{

	push	ebp
	mov	ebp, esp
	sub	esp, 80					; 00000050H
	push	ebx
	push	esi
	push	edi
	mov	DWORD PTR _this$[ebp], ecx

; 113  : 		Row[0].Set(
; 114  : 			(float)(axis[0]*axis[0] + c*(1.0f - axis[0]*axis[0])),
; 115  : 			(float)(axis[0]*axis[1]*(1.0f - c) - axis[2]*s),
; 116  : 			(float)(axis[2]*axis[0]*(1.0f - c) + axis[1]*s),
; 117  : 			0.0f
; 118  : 		);

	push	ecx
	movss	xmm0, DWORD PTR __real@00000000
	movss	DWORD PTR [esp], xmm0
	push	2
	mov	ecx, DWORD PTR _axis$[ebp]
	call	??AVector3@@QBEABMH@Z			; Vector3::operator[]
	mov	esi, eax
	push	0
	mov	ecx, DWORD PTR _axis$[ebp]
	call	??AVector3@@QBEABMH@Z			; Vector3::operator[]
	movss	xmm0, DWORD PTR [esi]
	mulss	xmm0, DWORD PTR [eax]
	movss	xmm1, DWORD PTR __real@3f800000
	subss	xmm1, DWORD PTR _c$[ebp]
	mulss	xmm0, xmm1
	push	1
	mov	ecx, DWORD PTR _axis$[ebp]
	movss	DWORD PTR tv352[ebp], xmm0
	call	??AVector3@@QBEABMH@Z			; Vector3::operator[]
	movss	xmm0, DWORD PTR [eax]
	mulss	xmm0, DWORD PTR _s$[ebp]
	movss	xmm1, DWORD PTR tv352[ebp]
	addss	xmm1, xmm0
	push	ecx
	movss	DWORD PTR [esp], xmm1
	push	0
	mov	ecx, DWORD PTR _axis$[ebp]
	call	??AVector3@@QBEABMH@Z			; Vector3::operator[]
	mov	esi, eax
	push	1
	mov	ecx, DWORD PTR _axis$[ebp]
	call	??AVector3@@QBEABMH@Z			; Vector3::operator[]
	movss	xmm0, DWORD PTR [esi]
	mulss	xmm0, DWORD PTR [eax]
	movss	xmm1, DWORD PTR __real@3f800000
	subss	xmm1, DWORD PTR _c$[ebp]
	mulss	xmm0, xmm1
	push	2
	mov	ecx, DWORD PTR _axis$[ebp]
	movss	DWORD PTR tv354[ebp], xmm0
	call	??AVector3@@QBEABMH@Z			; Vector3::operator[]
	movss	xmm0, DWORD PTR [eax]
	mulss	xmm0, DWORD PTR _s$[ebp]
	movss	xmm1, DWORD PTR tv354[ebp]
	subss	xmm1, xmm0
	push	ecx
	movss	DWORD PTR [esp], xmm1
	push	0
	mov	ecx, DWORD PTR _axis$[ebp]
	call	??AVector3@@QBEABMH@Z			; Vector3::operator[]
	mov	esi, eax
	push	0
	mov	ecx, DWORD PTR _axis$[ebp]
	call	??AVector3@@QBEABMH@Z			; Vector3::operator[]
	movss	xmm0, DWORD PTR [esi]
	mulss	xmm0, DWORD PTR [eax]
	push	0
	mov	ecx, DWORD PTR _axis$[ebp]
	movss	DWORD PTR tv356[ebp], xmm0
	call	??AVector3@@QBEABMH@Z			; Vector3::operator[]
	mov	esi, eax
	push	0
	mov	ecx, DWORD PTR _axis$[ebp]
	call	??AVector3@@QBEABMH@Z			; Vector3::operator[]
	movss	xmm0, DWORD PTR [esi]
	mulss	xmm0, DWORD PTR [eax]
	movss	xmm1, DWORD PTR __real@3f800000
	subss	xmm1, xmm0
	mulss	xmm1, DWORD PTR _c$[ebp]
	movss	xmm0, DWORD PTR tv356[ebp]
	addss	xmm0, xmm1
	push	ecx
	movss	DWORD PTR [esp], xmm0
	mov	ecx, 16					; 00000010H
	imul	ecx, 0
	add	ecx, DWORD PTR _this$[ebp]
	call	?Set@Vector4@@QAEXMMMM@Z		; Vector4::Set

; 119  : 		Row[1].Set(
; 120  : 			(float)(axis[0]*axis[1]*(1.0f - c) + axis[2]*s),
; 121  : 			(float)(axis[1]*axis[1] + c*(1.0f - axis[1]*axis[1])),
; 122  : 			(float)(axis[1]*axis[2]*(1.0f - c) - axis[0]*s),
; 123  : 			0.0f
; 124  : 		);

	push	ecx
	movss	xmm0, DWORD PTR __real@00000000
	movss	DWORD PTR [esp], xmm0
	push	1
	mov	ecx, DWORD PTR _axis$[ebp]
	call	??AVector3@@QBEABMH@Z			; Vector3::operator[]
	mov	esi, eax
	push	2
	mov	ecx, DWORD PTR _axis$[ebp]
	call	??AVector3@@QBEABMH@Z			; Vector3::operator[]
	movss	xmm0, DWORD PTR [esi]
	mulss	xmm0, DWORD PTR [eax]
	movss	xmm1, DWORD PTR __real@3f800000
	subss	xmm1, DWORD PTR _c$[ebp]
	mulss	xmm0, xmm1
	push	0
	mov	ecx, DWORD PTR _axis$[ebp]
	movss	DWORD PTR tv358[ebp], xmm0
	call	??AVector3@@QBEABMH@Z			; Vector3::operator[]
	movss	xmm0, DWORD PTR [eax]
	mulss	xmm0, DWORD PTR _s$[ebp]
	movss	xmm1, DWORD PTR tv358[ebp]
	subss	xmm1, xmm0
	push	ecx
	movss	DWORD PTR [esp], xmm1
	push	1
	mov	ecx, DWORD PTR _axis$[ebp]
	call	??AVector3@@QBEABMH@Z			; Vector3::operator[]
	mov	esi, eax
	push	1
	mov	ecx, DWORD PTR _axis$[ebp]
	call	??AVector3@@QBEABMH@Z			; Vector3::operator[]
	movss	xmm0, DWORD PTR [esi]
	mulss	xmm0, DWORD PTR [eax]
	push	1
	mov	ecx, DWORD PTR _axis$[ebp]
	movss	DWORD PTR tv360[ebp], xmm0
	call	??AVector3@@QBEABMH@Z			; Vector3::operator[]
	mov	esi, eax
	push	1
	mov	ecx, DWORD PTR _axis$[ebp]
	call	??AVector3@@QBEABMH@Z			; Vector3::operator[]
	movss	xmm0, DWORD PTR [esi]
	mulss	xmm0, DWORD PTR [eax]
	movss	xmm1, DWORD PTR __real@3f800000
	subss	xmm1, xmm0
	mulss	xmm1, DWORD PTR _c$[ebp]
	movss	xmm0, DWORD PTR tv360[ebp]
	addss	xmm0, xmm1
	push	ecx
	movss	DWORD PTR [esp], xmm0
	push	0
	mov	ecx, DWORD PTR _axis$[ebp]
	call	??AVector3@@QBEABMH@Z			; Vector3::operator[]
	mov	esi, eax
	push	1
	mov	ecx, DWORD PTR _axis$[ebp]
	call	??AVector3@@QBEABMH@Z			; Vector3::operator[]
	movss	xmm0, DWORD PTR [esi]
	mulss	xmm0, DWORD PTR [eax]
	movss	xmm1, DWORD PTR __real@3f800000
	subss	xmm1, DWORD PTR _c$[ebp]
	mulss	xmm0, xmm1
	push	2
	mov	ecx, DWORD PTR _axis$[ebp]
	movss	DWORD PTR tv362[ebp], xmm0
	call	??AVector3@@QBEABMH@Z			; Vector3::operator[]
	movss	xmm0, DWORD PTR [eax]
	mulss	xmm0, DWORD PTR _s$[ebp]
	movss	xmm1, DWORD PTR tv362[ebp]
	addss	xmm1, xmm0
	push	ecx
	movss	DWORD PTR [esp], xmm1
	mov	ecx, 16					; 00000010H
	shl	ecx, 0
	add	ecx, DWORD PTR _this$[ebp]
	call	?Set@Vector4@@QAEXMMMM@Z		; Vector4::Set

; 125  : 		Row[2].Set(
; 126  : 			(float)(axis[2]*axis[0]*(1.0f - c) - axis[1]*s),
; 127  : 			(float)(axis[1]*axis[2]*(1.0f - c) + axis[0]*s),
; 128  : 			(float)(axis[2]*axis[2] + c*(1 - axis[2]*axis[2])),
; 129  : 			0.0f
; 130  : 		);

	push	ecx
	movss	xmm0, DWORD PTR __real@00000000
	movss	DWORD PTR [esp], xmm0
	push	2
	mov	ecx, DWORD PTR _axis$[ebp]
	call	??AVector3@@QBEABMH@Z			; Vector3::operator[]
	mov	esi, eax
	push	2
	mov	ecx, DWORD PTR _axis$[ebp]
	call	??AVector3@@QBEABMH@Z			; Vector3::operator[]
	movss	xmm0, DWORD PTR [esi]
	mulss	xmm0, DWORD PTR [eax]
	push	2
	mov	ecx, DWORD PTR _axis$[ebp]
	movss	DWORD PTR tv364[ebp], xmm0
	call	??AVector3@@QBEABMH@Z			; Vector3::operator[]
	mov	esi, eax
	push	2
	mov	ecx, DWORD PTR _axis$[ebp]
	call	??AVector3@@QBEABMH@Z			; Vector3::operator[]
	movss	xmm0, DWORD PTR [esi]
	mulss	xmm0, DWORD PTR [eax]
	movss	xmm1, DWORD PTR __real@3f800000
	subss	xmm1, xmm0
	mulss	xmm1, DWORD PTR _c$[ebp]
	movss	xmm0, DWORD PTR tv364[ebp]
	addss	xmm0, xmm1
	push	ecx
	movss	DWORD PTR [esp], xmm0
	push	1
	mov	ecx, DWORD PTR _axis$[ebp]
	call	??AVector3@@QBEABMH@Z			; Vector3::operator[]
	mov	esi, eax
	push	2
	mov	ecx, DWORD PTR _axis$[ebp]
	call	??AVector3@@QBEABMH@Z			; Vector3::operator[]
	movss	xmm0, DWORD PTR [esi]
	mulss	xmm0, DWORD PTR [eax]
	movss	xmm1, DWORD PTR __real@3f800000
	subss	xmm1, DWORD PTR _c$[ebp]
	mulss	xmm0, xmm1
	push	0
	mov	ecx, DWORD PTR _axis$[ebp]
	movss	DWORD PTR tv366[ebp], xmm0
	call	??AVector3@@QBEABMH@Z			; Vector3::operator[]
	movss	xmm0, DWORD PTR [eax]
	mulss	xmm0, DWORD PTR _s$[ebp]
	movss	xmm1, DWORD PTR tv366[ebp]
	addss	xmm1, xmm0
	push	ecx
	movss	DWORD PTR [esp], xmm1
	push	2
	mov	ecx, DWORD PTR _axis$[ebp]
	call	??AVector3@@QBEABMH@Z			; Vector3::operator[]
	mov	esi, eax
	push	0
	mov	ecx, DWORD PTR _axis$[ebp]
	call	??AVector3@@QBEABMH@Z			; Vector3::operator[]
	movss	xmm0, DWORD PTR [esi]
	mulss	xmm0, DWORD PTR [eax]
	movss	xmm1, DWORD PTR __real@3f800000
	subss	xmm1, DWORD PTR _c$[ebp]
	mulss	xmm0, xmm1
	push	1
	mov	ecx, DWORD PTR _axis$[ebp]
	movss	DWORD PTR tv368[ebp], xmm0
	call	??AVector3@@QBEABMH@Z			; Vector3::operator[]
	movss	xmm0, DWORD PTR [eax]
	mulss	xmm0, DWORD PTR _s$[ebp]
	movss	xmm1, DWORD PTR tv368[ebp]
	subss	xmm1, xmm0
	push	ecx
	movss	DWORD PTR [esp], xmm1
	mov	ecx, 16					; 00000010H
	shl	ecx, 1
	add	ecx, DWORD PTR _this$[ebp]
	call	?Set@Vector4@@QAEXMMMM@Z		; Vector4::Set

; 131  : 	}

	pop	edi
	pop	esi
	pop	ebx
	mov	esp, ebp
	pop	ebp
	ret	12					; 0000000cH
?Set@Matrix3D@@QAEXABVVector3@@MM@Z ENDP		; Matrix3D::Set
_TEXT	ENDS
; Function compile flags: /Odtp /ZI
; File x:\github\renegade\dragonade_rxd\scripts\matrix3d.h
;	COMDAT ?Set@Matrix3D@@QAEXABVVector3@@M@Z
_TEXT	SEGMENT
_s$ = -12						; size = 4
_c$ = -8						; size = 4
_this$ = -4						; size = 4
_axis$ = 8						; size = 4
_angle$ = 12						; size = 4
?Set@Matrix3D@@QAEXABVVector3@@M@Z PROC			; Matrix3D::Set, COMDAT
; _this$ = ecx

; 106  : 	{

	push	ebp
	mov	ebp, esp
	sub	esp, 76					; 0000004cH
	push	ebx
	push	esi
	push	edi
	mov	DWORD PTR _this$[ebp], ecx

; 107  : 		float c = cosf(angle);

	push	ecx
	movss	xmm0, DWORD PTR _angle$[ebp]
	movss	DWORD PTR [esp], xmm0
	call	_cosf
	add	esp, 4
	fstp	DWORD PTR _c$[ebp]

; 108  : 		float s = sinf(angle);

	push	ecx
	movss	xmm0, DWORD PTR _angle$[ebp]
	movss	DWORD PTR [esp], xmm0
	call	_sinf
	add	esp, 4
	fstp	DWORD PTR _s$[ebp]

; 109  : 		Set(axis,s,c);

	push	ecx
	movss	xmm0, DWORD PTR _c$[ebp]
	movss	DWORD PTR [esp], xmm0
	push	ecx
	movss	xmm0, DWORD PTR _s$[ebp]
	movss	DWORD PTR [esp], xmm0
	mov	eax, DWORD PTR _axis$[ebp]
	push	eax
	mov	ecx, DWORD PTR _this$[ebp]
	call	?Set@Matrix3D@@QAEXABVVector3@@MM@Z	; Matrix3D::Set

; 110  : 	}

	pop	edi
	pop	esi
	pop	ebx
	mov	esp, ebp
	pop	ebp
	ret	8
?Set@Matrix3D@@QAEXABVVector3@@M@Z ENDP			; Matrix3D::Set
_TEXT	ENDS
; Function compile flags: /Odtp /ZI
; File x:\github\renegade\dragonade_rxd\scripts\matrix3d.h
;	COMDAT ?Set@Matrix3D@@QAEXABVVector3@@000@Z
_TEXT	SEGMENT
_this$ = -4						; size = 4
_x$ = 8							; size = 4
_y$ = 12						; size = 4
_z$ = 16						; size = 4
_pos$ = 20						; size = 4
?Set@Matrix3D@@QAEXABVVector3@@000@Z PROC		; Matrix3D::Set, COMDAT
; _this$ = ecx

; 100  : 	{

	push	ebp
	mov	ebp, esp
	sub	esp, 68					; 00000044H
	push	ebx
	push	esi
	push	edi
	mov	DWORD PTR _this$[ebp], ecx

; 101  : 		Row[0].Set(x[0],y[0],z[0],pos[0]);

	push	0
	mov	ecx, DWORD PTR _pos$[ebp]
	call	??AVector3@@QBEABMH@Z			; Vector3::operator[]
	push	ecx
	movss	xmm0, DWORD PTR [eax]
	movss	DWORD PTR [esp], xmm0
	push	0
	mov	ecx, DWORD PTR _z$[ebp]
	call	??AVector3@@QBEABMH@Z			; Vector3::operator[]
	push	ecx
	movss	xmm0, DWORD PTR [eax]
	movss	DWORD PTR [esp], xmm0
	push	0
	mov	ecx, DWORD PTR _y$[ebp]
	call	??AVector3@@QBEABMH@Z			; Vector3::operator[]
	push	ecx
	movss	xmm0, DWORD PTR [eax]
	movss	DWORD PTR [esp], xmm0
	push	0
	mov	ecx, DWORD PTR _x$[ebp]
	call	??AVector3@@QBEABMH@Z			; Vector3::operator[]
	push	ecx
	movss	xmm0, DWORD PTR [eax]
	movss	DWORD PTR [esp], xmm0
	mov	ecx, 16					; 00000010H
	imul	ecx, 0
	add	ecx, DWORD PTR _this$[ebp]
	call	?Set@Vector4@@QAEXMMMM@Z		; Vector4::Set

; 102  : 		Row[1].Set(x[1],y[1],z[1],pos[1]);

	push	1
	mov	ecx, DWORD PTR _pos$[ebp]
	call	??AVector3@@QBEABMH@Z			; Vector3::operator[]
	push	ecx
	movss	xmm0, DWORD PTR [eax]
	movss	DWORD PTR [esp], xmm0
	push	1
	mov	ecx, DWORD PTR _z$[ebp]
	call	??AVector3@@QBEABMH@Z			; Vector3::operator[]
	push	ecx
	movss	xmm0, DWORD PTR [eax]
	movss	DWORD PTR [esp], xmm0
	push	1
	mov	ecx, DWORD PTR _y$[ebp]
	call	??AVector3@@QBEABMH@Z			; Vector3::operator[]
	push	ecx
	movss	xmm0, DWORD PTR [eax]
	movss	DWORD PTR [esp], xmm0
	push	1
	mov	ecx, DWORD PTR _x$[ebp]
	call	??AVector3@@QBEABMH@Z			; Vector3::operator[]
	push	ecx
	movss	xmm0, DWORD PTR [eax]
	movss	DWORD PTR [esp], xmm0
	mov	ecx, 16					; 00000010H
	shl	ecx, 0
	add	ecx, DWORD PTR _this$[ebp]
	call	?Set@Vector4@@QAEXMMMM@Z		; Vector4::Set

; 103  : 		Row[2].Set(x[2],y[2],z[2],pos[2]);

	push	2
	mov	ecx, DWORD PTR _pos$[ebp]
	call	??AVector3@@QBEABMH@Z			; Vector3::operator[]
	push	ecx
	movss	xmm0, DWORD PTR [eax]
	movss	DWORD PTR [esp], xmm0
	push	2
	mov	ecx, DWORD PTR _z$[ebp]
	call	??AVector3@@QBEABMH@Z			; Vector3::operator[]
	push	ecx
	movss	xmm0, DWORD PTR [eax]
	movss	DWORD PTR [esp], xmm0
	push	2
	mov	ecx, DWORD PTR _y$[ebp]
	call	??AVector3@@QBEABMH@Z			; Vector3::operator[]
	push	ecx
	movss	xmm0, DWORD PTR [eax]
	movss	DWORD PTR [esp], xmm0
	push	2
	mov	ecx, DWORD PTR _x$[ebp]
	call	??AVector3@@QBEABMH@Z			; Vector3::operator[]
	push	ecx
	movss	xmm0, DWORD PTR [eax]
	movss	DWORD PTR [esp], xmm0
	mov	ecx, 16					; 00000010H
	shl	ecx, 1
	add	ecx, DWORD PTR _this$[ebp]
	call	?Set@Vector4@@QAEXMMMM@Z		; Vector4::Set

; 104  : 	}

	pop	edi
	pop	esi
	pop	ebx
	mov	esp, ebp
	pop	ebp
	ret	16					; 00000010H
?Set@Matrix3D@@QAEXABVVector3@@000@Z ENDP		; Matrix3D::Set
_TEXT	ENDS
; Function compile flags: /Odtp /ZI
; File x:\github\renegade\dragonade_rxd\scripts\matrix3d.h
;	COMDAT ?Set@Matrix3D@@QAEXMMMMMMMMMMMM@Z
_TEXT	SEGMENT
_this$ = -4						; size = 4
_m11$ = 8						; size = 4
_m12$ = 12						; size = 4
_m13$ = 16						; size = 4
_m14$ = 20						; size = 4
_m21$ = 24						; size = 4
_m22$ = 28						; size = 4
_m23$ = 32						; size = 4
_m24$ = 36						; size = 4
_m31$ = 40						; size = 4
_m32$ = 44						; size = 4
_m33$ = 48						; size = 4
_m34$ = 52						; size = 4
?Set@Matrix3D@@QAEXMMMMMMMMMMMM@Z PROC			; Matrix3D::Set, COMDAT
; _this$ = ecx

; 94   : 	{

	push	ebp
	mov	ebp, esp
	sub	esp, 68					; 00000044H
	push	ebx
	push	esi
	push	edi
	mov	DWORD PTR _this$[ebp], ecx

; 95   : 		Row[0].Set(m11,m12,m13,m14);

	push	ecx
	movss	xmm0, DWORD PTR _m14$[ebp]
	movss	DWORD PTR [esp], xmm0
	push	ecx
	movss	xmm0, DWORD PTR _m13$[ebp]
	movss	DWORD PTR [esp], xmm0
	push	ecx
	movss	xmm0, DWORD PTR _m12$[ebp]
	movss	DWORD PTR [esp], xmm0
	push	ecx
	movss	xmm0, DWORD PTR _m11$[ebp]
	movss	DWORD PTR [esp], xmm0
	mov	ecx, 16					; 00000010H
	imul	ecx, 0
	add	ecx, DWORD PTR _this$[ebp]
	call	?Set@Vector4@@QAEXMMMM@Z		; Vector4::Set

; 96   : 		Row[1].Set(m21,m22,m23,m24);

	push	ecx
	movss	xmm0, DWORD PTR _m24$[ebp]
	movss	DWORD PTR [esp], xmm0
	push	ecx
	movss	xmm0, DWORD PTR _m23$[ebp]
	movss	DWORD PTR [esp], xmm0
	push	ecx
	movss	xmm0, DWORD PTR _m22$[ebp]
	movss	DWORD PTR [esp], xmm0
	push	ecx
	movss	xmm0, DWORD PTR _m21$[ebp]
	movss	DWORD PTR [esp], xmm0
	mov	ecx, 16					; 00000010H
	shl	ecx, 0
	add	ecx, DWORD PTR _this$[ebp]
	call	?Set@Vector4@@QAEXMMMM@Z		; Vector4::Set

; 97   : 		Row[2].Set(m31,m32,m33,m34);

	push	ecx
	movss	xmm0, DWORD PTR _m34$[ebp]
	movss	DWORD PTR [esp], xmm0
	push	ecx
	movss	xmm0, DWORD PTR _m33$[ebp]
	movss	DWORD PTR [esp], xmm0
	push	ecx
	movss	xmm0, DWORD PTR _m32$[ebp]
	movss	DWORD PTR [esp], xmm0
	push	ecx
	movss	xmm0, DWORD PTR _m31$[ebp]
	movss	DWORD PTR [esp], xmm0
	mov	ecx, 16					; 00000010H
	shl	ecx, 1
	add	ecx, DWORD PTR _this$[ebp]
	call	?Set@Vector4@@QAEXMMMM@Z		; Vector4::Set

; 98   : 	}

	pop	edi
	pop	esi
	pop	ebx
	mov	esp, ebp
	pop	ebp
	ret	48					; 00000030H
?Set@Matrix3D@@QAEXMMMMMMMMMMMM@Z ENDP			; Matrix3D::Set
_TEXT	ENDS
; Function compile flags: /Odtp /ZI
; File x:\github\renegade\dragonade_rxd\scripts\matrix3d.h
;	COMDAT ?Set@Matrix3D@@QAEXQAM@Z
_TEXT	SEGMENT
_this$ = -4						; size = 4
_m$ = 8							; size = 4
?Set@Matrix3D@@QAEXQAM@Z PROC				; Matrix3D::Set, COMDAT
; _this$ = ecx

; 88   : 	{

	push	ebp
	mov	ebp, esp
	sub	esp, 68					; 00000044H
	push	ebx
	push	esi
	push	edi
	mov	DWORD PTR _this$[ebp], ecx

; 89   : 		Row[0].Set(m[0],m[1],m[2],m[3]);

	mov	eax, 4
	imul	eax, 3
	mov	ecx, DWORD PTR _m$[ebp]
	push	ecx
	movss	xmm0, DWORD PTR [ecx+eax]
	movss	DWORD PTR [esp], xmm0
	mov	edx, 4
	shl	edx, 1
	mov	eax, DWORD PTR _m$[ebp]
	push	ecx
	movss	xmm0, DWORD PTR [eax+edx]
	movss	DWORD PTR [esp], xmm0
	mov	ecx, 4
	shl	ecx, 0
	mov	edx, DWORD PTR _m$[ebp]
	push	ecx
	movss	xmm0, DWORD PTR [edx+ecx]
	movss	DWORD PTR [esp], xmm0
	mov	eax, 4
	imul	eax, 0
	mov	ecx, DWORD PTR _m$[ebp]
	push	ecx
	movss	xmm0, DWORD PTR [ecx+eax]
	movss	DWORD PTR [esp], xmm0
	mov	ecx, 16					; 00000010H
	imul	ecx, 0
	add	ecx, DWORD PTR _this$[ebp]
	call	?Set@Vector4@@QAEXMMMM@Z		; Vector4::Set

; 90   : 		Row[1].Set(m[4],m[5],m[6],m[7]);

	mov	eax, 4
	imul	eax, 7
	mov	ecx, DWORD PTR _m$[ebp]
	push	ecx
	movss	xmm0, DWORD PTR [ecx+eax]
	movss	DWORD PTR [esp], xmm0
	mov	edx, 4
	imul	edx, 6
	mov	eax, DWORD PTR _m$[ebp]
	push	ecx
	movss	xmm0, DWORD PTR [eax+edx]
	movss	DWORD PTR [esp], xmm0
	mov	ecx, 4
	imul	ecx, 5
	mov	edx, DWORD PTR _m$[ebp]
	push	ecx
	movss	xmm0, DWORD PTR [edx+ecx]
	movss	DWORD PTR [esp], xmm0
	mov	eax, 4
	shl	eax, 2
	mov	ecx, DWORD PTR _m$[ebp]
	push	ecx
	movss	xmm0, DWORD PTR [ecx+eax]
	movss	DWORD PTR [esp], xmm0
	mov	ecx, 16					; 00000010H
	shl	ecx, 0
	add	ecx, DWORD PTR _this$[ebp]
	call	?Set@Vector4@@QAEXMMMM@Z		; Vector4::Set

; 91   : 		Row[2].Set(m[8],m[9],m[10],m[11]);

	mov	eax, 4
	imul	eax, 11					; 0000000bH
	mov	ecx, DWORD PTR _m$[ebp]
	push	ecx
	movss	xmm0, DWORD PTR [ecx+eax]
	movss	DWORD PTR [esp], xmm0
	mov	edx, 4
	imul	edx, 10					; 0000000aH
	mov	eax, DWORD PTR _m$[ebp]
	push	ecx
	movss	xmm0, DWORD PTR [eax+edx]
	movss	DWORD PTR [esp], xmm0
	mov	ecx, 4
	imul	ecx, 9
	mov	edx, DWORD PTR _m$[ebp]
	push	ecx
	movss	xmm0, DWORD PTR [edx+ecx]
	movss	DWORD PTR [esp], xmm0
	mov	eax, 4
	shl	eax, 3
	mov	ecx, DWORD PTR _m$[ebp]
	push	ecx
	movss	xmm0, DWORD PTR [ecx+eax]
	movss	DWORD PTR [esp], xmm0
	mov	ecx, 16					; 00000010H
	shl	ecx, 1
	add	ecx, DWORD PTR _this$[ebp]
	call	?Set@Vector4@@QAEXMMMM@Z		; Vector4::Set

; 92   : 	}

	pop	edi
	pop	esi
	pop	ebx
	mov	esp, ebp
	pop	ebp
	ret	4
?Set@Matrix3D@@QAEXQAM@Z ENDP				; Matrix3D::Set
_TEXT	ENDS
; Function compile flags: /Odtp /ZI
; File x:\github\renegade\dragonade_rxd\scripts\matrix3d.h
;	COMDAT ??4Matrix3D@@QAEAAV0@ABV0@@Z
_TEXT	SEGMENT
_this$ = -4						; size = 4
_m$ = 8							; size = 4
??4Matrix3D@@QAEAAV0@ABV0@@Z PROC			; Matrix3D::operator=, COMDAT
; _this$ = ecx

; 68   : 	{

	push	ebp
	mov	ebp, esp
	sub	esp, 68					; 00000044H
	push	ebx
	push	esi
	push	edi
	mov	DWORD PTR _this$[ebp], ecx

; 69   : 		Row[0] = m.Row[0];

	mov	eax, 16					; 00000010H
	imul	eax, 0
	add	eax, DWORD PTR _m$[ebp]
	push	eax
	mov	ecx, 16					; 00000010H
	imul	ecx, 0
	add	ecx, DWORD PTR _this$[ebp]
	call	??4Vector4@@QAEAAV0@ABV0@@Z		; Vector4::operator=

; 70   : 		Row[1] = m.Row[1];

	mov	eax, 16					; 00000010H
	shl	eax, 0
	add	eax, DWORD PTR _m$[ebp]
	push	eax
	mov	ecx, 16					; 00000010H
	shl	ecx, 0
	add	ecx, DWORD PTR _this$[ebp]
	call	??4Vector4@@QAEAAV0@ABV0@@Z		; Vector4::operator=

; 71   : 		Row[2] = m.Row[2];

	mov	eax, 16					; 00000010H
	shl	eax, 1
	add	eax, DWORD PTR _m$[ebp]
	push	eax
	mov	ecx, 16					; 00000010H
	shl	ecx, 1
	add	ecx, DWORD PTR _this$[ebp]
	call	??4Vector4@@QAEAAV0@ABV0@@Z		; Vector4::operator=

; 72   : 		return *this; 

	mov	eax, DWORD PTR _this$[ebp]

; 73   : 	}

	pop	edi
	pop	esi
	pop	ebx
	mov	esp, ebp
	pop	ebp
	ret	4
??4Matrix3D@@QAEAAV0@ABV0@@Z ENDP			; Matrix3D::operator=
_TEXT	ENDS
; Function compile flags: /Odtp /ZI
; File x:\github\renegade\dragonade_rxd\scripts\matrix3d.h
;	COMDAT ??0Matrix3D@@QAE@ABV0@@Z
_TEXT	SEGMENT
_this$ = -4						; size = 4
_m$ = 8							; size = 4
??0Matrix3D@@QAE@ABV0@@Z PROC				; Matrix3D::Matrix3D, COMDAT
; _this$ = ecx

; 61   : 	TT_INLINE Matrix3D(const Matrix3D & m)

	push	ebp
	mov	ebp, esp
	sub	esp, 68					; 00000044H
	push	ebx
	push	esi
	push	edi
	mov	DWORD PTR _this$[ebp], ecx
	push	OFFSET ??0Vector4@@QAE@XZ		; Vector4::Vector4
	push	3
	push	16					; 00000010H
	mov	eax, DWORD PTR _this$[ebp]
	push	eax
	call	??_H@YGXPAXIHP6EPAX0@Z@Z

; 62   : 	{
; 63   : 		Row[0] = m.Row[0];

	mov	eax, 16					; 00000010H
	imul	eax, 0
	add	eax, DWORD PTR _m$[ebp]
	push	eax
	mov	ecx, 16					; 00000010H
	imul	ecx, 0
	add	ecx, DWORD PTR _this$[ebp]
	call	??4Vector4@@QAEAAV0@ABV0@@Z		; Vector4::operator=

; 64   : 		Row[1] = m.Row[1];

	mov	eax, 16					; 00000010H
	shl	eax, 0
	add	eax, DWORD PTR _m$[ebp]
	push	eax
	mov	ecx, 16					; 00000010H
	shl	ecx, 0
	add	ecx, DWORD PTR _this$[ebp]
	call	??4Vector4@@QAEAAV0@ABV0@@Z		; Vector4::operator=

; 65   : 		Row[2] = m.Row[2];

	mov	eax, 16					; 00000010H
	shl	eax, 1
	add	eax, DWORD PTR _m$[ebp]
	push	eax
	mov	ecx, 16					; 00000010H
	shl	ecx, 1
	add	ecx, DWORD PTR _this$[ebp]
	call	??4Vector4@@QAEAAV0@ABV0@@Z		; Vector4::operator=

; 66   : 	}

	mov	eax, DWORD PTR _this$[ebp]
	pop	edi
	pop	esi
	pop	ebx
	mov	esp, ebp
	pop	ebp
	ret	4
??0Matrix3D@@QAE@ABV0@@Z ENDP				; Matrix3D::Matrix3D
_TEXT	ENDS
; Function compile flags: /Odtp /ZI
; File x:\github\renegade\dragonade_rxd\scripts\matrix3d.h
;	COMDAT ??0Matrix3D@@QAE@ABVVector3@@@Z
_TEXT	SEGMENT
_this$ = -4						; size = 4
_position$ = 8						; size = 4
??0Matrix3D@@QAE@ABVVector3@@@Z PROC			; Matrix3D::Matrix3D, COMDAT
; _this$ = ecx

; 57   : 	TT_INLINE explicit Matrix3D(const Vector3 & position)

	push	ebp
	mov	ebp, esp
	sub	esp, 68					; 00000044H
	push	ebx
	push	esi
	push	edi
	mov	DWORD PTR _this$[ebp], ecx
	push	OFFSET ??0Vector4@@QAE@XZ		; Vector4::Vector4
	push	3
	push	16					; 00000010H
	mov	eax, DWORD PTR _this$[ebp]
	push	eax
	call	??_H@YGXPAXIHP6EPAX0@Z@Z

; 58   : 	{
; 59   : 		Set(position);

	mov	eax, DWORD PTR _position$[ebp]
	push	eax
	mov	ecx, DWORD PTR _this$[ebp]
	call	?Set@Matrix3D@@QAEXABVVector3@@@Z	; Matrix3D::Set

; 60   : 	}

	mov	eax, DWORD PTR _this$[ebp]
	pop	edi
	pop	esi
	pop	ebx
	mov	esp, ebp
	pop	ebp
	ret	4
??0Matrix3D@@QAE@ABVVector3@@@Z ENDP			; Matrix3D::Matrix3D
_TEXT	ENDS
; Function compile flags: /Odtp /ZI
; File x:\github\renegade\dragonade_rxd\scripts\matrix3d.h
;	COMDAT ??0Matrix3D@@QAE@ABVQuaternion@@ABVVector3@@@Z
_TEXT	SEGMENT
_this$ = -4						; size = 4
_rotation$ = 8						; size = 4
_position$ = 12						; size = 4
??0Matrix3D@@QAE@ABVQuaternion@@ABVVector3@@@Z PROC	; Matrix3D::Matrix3D, COMDAT
; _this$ = ecx

; 53   : 	TT_INLINE explicit Matrix3D(const Quaternion & rotation,const Vector3 & position)

	push	ebp
	mov	ebp, esp
	sub	esp, 68					; 00000044H
	push	ebx
	push	esi
	push	edi
	mov	DWORD PTR _this$[ebp], ecx
	push	OFFSET ??0Vector4@@QAE@XZ		; Vector4::Vector4
	push	3
	push	16					; 00000010H
	mov	eax, DWORD PTR _this$[ebp]
	push	eax
	call	??_H@YGXPAXIHP6EPAX0@Z@Z

; 54   : 	{
; 55   : 		Set(rotation,position);

	mov	eax, DWORD PTR _position$[ebp]
	push	eax
	mov	ecx, DWORD PTR _rotation$[ebp]
	push	ecx
	mov	ecx, DWORD PTR _this$[ebp]
	call	?Set@Matrix3D@@QAEXABVQuaternion@@ABVVector3@@@Z ; Matrix3D::Set

; 56   : 	}

	mov	eax, DWORD PTR _this$[ebp]
	pop	edi
	pop	esi
	pop	ebx
	mov	esp, ebp
	pop	ebp
	ret	8
??0Matrix3D@@QAE@ABVQuaternion@@ABVVector3@@@Z ENDP	; Matrix3D::Matrix3D
_TEXT	ENDS
; Function compile flags: /Odtp /ZI
; File x:\github\renegade\dragonade_rxd\scripts\matrix3d.h
;	COMDAT ??0Matrix3D@@QAE@ABVMatrix3@@ABVVector3@@@Z
_TEXT	SEGMENT
_this$ = -4						; size = 4
_rotation$ = 8						; size = 4
_position$ = 12						; size = 4
??0Matrix3D@@QAE@ABVMatrix3@@ABVVector3@@@Z PROC	; Matrix3D::Matrix3D, COMDAT
; _this$ = ecx

; 49   : 	TT_INLINE explicit Matrix3D(const Matrix3 & rotation,const Vector3 & position)

	push	ebp
	mov	ebp, esp
	sub	esp, 68					; 00000044H
	push	ebx
	push	esi
	push	edi
	mov	DWORD PTR _this$[ebp], ecx
	push	OFFSET ??0Vector4@@QAE@XZ		; Vector4::Vector4
	push	3
	push	16					; 00000010H
	mov	eax, DWORD PTR _this$[ebp]
	push	eax
	call	??_H@YGXPAXIHP6EPAX0@Z@Z

; 50   : 	{
; 51   : 		Set(rotation,position);

	mov	eax, DWORD PTR _position$[ebp]
	push	eax
	mov	ecx, DWORD PTR _rotation$[ebp]
	push	ecx
	mov	ecx, DWORD PTR _this$[ebp]
	call	?Set@Matrix3D@@QAEXABVMatrix3@@ABVVector3@@@Z ; Matrix3D::Set

; 52   : 	}

	mov	eax, DWORD PTR _this$[ebp]
	pop	edi
	pop	esi
	pop	ebx
	mov	esp, ebp
	pop	ebp
	ret	8
??0Matrix3D@@QAE@ABVMatrix3@@ABVVector3@@@Z ENDP	; Matrix3D::Matrix3D
_TEXT	ENDS
; Function compile flags: /Odtp /ZI
; File x:\github\renegade\dragonade_rxd\scripts\matrix3d.h
;	COMDAT ??0Matrix3D@@QAE@ABVVector3@@MM@Z
_TEXT	SEGMENT
_this$ = -4						; size = 4
_axis$ = 8						; size = 4
_sine$ = 12						; size = 4
_cosine$ = 16						; size = 4
??0Matrix3D@@QAE@ABVVector3@@MM@Z PROC			; Matrix3D::Matrix3D, COMDAT
; _this$ = ecx

; 45   : 	TT_INLINE explicit Matrix3D(const Vector3	&axis,float sine,float cosine)

	push	ebp
	mov	ebp, esp
	sub	esp, 68					; 00000044H
	push	ebx
	push	esi
	push	edi
	mov	DWORD PTR _this$[ebp], ecx
	push	OFFSET ??0Vector4@@QAE@XZ		; Vector4::Vector4
	push	3
	push	16					; 00000010H
	mov	eax, DWORD PTR _this$[ebp]
	push	eax
	call	??_H@YGXPAXIHP6EPAX0@Z@Z

; 46   : 	{
; 47   : 		Set(axis,sine,cosine);

	push	ecx
	movss	xmm0, DWORD PTR _cosine$[ebp]
	movss	DWORD PTR [esp], xmm0
	push	ecx
	movss	xmm0, DWORD PTR _sine$[ebp]
	movss	DWORD PTR [esp], xmm0
	mov	eax, DWORD PTR _axis$[ebp]
	push	eax
	mov	ecx, DWORD PTR _this$[ebp]
	call	?Set@Matrix3D@@QAEXABVVector3@@MM@Z	; Matrix3D::Set

; 48   : 	}

	mov	eax, DWORD PTR _this$[ebp]
	pop	edi
	pop	esi
	pop	ebx
	mov	esp, ebp
	pop	ebp
	ret	12					; 0000000cH
??0Matrix3D@@QAE@ABVVector3@@MM@Z ENDP			; Matrix3D::Matrix3D
_TEXT	ENDS
; Function compile flags: /Odtp /ZI
; File x:\github\renegade\dragonade_rxd\scripts\matrix3d.h
;	COMDAT ??0Matrix3D@@QAE@ABVVector3@@M@Z
_TEXT	SEGMENT
_this$ = -4						; size = 4
_axis$ = 8						; size = 4
_angle$ = 12						; size = 4
??0Matrix3D@@QAE@ABVVector3@@M@Z PROC			; Matrix3D::Matrix3D, COMDAT
; _this$ = ecx

; 41   : 	TT_INLINE explicit Matrix3D(const Vector3	&axis,float angle)

	push	ebp
	mov	ebp, esp
	sub	esp, 68					; 00000044H
	push	ebx
	push	esi
	push	edi
	mov	DWORD PTR _this$[ebp], ecx
	push	OFFSET ??0Vector4@@QAE@XZ		; Vector4::Vector4
	push	3
	push	16					; 00000010H
	mov	eax, DWORD PTR _this$[ebp]
	push	eax
	call	??_H@YGXPAXIHP6EPAX0@Z@Z

; 42   : 	{
; 43   : 		Set(axis,angle);

	push	ecx
	movss	xmm0, DWORD PTR _angle$[ebp]
	movss	DWORD PTR [esp], xmm0
	mov	eax, DWORD PTR _axis$[ebp]
	push	eax
	mov	ecx, DWORD PTR _this$[ebp]
	call	?Set@Matrix3D@@QAEXABVVector3@@M@Z	; Matrix3D::Set

; 44   : 	}

	mov	eax, DWORD PTR _this$[ebp]
	pop	edi
	pop	esi
	pop	ebx
	mov	esp, ebp
	pop	ebp
	ret	8
??0Matrix3D@@QAE@ABVVector3@@M@Z ENDP			; Matrix3D::Matrix3D
_TEXT	ENDS
; Function compile flags: /Odtp /ZI
; File x:\github\renegade\dragonade_rxd\scripts\matrix3d.h
;	COMDAT ??0Matrix3D@@QAE@ABVVector3@@000@Z
_TEXT	SEGMENT
_this$ = -4						; size = 4
_x$ = 8							; size = 4
_y$ = 12						; size = 4
_z$ = 16						; size = 4
_pos$ = 20						; size = 4
??0Matrix3D@@QAE@ABVVector3@@000@Z PROC			; Matrix3D::Matrix3D, COMDAT
; _this$ = ecx

; 37   : 	TT_INLINE explicit Matrix3D(const Vector3	&x,const Vector3	&y,const Vector3	&z,const Vector3	&pos)

	push	ebp
	mov	ebp, esp
	sub	esp, 68					; 00000044H
	push	ebx
	push	esi
	push	edi
	mov	DWORD PTR _this$[ebp], ecx
	push	OFFSET ??0Vector4@@QAE@XZ		; Vector4::Vector4
	push	3
	push	16					; 00000010H
	mov	eax, DWORD PTR _this$[ebp]
	push	eax
	call	??_H@YGXPAXIHP6EPAX0@Z@Z

; 38   : 	{
; 39   : 		Set(x,y,z,pos);

	mov	eax, DWORD PTR _pos$[ebp]
	push	eax
	mov	ecx, DWORD PTR _z$[ebp]
	push	ecx
	mov	edx, DWORD PTR _y$[ebp]
	push	edx
	mov	eax, DWORD PTR _x$[ebp]
	push	eax
	mov	ecx, DWORD PTR _this$[ebp]
	call	?Set@Matrix3D@@QAEXABVVector3@@000@Z	; Matrix3D::Set

; 40   : 	}

	mov	eax, DWORD PTR _this$[ebp]
	pop	edi
	pop	esi
	pop	ebx
	mov	esp, ebp
	pop	ebp
	ret	16					; 00000010H
??0Matrix3D@@QAE@ABVVector3@@000@Z ENDP			; Matrix3D::Matrix3D
_TEXT	ENDS
; Function compile flags: /Odtp /ZI
; File x:\github\renegade\dragonade_rxd\scripts\matrix3d.h
;	COMDAT ??0Matrix3D@@QAE@QAM@Z
_TEXT	SEGMENT
_this$ = -4						; size = 4
_m$ = 8							; size = 4
??0Matrix3D@@QAE@QAM@Z PROC				; Matrix3D::Matrix3D, COMDAT
; _this$ = ecx

; 31   : 	TT_INLINE explicit Matrix3D(float m[12])

	push	ebp
	mov	ebp, esp
	sub	esp, 68					; 00000044H
	push	ebx
	push	esi
	push	edi
	mov	DWORD PTR _this$[ebp], ecx
	push	OFFSET ??0Vector4@@QAE@XZ		; Vector4::Vector4
	push	3
	push	16					; 00000010H
	mov	eax, DWORD PTR _this$[ebp]
	push	eax
	call	??_H@YGXPAXIHP6EPAX0@Z@Z

; 32   : 	{
; 33   : 		Row[0].Set(m[0],m[1],m[2],m[3]);

	mov	eax, 4
	imul	eax, 3
	mov	ecx, DWORD PTR _m$[ebp]
	push	ecx
	movss	xmm0, DWORD PTR [ecx+eax]
	movss	DWORD PTR [esp], xmm0
	mov	edx, 4
	shl	edx, 1
	mov	eax, DWORD PTR _m$[ebp]
	push	ecx
	movss	xmm0, DWORD PTR [eax+edx]
	movss	DWORD PTR [esp], xmm0
	mov	ecx, 4
	shl	ecx, 0
	mov	edx, DWORD PTR _m$[ebp]
	push	ecx
	movss	xmm0, DWORD PTR [edx+ecx]
	movss	DWORD PTR [esp], xmm0
	mov	eax, 4
	imul	eax, 0
	mov	ecx, DWORD PTR _m$[ebp]
	push	ecx
	movss	xmm0, DWORD PTR [ecx+eax]
	movss	DWORD PTR [esp], xmm0
	mov	ecx, 16					; 00000010H
	imul	ecx, 0
	add	ecx, DWORD PTR _this$[ebp]
	call	?Set@Vector4@@QAEXMMMM@Z		; Vector4::Set

; 34   : 		Row[1].Set(m[4],m[5],m[6],m[7]);

	mov	eax, 4
	imul	eax, 7
	mov	ecx, DWORD PTR _m$[ebp]
	push	ecx
	movss	xmm0, DWORD PTR [ecx+eax]
	movss	DWORD PTR [esp], xmm0
	mov	edx, 4
	imul	edx, 6
	mov	eax, DWORD PTR _m$[ebp]
	push	ecx
	movss	xmm0, DWORD PTR [eax+edx]
	movss	DWORD PTR [esp], xmm0
	mov	ecx, 4
	imul	ecx, 5
	mov	edx, DWORD PTR _m$[ebp]
	push	ecx
	movss	xmm0, DWORD PTR [edx+ecx]
	movss	DWORD PTR [esp], xmm0
	mov	eax, 4
	shl	eax, 2
	mov	ecx, DWORD PTR _m$[ebp]
	push	ecx
	movss	xmm0, DWORD PTR [ecx+eax]
	movss	DWORD PTR [esp], xmm0
	mov	ecx, 16					; 00000010H
	shl	ecx, 0
	add	ecx, DWORD PTR _this$[ebp]
	call	?Set@Vector4@@QAEXMMMM@Z		; Vector4::Set

; 35   : 		Row[2].Set(m[8],m[9],m[10],m[11]);

	mov	eax, 4
	imul	eax, 11					; 0000000bH
	mov	ecx, DWORD PTR _m$[ebp]
	push	ecx
	movss	xmm0, DWORD PTR [ecx+eax]
	movss	DWORD PTR [esp], xmm0
	mov	edx, 4
	imul	edx, 10					; 0000000aH
	mov	eax, DWORD PTR _m$[ebp]
	push	ecx
	movss	xmm0, DWORD PTR [eax+edx]
	movss	DWORD PTR [esp], xmm0
	mov	ecx, 4
	imul	ecx, 9
	mov	edx, DWORD PTR _m$[ebp]
	push	ecx
	movss	xmm0, DWORD PTR [edx+ecx]
	movss	DWORD PTR [esp], xmm0
	mov	eax, 4
	shl	eax, 3
	mov	ecx, DWORD PTR _m$[ebp]
	push	ecx
	movss	xmm0, DWORD PTR [ecx+eax]
	movss	DWORD PTR [esp], xmm0
	mov	ecx, 16					; 00000010H
	shl	ecx, 1
	add	ecx, DWORD PTR _this$[ebp]
	call	?Set@Vector4@@QAEXMMMM@Z		; Vector4::Set

; 36   : 	}

	mov	eax, DWORD PTR _this$[ebp]
	pop	edi
	pop	esi
	pop	ebx
	mov	esp, ebp
	pop	ebp
	ret	4
??0Matrix3D@@QAE@QAM@Z ENDP				; Matrix3D::Matrix3D
_TEXT	ENDS
; Function compile flags: /Odtp /ZI
; File x:\github\renegade\dragonade_rxd\scripts\matrix3d.h
;	COMDAT ??0Matrix3D@@QAE@_N@Z
_TEXT	SEGMENT
_this$ = -4						; size = 4
_init$ = 8						; size = 1
??0Matrix3D@@QAE@_N@Z PROC				; Matrix3D::Matrix3D, COMDAT
; _this$ = ecx

; 30   : 	TT_INLINE explicit Matrix3D(bool init) { if (init) Make_Identity(); }

	push	ebp
	mov	ebp, esp
	sub	esp, 68					; 00000044H
	push	ebx
	push	esi
	push	edi
	mov	DWORD PTR _this$[ebp], ecx
	push	OFFSET ??0Vector4@@QAE@XZ		; Vector4::Vector4
	push	3
	push	16					; 00000010H
	mov	eax, DWORD PTR _this$[ebp]
	push	eax
	call	??_H@YGXPAXIHP6EPAX0@Z@Z
	movzx	eax, BYTE PTR _init$[ebp]
	test	eax, eax
	je	SHORT $LN2@Matrix3D
	mov	ecx, DWORD PTR _this$[ebp]
	call	?Make_Identity@Matrix3D@@QAEXXZ		; Matrix3D::Make_Identity
$LN2@Matrix3D:
	mov	eax, DWORD PTR _this$[ebp]
	pop	edi
	pop	esi
	pop	ebx
	mov	esp, ebp
	pop	ebp
	ret	4
??0Matrix3D@@QAE@_N@Z ENDP				; Matrix3D::Matrix3D
_TEXT	ENDS
; Function compile flags: /Odtp /ZI
; File x:\github\renegade\dragonade_rxd\scripts\matrix3d.h
;	COMDAT ??AMatrix3D@@QBEABVVector4@@H@Z
_TEXT	SEGMENT
_this$ = -4						; size = 4
_i$ = 8							; size = 4
??AMatrix3D@@QBEABVVector4@@H@Z PROC			; Matrix3D::operator[], COMDAT
; _this$ = ecx

; 28   :    TT_INLINE const Vector4 & operator [] (int i) const { return Row[i]; }

	push	ebp
	mov	ebp, esp
	sub	esp, 68					; 00000044H
	push	ebx
	push	esi
	push	edi
	mov	DWORD PTR _this$[ebp], ecx
	mov	eax, DWORD PTR _i$[ebp]
	shl	eax, 4
	add	eax, DWORD PTR _this$[ebp]
	pop	edi
	pop	esi
	pop	ebx
	mov	esp, ebp
	pop	ebp
	ret	4
??AMatrix3D@@QBEABVVector4@@H@Z ENDP			; Matrix3D::operator[]
_TEXT	ENDS
; Function compile flags: /Odtp /ZI
; File x:\github\renegade\dragonade_rxd\scripts\matrix3d.h
;	COMDAT ??AMatrix3D@@QAEAAVVector4@@H@Z
_TEXT	SEGMENT
_this$ = -4						; size = 4
_i$ = 8							; size = 4
??AMatrix3D@@QAEAAVVector4@@H@Z PROC			; Matrix3D::operator[], COMDAT
; _this$ = ecx

; 27   :    TT_INLINE Vector4 & operator [] (int i) { return Row[i]; }

	push	ebp
	mov	ebp, esp
	sub	esp, 68					; 00000044H
	push	ebx
	push	esi
	push	edi
	mov	DWORD PTR _this$[ebp], ecx
	mov	eax, DWORD PTR _i$[ebp]
	shl	eax, 4
	add	eax, DWORD PTR _this$[ebp]
	pop	edi
	pop	esi
	pop	ebx
	mov	esp, ebp
	pop	ebp
	ret	4
??AMatrix3D@@QAEAAVVector4@@H@Z ENDP			; Matrix3D::operator[]
_TEXT	ENDS
; Function compile flags: /Odtp /ZI
; File x:\github\renegade\dragonade_rxd\scripts\vector4.h
;	COMDAT ??XVector4@@QAEAAV0@M@Z
_TEXT	SEGMENT
_this$ = -4						; size = 4
_f$ = 8							; size = 4
??XVector4@@QAEAAV0@M@Z PROC				; Vector4::operator*=, COMDAT
; _this$ = ecx

; 64   : 	TT_INLINE Vector4& operator*=(float f) { X *= f; Y *= f; Z *= f; W *= f; return *this;	};

	push	ebp
	mov	ebp, esp
	sub	esp, 68					; 00000044H
	push	ebx
	push	esi
	push	edi
	mov	DWORD PTR _this$[ebp], ecx
	mov	eax, DWORD PTR _this$[ebp]
	movss	xmm0, DWORD PTR [eax]
	mulss	xmm0, DWORD PTR _f$[ebp]
	mov	ecx, DWORD PTR _this$[ebp]
	movss	DWORD PTR [ecx], xmm0
	mov	eax, DWORD PTR _this$[ebp]
	movss	xmm0, DWORD PTR [eax+4]
	mulss	xmm0, DWORD PTR _f$[ebp]
	mov	ecx, DWORD PTR _this$[ebp]
	movss	DWORD PTR [ecx+4], xmm0
	mov	eax, DWORD PTR _this$[ebp]
	movss	xmm0, DWORD PTR [eax+8]
	mulss	xmm0, DWORD PTR _f$[ebp]
	mov	ecx, DWORD PTR _this$[ebp]
	movss	DWORD PTR [ecx+8], xmm0
	mov	eax, DWORD PTR _this$[ebp]
	movss	xmm0, DWORD PTR [eax+12]
	mulss	xmm0, DWORD PTR _f$[ebp]
	mov	ecx, DWORD PTR _this$[ebp]
	movss	DWORD PTR [ecx+12], xmm0
	mov	eax, DWORD PTR _this$[ebp]
	pop	edi
	pop	esi
	pop	ebx
	mov	esp, ebp
	pop	ebp
	ret	4
??XVector4@@QAEAAV0@M@Z ENDP				; Vector4::operator*=
_TEXT	ENDS
; Function compile flags: /Odtp /ZI
; File x:\github\renegade\dragonade_rxd\scripts\vector4.h
;	COMDAT ??ZVector4@@QAEAAV0@ABV0@@Z
_TEXT	SEGMENT
_this$ = -4						; size = 4
_v$ = 8							; size = 4
??ZVector4@@QAEAAV0@ABV0@@Z PROC			; Vector4::operator-=, COMDAT
; _this$ = ecx

; 63   : 	TT_INLINE Vector4& operator-=(const Vector4& v) { X -= v.X; Y -= v.Y; Z -= v.Z; W -= v.W; return *this;	};

	push	ebp
	mov	ebp, esp
	sub	esp, 68					; 00000044H
	push	ebx
	push	esi
	push	edi
	mov	DWORD PTR _this$[ebp], ecx
	mov	eax, DWORD PTR _this$[ebp]
	mov	ecx, DWORD PTR _v$[ebp]
	movss	xmm0, DWORD PTR [eax]
	subss	xmm0, DWORD PTR [ecx]
	mov	edx, DWORD PTR _this$[ebp]
	movss	DWORD PTR [edx], xmm0
	mov	eax, DWORD PTR _this$[ebp]
	mov	ecx, DWORD PTR _v$[ebp]
	movss	xmm0, DWORD PTR [eax+4]
	subss	xmm0, DWORD PTR [ecx+4]
	mov	edx, DWORD PTR _this$[ebp]
	movss	DWORD PTR [edx+4], xmm0
	mov	eax, DWORD PTR _this$[ebp]
	mov	ecx, DWORD PTR _v$[ebp]
	movss	xmm0, DWORD PTR [eax+8]
	subss	xmm0, DWORD PTR [ecx+8]
	mov	edx, DWORD PTR _this$[ebp]
	movss	DWORD PTR [edx+8], xmm0
	mov	eax, DWORD PTR _this$[ebp]
	mov	ecx, DWORD PTR _v$[ebp]
	movss	xmm0, DWORD PTR [eax+12]
	subss	xmm0, DWORD PTR [ecx+12]
	mov	edx, DWORD PTR _this$[ebp]
	movss	DWORD PTR [edx+12], xmm0
	mov	eax, DWORD PTR _this$[ebp]
	pop	edi
	pop	esi
	pop	ebx
	mov	esp, ebp
	pop	ebp
	ret	4
??ZVector4@@QAEAAV0@ABV0@@Z ENDP			; Vector4::operator-=
_TEXT	ENDS
; Function compile flags: /Odtp /ZI
; File x:\github\renegade\dragonade_rxd\scripts\vector4.h
;	COMDAT ??YVector4@@QAEAAV0@ABV0@@Z
_TEXT	SEGMENT
_this$ = -4						; size = 4
_v$ = 8							; size = 4
??YVector4@@QAEAAV0@ABV0@@Z PROC			; Vector4::operator+=, COMDAT
; _this$ = ecx

; 62   : 	TT_INLINE Vector4& operator+=(const Vector4& v) { X += v.X; Y += v.Y; Z += v.Z; W += v.W; return *this;	};

	push	ebp
	mov	ebp, esp
	sub	esp, 68					; 00000044H
	push	ebx
	push	esi
	push	edi
	mov	DWORD PTR _this$[ebp], ecx
	mov	eax, DWORD PTR _this$[ebp]
	mov	ecx, DWORD PTR _v$[ebp]
	movss	xmm0, DWORD PTR [eax]
	addss	xmm0, DWORD PTR [ecx]
	mov	edx, DWORD PTR _this$[ebp]
	movss	DWORD PTR [edx], xmm0
	mov	eax, DWORD PTR _this$[ebp]
	mov	ecx, DWORD PTR _v$[ebp]
	movss	xmm0, DWORD PTR [eax+4]
	addss	xmm0, DWORD PTR [ecx+4]
	mov	edx, DWORD PTR _this$[ebp]
	movss	DWORD PTR [edx+4], xmm0
	mov	eax, DWORD PTR _this$[ebp]
	mov	ecx, DWORD PTR _v$[ebp]
	movss	xmm0, DWORD PTR [eax+8]
	addss	xmm0, DWORD PTR [ecx+8]
	mov	edx, DWORD PTR _this$[ebp]
	movss	DWORD PTR [edx+8], xmm0
	mov	eax, DWORD PTR _this$[ebp]
	mov	ecx, DWORD PTR _v$[ebp]
	movss	xmm0, DWORD PTR [eax+12]
	addss	xmm0, DWORD PTR [ecx+12]
	mov	edx, DWORD PTR _this$[ebp]
	movss	DWORD PTR [edx+12], xmm0
	mov	eax, DWORD PTR _this$[ebp]
	pop	edi
	pop	esi
	pop	ebx
	mov	esp, ebp
	pop	ebp
	ret	4
??YVector4@@QAEAAV0@ABV0@@Z ENDP			; Vector4::operator+=
_TEXT	ENDS
; Function compile flags: /Odtp /ZI
; File x:\github\renegade\dragonade_rxd\scripts\vector4.h
;	COMDAT ??AVector4@@QBEABMH@Z
_TEXT	SEGMENT
_this$ = -4						; size = 4
_i$ = 8							; size = 4
??AVector4@@QBEABMH@Z PROC				; Vector4::operator[], COMDAT
; _this$ = ecx

; 39   : 	TT_INLINE const float& operator[](int i) const { return (&X)[i]; };

	push	ebp
	mov	ebp, esp
	sub	esp, 68					; 00000044H
	push	ebx
	push	esi
	push	edi
	mov	DWORD PTR _this$[ebp], ecx
	mov	eax, DWORD PTR _i$[ebp]
	mov	ecx, DWORD PTR _this$[ebp]
	lea	eax, DWORD PTR [ecx+eax*4]
	pop	edi
	pop	esi
	pop	ebx
	mov	esp, ebp
	pop	ebp
	ret	4
??AVector4@@QBEABMH@Z ENDP				; Vector4::operator[]
_TEXT	ENDS
; Function compile flags: /Odtp /ZI
; File x:\github\renegade\dragonade_rxd\scripts\vector4.h
;	COMDAT ??AVector4@@QAEAAMH@Z
_TEXT	SEGMENT
_this$ = -4						; size = 4
_i$ = 8							; size = 4
??AVector4@@QAEAAMH@Z PROC				; Vector4::operator[], COMDAT
; _this$ = ecx

; 38   : 	TT_INLINE float& operator[](int i) { return (&X)[i]; };

	push	ebp
	mov	ebp, esp
	sub	esp, 68					; 00000044H
	push	ebx
	push	esi
	push	edi
	mov	DWORD PTR _this$[ebp], ecx
	mov	eax, DWORD PTR _i$[ebp]
	mov	ecx, DWORD PTR _this$[ebp]
	lea	eax, DWORD PTR [ecx+eax*4]
	pop	edi
	pop	esi
	pop	ebx
	mov	esp, ebp
	pop	ebp
	ret	4
??AVector4@@QAEAAMH@Z ENDP				; Vector4::operator[]
_TEXT	ENDS
; Function compile flags: /Odtp /ZI
; File x:\github\renegade\dragonade_rxd\scripts\vector4.h
;	COMDAT ?Set@Vector4@@QAEXMMMM@Z
_TEXT	SEGMENT
_this$ = -4						; size = 4
_x$ = 8							; size = 4
_y$ = 12						; size = 4
_z$ = 16						; size = 4
_w$ = 20						; size = 4
?Set@Vector4@@QAEXMMMM@Z PROC				; Vector4::Set, COMDAT
; _this$ = ecx

; 35   : 	TT_INLINE void Set(float x, float y, float z, float w) { X = x; Y = y; Z = z; W = w; };

	push	ebp
	mov	ebp, esp
	sub	esp, 68					; 00000044H
	push	ebx
	push	esi
	push	edi
	mov	DWORD PTR _this$[ebp], ecx
	mov	eax, DWORD PTR _this$[ebp]
	movss	xmm0, DWORD PTR _x$[ebp]
	movss	DWORD PTR [eax], xmm0
	mov	eax, DWORD PTR _this$[ebp]
	movss	xmm0, DWORD PTR _y$[ebp]
	movss	DWORD PTR [eax+4], xmm0
	mov	eax, DWORD PTR _this$[ebp]
	movss	xmm0, DWORD PTR _z$[ebp]
	movss	DWORD PTR [eax+8], xmm0
	mov	eax, DWORD PTR _this$[ebp]
	movss	xmm0, DWORD PTR _w$[ebp]
	movss	DWORD PTR [eax+12], xmm0
	pop	edi
	pop	esi
	pop	ebx
	mov	esp, ebp
	pop	ebp
	ret	16					; 00000010H
?Set@Vector4@@QAEXMMMM@Z ENDP				; Vector4::Set
_TEXT	ENDS
; Function compile flags: /Odtp /ZI
; File x:\github\renegade\dragonade_rxd\scripts\vector4.h
;	COMDAT ??4Vector4@@QAEAAV0@ABV0@@Z
_TEXT	SEGMENT
_this$ = -4						; size = 4
_v$ = 8							; size = 4
??4Vector4@@QAEAAV0@ABV0@@Z PROC			; Vector4::operator=, COMDAT
; _this$ = ecx

; 34   : 	TT_INLINE Vector4& operator=(const Vector4& v) { X = v.X; Y = v.Y; Z = v.Z; W = v.W; return *this; };	

	push	ebp
	mov	ebp, esp
	sub	esp, 68					; 00000044H
	push	ebx
	push	esi
	push	edi
	mov	DWORD PTR _this$[ebp], ecx
	mov	eax, DWORD PTR _this$[ebp]
	mov	ecx, DWORD PTR _v$[ebp]
	mov	edx, DWORD PTR [ecx]
	mov	DWORD PTR [eax], edx
	mov	eax, DWORD PTR _this$[ebp]
	mov	ecx, DWORD PTR _v$[ebp]
	mov	edx, DWORD PTR [ecx+4]
	mov	DWORD PTR [eax+4], edx
	mov	eax, DWORD PTR _this$[ebp]
	mov	ecx, DWORD PTR _v$[ebp]
	mov	edx, DWORD PTR [ecx+8]
	mov	DWORD PTR [eax+8], edx
	mov	eax, DWORD PTR _this$[ebp]
	mov	ecx, DWORD PTR _v$[ebp]
	mov	edx, DWORD PTR [ecx+12]
	mov	DWORD PTR [eax+12], edx
	mov	eax, DWORD PTR _this$[ebp]
	pop	edi
	pop	esi
	pop	ebx
	mov	esp, ebp
	pop	ebp
	ret	4
??4Vector4@@QAEAAV0@ABV0@@Z ENDP			; Vector4::operator=
_TEXT	ENDS
; Function compile flags: /Odtp /ZI
; File x:\github\renegade\dragonade_rxd\scripts\vector4.h
;	COMDAT ??0Vector4@@QAE@MMMM@Z
_TEXT	SEGMENT
_this$ = -4						; size = 4
_x$ = 8							; size = 4
_y$ = 12						; size = 4
_z$ = 16						; size = 4
_w$ = 20						; size = 4
??0Vector4@@QAE@MMMM@Z PROC				; Vector4::Vector4, COMDAT
; _this$ = ecx

; 26   : 	TT_INLINE Vector4(float x, float y, float z, float w) {	X = x; Y = y; Z = z; W = w;	};

	push	ebp
	mov	ebp, esp
	sub	esp, 68					; 00000044H
	push	ebx
	push	esi
	push	edi
	mov	DWORD PTR _this$[ebp], ecx
	mov	eax, DWORD PTR _this$[ebp]
	movss	xmm0, DWORD PTR _x$[ebp]
	movss	DWORD PTR [eax], xmm0
	mov	eax, DWORD PTR _this$[ebp]
	movss	xmm0, DWORD PTR _y$[ebp]
	movss	DWORD PTR [eax+4], xmm0
	mov	eax, DWORD PTR _this$[ebp]
	movss	xmm0, DWORD PTR _z$[ebp]
	movss	DWORD PTR [eax+8], xmm0
	mov	eax, DWORD PTR _this$[ebp]
	movss	xmm0, DWORD PTR _w$[ebp]
	movss	DWORD PTR [eax+12], xmm0
	mov	eax, DWORD PTR _this$[ebp]
	pop	edi
	pop	esi
	pop	ebx
	mov	esp, ebp
	pop	ebp
	ret	16					; 00000010H
??0Vector4@@QAE@MMMM@Z ENDP				; Vector4::Vector4
_TEXT	ENDS
; Function compile flags: /Odtp /ZI
; File x:\github\renegade\dragonade_rxd\scripts\vector4.h
;	COMDAT ??0Vector4@@QAE@XZ
_TEXT	SEGMENT
_this$ = -4						; size = 4
??0Vector4@@QAE@XZ PROC					; Vector4::Vector4, COMDAT
; _this$ = ecx

; 24   : 	TT_INLINE Vector4() {};

	push	ebp
	mov	ebp, esp
	sub	esp, 68					; 00000044H
	push	ebx
	push	esi
	push	edi
	mov	DWORD PTR _this$[ebp], ecx
	mov	eax, DWORD PTR _this$[ebp]
	pop	edi
	pop	esi
	pop	ebx
	mov	esp, ebp
	pop	ebp
	ret	0
??0Vector4@@QAE@XZ ENDP					; Vector4::Vector4
_TEXT	ENDS
; Function compile flags: /Odtp /ZI
; File x:\github\renegade\dragonade_rxd\scripts\vector3.h
;	COMDAT ?Swap@@YAXAAVVector3@@0@Z
_TEXT	SEGMENT
_tmp$ = -12						; size = 12
_a$ = 8							; size = 4
_b$ = 12						; size = 4
?Swap@@YAXAAVVector3@@0@Z PROC				; Swap, COMDAT

; 398  : {

	push	ebp
	mov	ebp, esp
	sub	esp, 76					; 0000004cH
	push	ebx
	push	esi
	push	edi

; 399  : 	Vector3 tmp(a);

	mov	eax, DWORD PTR _a$[ebp]
	push	eax
	lea	ecx, DWORD PTR _tmp$[ebp]
	call	??0Vector3@@QAE@ABV0@@Z			; Vector3::Vector3

; 400  : 	a = b;

	mov	eax, DWORD PTR _b$[ebp]
	push	eax
	mov	ecx, DWORD PTR _a$[ebp]
	call	??4Vector3@@QAEAAV0@ABV0@@Z		; Vector3::operator=

; 401  : 	b = tmp;

	lea	eax, DWORD PTR _tmp$[ebp]
	push	eax
	mov	ecx, DWORD PTR _b$[ebp]
	call	??4Vector3@@QAEAAV0@ABV0@@Z		; Vector3::operator=

; 402  : }

	pop	edi
	pop	esi
	pop	ebx
	mov	esp, ebp
	pop	ebp
	ret	0
?Swap@@YAXAAVVector3@@0@Z ENDP				; Swap
_TEXT	ENDS
; Function compile flags: /Odtp /ZI
; File x:\github\renegade\dragonade_rxd\scripts\vector3.h
;	COMDAT ?Subtract@Vector3@@SAXABV1@0PAV1@@Z
_TEXT	SEGMENT
_a$ = 8							; size = 4
_b$ = 12						; size = 4
_set_result$ = 16					; size = 4
?Subtract@Vector3@@SAXABV1@0PAV1@@Z PROC		; Vector3::Subtract, COMDAT

; 218  : 	{

	push	ebp
	mov	ebp, esp
	sub	esp, 64					; 00000040H
	push	ebx
	push	esi
	push	edi

; 219  : 		set_result->X = a.X - b.X;

	mov	eax, DWORD PTR _a$[ebp]
	mov	ecx, DWORD PTR _b$[ebp]
	movss	xmm0, DWORD PTR [eax]
	subss	xmm0, DWORD PTR [ecx]
	mov	edx, DWORD PTR _set_result$[ebp]
	movss	DWORD PTR [edx], xmm0

; 220  : 		set_result->Y = a.Y - b.Y;

	mov	eax, DWORD PTR _a$[ebp]
	mov	ecx, DWORD PTR _b$[ebp]
	movss	xmm0, DWORD PTR [eax+4]
	subss	xmm0, DWORD PTR [ecx+4]
	mov	edx, DWORD PTR _set_result$[ebp]
	movss	DWORD PTR [edx+4], xmm0

; 221  : 		set_result->Z = a.Z - b.Z;

	mov	eax, DWORD PTR _a$[ebp]
	mov	ecx, DWORD PTR _b$[ebp]
	movss	xmm0, DWORD PTR [eax+8]
	subss	xmm0, DWORD PTR [ecx+8]
	mov	edx, DWORD PTR _set_result$[ebp]
	movss	DWORD PTR [edx+8], xmm0

; 222  : 	}

	pop	edi
	pop	esi
	pop	ebx
	mov	esp, ebp
	pop	ebp
	ret	0
?Subtract@Vector3@@SAXABV1@0PAV1@@Z ENDP		; Vector3::Subtract
_TEXT	ENDS
; Function compile flags: /Odtp /ZI
; File x:\github\renegade\dragonade_rxd\scripts\vector3.h
;	COMDAT ?Add@Vector3@@SAXABV1@0PAV1@@Z
_TEXT	SEGMENT
_a$ = 8							; size = 4
_b$ = 12						; size = 4
_set_result$ = 16					; size = 4
?Add@Vector3@@SAXABV1@0PAV1@@Z PROC			; Vector3::Add, COMDAT

; 212  : 	{

	push	ebp
	mov	ebp, esp
	sub	esp, 64					; 00000040H
	push	ebx
	push	esi
	push	edi

; 213  : 		set_result->X = a.X + b.X;

	mov	eax, DWORD PTR _a$[ebp]
	mov	ecx, DWORD PTR _b$[ebp]
	movss	xmm0, DWORD PTR [eax]
	addss	xmm0, DWORD PTR [ecx]
	mov	edx, DWORD PTR _set_result$[ebp]
	movss	DWORD PTR [edx], xmm0

; 214  : 		set_result->Y = a.Y + b.Y;

	mov	eax, DWORD PTR _a$[ebp]
	mov	ecx, DWORD PTR _b$[ebp]
	movss	xmm0, DWORD PTR [eax+4]
	addss	xmm0, DWORD PTR [ecx+4]
	mov	edx, DWORD PTR _set_result$[ebp]
	movss	DWORD PTR [edx+4], xmm0

; 215  : 		set_result->Z = a.Z + b.Z;

	mov	eax, DWORD PTR _a$[ebp]
	mov	ecx, DWORD PTR _b$[ebp]
	movss	xmm0, DWORD PTR [eax+8]
	addss	xmm0, DWORD PTR [ecx+8]
	mov	edx, DWORD PTR _set_result$[ebp]
	movss	DWORD PTR [edx+8], xmm0

; 216  : 	}

	pop	edi
	pop	esi
	pop	ebx
	mov	esp, ebp
	pop	ebp
	ret	0
?Add@Vector3@@SAXABV1@0PAV1@@Z ENDP			; Vector3::Add
_TEXT	ENDS
; Function compile flags: /Odtp /ZI
; File x:\github\renegade\dragonade_rxd\scripts\vector3.h
;	COMDAT ??G@YA?AVVector3@@ABV0@0@Z
_TEXT	SEGMENT
___$ReturnUdt$ = 8					; size = 4
_a$ = 12						; size = 4
_b$ = 16						; size = 4
??G@YA?AVVector3@@ABV0@0@Z PROC				; operator-, COMDAT

; 377  : {

	push	ebp
	mov	ebp, esp
	sub	esp, 64					; 00000040H
	push	ebx
	push	esi
	push	edi

; 378  : 	return Vector3(a.X - b.X,a.Y - b.Y,a.Z - b.Z);

	mov	eax, DWORD PTR _a$[ebp]
	mov	ecx, DWORD PTR _b$[ebp]
	movss	xmm0, DWORD PTR [eax+8]
	subss	xmm0, DWORD PTR [ecx+8]
	push	ecx
	movss	DWORD PTR [esp], xmm0
	mov	edx, DWORD PTR _a$[ebp]
	mov	eax, DWORD PTR _b$[ebp]
	movss	xmm0, DWORD PTR [edx+4]
	subss	xmm0, DWORD PTR [eax+4]
	push	ecx
	movss	DWORD PTR [esp], xmm0
	mov	ecx, DWORD PTR _a$[ebp]
	mov	edx, DWORD PTR _b$[ebp]
	movss	xmm0, DWORD PTR [ecx]
	subss	xmm0, DWORD PTR [edx]
	push	ecx
	movss	DWORD PTR [esp], xmm0
	mov	ecx, DWORD PTR ___$ReturnUdt$[ebp]
	call	??0Vector3@@QAE@MMM@Z			; Vector3::Vector3
	mov	eax, DWORD PTR ___$ReturnUdt$[ebp]

; 379  : }

	pop	edi
	pop	esi
	pop	ebx
	mov	esp, ebp
	pop	ebp
	ret	0
??G@YA?AVVector3@@ABV0@0@Z ENDP				; operator-
_TEXT	ENDS
; Function compile flags: /Odtp /ZI
; File x:\github\renegade\dragonade_rxd\scripts\vector3.h
;	COMDAT ??H@YA?AVVector3@@ABV0@0@Z
_TEXT	SEGMENT
___$ReturnUdt$ = 8					; size = 4
_a$ = 12						; size = 4
_b$ = 16						; size = 4
??H@YA?AVVector3@@ABV0@0@Z PROC				; operator+, COMDAT

; 373  : {

	push	ebp
	mov	ebp, esp
	sub	esp, 64					; 00000040H
	push	ebx
	push	esi
	push	edi

; 374  : 	return Vector3(a.X + b.X,a.Y + b.Y,a.Z + b.Z);

	mov	eax, DWORD PTR _a$[ebp]
	mov	ecx, DWORD PTR _b$[ebp]
	movss	xmm0, DWORD PTR [eax+8]
	addss	xmm0, DWORD PTR [ecx+8]
	push	ecx
	movss	DWORD PTR [esp], xmm0
	mov	edx, DWORD PTR _a$[ebp]
	mov	eax, DWORD PTR _b$[ebp]
	movss	xmm0, DWORD PTR [edx+4]
	addss	xmm0, DWORD PTR [eax+4]
	push	ecx
	movss	DWORD PTR [esp], xmm0
	mov	ecx, DWORD PTR _a$[ebp]
	mov	edx, DWORD PTR _b$[ebp]
	movss	xmm0, DWORD PTR [ecx]
	addss	xmm0, DWORD PTR [edx]
	push	ecx
	movss	DWORD PTR [esp], xmm0
	mov	ecx, DWORD PTR ___$ReturnUdt$[ebp]
	call	??0Vector3@@QAE@MMM@Z			; Vector3::Vector3
	mov	eax, DWORD PTR ___$ReturnUdt$[ebp]

; 375  : }

	pop	edi
	pop	esi
	pop	ebx
	mov	esp, ebp
	pop	ebp
	ret	0
??H@YA?AVVector3@@ABV0@0@Z ENDP				; operator+
_TEXT	ENDS
; Function compile flags: /Odtp /ZI
; File x:\github\renegade\dragonade_rxd\scripts\vector3.h
;	COMDAT ??D@YA?AVVector3@@MABV0@@Z
_TEXT	SEGMENT
___$ReturnUdt$ = 8					; size = 4
_k$ = 12						; size = 4
_a$ = 16						; size = 4
??D@YA?AVVector3@@MABV0@@Z PROC				; operator*, COMDAT

; 365  : {

	push	ebp
	mov	ebp, esp
	sub	esp, 64					; 00000040H
	push	ebx
	push	esi
	push	edi

; 366  : 	return Vector3((a.X * k),(a.Y * k),(a.Z * k));

	mov	eax, DWORD PTR _a$[ebp]
	movss	xmm0, DWORD PTR [eax+8]
	mulss	xmm0, DWORD PTR _k$[ebp]
	push	ecx
	movss	DWORD PTR [esp], xmm0
	mov	ecx, DWORD PTR _a$[ebp]
	movss	xmm0, DWORD PTR [ecx+4]
	mulss	xmm0, DWORD PTR _k$[ebp]
	push	ecx
	movss	DWORD PTR [esp], xmm0
	mov	edx, DWORD PTR _a$[ebp]
	movss	xmm0, DWORD PTR [edx]
	mulss	xmm0, DWORD PTR _k$[ebp]
	push	ecx
	movss	DWORD PTR [esp], xmm0
	mov	ecx, DWORD PTR ___$ReturnUdt$[ebp]
	call	??0Vector3@@QAE@MMM@Z			; Vector3::Vector3
	mov	eax, DWORD PTR ___$ReturnUdt$[ebp]

; 367  : }

	pop	edi
	pop	esi
	pop	ebx
	mov	esp, ebp
	pop	ebp
	ret	0
??D@YA?AVVector3@@MABV0@@Z ENDP				; operator*
_TEXT	ENDS
; Function compile flags: /Odtp /ZI
; File x:\github\renegade\dragonade_rxd\scripts\vector3.h
;	COMDAT ??D@YA?AVVector3@@ABV0@M@Z
_TEXT	SEGMENT
___$ReturnUdt$ = 8					; size = 4
_a$ = 12						; size = 4
_k$ = 16						; size = 4
??D@YA?AVVector3@@ABV0@M@Z PROC				; operator*, COMDAT

; 361  : {

	push	ebp
	mov	ebp, esp
	sub	esp, 64					; 00000040H
	push	ebx
	push	esi
	push	edi

; 362  : 	return Vector3((a.X * k),(a.Y * k),(a.Z * k));

	mov	eax, DWORD PTR _a$[ebp]
	movss	xmm0, DWORD PTR [eax+8]
	mulss	xmm0, DWORD PTR _k$[ebp]
	push	ecx
	movss	DWORD PTR [esp], xmm0
	mov	ecx, DWORD PTR _a$[ebp]
	movss	xmm0, DWORD PTR [ecx+4]
	mulss	xmm0, DWORD PTR _k$[ebp]
	push	ecx
	movss	DWORD PTR [esp], xmm0
	mov	edx, DWORD PTR _a$[ebp]
	movss	xmm0, DWORD PTR [edx]
	mulss	xmm0, DWORD PTR _k$[ebp]
	push	ecx
	movss	DWORD PTR [esp], xmm0
	mov	ecx, DWORD PTR ___$ReturnUdt$[ebp]
	call	??0Vector3@@QAE@MMM@Z			; Vector3::Vector3
	mov	eax, DWORD PTR ___$ReturnUdt$[ebp]

; 363  : }

	pop	edi
	pop	esi
	pop	ebx
	mov	esp, ebp
	pop	ebp
	ret	0
??D@YA?AVVector3@@ABV0@M@Z ENDP				; operator*
_TEXT	ENDS
; Function compile flags: /Odtp /ZI
; File x:\github\renegade\dragonade_rxd\scripts\vector3.h
;	COMDAT ??_0Vector3@@QAEAAV0@M@Z
_TEXT	SEGMENT
_this$ = -4						; size = 4
_k$ = 8							; size = 4
??_0Vector3@@QAEAAV0@M@Z PROC				; Vector3::operator/=, COMDAT
; _this$ = ecx

; 164  : 	{

	push	ebp
	mov	ebp, esp
	sub	esp, 68					; 00000044H
	push	ebx
	push	esi
	push	edi
	mov	DWORD PTR _this$[ebp], ecx

; 165  : 		X = X * 1.0f / k;

	mov	eax, DWORD PTR _this$[ebp]
	movss	xmm0, DWORD PTR [eax]
	mulss	xmm0, DWORD PTR __real@3f800000
	divss	xmm0, DWORD PTR _k$[ebp]
	mov	ecx, DWORD PTR _this$[ebp]
	movss	DWORD PTR [ecx], xmm0

; 166  : 		Y = Y * 1.0f / k;

	mov	eax, DWORD PTR _this$[ebp]
	movss	xmm0, DWORD PTR [eax+4]
	mulss	xmm0, DWORD PTR __real@3f800000
	divss	xmm0, DWORD PTR _k$[ebp]
	mov	ecx, DWORD PTR _this$[ebp]
	movss	DWORD PTR [ecx+4], xmm0

; 167  : 		Z = Z * 1.0f / k;

	mov	eax, DWORD PTR _this$[ebp]
	movss	xmm0, DWORD PTR [eax+8]
	mulss	xmm0, DWORD PTR __real@3f800000
	divss	xmm0, DWORD PTR _k$[ebp]
	mov	ecx, DWORD PTR _this$[ebp]
	movss	DWORD PTR [ecx+8], xmm0

; 168  : 		return *this;

	mov	eax, DWORD PTR _this$[ebp]

; 169  : 	}

	pop	edi
	pop	esi
	pop	ebx
	mov	esp, ebp
	pop	ebp
	ret	4
??_0Vector3@@QAEAAV0@M@Z ENDP				; Vector3::operator/=
_TEXT	ENDS
; Function compile flags: /Odtp /ZI
; File x:\github\renegade\dragonade_rxd\scripts\vector3.h
;	COMDAT ??XVector3@@QAEAAV0@M@Z
_TEXT	SEGMENT
_this$ = -4						; size = 4
_k$ = 8							; size = 4
??XVector3@@QAEAAV0@M@Z PROC				; Vector3::operator*=, COMDAT
; _this$ = ecx

; 157  : 	{

	push	ebp
	mov	ebp, esp
	sub	esp, 68					; 00000044H
	push	ebx
	push	esi
	push	edi
	mov	DWORD PTR _this$[ebp], ecx

; 158  : 		X = X * k;

	mov	eax, DWORD PTR _this$[ebp]
	movss	xmm0, DWORD PTR [eax]
	mulss	xmm0, DWORD PTR _k$[ebp]
	mov	ecx, DWORD PTR _this$[ebp]
	movss	DWORD PTR [ecx], xmm0

; 159  : 		Y = Y * k;

	mov	eax, DWORD PTR _this$[ebp]
	movss	xmm0, DWORD PTR [eax+4]
	mulss	xmm0, DWORD PTR _k$[ebp]
	mov	ecx, DWORD PTR _this$[ebp]
	movss	DWORD PTR [ecx+4], xmm0

; 160  : 		Z = Z * k;

	mov	eax, DWORD PTR _this$[ebp]
	movss	xmm0, DWORD PTR [eax+8]
	mulss	xmm0, DWORD PTR _k$[ebp]
	mov	ecx, DWORD PTR _this$[ebp]
	movss	DWORD PTR [ecx+8], xmm0

; 161  : 		return *this;

	mov	eax, DWORD PTR _this$[ebp]

; 162  : 	}

	pop	edi
	pop	esi
	pop	ebx
	mov	esp, ebp
	pop	ebp
	ret	4
??XVector3@@QAEAAV0@M@Z ENDP				; Vector3::operator*=
_TEXT	ENDS
; Function compile flags: /Odtp /ZI
; File x:\github\renegade\dragonade_rxd\scripts\vector3.h
;	COMDAT ??ZVector3@@QAEAAV0@ABV0@@Z
_TEXT	SEGMENT
_this$ = -4						; size = 4
_v$ = 8							; size = 4
??ZVector3@@QAEAAV0@ABV0@@Z PROC			; Vector3::operator-=, COMDAT
; _this$ = ecx

; 150  : 	{

	push	ebp
	mov	ebp, esp
	sub	esp, 68					; 00000044H
	push	ebx
	push	esi
	push	edi
	mov	DWORD PTR _this$[ebp], ecx

; 151  : 		X -= v.X;

	mov	eax, DWORD PTR _this$[ebp]
	mov	ecx, DWORD PTR _v$[ebp]
	movss	xmm0, DWORD PTR [eax]
	subss	xmm0, DWORD PTR [ecx]
	mov	edx, DWORD PTR _this$[ebp]
	movss	DWORD PTR [edx], xmm0

; 152  : 		Y -= v.Y;

	mov	eax, DWORD PTR _this$[ebp]
	mov	ecx, DWORD PTR _v$[ebp]
	movss	xmm0, DWORD PTR [eax+4]
	subss	xmm0, DWORD PTR [ecx+4]
	mov	edx, DWORD PTR _this$[ebp]
	movss	DWORD PTR [edx+4], xmm0

; 153  : 		Z -= v.Z;

	mov	eax, DWORD PTR _this$[ebp]
	mov	ecx, DWORD PTR _v$[ebp]
	movss	xmm0, DWORD PTR [eax+8]
	subss	xmm0, DWORD PTR [ecx+8]
	mov	edx, DWORD PTR _this$[ebp]
	movss	DWORD PTR [edx+8], xmm0

; 154  : 		return *this;

	mov	eax, DWORD PTR _this$[ebp]

; 155  : 	}

	pop	edi
	pop	esi
	pop	ebx
	mov	esp, ebp
	pop	ebp
	ret	4
??ZVector3@@QAEAAV0@ABV0@@Z ENDP			; Vector3::operator-=
_TEXT	ENDS
; Function compile flags: /Odtp /ZI
; File x:\github\renegade\dragonade_rxd\scripts\vector3.h
;	COMDAT ??YVector3@@QAEAAV0@ABV0@@Z
_TEXT	SEGMENT
_this$ = -4						; size = 4
_v$ = 8							; size = 4
??YVector3@@QAEAAV0@ABV0@@Z PROC			; Vector3::operator+=, COMDAT
; _this$ = ecx

; 143  : 	{

	push	ebp
	mov	ebp, esp
	sub	esp, 68					; 00000044H
	push	ebx
	push	esi
	push	edi
	mov	DWORD PTR _this$[ebp], ecx

; 144  : 		X += v.X;

	mov	eax, DWORD PTR _this$[ebp]
	mov	ecx, DWORD PTR _v$[ebp]
	movss	xmm0, DWORD PTR [eax]
	addss	xmm0, DWORD PTR [ecx]
	mov	edx, DWORD PTR _this$[ebp]
	movss	DWORD PTR [edx], xmm0

; 145  : 		Y += v.Y;

	mov	eax, DWORD PTR _this$[ebp]
	mov	ecx, DWORD PTR _v$[ebp]
	movss	xmm0, DWORD PTR [eax+4]
	addss	xmm0, DWORD PTR [ecx+4]
	mov	edx, DWORD PTR _this$[ebp]
	movss	DWORD PTR [edx+4], xmm0

; 146  : 		Z += v.Z;

	mov	eax, DWORD PTR _this$[ebp]
	mov	ecx, DWORD PTR _v$[ebp]
	movss	xmm0, DWORD PTR [eax+8]
	addss	xmm0, DWORD PTR [ecx+8]
	mov	edx, DWORD PTR _this$[ebp]
	movss	DWORD PTR [edx+8], xmm0

; 147  : 		return *this;

	mov	eax, DWORD PTR _this$[ebp]

; 148  : 	}

	pop	edi
	pop	esi
	pop	ebx
	mov	esp, ebp
	pop	ebp
	ret	4
??YVector3@@QAEAAV0@ABV0@@Z ENDP			; Vector3::operator+=
_TEXT	ENDS
; Function compile flags: /Odtp /ZI
; File x:\github\renegade\dragonade_rxd\scripts\vector3.h
;	COMDAT ?Length2@Vector3@@QBEMXZ
_TEXT	SEGMENT
tv85 = -72						; size = 4
_this$ = -4						; size = 4
?Length2@Vector3@@QBEMXZ PROC				; Vector3::Length2, COMDAT
; _this$ = ecx

; 92   : 	{

	push	ebp
	mov	ebp, esp
	sub	esp, 72					; 00000048H
	push	ebx
	push	esi
	push	edi
	mov	DWORD PTR _this$[ebp], ecx

; 93   : 		return X * X + Y * Y + Z * Z;

	mov	eax, DWORD PTR _this$[ebp]
	mov	ecx, DWORD PTR _this$[ebp]
	movss	xmm0, DWORD PTR [eax]
	mulss	xmm0, DWORD PTR [ecx]
	mov	edx, DWORD PTR _this$[ebp]
	mov	eax, DWORD PTR _this$[ebp]
	movss	xmm1, DWORD PTR [edx+4]
	mulss	xmm1, DWORD PTR [eax+4]
	addss	xmm0, xmm1
	mov	ecx, DWORD PTR _this$[ebp]
	mov	edx, DWORD PTR _this$[ebp]
	movss	xmm1, DWORD PTR [ecx+8]
	mulss	xmm1, DWORD PTR [edx+8]
	addss	xmm0, xmm1
	movss	DWORD PTR tv85[ebp], xmm0
	fld	DWORD PTR tv85[ebp]

; 94   : 	}

	pop	edi
	pop	esi
	pop	ebx
	mov	esp, ebp
	pop	ebp
	ret	0
?Length2@Vector3@@QBEMXZ ENDP				; Vector3::Length2
_TEXT	ENDS
; Function compile flags: /Odtp /ZI
; File x:\github\renegade\dragonade_rxd\scripts\vector3.h
;	COMDAT ?Length@Vector3@@QBEMXZ
_TEXT	SEGMENT
_this$ = -4						; size = 4
?Length@Vector3@@QBEMXZ PROC				; Vector3::Length, COMDAT
; _this$ = ecx

; 88   : 	{

	push	ebp
	mov	ebp, esp
	sub	esp, 68					; 00000044H
	push	ebx
	push	esi
	push	edi
	mov	DWORD PTR _this$[ebp], ecx

; 89   : 		return WWMath::Sqrt(Length2());

	mov	ecx, DWORD PTR _this$[ebp]
	call	?Length2@Vector3@@QBEMXZ		; Vector3::Length2
	push	ecx
	fstp	DWORD PTR [esp]
	call	?Sqrt@WWMath@@SAMM@Z			; WWMath::Sqrt
	add	esp, 4

; 90   : 	}

	pop	edi
	pop	esi
	pop	ebx
	mov	esp, ebp
	pop	ebp
	ret	0
?Length@Vector3@@QBEMXZ ENDP				; Vector3::Length
_TEXT	ENDS
; Function compile flags: /Odtp /ZI
; File x:\github\renegade\dragonade_rxd\scripts\vector3.h
;	COMDAT ?Normalize@Vector3@@QAEXXZ
_TEXT	SEGMENT
tv81 = -80						; size = 4
_oolen$ = -12						; size = 4
_len2$ = -8						; size = 4
_this$ = -4						; size = 4
?Normalize@Vector3@@QAEXXZ PROC				; Vector3::Normalize, COMDAT
; _this$ = ecx

; 74   : 	{

	push	ebp
	mov	ebp, esp
	sub	esp, 80					; 00000050H
	push	ebx
	push	esi
	push	edi
	mov	DWORD PTR _this$[ebp], ecx

; 75   : 		float len2 = WWMATH_FLOAT_TINY + Length2();

	mov	ecx, DWORD PTR _this$[ebp]
	call	?Length2@Vector3@@QBEMXZ		; Vector3::Length2
	fstp	DWORD PTR tv81[ebp]
	movss	xmm0, DWORD PTR tv81[ebp]
	addss	xmm0, DWORD PTR __real@02081cea
	movss	DWORD PTR _len2$[ebp], xmm0

; 76   : 		float oolen = WWMath::Inv_Sqrt(len2);

	push	ecx
	movss	xmm0, DWORD PTR _len2$[ebp]
	movss	DWORD PTR [esp], xmm0
	call	?Inv_Sqrt@WWMath@@SIMM@Z		; WWMath::Inv_Sqrt
	fstp	DWORD PTR _oolen$[ebp]

; 77   : 		X *= oolen;

	mov	eax, DWORD PTR _this$[ebp]
	movss	xmm0, DWORD PTR [eax]
	mulss	xmm0, DWORD PTR _oolen$[ebp]
	mov	ecx, DWORD PTR _this$[ebp]
	movss	DWORD PTR [ecx], xmm0

; 78   : 		Y *= oolen;

	mov	eax, DWORD PTR _this$[ebp]
	movss	xmm0, DWORD PTR [eax+4]
	mulss	xmm0, DWORD PTR _oolen$[ebp]
	mov	ecx, DWORD PTR _this$[ebp]
	movss	DWORD PTR [ecx+4], xmm0

; 79   : 		Z *= oolen;

	mov	eax, DWORD PTR _this$[ebp]
	movss	xmm0, DWORD PTR [eax+8]
	mulss	xmm0, DWORD PTR _oolen$[ebp]
	mov	ecx, DWORD PTR _this$[ebp]
	movss	DWORD PTR [ecx+8], xmm0

; 80   : 	}

	pop	edi
	pop	esi
	pop	ebx
	mov	esp, ebp
	pop	ebp
	ret	0
?Normalize@Vector3@@QAEXXZ ENDP				; Vector3::Normalize
_TEXT	ENDS
; Function compile flags: /Odtp /ZI
; File x:\github\renegade\dragonade_rxd\scripts\vector3.h
;	COMDAT ??AVector3@@QBEABMH@Z
_TEXT	SEGMENT
_this$ = -4						; size = 4
_i$ = 8							; size = 4
??AVector3@@QBEABMH@Z PROC				; Vector3::operator[], COMDAT
; _this$ = ecx

; 70   : 	{

	push	ebp
	mov	ebp, esp
	sub	esp, 68					; 00000044H
	push	ebx
	push	esi
	push	edi
	mov	DWORD PTR _this$[ebp], ecx

; 71   : 		return (&X)[i];

	mov	eax, DWORD PTR _i$[ebp]
	mov	ecx, DWORD PTR _this$[ebp]
	lea	eax, DWORD PTR [ecx+eax*4]

; 72   : 	}

	pop	edi
	pop	esi
	pop	ebx
	mov	esp, ebp
	pop	ebp
	ret	4
??AVector3@@QBEABMH@Z ENDP				; Vector3::operator[]
_TEXT	ENDS
; Function compile flags: /Odtp /ZI
; File x:\github\renegade\dragonade_rxd\scripts\vector3.h
;	COMDAT ??AVector3@@QAEAAMH@Z
_TEXT	SEGMENT
_this$ = -4						; size = 4
_i$ = 8							; size = 4
??AVector3@@QAEAAMH@Z PROC				; Vector3::operator[], COMDAT
; _this$ = ecx

; 66   : 	{

	push	ebp
	mov	ebp, esp
	sub	esp, 68					; 00000044H
	push	ebx
	push	esi
	push	edi
	mov	DWORD PTR _this$[ebp], ecx

; 67   : 		return (&X)[i];

	mov	eax, DWORD PTR _i$[ebp]
	mov	ecx, DWORD PTR _this$[ebp]
	lea	eax, DWORD PTR [ecx+eax*4]

; 68   : 	}

	pop	edi
	pop	esi
	pop	ebx
	mov	esp, ebp
	pop	ebp
	ret	4
??AVector3@@QAEAAMH@Z ENDP				; Vector3::operator[]
_TEXT	ENDS
; Function compile flags: /Odtp /ZI
; File x:\github\renegade\dragonade_rxd\scripts\vector3.h
;	COMDAT ?Set@Vector3@@QAEXMMM@Z
_TEXT	SEGMENT
_this$ = -4						; size = 4
_x$ = 8							; size = 4
_y$ = 12						; size = 4
_z$ = 16						; size = 4
?Set@Vector3@@QAEXMMM@Z PROC				; Vector3::Set, COMDAT
; _this$ = ecx

; 54   : 	{

	push	ebp
	mov	ebp, esp
	sub	esp, 68					; 00000044H
	push	ebx
	push	esi
	push	edi
	mov	DWORD PTR _this$[ebp], ecx

; 55   : 		X = x;

	mov	eax, DWORD PTR _this$[ebp]
	movss	xmm0, DWORD PTR _x$[ebp]
	movss	DWORD PTR [eax], xmm0

; 56   : 		Y = y;

	mov	eax, DWORD PTR _this$[ebp]
	movss	xmm0, DWORD PTR _y$[ebp]
	movss	DWORD PTR [eax+4], xmm0

; 57   : 		Z = z;

	mov	eax, DWORD PTR _this$[ebp]
	movss	xmm0, DWORD PTR _z$[ebp]
	movss	DWORD PTR [eax+8], xmm0

; 58   : 	}

	pop	edi
	pop	esi
	pop	ebx
	mov	esp, ebp
	pop	ebp
	ret	12					; 0000000cH
?Set@Vector3@@QAEXMMM@Z ENDP				; Vector3::Set
_TEXT	ENDS
; Function compile flags: /Odtp /ZI
; File x:\github\renegade\dragonade_rxd\scripts\vector3.h
;	COMDAT ??4Vector3@@QAEAAV0@ABV0@@Z
_TEXT	SEGMENT
_this$ = -4						; size = 4
_v$ = 8							; size = 4
??4Vector3@@QAEAAV0@ABV0@@Z PROC			; Vector3::operator=, COMDAT
; _this$ = ecx

; 47   : 	{

	push	ebp
	mov	ebp, esp
	sub	esp, 68					; 00000044H
	push	ebx
	push	esi
	push	edi
	mov	DWORD PTR _this$[ebp], ecx

; 48   : 		X = v.X;

	mov	eax, DWORD PTR _this$[ebp]
	mov	ecx, DWORD PTR _v$[ebp]
	mov	edx, DWORD PTR [ecx]
	mov	DWORD PTR [eax], edx

; 49   : 		Y = v.Y;

	mov	eax, DWORD PTR _this$[ebp]
	mov	ecx, DWORD PTR _v$[ebp]
	mov	edx, DWORD PTR [ecx+4]
	mov	DWORD PTR [eax+4], edx

; 50   : 		Z = v.Z;

	mov	eax, DWORD PTR _this$[ebp]
	mov	ecx, DWORD PTR _v$[ebp]
	mov	edx, DWORD PTR [ecx+8]
	mov	DWORD PTR [eax+8], edx

; 51   : 		return *this;

	mov	eax, DWORD PTR _this$[ebp]

; 52   : 	}

	pop	edi
	pop	esi
	pop	ebx
	mov	esp, ebp
	pop	ebp
	ret	4
??4Vector3@@QAEAAV0@ABV0@@Z ENDP			; Vector3::operator=
_TEXT	ENDS
; Function compile flags: /Odtp /ZI
; File x:\github\renegade\dragonade_rxd\scripts\vector3.h
;	COMDAT ??0Vector3@@QAE@MMM@Z
_TEXT	SEGMENT
_this$ = -4						; size = 4
_x$ = 8							; size = 4
_y$ = 12						; size = 4
_z$ = 16						; size = 4
??0Vector3@@QAE@MMM@Z PROC				; Vector3::Vector3, COMDAT
; _this$ = ecx

; 33   : 	TT_INLINE Vector3(float x, float y, float z)

	push	ebp
	mov	ebp, esp
	sub	esp, 68					; 00000044H
	push	ebx
	push	esi
	push	edi
	mov	DWORD PTR _this$[ebp], ecx

; 34   : 	{
; 35   : 		X = x;

	mov	eax, DWORD PTR _this$[ebp]
	movss	xmm0, DWORD PTR _x$[ebp]
	movss	DWORD PTR [eax], xmm0

; 36   : 		Y = y;

	mov	eax, DWORD PTR _this$[ebp]
	movss	xmm0, DWORD PTR _y$[ebp]
	movss	DWORD PTR [eax+4], xmm0

; 37   : 		Z = z;

	mov	eax, DWORD PTR _this$[ebp]
	movss	xmm0, DWORD PTR _z$[ebp]
	movss	DWORD PTR [eax+8], xmm0

; 38   : 	}

	mov	eax, DWORD PTR _this$[ebp]
	pop	edi
	pop	esi
	pop	ebx
	mov	esp, ebp
	pop	ebp
	ret	12					; 0000000cH
??0Vector3@@QAE@MMM@Z ENDP				; Vector3::Vector3
_TEXT	ENDS
; Function compile flags: /Odtp /ZI
; File x:\github\renegade\dragonade_rxd\scripts\vector3.h
;	COMDAT ??0Vector3@@QAE@ABV0@@Z
_TEXT	SEGMENT
_this$ = -4						; size = 4
_v$ = 8							; size = 4
??0Vector3@@QAE@ABV0@@Z PROC				; Vector3::Vector3, COMDAT
; _this$ = ecx

; 27   : 	TT_INLINE Vector3(const Vector3 &v)

	push	ebp
	mov	ebp, esp
	sub	esp, 68					; 00000044H
	push	ebx
	push	esi
	push	edi
	mov	DWORD PTR _this$[ebp], ecx

; 28   : 	{
; 29   : 		X = v.X;

	mov	eax, DWORD PTR _this$[ebp]
	mov	ecx, DWORD PTR _v$[ebp]
	mov	edx, DWORD PTR [ecx]
	mov	DWORD PTR [eax], edx

; 30   : 		Y = v.Y;

	mov	eax, DWORD PTR _this$[ebp]
	mov	ecx, DWORD PTR _v$[ebp]
	mov	edx, DWORD PTR [ecx+4]
	mov	DWORD PTR [eax+4], edx

; 31   : 		Z = v.Z;

	mov	eax, DWORD PTR _this$[ebp]
	mov	ecx, DWORD PTR _v$[ebp]
	mov	edx, DWORD PTR [ecx+8]
	mov	DWORD PTR [eax+8], edx

; 32   : 	}

	mov	eax, DWORD PTR _this$[ebp]
	pop	edi
	pop	esi
	pop	ebx
	mov	esp, ebp
	pop	ebp
	ret	4
??0Vector3@@QAE@ABV0@@Z ENDP				; Vector3::Vector3
_TEXT	ENDS
; Function compile flags: /Odtp /ZI
; File x:\github\renegade\dragonade_rxd\scripts\vector3.h
;	COMDAT ??0Vector3@@QAE@XZ
_TEXT	SEGMENT
_this$ = -4						; size = 4
??0Vector3@@QAE@XZ PROC					; Vector3::Vector3, COMDAT
; _this$ = ecx

; 23   : 	TT_INLINE Vector3()

	push	ebp
	mov	ebp, esp
	sub	esp, 68					; 00000044H
	push	ebx
	push	esi
	push	edi
	mov	DWORD PTR _this$[ebp], ecx

; 24   : 	{
; 25   : 		X = Y = Z = 0.0f;

	mov	eax, DWORD PTR _this$[ebp]
	movss	xmm0, DWORD PTR __real@00000000
	movss	DWORD PTR [eax+8], xmm0
	mov	ecx, DWORD PTR _this$[ebp]
	movss	xmm0, DWORD PTR __real@00000000
	movss	DWORD PTR [ecx+4], xmm0
	mov	edx, DWORD PTR _this$[ebp]
	movss	xmm0, DWORD PTR __real@00000000
	movss	DWORD PTR [edx], xmm0

; 26   : 	}

	mov	eax, DWORD PTR _this$[ebp]
	pop	edi
	pop	esi
	pop	ebx
	mov	esp, ebp
	pop	ebp
	ret	0
??0Vector3@@QAE@XZ ENDP					; Vector3::Vector3
_TEXT	ENDS
; Function compile flags: /Odtp /ZI
; File x:\github\renegade\dragonade_rxd\scripts\defines.h
;	COMDAT ??B?$RefArrayHelper@M$0EAA@@@QAEPAMXZ
_TEXT	SEGMENT
_this$ = -4						; size = 4
??B?$RefArrayHelper@M$0EAA@@@QAEPAMXZ PROC		; RefArrayHelper<float,1024>::operator float *, COMDAT
; _this$ = ecx

; 161  : 	{

	push	ebp
	mov	ebp, esp
	sub	esp, 68					; 00000044H
	push	ebx
	push	esi
	push	edi
	mov	DWORD PTR _this$[ebp], ecx

; 162  : 		return (T*) this;

	mov	eax, DWORD PTR _this$[ebp]

; 163  : 	};

	pop	edi
	pop	esi
	pop	ebx
	mov	esp, ebp
	pop	ebp
	ret	0
??B?$RefArrayHelper@M$0EAA@@@QAEPAMXZ ENDP		; RefArrayHelper<float,1024>::operator float *
_TEXT	ENDS
; Function compile flags: /Odtp /ZI
;	COMDAT ??4WWMath@@QAEAAV0@ABV0@@Z
_TEXT	SEGMENT
_this$ = -4						; size = 4
___that$ = 8						; size = 4
??4WWMath@@QAEAAV0@ABV0@@Z PROC				; WWMath::operator=, COMDAT
; _this$ = ecx
	push	ebp
	mov	ebp, esp
	sub	esp, 68					; 00000044H
	push	ebx
	push	esi
	push	edi
	mov	DWORD PTR _this$[ebp], ecx
	mov	eax, DWORD PTR _this$[ebp]
	pop	edi
	pop	esi
	pop	ebx
	mov	esp, ebp
	pop	ebp
	ret	4
??4WWMath@@QAEAAV0@ABV0@@Z ENDP				; WWMath::operator=
_TEXT	ENDS
; Function compile flags: /Odtp /ZI
; File x:\github\renegade\dragonade_rxd\scripts\wwmath.h
;	COMDAT ?Is_Valid_Double@WWMath@@SA_NN@Z
_TEXT	SEGMENT
_exponent$ = -8						; size = 4
_plong$ = -4						; size = 4
_x$ = 8							; size = 8
?Is_Valid_Double@WWMath@@SA_NN@Z PROC			; WWMath::Is_Valid_Double, COMDAT

; 207  : {

	push	ebp
	mov	ebp, esp
	sub	esp, 72					; 00000048H
	push	ebx
	push	esi
	push	edi

; 208  : 	unsigned long * plong = (unsigned long *)(&x) + 1;

	lea	eax, DWORD PTR _x$[ebp+4]
	mov	DWORD PTR _plong$[ebp], eax

; 209  : 	unsigned long exponent = ((*plong) & 0x7FF00000) >> (32-12);

	mov	eax, DWORD PTR _plong$[ebp]
	mov	ecx, DWORD PTR [eax]
	and	ecx, 2146435072				; 7ff00000H
	shr	ecx, 20					; 00000014H
	mov	DWORD PTR _exponent$[ebp], ecx

; 210  : 	if (exponent == 0x7FF) {

	cmp	DWORD PTR _exponent$[ebp], 2047		; 000007ffH
	jne	SHORT $LN1@Is_Valid_D

; 211  : 		return false;

	xor	al, al
	jmp	SHORT $LN2@Is_Valid_D
$LN1@Is_Valid_D:

; 212  : 	}
; 213  : 	return true;

	mov	al, 1
$LN2@Is_Valid_D:

; 214  : }

	pop	edi
	pop	esi
	pop	ebx
	mov	esp, ebp
	pop	ebp
	ret	0
?Is_Valid_Double@WWMath@@SA_NN@Z ENDP			; WWMath::Is_Valid_Double
_TEXT	ENDS
; Function compile flags: /Odtp /ZI
; File x:\github\renegade\dragonade_rxd\scripts\wwmath.h
;	COMDAT ?Is_Valid_Float@WWMath@@SA_NM@Z
_TEXT	SEGMENT
_exponent$ = -8						; size = 4
_plong$ = -4						; size = 4
_x$ = 8							; size = 4
?Is_Valid_Float@WWMath@@SA_NM@Z PROC			; WWMath::Is_Valid_Float, COMDAT

; 197  : {

	push	ebp
	mov	ebp, esp
	sub	esp, 72					; 00000048H
	push	ebx
	push	esi
	push	edi

; 198  : 	unsigned long * plong = (unsigned long *)(&x);

	lea	eax, DWORD PTR _x$[ebp]
	mov	DWORD PTR _plong$[ebp], eax

; 199  : 	unsigned long exponent = ((*plong) & 0x7F800000) >> (32-9);

	mov	eax, DWORD PTR _plong$[ebp]
	mov	ecx, DWORD PTR [eax]
	and	ecx, 2139095040				; 7f800000H
	shr	ecx, 23					; 00000017H
	mov	DWORD PTR _exponent$[ebp], ecx

; 200  : 	if (exponent == 0xFF) {

	cmp	DWORD PTR _exponent$[ebp], 255		; 000000ffH
	jne	SHORT $LN1@Is_Valid_F

; 201  : 		return false;

	xor	al, al
	jmp	SHORT $LN2@Is_Valid_F
$LN1@Is_Valid_F:

; 202  : 	}
; 203  : 	return true;

	mov	al, 1
$LN2@Is_Valid_F:

; 204  : }

	pop	edi
	pop	esi
	pop	ebx
	mov	esp, ebp
	pop	ebp
	ret	0
?Is_Valid_Float@WWMath@@SA_NM@Z ENDP			; WWMath::Is_Valid_Float
_TEXT	ENDS
; Function compile flags: /Odtp /ZI
; File x:\github\renegade\dragonade_rxd\scripts\wwmath.h
;	COMDAT ?Byte_To_Unit_Float@WWMath@@SAME@Z
_TEXT	SEGMENT
tv69 = -68						; size = 4
_byte$ = 8						; size = 1
?Byte_To_Unit_Float@WWMath@@SAME@Z PROC			; WWMath::Byte_To_Unit_Float, COMDAT

; 97   : 	static float Byte_To_Unit_Float(unsigned char byte) { return ((float)byte) / 255.0f; }

	push	ebp
	mov	ebp, esp
	sub	esp, 68					; 00000044H
	push	ebx
	push	esi
	push	edi
	movzx	eax, BYTE PTR _byte$[ebp]
	cvtsi2ss xmm0, eax
	divss	xmm0, DWORD PTR __real@437f0000
	movss	DWORD PTR tv69[ebp], xmm0
	fld	DWORD PTR tv69[ebp]
	pop	edi
	pop	esi
	pop	ebx
	mov	esp, ebp
	pop	ebp
	ret	0
?Byte_To_Unit_Float@WWMath@@SAME@Z ENDP			; WWMath::Byte_To_Unit_Float
_TEXT	ENDS
; Function compile flags: /Odtp /ZI
; File x:\github\renegade\dragonade_rxd\scripts\wwmath.h
;	COMDAT ?Unit_Float_To_Byte@WWMath@@SAEM@Z
_TEXT	SEGMENT
_f$ = 8							; size = 4
?Unit_Float_To_Byte@WWMath@@SAEM@Z PROC			; WWMath::Unit_Float_To_Byte, COMDAT

; 96   : 	static unsigned char Unit_Float_To_Byte(float f) { return (unsigned char)(f*255.0f); }

	push	ebp
	mov	ebp, esp
	sub	esp, 64					; 00000040H
	push	ebx
	push	esi
	push	edi
	movss	xmm0, DWORD PTR _f$[ebp]
	mulss	xmm0, DWORD PTR __real@437f0000
	cvttss2si eax, xmm0
	pop	edi
	pop	esi
	pop	ebx
	mov	esp, ebp
	pop	ebp
	ret	0
?Unit_Float_To_Byte@WWMath@@SAEM@Z ENDP			; WWMath::Unit_Float_To_Byte
_TEXT	ENDS
; Function compile flags: /Odtp /ZI
; File x:\github\renegade\dragonade_rxd\scripts\wwmath.h
;	COMDAT ?Float_To_Long@WWMath@@SAJN@Z
_TEXT	SEGMENT
$T1 = -80						; size = 16
_f$ = 8							; size = 8
?Float_To_Long@WWMath@@SAJN@Z PROC			; WWMath::Float_To_Long, COMDAT

; 222  : {

	push	ebx
	mov	ebx, esp
	sub	esp, 8
	and	esp, -16				; fffffff0H
	add	esp, 4
	push	ebp
	mov	ebp, DWORD PTR [ebx+4]
	mov	DWORD PTR [esp+4], ebp
	mov	ebp, esp
	sub	esp, 88					; 00000058H
	push	esi
	push	edi

; 223  :     return _mm_cvttsd_si32(_mm_load_pd(&f));

	movupd	xmm0, XMMWORD PTR _f$[ebx]
	movapd	XMMWORD PTR $T1[ebp], xmm0
	movapd	xmm0, XMMWORD PTR $T1[ebp]
	cvttsd2si eax, xmm0

; 224  : }

	pop	edi
	pop	esi
	mov	esp, ebp
	pop	ebp
	mov	esp, ebx
	pop	ebx
	ret	0
?Float_To_Long@WWMath@@SAJN@Z ENDP			; WWMath::Float_To_Long
_TEXT	ENDS
; Function compile flags: /Odtp /ZI
; File x:\github\renegade\dragonade_rxd\scripts\wwmath.h
;	COMDAT ?Lerp@WWMath@@SAHHHM@Z
_TEXT	SEGMENT
_a$ = 8							; size = 4
_b$ = 12						; size = 4
_lerp$ = 16						; size = 4
?Lerp@WWMath@@SAHHHM@Z PROC				; WWMath::Lerp, COMDAT

; 192  : {

	push	ebp
	mov	ebp, esp
	sub	esp, 64					; 00000040H
	push	ebx
	push	esi
	push	edi

; 193  : 	return (a + (int)((b - a)*lerp));

	mov	eax, DWORD PTR _b$[ebp]
	sub	eax, DWORD PTR _a$[ebp]
	cvtsi2ss xmm0, eax
	mulss	xmm0, DWORD PTR _lerp$[ebp]
	cvttss2si eax, xmm0
	add	eax, DWORD PTR _a$[ebp]

; 194  : }

	pop	edi
	pop	esi
	pop	ebx
	mov	esp, ebp
	pop	ebp
	ret	0
?Lerp@WWMath@@SAHHHM@Z ENDP				; WWMath::Lerp
_TEXT	ENDS
; Function compile flags: /Odtp /ZI
; File x:\github\renegade\dragonade_rxd\scripts\wwmath.h
;	COMDAT ?Lerp@WWMath@@SANNNM@Z
_TEXT	SEGMENT
tv73 = -72						; size = 8
_a$ = 8							; size = 8
_b$ = 16						; size = 8
_lerp$ = 24						; size = 4
?Lerp@WWMath@@SANNNM@Z PROC				; WWMath::Lerp, COMDAT

; 187  : {

	push	ebp
	mov	ebp, esp
	sub	esp, 72					; 00000048H
	push	ebx
	push	esi
	push	edi

; 188  : 	return (a + (b - a)*lerp);

	movsd	xmm0, QWORD PTR _b$[ebp]
	subsd	xmm0, QWORD PTR _a$[ebp]
	cvtss2sd xmm1, DWORD PTR _lerp$[ebp]
	mulsd	xmm0, xmm1
	addsd	xmm0, QWORD PTR _a$[ebp]
	movsd	QWORD PTR tv73[ebp], xmm0
	fld	QWORD PTR tv73[ebp]

; 189  : }

	pop	edi
	pop	esi
	pop	ebx
	mov	esp, ebp
	pop	ebp
	ret	0
?Lerp@WWMath@@SANNNM@Z ENDP				; WWMath::Lerp
_TEXT	ENDS
; Function compile flags: /Odtp /ZI
; File x:\github\renegade\dragonade_rxd\scripts\wwmath.h
;	COMDAT ?Lerp@WWMath@@SAMMMM@Z
_TEXT	SEGMENT
tv72 = -68						; size = 4
_a$ = 8							; size = 4
_b$ = 12						; size = 4
_lerp$ = 16						; size = 4
?Lerp@WWMath@@SAMMMM@Z PROC				; WWMath::Lerp, COMDAT

; 182  : {

	push	ebp
	mov	ebp, esp
	sub	esp, 68					; 00000044H
	push	ebx
	push	esi
	push	edi

; 183  : 	return (a + (b - a)*lerp);

	movss	xmm0, DWORD PTR _b$[ebp]
	subss	xmm0, DWORD PTR _a$[ebp]
	mulss	xmm0, DWORD PTR _lerp$[ebp]
	addss	xmm0, DWORD PTR _a$[ebp]
	movss	DWORD PTR tv72[ebp], xmm0
	fld	DWORD PTR tv72[ebp]

; 184  : }

	pop	edi
	pop	esi
	pop	ebx
	mov	esp, ebp
	pop	ebp
	ret	0
?Lerp@WWMath@@SAMMMM@Z ENDP				; WWMath::Lerp
_TEXT	ENDS
; Function compile flags: /Odtp /ZI
; File x:\github\renegade\dragonade_rxd\scripts\wwmath.h
;	COMDAT ?Max@WWMath@@SAMMM@Z
_TEXT	SEGMENT
_a$ = 8							; size = 4
_b$ = 12						; size = 4
?Max@WWMath@@SAMMM@Z PROC				; WWMath::Max, COMDAT

; 176  : {

	push	ebp
	mov	ebp, esp
	sub	esp, 64					; 00000040H
	push	ebx
	push	esi
	push	edi

; 177  : 	if (a>b) return a;

	movss	xmm0, DWORD PTR _a$[ebp]
	comiss	xmm0, DWORD PTR _b$[ebp]
	jbe	SHORT $LN1@Max
	fld	DWORD PTR _a$[ebp]
	jmp	SHORT $LN2@Max
$LN1@Max:

; 178  : 	return b;

	fld	DWORD PTR _b$[ebp]
$LN2@Max:

; 179  : }

	pop	edi
	pop	esi
	pop	ebx
	mov	esp, ebp
	pop	ebp
	ret	0
?Max@WWMath@@SAMMM@Z ENDP				; WWMath::Max
_TEXT	ENDS
; Function compile flags: /Odtp /ZI
; File x:\github\renegade\dragonade_rxd\scripts\wwmath.h
;	COMDAT ?Min@WWMath@@SAMMM@Z
_TEXT	SEGMENT
_a$ = 8							; size = 4
_b$ = 12						; size = 4
?Min@WWMath@@SAMMM@Z PROC				; WWMath::Min, COMDAT

; 170  : {

	push	ebp
	mov	ebp, esp
	sub	esp, 64					; 00000040H
	push	ebx
	push	esi
	push	edi

; 171  : 	if (a<b) return a;

	movss	xmm0, DWORD PTR _b$[ebp]
	comiss	xmm0, DWORD PTR _a$[ebp]
	jbe	SHORT $LN1@Min
	fld	DWORD PTR _a$[ebp]
	jmp	SHORT $LN2@Min
$LN1@Min:

; 172  : 	return b;

	fld	DWORD PTR _b$[ebp]
$LN2@Min:

; 173  : }

	pop	edi
	pop	esi
	pop	ebx
	mov	esp, ebp
	pop	ebp
	ret	0
?Min@WWMath@@SAMMM@Z ENDP				; WWMath::Min
_TEXT	ENDS
; Function compile flags: /Odtp /ZI
; File x:\github\renegade\dragonade_rxd\scripts\wwmath.h
;	COMDAT ?Wrap@WWMath@@SANNNN@Z
_TEXT	SEGMENT
_val$ = 8						; size = 8
_min$ = 16						; size = 8
_max$ = 24						; size = 8
?Wrap@WWMath@@SANNNN@Z PROC				; WWMath::Wrap, COMDAT

; 157  : {

	push	ebp
	mov	ebp, esp
	sub	esp, 64					; 00000040H
	push	ebx
	push	esi
	push	edi

; 158  : 	if ( val >= max )	val -= (max-min);

	movsd	xmm0, QWORD PTR _val$[ebp]
	comisd	xmm0, QWORD PTR _max$[ebp]
	jb	SHORT $LN4@Wrap
	movsd	xmm0, QWORD PTR _max$[ebp]
	subsd	xmm0, QWORD PTR _min$[ebp]
	movsd	xmm1, QWORD PTR _val$[ebp]
	subsd	xmm1, xmm0
	movsd	QWORD PTR _val$[ebp], xmm1
$LN4@Wrap:

; 159  : 	if ( val < min )	val += (max-min);

	movsd	xmm0, QWORD PTR _min$[ebp]
	comisd	xmm0, QWORD PTR _val$[ebp]
	jbe	SHORT $LN3@Wrap
	movsd	xmm0, QWORD PTR _max$[ebp]
	subsd	xmm0, QWORD PTR _min$[ebp]
	addsd	xmm0, QWORD PTR _val$[ebp]
	movsd	QWORD PTR _val$[ebp], xmm0
$LN3@Wrap:

; 160  : 	if ( val < min ) {

	movsd	xmm0, QWORD PTR _min$[ebp]
	comisd	xmm0, QWORD PTR _val$[ebp]
	jbe	SHORT $LN2@Wrap

; 161  : 		val = min;

	movsd	xmm0, QWORD PTR _min$[ebp]
	movsd	QWORD PTR _val$[ebp], xmm0
$LN2@Wrap:

; 162  : 	}
; 163  : 	if ( val > max ) {

	movsd	xmm0, QWORD PTR _val$[ebp]
	comisd	xmm0, QWORD PTR _max$[ebp]
	jbe	SHORT $LN1@Wrap

; 164  : 		val = max;

	movsd	xmm0, QWORD PTR _max$[ebp]
	movsd	QWORD PTR _val$[ebp], xmm0
$LN1@Wrap:

; 165  : 	}
; 166  : 	return val;

	fld	QWORD PTR _val$[ebp]

; 167  : }

	pop	edi
	pop	esi
	pop	ebx
	mov	esp, ebp
	pop	ebp
	ret	0
?Wrap@WWMath@@SANNNN@Z ENDP				; WWMath::Wrap
_TEXT	ENDS
; Function compile flags: /Odtp /ZI
; File x:\github\renegade\dragonade_rxd\scripts\wwmath.h
;	COMDAT ?Wrap@WWMath@@SAMMMM@Z
_TEXT	SEGMENT
_val$ = 8						; size = 4
_min$ = 12						; size = 4
_max$ = 16						; size = 4
?Wrap@WWMath@@SAMMMM@Z PROC				; WWMath::Wrap, COMDAT

; 144  : {

	push	ebp
	mov	ebp, esp
	sub	esp, 64					; 00000040H
	push	ebx
	push	esi
	push	edi

; 145  : 	if ( val >= max )	val -= (max-min);

	movss	xmm0, DWORD PTR _val$[ebp]
	comiss	xmm0, DWORD PTR _max$[ebp]
	jb	SHORT $LN4@Wrap
	movss	xmm0, DWORD PTR _max$[ebp]
	subss	xmm0, DWORD PTR _min$[ebp]
	movss	xmm1, DWORD PTR _val$[ebp]
	subss	xmm1, xmm0
	movss	DWORD PTR _val$[ebp], xmm1
$LN4@Wrap:

; 146  : 	if ( val < min )	val += (max-min);

	movss	xmm0, DWORD PTR _min$[ebp]
	comiss	xmm0, DWORD PTR _val$[ebp]
	jbe	SHORT $LN3@Wrap
	movss	xmm0, DWORD PTR _max$[ebp]
	subss	xmm0, DWORD PTR _min$[ebp]
	addss	xmm0, DWORD PTR _val$[ebp]
	movss	DWORD PTR _val$[ebp], xmm0
$LN3@Wrap:

; 147  : 	if ( val < min ) {

	movss	xmm0, DWORD PTR _min$[ebp]
	comiss	xmm0, DWORD PTR _val$[ebp]
	jbe	SHORT $LN2@Wrap

; 148  : 		val = min;

	movss	xmm0, DWORD PTR _min$[ebp]
	movss	DWORD PTR _val$[ebp], xmm0
$LN2@Wrap:

; 149  : 	}
; 150  : 	if ( val > max ) {

	movss	xmm0, DWORD PTR _val$[ebp]
	comiss	xmm0, DWORD PTR _max$[ebp]
	jbe	SHORT $LN1@Wrap

; 151  : 		val = max;

	movss	xmm0, DWORD PTR _max$[ebp]
	movss	DWORD PTR _val$[ebp], xmm0
$LN1@Wrap:

; 152  : 	}
; 153  : 	return val;

	fld	DWORD PTR _val$[ebp]

; 154  : }

	pop	edi
	pop	esi
	pop	ebx
	mov	esp, ebp
	pop	ebp
	ret	0
?Wrap@WWMath@@SAMMMM@Z ENDP				; WWMath::Wrap
_TEXT	ENDS
; Function compile flags: /Odtp /ZI
; File x:\github\renegade\dragonade_rxd\scripts\wwmath.h
;	COMDAT ?Clamp_Int@WWMath@@SAHHHH@Z
_TEXT	SEGMENT
_val$ = 8						; size = 4
_min_val$ = 12						; size = 4
_max_val$ = 16						; size = 4
?Clamp_Int@WWMath@@SAHHHH@Z PROC			; WWMath::Clamp_Int, COMDAT

; 137  : {

	push	ebp
	mov	ebp, esp
	sub	esp, 64					; 00000040H
	push	ebx
	push	esi
	push	edi

; 138  : 	if(val < min_val) return min_val;

	mov	eax, DWORD PTR _val$[ebp]
	cmp	eax, DWORD PTR _min_val$[ebp]
	jge	SHORT $LN2@Clamp_Int
	mov	eax, DWORD PTR _min_val$[ebp]
	jmp	SHORT $LN3@Clamp_Int
$LN2@Clamp_Int:

; 139  : 	if(val > max_val) return max_val;

	mov	eax, DWORD PTR _val$[ebp]
	cmp	eax, DWORD PTR _max_val$[ebp]
	jle	SHORT $LN1@Clamp_Int
	mov	eax, DWORD PTR _max_val$[ebp]
	jmp	SHORT $LN3@Clamp_Int
$LN1@Clamp_Int:

; 140  : 	return val;

	mov	eax, DWORD PTR _val$[ebp]
$LN3@Clamp_Int:

; 141  : }

	pop	edi
	pop	esi
	pop	ebx
	mov	esp, ebp
	pop	ebp
	ret	0
?Clamp_Int@WWMath@@SAHHHH@Z ENDP			; WWMath::Clamp_Int
_TEXT	ENDS
; Function compile flags: /Odtp /ZI
; File x:\github\renegade\dragonade_rxd\scripts\wwmath.h
;	COMDAT ?Clamp@WWMath@@SANNNN@Z
_TEXT	SEGMENT
_val$ = 8						; size = 8
_min$ = 16						; size = 8
_max$ = 24						; size = 8
?Clamp@WWMath@@SANNNN@Z PROC				; WWMath::Clamp, COMDAT

; 130  : {

	push	ebp
	mov	ebp, esp
	sub	esp, 64					; 00000040H
	push	ebx
	push	esi
	push	edi

; 131  : 	if(val < min) return min;

	movsd	xmm0, QWORD PTR _min$[ebp]
	comisd	xmm0, QWORD PTR _val$[ebp]
	jbe	SHORT $LN2@Clamp
	fld	QWORD PTR _min$[ebp]
	jmp	SHORT $LN3@Clamp
$LN2@Clamp:

; 132  : 	if(val > max) return max;

	movsd	xmm0, QWORD PTR _val$[ebp]
	comisd	xmm0, QWORD PTR _max$[ebp]
	jbe	SHORT $LN1@Clamp
	fld	QWORD PTR _max$[ebp]
	jmp	SHORT $LN3@Clamp
$LN1@Clamp:

; 133  : 	return val;

	fld	QWORD PTR _val$[ebp]
$LN3@Clamp:

; 134  : }

	pop	edi
	pop	esi
	pop	ebx
	mov	esp, ebp
	pop	ebp
	ret	0
?Clamp@WWMath@@SANNNN@Z ENDP				; WWMath::Clamp
_TEXT	ENDS
; Function compile flags: /Odtp /ZI
; File x:\github\renegade\dragonade_rxd\scripts\wwmath.h
;	COMDAT ?Clamp@WWMath@@SAMMMM@Z
_TEXT	SEGMENT
_val$ = 8						; size = 4
_min$ = 12						; size = 4
_max$ = 16						; size = 4
?Clamp@WWMath@@SAMMMM@Z PROC				; WWMath::Clamp, COMDAT

; 123  : {

	push	ebp
	mov	ebp, esp
	sub	esp, 64					; 00000040H
	push	ebx
	push	esi
	push	edi

; 124  : 	if(val < min) return min;

	movss	xmm0, DWORD PTR _min$[ebp]
	comiss	xmm0, DWORD PTR _val$[ebp]
	jbe	SHORT $LN2@Clamp
	fld	DWORD PTR _min$[ebp]
	jmp	SHORT $LN3@Clamp
$LN2@Clamp:

; 125  : 	if(val > max) return max;

	movss	xmm0, DWORD PTR _val$[ebp]
	comiss	xmm0, DWORD PTR _max$[ebp]
	jbe	SHORT $LN1@Clamp
	fld	DWORD PTR _max$[ebp]
	jmp	SHORT $LN3@Clamp
$LN1@Clamp:

; 126  : 	return val;

	fld	DWORD PTR _val$[ebp]
$LN3@Clamp:

; 127  : }

	pop	edi
	pop	esi
	pop	ebx
	mov	esp, ebp
	pop	ebp
	ret	0
?Clamp@WWMath@@SAMMMM@Z ENDP				; WWMath::Clamp
_TEXT	ENDS
; Function compile flags: /Odtp /ZI
; File x:\github\renegade\dragonade_rxd\scripts\wwmath.h
;	COMDAT ?Random_Float@WWMath@@SAMMM@Z
_TEXT	SEGMENT
tv76 = -72						; size = 4
tv73 = -68						; size = 4
_min$ = 8						; size = 4
_max$ = 12						; size = 4
?Random_Float@WWMath@@SAMMM@Z PROC			; WWMath::Random_Float, COMDAT

; 118  : { 

	push	ebp
	mov	ebp, esp
	sub	esp, 72					; 00000048H
	push	ebx
	push	esi
	push	edi

; 119  : 	return Random_Float() * (max-min) + min; 

	call	?Random_Float@WWMath@@SAMXZ		; WWMath::Random_Float
	fstp	DWORD PTR tv73[ebp]
	movss	xmm0, DWORD PTR tv73[ebp]
	movss	xmm1, DWORD PTR _max$[ebp]
	subss	xmm1, DWORD PTR _min$[ebp]
	mulss	xmm0, xmm1
	addss	xmm0, DWORD PTR _min$[ebp]
	movss	DWORD PTR tv76[ebp], xmm0
	fld	DWORD PTR tv76[ebp]

; 120  : }

	pop	edi
	pop	esi
	pop	ebx
	mov	esp, ebp
	pop	ebp
	ret	0
?Random_Float@WWMath@@SAMMM@Z ENDP			; WWMath::Random_Float
_TEXT	ENDS
; Function compile flags: /Odtp /ZI
; File x:\github\renegade\dragonade_rxd\scripts\wwmath.h
;	COMDAT ?Fast_Is_Float_Positive@WWMath@@SA_NABM@Z
_TEXT	SEGMENT
tv66 = -68						; size = 4
_val$ = 8						; size = 4
?Fast_Is_Float_Positive@WWMath@@SA_NABM@Z PROC		; WWMath::Fast_Is_Float_Positive, COMDAT

; 113  : {

	push	ebp
	mov	ebp, esp
	sub	esp, 68					; 00000044H
	push	ebx
	push	esi
	push	edi

; 114  : 	return !((*(int *)(&val)) & 0x80000000);

	mov	eax, DWORD PTR _val$[ebp]
	mov	ecx, DWORD PTR [eax]
	and	ecx, -2147483648			; 80000000H
	jne	SHORT $LN3@Fast_Is_Fl
	mov	DWORD PTR tv66[ebp], 1
	jmp	SHORT $LN4@Fast_Is_Fl
$LN3@Fast_Is_Fl:
	mov	DWORD PTR tv66[ebp], 0
$LN4@Fast_Is_Fl:
	mov	al, BYTE PTR tv66[ebp]

; 115  : }

	pop	edi
	pop	esi
	pop	ebx
	mov	esp, ebp
	pop	ebp
	ret	0
?Fast_Is_Float_Positive@WWMath@@SA_NABM@Z ENDP		; WWMath::Fast_Is_Float_Positive
_TEXT	ENDS
; Function compile flags: /Odtp /ZI
; File x:\github\renegade\dragonade_rxd\scripts\wwmath.h
;	COMDAT ?Floor@WWMath@@SAMM@Z
_TEXT	SEGMENT
_val$ = 8						; size = 4
?Floor@WWMath@@SAMM@Z PROC				; WWMath::Floor, COMDAT

; 81   : 	static float Floor(float val) { return floorf(val); }

	push	ebp
	mov	ebp, esp
	sub	esp, 64					; 00000040H
	push	ebx
	push	esi
	push	edi
	push	ecx
	movss	xmm0, DWORD PTR _val$[ebp]
	movss	DWORD PTR [esp], xmm0
	call	_floorf
	add	esp, 4
	pop	edi
	pop	esi
	pop	ebx
	mov	esp, ebp
	pop	ebp
	ret	0
?Floor@WWMath@@SAMM@Z ENDP				; WWMath::Floor
_TEXT	ENDS
; Function compile flags: /Odtp /ZI
; File x:\github\renegade\dragonade_rxd\scripts\wwmath.h
;	COMDAT ?Ceil@WWMath@@SAMM@Z
_TEXT	SEGMENT
_val$ = 8						; size = 4
?Ceil@WWMath@@SAMM@Z PROC				; WWMath::Ceil, COMDAT

; 80   : 	static float Ceil(float val) { return ceilf(val); }

	push	ebp
	mov	ebp, esp
	sub	esp, 64					; 00000040H
	push	ebx
	push	esi
	push	edi
	push	ecx
	movss	xmm0, DWORD PTR _val$[ebp]
	movss	DWORD PTR [esp], xmm0
	call	_ceilf
	add	esp, 4
	pop	edi
	pop	esi
	pop	ebx
	mov	esp, ebp
	pop	ebp
	ret	0
?Ceil@WWMath@@SAMM@Z ENDP				; WWMath::Ceil
_TEXT	ENDS
; Function compile flags: /Odtp /ZI
; File x:\github\renegade\dragonade_rxd\scripts\wwmath.h
;	COMDAT ?Sign@WWMath@@SAMM@Z
_TEXT	SEGMENT
_val$ = 8						; size = 4
?Sign@WWMath@@SAMM@Z PROC				; WWMath::Sign, COMDAT

; 102  : { 

	push	ebp
	mov	ebp, esp
	sub	esp, 64					; 00000040H
	push	ebx
	push	esi
	push	edi

; 103  : 	if (val > 0.0f) { 

	movss	xmm0, DWORD PTR _val$[ebp]
	comiss	xmm0, DWORD PTR __real@00000000
	jbe	SHORT $LN2@Sign

; 104  : 		return +1.0f; 

	fld1
	jmp	SHORT $LN3@Sign
$LN2@Sign:

; 105  : 	} 
; 106  : 	if (val < 0.0f) { 

	movss	xmm0, DWORD PTR __real@00000000
	comiss	xmm0, DWORD PTR _val$[ebp]
	jbe	SHORT $LN1@Sign

; 107  : 		return -1.0f; 

	fld	DWORD PTR __real@bf800000
	jmp	SHORT $LN3@Sign
$LN1@Sign:

; 108  : 	} 
; 109  : 	return 0.0f; 

	fldz
$LN3@Sign:

; 110  : }

	pop	edi
	pop	esi
	pop	ebx
	mov	esp, ebp
	pop	ebp
	ret	0
?Sign@WWMath@@SAMM@Z ENDP				; WWMath::Sign
_TEXT	ENDS
; Function compile flags: /Odtp /ZI
; File x:\github\renegade\dragonade_rxd\scripts\wwmath.h
;	COMDAT ?Atan2@WWMath@@SAMMM@Z
_TEXT	SEGMENT
_y$ = 8							; size = 4
_x$ = 12						; size = 4
?Atan2@WWMath@@SAMMM@Z PROC				; WWMath::Atan2, COMDAT

; 78   : 	static float Atan2(float y,float x) { return static_cast<float>(atan2(y,x)); }

	push	ebp
	mov	ebp, esp
	sub	esp, 64					; 00000040H
	push	ebx
	push	esi
	push	edi
	push	ecx
	movss	xmm0, DWORD PTR _x$[ebp]
	movss	DWORD PTR [esp], xmm0
	push	ecx
	movss	xmm0, DWORD PTR _y$[ebp]
	movss	DWORD PTR [esp], xmm0
	call	?atan2@@YAMMM@Z				; atan2
	add	esp, 8
	pop	edi
	pop	esi
	pop	ebx
	mov	esp, ebp
	pop	ebp
	ret	0
?Atan2@WWMath@@SAMMM@Z ENDP				; WWMath::Atan2
_TEXT	ENDS
; Function compile flags: /Odtp /ZI
; File x:\github\renegade\dragonade_rxd\scripts\wwmath.h
;	COMDAT ?Atan@WWMath@@SAMM@Z
_TEXT	SEGMENT
_x$ = 8							; size = 4
?Atan@WWMath@@SAMM@Z PROC				; WWMath::Atan, COMDAT

; 77   : 	static float Atan(float x) { return static_cast<float>(atan(x)); }

	push	ebp
	mov	ebp, esp
	sub	esp, 64					; 00000040H
	push	ebx
	push	esi
	push	edi
	push	ecx
	movss	xmm0, DWORD PTR _x$[ebp]
	movss	DWORD PTR [esp], xmm0
	call	?atan@@YAMM@Z				; atan
	add	esp, 4
	pop	edi
	pop	esi
	pop	ebx
	mov	esp, ebp
	pop	ebp
	ret	0
?Atan@WWMath@@SAMM@Z ENDP				; WWMath::Atan
_TEXT	ENDS
; Function compile flags: /Odtp /ZI
; File x:\github\renegade\dragonade_rxd\scripts\wwmath.h
;	COMDAT ?Asin@WWMath@@SAMM@Z
_TEXT	SEGMENT
_val$ = 8						; size = 4
?Asin@WWMath@@SAMM@Z PROC				; WWMath::Asin, COMDAT

; 306  : {

	push	ebp
	mov	ebp, esp
	sub	esp, 64					; 00000040H
	push	ebx
	push	esi
	push	edi

; 307  : 	return (float)asin(val);

	push	ecx
	movss	xmm0, DWORD PTR _val$[ebp]
	movss	DWORD PTR [esp], xmm0
	call	?asin@@YAMM@Z				; asin
	add	esp, 4

; 308  : }

	pop	edi
	pop	esi
	pop	ebx
	mov	esp, ebp
	pop	ebp
	ret	0
?Asin@WWMath@@SAMM@Z ENDP				; WWMath::Asin
_TEXT	ENDS
; Function compile flags: /Odtp /ZI
; File x:\github\renegade\dragonade_rxd\scripts\wwmath.h
;	COMDAT ?Acos@WWMath@@SAMM@Z
_TEXT	SEGMENT
_val$ = 8						; size = 4
?Acos@WWMath@@SAMM@Z PROC				; WWMath::Acos, COMDAT

; 286  : {

	push	ebp
	mov	ebp, esp
	sub	esp, 64					; 00000040H
	push	ebx
	push	esi
	push	edi

; 287  : 	return (float)acos(val);

	push	ecx
	movss	xmm0, DWORD PTR _val$[ebp]
	movss	DWORD PTR [esp], xmm0
	call	?acos@@YAMM@Z				; acos
	add	esp, 4

; 288  : }

	pop	edi
	pop	esi
	pop	ebx
	mov	esp, ebp
	pop	ebp
	ret	0
?Acos@WWMath@@SAMM@Z ENDP				; WWMath::Acos
_TEXT	ENDS
; Function compile flags: /Odtp /ZI
; File x:\github\renegade\dragonade_rxd\scripts\wwmath.h
;	COMDAT ?Fast_Asin@WWMath@@SAMM@Z
_TEXT	SEGMENT
tv156 = -88						; size = 4
tv161 = -84						; size = 4
tv159 = -80						; size = 4
tv134 = -80						; size = 4
_frac$ = -12						; size = 4
_idx1$ = -8						; size = 4
_idx0$ = -4						; size = 4
_val$ = 8						; size = 4
?Fast_Asin@WWMath@@SAMM@Z PROC				; WWMath::Fast_Asin, COMDAT

; 291  : {

	push	ebp
	mov	ebp, esp
	sub	esp, 88					; 00000058H
	push	ebx
	push	esi
	push	edi

; 292  : 	if (WWMath::Fabs(val) > 0.975f) {

	push	ecx
	movss	xmm0, DWORD PTR _val$[ebp]
	movss	DWORD PTR [esp], xmm0
	call	?Fabs@WWMath@@SAMM@Z			; WWMath::Fabs
	add	esp, 4
	fstp	DWORD PTR tv134[ebp]
	movss	xmm0, DWORD PTR tv134[ebp]
	comiss	xmm0, DWORD PTR __real@3f79999a
	jbe	SHORT $LN11@Fast_Asin

; 293  : 		return WWMath::Asin(val);

	push	ecx
	movss	xmm0, DWORD PTR _val$[ebp]
	movss	DWORD PTR [esp], xmm0
	call	?Asin@WWMath@@SAMM@Z			; WWMath::Asin
	add	esp, 4
	jmp	$LN12@Fast_Asin
$LN11@Fast_Asin:

; 294  : 	}
; 295  : 	val*=float(ARC_TABLE_SIZE/2);

	movss	xmm0, DWORD PTR _val$[ebp]
	mulss	xmm0, DWORD PTR __real@44000000
	movss	DWORD PTR _val$[ebp], xmm0

; 296  : 	int idx0=Float_To_Int_Floor(val); 

	lea	eax, DWORD PTR _val$[ebp]
	push	eax
	call	?Float_To_Int_Floor@WWMath@@SAHABM@Z	; WWMath::Float_To_Int_Floor
	add	esp, 4
	mov	DWORD PTR _idx0$[ebp], eax

; 297  : 	int idx1=idx0+1;

	mov	eax, DWORD PTR _idx0$[ebp]
	add	eax, 1
	mov	DWORD PTR _idx1$[ebp], eax

; 298  : 	float frac=val-(float)idx0;

	cvtsi2ss xmm0, DWORD PTR _idx0$[ebp]
	movss	xmm1, DWORD PTR _val$[ebp]
	subss	xmm1, xmm0
	movss	DWORD PTR _frac$[ebp], xmm1

; 299  : 	idx0+=ARC_TABLE_SIZE/2;

	mov	eax, DWORD PTR _idx0$[ebp]
	add	eax, 512				; 00000200H
	mov	DWORD PTR _idx0$[ebp], eax

; 300  : 	idx1+=ARC_TABLE_SIZE/2;

	mov	eax, DWORD PTR _idx1$[ebp]
	add	eax, 512				; 00000200H
	mov	DWORD PTR _idx1$[ebp], eax
$LN10@Fast_Asin:

; 301  : 	TT_ASSERT((idx0 >= 0) && (idx0 < ARC_TABLE_SIZE));

	xor	eax, eax
	jne	SHORT $LN10@Fast_Asin
	cmp	DWORD PTR _idx0$[ebp], 0
	jl	SHORT $LN6@Fast_Asin
	cmp	DWORD PTR _idx0$[ebp], 1024		; 00000400H
	jl	SHORT $LN7@Fast_Asin
$LN6@Fast_Asin:
	int	3
$LN7@Fast_Asin:

; 302  : 	TT_ASSERT((idx1 >= 0) && (idx1 < ARC_TABLE_SIZE));

	xor	eax, eax
	jne	SHORT $LN7@Fast_Asin
	cmp	DWORD PTR _idx1$[ebp], 0
	jl	SHORT $LN1@Fast_Asin
	cmp	DWORD PTR _idx1$[ebp], 1024		; 00000400H
	jl	SHORT $LN2@Fast_Asin
$LN1@Fast_Asin:
	int	3
$LN2@Fast_Asin:

; 303  : 	return (1.0f - frac) * _FastAsinTable[idx0] + frac * _FastAsinTable[idx1];

	movss	xmm0, DWORD PTR __real@3f800000
	subss	xmm0, DWORD PTR _frac$[ebp]
	mov	ecx, DWORD PTR ?_FastAsinTable@@3AAV?$RefArrayHelper@M$0EAA@@@A ; _FastAsinTable
	movss	DWORD PTR tv159[ebp], xmm0
	call	??B?$RefArrayHelper@M$0EAA@@@QAEPAMXZ	; RefArrayHelper<float,1024>::operator float *
	mov	ecx, DWORD PTR _idx0$[ebp]
	movss	xmm0, DWORD PTR tv159[ebp]
	mulss	xmm0, DWORD PTR [eax+ecx*4]
	mov	ecx, DWORD PTR ?_FastAsinTable@@3AAV?$RefArrayHelper@M$0EAA@@@A ; _FastAsinTable
	movss	DWORD PTR tv161[ebp], xmm0
	call	??B?$RefArrayHelper@M$0EAA@@@QAEPAMXZ	; RefArrayHelper<float,1024>::operator float *
	mov	edx, DWORD PTR _idx1$[ebp]
	movss	xmm0, DWORD PTR _frac$[ebp]
	mulss	xmm0, DWORD PTR [eax+edx*4]
	movss	xmm1, DWORD PTR tv161[ebp]
	addss	xmm1, xmm0
	movss	DWORD PTR tv156[ebp], xmm1
	fld	DWORD PTR tv156[ebp]
$LN12@Fast_Asin:

; 304  : }

	pop	edi
	pop	esi
	pop	ebx
	mov	esp, ebp
	pop	ebp
	ret	0
?Fast_Asin@WWMath@@SAMM@Z ENDP				; WWMath::Fast_Asin
_TEXT	ENDS
; Function compile flags: /Odtp /ZI
; File x:\github\renegade\dragonade_rxd\scripts\wwmath.h
;	COMDAT ?Fast_Acos@WWMath@@SAMM@Z
_TEXT	SEGMENT
tv156 = -88						; size = 4
tv161 = -84						; size = 4
tv159 = -80						; size = 4
tv134 = -80						; size = 4
_frac$ = -12						; size = 4
_idx1$ = -8						; size = 4
_idx0$ = -4						; size = 4
_val$ = 8						; size = 4
?Fast_Acos@WWMath@@SAMM@Z PROC				; WWMath::Fast_Acos, COMDAT

; 270  : {

	push	ebp
	mov	ebp, esp
	sub	esp, 88					; 00000058H
	push	ebx
	push	esi
	push	edi

; 271  : 	if (WWMath::Fabs(val) > 0.975f) {

	push	ecx
	movss	xmm0, DWORD PTR _val$[ebp]
	movss	DWORD PTR [esp], xmm0
	call	?Fabs@WWMath@@SAMM@Z			; WWMath::Fabs
	add	esp, 4
	fstp	DWORD PTR tv134[ebp]
	movss	xmm0, DWORD PTR tv134[ebp]
	comiss	xmm0, DWORD PTR __real@3f79999a
	jbe	SHORT $LN11@Fast_Acos

; 272  : 		return WWMath::Acos(val);

	push	ecx
	movss	xmm0, DWORD PTR _val$[ebp]
	movss	DWORD PTR [esp], xmm0
	call	?Acos@WWMath@@SAMM@Z			; WWMath::Acos
	add	esp, 4
	jmp	$LN12@Fast_Acos
$LN11@Fast_Acos:

; 273  : 	}
; 274  : 	val*=float(ARC_TABLE_SIZE/2);

	movss	xmm0, DWORD PTR _val$[ebp]
	mulss	xmm0, DWORD PTR __real@44000000
	movss	DWORD PTR _val$[ebp], xmm0

; 275  : 	int idx0=Float_To_Int_Floor(val);

	lea	eax, DWORD PTR _val$[ebp]
	push	eax
	call	?Float_To_Int_Floor@WWMath@@SAHABM@Z	; WWMath::Float_To_Int_Floor
	add	esp, 4
	mov	DWORD PTR _idx0$[ebp], eax

; 276  : 	int idx1=idx0+1;

	mov	eax, DWORD PTR _idx0$[ebp]
	add	eax, 1
	mov	DWORD PTR _idx1$[ebp], eax

; 277  : 	float frac=val-(float)idx0;

	cvtsi2ss xmm0, DWORD PTR _idx0$[ebp]
	movss	xmm1, DWORD PTR _val$[ebp]
	subss	xmm1, xmm0
	movss	DWORD PTR _frac$[ebp], xmm1

; 278  : 	idx0+=ARC_TABLE_SIZE/2;

	mov	eax, DWORD PTR _idx0$[ebp]
	add	eax, 512				; 00000200H
	mov	DWORD PTR _idx0$[ebp], eax

; 279  : 	idx1+=ARC_TABLE_SIZE/2;

	mov	eax, DWORD PTR _idx1$[ebp]
	add	eax, 512				; 00000200H
	mov	DWORD PTR _idx1$[ebp], eax
$LN10@Fast_Acos:

; 280  : 	TT_ASSERT((idx0 >= 0) && (idx0 < ARC_TABLE_SIZE));

	xor	eax, eax
	jne	SHORT $LN10@Fast_Acos
	cmp	DWORD PTR _idx0$[ebp], 0
	jl	SHORT $LN6@Fast_Acos
	cmp	DWORD PTR _idx0$[ebp], 1024		; 00000400H
	jl	SHORT $LN7@Fast_Acos
$LN6@Fast_Acos:
	int	3
$LN7@Fast_Acos:

; 281  : 	TT_ASSERT((idx1 >= 0) && (idx1 < ARC_TABLE_SIZE));

	xor	eax, eax
	jne	SHORT $LN7@Fast_Acos
	cmp	DWORD PTR _idx1$[ebp], 0
	jl	SHORT $LN1@Fast_Acos
	cmp	DWORD PTR _idx1$[ebp], 1024		; 00000400H
	jl	SHORT $LN2@Fast_Acos
$LN1@Fast_Acos:
	int	3
$LN2@Fast_Acos:

; 282  : 	return (1.0f - frac) * _FastAcosTable[idx0] + frac * _FastAcosTable[idx1];

	movss	xmm0, DWORD PTR __real@3f800000
	subss	xmm0, DWORD PTR _frac$[ebp]
	mov	ecx, DWORD PTR ?_FastAcosTable@@3AAV?$RefArrayHelper@M$0EAA@@@A ; _FastAcosTable
	movss	DWORD PTR tv159[ebp], xmm0
	call	??B?$RefArrayHelper@M$0EAA@@@QAEPAMXZ	; RefArrayHelper<float,1024>::operator float *
	mov	ecx, DWORD PTR _idx0$[ebp]
	movss	xmm0, DWORD PTR tv159[ebp]
	mulss	xmm0, DWORD PTR [eax+ecx*4]
	mov	ecx, DWORD PTR ?_FastAcosTable@@3AAV?$RefArrayHelper@M$0EAA@@@A ; _FastAcosTable
	movss	DWORD PTR tv161[ebp], xmm0
	call	??B?$RefArrayHelper@M$0EAA@@@QAEPAMXZ	; RefArrayHelper<float,1024>::operator float *
	mov	edx, DWORD PTR _idx1$[ebp]
	movss	xmm0, DWORD PTR _frac$[ebp]
	mulss	xmm0, DWORD PTR [eax+edx*4]
	movss	xmm1, DWORD PTR tv161[ebp]
	addss	xmm1, xmm0
	movss	DWORD PTR tv156[ebp], xmm1
	fld	DWORD PTR tv156[ebp]
$LN12@Fast_Acos:

; 283  : }

	pop	edi
	pop	esi
	pop	ebx
	mov	esp, ebp
	pop	ebp
	ret	0
?Fast_Acos@WWMath@@SAMM@Z ENDP				; WWMath::Fast_Acos
_TEXT	ENDS
; Function compile flags: /Odtp /ZI
; File x:\github\renegade\dragonade_rxd\scripts\wwmath.h
;	COMDAT ?Fast_Inv_Cos@WWMath@@SAMM@Z
_TEXT	SEGMENT
tv76 = -72						; size = 4
tv73 = -68						; size = 4
_val$ = 8						; size = 4
?Fast_Inv_Cos@WWMath@@SAMM@Z PROC			; WWMath::Fast_Inv_Cos, COMDAT

; 265  : {

	push	ebp
	mov	ebp, esp
	sub	esp, 72					; 00000048H
	push	ebx
	push	esi
	push	edi

; 266  : 	return 1.0f / WWMath::Fast_Cos(val);

	push	ecx
	movss	xmm0, DWORD PTR _val$[ebp]
	movss	DWORD PTR [esp], xmm0
	call	?Fast_Cos@WWMath@@SAMM@Z		; WWMath::Fast_Cos
	add	esp, 4
	fstp	DWORD PTR tv73[ebp]
	movss	xmm0, DWORD PTR __real@3f800000
	divss	xmm0, DWORD PTR tv73[ebp]
	movss	DWORD PTR tv76[ebp], xmm0
	fld	DWORD PTR tv76[ebp]

; 267  : }

	pop	edi
	pop	esi
	pop	ebx
	mov	esp, ebp
	pop	ebp
	ret	0
?Fast_Inv_Cos@WWMath@@SAMM@Z ENDP			; WWMath::Fast_Inv_Cos
_TEXT	ENDS
; Function compile flags: /Odtp /ZI
; File x:\github\renegade\dragonade_rxd\scripts\wwmath.h
;	COMDAT ?Fast_Cos@WWMath@@SAMM@Z
_TEXT	SEGMENT
tv135 = -88						; size = 4
tv140 = -84						; size = 4
tv138 = -80						; size = 4
_frac$ = -12						; size = 4
_idx1$ = -8						; size = 4
_idx0$ = -4						; size = 4
_val$ = 8						; size = 4
?Fast_Cos@WWMath@@SAMM@Z PROC				; WWMath::Fast_Cos, COMDAT

; 253  : {

	push	ebp
	mov	ebp, esp
	sub	esp, 88					; 00000058H
	push	ebx
	push	esi
	push	edi

; 254  : 	val+=(WWMATH_PI * 0.5f);

	movss	xmm0, DWORD PTR _val$[ebp]
	addss	xmm0, DWORD PTR __real@3fc90fdb
	movss	DWORD PTR _val$[ebp], xmm0

; 255  : 	val*=float(SIN_TABLE_SIZE) / (2.0f * WWMATH_PI);

	movss	xmm0, DWORD PTR __real@44800000
	divss	xmm0, DWORD PTR __real@40c90fdb
	mulss	xmm0, DWORD PTR _val$[ebp]
	movss	DWORD PTR _val$[ebp], xmm0

; 256  : 	int idx0=Float_To_Int_Floor(val);

	lea	eax, DWORD PTR _val$[ebp]
	push	eax
	call	?Float_To_Int_Floor@WWMath@@SAHABM@Z	; WWMath::Float_To_Int_Floor
	add	esp, 4
	mov	DWORD PTR _idx0$[ebp], eax

; 257  : 	int idx1=idx0+1;

	mov	eax, DWORD PTR _idx0$[ebp]
	add	eax, 1
	mov	DWORD PTR _idx1$[ebp], eax

; 258  : 	float frac=val-(float)idx0;

	cvtsi2ss xmm0, DWORD PTR _idx0$[ebp]
	movss	xmm1, DWORD PTR _val$[ebp]
	subss	xmm1, xmm0
	movss	DWORD PTR _frac$[ebp], xmm1

; 259  : 	idx0 = ((unsigned)idx0) & (SIN_TABLE_SIZE-1);

	mov	eax, DWORD PTR _idx0$[ebp]
	and	eax, 1023				; 000003ffH
	mov	DWORD PTR _idx0$[ebp], eax

; 260  : 	idx1 = ((unsigned)idx1) & (SIN_TABLE_SIZE-1);

	mov	eax, DWORD PTR _idx1$[ebp]
	and	eax, 1023				; 000003ffH
	mov	DWORD PTR _idx1$[ebp], eax

; 261  : 	return (1.0f - frac) * _FastSinTable[idx0] + frac * _FastSinTable[idx1];

	movss	xmm0, DWORD PTR __real@3f800000
	subss	xmm0, DWORD PTR _frac$[ebp]
	mov	ecx, DWORD PTR ?_FastSinTable@@3AAV?$RefArrayHelper@M$0EAA@@@A ; _FastSinTable
	movss	DWORD PTR tv138[ebp], xmm0
	call	??B?$RefArrayHelper@M$0EAA@@@QAEPAMXZ	; RefArrayHelper<float,1024>::operator float *
	mov	ecx, DWORD PTR _idx0$[ebp]
	movss	xmm0, DWORD PTR tv138[ebp]
	mulss	xmm0, DWORD PTR [eax+ecx*4]
	mov	ecx, DWORD PTR ?_FastSinTable@@3AAV?$RefArrayHelper@M$0EAA@@@A ; _FastSinTable
	movss	DWORD PTR tv140[ebp], xmm0
	call	??B?$RefArrayHelper@M$0EAA@@@QAEPAMXZ	; RefArrayHelper<float,1024>::operator float *
	mov	edx, DWORD PTR _idx1$[ebp]
	movss	xmm0, DWORD PTR _frac$[ebp]
	mulss	xmm0, DWORD PTR [eax+edx*4]
	movss	xmm1, DWORD PTR tv140[ebp]
	addss	xmm1, xmm0
	movss	DWORD PTR tv135[ebp], xmm1
	fld	DWORD PTR tv135[ebp]

; 262  : }

	pop	edi
	pop	esi
	pop	ebx
	mov	esp, ebp
	pop	ebp
	ret	0
?Fast_Cos@WWMath@@SAMM@Z ENDP				; WWMath::Fast_Cos
_TEXT	ENDS
; Function compile flags: /Odtp /ZI
; File x:\github\renegade\dragonade_rxd\scripts\wwmath.h
;	COMDAT ?Fast_Inv_Sin@WWMath@@SAMM@Z
_TEXT	SEGMENT
tv76 = -72						; size = 4
tv73 = -68						; size = 4
_val$ = 8						; size = 4
?Fast_Inv_Sin@WWMath@@SAMM@Z PROC			; WWMath::Fast_Inv_Sin, COMDAT

; 248  : {

	push	ebp
	mov	ebp, esp
	sub	esp, 72					; 00000048H
	push	ebx
	push	esi
	push	edi

; 249  : 	return 1.0f / WWMath::Fast_Sin(val);

	push	ecx
	movss	xmm0, DWORD PTR _val$[ebp]
	movss	DWORD PTR [esp], xmm0
	call	?Fast_Sin@WWMath@@SAMM@Z		; WWMath::Fast_Sin
	add	esp, 4
	fstp	DWORD PTR tv73[ebp]
	movss	xmm0, DWORD PTR __real@3f800000
	divss	xmm0, DWORD PTR tv73[ebp]
	movss	DWORD PTR tv76[ebp], xmm0
	fld	DWORD PTR tv76[ebp]

; 250  : }

	pop	edi
	pop	esi
	pop	ebx
	mov	esp, ebp
	pop	ebp
	ret	0
?Fast_Inv_Sin@WWMath@@SAMM@Z ENDP			; WWMath::Fast_Inv_Sin
_TEXT	ENDS
; Function compile flags: /Odtp /ZI
; File x:\github\renegade\dragonade_rxd\scripts\wwmath.h
;	COMDAT ?Fast_Sin@WWMath@@SAMM@Z
_TEXT	SEGMENT
tv133 = -88						; size = 4
tv138 = -84						; size = 4
tv136 = -80						; size = 4
_frac$ = -12						; size = 4
_idx1$ = -8						; size = 4
_idx0$ = -4						; size = 4
_val$ = 8						; size = 4
?Fast_Sin@WWMath@@SAMM@Z PROC				; WWMath::Fast_Sin, COMDAT

; 237  : {

	push	ebp
	mov	ebp, esp
	sub	esp, 88					; 00000058H
	push	ebx
	push	esi
	push	edi

; 238  : 	val*=float(SIN_TABLE_SIZE) / (2.0f * WWMATH_PI);

	movss	xmm0, DWORD PTR __real@44800000
	divss	xmm0, DWORD PTR __real@40c90fdb
	mulss	xmm0, DWORD PTR _val$[ebp]
	movss	DWORD PTR _val$[ebp], xmm0

; 239  : 	int idx0=Float_To_Int_Floor(val);

	lea	eax, DWORD PTR _val$[ebp]
	push	eax
	call	?Float_To_Int_Floor@WWMath@@SAHABM@Z	; WWMath::Float_To_Int_Floor
	add	esp, 4
	mov	DWORD PTR _idx0$[ebp], eax

; 240  : 	int idx1=idx0+1;

	mov	eax, DWORD PTR _idx0$[ebp]
	add	eax, 1
	mov	DWORD PTR _idx1$[ebp], eax

; 241  : 	float frac=val-(float)idx0;

	cvtsi2ss xmm0, DWORD PTR _idx0$[ebp]
	movss	xmm1, DWORD PTR _val$[ebp]
	subss	xmm1, xmm0
	movss	DWORD PTR _frac$[ebp], xmm1

; 242  : 	idx0 = ((unsigned)idx0) & (SIN_TABLE_SIZE-1);

	mov	eax, DWORD PTR _idx0$[ebp]
	and	eax, 1023				; 000003ffH
	mov	DWORD PTR _idx0$[ebp], eax

; 243  : 	idx1 = ((unsigned)idx1) & (SIN_TABLE_SIZE-1);

	mov	eax, DWORD PTR _idx1$[ebp]
	and	eax, 1023				; 000003ffH
	mov	DWORD PTR _idx1$[ebp], eax

; 244  : 	return (1.0f - frac) * _FastSinTable[idx0] + frac * _FastSinTable[idx1];

	movss	xmm0, DWORD PTR __real@3f800000
	subss	xmm0, DWORD PTR _frac$[ebp]
	mov	ecx, DWORD PTR ?_FastSinTable@@3AAV?$RefArrayHelper@M$0EAA@@@A ; _FastSinTable
	movss	DWORD PTR tv136[ebp], xmm0
	call	??B?$RefArrayHelper@M$0EAA@@@QAEPAMXZ	; RefArrayHelper<float,1024>::operator float *
	mov	ecx, DWORD PTR _idx0$[ebp]
	movss	xmm0, DWORD PTR tv136[ebp]
	mulss	xmm0, DWORD PTR [eax+ecx*4]
	mov	ecx, DWORD PTR ?_FastSinTable@@3AAV?$RefArrayHelper@M$0EAA@@@A ; _FastSinTable
	movss	DWORD PTR tv138[ebp], xmm0
	call	??B?$RefArrayHelper@M$0EAA@@@QAEPAMXZ	; RefArrayHelper<float,1024>::operator float *
	mov	edx, DWORD PTR _idx1$[ebp]
	movss	xmm0, DWORD PTR _frac$[ebp]
	mulss	xmm0, DWORD PTR [eax+edx*4]
	movss	xmm1, DWORD PTR tv138[ebp]
	addss	xmm1, xmm0
	movss	DWORD PTR tv133[ebp], xmm1
	fld	DWORD PTR tv133[ebp]

; 245  : }

	pop	edi
	pop	esi
	pop	ebx
	mov	esp, ebp
	pop	ebp
	ret	0
?Fast_Sin@WWMath@@SAMM@Z ENDP				; WWMath::Fast_Sin
_TEXT	ENDS
; Function compile flags: /Odtp /ZI
; File x:\github\renegade\dragonade_rxd\scripts\wwmath.h
;	COMDAT ?Float_To_Long@WWMath@@SAJM@Z
_TEXT	SEGMENT
$T1 = -80						; size = 16
_f$ = 8							; size = 4
?Float_To_Long@WWMath@@SAJM@Z PROC			; WWMath::Float_To_Long, COMDAT

; 217  : {

	push	ebx
	mov	ebx, esp
	sub	esp, 8
	and	esp, -16				; fffffff0H
	add	esp, 4
	push	ebp
	mov	ebp, DWORD PTR [ebx+4]
	mov	DWORD PTR [esp+4], ebp
	mov	ebp, esp
	sub	esp, 88					; 00000058H
	push	esi
	push	edi

; 218  :     return _mm_cvtt_ss2si(_mm_load_ss(&f));

	movss	xmm0, DWORD PTR _f$[ebx]
	movaps	XMMWORD PTR $T1[ebp], xmm0
	movaps	xmm0, XMMWORD PTR $T1[ebp]
	cvttss2si eax, xmm0

; 219  : }

	pop	edi
	pop	esi
	mov	esp, ebp
	pop	ebp
	mov	esp, ebx
	pop	ebx
	ret	0
?Float_To_Long@WWMath@@SAJM@Z ENDP			; WWMath::Float_To_Long
_TEXT	ENDS
; Function compile flags: /Odtp /ZI
; File x:\github\renegade\dragonade_rxd\scripts\wwmath.h
;	COMDAT ?Inv_Sqrt@WWMath@@SIMM@Z
_TEXT	SEGMENT
tv76 = -72						; size = 4
tv73 = -68						; size = 4
_number$ = 8						; size = 4
?Inv_Sqrt@WWMath@@SIMM@Z PROC				; WWMath::Inv_Sqrt, COMDAT

; 341  : {

	push	ebp
	mov	ebp, esp
	sub	esp, 72					; 00000048H
	push	ebx
	push	esi
	push	edi

; 342  : 	return 1.f / sqrt(number);

	push	ecx
	movss	xmm0, DWORD PTR _number$[ebp]
	movss	DWORD PTR [esp], xmm0
	call	?sqrt@@YAMM@Z				; sqrt
	add	esp, 4
	fstp	DWORD PTR tv73[ebp]
	movss	xmm0, DWORD PTR __real@3f800000
	divss	xmm0, DWORD PTR tv73[ebp]
	movss	DWORD PTR tv76[ebp], xmm0
	fld	DWORD PTR tv76[ebp]

; 343  : }

	pop	edi
	pop	esi
	pop	ebx
	mov	esp, ebp
	pop	ebp
	ret	4
?Inv_Sqrt@WWMath@@SIMM@Z ENDP				; WWMath::Inv_Sqrt
_TEXT	ENDS
; Function compile flags: /Odtp /ZI
; File x:\github\renegade\dragonade_rxd\scripts\wwmath.h
;	COMDAT ?Sqrt@WWMath@@SAMM@Z
_TEXT	SEGMENT
_val$ = 8						; size = 4
?Sqrt@WWMath@@SAMM@Z PROC				; WWMath::Sqrt, COMDAT

; 311  : {

	push	ebp
	mov	ebp, esp
	sub	esp, 64					; 00000040H
	push	ebx
	push	esi
	push	edi

; 312  :     return ::sqrtf(val);

	push	ecx
	movss	xmm0, DWORD PTR _val$[ebp]
	movss	DWORD PTR [esp], xmm0
	call	_sqrtf
	add	esp, 4

; 313  : }

	pop	edi
	pop	esi
	pop	ebx
	mov	esp, ebp
	pop	ebp
	ret	0
?Sqrt@WWMath@@SAMM@Z ENDP				; WWMath::Sqrt
_TEXT	ENDS
; Function compile flags: /Odtp /ZI
; File x:\github\renegade\dragonade_rxd\scripts\wwmath.h
;	COMDAT ?Sin@WWMath@@SAMM@Z
_TEXT	SEGMENT
_val$ = 8						; size = 4
?Sin@WWMath@@SAMM@Z PROC				; WWMath::Sin, COMDAT

; 232  : {

	push	ebp
	mov	ebp, esp
	sub	esp, 64					; 00000040H
	push	ebx
	push	esi
	push	edi

; 233  :     return ::sin(val);

	push	ecx
	movss	xmm0, DWORD PTR _val$[ebp]
	movss	DWORD PTR [esp], xmm0
	call	?sin@@YAMM@Z				; sin
	add	esp, 4

; 234  : }

	pop	edi
	pop	esi
	pop	ebx
	mov	esp, ebp
	pop	ebp
	ret	0
?Sin@WWMath@@SAMM@Z ENDP				; WWMath::Sin
_TEXT	ENDS
; Function compile flags: /Odtp /ZI
; File x:\github\renegade\dragonade_rxd\scripts\wwmath.h
;	COMDAT ?Cos@WWMath@@SAMM@Z
_TEXT	SEGMENT
_val$ = 8						; size = 4
?Cos@WWMath@@SAMM@Z PROC				; WWMath::Cos, COMDAT

; 227  : {

	push	ebp
	mov	ebp, esp
	sub	esp, 64					; 00000040H
	push	ebx
	push	esi
	push	edi

; 228  :     return ::cos(val);

	push	ecx
	movss	xmm0, DWORD PTR _val$[ebp]
	movss	DWORD PTR [esp], xmm0
	call	?cos@@YAMM@Z				; cos
	add	esp, 4

; 229  : }

	pop	edi
	pop	esi
	pop	ebx
	mov	esp, ebp
	pop	ebp
	ret	0
?Cos@WWMath@@SAMM@Z ENDP				; WWMath::Cos
_TEXT	ENDS
; Function compile flags: /Odtp /ZI
; File x:\github\renegade\dragonade_rxd\scripts\wwmath.h
;	COMDAT ?Float_To_Int_Floor@WWMath@@SAHABM@Z
_TEXT	SEGMENT
tv83 = -96						; size = 4
_r$ = -28						; size = 4
_mantissa$ = -24					; size = 4
_imask$ = -20						; size = 4
_expsign$ = -16						; size = 4
_exponent$ = -12					; size = 4
_sign$ = -8						; size = 4
_a$ = -4						; size = 4
_f$ = 8							; size = 4
?Float_To_Int_Floor@WWMath@@SAHABM@Z PROC		; WWMath::Float_To_Int_Floor, COMDAT

; 326  : {

	push	ebp
	mov	ebp, esp
	sub	esp, 96					; 00000060H
	push	ebx
	push	esi
	push	edi

; 327  : 	int a = *reinterpret_cast<const int*>(&f);

	mov	eax, DWORD PTR _f$[ebp]
	mov	ecx, DWORD PTR [eax]
	mov	DWORD PTR _a$[ebp], ecx

; 328  : 	int sign = (a>>31);

	mov	eax, DWORD PTR _a$[ebp]
	sar	eax, 31					; 0000001fH
	mov	DWORD PTR _sign$[ebp], eax

; 329  : 	a&=0x7fffffff;

	mov	eax, DWORD PTR _a$[ebp]
	and	eax, 2147483647				; 7fffffffH
	mov	DWORD PTR _a$[ebp], eax

; 330  : 	int exponent = (a>>23)-127;

	mov	eax, DWORD PTR _a$[ebp]
	sar	eax, 23					; 00000017H
	sub	eax, 127				; 0000007fH
	mov	DWORD PTR _exponent$[ebp], eax

; 331  : 	int expsign	= ~(exponent>>31);

	mov	eax, DWORD PTR _exponent$[ebp]
	sar	eax, 31					; 0000001fH
	not	eax
	mov	DWORD PTR _expsign$[ebp], eax

; 332  : 	int imask = ( (1<<(31-(exponent))))-1;

	mov	ecx, 31					; 0000001fH
	sub	ecx, DWORD PTR _exponent$[ebp]
	mov	eax, 1
	shl	eax, cl
	sub	eax, 1
	mov	DWORD PTR _imask$[ebp], eax

; 333  : 	int mantissa = (a&((1<<23)-1));

	mov	eax, DWORD PTR _a$[ebp]
	and	eax, 8388607				; 007fffffH
	mov	DWORD PTR _mantissa$[ebp], eax

; 334  : 	int r = ((unsigned int)(mantissa|(1<<23))<<8)>>(31-exponent);

	mov	eax, DWORD PTR _mantissa$[ebp]
	or	eax, 8388608				; 00800000H
	shl	eax, 8
	mov	ecx, 31					; 0000001fH
	sub	ecx, DWORD PTR _exponent$[ebp]
	shr	eax, cl
	mov	DWORD PTR _r$[ebp], eax

; 335  : #pragma warning(suppress: 6290) //warning C6290: Bitwise operation on logical result: ! has higher precedence than &. Use && or (!(x & y)) instead
; 336  : 	r = ((r & expsign) ^ (sign)) + ((!((mantissa<<8)&imask)&(expsign^((a-1)>>31)))&sign);

	mov	eax, DWORD PTR _mantissa$[ebp]
	shl	eax, 8
	and	eax, DWORD PTR _imask$[ebp]
	jne	SHORT $LN3@Float_To_I
	mov	DWORD PTR tv83[ebp], 1
	jmp	SHORT $LN4@Float_To_I
$LN3@Float_To_I:
	mov	DWORD PTR tv83[ebp], 0
$LN4@Float_To_I:
	mov	ecx, DWORD PTR _r$[ebp]
	and	ecx, DWORD PTR _expsign$[ebp]
	xor	ecx, DWORD PTR _sign$[ebp]
	mov	edx, DWORD PTR _a$[ebp]
	sub	edx, 1
	sar	edx, 31					; 0000001fH
	xor	edx, DWORD PTR _expsign$[ebp]
	and	edx, DWORD PTR tv83[ebp]
	and	edx, DWORD PTR _sign$[ebp]
	add	ecx, edx
	mov	DWORD PTR _r$[ebp], ecx

; 337  : 	return r;

	mov	eax, DWORD PTR _r$[ebp]

; 338  : }

	pop	edi
	pop	esi
	pop	ebx
	mov	esp, ebp
	pop	ebp
	ret	0
?Float_To_Int_Floor@WWMath@@SAHABM@Z ENDP		; WWMath::Float_To_Int_Floor
_TEXT	ENDS
; Function compile flags: /Odtp /ZI
; File x:\github\renegade\dragonade_rxd\scripts\wwmath.h
;	COMDAT ?Float_To_Int_Chop@WWMath@@SAHABM@Z
_TEXT	SEGMENT
_r$ = -20						; size = 4
_exponent$ = -16					; size = 4
_mantissa$ = -12					; size = 4
_sign$ = -8						; size = 4
_a$ = -4						; size = 4
_f$ = 8							; size = 4
?Float_To_Int_Chop@WWMath@@SAHABM@Z PROC		; WWMath::Float_To_Int_Chop, COMDAT

; 316  : {

	push	ebp
	mov	ebp, esp
	sub	esp, 84					; 00000054H
	push	ebx
	push	esi
	push	edi

; 317  :     int a = *reinterpret_cast<const int*>(&f);

	mov	eax, DWORD PTR _f$[ebp]
	mov	ecx, DWORD PTR [eax]
	mov	DWORD PTR _a$[ebp], ecx

; 318  :     int sign = (a>>31);

	mov	eax, DWORD PTR _a$[ebp]
	sar	eax, 31					; 0000001fH
	mov	DWORD PTR _sign$[ebp], eax

; 319  :     int mantissa = (a&((1<<23)-1))|(1<<23);

	mov	eax, DWORD PTR _a$[ebp]
	and	eax, 8388607				; 007fffffH
	or	eax, 8388608				; 00800000H
	mov	DWORD PTR _mantissa$[ebp], eax

; 320  :     int exponent = ((a&0x7fffffff)>>23)-127;

	mov	eax, DWORD PTR _a$[ebp]
	and	eax, 2147483647				; 7fffffffH
	sar	eax, 23					; 00000017H
	sub	eax, 127				; 0000007fH
	mov	DWORD PTR _exponent$[ebp], eax

; 321  :     int r = ((unsigned int)(mantissa)<<8)>>(31-exponent);

	mov	eax, DWORD PTR _mantissa$[ebp]
	shl	eax, 8
	mov	ecx, 31					; 0000001fH
	sub	ecx, DWORD PTR _exponent$[ebp]
	shr	eax, cl
	mov	DWORD PTR _r$[ebp], eax

; 322  :     return ((r ^ (sign)) - sign ) &~ (exponent>>31);

	mov	eax, DWORD PTR _r$[ebp]
	xor	eax, DWORD PTR _sign$[ebp]
	sub	eax, DWORD PTR _sign$[ebp]
	mov	ecx, DWORD PTR _exponent$[ebp]
	sar	ecx, 31					; 0000001fH
	not	ecx
	and	eax, ecx

; 323  : }

	pop	edi
	pop	esi
	pop	ebx
	mov	esp, ebp
	pop	ebp
	ret	0
?Float_To_Int_Chop@WWMath@@SAHABM@Z ENDP		; WWMath::Float_To_Int_Chop
_TEXT	ENDS
; Function compile flags: /Odtp /ZI
; File x:\github\renegade\dragonade_rxd\scripts\wwmath.h
;	COMDAT ?Fabs@WWMath@@SAMM@Z
_TEXT	SEGMENT
_value$ = -4						; size = 4
_val$ = 8						; size = 4
?Fabs@WWMath@@SAMM@Z PROC				; WWMath::Fabs, COMDAT

; 57   : 	{

	push	ebp
	mov	ebp, esp
	sub	esp, 68					; 00000044H
	push	ebx
	push	esi
	push	edi

; 58   : 		int value=*(int*)&val;

	mov	eax, DWORD PTR _val$[ebp]
	mov	DWORD PTR _value$[ebp], eax

; 59   : 		value&=0x7fffffff;

	mov	eax, DWORD PTR _value$[ebp]
	and	eax, 2147483647				; 7fffffffH
	mov	DWORD PTR _value$[ebp], eax

; 60   : 		return *(float*)&value;

	fld	DWORD PTR _value$[ebp]

; 61   : 	}

	pop	edi
	pop	esi
	pop	ebx
	mov	esp, ebp
	pop	ebp
	ret	0
?Fabs@WWMath@@SAMM@Z ENDP				; WWMath::Fabs
_TEXT	ENDS
; Function compile flags: /Odtp /ZI
; File c:\program files (x86)\microsoft visual studio 11.0\vc\include\math.h
;	COMDAT ?sqrt@@YAMM@Z
_TEXT	SEGMENT
__X$ = 8						; size = 4
?sqrt@@YAMM@Z PROC					; sqrt, COMDAT

; 541  :         {return (sqrtf(_X)); }

	push	ebp
	mov	ebp, esp
	sub	esp, 64					; 00000040H
	push	ebx
	push	esi
	push	edi
	push	ecx
	movss	xmm0, DWORD PTR __X$[ebp]
	movss	DWORD PTR [esp], xmm0
	call	_sqrtf
	add	esp, 4
	pop	edi
	pop	esi
	pop	ebx
	mov	esp, ebp
	pop	ebp
	ret	0
?sqrt@@YAMM@Z ENDP					; sqrt
_TEXT	ENDS
; Function compile flags: /Odtp /ZI
; File c:\program files (x86)\microsoft visual studio 11.0\vc\include\math.h
;	COMDAT ?sin@@YAMM@Z
_TEXT	SEGMENT
__X$ = 8						; size = 4
?sin@@YAMM@Z PROC					; sin, COMDAT

; 537  :         {return (sinf(_X)); }

	push	ebp
	mov	ebp, esp
	sub	esp, 64					; 00000040H
	push	ebx
	push	esi
	push	edi
	push	ecx
	movss	xmm0, DWORD PTR __X$[ebp]
	movss	DWORD PTR [esp], xmm0
	call	_sinf
	add	esp, 4
	pop	edi
	pop	esi
	pop	ebx
	mov	esp, ebp
	pop	ebp
	ret	0
?sin@@YAMM@Z ENDP					; sin
_TEXT	ENDS
; Function compile flags: /Odtp /ZI
; File c:\program files (x86)\microsoft visual studio 11.0\vc\include\math.h
;	COMDAT ?cos@@YAMM@Z
_TEXT	SEGMENT
__X$ = 8						; size = 4
?cos@@YAMM@Z PROC					; cos, COMDAT

; 511  :         {return (cosf(_X)); }

	push	ebp
	mov	ebp, esp
	sub	esp, 64					; 00000040H
	push	ebx
	push	esi
	push	edi
	push	ecx
	movss	xmm0, DWORD PTR __X$[ebp]
	movss	DWORD PTR [esp], xmm0
	call	_cosf
	add	esp, 4
	pop	edi
	pop	esi
	pop	ebx
	mov	esp, ebp
	pop	ebp
	ret	0
?cos@@YAMM@Z ENDP					; cos
_TEXT	ENDS
; Function compile flags: /Odtp /ZI
; File c:\program files (x86)\microsoft visual studio 11.0\vc\include\math.h
;	COMDAT ?atan2@@YAMMM@Z
_TEXT	SEGMENT
__Y$ = 8						; size = 4
__X$ = 12						; size = 4
?atan2@@YAMMM@Z PROC					; atan2, COMDAT

; 507  :         {return (atan2f(_Y, _X)); }

	push	ebp
	mov	ebp, esp
	sub	esp, 64					; 00000040H
	push	ebx
	push	esi
	push	edi
	push	ecx
	movss	xmm0, DWORD PTR __X$[ebp]
	movss	DWORD PTR [esp], xmm0
	push	ecx
	movss	xmm0, DWORD PTR __Y$[ebp]
	movss	DWORD PTR [esp], xmm0
	call	_atan2f
	add	esp, 8
	pop	edi
	pop	esi
	pop	ebx
	mov	esp, ebp
	pop	ebp
	ret	0
?atan2@@YAMMM@Z ENDP					; atan2
_TEXT	ENDS
; Function compile flags: /Odtp /ZI
; File c:\program files (x86)\microsoft visual studio 11.0\vc\include\math.h
;	COMDAT ?atan@@YAMM@Z
_TEXT	SEGMENT
__X$ = 8						; size = 4
?atan@@YAMM@Z PROC					; atan, COMDAT

; 505  :         {return (atanf(_X)); }

	push	ebp
	mov	ebp, esp
	sub	esp, 64					; 00000040H
	push	ebx
	push	esi
	push	edi
	push	ecx
	movss	xmm0, DWORD PTR __X$[ebp]
	movss	DWORD PTR [esp], xmm0
	call	_atanf
	add	esp, 4
	pop	edi
	pop	esi
	pop	ebx
	mov	esp, ebp
	pop	ebp
	ret	0
?atan@@YAMM@Z ENDP					; atan
_TEXT	ENDS
; Function compile flags: /Odtp /ZI
; File c:\program files (x86)\microsoft visual studio 11.0\vc\include\math.h
;	COMDAT ?asin@@YAMM@Z
_TEXT	SEGMENT
__X$ = 8						; size = 4
?asin@@YAMM@Z PROC					; asin, COMDAT

; 503  :         {return (asinf(_X)); }

	push	ebp
	mov	ebp, esp
	sub	esp, 64					; 00000040H
	push	ebx
	push	esi
	push	edi
	push	ecx
	movss	xmm0, DWORD PTR __X$[ebp]
	movss	DWORD PTR [esp], xmm0
	call	_asinf
	add	esp, 4
	pop	edi
	pop	esi
	pop	ebx
	mov	esp, ebp
	pop	ebp
	ret	0
?asin@@YAMM@Z ENDP					; asin
_TEXT	ENDS
; Function compile flags: /Odtp /ZI
; File c:\program files (x86)\microsoft visual studio 11.0\vc\include\math.h
;	COMDAT ?acos@@YAMM@Z
_TEXT	SEGMENT
__X$ = 8						; size = 4
?acos@@YAMM@Z PROC					; acos, COMDAT

; 501  :         {return (acosf(_X)); }

	push	ebp
	mov	ebp, esp
	sub	esp, 64					; 00000040H
	push	ebx
	push	esi
	push	edi
	push	ecx
	movss	xmm0, DWORD PTR __X$[ebp]
	movss	DWORD PTR [esp], xmm0
	call	_acosf
	add	esp, 4
	pop	edi
	pop	esi
	pop	ebx
	mov	esp, ebp
	pop	ebp
	ret	0
?acos@@YAMM@Z ENDP					; acos
_TEXT	ENDS
; Function compile flags: /Odtp /ZI
; File c:\program files (x86)\microsoft visual studio 11.0\vc\include\math.h
;	COMDAT _sqrtf
_TEXT	SEGMENT
tv71 = -68						; size = 4
__X$ = 8						; size = 4
_sqrtf	PROC						; COMDAT

; 434  :         {return ((float)sqrt((double)_X)); }

	push	ebp
	mov	ebp, esp
	sub	esp, 68					; 00000044H
	push	ebx
	push	esi
	push	edi
	cvtss2sd xmm0, DWORD PTR __X$[ebp]
	call	__libm_sse2_sqrt_precise
	cvtsd2ss xmm0, xmm0
	movss	DWORD PTR tv71[ebp], xmm0
	fld	DWORD PTR tv71[ebp]
	pop	edi
	pop	esi
	pop	ebx
	mov	esp, ebp
	pop	ebp
	ret	0
_sqrtf	ENDP
_TEXT	ENDS
; Function compile flags: /Odtp /ZI
; File c:\program files (x86)\microsoft visual studio 11.0\vc\include\math.h
;	COMDAT _sinf
_TEXT	SEGMENT
tv71 = -68						; size = 4
__X$ = 8						; size = 4
_sinf	PROC						; COMDAT

; 430  :         {return ((float)sin((double)_X)); }

	push	ebp
	mov	ebp, esp
	sub	esp, 68					; 00000044H
	push	ebx
	push	esi
	push	edi
	cvtss2sd xmm0, DWORD PTR __X$[ebp]
	call	__libm_sse2_sin_precise
	cvtsd2ss xmm0, xmm0
	movss	DWORD PTR tv71[ebp], xmm0
	fld	DWORD PTR tv71[ebp]
	pop	edi
	pop	esi
	pop	ebx
	mov	esp, ebp
	pop	ebp
	ret	0
_sinf	ENDP
_TEXT	ENDS
; Function compile flags: /Odtp /ZI
; File c:\program files (x86)\microsoft visual studio 11.0\vc\include\math.h
;	COMDAT _floorf
_TEXT	SEGMENT
tv80 = -84						; size = 4
tv78 = -80						; size = 8
tv72 = -72						; size = 8
__X$ = 8						; size = 4
_floorf	PROC						; COMDAT

; 416  :         {return ((float)floor((double)_X)); }

	push	ebp
	mov	ebp, esp
	sub	esp, 84					; 00000054H
	push	ebx
	push	esi
	push	edi
	cvtss2sd xmm0, DWORD PTR __X$[ebp]
	movsd	QWORD PTR tv72[ebp], xmm0
	fld	QWORD PTR tv72[ebp]
	sub	esp, 8
	fstp	QWORD PTR [esp]
	call	_floor
	add	esp, 8
	fstp	QWORD PTR tv78[ebp]
	movsd	xmm0, QWORD PTR tv78[ebp]
	cvtsd2ss xmm0, xmm0
	movss	DWORD PTR tv80[ebp], xmm0
	fld	DWORD PTR tv80[ebp]
	pop	edi
	pop	esi
	pop	ebx
	mov	esp, ebp
	pop	ebp
	ret	0
_floorf	ENDP
_TEXT	ENDS
; Function compile flags: /Odtp /ZI
; File c:\program files (x86)\microsoft visual studio 11.0\vc\include\math.h
;	COMDAT _cosf
_TEXT	SEGMENT
tv71 = -68						; size = 4
__X$ = 8						; size = 4
_cosf	PROC						; COMDAT

; 410  :         {return ((float)cos((double)_X)); }

	push	ebp
	mov	ebp, esp
	sub	esp, 68					; 00000044H
	push	ebx
	push	esi
	push	edi
	cvtss2sd xmm0, DWORD PTR __X$[ebp]
	call	__libm_sse2_cos_precise
	cvtsd2ss xmm0, xmm0
	movss	DWORD PTR tv71[ebp], xmm0
	fld	DWORD PTR tv71[ebp]
	pop	edi
	pop	esi
	pop	ebx
	mov	esp, ebp
	pop	ebp
	ret	0
_cosf	ENDP
_TEXT	ENDS
; Function compile flags: /Odtp /ZI
; File c:\program files (x86)\microsoft visual studio 11.0\vc\include\math.h
;	COMDAT _ceilf
_TEXT	SEGMENT
tv76 = -76						; size = 4
tv74 = -72						; size = 8
__X$ = 8						; size = 4
_ceilf	PROC						; COMDAT

; 408  :         {return ((float)ceil((double)_X)); }

	push	ebp
	mov	ebp, esp
	sub	esp, 76					; 0000004cH
	push	ebx
	push	esi
	push	edi
	cvtss2sd xmm0, DWORD PTR __X$[ebp]
	sub	esp, 8
	movsd	QWORD PTR [esp], xmm0
	call	DWORD PTR __imp__ceil
	add	esp, 8
	fstp	QWORD PTR tv74[ebp]
	movsd	xmm0, QWORD PTR tv74[ebp]
	cvtsd2ss xmm0, xmm0
	movss	DWORD PTR tv76[ebp], xmm0
	fld	DWORD PTR tv76[ebp]
	pop	edi
	pop	esi
	pop	ebx
	mov	esp, ebp
	pop	ebp
	ret	0
_ceilf	ENDP
_TEXT	ENDS
; Function compile flags: /Odtp /ZI
; File c:\program files (x86)\microsoft visual studio 11.0\vc\include\math.h
;	COMDAT _atan2f
_TEXT	SEGMENT
tv85 = -92						; size = 4
tv83 = -88						; size = 8
tv77 = -80						; size = 8
tv75 = -72						; size = 8
__Y$ = 8						; size = 4
__X$ = 12						; size = 4
_atan2f	PROC						; COMDAT

; 406  :         {return ((float)atan2((double)_Y, (double)_X)); }

	push	ebp
	mov	ebp, esp
	sub	esp, 92					; 0000005cH
	push	ebx
	push	esi
	push	edi
	cvtss2sd xmm0, DWORD PTR __Y$[ebp]
	movsd	QWORD PTR tv75[ebp], xmm0
	fld	QWORD PTR tv75[ebp]
	cvtss2sd xmm0, DWORD PTR __X$[ebp]
	movsd	QWORD PTR tv77[ebp], xmm0
	fld	QWORD PTR tv77[ebp]
	call	__CIatan2
	fstp	QWORD PTR tv83[ebp]
	movsd	xmm0, QWORD PTR tv83[ebp]
	cvtsd2ss xmm0, xmm0
	movss	DWORD PTR tv85[ebp], xmm0
	fld	DWORD PTR tv85[ebp]
	pop	edi
	pop	esi
	pop	ebx
	mov	esp, ebp
	pop	ebp
	ret	0
_atan2f	ENDP
_TEXT	ENDS
; Function compile flags: /Odtp /ZI
; File c:\program files (x86)\microsoft visual studio 11.0\vc\include\math.h
;	COMDAT _atanf
_TEXT	SEGMENT
tv71 = -68						; size = 4
__X$ = 8						; size = 4
_atanf	PROC						; COMDAT

; 404  :         {return ((float)atan((double)_X)); }

	push	ebp
	mov	ebp, esp
	sub	esp, 68					; 00000044H
	push	ebx
	push	esi
	push	edi
	cvtss2sd xmm0, DWORD PTR __X$[ebp]
	call	__libm_sse2_atan_precise
	cvtsd2ss xmm0, xmm0
	movss	DWORD PTR tv71[ebp], xmm0
	fld	DWORD PTR tv71[ebp]
	pop	edi
	pop	esi
	pop	ebx
	mov	esp, ebp
	pop	ebp
	ret	0
_atanf	ENDP
_TEXT	ENDS
; Function compile flags: /Odtp /ZI
; File c:\program files (x86)\microsoft visual studio 11.0\vc\include\math.h
;	COMDAT _asinf
_TEXT	SEGMENT
tv71 = -68						; size = 4
__X$ = 8						; size = 4
_asinf	PROC						; COMDAT

; 402  :         {return ((float)asin((double)_X)); }

	push	ebp
	mov	ebp, esp
	sub	esp, 68					; 00000044H
	push	ebx
	push	esi
	push	edi
	cvtss2sd xmm0, DWORD PTR __X$[ebp]
	call	__libm_sse2_asin_precise
	cvtsd2ss xmm0, xmm0
	movss	DWORD PTR tv71[ebp], xmm0
	fld	DWORD PTR tv71[ebp]
	pop	edi
	pop	esi
	pop	ebx
	mov	esp, ebp
	pop	ebp
	ret	0
_asinf	ENDP
_TEXT	ENDS
; Function compile flags: /Odtp /ZI
; File c:\program files (x86)\microsoft visual studio 11.0\vc\include\math.h
;	COMDAT _acosf
_TEXT	SEGMENT
tv71 = -68						; size = 4
__X$ = 8						; size = 4
_acosf	PROC						; COMDAT

; 400  :         {return ((float)acos((double)_X)); }

	push	ebp
	mov	ebp, esp
	sub	esp, 68					; 00000044H
	push	ebx
	push	esi
	push	edi
	cvtss2sd xmm0, DWORD PTR __X$[ebp]
	call	__libm_sse2_acos_precise
	cvtsd2ss xmm0, xmm0
	movss	DWORD PTR tv71[ebp], xmm0
	fld	DWORD PTR tv71[ebp]
	pop	edi
	pop	esi
	pop	ebx
	mov	esp, ebp
	pop	ebp
	ret	0
_acosf	ENDP
_TEXT	ENDS
; Function compile flags: /Odtp /ZI
;	COMDAT ??_I@YGXPAXIHP6EX0@Z@Z
_TEXT	SEGMENT
___t$ = 8						; size = 4
___s$ = 12						; size = 4
___n$ = 16						; size = 4
___f$ = 20						; size = 4
??_I@YGXPAXIHP6EX0@Z@Z PROC				; `vector destructor iterator', COMDAT
	push	ebp
	mov	ebp, esp
	sub	esp, 64					; 00000040H
	push	ebx
	push	esi
	push	edi
	mov	eax, DWORD PTR ___s$[ebp]
	imul	eax, DWORD PTR ___n$[ebp]
	add	eax, DWORD PTR ___t$[ebp]
	mov	DWORD PTR ___t$[ebp], eax
$LN2@vector:
	mov	eax, DWORD PTR ___n$[ebp]
	sub	eax, 1
	mov	DWORD PTR ___n$[ebp], eax
	js	SHORT $LN3@vector
	mov	eax, DWORD PTR ___t$[ebp]
	sub	eax, DWORD PTR ___s$[ebp]
	mov	DWORD PTR ___t$[ebp], eax
	mov	ecx, DWORD PTR ___t$[ebp]
	call	DWORD PTR ___f$[ebp]
	jmp	SHORT $LN2@vector
$LN3@vector:
	pop	edi
	pop	esi
	pop	ebx
	mov	esp, ebp
	pop	ebp
	ret	16					; 00000010H
??_I@YGXPAXIHP6EX0@Z@Z ENDP				; `vector destructor iterator'
_TEXT	ENDS
; Function compile flags: /Odtp /ZI
;	COMDAT ??_H@YGXPAXIHP6EPAX0@Z@Z
_TEXT	SEGMENT
___t$ = 8						; size = 4
___s$ = 12						; size = 4
___n$ = 16						; size = 4
___f$ = 20						; size = 4
??_H@YGXPAXIHP6EPAX0@Z@Z PROC				; `vector constructor iterator', COMDAT
	push	ebp
	mov	ebp, esp
	sub	esp, 64					; 00000040H
	push	ebx
	push	esi
	push	edi
$LN2@vector:
	mov	eax, DWORD PTR ___n$[ebp]
	sub	eax, 1
	mov	DWORD PTR ___n$[ebp], eax
	js	SHORT $LN3@vector
	mov	ecx, DWORD PTR ___t$[ebp]
	call	DWORD PTR ___f$[ebp]
	mov	eax, DWORD PTR ___t$[ebp]
	add	eax, DWORD PTR ___s$[ebp]
	mov	DWORD PTR ___t$[ebp], eax
	jmp	SHORT $LN2@vector
$LN3@vector:
	pop	edi
	pop	esi
	pop	ebx
	mov	esp, ebp
	pop	ebp
	ret	16					; 00000010H
??_H@YGXPAXIHP6EPAX0@Z@Z ENDP				; `vector constructor iterator'
_TEXT	ENDS
END
