; Listing generated by Microsoft (R) Optimizing Compiler Version 17.00.61219.0 

	TITLE	X:\GitHub\Renegade\Dragonade_RxD\scripts\engine_io.cpp
	.686P
	.XMM
	include listing.inc
	.model	flat

INCLUDELIB MSVCRTD
INCLUDELIB OLDNAMES

PUBLIC	__GUID_11a66efa_382e_451a_9234_1e0e12ef3085
PUBLIC	__GUID_43826d1e_e718_42ee_bc55_a1e261c37bfe
PUBLIC	?FilePath@@3PADA				; FilePath
PUBLIC	?AppDataPath@@3PADA				; AppDataPath
PUBLIC	?RegPath@@3PADA					; RegPath
PUBLIC	?PathsInit@@3_NA				; PathsInit
_BSS	SEGMENT
?FilePath@@3PADA DB 0104H DUP (?)			; FilePath
?AppDataPath@@3PADA DB 0104H DUP (?)			; AppDataPath
?RegPath@@3PADA DB 0104H DUP (?)			; RegPath
?PathsInit@@3_NA DB 01H DUP (?)				; PathsInit
_BSS	ENDS
;	COMDAT __GUID_43826d1e_e718_42ee_bc55_a1e261c37bfe
CONST	SEGMENT
__GUID_43826d1e_e718_42ee_bc55_a1e261c37bfe DD 043826d1eH
	DW	0e718H
	DW	042eeH
	DB	0bcH
	DB	055H
	DB	0a1H
	DB	0e2H
	DB	061H
	DB	0c3H
	DB	07bH
	DB	0feH
CONST	ENDS
;	COMDAT __GUID_11a66efa_382e_451a_9234_1e0e12ef3085
CONST	SEGMENT
__GUID_11a66efa_382e_451a_9234_1e0e12ef3085 DD 011a66efaH
	DW	0382eH
	DW	0451aH
	DB	092H
	DB	034H
	DB	01eH
	DB	0eH
	DB	012H
	DB	0efH
	DB	030H
	DB	085H
CONST	ENDS
PUBLIC	??_H@YGXPAXIHP6EPAX0@Z@Z			; `vector constructor iterator'
PUBLIC	??_I@YGXPAXIHP6EX0@Z@Z				; `vector destructor iterator'
PUBLIC	?strchr@@YAPADPADH@Z				; strchr
PUBLIC	?strrchr@@YAPADPADH@Z				; strrchr
PUBLIC	?Is_Running@ThreadClass@@QAE_NXZ		; ThreadClass::Is_Running
PUBLIC	?Get_Current_Thread_ID@ThreadClass@@SAHXZ	; ThreadClass::Get_Current_Thread_ID
PUBLIC	?Get_Name@ThreadClass@@QAEPBDXZ			; ThreadClass::Get_Name
PUBLIC	??0ThreadClass@@QAE@ABV0@@Z			; ThreadClass::ThreadClass
PUBLIC	??4ThreadClass@@QAEAAV0@ABV0@@Z			; ThreadClass::operator=
PUBLIC	??_GThreadClass@@UAEPAXI@Z			; ThreadClass::`scalar deleting destructor'
PUBLIC	??_EThreadClass@@UAEPAXI@Z			; ThreadClass::`vector deleting destructor'
PUBLIC	??4CriticalSectionClass@@QAEAAV0@ABV0@@Z	; CriticalSectionClass::operator=
PUBLIC	??0GenericNode@@QAE@XZ				; GenericNode::GenericNode
PUBLIC	??1GenericNode@@UAE@XZ				; GenericNode::~GenericNode
PUBLIC	?Unlink@GenericNode@@QAEXXZ			; GenericNode::Unlink
PUBLIC	?Link@GenericNode@@QAEXPAV1@@Z			; GenericNode::Link
PUBLIC	?Next@GenericNode@@QBEPAV1@XZ			; GenericNode::Next
PUBLIC	?Prev@GenericNode@@QBEPAV1@XZ			; GenericNode::Prev
PUBLIC	?Is_Valid@GenericNode@@QBE_NXZ			; GenericNode::Is_Valid
PUBLIC	??_GGenericNode@@UAEPAXI@Z			; GenericNode::`scalar deleting destructor'
PUBLIC	??0GenericList@@QAE@XZ				; GenericList::GenericList
PUBLIC	??1GenericList@@UAE@XZ				; GenericList::~GenericList
PUBLIC	?First@GenericList@@QBEPAVGenericNode@@XZ	; GenericList::First
PUBLIC	?Is_Empty@GenericList@@QBE_NXZ			; GenericList::Is_Empty
PUBLIC	?Add_Tail@GenericList@@QAEXPAVGenericNode@@@Z	; GenericList::Add_Tail
PUBLIC	??_GGenericList@@UAEPAXI@Z			; GenericList::`scalar deleting destructor'
PUBLIC	??0StringClass@@QAE@H_N@Z			; StringClass::StringClass
PUBLIC	??1StringClass@@QAE@XZ				; StringClass::~StringClass
PUBLIC	??4StringClass@@QAEABV0@PBD@Z			; StringClass::operator=
PUBLIC	??BStringClass@@QBEPBDXZ			; StringClass::operator char const *
PUBLIC	?Is_Empty@StringClass@@QBE_NXZ			; StringClass::Is_Empty
PUBLIC	?Store_Length@StringClass@@AAEXH@Z		; StringClass::Store_Length
PUBLIC	?Get_Header@StringClass@@ABEPAU_HEADER@1@XZ	; StringClass::Get_Header
PUBLIC	??4ChunkLoadClass@@QAEAAV0@ABV0@@Z		; ChunkLoadClass::operator=
PUBLIC	?Set_Contains_Chunks@ChunkSaveClass@@QAEXXZ	; ChunkSaveClass::Set_Contains_Chunks
PUBLIC	??4ChunkSaveClass@@QAEAAV0@ABV0@@Z		; ChunkSaveClass::operator=
PUBLIC	??1FileClass@@UAE@XZ				; FileClass::~FileClass
PUBLIC	?Tell@FileClass@@UAEHXZ				; FileClass::Tell
PUBLIC	?Get_Date_Time@FileClass@@UAEKXZ		; FileClass::Get_Date_Time
PUBLIC	?Set_Date_Time@FileClass@@UAE_NK@Z		; FileClass::Set_Date_Time
PUBLIC	?Get_File_Handle@FileClass@@UAEPAXXZ		; FileClass::Get_File_Handle
PUBLIC	??0FileClass@@QAE@XZ				; FileClass::FileClass
PUBLIC	??_GFileClass@@UAEPAXI@Z			; FileClass::`scalar deleting destructor'
PUBLIC	?Next@?$Node@PAUINIEntry@@@@QBEPAUINIEntry@@XZ	; Node<INIEntry *>::Next
PUBLIC	?Is_Valid@?$Node@PAUINIEntry@@@@QBE_NXZ		; Node<INIEntry *>::Is_Valid
PUBLIC	??0?$Node@PAUINIEntry@@@@QAE@XZ			; Node<INIEntry *>::Node<INIEntry *>
PUBLIC	??1?$Node@PAUINIEntry@@@@UAE@XZ			; Node<INIEntry *>::~Node<INIEntry *>
PUBLIC	??_G?$Node@PAUINIEntry@@@@UAEPAXI@Z		; Node<INIEntry *>::`scalar deleting destructor'
PUBLIC	??1INIEntry@@UAE@XZ				; INIEntry::~INIEntry
PUBLIC	??0INIEntry@@QAE@PAD0@Z				; INIEntry::INIEntry
PUBLIC	??_GINIEntry@@UAEPAXI@Z				; INIEntry::`scalar deleting destructor'
PUBLIC	?Next@?$Node@PAUINISection@@@@QBEPAUINISection@@XZ ; Node<INISection *>::Next
PUBLIC	?Is_Valid@?$Node@PAUINISection@@@@QBE_NXZ	; Node<INISection *>::Is_Valid
PUBLIC	??0?$Node@PAUINISection@@@@QAE@XZ		; Node<INISection *>::Node<INISection *>
PUBLIC	??1?$Node@PAUINISection@@@@UAE@XZ		; Node<INISection *>::~Node<INISection *>
PUBLIC	??_G?$Node@PAUINISection@@@@UAEPAXI@Z		; Node<INISection *>::`scalar deleting destructor'
PUBLIC	??0?$List@PAUINIEntry@@@@QAE@XZ			; List<INIEntry *>::List<INIEntry *>
PUBLIC	?First@?$List@PAUINIEntry@@@@QBEPAUINIEntry@@XZ	; List<INIEntry *>::First
PUBLIC	?Delete@?$List@PAUINIEntry@@@@QAEXXZ		; List<INIEntry *>::Delete
PUBLIC	??1?$List@PAUINIEntry@@@@UAE@XZ			; List<INIEntry *>::~List<INIEntry *>
PUBLIC	??_G?$List@PAUINIEntry@@@@UAEPAXI@Z		; List<INIEntry *>::`scalar deleting destructor'
PUBLIC	??0?$IndexClass@HPAUINIEntry@@@@QAE@XZ		; IndexClass<int,INIEntry *>::IndexClass<int,INIEntry *>
PUBLIC	??1?$IndexClass@HPAUINIEntry@@@@QAE@XZ		; IndexClass<int,INIEntry *>::~IndexClass<int,INIEntry *>
PUBLIC	?Remove_Index@?$IndexClass@HPAUINIEntry@@@@QAE_NABH@Z ; IndexClass<int,INIEntry *>::Remove_Index
PUBLIC	?Is_Present@?$IndexClass@HPAUINIEntry@@@@QAE_NABH@Z ; IndexClass<int,INIEntry *>::Is_Present
PUBLIC	?Add_Index@?$IndexClass@HPAUINIEntry@@@@QAE_NABHABQAUINIEntry@@@Z ; IndexClass<int,INIEntry *>::Add_Index
PUBLIC	?Count@?$IndexClass@HPAUINIEntry@@@@QBEHXZ	; IndexClass<int,INIEntry *>::Count
PUBLIC	?Invalidate_Archive@?$IndexClass@HPAUINIEntry@@@@QAEXXZ ; IndexClass<int,INIEntry *>::Invalidate_Archive
PUBLIC	?Clear@?$IndexClass@HPAUINIEntry@@@@QAEXXZ	; IndexClass<int,INIEntry *>::Clear
PUBLIC	?Is_Archive_Same@?$IndexClass@HPAUINIEntry@@@@QAE_NABH@Z ; IndexClass<int,INIEntry *>::Is_Archive_Same
PUBLIC	?Search_For_Node@?$IndexClass@HPAUINIEntry@@@@QAEPAUNodeElement@1@ABH@Z ; IndexClass<int,INIEntry *>::Search_For_Node
PUBLIC	?Set_Archive@?$IndexClass@HPAUINIEntry@@@@QAEXPBUNodeElement@1@@Z ; IndexClass<int,INIEntry *>::Set_Archive
PUBLIC	?Increase_Table_Size@?$IndexClass@HPAUINIEntry@@@@QAE_NH@Z ; IndexClass<int,INIEntry *>::Increase_Table_Size
PUBLIC	?search_compfunc@?$IndexClass@HPAUINIEntry@@@@SAHPBX0@Z ; IndexClass<int,INIEntry *>::search_compfunc
PUBLIC	??1INISection@@UAE@XZ				; INISection::~INISection
PUBLIC	?Find_Entry@INISection@@QAEPAUINIEntry@@PBD@Z	; INISection::Find_Entry
PUBLIC	??0INISection@@QAE@PAD@Z			; INISection::INISection
PUBLIC	??_GINISection@@UAEPAXI@Z			; INISection::`scalar deleting destructor'
PUBLIC	?Strip_Comments@INIClass@@SAXPAD@Z		; INIClass::Strip_Comments
PUBLIC	?CRC@INIClass@@SAHPAD@Z				; INIClass::CRC
PUBLIC	?DuplicateCRCError@INIClass@@QAEXPBD00@Z	; INIClass::DuplicateCRCError
PUBLIC	??0INIClass@@QAE@XZ				; INIClass::INIClass
PUBLIC	??0INIClass@@QAE@AAVFileClass@@@Z		; INIClass::INIClass
PUBLIC	?Initialize@INIClass@@QAEXXZ			; INIClass::Initialize
PUBLIC	?Shutdown@INIClass@@QAEXXZ			; INIClass::Shutdown
PUBLIC	?Clear@INIClass@@QAE_NPAD0@Z			; INIClass::Clear
PUBLIC	?Get_Int@INIClass@@QBEHPBD0H@Z			; INIClass::Get_Int
PUBLIC	?Get_Color_UInt@INIClass@@QBEIPBD0I@Z		; INIClass::Get_Color_UInt
PUBLIC	?Get_Float@INIClass@@QBEMPBD0M@Z		; INIClass::Get_Float
PUBLIC	?Get_Bool@INIClass@@QBE_NPBD0_N@Z		; INIClass::Get_Bool
PUBLIC	?Get_String@INIClass@@QBEHPBD00PADH@Z		; INIClass::Get_String
PUBLIC	?Get_String_Advanced@INIClass@@QBEHPBD00PADH_N@Z ; INIClass::Get_String_Advanced
PUBLIC	?Get_String@INIClass@@QBEAAVStringClass@@AAV2@PBD11@Z ; INIClass::Get_String
PUBLIC	?Get_String_Advanced@INIClass@@QBEAAVStringClass@@AAV2@PBD11_N@Z ; INIClass::Get_String_Advanced
PUBLIC	?Get_Wide_String@INIClass@@QBEAAVWideStringClass@@AAV2@PBD1PB_W@Z ; INIClass::Get_Wide_String
PUBLIC	?Put_Wide_String@INIClass@@QAE_NPBD0PB_W@Z	; INIClass::Put_Wide_String
PUBLIC	?Put_String@INIClass@@QAE_NPBD00@Z		; INIClass::Put_String
PUBLIC	?Put_Int@INIClass@@QAE_NPBD0HH@Z		; INIClass::Put_Int
PUBLIC	?Put_Bool@INIClass@@QAE_NPBD0_N@Z		; INIClass::Put_Bool
PUBLIC	?Put_Float@INIClass@@QAE_NPBD0M@Z		; INIClass::Put_Float
PUBLIC	?Entry_Count@INIClass@@QBEHPBD@Z		; INIClass::Entry_Count
PUBLIC	?Get_Entry@INIClass@@QBEPBDPBDH@Z		; INIClass::Get_Entry
PUBLIC	?Find_Entry@INIClass@@QBEPAUINIEntry@@PBD0@Z	; INIClass::Find_Entry
PUBLIC	?Find_Section@INIClass@@QBEPAUINISection@@PBD@Z	; INIClass::Find_Section
PUBLIC	??1INIClass@@UAE@XZ				; INIClass::~INIClass
PUBLIC	?Load@INIClass@@QAEHAAVStraw@@@Z		; INIClass::Load
PUBLIC	?Load@INIClass@@QAEHAAVFileClass@@@Z		; INIClass::Load
PUBLIC	?Load@INIClass@@QAEHPAD@Z			; INIClass::Load
PUBLIC	?Save@INIClass@@QAEHAAVFileClass@@@Z		; INIClass::Save
PUBLIC	?Save@INIClass@@QAEHAAVPipe@@@Z			; INIClass::Save
PUBLIC	?Section_Count@INIClass@@QBEHXZ			; INIClass::Section_Count
PUBLIC	?Is_Present@INIClass@@QBE_NPBD0@Z		; INIClass::Is_Present
PUBLIC	?Section_Present@INIClass@@QBE_NPBD@Z		; INIClass::Section_Present
PUBLIC	?Get_Section_List@INIClass@@QAEAAV?$List@PAUINISection@@@@XZ ; INIClass::Get_Section_List
PUBLIC	?Get_Section_Index@INIClass@@QAEAAV?$IndexClass@HPAUINISection@@@@XZ ; INIClass::Get_Section_Index
PUBLIC	?Get_File_Name@INIClass@@QAEPBDXZ		; INIClass::Get_File_Name
PUBLIC	??0INIClass@@QAE@ABV0@@Z			; INIClass::INIClass
PUBLIC	??4INIClass@@QAEAAV0@ABV0@@Z			; INIClass::operator=
PUBLIC	??_GINIClass@@UAEPAXI@Z				; INIClass::`scalar deleting destructor'
PUBLIC	??_EINIClass@@UAEPAXI@Z				; INIClass::`vector deleting destructor'
PUBLIC	??0file_auto_ptr@@QAE@PAVFileFactoryClass@@PBD@Z ; file_auto_ptr::file_auto_ptr
PUBLIC	??1file_auto_ptr@@QAE@XZ			; file_auto_ptr::~file_auto_ptr
PUBLIC	??Cfile_auto_ptr@@QAEPAVFileClass@@XZ		; file_auto_ptr::operator->
PUBLIC	??Bfile_auto_ptr@@QAEPAVFileClass@@XZ		; file_auto_ptr::operator FileClass *
PUBLIC	??Dfile_auto_ptr@@QAEAAVFileClass@@XZ		; file_auto_ptr::operator*
PUBLIC	?get@file_auto_ptr@@QAEPAVFileClass@@XZ		; file_auto_ptr::get
PUBLIC	??4file_auto_ptr@@QAEAAV0@ABV0@@Z		; file_auto_ptr::operator=
PUBLIC	?Get_Data_File@@YAPAVFileClass@@PBD@Z		; Get_Data_File
PUBLIC	?Close_Data_File@@YAXPAVFileClass@@@Z		; Close_Data_File
PUBLIC	?Get_INI@@YAPAVINIClass@@PBD@Z			; Get_INI
PUBLIC	?Release_INI@@YAXPAVINIClass@@@Z		; Release_INI
PUBLIC	?Get_Registry_Int@@YAIPBDH@Z			; Get_Registry_Int
PUBLIC	?Get_File_Path@@YAPBDXZ				; Get_File_Path
PUBLIC	?Get_App_Data_Path@@YAPBDXZ			; Get_App_Data_Path
PUBLIC	?Get_Registry_Path@@YAPBDXZ			; Get_Registry_Path
PUBLIC	?Strip_Path_From_Filename@@YAXAAVStringClass@@PBD@Z ; Strip_Path_From_Filename
PUBLIC	??0Straw@@QAE@ABV0@@Z				; Straw::Straw
PUBLIC	??4Straw@@QAEAAV0@ABV0@@Z			; Straw::operator=
PUBLIC	??_GStraw@@UAEPAXI@Z				; Straw::`scalar deleting destructor'
PUBLIC	??_EStraw@@UAEPAXI@Z				; Straw::`vector deleting destructor'
PUBLIC	??0Buffer@@QAE@J@Z				; Buffer::Buffer
PUBLIC	?Get_Buffer@Buffer@@QAEPAXXZ			; Buffer::Get_Buffer
PUBLIC	?Get_Size@Buffer@@QAEJXZ			; Buffer::Get_Size
PUBLIC	??4Buffer@@QAEAAV0@ABV0@@Z			; Buffer::operator=
PUBLIC	??0BufferStraw@@QAE@ABV0@@Z			; BufferStraw::BufferStraw
PUBLIC	??4BufferStraw@@QAEAAV0@ABV0@@Z			; BufferStraw::operator=
PUBLIC	??_GBufferStraw@@UAEPAXI@Z			; BufferStraw::`scalar deleting destructor'
PUBLIC	??_EBufferStraw@@UAEPAXI@Z			; BufferStraw::`vector deleting destructor'
PUBLIC	??0FileStraw@@QAE@ABV0@@Z			; FileStraw::FileStraw
PUBLIC	??4FileStraw@@QAEAAV0@ABV0@@Z			; FileStraw::operator=
PUBLIC	??_GFileStraw@@UAEPAXI@Z			; FileStraw::`scalar deleting destructor'
PUBLIC	??_EFileStraw@@UAEPAXI@Z			; FileStraw::`vector deleting destructor'
PUBLIC	??0CacheStraw@@QAE@H@Z				; CacheStraw::CacheStraw
PUBLIC	?Is_Valid@CacheStraw@@QAE_NXZ			; CacheStraw::Is_Valid
PUBLIC	??1CacheStraw@@UAE@XZ				; CacheStraw::~CacheStraw
PUBLIC	?Get@CacheStraw@@UAEHPAXH@Z			; CacheStraw::Get
PUBLIC	??0CacheStraw@@QAE@ABV0@@Z			; CacheStraw::CacheStraw
PUBLIC	??4CacheStraw@@QAEAAV0@ABV0@@Z			; CacheStraw::operator=
PUBLIC	??_GCacheStraw@@UAEPAXI@Z			; CacheStraw::`scalar deleting destructor'
PUBLIC	??_ECacheStraw@@UAEPAXI@Z			; CacheStraw::`vector deleting destructor'
PUBLIC	??0Pipe@@QAE@XZ					; Pipe::Pipe
PUBLIC	??1Pipe@@UAE@XZ					; Pipe::~Pipe
PUBLIC	?Flush@Pipe@@UAEHXZ				; Pipe::Flush
PUBLIC	?End@Pipe@@UAEHXZ				; Pipe::End
PUBLIC	?Put_To@Pipe@@UAEXPAV1@@Z			; Pipe::Put_To
PUBLIC	?Put@Pipe@@UAEHPBXH@Z				; Pipe::Put
PUBLIC	??0Pipe@@QAE@ABV0@@Z				; Pipe::Pipe
PUBLIC	??4Pipe@@QAEAAV0@ABV0@@Z			; Pipe::operator=
PUBLIC	??_GPipe@@UAEPAXI@Z				; Pipe::`scalar deleting destructor'
PUBLIC	??_EPipe@@UAEPAXI@Z				; Pipe::`vector deleting destructor'
PUBLIC	??0FilePipe@@QAE@PAVFileClass@@@Z		; FilePipe::FilePipe
PUBLIC	??1FilePipe@@UAE@XZ				; FilePipe::~FilePipe
PUBLIC	?End@FilePipe@@UAEHXZ				; FilePipe::End
PUBLIC	?Put@FilePipe@@UAEHPBXH@Z			; FilePipe::Put
PUBLIC	??_GFilePipe@@UAEPAXI@Z				; FilePipe::`scalar deleting destructor'
PUBLIC	?Is_Hash_Checked@RawFileClass@@UAE_NXZ		; RawFileClass::Is_Hash_Checked
PUBLIC	?Is_Biased@RawFileClass@@QAE_NXZ		; RawFileClass::Is_Biased
PUBLIC	??0RawFileClass@@QAE@XZ				; RawFileClass::RawFileClass
PUBLIC	?Reset@RawFileClass@@QAEXXZ			; RawFileClass::Reset
PUBLIC	??1RawFileClass@@UAE@XZ				; RawFileClass::~RawFileClass
PUBLIC	?File_Name@RawFileClass@@UAEPBDXZ		; RawFileClass::File_Name
PUBLIC	?Set_Name@RawFileClass@@UAEPBDPBD@Z		; RawFileClass::Set_Name
PUBLIC	?Create@RawFileClass@@UAE_NXZ			; RawFileClass::Create
PUBLIC	?Delete@RawFileClass@@UAE_NXZ			; RawFileClass::Delete
PUBLIC	?Is_Available@RawFileClass@@UAE_NH@Z		; RawFileClass::Is_Available
PUBLIC	?Is_Open@RawFileClass@@UAE_NXZ			; RawFileClass::Is_Open
PUBLIC	?Open@RawFileClass@@UAEHPBDH@Z			; RawFileClass::Open
PUBLIC	?Open@RawFileClass@@UAEHH@Z			; RawFileClass::Open
PUBLIC	?Read@RawFileClass@@UAEHPAXH@Z			; RawFileClass::Read
PUBLIC	?Seek@RawFileClass@@UAEHHH@Z			; RawFileClass::Seek
PUBLIC	?Raw_Seek@RawFileClass@@QAEHHH@Z		; RawFileClass::Raw_Seek
PUBLIC	?Size@RawFileClass@@UAEHXZ			; RawFileClass::Size
PUBLIC	?Write@RawFileClass@@UAEHPAXH@Z			; RawFileClass::Write
PUBLIC	?Close@RawFileClass@@UAEXXZ			; RawFileClass::Close
PUBLIC	?Get_Date_Time@RawFileClass@@UAEKXZ		; RawFileClass::Get_Date_Time
PUBLIC	?Set_Date_Time@RawFileClass@@UAE_NK@Z		; RawFileClass::Set_Date_Time
PUBLIC	?Error@RawFileClass@@UAEXHHPBD@Z		; RawFileClass::Error
PUBLIC	?Get_File_Handle@RawFileClass@@UAEPAXXZ		; RawFileClass::Get_File_Handle
PUBLIC	?Bias@RawFileClass@@UAEXHH@Z			; RawFileClass::Bias
PUBLIC	?Attach@RawFileClass@@UAEXPAXH@Z		; RawFileClass::Attach
PUBLIC	?Detach@RawFileClass@@UAEXXZ			; RawFileClass::Detach
PUBLIC	??_GRawFileClass@@UAEPAXI@Z			; RawFileClass::`scalar deleting destructor'
PUBLIC	??$clamp@H@@YAHHHH@Z				; clamp<int>
PUBLIC	??0BufferedFileClass@@QAE@XZ			; BufferedFileClass::BufferedFileClass
PUBLIC	??1BufferedFileClass@@UAE@XZ			; BufferedFileClass::~BufferedFileClass
PUBLIC	?Read@BufferedFileClass@@UAEHPAXH@Z		; BufferedFileClass::Read
PUBLIC	?Seek@BufferedFileClass@@UAEHHH@Z		; BufferedFileClass::Seek
PUBLIC	?Write@BufferedFileClass@@UAEHPAXH@Z		; BufferedFileClass::Write
PUBLIC	?Close@BufferedFileClass@@UAEXXZ		; BufferedFileClass::Close
PUBLIC	?Reset_Buffer@BufferedFileClass@@QAEXXZ		; BufferedFileClass::Reset_Buffer
PUBLIC	??_GBufferedFileClass@@UAEPAXI@Z		; BufferedFileClass::`scalar deleting destructor'
PUBLIC	??$ResolveGameReference@PAVFileFactoryClass@@@@YAAAPAVFileFactoryClass@@HHH@Z ; ResolveGameReference<FileFactoryClass *>
PUBLIC	?Read_Paths@@YAXXZ				; Read_Paths
PUBLIC	??0?$IndexClass@HPAUINISection@@@@QAE@XZ	; IndexClass<int,INISection *>::IndexClass<int,INISection *>
PUBLIC	??1?$IndexClass@HPAUINISection@@@@QAE@XZ	; IndexClass<int,INISection *>::~IndexClass<int,INISection *>
PUBLIC	?Remove_Index@?$IndexClass@HPAUINISection@@@@QAE_NABH@Z ; IndexClass<int,INISection *>::Remove_Index
PUBLIC	?Add_Index@?$IndexClass@HPAUINISection@@@@QAE_NABHABQAUINISection@@@Z ; IndexClass<int,INISection *>::Add_Index
PUBLIC	?Count@?$IndexClass@HPAUINISection@@@@QBEHXZ	; IndexClass<int,INISection *>::Count
PUBLIC	?Invalidate_Archive@?$IndexClass@HPAUINISection@@@@QAEXXZ ; IndexClass<int,INISection *>::Invalidate_Archive
PUBLIC	?Clear@?$IndexClass@HPAUINISection@@@@QAEXXZ	; IndexClass<int,INISection *>::Clear
PUBLIC	?Increase_Table_Size@?$IndexClass@HPAUINISection@@@@QAE_NH@Z ; IndexClass<int,INISection *>::Increase_Table_Size
PUBLIC	??_G?$IndexClass@HPAUINISection@@@@QAEPAXI@Z	; IndexClass<int,INISection *>::`scalar deleting destructor'
PUBLIC	?Read_Line@@YAHAAVStraw@@PADHAA_N@Z		; Read_Line
PUBLIC	??0?$List@PAUINISection@@@@QAE@XZ		; List<INISection *>::List<INISection *>
PUBLIC	?First@?$List@PAUINISection@@@@QBEPAUINISection@@XZ ; List<INISection *>::First
PUBLIC	?Delete@?$List@PAUINISection@@@@QAEXXZ		; List<INISection *>::Delete
PUBLIC	??1?$List@PAUINISection@@@@UAE@XZ		; List<INISection *>::~List<INISection *>
PUBLIC	??_G?$List@PAUINISection@@@@UAEPAXI@Z		; List<INISection *>::`scalar deleting destructor'
PUBLIC	??0NodeElement@?$IndexClass@HPAUINIEntry@@@@QAE@ABHABQAUINIEntry@@@Z ; IndexClass<int,INIEntry *>::NodeElement::NodeElement
PUBLIC	??0NodeElement@?$IndexClass@HPAUINIEntry@@@@QAE@XZ ; IndexClass<int,INIEntry *>::NodeElement::NodeElement
PUBLIC	??8NodeElement@?$IndexClass@HPAUINIEntry@@@@QAE_NABU01@@Z ; IndexClass<int,INIEntry *>::NodeElement::operator==
PUBLIC	??MNodeElement@?$IndexClass@HPAUINIEntry@@@@QAE_NABU01@@Z ; IndexClass<int,INIEntry *>::NodeElement::operator<
PUBLIC	??0NodeElement@?$IndexClass@HPAUINISection@@@@QAE@XZ ; IndexClass<int,INISection *>::NodeElement::NodeElement
PUBLIC	??$Binary_Search@UNodeElement@?$IndexClass@HPAUINIEntry@@@@@@YAPAUNodeElement@?$IndexClass@HPAUINIEntry@@@@PAU01@HAAU01@@Z ; Binary_Search<IndexClass<int,INIEntry *>::NodeElement>
PUBLIC	??_7ThreadClass@@6B@				; ThreadClass::`vftable'
PUBLIC	??_7GenericNode@@6B@				; GenericNode::`vftable'
PUBLIC	??_7GenericList@@6B@				; GenericList::`vftable'
PUBLIC	??_C@_0DJ@NKJHEMPA@x?3?2github?2renegade?2dragonade_rxd@ ; `string'
PUBLIC	??_C@_1HC@JEIHKHFK@?$AAx?$AA?3?$AA?2?$AAg?$AAi?$AAt?$AAh?$AAu?$AAb?$AA?2?$AAr?$AAe?$AAn?$AAe?$AAg?$AAa?$AAd?$AAe?$AA?2?$AAd?$AAr?$AAa?$AAg?$AAo?$AAn?$AAa?$AAd?$AAe?$AA_?$AAr?$AAx?$AAd@ ; `string'
PUBLIC	??_C@_1M@HLGKFCJM@?$AAf?$AAa?$AAl?$AAs?$AAe?$AA?$AA@ ; `string'
PUBLIC	??_7FileClass@@6B@				; FileClass::`vftable'
PUBLIC	??_7?$Node@PAUINIEntry@@@@6B@			; Node<INIEntry *>::`vftable'
PUBLIC	??_7INIEntry@@6B@				; INIEntry::`vftable'
PUBLIC	??_C@_0BE@NLFCMBPK@INIEntry?3?3?$HOINIEntry?$AA@ ; `string'
PUBLIC	??_C@_0DF@OBDLAGEP@x?3?2github?2renegade?2dragonade_rxd@ ; `string'
PUBLIC	??_C@_1GK@FAFJBHHM@?$AAx?$AA?3?$AA?2?$AAg?$AAi?$AAt?$AAh?$AAu?$AAb?$AA?2?$AAr?$AAe?$AAn?$AAe?$AAg?$AAa?$AAd?$AAe?$AA?2?$AAd?$AAr?$AAa?$AAg?$AAo?$AAn?$AAa?$AAd?$AAe?$AA_?$AAr?$AAx?$AAd@ ; `string'
PUBLIC	??_7?$Node@PAUINISection@@@@6B@			; Node<INISection *>::`vftable'
PUBLIC	??_7?$List@PAUINIEntry@@@@6B@			; List<INIEntry *>::`vftable'
PUBLIC	??_7INISection@@6B@				; INISection::`vftable'
PUBLIC	??_C@_0BI@MNFJCFIP@INISection?3?3?$HOINISection?$AA@ ; `string'
PUBLIC	??_7INIClass@@6B@				; INIClass::`vftable'
PUBLIC	?_TheFileFactory@@3AAPAVFileFactoryClass@@A	; _TheFileFactory
PUBLIC	??_7Straw@@6B@					; Straw::`vftable'
PUBLIC	??_C@_0P@OCJIINDO@Buffer?3?3Buffer?$AA@		; `string'
PUBLIC	??_C@_0DB@KAPDHD@x?3?2github?2renegade?2dragonade_rxd@ ; `string'
PUBLIC	??_C@_1GC@DMMDNGMD@?$AAx?$AA?3?$AA?2?$AAg?$AAi?$AAt?$AAh?$AAu?$AAb?$AA?2?$AAr?$AAe?$AAn?$AAe?$AAg?$AAa?$AAd?$AAe?$AA?2?$AAd?$AAr?$AAa?$AAg?$AAo?$AAn?$AAa?$AAd?$AAe?$AA_?$AAr?$AAx?$AAd@ ; `string'
PUBLIC	??_7BufferStraw@@6B@				; BufferStraw::`vftable'
PUBLIC	??_7FileStraw@@6B@				; FileStraw::`vftable'
PUBLIC	??_7CacheStraw@@6B@				; CacheStraw::`vftable'
PUBLIC	??_7Pipe@@6B@					; Pipe::`vftable'
PUBLIC	??_7FilePipe@@6B@				; FilePipe::`vftable'
PUBLIC	??_7RawFileClass@@6B@				; RawFileClass::`vftable'
PUBLIC	??_C@_00CNPNBAHC@?$AA@				; `string'
PUBLIC	??_7BufferedFileClass@@6B@			; BufferedFileClass::`vftable'
PUBLIC	??_C@_0BI@LFKJEOO@BufferedFileClass?3?3Read?$AA@ ; `string'
PUBLIC	??_C@_0DN@NGCACKDA@x?3?2github?2renegade?2dragonade_rxd@ ; `string'
PUBLIC	??_C@_1HK@BLILCDCH@?$AAx?$AA?3?$AA?2?$AAg?$AAi?$AAt?$AAh?$AAu?$AAb?$AA?2?$AAr?$AAe?$AAn?$AAe?$AAg?$AAa?$AAd?$AAe?$AA?2?$AAd?$AAr?$AAa?$AAg?$AAo?$AAn?$AAa?$AAd?$AAe?$AA_?$AAr?$AAx?$AAd@ ; `string'
PUBLIC	??_C@_0CA@LMFINKNE@BufferedFileClass?3?3Reset_Buffer?$AA@ ; `string'
PUBLIC	??_C@_09HCHIHKFJ@paths?4ini?$AA@		; `string'
PUBLIC	??_C@_08LAFABFGE@Westwood?$AA@			; `string'
PUBLIC	??_C@_07KODFFKCJ@RegBase?$AA@			; `string'
PUBLIC	??_C@_05EHMGIKAG@paths?$AA@			; `string'
PUBLIC	??_C@_08KBDFECAK@Renegade?$AA@			; `string'
PUBLIC	??_C@_09PGFLEEKF@RegClient?$AA@			; `string'
PUBLIC	??_C@_0M@MBBBEALJ@RenegadeFDS?$AA@		; `string'
PUBLIC	??_C@_06PNIIMBMB@RegFDS?$AA@			; `string'
PUBLIC	??_C@_08IAGBEAJA@FileBase?$AA@			; `string'
PUBLIC	??_C@_06PJIGMIJB@Client?$AA@			; `string'
PUBLIC	??_C@_0L@DODOIGHK@FileClient?$AA@		; `string'
PUBLIC	??_C@_03IGMBAMIJ@FDS?$AA@			; `string'
PUBLIC	??_C@_07BNJPPJLM@FileFDS?$AA@			; `string'
PUBLIC	??_C@_0N@JNOHGBBN@UseRenFolder?$AA@		; `string'
PUBLIC	??_C@_01KICIPPFI@?2?$AA@			; `string'
PUBLIC	??_C@_09OIHOKJLD@Software?2?$AA@		; `string'
PUBLIC	?__LINE__Var@?1??Get_INI@@YAPAVINIClass@@PBD@Z@4JA ; `Get_INI'::`2'::__LINE__Var
PUBLIC	??_C@_07PHFINMNM@Get_INI?$AA@			; `string'
PUBLIC	??_C@_0DH@DCENIBGD@x?3?2github?2renegade?2dragonade_rxd@ ; `string'
PUBLIC	??_C@_1GO@FOFKMDD@?$AAx?$AA?3?$AA?2?$AAg?$AAi?$AAt?$AAh?$AAu?$AAb?$AA?2?$AAr?$AAe?$AAn?$AAe?$AAg?$AAa?$AAd?$AAe?$AA?2?$AAd?$AAr?$AAa?$AAg?$AAo?$AAn?$AAa?$AAd?$AAe?$AA_?$AAr?$AAx?$AAd@ ; `string'
PUBLIC	?__LINE__Var@?1??Release_INI@@YAXPAVINIClass@@@Z@4JA ; `Release_INI'::`2'::__LINE__Var
PUBLIC	??_C@_0M@DGNOAIDN@Release_INI?$AA@		; `string'
PUBLIC	?__LINE__Var@?1??Load@INIClass@@QAEHAAVFileClass@@@Z@4JA ; `INIClass::Load'::`2'::__LINE__Var
PUBLIC	??_C@_0P@PDEIENJE@INIClass?3?3Load?$AA@		; `string'
PUBLIC	?__LINE__Var@?1??Load@INIClass@@QAEHAAVStraw@@@Z@4JA ; `INIClass::Load'::`2'::__LINE__Var
PUBLIC	??_7?$List@PAUINISection@@@@6B@			; List<INISection *>::`vftable'
PUBLIC	??_C@_03CIILGPHP@$?$CFx?$AA@			; `string'
PUBLIC	??_C@_03LOJBKHKI@?$CFxh?$AA@			; `string'
PUBLIC	??_C@_02NJPGOMH@?$CFf?$AA@			; `string'
PUBLIC	?__LINE__Var@?1??Initialize@INIClass@@QAEXXZ@4JA ; `INIClass::Initialize'::`2'::__LINE__Var
PUBLIC	??_C@_0BF@BAMGKENB@INIClass?3?3Initialize?$AA@	; `string'
PUBLIC	??_C@_09EEKGDCPH@?$DMunknown?$DO?$AA@		; `string'
PUBLIC	?__LINE__Var@?1??Shutdown@INIClass@@QAEXXZ@4JA	; `INIClass::Shutdown'::`2'::__LINE__Var
PUBLIC	??_C@_0BD@BKLIDOBA@INIClass?3?3Shutdown?$AA@	; `string'
PUBLIC	?__LINE__Var@?1??Clear@INIClass@@QAE_NPAD0@Z@4JA ; `INIClass::Clear'::`2'::__LINE__Var
PUBLIC	??_C@_0BA@NFMHJJNN@INIClass?3?3Clear?$AA@	; `string'
PUBLIC	??_C@_05FAHENKCB@?$CFsHex?$AA@			; `string'
PUBLIC	??_C@_0L@BHNCPNHJ@0xNotValid?$AA@		; `string'
PUBLIC	??_C@_03OPHMLOFF@?$CFlx?$AA@			; `string'
PUBLIC	??_C@_07DPBAKFHF@?$CFsAlpha?$AA@		; `string'
PUBLIC	??_C@_05IJKHDAIH@?$CFsRed?$AA@			; `string'
PUBLIC	??_C@_07NOBOEHLK@?$CFsGreen?$AA@		; `string'
PUBLIC	??_C@_06GLNDDPBO@?$CFsBlue?$AA@			; `string'
PUBLIC	??_C@_0DA@LBAEEJJ@?$CFs?5?9?5Duplicate?5Entry?5?$CC?$CFs?$CC?5in?5sec@ ; `string'
PUBLIC	??_C@_0BL@MCNMCOPK@Duplicate?5CRC?5in?5INI?5file?4?$AA@ ; `string'
PUBLIC	?__LINE__Var@?1??Load@INIClass@@QAEHPAD@Z@4JA	; `INIClass::Load'::`2'::__LINE__Var
PUBLIC	?__LINE__Var@?1??Save@INIClass@@QAEHAAVFileClass@@@Z@4JA ; `INIClass::Save'::`2'::__LINE__Var
PUBLIC	??_C@_0P@PBFFLOEA@INIClass?3?3Save?$AA@		; `string'
PUBLIC	??_C@_01OHGJGJJP@?$FL?$AA@			; `string'
PUBLIC	??_C@_01LBDDMOBJ@?$FN?$AA@			; `string'
PUBLIC	??_C@_01EEMJAFIK@?6?$AA@			; `string'
PUBLIC	??_C@_01NEMOKFLO@?$DN?$AA@			; `string'
PUBLIC	?__LINE__Var@?1??Put_String@INIClass@@QAE_NPBD00@Z@4JA ; `INIClass::Put_String'::`2'::__LINE__Var
PUBLIC	??_C@_0BF@EKGBNGFP@INIClass?3?3Put_String?$AA@	; `string'
PUBLIC	??_C@_03IGNMOBEI@?$CFXh?$AA@			; `string'
PUBLIC	??_C@_03LNAPELNN@$?$CFX?$AA@			; `string'
PUBLIC	??_C@_02DPKJAMEF@?$CFd?$AA@			; `string'
PUBLIC	??_C@_03ICICOMAL@yes?$AA@			; `string'
PUBLIC	??_C@_02KAJCLHKP@no?$AA@			; `string'
PUBLIC	?__LINE__Var@?1???0file_auto_ptr@@QAE@PAVFileFactoryClass@@PBD@Z@4JA ; `file_auto_ptr::file_auto_ptr'::`2'::__LINE__Var
PUBLIC	??_C@_0BN@JBPACNPA@file_auto_ptr?3?3file_auto_ptr?$AA@ ; `string'
PUBLIC	??_C@_0CA@FGEPAIP@List?$DMstruct?5INIEntry?5?$CK?$DO?3?3Delete?$AA@ ; `string'
PUBLIC	??_C@_0CL@POINCKL@IndexClass?$DMint?0struct?5INISection@ ; `string'
PUBLIC	??_C@_0CC@CJCFMMIE@List?$DMstruct?5INISection?5?$CK?$DO?3?3Delet@ ; `string'
PUBLIC	??_C@_0CJ@EAFFDJJP@IndexClass?$DMint?0struct?5INIEntry?5?$CK@ ; `string'
PUBLIC	??_C@_0DH@FMKNHFBJ@IndexClass?$DMint?0struct?5INIEntry?5?$CK@ ; `string'
PUBLIC	??_C@_0DJ@IHGELHP@IndexClass?$DMint?0struct?5INISection@ ; `string'
PUBLIC	??_R4ThreadClass@@6B@				; ThreadClass::`RTTI Complete Object Locator'
PUBLIC	??_R0?AVThreadClass@@@8				; ThreadClass `RTTI Type Descriptor'
PUBLIC	??_R3ThreadClass@@8				; ThreadClass::`RTTI Class Hierarchy Descriptor'
PUBLIC	??_R2ThreadClass@@8				; ThreadClass::`RTTI Base Class Array'
PUBLIC	??_R1A@?0A@EA@ThreadClass@@8			; ThreadClass::`RTTI Base Class Descriptor at (0,-1,0,64)'
PUBLIC	??_R4GenericList@@6B@				; GenericList::`RTTI Complete Object Locator'
PUBLIC	??_R0?AVGenericList@@@8				; GenericList `RTTI Type Descriptor'
PUBLIC	??_R3GenericList@@8				; GenericList::`RTTI Class Hierarchy Descriptor'
PUBLIC	??_R2GenericList@@8				; GenericList::`RTTI Base Class Array'
PUBLIC	??_R1A@?0A@EA@GenericList@@8			; GenericList::`RTTI Base Class Descriptor at (0,-1,0,64)'
PUBLIC	??_R4GenericNode@@6B@				; GenericNode::`RTTI Complete Object Locator'
PUBLIC	??_R0?AVGenericNode@@@8				; GenericNode `RTTI Type Descriptor'
PUBLIC	??_R3GenericNode@@8				; GenericNode::`RTTI Class Hierarchy Descriptor'
PUBLIC	??_R2GenericNode@@8				; GenericNode::`RTTI Base Class Array'
PUBLIC	??_R1A@?0A@EA@GenericNode@@8			; GenericNode::`RTTI Base Class Descriptor at (0,-1,0,64)'
PUBLIC	??_R4FileClass@@6B@				; FileClass::`RTTI Complete Object Locator'
PUBLIC	??_R0?AVFileClass@@@8				; FileClass `RTTI Type Descriptor'
PUBLIC	??_R3FileClass@@8				; FileClass::`RTTI Class Hierarchy Descriptor'
PUBLIC	??_R2FileClass@@8				; FileClass::`RTTI Base Class Array'
PUBLIC	??_R1A@?0A@EA@FileClass@@8			; FileClass::`RTTI Base Class Descriptor at (0,-1,0,64)'
PUBLIC	??_R4Straw@@6B@					; Straw::`RTTI Complete Object Locator'
PUBLIC	??_R0?AVStraw@@@8				; Straw `RTTI Type Descriptor'
PUBLIC	??_R3Straw@@8					; Straw::`RTTI Class Hierarchy Descriptor'
PUBLIC	??_R2Straw@@8					; Straw::`RTTI Base Class Array'
PUBLIC	??_R1A@?0A@EA@Straw@@8				; Straw::`RTTI Base Class Descriptor at (0,-1,0,64)'
PUBLIC	??_R4Pipe@@6B@					; Pipe::`RTTI Complete Object Locator'
PUBLIC	??_R0?AVPipe@@@8				; Pipe `RTTI Type Descriptor'
PUBLIC	??_R3Pipe@@8					; Pipe::`RTTI Class Hierarchy Descriptor'
PUBLIC	??_R2Pipe@@8					; Pipe::`RTTI Base Class Array'
PUBLIC	??_R1A@?0A@EA@Pipe@@8				; Pipe::`RTTI Base Class Descriptor at (0,-1,0,64)'
PUBLIC	??_R4INIEntry@@6B@				; INIEntry::`RTTI Complete Object Locator'
PUBLIC	??_R0?AUINIEntry@@@8				; INIEntry `RTTI Type Descriptor'
PUBLIC	??_R3INIEntry@@8				; INIEntry::`RTTI Class Hierarchy Descriptor'
PUBLIC	??_R2INIEntry@@8				; INIEntry::`RTTI Base Class Array'
PUBLIC	??_R1A@?0A@EA@INIEntry@@8			; INIEntry::`RTTI Base Class Descriptor at (0,-1,0,64)'
PUBLIC	??_R1A@?0A@EA@?$Node@PAUINIEntry@@@@8		; Node<INIEntry *>::`RTTI Base Class Descriptor at (0,-1,0,64)'
PUBLIC	??_R0?AV?$Node@PAUINIEntry@@@@@8		; Node<INIEntry *> `RTTI Type Descriptor'
PUBLIC	??_R3?$Node@PAUINIEntry@@@@8			; Node<INIEntry *>::`RTTI Class Hierarchy Descriptor'
PUBLIC	??_R2?$Node@PAUINIEntry@@@@8			; Node<INIEntry *>::`RTTI Base Class Array'
PUBLIC	??_R4?$Node@PAUINIEntry@@@@6B@			; Node<INIEntry *>::`RTTI Complete Object Locator'
PUBLIC	??_R4?$List@PAUINIEntry@@@@6B@			; List<INIEntry *>::`RTTI Complete Object Locator'
PUBLIC	??_R0?AV?$List@PAUINIEntry@@@@@8		; List<INIEntry *> `RTTI Type Descriptor'
PUBLIC	??_R3?$List@PAUINIEntry@@@@8			; List<INIEntry *>::`RTTI Class Hierarchy Descriptor'
PUBLIC	??_R2?$List@PAUINIEntry@@@@8			; List<INIEntry *>::`RTTI Base Class Array'
PUBLIC	??_R1A@?0A@EA@?$List@PAUINIEntry@@@@8		; List<INIEntry *>::`RTTI Base Class Descriptor at (0,-1,0,64)'
PUBLIC	??_R4INISection@@6B@				; INISection::`RTTI Complete Object Locator'
PUBLIC	??_R0?AUINISection@@@8				; INISection `RTTI Type Descriptor'
PUBLIC	??_R3INISection@@8				; INISection::`RTTI Class Hierarchy Descriptor'
PUBLIC	??_R2INISection@@8				; INISection::`RTTI Base Class Array'
PUBLIC	??_R1A@?0A@EA@INISection@@8			; INISection::`RTTI Base Class Descriptor at (0,-1,0,64)'
PUBLIC	??_R1A@?0A@EA@?$Node@PAUINISection@@@@8		; Node<INISection *>::`RTTI Base Class Descriptor at (0,-1,0,64)'
PUBLIC	??_R0?AV?$Node@PAUINISection@@@@@8		; Node<INISection *> `RTTI Type Descriptor'
PUBLIC	??_R3?$Node@PAUINISection@@@@8			; Node<INISection *>::`RTTI Class Hierarchy Descriptor'
PUBLIC	??_R2?$Node@PAUINISection@@@@8			; Node<INISection *>::`RTTI Base Class Array'
PUBLIC	??_R4?$Node@PAUINISection@@@@6B@		; Node<INISection *>::`RTTI Complete Object Locator'
PUBLIC	??_R4?$List@PAUINISection@@@@6B@		; List<INISection *>::`RTTI Complete Object Locator'
PUBLIC	??_R0?AV?$List@PAUINISection@@@@@8		; List<INISection *> `RTTI Type Descriptor'
PUBLIC	??_R3?$List@PAUINISection@@@@8			; List<INISection *>::`RTTI Class Hierarchy Descriptor'
PUBLIC	??_R2?$List@PAUINISection@@@@8			; List<INISection *>::`RTTI Base Class Array'
PUBLIC	??_R1A@?0A@EA@?$List@PAUINISection@@@@8		; List<INISection *>::`RTTI Base Class Descriptor at (0,-1,0,64)'
PUBLIC	??_R4INIClass@@6B@				; INIClass::`RTTI Complete Object Locator'
PUBLIC	??_R0?AVINIClass@@@8				; INIClass `RTTI Type Descriptor'
PUBLIC	??_R3INIClass@@8				; INIClass::`RTTI Class Hierarchy Descriptor'
PUBLIC	??_R2INIClass@@8				; INIClass::`RTTI Base Class Array'
PUBLIC	??_R1A@?0A@EA@INIClass@@8			; INIClass::`RTTI Base Class Descriptor at (0,-1,0,64)'
PUBLIC	??_R4BufferStraw@@6B@				; BufferStraw::`RTTI Complete Object Locator'
PUBLIC	??_R0?AVBufferStraw@@@8				; BufferStraw `RTTI Type Descriptor'
PUBLIC	??_R3BufferStraw@@8				; BufferStraw::`RTTI Class Hierarchy Descriptor'
PUBLIC	??_R2BufferStraw@@8				; BufferStraw::`RTTI Base Class Array'
PUBLIC	??_R1A@?0A@EA@BufferStraw@@8			; BufferStraw::`RTTI Base Class Descriptor at (0,-1,0,64)'
PUBLIC	??_R4FileStraw@@6B@				; FileStraw::`RTTI Complete Object Locator'
PUBLIC	??_R0?AVFileStraw@@@8				; FileStraw `RTTI Type Descriptor'
PUBLIC	??_R3FileStraw@@8				; FileStraw::`RTTI Class Hierarchy Descriptor'
PUBLIC	??_R2FileStraw@@8				; FileStraw::`RTTI Base Class Array'
PUBLIC	??_R1A@?0A@EA@FileStraw@@8			; FileStraw::`RTTI Base Class Descriptor at (0,-1,0,64)'
PUBLIC	??_R4CacheStraw@@6B@				; CacheStraw::`RTTI Complete Object Locator'
PUBLIC	??_R0?AVCacheStraw@@@8				; CacheStraw `RTTI Type Descriptor'
PUBLIC	??_R3CacheStraw@@8				; CacheStraw::`RTTI Class Hierarchy Descriptor'
PUBLIC	??_R2CacheStraw@@8				; CacheStraw::`RTTI Base Class Array'
PUBLIC	??_R1A@?0A@EA@CacheStraw@@8			; CacheStraw::`RTTI Base Class Descriptor at (0,-1,0,64)'
PUBLIC	??_R4FilePipe@@6B@				; FilePipe::`RTTI Complete Object Locator'
PUBLIC	??_R0?AVFilePipe@@@8				; FilePipe `RTTI Type Descriptor'
PUBLIC	??_R3FilePipe@@8				; FilePipe::`RTTI Class Hierarchy Descriptor'
PUBLIC	??_R2FilePipe@@8				; FilePipe::`RTTI Base Class Array'
PUBLIC	??_R1A@?0A@EA@FilePipe@@8			; FilePipe::`RTTI Base Class Descriptor at (0,-1,0,64)'
PUBLIC	??_R4RawFileClass@@6B@				; RawFileClass::`RTTI Complete Object Locator'
PUBLIC	??_R0?AVRawFileClass@@@8			; RawFileClass `RTTI Type Descriptor'
PUBLIC	??_R3RawFileClass@@8				; RawFileClass::`RTTI Class Hierarchy Descriptor'
PUBLIC	??_R2RawFileClass@@8				; RawFileClass::`RTTI Base Class Array'
PUBLIC	??_R1A@?0A@EA@RawFileClass@@8			; RawFileClass::`RTTI Base Class Descriptor at (0,-1,0,64)'
PUBLIC	??_R4BufferedFileClass@@6B@			; BufferedFileClass::`RTTI Complete Object Locator'
PUBLIC	??_R0?AVBufferedFileClass@@@8			; BufferedFileClass `RTTI Type Descriptor'
PUBLIC	??_R3BufferedFileClass@@8			; BufferedFileClass::`RTTI Class Hierarchy Descriptor'
PUBLIC	??_R2BufferedFileClass@@8			; BufferedFileClass::`RTTI Base Class Array'
PUBLIC	??_R1A@?0A@EA@BufferedFileClass@@8		; BufferedFileClass::`RTTI Base Class Descriptor at (0,-1,0,64)'
PUBLIC	__real@42c80000
EXTRN	__purecall:PROC
EXTRN	??2@YAPAXI@Z:PROC				; operator new
EXTRN	??3@YAXPAX@Z:PROC				; operator delete
EXTRN	?HookupAT3@@YAPAXPAX000@Z:PROC			; HookupAT3
EXTRN	?InitEngine@@YAXXZ:PROC				; InitEngine
EXTRN	__imp___wassert:PROC
EXTRN	__imp___errno:PROC
EXTRN	__imp__atoi:PROC
EXTRN	__imp__qsort:PROC
EXTRN	__imp__memmove:PROC
EXTRN	??_V@YAXPAX@Z:PROC				; operator delete[]
EXTRN	??_U@YAPAXI@Z:PROC				; operator new[]
EXTRN	__imp__sscanf:PROC
EXTRN	__imp___snprintf:PROC
EXTRN	__imp__sprintf:PROC
EXTRN	__imp__strchr:PROC
EXTRN	__imp___stricmp:PROC
EXTRN	__imp__strncpy:PROC
EXTRN	__imp__strrchr:PROC
EXTRN	__imp__toupper:PROC
EXTRN	__imp__tolower:PROC
EXTRN	__imp__GetCurrentThreadId@0:PROC
EXTRN	__imp__GetLastError@0:PROC
EXTRN	__imp__GetFileInformationByHandle@8:PROC
EXTRN	__imp__GetFileSize@8:PROC
EXTRN	__imp__WriteFile@20:PROC
EXTRN	__imp__ReadFile@20:PROC
EXTRN	__imp__SetFilePointer@16:PROC
EXTRN	__imp__SetFileTime@16:PROC
EXTRN	__imp__CloseHandle@4:PROC
EXTRN	__imp__FileTimeToDosDateTime@12:PROC
EXTRN	__imp__DosDateTimeToFileTime@12:PROC
EXTRN	__imp__GetModuleFileNameA@12:PROC
EXTRN	__imp__OutputDebugStringA@4:PROC
EXTRN	__imp__CreateFileA@28:PROC
EXTRN	__imp__GetFileAttributesA@4:PROC
EXTRN	__imp__DeleteFileA@4:PROC
EXTRN	__imp__MessageBoxA@16:PROC
EXTRN	__imp__RegCloseKey@4:PROC
EXTRN	__imp__RegOpenKeyExA@20:PROC
EXTRN	__imp__RegQueryValueExA@24:PROC
EXTRN	?SetThreadTrackingInformation@@YAXPBDI0@Z:PROC	; SetThreadTrackingInformation
EXTRN	??1ThreadClass@@UAE@XZ:PROC			; ThreadClass::~ThreadClass
EXTRN	??_EGenericNode@@UAEPAXI@Z:PROC			; GenericNode::`vector deleting destructor'
EXTRN	??_EGenericList@@UAEPAXI@Z:PROC			; GenericList::`vector deleting destructor'
EXTRN	__imp_?Get_String@StringClass@@AAEXH_N@Z:PROC
EXTRN	__imp_?Uninitialised_Grow@StringClass@@AAEXH@Z:PROC
EXTRN	__imp_?Free_String@StringClass@@AAEXXZ:PROC
EXTRN	?newstr@@YAPADPBD@Z:PROC			; newstr
EXTRN	?strtrim@@YAPADPAD@Z:PROC			; strtrim
EXTRN	?CRC_String@@YAKPBDK@Z:PROC			; CRC_String
EXTRN	??_EFileClass@@UAEPAXI@Z:PROC			; FileClass::`vector deleting destructor'
EXTRN	??_E?$Node@PAUINIEntry@@@@UAEPAXI@Z:PROC	; Node<INIEntry *>::`vector deleting destructor'
EXTRN	??_EINIEntry@@UAEPAXI@Z:PROC			; INIEntry::`vector deleting destructor'
EXTRN	??_E?$Node@PAUINISection@@@@UAEPAXI@Z:PROC	; Node<INISection *>::`vector deleting destructor'
EXTRN	??_E?$List@PAUINIEntry@@@@UAEPAXI@Z:PROC	; List<INIEntry *>::`vector deleting destructor'
EXTRN	??_EINISection@@UAEPAXI@Z:PROC			; INISection::`vector deleting destructor'
EXTRN	??0Straw@@QAE@XZ:PROC				; Straw::Straw
EXTRN	??1Straw@@UAE@XZ:PROC				; Straw::~Straw
EXTRN	?Get_From@Straw@@UAEXPAV1@@Z:PROC		; Straw::Get_From
EXTRN	?Get@Straw@@UAEHPAXH@Z:PROC			; Straw::Get
EXTRN	??1Buffer@@QAE@XZ:PROC				; Buffer::~Buffer
EXTRN	??1BufferStraw@@UAE@XZ:PROC			; BufferStraw::~BufferStraw
EXTRN	?Get@BufferStraw@@UAEHPAXH@Z:PROC		; BufferStraw::Get
EXTRN	??0FileStraw@@QAE@AAVFileClass@@@Z:PROC		; FileStraw::FileStraw
EXTRN	??1FileStraw@@UAE@XZ:PROC			; FileStraw::~FileStraw
EXTRN	?Get@FileStraw@@UAEHPAXH@Z:PROC			; FileStraw::Get
EXTRN	??_EFilePipe@@UAEPAXI@Z:PROC			; FilePipe::`vector deleting destructor'
EXTRN	??_ERawFileClass@@UAEPAXI@Z:PROC		; RawFileClass::`vector deleting destructor'
EXTRN	??_EBufferedFileClass@@UAEPAXI@Z:PROC		; BufferedFileClass::`vector deleting destructor'
EXTRN	__imp__SHGetSpecialFolderPathA@16:PROC
EXTRN	__imp__SHGetSpecialFolderPathW@16:PROC
EXTRN	??_E?$List@PAUINISection@@@@UAEPAXI@Z:PROC	; List<INISection *>::`vector deleting destructor'
EXTRN	_memcpy:PROC
EXTRN	?Exe@@3HA:DWORD					; Exe
EXTRN	??_7type_info@@6B@:QWORD			; type_info::`vftable'
EXTRN	__imp_?m_EmptyString@StringClass@@0AAPADA:DWORD
EXTRN	__imp_?m_NullChar@StringClass@@0AADA:DWORD
EXTRN	__fltused:DWORD
_BSS	SEGMENT
	ALIGN	4

?_TheFileFactory@@3AAPAVFileFactoryClass@@A DD 01H DUP (?) ; _TheFileFactory
_BSS	ENDS
CRT$XCL	SEGMENT
__TheFileFactory$initializer$ DD FLAT:??__E_TheFileFactory@@YAXXZ
CRT$XCL	ENDS
;	COMDAT __real@42c80000
CONST	SEGMENT
__real@42c80000 DD 042c80000r			; 100
CONST	ENDS
;	COMDAT ??_R1A@?0A@EA@BufferedFileClass@@8
rdata$r	SEGMENT
??_R1A@?0A@EA@BufferedFileClass@@8 DD FLAT:??_R0?AVBufferedFileClass@@@8 ; BufferedFileClass::`RTTI Base Class Descriptor at (0,-1,0,64)'
	DD	02H
	DD	00H
	DD	0ffffffffH
	DD	00H
	DD	040H
	DD	FLAT:??_R3BufferedFileClass@@8
rdata$r	ENDS
;	COMDAT ??_R2BufferedFileClass@@8
rdata$r	SEGMENT
??_R2BufferedFileClass@@8 DD FLAT:??_R1A@?0A@EA@BufferedFileClass@@8 ; BufferedFileClass::`RTTI Base Class Array'
	DD	FLAT:??_R1A@?0A@EA@RawFileClass@@8
	DD	FLAT:??_R1A@?0A@EA@FileClass@@8
rdata$r	ENDS
;	COMDAT ??_R3BufferedFileClass@@8
rdata$r	SEGMENT
??_R3BufferedFileClass@@8 DD 00H			; BufferedFileClass::`RTTI Class Hierarchy Descriptor'
	DD	00H
	DD	03H
	DD	FLAT:??_R2BufferedFileClass@@8
rdata$r	ENDS
;	COMDAT ??_R0?AVBufferedFileClass@@@8
_DATA	SEGMENT
??_R0?AVBufferedFileClass@@@8 DD FLAT:??_7type_info@@6B@ ; BufferedFileClass `RTTI Type Descriptor'
	DD	00H
	DB	'.?AVBufferedFileClass@@', 00H
_DATA	ENDS
;	COMDAT ??_R4BufferedFileClass@@6B@
rdata$r	SEGMENT
??_R4BufferedFileClass@@6B@ DD 00H			; BufferedFileClass::`RTTI Complete Object Locator'
	DD	00H
	DD	00H
	DD	FLAT:??_R0?AVBufferedFileClass@@@8
	DD	FLAT:??_R3BufferedFileClass@@8
rdata$r	ENDS
;	COMDAT ??_R1A@?0A@EA@RawFileClass@@8
rdata$r	SEGMENT
??_R1A@?0A@EA@RawFileClass@@8 DD FLAT:??_R0?AVRawFileClass@@@8 ; RawFileClass::`RTTI Base Class Descriptor at (0,-1,0,64)'
	DD	01H
	DD	00H
	DD	0ffffffffH
	DD	00H
	DD	040H
	DD	FLAT:??_R3RawFileClass@@8
rdata$r	ENDS
;	COMDAT ??_R2RawFileClass@@8
rdata$r	SEGMENT
??_R2RawFileClass@@8 DD FLAT:??_R1A@?0A@EA@RawFileClass@@8 ; RawFileClass::`RTTI Base Class Array'
	DD	FLAT:??_R1A@?0A@EA@FileClass@@8
rdata$r	ENDS
;	COMDAT ??_R3RawFileClass@@8
rdata$r	SEGMENT
??_R3RawFileClass@@8 DD 00H				; RawFileClass::`RTTI Class Hierarchy Descriptor'
	DD	00H
	DD	02H
	DD	FLAT:??_R2RawFileClass@@8
rdata$r	ENDS
;	COMDAT ??_R0?AVRawFileClass@@@8
_DATA	SEGMENT
??_R0?AVRawFileClass@@@8 DD FLAT:??_7type_info@@6B@	; RawFileClass `RTTI Type Descriptor'
	DD	00H
	DB	'.?AVRawFileClass@@', 00H
_DATA	ENDS
;	COMDAT ??_R4RawFileClass@@6B@
rdata$r	SEGMENT
??_R4RawFileClass@@6B@ DD 00H				; RawFileClass::`RTTI Complete Object Locator'
	DD	00H
	DD	00H
	DD	FLAT:??_R0?AVRawFileClass@@@8
	DD	FLAT:??_R3RawFileClass@@8
rdata$r	ENDS
;	COMDAT ??_R1A@?0A@EA@FilePipe@@8
rdata$r	SEGMENT
??_R1A@?0A@EA@FilePipe@@8 DD FLAT:??_R0?AVFilePipe@@@8	; FilePipe::`RTTI Base Class Descriptor at (0,-1,0,64)'
	DD	01H
	DD	00H
	DD	0ffffffffH
	DD	00H
	DD	040H
	DD	FLAT:??_R3FilePipe@@8
rdata$r	ENDS
;	COMDAT ??_R2FilePipe@@8
rdata$r	SEGMENT
??_R2FilePipe@@8 DD FLAT:??_R1A@?0A@EA@FilePipe@@8	; FilePipe::`RTTI Base Class Array'
	DD	FLAT:??_R1A@?0A@EA@Pipe@@8
rdata$r	ENDS
;	COMDAT ??_R3FilePipe@@8
rdata$r	SEGMENT
??_R3FilePipe@@8 DD 00H					; FilePipe::`RTTI Class Hierarchy Descriptor'
	DD	00H
	DD	02H
	DD	FLAT:??_R2FilePipe@@8
rdata$r	ENDS
;	COMDAT ??_R0?AVFilePipe@@@8
_DATA	SEGMENT
??_R0?AVFilePipe@@@8 DD FLAT:??_7type_info@@6B@		; FilePipe `RTTI Type Descriptor'
	DD	00H
	DB	'.?AVFilePipe@@', 00H
_DATA	ENDS
;	COMDAT ??_R4FilePipe@@6B@
rdata$r	SEGMENT
??_R4FilePipe@@6B@ DD 00H				; FilePipe::`RTTI Complete Object Locator'
	DD	00H
	DD	00H
	DD	FLAT:??_R0?AVFilePipe@@@8
	DD	FLAT:??_R3FilePipe@@8
rdata$r	ENDS
;	COMDAT ??_R1A@?0A@EA@CacheStraw@@8
rdata$r	SEGMENT
??_R1A@?0A@EA@CacheStraw@@8 DD FLAT:??_R0?AVCacheStraw@@@8 ; CacheStraw::`RTTI Base Class Descriptor at (0,-1,0,64)'
	DD	01H
	DD	00H
	DD	0ffffffffH
	DD	00H
	DD	040H
	DD	FLAT:??_R3CacheStraw@@8
rdata$r	ENDS
;	COMDAT ??_R2CacheStraw@@8
rdata$r	SEGMENT
??_R2CacheStraw@@8 DD FLAT:??_R1A@?0A@EA@CacheStraw@@8	; CacheStraw::`RTTI Base Class Array'
	DD	FLAT:??_R1A@?0A@EA@Straw@@8
rdata$r	ENDS
;	COMDAT ??_R3CacheStraw@@8
rdata$r	SEGMENT
??_R3CacheStraw@@8 DD 00H				; CacheStraw::`RTTI Class Hierarchy Descriptor'
	DD	00H
	DD	02H
	DD	FLAT:??_R2CacheStraw@@8
rdata$r	ENDS
;	COMDAT ??_R0?AVCacheStraw@@@8
_DATA	SEGMENT
??_R0?AVCacheStraw@@@8 DD FLAT:??_7type_info@@6B@	; CacheStraw `RTTI Type Descriptor'
	DD	00H
	DB	'.?AVCacheStraw@@', 00H
_DATA	ENDS
;	COMDAT ??_R4CacheStraw@@6B@
rdata$r	SEGMENT
??_R4CacheStraw@@6B@ DD 00H				; CacheStraw::`RTTI Complete Object Locator'
	DD	00H
	DD	00H
	DD	FLAT:??_R0?AVCacheStraw@@@8
	DD	FLAT:??_R3CacheStraw@@8
rdata$r	ENDS
;	COMDAT ??_R1A@?0A@EA@FileStraw@@8
rdata$r	SEGMENT
??_R1A@?0A@EA@FileStraw@@8 DD FLAT:??_R0?AVFileStraw@@@8 ; FileStraw::`RTTI Base Class Descriptor at (0,-1,0,64)'
	DD	01H
	DD	00H
	DD	0ffffffffH
	DD	00H
	DD	040H
	DD	FLAT:??_R3FileStraw@@8
rdata$r	ENDS
;	COMDAT ??_R2FileStraw@@8
rdata$r	SEGMENT
??_R2FileStraw@@8 DD FLAT:??_R1A@?0A@EA@FileStraw@@8	; FileStraw::`RTTI Base Class Array'
	DD	FLAT:??_R1A@?0A@EA@Straw@@8
rdata$r	ENDS
;	COMDAT ??_R3FileStraw@@8
rdata$r	SEGMENT
??_R3FileStraw@@8 DD 00H				; FileStraw::`RTTI Class Hierarchy Descriptor'
	DD	00H
	DD	02H
	DD	FLAT:??_R2FileStraw@@8
rdata$r	ENDS
;	COMDAT ??_R0?AVFileStraw@@@8
_DATA	SEGMENT
??_R0?AVFileStraw@@@8 DD FLAT:??_7type_info@@6B@	; FileStraw `RTTI Type Descriptor'
	DD	00H
	DB	'.?AVFileStraw@@', 00H
_DATA	ENDS
;	COMDAT ??_R4FileStraw@@6B@
rdata$r	SEGMENT
??_R4FileStraw@@6B@ DD 00H				; FileStraw::`RTTI Complete Object Locator'
	DD	00H
	DD	00H
	DD	FLAT:??_R0?AVFileStraw@@@8
	DD	FLAT:??_R3FileStraw@@8
rdata$r	ENDS
;	COMDAT ??_R1A@?0A@EA@BufferStraw@@8
rdata$r	SEGMENT
??_R1A@?0A@EA@BufferStraw@@8 DD FLAT:??_R0?AVBufferStraw@@@8 ; BufferStraw::`RTTI Base Class Descriptor at (0,-1,0,64)'
	DD	01H
	DD	00H
	DD	0ffffffffH
	DD	00H
	DD	040H
	DD	FLAT:??_R3BufferStraw@@8
rdata$r	ENDS
;	COMDAT ??_R2BufferStraw@@8
rdata$r	SEGMENT
??_R2BufferStraw@@8 DD FLAT:??_R1A@?0A@EA@BufferStraw@@8 ; BufferStraw::`RTTI Base Class Array'
	DD	FLAT:??_R1A@?0A@EA@Straw@@8
rdata$r	ENDS
;	COMDAT ??_R3BufferStraw@@8
rdata$r	SEGMENT
??_R3BufferStraw@@8 DD 00H				; BufferStraw::`RTTI Class Hierarchy Descriptor'
	DD	00H
	DD	02H
	DD	FLAT:??_R2BufferStraw@@8
rdata$r	ENDS
;	COMDAT ??_R0?AVBufferStraw@@@8
_DATA	SEGMENT
??_R0?AVBufferStraw@@@8 DD FLAT:??_7type_info@@6B@	; BufferStraw `RTTI Type Descriptor'
	DD	00H
	DB	'.?AVBufferStraw@@', 00H
_DATA	ENDS
;	COMDAT ??_R4BufferStraw@@6B@
rdata$r	SEGMENT
??_R4BufferStraw@@6B@ DD 00H				; BufferStraw::`RTTI Complete Object Locator'
	DD	00H
	DD	00H
	DD	FLAT:??_R0?AVBufferStraw@@@8
	DD	FLAT:??_R3BufferStraw@@8
rdata$r	ENDS
;	COMDAT ??_R1A@?0A@EA@INIClass@@8
rdata$r	SEGMENT
??_R1A@?0A@EA@INIClass@@8 DD FLAT:??_R0?AVINIClass@@@8	; INIClass::`RTTI Base Class Descriptor at (0,-1,0,64)'
	DD	00H
	DD	00H
	DD	0ffffffffH
	DD	00H
	DD	040H
	DD	FLAT:??_R3INIClass@@8
rdata$r	ENDS
;	COMDAT ??_R2INIClass@@8
rdata$r	SEGMENT
??_R2INIClass@@8 DD FLAT:??_R1A@?0A@EA@INIClass@@8	; INIClass::`RTTI Base Class Array'
rdata$r	ENDS
;	COMDAT ??_R3INIClass@@8
rdata$r	SEGMENT
??_R3INIClass@@8 DD 00H					; INIClass::`RTTI Class Hierarchy Descriptor'
	DD	00H
	DD	01H
	DD	FLAT:??_R2INIClass@@8
rdata$r	ENDS
;	COMDAT ??_R0?AVINIClass@@@8
_DATA	SEGMENT
??_R0?AVINIClass@@@8 DD FLAT:??_7type_info@@6B@		; INIClass `RTTI Type Descriptor'
	DD	00H
	DB	'.?AVINIClass@@', 00H
_DATA	ENDS
;	COMDAT ??_R4INIClass@@6B@
rdata$r	SEGMENT
??_R4INIClass@@6B@ DD 00H				; INIClass::`RTTI Complete Object Locator'
	DD	00H
	DD	00H
	DD	FLAT:??_R0?AVINIClass@@@8
	DD	FLAT:??_R3INIClass@@8
rdata$r	ENDS
;	COMDAT ??_R1A@?0A@EA@?$List@PAUINISection@@@@8
rdata$r	SEGMENT
??_R1A@?0A@EA@?$List@PAUINISection@@@@8 DD FLAT:??_R0?AV?$List@PAUINISection@@@@@8 ; List<INISection *>::`RTTI Base Class Descriptor at (0,-1,0,64)'
	DD	01H
	DD	00H
	DD	0ffffffffH
	DD	00H
	DD	040H
	DD	FLAT:??_R3?$List@PAUINISection@@@@8
rdata$r	ENDS
;	COMDAT ??_R2?$List@PAUINISection@@@@8
rdata$r	SEGMENT
??_R2?$List@PAUINISection@@@@8 DD FLAT:??_R1A@?0A@EA@?$List@PAUINISection@@@@8 ; List<INISection *>::`RTTI Base Class Array'
	DD	FLAT:??_R1A@?0A@EA@GenericList@@8
rdata$r	ENDS
;	COMDAT ??_R3?$List@PAUINISection@@@@8
rdata$r	SEGMENT
??_R3?$List@PAUINISection@@@@8 DD 00H			; List<INISection *>::`RTTI Class Hierarchy Descriptor'
	DD	00H
	DD	02H
	DD	FLAT:??_R2?$List@PAUINISection@@@@8
rdata$r	ENDS
;	COMDAT ??_R0?AV?$List@PAUINISection@@@@@8
_DATA	SEGMENT
??_R0?AV?$List@PAUINISection@@@@@8 DD FLAT:??_7type_info@@6B@ ; List<INISection *> `RTTI Type Descriptor'
	DD	00H
	DB	'.?AV?$List@PAUINISection@@@@', 00H
_DATA	ENDS
;	COMDAT ??_R4?$List@PAUINISection@@@@6B@
rdata$r	SEGMENT
??_R4?$List@PAUINISection@@@@6B@ DD 00H			; List<INISection *>::`RTTI Complete Object Locator'
	DD	00H
	DD	00H
	DD	FLAT:??_R0?AV?$List@PAUINISection@@@@@8
	DD	FLAT:??_R3?$List@PAUINISection@@@@8
rdata$r	ENDS
;	COMDAT ??_R4?$Node@PAUINISection@@@@6B@
rdata$r	SEGMENT
??_R4?$Node@PAUINISection@@@@6B@ DD 00H			; Node<INISection *>::`RTTI Complete Object Locator'
	DD	00H
	DD	00H
	DD	FLAT:??_R0?AV?$Node@PAUINISection@@@@@8
	DD	FLAT:??_R3?$Node@PAUINISection@@@@8
rdata$r	ENDS
;	COMDAT ??_R2?$Node@PAUINISection@@@@8
rdata$r	SEGMENT
??_R2?$Node@PAUINISection@@@@8 DD FLAT:??_R1A@?0A@EA@?$Node@PAUINISection@@@@8 ; Node<INISection *>::`RTTI Base Class Array'
	DD	FLAT:??_R1A@?0A@EA@GenericNode@@8
rdata$r	ENDS
;	COMDAT ??_R3?$Node@PAUINISection@@@@8
rdata$r	SEGMENT
??_R3?$Node@PAUINISection@@@@8 DD 00H			; Node<INISection *>::`RTTI Class Hierarchy Descriptor'
	DD	00H
	DD	02H
	DD	FLAT:??_R2?$Node@PAUINISection@@@@8
rdata$r	ENDS
;	COMDAT ??_R0?AV?$Node@PAUINISection@@@@@8
_DATA	SEGMENT
??_R0?AV?$Node@PAUINISection@@@@@8 DD FLAT:??_7type_info@@6B@ ; Node<INISection *> `RTTI Type Descriptor'
	DD	00H
	DB	'.?AV?$Node@PAUINISection@@@@', 00H
_DATA	ENDS
;	COMDAT ??_R1A@?0A@EA@?$Node@PAUINISection@@@@8
rdata$r	SEGMENT
??_R1A@?0A@EA@?$Node@PAUINISection@@@@8 DD FLAT:??_R0?AV?$Node@PAUINISection@@@@@8 ; Node<INISection *>::`RTTI Base Class Descriptor at (0,-1,0,64)'
	DD	01H
	DD	00H
	DD	0ffffffffH
	DD	00H
	DD	040H
	DD	FLAT:??_R3?$Node@PAUINISection@@@@8
rdata$r	ENDS
;	COMDAT ??_R1A@?0A@EA@INISection@@8
rdata$r	SEGMENT
??_R1A@?0A@EA@INISection@@8 DD FLAT:??_R0?AUINISection@@@8 ; INISection::`RTTI Base Class Descriptor at (0,-1,0,64)'
	DD	02H
	DD	00H
	DD	0ffffffffH
	DD	00H
	DD	040H
	DD	FLAT:??_R3INISection@@8
rdata$r	ENDS
;	COMDAT ??_R2INISection@@8
rdata$r	SEGMENT
??_R2INISection@@8 DD FLAT:??_R1A@?0A@EA@INISection@@8	; INISection::`RTTI Base Class Array'
	DD	FLAT:??_R1A@?0A@EA@?$Node@PAUINISection@@@@8
	DD	FLAT:??_R1A@?0A@EA@GenericNode@@8
rdata$r	ENDS
;	COMDAT ??_R3INISection@@8
rdata$r	SEGMENT
??_R3INISection@@8 DD 00H				; INISection::`RTTI Class Hierarchy Descriptor'
	DD	00H
	DD	03H
	DD	FLAT:??_R2INISection@@8
rdata$r	ENDS
;	COMDAT ??_R0?AUINISection@@@8
_DATA	SEGMENT
??_R0?AUINISection@@@8 DD FLAT:??_7type_info@@6B@	; INISection `RTTI Type Descriptor'
	DD	00H
	DB	'.?AUINISection@@', 00H
_DATA	ENDS
;	COMDAT ??_R4INISection@@6B@
rdata$r	SEGMENT
??_R4INISection@@6B@ DD 00H				; INISection::`RTTI Complete Object Locator'
	DD	00H
	DD	00H
	DD	FLAT:??_R0?AUINISection@@@8
	DD	FLAT:??_R3INISection@@8
rdata$r	ENDS
;	COMDAT ??_R1A@?0A@EA@?$List@PAUINIEntry@@@@8
rdata$r	SEGMENT
??_R1A@?0A@EA@?$List@PAUINIEntry@@@@8 DD FLAT:??_R0?AV?$List@PAUINIEntry@@@@@8 ; List<INIEntry *>::`RTTI Base Class Descriptor at (0,-1,0,64)'
	DD	01H
	DD	00H
	DD	0ffffffffH
	DD	00H
	DD	040H
	DD	FLAT:??_R3?$List@PAUINIEntry@@@@8
rdata$r	ENDS
;	COMDAT ??_R2?$List@PAUINIEntry@@@@8
rdata$r	SEGMENT
??_R2?$List@PAUINIEntry@@@@8 DD FLAT:??_R1A@?0A@EA@?$List@PAUINIEntry@@@@8 ; List<INIEntry *>::`RTTI Base Class Array'
	DD	FLAT:??_R1A@?0A@EA@GenericList@@8
rdata$r	ENDS
;	COMDAT ??_R3?$List@PAUINIEntry@@@@8
rdata$r	SEGMENT
??_R3?$List@PAUINIEntry@@@@8 DD 00H			; List<INIEntry *>::`RTTI Class Hierarchy Descriptor'
	DD	00H
	DD	02H
	DD	FLAT:??_R2?$List@PAUINIEntry@@@@8
rdata$r	ENDS
;	COMDAT ??_R0?AV?$List@PAUINIEntry@@@@@8
_DATA	SEGMENT
??_R0?AV?$List@PAUINIEntry@@@@@8 DD FLAT:??_7type_info@@6B@ ; List<INIEntry *> `RTTI Type Descriptor'
	DD	00H
	DB	'.?AV?$List@PAUINIEntry@@@@', 00H
_DATA	ENDS
;	COMDAT ??_R4?$List@PAUINIEntry@@@@6B@
rdata$r	SEGMENT
??_R4?$List@PAUINIEntry@@@@6B@ DD 00H			; List<INIEntry *>::`RTTI Complete Object Locator'
	DD	00H
	DD	00H
	DD	FLAT:??_R0?AV?$List@PAUINIEntry@@@@@8
	DD	FLAT:??_R3?$List@PAUINIEntry@@@@8
rdata$r	ENDS
;	COMDAT ??_R4?$Node@PAUINIEntry@@@@6B@
rdata$r	SEGMENT
??_R4?$Node@PAUINIEntry@@@@6B@ DD 00H			; Node<INIEntry *>::`RTTI Complete Object Locator'
	DD	00H
	DD	00H
	DD	FLAT:??_R0?AV?$Node@PAUINIEntry@@@@@8
	DD	FLAT:??_R3?$Node@PAUINIEntry@@@@8
rdata$r	ENDS
;	COMDAT ??_R2?$Node@PAUINIEntry@@@@8
rdata$r	SEGMENT
??_R2?$Node@PAUINIEntry@@@@8 DD FLAT:??_R1A@?0A@EA@?$Node@PAUINIEntry@@@@8 ; Node<INIEntry *>::`RTTI Base Class Array'
	DD	FLAT:??_R1A@?0A@EA@GenericNode@@8
rdata$r	ENDS
;	COMDAT ??_R3?$Node@PAUINIEntry@@@@8
rdata$r	SEGMENT
??_R3?$Node@PAUINIEntry@@@@8 DD 00H			; Node<INIEntry *>::`RTTI Class Hierarchy Descriptor'
	DD	00H
	DD	02H
	DD	FLAT:??_R2?$Node@PAUINIEntry@@@@8
rdata$r	ENDS
;	COMDAT ??_R0?AV?$Node@PAUINIEntry@@@@@8
_DATA	SEGMENT
??_R0?AV?$Node@PAUINIEntry@@@@@8 DD FLAT:??_7type_info@@6B@ ; Node<INIEntry *> `RTTI Type Descriptor'
	DD	00H
	DB	'.?AV?$Node@PAUINIEntry@@@@', 00H
_DATA	ENDS
;	COMDAT ??_R1A@?0A@EA@?$Node@PAUINIEntry@@@@8
rdata$r	SEGMENT
??_R1A@?0A@EA@?$Node@PAUINIEntry@@@@8 DD FLAT:??_R0?AV?$Node@PAUINIEntry@@@@@8 ; Node<INIEntry *>::`RTTI Base Class Descriptor at (0,-1,0,64)'
	DD	01H
	DD	00H
	DD	0ffffffffH
	DD	00H
	DD	040H
	DD	FLAT:??_R3?$Node@PAUINIEntry@@@@8
rdata$r	ENDS
;	COMDAT ??_R1A@?0A@EA@INIEntry@@8
rdata$r	SEGMENT
??_R1A@?0A@EA@INIEntry@@8 DD FLAT:??_R0?AUINIEntry@@@8	; INIEntry::`RTTI Base Class Descriptor at (0,-1,0,64)'
	DD	02H
	DD	00H
	DD	0ffffffffH
	DD	00H
	DD	040H
	DD	FLAT:??_R3INIEntry@@8
rdata$r	ENDS
;	COMDAT ??_R2INIEntry@@8
rdata$r	SEGMENT
??_R2INIEntry@@8 DD FLAT:??_R1A@?0A@EA@INIEntry@@8	; INIEntry::`RTTI Base Class Array'
	DD	FLAT:??_R1A@?0A@EA@?$Node@PAUINIEntry@@@@8
	DD	FLAT:??_R1A@?0A@EA@GenericNode@@8
rdata$r	ENDS
;	COMDAT ??_R3INIEntry@@8
rdata$r	SEGMENT
??_R3INIEntry@@8 DD 00H					; INIEntry::`RTTI Class Hierarchy Descriptor'
	DD	00H
	DD	03H
	DD	FLAT:??_R2INIEntry@@8
rdata$r	ENDS
;	COMDAT ??_R0?AUINIEntry@@@8
_DATA	SEGMENT
??_R0?AUINIEntry@@@8 DD FLAT:??_7type_info@@6B@		; INIEntry `RTTI Type Descriptor'
	DD	00H
	DB	'.?AUINIEntry@@', 00H
_DATA	ENDS
;	COMDAT ??_R4INIEntry@@6B@
rdata$r	SEGMENT
??_R4INIEntry@@6B@ DD 00H				; INIEntry::`RTTI Complete Object Locator'
	DD	00H
	DD	00H
	DD	FLAT:??_R0?AUINIEntry@@@8
	DD	FLAT:??_R3INIEntry@@8
rdata$r	ENDS
;	COMDAT ??_R1A@?0A@EA@Pipe@@8
rdata$r	SEGMENT
??_R1A@?0A@EA@Pipe@@8 DD FLAT:??_R0?AVPipe@@@8		; Pipe::`RTTI Base Class Descriptor at (0,-1,0,64)'
	DD	00H
	DD	00H
	DD	0ffffffffH
	DD	00H
	DD	040H
	DD	FLAT:??_R3Pipe@@8
rdata$r	ENDS
;	COMDAT ??_R2Pipe@@8
rdata$r	SEGMENT
??_R2Pipe@@8 DD	FLAT:??_R1A@?0A@EA@Pipe@@8		; Pipe::`RTTI Base Class Array'
rdata$r	ENDS
;	COMDAT ??_R3Pipe@@8
rdata$r	SEGMENT
??_R3Pipe@@8 DD	00H					; Pipe::`RTTI Class Hierarchy Descriptor'
	DD	00H
	DD	01H
	DD	FLAT:??_R2Pipe@@8
rdata$r	ENDS
;	COMDAT ??_R0?AVPipe@@@8
_DATA	SEGMENT
??_R0?AVPipe@@@8 DD FLAT:??_7type_info@@6B@		; Pipe `RTTI Type Descriptor'
	DD	00H
	DB	'.?AVPipe@@', 00H
_DATA	ENDS
;	COMDAT ??_R4Pipe@@6B@
rdata$r	SEGMENT
??_R4Pipe@@6B@ DD 00H					; Pipe::`RTTI Complete Object Locator'
	DD	00H
	DD	00H
	DD	FLAT:??_R0?AVPipe@@@8
	DD	FLAT:??_R3Pipe@@8
rdata$r	ENDS
;	COMDAT ??_R1A@?0A@EA@Straw@@8
rdata$r	SEGMENT
??_R1A@?0A@EA@Straw@@8 DD FLAT:??_R0?AVStraw@@@8	; Straw::`RTTI Base Class Descriptor at (0,-1,0,64)'
	DD	00H
	DD	00H
	DD	0ffffffffH
	DD	00H
	DD	040H
	DD	FLAT:??_R3Straw@@8
rdata$r	ENDS
;	COMDAT ??_R2Straw@@8
rdata$r	SEGMENT
??_R2Straw@@8 DD FLAT:??_R1A@?0A@EA@Straw@@8		; Straw::`RTTI Base Class Array'
rdata$r	ENDS
;	COMDAT ??_R3Straw@@8
rdata$r	SEGMENT
??_R3Straw@@8 DD 00H					; Straw::`RTTI Class Hierarchy Descriptor'
	DD	00H
	DD	01H
	DD	FLAT:??_R2Straw@@8
rdata$r	ENDS
;	COMDAT ??_R0?AVStraw@@@8
_DATA	SEGMENT
??_R0?AVStraw@@@8 DD FLAT:??_7type_info@@6B@		; Straw `RTTI Type Descriptor'
	DD	00H
	DB	'.?AVStraw@@', 00H
_DATA	ENDS
;	COMDAT ??_R4Straw@@6B@
rdata$r	SEGMENT
??_R4Straw@@6B@ DD 00H					; Straw::`RTTI Complete Object Locator'
	DD	00H
	DD	00H
	DD	FLAT:??_R0?AVStraw@@@8
	DD	FLAT:??_R3Straw@@8
rdata$r	ENDS
;	COMDAT ??_R1A@?0A@EA@FileClass@@8
rdata$r	SEGMENT
??_R1A@?0A@EA@FileClass@@8 DD FLAT:??_R0?AVFileClass@@@8 ; FileClass::`RTTI Base Class Descriptor at (0,-1,0,64)'
	DD	00H
	DD	00H
	DD	0ffffffffH
	DD	00H
	DD	040H
	DD	FLAT:??_R3FileClass@@8
rdata$r	ENDS
;	COMDAT ??_R2FileClass@@8
rdata$r	SEGMENT
??_R2FileClass@@8 DD FLAT:??_R1A@?0A@EA@FileClass@@8	; FileClass::`RTTI Base Class Array'
rdata$r	ENDS
;	COMDAT ??_R3FileClass@@8
rdata$r	SEGMENT
??_R3FileClass@@8 DD 00H				; FileClass::`RTTI Class Hierarchy Descriptor'
	DD	00H
	DD	01H
	DD	FLAT:??_R2FileClass@@8
rdata$r	ENDS
;	COMDAT ??_R0?AVFileClass@@@8
_DATA	SEGMENT
??_R0?AVFileClass@@@8 DD FLAT:??_7type_info@@6B@	; FileClass `RTTI Type Descriptor'
	DD	00H
	DB	'.?AVFileClass@@', 00H
_DATA	ENDS
;	COMDAT ??_R4FileClass@@6B@
rdata$r	SEGMENT
??_R4FileClass@@6B@ DD 00H				; FileClass::`RTTI Complete Object Locator'
	DD	00H
	DD	00H
	DD	FLAT:??_R0?AVFileClass@@@8
	DD	FLAT:??_R3FileClass@@8
rdata$r	ENDS
;	COMDAT ??_R1A@?0A@EA@GenericNode@@8
rdata$r	SEGMENT
??_R1A@?0A@EA@GenericNode@@8 DD FLAT:??_R0?AVGenericNode@@@8 ; GenericNode::`RTTI Base Class Descriptor at (0,-1,0,64)'
	DD	00H
	DD	00H
	DD	0ffffffffH
	DD	00H
	DD	040H
	DD	FLAT:??_R3GenericNode@@8
rdata$r	ENDS
;	COMDAT ??_R2GenericNode@@8
rdata$r	SEGMENT
??_R2GenericNode@@8 DD FLAT:??_R1A@?0A@EA@GenericNode@@8 ; GenericNode::`RTTI Base Class Array'
rdata$r	ENDS
;	COMDAT ??_R3GenericNode@@8
rdata$r	SEGMENT
??_R3GenericNode@@8 DD 00H				; GenericNode::`RTTI Class Hierarchy Descriptor'
	DD	00H
	DD	01H
	DD	FLAT:??_R2GenericNode@@8
rdata$r	ENDS
;	COMDAT ??_R0?AVGenericNode@@@8
_DATA	SEGMENT
??_R0?AVGenericNode@@@8 DD FLAT:??_7type_info@@6B@	; GenericNode `RTTI Type Descriptor'
	DD	00H
	DB	'.?AVGenericNode@@', 00H
_DATA	ENDS
;	COMDAT ??_R4GenericNode@@6B@
rdata$r	SEGMENT
??_R4GenericNode@@6B@ DD 00H				; GenericNode::`RTTI Complete Object Locator'
	DD	00H
	DD	00H
	DD	FLAT:??_R0?AVGenericNode@@@8
	DD	FLAT:??_R3GenericNode@@8
rdata$r	ENDS
;	COMDAT ??_R1A@?0A@EA@GenericList@@8
rdata$r	SEGMENT
??_R1A@?0A@EA@GenericList@@8 DD FLAT:??_R0?AVGenericList@@@8 ; GenericList::`RTTI Base Class Descriptor at (0,-1,0,64)'
	DD	00H
	DD	00H
	DD	0ffffffffH
	DD	00H
	DD	040H
	DD	FLAT:??_R3GenericList@@8
rdata$r	ENDS
;	COMDAT ??_R2GenericList@@8
rdata$r	SEGMENT
??_R2GenericList@@8 DD FLAT:??_R1A@?0A@EA@GenericList@@8 ; GenericList::`RTTI Base Class Array'
rdata$r	ENDS
;	COMDAT ??_R3GenericList@@8
rdata$r	SEGMENT
??_R3GenericList@@8 DD 00H				; GenericList::`RTTI Class Hierarchy Descriptor'
	DD	00H
	DD	01H
	DD	FLAT:??_R2GenericList@@8
rdata$r	ENDS
;	COMDAT ??_R0?AVGenericList@@@8
_DATA	SEGMENT
??_R0?AVGenericList@@@8 DD FLAT:??_7type_info@@6B@	; GenericList `RTTI Type Descriptor'
	DD	00H
	DB	'.?AVGenericList@@', 00H
_DATA	ENDS
;	COMDAT ??_R4GenericList@@6B@
rdata$r	SEGMENT
??_R4GenericList@@6B@ DD 00H				; GenericList::`RTTI Complete Object Locator'
	DD	00H
	DD	00H
	DD	FLAT:??_R0?AVGenericList@@@8
	DD	FLAT:??_R3GenericList@@8
rdata$r	ENDS
;	COMDAT ??_R1A@?0A@EA@ThreadClass@@8
rdata$r	SEGMENT
??_R1A@?0A@EA@ThreadClass@@8 DD FLAT:??_R0?AVThreadClass@@@8 ; ThreadClass::`RTTI Base Class Descriptor at (0,-1,0,64)'
	DD	00H
	DD	00H
	DD	0ffffffffH
	DD	00H
	DD	040H
	DD	FLAT:??_R3ThreadClass@@8
rdata$r	ENDS
;	COMDAT ??_R2ThreadClass@@8
rdata$r	SEGMENT
??_R2ThreadClass@@8 DD FLAT:??_R1A@?0A@EA@ThreadClass@@8 ; ThreadClass::`RTTI Base Class Array'
rdata$r	ENDS
;	COMDAT ??_R3ThreadClass@@8
rdata$r	SEGMENT
??_R3ThreadClass@@8 DD 00H				; ThreadClass::`RTTI Class Hierarchy Descriptor'
	DD	00H
	DD	01H
	DD	FLAT:??_R2ThreadClass@@8
rdata$r	ENDS
;	COMDAT ??_R0?AVThreadClass@@@8
_DATA	SEGMENT
??_R0?AVThreadClass@@@8 DD FLAT:??_7type_info@@6B@	; ThreadClass `RTTI Type Descriptor'
	DD	00H
	DB	'.?AVThreadClass@@', 00H
_DATA	ENDS
;	COMDAT ??_R4ThreadClass@@6B@
rdata$r	SEGMENT
??_R4ThreadClass@@6B@ DD 00H				; ThreadClass::`RTTI Complete Object Locator'
	DD	00H
	DD	00H
	DD	FLAT:??_R0?AVThreadClass@@@8
	DD	FLAT:??_R3ThreadClass@@8
rdata$r	ENDS
;	COMDAT ??_C@_0DJ@IHGELHP@IndexClass?$DMint?0struct?5INISection@
CONST	SEGMENT
??_C@_0DJ@IHGELHP@IndexClass?$DMint?0struct?5INISection@ DB 'IndexClass<i'
	DB	'nt,struct INISection *>::Increase_Table_Size', 00H ; `string'
CONST	ENDS
;	COMDAT ??_C@_0DH@FMKNHFBJ@IndexClass?$DMint?0struct?5INIEntry?5?$CK@
CONST	SEGMENT
??_C@_0DH@FMKNHFBJ@IndexClass?$DMint?0struct?5INIEntry?5?$CK@ DB 'IndexCl'
	DB	'ass<int,struct INIEntry *>::Increase_Table_Size', 00H ; `string'
CONST	ENDS
;	COMDAT ??_C@_0CJ@EAFFDJJP@IndexClass?$DMint?0struct?5INIEntry?5?$CK@
CONST	SEGMENT
??_C@_0CJ@EAFFDJJP@IndexClass?$DMint?0struct?5INIEntry?5?$CK@ DB 'IndexCl'
	DB	'ass<int,struct INIEntry *>::Clear', 00H	; `string'
CONST	ENDS
;	COMDAT ??_C@_0CC@CJCFMMIE@List?$DMstruct?5INISection?5?$CK?$DO?3?3Delet@
CONST	SEGMENT
??_C@_0CC@CJCFMMIE@List?$DMstruct?5INISection?5?$CK?$DO?3?3Delet@ DB 'Lis'
	DB	't<struct INISection *>::Delete', 00H	; `string'
CONST	ENDS
;	COMDAT ??_C@_0CL@POINCKL@IndexClass?$DMint?0struct?5INISection@
CONST	SEGMENT
??_C@_0CL@POINCKL@IndexClass?$DMint?0struct?5INISection@ DB 'IndexClass<i'
	DB	'nt,struct INISection *>::Clear', 00H	; `string'
CONST	ENDS
;	COMDAT ??_C@_0CA@FGEPAIP@List?$DMstruct?5INIEntry?5?$CK?$DO?3?3Delete?$AA@
CONST	SEGMENT
??_C@_0CA@FGEPAIP@List?$DMstruct?5INIEntry?5?$CK?$DO?3?3Delete?$AA@ DB 'L'
	DB	'ist<struct INIEntry *>::Delete', 00H	; `string'
CONST	ENDS
;	COMDAT ??_C@_0BN@JBPACNPA@file_auto_ptr?3?3file_auto_ptr?$AA@
CONST	SEGMENT
??_C@_0BN@JBPACNPA@file_auto_ptr?3?3file_auto_ptr?$AA@ DB 'file_auto_ptr:'
	DB	':file_auto_ptr', 00H			; `string'
CONST	ENDS
;	COMDAT ?__LINE__Var@?1???0file_auto_ptr@@QAE@PAVFileFactoryClass@@PBD@Z@4JA
_DATA	SEGMENT
?__LINE__Var@?1???0file_auto_ptr@@QAE@PAVFileFactoryClass@@PBD@Z@4JA DD 03a2H ; `file_auto_ptr::file_auto_ptr'::`2'::__LINE__Var
_DATA	ENDS
;	COMDAT ??_C@_02KAJCLHKP@no?$AA@
CONST	SEGMENT
??_C@_02KAJCLHKP@no?$AA@ DB 'no', 00H			; `string'
CONST	ENDS
;	COMDAT ??_C@_03ICICOMAL@yes?$AA@
CONST	SEGMENT
??_C@_03ICICOMAL@yes?$AA@ DB 'yes', 00H			; `string'
CONST	ENDS
;	COMDAT ??_C@_02DPKJAMEF@?$CFd?$AA@
CONST	SEGMENT
??_C@_02DPKJAMEF@?$CFd?$AA@ DB '%d', 00H		; `string'
CONST	ENDS
;	COMDAT ??_C@_03LNAPELNN@$?$CFX?$AA@
CONST	SEGMENT
??_C@_03LNAPELNN@$?$CFX?$AA@ DB '$%X', 00H		; `string'
CONST	ENDS
;	COMDAT ??_C@_03IGNMOBEI@?$CFXh?$AA@
CONST	SEGMENT
??_C@_03IGNMOBEI@?$CFXh?$AA@ DB '%Xh', 00H		; `string'
CONST	ENDS
;	COMDAT ??_C@_0BF@EKGBNGFP@INIClass?3?3Put_String?$AA@
CONST	SEGMENT
??_C@_0BF@EKGBNGFP@INIClass?3?3Put_String?$AA@ DB 'INIClass::Put_String', 00H ; `string'
CONST	ENDS
;	COMDAT ?__LINE__Var@?1??Put_String@INIClass@@QAE_NPBD00@Z@4JA
_DATA	SEGMENT
?__LINE__Var@?1??Put_String@INIClass@@QAE_NPBD00@Z@4JA DD 0342H ; `INIClass::Put_String'::`2'::__LINE__Var
_DATA	ENDS
;	COMDAT ??_C@_01NEMOKFLO@?$DN?$AA@
CONST	SEGMENT
??_C@_01NEMOKFLO@?$DN?$AA@ DB '=', 00H			; `string'
CONST	ENDS
;	COMDAT ??_C@_01EEMJAFIK@?6?$AA@
CONST	SEGMENT
??_C@_01EEMJAFIK@?6?$AA@ DB 0aH, 00H			; `string'
CONST	ENDS
;	COMDAT ??_C@_01LBDDMOBJ@?$FN?$AA@
CONST	SEGMENT
??_C@_01LBDDMOBJ@?$FN?$AA@ DB ']', 00H			; `string'
CONST	ENDS
;	COMDAT ??_C@_01OHGJGJJP@?$FL?$AA@
CONST	SEGMENT
??_C@_01OHGJGJJP@?$FL?$AA@ DB '[', 00H			; `string'
CONST	ENDS
;	COMDAT ??_C@_0P@PBFFLOEA@INIClass?3?3Save?$AA@
CONST	SEGMENT
??_C@_0P@PBFFLOEA@INIClass?3?3Save?$AA@ DB 'INIClass::Save', 00H ; `string'
CONST	ENDS
;	COMDAT ?__LINE__Var@?1??Save@INIClass@@QAEHAAVFileClass@@@Z@4JA
_DATA	SEGMENT
?__LINE__Var@?1??Save@INIClass@@QAEHAAVFileClass@@@Z@4JA DD 031aH ; `INIClass::Save'::`2'::__LINE__Var
_DATA	ENDS
;	COMDAT ?__LINE__Var@?1??Load@INIClass@@QAEHPAD@Z@4JA
_DATA	SEGMENT
?__LINE__Var@?1??Load@INIClass@@QAEHPAD@Z@4JA DD 030eH	; `INIClass::Load'::`2'::__LINE__Var
_DATA	ENDS
;	COMDAT ??_C@_0BL@MCNMCOPK@Duplicate?5CRC?5in?5INI?5file?4?$AA@
CONST	SEGMENT
??_C@_0BL@MCNMCOPK@Duplicate?5CRC?5in?5INI?5file?4?$AA@ DB 'Duplicate CRC'
	DB	' in INI file.', 00H				; `string'
CONST	ENDS
;	COMDAT ??_C@_0DA@LBAEEJJ@?$CFs?5?9?5Duplicate?5Entry?5?$CC?$CFs?$CC?5in?5sec@
CONST	SEGMENT
??_C@_0DA@LBAEEJJ@?$CFs?5?9?5Duplicate?5Entry?5?$CC?$CFs?$CC?5in?5sec@ DB '%'
	DB	's - Duplicate Entry "%s" in section "%s" (%s)', 0aH, 00H ; `string'
CONST	ENDS
;	COMDAT ??_C@_06GLNDDPBO@?$CFsBlue?$AA@
CONST	SEGMENT
??_C@_06GLNDDPBO@?$CFsBlue?$AA@ DB '%sBlue', 00H	; `string'
CONST	ENDS
;	COMDAT ??_C@_07NOBOEHLK@?$CFsGreen?$AA@
CONST	SEGMENT
??_C@_07NOBOEHLK@?$CFsGreen?$AA@ DB '%sGreen', 00H	; `string'
CONST	ENDS
;	COMDAT ??_C@_05IJKHDAIH@?$CFsRed?$AA@
CONST	SEGMENT
??_C@_05IJKHDAIH@?$CFsRed?$AA@ DB '%sRed', 00H		; `string'
CONST	ENDS
;	COMDAT ??_C@_07DPBAKFHF@?$CFsAlpha?$AA@
CONST	SEGMENT
??_C@_07DPBAKFHF@?$CFsAlpha?$AA@ DB '%sAlpha', 00H	; `string'
CONST	ENDS
;	COMDAT ??_C@_03OPHMLOFF@?$CFlx?$AA@
CONST	SEGMENT
??_C@_03OPHMLOFF@?$CFlx?$AA@ DB '%lx', 00H		; `string'
CONST	ENDS
;	COMDAT ??_C@_0L@BHNCPNHJ@0xNotValid?$AA@
CONST	SEGMENT
??_C@_0L@BHNCPNHJ@0xNotValid?$AA@ DB '0xNotValid', 00H	; `string'
CONST	ENDS
;	COMDAT ??_C@_05FAHENKCB@?$CFsHex?$AA@
CONST	SEGMENT
??_C@_05FAHENKCB@?$CFsHex?$AA@ DB '%sHex', 00H		; `string'
CONST	ENDS
;	COMDAT ??_C@_0BA@NFMHJJNN@INIClass?3?3Clear?$AA@
CONST	SEGMENT
??_C@_0BA@NFMHJJNN@INIClass?3?3Clear?$AA@ DB 'INIClass::Clear', 00H ; `string'
CONST	ENDS
;	COMDAT ?__LINE__Var@?1??Clear@INIClass@@QAE_NPAD0@Z@4JA
_DATA	SEGMENT
?__LINE__Var@?1??Clear@INIClass@@QAE_NPAD0@Z@4JA DD 02a3H ; `INIClass::Clear'::`2'::__LINE__Var
_DATA	ENDS
;	COMDAT ??_C@_0BD@BKLIDOBA@INIClass?3?3Shutdown?$AA@
CONST	SEGMENT
??_C@_0BD@BKLIDOBA@INIClass?3?3Shutdown?$AA@ DB 'INIClass::Shutdown', 00H ; `string'
CONST	ENDS
;	COMDAT ?__LINE__Var@?1??Shutdown@INIClass@@QAEXXZ@4JA
_DATA	SEGMENT
?__LINE__Var@?1??Shutdown@INIClass@@QAEXXZ@4JA DD 0294H	; `INIClass::Shutdown'::`2'::__LINE__Var
_DATA	ENDS
;	COMDAT ??_C@_09EEKGDCPH@?$DMunknown?$DO?$AA@
CONST	SEGMENT
??_C@_09EEKGDCPH@?$DMunknown?$DO?$AA@ DB '<unknown>', 00H ; `string'
CONST	ENDS
;	COMDAT ??_C@_0BF@BAMGKENB@INIClass?3?3Initialize?$AA@
CONST	SEGMENT
??_C@_0BF@BAMGKENB@INIClass?3?3Initialize?$AA@ DB 'INIClass::Initialize', 00H ; `string'
CONST	ENDS
;	COMDAT ?__LINE__Var@?1??Initialize@INIClass@@QAEXXZ@4JA
_DATA	SEGMENT
?__LINE__Var@?1??Initialize@INIClass@@QAEXXZ@4JA DD 028eH ; `INIClass::Initialize'::`2'::__LINE__Var
_DATA	ENDS
;	COMDAT ??_C@_02NJPGOMH@?$CFf?$AA@
CONST	SEGMENT
??_C@_02NJPGOMH@?$CFf?$AA@ DB '%f', 00H			; `string'
CONST	ENDS
;	COMDAT ??_C@_03LOJBKHKI@?$CFxh?$AA@
CONST	SEGMENT
??_C@_03LOJBKHKI@?$CFxh?$AA@ DB '%xh', 00H		; `string'
CONST	ENDS
;	COMDAT ??_C@_03CIILGPHP@$?$CFx?$AA@
CONST	SEGMENT
??_C@_03CIILGPHP@$?$CFx?$AA@ DB '$%x', 00H		; `string'
CONST	ENDS
;	COMDAT ??_7?$List@PAUINISection@@@@6B@
CONST	SEGMENT
??_7?$List@PAUINISection@@@@6B@ DD FLAT:??_R4?$List@PAUINISection@@@@6B@ ; List<INISection *>::`vftable'
	DD	FLAT:??_E?$List@PAUINISection@@@@UAEPAXI@Z
CONST	ENDS
;	COMDAT ?__LINE__Var@?1??Load@INIClass@@QAEHAAVStraw@@@Z@4JA
_DATA	SEGMENT
?__LINE__Var@?1??Load@INIClass@@QAEHAAVStraw@@@Z@4JA DD 0113H ; `INIClass::Load'::`2'::__LINE__Var
_DATA	ENDS
;	COMDAT ??_C@_0P@PDEIENJE@INIClass?3?3Load?$AA@
CONST	SEGMENT
??_C@_0P@PDEIENJE@INIClass?3?3Load?$AA@ DB 'INIClass::Load', 00H ; `string'
CONST	ENDS
;	COMDAT ?__LINE__Var@?1??Load@INIClass@@QAEHAAVFileClass@@@Z@4JA
_DATA	SEGMENT
?__LINE__Var@?1??Load@INIClass@@QAEHAAVFileClass@@@Z@4JA DD 0e7H ; `INIClass::Load'::`2'::__LINE__Var
_DATA	ENDS
;	COMDAT ??_C@_0M@DGNOAIDN@Release_INI?$AA@
CONST	SEGMENT
??_C@_0M@DGNOAIDN@Release_INI?$AA@ DB 'Release_INI', 00H ; `string'
CONST	ENDS
;	COMDAT ?__LINE__Var@?1??Release_INI@@YAXPAVINIClass@@@Z@4JA
_DATA	SEGMENT
?__LINE__Var@?1??Release_INI@@YAXPAVINIClass@@@Z@4JA DD 0daH ; `Release_INI'::`2'::__LINE__Var
_DATA	ENDS
;	COMDAT ??_C@_1GO@FOFKMDD@?$AAx?$AA?3?$AA?2?$AAg?$AAi?$AAt?$AAh?$AAu?$AAb?$AA?2?$AAr?$AAe?$AAn?$AAe?$AAg?$AAa?$AAd?$AAe?$AA?2?$AAd?$AAr?$AAa?$AAg?$AAo?$AAn?$AAa?$AAd?$AAe?$AA_?$AAr?$AAx?$AAd@
CONST	SEGMENT
??_C@_1GO@FOFKMDD@?$AAx?$AA?3?$AA?2?$AAg?$AAi?$AAt?$AAh?$AAu?$AAb?$AA?2?$AAr?$AAe?$AAn?$AAe?$AAg?$AAa?$AAd?$AAe?$AA?2?$AAd?$AAr?$AAa?$AAg?$AAo?$AAn?$AAa?$AAd?$AAe?$AA_?$AAr?$AAx?$AAd@ DB 'x'
	DB	00H, ':', 00H, '\', 00H, 'g', 00H, 'i', 00H, 't', 00H, 'h', 00H
	DB	'u', 00H, 'b', 00H, '\', 00H, 'r', 00H, 'e', 00H, 'n', 00H, 'e'
	DB	00H, 'g', 00H, 'a', 00H, 'd', 00H, 'e', 00H, '\', 00H, 'd', 00H
	DB	'r', 00H, 'a', 00H, 'g', 00H, 'o', 00H, 'n', 00H, 'a', 00H, 'd'
	DB	00H, 'e', 00H, '_', 00H, 'r', 00H, 'x', 00H, 'd', 00H, '\', 00H
	DB	's', 00H, 'c', 00H, 'r', 00H, 'i', 00H, 'p', 00H, 't', 00H, 's'
	DB	00H, '\', 00H, 'e', 00H, 'n', 00H, 'g', 00H, 'i', 00H, 'n', 00H
	DB	'e', 00H, '_', 00H, 'i', 00H, 'o', 00H, '.', 00H, 'c', 00H, 'p'
	DB	00H, 'p', 00H, 00H, 00H			; `string'
CONST	ENDS
;	COMDAT ??_C@_0DH@DCENIBGD@x?3?2github?2renegade?2dragonade_rxd@
CONST	SEGMENT
??_C@_0DH@DCENIBGD@x?3?2github?2renegade?2dragonade_rxd@ DB 'x:\github\re'
	DB	'negade\dragonade_rxd\scripts\engine_io.cpp', 00H ; `string'
CONST	ENDS
;	COMDAT ??_C@_07PHFINMNM@Get_INI?$AA@
CONST	SEGMENT
??_C@_07PHFINMNM@Get_INI?$AA@ DB 'Get_INI', 00H		; `string'
CONST	ENDS
;	COMDAT ?__LINE__Var@?1??Get_INI@@YAPAVINIClass@@PBD@Z@4JA
_DATA	SEGMENT
?__LINE__Var@?1??Get_INI@@YAPAVINIClass@@PBD@Z@4JA DD 0cbH ; `Get_INI'::`2'::__LINE__Var
_DATA	ENDS
;	COMDAT ??_C@_09OIHOKJLD@Software?2?$AA@
CONST	SEGMENT
??_C@_09OIHOKJLD@Software?2?$AA@ DB 'Software\', 00H	; `string'
CONST	ENDS
;	COMDAT ??_C@_01KICIPPFI@?2?$AA@
CONST	SEGMENT
??_C@_01KICIPPFI@?2?$AA@ DB '\', 00H			; `string'
CONST	ENDS
;	COMDAT ??_C@_0N@JNOHGBBN@UseRenFolder?$AA@
CONST	SEGMENT
??_C@_0N@JNOHGBBN@UseRenFolder?$AA@ DB 'UseRenFolder', 00H ; `string'
CONST	ENDS
;	COMDAT ??_C@_07BNJPPJLM@FileFDS?$AA@
CONST	SEGMENT
??_C@_07BNJPPJLM@FileFDS?$AA@ DB 'FileFDS', 00H		; `string'
CONST	ENDS
;	COMDAT ??_C@_03IGMBAMIJ@FDS?$AA@
CONST	SEGMENT
??_C@_03IGMBAMIJ@FDS?$AA@ DB 'FDS', 00H			; `string'
CONST	ENDS
;	COMDAT ??_C@_0L@DODOIGHK@FileClient?$AA@
CONST	SEGMENT
??_C@_0L@DODOIGHK@FileClient?$AA@ DB 'FileClient', 00H	; `string'
CONST	ENDS
;	COMDAT ??_C@_06PJIGMIJB@Client?$AA@
CONST	SEGMENT
??_C@_06PJIGMIJB@Client?$AA@ DB 'Client', 00H		; `string'
CONST	ENDS
;	COMDAT ??_C@_08IAGBEAJA@FileBase?$AA@
CONST	SEGMENT
??_C@_08IAGBEAJA@FileBase?$AA@ DB 'FileBase', 00H	; `string'
CONST	ENDS
;	COMDAT ??_C@_06PNIIMBMB@RegFDS?$AA@
CONST	SEGMENT
??_C@_06PNIIMBMB@RegFDS?$AA@ DB 'RegFDS', 00H		; `string'
CONST	ENDS
;	COMDAT ??_C@_0M@MBBBEALJ@RenegadeFDS?$AA@
CONST	SEGMENT
??_C@_0M@MBBBEALJ@RenegadeFDS?$AA@ DB 'RenegadeFDS', 00H ; `string'
CONST	ENDS
;	COMDAT ??_C@_09PGFLEEKF@RegClient?$AA@
CONST	SEGMENT
??_C@_09PGFLEEKF@RegClient?$AA@ DB 'RegClient', 00H	; `string'
CONST	ENDS
;	COMDAT ??_C@_08KBDFECAK@Renegade?$AA@
CONST	SEGMENT
??_C@_08KBDFECAK@Renegade?$AA@ DB 'Renegade', 00H	; `string'
CONST	ENDS
;	COMDAT ??_C@_05EHMGIKAG@paths?$AA@
CONST	SEGMENT
??_C@_05EHMGIKAG@paths?$AA@ DB 'paths', 00H		; `string'
CONST	ENDS
;	COMDAT ??_C@_07KODFFKCJ@RegBase?$AA@
CONST	SEGMENT
??_C@_07KODFFKCJ@RegBase?$AA@ DB 'RegBase', 00H		; `string'
CONST	ENDS
;	COMDAT ??_C@_08LAFABFGE@Westwood?$AA@
CONST	SEGMENT
??_C@_08LAFABFGE@Westwood?$AA@ DB 'Westwood', 00H	; `string'
CONST	ENDS
;	COMDAT ??_C@_09HCHIHKFJ@paths?4ini?$AA@
CONST	SEGMENT
??_C@_09HCHIHKFJ@paths?4ini?$AA@ DB 'paths.ini', 00H	; `string'
CONST	ENDS
;	COMDAT ??_C@_0CA@LMFINKNE@BufferedFileClass?3?3Reset_Buffer?$AA@
CONST	SEGMENT
??_C@_0CA@LMFINKNE@BufferedFileClass?3?3Reset_Buffer?$AA@ DB 'BufferedFil'
	DB	'eClass::Reset_Buffer', 00H			; `string'
CONST	ENDS
;	COMDAT ??_C@_1HK@BLILCDCH@?$AAx?$AA?3?$AA?2?$AAg?$AAi?$AAt?$AAh?$AAu?$AAb?$AA?2?$AAr?$AAe?$AAn?$AAe?$AAg?$AAa?$AAd?$AAe?$AA?2?$AAd?$AAr?$AAa?$AAg?$AAo?$AAn?$AAa?$AAd?$AAe?$AA_?$AAr?$AAx?$AAd@
CONST	SEGMENT
??_C@_1HK@BLILCDCH@?$AAx?$AA?3?$AA?2?$AAg?$AAi?$AAt?$AAh?$AAu?$AAb?$AA?2?$AAr?$AAe?$AAn?$AAe?$AAg?$AAa?$AAd?$AAe?$AA?2?$AAd?$AAr?$AAa?$AAg?$AAo?$AAn?$AAa?$AAd?$AAe?$AA_?$AAr?$AAx?$AAd@ DB 'x'
	DB	00H, ':', 00H, '\', 00H, 'g', 00H, 'i', 00H, 't', 00H, 'h', 00H
	DB	'u', 00H, 'b', 00H, '\', 00H, 'r', 00H, 'e', 00H, 'n', 00H, 'e'
	DB	00H, 'g', 00H, 'a', 00H, 'd', 00H, 'e', 00H, '\', 00H, 'd', 00H
	DB	'r', 00H, 'a', 00H, 'g', 00H, 'o', 00H, 'n', 00H, 'a', 00H, 'd'
	DB	00H, 'e', 00H, '_', 00H, 'r', 00H, 'x', 00H, 'd', 00H, '\', 00H
	DB	's', 00H, 'c', 00H, 'r', 00H, 'i', 00H, 'p', 00H, 't', 00H, 's'
	DB	00H, '\', 00H, 'b', 00H, 'u', 00H, 'f', 00H, 'f', 00H, 'e', 00H
	DB	'r', 00H, 'e', 00H, 'd', 00H, 'f', 00H, 'i', 00H, 'l', 00H, 'e'
	DB	00H, 'c', 00H, 'l', 00H, 'a', 00H, 's', 00H, 's', 00H, '.', 00H
	DB	'h', 00H, 00H, 00H				; `string'
CONST	ENDS
;	COMDAT ??_C@_0DN@NGCACKDA@x?3?2github?2renegade?2dragonade_rxd@
CONST	SEGMENT
??_C@_0DN@NGCACKDA@x?3?2github?2renegade?2dragonade_rxd@ DB 'x:\github\re'
	DB	'negade\dragonade_rxd\scripts\bufferedfileclass.h', 00H ; `string'
CONST	ENDS
;	COMDAT ??_C@_0BI@LFKJEOO@BufferedFileClass?3?3Read?$AA@
CONST	SEGMENT
??_C@_0BI@LFKJEOO@BufferedFileClass?3?3Read?$AA@ DB 'BufferedFileClass::R'
	DB	'ead', 00H					; `string'
CONST	ENDS
;	COMDAT ??_7BufferedFileClass@@6B@
CONST	SEGMENT
??_7BufferedFileClass@@6B@ DD FLAT:??_R4BufferedFileClass@@6B@ ; BufferedFileClass::`vftable'
	DD	FLAT:??_EBufferedFileClass@@UAEPAXI@Z
	DD	FLAT:?File_Name@RawFileClass@@UAEPBDXZ
	DD	FLAT:?Set_Name@RawFileClass@@UAEPBDPBD@Z
	DD	FLAT:?Create@RawFileClass@@UAE_NXZ
	DD	FLAT:?Delete@RawFileClass@@UAE_NXZ
	DD	FLAT:?Is_Available@RawFileClass@@UAE_NH@Z
	DD	FLAT:?Is_Open@RawFileClass@@UAE_NXZ
	DD	FLAT:?Open@RawFileClass@@UAEHH@Z
	DD	FLAT:?Open@RawFileClass@@UAEHPBDH@Z
	DD	FLAT:?Read@BufferedFileClass@@UAEHPAXH@Z
	DD	FLAT:?Seek@BufferedFileClass@@UAEHHH@Z
	DD	FLAT:?Tell@FileClass@@UAEHXZ
	DD	FLAT:?Size@RawFileClass@@UAEHXZ
	DD	FLAT:?Write@BufferedFileClass@@UAEHPAXH@Z
	DD	FLAT:?Close@BufferedFileClass@@UAEXXZ
	DD	FLAT:?Get_Date_Time@RawFileClass@@UAEKXZ
	DD	FLAT:?Set_Date_Time@RawFileClass@@UAE_NK@Z
	DD	FLAT:?Error@RawFileClass@@UAEXHHPBD@Z
	DD	FLAT:?Get_File_Handle@RawFileClass@@UAEPAXXZ
	DD	FLAT:?Bias@RawFileClass@@UAEXHH@Z
	DD	FLAT:?Is_Hash_Checked@RawFileClass@@UAE_NXZ
	DD	FLAT:?Attach@RawFileClass@@UAEXPAXH@Z
	DD	FLAT:?Detach@RawFileClass@@UAEXXZ
CONST	ENDS
;	COMDAT ??_C@_00CNPNBAHC@?$AA@
CONST	SEGMENT
??_C@_00CNPNBAHC@?$AA@ DB 00H				; `string'
CONST	ENDS
;	COMDAT ??_7RawFileClass@@6B@
CONST	SEGMENT
??_7RawFileClass@@6B@ DD FLAT:??_R4RawFileClass@@6B@	; RawFileClass::`vftable'
	DD	FLAT:??_ERawFileClass@@UAEPAXI@Z
	DD	FLAT:?File_Name@RawFileClass@@UAEPBDXZ
	DD	FLAT:?Set_Name@RawFileClass@@UAEPBDPBD@Z
	DD	FLAT:?Create@RawFileClass@@UAE_NXZ
	DD	FLAT:?Delete@RawFileClass@@UAE_NXZ
	DD	FLAT:?Is_Available@RawFileClass@@UAE_NH@Z
	DD	FLAT:?Is_Open@RawFileClass@@UAE_NXZ
	DD	FLAT:?Open@RawFileClass@@UAEHH@Z
	DD	FLAT:?Open@RawFileClass@@UAEHPBDH@Z
	DD	FLAT:?Read@RawFileClass@@UAEHPAXH@Z
	DD	FLAT:?Seek@RawFileClass@@UAEHHH@Z
	DD	FLAT:?Tell@FileClass@@UAEHXZ
	DD	FLAT:?Size@RawFileClass@@UAEHXZ
	DD	FLAT:?Write@RawFileClass@@UAEHPAXH@Z
	DD	FLAT:?Close@RawFileClass@@UAEXXZ
	DD	FLAT:?Get_Date_Time@RawFileClass@@UAEKXZ
	DD	FLAT:?Set_Date_Time@RawFileClass@@UAE_NK@Z
	DD	FLAT:?Error@RawFileClass@@UAEXHHPBD@Z
	DD	FLAT:?Get_File_Handle@RawFileClass@@UAEPAXXZ
	DD	FLAT:?Bias@RawFileClass@@UAEXHH@Z
	DD	FLAT:?Is_Hash_Checked@RawFileClass@@UAE_NXZ
	DD	FLAT:?Attach@RawFileClass@@UAEXPAXH@Z
	DD	FLAT:?Detach@RawFileClass@@UAEXXZ
CONST	ENDS
;	COMDAT ??_7FilePipe@@6B@
CONST	SEGMENT
??_7FilePipe@@6B@ DD FLAT:??_R4FilePipe@@6B@		; FilePipe::`vftable'
	DD	FLAT:??_EFilePipe@@UAEPAXI@Z
	DD	FLAT:?Flush@Pipe@@UAEHXZ
	DD	FLAT:?End@FilePipe@@UAEHXZ
	DD	FLAT:?Put_To@Pipe@@UAEXPAV1@@Z
	DD	FLAT:?Put@FilePipe@@UAEHPBXH@Z
CONST	ENDS
;	COMDAT ??_7Pipe@@6B@
CONST	SEGMENT
??_7Pipe@@6B@ DD FLAT:??_R4Pipe@@6B@			; Pipe::`vftable'
	DD	FLAT:??_EPipe@@UAEPAXI@Z
	DD	FLAT:?Flush@Pipe@@UAEHXZ
	DD	FLAT:?End@Pipe@@UAEHXZ
	DD	FLAT:?Put_To@Pipe@@UAEXPAV1@@Z
	DD	FLAT:?Put@Pipe@@UAEHPBXH@Z
CONST	ENDS
;	COMDAT ??_7CacheStraw@@6B@
CONST	SEGMENT
??_7CacheStraw@@6B@ DD FLAT:??_R4CacheStraw@@6B@	; CacheStraw::`vftable'
	DD	FLAT:??_ECacheStraw@@UAEPAXI@Z
	DD	FLAT:?Get_From@Straw@@UAEXPAV1@@Z
	DD	FLAT:?Get@CacheStraw@@UAEHPAXH@Z
CONST	ENDS
;	COMDAT ??_7FileStraw@@6B@
CONST	SEGMENT
??_7FileStraw@@6B@ DD FLAT:??_R4FileStraw@@6B@		; FileStraw::`vftable'
	DD	FLAT:??_EFileStraw@@UAEPAXI@Z
	DD	FLAT:?Get_From@Straw@@UAEXPAV1@@Z
	DD	FLAT:?Get@FileStraw@@UAEHPAXH@Z
CONST	ENDS
;	COMDAT ??_7BufferStraw@@6B@
CONST	SEGMENT
??_7BufferStraw@@6B@ DD FLAT:??_R4BufferStraw@@6B@	; BufferStraw::`vftable'
	DD	FLAT:??_EBufferStraw@@UAEPAXI@Z
	DD	FLAT:?Get_From@Straw@@UAEXPAV1@@Z
	DD	FLAT:?Get@BufferStraw@@UAEHPAXH@Z
CONST	ENDS
;	COMDAT ??_C@_1GC@DMMDNGMD@?$AAx?$AA?3?$AA?2?$AAg?$AAi?$AAt?$AAh?$AAu?$AAb?$AA?2?$AAr?$AAe?$AAn?$AAe?$AAg?$AAa?$AAd?$AAe?$AA?2?$AAd?$AAr?$AAa?$AAg?$AAo?$AAn?$AAa?$AAd?$AAe?$AA_?$AAr?$AAx?$AAd@
CONST	SEGMENT
??_C@_1GC@DMMDNGMD@?$AAx?$AA?3?$AA?2?$AAg?$AAi?$AAt?$AAh?$AAu?$AAb?$AA?2?$AAr?$AAe?$AAn?$AAe?$AAg?$AAa?$AAd?$AAe?$AA?2?$AAd?$AAr?$AAa?$AAg?$AAo?$AAn?$AAa?$AAd?$AAe?$AA_?$AAr?$AAx?$AAd@ DB 'x'
	DB	00H, ':', 00H, '\', 00H, 'g', 00H, 'i', 00H, 't', 00H, 'h', 00H
	DB	'u', 00H, 'b', 00H, '\', 00H, 'r', 00H, 'e', 00H, 'n', 00H, 'e'
	DB	00H, 'g', 00H, 'a', 00H, 'd', 00H, 'e', 00H, '\', 00H, 'd', 00H
	DB	'r', 00H, 'a', 00H, 'g', 00H, 'o', 00H, 'n', 00H, 'a', 00H, 'd'
	DB	00H, 'e', 00H, '_', 00H, 'r', 00H, 'x', 00H, 'd', 00H, '\', 00H
	DB	's', 00H, 'c', 00H, 'r', 00H, 'i', 00H, 'p', 00H, 't', 00H, 's'
	DB	00H, '\', 00H, 's', 00H, 't', 00H, 'r', 00H, 'a', 00H, 'w', 00H
	DB	'.', 00H, 'h', 00H, 00H, 00H			; `string'
CONST	ENDS
;	COMDAT ??_C@_0DB@KAPDHD@x?3?2github?2renegade?2dragonade_rxd@
CONST	SEGMENT
??_C@_0DB@KAPDHD@x?3?2github?2renegade?2dragonade_rxd@ DB 'x:\github\rene'
	DB	'gade\dragonade_rxd\scripts\straw.h', 00H	; `string'
CONST	ENDS
;	COMDAT ??_C@_0P@OCJIINDO@Buffer?3?3Buffer?$AA@
CONST	SEGMENT
??_C@_0P@OCJIINDO@Buffer?3?3Buffer?$AA@ DB 'Buffer::Buffer', 00H ; `string'
CONST	ENDS
;	COMDAT ??_7Straw@@6B@
CONST	SEGMENT
??_7Straw@@6B@ DD FLAT:??_R4Straw@@6B@			; Straw::`vftable'
	DD	FLAT:??_EStraw@@UAEPAXI@Z
	DD	FLAT:?Get_From@Straw@@UAEXPAV1@@Z
	DD	FLAT:?Get@Straw@@UAEHPAXH@Z
CONST	ENDS
;	COMDAT ??_7INIClass@@6B@
CONST	SEGMENT
??_7INIClass@@6B@ DD FLAT:??_R4INIClass@@6B@		; INIClass::`vftable'
	DD	FLAT:??_EINIClass@@UAEPAXI@Z
CONST	ENDS
;	COMDAT ??_C@_0BI@MNFJCFIP@INISection?3?3?$HOINISection?$AA@
CONST	SEGMENT
??_C@_0BI@MNFJCFIP@INISection?3?3?$HOINISection?$AA@ DB 'INISection::~INI'
	DB	'Section', 00H				; `string'
CONST	ENDS
;	COMDAT ??_7INISection@@6B@
CONST	SEGMENT
??_7INISection@@6B@ DD FLAT:??_R4INISection@@6B@	; INISection::`vftable'
	DD	FLAT:??_EINISection@@UAEPAXI@Z
CONST	ENDS
;	COMDAT ??_7?$List@PAUINIEntry@@@@6B@
CONST	SEGMENT
??_7?$List@PAUINIEntry@@@@6B@ DD FLAT:??_R4?$List@PAUINIEntry@@@@6B@ ; List<INIEntry *>::`vftable'
	DD	FLAT:??_E?$List@PAUINIEntry@@@@UAEPAXI@Z
CONST	ENDS
;	COMDAT ??_7?$Node@PAUINISection@@@@6B@
CONST	SEGMENT
??_7?$Node@PAUINISection@@@@6B@ DD FLAT:??_R4?$Node@PAUINISection@@@@6B@ ; Node<INISection *>::`vftable'
	DD	FLAT:??_E?$Node@PAUINISection@@@@UAEPAXI@Z
CONST	ENDS
;	COMDAT ??_C@_1GK@FAFJBHHM@?$AAx?$AA?3?$AA?2?$AAg?$AAi?$AAt?$AAh?$AAu?$AAb?$AA?2?$AAr?$AAe?$AAn?$AAe?$AAg?$AAa?$AAd?$AAe?$AA?2?$AAd?$AAr?$AAa?$AAg?$AAo?$AAn?$AAa?$AAd?$AAe?$AA_?$AAr?$AAx?$AAd@
CONST	SEGMENT
??_C@_1GK@FAFJBHHM@?$AAx?$AA?3?$AA?2?$AAg?$AAi?$AAt?$AAh?$AAu?$AAb?$AA?2?$AAr?$AAe?$AAn?$AAe?$AAg?$AAa?$AAd?$AAe?$AA?2?$AAd?$AAr?$AAa?$AAg?$AAo?$AAn?$AAa?$AAd?$AAe?$AA_?$AAr?$AAx?$AAd@ DB 'x'
	DB	00H, ':', 00H, '\', 00H, 'g', 00H, 'i', 00H, 't', 00H, 'h', 00H
	DB	'u', 00H, 'b', 00H, '\', 00H, 'r', 00H, 'e', 00H, 'n', 00H, 'e'
	DB	00H, 'g', 00H, 'a', 00H, 'd', 00H, 'e', 00H, '\', 00H, 'd', 00H
	DB	'r', 00H, 'a', 00H, 'g', 00H, 'o', 00H, 'n', 00H, 'a', 00H, 'd'
	DB	00H, 'e', 00H, '_', 00H, 'r', 00H, 'x', 00H, 'd', 00H, '\', 00H
	DB	's', 00H, 'c', 00H, 'r', 00H, 'i', 00H, 'p', 00H, 't', 00H, 's'
	DB	00H, '\', 00H, 'e', 00H, 'n', 00H, 'g', 00H, 'i', 00H, 'n', 00H
	DB	'e', 00H, '_', 00H, 'i', 00H, 'o', 00H, '.', 00H, 'h', 00H, 00H
	DB	00H						; `string'
CONST	ENDS
;	COMDAT ??_C@_0DF@OBDLAGEP@x?3?2github?2renegade?2dragonade_rxd@
CONST	SEGMENT
??_C@_0DF@OBDLAGEP@x?3?2github?2renegade?2dragonade_rxd@ DB 'x:\github\re'
	DB	'negade\dragonade_rxd\scripts\engine_io.h', 00H ; `string'
CONST	ENDS
;	COMDAT ??_C@_0BE@NLFCMBPK@INIEntry?3?3?$HOINIEntry?$AA@
CONST	SEGMENT
??_C@_0BE@NLFCMBPK@INIEntry?3?3?$HOINIEntry?$AA@ DB 'INIEntry::~INIEntry', 00H ; `string'
CONST	ENDS
;	COMDAT ??_7INIEntry@@6B@
CONST	SEGMENT
??_7INIEntry@@6B@ DD FLAT:??_R4INIEntry@@6B@		; INIEntry::`vftable'
	DD	FLAT:??_EINIEntry@@UAEPAXI@Z
CONST	ENDS
;	COMDAT ??_7?$Node@PAUINIEntry@@@@6B@
CONST	SEGMENT
??_7?$Node@PAUINIEntry@@@@6B@ DD FLAT:??_R4?$Node@PAUINIEntry@@@@6B@ ; Node<INIEntry *>::`vftable'
	DD	FLAT:??_E?$Node@PAUINIEntry@@@@UAEPAXI@Z
CONST	ENDS
;	COMDAT ??_7FileClass@@6B@
CONST	SEGMENT
??_7FileClass@@6B@ DD FLAT:??_R4FileClass@@6B@		; FileClass::`vftable'
	DD	FLAT:??_EFileClass@@UAEPAXI@Z
	DD	FLAT:__purecall
	DD	FLAT:__purecall
	DD	FLAT:__purecall
	DD	FLAT:__purecall
	DD	FLAT:__purecall
	DD	FLAT:__purecall
	DD	FLAT:__purecall
	DD	FLAT:__purecall
	DD	FLAT:__purecall
	DD	FLAT:__purecall
	DD	FLAT:?Tell@FileClass@@UAEHXZ
	DD	FLAT:__purecall
	DD	FLAT:__purecall
	DD	FLAT:__purecall
	DD	FLAT:?Get_Date_Time@FileClass@@UAEKXZ
	DD	FLAT:?Set_Date_Time@FileClass@@UAE_NK@Z
	DD	FLAT:__purecall
	DD	FLAT:?Get_File_Handle@FileClass@@UAEPAXXZ
	DD	FLAT:__purecall
	DD	FLAT:__purecall
CONST	ENDS
;	COMDAT ??_C@_1M@HLGKFCJM@?$AAf?$AAa?$AAl?$AAs?$AAe?$AA?$AA@
CONST	SEGMENT
??_C@_1M@HLGKFCJM@?$AAf?$AAa?$AAl?$AAs?$AAe?$AA?$AA@ DB 'f', 00H, 'a', 00H
	DB	'l', 00H, 's', 00H, 'e', 00H, 00H, 00H	; `string'
CONST	ENDS
;	COMDAT ??_C@_1HC@JEIHKHFK@?$AAx?$AA?3?$AA?2?$AAg?$AAi?$AAt?$AAh?$AAu?$AAb?$AA?2?$AAr?$AAe?$AAn?$AAe?$AAg?$AAa?$AAd?$AAe?$AA?2?$AAd?$AAr?$AAa?$AAg?$AAo?$AAn?$AAa?$AAd?$AAe?$AA_?$AAr?$AAx?$AAd@
CONST	SEGMENT
??_C@_1HC@JEIHKHFK@?$AAx?$AA?3?$AA?2?$AAg?$AAi?$AAt?$AAh?$AAu?$AAb?$AA?2?$AAr?$AAe?$AAn?$AAe?$AAg?$AAa?$AAd?$AAe?$AA?2?$AAd?$AAr?$AAa?$AAg?$AAo?$AAn?$AAa?$AAd?$AAe?$AA_?$AAr?$AAx?$AAd@ DB 'x'
	DB	00H, ':', 00H, '\', 00H, 'g', 00H, 'i', 00H, 't', 00H, 'h', 00H
	DB	'u', 00H, 'b', 00H, '\', 00H, 'r', 00H, 'e', 00H, 'n', 00H, 'e'
	DB	00H, 'g', 00H, 'a', 00H, 'd', 00H, 'e', 00H, '\', 00H, 'd', 00H
	DB	'r', 00H, 'a', 00H, 'g', 00H, 'o', 00H, 'n', 00H, 'a', 00H, 'd'
	DB	00H, 'e', 00H, '_', 00H, 'r', 00H, 'x', 00H, 'd', 00H, '\', 00H
	DB	's', 00H, 'c', 00H, 'r', 00H, 'i', 00H, 'p', 00H, 't', 00H, 's'
	DB	00H, '\', 00H, 'e', 00H, 'n', 00H, 'g', 00H, 'i', 00H, 'n', 00H
	DB	'e', 00H, '_', 00H, 'v', 00H, 'e', 00H, 'c', 00H, 't', 00H, 'o'
	DB	00H, 'r', 00H, '.', 00H, 'h', 00H, 00H, 00H	; `string'
CONST	ENDS
;	COMDAT ??_C@_0DJ@NKJHEMPA@x?3?2github?2renegade?2dragonade_rxd@
CONST	SEGMENT
??_C@_0DJ@NKJHEMPA@x?3?2github?2renegade?2dragonade_rxd@ DB 'x:\github\re'
	DB	'negade\dragonade_rxd\scripts\engine_vector.h', 00H ; `string'
CONST	ENDS
;	COMDAT ??_7GenericList@@6B@
CONST	SEGMENT
??_7GenericList@@6B@ DD FLAT:??_R4GenericList@@6B@	; GenericList::`vftable'
	DD	FLAT:??_EGenericList@@UAEPAXI@Z
CONST	ENDS
;	COMDAT ??_7GenericNode@@6B@
CONST	SEGMENT
??_7GenericNode@@6B@ DD FLAT:??_R4GenericNode@@6B@	; GenericNode::`vftable'
	DD	FLAT:??_EGenericNode@@UAEPAXI@Z
CONST	ENDS
;	COMDAT ??_7ThreadClass@@6B@
CONST	SEGMENT
??_7ThreadClass@@6B@ DD FLAT:??_R4ThreadClass@@6B@	; ThreadClass::`vftable'
	DD	FLAT:??_EThreadClass@@UAEPAXI@Z
	DD	FLAT:__purecall
CONST	ENDS
; Function compile flags: /Odtp /ZI
; File x:\github\renegade\dragonade_rxd\scripts\engine_vector.h
;	COMDAT ??$Binary_Search@UNodeElement@?$IndexClass@HPAUINIEntry@@@@@@YAPAUNodeElement@?$IndexClass@HPAUINIEntry@@@@PAU01@HAAU01@@Z
_TEXT	SEGMENT
_list3$1 = -12						; size = 4
_pos$ = -8						; size = 4
_list2$ = -4						; size = 4
_list$ = 8						; size = 4
_count$ = 12						; size = 4
_var$ = 16						; size = 4
??$Binary_Search@UNodeElement@?$IndexClass@HPAUINIEntry@@@@@@YAPAUNodeElement@?$IndexClass@HPAUINIEntry@@@@PAU01@HAAU01@@Z PROC ; Binary_Search<IndexClass<int,INIEntry *>::NodeElement>, COMDAT

; 1348 : {

	push	ebp
	mov	ebp, esp
	sub	esp, 76					; 0000004cH
	push	ebx
	push	esi
	push	edi

; 1349 : 	T *list2 = list;

	mov	eax, DWORD PTR _list$[ebp]
	mov	DWORD PTR _list2$[ebp], eax

; 1350 : 	int pos = count;

	mov	eax, DWORD PTR _count$[ebp]
	mov	DWORD PTR _pos$[ebp], eax
$LN5@Binary_Sea:

; 1351 : 	while (pos > 0)

	cmp	DWORD PTR _pos$[ebp], 0
	jle	SHORT $LN4@Binary_Sea

; 1352 : 	{
; 1353 : 		T *list3 = &list2[pos / 2];

	mov	eax, DWORD PTR _pos$[ebp]
	cdq
	sub	eax, edx
	sar	eax, 1
	mov	ecx, DWORD PTR _list2$[ebp]
	lea	edx, DWORD PTR [ecx+eax*8]
	mov	DWORD PTR _list3$1[ebp], edx

; 1354 : 		if (var.ID >= list3->ID)

	mov	eax, DWORD PTR _var$[ebp]
	mov	ecx, DWORD PTR _list3$1[ebp]
	mov	edx, DWORD PTR [eax]
	cmp	edx, DWORD PTR [ecx]
	jl	SHORT $LN3@Binary_Sea

; 1355 : 		{
; 1356 : 			if (list3->ID == var.ID)

	mov	eax, DWORD PTR _list3$1[ebp]
	mov	ecx, DWORD PTR _var$[ebp]
	mov	edx, DWORD PTR [eax]
	cmp	edx, DWORD PTR [ecx]
	jne	SHORT $LN2@Binary_Sea

; 1357 : 			{
; 1358 : 				return &list2[pos / 2];

	mov	eax, DWORD PTR _pos$[ebp]
	cdq
	sub	eax, edx
	sar	eax, 1
	mov	ecx, DWORD PTR _list2$[ebp]
	lea	eax, DWORD PTR [ecx+eax*8]
	jmp	SHORT $LN6@Binary_Sea
$LN2@Binary_Sea:

; 1359 : 			}
; 1360 : 			list2 = list3 + 1;

	mov	eax, DWORD PTR _list3$1[ebp]
	add	eax, 8
	mov	DWORD PTR _list2$[ebp], eax

; 1361 : 			pos = pos - pos / 2 - 1;

	mov	eax, DWORD PTR _pos$[ebp]
	cdq
	sub	eax, edx
	sar	eax, 1
	mov	ecx, DWORD PTR _pos$[ebp]
	sub	ecx, eax
	sub	ecx, 1
	mov	DWORD PTR _pos$[ebp], ecx

; 1362 : 		}
; 1363 : 		else

	jmp	SHORT $LN1@Binary_Sea
$LN3@Binary_Sea:

; 1364 : 		{
; 1365 : 			pos /= 2;

	mov	eax, DWORD PTR _pos$[ebp]
	cdq
	sub	eax, edx
	sar	eax, 1
	mov	DWORD PTR _pos$[ebp], eax
$LN1@Binary_Sea:

; 1366 : 		}
; 1367 : 	}

	jmp	SHORT $LN5@Binary_Sea
$LN4@Binary_Sea:

; 1368 : 	return 0;

	xor	eax, eax
$LN6@Binary_Sea:

; 1369 : }

	pop	edi
	pop	esi
	pop	ebx
	mov	esp, ebp
	pop	ebp
	ret	0
??$Binary_Search@UNodeElement@?$IndexClass@HPAUINIEntry@@@@@@YAPAUNodeElement@?$IndexClass@HPAUINIEntry@@@@PAU01@HAAU01@@Z ENDP ; Binary_Search<IndexClass<int,INIEntry *>::NodeElement>
_TEXT	ENDS
; Function compile flags: /Odtp /ZI
; File x:\github\renegade\dragonade_rxd\scripts\engine_vector.h
;	COMDAT ??0NodeElement@?$IndexClass@HPAUINISection@@@@QAE@XZ
_TEXT	SEGMENT
_this$ = -4						; size = 4
??0NodeElement@?$IndexClass@HPAUINISection@@@@QAE@XZ PROC ; IndexClass<int,INISection *>::NodeElement::NodeElement, COMDAT
; _this$ = ecx

; 1141 : 		{

	push	ebp
	mov	ebp, esp
	sub	esp, 68					; 00000044H
	push	ebx
	push	esi
	push	edi
	mov	DWORD PTR _this$[ebp], ecx
	mov	eax, DWORD PTR _this$[ebp]
	mov	DWORD PTR [eax], 0
	mov	eax, DWORD PTR _this$[ebp]
	mov	DWORD PTR [eax+4], 0

; 1142 : 		}

	mov	eax, DWORD PTR _this$[ebp]
	pop	edi
	pop	esi
	pop	ebx
	mov	esp, ebp
	pop	ebp
	ret	0
??0NodeElement@?$IndexClass@HPAUINISection@@@@QAE@XZ ENDP ; IndexClass<int,INISection *>::NodeElement::NodeElement
_TEXT	ENDS
; Function compile flags: /Odtp /ZI
; File x:\github\renegade\dragonade_rxd\scripts\engine_vector.h
;	COMDAT ??MNodeElement@?$IndexClass@HPAUINIEntry@@@@QAE_NABU01@@Z
_TEXT	SEGMENT
tv67 = -72						; size = 4
_this$ = -4						; size = 4
_elem$ = 8						; size = 4
??MNodeElement@?$IndexClass@HPAUINIEntry@@@@QAE_NABU01@@Z PROC ; IndexClass<int,INIEntry *>::NodeElement::operator<, COMDAT
; _this$ = ecx

; 1148 : 		{

	push	ebp
	mov	ebp, esp
	sub	esp, 72					; 00000048H
	push	ebx
	push	esi
	push	edi
	mov	DWORD PTR _this$[ebp], ecx

; 1149 : 			return ID < elem.ID;

	mov	eax, DWORD PTR _this$[ebp]
	mov	ecx, DWORD PTR _elem$[ebp]
	mov	edx, DWORD PTR [eax]
	cmp	edx, DWORD PTR [ecx]
	jge	SHORT $LN3@operator
	mov	DWORD PTR tv67[ebp], 1
	jmp	SHORT $LN4@operator
$LN3@operator:
	mov	DWORD PTR tv67[ebp], 0
$LN4@operator:
	mov	al, BYTE PTR tv67[ebp]

; 1150 : 		}

	pop	edi
	pop	esi
	pop	ebx
	mov	esp, ebp
	pop	ebp
	ret	4
??MNodeElement@?$IndexClass@HPAUINIEntry@@@@QAE_NABU01@@Z ENDP ; IndexClass<int,INIEntry *>::NodeElement::operator<
_TEXT	ENDS
; Function compile flags: /Odtp /ZI
; File x:\github\renegade\dragonade_rxd\scripts\engine_vector.h
;	COMDAT ??8NodeElement@?$IndexClass@HPAUINIEntry@@@@QAE_NABU01@@Z
_TEXT	SEGMENT
tv67 = -72						; size = 4
_this$ = -4						; size = 4
_elem$ = 8						; size = 4
??8NodeElement@?$IndexClass@HPAUINIEntry@@@@QAE_NABU01@@Z PROC ; IndexClass<int,INIEntry *>::NodeElement::operator==, COMDAT
; _this$ = ecx

; 1144 : 		{

	push	ebp
	mov	ebp, esp
	sub	esp, 72					; 00000048H
	push	ebx
	push	esi
	push	edi
	mov	DWORD PTR _this$[ebp], ecx

; 1145 : 			return ID == elem.ID;

	mov	eax, DWORD PTR _this$[ebp]
	mov	ecx, DWORD PTR _elem$[ebp]
	mov	edx, DWORD PTR [eax]
	cmp	edx, DWORD PTR [ecx]
	jne	SHORT $LN3@operator
	mov	DWORD PTR tv67[ebp], 1
	jmp	SHORT $LN4@operator
$LN3@operator:
	mov	DWORD PTR tv67[ebp], 0
$LN4@operator:
	mov	al, BYTE PTR tv67[ebp]

; 1146 : 		}

	pop	edi
	pop	esi
	pop	ebx
	mov	esp, ebp
	pop	ebp
	ret	4
??8NodeElement@?$IndexClass@HPAUINIEntry@@@@QAE_NABU01@@Z ENDP ; IndexClass<int,INIEntry *>::NodeElement::operator==
_TEXT	ENDS
; Function compile flags: /Odtp /ZI
; File x:\github\renegade\dragonade_rxd\scripts\engine_vector.h
;	COMDAT ??0NodeElement@?$IndexClass@HPAUINIEntry@@@@QAE@XZ
_TEXT	SEGMENT
_this$ = -4						; size = 4
??0NodeElement@?$IndexClass@HPAUINIEntry@@@@QAE@XZ PROC	; IndexClass<int,INIEntry *>::NodeElement::NodeElement, COMDAT
; _this$ = ecx

; 1141 : 		{

	push	ebp
	mov	ebp, esp
	sub	esp, 68					; 00000044H
	push	ebx
	push	esi
	push	edi
	mov	DWORD PTR _this$[ebp], ecx
	mov	eax, DWORD PTR _this$[ebp]
	mov	DWORD PTR [eax], 0
	mov	eax, DWORD PTR _this$[ebp]
	mov	DWORD PTR [eax+4], 0

; 1142 : 		}

	mov	eax, DWORD PTR _this$[ebp]
	pop	edi
	pop	esi
	pop	ebx
	mov	esp, ebp
	pop	ebp
	ret	0
??0NodeElement@?$IndexClass@HPAUINIEntry@@@@QAE@XZ ENDP	; IndexClass<int,INIEntry *>::NodeElement::NodeElement
_TEXT	ENDS
; Function compile flags: /Odtp /ZI
; File x:\github\renegade\dragonade_rxd\scripts\engine_vector.h
;	COMDAT ??0NodeElement@?$IndexClass@HPAUINIEntry@@@@QAE@ABHABQAUINIEntry@@@Z
_TEXT	SEGMENT
_this$ = -4						; size = 4
_id$ = 8						; size = 4
_data$ = 12						; size = 4
??0NodeElement@?$IndexClass@HPAUINIEntry@@@@QAE@ABHABQAUINIEntry@@@Z PROC ; IndexClass<int,INIEntry *>::NodeElement::NodeElement, COMDAT
; _this$ = ecx

; 1138 : 		{

	push	ebp
	mov	ebp, esp
	sub	esp, 68					; 00000044H
	push	ebx
	push	esi
	push	edi
	mov	DWORD PTR _this$[ebp], ecx
	mov	eax, DWORD PTR _this$[ebp]
	mov	ecx, DWORD PTR _id$[ebp]
	mov	edx, DWORD PTR [ecx]
	mov	DWORD PTR [eax], edx
	mov	eax, DWORD PTR _this$[ebp]
	mov	ecx, DWORD PTR _data$[ebp]
	mov	edx, DWORD PTR [ecx]
	mov	DWORD PTR [eax+4], edx

; 1139 : 		}

	mov	eax, DWORD PTR _this$[ebp]
	pop	edi
	pop	esi
	pop	ebx
	mov	esp, ebp
	pop	ebp
	ret	8
??0NodeElement@?$IndexClass@HPAUINIEntry@@@@QAE@ABHABQAUINIEntry@@@Z ENDP ; IndexClass<int,INIEntry *>::NodeElement::NodeElement
_TEXT	ENDS
; Function compile flags: /Odtp /ZI
;	COMDAT ??_G?$List@PAUINISection@@@@UAEPAXI@Z
_TEXT	SEGMENT
_this$ = -4						; size = 4
___flags$ = 8						; size = 4
??_G?$List@PAUINISection@@@@UAEPAXI@Z PROC		; List<INISection *>::`scalar deleting destructor', COMDAT
; _this$ = ecx
	push	ebp
	mov	ebp, esp
	sub	esp, 68					; 00000044H
	push	ebx
	push	esi
	push	edi
	mov	DWORD PTR _this$[ebp], ecx
	mov	ecx, DWORD PTR _this$[ebp]
	call	??1?$List@PAUINISection@@@@UAE@XZ
	mov	eax, DWORD PTR ___flags$[ebp]
	and	eax, 1
	je	SHORT $LN1@scalar
	mov	eax, DWORD PTR _this$[ebp]
	push	eax
	call	??3@YAXPAX@Z				; operator delete
	add	esp, 4
$LN1@scalar:
	mov	eax, DWORD PTR _this$[ebp]
	pop	edi
	pop	esi
	pop	ebx
	mov	esp, ebp
	pop	ebp
	ret	4
??_G?$List@PAUINISection@@@@UAEPAXI@Z ENDP		; List<INISection *>::`scalar deleting destructor'
_TEXT	ENDS
; Function compile flags: /Odtp /ZI
;	COMDAT ??1?$List@PAUINISection@@@@UAE@XZ
_TEXT	SEGMENT
_this$ = -4						; size = 4
??1?$List@PAUINISection@@@@UAE@XZ PROC			; List<INISection *>::~List<INISection *>, COMDAT
; _this$ = ecx
	push	ebp
	mov	ebp, esp
	sub	esp, 68					; 00000044H
	push	ebx
	push	esi
	push	edi
	mov	DWORD PTR _this$[ebp], ecx
	mov	ecx, DWORD PTR _this$[ebp]
	call	??1GenericList@@UAE@XZ			; GenericList::~GenericList
	pop	edi
	pop	esi
	pop	ebx
	mov	esp, ebp
	pop	ebp
	ret	0
??1?$List@PAUINISection@@@@UAE@XZ ENDP			; List<INISection *>::~List<INISection *>
_TEXT	ENDS
; Function compile flags: /Odtp /ZI
; File x:\github\renegade\dragonade_rxd\scripts\engine_vector.h
;	COMDAT ?Delete@?$List@PAUINISection@@@@QAEXXZ
_TEXT	SEGMENT
tv94 = -80						; size = 4
$T1 = -76						; size = 4
$T2 = -72						; size = 4
_this$ = -4						; size = 4
?Delete@?$List@PAUINISection@@@@QAEXXZ PROC		; List<INISection *>::Delete, COMDAT
; _this$ = ecx

; 1077 : 	void Delete(void) {while (First()->Is_Valid()) delete First();}

	push	ebp
	mov	ebp, esp
	sub	esp, 80					; 00000050H
	push	ebx
	push	esi
	push	edi
	mov	DWORD PTR _this$[ebp], ecx
$LN2@Delete:
	mov	ecx, DWORD PTR _this$[ebp]
	call	?First@?$List@PAUINISection@@@@QBEPAUINISection@@XZ ; List<INISection *>::First
	mov	ecx, eax
	call	?Is_Valid@?$Node@PAUINISection@@@@QBE_NXZ ; Node<INISection *>::Is_Valid
	movzx	eax, al
	test	eax, eax
	je	SHORT $LN3@Delete
	push	OFFSET ??_C@_0CC@CJCFMMIE@List?$DMstruct?5INISection?5?$CK?$DO?3?3Delet@
	push	1077					; 00000435H
	push	OFFSET ??_C@_0DJ@NKJHEMPA@x?3?2github?2renegade?2dragonade_rxd@
	call	?SetThreadTrackingInformation@@YAXPBDI0@Z ; SetThreadTrackingInformation
	add	esp, 12					; 0000000cH
	xor	eax, eax
	je	SHORT $LN8@Delete
	xor	ecx, ecx
	jne	SHORT $LN5@Delete
	push	1077					; 00000435H
	push	OFFSET ??_C@_1HC@JEIHKHFK@?$AAx?$AA?3?$AA?2?$AAg?$AAi?$AAt?$AAh?$AAu?$AAb?$AA?2?$AAr?$AAe?$AAn?$AAe?$AAg?$AAa?$AAd?$AAe?$AA?2?$AAd?$AAr?$AAa?$AAg?$AAo?$AAn?$AAa?$AAd?$AAe?$AA_?$AAr?$AAx?$AAd@
	push	OFFSET ??_C@_1M@HLGKFCJM@?$AAf?$AAa?$AAl?$AAs?$AAe?$AA?$AA@
	call	DWORD PTR __imp___wassert
	add	esp, 12					; 0000000cH
$LN5@Delete:
	jmp	SHORT $LN9@Delete
$LN8@Delete:
	mov	ecx, DWORD PTR _this$[ebp]
	call	?First@?$List@PAUINISection@@@@QBEPAUINISection@@XZ ; List<INISection *>::First
	mov	DWORD PTR $T2[ebp], eax
	mov	eax, DWORD PTR $T2[ebp]
	mov	DWORD PTR $T1[ebp], eax
	cmp	DWORD PTR $T1[ebp], 0
	je	SHORT $LN6@Delete
	push	1
	mov	ecx, DWORD PTR $T1[ebp]
	mov	edx, DWORD PTR [ecx]
	mov	ecx, DWORD PTR $T1[ebp]
	mov	eax, DWORD PTR [edx]
	call	eax
	mov	DWORD PTR tv94[ebp], eax
	jmp	SHORT $LN9@Delete
$LN6@Delete:
	mov	DWORD PTR tv94[ebp], 0
$LN9@Delete:
	jmp	$LN2@Delete
$LN3@Delete:
	pop	edi
	pop	esi
	pop	ebx
	mov	esp, ebp
	pop	ebp
	ret	0
?Delete@?$List@PAUINISection@@@@QAEXXZ ENDP		; List<INISection *>::Delete
_TEXT	ENDS
; Function compile flags: /Odtp /ZI
; File x:\github\renegade\dragonade_rxd\scripts\engine_vector.h
;	COMDAT ?First@?$List@PAUINISection@@@@QBEPAUINISection@@XZ
_TEXT	SEGMENT
_this$ = -4						; size = 4
?First@?$List@PAUINISection@@@@QBEPAUINISection@@XZ PROC ; List<INISection *>::First, COMDAT
; _this$ = ecx

; 1073 : 	T First(void) const {return((T)GenericList::First());}

	push	ebp
	mov	ebp, esp
	sub	esp, 68					; 00000044H
	push	ebx
	push	esi
	push	edi
	mov	DWORD PTR _this$[ebp], ecx
	mov	ecx, DWORD PTR _this$[ebp]
	call	?First@GenericList@@QBEPAVGenericNode@@XZ ; GenericList::First
	pop	edi
	pop	esi
	pop	ebx
	mov	esp, ebp
	pop	ebp
	ret	0
?First@?$List@PAUINISection@@@@QBEPAUINISection@@XZ ENDP ; List<INISection *>::First
_TEXT	ENDS
; Function compile flags: /Odtp /ZI
; File x:\github\renegade\dragonade_rxd\scripts\engine_vector.h
;	COMDAT ??0?$List@PAUINISection@@@@QAE@XZ
_TEXT	SEGMENT
_this$ = -4						; size = 4
??0?$List@PAUINISection@@@@QAE@XZ PROC			; List<INISection *>::List<INISection *>, COMDAT
; _this$ = ecx

; 1072 : 	List(void) {};

	push	ebp
	mov	ebp, esp
	sub	esp, 68					; 00000044H
	push	ebx
	push	esi
	push	edi
	mov	DWORD PTR _this$[ebp], ecx
	mov	ecx, DWORD PTR _this$[ebp]
	call	??0GenericList@@QAE@XZ			; GenericList::GenericList
	mov	eax, DWORD PTR _this$[ebp]
	mov	DWORD PTR [eax], OFFSET ??_7?$List@PAUINISection@@@@6B@
	mov	eax, DWORD PTR _this$[ebp]
	pop	edi
	pop	esi
	pop	ebx
	mov	esp, ebp
	pop	ebp
	ret	0
??0?$List@PAUINISection@@@@QAE@XZ ENDP			; List<INISection *>::List<INISection *>
_TEXT	ENDS
; Function compile flags: /Odtp /ZI
; File x:\github\renegade\dragonade_rxd\scripts\engine_io.cpp
;	COMDAT ?Read_Line@@YAHAAVStraw@@PADHAA_N@Z
_TEXT	SEGMENT
tv87 = -92						; size = 4
tv140 = -85						; size = 1
tv137 = -84						; size = 4
tv134 = -80						; size = 4
_getResult$1 = -12					; size = 4
_c$2 = -5						; size = 1
_i$ = -4						; size = 4
_straw$ = 8						; size = 4
_line$ = 12						; size = 4
_lineSize$ = 16						; size = 4
_isLast$ = 20						; size = 4
?Read_Line@@YAHAAVStraw@@PADHAA_N@Z PROC		; Read_Line, COMDAT

; 251  : {

	push	ebp
	mov	ebp, esp
	sub	esp, 92					; 0000005cH
	push	ebx
	push	esi
	push	edi

; 252  : 		if (!line || lineSize == 0)

	cmp	DWORD PTR _line$[ebp], 0
	je	SHORT $LN6@Read_Line
	cmp	DWORD PTR _lineSize$[ebp], 0
	jne	SHORT $LN7@Read_Line
$LN6@Read_Line:

; 253  : 				return 0;

	xor	eax, eax
	jmp	$LN8@Read_Line
$LN7@Read_Line:

; 254  : 		int i;
; 255  : 		for (i = 0;;)

	mov	DWORD PTR _i$[ebp], 0
$LN5@Read_Line:

; 256  : 		{
; 257  : 				char c;
; 258  : 				int getResult = straw.Get(&c, 1);

	push	1
	lea	eax, DWORD PTR _c$2[ebp]
	push	eax
	mov	ecx, DWORD PTR _straw$[ebp]
	mov	edx, DWORD PTR [ecx]
	mov	ecx, DWORD PTR _straw$[ebp]
	mov	eax, DWORD PTR [edx+8]
	call	eax
	mov	DWORD PTR _getResult$1[ebp], eax

; 259  : 				if (getResult != 1)

	cmp	DWORD PTR _getResult$1[ebp], 1
	je	SHORT $LN3@Read_Line

; 260  : 				{
; 261  : 						isLast = true;

	mov	eax, DWORD PTR _isLast$[ebp]
	mov	BYTE PTR [eax], 1

; 262  : 						break;

	jmp	SHORT $LN4@Read_Line
$LN3@Read_Line:

; 263  : 				}
; 264  : 				if (c == '\n')

	movsx	eax, BYTE PTR _c$2[ebp]
	cmp	eax, 10					; 0000000aH
	jne	SHORT $LN2@Read_Line

; 265  : 						break;

	jmp	SHORT $LN4@Read_Line
$LN2@Read_Line:

; 266  : 				if (c != '\r' && i + 1 < lineSize)

	movsx	eax, BYTE PTR _c$2[ebp]
	cmp	eax, 13					; 0000000dH
	je	SHORT $LN1@Read_Line
	mov	eax, DWORD PTR _i$[ebp]
	add	eax, 1
	cmp	eax, DWORD PTR _lineSize$[ebp]
	jge	SHORT $LN1@Read_Line

; 267  : 						line[i++] = c;

	mov	eax, DWORD PTR _line$[ebp]
	add	eax, DWORD PTR _i$[ebp]
	mov	cl, BYTE PTR _c$2[ebp]
	mov	BYTE PTR [eax], cl
	mov	edx, DWORD PTR _i$[ebp]
	add	edx, 1
	mov	DWORD PTR _i$[ebp], edx
$LN1@Read_Line:

; 268  : 		}

	jmp	SHORT $LN5@Read_Line
$LN4@Read_Line:

; 269  : 		line[i] = '\0';

	mov	eax, DWORD PTR _line$[ebp]
	add	eax, DWORD PTR _i$[ebp]
	mov	BYTE PTR [eax], 0

; 270  : 		strtrim(line);

	mov	eax, DWORD PTR _line$[ebp]
	push	eax
	call	?strtrim@@YAPADPAD@Z			; strtrim
	add	esp, 4

; 271  : 		return (int)strlen(line);

	mov	eax, DWORD PTR _line$[ebp]
	mov	DWORD PTR tv134[ebp], eax
	mov	ecx, DWORD PTR tv134[ebp]
	add	ecx, 1
	mov	DWORD PTR tv137[ebp], ecx
$LL10@Read_Line:
	mov	edx, DWORD PTR tv134[ebp]
	mov	al, BYTE PTR [edx]
	mov	BYTE PTR tv140[ebp], al
	add	DWORD PTR tv134[ebp], 1
	cmp	BYTE PTR tv140[ebp], 0
	jne	SHORT $LL10@Read_Line
	mov	ecx, DWORD PTR tv134[ebp]
	sub	ecx, DWORD PTR tv137[ebp]
	mov	DWORD PTR tv87[ebp], ecx
	mov	eax, DWORD PTR tv87[ebp]
$LN8@Read_Line:

; 272  : }

	pop	edi
	pop	esi
	pop	ebx
	mov	esp, ebp
	pop	ebp
	ret	0
?Read_Line@@YAHAAVStraw@@PADHAA_N@Z ENDP		; Read_Line
_TEXT	ENDS
; Function compile flags: /Odtp /ZI
;	COMDAT ??_G?$IndexClass@HPAUINISection@@@@QAEPAXI@Z
_TEXT	SEGMENT
_this$ = -4						; size = 4
___flags$ = 8						; size = 4
??_G?$IndexClass@HPAUINISection@@@@QAEPAXI@Z PROC	; IndexClass<int,INISection *>::`scalar deleting destructor', COMDAT
; _this$ = ecx
	push	ebp
	mov	ebp, esp
	sub	esp, 68					; 00000044H
	push	ebx
	push	esi
	push	edi
	mov	DWORD PTR _this$[ebp], ecx
	mov	ecx, DWORD PTR _this$[ebp]
	call	??1?$IndexClass@HPAUINISection@@@@QAE@XZ ; IndexClass<int,INISection *>::~IndexClass<int,INISection *>
	mov	eax, DWORD PTR ___flags$[ebp]
	and	eax, 1
	je	SHORT $LN1@scalar
	mov	eax, DWORD PTR _this$[ebp]
	push	eax
	call	??3@YAXPAX@Z				; operator delete
	add	esp, 4
$LN1@scalar:
	mov	eax, DWORD PTR _this$[ebp]
	pop	edi
	pop	esi
	pop	ebx
	mov	esp, ebp
	pop	ebp
	ret	4
??_G?$IndexClass@HPAUINISection@@@@QAEPAXI@Z ENDP	; IndexClass<int,INISection *>::`scalar deleting destructor'
_TEXT	ENDS
; Function compile flags: /Odtp /ZI
; File x:\github\renegade\dragonade_rxd\scripts\engine_vector.h
;	COMDAT ?Increase_Table_Size@?$IndexClass@HPAUINISection@@@@QAE_NH@Z
_TEXT	SEGMENT
tv87 = -100						; size = 4
tv89 = -96						; size = 4
$T1 = -92						; size = 4
$T2 = -88						; size = 4
$T3 = -84						; size = 4
_i$4 = -16						; size = 4
_newindex$5 = -12					; size = 4
_newsize$6 = -8						; size = 4
_this$ = -4						; size = 4
_amount$ = 8						; size = 4
?Increase_Table_Size@?$IndexClass@HPAUINISection@@@@QAE_NH@Z PROC ; IndexClass<int,INISection *>::Increase_Table_Size, COMDAT
; _this$ = ecx

; 1297 : 	{

	push	ebp
	mov	ebp, esp
	sub	esp, 100				; 00000064H
	push	ebx
	push	esi
	push	edi
	mov	DWORD PTR _this$[ebp], ecx

; 1298 : 		if (amount >= 0)

	cmp	DWORD PTR _amount$[ebp], 0
	jl	$LN10@Increase_T

; 1299 : 		{
; 1300 : 			int newsize = IndexSize + amount;

	mov	eax, DWORD PTR _this$[ebp]
	mov	ecx, DWORD PTR [eax+8]
	add	ecx, DWORD PTR _amount$[ebp]
	mov	DWORD PTR _newsize$6[ebp], ecx

; 1301 : 			NodeElement *newindex = new NodeElement[newsize];

	push	OFFSET ??_C@_0DJ@IHGELHP@IndexClass?$DMint?0struct?5INISection@
	push	1301					; 00000515H
	push	OFFSET ??_C@_0DJ@NKJHEMPA@x?3?2github?2renegade?2dragonade_rxd@
	call	?SetThreadTrackingInformation@@YAXPBDI0@Z ; SetThreadTrackingInformation
	add	esp, 12					; 0000000cH
	xor	eax, eax
	je	SHORT $LN16@Increase_T
	xor	ecx, ecx
	jne	SHORT $LN13@Increase_T
	push	1301					; 00000515H
	push	OFFSET ??_C@_1HC@JEIHKHFK@?$AAx?$AA?3?$AA?2?$AAg?$AAi?$AAt?$AAh?$AAu?$AAb?$AA?2?$AAr?$AAe?$AAn?$AAe?$AAg?$AAa?$AAd?$AAe?$AA?2?$AAd?$AAr?$AAa?$AAg?$AAo?$AAn?$AAa?$AAd?$AAe?$AA_?$AAr?$AAx?$AAd@
	push	OFFSET ??_C@_1M@HLGKFCJM@?$AAf?$AAa?$AAl?$AAs?$AAe?$AA?$AA@
	call	DWORD PTR __imp___wassert
	add	esp, 12					; 0000000cH
$LN13@Increase_T:
	mov	DWORD PTR tv89[ebp], 0
	jmp	SHORT $LN17@Increase_T
$LN16@Increase_T:
	mov	eax, DWORD PTR _newsize$6[ebp]
	mov	DWORD PTR $T1[ebp], eax
	xor	ecx, ecx
	mov	eax, DWORD PTR $T1[ebp]
	mov	edx, 8
	mul	edx
	seto	cl
	neg	ecx
	or	ecx, eax
	push	ecx
	call	??_U@YAPAXI@Z				; operator new[]
	add	esp, 4
	mov	DWORD PTR $T2[ebp], eax
	cmp	DWORD PTR $T2[ebp], 0
	je	SHORT $LN14@Increase_T
	push	OFFSET ??0NodeElement@?$IndexClass@HPAUINISection@@@@QAE@XZ ; IndexClass<int,INISection *>::NodeElement::NodeElement
	mov	eax, DWORD PTR $T1[ebp]
	push	eax
	push	8
	mov	ecx, DWORD PTR $T2[ebp]
	push	ecx
	call	??_H@YGXPAXIHP6EPAX0@Z@Z
	mov	edx, DWORD PTR $T2[ebp]
	mov	DWORD PTR tv87[ebp], edx
	jmp	SHORT $LN15@Increase_T
$LN14@Increase_T:
	mov	DWORD PTR tv87[ebp], 0
$LN15@Increase_T:
	mov	eax, DWORD PTR tv87[ebp]
	mov	DWORD PTR tv89[ebp], eax
$LN17@Increase_T:
	mov	ecx, DWORD PTR tv89[ebp]
	mov	DWORD PTR _newindex$5[ebp], ecx

; 1302 : 			if (newindex)

	cmp	DWORD PTR _newindex$5[ebp], 0
	je	$LN10@Increase_T
$LN7@Increase_T:

; 1303 : 			{
; 1304 : 				TT_ASSERT(IndexCount < newsize);

	xor	eax, eax
	jne	SHORT $LN7@Increase_T
	mov	eax, DWORD PTR _this$[ebp]
	mov	ecx, DWORD PTR [eax+4]
	cmp	ecx, DWORD PTR _newsize$6[ebp]
	jl	SHORT $LN5@Increase_T
	int	3
$LN5@Increase_T:

; 1305 : 				for (int i = 0;i < this->IndexCount;i++)

	mov	DWORD PTR _i$4[ebp], 0
	jmp	SHORT $LN4@Increase_T
$LN3@Increase_T:
	mov	eax, DWORD PTR _i$4[ebp]
	add	eax, 1
	mov	DWORD PTR _i$4[ebp], eax
$LN4@Increase_T:
	mov	eax, DWORD PTR _this$[ebp]
	mov	ecx, DWORD PTR _i$4[ebp]
	cmp	ecx, DWORD PTR [eax+4]
	jge	SHORT $LN2@Increase_T

; 1306 : 				{
; 1307 : 					newindex[i].ID = IndexTable[i].ID;

	mov	eax, DWORD PTR _this$[ebp]
	mov	ecx, DWORD PTR [eax]
	mov	edx, DWORD PTR _i$4[ebp]
	mov	eax, DWORD PTR _newindex$5[ebp]
	mov	esi, DWORD PTR _i$4[ebp]
	mov	ecx, DWORD PTR [ecx+esi*8]
	mov	DWORD PTR [eax+edx*8], ecx

; 1308 : 					newindex[i].Data = IndexTable[i].Data;

	mov	eax, DWORD PTR _this$[ebp]
	mov	ecx, DWORD PTR [eax]
	mov	edx, DWORD PTR _i$4[ebp]
	mov	eax, DWORD PTR _newindex$5[ebp]
	mov	esi, DWORD PTR _i$4[ebp]
	mov	ecx, DWORD PTR [ecx+esi*8+4]
	mov	DWORD PTR [eax+edx*8+4], ecx

; 1309 : 				}

	jmp	SHORT $LN3@Increase_T
$LN2@Increase_T:

; 1310 : 				if (IndexTable)

	mov	eax, DWORD PTR _this$[ebp]
	cmp	DWORD PTR [eax], 0
	je	SHORT $LN1@Increase_T

; 1311 : 					delete[] IndexTable;

	push	OFFSET ??_C@_0DJ@IHGELHP@IndexClass?$DMint?0struct?5INISection@
	push	1311					; 0000051fH
	push	OFFSET ??_C@_0DJ@NKJHEMPA@x?3?2github?2renegade?2dragonade_rxd@
	call	?SetThreadTrackingInformation@@YAXPBDI0@Z ; SetThreadTrackingInformation
	add	esp, 12					; 0000000cH
	xor	eax, eax
	je	SHORT $LN19@Increase_T
	xor	ecx, ecx
	jne	SHORT $LN18@Increase_T
	push	1311					; 0000051fH
	push	OFFSET ??_C@_1HC@JEIHKHFK@?$AAx?$AA?3?$AA?2?$AAg?$AAi?$AAt?$AAh?$AAu?$AAb?$AA?2?$AAr?$AAe?$AAn?$AAe?$AAg?$AAa?$AAd?$AAe?$AA?2?$AAd?$AAr?$AAa?$AAg?$AAo?$AAn?$AAa?$AAd?$AAe?$AA_?$AAr?$AAx?$AAd@
	push	OFFSET ??_C@_1M@HLGKFCJM@?$AAf?$AAa?$AAl?$AAs?$AAe?$AA?$AA@
	call	DWORD PTR __imp___wassert
	add	esp, 12					; 0000000cH
$LN18@Increase_T:
	jmp	SHORT $LN1@Increase_T
$LN19@Increase_T:
	mov	eax, DWORD PTR _this$[ebp]
	mov	ecx, DWORD PTR [eax]
	mov	DWORD PTR $T3[ebp], ecx
	mov	edx, DWORD PTR $T3[ebp]
	push	edx
	call	??_V@YAXPAX@Z				; operator delete[]
	add	esp, 4
$LN1@Increase_T:

; 1312 : 				IndexTable = newindex;

	mov	eax, DWORD PTR _this$[ebp]
	mov	ecx, DWORD PTR _newindex$5[ebp]
	mov	DWORD PTR [eax], ecx

; 1313 : 				IndexSize += amount;

	mov	eax, DWORD PTR _this$[ebp]
	mov	ecx, DWORD PTR [eax+8]
	add	ecx, DWORD PTR _amount$[ebp]
	mov	edx, DWORD PTR _this$[ebp]
	mov	DWORD PTR [edx+8], ecx

; 1314 : 				Invalidate_Archive();

	mov	ecx, DWORD PTR _this$[ebp]
	call	?Invalidate_Archive@?$IndexClass@HPAUINISection@@@@QAEXXZ ; IndexClass<int,INISection *>::Invalidate_Archive

; 1315 : 				return true;

	mov	al, 1
	jmp	SHORT $LN11@Increase_T
$LN10@Increase_T:

; 1316 : 			}
; 1317 : 		}
; 1318 : 		return false;

	xor	al, al
$LN11@Increase_T:

; 1319 : 	}

	pop	edi
	pop	esi
	pop	ebx
	mov	esp, ebp
	pop	ebp
	ret	4
?Increase_Table_Size@?$IndexClass@HPAUINISection@@@@QAE_NH@Z ENDP ; IndexClass<int,INISection *>::Increase_Table_Size
_TEXT	ENDS
; Function compile flags: /Odtp /ZI
; File x:\github\renegade\dragonade_rxd\scripts\engine_vector.h
;	COMDAT ?Clear@?$IndexClass@HPAUINISection@@@@QAEXXZ
_TEXT	SEGMENT
$T1 = -72						; size = 4
_this$ = -4						; size = 4
?Clear@?$IndexClass@HPAUINISection@@@@QAEXXZ PROC	; IndexClass<int,INISection *>::Clear, COMDAT
; _this$ = ecx

; 1262 : 	{

	push	ebp
	mov	ebp, esp
	sub	esp, 72					; 00000048H
	push	ebx
	push	esi
	push	edi
	mov	DWORD PTR _this$[ebp], ecx

; 1263 : 		if (IndexTable)

	mov	eax, DWORD PTR _this$[ebp]
	cmp	DWORD PTR [eax], 0
	je	SHORT $LN1@Clear

; 1264 : 		{
; 1265 : 			delete[] IndexTable;

	push	OFFSET ??_C@_0CL@POINCKL@IndexClass?$DMint?0struct?5INISection@
	push	1265					; 000004f1H
	push	OFFSET ??_C@_0DJ@NKJHEMPA@x?3?2github?2renegade?2dragonade_rxd@
	call	?SetThreadTrackingInformation@@YAXPBDI0@Z ; SetThreadTrackingInformation
	add	esp, 12					; 0000000cH
	xor	eax, eax
	je	SHORT $LN5@Clear
	xor	ecx, ecx
	jne	SHORT $LN4@Clear
	push	1265					; 000004f1H
	push	OFFSET ??_C@_1HC@JEIHKHFK@?$AAx?$AA?3?$AA?2?$AAg?$AAi?$AAt?$AAh?$AAu?$AAb?$AA?2?$AAr?$AAe?$AAn?$AAe?$AAg?$AAa?$AAd?$AAe?$AA?2?$AAd?$AAr?$AAa?$AAg?$AAo?$AAn?$AAa?$AAd?$AAe?$AA_?$AAr?$AAx?$AAd@
	push	OFFSET ??_C@_1M@HLGKFCJM@?$AAf?$AAa?$AAl?$AAs?$AAe?$AA?$AA@
	call	DWORD PTR __imp___wassert
	add	esp, 12					; 0000000cH
$LN4@Clear:
	jmp	SHORT $LN1@Clear
$LN5@Clear:
	mov	eax, DWORD PTR _this$[ebp]
	mov	ecx, DWORD PTR [eax]
	mov	DWORD PTR $T1[ebp], ecx
	mov	edx, DWORD PTR $T1[ebp]
	push	edx
	call	??_V@YAXPAX@Z				; operator delete[]
	add	esp, 4
$LN1@Clear:

; 1266 : 		}
; 1267 : 		IndexTable = 0;

	mov	eax, DWORD PTR _this$[ebp]
	mov	DWORD PTR [eax], 0

; 1268 : 		IndexCount = 0;

	mov	eax, DWORD PTR _this$[ebp]
	mov	DWORD PTR [eax+4], 0

; 1269 : 		IndexSize = 0;

	mov	eax, DWORD PTR _this$[ebp]
	mov	DWORD PTR [eax+8], 0

; 1270 : 		IsSorted = 0;

	mov	eax, DWORD PTR _this$[ebp]
	mov	BYTE PTR [eax+12], 0

; 1271 : 		Invalidate_Archive();

	mov	ecx, DWORD PTR _this$[ebp]
	call	?Invalidate_Archive@?$IndexClass@HPAUINISection@@@@QAEXXZ ; IndexClass<int,INISection *>::Invalidate_Archive

; 1272 : 	}

	pop	edi
	pop	esi
	pop	ebx
	mov	esp, ebp
	pop	ebp
	ret	0
?Clear@?$IndexClass@HPAUINISection@@@@QAEXXZ ENDP	; IndexClass<int,INISection *>::Clear
_TEXT	ENDS
; Function compile flags: /Odtp /ZI
; File x:\github\renegade\dragonade_rxd\scripts\engine_vector.h
;	COMDAT ?Invalidate_Archive@?$IndexClass@HPAUINISection@@@@QAEXXZ
_TEXT	SEGMENT
_this$ = -4						; size = 4
?Invalidate_Archive@?$IndexClass@HPAUINISection@@@@QAEXXZ PROC ; IndexClass<int,INISection *>::Invalidate_Archive, COMDAT
; _this$ = ecx

; 1258 : 	{

	push	ebp
	mov	ebp, esp
	sub	esp, 68					; 00000044H
	push	ebx
	push	esi
	push	edi
	mov	DWORD PTR _this$[ebp], ecx

; 1259 : 		Archive = 0;

	mov	eax, DWORD PTR _this$[ebp]
	mov	DWORD PTR [eax+16], 0

; 1260 : 	}

	pop	edi
	pop	esi
	pop	ebx
	mov	esp, ebp
	pop	ebp
	ret	0
?Invalidate_Archive@?$IndexClass@HPAUINISection@@@@QAEXXZ ENDP ; IndexClass<int,INISection *>::Invalidate_Archive
_TEXT	ENDS
; Function compile flags: /Odtp /ZI
; File x:\github\renegade\dragonade_rxd\scripts\engine_vector.h
;	COMDAT ?Count@?$IndexClass@HPAUINISection@@@@QBEHXZ
_TEXT	SEGMENT
_this$ = -4						; size = 4
?Count@?$IndexClass@HPAUINISection@@@@QBEHXZ PROC	; IndexClass<int,INISection *>::Count, COMDAT
; _this$ = ecx

; 1245 : 	{

	push	ebp
	mov	ebp, esp
	sub	esp, 68					; 00000044H
	push	ebx
	push	esi
	push	edi
	mov	DWORD PTR _this$[ebp], ecx

; 1246 : 		return IndexCount;

	mov	eax, DWORD PTR _this$[ebp]
	mov	eax, DWORD PTR [eax+4]

; 1247 : 	}

	pop	edi
	pop	esi
	pop	ebx
	mov	esp, ebp
	pop	ebp
	ret	0
?Count@?$IndexClass@HPAUINISection@@@@QBEHXZ ENDP	; IndexClass<int,INISection *>::Count
_TEXT	ENDS
; Function compile flags: /Odtp /ZI
; File x:\github\renegade\dragonade_rxd\scripts\engine_vector.h
;	COMDAT ?Add_Index@?$IndexClass@HPAUINISection@@@@QAE_NABHABQAUINISection@@@Z
_TEXT	SEGMENT
_size$ = -8						; size = 4
_this$ = -4						; size = 4
_ID$ = 8						; size = 4
_Data$ = 12						; size = 4
?Add_Index@?$IndexClass@HPAUINISection@@@@QAE_NABHABQAUINISection@@@Z PROC ; IndexClass<int,INISection *>::Add_Index, COMDAT
; _this$ = ecx

; 1219 : 	{

	push	ebp
	mov	ebp, esp
	sub	esp, 72					; 00000048H
	push	ebx
	push	esi
	push	edi
	mov	DWORD PTR _this$[ebp], ecx

; 1220 : 		if (IndexCount + 1 <= IndexSize)

	mov	eax, DWORD PTR _this$[ebp]
	mov	ecx, DWORD PTR [eax+4]
	add	ecx, 1
	mov	edx, DWORD PTR _this$[ebp]
	cmp	ecx, DWORD PTR [edx+8]
	jg	SHORT $LN4@Add_Index

; 1221 : 		{
; 1222 : 			IndexTable[IndexCount].ID = ID;

	mov	eax, DWORD PTR _this$[ebp]
	mov	ecx, DWORD PTR [eax+4]
	mov	edx, DWORD PTR _this$[ebp]
	mov	eax, DWORD PTR [edx]
	mov	edx, DWORD PTR _ID$[ebp]
	mov	edx, DWORD PTR [edx]
	mov	DWORD PTR [eax+ecx*8], edx

; 1223 : 			IndexTable[IndexCount++].Data = Data;

	mov	eax, DWORD PTR _this$[ebp]
	mov	ecx, DWORD PTR [eax+4]
	mov	edx, DWORD PTR _this$[ebp]
	mov	eax, DWORD PTR [edx]
	mov	edx, DWORD PTR _Data$[ebp]
	mov	edx, DWORD PTR [edx]
	mov	DWORD PTR [eax+ecx*8+4], edx
	mov	eax, DWORD PTR _this$[ebp]
	mov	ecx, DWORD PTR [eax+4]
	add	ecx, 1
	mov	edx, DWORD PTR _this$[ebp]
	mov	DWORD PTR [edx+4], ecx

; 1224 : 			IsSorted = false;

	mov	eax, DWORD PTR _this$[ebp]
	mov	BYTE PTR [eax+12], 0

; 1225 : 			return true;

	mov	al, 1
	jmp	SHORT $LN5@Add_Index
$LN4@Add_Index:

; 1226 : 		}
; 1227 : 		int size = IndexSize;

	mov	eax, DWORD PTR _this$[ebp]
	mov	ecx, DWORD PTR [eax+8]
	mov	DWORD PTR _size$[ebp], ecx

; 1228 : 		if (!size)

	cmp	DWORD PTR _size$[ebp], 0
	jne	SHORT $LN3@Add_Index

; 1229 : 		{
; 1230 : 			size = 10;

	mov	DWORD PTR _size$[ebp], 10		; 0000000aH
$LN3@Add_Index:

; 1231 : 		}
; 1232 : 		if (Increase_Table_Size(size))

	mov	eax, DWORD PTR _size$[ebp]
	push	eax
	mov	ecx, DWORD PTR _this$[ebp]
	call	?Increase_Table_Size@?$IndexClass@HPAUINISection@@@@QAE_NH@Z ; IndexClass<int,INISection *>::Increase_Table_Size
	movzx	ecx, al
	test	ecx, ecx
	je	SHORT $LN2@Add_Index

; 1233 : 		{
; 1234 : 			IndexTable[IndexCount].ID = ID;

	mov	eax, DWORD PTR _this$[ebp]
	mov	ecx, DWORD PTR [eax+4]
	mov	edx, DWORD PTR _this$[ebp]
	mov	eax, DWORD PTR [edx]
	mov	edx, DWORD PTR _ID$[ebp]
	mov	edx, DWORD PTR [edx]
	mov	DWORD PTR [eax+ecx*8], edx

; 1235 : 			IndexTable[IndexCount++].Data = Data;

	mov	eax, DWORD PTR _this$[ebp]
	mov	ecx, DWORD PTR [eax+4]
	mov	edx, DWORD PTR _this$[ebp]
	mov	eax, DWORD PTR [edx]
	mov	edx, DWORD PTR _Data$[ebp]
	mov	edx, DWORD PTR [edx]
	mov	DWORD PTR [eax+ecx*8+4], edx
	mov	eax, DWORD PTR _this$[ebp]
	mov	ecx, DWORD PTR [eax+4]
	add	ecx, 1
	mov	edx, DWORD PTR _this$[ebp]
	mov	DWORD PTR [edx+4], ecx

; 1236 : 			IsSorted = false;

	mov	eax, DWORD PTR _this$[ebp]
	mov	BYTE PTR [eax+12], 0

; 1237 : 			return true;

	mov	al, 1
	jmp	SHORT $LN5@Add_Index

; 1238 : 		}
; 1239 : 		else

	jmp	SHORT $LN5@Add_Index
$LN2@Add_Index:

; 1240 : 		{
; 1241 : 			return false;

	xor	al, al
$LN5@Add_Index:

; 1242 : 		}
; 1243 : 	}

	pop	edi
	pop	esi
	pop	ebx
	mov	esp, ebp
	pop	ebp
	ret	8
?Add_Index@?$IndexClass@HPAUINISection@@@@QAE_NABHABQAUINISection@@@Z ENDP ; IndexClass<int,INISection *>::Add_Index
_TEXT	ENDS
; Function compile flags: /Odtp /ZI
; File x:\github\renegade\dragonade_rxd\scripts\engine_vector.h
;	COMDAT ?Remove_Index@?$IndexClass@HPAUINISection@@@@QAE_NABH@Z
_TEXT	SEGMENT
_i$1 = -16						; size = 4
_i$2 = -12						; size = 4
_pos$ = -8						; size = 4
_this$ = -4						; size = 4
_ID$ = 8						; size = 4
?Remove_Index@?$IndexClass@HPAUINISection@@@@QAE_NABH@Z PROC ; IndexClass<int,INISection *>::Remove_Index, COMDAT
; _this$ = ecx

; 1167 : 	{

	push	ebp
	mov	ebp, esp
	sub	esp, 80					; 00000050H
	push	ebx
	push	esi
	push	edi
	mov	DWORD PTR _this$[ebp], ecx

; 1168 : 		int pos = -1;

	mov	DWORD PTR _pos$[ebp], -1

; 1169 : 		for (int i = 0;i < IndexCount;i++)

	mov	DWORD PTR _i$2[ebp], 0
	jmp	SHORT $LN9@Remove_Ind
$LN8@Remove_Ind:
	mov	eax, DWORD PTR _i$2[ebp]
	add	eax, 1
	mov	DWORD PTR _i$2[ebp], eax
$LN9@Remove_Ind:
	mov	eax, DWORD PTR _this$[ebp]
	mov	ecx, DWORD PTR _i$2[ebp]
	cmp	ecx, DWORD PTR [eax+4]
	jge	SHORT $LN7@Remove_Ind

; 1170 : 		{
; 1171 : 			if (IndexTable[i].ID == ID)

	mov	eax, DWORD PTR _this$[ebp]
	mov	ecx, DWORD PTR [eax]
	mov	edx, DWORD PTR _i$2[ebp]
	mov	eax, DWORD PTR _ID$[ebp]
	mov	ecx, DWORD PTR [ecx+edx*8]
	cmp	ecx, DWORD PTR [eax]
	jne	SHORT $LN6@Remove_Ind

; 1172 : 			{
; 1173 : 				pos = i;

	mov	eax, DWORD PTR _i$2[ebp]
	mov	DWORD PTR _pos$[ebp], eax

; 1174 : 				break;

	jmp	SHORT $LN7@Remove_Ind
$LN6@Remove_Ind:

; 1175 : 			}
; 1176 : 		}

	jmp	SHORT $LN8@Remove_Ind
$LN7@Remove_Ind:

; 1177 : 		if (pos == -1)

	cmp	DWORD PTR _pos$[ebp], -1
	jne	SHORT $LN5@Remove_Ind

; 1178 : 		{
; 1179 : 			return false;

	xor	al, al
	jmp	SHORT $LN10@Remove_Ind

; 1180 : 		}
; 1181 : 		else

	jmp	SHORT $LN4@Remove_Ind
$LN5@Remove_Ind:

; 1182 : 		{
; 1183 : 			for (int i = pos;i < IndexCount;i++)

	mov	eax, DWORD PTR _pos$[ebp]
	mov	DWORD PTR _i$1[ebp], eax
	jmp	SHORT $LN3@Remove_Ind
$LN2@Remove_Ind:
	mov	eax, DWORD PTR _i$1[ebp]
	add	eax, 1
	mov	DWORD PTR _i$1[ebp], eax
$LN3@Remove_Ind:
	mov	eax, DWORD PTR _this$[ebp]
	mov	ecx, DWORD PTR _i$1[ebp]
	cmp	ecx, DWORD PTR [eax+4]
	jge	SHORT $LN4@Remove_Ind

; 1184 : 			{
; 1185 : 				IndexTable[i] = IndexTable[i+1];

	mov	eax, DWORD PTR _this$[ebp]
	mov	ecx, DWORD PTR [eax]
	mov	edx, DWORD PTR _i$1[ebp]
	mov	eax, DWORD PTR [ecx+edx*8+8]
	mov	ecx, DWORD PTR [ecx+edx*8+12]
	mov	edx, DWORD PTR _this$[ebp]
	mov	edx, DWORD PTR [edx]
	mov	esi, DWORD PTR _i$1[ebp]
	mov	DWORD PTR [edx+esi*8], eax
	mov	DWORD PTR [edx+esi*8+4], ecx

; 1186 : 			}

	jmp	SHORT $LN2@Remove_Ind
$LN4@Remove_Ind:

; 1187 : 		}
; 1188 : 		IndexCount--;

	mov	eax, DWORD PTR _this$[ebp]
	mov	ecx, DWORD PTR [eax+4]
	sub	ecx, 1
	mov	edx, DWORD PTR _this$[ebp]
	mov	DWORD PTR [edx+4], ecx

; 1189 : 		IndexTable[IndexCount].ID = 0;

	mov	eax, DWORD PTR _this$[ebp]
	mov	ecx, DWORD PTR [eax+4]
	mov	edx, DWORD PTR _this$[ebp]
	mov	eax, DWORD PTR [edx]
	mov	DWORD PTR [eax+ecx*8], 0

; 1190 : 		IndexTable[IndexCount].Data = 0;

	mov	eax, DWORD PTR _this$[ebp]
	mov	ecx, DWORD PTR [eax+4]
	mov	edx, DWORD PTR _this$[ebp]
	mov	eax, DWORD PTR [edx]
	mov	DWORD PTR [eax+ecx*8+4], 0

; 1191 : 		Invalidate_Archive();

	mov	ecx, DWORD PTR _this$[ebp]
	call	?Invalidate_Archive@?$IndexClass@HPAUINISection@@@@QAEXXZ ; IndexClass<int,INISection *>::Invalidate_Archive

; 1192 : 		return true;

	mov	al, 1
$LN10@Remove_Ind:

; 1193 : 	}

	pop	edi
	pop	esi
	pop	ebx
	mov	esp, ebp
	pop	ebp
	ret	4
?Remove_Index@?$IndexClass@HPAUINISection@@@@QAE_NABH@Z ENDP ; IndexClass<int,INISection *>::Remove_Index
_TEXT	ENDS
; Function compile flags: /Odtp /ZI
; File x:\github\renegade\dragonade_rxd\scripts\engine_vector.h
;	COMDAT ??1?$IndexClass@HPAUINISection@@@@QAE@XZ
_TEXT	SEGMENT
_this$ = -4						; size = 4
??1?$IndexClass@HPAUINISection@@@@QAE@XZ PROC		; IndexClass<int,INISection *>::~IndexClass<int,INISection *>, COMDAT
; _this$ = ecx

; 1163 : 	{

	push	ebp
	mov	ebp, esp
	sub	esp, 68					; 00000044H
	push	ebx
	push	esi
	push	edi
	mov	DWORD PTR _this$[ebp], ecx

; 1164 : 		Clear();

	mov	ecx, DWORD PTR _this$[ebp]
	call	?Clear@?$IndexClass@HPAUINISection@@@@QAEXXZ ; IndexClass<int,INISection *>::Clear

; 1165 : 	}

	pop	edi
	pop	esi
	pop	ebx
	mov	esp, ebp
	pop	ebp
	ret	0
??1?$IndexClass@HPAUINISection@@@@QAE@XZ ENDP		; IndexClass<int,INISection *>::~IndexClass<int,INISection *>
_TEXT	ENDS
; Function compile flags: /Odtp /ZI
; File x:\github\renegade\dragonade_rxd\scripts\engine_vector.h
;	COMDAT ??0?$IndexClass@HPAUINISection@@@@QAE@XZ
_TEXT	SEGMENT
_this$ = -4						; size = 4
??0?$IndexClass@HPAUINISection@@@@QAE@XZ PROC		; IndexClass<int,INISection *>::IndexClass<int,INISection *>, COMDAT
; _this$ = ecx

; 1159 : 	{

	push	ebp
	mov	ebp, esp
	sub	esp, 68					; 00000044H
	push	ebx
	push	esi
	push	edi
	mov	DWORD PTR _this$[ebp], ecx
	mov	eax, DWORD PTR _this$[ebp]
	mov	DWORD PTR [eax], 0
	mov	eax, DWORD PTR _this$[ebp]
	mov	DWORD PTR [eax+4], 0
	mov	eax, DWORD PTR _this$[ebp]
	mov	DWORD PTR [eax+8], 0
	mov	eax, DWORD PTR _this$[ebp]
	mov	BYTE PTR [eax+12], 0
	mov	eax, DWORD PTR _this$[ebp]
	mov	DWORD PTR [eax+16], 0

; 1160 : 		Invalidate_Archive();

	mov	ecx, DWORD PTR _this$[ebp]
	call	?Invalidate_Archive@?$IndexClass@HPAUINISection@@@@QAEXXZ ; IndexClass<int,INISection *>::Invalidate_Archive

; 1161 : 	}

	mov	eax, DWORD PTR _this$[ebp]
	pop	edi
	pop	esi
	pop	ebx
	mov	esp, ebp
	pop	ebp
	ret	0
??0?$IndexClass@HPAUINISection@@@@QAE@XZ ENDP		; IndexClass<int,INISection *>::IndexClass<int,INISection *>
_TEXT	ENDS
; Function compile flags: /Odtp /ZI
; File x:\github\renegade\dragonade_rxd\scripts\engine_io.cpp
;	COMDAT ?Read_Paths@@YAXXZ
_TEXT	SEGMENT
tv716 = -2729						; size = 1
tv622 = -2729						; size = 1
tv513 = -2729						; size = 1
tv713 = -2728						; size = 4
tv619 = -2728						; size = 4
tv510 = -2728						; size = 4
tv671 = -2725						; size = 1
tv577 = -2725						; size = 1
tv468 = -2725						; size = 1
tv710 = -2724						; size = 4
tv668 = -2724						; size = 4
tv616 = -2724						; size = 4
tv574 = -2724						; size = 4
tv507 = -2724						; size = 4
tv465 = -2724						; size = 4
tv709 = -2720						; size = 4
tv665 = -2720						; size = 4
tv615 = -2720						; size = 4
tv571 = -2720						; size = 4
tv506 = -2720						; size = 4
tv462 = -2720						; size = 4
tv664 = -2716						; size = 4
tv570 = -2716						; size = 4
tv461 = -2716						; size = 4
tv704 = -2713						; size = 1
tv610 = -2713						; size = 1
tv501 = -2713						; size = 1
tv701 = -2712						; size = 4
tv607 = -2712						; size = 4
tv498 = -2712						; size = 4
tv659 = -2709						; size = 1
tv565 = -2709						; size = 1
tv456 = -2709						; size = 1
tv699 = -2708						; size = 4
tv656 = -2708						; size = 4
tv605 = -2708						; size = 4
tv562 = -2708						; size = 4
tv496 = -2708						; size = 4
tv453 = -2708						; size = 4
tv690 = -2705						; size = 1
tv641 = -2705						; size = 1
tv596 = -2705						; size = 1
tv553 = -2705						; size = 1
tv532 = -2705						; size = 1
tv487 = -2705						; size = 1
tv412 = -2705						; size = 1
tv687 = -2704						; size = 4
tv654 = -2704						; size = 4
tv638 = -2704						; size = 4
tv593 = -2704						; size = 4
tv560 = -2704						; size = 4
tv550 = -2704						; size = 4
tv529 = -2704						; size = 4
tv484 = -2704						; size = 4
tv451 = -2704						; size = 4
tv409 = -2704						; size = 4
tv317 = -2704						; size = 4
tv293 = -2704						; size = 4
tv231 = -2704						; size = 4
tv68 = -2704						; size = 4
tv65 = -2701						; size = 1
_value$1 = -2636					; size = 2
_i$2 = -2632						; size = 4
_unicode$3 = -2625					; size = 1
_fpath$4 = -2624					; size = 520
_value$5 = -2104					; size = 2
_i$6 = -2100						; size = 4
_unicode$7 = -2093					; size = 1
_fpath$8 = -2092					; size = 520
_ini$ = -1572						; size = 4
_UseRenFolder$ = -1565					; size = 1
_FileFDS$ = -1564					; size = 260
_FileClient$ = -1304					; size = 260
_FileBase$ = -1044					; size = 260
_RegFDS$ = -784						; size = 260
_RegClient$ = -524					; size = 260
_RegBase$ = -264					; size = 260
_isClient$ = -1						; size = 1
?Read_Paths@@YAXXZ PROC					; Read_Paths, COMDAT

; 55   : {

	push	ebp
	mov	ebp, esp
	sub	esp, 2732				; 00000aacH
	push	ebx
	push	esi
	push	edi

; 56   : #ifndef EXTERNAL
; 57   : 	const bool isClient = (Exe == 0);

	cmp	DWORD PTR ?Exe@@3HA, 0			; Exe
	jne	SHORT $LN21@Read_Paths
	mov	BYTE PTR tv65[ebp], 1
	jmp	SHORT $LN22@Read_Paths
$LN21@Read_Paths:
	mov	BYTE PTR tv65[ebp], 0
$LN22@Read_Paths:
	mov	al, BYTE PTR tv65[ebp]
	mov	BYTE PTR _isClient$[ebp], al

; 58   : #else
; 59   : #if defined(PACKAGEEDITOR)
; 60   : 	const bool isClient = false;
; 61   : #else
; 62   : 	const bool isClient = true;
; 63   : #endif
; 64   : #endif
; 65   : 
; 66   : 	char RegBase[MAX_PATH];
; 67   : 	char RegClient[MAX_PATH];
; 68   : 	char RegFDS[MAX_PATH];
; 69   : 	char FileBase[MAX_PATH];
; 70   : 	char FileClient[MAX_PATH];
; 71   : 	char FileFDS[MAX_PATH];
; 72   : 
; 73   : 	bool UseRenFolder = !isClient;

	movzx	eax, BYTE PTR _isClient$[ebp]
	test	eax, eax
	jne	SHORT $LN23@Read_Paths
	mov	DWORD PTR tv68[ebp], 1
	jmp	SHORT $LN24@Read_Paths
$LN23@Read_Paths:
	mov	DWORD PTR tv68[ebp], 0
$LN24@Read_Paths:
	mov	cl, BYTE PTR tv68[ebp]
	mov	BYTE PTR _UseRenFolder$[ebp], cl

; 74   : 	INIClass *ini = Get_INI("paths.ini");

	push	OFFSET ??_C@_09HCHIHKFJ@paths?4ini?$AA@
	call	?Get_INI@@YAPAVINIClass@@PBD@Z		; Get_INI
	add	esp, 4
	mov	DWORD PTR _ini$[ebp], eax

; 75   : 	if (ini)

	cmp	DWORD PTR _ini$[ebp], 0
	je	$LN18@Read_Paths

; 76   : 	{
; 77   : 		ini->Get_String("paths","RegBase","Westwood",RegBase,MAX_PATH);

	push	260					; 00000104H
	lea	eax, DWORD PTR _RegBase$[ebp]
	push	eax
	push	OFFSET ??_C@_08LAFABFGE@Westwood?$AA@
	push	OFFSET ??_C@_07KODFFKCJ@RegBase?$AA@
	push	OFFSET ??_C@_05EHMGIKAG@paths?$AA@
	mov	ecx, DWORD PTR _ini$[ebp]
	call	?Get_String@INIClass@@QBEHPBD00PADH@Z	; INIClass::Get_String

; 78   : 		ini->Get_String("paths","RegClient","Renegade",RegClient,MAX_PATH);

	push	260					; 00000104H
	lea	eax, DWORD PTR _RegClient$[ebp]
	push	eax
	push	OFFSET ??_C@_08KBDFECAK@Renegade?$AA@
	push	OFFSET ??_C@_09PGFLEEKF@RegClient?$AA@
	push	OFFSET ??_C@_05EHMGIKAG@paths?$AA@
	mov	ecx, DWORD PTR _ini$[ebp]
	call	?Get_String@INIClass@@QBEHPBD00PADH@Z	; INIClass::Get_String

; 79   : 		ini->Get_String("paths","RegFDS","RenegadeFDS",RegFDS,MAX_PATH);

	push	260					; 00000104H
	lea	eax, DWORD PTR _RegFDS$[ebp]
	push	eax
	push	OFFSET ??_C@_0M@MBBBEALJ@RenegadeFDS?$AA@
	push	OFFSET ??_C@_06PNIIMBMB@RegFDS?$AA@
	push	OFFSET ??_C@_05EHMGIKAG@paths?$AA@
	mov	ecx, DWORD PTR _ini$[ebp]
	call	?Get_String@INIClass@@QBEHPBD00PADH@Z	; INIClass::Get_String

; 80   : 		ini->Get_String("paths","FileBase","Renegade",FileBase,MAX_PATH);

	push	260					; 00000104H
	lea	eax, DWORD PTR _FileBase$[ebp]
	push	eax
	push	OFFSET ??_C@_08KBDFECAK@Renegade?$AA@
	push	OFFSET ??_C@_08IAGBEAJA@FileBase?$AA@
	push	OFFSET ??_C@_05EHMGIKAG@paths?$AA@
	mov	ecx, DWORD PTR _ini$[ebp]
	call	?Get_String@INIClass@@QBEHPBD00PADH@Z	; INIClass::Get_String

; 81   : 		ini->Get_String("paths","FileClient","Client",FileClient,MAX_PATH);

	push	260					; 00000104H
	lea	eax, DWORD PTR _FileClient$[ebp]
	push	eax
	push	OFFSET ??_C@_06PJIGMIJB@Client?$AA@
	push	OFFSET ??_C@_0L@DODOIGHK@FileClient?$AA@
	push	OFFSET ??_C@_05EHMGIKAG@paths?$AA@
	mov	ecx, DWORD PTR _ini$[ebp]
	call	?Get_String@INIClass@@QBEHPBD00PADH@Z	; INIClass::Get_String

; 82   : 		ini->Get_String("paths","FileFDS","FDS",FileFDS,MAX_PATH);

	push	260					; 00000104H
	lea	eax, DWORD PTR _FileFDS$[ebp]
	push	eax
	push	OFFSET ??_C@_03IGMBAMIJ@FDS?$AA@
	push	OFFSET ??_C@_07BNJPPJLM@FileFDS?$AA@
	push	OFFSET ??_C@_05EHMGIKAG@paths?$AA@
	mov	ecx, DWORD PTR _ini$[ebp]
	call	?Get_String@INIClass@@QBEHPBD00PADH@Z	; INIClass::Get_String

; 83   : 		UseRenFolder = ini->Get_Bool("paths","UseRenFolder",UseRenFolder);

	movzx	eax, BYTE PTR _UseRenFolder$[ebp]
	push	eax
	push	OFFSET ??_C@_0N@JNOHGBBN@UseRenFolder?$AA@
	push	OFFSET ??_C@_05EHMGIKAG@paths?$AA@
	mov	ecx, DWORD PTR _ini$[ebp]
	call	?Get_Bool@INIClass@@QBE_NPBD0_N@Z	; INIClass::Get_Bool
	mov	BYTE PTR _UseRenFolder$[ebp], al

; 84   : 		Release_INI(ini);

	mov	eax, DWORD PTR _ini$[ebp]
	push	eax
	call	?Release_INI@@YAXPAVINIClass@@@Z	; Release_INI
	add	esp, 4

; 85   : 	}
; 86   : 	else

	jmp	$LN17@Read_Paths
$LN18@Read_Paths:

; 87   : 	{
; 88   : 		strcpy(RegBase,"Westwood");

	mov	eax, DWORD PTR ??_C@_08LAFABFGE@Westwood?$AA@
	mov	DWORD PTR _RegBase$[ebp], eax
	mov	ecx, DWORD PTR ??_C@_08LAFABFGE@Westwood?$AA@+4
	mov	DWORD PTR _RegBase$[ebp+4], ecx
	mov	dl, BYTE PTR ??_C@_08LAFABFGE@Westwood?$AA@+8
	mov	BYTE PTR _RegBase$[ebp+8], dl

; 89   : 		strcpy(RegClient,"Renegade");

	mov	eax, DWORD PTR ??_C@_08KBDFECAK@Renegade?$AA@
	mov	DWORD PTR _RegClient$[ebp], eax
	mov	ecx, DWORD PTR ??_C@_08KBDFECAK@Renegade?$AA@+4
	mov	DWORD PTR _RegClient$[ebp+4], ecx
	mov	dl, BYTE PTR ??_C@_08KBDFECAK@Renegade?$AA@+8
	mov	BYTE PTR _RegClient$[ebp+8], dl

; 90   : 		strcpy(RegFDS,"RenegadeFDS");

	mov	eax, DWORD PTR ??_C@_0M@MBBBEALJ@RenegadeFDS?$AA@
	mov	DWORD PTR _RegFDS$[ebp], eax
	mov	ecx, DWORD PTR ??_C@_0M@MBBBEALJ@RenegadeFDS?$AA@+4
	mov	DWORD PTR _RegFDS$[ebp+4], ecx
	mov	edx, DWORD PTR ??_C@_0M@MBBBEALJ@RenegadeFDS?$AA@+8
	mov	DWORD PTR _RegFDS$[ebp+8], edx

; 91   : 		strcpy(FileBase,"Renegade");

	mov	eax, DWORD PTR ??_C@_08KBDFECAK@Renegade?$AA@
	mov	DWORD PTR _FileBase$[ebp], eax
	mov	ecx, DWORD PTR ??_C@_08KBDFECAK@Renegade?$AA@+4
	mov	DWORD PTR _FileBase$[ebp+4], ecx
	mov	dl, BYTE PTR ??_C@_08KBDFECAK@Renegade?$AA@+8
	mov	BYTE PTR _FileBase$[ebp+8], dl

; 92   : 		strcpy(FileClient,"Client");

	mov	eax, DWORD PTR ??_C@_06PJIGMIJB@Client?$AA@
	mov	DWORD PTR _FileClient$[ebp], eax
	mov	cx, WORD PTR ??_C@_06PJIGMIJB@Client?$AA@+4
	mov	WORD PTR _FileClient$[ebp+4], cx
	mov	dl, BYTE PTR ??_C@_06PJIGMIJB@Client?$AA@+6
	mov	BYTE PTR _FileClient$[ebp+6], dl

; 93   : 		strcpy(FileFDS,"FDS");

	mov	eax, DWORD PTR ??_C@_03IGMBAMIJ@FDS?$AA@
	mov	DWORD PTR _FileFDS$[ebp], eax
$LN17@Read_Paths:

; 94   : 	}
; 95   : 	FilePath[0] = 0;

	mov	eax, 1
	imul	eax, 0
	mov	BYTE PTR ?FilePath@@3PADA[eax], 0

; 96   : 	if (!UseRenFolder)

	movzx	eax, BYTE PTR _UseRenFolder$[ebp]
	test	eax, eax
	jne	$LN16@Read_Paths

; 97   : 	{
; 98   : 		wchar_t fpath[MAX_PATH];
; 99   : 		SHGetSpecialFolderPathW(NULL, fpath, CSIDL_MYDOCUMENTS, FALSE);

	push	0
	push	5
	lea	eax, DWORD PTR _fpath$8[ebp]
	push	eax
	push	0
	call	DWORD PTR __imp__SHGetSpecialFolderPathW@16

; 100  : 		bool unicode = false;

	mov	BYTE PTR _unicode$7[ebp], 0

; 101  : 		for (int i = 0;fpath[i] != 0;i++)

	mov	DWORD PTR _i$6[ebp], 0
	jmp	SHORT $LN15@Read_Paths
$LN14@Read_Paths:
	mov	eax, DWORD PTR _i$6[ebp]
	add	eax, 1
	mov	DWORD PTR _i$6[ebp], eax
$LN15@Read_Paths:
	mov	eax, DWORD PTR _i$6[ebp]
	movzx	ecx, WORD PTR _fpath$8[ebp+eax*2]
	test	ecx, ecx
	je	SHORT $LN13@Read_Paths

; 102  : 		{
; 103  : 			unsigned short value = fpath[i];

	mov	eax, DWORD PTR _i$6[ebp]
	mov	cx, WORD PTR _fpath$8[ebp+eax*2]
	mov	WORD PTR _value$5[ebp], cx

; 104  : 			if (value > 255)

	movzx	eax, WORD PTR _value$5[ebp]
	cmp	eax, 255				; 000000ffH
	jle	SHORT $LN12@Read_Paths

; 105  : 			{
; 106  : 				unicode = true;

	mov	BYTE PTR _unicode$7[ebp], 1

; 107  : 				break;

	jmp	SHORT $LN13@Read_Paths
$LN12@Read_Paths:

; 108  : 			}
; 109  : 		}

	jmp	SHORT $LN14@Read_Paths
$LN13@Read_Paths:

; 110  : 		if (unicode)

	movzx	eax, BYTE PTR _unicode$7[ebp]
	test	eax, eax
	je	SHORT $LN11@Read_Paths

; 111  : 		{
; 112  : 			GetModuleFileName(NULL,FilePath,MAX_PATH);

	push	260					; 00000104H
	push	OFFSET ?FilePath@@3PADA			; FilePath
	push	0
	call	DWORD PTR __imp__GetModuleFileNameA@12

; 113  : 			strrchr(FilePath,'\\')[0] = 0;

	push	92					; 0000005cH
	push	OFFSET ?FilePath@@3PADA			; FilePath
	call	?strrchr@@YAPADPADH@Z			; strrchr
	add	esp, 8
	mov	ecx, 1
	imul	ecx, 0
	mov	BYTE PTR [eax+ecx], 0

; 114  : 		}
; 115  : 		else

	jmp	SHORT $LN10@Read_Paths
$LN11@Read_Paths:

; 116  : 		{
; 117  : 			SHGetSpecialFolderPath(NULL,  FilePath, CSIDL_MYDOCUMENTS, FALSE);

	push	0
	push	5
	push	OFFSET ?FilePath@@3PADA			; FilePath
	push	0
	call	DWORD PTR __imp__SHGetSpecialFolderPathA@16
$LN10@Read_Paths:

; 118  : 		}
; 119  : 	}
; 120  : 	else

	jmp	SHORT $LN9@Read_Paths
$LN16@Read_Paths:

; 121  : 	{
; 122  : 		GetModuleFileName(NULL,FilePath,MAX_PATH);

	push	260					; 00000104H
	push	OFFSET ?FilePath@@3PADA			; FilePath
	push	0
	call	DWORD PTR __imp__GetModuleFileNameA@12

; 123  : 		strrchr(FilePath,'\\')[0] = 0;

	push	92					; 0000005cH
	push	OFFSET ?FilePath@@3PADA			; FilePath
	call	?strrchr@@YAPADPADH@Z			; strrchr
	add	esp, 8
	mov	ecx, 1
	imul	ecx, 0
	mov	BYTE PTR [eax+ecx], 0
$LN9@Read_Paths:

; 124  : 	}
; 125  : 	strcat(FilePath,"\\");

	mov	eax, OFFSET ?FilePath@@3PADA		; FilePath
	add	eax, -1
	mov	DWORD PTR tv409[ebp], eax
$LL31@Read_Paths:
	mov	ecx, DWORD PTR tv409[ebp]
	mov	dl, BYTE PTR [ecx+1]
	mov	BYTE PTR tv412[ebp], dl
	add	DWORD PTR tv409[ebp], 1
	cmp	BYTE PTR tv412[ebp], 0
	jne	SHORT $LL31@Read_Paths
	mov	edi, DWORD PTR tv409[ebp]
	mov	ax, WORD PTR ??_C@_01KICIPPFI@?2?$AA@
	mov	WORD PTR [edi], ax

; 126  : 	strcat(FilePath,FileBase);

	lea	eax, DWORD PTR _FileBase$[ebp]
	mov	DWORD PTR tv451[ebp], eax
	mov	ecx, DWORD PTR tv451[ebp]
	mov	DWORD PTR tv453[ebp], ecx
$LL32@Read_Paths:
	mov	edx, DWORD PTR tv451[ebp]
	mov	al, BYTE PTR [edx]
	mov	BYTE PTR tv456[ebp], al
	add	DWORD PTR tv451[ebp], 1
	cmp	BYTE PTR tv456[ebp], 0
	jne	SHORT $LL32@Read_Paths
	mov	ecx, DWORD PTR tv451[ebp]
	sub	ecx, DWORD PTR tv453[ebp]
	mov	edx, DWORD PTR tv453[ebp]
	mov	DWORD PTR tv461[ebp], edx
	mov	DWORD PTR tv462[ebp], ecx
	mov	eax, OFFSET ?FilePath@@3PADA		; FilePath
	add	eax, -1
	mov	DWORD PTR tv465[ebp], eax
$LL33@Read_Paths:
	mov	ecx, DWORD PTR tv465[ebp]
	mov	dl, BYTE PTR [ecx+1]
	mov	BYTE PTR tv468[ebp], dl
	add	DWORD PTR tv465[ebp], 1
	cmp	BYTE PTR tv468[ebp], 0
	jne	SHORT $LL33@Read_Paths
	mov	edi, DWORD PTR tv465[ebp]
	mov	esi, DWORD PTR tv461[ebp]
	mov	eax, DWORD PTR tv462[ebp]
	mov	ecx, eax
	shr	ecx, 2
	rep movsd
	mov	ecx, eax
	and	ecx, 3
	rep movsb

; 127  : 	strcat(FilePath,"\\");

	mov	eax, OFFSET ?FilePath@@3PADA		; FilePath
	add	eax, -1
	mov	DWORD PTR tv484[ebp], eax
$LL34@Read_Paths:
	mov	ecx, DWORD PTR tv484[ebp]
	mov	dl, BYTE PTR [ecx+1]
	mov	BYTE PTR tv487[ebp], dl
	add	DWORD PTR tv484[ebp], 1
	cmp	BYTE PTR tv487[ebp], 0
	jne	SHORT $LL34@Read_Paths
	mov	edi, DWORD PTR tv484[ebp]
	mov	ax, WORD PTR ??_C@_01KICIPPFI@?2?$AA@
	mov	WORD PTR [edi], ax

; 128  : 	strcat(FilePath,isClient ? FileClient : FileFDS);

	movzx	eax, BYTE PTR _isClient$[ebp]
	test	eax, eax
	je	SHORT $LN25@Read_Paths
	lea	ecx, DWORD PTR _FileClient$[ebp]
	mov	DWORD PTR tv231[ebp], ecx
	jmp	SHORT $LN26@Read_Paths
$LN25@Read_Paths:
	lea	edx, DWORD PTR _FileFDS$[ebp]
	mov	DWORD PTR tv231[ebp], edx
$LN26@Read_Paths:
	mov	eax, DWORD PTR tv231[ebp]
	mov	DWORD PTR tv496[ebp], eax
	mov	ecx, DWORD PTR tv496[ebp]
	mov	DWORD PTR tv498[ebp], ecx
$LL35@Read_Paths:
	mov	edx, DWORD PTR tv496[ebp]
	mov	al, BYTE PTR [edx]
	mov	BYTE PTR tv501[ebp], al
	add	DWORD PTR tv496[ebp], 1
	cmp	BYTE PTR tv501[ebp], 0
	jne	SHORT $LL35@Read_Paths
	mov	ecx, DWORD PTR tv496[ebp]
	sub	ecx, DWORD PTR tv498[ebp]
	mov	edx, DWORD PTR tv498[ebp]
	mov	DWORD PTR tv506[ebp], edx
	mov	DWORD PTR tv507[ebp], ecx
	mov	eax, OFFSET ?FilePath@@3PADA		; FilePath
	add	eax, -1
	mov	DWORD PTR tv510[ebp], eax
$LL36@Read_Paths:
	mov	ecx, DWORD PTR tv510[ebp]
	mov	dl, BYTE PTR [ecx+1]
	mov	BYTE PTR tv513[ebp], dl
	add	DWORD PTR tv510[ebp], 1
	cmp	BYTE PTR tv513[ebp], 0
	jne	SHORT $LL36@Read_Paths
	mov	edi, DWORD PTR tv510[ebp]
	mov	esi, DWORD PTR tv506[ebp]
	mov	eax, DWORD PTR tv507[ebp]
	mov	ecx, eax
	shr	ecx, 2
	rep movsd
	mov	ecx, eax
	and	ecx, 3
	rep movsb

; 129  : 	strcat(FilePath,"\\");

	mov	eax, OFFSET ?FilePath@@3PADA		; FilePath
	add	eax, -1
	mov	DWORD PTR tv529[ebp], eax
$LL37@Read_Paths:
	mov	ecx, DWORD PTR tv529[ebp]
	mov	dl, BYTE PTR [ecx+1]
	mov	BYTE PTR tv532[ebp], dl
	add	DWORD PTR tv529[ebp], 1
	cmp	BYTE PTR tv532[ebp], 0
	jne	SHORT $LL37@Read_Paths
	mov	edi, DWORD PTR tv529[ebp]
	mov	ax, WORD PTR ??_C@_01KICIPPFI@?2?$AA@
	mov	WORD PTR [edi], ax

; 130  : 
; 131  : 	AppDataPath[0] = 0;

	mov	eax, 1
	imul	eax, 0
	mov	BYTE PTR ?AppDataPath@@3PADA[eax], 0

; 132  : 	if (!UseRenFolder)

	movzx	eax, BYTE PTR _UseRenFolder$[ebp]
	test	eax, eax
	jne	$LN8@Read_Paths

; 133  : 	{
; 134  : 		wchar_t fpath[MAX_PATH];
; 135  : 		SHGetSpecialFolderPathW(NULL, fpath, CSIDL_MYDOCUMENTS, FALSE);

	push	0
	push	5
	lea	eax, DWORD PTR _fpath$4[ebp]
	push	eax
	push	0
	call	DWORD PTR __imp__SHGetSpecialFolderPathW@16

; 136  : 		bool unicode = false;

	mov	BYTE PTR _unicode$3[ebp], 0

; 137  : 		for (int i = 0;fpath[i] != 0;i++)

	mov	DWORD PTR _i$2[ebp], 0
	jmp	SHORT $LN7@Read_Paths
$LN6@Read_Paths:
	mov	eax, DWORD PTR _i$2[ebp]
	add	eax, 1
	mov	DWORD PTR _i$2[ebp], eax
$LN7@Read_Paths:
	mov	eax, DWORD PTR _i$2[ebp]
	movzx	ecx, WORD PTR _fpath$4[ebp+eax*2]
	test	ecx, ecx
	je	SHORT $LN5@Read_Paths

; 138  : 		{
; 139  : 			unsigned short value = fpath[i];

	mov	eax, DWORD PTR _i$2[ebp]
	mov	cx, WORD PTR _fpath$4[ebp+eax*2]
	mov	WORD PTR _value$1[ebp], cx

; 140  : 			if (value > 255)

	movzx	eax, WORD PTR _value$1[ebp]
	cmp	eax, 255				; 000000ffH
	jle	SHORT $LN4@Read_Paths

; 141  : 			{
; 142  : 				unicode = true;

	mov	BYTE PTR _unicode$3[ebp], 1

; 143  : 				break;

	jmp	SHORT $LN5@Read_Paths
$LN4@Read_Paths:

; 144  : 			}
; 145  : 		}

	jmp	SHORT $LN6@Read_Paths
$LN5@Read_Paths:

; 146  : 		if (unicode)

	movzx	eax, BYTE PTR _unicode$3[ebp]
	test	eax, eax
	je	SHORT $LN3@Read_Paths

; 147  : 		{
; 148  : 			GetModuleFileName(NULL,AppDataPath,MAX_PATH);

	push	260					; 00000104H
	push	OFFSET ?AppDataPath@@3PADA		; AppDataPath
	push	0
	call	DWORD PTR __imp__GetModuleFileNameA@12

; 149  : 			strrchr(AppDataPath,'\\')[0] = 0;

	push	92					; 0000005cH
	push	OFFSET ?AppDataPath@@3PADA		; AppDataPath
	call	?strrchr@@YAPADPADH@Z			; strrchr
	add	esp, 8
	mov	ecx, 1
	imul	ecx, 0
	mov	BYTE PTR [eax+ecx], 0

; 150  : 		}
; 151  : 		else

	jmp	SHORT $LN2@Read_Paths
$LN3@Read_Paths:

; 152  : 		{
; 153  : 			SHGetSpecialFolderPath(NULL, AppDataPath, CSIDL_APPDATA, FALSE);

	push	0
	push	26					; 0000001aH
	push	OFFSET ?AppDataPath@@3PADA		; AppDataPath
	push	0
	call	DWORD PTR __imp__SHGetSpecialFolderPathA@16
$LN2@Read_Paths:

; 154  : 		}
; 155  : 	}
; 156  : 	else

	jmp	SHORT $LN1@Read_Paths
$LN8@Read_Paths:

; 157  : 	{
; 158  : 		GetModuleFileName(NULL,AppDataPath,MAX_PATH);

	push	260					; 00000104H
	push	OFFSET ?AppDataPath@@3PADA		; AppDataPath
	push	0
	call	DWORD PTR __imp__GetModuleFileNameA@12

; 159  : 		strrchr(AppDataPath,'\\')[0] = 0;

	push	92					; 0000005cH
	push	OFFSET ?AppDataPath@@3PADA		; AppDataPath
	call	?strrchr@@YAPADPADH@Z			; strrchr
	add	esp, 8
	mov	ecx, 1
	imul	ecx, 0
	mov	BYTE PTR [eax+ecx], 0
$LN1@Read_Paths:

; 160  : 	}
; 161  : 	strcat(AppDataPath,"\\");

	mov	eax, OFFSET ?AppDataPath@@3PADA		; AppDataPath
	add	eax, -1
	mov	DWORD PTR tv550[ebp], eax
$LL38@Read_Paths:
	mov	ecx, DWORD PTR tv550[ebp]
	mov	dl, BYTE PTR [ecx+1]
	mov	BYTE PTR tv553[ebp], dl
	add	DWORD PTR tv550[ebp], 1
	cmp	BYTE PTR tv553[ebp], 0
	jne	SHORT $LL38@Read_Paths
	mov	edi, DWORD PTR tv550[ebp]
	mov	ax, WORD PTR ??_C@_01KICIPPFI@?2?$AA@
	mov	WORD PTR [edi], ax

; 162  : 	strcat(AppDataPath,FileBase);

	lea	eax, DWORD PTR _FileBase$[ebp]
	mov	DWORD PTR tv560[ebp], eax
	mov	ecx, DWORD PTR tv560[ebp]
	mov	DWORD PTR tv562[ebp], ecx
$LL39@Read_Paths:
	mov	edx, DWORD PTR tv560[ebp]
	mov	al, BYTE PTR [edx]
	mov	BYTE PTR tv565[ebp], al
	add	DWORD PTR tv560[ebp], 1
	cmp	BYTE PTR tv565[ebp], 0
	jne	SHORT $LL39@Read_Paths
	mov	ecx, DWORD PTR tv560[ebp]
	sub	ecx, DWORD PTR tv562[ebp]
	mov	edx, DWORD PTR tv562[ebp]
	mov	DWORD PTR tv570[ebp], edx
	mov	DWORD PTR tv571[ebp], ecx
	mov	eax, OFFSET ?AppDataPath@@3PADA		; AppDataPath
	add	eax, -1
	mov	DWORD PTR tv574[ebp], eax
$LL40@Read_Paths:
	mov	ecx, DWORD PTR tv574[ebp]
	mov	dl, BYTE PTR [ecx+1]
	mov	BYTE PTR tv577[ebp], dl
	add	DWORD PTR tv574[ebp], 1
	cmp	BYTE PTR tv577[ebp], 0
	jne	SHORT $LL40@Read_Paths
	mov	edi, DWORD PTR tv574[ebp]
	mov	esi, DWORD PTR tv570[ebp]
	mov	eax, DWORD PTR tv571[ebp]
	mov	ecx, eax
	shr	ecx, 2
	rep movsd
	mov	ecx, eax
	and	ecx, 3
	rep movsb

; 163  : 	strcat(AppDataPath,"\\");

	mov	eax, OFFSET ?AppDataPath@@3PADA		; AppDataPath
	add	eax, -1
	mov	DWORD PTR tv593[ebp], eax
$LL41@Read_Paths:
	mov	ecx, DWORD PTR tv593[ebp]
	mov	dl, BYTE PTR [ecx+1]
	mov	BYTE PTR tv596[ebp], dl
	add	DWORD PTR tv593[ebp], 1
	cmp	BYTE PTR tv596[ebp], 0
	jne	SHORT $LL41@Read_Paths
	mov	edi, DWORD PTR tv593[ebp]
	mov	ax, WORD PTR ??_C@_01KICIPPFI@?2?$AA@
	mov	WORD PTR [edi], ax

; 164  : 	strcat(AppDataPath,isClient ? FileClient : FileFDS);

	movzx	eax, BYTE PTR _isClient$[ebp]
	test	eax, eax
	je	SHORT $LN27@Read_Paths
	lea	ecx, DWORD PTR _FileClient$[ebp]
	mov	DWORD PTR tv293[ebp], ecx
	jmp	SHORT $LN28@Read_Paths
$LN27@Read_Paths:
	lea	edx, DWORD PTR _FileFDS$[ebp]
	mov	DWORD PTR tv293[ebp], edx
$LN28@Read_Paths:
	mov	eax, DWORD PTR tv293[ebp]
	mov	DWORD PTR tv605[ebp], eax
	mov	ecx, DWORD PTR tv605[ebp]
	mov	DWORD PTR tv607[ebp], ecx
$LL42@Read_Paths:
	mov	edx, DWORD PTR tv605[ebp]
	mov	al, BYTE PTR [edx]
	mov	BYTE PTR tv610[ebp], al
	add	DWORD PTR tv605[ebp], 1
	cmp	BYTE PTR tv610[ebp], 0
	jne	SHORT $LL42@Read_Paths
	mov	ecx, DWORD PTR tv605[ebp]
	sub	ecx, DWORD PTR tv607[ebp]
	mov	edx, DWORD PTR tv607[ebp]
	mov	DWORD PTR tv615[ebp], edx
	mov	DWORD PTR tv616[ebp], ecx
	mov	eax, OFFSET ?AppDataPath@@3PADA		; AppDataPath
	add	eax, -1
	mov	DWORD PTR tv619[ebp], eax
$LL43@Read_Paths:
	mov	ecx, DWORD PTR tv619[ebp]
	mov	dl, BYTE PTR [ecx+1]
	mov	BYTE PTR tv622[ebp], dl
	add	DWORD PTR tv619[ebp], 1
	cmp	BYTE PTR tv622[ebp], 0
	jne	SHORT $LL43@Read_Paths
	mov	edi, DWORD PTR tv619[ebp]
	mov	esi, DWORD PTR tv615[ebp]
	mov	eax, DWORD PTR tv616[ebp]
	mov	ecx, eax
	shr	ecx, 2
	rep movsd
	mov	ecx, eax
	and	ecx, 3
	rep movsb

; 165  : 	strcat(AppDataPath,"\\");

	mov	eax, OFFSET ?AppDataPath@@3PADA		; AppDataPath
	add	eax, -1
	mov	DWORD PTR tv638[ebp], eax
$LL44@Read_Paths:
	mov	ecx, DWORD PTR tv638[ebp]
	mov	dl, BYTE PTR [ecx+1]
	mov	BYTE PTR tv641[ebp], dl
	add	DWORD PTR tv638[ebp], 1
	cmp	BYTE PTR tv641[ebp], 0
	jne	SHORT $LL44@Read_Paths
	mov	edi, DWORD PTR tv638[ebp]
	mov	ax, WORD PTR ??_C@_01KICIPPFI@?2?$AA@
	mov	WORD PTR [edi], ax

; 166  : 
; 167  : 	strcpy(RegPath,"Software\\");

	mov	eax, DWORD PTR ??_C@_09OIHOKJLD@Software?2?$AA@
	mov	DWORD PTR ?RegPath@@3PADA, eax
	mov	ecx, DWORD PTR ??_C@_09OIHOKJLD@Software?2?$AA@+4
	mov	DWORD PTR ?RegPath@@3PADA+4, ecx
	mov	dx, WORD PTR ??_C@_09OIHOKJLD@Software?2?$AA@+8
	mov	WORD PTR ?RegPath@@3PADA+8, dx

; 168  : 	strcat(RegPath,RegBase);

	lea	eax, DWORD PTR _RegBase$[ebp]
	mov	DWORD PTR tv654[ebp], eax
	mov	ecx, DWORD PTR tv654[ebp]
	mov	DWORD PTR tv656[ebp], ecx
$LL45@Read_Paths:
	mov	edx, DWORD PTR tv654[ebp]
	mov	al, BYTE PTR [edx]
	mov	BYTE PTR tv659[ebp], al
	add	DWORD PTR tv654[ebp], 1
	cmp	BYTE PTR tv659[ebp], 0
	jne	SHORT $LL45@Read_Paths
	mov	ecx, DWORD PTR tv654[ebp]
	sub	ecx, DWORD PTR tv656[ebp]
	mov	edx, DWORD PTR tv656[ebp]
	mov	DWORD PTR tv664[ebp], edx
	mov	DWORD PTR tv665[ebp], ecx
	mov	eax, OFFSET ?RegPath@@3PADA		; RegPath
	add	eax, -1
	mov	DWORD PTR tv668[ebp], eax
$LL46@Read_Paths:
	mov	ecx, DWORD PTR tv668[ebp]
	mov	dl, BYTE PTR [ecx+1]
	mov	BYTE PTR tv671[ebp], dl
	add	DWORD PTR tv668[ebp], 1
	cmp	BYTE PTR tv671[ebp], 0
	jne	SHORT $LL46@Read_Paths
	mov	edi, DWORD PTR tv668[ebp]
	mov	esi, DWORD PTR tv664[ebp]
	mov	eax, DWORD PTR tv665[ebp]
	mov	ecx, eax
	shr	ecx, 2
	rep movsd
	mov	ecx, eax
	and	ecx, 3
	rep movsb

; 169  : 	strcat(RegPath,"\\");

	mov	eax, OFFSET ?RegPath@@3PADA		; RegPath
	add	eax, -1
	mov	DWORD PTR tv687[ebp], eax
$LL47@Read_Paths:
	mov	ecx, DWORD PTR tv687[ebp]
	mov	dl, BYTE PTR [ecx+1]
	mov	BYTE PTR tv690[ebp], dl
	add	DWORD PTR tv687[ebp], 1
	cmp	BYTE PTR tv690[ebp], 0
	jne	SHORT $LL47@Read_Paths
	mov	edi, DWORD PTR tv687[ebp]
	mov	ax, WORD PTR ??_C@_01KICIPPFI@?2?$AA@
	mov	WORD PTR [edi], ax

; 170  : 	strcat(RegPath,isClient ? RegClient : RegFDS);

	movzx	eax, BYTE PTR _isClient$[ebp]
	test	eax, eax
	je	SHORT $LN29@Read_Paths
	lea	ecx, DWORD PTR _RegClient$[ebp]
	mov	DWORD PTR tv317[ebp], ecx
	jmp	SHORT $LN30@Read_Paths
$LN29@Read_Paths:
	lea	edx, DWORD PTR _RegFDS$[ebp]
	mov	DWORD PTR tv317[ebp], edx
$LN30@Read_Paths:
	mov	eax, DWORD PTR tv317[ebp]
	mov	DWORD PTR tv699[ebp], eax
	mov	ecx, DWORD PTR tv699[ebp]
	mov	DWORD PTR tv701[ebp], ecx
$LL48@Read_Paths:
	mov	edx, DWORD PTR tv699[ebp]
	mov	al, BYTE PTR [edx]
	mov	BYTE PTR tv704[ebp], al
	add	DWORD PTR tv699[ebp], 1
	cmp	BYTE PTR tv704[ebp], 0
	jne	SHORT $LL48@Read_Paths
	mov	ecx, DWORD PTR tv699[ebp]
	sub	ecx, DWORD PTR tv701[ebp]
	mov	edx, DWORD PTR tv701[ebp]
	mov	DWORD PTR tv709[ebp], edx
	mov	DWORD PTR tv710[ebp], ecx
	mov	eax, OFFSET ?RegPath@@3PADA		; RegPath
	add	eax, -1
	mov	DWORD PTR tv713[ebp], eax
$LL49@Read_Paths:
	mov	ecx, DWORD PTR tv713[ebp]
	mov	dl, BYTE PTR [ecx+1]
	mov	BYTE PTR tv716[ebp], dl
	add	DWORD PTR tv713[ebp], 1
	cmp	BYTE PTR tv716[ebp], 0
	jne	SHORT $LL49@Read_Paths
	mov	edi, DWORD PTR tv713[ebp]
	mov	esi, DWORD PTR tv709[ebp]
	mov	eax, DWORD PTR tv710[ebp]
	mov	ecx, eax
	shr	ecx, 2
	rep movsd
	mov	ecx, eax
	and	ecx, 3
	rep movsb

; 171  : 
; 172  : 	PathsInit = true;

	mov	BYTE PTR ?PathsInit@@3_NA, 1		; PathsInit

; 173  : }

	pop	edi
	pop	esi
	pop	ebx
	mov	esp, ebp
	pop	ebp
	ret	0
?Read_Paths@@YAXXZ ENDP					; Read_Paths
_TEXT	ENDS
; Function compile flags: /Odtp /ZI
; File x:\github\renegade\dragonade_rxd\scripts\engine_io.cpp
;	COMDAT ??__E_TheFileFactory@@YAXXZ
text$yc	SEGMENT
??__E_TheFileFactory@@YAXXZ PROC			; `dynamic initializer for '_TheFileFactory'', COMDAT

; 37   : SCRIPTS_API REF_DEF2(FileFactoryClass *, _TheFileFactory, 0x00809E74, 0x0080904C);

	push	ebp
	mov	ebp, esp
	sub	esp, 64					; 00000040H
	push	ebx
	push	esi
	push	edi
	push	0
	push	8425548					; 0080904cH
	push	8429172					; 00809e74H
	call	??$ResolveGameReference@PAVFileFactoryClass@@@@YAAAPAVFileFactoryClass@@HHH@Z ; ResolveGameReference<FileFactoryClass *>
	add	esp, 12					; 0000000cH
	mov	DWORD PTR ?_TheFileFactory@@3AAPAVFileFactoryClass@@A, eax ; _TheFileFactory
	pop	edi
	pop	esi
	pop	ebx
	mov	esp, ebp
	pop	ebp
	ret	0
??__E_TheFileFactory@@YAXXZ ENDP			; `dynamic initializer for '_TheFileFactory''
text$yc	ENDS
; Function compile flags: /Odtp /ZI
; File x:\github\renegade\dragonade_rxd\scripts\defines.h
;	COMDAT ??$ResolveGameReference@PAVFileFactoryClass@@@@YAAAPAVFileFactoryClass@@HHH@Z
_TEXT	SEGMENT
tv68 = -76						; size = 4
tv69 = -72						; size = 4
tv70 = -68						; size = 4
_client$ = 8						; size = 4
_server$ = 12						; size = 4
_leveledit$ = 16					; size = 4
??$ResolveGameReference@PAVFileFactoryClass@@@@YAAAPAVFileFactoryClass@@HHH@Z PROC ; ResolveGameReference<FileFactoryClass *>, COMDAT

; 149  : {

	push	ebp
	mov	ebp, esp
	sub	esp, 76					; 0000004cH
	push	ebx
	push	esi
	push	edi

; 150  : 	if (Exe == 6) InitEngine();

	cmp	DWORD PTR ?Exe@@3HA, 6			; Exe
	jne	SHORT $LN1@ResolveGam
	call	?InitEngine@@YAXXZ			; InitEngine
$LN1@ResolveGam:

; 151  : #pragma warning(suppress: 6011) //warning C6011: dereferencing NULL pointer <name>
; 152  : 	return *((T*)((Exe == 0) ? client : ((Exe == 1) ? server : ((Exe == 4) ? leveledit : 0))));

	cmp	DWORD PTR ?Exe@@3HA, 0			; Exe
	jne	SHORT $LN8@ResolveGam
	mov	eax, DWORD PTR _client$[ebp]
	mov	DWORD PTR tv70[ebp], eax
	jmp	SHORT $LN9@ResolveGam
$LN8@ResolveGam:
	cmp	DWORD PTR ?Exe@@3HA, 1			; Exe
	jne	SHORT $LN6@ResolveGam
	mov	ecx, DWORD PTR _server$[ebp]
	mov	DWORD PTR tv69[ebp], ecx
	jmp	SHORT $LN7@ResolveGam
$LN6@ResolveGam:
	cmp	DWORD PTR ?Exe@@3HA, 4			; Exe
	jne	SHORT $LN4@ResolveGam
	mov	edx, DWORD PTR _leveledit$[ebp]
	mov	DWORD PTR tv68[ebp], edx
	jmp	SHORT $LN5@ResolveGam
$LN4@ResolveGam:
	mov	DWORD PTR tv68[ebp], 0
$LN5@ResolveGam:
	mov	eax, DWORD PTR tv68[ebp]
	mov	DWORD PTR tv69[ebp], eax
$LN7@ResolveGam:
	mov	ecx, DWORD PTR tv69[ebp]
	mov	DWORD PTR tv70[ebp], ecx
$LN9@ResolveGam:
	mov	eax, DWORD PTR tv70[ebp]

; 153  : };

	pop	edi
	pop	esi
	pop	ebx
	mov	esp, ebp
	pop	ebp
	ret	0
??$ResolveGameReference@PAVFileFactoryClass@@@@YAAAPAVFileFactoryClass@@HHH@Z ENDP ; ResolveGameReference<FileFactoryClass *>
_TEXT	ENDS
; Function compile flags: /Odtp /ZI
;	COMDAT ??_GBufferedFileClass@@UAEPAXI@Z
_TEXT	SEGMENT
_this$ = -4						; size = 4
___flags$ = 8						; size = 4
??_GBufferedFileClass@@UAEPAXI@Z PROC			; BufferedFileClass::`scalar deleting destructor', COMDAT
; _this$ = ecx
	push	ebp
	mov	ebp, esp
	sub	esp, 68					; 00000044H
	push	ebx
	push	esi
	push	edi
	mov	DWORD PTR _this$[ebp], ecx
	mov	ecx, DWORD PTR _this$[ebp]
	call	??1BufferedFileClass@@UAE@XZ		; BufferedFileClass::~BufferedFileClass
	mov	eax, DWORD PTR ___flags$[ebp]
	and	eax, 1
	je	SHORT $LN1@scalar
	mov	eax, DWORD PTR _this$[ebp]
	push	eax
	call	??3@YAXPAX@Z				; operator delete
	add	esp, 4
$LN1@scalar:
	mov	eax, DWORD PTR _this$[ebp]
	pop	edi
	pop	esi
	pop	ebx
	mov	esp, ebp
	pop	ebp
	ret	4
??_GBufferedFileClass@@UAEPAXI@Z ENDP			; BufferedFileClass::`scalar deleting destructor'
_TEXT	ENDS
; Function compile flags: /Odtp /ZI
; File x:\github\renegade\dragonade_rxd\scripts\bufferedfileclass.h
;	COMDAT ?Reset_Buffer@BufferedFileClass@@QAEXXZ
_TEXT	SEGMENT
$T1 = -72						; size = 4
_this$ = -4						; size = 4
?Reset_Buffer@BufferedFileClass@@QAEXXZ PROC		; BufferedFileClass::Reset_Buffer, COMDAT
; _this$ = ecx

; 127  : 	{

	push	ebp
	mov	ebp, esp
	sub	esp, 72					; 00000048H
	push	ebx
	push	esi
	push	edi
	mov	DWORD PTR _this$[ebp], ecx

; 128  : 		if (Buffer)

	mov	eax, DWORD PTR _this$[ebp]
	cmp	DWORD PTR [eax+28], 0
	je	SHORT $LN2@Reset_Buff

; 129  : 		{
; 130  : 			delete[] Buffer;

	push	OFFSET ??_C@_0CA@LMFINKNE@BufferedFileClass?3?3Reset_Buffer?$AA@
	push	130					; 00000082H
	push	OFFSET ??_C@_0DN@NGCACKDA@x?3?2github?2renegade?2dragonade_rxd@
	call	?SetThreadTrackingInformation@@YAXPBDI0@Z ; SetThreadTrackingInformation
	add	esp, 12					; 0000000cH
	xor	eax, eax
	je	SHORT $LN5@Reset_Buff
	xor	ecx, ecx
	jne	SHORT $LN4@Reset_Buff
	push	130					; 00000082H
	push	OFFSET ??_C@_1HK@BLILCDCH@?$AAx?$AA?3?$AA?2?$AAg?$AAi?$AAt?$AAh?$AAu?$AAb?$AA?2?$AAr?$AAe?$AAn?$AAe?$AAg?$AAa?$AAd?$AAe?$AA?2?$AAd?$AAr?$AAa?$AAg?$AAo?$AAn?$AAa?$AAd?$AAe?$AA_?$AAr?$AAx?$AAd@
	push	OFFSET ??_C@_1M@HLGKFCJM@?$AAf?$AAa?$AAl?$AAs?$AAe?$AA?$AA@
	call	DWORD PTR __imp___wassert
	add	esp, 12					; 0000000cH
$LN4@Reset_Buff:
	jmp	SHORT $LN6@Reset_Buff
$LN5@Reset_Buff:
	mov	eax, DWORD PTR _this$[ebp]
	mov	ecx, DWORD PTR [eax+28]
	mov	DWORD PTR $T1[ebp], ecx
	mov	edx, DWORD PTR $T1[ebp]
	push	edx
	call	??_V@YAXPAX@Z				; operator delete[]
	add	esp, 4
$LN6@Reset_Buff:

; 131  : 			Buffer = 0;

	mov	eax, DWORD PTR _this$[ebp]
	mov	DWORD PTR [eax+28], 0

; 132  : 			BufferSize = 0;

	mov	eax, DWORD PTR _this$[ebp]
	mov	DWORD PTR [eax+32], 0

; 133  : 			BufferAvailable = 0;

	mov	eax, DWORD PTR _this$[ebp]
	mov	DWORD PTR [eax+36], 0

; 134  : 			BufferOffset = 0;

	mov	eax, DWORD PTR _this$[ebp]
	mov	DWORD PTR [eax+40], 0
$LN2@Reset_Buff:

; 135  : 		}
; 136  : 	}

	pop	edi
	pop	esi
	pop	ebx
	mov	esp, ebp
	pop	ebp
	ret	0
?Reset_Buffer@BufferedFileClass@@QAEXXZ ENDP		; BufferedFileClass::Reset_Buffer
_TEXT	ENDS
; Function compile flags: /Odtp /ZI
; File x:\github\renegade\dragonade_rxd\scripts\bufferedfileclass.h
;	COMDAT ?Close@BufferedFileClass@@UAEXXZ
_TEXT	SEGMENT
_this$ = -4						; size = 4
?Close@BufferedFileClass@@UAEXXZ PROC			; BufferedFileClass::Close, COMDAT
; _this$ = ecx

; 122  : 	{

	push	ebp
	mov	ebp, esp
	sub	esp, 68					; 00000044H
	push	ebx
	push	esi
	push	edi
	mov	DWORD PTR _this$[ebp], ecx

; 123  : 		RawFileClass::Close();

	mov	ecx, DWORD PTR _this$[ebp]
	call	?Close@RawFileClass@@UAEXXZ		; RawFileClass::Close

; 124  : 		Reset_Buffer();

	mov	ecx, DWORD PTR _this$[ebp]
	call	?Reset_Buffer@BufferedFileClass@@QAEXXZ	; BufferedFileClass::Reset_Buffer

; 125  : 	}

	pop	edi
	pop	esi
	pop	ebx
	mov	esp, ebp
	pop	ebp
	ret	0
?Close@BufferedFileClass@@UAEXXZ ENDP			; BufferedFileClass::Close
_TEXT	ENDS
; Function compile flags: /Odtp /ZI
; File x:\github\renegade\dragonade_rxd\scripts\bufferedfileclass.h
;	COMDAT ?Write@BufferedFileClass@@UAEHPAXH@Z
_TEXT	SEGMENT
_this$ = -4						; size = 4
_buffer$ = 8						; size = 4
_size$ = 12						; size = 4
?Write@BufferedFileClass@@UAEHPAXH@Z PROC		; BufferedFileClass::Write, COMDAT
; _this$ = ecx

; 118  : 	{

	push	ebp
	mov	ebp, esp
	sub	esp, 68					; 00000044H
	push	ebx
	push	esi
	push	edi
	mov	DWORD PTR _this$[ebp], ecx

; 119  : 		return RawFileClass::Write(buffer,size);

	mov	eax, DWORD PTR _size$[ebp]
	push	eax
	mov	ecx, DWORD PTR _buffer$[ebp]
	push	ecx
	mov	ecx, DWORD PTR _this$[ebp]
	call	?Write@RawFileClass@@UAEHPAXH@Z		; RawFileClass::Write

; 120  : 	}

	pop	edi
	pop	esi
	pop	ebx
	mov	esp, ebp
	pop	ebp
	ret	8
?Write@BufferedFileClass@@UAEHPAXH@Z ENDP		; BufferedFileClass::Write
_TEXT	ENDS
; Function compile flags: /Odtp /ZI
; File x:\github\renegade\dragonade_rxd\scripts\bufferedfileclass.h
;	COMDAT ?Seek@BufferedFileClass@@UAEHHH@Z
_TEXT	SEGMENT
_buf$1 = -8						; size = 4
_this$ = -4						; size = 4
_pos$ = 8						; size = 4
_dir$ = 12						; size = 4
?Seek@BufferedFileClass@@UAEHHH@Z PROC			; BufferedFileClass::Seek, COMDAT
; _this$ = ecx

; 96   : 	{

	push	ebp
	mov	ebp, esp
	sub	esp, 72					; 00000048H
	push	ebx
	push	esi
	push	edi
	mov	DWORD PTR _this$[ebp], ecx

; 97   : 		if (dir != 1 || pos < 0)

	cmp	DWORD PTR _dir$[ebp], 1
	jne	SHORT $LN4@Seek
	cmp	DWORD PTR _pos$[ebp], 0
	jge	SHORT $LN5@Seek
$LN4@Seek:

; 98   : 		{
; 99   : 			Reset_Buffer();

	mov	ecx, DWORD PTR _this$[ebp]
	call	?Reset_Buffer@BufferedFileClass@@QAEXXZ	; BufferedFileClass::Reset_Buffer
$LN5@Seek:

; 100  : 		}
; 101  : 		if (BufferAvailable)

	mov	eax, DWORD PTR _this$[ebp]
	cmp	DWORD PTR [eax+36], 0
	je	SHORT $LN3@Seek

; 102  : 		{
; 103  : 			int buf = BufferAvailable;

	mov	eax, DWORD PTR _this$[ebp]
	mov	ecx, DWORD PTR [eax+36]
	mov	DWORD PTR _buf$1[ebp], ecx

; 104  : 			if (buf > pos)

	mov	eax, DWORD PTR _buf$1[ebp]
	cmp	eax, DWORD PTR _pos$[ebp]
	jle	SHORT $LN2@Seek

; 105  : 			{
; 106  : 				buf = pos;

	mov	eax, DWORD PTR _pos$[ebp]
	mov	DWORD PTR _buf$1[ebp], eax
$LN2@Seek:

; 107  : 			}
; 108  : 			BufferAvailable -= buf;

	mov	eax, DWORD PTR _this$[ebp]
	mov	ecx, DWORD PTR [eax+36]
	sub	ecx, DWORD PTR _buf$1[ebp]
	mov	edx, DWORD PTR _this$[ebp]
	mov	DWORD PTR [edx+36], ecx

; 109  : 			BufferOffset += buf;

	mov	eax, DWORD PTR _this$[ebp]
	mov	ecx, DWORD PTR [eax+40]
	add	ecx, DWORD PTR _buf$1[ebp]
	mov	edx, DWORD PTR _this$[ebp]
	mov	DWORD PTR [edx+40], ecx

; 110  : 			return RawFileClass::Seek(pos - buf,dir) - BufferAvailable;

	mov	eax, DWORD PTR _dir$[ebp]
	push	eax
	mov	ecx, DWORD PTR _pos$[ebp]
	sub	ecx, DWORD PTR _buf$1[ebp]
	push	ecx
	mov	ecx, DWORD PTR _this$[ebp]
	call	?Seek@RawFileClass@@UAEHHH@Z		; RawFileClass::Seek
	mov	edx, DWORD PTR _this$[ebp]
	sub	eax, DWORD PTR [edx+36]
	jmp	SHORT $LN6@Seek

; 111  : 		}
; 112  : 		else

	jmp	SHORT $LN6@Seek
$LN3@Seek:

; 113  : 		{
; 114  : 			return RawFileClass::Seek(pos,dir);

	mov	eax, DWORD PTR _dir$[ebp]
	push	eax
	mov	ecx, DWORD PTR _pos$[ebp]
	push	ecx
	mov	ecx, DWORD PTR _this$[ebp]
	call	?Seek@RawFileClass@@UAEHHH@Z		; RawFileClass::Seek
$LN6@Seek:

; 115  : 		}
; 116  : 	}

	pop	edi
	pop	esi
	pop	ebx
	mov	esp, ebp
	pop	ebp
	ret	8
?Seek@BufferedFileClass@@UAEHHH@Z ENDP			; BufferedFileClass::Seek
_TEXT	ENDS
; Function compile flags: /Odtp /ZI
; File x:\github\renegade\dragonade_rxd\scripts\bufferedfileclass.h
;	COMDAT ?Read@BufferedFileClass@@UAEHPAXH@Z
_TEXT	SEGMENT
tv143 = -100						; size = 4
$T1 = -96						; size = 4
_buf2$2 = -28						; size = 4
_buf$3 = -24						; size = 4
_buf$4 = -20						; size = 4
_result$ = -16						; size = 4
_sz$ = -12						; size = 4
_tmp$ = -8						; size = 4
_this$ = -4						; size = 4
_buffer$ = 8						; size = 4
_size$ = 12						; size = 4
?Read@BufferedFileClass@@UAEHPAXH@Z PROC		; BufferedFileClass::Read, COMDAT
; _this$ = ecx

; 31   : 	{

	push	ebp
	mov	ebp, esp
	sub	esp, 100				; 00000064H
	push	ebx
	push	esi
	push	edi
	mov	DWORD PTR _this$[ebp], ecx

; 32   : 		void *tmp = buffer;

	mov	eax, DWORD PTR _buffer$[ebp]
	mov	DWORD PTR _tmp$[ebp], eax

; 33   : 		int sz = size;

	mov	eax, DWORD PTR _size$[ebp]
	mov	DWORD PTR _sz$[ebp], eax

; 34   : 		int result = 0;

	mov	DWORD PTR _result$[ebp], 0

; 35   : 		if (BufferAvailable > 0)

	mov	eax, DWORD PTR _this$[ebp]
	cmp	DWORD PTR [eax+36], 0
	jle	SHORT $LN11@Read

; 36   : 		{
; 37   : 			int buf = BufferAvailable;

	mov	eax, DWORD PTR _this$[ebp]
	mov	ecx, DWORD PTR [eax+36]
	mov	DWORD PTR _buf$4[ebp], ecx

; 38   : 			if (buf > size)

	mov	eax, DWORD PTR _buf$4[ebp]
	cmp	eax, DWORD PTR _size$[ebp]
	jle	SHORT $LN10@Read

; 39   : 			{
; 40   : 				buf = size;

	mov	eax, DWORD PTR _size$[ebp]
	mov	DWORD PTR _buf$4[ebp], eax
$LN10@Read:

; 41   : 			}
; 42   : 			memcpy(buffer, Buffer + BufferOffset, buf);

	mov	eax, DWORD PTR _buf$4[ebp]
	push	eax
	mov	ecx, DWORD PTR _this$[ebp]
	mov	edx, DWORD PTR [ecx+28]
	mov	eax, DWORD PTR _this$[ebp]
	add	edx, DWORD PTR [eax+40]
	push	edx
	mov	ecx, DWORD PTR _buffer$[ebp]
	push	ecx
	call	_memcpy
	add	esp, 12					; 0000000cH

; 43   : 			BufferAvailable -= buf;

	mov	eax, DWORD PTR _this$[ebp]
	mov	ecx, DWORD PTR [eax+36]
	sub	ecx, DWORD PTR _buf$4[ebp]
	mov	edx, DWORD PTR _this$[ebp]
	mov	DWORD PTR [edx+36], ecx

; 44   : 			BufferOffset += buf;

	mov	eax, DWORD PTR _this$[ebp]
	mov	ecx, DWORD PTR [eax+40]
	add	ecx, DWORD PTR _buf$4[ebp]
	mov	edx, DWORD PTR _this$[ebp]
	mov	DWORD PTR [edx+40], ecx

; 45   : 			sz -= buf;

	mov	eax, DWORD PTR _sz$[ebp]
	sub	eax, DWORD PTR _buf$4[ebp]
	mov	DWORD PTR _sz$[ebp], eax

; 46   : 			tmp = (char *)tmp + buf;

	mov	eax, DWORD PTR _tmp$[ebp]
	add	eax, DWORD PTR _buf$4[ebp]
	mov	DWORD PTR _tmp$[ebp], eax

; 47   : 			result += buf;

	mov	eax, DWORD PTR _result$[ebp]
	add	eax, DWORD PTR _buf$4[ebp]
	mov	DWORD PTR _result$[ebp], eax
$LN11@Read:

; 48   : 		}
; 49   : 		if (sz)

	cmp	DWORD PTR _sz$[ebp], 0
	je	$LN9@Read

; 50   : 		{
; 51   : 			int buf = BufferSize;

	mov	eax, DWORD PTR _this$[ebp]
	mov	ecx, DWORD PTR [eax+32]
	mov	DWORD PTR _buf$3[ebp], ecx

; 52   : 			if (!buf)

	cmp	DWORD PTR _buf$3[ebp], 0
	jne	SHORT $LN8@Read

; 53   : 			{
; 54   : 				buf = 16384;

	mov	DWORD PTR _buf$3[ebp], 16384		; 00004000H
$LN8@Read:

; 55   : 			}
; 56   : 			if (sz > buf)

	mov	eax, DWORD PTR _sz$[ebp]
	cmp	eax, DWORD PTR _buf$3[ebp]
	jle	SHORT $LN7@Read

; 57   : 			{
; 58   : 				return result + RawFileClass::Read(tmp,sz);

	mov	eax, DWORD PTR _sz$[ebp]
	push	eax
	mov	ecx, DWORD PTR _tmp$[ebp]
	push	ecx
	mov	ecx, DWORD PTR _this$[ebp]
	call	?Read@RawFileClass@@UAEHPAXH@Z		; RawFileClass::Read
	add	eax, DWORD PTR _result$[ebp]
	jmp	$LN12@Read
$LN7@Read:

; 59   : 			}
; 60   : 			if (!BufferSize)

	mov	eax, DWORD PTR _this$[ebp]
	cmp	DWORD PTR [eax+32], 0
	jne	SHORT $LN6@Read

; 61   : 			{
; 62   : 				BufferSize = 16384;

	mov	eax, DWORD PTR _this$[ebp]
	mov	DWORD PTR [eax+32], 16384		; 00004000H

; 63   : 				Buffer = new unsigned char[16384];

	push	OFFSET ??_C@_0BI@LFKJEOO@BufferedFileClass?3?3Read?$AA@
	push	63					; 0000003fH
	push	OFFSET ??_C@_0DN@NGCACKDA@x?3?2github?2renegade?2dragonade_rxd@
	call	?SetThreadTrackingInformation@@YAXPBDI0@Z ; SetThreadTrackingInformation
	add	esp, 12					; 0000000cH
	xor	eax, eax
	je	SHORT $LN15@Read
	xor	ecx, ecx
	jne	SHORT $LN14@Read
	push	63					; 0000003fH
	push	OFFSET ??_C@_1HK@BLILCDCH@?$AAx?$AA?3?$AA?2?$AAg?$AAi?$AAt?$AAh?$AAu?$AAb?$AA?2?$AAr?$AAe?$AAn?$AAe?$AAg?$AAa?$AAd?$AAe?$AA?2?$AAd?$AAr?$AAa?$AAg?$AAo?$AAn?$AAa?$AAd?$AAe?$AA_?$AAr?$AAx?$AAd@
	push	OFFSET ??_C@_1M@HLGKFCJM@?$AAf?$AAa?$AAl?$AAs?$AAe?$AA?$AA@
	call	DWORD PTR __imp___wassert
	add	esp, 12					; 0000000cH
$LN14@Read:
	mov	DWORD PTR tv143[ebp], 0
	jmp	SHORT $LN16@Read
$LN15@Read:
	push	16384					; 00004000H
	call	??_U@YAPAXI@Z				; operator new[]
	add	esp, 4
	mov	DWORD PTR $T1[ebp], eax
	mov	eax, DWORD PTR $T1[ebp]
	mov	DWORD PTR tv143[ebp], eax
$LN16@Read:
	mov	ecx, DWORD PTR _this$[ebp]
	mov	edx, DWORD PTR tv143[ebp]
	mov	DWORD PTR [ecx+28], edx

; 64   : 				BufferAvailable = 0;

	mov	eax, DWORD PTR _this$[ebp]
	mov	DWORD PTR [eax+36], 0

; 65   : 				BufferOffset = 0;

	mov	eax, DWORD PTR _this$[ebp]
	mov	DWORD PTR [eax+40], 0
$LN6@Read:

; 66   : 			}
; 67   : 			if (!Buffer)

	mov	eax, DWORD PTR _this$[ebp]
	cmp	DWORD PTR [eax+28], 0
	jne	SHORT $LN5@Read

; 68   : 			{
; 69   : 				return 0;

	xor	eax, eax
	jmp	$LN12@Read
$LN5@Read:

; 70   : 			}
; 71   : 			if (!BufferAvailable)

	mov	eax, DWORD PTR _this$[ebp]
	cmp	DWORD PTR [eax+36], 0
	jne	SHORT $LN4@Read

; 72   : 			{
; 73   : 				BufferAvailable = RawFileClass::Read(Buffer,BufferSize);

	mov	eax, DWORD PTR _this$[ebp]
	mov	ecx, DWORD PTR [eax+32]
	push	ecx
	mov	edx, DWORD PTR _this$[ebp]
	mov	eax, DWORD PTR [edx+28]
	push	eax
	mov	ecx, DWORD PTR _this$[ebp]
	call	?Read@RawFileClass@@UAEHPAXH@Z		; RawFileClass::Read
	mov	ecx, DWORD PTR _this$[ebp]
	mov	DWORD PTR [ecx+36], eax

; 74   : 				BufferOffset = 0;

	mov	eax, DWORD PTR _this$[ebp]
	mov	DWORD PTR [eax+40], 0
$LN4@Read:

; 75   : 			}
; 76   : 			if (BufferAvailable > 0)

	mov	eax, DWORD PTR _this$[ebp]
	cmp	DWORD PTR [eax+36], 0
	jle	SHORT $LN9@Read

; 77   : 			{
; 78   : 				int buf2 = BufferAvailable;

	mov	eax, DWORD PTR _this$[ebp]
	mov	ecx, DWORD PTR [eax+36]
	mov	DWORD PTR _buf2$2[ebp], ecx

; 79   : 				if (buf2 > sz)

	mov	eax, DWORD PTR _buf2$2[ebp]
	cmp	eax, DWORD PTR _sz$[ebp]
	jle	SHORT $LN2@Read

; 80   : 				{
; 81   : 					buf2 = sz;

	mov	eax, DWORD PTR _sz$[ebp]
	mov	DWORD PTR _buf2$2[ebp], eax
$LN2@Read:

; 82   : 				}
; 83   : 				if (!Buffer)

	mov	eax, DWORD PTR _this$[ebp]
	cmp	DWORD PTR [eax+28], 0
	jne	SHORT $LN1@Read

; 84   : 				{
; 85   : 					return 0;

	xor	eax, eax
	jmp	SHORT $LN12@Read
$LN1@Read:

; 86   : 				}
; 87   : 				memcpy(tmp,Buffer+BufferOffset,buf2);

	mov	eax, DWORD PTR _buf2$2[ebp]
	push	eax
	mov	ecx, DWORD PTR _this$[ebp]
	mov	edx, DWORD PTR [ecx+28]
	mov	eax, DWORD PTR _this$[ebp]
	add	edx, DWORD PTR [eax+40]
	push	edx
	mov	ecx, DWORD PTR _tmp$[ebp]
	push	ecx
	call	_memcpy
	add	esp, 12					; 0000000cH

; 88   : 				BufferAvailable -= buf2;

	mov	eax, DWORD PTR _this$[ebp]
	mov	ecx, DWORD PTR [eax+36]
	sub	ecx, DWORD PTR _buf2$2[ebp]
	mov	edx, DWORD PTR _this$[ebp]
	mov	DWORD PTR [edx+36], ecx

; 89   : 				BufferOffset += buf2;

	mov	eax, DWORD PTR _this$[ebp]
	mov	ecx, DWORD PTR [eax+40]
	add	ecx, DWORD PTR _buf2$2[ebp]
	mov	edx, DWORD PTR _this$[ebp]
	mov	DWORD PTR [edx+40], ecx

; 90   : 				result += buf2;

	mov	eax, DWORD PTR _result$[ebp]
	add	eax, DWORD PTR _buf2$2[ebp]
	mov	DWORD PTR _result$[ebp], eax
$LN9@Read:

; 91   : 			}
; 92   : 		}
; 93   : 		return result;

	mov	eax, DWORD PTR _result$[ebp]
$LN12@Read:

; 94   : 	}

	pop	edi
	pop	esi
	pop	ebx
	mov	esp, ebp
	pop	ebp
	ret	8
?Read@BufferedFileClass@@UAEHPAXH@Z ENDP		; BufferedFileClass::Read
_TEXT	ENDS
; Function compile flags: /Odtp /ZI
; File x:\github\renegade\dragonade_rxd\scripts\bufferedfileclass.h
;	COMDAT ??1BufferedFileClass@@UAE@XZ
_TEXT	SEGMENT
_this$ = -4						; size = 4
??1BufferedFileClass@@UAE@XZ PROC			; BufferedFileClass::~BufferedFileClass, COMDAT
; _this$ = ecx

; 27   : 	{

	push	ebp
	mov	ebp, esp
	sub	esp, 68					; 00000044H
	push	ebx
	push	esi
	push	edi
	mov	DWORD PTR _this$[ebp], ecx
	mov	eax, DWORD PTR _this$[ebp]
	mov	DWORD PTR [eax], OFFSET ??_7BufferedFileClass@@6B@

; 28   : 		Reset_Buffer();

	mov	ecx, DWORD PTR _this$[ebp]
	call	?Reset_Buffer@BufferedFileClass@@QAEXXZ	; BufferedFileClass::Reset_Buffer

; 29   : 	}

	mov	ecx, DWORD PTR _this$[ebp]
	call	??1RawFileClass@@UAE@XZ			; RawFileClass::~RawFileClass
	pop	edi
	pop	esi
	pop	ebx
	mov	esp, ebp
	pop	ebp
	ret	0
??1BufferedFileClass@@UAE@XZ ENDP			; BufferedFileClass::~BufferedFileClass
_TEXT	ENDS
; Function compile flags: /Odtp /ZI
; File x:\github\renegade\dragonade_rxd\scripts\bufferedfileclass.h
;	COMDAT ??0BufferedFileClass@@QAE@XZ
_TEXT	SEGMENT
_this$ = -4						; size = 4
??0BufferedFileClass@@QAE@XZ PROC			; BufferedFileClass::BufferedFileClass, COMDAT
; _this$ = ecx

; 24   : 	{

	push	ebp
	mov	ebp, esp
	sub	esp, 68					; 00000044H
	push	ebx
	push	esi
	push	edi
	mov	DWORD PTR _this$[ebp], ecx
	mov	ecx, DWORD PTR _this$[ebp]
	call	??0RawFileClass@@QAE@XZ			; RawFileClass::RawFileClass
	mov	eax, DWORD PTR _this$[ebp]
	mov	DWORD PTR [eax], OFFSET ??_7BufferedFileClass@@6B@
	mov	eax, DWORD PTR _this$[ebp]
	mov	DWORD PTR [eax+28], 0
	mov	eax, DWORD PTR _this$[ebp]
	mov	DWORD PTR [eax+32], 0
	mov	eax, DWORD PTR _this$[ebp]
	mov	DWORD PTR [eax+36], 0
	mov	eax, DWORD PTR _this$[ebp]
	mov	DWORD PTR [eax+40], 0

; 25   : 	}

	mov	eax, DWORD PTR _this$[ebp]
	pop	edi
	pop	esi
	pop	ebx
	mov	esp, ebp
	pop	ebp
	ret	0
??0BufferedFileClass@@QAE@XZ ENDP			; BufferedFileClass::BufferedFileClass
_TEXT	ENDS
; Function compile flags: /Odtp /ZI
; File x:\github\renegade\dragonade_rxd\scripts\engine_math.h
;	COMDAT ??$clamp@H@@YAHHHH@Z
_TEXT	SEGMENT
_value$ = 8						; size = 4
_min$ = 12						; size = 4
_max$ = 16						; size = 4
??$clamp@H@@YAHHHH@Z PROC				; clamp<int>, COMDAT

; 38   : {

	push	ebp
	mov	ebp, esp
	sub	esp, 64					; 00000040H
	push	ebx
	push	esi
	push	edi

; 39   : 	if (value < min)

	mov	eax, DWORD PTR _value$[ebp]
	cmp	eax, DWORD PTR _min$[ebp]
	jge	SHORT $LN2@clamp

; 40   : 		return min;

	mov	eax, DWORD PTR _min$[ebp]
	jmp	SHORT $LN3@clamp
$LN2@clamp:

; 41   : 
; 42   : 	if (value > max)

	mov	eax, DWORD PTR _value$[ebp]
	cmp	eax, DWORD PTR _max$[ebp]
	jle	SHORT $LN1@clamp

; 43   : 		return max;

	mov	eax, DWORD PTR _max$[ebp]
	jmp	SHORT $LN3@clamp
$LN1@clamp:

; 44   : 
; 45   : 	return value;

	mov	eax, DWORD PTR _value$[ebp]
$LN3@clamp:

; 46   : }

	pop	edi
	pop	esi
	pop	ebx
	mov	esp, ebp
	pop	ebp
	ret	0
??$clamp@H@@YAHHHH@Z ENDP				; clamp<int>
_TEXT	ENDS
; Function compile flags: /Odtp /ZI
;	COMDAT ??_GRawFileClass@@UAEPAXI@Z
_TEXT	SEGMENT
_this$ = -4						; size = 4
___flags$ = 8						; size = 4
??_GRawFileClass@@UAEPAXI@Z PROC			; RawFileClass::`scalar deleting destructor', COMDAT
; _this$ = ecx
	push	ebp
	mov	ebp, esp
	sub	esp, 68					; 00000044H
	push	ebx
	push	esi
	push	edi
	mov	DWORD PTR _this$[ebp], ecx
	mov	ecx, DWORD PTR _this$[ebp]
	call	??1RawFileClass@@UAE@XZ			; RawFileClass::~RawFileClass
	mov	eax, DWORD PTR ___flags$[ebp]
	and	eax, 1
	je	SHORT $LN1@scalar
	mov	eax, DWORD PTR _this$[ebp]
	push	eax
	call	??3@YAXPAX@Z				; operator delete
	add	esp, 4
$LN1@scalar:
	mov	eax, DWORD PTR _this$[ebp]
	pop	edi
	pop	esi
	pop	ebx
	mov	esp, ebp
	pop	ebp
	ret	4
??_GRawFileClass@@UAEPAXI@Z ENDP			; RawFileClass::`scalar deleting destructor'
_TEXT	ENDS
; Function compile flags: /Odtp /ZI
; File x:\github\renegade\dragonade_rxd\scripts\rawfileclass.h
;	COMDAT ?Detach@RawFileClass@@UAEXXZ
_TEXT	SEGMENT
_this$ = -4						; size = 4
?Detach@RawFileClass@@UAEXXZ PROC			; RawFileClass::Detach, COMDAT
; _this$ = ecx

; 386  : 	{

	push	ebp
	mov	ebp, esp
	sub	esp, 68					; 00000044H
	push	ebx
	push	esi
	push	edi
	mov	DWORD PTR _this$[ebp], ecx

; 387  : 		Rights = 0;

	mov	eax, DWORD PTR _this$[ebp]
	mov	DWORD PTR [eax+4], 0

; 388  : 		Handle = INVALID_HANDLE_VALUE;

	mov	eax, DWORD PTR _this$[ebp]
	mov	DWORD PTR [eax+16], -1

; 389  : 		BiasStart = 0;

	mov	eax, DWORD PTR _this$[ebp]
	mov	DWORD PTR [eax+8], 0

; 390  : 		BiasLength = -1;

	mov	eax, DWORD PTR _this$[ebp]
	mov	DWORD PTR [eax+12], -1

; 391  : 		Date = 0;

	xor	eax, eax
	mov	ecx, DWORD PTR _this$[ebp]
	mov	WORD PTR [ecx+24], ax

; 392  : 		Time = 0;

	xor	eax, eax
	mov	ecx, DWORD PTR _this$[ebp]
	mov	WORD PTR [ecx+26], ax

; 393  : 	}

	pop	edi
	pop	esi
	pop	ebx
	mov	esp, ebp
	pop	ebp
	ret	0
?Detach@RawFileClass@@UAEXXZ ENDP			; RawFileClass::Detach
_TEXT	ENDS
; Function compile flags: /Odtp /ZI
; File x:\github\renegade\dragonade_rxd\scripts\rawfileclass.h
;	COMDAT ?Attach@RawFileClass@@UAEXPAXH@Z
_TEXT	SEGMENT
_this$ = -4						; size = 4
_handle$ = 8						; size = 4
_rights$ = 12						; size = 4
?Attach@RawFileClass@@UAEXPAXH@Z PROC			; RawFileClass::Attach, COMDAT
; _this$ = ecx

; 376  : 	{

	push	ebp
	mov	ebp, esp
	sub	esp, 68					; 00000044H
	push	ebx
	push	esi
	push	edi
	mov	DWORD PTR _this$[ebp], ecx

; 377  : 		Reset();

	mov	ecx, DWORD PTR _this$[ebp]
	call	?Reset@RawFileClass@@QAEXXZ		; RawFileClass::Reset

; 378  : 		Handle = handle;

	mov	eax, DWORD PTR _this$[ebp]
	mov	ecx, DWORD PTR _handle$[ebp]
	mov	DWORD PTR [eax+16], ecx

; 379  : 		Rights = rights;

	mov	eax, DWORD PTR _this$[ebp]
	mov	ecx, DWORD PTR _rights$[ebp]
	mov	DWORD PTR [eax+4], ecx

; 380  : 		BiasStart = 0;

	mov	eax, DWORD PTR _this$[ebp]
	mov	DWORD PTR [eax+8], 0

; 381  : 		BiasLength = -1;

	mov	eax, DWORD PTR _this$[ebp]
	mov	DWORD PTR [eax+12], -1

; 382  : 		Date = 0;

	xor	eax, eax
	mov	ecx, DWORD PTR _this$[ebp]
	mov	WORD PTR [ecx+24], ax

; 383  : 		Time = 0;

	xor	eax, eax
	mov	ecx, DWORD PTR _this$[ebp]
	mov	WORD PTR [ecx+26], ax

; 384  : 	}

	pop	edi
	pop	esi
	pop	ebx
	mov	esp, ebp
	pop	ebp
	ret	8
?Attach@RawFileClass@@UAEXPAXH@Z ENDP			; RawFileClass::Attach
_TEXT	ENDS
; Function compile flags: /Odtp /ZI
; File x:\github\renegade\dragonade_rxd\scripts\rawfileclass.h
;	COMDAT ?Bias@RawFileClass@@UAEXHH@Z
_TEXT	SEGMENT
_this$ = -4						; size = 4
_start$ = 8						; size = 4
_length$ = 12						; size = 4
?Bias@RawFileClass@@UAEXHH@Z PROC			; RawFileClass::Bias, COMDAT
; _this$ = ecx

; 354  : 	{

	push	ebp
	mov	ebp, esp
	sub	esp, 68					; 00000044H
	push	ebx
	push	esi
	push	edi
	mov	DWORD PTR _this$[ebp], ecx

; 355  : 		if (start == 0)

	cmp	DWORD PTR _start$[ebp], 0
	jne	SHORT $LN9@Bias
$LN7@Bias:

; 356  : 		{
; 357  : 			TT_ASSERT(length == -1);

	xor	eax, eax
	jne	SHORT $LN7@Bias
	cmp	DWORD PTR _length$[ebp], -1
	je	SHORT $LN5@Bias
	int	3
$LN5@Bias:

; 358  : 			BiasStart = 0;

	mov	eax, DWORD PTR _this$[ebp]
	mov	DWORD PTR [eax+8], 0

; 359  : 			BiasLength = -1;

	mov	eax, DWORD PTR _this$[ebp]
	mov	DWORD PTR [eax+12], -1

; 360  : 		}
; 361  : 		else

	jmp	SHORT $LN10@Bias
$LN9@Bias:

; 362  : 		{
; 363  : 			BiasLength = Size();

	mov	eax, DWORD PTR _this$[ebp]
	mov	edx, DWORD PTR [eax]
	mov	ecx, DWORD PTR _this$[ebp]
	mov	eax, DWORD PTR [edx+48]
	call	eax
	mov	ecx, DWORD PTR _this$[ebp]
	mov	DWORD PTR [ecx+12], eax

; 364  : 			BiasStart += start;

	mov	eax, DWORD PTR _this$[ebp]
	mov	ecx, DWORD PTR [eax+8]
	add	ecx, DWORD PTR _start$[ebp]
	mov	edx, DWORD PTR _this$[ebp]
	mov	DWORD PTR [edx+8], ecx

; 365  : 			if (length != -1)

	cmp	DWORD PTR _length$[ebp], -1
	je	SHORT $LN10@Bias

; 366  : 			{
; 367  : 				if (length < BiasLength)

	mov	eax, DWORD PTR _this$[ebp]
	mov	ecx, DWORD PTR _length$[ebp]
	cmp	ecx, DWORD PTR [eax+12]
	jge	SHORT $LN2@Bias

; 368  : 					BiasLength = length;

	mov	eax, DWORD PTR _this$[ebp]
	mov	ecx, DWORD PTR _length$[ebp]
	mov	DWORD PTR [eax+12], ecx
$LN2@Bias:

; 369  : 				
; 370  : 				if (BiasLength < 0)

	mov	eax, DWORD PTR _this$[ebp]
	cmp	DWORD PTR [eax+12], 0
	jge	SHORT $LN10@Bias

; 371  : 					BiasLength = 0;

	mov	eax, DWORD PTR _this$[ebp]
	mov	DWORD PTR [eax+12], 0
$LN10@Bias:

; 372  : 			}
; 373  : 		}
; 374  : 	}

	pop	edi
	pop	esi
	pop	ebx
	mov	esp, ebp
	pop	ebp
	ret	8
?Bias@RawFileClass@@UAEXHH@Z ENDP			; RawFileClass::Bias
_TEXT	ENDS
; Function compile flags: /Odtp /ZI
; File x:\github\renegade\dragonade_rxd\scripts\rawfileclass.h
;	COMDAT ?Get_File_Handle@RawFileClass@@UAEPAXXZ
_TEXT	SEGMENT
_this$ = -4						; size = 4
?Get_File_Handle@RawFileClass@@UAEPAXXZ PROC		; RawFileClass::Get_File_Handle, COMDAT
; _this$ = ecx

; 350  : 	{

	push	ebp
	mov	ebp, esp
	sub	esp, 68					; 00000044H
	push	ebx
	push	esi
	push	edi
	mov	DWORD PTR _this$[ebp], ecx

; 351  : 		return Handle;

	mov	eax, DWORD PTR _this$[ebp]
	mov	eax, DWORD PTR [eax+16]

; 352  : 	}

	pop	edi
	pop	esi
	pop	ebx
	mov	esp, ebp
	pop	ebp
	ret	0
?Get_File_Handle@RawFileClass@@UAEPAXXZ ENDP		; RawFileClass::Get_File_Handle
_TEXT	ENDS
; Function compile flags: /Odtp /ZI
; File x:\github\renegade\dragonade_rxd\scripts\rawfileclass.h
;	COMDAT ?Error@RawFileClass@@UAEXHHPBD@Z
_TEXT	SEGMENT
_this$ = -4						; size = 4
_a$ = 8							; size = 4
_b$ = 12						; size = 4
_c$ = 16						; size = 4
?Error@RawFileClass@@UAEXHHPBD@Z PROC			; RawFileClass::Error, COMDAT
; _this$ = ecx

; 347  : 	{

	push	ebp
	mov	ebp, esp
	sub	esp, 68					; 00000044H
	push	ebx
	push	esi
	push	edi
	mov	DWORD PTR _this$[ebp], ecx

; 348  : 	}

	pop	edi
	pop	esi
	pop	ebx
	mov	esp, ebp
	pop	ebp
	ret	12					; 0000000cH
?Error@RawFileClass@@UAEXHHPBD@Z ENDP			; RawFileClass::Error
_TEXT	ENDS
; Function compile flags: /Odtp /ZI
; File x:\github\renegade\dragonade_rxd\scripts\rawfileclass.h
;	COMDAT ?Set_Date_Time@RawFileClass@@UAE_NK@Z
_TEXT	SEGMENT
_filetime$ = -64					; size = 8
_info$ = -56						; size = 52
_this$ = -4						; size = 4
_datetime$ = 8						; size = 4
?Set_Date_Time@RawFileClass@@UAE_NK@Z PROC		; RawFileClass::Set_Date_Time, COMDAT
; _this$ = ecx

; 328  : 	{

	push	ebp
	mov	ebp, esp
	sub	esp, 128				; 00000080H
	push	ebx
	push	esi
	push	edi
	mov	DWORD PTR _this$[ebp], ecx

; 329  : 		BY_HANDLE_FILE_INFORMATION info;
; 330  : 		FILETIME filetime;
; 331  : 		if (Is_Open())

	mov	eax, DWORD PTR _this$[ebp]
	mov	edx, DWORD PTR [eax]
	mov	ecx, DWORD PTR _this$[ebp]
	mov	eax, DWORD PTR [edx+24]
	call	eax
	movzx	ecx, al
	test	ecx, ecx
	je	SHORT $LN4@Set_Date_T

; 332  : 		{
; 333  : 			if (GetFileInformationByHandle(Handle,&info))

	lea	eax, DWORD PTR _info$[ebp]
	push	eax
	mov	ecx, DWORD PTR _this$[ebp]
	mov	edx, DWORD PTR [ecx+16]
	push	edx
	call	DWORD PTR __imp__GetFileInformationByHandle@8
	test	eax, eax
	je	SHORT $LN4@Set_Date_T

; 334  : 			{
; 335  : 				if (DosDateTimeToFileTime((WORD)(datetime >> 0x10),(WORD)datetime,&filetime))

	lea	eax, DWORD PTR _filetime$[ebp]
	push	eax
	movzx	ecx, WORD PTR _datetime$[ebp]
	push	ecx
	mov	edx, DWORD PTR _datetime$[ebp]
	shr	edx, 16					; 00000010H
	push	edx
	call	DWORD PTR __imp__DosDateTimeToFileTime@12
	test	eax, eax
	je	SHORT $LN4@Set_Date_T

; 336  : 				{
; 337  : 					if (SetFileTime(Handle,&info.ftCreationTime,&filetime,&filetime))

	lea	eax, DWORD PTR _filetime$[ebp]
	push	eax
	lea	ecx, DWORD PTR _filetime$[ebp]
	push	ecx
	lea	edx, DWORD PTR _info$[ebp+4]
	push	edx
	mov	eax, DWORD PTR _this$[ebp]
	mov	ecx, DWORD PTR [eax+16]
	push	ecx
	call	DWORD PTR __imp__SetFileTime@16
	test	eax, eax
	je	SHORT $LN4@Set_Date_T

; 338  : 					{
; 339  : 						return true;

	mov	al, 1
	jmp	SHORT $LN5@Set_Date_T
$LN4@Set_Date_T:

; 340  : 					}
; 341  : 				}
; 342  : 			}
; 343  : 		}
; 344  : 		return false;

	xor	al, al
$LN5@Set_Date_T:

; 345  : 	}

	pop	edi
	pop	esi
	pop	ebx
	mov	esp, ebp
	pop	ebp
	ret	4
?Set_Date_Time@RawFileClass@@UAE_NK@Z ENDP		; RawFileClass::Set_Date_Time
_TEXT	ENDS
; Function compile flags: /Odtp /ZI
; File x:\github\renegade\dragonade_rxd\scripts\rawfileclass.h
;	COMDAT ?Get_Date_Time@RawFileClass@@UAEKXZ
_TEXT	SEGMENT
_dosdate$ = -64						; size = 2
_dostime$ = -60						; size = 2
_info$ = -56						; size = 52
_this$ = -4						; size = 4
?Get_Date_Time@RawFileClass@@UAEKXZ PROC		; RawFileClass::Get_Date_Time, COMDAT
; _this$ = ecx

; 316  : 	{

	push	ebp
	mov	ebp, esp
	sub	esp, 128				; 00000080H
	push	ebx
	push	esi
	push	edi
	mov	DWORD PTR _this$[ebp], ecx

; 317  : 		BY_HANDLE_FILE_INFORMATION info;
; 318  : 		unsigned short dostime;
; 319  : 		unsigned short dosdate;
; 320  : 		if (GetFileInformationByHandle(Handle,&info))

	lea	eax, DWORD PTR _info$[ebp]
	push	eax
	mov	ecx, DWORD PTR _this$[ebp]
	mov	edx, DWORD PTR [ecx+16]
	push	edx
	call	DWORD PTR __imp__GetFileInformationByHandle@8
	test	eax, eax
	je	SHORT $LN1@Get_Date_T

; 321  : 		{
; 322  : 			FileTimeToDosDateTime(&info.ftLastWriteTime, &dosdate, &dostime);

	lea	eax, DWORD PTR _dostime$[ebp]
	push	eax
	lea	ecx, DWORD PTR _dosdate$[ebp]
	push	ecx
	lea	edx, DWORD PTR _info$[ebp+20]
	push	edx
	call	DWORD PTR __imp__FileTimeToDosDateTime@12

; 323  : 			return dosdate << 0x10 | dostime;

	movzx	eax, WORD PTR _dosdate$[ebp]
	shl	eax, 16					; 00000010H
	movzx	ecx, WORD PTR _dostime$[ebp]
	or	eax, ecx
	jmp	SHORT $LN2@Get_Date_T
$LN1@Get_Date_T:

; 324  : 		}
; 325  : 		return 0;

	xor	eax, eax
$LN2@Get_Date_T:

; 326  : 	}

	pop	edi
	pop	esi
	pop	ebx
	mov	esp, ebp
	pop	ebp
	ret	0
?Get_Date_Time@RawFileClass@@UAEKXZ ENDP		; RawFileClass::Get_Date_Time
_TEXT	ENDS
; Function compile flags: /Odtp /ZI
; File x:\github\renegade\dragonade_rxd\scripts\rawfileclass.h
;	COMDAT ?Close@RawFileClass@@UAEXXZ
_TEXT	SEGMENT
_this$ = -4						; size = 4
?Close@RawFileClass@@UAEXXZ PROC			; RawFileClass::Close, COMDAT
; _this$ = ecx

; 304  : 	{

	push	ebp
	mov	ebp, esp
	sub	esp, 68					; 00000044H
	push	ebx
	push	esi
	push	edi
	mov	DWORD PTR _this$[ebp], ecx

; 305  : 		if (Is_Open())

	mov	eax, DWORD PTR _this$[ebp]
	mov	edx, DWORD PTR [eax]
	mov	ecx, DWORD PTR _this$[ebp]
	mov	eax, DWORD PTR [edx+24]
	call	eax
	movzx	ecx, al
	test	ecx, ecx
	je	SHORT $LN3@Close

; 306  : 		{
; 307  : 			if (!CloseHandle(Handle))

	mov	eax, DWORD PTR _this$[ebp]
	mov	ecx, DWORD PTR [eax+16]
	push	ecx
	call	DWORD PTR __imp__CloseHandle@4
	test	eax, eax
	jne	SHORT $LN1@Close

; 308  : 				Error(GetLastError(), 0, Filename);

	mov	ecx, DWORD PTR _this$[ebp]
	add	ecx, 20					; 00000014H
	call	??BStringClass@@QBEPBDXZ		; StringClass::operator char const *
	push	eax
	push	0
	call	DWORD PTR __imp__GetLastError@0
	push	eax
	mov	eax, DWORD PTR _this$[ebp]
	mov	edx, DWORD PTR [eax]
	mov	ecx, DWORD PTR _this$[ebp]
	mov	eax, DWORD PTR [edx+68]
	call	eax
$LN1@Close:

; 309  : 			
; 310  : 			Handle = INVALID_HANDLE_VALUE;

	mov	eax, DWORD PTR _this$[ebp]
	mov	DWORD PTR [eax+16], -1
$LN3@Close:

; 311  : 		}
; 312  : 	}

	pop	edi
	pop	esi
	pop	ebx
	mov	esp, ebp
	pop	ebp
	ret	0
?Close@RawFileClass@@UAEXXZ ENDP			; RawFileClass::Close
_TEXT	ENDS
; Function compile flags: /Odtp /ZI
; File x:\github\renegade\dragonade_rxd\scripts\rawfileclass.h
;	COMDAT ?Write@RawFileClass@@UAEHPAXH@Z
_TEXT	SEGMENT
_bytesWritten$ = -8					; size = 4
_this$ = -4						; size = 4
_buffer$ = 8						; size = 4
_size$ = 12						; size = 4
?Write@RawFileClass@@UAEHPAXH@Z PROC			; RawFileClass::Write, COMDAT
; _this$ = ecx

; 276  : 	{

	push	ebp
	mov	ebp, esp
	sub	esp, 72					; 00000048H
	push	ebx
	push	esi
	push	edi
	mov	DWORD PTR _this$[ebp], ecx

; 277  : 		DWORD bytesWritten = 0;

	mov	DWORD PTR _bytesWritten$[ebp], 0

; 278  : 		if (!Is_Open())

	mov	eax, DWORD PTR _this$[ebp]
	mov	edx, DWORD PTR [eax]
	mov	ecx, DWORD PTR _this$[ebp]
	mov	eax, DWORD PTR [edx+24]
	call	eax
	movzx	ecx, al
	test	ecx, ecx
	jne	SHORT $LN6@Write

; 279  : 		{
; 280  : 			if (Open(2))

	push	2
	mov	eax, DWORD PTR _this$[ebp]
	mov	edx, DWORD PTR [eax]
	mov	ecx, DWORD PTR _this$[ebp]
	mov	eax, DWORD PTR [edx+28]
	call	eax
	test	eax, eax
	je	SHORT $LN5@Write

; 281  : 			{
; 282  : 				bytesWritten = Write(buffer, size);

	mov	eax, DWORD PTR _size$[ebp]
	push	eax
	mov	ecx, DWORD PTR _buffer$[ebp]
	push	ecx
	mov	edx, DWORD PTR _this$[ebp]
	mov	eax, DWORD PTR [edx]
	mov	ecx, DWORD PTR _this$[ebp]
	mov	edx, DWORD PTR [eax+52]
	call	edx
	mov	DWORD PTR _bytesWritten$[ebp], eax

; 283  : 				Close();

	mov	eax, DWORD PTR _this$[ebp]
	mov	edx, DWORD PTR [eax]
	mov	ecx, DWORD PTR _this$[ebp]
	mov	eax, DWORD PTR [edx+56]
	call	eax
$LN5@Write:

; 284  : 			}
; 285  : 		}
; 286  : 		else

	jmp	SHORT $LN4@Write
$LN6@Write:

; 287  : 		{
; 288  : 			if (!WriteFile(Handle, buffer, size, &bytesWritten, 0))

	push	0
	lea	eax, DWORD PTR _bytesWritten$[ebp]
	push	eax
	mov	ecx, DWORD PTR _size$[ebp]
	push	ecx
	mov	edx, DWORD PTR _buffer$[ebp]
	push	edx
	mov	eax, DWORD PTR _this$[ebp]
	mov	ecx, DWORD PTR [eax+16]
	push	ecx
	call	DWORD PTR __imp__WriteFile@20
	test	eax, eax
	jne	SHORT $LN3@Write

; 289  : 				Error(GetLastError(), 0, Filename);

	mov	ecx, DWORD PTR _this$[ebp]
	add	ecx, 20					; 00000014H
	call	??BStringClass@@QBEPBDXZ		; StringClass::operator char const *
	push	eax
	push	0
	call	DWORD PTR __imp__GetLastError@0
	push	eax
	mov	eax, DWORD PTR _this$[ebp]
	mov	edx, DWORD PTR [eax]
	mov	ecx, DWORD PTR _this$[ebp]
	mov	eax, DWORD PTR [edx+68]
	call	eax
$LN3@Write:

; 290  : 			
; 291  : 			if (BiasLength != -1)

	mov	eax, DWORD PTR _this$[ebp]
	cmp	DWORD PTR [eax+12], -1
	je	SHORT $LN4@Write

; 292  : 			{
; 293  : 				if (Raw_Seek(0, 1) > BiasStart + BiasLength)

	push	1
	push	0
	mov	ecx, DWORD PTR _this$[ebp]
	call	?Raw_Seek@RawFileClass@@QAEHHH@Z	; RawFileClass::Raw_Seek
	mov	ecx, DWORD PTR _this$[ebp]
	mov	edx, DWORD PTR [ecx+8]
	mov	ecx, DWORD PTR _this$[ebp]
	add	edx, DWORD PTR [ecx+12]
	cmp	eax, edx
	jle	SHORT $LN4@Write

; 294  : 				{
; 295  : 					BiasLength = Raw_Seek(0, 1) - BiasStart;

	push	1
	push	0
	mov	ecx, DWORD PTR _this$[ebp]
	call	?Raw_Seek@RawFileClass@@QAEHHH@Z	; RawFileClass::Raw_Seek
	mov	ecx, DWORD PTR _this$[ebp]
	sub	eax, DWORD PTR [ecx+8]
	mov	edx, DWORD PTR _this$[ebp]
	mov	DWORD PTR [edx+12], eax
$LN4@Write:

; 296  : 				}
; 297  : 			}
; 298  : 		}
; 299  : 		return bytesWritten;

	mov	eax, DWORD PTR _bytesWritten$[ebp]

; 300  : 	}

	pop	edi
	pop	esi
	pop	ebx
	mov	esp, ebp
	pop	ebp
	ret	8
?Write@RawFileClass@@UAEHPAXH@Z ENDP			; RawFileClass::Write
_TEXT	ENDS
; Function compile flags: /Odtp /ZI
; File x:\github\renegade\dragonade_rxd\scripts\rawfileclass.h
;	COMDAT ?Size@RawFileClass@@UAEHXZ
_TEXT	SEGMENT
_size$1 = -8						; size = 4
_this$ = -4						; size = 4
?Size@RawFileClass@@UAEHXZ PROC				; RawFileClass::Size, COMDAT
; _this$ = ecx

; 250  : 	{

	push	ebp
	mov	ebp, esp
	sub	esp, 72					; 00000048H
	push	ebx
	push	esi
	push	edi
	mov	DWORD PTR _this$[ebp], ecx

; 251  : 		if (BiasLength != -1)

	mov	eax, DWORD PTR _this$[ebp]
	cmp	DWORD PTR [eax+12], -1
	je	SHORT $LN6@Size

; 252  : 			return BiasLength;

	mov	eax, DWORD PTR _this$[ebp]
	mov	eax, DWORD PTR [eax+12]
	jmp	$LN7@Size

; 253  : 		else

	jmp	$LN7@Size
$LN6@Size:

; 254  : 		{
; 255  : 			int size = -1;

	mov	DWORD PTR _size$1[ebp], -1

; 256  : 			if (!Is_Open())

	mov	eax, DWORD PTR _this$[ebp]
	mov	edx, DWORD PTR [eax]
	mov	ecx, DWORD PTR _this$[ebp]
	mov	eax, DWORD PTR [edx+24]
	call	eax
	movzx	ecx, al
	test	ecx, ecx
	jne	SHORT $LN4@Size

; 257  : 			{
; 258  : 				if (Open(1))

	push	1
	mov	eax, DWORD PTR _this$[ebp]
	mov	edx, DWORD PTR [eax]
	mov	ecx, DWORD PTR _this$[ebp]
	mov	eax, DWORD PTR [edx+28]
	call	eax
	test	eax, eax
	je	SHORT $LN3@Size

; 259  : 				{
; 260  : 					size = Size();

	mov	eax, DWORD PTR _this$[ebp]
	mov	edx, DWORD PTR [eax]
	mov	ecx, DWORD PTR _this$[ebp]
	mov	eax, DWORD PTR [edx+48]
	call	eax
	mov	DWORD PTR _size$1[ebp], eax

; 261  : 					Close();

	mov	eax, DWORD PTR _this$[ebp]
	mov	edx, DWORD PTR [eax]
	mov	ecx, DWORD PTR _this$[ebp]
	mov	eax, DWORD PTR [edx+56]
	call	eax
$LN3@Size:

; 262  : 				}
; 263  : 			}
; 264  : 			else

	jmp	SHORT $LN2@Size
$LN4@Size:

; 265  : 			{
; 266  : 				size = GetFileSize(Handle,0);

	push	0
	mov	eax, DWORD PTR _this$[ebp]
	mov	ecx, DWORD PTR [eax+16]
	push	ecx
	call	DWORD PTR __imp__GetFileSize@8
	mov	DWORD PTR _size$1[ebp], eax

; 267  : 				if (size == -1)

	cmp	DWORD PTR _size$1[ebp], -1
	jne	SHORT $LN2@Size

; 268  : 					Error(GetLastError(), 0, Filename);

	mov	ecx, DWORD PTR _this$[ebp]
	add	ecx, 20					; 00000014H
	call	??BStringClass@@QBEPBDXZ		; StringClass::operator char const *
	push	eax
	push	0
	call	DWORD PTR __imp__GetLastError@0
	push	eax
	mov	eax, DWORD PTR _this$[ebp]
	mov	edx, DWORD PTR [eax]
	mov	ecx, DWORD PTR _this$[ebp]
	mov	eax, DWORD PTR [edx+68]
	call	eax
$LN2@Size:

; 269  : 			}
; 270  : 			return size;

	mov	eax, DWORD PTR _size$1[ebp]
$LN7@Size:

; 271  : 		}
; 272  : 	}

	pop	edi
	pop	esi
	pop	ebx
	mov	esp, ebp
	pop	ebp
	ret	0
?Size@RawFileClass@@UAEHXZ ENDP				; RawFileClass::Size
_TEXT	ENDS
; Function compile flags: /Odtp /ZI
; File x:\github\renegade\dragonade_rxd\scripts\rawfileclass.h
;	COMDAT ?Raw_Seek@RawFileClass@@QAEHHH@Z
_TEXT	SEGMENT
_seek$ = -8						; size = 4
_this$ = -4						; size = 4
_pos$ = 8						; size = 4
_dir$ = 12						; size = 4
?Raw_Seek@RawFileClass@@QAEHHH@Z PROC			; RawFileClass::Raw_Seek, COMDAT
; _this$ = ecx

; 237  : 	{

	push	ebp
	mov	ebp, esp
	sub	esp, 72					; 00000048H
	push	ebx
	push	esi
	push	edi
	mov	DWORD PTR _this$[ebp], ecx

; 238  : 		if (!Is_Open())

	mov	eax, DWORD PTR _this$[ebp]
	mov	edx, DWORD PTR [eax]
	mov	ecx, DWORD PTR _this$[ebp]
	mov	eax, DWORD PTR [edx+24]
	call	eax
	movzx	ecx, al
	test	ecx, ecx
	jne	SHORT $LN2@Raw_Seek

; 239  : 			Error(9, 0, Filename);

	mov	ecx, DWORD PTR _this$[ebp]
	add	ecx, 20					; 00000014H
	call	??BStringClass@@QBEPBDXZ		; StringClass::operator char const *
	push	eax
	push	0
	push	9
	mov	eax, DWORD PTR _this$[ebp]
	mov	edx, DWORD PTR [eax]
	mov	ecx, DWORD PTR _this$[ebp]
	mov	eax, DWORD PTR [edx+68]
	call	eax
$LN2@Raw_Seek:

; 240  : 		
; 241  : 		int seek = SetFilePointer(Handle, pos, 0, dir);

	mov	eax, DWORD PTR _dir$[ebp]
	push	eax
	push	0
	mov	ecx, DWORD PTR _pos$[ebp]
	push	ecx
	mov	edx, DWORD PTR _this$[ebp]
	mov	eax, DWORD PTR [edx+16]
	push	eax
	call	DWORD PTR __imp__SetFilePointer@16
	mov	DWORD PTR _seek$[ebp], eax

; 242  : 		if (seek == -1)

	cmp	DWORD PTR _seek$[ebp], -1
	jne	SHORT $LN1@Raw_Seek

; 243  : 			Error(GetLastError(), 0, Filename);

	mov	ecx, DWORD PTR _this$[ebp]
	add	ecx, 20					; 00000014H
	call	??BStringClass@@QBEPBDXZ		; StringClass::operator char const *
	push	eax
	push	0
	call	DWORD PTR __imp__GetLastError@0
	push	eax
	mov	eax, DWORD PTR _this$[ebp]
	mov	edx, DWORD PTR [eax]
	mov	ecx, DWORD PTR _this$[ebp]
	mov	eax, DWORD PTR [edx+68]
	call	eax
$LN1@Raw_Seek:

; 244  : 		
; 245  : 		return seek;

	mov	eax, DWORD PTR _seek$[ebp]

; 246  : 	}

	pop	edi
	pop	esi
	pop	ebx
	mov	esp, ebp
	pop	ebp
	ret	8
?Raw_Seek@RawFileClass@@QAEHHH@Z ENDP			; RawFileClass::Raw_Seek
_TEXT	ENDS
; Function compile flags: /Odtp /ZI
; File x:\github\renegade\dragonade_rxd\scripts\rawfileclass.h
;	COMDAT ?Seek@RawFileClass@@UAEHHH@Z
_TEXT	SEGMENT
tv66 = -76						; size = 4
_result$1 = -8						; size = 4
_this$ = -4						; size = 4
_pos$ = 8						; size = 4
_dir$ = 12						; size = 4
?Seek@RawFileClass@@UAEHHH@Z PROC			; RawFileClass::Seek, COMDAT
; _this$ = ecx

; 215  : 	{

	push	ebp
	mov	ebp, esp
	sub	esp, 76					; 0000004cH
	push	ebx
	push	esi
	push	edi
	mov	DWORD PTR _this$[ebp], ecx

; 216  : 		if (BiasLength != -1)

	mov	eax, DWORD PTR _this$[ebp]
	cmp	DWORD PTR [eax+12], -1
	je	$LN11@Seek

; 217  : 		{
; 218  : 			switch (dir)

	mov	eax, DWORD PTR _dir$[ebp]
	mov	DWORD PTR tv66[ebp], eax
	cmp	DWORD PTR tv66[ebp], 1
	je	SHORT $LN8@Seek
	cmp	DWORD PTR tv66[ebp], 2
	je	SHORT $LN7@Seek
	jmp	SHORT $LN9@Seek
$LN8@Seek:

; 219  : 			{
; 220  : 			case 1: pos += Raw_Seek(0, 1) - BiasStart; break;

	push	1
	push	0
	mov	ecx, DWORD PTR _this$[ebp]
	call	?Raw_Seek@RawFileClass@@QAEHHH@Z	; RawFileClass::Raw_Seek
	mov	ecx, DWORD PTR _this$[ebp]
	sub	eax, DWORD PTR [ecx+8]
	add	eax, DWORD PTR _pos$[ebp]
	mov	DWORD PTR _pos$[ebp], eax
	jmp	SHORT $LN9@Seek
$LN7@Seek:

; 221  : 			case 2: pos += BiasLength; break;

	mov	eax, DWORD PTR _this$[ebp]
	mov	ecx, DWORD PTR _pos$[ebp]
	add	ecx, DWORD PTR [eax+12]
	mov	DWORD PTR _pos$[ebp], ecx
$LN9@Seek:

; 222  : 			}
; 223  : 
; 224  : 			int result = Raw_Seek(BiasStart + clamp(pos, 0, BiasLength), 0);

	push	0
	mov	eax, DWORD PTR _this$[ebp]
	mov	ecx, DWORD PTR [eax+12]
	push	ecx
	push	0
	mov	edx, DWORD PTR _pos$[ebp]
	push	edx
	call	??$clamp@H@@YAHHHH@Z			; clamp<int>
	add	esp, 12					; 0000000cH
	mov	ecx, DWORD PTR _this$[ebp]
	add	eax, DWORD PTR [ecx+8]
	push	eax
	mov	ecx, DWORD PTR _this$[ebp]
	call	?Raw_Seek@RawFileClass@@QAEHHH@Z	; RawFileClass::Raw_Seek
	mov	DWORD PTR _result$1[ebp], eax

; 225  : 			if (result != -1)

	cmp	DWORD PTR _result$1[ebp], -1
	je	SHORT $LN4@Seek

; 226  : 				result -= BiasStart;

	mov	eax, DWORD PTR _this$[ebp]
	mov	ecx, DWORD PTR _result$1[ebp]
	sub	ecx, DWORD PTR [eax+8]
	mov	DWORD PTR _result$1[ebp], ecx
$LN4@Seek:

; 227  : 
; 228  : 			TT_ASSERT(result <= BiasLength);

	xor	eax, eax
	jne	SHORT $LN4@Seek
	mov	eax, DWORD PTR _this$[ebp]
	mov	ecx, DWORD PTR _result$1[ebp]
	cmp	ecx, DWORD PTR [eax+12]
	jle	SHORT $LN2@Seek
	int	3
$LN2@Seek:

; 229  : 			return result;

	mov	eax, DWORD PTR _result$1[ebp]
	jmp	SHORT $LN12@Seek

; 230  : 		}
; 231  : 		else

	jmp	SHORT $LN12@Seek
$LN11@Seek:

; 232  : 			return Raw_Seek(pos, dir);

	mov	eax, DWORD PTR _dir$[ebp]
	push	eax
	mov	ecx, DWORD PTR _pos$[ebp]
	push	ecx
	mov	ecx, DWORD PTR _this$[ebp]
	call	?Raw_Seek@RawFileClass@@QAEHHH@Z	; RawFileClass::Raw_Seek
$LN12@Seek:

; 233  : 	}

	pop	edi
	pop	esi
	pop	ebx
	mov	esp, ebp
	pop	ebp
	ret	8
?Seek@RawFileClass@@UAEHHH@Z ENDP			; RawFileClass::Seek
_TEXT	ENDS
; Function compile flags: /Odtp /ZI
; File x:\github\renegade\dragonade_rxd\scripts\rawfileclass.h
;	COMDAT ?Read@RawFileClass@@UAEHPAXH@Z
_TEXT	SEGMENT
_maxBytesToRead$1 = -12					; size = 4
_bytesRead$ = -8					; size = 4
_this$ = -4						; size = 4
_buffer$ = 8						; size = 4
_bytesToRead$ = 12					; size = 4
?Read@RawFileClass@@UAEHPAXH@Z PROC			; RawFileClass::Read, COMDAT
; _this$ = ecx

; 187  : 	{

	push	ebp
	mov	ebp, esp
	sub	esp, 76					; 0000004cH
	push	ebx
	push	esi
	push	edi
	mov	DWORD PTR _this$[ebp], ecx

; 188  : 		DWORD bytesRead = 0;

	mov	DWORD PTR _bytesRead$[ebp], 0

; 189  : 		if (!Is_Open())

	mov	eax, DWORD PTR _this$[ebp]
	mov	edx, DWORD PTR [eax]
	mov	ecx, DWORD PTR _this$[ebp]
	mov	eax, DWORD PTR [edx+24]
	call	eax
	movzx	ecx, al
	test	ecx, ecx
	jne	SHORT $LN6@Read

; 190  : 		{
; 191  : 			if (Open(1))

	push	1
	mov	eax, DWORD PTR _this$[ebp]
	mov	edx, DWORD PTR [eax]
	mov	ecx, DWORD PTR _this$[ebp]
	mov	eax, DWORD PTR [edx+28]
	call	eax
	test	eax, eax
	je	SHORT $LN5@Read

; 192  : 			{
; 193  : 				bytesRead = Read(buffer, bytesToRead);

	mov	eax, DWORD PTR _bytesToRead$[ebp]
	push	eax
	mov	ecx, DWORD PTR _buffer$[ebp]
	push	ecx
	mov	edx, DWORD PTR _this$[ebp]
	mov	eax, DWORD PTR [edx]
	mov	ecx, DWORD PTR _this$[ebp]
	mov	edx, DWORD PTR [eax+36]
	call	edx
	mov	DWORD PTR _bytesRead$[ebp], eax

; 194  : 				Close();

	mov	eax, DWORD PTR _this$[ebp]
	mov	edx, DWORD PTR [eax]
	mov	ecx, DWORD PTR _this$[ebp]
	mov	eax, DWORD PTR [edx+56]
	call	eax
$LN5@Read:

; 195  : 			}
; 196  : 		}
; 197  : 		else

	jmp	SHORT $LN4@Read
$LN6@Read:

; 198  : 		{
; 199  : 			if (BiasLength != -1)

	mov	eax, DWORD PTR _this$[ebp]
	cmp	DWORD PTR [eax+12], -1
	je	SHORT $LN3@Read

; 200  : 			{
; 201  : 				int maxBytesToRead = BiasLength - Tell();

	mov	eax, DWORD PTR _this$[ebp]
	mov	edx, DWORD PTR [eax]
	mov	ecx, DWORD PTR _this$[ebp]
	mov	eax, DWORD PTR [edx+44]
	call	eax
	mov	ecx, DWORD PTR _this$[ebp]
	mov	edx, DWORD PTR [ecx+12]
	sub	edx, eax
	mov	DWORD PTR _maxBytesToRead$1[ebp], edx

; 202  : 				if (bytesToRead > maxBytesToRead)

	mov	eax, DWORD PTR _bytesToRead$[ebp]
	cmp	eax, DWORD PTR _maxBytesToRead$1[ebp]
	jle	SHORT $LN3@Read

; 203  : 					bytesToRead = maxBytesToRead;

	mov	eax, DWORD PTR _maxBytesToRead$1[ebp]
	mov	DWORD PTR _bytesToRead$[ebp], eax
$LN3@Read:

; 204  : 			}
; 205  : 			
; 206  : 			if (!ReadFile(Handle, buffer, bytesToRead, &bytesRead, NULL))

	push	0
	lea	eax, DWORD PTR _bytesRead$[ebp]
	push	eax
	mov	ecx, DWORD PTR _bytesToRead$[ebp]
	push	ecx
	mov	edx, DWORD PTR _buffer$[ebp]
	push	edx
	mov	eax, DWORD PTR _this$[ebp]
	mov	ecx, DWORD PTR [eax+16]
	push	ecx
	call	DWORD PTR __imp__ReadFile@20
	test	eax, eax
	jne	SHORT $LN4@Read

; 207  : 				Error(GetLastError(), 1, Filename);

	mov	ecx, DWORD PTR _this$[ebp]
	add	ecx, 20					; 00000014H
	call	??BStringClass@@QBEPBDXZ		; StringClass::operator char const *
	push	eax
	push	1
	call	DWORD PTR __imp__GetLastError@0
	push	eax
	mov	eax, DWORD PTR _this$[ebp]
	mov	edx, DWORD PTR [eax]
	mov	ecx, DWORD PTR _this$[ebp]
	mov	eax, DWORD PTR [edx+68]
	call	eax
$LN4@Read:

; 208  : 		}
; 209  : 		
; 210  : 		return bytesRead;

	mov	eax, DWORD PTR _bytesRead$[ebp]

; 211  : 	}

	pop	edi
	pop	esi
	pop	ebx
	mov	esp, ebp
	pop	ebp
	ret	8
?Read@RawFileClass@@UAEHPAXH@Z ENDP			; RawFileClass::Read
_TEXT	ENDS
; Function compile flags: /Odtp /ZI
; File x:\github\renegade\dragonade_rxd\scripts\rawfileclass.h
;	COMDAT ?Open@RawFileClass@@UAEHH@Z
_TEXT	SEGMENT
tv88 = -72						; size = 4
_this$ = -4						; size = 4
_mode$ = 8						; size = 4
?Open@RawFileClass@@UAEHH@Z PROC			; RawFileClass::Open, COMDAT
; _this$ = ecx

; 150  : 	{

	push	ebp
	mov	ebp, esp
	sub	esp, 72					; 00000048H
	push	ebx
	push	esi
	push	edi
	mov	DWORD PTR _this$[ebp], ecx

; 151  : 		Close();

	mov	eax, DWORD PTR _this$[ebp]
	mov	edx, DWORD PTR [eax]
	mov	ecx, DWORD PTR _this$[ebp]
	mov	eax, DWORD PTR [edx+56]
	call	eax

; 152  : 		if (Filename.Is_Empty())

	mov	ecx, DWORD PTR _this$[ebp]
	add	ecx, 20					; 00000014H
	call	?Is_Empty@StringClass@@QBE_NXZ		; StringClass::Is_Empty
	movzx	eax, al
	test	eax, eax
	je	SHORT $LN10@Open

; 153  : 		{
; 154  : 			Error(2,0,0);

	push	0
	push	0
	push	2
	mov	eax, DWORD PTR _this$[ebp]
	mov	edx, DWORD PTR [eax]
	mov	ecx, DWORD PTR _this$[ebp]
	mov	eax, DWORD PTR [edx+68]
	call	eax
$LN10@Open:

; 155  : 		}
; 156  : 		Rights = mode;

	mov	eax, DWORD PTR _this$[ebp]
	mov	ecx, DWORD PTR _mode$[ebp]
	mov	DWORD PTR [eax+4], ecx

; 157  : 		switch (Rights)

	mov	eax, DWORD PTR _this$[ebp]
	mov	ecx, DWORD PTR [eax+4]
	mov	DWORD PTR tv88[ebp], ecx
	cmp	DWORD PTR tv88[ebp], 3
	ja	$LN3@Open
	mov	edx, DWORD PTR tv88[ebp]
	jmp	DWORD PTR $LN13@Open[edx*4]
$LN7@Open:

; 158  : 		{
; 159  : 		case 3: //DA
; 160  : 			Handle = CreateFileA(Filename, GENERIC_WRITE, 0, 0, OPEN_ALWAYS, FILE_ATTRIBUTE_NORMAL, 0);

	push	0
	push	128					; 00000080H
	push	4
	push	0
	push	0
	push	1073741824				; 40000000H
	mov	ecx, DWORD PTR _this$[ebp]
	add	ecx, 20					; 00000014H
	call	??BStringClass@@QBEPBDXZ		; StringClass::operator char const *
	push	eax
	call	DWORD PTR __imp__CreateFileA@28
	mov	ecx, DWORD PTR _this$[ebp]
	mov	DWORD PTR [ecx+16], eax

; 161  : 			break;

	jmp	$LN8@Open
$LN6@Open:

; 162  : 		case 2:
; 163  : 			Handle = CreateFileA(Filename,GENERIC_WRITE,0,0,CREATE_ALWAYS,FILE_ATTRIBUTE_NORMAL,0);

	push	0
	push	128					; 00000080H
	push	2
	push	0
	push	0
	push	1073741824				; 40000000H
	mov	ecx, DWORD PTR _this$[ebp]
	add	ecx, 20					; 00000014H
	call	??BStringClass@@QBEPBDXZ		; StringClass::operator char const *
	push	eax
	call	DWORD PTR __imp__CreateFileA@28
	mov	ecx, DWORD PTR _this$[ebp]
	mov	DWORD PTR [ecx+16], eax

; 164  : 			break;

	jmp	SHORT $LN8@Open
$LN5@Open:

; 165  : 		case 1:
; 166  : 			Handle = CreateFileA(Filename,GENERIC_READ,FILE_SHARE_READ,0,OPEN_EXISTING,FILE_ATTRIBUTE_NORMAL | FILE_FLAG_SEQUENTIAL_SCAN,0);

	push	0
	push	134217856				; 08000080H
	push	3
	push	0
	push	1
	push	-2147483648				; 80000000H
	mov	ecx, DWORD PTR _this$[ebp]
	add	ecx, 20					; 00000014H
	call	??BStringClass@@QBEPBDXZ		; StringClass::operator char const *
	push	eax
	call	DWORD PTR __imp__CreateFileA@28
	mov	ecx, DWORD PTR _this$[ebp]
	mov	DWORD PTR [ecx+16], eax

; 167  : 			break;

	jmp	SHORT $LN8@Open
$LN4@Open:

; 168  : 		case 0:
; 169  : 			Handle = CreateFileA(Filename,GENERIC_READ|GENERIC_WRITE,0,0,OPEN_ALWAYS,FILE_ATTRIBUTE_NORMAL,0);

	push	0
	push	128					; 00000080H
	push	4
	push	0
	push	0
	push	-1073741824				; c0000000H
	mov	ecx, DWORD PTR _this$[ebp]
	add	ecx, 20					; 00000014H
	call	??BStringClass@@QBEPBDXZ		; StringClass::operator char const *
	push	eax
	call	DWORD PTR __imp__CreateFileA@28
	mov	ecx, DWORD PTR _this$[ebp]
	mov	DWORD PTR [ecx+16], eax

; 170  : 			break;

	jmp	SHORT $LN8@Open
$LN3@Open:

; 171  : 		default:
; 172  : 			errno = EINVAL;

	call	DWORD PTR __imp___errno
	mov	DWORD PTR [eax], 22			; 00000016H
$LN8@Open:

; 173  : 		}
; 174  : 		if ((BiasStart) && (BiasLength != -1))

	mov	eax, DWORD PTR _this$[ebp]
	cmp	DWORD PTR [eax+8], 0
	je	SHORT $LN2@Open
	mov	eax, DWORD PTR _this$[ebp]
	cmp	DWORD PTR [eax+12], -1
	je	SHORT $LN2@Open

; 175  : 		{
; 176  : 			Seek(0,0);

	push	0
	push	0
	mov	eax, DWORD PTR _this$[ebp]
	mov	edx, DWORD PTR [eax]
	mov	ecx, DWORD PTR _this$[ebp]
	mov	eax, DWORD PTR [edx+40]
	call	eax
$LN2@Open:

; 177  : 		}
; 178  : 		if (Handle != INVALID_HANDLE_VALUE)

	mov	eax, DWORD PTR _this$[ebp]
	cmp	DWORD PTR [eax+16], -1
	je	SHORT $LN1@Open

; 179  : 		{
; 180  : 			return true;

	mov	eax, 1
	jmp	SHORT $LN11@Open
$LN1@Open:

; 181  : 		}
; 182  : 		return false;

	xor	eax, eax
$LN11@Open:

; 183  : 	}

	pop	edi
	pop	esi
	pop	ebx
	mov	esp, ebp
	pop	ebp
	ret	4
	npad	3
$LN13@Open:
	DD	$LN4@Open
	DD	$LN5@Open
	DD	$LN6@Open
	DD	$LN7@Open
?Open@RawFileClass@@UAEHH@Z ENDP			; RawFileClass::Open
_TEXT	ENDS
; Function compile flags: /Odtp /ZI
; File x:\github\renegade\dragonade_rxd\scripts\rawfileclass.h
;	COMDAT ?Open@RawFileClass@@UAEHPBDH@Z
_TEXT	SEGMENT
_this$ = -4						; size = 4
_name$ = 8						; size = 4
_mode$ = 12						; size = 4
?Open@RawFileClass@@UAEHPBDH@Z PROC			; RawFileClass::Open, COMDAT
; _this$ = ecx

; 145  : 	{

	push	ebp
	mov	ebp, esp
	sub	esp, 68					; 00000044H
	push	ebx
	push	esi
	push	edi
	mov	DWORD PTR _this$[ebp], ecx

; 146  : 		Set_Name(name);

	mov	eax, DWORD PTR _name$[ebp]
	push	eax
	mov	ecx, DWORD PTR _this$[ebp]
	mov	edx, DWORD PTR [ecx]
	mov	ecx, DWORD PTR _this$[ebp]
	mov	eax, DWORD PTR [edx+8]
	call	eax

; 147  : 		return Open(mode);

	mov	eax, DWORD PTR _mode$[ebp]
	push	eax
	mov	ecx, DWORD PTR _this$[ebp]
	mov	edx, DWORD PTR [ecx]
	mov	ecx, DWORD PTR _this$[ebp]
	mov	eax, DWORD PTR [edx+28]
	call	eax

; 148  : 	}

	pop	edi
	pop	esi
	pop	ebx
	mov	esp, ebp
	pop	ebp
	ret	8
?Open@RawFileClass@@UAEHPBDH@Z ENDP			; RawFileClass::Open
_TEXT	ENDS
; Function compile flags: /Odtp /ZI
; File x:\github\renegade\dragonade_rxd\scripts\rawfileclass.h
;	COMDAT ?Is_Open@RawFileClass@@UAE_NXZ
_TEXT	SEGMENT
_this$ = -4						; size = 4
?Is_Open@RawFileClass@@UAE_NXZ PROC			; RawFileClass::Is_Open, COMDAT
; _this$ = ecx

; 137  : 	{

	push	ebp
	mov	ebp, esp
	sub	esp, 68					; 00000044H
	push	ebx
	push	esi
	push	edi
	mov	DWORD PTR _this$[ebp], ecx

; 138  : 		if (Handle != INVALID_HANDLE_VALUE)

	mov	eax, DWORD PTR _this$[ebp]
	cmp	DWORD PTR [eax+16], -1
	je	SHORT $LN1@Is_Open

; 139  : 		{
; 140  : 			return true;

	mov	al, 1
	jmp	SHORT $LN2@Is_Open
$LN1@Is_Open:

; 141  : 		}
; 142  : 		return false;

	xor	al, al
$LN2@Is_Open:

; 143  : 	}

	pop	edi
	pop	esi
	pop	ebx
	mov	esp, ebp
	pop	ebp
	ret	0
?Is_Open@RawFileClass@@UAE_NXZ ENDP			; RawFileClass::Is_Open
_TEXT	ENDS
; Function compile flags: /Odtp /ZI
; File x:\github\renegade\dragonade_rxd\scripts\rawfileclass.h
;	COMDAT ?Is_Available@RawFileClass@@UAE_NH@Z
_TEXT	SEGMENT
tv135 = -76						; size = 4
_attr$ = -8						; size = 4
_this$ = -4						; size = 4
__handle$ = 8						; size = 4
?Is_Available@RawFileClass@@UAE_NH@Z PROC		; RawFileClass::Is_Available, COMDAT
; _this$ = ecx

; 119  : 	{

	push	ebp
	mov	ebp, esp
	sub	esp, 76					; 0000004cH
	push	ebx
	push	esi
	push	edi
	mov	DWORD PTR _this$[ebp], ecx

; 120  : 		if (Filename.Is_Empty())

	mov	ecx, DWORD PTR _this$[ebp]
	add	ecx, 20					; 00000014H
	call	?Is_Empty@StringClass@@QBE_NXZ		; StringClass::Is_Empty
	movzx	eax, al
	test	eax, eax
	je	SHORT $LN3@Is_Availab

; 121  : 			return false;

	xor	al, al
	jmp	SHORT $LN4@Is_Availab
$LN3@Is_Availab:

; 122  : 		
; 123  : 		if (Is_Open())

	mov	eax, DWORD PTR _this$[ebp]
	mov	edx, DWORD PTR [eax]
	mov	ecx, DWORD PTR _this$[ebp]
	mov	eax, DWORD PTR [edx+24]
	call	eax
	movzx	ecx, al
	test	ecx, ecx
	je	SHORT $LN2@Is_Availab

; 124  : 			return true;

	mov	al, 1
	jmp	SHORT $LN4@Is_Availab
$LN2@Is_Availab:

; 125  : 		
; 126  : 		if (_handle)

	cmp	DWORD PTR __handle$[ebp], 0
	je	SHORT $LN1@Is_Availab

; 127  : 		{
; 128  : 			Open(1);

	push	1
	mov	eax, DWORD PTR _this$[ebp]
	mov	edx, DWORD PTR [eax]
	mov	ecx, DWORD PTR _this$[ebp]
	mov	eax, DWORD PTR [edx+28]
	call	eax

; 129  : 			Close();

	mov	eax, DWORD PTR _this$[ebp]
	mov	edx, DWORD PTR [eax]
	mov	ecx, DWORD PTR _this$[ebp]
	mov	eax, DWORD PTR [edx+56]
	call	eax

; 130  : 			return true;

	mov	al, 1
	jmp	SHORT $LN4@Is_Availab
$LN1@Is_Availab:

; 131  : 		}
; 132  : 
; 133  : 		int attr = GetFileAttributesA(Filename);

	mov	ecx, DWORD PTR _this$[ebp]
	add	ecx, 20					; 00000014H
	call	??BStringClass@@QBEPBDXZ		; StringClass::operator char const *
	push	eax
	call	DWORD PTR __imp__GetFileAttributesA@4
	mov	DWORD PTR _attr$[ebp], eax

; 134  : 		return attr != INVALID_FILE_ATTRIBUTES && !(attr & FILE_ATTRIBUTE_DIRECTORY);

	cmp	DWORD PTR _attr$[ebp], -1
	je	SHORT $LN6@Is_Availab
	mov	eax, DWORD PTR _attr$[ebp]
	and	eax, 16					; 00000010H
	jne	SHORT $LN6@Is_Availab
	mov	DWORD PTR tv135[ebp], 1
	jmp	SHORT $LN7@Is_Availab
$LN6@Is_Availab:
	mov	DWORD PTR tv135[ebp], 0
$LN7@Is_Availab:
	mov	al, BYTE PTR tv135[ebp]
$LN4@Is_Availab:

; 135  : 	}

	pop	edi
	pop	esi
	pop	ebx
	mov	esp, ebp
	pop	ebp
	ret	4
?Is_Available@RawFileClass@@UAE_NH@Z ENDP		; RawFileClass::Is_Available
_TEXT	ENDS
; Function compile flags: /Odtp /ZI
; File x:\github\renegade\dragonade_rxd\scripts\rawfileclass.h
;	COMDAT ?Delete@RawFileClass@@UAE_NXZ
_TEXT	SEGMENT
_this$ = -4						; size = 4
?Delete@RawFileClass@@UAE_NXZ PROC			; RawFileClass::Delete, COMDAT
; _this$ = ecx

; 101  : 	{

	push	ebp
	mov	ebp, esp
	sub	esp, 68					; 00000044H
	push	ebx
	push	esi
	push	edi
	mov	DWORD PTR _this$[ebp], ecx

; 102  : 		Close();

	mov	eax, DWORD PTR _this$[ebp]
	mov	edx, DWORD PTR [eax]
	mov	ecx, DWORD PTR _this$[ebp]
	mov	eax, DWORD PTR [edx+56]
	call	eax

; 103  : 		if (Filename.Is_Empty())

	mov	ecx, DWORD PTR _this$[ebp]
	add	ecx, 20					; 00000014H
	call	?Is_Empty@StringClass@@QBE_NXZ		; StringClass::Is_Empty
	movzx	eax, al
	test	eax, eax
	je	SHORT $LN3@Delete

; 104  : 		{
; 105  : 			Error(2,0,0);

	push	0
	push	0
	push	2
	mov	eax, DWORD PTR _this$[ebp]
	mov	edx, DWORD PTR [eax]
	mov	ecx, DWORD PTR _this$[ebp]
	mov	eax, DWORD PTR [edx+68]
	call	eax
$LN3@Delete:

; 106  : 		}
; 107  : 		if (!Is_Available(0))

	push	0
	mov	eax, DWORD PTR _this$[ebp]
	mov	edx, DWORD PTR [eax]
	mov	ecx, DWORD PTR _this$[ebp]
	mov	eax, DWORD PTR [edx+20]
	call	eax
	movzx	ecx, al
	test	ecx, ecx
	jne	SHORT $LN2@Delete

; 108  : 		{
; 109  : 			return false;

	xor	al, al
	jmp	SHORT $LN4@Delete
$LN2@Delete:

; 110  : 		}
; 111  : 		if (!DeleteFileA(Filename))

	mov	ecx, DWORD PTR _this$[ebp]
	add	ecx, 20					; 00000014H
	call	??BStringClass@@QBEPBDXZ		; StringClass::operator char const *
	push	eax
	call	DWORD PTR __imp__DeleteFileA@4
	test	eax, eax
	jne	SHORT $LN1@Delete

; 112  : 		{
; 113  : 			Error(GetLastError(),0,Filename);

	mov	ecx, DWORD PTR _this$[ebp]
	add	ecx, 20					; 00000014H
	call	??BStringClass@@QBEPBDXZ		; StringClass::operator char const *
	push	eax
	push	0
	call	DWORD PTR __imp__GetLastError@0
	push	eax
	mov	eax, DWORD PTR _this$[ebp]
	mov	edx, DWORD PTR [eax]
	mov	ecx, DWORD PTR _this$[ebp]
	mov	eax, DWORD PTR [edx+68]
	call	eax

; 114  : 			return false;

	xor	al, al
	jmp	SHORT $LN4@Delete
$LN1@Delete:

; 115  : 		}
; 116  : 		return true;

	mov	al, 1
$LN4@Delete:

; 117  : 	}

	pop	edi
	pop	esi
	pop	ebx
	mov	esp, ebp
	pop	ebp
	ret	0
?Delete@RawFileClass@@UAE_NXZ ENDP			; RawFileClass::Delete
_TEXT	ENDS
; Function compile flags: /Odtp /ZI
; File x:\github\renegade\dragonade_rxd\scripts\rawfileclass.h
;	COMDAT ?Create@RawFileClass@@UAE_NXZ
_TEXT	SEGMENT
_this$ = -4						; size = 4
?Create@RawFileClass@@UAE_NXZ PROC			; RawFileClass::Create, COMDAT
; _this$ = ecx

; 87   : 	{

	push	ebp
	mov	ebp, esp
	sub	esp, 68					; 00000044H
	push	ebx
	push	esi
	push	edi
	mov	DWORD PTR _this$[ebp], ecx

; 88   : 		Close();

	mov	eax, DWORD PTR _this$[ebp]
	mov	edx, DWORD PTR [eax]
	mov	ecx, DWORD PTR _this$[ebp]
	mov	eax, DWORD PTR [edx+56]
	call	eax

; 89   : 		if (!Open(2))

	push	2
	mov	eax, DWORD PTR _this$[ebp]
	mov	edx, DWORD PTR [eax]
	mov	ecx, DWORD PTR _this$[ebp]
	mov	eax, DWORD PTR [edx+28]
	call	eax
	test	eax, eax
	jne	SHORT $LN2@Create

; 90   : 		{
; 91   : 			return false;

	xor	al, al
	jmp	SHORT $LN3@Create
$LN2@Create:

; 92   : 		}
; 93   : 		if (BiasLength != -1)

	mov	eax, DWORD PTR _this$[ebp]
	cmp	DWORD PTR [eax+12], -1
	je	SHORT $LN1@Create

; 94   : 		{
; 95   : 			Seek(0,0);

	push	0
	push	0
	mov	eax, DWORD PTR _this$[ebp]
	mov	edx, DWORD PTR [eax]
	mov	ecx, DWORD PTR _this$[ebp]
	mov	eax, DWORD PTR [edx+40]
	call	eax
$LN1@Create:

; 96   : 		}
; 97   : 		Close();

	mov	eax, DWORD PTR _this$[ebp]
	mov	edx, DWORD PTR [eax]
	mov	ecx, DWORD PTR _this$[ebp]
	mov	eax, DWORD PTR [edx+56]
	call	eax

; 98   : 		return true;

	mov	al, 1
$LN3@Create:

; 99   : 	}

	pop	edi
	pop	esi
	pop	ebx
	mov	esp, ebp
	pop	ebp
	ret	0
?Create@RawFileClass@@UAE_NXZ ENDP			; RawFileClass::Create
_TEXT	ENDS
; Function compile flags: /Odtp /ZI
; File x:\github\renegade\dragonade_rxd\scripts\rawfileclass.h
;	COMDAT ?Set_Name@RawFileClass@@UAEPBDPBD@Z
_TEXT	SEGMENT
_this$ = -4						; size = 4
_name$ = 8						; size = 4
?Set_Name@RawFileClass@@UAEPBDPBD@Z PROC		; RawFileClass::Set_Name, COMDAT
; _this$ = ecx

; 77   : 	{

	push	ebp
	mov	ebp, esp
	sub	esp, 68					; 00000044H
	push	ebx
	push	esi
	push	edi
	mov	DWORD PTR _this$[ebp], ecx

; 78   : 		Reset();

	mov	ecx, DWORD PTR _this$[ebp]
	call	?Reset@RawFileClass@@QAEXXZ		; RawFileClass::Reset

; 79   : 		if (name)

	cmp	DWORD PTR _name$[ebp], 0
	je	SHORT $LN1@Set_Name

; 80   : 		{
; 81   : 			Bias(0,-1);

	push	-1
	push	0
	mov	eax, DWORD PTR _this$[ebp]
	mov	edx, DWORD PTR [eax]
	mov	ecx, DWORD PTR _this$[ebp]
	mov	eax, DWORD PTR [edx+76]
	call	eax

; 82   : 			Filename = name;

	mov	eax, DWORD PTR _name$[ebp]
	push	eax
	mov	ecx, DWORD PTR _this$[ebp]
	add	ecx, 20					; 00000014H
	call	??4StringClass@@QAEABV0@PBD@Z		; StringClass::operator=
$LN1@Set_Name:

; 83   : 		}
; 84   : 		return 0;

	xor	eax, eax

; 85   : 	}

	pop	edi
	pop	esi
	pop	ebx
	mov	esp, ebp
	pop	ebp
	ret	4
?Set_Name@RawFileClass@@UAEPBDPBD@Z ENDP		; RawFileClass::Set_Name
_TEXT	ENDS
; Function compile flags: /Odtp /ZI
; File x:\github\renegade\dragonade_rxd\scripts\rawfileclass.h
;	COMDAT ?File_Name@RawFileClass@@UAEPBDXZ
_TEXT	SEGMENT
_this$ = -4						; size = 4
?File_Name@RawFileClass@@UAEPBDXZ PROC			; RawFileClass::File_Name, COMDAT
; _this$ = ecx

; 73   : 	{

	push	ebp
	mov	ebp, esp
	sub	esp, 68					; 00000044H
	push	ebx
	push	esi
	push	edi
	mov	DWORD PTR _this$[ebp], ecx

; 74   : 		return Filename;

	mov	ecx, DWORD PTR _this$[ebp]
	add	ecx, 20					; 00000014H
	call	??BStringClass@@QBEPBDXZ		; StringClass::operator char const *

; 75   : 	}

	pop	edi
	pop	esi
	pop	ebx
	mov	esp, ebp
	pop	ebp
	ret	0
?File_Name@RawFileClass@@UAEPBDXZ ENDP			; RawFileClass::File_Name
_TEXT	ENDS
; Function compile flags: /Odtp /ZI
; File x:\github\renegade\dragonade_rxd\scripts\rawfileclass.h
;	COMDAT ??1RawFileClass@@UAE@XZ
_TEXT	SEGMENT
_this$ = -4						; size = 4
??1RawFileClass@@UAE@XZ PROC				; RawFileClass::~RawFileClass, COMDAT
; _this$ = ecx

; 69   : 	{

	push	ebp
	mov	ebp, esp
	sub	esp, 68					; 00000044H
	push	ebx
	push	esi
	push	edi
	mov	DWORD PTR _this$[ebp], ecx
	mov	eax, DWORD PTR _this$[ebp]
	mov	DWORD PTR [eax], OFFSET ??_7RawFileClass@@6B@

; 70   : 		Reset();

	mov	ecx, DWORD PTR _this$[ebp]
	call	?Reset@RawFileClass@@QAEXXZ		; RawFileClass::Reset

; 71   : 	}

	mov	ecx, DWORD PTR _this$[ebp]
	add	ecx, 20					; 00000014H
	call	??1StringClass@@QAE@XZ			; StringClass::~StringClass
	mov	ecx, DWORD PTR _this$[ebp]
	call	??1FileClass@@UAE@XZ			; FileClass::~FileClass
	pop	edi
	pop	esi
	pop	ebx
	mov	esp, ebp
	pop	ebp
	ret	0
??1RawFileClass@@UAE@XZ ENDP				; RawFileClass::~RawFileClass
_TEXT	ENDS
; Function compile flags: /Odtp /ZI
; File x:\github\renegade\dragonade_rxd\scripts\rawfileclass.h
;	COMDAT ?Reset@RawFileClass@@QAEXXZ
_TEXT	SEGMENT
_this$ = -4						; size = 4
?Reset@RawFileClass@@QAEXXZ PROC			; RawFileClass::Reset, COMDAT
; _this$ = ecx

; 64   : 	{

	push	ebp
	mov	ebp, esp
	sub	esp, 68					; 00000044H
	push	ebx
	push	esi
	push	edi
	mov	DWORD PTR _this$[ebp], ecx

; 65   : 		Close();

	mov	eax, DWORD PTR _this$[ebp]
	mov	edx, DWORD PTR [eax]
	mov	ecx, DWORD PTR _this$[ebp]
	mov	eax, DWORD PTR [edx+56]
	call	eax

; 66   : 		Filename = "";

	push	OFFSET ??_C@_00CNPNBAHC@?$AA@
	mov	ecx, DWORD PTR _this$[ebp]
	add	ecx, 20					; 00000014H
	call	??4StringClass@@QAEABV0@PBD@Z		; StringClass::operator=

; 67   : 	}

	pop	edi
	pop	esi
	pop	ebx
	mov	esp, ebp
	pop	ebp
	ret	0
?Reset@RawFileClass@@QAEXXZ ENDP			; RawFileClass::Reset
_TEXT	ENDS
; Function compile flags: /Odtp /ZI
; File x:\github\renegade\dragonade_rxd\scripts\rawfileclass.h
;	COMDAT ??0RawFileClass@@QAE@XZ
_TEXT	SEGMENT
_this$ = -4						; size = 4
??0RawFileClass@@QAE@XZ PROC				; RawFileClass::RawFileClass, COMDAT
; _this$ = ecx

; 39   : 	RawFileClass()

	push	ebp
	mov	ebp, esp
	sub	esp, 68					; 00000044H
	push	ebx
	push	esi
	push	edi
	mov	DWORD PTR _this$[ebp], ecx
	mov	ecx, DWORD PTR _this$[ebp]
	call	??0FileClass@@QAE@XZ
	mov	eax, DWORD PTR _this$[ebp]
	mov	DWORD PTR [eax], OFFSET ??_7RawFileClass@@6B@
	push	0
	push	0
	mov	ecx, DWORD PTR _this$[ebp]
	add	ecx, 20					; 00000014H
	call	??0StringClass@@QAE@H_N@Z		; StringClass::StringClass

; 40   : 	{
; 41   : 		BiasLength = -1;

	mov	eax, DWORD PTR _this$[ebp]
	mov	DWORD PTR [eax+12], -1

; 42   : 		Handle = INVALID_HANDLE_VALUE;

	mov	eax, DWORD PTR _this$[ebp]
	mov	DWORD PTR [eax+16], -1

; 43   : 		Rights = 0;

	mov	eax, DWORD PTR _this$[ebp]
	mov	DWORD PTR [eax+4], 0

; 44   : 		BiasStart = 0;

	mov	eax, DWORD PTR _this$[ebp]
	mov	DWORD PTR [eax+8], 0

; 45   : 		Date = 0;

	xor	eax, eax
	mov	ecx, DWORD PTR _this$[ebp]
	mov	WORD PTR [ecx+24], ax

; 46   : 		Time = 0;

	xor	eax, eax
	mov	ecx, DWORD PTR _this$[ebp]
	mov	WORD PTR [ecx+26], ax

; 47   : 		Filename = "";

	push	OFFSET ??_C@_00CNPNBAHC@?$AA@
	mov	ecx, DWORD PTR _this$[ebp]
	add	ecx, 20					; 00000014H
	call	??4StringClass@@QAEABV0@PBD@Z		; StringClass::operator=

; 48   : 	}

	mov	eax, DWORD PTR _this$[ebp]
	pop	edi
	pop	esi
	pop	ebx
	mov	esp, ebp
	pop	ebp
	ret	0
??0RawFileClass@@QAE@XZ ENDP				; RawFileClass::RawFileClass
_TEXT	ENDS
; Function compile flags: /Odtp /ZI
; File x:\github\renegade\dragonade_rxd\scripts\rawfileclass.h
;	COMDAT ?Is_Biased@RawFileClass@@QAE_NXZ
_TEXT	SEGMENT
tv66 = -72						; size = 4
_this$ = -4						; size = 4
?Is_Biased@RawFileClass@@QAE_NXZ PROC			; RawFileClass::Is_Biased, COMDAT
; _this$ = ecx

; 36   : 	{

	push	ebp
	mov	ebp, esp
	sub	esp, 72					; 00000048H
	push	ebx
	push	esi
	push	edi
	mov	DWORD PTR _this$[ebp], ecx

; 37   : 		return BiasLength != -1;

	mov	eax, DWORD PTR _this$[ebp]
	cmp	DWORD PTR [eax+12], -1
	je	SHORT $LN3@Is_Biased
	mov	DWORD PTR tv66[ebp], 1
	jmp	SHORT $LN4@Is_Biased
$LN3@Is_Biased:
	mov	DWORD PTR tv66[ebp], 0
$LN4@Is_Biased:
	mov	al, BYTE PTR tv66[ebp]

; 38   : 	}

	pop	edi
	pop	esi
	pop	ebx
	mov	esp, ebp
	pop	ebp
	ret	0
?Is_Biased@RawFileClass@@QAE_NXZ ENDP			; RawFileClass::Is_Biased
_TEXT	ENDS
; Function compile flags: /Odtp /ZI
; File x:\github\renegade\dragonade_rxd\scripts\rawfileclass.h
;	COMDAT ?Is_Hash_Checked@RawFileClass@@UAE_NXZ
_TEXT	SEGMENT
_this$ = -4						; size = 4
?Is_Hash_Checked@RawFileClass@@UAE_NXZ PROC		; RawFileClass::Is_Hash_Checked, COMDAT
; _this$ = ecx

; 32   : 	{

	push	ebp
	mov	ebp, esp
	sub	esp, 68					; 00000044H
	push	ebx
	push	esi
	push	edi
	mov	DWORD PTR _this$[ebp], ecx

; 33   : 		return Is_Biased();

	mov	ecx, DWORD PTR _this$[ebp]
	call	?Is_Biased@RawFileClass@@QAE_NXZ	; RawFileClass::Is_Biased

; 34   : 	}

	pop	edi
	pop	esi
	pop	ebx
	mov	esp, ebp
	pop	ebp
	ret	0
?Is_Hash_Checked@RawFileClass@@UAE_NXZ ENDP		; RawFileClass::Is_Hash_Checked
_TEXT	ENDS
; Function compile flags: /Odtp /ZI
;	COMDAT ??_GFilePipe@@UAEPAXI@Z
_TEXT	SEGMENT
_this$ = -4						; size = 4
___flags$ = 8						; size = 4
??_GFilePipe@@UAEPAXI@Z PROC				; FilePipe::`scalar deleting destructor', COMDAT
; _this$ = ecx
	push	ebp
	mov	ebp, esp
	sub	esp, 68					; 00000044H
	push	ebx
	push	esi
	push	edi
	mov	DWORD PTR _this$[ebp], ecx
	mov	ecx, DWORD PTR _this$[ebp]
	call	??1FilePipe@@UAE@XZ			; FilePipe::~FilePipe
	mov	eax, DWORD PTR ___flags$[ebp]
	and	eax, 1
	je	SHORT $LN1@scalar
	mov	eax, DWORD PTR _this$[ebp]
	push	eax
	call	??3@YAXPAX@Z				; operator delete
	add	esp, 4
$LN1@scalar:
	mov	eax, DWORD PTR _this$[ebp]
	pop	edi
	pop	esi
	pop	ebx
	mov	esp, ebp
	pop	ebp
	ret	4
??_GFilePipe@@UAEPAXI@Z ENDP				; FilePipe::`scalar deleting destructor'
_TEXT	ENDS
; Function compile flags: /Odtp /ZI
; File x:\github\renegade\dragonade_rxd\scripts\straw.h
;	COMDAT ?Put@FilePipe@@UAEHPBXH@Z
_TEXT	SEGMENT
_this$ = -4						; size = 4
_source$ = 8						; size = 4
_length$ = 12						; size = 4
?Put@FilePipe@@UAEHPBXH@Z PROC				; FilePipe::Put, COMDAT
; _this$ = ecx

; 253  : 	{

	push	ebp
	mov	ebp, esp
	sub	esp, 68					; 00000044H
	push	ebx
	push	esi
	push	edi
	mov	DWORD PTR _this$[ebp], ecx

; 254  : 		if (File && source && length > 0)

	mov	eax, DWORD PTR _this$[ebp]
	cmp	DWORD PTR [eax+12], 0
	je	SHORT $LN3@Put
	cmp	DWORD PTR _source$[ebp], 0
	je	SHORT $LN3@Put
	cmp	DWORD PTR _length$[ebp], 0
	jle	SHORT $LN3@Put

; 255  : 		{
; 256  : 			if (!File->Is_Open())

	mov	eax, DWORD PTR _this$[ebp]
	mov	ecx, DWORD PTR [eax+12]
	mov	edx, DWORD PTR _this$[ebp]
	mov	eax, DWORD PTR [ecx]
	mov	ecx, DWORD PTR [edx+12]
	mov	edx, DWORD PTR [eax+24]
	call	edx
	movzx	eax, al
	test	eax, eax
	jne	SHORT $LN2@Put

; 257  : 			{
; 258  : 				HasOpened = true;

	mov	eax, DWORD PTR _this$[ebp]
	mov	BYTE PTR [eax+16], 1

; 259  : 				File->Open(2);

	push	2
	mov	eax, DWORD PTR _this$[ebp]
	mov	ecx, DWORD PTR [eax+12]
	mov	edx, DWORD PTR _this$[ebp]
	mov	eax, DWORD PTR [ecx]
	mov	ecx, DWORD PTR [edx+12]
	mov	edx, DWORD PTR [eax+28]
	call	edx
$LN2@Put:

; 260  : 			}
; 261  : 			return File->Write((void *)source,length);

	mov	eax, DWORD PTR _length$[ebp]
	push	eax
	mov	ecx, DWORD PTR _source$[ebp]
	push	ecx
	mov	edx, DWORD PTR _this$[ebp]
	mov	eax, DWORD PTR [edx+12]
	mov	ecx, DWORD PTR _this$[ebp]
	mov	edx, DWORD PTR [eax]
	mov	ecx, DWORD PTR [ecx+12]
	mov	eax, DWORD PTR [edx+52]
	call	eax
	jmp	SHORT $LN4@Put

; 262  : 		}
; 263  : 		else

	jmp	SHORT $LN4@Put
$LN3@Put:

; 264  : 		{
; 265  : 			return 0;

	xor	eax, eax
$LN4@Put:

; 266  : 		}
; 267  : 	}

	pop	edi
	pop	esi
	pop	ebx
	mov	esp, ebp
	pop	ebp
	ret	8
?Put@FilePipe@@UAEHPBXH@Z ENDP				; FilePipe::Put
_TEXT	ENDS
; Function compile flags: /Odtp /ZI
; File x:\github\renegade\dragonade_rxd\scripts\straw.h
;	COMDAT ?End@FilePipe@@UAEHXZ
_TEXT	SEGMENT
_ret$ = -8						; size = 4
_this$ = -4						; size = 4
?End@FilePipe@@UAEHXZ PROC				; FilePipe::End, COMDAT
; _this$ = ecx

; 243  : 	{

	push	ebp
	mov	ebp, esp
	sub	esp, 72					; 00000048H
	push	ebx
	push	esi
	push	edi
	mov	DWORD PTR _this$[ebp], ecx

; 244  : 		int ret = Flush();

	mov	eax, DWORD PTR _this$[ebp]
	mov	edx, DWORD PTR [eax]
	mov	ecx, DWORD PTR _this$[ebp]
	mov	eax, DWORD PTR [edx+4]
	call	eax
	mov	DWORD PTR _ret$[ebp], eax

; 245  : 		if (File && HasOpened)

	mov	eax, DWORD PTR _this$[ebp]
	cmp	DWORD PTR [eax+12], 0
	je	SHORT $LN1@End
	mov	eax, DWORD PTR _this$[ebp]
	movzx	ecx, BYTE PTR [eax+16]
	test	ecx, ecx
	je	SHORT $LN1@End

; 246  : 		{
; 247  : 			HasOpened = false;

	mov	eax, DWORD PTR _this$[ebp]
	mov	BYTE PTR [eax+16], 0

; 248  : 			File->Close();

	mov	eax, DWORD PTR _this$[ebp]
	mov	ecx, DWORD PTR [eax+12]
	mov	edx, DWORD PTR _this$[ebp]
	mov	eax, DWORD PTR [ecx]
	mov	ecx, DWORD PTR [edx+12]
	mov	edx, DWORD PTR [eax+56]
	call	edx
$LN1@End:

; 249  : 		}
; 250  : 		return ret;

	mov	eax, DWORD PTR _ret$[ebp]

; 251  : 	}

	pop	edi
	pop	esi
	pop	ebx
	mov	esp, ebp
	pop	ebp
	ret	0
?End@FilePipe@@UAEHXZ ENDP				; FilePipe::End
_TEXT	ENDS
; Function compile flags: /Odtp /ZI
; File x:\github\renegade\dragonade_rxd\scripts\straw.h
;	COMDAT ??1FilePipe@@UAE@XZ
_TEXT	SEGMENT
_this$ = -4						; size = 4
??1FilePipe@@UAE@XZ PROC				; FilePipe::~FilePipe, COMDAT
; _this$ = ecx

; 234  : 	{

	push	ebp
	mov	ebp, esp
	sub	esp, 68					; 00000044H
	push	ebx
	push	esi
	push	edi
	mov	DWORD PTR _this$[ebp], ecx
	mov	eax, DWORD PTR _this$[ebp]
	mov	DWORD PTR [eax], OFFSET ??_7FilePipe@@6B@

; 235  : 		if (File && HasOpened)

	mov	eax, DWORD PTR _this$[ebp]
	cmp	DWORD PTR [eax+12], 0
	je	SHORT $LN2@FilePipe
	mov	eax, DWORD PTR _this$[ebp]
	movzx	ecx, BYTE PTR [eax+16]
	test	ecx, ecx
	je	SHORT $LN2@FilePipe

; 236  : 		{
; 237  : 			HasOpened = false;

	mov	eax, DWORD PTR _this$[ebp]
	mov	BYTE PTR [eax+16], 0

; 238  : 			File->Close();

	mov	eax, DWORD PTR _this$[ebp]
	mov	ecx, DWORD PTR [eax+12]
	mov	edx, DWORD PTR _this$[ebp]
	mov	eax, DWORD PTR [ecx]
	mov	ecx, DWORD PTR [edx+12]
	mov	edx, DWORD PTR [eax+56]
	call	edx

; 239  : 			File = 0;

	mov	eax, DWORD PTR _this$[ebp]
	mov	DWORD PTR [eax+12], 0
$LN2@FilePipe:

; 240  : 		}
; 241  : 	}

	mov	ecx, DWORD PTR _this$[ebp]
	call	??1Pipe@@UAE@XZ				; Pipe::~Pipe
	pop	edi
	pop	esi
	pop	ebx
	mov	esp, ebp
	pop	ebp
	ret	0
??1FilePipe@@UAE@XZ ENDP				; FilePipe::~FilePipe
_TEXT	ENDS
; Function compile flags: /Odtp /ZI
; File x:\github\renegade\dragonade_rxd\scripts\straw.h
;	COMDAT ??0FilePipe@@QAE@PAVFileClass@@@Z
_TEXT	SEGMENT
_this$ = -4						; size = 4
_file$ = 8						; size = 4
??0FilePipe@@QAE@PAVFileClass@@@Z PROC			; FilePipe::FilePipe, COMDAT
; _this$ = ecx

; 231  : 	{

	push	ebp
	mov	ebp, esp
	sub	esp, 68					; 00000044H
	push	ebx
	push	esi
	push	edi
	mov	DWORD PTR _this$[ebp], ecx
	mov	ecx, DWORD PTR _this$[ebp]
	call	??0Pipe@@QAE@XZ				; Pipe::Pipe
	mov	eax, DWORD PTR _this$[ebp]
	mov	DWORD PTR [eax], OFFSET ??_7FilePipe@@6B@
	mov	eax, DWORD PTR _this$[ebp]
	mov	ecx, DWORD PTR _file$[ebp]
	mov	DWORD PTR [eax+12], ecx
	mov	eax, DWORD PTR _this$[ebp]
	mov	BYTE PTR [eax+16], 0

; 232  : 	}

	mov	eax, DWORD PTR _this$[ebp]
	pop	edi
	pop	esi
	pop	ebx
	mov	esp, ebp
	pop	ebp
	ret	4
??0FilePipe@@QAE@PAVFileClass@@@Z ENDP			; FilePipe::FilePipe
_TEXT	ENDS
; Function compile flags: /Odtp /ZI
;	COMDAT ??_EPipe@@UAEPAXI@Z
_TEXT	SEGMENT
_this$ = -4						; size = 4
___flags$ = 8						; size = 4
??_EPipe@@UAEPAXI@Z PROC				; Pipe::`vector deleting destructor', COMDAT
; _this$ = ecx
	push	ebp
	mov	ebp, esp
	sub	esp, 68					; 00000044H
	push	ebx
	push	esi
	push	edi
	mov	DWORD PTR _this$[ebp], ecx
	mov	eax, DWORD PTR ___flags$[ebp]
	and	eax, 2
	je	SHORT $LN3@vector
	push	OFFSET ??1Pipe@@UAE@XZ			; Pipe::~Pipe
	mov	eax, DWORD PTR _this$[ebp]
	mov	ecx, DWORD PTR [eax-4]
	push	ecx
	push	12					; 0000000cH
	mov	edx, DWORD PTR _this$[ebp]
	push	edx
	call	??_I@YGXPAXIHP6EX0@Z@Z
	mov	eax, DWORD PTR ___flags$[ebp]
	and	eax, 1
	je	SHORT $LN2@vector
	mov	eax, DWORD PTR _this$[ebp]
	sub	eax, 4
	push	eax
	call	??_V@YAXPAX@Z				; operator delete[]
	add	esp, 4
$LN2@vector:
	mov	eax, DWORD PTR _this$[ebp]
	sub	eax, 4
	jmp	SHORT $LN4@vector
$LN3@vector:
	mov	ecx, DWORD PTR _this$[ebp]
	call	??1Pipe@@UAE@XZ				; Pipe::~Pipe
	mov	eax, DWORD PTR ___flags$[ebp]
	and	eax, 1
	je	SHORT $LN1@vector
	mov	eax, DWORD PTR _this$[ebp]
	push	eax
	call	??3@YAXPAX@Z				; operator delete
	add	esp, 4
$LN1@vector:
	mov	eax, DWORD PTR _this$[ebp]
$LN4@vector:
	pop	edi
	pop	esi
	pop	ebx
	mov	esp, ebp
	pop	ebp
	ret	4
??_EPipe@@UAEPAXI@Z ENDP				; Pipe::`vector deleting destructor'
_TEXT	ENDS
; Function compile flags: /Odtp /ZI
;	COMDAT ??_GPipe@@UAEPAXI@Z
_TEXT	SEGMENT
_this$ = -4						; size = 4
___flags$ = 8						; size = 4
??_GPipe@@UAEPAXI@Z PROC				; Pipe::`scalar deleting destructor', COMDAT
; _this$ = ecx
	push	ebp
	mov	ebp, esp
	sub	esp, 68					; 00000044H
	push	ebx
	push	esi
	push	edi
	mov	DWORD PTR _this$[ebp], ecx
	mov	ecx, DWORD PTR _this$[ebp]
	call	??1Pipe@@UAE@XZ				; Pipe::~Pipe
	mov	eax, DWORD PTR ___flags$[ebp]
	and	eax, 1
	je	SHORT $LN1@scalar
	mov	eax, DWORD PTR _this$[ebp]
	push	eax
	call	??3@YAXPAX@Z				; operator delete
	add	esp, 4
$LN1@scalar:
	mov	eax, DWORD PTR _this$[ebp]
	pop	edi
	pop	esi
	pop	ebx
	mov	esp, ebp
	pop	ebp
	ret	4
??_GPipe@@UAEPAXI@Z ENDP				; Pipe::`scalar deleting destructor'
_TEXT	ENDS
; Function compile flags: /Odtp /ZI
;	COMDAT ??4Pipe@@QAEAAV0@ABV0@@Z
_TEXT	SEGMENT
_this$ = -4						; size = 4
___that$ = 8						; size = 4
??4Pipe@@QAEAAV0@ABV0@@Z PROC				; Pipe::operator=, COMDAT
; _this$ = ecx
	push	ebp
	mov	ebp, esp
	sub	esp, 68					; 00000044H
	push	ebx
	push	esi
	push	edi
	mov	DWORD PTR _this$[ebp], ecx
	mov	eax, DWORD PTR _this$[ebp]
	mov	ecx, DWORD PTR ___that$[ebp]
	mov	edx, DWORD PTR [ecx+4]
	mov	DWORD PTR [eax+4], edx
	mov	eax, DWORD PTR _this$[ebp]
	mov	ecx, DWORD PTR ___that$[ebp]
	mov	edx, DWORD PTR [ecx+8]
	mov	DWORD PTR [eax+8], edx
	mov	eax, DWORD PTR _this$[ebp]
	pop	edi
	pop	esi
	pop	ebx
	mov	esp, ebp
	pop	ebp
	ret	4
??4Pipe@@QAEAAV0@ABV0@@Z ENDP				; Pipe::operator=
_TEXT	ENDS
; Function compile flags: /Odtp /ZI
;	COMDAT ??0Pipe@@QAE@ABV0@@Z
_TEXT	SEGMENT
_this$ = -4						; size = 4
___that$ = 8						; size = 4
??0Pipe@@QAE@ABV0@@Z PROC				; Pipe::Pipe, COMDAT
; _this$ = ecx
	push	ebp
	mov	ebp, esp
	sub	esp, 68					; 00000044H
	push	ebx
	push	esi
	push	edi
	mov	DWORD PTR _this$[ebp], ecx
	mov	eax, DWORD PTR _this$[ebp]
	mov	DWORD PTR [eax], OFFSET ??_7Pipe@@6B@
	mov	eax, DWORD PTR _this$[ebp]
	mov	ecx, DWORD PTR ___that$[ebp]
	mov	edx, DWORD PTR [ecx+4]
	mov	DWORD PTR [eax+4], edx
	mov	eax, DWORD PTR _this$[ebp]
	mov	ecx, DWORD PTR ___that$[ebp]
	mov	edx, DWORD PTR [ecx+8]
	mov	DWORD PTR [eax+8], edx
	mov	eax, DWORD PTR _this$[ebp]
	pop	edi
	pop	esi
	pop	ebx
	mov	esp, ebp
	pop	ebp
	ret	4
??0Pipe@@QAE@ABV0@@Z ENDP				; Pipe::Pipe
_TEXT	ENDS
; Function compile flags: /Odtp /ZI
; File x:\github\renegade\dragonade_rxd\scripts\straw.h
;	COMDAT ?Put@Pipe@@UAEHPBXH@Z
_TEXT	SEGMENT
_this$ = -4						; size = 4
_source$ = 8						; size = 4
_length$ = 12						; size = 4
?Put@Pipe@@UAEHPBXH@Z PROC				; Pipe::Put, COMDAT
; _this$ = ecx

; 182  : 	{

	push	ebp
	mov	ebp, esp
	sub	esp, 68					; 00000044H
	push	ebx
	push	esi
	push	edi
	mov	DWORD PTR _this$[ebp], ecx

; 183  : 		if (ChainTo)

	mov	eax, DWORD PTR _this$[ebp]
	cmp	DWORD PTR [eax+4], 0
	je	SHORT $LN1@Put

; 184  : 		{
; 185  : 			return ChainTo->Put(source,length);

	mov	eax, DWORD PTR _length$[ebp]
	push	eax
	mov	ecx, DWORD PTR _source$[ebp]
	push	ecx
	mov	edx, DWORD PTR _this$[ebp]
	mov	eax, DWORD PTR [edx+4]
	mov	ecx, DWORD PTR _this$[ebp]
	mov	edx, DWORD PTR [eax]
	mov	ecx, DWORD PTR [ecx+4]
	mov	eax, DWORD PTR [edx+16]
	call	eax
	jmp	SHORT $LN2@Put
$LN1@Put:

; 186  : 		}
; 187  : 		return length;

	mov	eax, DWORD PTR _length$[ebp]
$LN2@Put:

; 188  : 	}

	pop	edi
	pop	esi
	pop	ebx
	mov	esp, ebp
	pop	ebp
	ret	8
?Put@Pipe@@UAEHPBXH@Z ENDP				; Pipe::Put
_TEXT	ENDS
; Function compile flags: /Odtp /ZI
; File x:\github\renegade\dragonade_rxd\scripts\straw.h
;	COMDAT ?Put_To@Pipe@@UAEXPAV1@@Z
_TEXT	SEGMENT
_this$ = -4						; size = 4
_pipe$ = 8						; size = 4
?Put_To@Pipe@@UAEXPAV1@@Z PROC				; Pipe::Put_To, COMDAT
; _this$ = ecx

; 161  : 	{

	push	ebp
	mov	ebp, esp
	sub	esp, 68					; 00000044H
	push	ebx
	push	esi
	push	edi
	mov	DWORD PTR _this$[ebp], ecx

; 162  : 		if (ChainTo != pipe)

	mov	eax, DWORD PTR _this$[ebp]
	mov	ecx, DWORD PTR [eax+4]
	cmp	ecx, DWORD PTR _pipe$[ebp]
	je	SHORT $LN5@Put_To

; 163  : 		{
; 164  : 			if (pipe && pipe->ChainFrom)

	cmp	DWORD PTR _pipe$[ebp], 0
	je	SHORT $LN3@Put_To
	mov	eax, DWORD PTR _pipe$[ebp]
	cmp	DWORD PTR [eax+8], 0
	je	SHORT $LN3@Put_To

; 165  : 			{
; 166  : 				pipe->ChainFrom->Put_To(0);

	push	0
	mov	eax, DWORD PTR _pipe$[ebp]
	mov	ecx, DWORD PTR [eax+8]
	mov	edx, DWORD PTR _pipe$[ebp]
	mov	eax, DWORD PTR [ecx]
	mov	ecx, DWORD PTR [edx+8]
	mov	edx, DWORD PTR [eax+12]
	call	edx

; 167  : 				pipe->ChainFrom = 0;

	mov	eax, DWORD PTR _pipe$[ebp]
	mov	DWORD PTR [eax+8], 0
$LN3@Put_To:

; 168  : 			}
; 169  : 			if (ChainTo)

	mov	eax, DWORD PTR _this$[ebp]
	cmp	DWORD PTR [eax+4], 0
	je	SHORT $LN2@Put_To

; 170  : 			{
; 171  : 				ChainTo->ChainFrom = 0;

	mov	eax, DWORD PTR _this$[ebp]
	mov	ecx, DWORD PTR [eax+4]
	mov	DWORD PTR [ecx+8], 0

; 172  : 				ChainTo->Flush();

	mov	eax, DWORD PTR _this$[ebp]
	mov	ecx, DWORD PTR [eax+4]
	mov	edx, DWORD PTR _this$[ebp]
	mov	eax, DWORD PTR [ecx]
	mov	ecx, DWORD PTR [edx+4]
	mov	edx, DWORD PTR [eax+4]
	call	edx
$LN2@Put_To:

; 173  : 			}
; 174  : 			ChainTo = pipe;

	mov	eax, DWORD PTR _this$[ebp]
	mov	ecx, DWORD PTR _pipe$[ebp]
	mov	DWORD PTR [eax+4], ecx

; 175  : 			if (pipe)

	cmp	DWORD PTR _pipe$[ebp], 0
	je	SHORT $LN5@Put_To

; 176  : 			{
; 177  : 				pipe->ChainFrom = this;

	mov	eax, DWORD PTR _pipe$[ebp]
	mov	ecx, DWORD PTR _this$[ebp]
	mov	DWORD PTR [eax+8], ecx
$LN5@Put_To:

; 178  : 			}
; 179  : 		}
; 180  : 	}

	pop	edi
	pop	esi
	pop	ebx
	mov	esp, ebp
	pop	ebp
	ret	4
?Put_To@Pipe@@UAEXPAV1@@Z ENDP				; Pipe::Put_To
_TEXT	ENDS
; Function compile flags: /Odtp /ZI
; File x:\github\renegade\dragonade_rxd\scripts\straw.h
;	COMDAT ?End@Pipe@@UAEHXZ
_TEXT	SEGMENT
_this$ = -4						; size = 4
?End@Pipe@@UAEHXZ PROC					; Pipe::End, COMDAT
; _this$ = ecx

; 157  : 	{

	push	ebp
	mov	ebp, esp
	sub	esp, 68					; 00000044H
	push	ebx
	push	esi
	push	edi
	mov	DWORD PTR _this$[ebp], ecx

; 158  : 		return Flush();

	mov	eax, DWORD PTR _this$[ebp]
	mov	edx, DWORD PTR [eax]
	mov	ecx, DWORD PTR _this$[ebp]
	mov	eax, DWORD PTR [edx+4]
	call	eax

; 159  : 	}

	pop	edi
	pop	esi
	pop	ebx
	mov	esp, ebp
	pop	ebp
	ret	0
?End@Pipe@@UAEHXZ ENDP					; Pipe::End
_TEXT	ENDS
; Function compile flags: /Odtp /ZI
; File x:\github\renegade\dragonade_rxd\scripts\straw.h
;	COMDAT ?Flush@Pipe@@UAEHXZ
_TEXT	SEGMENT
_this$ = -4						; size = 4
?Flush@Pipe@@UAEHXZ PROC				; Pipe::Flush, COMDAT
; _this$ = ecx

; 146  : 	{

	push	ebp
	mov	ebp, esp
	sub	esp, 68					; 00000044H
	push	ebx
	push	esi
	push	edi
	mov	DWORD PTR _this$[ebp], ecx

; 147  : 		if (ChainTo)

	mov	eax, DWORD PTR _this$[ebp]
	cmp	DWORD PTR [eax+4], 0
	je	SHORT $LN2@Flush

; 148  : 		{
; 149  : 			return ChainTo->Flush();

	mov	eax, DWORD PTR _this$[ebp]
	mov	ecx, DWORD PTR [eax+4]
	mov	edx, DWORD PTR _this$[ebp]
	mov	eax, DWORD PTR [ecx]
	mov	ecx, DWORD PTR [edx+4]
	mov	edx, DWORD PTR [eax+4]
	call	edx
	jmp	SHORT $LN3@Flush

; 150  : 		}
; 151  : 		else

	jmp	SHORT $LN3@Flush
$LN2@Flush:

; 152  : 		{
; 153  : 			return 0;

	xor	eax, eax
$LN3@Flush:

; 154  : 		}
; 155  : 	}

	pop	edi
	pop	esi
	pop	ebx
	mov	esp, ebp
	pop	ebp
	ret	0
?Flush@Pipe@@UAEHXZ ENDP				; Pipe::Flush
_TEXT	ENDS
; Function compile flags: /Odtp /ZI
; File x:\github\renegade\dragonade_rxd\scripts\straw.h
;	COMDAT ??1Pipe@@UAE@XZ
_TEXT	SEGMENT
_this$ = -4						; size = 4
??1Pipe@@UAE@XZ PROC					; Pipe::~Pipe, COMDAT
; _this$ = ecx

; 133  : 	{

	push	ebp
	mov	ebp, esp
	sub	esp, 68					; 00000044H
	push	ebx
	push	esi
	push	edi
	mov	DWORD PTR _this$[ebp], ecx
	mov	eax, DWORD PTR _this$[ebp]
	mov	DWORD PTR [eax], OFFSET ??_7Pipe@@6B@

; 134  : 		if (ChainTo)

	mov	eax, DWORD PTR _this$[ebp]
	cmp	DWORD PTR [eax+4], 0
	je	SHORT $LN2@Pipe

; 135  : 		{
; 136  : 			ChainTo->ChainFrom = ChainFrom;

	mov	eax, DWORD PTR _this$[ebp]
	mov	ecx, DWORD PTR [eax+4]
	mov	edx, DWORD PTR _this$[ebp]
	mov	eax, DWORD PTR [edx+8]
	mov	DWORD PTR [ecx+8], eax
$LN2@Pipe:

; 137  : 		}
; 138  : 		if (ChainFrom)

	mov	eax, DWORD PTR _this$[ebp]
	cmp	DWORD PTR [eax+8], 0
	je	SHORT $LN1@Pipe

; 139  : 		{
; 140  : 			ChainFrom->Put_To(ChainTo);

	mov	eax, DWORD PTR _this$[ebp]
	mov	ecx, DWORD PTR [eax+4]
	push	ecx
	mov	edx, DWORD PTR _this$[ebp]
	mov	eax, DWORD PTR [edx+8]
	mov	ecx, DWORD PTR _this$[ebp]
	mov	edx, DWORD PTR [eax]
	mov	ecx, DWORD PTR [ecx+8]
	mov	eax, DWORD PTR [edx+12]
	call	eax
$LN1@Pipe:

; 141  : 		}
; 142  : 		ChainFrom = 0;

	mov	eax, DWORD PTR _this$[ebp]
	mov	DWORD PTR [eax+8], 0

; 143  : 		ChainTo = 0;

	mov	eax, DWORD PTR _this$[ebp]
	mov	DWORD PTR [eax+4], 0

; 144  : 	}

	pop	edi
	pop	esi
	pop	ebx
	mov	esp, ebp
	pop	ebp
	ret	0
??1Pipe@@UAE@XZ ENDP					; Pipe::~Pipe
_TEXT	ENDS
; Function compile flags: /Odtp /ZI
; File x:\github\renegade\dragonade_rxd\scripts\straw.h
;	COMDAT ??0Pipe@@QAE@XZ
_TEXT	SEGMENT
_this$ = -4						; size = 4
??0Pipe@@QAE@XZ PROC					; Pipe::Pipe, COMDAT
; _this$ = ecx

; 130  : 	{

	push	ebp
	mov	ebp, esp
	sub	esp, 68					; 00000044H
	push	ebx
	push	esi
	push	edi
	mov	DWORD PTR _this$[ebp], ecx
	mov	eax, DWORD PTR _this$[ebp]
	mov	DWORD PTR [eax], OFFSET ??_7Pipe@@6B@
	mov	eax, DWORD PTR _this$[ebp]
	mov	DWORD PTR [eax+4], 0
	mov	eax, DWORD PTR _this$[ebp]
	mov	DWORD PTR [eax+8], 0

; 131  : 	}

	mov	eax, DWORD PTR _this$[ebp]
	pop	edi
	pop	esi
	pop	ebx
	mov	esp, ebp
	pop	ebp
	ret	0
??0Pipe@@QAE@XZ ENDP					; Pipe::Pipe
_TEXT	ENDS
; Function compile flags: /Odtp /ZI
;	COMDAT ??_ECacheStraw@@UAEPAXI@Z
_TEXT	SEGMENT
_this$ = -4						; size = 4
___flags$ = 8						; size = 4
??_ECacheStraw@@UAEPAXI@Z PROC				; CacheStraw::`vector deleting destructor', COMDAT
; _this$ = ecx
	push	ebp
	mov	ebp, esp
	sub	esp, 68					; 00000044H
	push	ebx
	push	esi
	push	edi
	mov	DWORD PTR _this$[ebp], ecx
	mov	eax, DWORD PTR ___flags$[ebp]
	and	eax, 2
	je	SHORT $LN3@vector
	push	OFFSET ??1CacheStraw@@UAE@XZ		; CacheStraw::~CacheStraw
	mov	eax, DWORD PTR _this$[ebp]
	mov	ecx, DWORD PTR [eax-4]
	push	ecx
	push	32					; 00000020H
	mov	edx, DWORD PTR _this$[ebp]
	push	edx
	call	??_I@YGXPAXIHP6EX0@Z@Z
	mov	eax, DWORD PTR ___flags$[ebp]
	and	eax, 1
	je	SHORT $LN2@vector
	mov	eax, DWORD PTR _this$[ebp]
	sub	eax, 4
	push	eax
	call	??_V@YAXPAX@Z				; operator delete[]
	add	esp, 4
$LN2@vector:
	mov	eax, DWORD PTR _this$[ebp]
	sub	eax, 4
	jmp	SHORT $LN4@vector
$LN3@vector:
	mov	ecx, DWORD PTR _this$[ebp]
	call	??1CacheStraw@@UAE@XZ			; CacheStraw::~CacheStraw
	mov	eax, DWORD PTR ___flags$[ebp]
	and	eax, 1
	je	SHORT $LN1@vector
	mov	eax, DWORD PTR _this$[ebp]
	push	eax
	call	??3@YAXPAX@Z				; operator delete
	add	esp, 4
$LN1@vector:
	mov	eax, DWORD PTR _this$[ebp]
$LN4@vector:
	pop	edi
	pop	esi
	pop	ebx
	mov	esp, ebp
	pop	ebp
	ret	4
??_ECacheStraw@@UAEPAXI@Z ENDP				; CacheStraw::`vector deleting destructor'
_TEXT	ENDS
; Function compile flags: /Odtp /ZI
;	COMDAT ??_GCacheStraw@@UAEPAXI@Z
_TEXT	SEGMENT
_this$ = -4						; size = 4
___flags$ = 8						; size = 4
??_GCacheStraw@@UAEPAXI@Z PROC				; CacheStraw::`scalar deleting destructor', COMDAT
; _this$ = ecx
	push	ebp
	mov	ebp, esp
	sub	esp, 68					; 00000044H
	push	ebx
	push	esi
	push	edi
	mov	DWORD PTR _this$[ebp], ecx
	mov	ecx, DWORD PTR _this$[ebp]
	call	??1CacheStraw@@UAE@XZ			; CacheStraw::~CacheStraw
	mov	eax, DWORD PTR ___flags$[ebp]
	and	eax, 1
	je	SHORT $LN1@scalar
	mov	eax, DWORD PTR _this$[ebp]
	push	eax
	call	??3@YAXPAX@Z				; operator delete
	add	esp, 4
$LN1@scalar:
	mov	eax, DWORD PTR _this$[ebp]
	pop	edi
	pop	esi
	pop	ebx
	mov	esp, ebp
	pop	ebp
	ret	4
??_GCacheStraw@@UAEPAXI@Z ENDP				; CacheStraw::`scalar deleting destructor'
_TEXT	ENDS
; Function compile flags: /Odtp /ZI
;	COMDAT ??4CacheStraw@@QAEAAV0@ABV0@@Z
_TEXT	SEGMENT
_this$ = -4						; size = 4
___that$ = 8						; size = 4
??4CacheStraw@@QAEAAV0@ABV0@@Z PROC			; CacheStraw::operator=, COMDAT
; _this$ = ecx
	push	ebp
	mov	ebp, esp
	sub	esp, 68					; 00000044H
	push	ebx
	push	esi
	push	edi
	mov	DWORD PTR _this$[ebp], ecx
	mov	eax, DWORD PTR ___that$[ebp]
	push	eax
	mov	ecx, DWORD PTR _this$[ebp]
	call	??4Straw@@QAEAAV0@ABV0@@Z
	mov	eax, DWORD PTR ___that$[ebp]
	add	eax, 12					; 0000000cH
	mov	ecx, DWORD PTR _this$[ebp]
	add	ecx, 12					; 0000000cH
	mov	edx, DWORD PTR [eax]
	mov	DWORD PTR [ecx], edx
	mov	edx, DWORD PTR [eax+4]
	mov	DWORD PTR [ecx+4], edx
	mov	eax, DWORD PTR [eax+8]
	mov	DWORD PTR [ecx+8], eax
	mov	eax, DWORD PTR _this$[ebp]
	mov	ecx, DWORD PTR ___that$[ebp]
	mov	edx, DWORD PTR [ecx+24]
	mov	DWORD PTR [eax+24], edx
	mov	eax, DWORD PTR _this$[ebp]
	mov	ecx, DWORD PTR ___that$[ebp]
	mov	edx, DWORD PTR [ecx+28]
	mov	DWORD PTR [eax+28], edx
	mov	eax, DWORD PTR _this$[ebp]
	pop	edi
	pop	esi
	pop	ebx
	mov	esp, ebp
	pop	ebp
	ret	4
??4CacheStraw@@QAEAAV0@ABV0@@Z ENDP			; CacheStraw::operator=
_TEXT	ENDS
; Function compile flags: /Odtp /ZI
;	COMDAT ??0CacheStraw@@QAE@ABV0@@Z
_TEXT	SEGMENT
_this$ = -4						; size = 4
___that$ = 8						; size = 4
??0CacheStraw@@QAE@ABV0@@Z PROC				; CacheStraw::CacheStraw, COMDAT
; _this$ = ecx
	push	ebp
	mov	ebp, esp
	sub	esp, 68					; 00000044H
	push	ebx
	push	esi
	push	edi
	mov	DWORD PTR _this$[ebp], ecx
	mov	eax, DWORD PTR ___that$[ebp]
	push	eax
	mov	ecx, DWORD PTR _this$[ebp]
	call	??0Straw@@QAE@ABV0@@Z
	mov	eax, DWORD PTR _this$[ebp]
	mov	DWORD PTR [eax], OFFSET ??_7CacheStraw@@6B@
	mov	eax, DWORD PTR ___that$[ebp]
	add	eax, 12					; 0000000cH
	mov	ecx, DWORD PTR _this$[ebp]
	add	ecx, 12					; 0000000cH
	mov	edx, DWORD PTR [eax]
	mov	DWORD PTR [ecx], edx
	mov	edx, DWORD PTR [eax+4]
	mov	DWORD PTR [ecx+4], edx
	mov	eax, DWORD PTR [eax+8]
	mov	DWORD PTR [ecx+8], eax
	mov	eax, DWORD PTR _this$[ebp]
	mov	ecx, DWORD PTR ___that$[ebp]
	mov	edx, DWORD PTR [ecx+24]
	mov	DWORD PTR [eax+24], edx
	mov	eax, DWORD PTR _this$[ebp]
	mov	ecx, DWORD PTR ___that$[ebp]
	mov	edx, DWORD PTR [ecx+28]
	mov	DWORD PTR [eax+28], edx
	mov	eax, DWORD PTR _this$[ebp]
	pop	edi
	pop	esi
	pop	ebx
	mov	esp, ebp
	pop	ebp
	ret	4
??0CacheStraw@@QAE@ABV0@@Z ENDP				; CacheStraw::CacheStraw
_TEXT	ENDS
; Function compile flags: /Odtp /ZI
; File x:\github\renegade\dragonade_rxd\scripts\straw.h
;	COMDAT ?Get@CacheStraw@@UAEHPAXH@Z
_TEXT	SEGMENT
tv71 = -96						; size = 4
tv69 = -96						; size = 4
_sz$1 = -28						; size = 4
_i$2 = -24						; size = 4
_len2$ = -20						; size = 4
_ret$ = -16						; size = 4
_len$ = -12						; size = 4
_src$ = -8						; size = 4
_this$ = -4						; size = 4
_source$ = 8						; size = 4
_slen$ = 12						; size = 4
?Get@CacheStraw@@UAEHPAXH@Z PROC			; CacheStraw::Get, COMDAT
; _this$ = ecx

; 87   : 	{

	push	ebp
	mov	ebp, esp
	sub	esp, 96					; 00000060H
	push	ebx
	push	esi
	push	edi
	mov	DWORD PTR _this$[ebp], ecx

; 88   : 		char *src = (char *)source;

	mov	eax, DWORD PTR _source$[ebp]
	mov	DWORD PTR _src$[ebp], eax

; 89   : 		int len = slen;

	mov	eax, DWORD PTR _slen$[ebp]
	mov	DWORD PTR _len$[ebp], eax

; 90   : 		int ret = 0;

	mov	DWORD PTR _ret$[ebp], 0

; 91   : 		int len2;
; 92   : 		if (BufferPtr.Get_Buffer())

	mov	ecx, DWORD PTR _this$[ebp]
	add	ecx, 12					; 0000000cH
	call	?Get_Buffer@Buffer@@QAEPAXXZ		; Buffer::Get_Buffer
	test	eax, eax
	je	$LN7@Get

; 93   : 		{
; 94   : 			for (int i = source == 0;!i && len > 0;i = len2 == 0)

	cmp	DWORD PTR _source$[ebp], 0
	jne	SHORT $LN10@Get
	mov	DWORD PTR tv69[ebp], 1
	jmp	SHORT $LN11@Get
$LN10@Get:
	mov	DWORD PTR tv69[ebp], 0
$LN11@Get:
	mov	eax, DWORD PTR tv69[ebp]
	mov	DWORD PTR _i$2[ebp], eax
	jmp	SHORT $LN6@Get
$LN5@Get:
	cmp	DWORD PTR _len2$[ebp], 0
	jne	SHORT $LN12@Get
	mov	DWORD PTR tv71[ebp], 1
	jmp	SHORT $LN13@Get
$LN12@Get:
	mov	DWORD PTR tv71[ebp], 0
$LN13@Get:
	mov	eax, DWORD PTR tv71[ebp]
	mov	DWORD PTR _i$2[ebp], eax
$LN6@Get:
	cmp	DWORD PTR _i$2[ebp], 0
	jne	$LN7@Get
	cmp	DWORD PTR _len$[ebp], 0
	jle	$LN7@Get

; 95   : 			{
; 96   : 				if (Length > 0 )

	mov	eax, DWORD PTR _this$[ebp]
	cmp	DWORD PTR [eax+28], 0
	jle	SHORT $LN3@Get

; 97   : 				{
; 98   : 					int sz = len;

	mov	eax, DWORD PTR _len$[ebp]
	mov	DWORD PTR _sz$1[ebp], eax

; 99   : 					if (len > this->Length)

	mov	eax, DWORD PTR _this$[ebp]
	mov	ecx, DWORD PTR _len$[ebp]
	cmp	ecx, DWORD PTR [eax+28]
	jle	SHORT $LN2@Get

; 100  : 					{
; 101  : 						sz = Length;

	mov	eax, DWORD PTR _this$[ebp]
	mov	ecx, DWORD PTR [eax+28]
	mov	DWORD PTR _sz$1[ebp], ecx
$LN2@Get:

; 102  : 					}
; 103  : 					memmove(src,(char *)BufferPtr.Get_Buffer() + Index,sz);

	mov	eax, DWORD PTR _sz$1[ebp]
	push	eax
	mov	ecx, DWORD PTR _this$[ebp]
	add	ecx, 12					; 0000000cH
	call	?Get_Buffer@Buffer@@QAEPAXXZ		; Buffer::Get_Buffer
	mov	ecx, DWORD PTR _this$[ebp]
	add	eax, DWORD PTR [ecx+24]
	push	eax
	mov	edx, DWORD PTR _src$[ebp]
	push	edx
	call	DWORD PTR __imp__memmove
	add	esp, 12					; 0000000cH

; 104  : 					len -= sz;

	mov	eax, DWORD PTR _len$[ebp]
	sub	eax, DWORD PTR _sz$1[ebp]
	mov	DWORD PTR _len$[ebp], eax

; 105  : 					Index += sz;

	mov	eax, DWORD PTR _this$[ebp]
	mov	ecx, DWORD PTR [eax+24]
	add	ecx, DWORD PTR _sz$1[ebp]
	mov	edx, DWORD PTR _this$[ebp]
	mov	DWORD PTR [edx+24], ecx

; 106  : 					ret += sz;

	mov	eax, DWORD PTR _ret$[ebp]
	add	eax, DWORD PTR _sz$1[ebp]
	mov	DWORD PTR _ret$[ebp], eax

; 107  : 					Length -= sz;

	mov	eax, DWORD PTR _this$[ebp]
	mov	ecx, DWORD PTR [eax+28]
	sub	ecx, DWORD PTR _sz$1[ebp]
	mov	edx, DWORD PTR _this$[ebp]
	mov	DWORD PTR [edx+28], ecx

; 108  : 					src += sz;

	mov	eax, DWORD PTR _src$[ebp]
	add	eax, DWORD PTR _sz$1[ebp]
	mov	DWORD PTR _src$[ebp], eax
$LN3@Get:

; 109  : 				}
; 110  : 				if (!len)

	cmp	DWORD PTR _len$[ebp], 0
	jne	SHORT $LN1@Get

; 111  : 				{
; 112  : 					break;

	jmp	SHORT $LN7@Get
$LN1@Get:

; 113  : 				}
; 114  : 				len2 = Straw::Get(BufferPtr.Get_Buffer(),BufferPtr.Get_Size());

	mov	ecx, DWORD PTR _this$[ebp]
	add	ecx, 12					; 0000000cH
	call	?Get_Size@Buffer@@QAEJXZ		; Buffer::Get_Size
	push	eax
	mov	ecx, DWORD PTR _this$[ebp]
	add	ecx, 12					; 0000000cH
	call	?Get_Buffer@Buffer@@QAEPAXXZ		; Buffer::Get_Buffer
	push	eax
	mov	ecx, DWORD PTR _this$[ebp]
	call	?Get@Straw@@UAEHPAXH@Z			; Straw::Get
	mov	DWORD PTR _len2$[ebp], eax

; 115  : 				Length = len2;

	mov	eax, DWORD PTR _this$[ebp]
	mov	ecx, DWORD PTR _len2$[ebp]
	mov	DWORD PTR [eax+28], ecx

; 116  : 				Index = 0;

	mov	eax, DWORD PTR _this$[ebp]
	mov	DWORD PTR [eax+24], 0

; 117  : 			}

	jmp	$LN5@Get
$LN7@Get:

; 118  : 		}
; 119  : 		return ret;

	mov	eax, DWORD PTR _ret$[ebp]

; 120  : 	}

	pop	edi
	pop	esi
	pop	ebx
	mov	esp, ebp
	pop	ebp
	ret	8
?Get@CacheStraw@@UAEHPAXH@Z ENDP			; CacheStraw::Get
_TEXT	ENDS
; Function compile flags: /Odtp /ZI
; File x:\github\renegade\dragonade_rxd\scripts\straw.h
;	COMDAT ??1CacheStraw@@UAE@XZ
_TEXT	SEGMENT
_this$ = -4						; size = 4
??1CacheStraw@@UAE@XZ PROC				; CacheStraw::~CacheStraw, COMDAT
; _this$ = ecx

; 85   : 	~CacheStraw() {}

	push	ebp
	mov	ebp, esp
	sub	esp, 68					; 00000044H
	push	ebx
	push	esi
	push	edi
	mov	DWORD PTR _this$[ebp], ecx
	mov	eax, DWORD PTR _this$[ebp]
	mov	DWORD PTR [eax], OFFSET ??_7CacheStraw@@6B@
	mov	ecx, DWORD PTR _this$[ebp]
	add	ecx, 12					; 0000000cH
	call	??1Buffer@@QAE@XZ			; Buffer::~Buffer
	mov	ecx, DWORD PTR _this$[ebp]
	call	??1Straw@@UAE@XZ			; Straw::~Straw
	pop	edi
	pop	esi
	pop	ebx
	mov	esp, ebp
	pop	ebp
	ret	0
??1CacheStraw@@UAE@XZ ENDP				; CacheStraw::~CacheStraw
_TEXT	ENDS
; Function compile flags: /Odtp /ZI
; File x:\github\renegade\dragonade_rxd\scripts\straw.h
;	COMDAT ?Is_Valid@CacheStraw@@QAE_NXZ
_TEXT	SEGMENT
tv68 = -72						; size = 4
_this$ = -4						; size = 4
?Is_Valid@CacheStraw@@QAE_NXZ PROC			; CacheStraw::Is_Valid, COMDAT
; _this$ = ecx

; 82   : 	{

	push	ebp
	mov	ebp, esp
	sub	esp, 72					; 00000048H
	push	ebx
	push	esi
	push	edi
	mov	DWORD PTR _this$[ebp], ecx

; 83   : 		return BufferPtr.Get_Buffer() != 0;

	mov	ecx, DWORD PTR _this$[ebp]
	add	ecx, 12					; 0000000cH
	call	?Get_Buffer@Buffer@@QAEPAXXZ		; Buffer::Get_Buffer
	test	eax, eax
	je	SHORT $LN3@Is_Valid
	mov	DWORD PTR tv68[ebp], 1
	jmp	SHORT $LN4@Is_Valid
$LN3@Is_Valid:
	mov	DWORD PTR tv68[ebp], 0
$LN4@Is_Valid:
	mov	al, BYTE PTR tv68[ebp]

; 84   : 	}

	pop	edi
	pop	esi
	pop	ebx
	mov	esp, ebp
	pop	ebp
	ret	0
?Is_Valid@CacheStraw@@QAE_NXZ ENDP			; CacheStraw::Is_Valid
_TEXT	ENDS
; Function compile flags: /Odtp /ZI
; File x:\github\renegade\dragonade_rxd\scripts\straw.h
;	COMDAT ??0CacheStraw@@QAE@H@Z
_TEXT	SEGMENT
_this$ = -4						; size = 4
_size$ = 8						; size = 4
??0CacheStraw@@QAE@H@Z PROC				; CacheStraw::CacheStraw, COMDAT
; _this$ = ecx

; 79   : 	{

	push	ebp
	mov	ebp, esp
	sub	esp, 68					; 00000044H
	push	ebx
	push	esi
	push	edi
	mov	DWORD PTR _this$[ebp], ecx
	mov	ecx, DWORD PTR _this$[ebp]
	call	??0Straw@@QAE@XZ			; Straw::Straw
	mov	eax, DWORD PTR _this$[ebp]
	mov	DWORD PTR [eax], OFFSET ??_7CacheStraw@@6B@
	mov	eax, DWORD PTR _size$[ebp]
	push	eax
	mov	ecx, DWORD PTR _this$[ebp]
	add	ecx, 12					; 0000000cH
	call	??0Buffer@@QAE@J@Z			; Buffer::Buffer
	mov	eax, DWORD PTR _this$[ebp]
	mov	DWORD PTR [eax+24], 0
	mov	eax, DWORD PTR _this$[ebp]
	mov	DWORD PTR [eax+28], 0

; 80   : 	}

	mov	eax, DWORD PTR _this$[ebp]
	pop	edi
	pop	esi
	pop	ebx
	mov	esp, ebp
	pop	ebp
	ret	4
??0CacheStraw@@QAE@H@Z ENDP				; CacheStraw::CacheStraw
_TEXT	ENDS
; Function compile flags: /Odtp /ZI
;	COMDAT ??_EFileStraw@@UAEPAXI@Z
_TEXT	SEGMENT
_this$ = -4						; size = 4
___flags$ = 8						; size = 4
??_EFileStraw@@UAEPAXI@Z PROC				; FileStraw::`vector deleting destructor', COMDAT
; _this$ = ecx
	push	ebp
	mov	ebp, esp
	sub	esp, 68					; 00000044H
	push	ebx
	push	esi
	push	edi
	mov	DWORD PTR _this$[ebp], ecx
	mov	eax, DWORD PTR ___flags$[ebp]
	and	eax, 2
	je	SHORT $LN3@vector
	push	OFFSET ??1FileStraw@@UAE@XZ		; FileStraw::~FileStraw
	mov	eax, DWORD PTR _this$[ebp]
	mov	ecx, DWORD PTR [eax-4]
	push	ecx
	push	20					; 00000014H
	mov	edx, DWORD PTR _this$[ebp]
	push	edx
	call	??_I@YGXPAXIHP6EX0@Z@Z
	mov	eax, DWORD PTR ___flags$[ebp]
	and	eax, 1
	je	SHORT $LN2@vector
	mov	eax, DWORD PTR _this$[ebp]
	sub	eax, 4
	push	eax
	call	??_V@YAXPAX@Z				; operator delete[]
	add	esp, 4
$LN2@vector:
	mov	eax, DWORD PTR _this$[ebp]
	sub	eax, 4
	jmp	SHORT $LN4@vector
$LN3@vector:
	mov	ecx, DWORD PTR _this$[ebp]
	call	??1FileStraw@@UAE@XZ			; FileStraw::~FileStraw
	mov	eax, DWORD PTR ___flags$[ebp]
	and	eax, 1
	je	SHORT $LN1@vector
	mov	eax, DWORD PTR _this$[ebp]
	push	eax
	call	??3@YAXPAX@Z				; operator delete
	add	esp, 4
$LN1@vector:
	mov	eax, DWORD PTR _this$[ebp]
$LN4@vector:
	pop	edi
	pop	esi
	pop	ebx
	mov	esp, ebp
	pop	ebp
	ret	4
??_EFileStraw@@UAEPAXI@Z ENDP				; FileStraw::`vector deleting destructor'
_TEXT	ENDS
; Function compile flags: /Odtp /ZI
;	COMDAT ??_GFileStraw@@UAEPAXI@Z
_TEXT	SEGMENT
_this$ = -4						; size = 4
___flags$ = 8						; size = 4
??_GFileStraw@@UAEPAXI@Z PROC				; FileStraw::`scalar deleting destructor', COMDAT
; _this$ = ecx
	push	ebp
	mov	ebp, esp
	sub	esp, 68					; 00000044H
	push	ebx
	push	esi
	push	edi
	mov	DWORD PTR _this$[ebp], ecx
	mov	ecx, DWORD PTR _this$[ebp]
	call	??1FileStraw@@UAE@XZ			; FileStraw::~FileStraw
	mov	eax, DWORD PTR ___flags$[ebp]
	and	eax, 1
	je	SHORT $LN1@scalar
	mov	eax, DWORD PTR _this$[ebp]
	push	eax
	call	??3@YAXPAX@Z				; operator delete
	add	esp, 4
$LN1@scalar:
	mov	eax, DWORD PTR _this$[ebp]
	pop	edi
	pop	esi
	pop	ebx
	mov	esp, ebp
	pop	ebp
	ret	4
??_GFileStraw@@UAEPAXI@Z ENDP				; FileStraw::`scalar deleting destructor'
_TEXT	ENDS
; Function compile flags: /Odtp /ZI
;	COMDAT ??4FileStraw@@QAEAAV0@ABV0@@Z
_TEXT	SEGMENT
_this$ = -4						; size = 4
___that$ = 8						; size = 4
??4FileStraw@@QAEAAV0@ABV0@@Z PROC			; FileStraw::operator=, COMDAT
; _this$ = ecx
	push	ebp
	mov	ebp, esp
	sub	esp, 68					; 00000044H
	push	ebx
	push	esi
	push	edi
	mov	DWORD PTR _this$[ebp], ecx
	mov	eax, DWORD PTR ___that$[ebp]
	push	eax
	mov	ecx, DWORD PTR _this$[ebp]
	call	??4Straw@@QAEAAV0@ABV0@@Z
	mov	eax, DWORD PTR _this$[ebp]
	mov	ecx, DWORD PTR ___that$[ebp]
	mov	edx, DWORD PTR [ecx+12]
	mov	DWORD PTR [eax+12], edx
	mov	eax, DWORD PTR _this$[ebp]
	mov	ecx, DWORD PTR ___that$[ebp]
	mov	dl, BYTE PTR [ecx+16]
	mov	BYTE PTR [eax+16], dl
	mov	eax, DWORD PTR _this$[ebp]
	pop	edi
	pop	esi
	pop	ebx
	mov	esp, ebp
	pop	ebp
	ret	4
??4FileStraw@@QAEAAV0@ABV0@@Z ENDP			; FileStraw::operator=
_TEXT	ENDS
; Function compile flags: /Odtp /ZI
;	COMDAT ??0FileStraw@@QAE@ABV0@@Z
_TEXT	SEGMENT
_this$ = -4						; size = 4
___that$ = 8						; size = 4
??0FileStraw@@QAE@ABV0@@Z PROC				; FileStraw::FileStraw, COMDAT
; _this$ = ecx
	push	ebp
	mov	ebp, esp
	sub	esp, 68					; 00000044H
	push	ebx
	push	esi
	push	edi
	mov	DWORD PTR _this$[ebp], ecx
	mov	eax, DWORD PTR ___that$[ebp]
	push	eax
	mov	ecx, DWORD PTR _this$[ebp]
	call	??0Straw@@QAE@ABV0@@Z
	mov	eax, DWORD PTR _this$[ebp]
	mov	DWORD PTR [eax], OFFSET ??_7FileStraw@@6B@
	mov	eax, DWORD PTR _this$[ebp]
	mov	ecx, DWORD PTR ___that$[ebp]
	mov	edx, DWORD PTR [ecx+12]
	mov	DWORD PTR [eax+12], edx
	mov	eax, DWORD PTR _this$[ebp]
	mov	ecx, DWORD PTR ___that$[ebp]
	mov	dl, BYTE PTR [ecx+16]
	mov	BYTE PTR [eax+16], dl
	mov	eax, DWORD PTR _this$[ebp]
	pop	edi
	pop	esi
	pop	ebx
	mov	esp, ebp
	pop	ebp
	ret	4
??0FileStraw@@QAE@ABV0@@Z ENDP				; FileStraw::FileStraw
_TEXT	ENDS
; Function compile flags: /Odtp /ZI
;	COMDAT ??_EBufferStraw@@UAEPAXI@Z
_TEXT	SEGMENT
_this$ = -4						; size = 4
___flags$ = 8						; size = 4
??_EBufferStraw@@UAEPAXI@Z PROC				; BufferStraw::`vector deleting destructor', COMDAT
; _this$ = ecx
	push	ebp
	mov	ebp, esp
	sub	esp, 68					; 00000044H
	push	ebx
	push	esi
	push	edi
	mov	DWORD PTR _this$[ebp], ecx
	mov	eax, DWORD PTR ___flags$[ebp]
	and	eax, 2
	je	SHORT $LN3@vector
	push	OFFSET ??1BufferStraw@@UAE@XZ		; BufferStraw::~BufferStraw
	mov	eax, DWORD PTR _this$[ebp]
	mov	ecx, DWORD PTR [eax-4]
	push	ecx
	push	28					; 0000001cH
	mov	edx, DWORD PTR _this$[ebp]
	push	edx
	call	??_I@YGXPAXIHP6EX0@Z@Z
	mov	eax, DWORD PTR ___flags$[ebp]
	and	eax, 1
	je	SHORT $LN2@vector
	mov	eax, DWORD PTR _this$[ebp]
	sub	eax, 4
	push	eax
	call	??_V@YAXPAX@Z				; operator delete[]
	add	esp, 4
$LN2@vector:
	mov	eax, DWORD PTR _this$[ebp]
	sub	eax, 4
	jmp	SHORT $LN4@vector
$LN3@vector:
	mov	ecx, DWORD PTR _this$[ebp]
	call	??1BufferStraw@@UAE@XZ			; BufferStraw::~BufferStraw
	mov	eax, DWORD PTR ___flags$[ebp]
	and	eax, 1
	je	SHORT $LN1@vector
	mov	eax, DWORD PTR _this$[ebp]
	push	eax
	call	??3@YAXPAX@Z				; operator delete
	add	esp, 4
$LN1@vector:
	mov	eax, DWORD PTR _this$[ebp]
$LN4@vector:
	pop	edi
	pop	esi
	pop	ebx
	mov	esp, ebp
	pop	ebp
	ret	4
??_EBufferStraw@@UAEPAXI@Z ENDP				; BufferStraw::`vector deleting destructor'
_TEXT	ENDS
; Function compile flags: /Odtp /ZI
;	COMDAT ??_GBufferStraw@@UAEPAXI@Z
_TEXT	SEGMENT
_this$ = -4						; size = 4
___flags$ = 8						; size = 4
??_GBufferStraw@@UAEPAXI@Z PROC				; BufferStraw::`scalar deleting destructor', COMDAT
; _this$ = ecx
	push	ebp
	mov	ebp, esp
	sub	esp, 68					; 00000044H
	push	ebx
	push	esi
	push	edi
	mov	DWORD PTR _this$[ebp], ecx
	mov	ecx, DWORD PTR _this$[ebp]
	call	??1BufferStraw@@UAE@XZ			; BufferStraw::~BufferStraw
	mov	eax, DWORD PTR ___flags$[ebp]
	and	eax, 1
	je	SHORT $LN1@scalar
	mov	eax, DWORD PTR _this$[ebp]
	push	eax
	call	??3@YAXPAX@Z				; operator delete
	add	esp, 4
$LN1@scalar:
	mov	eax, DWORD PTR _this$[ebp]
	pop	edi
	pop	esi
	pop	ebx
	mov	esp, ebp
	pop	ebp
	ret	4
??_GBufferStraw@@UAEPAXI@Z ENDP				; BufferStraw::`scalar deleting destructor'
_TEXT	ENDS
; Function compile flags: /Odtp /ZI
;	COMDAT ??4BufferStraw@@QAEAAV0@ABV0@@Z
_TEXT	SEGMENT
_this$ = -4						; size = 4
___that$ = 8						; size = 4
??4BufferStraw@@QAEAAV0@ABV0@@Z PROC			; BufferStraw::operator=, COMDAT
; _this$ = ecx
	push	ebp
	mov	ebp, esp
	sub	esp, 68					; 00000044H
	push	ebx
	push	esi
	push	edi
	mov	DWORD PTR _this$[ebp], ecx
	mov	eax, DWORD PTR ___that$[ebp]
	push	eax
	mov	ecx, DWORD PTR _this$[ebp]
	call	??4Straw@@QAEAAV0@ABV0@@Z
	mov	eax, DWORD PTR ___that$[ebp]
	add	eax, 12					; 0000000cH
	mov	ecx, DWORD PTR _this$[ebp]
	add	ecx, 12					; 0000000cH
	mov	edx, DWORD PTR [eax]
	mov	DWORD PTR [ecx], edx
	mov	edx, DWORD PTR [eax+4]
	mov	DWORD PTR [ecx+4], edx
	mov	eax, DWORD PTR [eax+8]
	mov	DWORD PTR [ecx+8], eax
	mov	eax, DWORD PTR _this$[ebp]
	mov	ecx, DWORD PTR ___that$[ebp]
	mov	edx, DWORD PTR [ecx+24]
	mov	DWORD PTR [eax+24], edx
	mov	eax, DWORD PTR _this$[ebp]
	pop	edi
	pop	esi
	pop	ebx
	mov	esp, ebp
	pop	ebp
	ret	4
??4BufferStraw@@QAEAAV0@ABV0@@Z ENDP			; BufferStraw::operator=
_TEXT	ENDS
; Function compile flags: /Odtp /ZI
;	COMDAT ??0BufferStraw@@QAE@ABV0@@Z
_TEXT	SEGMENT
_this$ = -4						; size = 4
___that$ = 8						; size = 4
??0BufferStraw@@QAE@ABV0@@Z PROC			; BufferStraw::BufferStraw, COMDAT
; _this$ = ecx
	push	ebp
	mov	ebp, esp
	sub	esp, 68					; 00000044H
	push	ebx
	push	esi
	push	edi
	mov	DWORD PTR _this$[ebp], ecx
	mov	eax, DWORD PTR ___that$[ebp]
	push	eax
	mov	ecx, DWORD PTR _this$[ebp]
	call	??0Straw@@QAE@ABV0@@Z
	mov	eax, DWORD PTR _this$[ebp]
	mov	DWORD PTR [eax], OFFSET ??_7BufferStraw@@6B@
	mov	eax, DWORD PTR ___that$[ebp]
	add	eax, 12					; 0000000cH
	mov	ecx, DWORD PTR _this$[ebp]
	add	ecx, 12					; 0000000cH
	mov	edx, DWORD PTR [eax]
	mov	DWORD PTR [ecx], edx
	mov	edx, DWORD PTR [eax+4]
	mov	DWORD PTR [ecx+4], edx
	mov	eax, DWORD PTR [eax+8]
	mov	DWORD PTR [ecx+8], eax
	mov	eax, DWORD PTR _this$[ebp]
	mov	ecx, DWORD PTR ___that$[ebp]
	mov	edx, DWORD PTR [ecx+24]
	mov	DWORD PTR [eax+24], edx
	mov	eax, DWORD PTR _this$[ebp]
	pop	edi
	pop	esi
	pop	ebx
	mov	esp, ebp
	pop	ebp
	ret	4
??0BufferStraw@@QAE@ABV0@@Z ENDP			; BufferStraw::BufferStraw
_TEXT	ENDS
; Function compile flags: /Odtp /ZI
;	COMDAT ??4Buffer@@QAEAAV0@ABV0@@Z
_TEXT	SEGMENT
_this$ = -4						; size = 4
___that$ = 8						; size = 4
??4Buffer@@QAEAAV0@ABV0@@Z PROC				; Buffer::operator=, COMDAT
; _this$ = ecx
	push	ebp
	mov	ebp, esp
	sub	esp, 68					; 00000044H
	push	ebx
	push	esi
	push	edi
	mov	DWORD PTR _this$[ebp], ecx
	mov	eax, DWORD PTR ___that$[ebp]
	mov	ecx, DWORD PTR _this$[ebp]
	mov	edx, DWORD PTR [eax]
	mov	DWORD PTR [ecx], edx
	mov	edx, DWORD PTR [eax+4]
	mov	DWORD PTR [ecx+4], edx
	mov	eax, DWORD PTR [eax+8]
	mov	DWORD PTR [ecx+8], eax
	mov	eax, DWORD PTR _this$[ebp]
	pop	edi
	pop	esi
	pop	ebx
	mov	esp, ebp
	pop	ebp
	ret	4
??4Buffer@@QAEAAV0@ABV0@@Z ENDP				; Buffer::operator=
_TEXT	ENDS
; Function compile flags: /Odtp /ZI
; File x:\github\renegade\dragonade_rxd\scripts\straw.h
;	COMDAT ?Get_Size@Buffer@@QAEJXZ
_TEXT	SEGMENT
_this$ = -4						; size = 4
?Get_Size@Buffer@@QAEJXZ PROC				; Buffer::Get_Size, COMDAT
; _this$ = ecx

; 45   : 	{

	push	ebp
	mov	ebp, esp
	sub	esp, 68					; 00000044H
	push	ebx
	push	esi
	push	edi
	mov	DWORD PTR _this$[ebp], ecx

; 46   : 		return Size;

	mov	eax, DWORD PTR _this$[ebp]
	mov	eax, DWORD PTR [eax+4]

; 47   : 	}

	pop	edi
	pop	esi
	pop	ebx
	mov	esp, ebp
	pop	ebp
	ret	0
?Get_Size@Buffer@@QAEJXZ ENDP				; Buffer::Get_Size
_TEXT	ENDS
; Function compile flags: /Odtp /ZI
; File x:\github\renegade\dragonade_rxd\scripts\straw.h
;	COMDAT ?Get_Buffer@Buffer@@QAEPAXXZ
_TEXT	SEGMENT
_this$ = -4						; size = 4
?Get_Buffer@Buffer@@QAEPAXXZ PROC			; Buffer::Get_Buffer, COMDAT
; _this$ = ecx

; 41   : 	{

	push	ebp
	mov	ebp, esp
	sub	esp, 68					; 00000044H
	push	ebx
	push	esi
	push	edi
	mov	DWORD PTR _this$[ebp], ecx

; 42   : 		return BufferPtr;

	mov	eax, DWORD PTR _this$[ebp]
	mov	eax, DWORD PTR [eax]

; 43   : 	}

	pop	edi
	pop	esi
	pop	ebx
	mov	esp, ebp
	pop	ebp
	ret	0
?Get_Buffer@Buffer@@QAEPAXXZ ENDP			; Buffer::Get_Buffer
_TEXT	ENDS
; Function compile flags: /Odtp /ZI
; File x:\github\renegade\dragonade_rxd\scripts\straw.h
;	COMDAT ??0Buffer@@QAE@J@Z
_TEXT	SEGMENT
tv80 = -76						; size = 4
$T1 = -72						; size = 4
_this$ = -4						; size = 4
_size$ = 8						; size = 4
??0Buffer@@QAE@J@Z PROC					; Buffer::Buffer, COMDAT
; _this$ = ecx

; 33   : 	{

	push	ebp
	mov	ebp, esp
	sub	esp, 76					; 0000004cH
	push	ebx
	push	esi
	push	edi
	mov	DWORD PTR _this$[ebp], ecx
	mov	eax, DWORD PTR _this$[ebp]
	mov	DWORD PTR [eax], 0
	mov	eax, DWORD PTR _this$[ebp]
	mov	ecx, DWORD PTR _size$[ebp]
	mov	DWORD PTR [eax+4], ecx
	mov	eax, DWORD PTR _this$[ebp]
	mov	BYTE PTR [eax+8], 0

; 34   : 		if (size > 0)

	cmp	DWORD PTR _size$[ebp], 0
	jle	SHORT $LN2@Buffer

; 35   : 		{
; 36   : 			BufferPtr = new char[size];

	push	OFFSET ??_C@_0P@OCJIINDO@Buffer?3?3Buffer?$AA@
	push	36					; 00000024H
	push	OFFSET ??_C@_0DB@KAPDHD@x?3?2github?2renegade?2dragonade_rxd@
	call	?SetThreadTrackingInformation@@YAXPBDI0@Z ; SetThreadTrackingInformation
	add	esp, 12					; 0000000cH
	xor	eax, eax
	je	SHORT $LN5@Buffer
	xor	ecx, ecx
	jne	SHORT $LN4@Buffer
	push	36					; 00000024H
	push	OFFSET ??_C@_1GC@DMMDNGMD@?$AAx?$AA?3?$AA?2?$AAg?$AAi?$AAt?$AAh?$AAu?$AAb?$AA?2?$AAr?$AAe?$AAn?$AAe?$AAg?$AAa?$AAd?$AAe?$AA?2?$AAd?$AAr?$AAa?$AAg?$AAo?$AAn?$AAa?$AAd?$AAe?$AA_?$AAr?$AAx?$AAd@
	push	OFFSET ??_C@_1M@HLGKFCJM@?$AAf?$AAa?$AAl?$AAs?$AAe?$AA?$AA@
	call	DWORD PTR __imp___wassert
	add	esp, 12					; 0000000cH
$LN4@Buffer:
	mov	DWORD PTR tv80[ebp], 0
	jmp	SHORT $LN6@Buffer
$LN5@Buffer:
	mov	eax, DWORD PTR _size$[ebp]
	push	eax
	call	??_U@YAPAXI@Z				; operator new[]
	add	esp, 4
	mov	DWORD PTR $T1[ebp], eax
	mov	ecx, DWORD PTR $T1[ebp]
	mov	DWORD PTR tv80[ebp], ecx
$LN6@Buffer:
	mov	edx, DWORD PTR _this$[ebp]
	mov	eax, DWORD PTR tv80[ebp]
	mov	DWORD PTR [edx], eax

; 37   : 			IsAllocated = true;

	mov	eax, DWORD PTR _this$[ebp]
	mov	BYTE PTR [eax+8], 1
$LN2@Buffer:

; 38   : 		}
; 39   : 	}

	mov	eax, DWORD PTR _this$[ebp]
	pop	edi
	pop	esi
	pop	ebx
	mov	esp, ebp
	pop	ebp
	ret	4
??0Buffer@@QAE@J@Z ENDP					; Buffer::Buffer
_TEXT	ENDS
; Function compile flags: /Odtp /ZI
;	COMDAT ??_EStraw@@UAEPAXI@Z
_TEXT	SEGMENT
_this$ = -4						; size = 4
___flags$ = 8						; size = 4
??_EStraw@@UAEPAXI@Z PROC				; Straw::`vector deleting destructor', COMDAT
; _this$ = ecx
	push	ebp
	mov	ebp, esp
	sub	esp, 68					; 00000044H
	push	ebx
	push	esi
	push	edi
	mov	DWORD PTR _this$[ebp], ecx
	mov	eax, DWORD PTR ___flags$[ebp]
	and	eax, 2
	je	SHORT $LN3@vector
	push	OFFSET ??1Straw@@UAE@XZ			; Straw::~Straw
	mov	eax, DWORD PTR _this$[ebp]
	mov	ecx, DWORD PTR [eax-4]
	push	ecx
	push	12					; 0000000cH
	mov	edx, DWORD PTR _this$[ebp]
	push	edx
	call	??_I@YGXPAXIHP6EX0@Z@Z
	mov	eax, DWORD PTR ___flags$[ebp]
	and	eax, 1
	je	SHORT $LN2@vector
	mov	eax, DWORD PTR _this$[ebp]
	sub	eax, 4
	push	eax
	call	??_V@YAXPAX@Z				; operator delete[]
	add	esp, 4
$LN2@vector:
	mov	eax, DWORD PTR _this$[ebp]
	sub	eax, 4
	jmp	SHORT $LN4@vector
$LN3@vector:
	mov	ecx, DWORD PTR _this$[ebp]
	call	??1Straw@@UAE@XZ			; Straw::~Straw
	mov	eax, DWORD PTR ___flags$[ebp]
	and	eax, 1
	je	SHORT $LN1@vector
	mov	eax, DWORD PTR _this$[ebp]
	push	eax
	call	??3@YAXPAX@Z				; operator delete
	add	esp, 4
$LN1@vector:
	mov	eax, DWORD PTR _this$[ebp]
$LN4@vector:
	pop	edi
	pop	esi
	pop	ebx
	mov	esp, ebp
	pop	ebp
	ret	4
??_EStraw@@UAEPAXI@Z ENDP				; Straw::`vector deleting destructor'
_TEXT	ENDS
; Function compile flags: /Odtp /ZI
;	COMDAT ??_GStraw@@UAEPAXI@Z
_TEXT	SEGMENT
_this$ = -4						; size = 4
___flags$ = 8						; size = 4
??_GStraw@@UAEPAXI@Z PROC				; Straw::`scalar deleting destructor', COMDAT
; _this$ = ecx
	push	ebp
	mov	ebp, esp
	sub	esp, 68					; 00000044H
	push	ebx
	push	esi
	push	edi
	mov	DWORD PTR _this$[ebp], ecx
	mov	ecx, DWORD PTR _this$[ebp]
	call	??1Straw@@UAE@XZ			; Straw::~Straw
	mov	eax, DWORD PTR ___flags$[ebp]
	and	eax, 1
	je	SHORT $LN1@scalar
	mov	eax, DWORD PTR _this$[ebp]
	push	eax
	call	??3@YAXPAX@Z				; operator delete
	add	esp, 4
$LN1@scalar:
	mov	eax, DWORD PTR _this$[ebp]
	pop	edi
	pop	esi
	pop	ebx
	mov	esp, ebp
	pop	ebp
	ret	4
??_GStraw@@UAEPAXI@Z ENDP				; Straw::`scalar deleting destructor'
_TEXT	ENDS
; Function compile flags: /Odtp /ZI
;	COMDAT ??4Straw@@QAEAAV0@ABV0@@Z
_TEXT	SEGMENT
_this$ = -4						; size = 4
___that$ = 8						; size = 4
??4Straw@@QAEAAV0@ABV0@@Z PROC				; Straw::operator=, COMDAT
; _this$ = ecx
	push	ebp
	mov	ebp, esp
	sub	esp, 68					; 00000044H
	push	ebx
	push	esi
	push	edi
	mov	DWORD PTR _this$[ebp], ecx
	mov	eax, DWORD PTR _this$[ebp]
	mov	ecx, DWORD PTR ___that$[ebp]
	mov	edx, DWORD PTR [ecx+4]
	mov	DWORD PTR [eax+4], edx
	mov	eax, DWORD PTR _this$[ebp]
	mov	ecx, DWORD PTR ___that$[ebp]
	mov	edx, DWORD PTR [ecx+8]
	mov	DWORD PTR [eax+8], edx
	mov	eax, DWORD PTR _this$[ebp]
	pop	edi
	pop	esi
	pop	ebx
	mov	esp, ebp
	pop	ebp
	ret	4
??4Straw@@QAEAAV0@ABV0@@Z ENDP				; Straw::operator=
_TEXT	ENDS
; Function compile flags: /Odtp /ZI
;	COMDAT ??0Straw@@QAE@ABV0@@Z
_TEXT	SEGMENT
_this$ = -4						; size = 4
___that$ = 8						; size = 4
??0Straw@@QAE@ABV0@@Z PROC				; Straw::Straw, COMDAT
; _this$ = ecx
	push	ebp
	mov	ebp, esp
	sub	esp, 68					; 00000044H
	push	ebx
	push	esi
	push	edi
	mov	DWORD PTR _this$[ebp], ecx
	mov	eax, DWORD PTR _this$[ebp]
	mov	DWORD PTR [eax], OFFSET ??_7Straw@@6B@
	mov	eax, DWORD PTR _this$[ebp]
	mov	ecx, DWORD PTR ___that$[ebp]
	mov	edx, DWORD PTR [ecx+4]
	mov	DWORD PTR [eax+4], edx
	mov	eax, DWORD PTR _this$[ebp]
	mov	ecx, DWORD PTR ___that$[ebp]
	mov	edx, DWORD PTR [ecx+8]
	mov	DWORD PTR [eax+8], edx
	mov	eax, DWORD PTR _this$[ebp]
	pop	edi
	pop	esi
	pop	ebx
	mov	esp, ebp
	pop	ebp
	ret	4
??0Straw@@QAE@ABV0@@Z ENDP				; Straw::Straw
_TEXT	ENDS
; Function compile flags: /Odtp /ZI
; File x:\github\renegade\dragonade_rxd\scripts\engine_io.cpp
;	COMDAT ?Strip_Path_From_Filename@@YAXAAVStringClass@@PBD@Z
_TEXT	SEGMENT
_c$1 = -4						; size = 4
_target$ = 8						; size = 4
_fileName$ = 12						; size = 4
?Strip_Path_From_Filename@@YAXAAVStringClass@@PBD@Z PROC ; Strip_Path_From_Filename, COMDAT

; 22   : {

