; Listing generated by Microsoft (R) Optimizing Compiler Version 17.00.61219.0 

	TITLE	X:\GitHub\Renegade\Dragonade_RxD\scripts\engine_def.cpp
	.686P
	.XMM
	include listing.inc
	.model	flat

INCLUDELIB MSVCRTD
INCLUDELIB OLDNAMES

CONST	SEGMENT
_DONT_MOVE_ARRIVED_DIST DD 0447a0000r		; 1000
CONST	ENDS
PUBLIC	??_H@YGXPAXIHP6EPAX0@Z@Z			; `vector constructor iterator'
PUBLIC	??_I@YGXPAXIHP6EX0@Z@Z				; `vector destructor iterator'
PUBLIC	_acosf
PUBLIC	_asinf
PUBLIC	_atanf
PUBLIC	_atan2f
PUBLIC	_ceilf
PUBLIC	_cosf
PUBLIC	_floorf
PUBLIC	_sinf
PUBLIC	_sqrtf
PUBLIC	?acos@@YAMM@Z					; acos
PUBLIC	?asin@@YAMM@Z					; asin
PUBLIC	?atan@@YAMM@Z					; atan
PUBLIC	?atan2@@YAMMM@Z					; atan2
PUBLIC	?cos@@YAMM@Z					; cos
PUBLIC	?sin@@YAMM@Z					; sin
PUBLIC	?sqrt@@YAMM@Z					; sqrt
PUBLIC	??0PostLoadableClass@@QAE@XZ			; PostLoadableClass::PostLoadableClass
PUBLIC	??1PostLoadableClass@@UAE@XZ			; PostLoadableClass::~PostLoadableClass
PUBLIC	?On_Post_Load@PostLoadableClass@@UAEXXZ		; PostLoadableClass::On_Post_Load
PUBLIC	?Is_Post_Load_Registered@PostLoadableClass@@QBE_NXZ ; PostLoadableClass::Is_Post_Load_Registered
PUBLIC	?Set_Post_Load_Registered@PostLoadableClass@@QAEX_N@Z ; PostLoadableClass::Set_Post_Load_Registered
PUBLIC	??0PostLoadableClass@@QAE@ABV0@@Z		; PostLoadableClass::PostLoadableClass
PUBLIC	??4PostLoadableClass@@QAEAAV0@ABV0@@Z		; PostLoadableClass::operator=
PUBLIC	??_GPostLoadableClass@@UAEPAXI@Z		; PostLoadableClass::`scalar deleting destructor'
PUBLIC	??_EPostLoadableClass@@UAEPAXI@Z		; PostLoadableClass::`vector deleting destructor'
PUBLIC	??1StringClass@@QAE@XZ				; StringClass::~StringClass
PUBLIC	??_EStringClass@@QAEPAXI@Z			; StringClass::`vector deleting destructor'
PUBLIC	?Is_Running@ThreadClass@@QAE_NXZ		; ThreadClass::Is_Running
PUBLIC	?Get_Current_Thread_ID@ThreadClass@@SAHXZ	; ThreadClass::Get_Current_Thread_ID
PUBLIC	?Get_Name@ThreadClass@@QAEPBDXZ			; ThreadClass::Get_Name
PUBLIC	??0ThreadClass@@QAE@ABV0@@Z			; ThreadClass::ThreadClass
PUBLIC	??4ThreadClass@@QAEAAV0@ABV0@@Z			; ThreadClass::operator=
PUBLIC	??_GThreadClass@@UAEPAXI@Z			; ThreadClass::`scalar deleting destructor'
PUBLIC	??_EThreadClass@@UAEPAXI@Z			; ThreadClass::`vector deleting destructor'
PUBLIC	??4CriticalSectionClass@@QAEAAV0@ABV0@@Z	; CriticalSectionClass::operator=
PUBLIC	?Fabs@WWMath@@SAMM@Z				; WWMath::Fabs
PUBLIC	?Float_To_Int_Chop@WWMath@@SAHABM@Z		; WWMath::Float_To_Int_Chop
PUBLIC	?Float_To_Int_Floor@WWMath@@SAHABM@Z		; WWMath::Float_To_Int_Floor
PUBLIC	?Cos@WWMath@@SAMM@Z				; WWMath::Cos
PUBLIC	?Sin@WWMath@@SAMM@Z				; WWMath::Sin
PUBLIC	?Sqrt@WWMath@@SAMM@Z				; WWMath::Sqrt
PUBLIC	?Inv_Sqrt@WWMath@@SIMM@Z			; WWMath::Inv_Sqrt
PUBLIC	?Float_To_Long@WWMath@@SAJM@Z			; WWMath::Float_To_Long
PUBLIC	?Fast_Sin@WWMath@@SAMM@Z			; WWMath::Fast_Sin
PUBLIC	?Fast_Inv_Sin@WWMath@@SAMM@Z			; WWMath::Fast_Inv_Sin
PUBLIC	?Fast_Cos@WWMath@@SAMM@Z			; WWMath::Fast_Cos
PUBLIC	?Fast_Inv_Cos@WWMath@@SAMM@Z			; WWMath::Fast_Inv_Cos
PUBLIC	?Fast_Acos@WWMath@@SAMM@Z			; WWMath::Fast_Acos
PUBLIC	?Fast_Asin@WWMath@@SAMM@Z			; WWMath::Fast_Asin
PUBLIC	?Acos@WWMath@@SAMM@Z				; WWMath::Acos
PUBLIC	?Asin@WWMath@@SAMM@Z				; WWMath::Asin
PUBLIC	?Atan@WWMath@@SAMM@Z				; WWMath::Atan
PUBLIC	?Atan2@WWMath@@SAMMM@Z				; WWMath::Atan2
PUBLIC	?Sign@WWMath@@SAMM@Z				; WWMath::Sign
PUBLIC	?Ceil@WWMath@@SAMM@Z				; WWMath::Ceil
PUBLIC	?Floor@WWMath@@SAMM@Z				; WWMath::Floor
PUBLIC	?Fast_Is_Float_Positive@WWMath@@SA_NABM@Z	; WWMath::Fast_Is_Float_Positive
PUBLIC	?Random_Float@WWMath@@SAMMM@Z			; WWMath::Random_Float
PUBLIC	?Clamp@WWMath@@SAMMMM@Z				; WWMath::Clamp
PUBLIC	?Clamp@WWMath@@SANNNN@Z				; WWMath::Clamp
PUBLIC	?Clamp_Int@WWMath@@SAHHHH@Z			; WWMath::Clamp_Int
PUBLIC	?Wrap@WWMath@@SAMMMM@Z				; WWMath::Wrap
PUBLIC	?Wrap@WWMath@@SANNNN@Z				; WWMath::Wrap
PUBLIC	?Min@WWMath@@SAMMM@Z				; WWMath::Min
PUBLIC	?Max@WWMath@@SAMMM@Z				; WWMath::Max
PUBLIC	?Lerp@WWMath@@SAMMMM@Z				; WWMath::Lerp
PUBLIC	?Lerp@WWMath@@SANNNM@Z				; WWMath::Lerp
PUBLIC	?Lerp@WWMath@@SAHHHM@Z				; WWMath::Lerp
PUBLIC	?Float_To_Long@WWMath@@SAJN@Z			; WWMath::Float_To_Long
PUBLIC	?Unit_Float_To_Byte@WWMath@@SAEM@Z		; WWMath::Unit_Float_To_Byte
PUBLIC	?Byte_To_Unit_Float@WWMath@@SAME@Z		; WWMath::Byte_To_Unit_Float
PUBLIC	?Is_Valid_Float@WWMath@@SA_NM@Z			; WWMath::Is_Valid_Float
PUBLIC	?Is_Valid_Double@WWMath@@SA_NN@Z		; WWMath::Is_Valid_Double
PUBLIC	??4WWMath@@QAEAAV0@ABV0@@Z			; WWMath::operator=
PUBLIC	??B?$RefArrayHelper@M$0EAA@@@QAEPAMXZ		; RefArrayHelper<float,1024>::operator float *
PUBLIC	??0Vector3@@QAE@XZ				; Vector3::Vector3
PUBLIC	??0Vector3@@QAE@ABV0@@Z				; Vector3::Vector3
PUBLIC	??0Vector3@@QAE@MMM@Z				; Vector3::Vector3
PUBLIC	??4Vector3@@QAEAAV0@ABV0@@Z			; Vector3::operator=
PUBLIC	?Set@Vector3@@QAEXMMM@Z				; Vector3::Set
PUBLIC	??AVector3@@QBEABMH@Z				; Vector3::operator[]
PUBLIC	?Normalize@Vector3@@QAEXXZ			; Vector3::Normalize
PUBLIC	?Length@Vector3@@QBEMXZ				; Vector3::Length
PUBLIC	?Length2@Vector3@@QBEMXZ			; Vector3::Length2
PUBLIC	??D@YA?AVVector3@@ABV0@M@Z			; operator*
PUBLIC	??D@YA?AVVector3@@MABV0@@Z			; operator*
PUBLIC	??H@YA?AVVector3@@ABV0@0@Z			; operator+
PUBLIC	??G@YA?AVVector3@@ABV0@0@Z			; operator-
PUBLIC	?Add@Vector3@@SAXABV1@0PAV1@@Z			; Vector3::Add
PUBLIC	??0GameObjObserverClass@@QAE@XZ			; GameObjObserverClass::GameObjObserverClass
PUBLIC	??1GameObjObserverClass@@UAE@XZ			; GameObjObserverClass::~GameObjObserverClass
PUBLIC	?Set_ID@GameObjObserverClass@@QAEXH@Z		; GameObjObserverClass::Set_ID
PUBLIC	?Get_ID@GameObjObserverClass@@QAEHXZ		; GameObjObserverClass::Get_ID
PUBLIC	?Owner@GameObjObserverClass@@UAEPAVScriptableGameObj@@XZ ; GameObjObserverClass::Owner
PUBLIC	??0GameObjObserverClass@@QAE@ABV0@@Z		; GameObjObserverClass::GameObjObserverClass
PUBLIC	??4GameObjObserverClass@@QAEAAV0@ABV0@@Z	; GameObjObserverClass::operator=
PUBLIC	??_GGameObjObserverClass@@UAEPAXI@Z		; GameObjObserverClass::`scalar deleting destructor'
PUBLIC	??_EGameObjObserverClass@@UAEPAXI@Z		; GameObjObserverClass::`vector deleting destructor'
PUBLIC	??1ScriptClass@@UAE@XZ				; ScriptClass::~ScriptClass
PUBLIC	??0ScriptClass@@QAE@XZ				; ScriptClass::ScriptClass
PUBLIC	??0ScriptClass@@QAE@ABV0@@Z			; ScriptClass::ScriptClass
PUBLIC	??4ScriptClass@@QAEAAV0@ABV0@@Z			; ScriptClass::operator=
PUBLIC	??_GScriptClass@@UAEPAXI@Z			; ScriptClass::`scalar deleting destructor'
PUBLIC	??_EScriptClass@@UAEPAXI@Z			; ScriptClass::`vector deleting destructor'
PUBLIC	?SetFactory@ScriptImpClass@@QAEXPAVScriptFactory@@@Z ; ScriptImpClass::SetFactory
PUBLIC	?Created@ScriptImpClass@@UAEXPAVScriptableGameObj@@@Z ; ScriptImpClass::Created
PUBLIC	?Destroyed@ScriptImpClass@@UAEXPAVScriptableGameObj@@@Z ; ScriptImpClass::Destroyed
PUBLIC	?Killed@ScriptImpClass@@UAEXPAVScriptableGameObj@@0@Z ; ScriptImpClass::Killed
PUBLIC	?Damaged@ScriptImpClass@@UAEXPAVScriptableGameObj@@0M@Z ; ScriptImpClass::Damaged
PUBLIC	?Custom@ScriptImpClass@@UAEXPAVScriptableGameObj@@HH0@Z ; ScriptImpClass::Custom
PUBLIC	?Sound_Heard@ScriptImpClass@@UAEXPAVScriptableGameObj@@ABUCombatSound@@@Z ; ScriptImpClass::Sound_Heard
PUBLIC	?Enemy_Seen@ScriptImpClass@@UAEXPAVScriptableGameObj@@0@Z ; ScriptImpClass::Enemy_Seen
PUBLIC	?Action_Complete@ScriptImpClass@@UAEXPAVScriptableGameObj@@HW4ActionCompleteReason@@@Z ; ScriptImpClass::Action_Complete
PUBLIC	?Timer_Expired@ScriptImpClass@@UAEXPAVScriptableGameObj@@H@Z ; ScriptImpClass::Timer_Expired
PUBLIC	?Animation_Complete@ScriptImpClass@@UAEXPAVScriptableGameObj@@PBD@Z ; ScriptImpClass::Animation_Complete
PUBLIC	?Poked@ScriptImpClass@@UAEXPAVScriptableGameObj@@0@Z ; ScriptImpClass::Poked
PUBLIC	?Entered@ScriptImpClass@@UAEXPAVScriptableGameObj@@0@Z ; ScriptImpClass::Entered
PUBLIC	?Exited@ScriptImpClass@@UAEXPAVScriptableGameObj@@0@Z ; ScriptImpClass::Exited
PUBLIC	?Owner@ScriptImpClass@@UAEPAVScriptableGameObj@@XZ ; ScriptImpClass::Owner
PUBLIC	?Get_Owner_Ptr@ScriptImpClass@@UAEPAPAVScriptableGameObj@@XZ ; ScriptImpClass::Get_Owner_Ptr
PUBLIC	?Save_Data@ScriptImpClass@@UAEXAAVScriptSaver@@@Z ; ScriptImpClass::Save_Data
PUBLIC	?Load_Data@ScriptImpClass@@UAEXAAVScriptLoader@@@Z ; ScriptImpClass::Load_Data
PUBLIC	?Register_Auto_Save_Variables@ScriptImpClass@@UAEXXZ ; ScriptImpClass::Register_Auto_Save_Variables
PUBLIC	?Get_Parameter_Count@ScriptImpClass@@QAEHXZ	; ScriptImpClass::Get_Parameter_Count
PUBLIC	?Get_Int_Parameter@ScriptImpClass@@QAEHH@Z	; ScriptImpClass::Get_Int_Parameter
PUBLIC	?Get_Float_Parameter@ScriptImpClass@@QAEMH@Z	; ScriptImpClass::Get_Float_Parameter
PUBLIC	?Get_Bool_Parameter@ScriptImpClass@@QAE_NPBD@Z	; ScriptImpClass::Get_Bool_Parameter
PUBLIC	?Get_Bool_Parameter@ScriptImpClass@@QAE_NH@Z	; ScriptImpClass::Get_Bool_Parameter
PUBLIC	??0ScriptImpClass@@QAE@ABV0@@Z			; ScriptImpClass::ScriptImpClass
PUBLIC	??4ScriptImpClass@@QAEAAV0@ABV0@@Z		; ScriptImpClass::operator=
PUBLIC	??_GScriptImpClass@@UAEPAXI@Z			; ScriptImpClass::`scalar deleting destructor'
PUBLIC	??_EScriptImpClass@@UAEPAXI@Z			; ScriptImpClass::`vector deleting destructor'
PUBLIC	??0ScriptFactory@@QAE@ABV0@@Z			; ScriptFactory::ScriptFactory
PUBLIC	??4ScriptFactory@@QAEAAV0@ABV0@@Z		; ScriptFactory::operator=
PUBLIC	??_GScriptFactory@@UAEPAXI@Z			; ScriptFactory::`scalar deleting destructor'
PUBLIC	??_EScriptFactory@@UAEPAXI@Z			; ScriptFactory::`vector deleting destructor'
PUBLIC	??4ScriptRegistrar@@QAEAAV0@ABV0@@Z		; ScriptRegistrar::operator=
PUBLIC	??4ChunkLoadClass@@QAEAAV0@ABV0@@Z		; ChunkLoadClass::operator=
PUBLIC	?Set_Contains_Chunks@ChunkSaveClass@@QAEXXZ	; ChunkSaveClass::Set_Contains_Chunks
PUBLIC	??4ChunkSaveClass@@QAEAAV0@ABV0@@Z		; ChunkSaveClass::operator=
PUBLIC	?Is_Present@INIClass@@QBE_NPBD0@Z		; INIClass::Is_Present
PUBLIC	?Section_Present@INIClass@@QBE_NPBD@Z		; INIClass::Section_Present
PUBLIC	?Get_Section_List@INIClass@@QAEAAV?$List@PAUINISection@@@@XZ ; INIClass::Get_Section_List
PUBLIC	?Get_Section_Index@INIClass@@QAEAAV?$IndexClass@HPAUINISection@@@@XZ ; INIClass::Get_Section_Index
PUBLIC	?Get_File_Name@INIClass@@QAEPBDXZ		; INIClass::Get_File_Name
PUBLIC	??0INIClass@@QAE@ABV0@@Z			; INIClass::INIClass
PUBLIC	??4INIClass@@QAEAAV0@ABV0@@Z			; INIClass::operator=
PUBLIC	??_GINIClass@@UAEPAXI@Z				; INIClass::`scalar deleting destructor'
PUBLIC	??_EINIClass@@UAEPAXI@Z				; INIClass::`vector deleting destructor'
PUBLIC	??Cfile_auto_ptr@@QAEPAVFileClass@@XZ		; file_auto_ptr::operator->
PUBLIC	??Bfile_auto_ptr@@QAEPAVFileClass@@XZ		; file_auto_ptr::operator FileClass *
PUBLIC	??Dfile_auto_ptr@@QAEAAVFileClass@@XZ		; file_auto_ptr::operator*
PUBLIC	?get@file_auto_ptr@@QAEPAVFileClass@@XZ		; file_auto_ptr::get
PUBLIC	??4file_auto_ptr@@QAEAAV0@ABV0@@Z		; file_auto_ptr::operator=
PUBLIC	??CReferencerClass@@QAEPAVScriptableGameObj@@XZ	; ReferencerClass::operator->
PUBLIC	??0ReferencerClass@@QAE@XZ			; ReferencerClass::ReferencerClass
PUBLIC	??0ReferencerClass@@QAE@PAVScriptableGameObj@@@Z ; ReferencerClass::ReferencerClass
PUBLIC	?Get_Ptr@ReferencerClass@@QBEPAVScriptableGameObj@@XZ ; ReferencerClass::Get_Ptr
PUBLIC	?Set_Ptr@ReferencerClass@@QAEXPAVScriptableGameObj@@@Z ; ReferencerClass::Set_Ptr
PUBLIC	??0ReferencerClass@@QAE@ABV0@@Z			; ReferencerClass::ReferencerClass
PUBLIC	??_GReferencerClass@@UAEPAXI@Z			; ReferencerClass::`scalar deleting destructor'
PUBLIC	??_EReferencerClass@@UAEPAXI@Z			; ReferencerClass::`vector deleting destructor'
PUBLIC	?Get_Data@?$ReferenceableClass@VScriptableGameObj@@@@IBEPAVScriptableGameObj@@XZ ; ReferenceableClass<ScriptableGameObj>::Get_Data
PUBLIC	??4SysTimeClass@@QAEAAV0@ABV0@@Z		; SysTimeClass::operator=
PUBLIC	??0Vector4@@QAE@XZ				; Vector4::Vector4
PUBLIC	??4Vector4@@QAEAAV0@ABV0@@Z			; Vector4::operator=
PUBLIC	?Set@Vector4@@QAEXMMMM@Z			; Vector4::Set
PUBLIC	??AVector4@@QAEAAMH@Z				; Vector4::operator[]
PUBLIC	??AVector4@@QBEABMH@Z				; Vector4::operator[]
PUBLIC	??AMatrix3D@@QAEAAVVector4@@H@Z			; Matrix3D::operator[]
PUBLIC	??AMatrix3D@@QBEABVVector4@@H@Z			; Matrix3D::operator[]
PUBLIC	??0Matrix3D@@QAE@_N@Z				; Matrix3D::Matrix3D
PUBLIC	??0Matrix3D@@QAE@QAM@Z				; Matrix3D::Matrix3D
PUBLIC	??0Matrix3D@@QAE@ABVVector3@@000@Z		; Matrix3D::Matrix3D
PUBLIC	??0Matrix3D@@QAE@ABVVector3@@M@Z		; Matrix3D::Matrix3D
PUBLIC	??0Matrix3D@@QAE@ABVVector3@@MM@Z		; Matrix3D::Matrix3D
PUBLIC	??0Matrix3D@@QAE@ABVMatrix3@@ABVVector3@@@Z	; Matrix3D::Matrix3D
PUBLIC	??0Matrix3D@@QAE@ABVQuaternion@@ABVVector3@@@Z	; Matrix3D::Matrix3D
PUBLIC	??0Matrix3D@@QAE@ABVVector3@@@Z			; Matrix3D::Matrix3D
PUBLIC	??0Matrix3D@@QAE@ABV0@@Z			; Matrix3D::Matrix3D
PUBLIC	??4Matrix3D@@QAEAAV0@ABV0@@Z			; Matrix3D::operator=
PUBLIC	?Set@Matrix3D@@QAEXQAM@Z			; Matrix3D::Set
PUBLIC	?Set@Matrix3D@@QAEXMMMMMMMMMMMM@Z		; Matrix3D::Set
PUBLIC	?Set@Matrix3D@@QAEXABVVector3@@000@Z		; Matrix3D::Set
PUBLIC	?Set@Matrix3D@@QAEXABVVector3@@M@Z		; Matrix3D::Set
PUBLIC	?Set@Matrix3D@@QAEXABVVector3@@MM@Z		; Matrix3D::Set
PUBLIC	?Set@Matrix3D@@QAEXABVVector3@@@Z		; Matrix3D::Set
PUBLIC	?Get_Translation@Matrix3D@@QBE?AVVector3@@XZ	; Matrix3D::Get_Translation
PUBLIC	?Get_Translation@Matrix3D@@QBEXPAVVector3@@@Z	; Matrix3D::Get_Translation
PUBLIC	?Set_Translation@Matrix3D@@QAEXABVVector3@@@Z	; Matrix3D::Set_Translation
PUBLIC	?Get_X_Translation@Matrix3D@@QBEMXZ		; Matrix3D::Get_X_Translation
PUBLIC	?Get_Y_Translation@Matrix3D@@QBEMXZ		; Matrix3D::Get_Y_Translation
PUBLIC	?Get_Z_Translation@Matrix3D@@QBEMXZ		; Matrix3D::Get_Z_Translation
PUBLIC	?Set_X_Translation@Matrix3D@@QAEXM@Z		; Matrix3D::Set_X_Translation
PUBLIC	?Set_Y_Translation@Matrix3D@@QAEXM@Z		; Matrix3D::Set_Y_Translation
PUBLIC	?Set_Z_Translation@Matrix3D@@QAEXM@Z		; Matrix3D::Set_Z_Translation
PUBLIC	?Adjust_Translation@Matrix3D@@QAEXABVVector3@@@Z ; Matrix3D::Adjust_Translation
PUBLIC	?Adjust_X_Translation@Matrix3D@@QAEXM@Z		; Matrix3D::Adjust_X_Translation
PUBLIC	?Adjust_Y_Translation@Matrix3D@@QAEXM@Z		; Matrix3D::Adjust_Y_Translation
PUBLIC	?Adjust_Z_Translation@Matrix3D@@QAEXM@Z		; Matrix3D::Adjust_Z_Translation
PUBLIC	?Make_Identity@Matrix3D@@QAEXXZ			; Matrix3D::Make_Identity
PUBLIC	?Translate@Matrix3D@@QAEXMMM@Z			; Matrix3D::Translate
PUBLIC	?Translate@Matrix3D@@QAEXABVVector3@@@Z		; Matrix3D::Translate
PUBLIC	?Translate_X@Matrix3D@@QAEXM@Z			; Matrix3D::Translate_X
PUBLIC	?Translate_Y@Matrix3D@@QAEXM@Z			; Matrix3D::Translate_Y
PUBLIC	?Translate_Z@Matrix3D@@QAEXM@Z			; Matrix3D::Translate_Z
PUBLIC	?Rotate_X@Matrix3D@@QAEXM@Z			; Matrix3D::Rotate_X
PUBLIC	?Rotate_Y@Matrix3D@@QAEXM@Z			; Matrix3D::Rotate_Y
PUBLIC	?Rotate_Z@Matrix3D@@QAEXM@Z			; Matrix3D::Rotate_Z
PUBLIC	?Rotate_X@Matrix3D@@QAEXMM@Z			; Matrix3D::Rotate_X
PUBLIC	?Rotate_Y@Matrix3D@@QAEXMM@Z			; Matrix3D::Rotate_Y
PUBLIC	?Rotate_Z@Matrix3D@@QAEXMM@Z			; Matrix3D::Rotate_Z
PUBLIC	?Scale@Matrix3D@@QAEXM@Z			; Matrix3D::Scale
PUBLIC	?Scale@Matrix3D@@QAEXMMM@Z			; Matrix3D::Scale
PUBLIC	?Scale@Matrix3D@@QAEXAAVVector3@@@Z		; Matrix3D::Scale
PUBLIC	?Pre_Rotate_X@Matrix3D@@QAEXM@Z			; Matrix3D::Pre_Rotate_X
PUBLIC	?Pre_Rotate_Y@Matrix3D@@QAEXM@Z			; Matrix3D::Pre_Rotate_Y
PUBLIC	?Pre_Rotate_Z@Matrix3D@@QAEXM@Z			; Matrix3D::Pre_Rotate_Z
PUBLIC	?Pre_Rotate_X@Matrix3D@@QAEXMM@Z		; Matrix3D::Pre_Rotate_X
PUBLIC	?Pre_Rotate_Y@Matrix3D@@QAEXMM@Z		; Matrix3D::Pre_Rotate_Y
PUBLIC	?Pre_Rotate_Z@Matrix3D@@QAEXMM@Z		; Matrix3D::Pre_Rotate_Z
PUBLIC	?In_Place_Pre_Rotate_X@Matrix3D@@QAEXM@Z	; Matrix3D::In_Place_Pre_Rotate_X
PUBLIC	?In_Place_Pre_Rotate_Y@Matrix3D@@QAEXM@Z	; Matrix3D::In_Place_Pre_Rotate_Y
PUBLIC	?In_Place_Pre_Rotate_Z@Matrix3D@@QAEXM@Z	; Matrix3D::In_Place_Pre_Rotate_Z
PUBLIC	?In_Place_Pre_Rotate_X@Matrix3D@@QAEXMM@Z	; Matrix3D::In_Place_Pre_Rotate_X
PUBLIC	?In_Place_Pre_Rotate_Y@Matrix3D@@QAEXMM@Z	; Matrix3D::In_Place_Pre_Rotate_Y
PUBLIC	?In_Place_Pre_Rotate_Z@Matrix3D@@QAEXMM@Z	; Matrix3D::In_Place_Pre_Rotate_Z
PUBLIC	?Transform_Vector@Matrix3D@@SAXABV1@ABVVector3@@PAV2@@Z ; Matrix3D::Transform_Vector
PUBLIC	?Get_X_Vector@Matrix3D@@QBE?AVVector3@@XZ	; Matrix3D::Get_X_Vector
PUBLIC	?Get_Y_Vector@Matrix3D@@QBE?AVVector3@@XZ	; Matrix3D::Get_Y_Vector
PUBLIC	?Get_Z_Vector@Matrix3D@@QBE?AVVector3@@XZ	; Matrix3D::Get_Z_Vector
PUBLIC	?Get_X_Vector@Matrix3D@@QBEXPAVVector3@@@Z	; Matrix3D::Get_X_Vector
PUBLIC	?Get_Y_Vector@Matrix3D@@QBEXPAVVector3@@@Z	; Matrix3D::Get_Y_Vector
PUBLIC	?Get_Z_Vector@Matrix3D@@QBEXPAVVector3@@@Z	; Matrix3D::Get_Z_Vector
PUBLIC	?Rotate_Vector@Matrix3D@@SAXABV1@ABVVector3@@PAV2@@Z ; Matrix3D::Rotate_Vector
PUBLIC	?Inverse_Transform_Vector@Matrix3D@@SAXABV1@ABVVector3@@PAV2@@Z ; Matrix3D::Inverse_Transform_Vector
PUBLIC	?Inverse_Rotate_Vector@Matrix3D@@SAXABV1@ABVVector3@@PAV2@@Z ; Matrix3D::Inverse_Rotate_Vector
PUBLIC	??0LineSegClass@@QAE@XZ				; LineSegClass::LineSegClass
PUBLIC	??0LineSegClass@@QAE@ABVVector3@@0@Z		; LineSegClass::LineSegClass
PUBLIC	??0LineSegClass@@QAE@ABVVector3@@0M@Z		; LineSegClass::LineSegClass
PUBLIC	??0LineSegClass@@QAE@ABV0@ABVMatrix3D@@@Z	; LineSegClass::LineSegClass
PUBLIC	?Set@LineSegClass@@QAEXABVVector3@@0@Z		; LineSegClass::Set
PUBLIC	?Set@LineSegClass@@QAEXABVVector3@@0M@Z		; LineSegClass::Set
PUBLIC	?Get_P0@LineSegClass@@QBEABVVector3@@XZ		; LineSegClass::Get_P0
PUBLIC	?Get_P1@LineSegClass@@QBEABVVector3@@XZ		; LineSegClass::Get_P1
PUBLIC	?Get_DP@LineSegClass@@QBEABVVector3@@XZ		; LineSegClass::Get_DP
PUBLIC	?Get_Dir@LineSegClass@@QBEABVVector3@@XZ	; LineSegClass::Get_Dir
PUBLIC	?Get_Length@LineSegClass@@QBEMXZ		; LineSegClass::Get_Length
PUBLIC	?Compute_Point@LineSegClass@@QBEXMPAVVector3@@@Z ; LineSegClass::Compute_Point
PUBLIC	?recalculate@LineSegClass@@IAEXXZ		; LineSegClass::recalculate
PUBLIC	??0LineSegClass@@QAE@ABV0@@Z			; LineSegClass::LineSegClass
PUBLIC	??4LineSegClass@@QAEAAV0@ABV0@@Z		; LineSegClass::operator=
PUBLIC	?Get_Position@PhysClass@@QBEXPAVVector3@@@Z	; PhysClass::Get_Position
PUBLIC	?Get_Definition@PhysClass@@QAEPBVPhysDefClass@@XZ ; PhysClass::Get_Definition
PUBLIC	?Peek_Physical_Object@PhysicalGameObj@@QBEPAVPhysClass@@XZ ; PhysicalGameObj::Peek_Physical_Object
PUBLIC	?Get_Position@PhysicalGameObj@@QAE?AVVector3@@XZ ; PhysicalGameObj::Get_Position
PUBLIC	?Find_Definition@@YAPAVDefinitionClass@@K@Z	; Find_Definition
PUBLIC	?Get_Definition_Name@@YAPBDK@Z			; Get_Definition_Name
PUBLIC	?Find_Named_Definition@@YAPAVDefinitionClass@@PBD@Z ; Find_Named_Definition
PUBLIC	?Get_Definition_ID@@YAHPBD@Z			; Get_Definition_ID
PUBLIC	?Get_Phys_Definition@@YAPAVDefinitionClass@@PAVScriptableGameObj@@@Z ; Get_Phys_Definition
PUBLIC	?Get_Definition_Class_ID@@YAKPBD@Z		; Get_Definition_Class_ID
PUBLIC	?Is_Valid_Preset_ID@@YA_NK@Z			; Is_Valid_Preset_ID
PUBLIC	?Is_Valid_Preset@@YA_NPBD@Z			; Is_Valid_Preset
PUBLIC	??_7PostLoadableClass@@6B@			; PostLoadableClass::`vftable'
PUBLIC	??_7ThreadClass@@6B@				; ThreadClass::`vftable'
PUBLIC	??_7GameObjObserverClass@@6B@			; GameObjObserverClass::`vftable'
PUBLIC	??_7ScriptClass@@6B@				; ScriptClass::`vftable'
PUBLIC	??_7ScriptImpClass@@6B@				; ScriptImpClass::`vftable'
PUBLIC	??_7ScriptFactory@@6B@				; ScriptFactory::`vftable'
PUBLIC	??_7INIClass@@6B@				; INIClass::`vftable'
PUBLIC	??_7ReferencerClass@@6B@			; ReferencerClass::`vftable'
PUBLIC	??_C@_04CGFJFPFD@none?$AA@			; `string'
PUBLIC	??_R4PostLoadableClass@@6B@			; PostLoadableClass::`RTTI Complete Object Locator'
PUBLIC	??_R0?AVPostLoadableClass@@@8			; PostLoadableClass `RTTI Type Descriptor'
PUBLIC	??_R3PostLoadableClass@@8			; PostLoadableClass::`RTTI Class Hierarchy Descriptor'
PUBLIC	??_R2PostLoadableClass@@8			; PostLoadableClass::`RTTI Base Class Array'
PUBLIC	??_R1A@?0A@EA@PostLoadableClass@@8		; PostLoadableClass::`RTTI Base Class Descriptor at (0,-1,0,64)'
PUBLIC	??_R4ThreadClass@@6B@				; ThreadClass::`RTTI Complete Object Locator'
PUBLIC	??_R0?AVThreadClass@@@8				; ThreadClass `RTTI Type Descriptor'
PUBLIC	??_R3ThreadClass@@8				; ThreadClass::`RTTI Class Hierarchy Descriptor'
PUBLIC	??_R2ThreadClass@@8				; ThreadClass::`RTTI Base Class Array'
PUBLIC	??_R1A@?0A@EA@ThreadClass@@8			; ThreadClass::`RTTI Base Class Descriptor at (0,-1,0,64)'
PUBLIC	??_R4ScriptFactory@@6B@				; ScriptFactory::`RTTI Complete Object Locator'
PUBLIC	??_R0?AVScriptFactory@@@8			; ScriptFactory `RTTI Type Descriptor'
PUBLIC	??_R3ScriptFactory@@8				; ScriptFactory::`RTTI Class Hierarchy Descriptor'
PUBLIC	??_R2ScriptFactory@@8				; ScriptFactory::`RTTI Base Class Array'
PUBLIC	??_R1A@?0A@EA@ScriptFactory@@8			; ScriptFactory::`RTTI Base Class Descriptor at (0,-1,0,64)'
PUBLIC	??_R4ScriptClass@@6B@				; ScriptClass::`RTTI Complete Object Locator'
PUBLIC	??_R0?AVScriptClass@@@8				; ScriptClass `RTTI Type Descriptor'
PUBLIC	??_R3ScriptClass@@8				; ScriptClass::`RTTI Class Hierarchy Descriptor'
PUBLIC	??_R2ScriptClass@@8				; ScriptClass::`RTTI Base Class Array'
PUBLIC	??_R1A@?0A@EA@ScriptClass@@8			; ScriptClass::`RTTI Base Class Descriptor at (0,-1,0,64)'
PUBLIC	??_R1A@?0A@EA@GameObjObserverClass@@8		; GameObjObserverClass::`RTTI Base Class Descriptor at (0,-1,0,64)'
PUBLIC	??_R0?AVGameObjObserverClass@@@8		; GameObjObserverClass `RTTI Type Descriptor'
PUBLIC	??_R3GameObjObserverClass@@8			; GameObjObserverClass::`RTTI Class Hierarchy Descriptor'
PUBLIC	??_R2GameObjObserverClass@@8			; GameObjObserverClass::`RTTI Base Class Array'
PUBLIC	??_R4GameObjObserverClass@@6B@			; GameObjObserverClass::`RTTI Complete Object Locator'
PUBLIC	??_R4ScriptImpClass@@6B@			; ScriptImpClass::`RTTI Complete Object Locator'
PUBLIC	??_R0?AVScriptImpClass@@@8			; ScriptImpClass `RTTI Type Descriptor'
PUBLIC	??_R3ScriptImpClass@@8				; ScriptImpClass::`RTTI Class Hierarchy Descriptor'
PUBLIC	??_R2ScriptImpClass@@8				; ScriptImpClass::`RTTI Base Class Array'
PUBLIC	??_R1A@?0A@EA@ScriptImpClass@@8			; ScriptImpClass::`RTTI Base Class Descriptor at (0,-1,0,64)'
PUBLIC	??_R4INIClass@@6B@				; INIClass::`RTTI Complete Object Locator'
PUBLIC	??_R0?AVINIClass@@@8				; INIClass `RTTI Type Descriptor'
PUBLIC	??_R3INIClass@@8				; INIClass::`RTTI Class Hierarchy Descriptor'
PUBLIC	??_R2INIClass@@8				; INIClass::`RTTI Base Class Array'
PUBLIC	??_R1A@?0A@EA@INIClass@@8			; INIClass::`RTTI Base Class Descriptor at (0,-1,0,64)'
PUBLIC	??_R4ReferencerClass@@6B@			; ReferencerClass::`RTTI Complete Object Locator'
PUBLIC	??_R0?AVReferencerClass@@@8			; ReferencerClass `RTTI Type Descriptor'
PUBLIC	??_R3ReferencerClass@@8				; ReferencerClass::`RTTI Class Hierarchy Descriptor'
PUBLIC	??_R2ReferencerClass@@8				; ReferencerClass::`RTTI Base Class Array'
PUBLIC	??_R1A@?0A@EA@ReferencerClass@@8		; ReferencerClass::`RTTI Base Class Descriptor at (0,-1,0,64)'
PUBLIC	__real@00000000
PUBLIC	__real@02081cea
PUBLIC	__real@3f79999a
PUBLIC	__real@3f800000
PUBLIC	__real@3fc90fdb
PUBLIC	__real@40c90fdb
PUBLIC	__real@437f0000
PUBLIC	__real@44000000
PUBLIC	__real@44800000
PUBLIC	__real@bf800000
PUBLIC	__xmm@80000000800000008000000080000000
EXTRN	__purecall:PROC
EXTRN	??3@YAXPAX@Z:PROC				; operator delete
EXTRN	__imp__atof:PROC
EXTRN	__imp__ceil:PROC
EXTRN	__imp__atoi:PROC
EXTRN	??_V@YAXPAX@Z:PROC				; operator delete[]
EXTRN	__imp__GetCurrentThreadId@0:PROC
EXTRN	__imp_?Free_String@StringClass@@AAEXXZ:PROC
EXTRN	??1ThreadClass@@UAE@XZ:PROC			; ThreadClass::~ThreadClass
EXTRN	?Random_Float@WWMath@@SAMXZ:PROC		; WWMath::Random_Float
EXTRN	??1ScriptImpClass@@UAE@XZ:PROC			; ScriptImpClass::~ScriptImpClass
EXTRN	?Get_Name@ScriptImpClass@@UAEPBDXZ:PROC		; ScriptImpClass::Get_Name
EXTRN	?Set_Parameters_String@ScriptImpClass@@UAEXPBD@Z:PROC ; ScriptImpClass::Set_Parameters_String
EXTRN	?Get_Parameters_String@ScriptImpClass@@UAEXPADI@Z:PROC ; ScriptImpClass::Get_Parameters_String
EXTRN	?Get_Parameter@ScriptImpClass@@QAEPBDH@Z:PROC	; ScriptImpClass::Get_Parameter
EXTRN	?Get_Int_Parameter@ScriptImpClass@@QAEHPBD@Z:PROC ; ScriptImpClass::Get_Int_Parameter
EXTRN	?Attach@ScriptImpClass@@MAEXPAVScriptableGameObj@@@Z:PROC ; ScriptImpClass::Attach
EXTRN	?Detach@ScriptImpClass@@MAEXPAVScriptableGameObj@@@Z:PROC ; ScriptImpClass::Detach
EXTRN	?Save@ScriptImpClass@@MAEXAAVScriptSaver@@@Z:PROC ; ScriptImpClass::Save
EXTRN	?Load@ScriptImpClass@@MAEXAAVScriptLoader@@@Z:PROC ; ScriptImpClass::Load
EXTRN	??1ScriptFactory@@UAE@XZ:PROC			; ScriptFactory::~ScriptFactory
EXTRN	?Find_Entry@INIClass@@QBEPAUINIEntry@@PBD0@Z:PROC ; INIClass::Find_Entry
EXTRN	?Find_Section@INIClass@@QBEPAUINISection@@PBD@Z:PROC ; INIClass::Find_Section
EXTRN	??1INIClass@@UAE@XZ:PROC			; INIClass::~INIClass
EXTRN	??1ReferencerClass@@UAE@XZ:PROC			; ReferencerClass::~ReferencerClass
EXTRN	?On_Post_Load@ReferencerClass@@UAEXXZ:PROC	; ReferencerClass::On_Post_Load
EXTRN	??4ReferencerClass@@QAEAAV0@PAVScriptableGameObj@@@Z:PROC ; ReferencerClass::operator=
EXTRN	?Set@Matrix3D@@QAEXABVMatrix3@@ABVVector3@@@Z:PROC ; Matrix3D::Set
EXTRN	?Set@Matrix3D@@QAEXABVQuaternion@@ABVVector3@@@Z:PROC ; Matrix3D::Set
EXTRN	?Set@LineSegClass@@QAEXABV1@ABVMatrix3D@@@Z:PROC ; LineSegClass::Set
EXTRN	__imp_?Find_Definition@DefinitionMgrClass@@SAPAVDefinitionClass@@I_N@Z:PROC
EXTRN	__imp_?Find_Named_Definition@DefinitionMgrClass@@SAPAVDefinitionClass@@PBD_N@Z:PROC
EXTRN	__CIatan2:PROC
EXTRN	__libm_sse2_acos_precise:PROC
EXTRN	__libm_sse2_asin_precise:PROC
EXTRN	__libm_sse2_atan_precise:PROC
EXTRN	__libm_sse2_cos_precise:PROC
EXTRN	__libm_sse2_sin_precise:PROC
EXTRN	__libm_sse2_sqrt_precise:PROC
EXTRN	_floor:PROC
EXTRN	??_7type_info@@6B@:QWORD			; type_info::`vftable'
EXTRN	?_FastAcosTable@@3AAV?$RefArrayHelper@M$0EAA@@@A:DWORD ; _FastAcosTable
EXTRN	?_FastAsinTable@@3AAV?$RefArrayHelper@M$0EAA@@@A:DWORD ; _FastAsinTable
EXTRN	?_FastSinTable@@3AAV?$RefArrayHelper@M$0EAA@@@A:DWORD ; _FastSinTable
EXTRN	__fltused:DWORD
;	COMDAT __xmm@80000000800000008000000080000000
CONST	SEGMENT
__xmm@80000000800000008000000080000000 DB 00H, 00H, 00H, 080H, 00H, 00H, 00H
	DB	080H, 00H, 00H, 00H, 080H, 00H, 00H, 00H, 080H
CONST	ENDS
;	COMDAT __real@bf800000
CONST	SEGMENT
__real@bf800000 DD 0bf800000r			; -1
CONST	ENDS
;	COMDAT __real@44800000
CONST	SEGMENT
__real@44800000 DD 044800000r			; 1024
CONST	ENDS
;	COMDAT __real@44000000
CONST	SEGMENT
__real@44000000 DD 044000000r			; 512
CONST	ENDS
;	COMDAT __real@437f0000
CONST	SEGMENT
__real@437f0000 DD 0437f0000r			; 255
CONST	ENDS
;	COMDAT __real@40c90fdb
CONST	SEGMENT
__real@40c90fdb DD 040c90fdbr			; 6.28319
CONST	ENDS
;	COMDAT __real@3fc90fdb
CONST	SEGMENT
__real@3fc90fdb DD 03fc90fdbr			; 1.5708
CONST	ENDS
;	COMDAT __real@3f800000
CONST	SEGMENT
__real@3f800000 DD 03f800000r			; 1
CONST	ENDS
;	COMDAT __real@3f79999a
CONST	SEGMENT
__real@3f79999a DD 03f79999ar			; 0.975
CONST	ENDS
;	COMDAT __real@02081cea
CONST	SEGMENT
__real@02081cea DD 002081cear			; 1e-037
CONST	ENDS
;	COMDAT __real@00000000
CONST	SEGMENT
__real@00000000 DD 000000000r			; 0
CONST	ENDS
;	COMDAT ??_R1A@?0A@EA@ReferencerClass@@8
rdata$r	SEGMENT
??_R1A@?0A@EA@ReferencerClass@@8 DD FLAT:??_R0?AVReferencerClass@@@8 ; ReferencerClass::`RTTI Base Class Descriptor at (0,-1,0,64)'
	DD	01H
	DD	00H
	DD	0ffffffffH
	DD	00H
	DD	040H
	DD	FLAT:??_R3ReferencerClass@@8
rdata$r	ENDS
;	COMDAT ??_R2ReferencerClass@@8
rdata$r	SEGMENT
??_R2ReferencerClass@@8 DD FLAT:??_R1A@?0A@EA@ReferencerClass@@8 ; ReferencerClass::`RTTI Base Class Array'
	DD	FLAT:??_R1A@?0A@EA@PostLoadableClass@@8
rdata$r	ENDS
;	COMDAT ??_R3ReferencerClass@@8
rdata$r	SEGMENT
??_R3ReferencerClass@@8 DD 00H				; ReferencerClass::`RTTI Class Hierarchy Descriptor'
	DD	00H
	DD	02H
	DD	FLAT:??_R2ReferencerClass@@8
rdata$r	ENDS
;	COMDAT ??_R0?AVReferencerClass@@@8
_DATA	SEGMENT
??_R0?AVReferencerClass@@@8 DD FLAT:??_7type_info@@6B@	; ReferencerClass `RTTI Type Descriptor'
	DD	00H
	DB	'.?AVReferencerClass@@', 00H
_DATA	ENDS
;	COMDAT ??_R4ReferencerClass@@6B@
rdata$r	SEGMENT
??_R4ReferencerClass@@6B@ DD 00H			; ReferencerClass::`RTTI Complete Object Locator'
	DD	00H
	DD	00H
	DD	FLAT:??_R0?AVReferencerClass@@@8
	DD	FLAT:??_R3ReferencerClass@@8
rdata$r	ENDS
;	COMDAT ??_R1A@?0A@EA@INIClass@@8
rdata$r	SEGMENT
??_R1A@?0A@EA@INIClass@@8 DD FLAT:??_R0?AVINIClass@@@8	; INIClass::`RTTI Base Class Descriptor at (0,-1,0,64)'
	DD	00H
	DD	00H
	DD	0ffffffffH
	DD	00H
	DD	040H
	DD	FLAT:??_R3INIClass@@8
rdata$r	ENDS
;	COMDAT ??_R2INIClass@@8
rdata$r	SEGMENT
??_R2INIClass@@8 DD FLAT:??_R1A@?0A@EA@INIClass@@8	; INIClass::`RTTI Base Class Array'
rdata$r	ENDS
;	COMDAT ??_R3INIClass@@8
rdata$r	SEGMENT
??_R3INIClass@@8 DD 00H					; INIClass::`RTTI Class Hierarchy Descriptor'
	DD	00H
	DD	01H
	DD	FLAT:??_R2INIClass@@8
rdata$r	ENDS
;	COMDAT ??_R0?AVINIClass@@@8
_DATA	SEGMENT
??_R0?AVINIClass@@@8 DD FLAT:??_7type_info@@6B@		; INIClass `RTTI Type Descriptor'
	DD	00H
	DB	'.?AVINIClass@@', 00H
_DATA	ENDS
;	COMDAT ??_R4INIClass@@6B@
rdata$r	SEGMENT
??_R4INIClass@@6B@ DD 00H				; INIClass::`RTTI Complete Object Locator'
	DD	00H
	DD	00H
	DD	FLAT:??_R0?AVINIClass@@@8
	DD	FLAT:??_R3INIClass@@8
rdata$r	ENDS
;	COMDAT ??_R1A@?0A@EA@ScriptImpClass@@8
rdata$r	SEGMENT
??_R1A@?0A@EA@ScriptImpClass@@8 DD FLAT:??_R0?AVScriptImpClass@@@8 ; ScriptImpClass::`RTTI Base Class Descriptor at (0,-1,0,64)'
	DD	02H
	DD	00H
	DD	0ffffffffH
	DD	00H
	DD	040H
	DD	FLAT:??_R3ScriptImpClass@@8
rdata$r	ENDS
;	COMDAT ??_R2ScriptImpClass@@8
rdata$r	SEGMENT
??_R2ScriptImpClass@@8 DD FLAT:??_R1A@?0A@EA@ScriptImpClass@@8 ; ScriptImpClass::`RTTI Base Class Array'
	DD	FLAT:??_R1A@?0A@EA@ScriptClass@@8
	DD	FLAT:??_R1A@?0A@EA@GameObjObserverClass@@8
rdata$r	ENDS
;	COMDAT ??_R3ScriptImpClass@@8
rdata$r	SEGMENT
??_R3ScriptImpClass@@8 DD 00H				; ScriptImpClass::`RTTI Class Hierarchy Descriptor'
	DD	00H
	DD	03H
	DD	FLAT:??_R2ScriptImpClass@@8
rdata$r	ENDS
;	COMDAT ??_R0?AVScriptImpClass@@@8
_DATA	SEGMENT
??_R0?AVScriptImpClass@@@8 DD FLAT:??_7type_info@@6B@	; ScriptImpClass `RTTI Type Descriptor'
	DD	00H
	DB	'.?AVScriptImpClass@@', 00H
_DATA	ENDS
;	COMDAT ??_R4ScriptImpClass@@6B@
rdata$r	SEGMENT
??_R4ScriptImpClass@@6B@ DD 00H				; ScriptImpClass::`RTTI Complete Object Locator'
	DD	00H
	DD	00H
	DD	FLAT:??_R0?AVScriptImpClass@@@8
	DD	FLAT:??_R3ScriptImpClass@@8
rdata$r	ENDS
;	COMDAT ??_R4GameObjObserverClass@@6B@
rdata$r	SEGMENT
??_R4GameObjObserverClass@@6B@ DD 00H			; GameObjObserverClass::`RTTI Complete Object Locator'
	DD	00H
	DD	00H
	DD	FLAT:??_R0?AVGameObjObserverClass@@@8
	DD	FLAT:??_R3GameObjObserverClass@@8
rdata$r	ENDS
;	COMDAT ??_R2GameObjObserverClass@@8
rdata$r	SEGMENT
??_R2GameObjObserverClass@@8 DD FLAT:??_R1A@?0A@EA@GameObjObserverClass@@8 ; GameObjObserverClass::`RTTI Base Class Array'
rdata$r	ENDS
;	COMDAT ??_R3GameObjObserverClass@@8
rdata$r	SEGMENT
??_R3GameObjObserverClass@@8 DD 00H			; GameObjObserverClass::`RTTI Class Hierarchy Descriptor'
	DD	00H
	DD	01H
	DD	FLAT:??_R2GameObjObserverClass@@8
rdata$r	ENDS
;	COMDAT ??_R0?AVGameObjObserverClass@@@8
_DATA	SEGMENT
??_R0?AVGameObjObserverClass@@@8 DD FLAT:??_7type_info@@6B@ ; GameObjObserverClass `RTTI Type Descriptor'
	DD	00H
	DB	'.?AVGameObjObserverClass@@', 00H
_DATA	ENDS
;	COMDAT ??_R1A@?0A@EA@GameObjObserverClass@@8
rdata$r	SEGMENT
??_R1A@?0A@EA@GameObjObserverClass@@8 DD FLAT:??_R0?AVGameObjObserverClass@@@8 ; GameObjObserverClass::`RTTI Base Class Descriptor at (0,-1,0,64)'
	DD	00H
	DD	00H
	DD	0ffffffffH
	DD	00H
	DD	040H
	DD	FLAT:??_R3GameObjObserverClass@@8
rdata$r	ENDS
;	COMDAT ??_R1A@?0A@EA@ScriptClass@@8
rdata$r	SEGMENT
??_R1A@?0A@EA@ScriptClass@@8 DD FLAT:??_R0?AVScriptClass@@@8 ; ScriptClass::`RTTI Base Class Descriptor at (0,-1,0,64)'
	DD	01H
	DD	00H
	DD	0ffffffffH
	DD	00H
	DD	040H
	DD	FLAT:??_R3ScriptClass@@8
rdata$r	ENDS
;	COMDAT ??_R2ScriptClass@@8
rdata$r	SEGMENT
??_R2ScriptClass@@8 DD FLAT:??_R1A@?0A@EA@ScriptClass@@8 ; ScriptClass::`RTTI Base Class Array'
	DD	FLAT:??_R1A@?0A@EA@GameObjObserverClass@@8
rdata$r	ENDS
;	COMDAT ??_R3ScriptClass@@8
rdata$r	SEGMENT
??_R3ScriptClass@@8 DD 00H				; ScriptClass::`RTTI Class Hierarchy Descriptor'
	DD	00H
	DD	02H
	DD	FLAT:??_R2ScriptClass@@8
rdata$r	ENDS
;	COMDAT ??_R0?AVScriptClass@@@8
_DATA	SEGMENT
??_R0?AVScriptClass@@@8 DD FLAT:??_7type_info@@6B@	; ScriptClass `RTTI Type Descriptor'
	DD	00H
	DB	'.?AVScriptClass@@', 00H
_DATA	ENDS
;	COMDAT ??_R4ScriptClass@@6B@
rdata$r	SEGMENT
??_R4ScriptClass@@6B@ DD 00H				; ScriptClass::`RTTI Complete Object Locator'
	DD	00H
	DD	00H
	DD	FLAT:??_R0?AVScriptClass@@@8
	DD	FLAT:??_R3ScriptClass@@8
rdata$r	ENDS
;	COMDAT ??_R1A@?0A@EA@ScriptFactory@@8
rdata$r	SEGMENT
??_R1A@?0A@EA@ScriptFactory@@8 DD FLAT:??_R0?AVScriptFactory@@@8 ; ScriptFactory::`RTTI Base Class Descriptor at (0,-1,0,64)'
	DD	00H
	DD	00H
	DD	0ffffffffH
	DD	00H
	DD	040H
	DD	FLAT:??_R3ScriptFactory@@8
rdata$r	ENDS
;	COMDAT ??_R2ScriptFactory@@8
rdata$r	SEGMENT
??_R2ScriptFactory@@8 DD FLAT:??_R1A@?0A@EA@ScriptFactory@@8 ; ScriptFactory::`RTTI Base Class Array'
rdata$r	ENDS
;	COMDAT ??_R3ScriptFactory@@8
rdata$r	SEGMENT
??_R3ScriptFactory@@8 DD 00H				; ScriptFactory::`RTTI Class Hierarchy Descriptor'
	DD	00H
	DD	01H
	DD	FLAT:??_R2ScriptFactory@@8
rdata$r	ENDS
;	COMDAT ??_R0?AVScriptFactory@@@8
_DATA	SEGMENT
??_R0?AVScriptFactory@@@8 DD FLAT:??_7type_info@@6B@	; ScriptFactory `RTTI Type Descriptor'
	DD	00H
	DB	'.?AVScriptFactory@@', 00H
_DATA	ENDS
;	COMDAT ??_R4ScriptFactory@@6B@
rdata$r	SEGMENT
??_R4ScriptFactory@@6B@ DD 00H				; ScriptFactory::`RTTI Complete Object Locator'
	DD	00H
	DD	00H
	DD	FLAT:??_R0?AVScriptFactory@@@8
	DD	FLAT:??_R3ScriptFactory@@8
rdata$r	ENDS
;	COMDAT ??_R1A@?0A@EA@ThreadClass@@8
rdata$r	SEGMENT
??_R1A@?0A@EA@ThreadClass@@8 DD FLAT:??_R0?AVThreadClass@@@8 ; ThreadClass::`RTTI Base Class Descriptor at (0,-1,0,64)'
	DD	00H
	DD	00H
	DD	0ffffffffH
	DD	00H
	DD	040H
	DD	FLAT:??_R3ThreadClass@@8
rdata$r	ENDS
;	COMDAT ??_R2ThreadClass@@8
rdata$r	SEGMENT
??_R2ThreadClass@@8 DD FLAT:??_R1A@?0A@EA@ThreadClass@@8 ; ThreadClass::`RTTI Base Class Array'
rdata$r	ENDS
;	COMDAT ??_R3ThreadClass@@8
rdata$r	SEGMENT
??_R3ThreadClass@@8 DD 00H				; ThreadClass::`RTTI Class Hierarchy Descriptor'
	DD	00H
	DD	01H
	DD	FLAT:??_R2ThreadClass@@8
rdata$r	ENDS
;	COMDAT ??_R0?AVThreadClass@@@8
_DATA	SEGMENT
??_R0?AVThreadClass@@@8 DD FLAT:??_7type_info@@6B@	; ThreadClass `RTTI Type Descriptor'
	DD	00H
	DB	'.?AVThreadClass@@', 00H
_DATA	ENDS
;	COMDAT ??_R4ThreadClass@@6B@
rdata$r	SEGMENT
??_R4ThreadClass@@6B@ DD 00H				; ThreadClass::`RTTI Complete Object Locator'
	DD	00H
	DD	00H
	DD	FLAT:??_R0?AVThreadClass@@@8
	DD	FLAT:??_R3ThreadClass@@8
rdata$r	ENDS
;	COMDAT ??_R1A@?0A@EA@PostLoadableClass@@8
rdata$r	SEGMENT
??_R1A@?0A@EA@PostLoadableClass@@8 DD FLAT:??_R0?AVPostLoadableClass@@@8 ; PostLoadableClass::`RTTI Base Class Descriptor at (0,-1,0,64)'
	DD	00H
	DD	00H
	DD	0ffffffffH
	DD	00H
	DD	040H
	DD	FLAT:??_R3PostLoadableClass@@8
rdata$r	ENDS
;	COMDAT ??_R2PostLoadableClass@@8
rdata$r	SEGMENT
??_R2PostLoadableClass@@8 DD FLAT:??_R1A@?0A@EA@PostLoadableClass@@8 ; PostLoadableClass::`RTTI Base Class Array'
rdata$r	ENDS
;	COMDAT ??_R3PostLoadableClass@@8
rdata$r	SEGMENT
??_R3PostLoadableClass@@8 DD 00H			; PostLoadableClass::`RTTI Class Hierarchy Descriptor'
	DD	00H
	DD	01H
	DD	FLAT:??_R2PostLoadableClass@@8
rdata$r	ENDS
;	COMDAT ??_R0?AVPostLoadableClass@@@8
_DATA	SEGMENT
??_R0?AVPostLoadableClass@@@8 DD FLAT:??_7type_info@@6B@ ; PostLoadableClass `RTTI Type Descriptor'
	DD	00H
	DB	'.?AVPostLoadableClass@@', 00H
_DATA	ENDS
;	COMDAT ??_R4PostLoadableClass@@6B@
rdata$r	SEGMENT
??_R4PostLoadableClass@@6B@ DD 00H			; PostLoadableClass::`RTTI Complete Object Locator'
	DD	00H
	DD	00H
	DD	FLAT:??_R0?AVPostLoadableClass@@@8
	DD	FLAT:??_R3PostLoadableClass@@8
rdata$r	ENDS
;	COMDAT ??_C@_04CGFJFPFD@none?$AA@
CONST	SEGMENT
??_C@_04CGFJFPFD@none?$AA@ DB 'none', 00H		; `string'
CONST	ENDS
;	COMDAT ??_7ReferencerClass@@6B@
CONST	SEGMENT
??_7ReferencerClass@@6B@ DD FLAT:??_R4ReferencerClass@@6B@ ; ReferencerClass::`vftable'
	DD	FLAT:??_EReferencerClass@@UAEPAXI@Z
	DD	FLAT:?On_Post_Load@ReferencerClass@@UAEXXZ
CONST	ENDS
;	COMDAT ??_7INIClass@@6B@
CONST	SEGMENT
??_7INIClass@@6B@ DD FLAT:??_R4INIClass@@6B@		; INIClass::`vftable'
	DD	FLAT:??_EINIClass@@UAEPAXI@Z
CONST	ENDS
;	COMDAT ??_7ScriptFactory@@6B@
CONST	SEGMENT
??_7ScriptFactory@@6B@ DD FLAT:??_R4ScriptFactory@@6B@	; ScriptFactory::`vftable'
	DD	FLAT:??_EScriptFactory@@UAEPAXI@Z
	DD	FLAT:__purecall
CONST	ENDS
;	COMDAT ??_7ScriptImpClass@@6B@
CONST	SEGMENT
??_7ScriptImpClass@@6B@ DD FLAT:??_R4ScriptImpClass@@6B@ ; ScriptImpClass::`vftable'
	DD	FLAT:??_EScriptImpClass@@UAEPAXI@Z
	DD	FLAT:?Get_Name@ScriptImpClass@@UAEPBDXZ
	DD	FLAT:?Attach@ScriptImpClass@@MAEXPAVScriptableGameObj@@@Z
	DD	FLAT:?Detach@ScriptImpClass@@MAEXPAVScriptableGameObj@@@Z
	DD	FLAT:?Created@ScriptImpClass@@UAEXPAVScriptableGameObj@@@Z
	DD	FLAT:?Destroyed@ScriptImpClass@@UAEXPAVScriptableGameObj@@@Z
	DD	FLAT:?Killed@ScriptImpClass@@UAEXPAVScriptableGameObj@@0@Z
	DD	FLAT:?Damaged@ScriptImpClass@@UAEXPAVScriptableGameObj@@0M@Z
	DD	FLAT:?Custom@ScriptImpClass@@UAEXPAVScriptableGameObj@@HH0@Z
	DD	FLAT:?Sound_Heard@ScriptImpClass@@UAEXPAVScriptableGameObj@@ABUCombatSound@@@Z
	DD	FLAT:?Enemy_Seen@ScriptImpClass@@UAEXPAVScriptableGameObj@@0@Z
	DD	FLAT:?Action_Complete@ScriptImpClass@@UAEXPAVScriptableGameObj@@HW4ActionCompleteReason@@@Z
	DD	FLAT:?Timer_Expired@ScriptImpClass@@UAEXPAVScriptableGameObj@@H@Z
	DD	FLAT:?Animation_Complete@ScriptImpClass@@UAEXPAVScriptableGameObj@@PBD@Z
	DD	FLAT:?Poked@ScriptImpClass@@UAEXPAVScriptableGameObj@@0@Z
	DD	FLAT:?Entered@ScriptImpClass@@UAEXPAVScriptableGameObj@@0@Z
	DD	FLAT:?Exited@ScriptImpClass@@UAEXPAVScriptableGameObj@@0@Z
	DD	FLAT:?Owner@ScriptImpClass@@UAEPAVScriptableGameObj@@XZ
	DD	FLAT:?Get_Owner_Ptr@ScriptImpClass@@UAEPAPAVScriptableGameObj@@XZ
	DD	FLAT:?Set_Parameters_String@ScriptImpClass@@UAEXPBD@Z
	DD	FLAT:?Get_Parameters_String@ScriptImpClass@@UAEXPADI@Z
	DD	FLAT:?Save@ScriptImpClass@@MAEXAAVScriptSaver@@@Z
	DD	FLAT:?Load@ScriptImpClass@@MAEXAAVScriptLoader@@@Z
	DD	FLAT:?Save_Data@ScriptImpClass@@UAEXAAVScriptSaver@@@Z
	DD	FLAT:?Load_Data@ScriptImpClass@@UAEXAAVScriptLoader@@@Z
	DD	FLAT:?Register_Auto_Save_Variables@ScriptImpClass@@UAEXXZ
CONST	ENDS
;	COMDAT ??_7ScriptClass@@6B@
CONST	SEGMENT
??_7ScriptClass@@6B@ DD FLAT:??_R4ScriptClass@@6B@	; ScriptClass::`vftable'
	DD	FLAT:??_EScriptClass@@UAEPAXI@Z
	DD	FLAT:__purecall
	DD	FLAT:__purecall
	DD	FLAT:__purecall
	DD	FLAT:__purecall
	DD	FLAT:__purecall
	DD	FLAT:__purecall
	DD	FLAT:__purecall
	DD	FLAT:__purecall
	DD	FLAT:__purecall
	DD	FLAT:__purecall
	DD	FLAT:__purecall
	DD	FLAT:__purecall
	DD	FLAT:__purecall
	DD	FLAT:__purecall
	DD	FLAT:__purecall
	DD	FLAT:__purecall
	DD	FLAT:?Owner@GameObjObserverClass@@UAEPAVScriptableGameObj@@XZ
	DD	FLAT:__purecall
	DD	FLAT:__purecall
	DD	FLAT:__purecall
	DD	FLAT:__purecall
	DD	FLAT:__purecall
CONST	ENDS
;	COMDAT ??_7GameObjObserverClass@@6B@
CONST	SEGMENT
??_7GameObjObserverClass@@6B@ DD FLAT:??_R4GameObjObserverClass@@6B@ ; GameObjObserverClass::`vftable'
	DD	FLAT:??_EGameObjObserverClass@@UAEPAXI@Z
	DD	FLAT:__purecall
	DD	FLAT:__purecall
	DD	FLAT:__purecall
	DD	FLAT:__purecall
	DD	FLAT:__purecall
	DD	FLAT:__purecall
	DD	FLAT:__purecall
	DD	FLAT:__purecall
	DD	FLAT:__purecall
	DD	FLAT:__purecall
	DD	FLAT:__purecall
	DD	FLAT:__purecall
	DD	FLAT:__purecall
	DD	FLAT:__purecall
	DD	FLAT:__purecall
	DD	FLAT:__purecall
	DD	FLAT:?Owner@GameObjObserverClass@@UAEPAVScriptableGameObj@@XZ
CONST	ENDS
;	COMDAT ??_7ThreadClass@@6B@
CONST	SEGMENT
??_7ThreadClass@@6B@ DD FLAT:??_R4ThreadClass@@6B@	; ThreadClass::`vftable'
	DD	FLAT:??_EThreadClass@@UAEPAXI@Z
	DD	FLAT:__purecall
CONST	ENDS
;	COMDAT ??_7PostLoadableClass@@6B@
CONST	SEGMENT
??_7PostLoadableClass@@6B@ DD FLAT:??_R4PostLoadableClass@@6B@ ; PostLoadableClass::`vftable'
	DD	FLAT:??_EPostLoadableClass@@UAEPAXI@Z
	DD	FLAT:?On_Post_Load@PostLoadableClass@@UAEXXZ
CONST	ENDS
; Function compile flags: /Odtp /ZI
; File x:\github\renegade\dragonade_rxd\scripts\engine_def.cpp
;	COMDAT ?Is_Valid_Preset@@YA_NPBD@Z
_TEXT	SEGMENT
_Preset$ = 8						; size = 4
?Is_Valid_Preset@@YA_NPBD@Z PROC			; Is_Valid_Preset, COMDAT

; 99   : {

	push	ebp
	mov	ebp, esp
	sub	esp, 64					; 00000040H
	push	ebx
	push	esi
	push	edi

; 100  : 	if (Find_Named_Definition(Preset))

	mov	eax, DWORD PTR _Preset$[ebp]
	push	eax
	call	?Find_Named_Definition@@YAPAVDefinitionClass@@PBD@Z ; Find_Named_Definition
	add	esp, 4
	test	eax, eax
	je	SHORT $LN1@Is_Valid_P

; 101  : 	{
; 102  : 		return true;

	mov	al, 1
	jmp	SHORT $LN2@Is_Valid_P
$LN1@Is_Valid_P:

; 103  : 	}
; 104  : 	return false;

	xor	al, al
$LN2@Is_Valid_P:

; 105  : }

	pop	edi
	pop	esi
	pop	ebx
	mov	esp, ebp
	pop	ebp
	ret	0
?Is_Valid_Preset@@YA_NPBD@Z ENDP			; Is_Valid_Preset
_TEXT	ENDS
; Function compile flags: /Odtp /ZI
; File x:\github\renegade\dragonade_rxd\scripts\engine_def.cpp
;	COMDAT ?Is_Valid_Preset_ID@@YA_NK@Z
_TEXT	SEGMENT
_ID$ = 8						; size = 4
?Is_Valid_Preset_ID@@YA_NK@Z PROC			; Is_Valid_Preset_ID, COMDAT

; 90   : {

	push	ebp
	mov	ebp, esp
	sub	esp, 64					; 00000040H
	push	ebx
	push	esi
	push	edi

; 91   : 	if (Find_Definition(ID))

	mov	eax, DWORD PTR _ID$[ebp]
	push	eax
	call	?Find_Definition@@YAPAVDefinitionClass@@K@Z ; Find_Definition
	add	esp, 4
	test	eax, eax
	je	SHORT $LN1@Is_Valid_P

; 92   : 	{
; 93   : 		return true;

	mov	al, 1
	jmp	SHORT $LN2@Is_Valid_P
$LN1@Is_Valid_P:

; 94   : 	}
; 95   : 	return false;

	xor	al, al
$LN2@Is_Valid_P:

; 96   : }

	pop	edi
	pop	esi
	pop	ebx
	mov	esp, ebp
	pop	ebp
	ret	0
?Is_Valid_Preset_ID@@YA_NK@Z ENDP			; Is_Valid_Preset_ID
_TEXT	ENDS
; Function compile flags: /Odtp /ZI
; File x:\github\renegade\dragonade_rxd\scripts\engine_def.cpp
;	COMDAT ?Get_Definition_Class_ID@@YAKPBD@Z
_TEXT	SEGMENT
_d$ = -4						; size = 4
_name$ = 8						; size = 4
?Get_Definition_Class_ID@@YAKPBD@Z PROC			; Get_Definition_Class_ID, COMDAT

; 76   : {

	push	ebp
	mov	ebp, esp
	sub	esp, 68					; 00000044H
	push	ebx
	push	esi
	push	edi

; 77   : 	if (!name)

	cmp	DWORD PTR _name$[ebp], 0
	jne	SHORT $LN2@Get_Defini

; 78   : 	{
; 79   : 		return 0;

	xor	eax, eax
	jmp	SHORT $LN3@Get_Defini
$LN2@Get_Defini:

; 80   : 	}
; 81   : 	DefinitionClass *d = Find_Named_Definition(name);

	mov	eax, DWORD PTR _name$[ebp]
	push	eax
	call	?Find_Named_Definition@@YAPAVDefinitionClass@@PBD@Z ; Find_Named_Definition
	add	esp, 4
	mov	DWORD PTR _d$[ebp], eax

; 82   : 	if (!d)

	cmp	DWORD PTR _d$[ebp], 0
	jne	SHORT $LN1@Get_Defini

; 83   : 	{
; 84   : 		return 0;

	xor	eax, eax
	jmp	SHORT $LN3@Get_Defini
$LN1@Get_Defini:

; 85   : 	}
; 86   : 	return d->Get_Class_ID();

	mov	eax, DWORD PTR _d$[ebp]
	mov	edx, DWORD PTR [eax]
	mov	ecx, DWORD PTR _d$[ebp]
	mov	eax, DWORD PTR [edx+32]
	call	eax
$LN3@Get_Defini:

; 87   : }

	pop	edi
	pop	esi
	pop	ebx
	mov	esp, ebp
	pop	ebp
	ret	0
?Get_Definition_Class_ID@@YAKPBD@Z ENDP			; Get_Definition_Class_ID
_TEXT	ENDS
; Function compile flags: /Odtp /ZI
; File x:\github\renegade\dragonade_rxd\scripts\engine_def.cpp
;	COMDAT ?Get_Phys_Definition@@YAPAVDefinitionClass@@PAVScriptableGameObj@@@Z
_TEXT	SEGMENT
_o$ = -4						; size = 4
_obj$ = 8						; size = 4
?Get_Phys_Definition@@YAPAVDefinitionClass@@PAVScriptableGameObj@@@Z PROC ; Get_Phys_Definition, COMDAT

; 62   : {

	push	ebp
	mov	ebp, esp
	sub	esp, 68					; 00000044H
	push	ebx
	push	esi
	push	edi

; 63   : 	if (!obj)

	cmp	DWORD PTR _obj$[ebp], 0
	jne	SHORT $LN2@Get_Phys_D

; 64   : 	{
; 65   : 		return 0;

	xor	eax, eax
	jmp	SHORT $LN3@Get_Phys_D
$LN2@Get_Phys_D:

; 66   : 	}
; 67   : 	PhysicalGameObj *o = obj->As_PhysicalGameObj();

	mov	eax, DWORD PTR _obj$[ebp]
	mov	edx, DWORD PTR [eax]
	mov	ecx, DWORD PTR _obj$[ebp]
	mov	eax, DWORD PTR [edx+36]
	call	eax
	mov	DWORD PTR _o$[ebp], eax

; 68   : 	if (!o)

	cmp	DWORD PTR _o$[ebp], 0
	jne	SHORT $LN1@Get_Phys_D

; 69   : 	{
; 70   : 		return 0;

	xor	eax, eax
	jmp	SHORT $LN3@Get_Phys_D
$LN1@Get_Phys_D:

; 71   : 	}
; 72   : 	return (DefinitionClass *)o->Peek_Physical_Object()->Get_Definition();

	mov	ecx, DWORD PTR _o$[ebp]
	call	?Peek_Physical_Object@PhysicalGameObj@@QBEPAVPhysClass@@XZ ; PhysicalGameObj::Peek_Physical_Object
	mov	ecx, eax
	call	?Get_Definition@PhysClass@@QAEPBVPhysDefClass@@XZ ; PhysClass::Get_Definition
$LN3@Get_Phys_D:

; 73   : }

	pop	edi
	pop	esi
	pop	ebx
	mov	esp, ebp
	pop	ebp
	ret	0
?Get_Phys_Definition@@YAPAVDefinitionClass@@PAVScriptableGameObj@@@Z ENDP ; Get_Phys_Definition
_TEXT	ENDS
; Function compile flags: /Odtp /ZI
; File x:\github\renegade\dragonade_rxd\scripts\engine_def.cpp
;	COMDAT ?Get_Definition_ID@@YAHPBD@Z
_TEXT	SEGMENT
_d$ = -4						; size = 4
_name$ = 8						; size = 4
?Get_Definition_ID@@YAHPBD@Z PROC			; Get_Definition_ID, COMDAT

; 48   : {

	push	ebp
	mov	ebp, esp
	sub	esp, 68					; 00000044H
	push	ebx
	push	esi
	push	edi

; 49   : 	if (!name)

	cmp	DWORD PTR _name$[ebp], 0
	jne	SHORT $LN2@Get_Defini

; 50   : 	{
; 51   : 		return 0;

	xor	eax, eax
	jmp	SHORT $LN3@Get_Defini
$LN2@Get_Defini:

; 52   : 	}
; 53   : 	DefinitionClass *d = Find_Named_Definition(name);

	mov	eax, DWORD PTR _name$[ebp]
	push	eax
	call	?Find_Named_Definition@@YAPAVDefinitionClass@@PBD@Z ; Find_Named_Definition
	add	esp, 4
	mov	DWORD PTR _d$[ebp], eax

; 54   : 	if (!d)

	cmp	DWORD PTR _d$[ebp], 0
	jne	SHORT $LN1@Get_Defini

; 55   : 	{
; 56   : 		return 0;

	xor	eax, eax
	jmp	SHORT $LN3@Get_Defini
$LN1@Get_Defini:

; 57   : 	}
; 58   : 	return d->Get_ID();

	mov	eax, DWORD PTR _d$[ebp]
	mov	edx, DWORD PTR [eax]
	mov	ecx, DWORD PTR _d$[ebp]
	mov	eax, DWORD PTR [edx+36]
	call	eax
$LN3@Get_Defini:

; 59   : }

	pop	edi
	pop	esi
	pop	ebx
	mov	esp, ebp
	pop	ebp
	ret	0
?Get_Definition_ID@@YAHPBD@Z ENDP			; Get_Definition_ID
_TEXT	ENDS
; Function compile flags: /Odtp /ZI
; File x:\github\renegade\dragonade_rxd\scripts\engine_def.cpp
;	COMDAT ?Find_Named_Definition@@YAPAVDefinitionClass@@PBD@Z
_TEXT	SEGMENT
_name$ = 8						; size = 4
?Find_Named_Definition@@YAPAVDefinitionClass@@PBD@Z PROC ; Find_Named_Definition, COMDAT

; 43   : {

	push	ebp
	mov	ebp, esp
	sub	esp, 64					; 00000040H
	push	ebx
	push	esi
	push	edi

; 44   : 	return DefinitionMgrClass::Find_Named_Definition(name,1);

	push	1
	mov	eax, DWORD PTR _name$[ebp]
	push	eax
	call	DWORD PTR __imp_?Find_Named_Definition@DefinitionMgrClass@@SAPAVDefinitionClass@@PBD_N@Z
	add	esp, 8

; 45   : }

	pop	edi
	pop	esi
	pop	ebx
	mov	esp, ebp
	pop	ebp
	ret	0
?Find_Named_Definition@@YAPAVDefinitionClass@@PBD@Z ENDP ; Find_Named_Definition
_TEXT	ENDS
; Function compile flags: /Odtp /ZI
; File x:\github\renegade\dragonade_rxd\scripts\engine_def.cpp
;	COMDAT ?Get_Definition_Name@@YAPBDK@Z
_TEXT	SEGMENT
_d$ = -4						; size = 4
_id$ = 8						; size = 4
?Get_Definition_Name@@YAPBDK@Z PROC			; Get_Definition_Name, COMDAT

; 29   : {

	push	ebp
	mov	ebp, esp
	sub	esp, 68					; 00000044H
	push	ebx
	push	esi
	push	edi

; 30   : 	if (!id)

	cmp	DWORD PTR _id$[ebp], 0
	jne	SHORT $LN2@Get_Defini

; 31   : 	{
; 32   : 		return "none";

	mov	eax, OFFSET ??_C@_04CGFJFPFD@none?$AA@
	jmp	SHORT $LN3@Get_Defini
$LN2@Get_Defini:

; 33   : 	}
; 34   : 	DefinitionClass *d = DefinitionMgrClass::Find_Definition(id,1);

	push	1
	mov	eax, DWORD PTR _id$[ebp]
	push	eax
	call	DWORD PTR __imp_?Find_Definition@DefinitionMgrClass@@SAPAVDefinitionClass@@I_N@Z
	add	esp, 8
	mov	DWORD PTR _d$[ebp], eax

; 35   : 	if (!d)

	cmp	DWORD PTR _d$[ebp], 0
	jne	SHORT $LN1@Get_Defini

; 36   : 	{
; 37   : 		return "none";

	mov	eax, OFFSET ??_C@_04CGFJFPFD@none?$AA@
	jmp	SHORT $LN3@Get_Defini
$LN1@Get_Defini:

; 38   : 	}
; 39   : 	return d->Get_Name();

	mov	eax, DWORD PTR _d$[ebp]
	mov	edx, DWORD PTR [eax]
	mov	ecx, DWORD PTR _d$[ebp]
	mov	eax, DWORD PTR [edx+48]
	call	eax
$LN3@Get_Defini:

; 40   : }

	pop	edi
	pop	esi
	pop	ebx
	mov	esp, ebp
	pop	ebp
	ret	0
?Get_Definition_Name@@YAPBDK@Z ENDP			; Get_Definition_Name
_TEXT	ENDS
; Function compile flags: /Odtp /ZI
; File x:\github\renegade\dragonade_rxd\scripts\engine_def.cpp
;	COMDAT ?Find_Definition@@YAPAVDefinitionClass@@K@Z
_TEXT	SEGMENT
_id$ = 8						; size = 4
?Find_Definition@@YAPAVDefinitionClass@@K@Z PROC	; Find_Definition, COMDAT

; 24   : {

	push	ebp
	mov	ebp, esp
	sub	esp, 64					; 00000040H
	push	ebx
	push	esi
	push	edi

; 25   : 	return DefinitionMgrClass::Find_Definition(id,true);

	push	1
	mov	eax, DWORD PTR _id$[ebp]
	push	eax
	call	DWORD PTR __imp_?Find_Definition@DefinitionMgrClass@@SAPAVDefinitionClass@@I_N@Z
	add	esp, 8

; 26   : }

	pop	edi
	pop	esi
	pop	ebx
	mov	esp, ebp
	pop	ebp
	ret	0
?Find_Definition@@YAPAVDefinitionClass@@K@Z ENDP	; Find_Definition
_TEXT	ENDS
; Function compile flags: /Odtp /ZI
; File x:\github\renegade\dragonade_rxd\scripts\physicalgameobj.h
;	COMDAT ?Get_Position@PhysicalGameObj@@QAE?AVVector3@@XZ
_TEXT	SEGMENT
_Return$ = -16						; size = 12
_this$ = -4						; size = 4
___$ReturnUdt$ = 8					; size = 4
?Get_Position@PhysicalGameObj@@QAE?AVVector3@@XZ PROC	; PhysicalGameObj::Get_Position, COMDAT
; _this$ = ecx

; 47   : 	SCRIPTS_API Vector3 Get_Position() { Vector3 Return; Peek_Physical_Object()->Get_Position(&Return); return Return; }

	push	ebp
	mov	ebp, esp
	sub	esp, 80					; 00000050H
	push	ebx
	push	esi
	push	edi
	mov	DWORD PTR _this$[ebp], ecx
	lea	ecx, DWORD PTR _Return$[ebp]
	call	??0Vector3@@QAE@XZ			; Vector3::Vector3
	lea	eax, DWORD PTR _Return$[ebp]
	push	eax
	mov	ecx, DWORD PTR _this$[ebp]
	call	?Peek_Physical_Object@PhysicalGameObj@@QBEPAVPhysClass@@XZ ; PhysicalGameObj::Peek_Physical_Object
	mov	ecx, eax
	call	?Get_Position@PhysClass@@QBEXPAVVector3@@@Z ; PhysClass::Get_Position
	lea	eax, DWORD PTR _Return$[ebp]
	push	eax
	mov	ecx, DWORD PTR ___$ReturnUdt$[ebp]
	call	??0Vector3@@QAE@ABV0@@Z			; Vector3::Vector3
	mov	eax, DWORD PTR ___$ReturnUdt$[ebp]
	pop	edi
	pop	esi
	pop	ebx
	mov	esp, ebp
	pop	ebp
	ret	4
?Get_Position@PhysicalGameObj@@QAE?AVVector3@@XZ ENDP	; PhysicalGameObj::Get_Position
_TEXT	ENDS
; Function compile flags: /Odtp /ZI
; File x:\github\renegade\dragonade_rxd\scripts\physicalgameobj.h
;	COMDAT ?Peek_Physical_Object@PhysicalGameObj@@QBEPAVPhysClass@@XZ
_TEXT	SEGMENT
_this$ = -4						; size = 4
?Peek_Physical_Object@PhysicalGameObj@@QBEPAVPhysClass@@XZ PROC ; PhysicalGameObj::Peek_Physical_Object, COMDAT
; _this$ = ecx

; 40   : 	inline PhysClass *	Peek_Physical_Object( void ) const { return PhysObj; }

	push	ebp
	mov	ebp, esp
	sub	esp, 68					; 00000044H
	push	ebx
	push	esi
	push	edi
	mov	DWORD PTR _this$[ebp], ecx
	mov	eax, DWORD PTR _this$[ebp]
	mov	eax, DWORD PTR [eax+1908]
	pop	edi
	pop	esi
	pop	ebx
	mov	esp, ebp
	pop	ebp
	ret	0
?Peek_Physical_Object@PhysicalGameObj@@QBEPAVPhysClass@@XZ ENDP ; PhysicalGameObj::Peek_Physical_Object
_TEXT	ENDS
; Function compile flags: /Odtp /ZI
; File x:\github\renegade\dragonade_rxd\scripts\physclass.h
;	COMDAT ?Get_Definition@PhysClass@@QAEPBVPhysDefClass@@XZ
_TEXT	SEGMENT
_this$ = -4						; size = 4
?Get_Definition@PhysClass@@QAEPBVPhysDefClass@@XZ PROC	; PhysClass::Get_Definition, COMDAT
; _this$ = ecx

; 148  : 	const PhysDefClass *				Get_Definition(void)										{ return Definition; }

	push	ebp
	mov	ebp, esp
	sub	esp, 68					; 00000044H
	push	ebx
	push	esi
	push	edi
	mov	DWORD PTR _this$[ebp], ecx
	mov	eax, DWORD PTR _this$[ebp]
	mov	eax, DWORD PTR [eax+80]
	pop	edi
	pop	esi
	pop	ebx
	mov	esp, ebp
	pop	ebp
	ret	0
?Get_Definition@PhysClass@@QAEPBVPhysDefClass@@XZ ENDP	; PhysClass::Get_Definition
_TEXT	ENDS
; Function compile flags: /Odtp /ZI
; File x:\github\renegade\dragonade_rxd\scripts\physclass.h
;	COMDAT ?Get_Position@PhysClass@@QBEXPAVVector3@@@Z
_TEXT	SEGMENT
_this$ = -4						; size = 4
_set_pos$ = 8						; size = 4
?Get_Position@PhysClass@@QBEXPAVVector3@@@Z PROC	; PhysClass::Get_Position, COMDAT
; _this$ = ecx

; 73   : 	void								Get_Position(Vector3 * set_pos) const	{ Get_Transform().Get_Translation(set_pos); }

	push	ebp
	mov	ebp, esp
	sub	esp, 68					; 00000044H
	push	ebx
	push	esi
	push	edi
	mov	DWORD PTR _this$[ebp], ecx
	mov	eax, DWORD PTR _set_pos$[ebp]
	push	eax
	mov	ecx, DWORD PTR _this$[ebp]
	mov	edx, DWORD PTR [ecx]
	mov	ecx, DWORD PTR _this$[ebp]
	mov	eax, DWORD PTR [edx+24]
	call	eax
	mov	ecx, eax
	call	?Get_Translation@Matrix3D@@QBEXPAVVector3@@@Z ; Matrix3D::Get_Translation
	pop	edi
	pop	esi
	pop	ebx
	mov	esp, ebp
	pop	ebp
	ret	4
?Get_Position@PhysClass@@QBEXPAVVector3@@@Z ENDP	; PhysClass::Get_Position
_TEXT	ENDS
; Function compile flags: /Odtp /ZI
;	COMDAT ??4LineSegClass@@QAEAAV0@ABV0@@Z
_TEXT	SEGMENT
_this$ = -4						; size = 4
___that$ = 8						; size = 4
??4LineSegClass@@QAEAAV0@ABV0@@Z PROC			; LineSegClass::operator=, COMDAT
; _this$ = ecx
	push	ebp
	mov	ebp, esp
	sub	esp, 68					; 00000044H
	push	ebx
	push	esi
	push	edi
	mov	DWORD PTR _this$[ebp], ecx
	mov	eax, DWORD PTR ___that$[ebp]
	push	eax
	mov	ecx, DWORD PTR _this$[ebp]
	call	??4Vector3@@QAEAAV0@ABV0@@Z		; Vector3::operator=
	mov	eax, DWORD PTR ___that$[ebp]
	add	eax, 12					; 0000000cH
	push	eax
	mov	ecx, DWORD PTR _this$[ebp]
	add	ecx, 12					; 0000000cH
	call	??4Vector3@@QAEAAV0@ABV0@@Z		; Vector3::operator=
	mov	eax, DWORD PTR ___that$[ebp]
	add	eax, 24					; 00000018H
	push	eax
	mov	ecx, DWORD PTR _this$[ebp]
	add	ecx, 24					; 00000018H
	call	??4Vector3@@QAEAAV0@ABV0@@Z		; Vector3::operator=
	mov	eax, DWORD PTR ___that$[ebp]
	add	eax, 36					; 00000024H
	push	eax
	mov	ecx, DWORD PTR _this$[ebp]
	add	ecx, 36					; 00000024H
	call	??4Vector3@@QAEAAV0@ABV0@@Z		; Vector3::operator=
	mov	eax, DWORD PTR _this$[ebp]
	mov	ecx, DWORD PTR ___that$[ebp]
	mov	edx, DWORD PTR [ecx+48]
	mov	DWORD PTR [eax+48], edx
	mov	eax, DWORD PTR _this$[ebp]
	pop	edi
	pop	esi
	pop	ebx
	mov	esp, ebp
	pop	ebp
	ret	4
??4LineSegClass@@QAEAAV0@ABV0@@Z ENDP			; LineSegClass::operator=
_TEXT	ENDS
; Function compile flags: /Odtp /ZI
;	COMDAT ??0LineSegClass@@QAE@ABV0@@Z
_TEXT	SEGMENT
_this$ = -4						; size = 4
___that$ = 8						; size = 4
??0LineSegClass@@QAE@ABV0@@Z PROC			; LineSegClass::LineSegClass, COMDAT
; _this$ = ecx
	push	ebp
	mov	ebp, esp
	sub	esp, 68					; 00000044H
	push	ebx
	push	esi
	push	edi
	mov	DWORD PTR _this$[ebp], ecx
	mov	eax, DWORD PTR ___that$[ebp]
	push	eax
	mov	ecx, DWORD PTR _this$[ebp]
	call	??0Vector3@@QAE@ABV0@@Z			; Vector3::Vector3
	mov	eax, DWORD PTR ___that$[ebp]
	add	eax, 12					; 0000000cH
	push	eax
	mov	ecx, DWORD PTR _this$[ebp]
	add	ecx, 12					; 0000000cH
	call	??0Vector3@@QAE@ABV0@@Z			; Vector3::Vector3
	mov	eax, DWORD PTR ___that$[ebp]
	add	eax, 24					; 00000018H
	push	eax
	mov	ecx, DWORD PTR _this$[ebp]
	add	ecx, 24					; 00000018H
	call	??0Vector3@@QAE@ABV0@@Z			; Vector3::Vector3
	mov	eax, DWORD PTR ___that$[ebp]
	add	eax, 36					; 00000024H
	push	eax
	mov	ecx, DWORD PTR _this$[ebp]
	add	ecx, 36					; 00000024H
	call	??0Vector3@@QAE@ABV0@@Z			; Vector3::Vector3
	mov	eax, DWORD PTR _this$[ebp]
	mov	ecx, DWORD PTR ___that$[ebp]
	mov	edx, DWORD PTR [ecx+48]
	mov	DWORD PTR [eax+48], edx
	mov	eax, DWORD PTR _this$[ebp]
	pop	edi
	pop	esi
	pop	ebx
	mov	esp, ebp
	pop	ebp
	ret	4
??0LineSegClass@@QAE@ABV0@@Z ENDP			; LineSegClass::LineSegClass
_TEXT	ENDS
; Function compile flags: /Odtp /ZI
; File x:\github\renegade\dragonade_rxd\scripts\linesegclass.h
;	COMDAT ?recalculate@LineSegClass@@IAEXXZ
_TEXT	SEGMENT
$T1 = -80						; size = 12
_this$ = -4						; size = 4
?recalculate@LineSegClass@@IAEXXZ PROC			; LineSegClass::recalculate, COMDAT
; _this$ = ecx

; 81   : 	{

	push	ebp
	mov	ebp, esp
	sub	esp, 80					; 00000050H
	push	ebx
	push	esi
	push	edi
	mov	DWORD PTR _this$[ebp], ecx

; 82   : 		DP = P1 - P0;

	mov	eax, DWORD PTR _this$[ebp]
	push	eax
	mov	ecx, DWORD PTR _this$[ebp]
	add	ecx, 12					; 0000000cH
	push	ecx
	lea	edx, DWORD PTR $T1[ebp]
	push	edx
	call	??G@YA?AVVector3@@ABV0@0@Z		; operator-
	add	esp, 12					; 0000000cH
	push	eax
	mov	ecx, DWORD PTR _this$[ebp]
	add	ecx, 24					; 00000018H
	call	??4Vector3@@QAEAAV0@ABV0@@Z		; Vector3::operator=

; 83   : 		Dir = DP;

	mov	eax, DWORD PTR _this$[ebp]
	add	eax, 24					; 00000018H
	push	eax
	mov	ecx, DWORD PTR _this$[ebp]
	add	ecx, 36					; 00000024H
	call	??4Vector3@@QAEAAV0@ABV0@@Z		; Vector3::operator=

; 84   : 		Dir.Normalize();

	mov	ecx, DWORD PTR _this$[ebp]
	add	ecx, 36					; 00000024H
	call	?Normalize@Vector3@@QAEXXZ		; Vector3::Normalize

; 85   : 		Length = DP.Length();

	mov	ecx, DWORD PTR _this$[ebp]
	add	ecx, 24					; 00000018H
	call	?Length@Vector3@@QBEMXZ			; Vector3::Length
	mov	eax, DWORD PTR _this$[ebp]
	fstp	DWORD PTR [eax+48]

; 86   : 	}

	pop	edi
	pop	esi
	pop	ebx
	mov	esp, ebp
	pop	ebp
	ret	0
?recalculate@LineSegClass@@IAEXXZ ENDP			; LineSegClass::recalculate
_TEXT	ENDS
; Function compile flags: /Odtp /ZI
; File x:\github\renegade\dragonade_rxd\scripts\linesegclass.h
;	COMDAT ?Compute_Point@LineSegClass@@QBEXMPAVVector3@@@Z
_TEXT	SEGMENT
$T1 = -80						; size = 12
_this$ = -4						; size = 4
_t$ = 8							; size = 4
_set$ = 12						; size = 4
?Compute_Point@LineSegClass@@QBEXMPAVVector3@@@Z PROC	; LineSegClass::Compute_Point, COMDAT
; _this$ = ecx

; 74   : 	{

	push	ebp
	mov	ebp, esp
	sub	esp, 80					; 00000050H
	push	ebx
	push	esi
	push	edi
	mov	DWORD PTR _this$[ebp], ecx

; 75   : 		Vector3::Add(P0,t*DP,set);

	mov	eax, DWORD PTR _set$[ebp]
	push	eax
	mov	ecx, DWORD PTR _this$[ebp]
	add	ecx, 24					; 00000018H
	push	ecx
	push	ecx
	movss	xmm0, DWORD PTR _t$[ebp]
	movss	DWORD PTR [esp], xmm0
	lea	edx, DWORD PTR $T1[ebp]
	push	edx
	call	??D@YA?AVVector3@@MABV0@@Z		; operator*
	add	esp, 12					; 0000000cH
	push	eax
	mov	eax, DWORD PTR _this$[ebp]
	push	eax
	call	?Add@Vector3@@SAXABV1@0PAV1@@Z		; Vector3::Add
	add	esp, 12					; 0000000cH

; 76   : 	}

	pop	edi
	pop	esi
	pop	ebx
	mov	esp, ebp
	pop	ebp
	ret	8
?Compute_Point@LineSegClass@@QBEXMPAVVector3@@@Z ENDP	; LineSegClass::Compute_Point
_TEXT	ENDS
; Function compile flags: /Odtp /ZI
; File x:\github\renegade\dragonade_rxd\scripts\linesegclass.h
;	COMDAT ?Get_Length@LineSegClass@@QBEMXZ
_TEXT	SEGMENT
_this$ = -4						; size = 4
?Get_Length@LineSegClass@@QBEMXZ PROC			; LineSegClass::Get_Length, COMDAT
; _this$ = ecx

; 70   : 	{

	push	ebp
	mov	ebp, esp
	sub	esp, 68					; 00000044H
	push	ebx
	push	esi
	push	edi
	mov	DWORD PTR _this$[ebp], ecx

; 71   : 		return Length;

	mov	eax, DWORD PTR _this$[ebp]
	fld	DWORD PTR [eax+48]

; 72   : 	}

	pop	edi
	pop	esi
	pop	ebx
	mov	esp, ebp
	pop	ebp
	ret	0
?Get_Length@LineSegClass@@QBEMXZ ENDP			; LineSegClass::Get_Length
_TEXT	ENDS
; Function compile flags: /Odtp /ZI
; File x:\github\renegade\dragonade_rxd\scripts\linesegclass.h
;	COMDAT ?Get_Dir@LineSegClass@@QBEABVVector3@@XZ
_TEXT	SEGMENT
_this$ = -4						; size = 4
?Get_Dir@LineSegClass@@QBEABVVector3@@XZ PROC		; LineSegClass::Get_Dir, COMDAT
; _this$ = ecx

; 66   : 	{

	push	ebp
	mov	ebp, esp
	sub	esp, 68					; 00000044H
	push	ebx
	push	esi
	push	edi
	mov	DWORD PTR _this$[ebp], ecx

; 67   : 		return Dir;

	mov	eax, DWORD PTR _this$[ebp]
	add	eax, 36					; 00000024H

; 68   : 	}

	pop	edi
	pop	esi
	pop	ebx
	mov	esp, ebp
	pop	ebp
	ret	0
?Get_Dir@LineSegClass@@QBEABVVector3@@XZ ENDP		; LineSegClass::Get_Dir
_TEXT	ENDS
; Function compile flags: /Odtp /ZI
; File x:\github\renegade\dragonade_rxd\scripts\linesegclass.h
;	COMDAT ?Get_DP@LineSegClass@@QBEABVVector3@@XZ
_TEXT	SEGMENT
_this$ = -4						; size = 4
?Get_DP@LineSegClass@@QBEABVVector3@@XZ PROC		; LineSegClass::Get_DP, COMDAT
; _this$ = ecx

; 62   : 	{

	push	ebp
	mov	ebp, esp
	sub	esp, 68					; 00000044H
	push	ebx
	push	esi
	push	edi
	mov	DWORD PTR _this$[ebp], ecx

; 63   : 		return DP;

	mov	eax, DWORD PTR _this$[ebp]
	add	eax, 24					; 00000018H

; 64   : 	}

	pop	edi
	pop	esi
	pop	ebx
	mov	esp, ebp
	pop	ebp
	ret	0
?Get_DP@LineSegClass@@QBEABVVector3@@XZ ENDP		; LineSegClass::Get_DP
_TEXT	ENDS
; Function compile flags: /Odtp /ZI
; File x:\github\renegade\dragonade_rxd\scripts\linesegclass.h
;	COMDAT ?Get_P1@LineSegClass@@QBEABVVector3@@XZ
_TEXT	SEGMENT
_this$ = -4						; size = 4
?Get_P1@LineSegClass@@QBEABVVector3@@XZ PROC		; LineSegClass::Get_P1, COMDAT
; _this$ = ecx

; 58   : 	{

	push	ebp
	mov	ebp, esp
	sub	esp, 68					; 00000044H
	push	ebx
	push	esi
	push	edi
	mov	DWORD PTR _this$[ebp], ecx

; 59   : 		return P1;

	mov	eax, DWORD PTR _this$[ebp]
	add	eax, 12					; 0000000cH

; 60   : 	}

	pop	edi
	pop	esi
	pop	ebx
	mov	esp, ebp
	pop	ebp
	ret	0
?Get_P1@LineSegClass@@QBEABVVector3@@XZ ENDP		; LineSegClass::Get_P1
_TEXT	ENDS
; Function compile flags: /Odtp /ZI
; File x:\github\renegade\dragonade_rxd\scripts\linesegclass.h
;	COMDAT ?Get_P0@LineSegClass@@QBEABVVector3@@XZ
_TEXT	SEGMENT
_this$ = -4						; size = 4
?Get_P0@LineSegClass@@QBEABVVector3@@XZ PROC		; LineSegClass::Get_P0, COMDAT
; _this$ = ecx

; 54   : 	{

	push	ebp
	mov	ebp, esp
	sub	esp, 68					; 00000044H
	push	ebx
	push	esi
	push	edi
	mov	DWORD PTR _this$[ebp], ecx

; 55   : 		return P0;

	mov	eax, DWORD PTR _this$[ebp]

; 56   : 	}

	pop	edi
	pop	esi
	pop	ebx
	mov	esp, ebp
	pop	ebp
	ret	0
?Get_P0@LineSegClass@@QBEABVVector3@@XZ ENDP		; LineSegClass::Get_P0
_TEXT	ENDS
; Function compile flags: /Odtp /ZI
; File x:\github\renegade\dragonade_rxd\scripts\linesegclass.h
;	COMDAT ?Set@LineSegClass@@QAEXABVVector3@@0M@Z
_TEXT	SEGMENT
$T1 = -92						; size = 12
$T2 = -80						; size = 12
_this$ = -4						; size = 4
_p0$ = 8						; size = 4
_dir$ = 12						; size = 4
_l$ = 16						; size = 4
?Set@LineSegClass@@QAEXABVVector3@@0M@Z PROC		; LineSegClass::Set, COMDAT
; _this$ = ecx

; 44   : 	{

	push	ebp
	mov	ebp, esp
	sub	esp, 92					; 0000005cH
	push	ebx
	push	esi
	push	edi
	mov	DWORD PTR _this$[ebp], ecx

; 45   : 		DP = dir * l;

	push	ecx
	movss	xmm0, DWORD PTR _l$[ebp]
	movss	DWORD PTR [esp], xmm0
	mov	eax, DWORD PTR _dir$[ebp]
	push	eax
	lea	ecx, DWORD PTR $T1[ebp]
	push	ecx
	call	??D@YA?AVVector3@@ABV0@M@Z		; operator*
	add	esp, 12					; 0000000cH
	push	eax
	mov	ecx, DWORD PTR _this$[ebp]
	add	ecx, 24					; 00000018H
	call	??4Vector3@@QAEAAV0@ABV0@@Z		; Vector3::operator=

; 46   : 		P0 = p0;

	mov	eax, DWORD PTR _p0$[ebp]
	push	eax
	mov	ecx, DWORD PTR _this$[ebp]
	call	??4Vector3@@QAEAAV0@ABV0@@Z		; Vector3::operator=

; 47   : 		P1 = p0 + DP;

	mov	eax, DWORD PTR _this$[ebp]
	add	eax, 24					; 00000018H
	push	eax
	mov	ecx, DWORD PTR _p0$[ebp]
	push	ecx
	lea	edx, DWORD PTR $T2[ebp]
	push	edx
	call	??H@YA?AVVector3@@ABV0@0@Z		; operator+
	add	esp, 12					; 0000000cH
	push	eax
	mov	ecx, DWORD PTR _this$[ebp]
	add	ecx, 12					; 0000000cH
	call	??4Vector3@@QAEAAV0@ABV0@@Z		; Vector3::operator=

; 48   : 		Dir = dir;

	mov	eax, DWORD PTR _dir$[ebp]
	push	eax
	mov	ecx, DWORD PTR _this$[ebp]
	add	ecx, 36					; 00000024H
	call	??4Vector3@@QAEAAV0@ABV0@@Z		; Vector3::operator=

; 49   : 		Length = l;

	mov	eax, DWORD PTR _this$[ebp]
	movss	xmm0, DWORD PTR _l$[ebp]
	movss	DWORD PTR [eax+48], xmm0

; 50   : 	}

	pop	edi
	pop	esi
	pop	ebx
	mov	esp, ebp
	pop	ebp
	ret	12					; 0000000cH
?Set@LineSegClass@@QAEXABVVector3@@0M@Z ENDP		; LineSegClass::Set
_TEXT	ENDS
; Function compile flags: /Odtp /ZI
; File x:\github\renegade\dragonade_rxd\scripts\linesegclass.h
;	COMDAT ?Set@LineSegClass@@QAEXABVVector3@@0@Z
_TEXT	SEGMENT
_this$ = -4						; size = 4
_p0$ = 8						; size = 4
_p1$ = 12						; size = 4
?Set@LineSegClass@@QAEXABVVector3@@0@Z PROC		; LineSegClass::Set, COMDAT
; _this$ = ecx

; 38   : 	{

	push	ebp
	mov	ebp, esp
	sub	esp, 68					; 00000044H
	push	ebx
	push	esi
	push	edi
	mov	DWORD PTR _this$[ebp], ecx

; 39   : 		P0 = p0;

	mov	eax, DWORD PTR _p0$[ebp]
	push	eax
	mov	ecx, DWORD PTR _this$[ebp]
	call	??4Vector3@@QAEAAV0@ABV0@@Z		; Vector3::operator=

; 40   : 		P1 = p1;

	mov	eax, DWORD PTR _p1$[ebp]
	push	eax
	mov	ecx, DWORD PTR _this$[ebp]
	add	ecx, 12					; 0000000cH
	call	??4Vector3@@QAEAAV0@ABV0@@Z		; Vector3::operator=

; 41   : 		recalculate();

	mov	ecx, DWORD PTR _this$[ebp]
	call	?recalculate@LineSegClass@@IAEXXZ	; LineSegClass::recalculate

; 42   : 	}

	pop	edi
	pop	esi
	pop	ebx
	mov	esp, ebp
	pop	ebp
	ret	8
?Set@LineSegClass@@QAEXABVVector3@@0@Z ENDP		; LineSegClass::Set
_TEXT	ENDS
; Function compile flags: /Odtp /ZI
; File x:\github\renegade\dragonade_rxd\scripts\linesegclass.h
;	COMDAT ??0LineSegClass@@QAE@ABV0@ABVMatrix3D@@@Z
_TEXT	SEGMENT
_this$ = -4						; size = 4
_that$ = 8						; size = 4
_tm$ = 12						; size = 4
??0LineSegClass@@QAE@ABV0@ABVMatrix3D@@@Z PROC		; LineSegClass::LineSegClass, COMDAT
; _this$ = ecx

; 33   : 	LineSegClass(const LineSegClass & that,const Matrix3D & tm)

	push	ebp
	mov	ebp, esp
	sub	esp, 68					; 00000044H
	push	ebx
	push	esi
	push	edi
	mov	DWORD PTR _this$[ebp], ecx
	mov	ecx, DWORD PTR _this$[ebp]
	call	??0Vector3@@QAE@XZ			; Vector3::Vector3
	mov	ecx, DWORD PTR _this$[ebp]
	add	ecx, 12					; 0000000cH
	call	??0Vector3@@QAE@XZ			; Vector3::Vector3
	mov	ecx, DWORD PTR _this$[ebp]
	add	ecx, 24					; 00000018H
	call	??0Vector3@@QAE@XZ			; Vector3::Vector3
	mov	ecx, DWORD PTR _this$[ebp]
	add	ecx, 36					; 00000024H
	call	??0Vector3@@QAE@XZ			; Vector3::Vector3

; 34   : 	{
; 35   : 		Set(that,tm);

	mov	eax, DWORD PTR _tm$[ebp]
	push	eax
	mov	ecx, DWORD PTR _that$[ebp]
	push	ecx
	mov	ecx, DWORD PTR _this$[ebp]
	call	?Set@LineSegClass@@QAEXABV1@ABVMatrix3D@@@Z ; LineSegClass::Set

; 36   : 	}

	mov	eax, DWORD PTR _this$[ebp]
	pop	edi
	pop	esi
	pop	ebx
	mov	esp, ebp
	pop	ebp
	ret	8
??0LineSegClass@@QAE@ABV0@ABVMatrix3D@@@Z ENDP		; LineSegClass::LineSegClass
_TEXT	ENDS
; Function compile flags: /Odtp /ZI
; File x:\github\renegade\dragonade_rxd\scripts\linesegclass.h
;	COMDAT ??0LineSegClass@@QAE@ABVVector3@@0M@Z
_TEXT	SEGMENT
$T1 = -92						; size = 12
$T2 = -80						; size = 12
_this$ = -4						; size = 4
_p0$ = 8						; size = 4
_dir$ = 12						; size = 4
_l$ = 16						; size = 4
??0LineSegClass@@QAE@ABVVector3@@0M@Z PROC		; LineSegClass::LineSegClass, COMDAT
; _this$ = ecx

; 29   : 	{

	push	ebp
	mov	ebp, esp
	sub	esp, 92					; 0000005cH
	push	ebx
	push	esi
	push	edi
	mov	DWORD PTR _this$[ebp], ecx
	mov	eax, DWORD PTR _p0$[ebp]
	push	eax
	mov	ecx, DWORD PTR _this$[ebp]
	call	??0Vector3@@QAE@ABV0@@Z			; Vector3::Vector3
	mov	ecx, DWORD PTR _this$[ebp]
	add	ecx, 12					; 0000000cH
	call	??0Vector3@@QAE@XZ			; Vector3::Vector3
	mov	ecx, DWORD PTR _this$[ebp]
	add	ecx, 24					; 00000018H
	call	??0Vector3@@QAE@XZ			; Vector3::Vector3
	mov	eax, DWORD PTR _dir$[ebp]
	push	eax
	mov	ecx, DWORD PTR _this$[ebp]
	add	ecx, 36					; 00000024H
	call	??0Vector3@@QAE@ABV0@@Z			; Vector3::Vector3
	mov	eax, DWORD PTR _this$[ebp]
	movss	xmm0, DWORD PTR _l$[ebp]
	movss	DWORD PTR [eax+48], xmm0

; 30   : 		DP = Dir * Length;

	mov	eax, DWORD PTR _this$[ebp]
	push	ecx
	movss	xmm0, DWORD PTR [eax+48]
	movss	DWORD PTR [esp], xmm0
	mov	ecx, DWORD PTR _this$[ebp]
	add	ecx, 36					; 00000024H
	push	ecx
	lea	edx, DWORD PTR $T1[ebp]
	push	edx
	call	??D@YA?AVVector3@@ABV0@M@Z		; operator*
	add	esp, 12					; 0000000cH
	push	eax
	mov	ecx, DWORD PTR _this$[ebp]
	add	ecx, 24					; 00000018H
	call	??4Vector3@@QAEAAV0@ABV0@@Z		; Vector3::operator=

; 31   : 		P1 = P0 + DP;

	mov	eax, DWORD PTR _this$[ebp]
	add	eax, 24					; 00000018H
	push	eax
	mov	ecx, DWORD PTR _this$[ebp]
	push	ecx
	lea	edx, DWORD PTR $T2[ebp]
	push	edx
	call	??H@YA?AVVector3@@ABV0@0@Z		; operator+
	add	esp, 12					; 0000000cH
	push	eax
	mov	ecx, DWORD PTR _this$[ebp]
	add	ecx, 12					; 0000000cH
	call	??4Vector3@@QAEAAV0@ABV0@@Z		; Vector3::operator=

; 32   : 	}

	mov	eax, DWORD PTR _this$[ebp]
	pop	edi
	pop	esi
	pop	ebx
	mov	esp, ebp
	pop	ebp
	ret	12					; 0000000cH
??0LineSegClass@@QAE@ABVVector3@@0M@Z ENDP		; LineSegClass::LineSegClass
_TEXT	ENDS
; Function compile flags: /Odtp /ZI
; File x:\github\renegade\dragonade_rxd\scripts\linesegclass.h
;	COMDAT ??0LineSegClass@@QAE@ABVVector3@@0@Z
_TEXT	SEGMENT
_this$ = -4						; size = 4
_p0$ = 8						; size = 4
_p1$ = 12						; size = 4
??0LineSegClass@@QAE@ABVVector3@@0@Z PROC		; LineSegClass::LineSegClass, COMDAT
; _this$ = ecx

; 25   : 	{

	push	ebp
	mov	ebp, esp
	sub	esp, 68					; 00000044H
	push	ebx
	push	esi
	push	edi
	mov	DWORD PTR _this$[ebp], ecx
	mov	eax, DWORD PTR _p0$[ebp]
	push	eax
	mov	ecx, DWORD PTR _this$[ebp]
	call	??0Vector3@@QAE@ABV0@@Z			; Vector3::Vector3
	mov	eax, DWORD PTR _p1$[ebp]
	push	eax
	mov	ecx, DWORD PTR _this$[ebp]
	add	ecx, 12					; 0000000cH
	call	??0Vector3@@QAE@ABV0@@Z			; Vector3::Vector3
	mov	ecx, DWORD PTR _this$[ebp]
	add	ecx, 24					; 00000018H
	call	??0Vector3@@QAE@XZ			; Vector3::Vector3
	mov	ecx, DWORD PTR _this$[ebp]
	add	ecx, 36					; 00000024H
	call	??0Vector3@@QAE@XZ			; Vector3::Vector3

; 26   : 		recalculate();

	mov	ecx, DWORD PTR _this$[ebp]
	call	?recalculate@LineSegClass@@IAEXXZ	; LineSegClass::recalculate

; 27   : 	}

	mov	eax, DWORD PTR _this$[ebp]
	pop	edi
	pop	esi
	pop	ebx
	mov	esp, ebp
	pop	ebp
	ret	8
??0LineSegClass@@QAE@ABVVector3@@0@Z ENDP		; LineSegClass::LineSegClass
_TEXT	ENDS
; Function compile flags: /Odtp /ZI
; File x:\github\renegade\dragonade_rxd\scripts\linesegclass.h
;	COMDAT ??0LineSegClass@@QAE@XZ
_TEXT	SEGMENT
_this$ = -4						; size = 4
??0LineSegClass@@QAE@XZ PROC				; LineSegClass::LineSegClass, COMDAT
; _this$ = ecx

; 21   : 	LineSegClass(void)

	push	ebp
	mov	ebp, esp
	sub	esp, 68					; 00000044H
	push	ebx
	push	esi
	push	edi
	mov	DWORD PTR _this$[ebp], ecx
	mov	ecx, DWORD PTR _this$[ebp]
	call	??0Vector3@@QAE@XZ			; Vector3::Vector3
	mov	ecx, DWORD PTR _this$[ebp]
	add	ecx, 12					; 0000000cH
	call	??0Vector3@@QAE@XZ			; Vector3::Vector3
	mov	ecx, DWORD PTR _this$[ebp]
	add	ecx, 24					; 00000018H
	call	??0Vector3@@QAE@XZ			; Vector3::Vector3
	mov	ecx, DWORD PTR _this$[ebp]
	add	ecx, 36					; 00000024H
	call	??0Vector3@@QAE@XZ			; Vector3::Vector3

; 22   : 	{
; 23   : 	}

	mov	eax, DWORD PTR _this$[ebp]
	pop	edi
	pop	esi
	pop	ebx
	mov	esp, ebp
	pop	ebp
	ret	0
??0LineSegClass@@QAE@XZ ENDP				; LineSegClass::LineSegClass
_TEXT	ENDS
; Function compile flags: /Odtp /ZI
; File x:\github\renegade\dragonade_rxd\scripts\matrix3d.h
;	COMDAT ?Inverse_Rotate_Vector@Matrix3D@@SAXABV1@ABVVector3@@PAV2@@Z
_TEXT	SEGMENT
tv237 = -88						; size = 4
tv233 = -88						; size = 4
tv229 = -88						; size = 4
tv235 = -84						; size = 4
tv231 = -84						; size = 4
tv227 = -84						; size = 4
_v$ = -16						; size = 4
_tmp$ = -12						; size = 12
_A$ = 8							; size = 4
_in$ = 12						; size = 4
_out$ = 16						; size = 4
?Inverse_Rotate_Vector@Matrix3D@@SAXABV1@ABVVector3@@PAV2@@Z PROC ; Matrix3D::Inverse_Rotate_Vector, COMDAT

; 564  : 	{

	push	ebp
	mov	ebp, esp
	sub	esp, 88					; 00000058H
	push	ebx
	push	esi
	push	edi

; 565  : 		Vector3 tmp;

	lea	ecx, DWORD PTR _tmp$[ebp]
	call	??0Vector3@@QAE@XZ			; Vector3::Vector3

; 566  : 		Vector3 * v;
; 567  : 		if (out == &in)

	mov	eax, DWORD PTR _out$[ebp]
	cmp	eax, DWORD PTR _in$[ebp]
	jne	SHORT $LN2@Inverse_Ro

; 568  : 		{
; 569  : 			tmp = in;

	mov	eax, DWORD PTR _in$[ebp]
	push	eax
	lea	ecx, DWORD PTR _tmp$[ebp]
	call	??4Vector3@@QAEAAV0@ABV0@@Z		; Vector3::operator=

; 570  : 			v = &tmp;

	lea	eax, DWORD PTR _tmp$[ebp]
	mov	DWORD PTR _v$[ebp], eax

; 571  : 		}
; 572  : 		else

	jmp	SHORT $LN1@Inverse_Ro
$LN2@Inverse_Ro:

; 573  : 		{
; 574  : 			v = (Vector3 *)&in;

	mov	eax, DWORD PTR _in$[ebp]
	mov	DWORD PTR _v$[ebp], eax
$LN1@Inverse_Ro:

; 575  : 		}
; 576  : 		out->X = (A[0][0] * v->X + A[1][0] * v->Y + A[2][0] * v->Z);

	push	0
	push	0
	mov	ecx, DWORD PTR _A$[ebp]
	call	??AMatrix3D@@QBEABVVector4@@H@Z		; Matrix3D::operator[]
	mov	ecx, eax
	call	??AVector4@@QBEABMH@Z			; Vector4::operator[]
	mov	ecx, DWORD PTR _v$[ebp]
	movss	xmm0, DWORD PTR [eax]
	mulss	xmm0, DWORD PTR [ecx]
	push	0
	push	1
	mov	ecx, DWORD PTR _A$[ebp]
	movss	DWORD PTR tv227[ebp], xmm0
	call	??AMatrix3D@@QBEABVVector4@@H@Z		; Matrix3D::operator[]
	mov	ecx, eax
	call	??AVector4@@QBEABMH@Z			; Vector4::operator[]
	mov	edx, DWORD PTR _v$[ebp]
	movss	xmm0, DWORD PTR [eax]
	mulss	xmm0, DWORD PTR [edx+4]
	movss	xmm1, DWORD PTR tv227[ebp]
	addss	xmm1, xmm0
	push	0
	push	2
	mov	ecx, DWORD PTR _A$[ebp]
	movss	DWORD PTR tv229[ebp], xmm1
	call	??AMatrix3D@@QBEABVVector4@@H@Z		; Matrix3D::operator[]
	mov	ecx, eax
	call	??AVector4@@QBEABMH@Z			; Vector4::operator[]
	mov	ecx, DWORD PTR _v$[ebp]
	movss	xmm0, DWORD PTR [eax]
	mulss	xmm0, DWORD PTR [ecx+8]
	movss	xmm1, DWORD PTR tv229[ebp]
	addss	xmm1, xmm0
	mov	edx, DWORD PTR _out$[ebp]
	movss	DWORD PTR [edx], xmm1

; 577  : 		out->Y = (A[0][1] * v->X + A[1][1] * v->Y + A[2][1] * v->Z);

	push	1
	push	0
	mov	ecx, DWORD PTR _A$[ebp]
	call	??AMatrix3D@@QBEABVVector4@@H@Z		; Matrix3D::operator[]
	mov	ecx, eax
	call	??AVector4@@QBEABMH@Z			; Vector4::operator[]
	mov	ecx, DWORD PTR _v$[ebp]
	movss	xmm0, DWORD PTR [eax]
	mulss	xmm0, DWORD PTR [ecx]
	push	1
	push	1
	mov	ecx, DWORD PTR _A$[ebp]
	movss	DWORD PTR tv231[ebp], xmm0
	call	??AMatrix3D@@QBEABVVector4@@H@Z		; Matrix3D::operator[]
	mov	ecx, eax
	call	??AVector4@@QBEABMH@Z			; Vector4::operator[]
	mov	edx, DWORD PTR _v$[ebp]
	movss	xmm0, DWORD PTR [eax]
	mulss	xmm0, DWORD PTR [edx+4]
	movss	xmm1, DWORD PTR tv231[ebp]
	addss	xmm1, xmm0
	push	1
	push	2
	mov	ecx, DWORD PTR _A$[ebp]
	movss	DWORD PTR tv233[ebp], xmm1
	call	??AMatrix3D@@QBEABVVector4@@H@Z		; Matrix3D::operator[]
	mov	ecx, eax
	call	??AVector4@@QBEABMH@Z			; Vector4::operator[]
	mov	ecx, DWORD PTR _v$[ebp]
	movss	xmm0, DWORD PTR [eax]
	mulss	xmm0, DWORD PTR [ecx+8]
	movss	xmm1, DWORD PTR tv233[ebp]
	addss	xmm1, xmm0
	mov	edx, DWORD PTR _out$[ebp]
	movss	DWORD PTR [edx+4], xmm1

; 578  : 		out->Z = (A[0][2] * v->X + A[1][2] * v->Y + A[2][2] * v->Z);

	push	2
	push	0
	mov	ecx, DWORD PTR _A$[ebp]
	call	??AMatrix3D@@QBEABVVector4@@H@Z		; Matrix3D::operator[]
	mov	ecx, eax
	call	??AVector4@@QBEABMH@Z			; Vector4::operator[]
	mov	ecx, DWORD PTR _v$[ebp]
	movss	xmm0, DWORD PTR [eax]
	mulss	xmm0, DWORD PTR [ecx]
	push	2
	push	1
	mov	ecx, DWORD PTR _A$[ebp]
	movss	DWORD PTR tv235[ebp], xmm0
	call	??AMatrix3D@@QBEABVVector4@@H@Z		; Matrix3D::operator[]
	mov	ecx, eax
	call	??AVector4@@QBEABMH@Z			; Vector4::operator[]
	mov	edx, DWORD PTR _v$[ebp]
	movss	xmm0, DWORD PTR [eax]
	mulss	xmm0, DWORD PTR [edx+4]
	movss	xmm1, DWORD PTR tv235[ebp]
	addss	xmm1, xmm0
	push	2
	push	2
	mov	ecx, DWORD PTR _A$[ebp]
	movss	DWORD PTR tv237[ebp], xmm1
	call	??AMatrix3D@@QBEABVVector4@@H@Z		; Matrix3D::operator[]
	mov	ecx, eax
	call	??AVector4@@QBEABMH@Z			; Vector4::operator[]
	mov	ecx, DWORD PTR _v$[ebp]
	movss	xmm0, DWORD PTR [eax]
	mulss	xmm0, DWORD PTR [ecx+8]
	movss	xmm1, DWORD PTR tv237[ebp]
	addss	xmm1, xmm0
	mov	edx, DWORD PTR _out$[ebp]
	movss	DWORD PTR [edx+8], xmm1

; 579  : 	}

	pop	edi
	pop	esi
	pop	ebx
	mov	esp, ebp
	pop	ebp
	ret	0
?Inverse_Rotate_Vector@Matrix3D@@SAXABV1@ABVVector3@@PAV2@@Z ENDP ; Matrix3D::Inverse_Rotate_Vector
_TEXT	ENDS
; Function compile flags: /Odtp /ZI
; File x:\github\renegade\dragonade_rxd\scripts\matrix3d.h
;	COMDAT ?Inverse_Transform_Vector@Matrix3D@@SAXABV1@ABVVector3@@PAV2@@Z
_TEXT	SEGMENT
_diff$ = -28						; size = 12
_v$ = -16						; size = 4
_tmp$ = -12						; size = 12
_A$ = 8							; size = 4
_in$ = 12						; size = 4
_out$ = 16						; size = 4
?Inverse_Transform_Vector@Matrix3D@@SAXABV1@ABVVector3@@PAV2@@Z PROC ; Matrix3D::Inverse_Transform_Vector, COMDAT

; 548  : 	{

	push	ebp
	mov	ebp, esp
	sub	esp, 92					; 0000005cH
	push	ebx
	push	esi
	push	edi

; 549  : 		Vector3 tmp;

	lea	ecx, DWORD PTR _tmp$[ebp]
	call	??0Vector3@@QAE@XZ			; Vector3::Vector3

; 550  : 		Vector3 * v;
; 551  : 		if (out == &in)

	mov	eax, DWORD PTR _out$[ebp]
	cmp	eax, DWORD PTR _in$[ebp]
	jne	SHORT $LN2@Inverse_Tr

; 552  : 		{
; 553  : 			tmp = in;

	mov	eax, DWORD PTR _in$[ebp]
	push	eax
	lea	ecx, DWORD PTR _tmp$[ebp]
	call	??4Vector3@@QAEAAV0@ABV0@@Z		; Vector3::operator=

; 554  : 			v = &tmp;

	lea	eax, DWORD PTR _tmp$[ebp]
	mov	DWORD PTR _v$[ebp], eax

; 555  : 		}
; 556  : 		else

	jmp	SHORT $LN1@Inverse_Tr
$LN2@Inverse_Tr:

; 557  : 		{
; 558  : 			v = (Vector3 *)&in;

	mov	eax, DWORD PTR _in$[ebp]
	mov	DWORD PTR _v$[ebp], eax
$LN1@Inverse_Tr:

; 559  : 		}
; 560  : 		Vector3 diff(v->X - A[0][3], v->Y - A[1][3], v->Z - A[2][3]);

	push	3
	push	2
	mov	ecx, DWORD PTR _A$[ebp]
	call	??AMatrix3D@@QBEABVVector4@@H@Z		; Matrix3D::operator[]
	mov	ecx, eax
	call	??AVector4@@QBEABMH@Z			; Vector4::operator[]
	mov	ecx, DWORD PTR _v$[ebp]
	movss	xmm0, DWORD PTR [ecx+8]
	subss	xmm0, DWORD PTR [eax]
	push	ecx
	movss	DWORD PTR [esp], xmm0
	push	3
	push	1
	mov	ecx, DWORD PTR _A$[ebp]
	call	??AMatrix3D@@QBEABVVector4@@H@Z		; Matrix3D::operator[]
	mov	ecx, eax
	call	??AVector4@@QBEABMH@Z			; Vector4::operator[]
	mov	edx, DWORD PTR _v$[ebp]
	movss	xmm0, DWORD PTR [edx+4]
	subss	xmm0, DWORD PTR [eax]
	push	ecx
	movss	DWORD PTR [esp], xmm0
	push	3
	push	0
	mov	ecx, DWORD PTR _A$[ebp]
	call	??AMatrix3D@@QBEABVVector4@@H@Z		; Matrix3D::operator[]
	mov	ecx, eax
	call	??AVector4@@QBEABMH@Z			; Vector4::operator[]
	mov	ecx, DWORD PTR _v$[ebp]
	movss	xmm0, DWORD PTR [ecx]
	subss	xmm0, DWORD PTR [eax]
	push	ecx
	movss	DWORD PTR [esp], xmm0
	lea	ecx, DWORD PTR _diff$[ebp]
	call	??0Vector3@@QAE@MMM@Z			; Vector3::Vector3

; 561  : 		Matrix3D::Inverse_Rotate_Vector(A, diff, out);

	mov	eax, DWORD PTR _out$[ebp]
	push	eax
	lea	ecx, DWORD PTR _diff$[ebp]
	push	ecx
	mov	edx, DWORD PTR _A$[ebp]
	push	edx
	call	?Inverse_Rotate_Vector@Matrix3D@@SAXABV1@ABVVector3@@PAV2@@Z ; Matrix3D::Inverse_Rotate_Vector
	add	esp, 12					; 0000000cH

; 562  : 	}

	pop	edi
	pop	esi
	pop	ebx
	mov	esp, ebp
	pop	ebp
	ret	0
?Inverse_Transform_Vector@Matrix3D@@SAXABV1@ABVVector3@@PAV2@@Z ENDP ; Matrix3D::Inverse_Transform_Vector
_TEXT	ENDS
; Function compile flags: /Odtp /ZI
; File x:\github\renegade\dragonade_rxd\scripts\matrix3d.h
;	COMDAT ?Rotate_Vector@Matrix3D@@SAXABV1@ABVVector3@@PAV2@@Z
_TEXT	SEGMENT
tv237 = -88						; size = 4
tv233 = -88						; size = 4
tv229 = -88						; size = 4
tv235 = -84						; size = 4
tv231 = -84						; size = 4
tv227 = -84						; size = 4
_v$ = -16						; size = 4
_tmp$ = -12						; size = 12
_A$ = 8							; size = 4
_in$ = 12						; size = 4
_out$ = 16						; size = 4
?Rotate_Vector@Matrix3D@@SAXABV1@ABVVector3@@PAV2@@Z PROC ; Matrix3D::Rotate_Vector, COMDAT

; 531  : 	{

	push	ebp
	mov	ebp, esp
	sub	esp, 88					; 00000058H
	push	ebx
	push	esi
	push	edi

; 532  : 		Vector3 tmp;

	lea	ecx, DWORD PTR _tmp$[ebp]
	call	??0Vector3@@QAE@XZ			; Vector3::Vector3

; 533  : 		Vector3 * v;
; 534  : 		if (out == &in)

	mov	eax, DWORD PTR _out$[ebp]
	cmp	eax, DWORD PTR _in$[ebp]
	jne	SHORT $LN2@Rotate_Vec

; 535  : 		{
; 536  : 			tmp = in;

	mov	eax, DWORD PTR _in$[ebp]
	push	eax
	lea	ecx, DWORD PTR _tmp$[ebp]
	call	??4Vector3@@QAEAAV0@ABV0@@Z		; Vector3::operator=

; 537  : 			v = &tmp;

	lea	eax, DWORD PTR _tmp$[ebp]
	mov	DWORD PTR _v$[ebp], eax

; 538  : 		}
; 539  : 		else 

	jmp	SHORT $LN1@Rotate_Vec
$LN2@Rotate_Vec:

; 540  : 		{
; 541  : 			v = (Vector3 *)&in;

	mov	eax, DWORD PTR _in$[ebp]
	mov	DWORD PTR _v$[ebp], eax
$LN1@Rotate_Vec:

; 542  : 		}
; 543  : 		out->X = (A[0][0] * v->X + A[0][1] * v->Y + A[0][2] * v->Z);

	push	0
	push	0
	mov	ecx, DWORD PTR _A$[ebp]
	call	??AMatrix3D@@QBEABVVector4@@H@Z		; Matrix3D::operator[]
	mov	ecx, eax
	call	??AVector4@@QBEABMH@Z			; Vector4::operator[]
	mov	ecx, DWORD PTR _v$[ebp]
	movss	xmm0, DWORD PTR [eax]
	mulss	xmm0, DWORD PTR [ecx]
	push	1
	push	0
	mov	ecx, DWORD PTR _A$[ebp]
	movss	DWORD PTR tv227[ebp], xmm0
	call	??AMatrix3D@@QBEABVVector4@@H@Z		; Matrix3D::operator[]
	mov	ecx, eax
	call	??AVector4@@QBEABMH@Z			; Vector4::operator[]
	mov	edx, DWORD PTR _v$[ebp]
	movss	xmm0, DWORD PTR [eax]
	mulss	xmm0, DWORD PTR [edx+4]
	movss	xmm1, DWORD PTR tv227[ebp]
	addss	xmm1, xmm0
	push	2
	push	0
	mov	ecx, DWORD PTR _A$[ebp]
	movss	DWORD PTR tv229[ebp], xmm1
	call	??AMatrix3D@@QBEABVVector4@@H@Z		; Matrix3D::operator[]
	mov	ecx, eax
	call	??AVector4@@QBEABMH@Z			; Vector4::operator[]
	mov	ecx, DWORD PTR _v$[ebp]
	movss	xmm0, DWORD PTR [eax]
	mulss	xmm0, DWORD PTR [ecx+8]
	movss	xmm1, DWORD PTR tv229[ebp]
	addss	xmm1, xmm0
	mov	edx, DWORD PTR _out$[ebp]
	movss	DWORD PTR [edx], xmm1

; 544  : 		out->Y = (A[1][0] * v->X + A[1][1] * v->Y + A[1][2] * v->Z);

	push	0
	push	1
	mov	ecx, DWORD PTR _A$[ebp]
	call	??AMatrix3D@@QBEABVVector4@@H@Z		; Matrix3D::operator[]
	mov	ecx, eax
	call	??AVector4@@QBEABMH@Z			; Vector4::operator[]
	mov	ecx, DWORD PTR _v$[ebp]
	movss	xmm0, DWORD PTR [eax]
	mulss	xmm0, DWORD PTR [ecx]
	push	1
	push	1
	mov	ecx, DWORD PTR _A$[ebp]
	movss	DWORD PTR tv231[ebp], xmm0
	call	??AMatrix3D@@QBEABVVector4@@H@Z		; Matrix3D::operator[]
	mov	ecx, eax
	call	??AVector4@@QBEABMH@Z			; Vector4::operator[]
	mov	edx, DWORD PTR _v$[ebp]
	movss	xmm0, DWORD PTR [eax]
	mulss	xmm0, DWORD PTR [edx+4]
	movss	xmm1, DWORD PTR tv231[ebp]
	addss	xmm1, xmm0
	push	2
	push	1
	mov	ecx, DWORD PTR _A$[ebp]
	movss	DWORD PTR tv233[ebp], xmm1
	call	??AMatrix3D@@QBEABVVector4@@H@Z		; Matrix3D::operator[]
	mov	ecx, eax
	call	??AVector4@@QBEABMH@Z			; Vector4::operator[]
	mov	ecx, DWORD PTR _v$[ebp]
	movss	xmm0, DWORD PTR [eax]
	mulss	xmm0, DWORD PTR [ecx+8]
	movss	xmm1, DWORD PTR tv233[ebp]
	addss	xmm1, xmm0
	mov	edx, DWORD PTR _out$[ebp]
	movss	DWORD PTR [edx+4], xmm1

; 545  : 		out->Z = (A[2][0] * v->X + A[2][1] * v->Y + A[2][2] * v->Z);

	push	0
	push	2
	mov	ecx, DWORD PTR _A$[ebp]
	call	??AMatrix3D@@QBEABVVector4@@H@Z		; Matrix3D::operator[]
	mov	ecx, eax
	call	??AVector4@@QBEABMH@Z			; Vector4::operator[]
	mov	ecx, DWORD PTR _v$[ebp]
	movss	xmm0, DWORD PTR [eax]
	mulss	xmm0, DWORD PTR [ecx]
	push	1
	push	2
	mov	ecx, DWORD PTR _A$[ebp]
	movss	DWORD PTR tv235[ebp], xmm0
	call	??AMatrix3D@@QBEABVVector4@@H@Z		; Matrix3D::operator[]
	mov	ecx, eax
	call	??AVector4@@QBEABMH@Z			; Vector4::operator[]
	mov	edx, DWORD PTR _v$[ebp]
	movss	xmm0, DWORD PTR [eax]
	mulss	xmm0, DWORD PTR [edx+4]
	movss	xmm1, DWORD PTR tv235[ebp]
	addss	xmm1, xmm0
	push	2
	push	2
	mov	ecx, DWORD PTR _A$[ebp]
	movss	DWORD PTR tv237[ebp], xmm1
	call	??AMatrix3D@@QBEABVVector4@@H@Z		; Matrix3D::operator[]
	mov	ecx, eax
	call	??AVector4@@QBEABMH@Z			; Vector4::operator[]
	mov	ecx, DWORD PTR _v$[ebp]
	movss	xmm0, DWORD PTR [eax]
	mulss	xmm0, DWORD PTR [ecx+8]
	movss	xmm1, DWORD PTR tv237[ebp]
	addss	xmm1, xmm0
	mov	edx, DWORD PTR _out$[ebp]
	movss	DWORD PTR [edx+8], xmm1

; 546  : 	}

	pop	edi
	pop	esi
	pop	ebx
	mov	esp, ebp
	pop	ebp
	ret	0
?Rotate_Vector@Matrix3D@@SAXABV1@ABVVector3@@PAV2@@Z ENDP ; Matrix3D::Rotate_Vector
_TEXT	ENDS
; Function compile flags: /Odtp /ZI
; File x:\github\renegade\dragonade_rxd\scripts\matrix3d.h
;	COMDAT ?Get_Z_Vector@Matrix3D@@QBEXPAVVector3@@@Z
_TEXT	SEGMENT
_this$ = -4						; size = 4
_set_z$ = 8						; size = 4
?Get_Z_Vector@Matrix3D@@QBEXPAVVector3@@@Z PROC		; Matrix3D::Get_Z_Vector, COMDAT
; _this$ = ecx

; 524  : 	TT_INLINE void Get_Z_Vector(Vector3 * set_z) const { set_z->Set(Row[0][2], Row[1][2], Row[2][2]); }

	push	ebp
	mov	ebp, esp
	sub	esp, 68					; 00000044H
	push	ebx
	push	esi
	push	edi
	mov	DWORD PTR _this$[ebp], ecx
	push	2
	mov	ecx, 16					; 00000010H
	shl	ecx, 1
	add	ecx, DWORD PTR _this$[ebp]
	call	??AVector4@@QBEABMH@Z			; Vector4::operator[]
	push	ecx
	movss	xmm0, DWORD PTR [eax]
	movss	DWORD PTR [esp], xmm0
	push	2
	mov	ecx, 16					; 00000010H
	shl	ecx, 0
	add	ecx, DWORD PTR _this$[ebp]
	call	??AVector4@@QBEABMH@Z			; Vector4::operator[]
	push	ecx
	movss	xmm0, DWORD PTR [eax]
	movss	DWORD PTR [esp], xmm0
	push	2
	mov	ecx, 16					; 00000010H
	imul	ecx, 0
	add	ecx, DWORD PTR _this$[ebp]
	call	??AVector4@@QBEABMH@Z			; Vector4::operator[]
	push	ecx
	movss	xmm0, DWORD PTR [eax]
	movss	DWORD PTR [esp], xmm0
	mov	ecx, DWORD PTR _set_z$[ebp]
	call	?Set@Vector3@@QAEXMMM@Z			; Vector3::Set
	pop	edi
	pop	esi
	pop	ebx
	mov	esp, ebp
	pop	ebp
	ret	4
?Get_Z_Vector@Matrix3D@@QBEXPAVVector3@@@Z ENDP		; Matrix3D::Get_Z_Vector
_TEXT	ENDS
; Function compile flags: /Odtp /ZI
; File x:\github\renegade\dragonade_rxd\scripts\matrix3d.h
;	COMDAT ?Get_Y_Vector@Matrix3D@@QBEXPAVVector3@@@Z
_TEXT	SEGMENT
_this$ = -4						; size = 4
_set_y$ = 8						; size = 4
?Get_Y_Vector@Matrix3D@@QBEXPAVVector3@@@Z PROC		; Matrix3D::Get_Y_Vector, COMDAT
; _this$ = ecx

; 523  : 	TT_INLINE void Get_Y_Vector(Vector3 * set_y) const { set_y->Set(Row[0][1], Row[1][1], Row[2][1]); }

	push	ebp
	mov	ebp, esp
	sub	esp, 68					; 00000044H
	push	ebx
	push	esi
	push	edi
	mov	DWORD PTR _this$[ebp], ecx
	push	1
	mov	ecx, 16					; 00000010H
	shl	ecx, 1
	add	ecx, DWORD PTR _this$[ebp]
	call	??AVector4@@QBEABMH@Z			; Vector4::operator[]
	push	ecx
	movss	xmm0, DWORD PTR [eax]
	movss	DWORD PTR [esp], xmm0
	push	1
	mov	ecx, 16					; 00000010H
	shl	ecx, 0
	add	ecx, DWORD PTR _this$[ebp]
	call	??AVector4@@QBEABMH@Z			; Vector4::operator[]
	push	ecx
	movss	xmm0, DWORD PTR [eax]
	movss	DWORD PTR [esp], xmm0
	push	1
	mov	ecx, 16					; 00000010H
	imul	ecx, 0
	add	ecx, DWORD PTR _this$[ebp]
	call	??AVector4@@QBEABMH@Z			; Vector4::operator[]
	push	ecx
	movss	xmm0, DWORD PTR [eax]
	movss	DWORD PTR [esp], xmm0
	mov	ecx, DWORD PTR _set_y$[ebp]
	call	?Set@Vector3@@QAEXMMM@Z			; Vector3::Set
	pop	edi
	pop	esi
	pop	ebx
	mov	esp, ebp
	pop	ebp
	ret	4
?Get_Y_Vector@Matrix3D@@QBEXPAVVector3@@@Z ENDP		; Matrix3D::Get_Y_Vector
_TEXT	ENDS
; Function compile flags: /Odtp /ZI
; File x:\github\renegade\dragonade_rxd\scripts\matrix3d.h
;	COMDAT ?Get_X_Vector@Matrix3D@@QBEXPAVVector3@@@Z
_TEXT	SEGMENT
_this$ = -4						; size = 4
_set_x$ = 8						; size = 4
?Get_X_Vector@Matrix3D@@QBEXPAVVector3@@@Z PROC		; Matrix3D::Get_X_Vector, COMDAT
; _this$ = ecx

; 522  : 	TT_INLINE void Get_X_Vector(Vector3 * set_x) const { set_x->Set(Row[0][0], Row[1][0], Row[2][0]); }

	push	ebp
	mov	ebp, esp
	sub	esp, 68					; 00000044H
	push	ebx
	push	esi
	push	edi
	mov	DWORD PTR _this$[ebp], ecx
	push	0
	mov	ecx, 16					; 00000010H
	shl	ecx, 1
	add	ecx, DWORD PTR _this$[ebp]
	call	??AVector4@@QBEABMH@Z			; Vector4::operator[]
	push	ecx
	movss	xmm0, DWORD PTR [eax]
	movss	DWORD PTR [esp], xmm0
	push	0
	mov	ecx, 16					; 00000010H
	shl	ecx, 0
	add	ecx, DWORD PTR _this$[ebp]
	call	??AVector4@@QBEABMH@Z			; Vector4::operator[]
	push	ecx
	movss	xmm0, DWORD PTR [eax]
	movss	DWORD PTR [esp], xmm0
	push	0
	mov	ecx, 16					; 00000010H
	imul	ecx, 0
	add	ecx, DWORD PTR _this$[ebp]
	call	??AVector4@@QBEABMH@Z			; Vector4::operator[]
	push	ecx
	movss	xmm0, DWORD PTR [eax]
	movss	DWORD PTR [esp], xmm0
	mov	ecx, DWORD PTR _set_x$[ebp]
	call	?Set@Vector3@@QAEXMMM@Z			; Vector3::Set
	pop	edi
	pop	esi
	pop	ebx
	mov	esp, ebp
	pop	ebp
	ret	4
?Get_X_Vector@Matrix3D@@QBEXPAVVector3@@@Z ENDP		; Matrix3D::Get_X_Vector
_TEXT	ENDS
; Function compile flags: /Odtp /ZI
; File x:\github\renegade\dragonade_rxd\scripts\matrix3d.h
;	COMDAT ?Get_Z_Vector@Matrix3D@@QBE?AVVector3@@XZ
_TEXT	SEGMENT
_this$ = -4						; size = 4
___$ReturnUdt$ = 8					; size = 4
?Get_Z_Vector@Matrix3D@@QBE?AVVector3@@XZ PROC		; Matrix3D::Get_Z_Vector, COMDAT
; _this$ = ecx

; 521  : 	TT_INLINE Vector3 Get_Z_Vector() const { return Vector3(Row[0][2], Row[1][2], Row[2][2]); }

	push	ebp
	mov	ebp, esp
	sub	esp, 68					; 00000044H
	push	ebx
	push	esi
	push	edi
	mov	DWORD PTR _this$[ebp], ecx
	push	2
	mov	ecx, 16					; 00000010H
	shl	ecx, 1
	add	ecx, DWORD PTR _this$[ebp]
	call	??AVector4@@QBEABMH@Z			; Vector4::operator[]
	push	ecx
	movss	xmm0, DWORD PTR [eax]
	movss	DWORD PTR [esp], xmm0
	push	2
	mov	ecx, 16					; 00000010H
	shl	ecx, 0
	add	ecx, DWORD PTR _this$[ebp]
	call	??AVector4@@QBEABMH@Z			; Vector4::operator[]
	push	ecx
	movss	xmm0, DWORD PTR [eax]
	movss	DWORD PTR [esp], xmm0
	push	2
	mov	ecx, 16					; 00000010H
	imul	ecx, 0
	add	ecx, DWORD PTR _this$[ebp]
	call	??AVector4@@QBEABMH@Z			; Vector4::operator[]
	push	ecx
	movss	xmm0, DWORD PTR [eax]
	movss	DWORD PTR [esp], xmm0
	mov	ecx, DWORD PTR ___$ReturnUdt$[ebp]
	call	??0Vector3@@QAE@MMM@Z			; Vector3::Vector3
	mov	eax, DWORD PTR ___$ReturnUdt$[ebp]
	pop	edi
	pop	esi
	pop	ebx
	mov	esp, ebp
	pop	ebp
	ret	4
?Get_Z_Vector@Matrix3D@@QBE?AVVector3@@XZ ENDP		; Matrix3D::Get_Z_Vector
_TEXT	ENDS
; Function compile flags: /Odtp /ZI
; File x:\github\renegade\dragonade_rxd\scripts\matrix3d.h
;	COMDAT ?Get_Y_Vector@Matrix3D@@QBE?AVVector3@@XZ
_TEXT	SEGMENT
_this$ = -4						; size = 4
___$ReturnUdt$ = 8					; size = 4
?Get_Y_Vector@Matrix3D@@QBE?AVVector3@@XZ PROC		; Matrix3D::Get_Y_Vector, COMDAT
; _this$ = ecx

; 520  : 	TT_INLINE Vector3 Get_Y_Vector() const { return Vector3(Row[0][1], Row[1][1], Row[2][1]); }

	push	ebp
	mov	ebp, esp
	sub	esp, 68					; 00000044H
	push	ebx
	push	esi
	push	edi
	mov	DWORD PTR _this$[ebp], ecx
	push	1
	mov	ecx, 16					; 00000010H
	shl	ecx, 1
	add	ecx, DWORD PTR _this$[ebp]
	call	??AVector4@@QBEABMH@Z			; Vector4::operator[]
	push	ecx
	movss	xmm0, DWORD PTR [eax]
	movss	DWORD PTR [esp], xmm0
	push	1
	mov	ecx, 16					; 00000010H
	shl	ecx, 0
	add	ecx, DWORD PTR _this$[ebp]
	call	??AVector4@@QBEABMH@Z			; Vector4::operator[]
	push	ecx
	movss	xmm0, DWORD PTR [eax]
	movss	DWORD PTR [esp], xmm0
	push	1
	mov	ecx, 16					; 00000010H
	imul	ecx, 0
	add	ecx, DWORD PTR _this$[ebp]
	call	??AVector4@@QBEABMH@Z			; Vector4::operator[]
	push	ecx
	movss	xmm0, DWORD PTR [eax]
	movss	DWORD PTR [esp], xmm0
	mov	ecx, DWORD PTR ___$ReturnUdt$[ebp]
	call	??0Vector3@@QAE@MMM@Z			; Vector3::Vector3
	mov	eax, DWORD PTR ___$ReturnUdt$[ebp]
	pop	edi
	pop	esi
	pop	ebx
	mov	esp, ebp
	pop	ebp
	ret	4
?Get_Y_Vector@Matrix3D@@QBE?AVVector3@@XZ ENDP		; Matrix3D::Get_Y_Vector
_TEXT	ENDS
; Function compile flags: /Odtp /ZI
; File x:\github\renegade\dragonade_rxd\scripts\matrix3d.h
;	COMDAT ?Get_X_Vector@Matrix3D@@QBE?AVVector3@@XZ
_TEXT	SEGMENT
_this$ = -4						; size = 4
___$ReturnUdt$ = 8					; size = 4
?Get_X_Vector@Matrix3D@@QBE?AVVector3@@XZ PROC		; Matrix3D::Get_X_Vector, COMDAT
; _this$ = ecx

; 519  : 	TT_INLINE Vector3 Get_X_Vector() const { return Vector3(Row[0][0], Row[1][0], Row[2][0]); }

	push	ebp
	mov	ebp, esp
	sub	esp, 68					; 00000044H
	push	ebx
	push	esi
	push	edi
	mov	DWORD PTR _this$[ebp], ecx
	push	0
	mov	ecx, 16					; 00000010H
	shl	ecx, 1
	add	ecx, DWORD PTR _this$[ebp]
	call	??AVector4@@QBEABMH@Z			; Vector4::operator[]
	push	ecx
	movss	xmm0, DWORD PTR [eax]
	movss	DWORD PTR [esp], xmm0
	push	0
	mov	ecx, 16					; 00000010H
	shl	ecx, 0
	add	ecx, DWORD PTR _this$[ebp]
	call	??AVector4@@QBEABMH@Z			; Vector4::operator[]
	push	ecx
	movss	xmm0, DWORD PTR [eax]
	movss	DWORD PTR [esp], xmm0
	push	0
	mov	ecx, 16					; 00000010H
	imul	ecx, 0
	add	ecx, DWORD PTR _this$[ebp]
	call	??AVector4@@QBEABMH@Z			; Vector4::operator[]
	push	ecx
	movss	xmm0, DWORD PTR [eax]
	movss	DWORD PTR [esp], xmm0
	mov	ecx, DWORD PTR ___$ReturnUdt$[ebp]
	call	??0Vector3@@QAE@MMM@Z			; Vector3::Vector3
	mov	eax, DWORD PTR ___$ReturnUdt$[ebp]
	pop	edi
	pop	esi
	pop	ebx
	mov	esp, ebp
	pop	ebp
	ret	4
?Get_X_Vector@Matrix3D@@QBE?AVVector3@@XZ ENDP		; Matrix3D::Get_X_Vector
_TEXT	ENDS
; Function compile flags: /Odtp /ZI
; File x:\github\renegade\dragonade_rxd\scripts\matrix3d.h
;	COMDAT ?Transform_Vector@Matrix3D@@SAXABV1@ABVVector3@@PAV2@@Z
_TEXT	SEGMENT
tv270 = -92						; size = 4
tv264 = -92						; size = 4
tv258 = -92						; size = 4
tv268 = -88						; size = 4
tv262 = -88						; size = 4
tv256 = -88						; size = 4
tv266 = -84						; size = 4
tv260 = -84						; size = 4
tv254 = -84						; size = 4
_v$ = -16						; size = 4
_tmp$ = -12						; size = 12
_A$ = 8							; size = 4
_in$ = 12						; size = 4
_out$ = 16						; size = 4
?Transform_Vector@Matrix3D@@SAXABV1@ABVVector3@@PAV2@@Z PROC ; Matrix3D::Transform_Vector, COMDAT

; 503  :    {

	push	ebp
	mov	ebp, esp
	sub	esp, 92					; 0000005cH
	push	ebx
	push	esi
	push	edi

; 504  : 		Vector3 tmp;

	lea	ecx, DWORD PTR _tmp$[ebp]
	call	??0Vector3@@QAE@XZ			; Vector3::Vector3

; 505  : 		Vector3 * v;
; 506  : 		if (out == &in)

	mov	eax, DWORD PTR _out$[ebp]
	cmp	eax, DWORD PTR _in$[ebp]
	jne	SHORT $LN2@Transform_

; 507  : 		{
; 508  : 			tmp = in;

	mov	eax, DWORD PTR _in$[ebp]
	push	eax
	lea	ecx, DWORD PTR _tmp$[ebp]
	call	??4Vector3@@QAEAAV0@ABV0@@Z		; Vector3::operator=

; 509  : 			v = &tmp;

	lea	eax, DWORD PTR _tmp$[ebp]
	mov	DWORD PTR _v$[ebp], eax

; 510  : 		}
; 511  : 		else

	jmp	SHORT $LN1@Transform_
$LN2@Transform_:

; 512  : 		{
; 513  : 			v = (Vector3 *)&in;

	mov	eax, DWORD PTR _in$[ebp]
	mov	DWORD PTR _v$[ebp], eax
$LN1@Transform_:

; 514  : 		}
; 515  : 		out->X = (A.Row[0][0] * v->X + A.Row[0][1] * v->Y + A.Row[0][2] * v->Z + A.Row[0][3]);

	push	0
	mov	ecx, 16					; 00000010H
	imul	ecx, 0
	add	ecx, DWORD PTR _A$[ebp]
	call	??AVector4@@QBEABMH@Z			; Vector4::operator[]
	mov	ecx, DWORD PTR _v$[ebp]
	movss	xmm0, DWORD PTR [eax]
	mulss	xmm0, DWORD PTR [ecx]
	push	1
	mov	ecx, 16					; 00000010H
	imul	ecx, 0
	add	ecx, DWORD PTR _A$[ebp]
	movss	DWORD PTR tv254[ebp], xmm0
	call	??AVector4@@QBEABMH@Z			; Vector4::operator[]
	mov	edx, DWORD PTR _v$[ebp]
	movss	xmm0, DWORD PTR [eax]
	mulss	xmm0, DWORD PTR [edx+4]
	movss	xmm1, DWORD PTR tv254[ebp]
	addss	xmm1, xmm0
	push	2
	mov	ecx, 16					; 00000010H
	imul	ecx, 0
	add	ecx, DWORD PTR _A$[ebp]
	movss	DWORD PTR tv256[ebp], xmm1
	call	??AVector4@@QBEABMH@Z			; Vector4::operator[]
	mov	ecx, DWORD PTR _v$[ebp]
	movss	xmm0, DWORD PTR [eax]
	mulss	xmm0, DWORD PTR [ecx+8]
	movss	xmm1, DWORD PTR tv256[ebp]
	addss	xmm1, xmm0
	push	3
	mov	ecx, 16					; 00000010H
	imul	ecx, 0
	add	ecx, DWORD PTR _A$[ebp]
	movss	DWORD PTR tv258[ebp], xmm1
	call	??AVector4@@QBEABMH@Z			; Vector4::operator[]
	movss	xmm0, DWORD PTR tv258[ebp]
	addss	xmm0, DWORD PTR [eax]
	mov	edx, DWORD PTR _out$[ebp]
	movss	DWORD PTR [edx], xmm0

; 516  : 		out->Y = (A.Row[1][0] * v->X + A.Row[1][1] * v->Y + A.Row[1][2] * v->Z + A.Row[1][3]);

	push	0
	mov	ecx, 16					; 00000010H
	shl	ecx, 0
	add	ecx, DWORD PTR _A$[ebp]
	call	??AVector4@@QBEABMH@Z			; Vector4::operator[]
	mov	ecx, DWORD PTR _v$[ebp]
	movss	xmm0, DWORD PTR [eax]
	mulss	xmm0, DWORD PTR [ecx]
	push	1
	mov	ecx, 16					; 00000010H
	shl	ecx, 0
	add	ecx, DWORD PTR _A$[ebp]
	movss	DWORD PTR tv260[ebp], xmm0
	call	??AVector4@@QBEABMH@Z			; Vector4::operator[]
	mov	edx, DWORD PTR _v$[ebp]
	movss	xmm0, DWORD PTR [eax]
	mulss	xmm0, DWORD PTR [edx+4]
	movss	xmm1, DWORD PTR tv260[ebp]
	addss	xmm1, xmm0
	push	2
	mov	ecx, 16					; 00000010H
	shl	ecx, 0
	add	ecx, DWORD PTR _A$[ebp]
	movss	DWORD PTR tv262[ebp], xmm1
	call	??AVector4@@QBEABMH@Z			; Vector4::operator[]
	mov	ecx, DWORD PTR _v$[ebp]
	movss	xmm0, DWORD PTR [eax]
	mulss	xmm0, DWORD PTR [ecx+8]
	movss	xmm1, DWORD PTR tv262[ebp]
	addss	xmm1, xmm0
	push	3
	mov	ecx, 16					; 00000010H
	shl	ecx, 0
	add	ecx, DWORD PTR _A$[ebp]
	movss	DWORD PTR tv264[ebp], xmm1
	call	??AVector4@@QBEABMH@Z			; Vector4::operator[]
	movss	xmm0, DWORD PTR tv264[ebp]
	addss	xmm0, DWORD PTR [eax]
	mov	edx, DWORD PTR _out$[ebp]
	movss	DWORD PTR [edx+4], xmm0

; 517  : 		out->Z = (A.Row[2][0] * v->X + A.Row[2][1] * v->Y + A.Row[2][2] * v->Z + A.Row[2][3]);

	push	0
	mov	ecx, 16					; 00000010H
	shl	ecx, 1
	add	ecx, DWORD PTR _A$[ebp]
	call	??AVector4@@QBEABMH@Z			; Vector4::operator[]
	mov	ecx, DWORD PTR _v$[ebp]
	movss	xmm0, DWORD PTR [eax]
	mulss	xmm0, DWORD PTR [ecx]
	push	1
	mov	ecx, 16					; 00000010H
	shl	ecx, 1
	add	ecx, DWORD PTR _A$[ebp]
	movss	DWORD PTR tv266[ebp], xmm0
	call	??AVector4@@QBEABMH@Z			; Vector4::operator[]
	mov	edx, DWORD PTR _v$[ebp]
	movss	xmm0, DWORD PTR [eax]
	mulss	xmm0, DWORD PTR [edx+4]
	movss	xmm1, DWORD PTR tv266[ebp]
	addss	xmm1, xmm0
	push	2
	mov	ecx, 16					; 00000010H
	shl	ecx, 1
	add	ecx, DWORD PTR _A$[ebp]
	movss	DWORD PTR tv268[ebp], xmm1
	call	??AVector4@@QBEABMH@Z			; Vector4::operator[]
	mov	ecx, DWORD PTR _v$[ebp]
	movss	xmm0, DWORD PTR [eax]
	mulss	xmm0, DWORD PTR [ecx+8]
	movss	xmm1, DWORD PTR tv268[ebp]
	addss	xmm1, xmm0
	push	3
	mov	ecx, 16					; 00000010H
	shl	ecx, 1
	add	ecx, DWORD PTR _A$[ebp]
	movss	DWORD PTR tv270[ebp], xmm1
	call	??AVector4@@QBEABMH@Z			; Vector4::operator[]
	movss	xmm0, DWORD PTR tv270[ebp]
	addss	xmm0, DWORD PTR [eax]
	mov	edx, DWORD PTR _out$[ebp]
	movss	DWORD PTR [edx+8], xmm0

; 518  :    }

	pop	edi
	pop	esi
	pop	ebx
	mov	esp, ebp
	pop	ebp
	ret	0
?Transform_Vector@Matrix3D@@SAXABV1@ABVVector3@@PAV2@@Z ENDP ; Matrix3D::Transform_Vector
_TEXT	ENDS
; Function compile flags: /Odtp /ZI
; File x:\github\renegade\dragonade_rxd\scripts\matrix3d.h
;	COMDAT ?In_Place_Pre_Rotate_Z@Matrix3D@@QAEXMM@Z
_TEXT	SEGMENT
tv245 = -80						; size = 4
tv243 = -80						; size = 4
tv241 = -80						; size = 4
tv239 = -80						; size = 4
tv237 = -80						; size = 4
tv235 = -80						; size = 4
_tmp2$ = -12						; size = 4
_tmp1$ = -8						; size = 4
_this$ = -4						; size = 4
_s$ = 8							; size = 4
_c$ = 12						; size = 4
?In_Place_Pre_Rotate_Z@Matrix3D@@QAEXMM@Z PROC		; Matrix3D::In_Place_Pre_Rotate_Z, COMDAT
; _this$ = ecx

; 486  : 	{

	push	ebp
	mov	ebp, esp
	sub	esp, 80					; 00000050H
	push	ebx
	push	esi
	push	edi
	mov	DWORD PTR _this$[ebp], ecx

; 487  : 		float tmp1,tmp2;
; 488  : 		tmp1 = Row[0][0]; tmp2 = Row[1][0];

	push	0
	mov	ecx, 16					; 00000010H
	imul	ecx, 0
	add	ecx, DWORD PTR _this$[ebp]
	call	??AVector4@@QAEAAMH@Z			; Vector4::operator[]
	movss	xmm0, DWORD PTR [eax]
	movss	DWORD PTR _tmp1$[ebp], xmm0
	push	0
	mov	ecx, 16					; 00000010H
	shl	ecx, 0
	add	ecx, DWORD PTR _this$[ebp]
	call	??AVector4@@QAEAAMH@Z			; Vector4::operator[]
	movss	xmm0, DWORD PTR [eax]
	movss	DWORD PTR _tmp2$[ebp], xmm0

; 489  : 		Row[0][0] = (float)(c*tmp1 - s*tmp2);

	movss	xmm0, DWORD PTR _c$[ebp]
	mulss	xmm0, DWORD PTR _tmp1$[ebp]
	movss	xmm1, DWORD PTR _s$[ebp]
	mulss	xmm1, DWORD PTR _tmp2$[ebp]
	subss	xmm0, xmm1
	push	0
	mov	ecx, 16					; 00000010H
	imul	ecx, 0
	add	ecx, DWORD PTR _this$[ebp]
	movss	DWORD PTR tv235[ebp], xmm0
	call	??AVector4@@QAEAAMH@Z			; Vector4::operator[]
	movss	xmm0, DWORD PTR tv235[ebp]
	movss	DWORD PTR [eax], xmm0

; 490  : 		Row[1][0] = (float)(s*tmp1 + c*tmp2);

	movss	xmm0, DWORD PTR _s$[ebp]
	mulss	xmm0, DWORD PTR _tmp1$[ebp]
	movss	xmm1, DWORD PTR _c$[ebp]
	mulss	xmm1, DWORD PTR _tmp2$[ebp]
	addss	xmm0, xmm1
	push	0
	mov	ecx, 16					; 00000010H
	shl	ecx, 0
	add	ecx, DWORD PTR _this$[ebp]
	movss	DWORD PTR tv237[ebp], xmm0
	call	??AVector4@@QAEAAMH@Z			; Vector4::operator[]
	movss	xmm0, DWORD PTR tv237[ebp]
	movss	DWORD PTR [eax], xmm0

; 491  : 		tmp1 = Row[0][1]; tmp2 = Row[1][1];

	push	1
	mov	ecx, 16					; 00000010H
	imul	ecx, 0
	add	ecx, DWORD PTR _this$[ebp]
	call	??AVector4@@QAEAAMH@Z			; Vector4::operator[]
	movss	xmm0, DWORD PTR [eax]
	movss	DWORD PTR _tmp1$[ebp], xmm0
	push	1
	mov	ecx, 16					; 00000010H
	shl	ecx, 0
	add	ecx, DWORD PTR _this$[ebp]
	call	??AVector4@@QAEAAMH@Z			; Vector4::operator[]
	movss	xmm0, DWORD PTR [eax]
	movss	DWORD PTR _tmp2$[ebp], xmm0

; 492  : 		Row[0][1] = (float)(c*tmp1 - s*tmp2);

	movss	xmm0, DWORD PTR _c$[ebp]
	mulss	xmm0, DWORD PTR _tmp1$[ebp]
	movss	xmm1, DWORD PTR _s$[ebp]
	mulss	xmm1, DWORD PTR _tmp2$[ebp]
	subss	xmm0, xmm1
	push	1
	mov	ecx, 16					; 00000010H
	imul	ecx, 0
	add	ecx, DWORD PTR _this$[ebp]
	movss	DWORD PTR tv239[ebp], xmm0
	call	??AVector4@@QAEAAMH@Z			; Vector4::operator[]
	movss	xmm0, DWORD PTR tv239[ebp]
	movss	DWORD PTR [eax], xmm0

; 493  : 		Row[1][1] = (float)(s*tmp1 + c*tmp2);

	movss	xmm0, DWORD PTR _s$[ebp]
	mulss	xmm0, DWORD PTR _tmp1$[ebp]
	movss	xmm1, DWORD PTR _c$[ebp]
	mulss	xmm1, DWORD PTR _tmp2$[ebp]
	addss	xmm0, xmm1
	push	1
	mov	ecx, 16					; 00000010H
	shl	ecx, 0
	add	ecx, DWORD PTR _this$[ebp]
	movss	DWORD PTR tv241[ebp], xmm0
	call	??AVector4@@QAEAAMH@Z			; Vector4::operator[]
	movss	xmm0, DWORD PTR tv241[ebp]
	movss	DWORD PTR [eax], xmm0

; 494  : 		tmp1 = Row[0][2]; tmp2 = Row[1][2];

	push	2
	mov	ecx, 16					; 00000010H
	imul	ecx, 0
	add	ecx, DWORD PTR _this$[ebp]
	call	??AVector4@@QAEAAMH@Z			; Vector4::operator[]
	movss	xmm0, DWORD PTR [eax]
	movss	DWORD PTR _tmp1$[ebp], xmm0
	push	2
	mov	ecx, 16					; 00000010H
	shl	ecx, 0
	add	ecx, DWORD PTR _this$[ebp]
	call	??AVector4@@QAEAAMH@Z			; Vector4::operator[]
	movss	xmm0, DWORD PTR [eax]
	movss	DWORD PTR _tmp2$[ebp], xmm0

; 495  : 		Row[0][2] = (float)(c*tmp1 - s*tmp2);

	movss	xmm0, DWORD PTR _c$[ebp]
	mulss	xmm0, DWORD PTR _tmp1$[ebp]
	movss	xmm1, DWORD PTR _s$[ebp]
	mulss	xmm1, DWORD PTR _tmp2$[ebp]
	subss	xmm0, xmm1
	push	2
	mov	ecx, 16					; 00000010H
	imul	ecx, 0
	add	ecx, DWORD PTR _this$[ebp]
	movss	DWORD PTR tv243[ebp], xmm0
	call	??AVector4@@QAEAAMH@Z			; Vector4::operator[]
	movss	xmm0, DWORD PTR tv243[ebp]
	movss	DWORD PTR [eax], xmm0

; 496  : 		Row[1][2] = (float)(s*tmp1 + c*tmp2);

	movss	xmm0, DWORD PTR _s$[ebp]
	mulss	xmm0, DWORD PTR _tmp1$[ebp]
	movss	xmm1, DWORD PTR _c$[ebp]
	mulss	xmm1, DWORD PTR _tmp2$[ebp]
	addss	xmm0, xmm1
	push	2
	mov	ecx, 16					; 00000010H
	shl	ecx, 0
	add	ecx, DWORD PTR _this$[ebp]
	movss	DWORD PTR tv245[ebp], xmm0
	call	??AVector4@@QAEAAMH@Z			; Vector4::operator[]
	movss	xmm0, DWORD PTR tv245[ebp]
	movss	DWORD PTR [eax], xmm0

; 497  : 	}

	pop	edi
	pop	esi
	pop	ebx
	mov	esp, ebp
	pop	ebp
	ret	8
?In_Place_Pre_Rotate_Z@Matrix3D@@QAEXMM@Z ENDP		; Matrix3D::In_Place_Pre_Rotate_Z
_TEXT	ENDS
; Function compile flags: /Odtp /ZI
; File x:\github\renegade\dragonade_rxd\scripts\matrix3d.h
;	COMDAT ?In_Place_Pre_Rotate_Y@Matrix3D@@QAEXMM@Z
_TEXT	SEGMENT
tv248 = -80						; size = 4
tv246 = -80						; size = 4
tv244 = -80						; size = 4
tv242 = -80						; size = 4
tv240 = -80						; size = 4
tv238 = -80						; size = 4
_tmp2$ = -12						; size = 4
_tmp1$ = -8						; size = 4
_this$ = -4						; size = 4
_s$ = 8							; size = 4
_c$ = 12						; size = 4
?In_Place_Pre_Rotate_Y@Matrix3D@@QAEXMM@Z PROC		; Matrix3D::In_Place_Pre_Rotate_Y, COMDAT
; _this$ = ecx

; 473  : 	{

	push	ebp
	mov	ebp, esp
	sub	esp, 80					; 00000050H
	push	ebx
	push	esi
	push	edi
	mov	DWORD PTR _this$[ebp], ecx

; 474  : 		float tmp1,tmp2;
; 475  : 		tmp1 = Row[0][0]; tmp2 = Row[2][0];

	push	0
	mov	ecx, 16					; 00000010H
	imul	ecx, 0
	add	ecx, DWORD PTR _this$[ebp]
	call	??AVector4@@QAEAAMH@Z			; Vector4::operator[]
	movss	xmm0, DWORD PTR [eax]
	movss	DWORD PTR _tmp1$[ebp], xmm0
	push	0
	mov	ecx, 16					; 00000010H
	shl	ecx, 1
	add	ecx, DWORD PTR _this$[ebp]
	call	??AVector4@@QAEAAMH@Z			; Vector4::operator[]
	movss	xmm0, DWORD PTR [eax]
	movss	DWORD PTR _tmp2$[ebp], xmm0

; 476  : 		Row[0][0] = (float)( c*tmp1 + s*tmp2);

	movss	xmm0, DWORD PTR _c$[ebp]
	mulss	xmm0, DWORD PTR _tmp1$[ebp]
	movss	xmm1, DWORD PTR _s$[ebp]
	mulss	xmm1, DWORD PTR _tmp2$[ebp]
	addss	xmm0, xmm1
	push	0
	mov	ecx, 16					; 00000010H
	imul	ecx, 0
	add	ecx, DWORD PTR _this$[ebp]
	movss	DWORD PTR tv238[ebp], xmm0
	call	??AVector4@@QAEAAMH@Z			; Vector4::operator[]
	movss	xmm0, DWORD PTR tv238[ebp]
	movss	DWORD PTR [eax], xmm0

; 477  : 		Row[2][0] = (float)(-s*tmp1 + c*tmp2);

	movss	xmm0, DWORD PTR _s$[ebp]
	xorps	xmm0, DWORD PTR __xmm@80000000800000008000000080000000
	mulss	xmm0, DWORD PTR _tmp1$[ebp]
	movss	xmm1, DWORD PTR _c$[ebp]
	mulss	xmm1, DWORD PTR _tmp2$[ebp]
	addss	xmm0, xmm1
	push	0
	mov	ecx, 16					; 00000010H
	shl	ecx, 1
	add	ecx, DWORD PTR _this$[ebp]
	movss	DWORD PTR tv240[ebp], xmm0
	call	??AVector4@@QAEAAMH@Z			; Vector4::operator[]
	movss	xmm0, DWORD PTR tv240[ebp]
	movss	DWORD PTR [eax], xmm0

; 478  : 		tmp1 = Row[0][1]; tmp2 = Row[2][1];

	push	1
	mov	ecx, 16					; 00000010H
	imul	ecx, 0
	add	ecx, DWORD PTR _this$[ebp]
	call	??AVector4@@QAEAAMH@Z			; Vector4::operator[]
	movss	xmm0, DWORD PTR [eax]
	movss	DWORD PTR _tmp1$[ebp], xmm0
	push	1
	mov	ecx, 16					; 00000010H
	shl	ecx, 1
	add	ecx, DWORD PTR _this$[ebp]
	call	??AVector4@@QAEAAMH@Z			; Vector4::operator[]
	movss	xmm0, DWORD PTR [eax]
	movss	DWORD PTR _tmp2$[ebp], xmm0

; 479  : 		Row[0][1] = (float)( c*tmp1 + s*tmp2);

	movss	xmm0, DWORD PTR _c$[ebp]
	mulss	xmm0, DWORD PTR _tmp1$[ebp]
	movss	xmm1, DWORD PTR _s$[ebp]
	mulss	xmm1, DWORD PTR _tmp2$[ebp]
	addss	xmm0, xmm1
	push	1
	mov	ecx, 16					; 00000010H
	imul	ecx, 0
	add	ecx, DWORD PTR _this$[ebp]
	movss	DWORD PTR tv242[ebp], xmm0
	call	??AVector4@@QAEAAMH@Z			; Vector4::operator[]
	movss	xmm0, DWORD PTR tv242[ebp]
	movss	DWORD PTR [eax], xmm0

; 480  : 		Row[2][1] = (float)(-s*tmp1 + c*tmp2);

	movss	xmm0, DWORD PTR _s$[ebp]
	xorps	xmm0, DWORD PTR __xmm@80000000800000008000000080000000
	mulss	xmm0, DWORD PTR _tmp1$[ebp]
	movss	xmm1, DWORD PTR _c$[ebp]
	mulss	xmm1, DWORD PTR _tmp2$[ebp]
	addss	xmm0, xmm1
	push	1
	mov	ecx, 16					; 00000010H
	shl	ecx, 1
	add	ecx, DWORD PTR _this$[ebp]
	movss	DWORD PTR tv244[ebp], xmm0
	call	??AVector4@@QAEAAMH@Z			; Vector4::operator[]
	movss	xmm0, DWORD PTR tv244[ebp]
	movss	DWORD PTR [eax], xmm0

; 481  : 		tmp1 = Row[0][2]; tmp2 = Row[2][2];

	push	2
	mov	ecx, 16					; 00000010H
	imul	ecx, 0
	add	ecx, DWORD PTR _this$[ebp]
	call	??AVector4@@QAEAAMH@Z			; Vector4::operator[]
	movss	xmm0, DWORD PTR [eax]
	movss	DWORD PTR _tmp1$[ebp], xmm0
	push	2
	mov	ecx, 16					; 00000010H
	shl	ecx, 1
	add	ecx, DWORD PTR _this$[ebp]
	call	??AVector4@@QAEAAMH@Z			; Vector4::operator[]
	movss	xmm0, DWORD PTR [eax]
	movss	DWORD PTR _tmp2$[ebp], xmm0

; 482  : 		Row[0][2] = (float)( c*tmp1 + s*tmp2);

	movss	xmm0, DWORD PTR _c$[ebp]
	mulss	xmm0, DWORD PTR _tmp1$[ebp]
	movss	xmm1, DWORD PTR _s$[ebp]
	mulss	xmm1, DWORD PTR _tmp2$[ebp]
	addss	xmm0, xmm1
	push	2
	mov	ecx, 16					; 00000010H
	imul	ecx, 0
	add	ecx, DWORD PTR _this$[ebp]
	movss	DWORD PTR tv246[ebp], xmm0
	call	??AVector4@@QAEAAMH@Z			; Vector4::operator[]
	movss	xmm0, DWORD PTR tv246[ebp]
	movss	DWORD PTR [eax], xmm0

; 483  : 		Row[2][2] = (float)(-s*tmp1 + c*tmp2);

	movss	xmm0, DWORD PTR _s$[ebp]
	xorps	xmm0, DWORD PTR __xmm@80000000800000008000000080000000
	mulss	xmm0, DWORD PTR _tmp1$[ebp]
	movss	xmm1, DWORD PTR _c$[ebp]
	mulss	xmm1, DWORD PTR _tmp2$[ebp]
	addss	xmm0, xmm1
	push	2
	mov	ecx, 16					; 00000010H
	shl	ecx, 1
	add	ecx, DWORD PTR _this$[ebp]
	movss	DWORD PTR tv248[ebp], xmm0
	call	??AVector4@@QAEAAMH@Z			; Vector4::operator[]
	movss	xmm0, DWORD PTR tv248[ebp]
	movss	DWORD PTR [eax], xmm0

; 484  : 	}

	pop	edi
	pop	esi
	pop	ebx
	mov	esp, ebp
	pop	ebp
	ret	8
?In_Place_Pre_Rotate_Y@Matrix3D@@QAEXMM@Z ENDP		; Matrix3D::In_Place_Pre_Rotate_Y
_TEXT	ENDS
; Function compile flags: /Odtp /ZI
; File x:\github\renegade\dragonade_rxd\scripts\matrix3d.h
;	COMDAT ?In_Place_Pre_Rotate_X@Matrix3D@@QAEXMM@Z
_TEXT	SEGMENT
tv245 = -80						; size = 4
tv243 = -80						; size = 4
tv241 = -80						; size = 4
tv239 = -80						; size = 4
tv237 = -80						; size = 4
tv235 = -80						; size = 4
_tmp2$ = -12						; size = 4
_tmp1$ = -8						; size = 4
_this$ = -4						; size = 4
_s$ = 8							; size = 4
_c$ = 12						; size = 4
?In_Place_Pre_Rotate_X@Matrix3D@@QAEXMM@Z PROC		; Matrix3D::In_Place_Pre_Rotate_X, COMDAT
; _this$ = ecx

; 460  : 	{

	push	ebp
	mov	ebp, esp
	sub	esp, 80					; 00000050H
	push	ebx
	push	esi
	push	edi
	mov	DWORD PTR _this$[ebp], ecx

; 461  : 		float tmp1,tmp2;
; 462  : 		tmp1 = Row[1][0]; tmp2 = Row[2][0];

	push	0
	mov	ecx, 16					; 00000010H
	shl	ecx, 0
	add	ecx, DWORD PTR _this$[ebp]
	call	??AVector4@@QAEAAMH@Z			; Vector4::operator[]
	movss	xmm0, DWORD PTR [eax]
	movss	DWORD PTR _tmp1$[ebp], xmm0
	push	0
	mov	ecx, 16					; 00000010H
	shl	ecx, 1
	add	ecx, DWORD PTR _this$[ebp]
	call	??AVector4@@QAEAAMH@Z			; Vector4::operator[]
	movss	xmm0, DWORD PTR [eax]
	movss	DWORD PTR _tmp2$[ebp], xmm0

; 463  : 		Row[1][0] = (float)(c*tmp1 - s*tmp2);

	movss	xmm0, DWORD PTR _c$[ebp]
	mulss	xmm0, DWORD PTR _tmp1$[ebp]
	movss	xmm1, DWORD PTR _s$[ebp]
	mulss	xmm1, DWORD PTR _tmp2$[ebp]
	subss	xmm0, xmm1
	push	0
	mov	ecx, 16					; 00000010H
	shl	ecx, 0
	add	ecx, DWORD PTR _this$[ebp]
	movss	DWORD PTR tv235[ebp], xmm0
	call	??AVector4@@QAEAAMH@Z			; Vector4::operator[]
	movss	xmm0, DWORD PTR tv235[ebp]
	movss	DWORD PTR [eax], xmm0

; 464  : 		Row[2][0] = (float)(s*tmp1 + c*tmp2);

	movss	xmm0, DWORD PTR _s$[ebp]
	mulss	xmm0, DWORD PTR _tmp1$[ebp]
	movss	xmm1, DWORD PTR _c$[ebp]
	mulss	xmm1, DWORD PTR _tmp2$[ebp]
	addss	xmm0, xmm1
	push	0
	mov	ecx, 16					; 00000010H
	shl	ecx, 1
	add	ecx, DWORD PTR _this$[ebp]
	movss	DWORD PTR tv237[ebp], xmm0
	call	??AVector4@@QAEAAMH@Z			; Vector4::operator[]
	movss	xmm0, DWORD PTR tv237[ebp]
	movss	DWORD PTR [eax], xmm0

; 465  : 		tmp1 = Row[1][1]; tmp2 = Row[2][1];

	push	1
	mov	ecx, 16					; 00000010H
	shl	ecx, 0
	add	ecx, DWORD PTR _this$[ebp]
	call	??AVector4@@QAEAAMH@Z			; Vector4::operator[]
	movss	xmm0, DWORD PTR [eax]
	movss	DWORD PTR _tmp1$[ebp], xmm0
	push	1
	mov	ecx, 16					; 00000010H
	shl	ecx, 1
	add	ecx, DWORD PTR _this$[ebp]
	call	??AVector4@@QAEAAMH@Z			; Vector4::operator[]
	movss	xmm0, DWORD PTR [eax]
	movss	DWORD PTR _tmp2$[ebp], xmm0

; 466  : 		Row[1][1] = (float)(c*tmp1 - s*tmp2);

	movss	xmm0, DWORD PTR _c$[ebp]
	mulss	xmm0, DWORD PTR _tmp1$[ebp]
	movss	xmm1, DWORD PTR _s$[ebp]
	mulss	xmm1, DWORD PTR _tmp2$[ebp]
	subss	xmm0, xmm1
	push	1
	mov	ecx, 16					; 00000010H
	shl	ecx, 0
	add	ecx, DWORD PTR _this$[ebp]
	movss	DWORD PTR tv239[ebp], xmm0
	call	??AVector4@@QAEAAMH@Z			; Vector4::operator[]
	movss	xmm0, DWORD PTR tv239[ebp]
	movss	DWORD PTR [eax], xmm0

; 467  : 		Row[2][1] = (float)(s*tmp1 + c*tmp2);

	movss	xmm0, DWORD PTR _s$[ebp]
	mulss	xmm0, DWORD PTR _tmp1$[ebp]
	movss	xmm1, DWORD PTR _c$[ebp]
	mulss	xmm1, DWORD PTR _tmp2$[ebp]
	addss	xmm0, xmm1
	push	1
	mov	ecx, 16					; 00000010H
	shl	ecx, 1
	add	ecx, DWORD PTR _this$[ebp]
	movss	DWORD PTR tv241[ebp], xmm0
	call	??AVector4@@QAEAAMH@Z			; Vector4::operator[]
	movss	xmm0, DWORD PTR tv241[ebp]
	movss	DWORD PTR [eax], xmm0

; 468  : 		tmp1 = Row[1][2]; tmp2 = Row[2][2];

	push	2
	mov	ecx, 16					; 00000010H
	shl	ecx, 0
	add	ecx, DWORD PTR _this$[ebp]
	call	??AVector4@@QAEAAMH@Z			; Vector4::operator[]
	movss	xmm0, DWORD PTR [eax]
	movss	DWORD PTR _tmp1$[ebp], xmm0
	push	2
	mov	ecx, 16					; 00000010H
	shl	ecx, 1
	add	ecx, DWORD PTR _this$[ebp]
	call	??AVector4@@QAEAAMH@Z			; Vector4::operator[]
	movss	xmm0, DWORD PTR [eax]
	movss	DWORD PTR _tmp2$[ebp], xmm0

; 469  : 		Row[1][2] = (float)(c*tmp1 - s*tmp2);

	movss	xmm0, DWORD PTR _c$[ebp]
	mulss	xmm0, DWORD PTR _tmp1$[ebp]
	movss	xmm1, DWORD PTR _s$[ebp]
	mulss	xmm1, DWORD PTR _tmp2$[ebp]
	subss	xmm0, xmm1
	push	2
	mov	ecx, 16					; 00000010H
	shl	ecx, 0
	add	ecx, DWORD PTR _this$[ebp]
	movss	DWORD PTR tv243[ebp], xmm0
	call	??AVector4@@QAEAAMH@Z			; Vector4::operator[]
	movss	xmm0, DWORD PTR tv243[ebp]
	movss	DWORD PTR [eax], xmm0

; 470  : 		Row[2][2] = (float)(s*tmp1 + c*tmp2);

	movss	xmm0, DWORD PTR _s$[ebp]
	mulss	xmm0, DWORD PTR _tmp1$[ebp]
	movss	xmm1, DWORD PTR _c$[ebp]
	mulss	xmm1, DWORD PTR _tmp2$[ebp]
	addss	xmm0, xmm1
	push	2
	mov	ecx, 16					; 00000010H
	shl	ecx, 1
	add	ecx, DWORD PTR _this$[ebp]
	movss	DWORD PTR tv245[ebp], xmm0
	call	??AVector4@@QAEAAMH@Z			; Vector4::operator[]
	movss	xmm0, DWORD PTR tv245[ebp]
	movss	DWORD PTR [eax], xmm0

; 471  : 	}

	pop	edi
	pop	esi
	pop	ebx
	mov	esp, ebp
	pop	ebp
	ret	8
?In_Place_Pre_Rotate_X@Matrix3D@@QAEXMM@Z ENDP		; Matrix3D::In_Place_Pre_Rotate_X
_TEXT	ENDS
; Function compile flags: /Odtp /ZI
; File x:\github\renegade\dragonade_rxd\scripts\matrix3d.h
;	COMDAT ?In_Place_Pre_Rotate_Z@Matrix3D@@QAEXM@Z
_TEXT	SEGMENT
tv257 = -88						; size = 4
tv255 = -88						; size = 4
tv253 = -88						; size = 4
tv251 = -88						; size = 4
tv249 = -88						; size = 4
tv247 = -88						; size = 4
_s$ = -20						; size = 4
_c$ = -16						; size = 4
_tmp2$ = -12						; size = 4
_tmp1$ = -8						; size = 4
_this$ = -4						; size = 4
_theta$ = 8						; size = 4
?In_Place_Pre_Rotate_Z@Matrix3D@@QAEXM@Z PROC		; Matrix3D::In_Place_Pre_Rotate_Z, COMDAT
; _this$ = ecx

; 444  : 	{

	push	ebp
	mov	ebp, esp
	sub	esp, 88					; 00000058H
	push	ebx
	push	esi
	push	edi
	mov	DWORD PTR _this$[ebp], ecx

; 445  : 		float tmp1,tmp2;
; 446  : 		float c,s;
; 447  : 		c = cosf(theta);

	push	ecx
	movss	xmm0, DWORD PTR _theta$[ebp]
	movss	DWORD PTR [esp], xmm0
	call	_cosf
	add	esp, 4
	fstp	DWORD PTR _c$[ebp]

; 448  : 		s = sinf(theta);

	push	ecx
	movss	xmm0, DWORD PTR _theta$[ebp]
	movss	DWORD PTR [esp], xmm0
	call	_sinf
	add	esp, 4
	fstp	DWORD PTR _s$[ebp]

; 449  : 		tmp1 = Row[0][0]; tmp2 = Row[1][0];

	push	0
	mov	ecx, 16					; 00000010H
	imul	ecx, 0
	add	ecx, DWORD PTR _this$[ebp]
	call	??AVector4@@QAEAAMH@Z			; Vector4::operator[]
	movss	xmm0, DWORD PTR [eax]
	movss	DWORD PTR _tmp1$[ebp], xmm0
	push	0
	mov	ecx, 16					; 00000010H
	shl	ecx, 0
	add	ecx, DWORD PTR _this$[ebp]
	call	??AVector4@@QAEAAMH@Z			; Vector4::operator[]
	movss	xmm0, DWORD PTR [eax]
	movss	DWORD PTR _tmp2$[ebp], xmm0

; 450  : 		Row[0][0] = (float)(c*tmp1 - s*tmp2);

	movss	xmm0, DWORD PTR _c$[ebp]
	mulss	xmm0, DWORD PTR _tmp1$[ebp]
	movss	xmm1, DWORD PTR _s$[ebp]
	mulss	xmm1, DWORD PTR _tmp2$[ebp]
	subss	xmm0, xmm1
	push	0
	mov	ecx, 16					; 00000010H
	imul	ecx, 0
	add	ecx, DWORD PTR _this$[ebp]
	movss	DWORD PTR tv247[ebp], xmm0
	call	??AVector4@@QAEAAMH@Z			; Vector4::operator[]
	movss	xmm0, DWORD PTR tv247[ebp]
	movss	DWORD PTR [eax], xmm0

; 451  : 		Row[1][0] = (float)(s*tmp1 + c*tmp2);

	movss	xmm0, DWORD PTR _s$[ebp]
	mulss	xmm0, DWORD PTR _tmp1$[ebp]
	movss	xmm1, DWORD PTR _c$[ebp]
	mulss	xmm1, DWORD PTR _tmp2$[ebp]
	addss	xmm0, xmm1
	push	0
	mov	ecx, 16					; 00000010H
	shl	ecx, 0
	add	ecx, DWORD PTR _this$[ebp]
	movss	DWORD PTR tv249[ebp], xmm0
	call	??AVector4@@QAEAAMH@Z			; Vector4::operator[]
	movss	xmm0, DWORD PTR tv249[ebp]
	movss	DWORD PTR [eax], xmm0

; 452  : 		tmp1 = Row[0][1]; tmp2 = Row[1][1];

	push	1
	mov	ecx, 16					; 00000010H
	imul	ecx, 0
	add	ecx, DWORD PTR _this$[ebp]
	call	??AVector4@@QAEAAMH@Z			; Vector4::operator[]
	movss	xmm0, DWORD PTR [eax]
	movss	DWORD PTR _tmp1$[ebp], xmm0
	push	1
	mov	ecx, 16					; 00000010H
	shl	ecx, 0
	add	ecx, DWORD PTR _this$[ebp]
	call	??AVector4@@QAEAAMH@Z			; Vector4::operator[]
	movss	xmm0, DWORD PTR [eax]
	movss	DWORD PTR _tmp2$[ebp], xmm0

; 453  : 		Row[0][1] = (float)(c*tmp1 - s*tmp2);

	movss	xmm0, DWORD PTR _c$[ebp]
	mulss	xmm0, DWORD PTR _tmp1$[ebp]
	movss	xmm1, DWORD PTR _s$[ebp]
	mulss	xmm1, DWORD PTR _tmp2$[ebp]
	subss	xmm0, xmm1
	push	1
	mov	ecx, 16					; 00000010H
	imul	ecx, 0
	add	ecx, DWORD PTR _this$[ebp]
	movss	DWORD PTR tv251[ebp], xmm0
	call	??AVector4@@QAEAAMH@Z			; Vector4::operator[]
	movss	xmm0, DWORD PTR tv251[ebp]
	movss	DWORD PTR [eax], xmm0

; 454  : 		Row[1][1] = (float)(s*tmp1 + c*tmp2);

	movss	xmm0, DWORD PTR _s$[ebp]
	mulss	xmm0, DWORD PTR _tmp1$[ebp]
	movss	xmm1, DWORD PTR _c$[ebp]
	mulss	xmm1, DWORD PTR _tmp2$[ebp]
	addss	xmm0, xmm1
	push	1
	mov	ecx, 16					; 00000010H
	shl	ecx, 0
	add	ecx, DWORD PTR _this$[ebp]
	movss	DWORD PTR tv253[ebp], xmm0
	call	??AVector4@@QAEAAMH@Z			; Vector4::operator[]
	movss	xmm0, DWORD PTR tv253[ebp]
	movss	DWORD PTR [eax], xmm0

; 455  : 		tmp1 = Row[0][2]; tmp2 = Row[1][2];

	push	2
	mov	ecx, 16					; 00000010H
	imul	ecx, 0
	add	ecx, DWORD PTR _this$[ebp]
	call	??AVector4@@QAEAAMH@Z			; Vector4::operator[]
	movss	xmm0, DWORD PTR [eax]
	movss	DWORD PTR _tmp1$[ebp], xmm0
	push	2
	mov	ecx, 16					; 00000010H
	shl	ecx, 0
	add	ecx, DWORD PTR _this$[ebp]
	call	??AVector4@@QAEAAMH@Z			; Vector4::operator[]
	movss	xmm0, DWORD PTR [eax]
	movss	DWORD PTR _tmp2$[ebp], xmm0

; 456  : 		Row[0][2] = (float)(c*tmp1 - s*tmp2);

	movss	xmm0, DWORD PTR _c$[ebp]
	mulss	xmm0, DWORD PTR _tmp1$[ebp]
	movss	xmm1, DWORD PTR _s$[ebp]
	mulss	xmm1, DWORD PTR _tmp2$[ebp]
	subss	xmm0, xmm1
	push	2
	mov	ecx, 16					; 00000010H
	imul	ecx, 0
	add	ecx, DWORD PTR _this$[ebp]
	movss	DWORD PTR tv255[ebp], xmm0
	call	??AVector4@@QAEAAMH@Z			; Vector4::operator[]
	movss	xmm0, DWORD PTR tv255[ebp]
	movss	DWORD PTR [eax], xmm0

; 457  : 		Row[1][2] = (float)(s*tmp1 + c*tmp2);

	movss	xmm0, DWORD PTR _s$[ebp]
	mulss	xmm0, DWORD PTR _tmp1$[ebp]
	movss	xmm1, DWORD PTR _c$[ebp]
	mulss	xmm1, DWORD PTR _tmp2$[ebp]
	addss	xmm0, xmm1
	push	2
	mov	ecx, 16					; 00000010H
	shl	ecx, 0
	add	ecx, DWORD PTR _this$[ebp]
	movss	DWORD PTR tv257[ebp], xmm0
	call	??AVector4@@QAEAAMH@Z			; Vector4::operator[]
	movss	xmm0, DWORD PTR tv257[ebp]
	movss	DWORD PTR [eax], xmm0

; 458  : 	}

	pop	edi
	pop	esi
	pop	ebx
	mov	esp, ebp
	pop	ebp
	ret	4
?In_Place_Pre_Rotate_Z@Matrix3D@@QAEXM@Z ENDP		; Matrix3D::In_Place_Pre_Rotate_Z
_TEXT	ENDS
; Function compile flags: /Odtp /ZI
; File x:\github\renegade\dragonade_rxd\scripts\matrix3d.h
;	COMDAT ?In_Place_Pre_Rotate_Y@Matrix3D@@QAEXM@Z
_TEXT	SEGMENT
tv260 = -88						; size = 4
tv258 = -88						; size = 4
tv256 = -88						; size = 4
tv254 = -88						; size = 4
tv252 = -88						; size = 4
tv250 = -88						; size = 4
_s$ = -20						; size = 4
_c$ = -16						; size = 4
_tmp2$ = -12						; size = 4
_tmp1$ = -8						; size = 4
_this$ = -4						; size = 4
_theta$ = 8						; size = 4
?In_Place_Pre_Rotate_Y@Matrix3D@@QAEXM@Z PROC		; Matrix3D::In_Place_Pre_Rotate_Y, COMDAT
; _this$ = ecx

; 428  : 	{

	push	ebp
	mov	ebp, esp
	sub	esp, 88					; 00000058H
	push	ebx
	push	esi
	push	edi
	mov	DWORD PTR _this$[ebp], ecx

; 429  : 		float tmp1,tmp2;
; 430  : 		float c,s;
; 431  : 		c = cosf(theta);

	push	ecx
	movss	xmm0, DWORD PTR _theta$[ebp]
	movss	DWORD PTR [esp], xmm0
	call	_cosf
	add	esp, 4
	fstp	DWORD PTR _c$[ebp]

; 432  : 		s = sinf(theta);

	push	ecx
	movss	xmm0, DWORD PTR _theta$[ebp]
	movss	DWORD PTR [esp], xmm0
	call	_sinf
	add	esp, 4
	fstp	DWORD PTR _s$[ebp]

; 433  : 		tmp1 = Row[0][0]; tmp2 = Row[2][0];

	push	0
	mov	ecx, 16					; 00000010H
	imul	ecx, 0
	add	ecx, DWORD PTR _this$[ebp]
	call	??AVector4@@QAEAAMH@Z			; Vector4::operator[]
	movss	xmm0, DWORD PTR [eax]
	movss	DWORD PTR _tmp1$[ebp], xmm0
	push	0
	mov	ecx, 16					; 00000010H
	shl	ecx, 1
	add	ecx, DWORD PTR _this$[ebp]
	call	??AVector4@@QAEAAMH@Z			; Vector4::operator[]
	movss	xmm0, DWORD PTR [eax]
	movss	DWORD PTR _tmp2$[ebp], xmm0

; 434  : 		Row[0][0] = (float)( c*tmp1 + s*tmp2);

	movss	xmm0, DWORD PTR _c$[ebp]
	mulss	xmm0, DWORD PTR _tmp1$[ebp]
	movss	xmm1, DWORD PTR _s$[ebp]
	mulss	xmm1, DWORD PTR _tmp2$[ebp]
	addss	xmm0, xmm1
	push	0
	mov	ecx, 16					; 00000010H
	imul	ecx, 0
	add	ecx, DWORD PTR _this$[ebp]
	movss	DWORD PTR tv250[ebp], xmm0
	call	??AVector4@@QAEAAMH@Z			; Vector4::operator[]
	movss	xmm0, DWORD PTR tv250[ebp]
	movss	DWORD PTR [eax], xmm0

; 435  : 		Row[2][0] = (float)(-s*tmp1 + c*tmp2);

	movss	xmm0, DWORD PTR _s$[ebp]
	xorps	xmm0, DWORD PTR __xmm@80000000800000008000000080000000
	mulss	xmm0, DWORD PTR _tmp1$[ebp]
	movss	xmm1, DWORD PTR _c$[ebp]
	mulss	xmm1, DWORD PTR _tmp2$[ebp]
	addss	xmm0, xmm1
	push	0
	mov	ecx, 16					; 00000010H
	shl	ecx, 1
	add	ecx, DWORD PTR _this$[ebp]
	movss	DWORD PTR tv252[ebp], xmm0
	call	??AVector4@@QAEAAMH@Z			; Vector4::operator[]
	movss	xmm0, DWORD PTR tv252[ebp]
	movss	DWORD PTR [eax], xmm0

; 436  : 		tmp1 = Row[0][1]; tmp2 = Row[2][1];

	push	1
	mov	ecx, 16					; 00000010H
	imul	ecx, 0
	add	ecx, DWORD PTR _this$[ebp]
	call	??AVector4@@QAEAAMH@Z			; Vector4::operator[]
	movss	xmm0, DWORD PTR [eax]
	movss	DWORD PTR _tmp1$[ebp], xmm0
	push	1
	mov	ecx, 16					; 00000010H
	shl	ecx, 1
	add	ecx, DWORD PTR _this$[ebp]
	call	??AVector4@@QAEAAMH@Z			; Vector4::operator[]
	movss	xmm0, DWORD PTR [eax]
	movss	DWORD PTR _tmp2$[ebp], xmm0

; 437  : 		Row[0][1] = (float)( c*tmp1 + s*tmp2);

	movss	xmm0, DWORD PTR _c$[ebp]
	mulss	xmm0, DWORD PTR _tmp1$[ebp]
	movss	xmm1, DWORD PTR _s$[ebp]
	mulss	xmm1, DWORD PTR _tmp2$[ebp]
	addss	xmm0, xmm1
	push	1
	mov	ecx, 16					; 00000010H
	imul	ecx, 0
	add	ecx, DWORD PTR _this$[ebp]
	movss	DWORD PTR tv254[ebp], xmm0
	call	??AVector4@@QAEAAMH@Z			; Vector4::operator[]
	movss	xmm0, DWORD PTR tv254[ebp]
	movss	DWORD PTR [eax], xmm0

; 438  : 		Row[2][1] = (float)(-s*tmp1 + c*tmp2);

	movss	xmm0, DWORD PTR _s$[ebp]
	xorps	xmm0, DWORD PTR __xmm@80000000800000008000000080000000
	mulss	xmm0, DWORD PTR _tmp1$[ebp]
	movss	xmm1, DWORD PTR _c$[ebp]
	mulss	xmm1, DWORD PTR _tmp2$[ebp]
	addss	xmm0, xmm1
	push	1
	mov	ecx, 16					; 00000010H
	shl	ecx, 1
	add	ecx, DWORD PTR _this$[ebp]
	movss	DWORD PTR tv256[ebp], xmm0
	call	??AVector4@@QAEAAMH@Z			; Vector4::operator[]
	movss	xmm0, DWORD PTR tv256[ebp]
	movss	DWORD PTR [eax], xmm0

; 439  : 		tmp1 = Row[0][2]; tmp2 = Row[2][2];

	push	2
	mov	ecx, 16					; 00000010H
	imul	ecx, 0
	add	ecx, DWORD PTR _this$[ebp]
	call	??AVector4@@QAEAAMH@Z			; Vector4::operator[]
	movss	xmm0, DWORD PTR [eax]
	movss	DWORD PTR _tmp1$[ebp], xmm0
	push	2
	mov	ecx, 16					; 00000010H
	shl	ecx, 1
	add	ecx, DWORD PTR _this$[ebp]
	call	??AVector4@@QAEAAMH@Z			; Vector4::operator[]
	movss	xmm0, DWORD PTR [eax]
	movss	DWORD PTR _tmp2$[ebp], xmm0

; 440  : 		Row[0][2] = (float)( c*tmp1 + s*tmp2);

	movss	xmm0, DWORD PTR _c$[ebp]
	mulss	xmm0, DWORD PTR _tmp1$[ebp]
	movss	xmm1, DWORD PTR _s$[ebp]
	mulss	xmm1, DWORD PTR _tmp2$[ebp]
	addss	xmm0, xmm1
	push	2
	mov	ecx, 16					; 00000010H
	imul	ecx, 0
	add	ecx, DWORD PTR _this$[ebp]
	movss	DWORD PTR tv258[ebp], xmm0
	call	??AVector4@@QAEAAMH@Z			; Vector4::operator[]
	movss	xmm0, DWORD PTR tv258[ebp]
	movss	DWORD PTR [eax], xmm0

; 441  : 		Row[2][2] = (float)(-s*tmp1 + c*tmp2);

	movss	xmm0, DWORD PTR _s$[ebp]
	xorps	xmm0, DWORD PTR __xmm@80000000800000008000000080000000
	mulss	xmm0, DWORD PTR _tmp1$[ebp]
	movss	xmm1, DWORD PTR _c$[ebp]
	mulss	xmm1, DWORD PTR _tmp2$[ebp]
	addss	xmm0, xmm1
	push	2
	mov	ecx, 16					; 00000010H
	shl	ecx, 1
	add	ecx, DWORD PTR _this$[ebp]
	movss	DWORD PTR tv260[ebp], xmm0
	call	??AVector4@@QAEAAMH@Z			; Vector4::operator[]
	movss	xmm0, DWORD PTR tv260[ebp]
	movss	DWORD PTR [eax], xmm0

; 442  : 	}

	pop	edi
	pop	esi
	pop	ebx
	mov	esp, ebp
	pop	ebp
	ret	4
?In_Place_Pre_Rotate_Y@Matrix3D@@QAEXM@Z ENDP		; Matrix3D::In_Place_Pre_Rotate_Y
_TEXT	ENDS
; Function compile flags: /Odtp /ZI
; File x:\github\renegade\dragonade_rxd\scripts\matrix3d.h
;	COMDAT ?In_Place_Pre_Rotate_X@Matrix3D@@QAEXM@Z
_TEXT	SEGMENT
tv257 = -88						; size = 4
tv255 = -88						; size = 4
tv253 = -88						; size = 4
tv251 = -88						; size = 4
tv249 = -88						; size = 4
tv247 = -88						; size = 4
_s$ = -20						; size = 4
_c$ = -16						; size = 4
_tmp2$ = -12						; size = 4
_tmp1$ = -8						; size = 4
_this$ = -4						; size = 4
_theta$ = 8						; size = 4
?In_Place_Pre_Rotate_X@Matrix3D@@QAEXM@Z PROC		; Matrix3D::In_Place_Pre_Rotate_X, COMDAT
; _this$ = ecx

; 412  : 	{

	push	ebp
	mov	ebp, esp
	sub	esp, 88					; 00000058H
	push	ebx
	push	esi
	push	edi
	mov	DWORD PTR _this$[ebp], ecx

; 413  : 		float tmp1,tmp2;
; 414  : 		float c,s;
; 415  : 		c = cosf(theta);

	push	ecx
	movss	xmm0, DWORD PTR _theta$[ebp]
	movss	DWORD PTR [esp], xmm0
	call	_cosf
	add	esp, 4
	fstp	DWORD PTR _c$[ebp]

; 416  : 		s = sinf(theta);

	push	ecx
	movss	xmm0, DWORD PTR _theta$[ebp]
	movss	DWORD PTR [esp], xmm0
	call	_sinf
	add	esp, 4
	fstp	DWORD PTR _s$[ebp]

; 417  : 		tmp1 = Row[1][0]; tmp2 = Row[2][0];

	push	0
	mov	ecx, 16					; 00000010H
	shl	ecx, 0
	add	ecx, DWORD PTR _this$[ebp]
	call	??AVector4@@QAEAAMH@Z			; Vector4::operator[]
	movss	xmm0, DWORD PTR [eax]
	movss	DWORD PTR _tmp1$[ebp], xmm0
	push	0
	mov	ecx, 16					; 00000010H
	shl	ecx, 1
	add	ecx, DWORD PTR _this$[ebp]
	call	??AVector4@@QAEAAMH@Z			; Vector4::operator[]
	movss	xmm0, DWORD PTR [eax]
	movss	DWORD PTR _tmp2$[ebp], xmm0

; 418  : 		Row[1][0] = (float)(c*tmp1 - s*tmp2);

	movss	xmm0, DWORD PTR _c$[ebp]
	mulss	xmm0, DWORD PTR _tmp1$[ebp]
	movss	xmm1, DWORD PTR _s$[ebp]
	mulss	xmm1, DWORD PTR _tmp2$[ebp]
	subss	xmm0, xmm1
	push	0
	mov	ecx, 16					; 00000010H
	shl	ecx, 0
	add	ecx, DWORD PTR _this$[ebp]
	movss	DWORD PTR tv247[ebp], xmm0
	call	??AVector4@@QAEAAMH@Z			; Vector4::operator[]
	movss	xmm0, DWORD PTR tv247[ebp]
	movss	DWORD PTR [eax], xmm0

; 419  : 		Row[2][0] = (float)(s*tmp1 + c*tmp2);

	movss	xmm0, DWORD PTR _s$[ebp]
	mulss	xmm0, DWORD PTR _tmp1$[ebp]
	movss	xmm1, DWORD PTR _c$[ebp]
	mulss	xmm1, DWORD PTR _tmp2$[ebp]
	addss	xmm0, xmm1
	push	0
	mov	ecx, 16					; 00000010H
	shl	ecx, 1
	add	ecx, DWORD PTR _this$[ebp]
	movss	DWORD PTR tv249[ebp], xmm0
	call	??AVector4@@QAEAAMH@Z			; Vector4::operator[]
	movss	xmm0, DWORD PTR tv249[ebp]
	movss	DWORD PTR [eax], xmm0

; 420  : 		tmp1 = Row[1][1]; tmp2 = Row[2][1];

	push	1
	mov	ecx, 16					; 00000010H
	shl	ecx, 0
	add	ecx, DWORD PTR _this$[ebp]
	call	??AVector4@@QAEAAMH@Z			; Vector4::operator[]
	movss	xmm0, DWORD PTR [eax]
	movss	DWORD PTR _tmp1$[ebp], xmm0
	push	1
	mov	ecx, 16					; 00000010H
	shl	ecx, 1
	add	ecx, DWORD PTR _this$[ebp]
	call	??AVector4@@QAEAAMH@Z			; Vector4::operator[]
	movss	xmm0, DWORD PTR [eax]
	movss	DWORD PTR _tmp2$[ebp], xmm0

; 421  : 		Row[1][1] = (float)(c*tmp1 - s*tmp2);

	movss	xmm0, DWORD PTR _c$[ebp]
	mulss	xmm0, DWORD PTR _tmp1$[ebp]
	movss	xmm1, DWORD PTR _s$[ebp]
	mulss	xmm1, DWORD PTR _tmp2$[ebp]
	subss	xmm0, xmm1
	push	1
	mov	ecx, 16					; 00000010H
	shl	ecx, 0
	add	ecx, DWORD PTR _this$[ebp]
	movss	DWORD PTR tv251[ebp], xmm0
	call	??AVector4@@QAEAAMH@Z			; Vector4::operator[]
	movss	xmm0, DWORD PTR tv251[ebp]
	movss	DWORD PTR [eax], xmm0

; 422  : 		Row[2][1] = (float)(s*tmp1 + c*tmp2);

	movss	xmm0, DWORD PTR _s$[ebp]
	mulss	xmm0, DWORD PTR _tmp1$[ebp]
	movss	xmm1, DWORD PTR _c$[ebp]
	mulss	xmm1, DWORD PTR _tmp2$[ebp]
	addss	xmm0, xmm1
	push	1
	mov	ecx, 16					; 00000010H
	shl	ecx, 1
	add	ecx, DWORD PTR _this$[ebp]
	movss	DWORD PTR tv253[ebp], xmm0
	call	??AVector4@@QAEAAMH@Z			; Vector4::operator[]
	movss	xmm0, DWORD PTR tv253[ebp]
	movss	DWORD PTR [eax], xmm0

; 423  : 		tmp1 = Row[1][2]; tmp2 = Row[2][2];

	push	2
	mov	ecx, 16					; 00000010H
	shl	ecx, 0
	add	ecx, DWORD PTR _this$[ebp]
	call	??AVector4@@QAEAAMH@Z			; Vector4::operator[]
	movss	xmm0, DWORD PTR [eax]
	movss	DWORD PTR _tmp1$[ebp], xmm0
	push	2
	mov	ecx, 16					; 00000010H
	shl	ecx, 1
	add	ecx, DWORD PTR _this$[ebp]
	call	??AVector4@@QAEAAMH@Z			; Vector4::operator[]
	movss	xmm0, DWORD PTR [eax]
	movss	DWORD PTR _tmp2$[ebp], xmm0

; 424  : 		Row[1][2] = (float)(c*tmp1 - s*tmp2);

	movss	xmm0, DWORD PTR _c$[ebp]
	mulss	xmm0, DWORD PTR _tmp1$[ebp]
	movss	xmm1, DWORD PTR _s$[ebp]
	mulss	xmm1, DWORD PTR _tmp2$[ebp]
	subss	xmm0, xmm1
	push	2
	mov	ecx, 16					; 00000010H
	shl	ecx, 0
	add	ecx, DWORD PTR _this$[ebp]
	movss	DWORD PTR tv255[ebp], xmm0
	call	??AVector4@@QAEAAMH@Z			; Vector4::operator[]
	movss	xmm0, DWORD PTR tv255[ebp]
	movss	DWORD PTR [eax], xmm0

; 425  : 		Row[2][2] = (float)(s*tmp1 + c*tmp2);

	movss	xmm0, DWORD PTR _s$[ebp]
	mulss	xmm0, DWORD PTR _tmp1$[ebp]
	movss	xmm1, DWORD PTR _c$[ebp]
	mulss	xmm1, DWORD PTR _tmp2$[ebp]
	addss	xmm0, xmm1
	push	2
	mov	ecx, 16					; 00000010H
	shl	ecx, 1
	add	ecx, DWORD PTR _this$[ebp]
	movss	DWORD PTR tv257[ebp], xmm0
	call	??AVector4@@QAEAAMH@Z			; Vector4::operator[]
	movss	xmm0, DWORD PTR tv257[ebp]
	movss	DWORD PTR [eax], xmm0

; 426  : 	}

	pop	edi
	pop	esi
	pop	ebx
	mov	esp, ebp
	pop	ebp
	ret	4
?In_Place_Pre_Rotate_X@Matrix3D@@QAEXM@Z ENDP		; Matrix3D::In_Place_Pre_Rotate_X
_TEXT	ENDS
; Function compile flags: /Odtp /ZI
; File x:\github\renegade\dragonade_rxd\scripts\matrix3d.h
;	COMDAT ?Pre_Rotate_Z@Matrix3D@@QAEXMM@Z
_TEXT	SEGMENT
tv295 = -80						; size = 4
tv293 = -80						; size = 4
tv291 = -80						; size = 4
tv289 = -80						; size = 4
tv287 = -80						; size = 4
tv285 = -80						; size = 4
tv283 = -80						; size = 4
tv281 = -80						; size = 4
_tmp2$ = -12						; size = 4
_tmp1$ = -8						; size = 4
_this$ = -4						; size = 4
_s$ = 8							; size = 4
_c$ = 12						; size = 4
?Pre_Rotate_Z@Matrix3D@@QAEXMM@Z PROC			; Matrix3D::Pre_Rotate_Z, COMDAT
; _this$ = ecx

; 396  : 	{

	push	ebp
	mov	ebp, esp
	sub	esp, 80					; 00000050H
	push	ebx
	push	esi
	push	edi
	mov	DWORD PTR _this$[ebp], ecx

; 397  : 		float tmp1,tmp2;
; 398  : 		tmp1 = Row[0][0]; tmp2 = Row[1][0];

	push	0
	mov	ecx, 16					; 00000010H
	imul	ecx, 0
	add	ecx, DWORD PTR _this$[ebp]
	call	??AVector4@@QAEAAMH@Z			; Vector4::operator[]
	movss	xmm0, DWORD PTR [eax]
	movss	DWORD PTR _tmp1$[ebp], xmm0
	push	0
	mov	ecx, 16					; 00000010H
	shl	ecx, 0
	add	ecx, DWORD PTR _this$[ebp]
	call	??AVector4@@QAEAAMH@Z			; Vector4::operator[]
	movss	xmm0, DWORD PTR [eax]
	movss	DWORD PTR _tmp2$[ebp], xmm0

; 399  : 		Row[0][0] = (float)(c*tmp1 - s*tmp2);

	movss	xmm0, DWORD PTR _c$[ebp]
	mulss	xmm0, DWORD PTR _tmp1$[ebp]
	movss	xmm1, DWORD PTR _s$[ebp]
	mulss	xmm1, DWORD PTR _tmp2$[ebp]
	subss	xmm0, xmm1
	push	0
	mov	ecx, 16					; 00000010H
	imul	ecx, 0
	add	ecx, DWORD PTR _this$[ebp]
	movss	DWORD PTR tv281[ebp], xmm0
	call	??AVector4@@QAEAAMH@Z			; Vector4::operator[]
	movss	xmm0, DWORD PTR tv281[ebp]
	movss	DWORD PTR [eax], xmm0

; 400  : 		Row[1][0] = (float)(s*tmp1 + c*tmp2);

	movss	xmm0, DWORD PTR _s$[ebp]
	mulss	xmm0, DWORD PTR _tmp1$[ebp]
	movss	xmm1, DWORD PTR _c$[ebp]
	mulss	xmm1, DWORD PTR _tmp2$[ebp]
	addss	xmm0, xmm1
	push	0
	mov	ecx, 16					; 00000010H
	shl	ecx, 0
	add	ecx, DWORD PTR _this$[ebp]
	movss	DWORD PTR tv283[ebp], xmm0
	call	??AVector4@@QAEAAMH@Z			; Vector4::operator[]
	movss	xmm0, DWORD PTR tv283[ebp]
	movss	DWORD PTR [eax], xmm0

; 401  : 		tmp1 = Row[0][1]; tmp2 = Row[1][1];

	push	1
	mov	ecx, 16					; 00000010H
	imul	ecx, 0
	add	ecx, DWORD PTR _this$[ebp]
	call	??AVector4@@QAEAAMH@Z			; Vector4::operator[]
	movss	xmm0, DWORD PTR [eax]
	movss	DWORD PTR _tmp1$[ebp], xmm0
	push	1
	mov	ecx, 16					; 00000010H
	shl	ecx, 0
	add	ecx, DWORD PTR _this$[ebp]
	call	??AVector4@@QAEAAMH@Z			; Vector4::operator[]
	movss	xmm0, DWORD PTR [eax]
	movss	DWORD PTR _tmp2$[ebp], xmm0

; 402  : 		Row[0][1] = (float)(c*tmp1 - s*tmp2);

	movss	xmm0, DWORD PTR _c$[ebp]
	mulss	xmm0, DWORD PTR _tmp1$[ebp]
	movss	xmm1, DWORD PTR _s$[ebp]
	mulss	xmm1, DWORD PTR _tmp2$[ebp]
	subss	xmm0, xmm1
	push	1
	mov	ecx, 16					; 00000010H
	imul	ecx, 0
	add	ecx, DWORD PTR _this$[ebp]
	movss	DWORD PTR tv285[ebp], xmm0
	call	??AVector4@@QAEAAMH@Z			; Vector4::operator[]
	movss	xmm0, DWORD PTR tv285[ebp]
	movss	DWORD PTR [eax], xmm0

; 403  : 		Row[1][1] = (float)(s*tmp1 + c*tmp2);

	movss	xmm0, DWORD PTR _s$[ebp]
	mulss	xmm0, DWORD PTR _tmp1$[ebp]
	movss	xmm1, DWORD PTR _c$[ebp]
	mulss	xmm1, DWORD PTR _tmp2$[ebp]
	addss	xmm0, xmm1
	push	1
	mov	ecx, 16					; 00000010H
	shl	ecx, 0
	add	ecx, DWORD PTR _this$[ebp]
	movss	DWORD PTR tv287[ebp], xmm0
	call	??AVector4@@QAEAAMH@Z			; Vector4::operator[]
	movss	xmm0, DWORD PTR tv287[ebp]
	movss	DWORD PTR [eax], xmm0

; 404  : 		tmp1 = Row[0][2]; tmp2 = Row[1][2];

	push	2
	mov	ecx, 16					; 00000010H
	imul	ecx, 0
	add	ecx, DWORD PTR _this$[ebp]
	call	??AVector4@@QAEAAMH@Z			; Vector4::operator[]
	movss	xmm0, DWORD PTR [eax]
	movss	DWORD PTR _tmp1$[ebp], xmm0
	push	2
	mov	ecx, 16					; 00000010H
	shl	ecx, 0
	add	ecx, DWORD PTR _this$[ebp]
	call	??AVector4@@QAEAAMH@Z			; Vector4::operator[]
	movss	xmm0, DWORD PTR [eax]
	movss	DWORD PTR _tmp2$[ebp], xmm0

; 405  : 		Row[0][2] = (float)(c*tmp1 - s*tmp2);

	movss	xmm0, DWORD PTR _c$[ebp]
	mulss	xmm0, DWORD PTR _tmp1$[ebp]
	movss	xmm1, DWORD PTR _s$[ebp]
	mulss	xmm1, DWORD PTR _tmp2$[ebp]
	subss	xmm0, xmm1
	push	2
	mov	ecx, 16					; 00000010H
	imul	ecx, 0
	add	ecx, DWORD PTR _this$[ebp]
	movss	DWORD PTR tv289[ebp], xmm0
	call	??AVector4@@QAEAAMH@Z			; Vector4::operator[]
	movss	xmm0, DWORD PTR tv289[ebp]
	movss	DWORD PTR [eax], xmm0

; 406  : 		Row[1][2] = (float)(s*tmp1 + c*tmp2);

	movss	xmm0, DWORD PTR _s$[ebp]
	mulss	xmm0, DWORD PTR _tmp1$[ebp]
	movss	xmm1, DWORD PTR _c$[ebp]
	mulss	xmm1, DWORD PTR _tmp2$[ebp]
	addss	xmm0, xmm1
	push	2
	mov	ecx, 16					; 00000010H
	shl	ecx, 0
	add	ecx, DWORD PTR _this$[ebp]
	movss	DWORD PTR tv291[ebp], xmm0
	call	??AVector4@@QAEAAMH@Z			; Vector4::operator[]
	movss	xmm0, DWORD PTR tv291[ebp]
	movss	DWORD PTR [eax], xmm0

; 407  : 		tmp1 = Row[0][3]; tmp2 = Row[1][3];

	push	3
	mov	ecx, 16					; 00000010H
	imul	ecx, 0
	add	ecx, DWORD PTR _this$[ebp]
	call	??AVector4@@QAEAAMH@Z			; Vector4::operator[]
	movss	xmm0, DWORD PTR [eax]
	movss	DWORD PTR _tmp1$[ebp], xmm0
	push	3
	mov	ecx, 16					; 00000010H
	shl	ecx, 0
	add	ecx, DWORD PTR _this$[ebp]
	call	??AVector4@@QAEAAMH@Z			; Vector4::operator[]
	movss	xmm0, DWORD PTR [eax]
	movss	DWORD PTR _tmp2$[ebp], xmm0

; 408  : 		Row[0][3] = (float)(c*tmp1 - s*tmp2);

	movss	xmm0, DWORD PTR _c$[ebp]
	mulss	xmm0, DWORD PTR _tmp1$[ebp]
	movss	xmm1, DWORD PTR _s$[ebp]
	mulss	xmm1, DWORD PTR _tmp2$[ebp]
	subss	xmm0, xmm1
	push	3
	mov	ecx, 16					; 00000010H
	imul	ecx, 0
	add	ecx, DWORD PTR _this$[ebp]
	movss	DWORD PTR tv293[ebp], xmm0
	call	??AVector4@@QAEAAMH@Z			; Vector4::operator[]
	movss	xmm0, DWORD PTR tv293[ebp]
	movss	DWORD PTR [eax], xmm0

; 409  : 		Row[1][3] = (float)(s*tmp1 + c*tmp2);

	movss	xmm0, DWORD PTR _s$[ebp]
	mulss	xmm0, DWORD PTR _tmp1$[ebp]
	movss	xmm1, DWORD PTR _c$[ebp]
	mulss	xmm1, DWORD PTR _tmp2$[ebp]
	addss	xmm0, xmm1
	push	3
	mov	ecx, 16					; 00000010H
	shl	ecx, 0
	add	ecx, DWORD PTR _this$[ebp]
	movss	DWORD PTR tv295[ebp], xmm0
	call	??AVector4@@QAEAAMH@Z			; Vector4::operator[]
	movss	xmm0, DWORD PTR tv295[ebp]
	movss	DWORD PTR [eax], xmm0

; 410  : 	}

	pop	edi
	pop	esi
	pop	ebx
	mov	esp, ebp
	pop	ebp
	ret	8
?Pre_Rotate_Z@Matrix3D@@QAEXMM@Z ENDP			; Matrix3D::Pre_Rotate_Z
_TEXT	ENDS
; Function compile flags: /Odtp /ZI
; File x:\github\renegade\dragonade_rxd\scripts\matrix3d.h
;	COMDAT ?Pre_Rotate_Y@Matrix3D@@QAEXMM@Z
_TEXT	SEGMENT
tv299 = -80						; size = 4
tv297 = -80						; size = 4
tv295 = -80						; size = 4
tv293 = -80						; size = 4
tv291 = -80						; size = 4
tv289 = -80						; size = 4
tv287 = -80						; size = 4
tv285 = -80						; size = 4
_tmp2$ = -12						; size = 4
_tmp1$ = -8						; size = 4
_this$ = -4						; size = 4
_s$ = 8							; size = 4
_c$ = 12						; size = 4
?Pre_Rotate_Y@Matrix3D@@QAEXMM@Z PROC			; Matrix3D::Pre_Rotate_Y, COMDAT
; _this$ = ecx

; 380  : 	{

	push	ebp
	mov	ebp, esp
	sub	esp, 80					; 00000050H
	push	ebx
	push	esi
	push	edi
	mov	DWORD PTR _this$[ebp], ecx

; 381  : 		float tmp1,tmp2;
; 382  : 		tmp1 = Row[0][0]; tmp2 = Row[2][0];

	push	0
	mov	ecx, 16					; 00000010H
	imul	ecx, 0
	add	ecx, DWORD PTR _this$[ebp]
	call	??AVector4@@QAEAAMH@Z			; Vector4::operator[]
	movss	xmm0, DWORD PTR [eax]
	movss	DWORD PTR _tmp1$[ebp], xmm0
	push	0
	mov	ecx, 16					; 00000010H
	shl	ecx, 1
	add	ecx, DWORD PTR _this$[ebp]
	call	??AVector4@@QAEAAMH@Z			; Vector4::operator[]
	movss	xmm0, DWORD PTR [eax]
	movss	DWORD PTR _tmp2$[ebp], xmm0

; 383  : 		Row[0][0] = (float)( c*tmp1 + s*tmp2);

	movss	xmm0, DWORD PTR _c$[ebp]
	mulss	xmm0, DWORD PTR _tmp1$[ebp]
	movss	xmm1, DWORD PTR _s$[ebp]
	mulss	xmm1, DWORD PTR _tmp2$[ebp]
	addss	xmm0, xmm1
	push	0
	mov	ecx, 16					; 00000010H
	imul	ecx, 0
	add	ecx, DWORD PTR _this$[ebp]
	movss	DWORD PTR tv285[ebp], xmm0
	call	??AVector4@@QAEAAMH@Z			; Vector4::operator[]
	movss	xmm0, DWORD PTR tv285[ebp]
	movss	DWORD PTR [eax], xmm0

; 384  : 		Row[2][0] = (float)(-s*tmp1 + c*tmp2);

	movss	xmm0, DWORD PTR _s$[ebp]
	xorps	xmm0, DWORD PTR __xmm@80000000800000008000000080000000
	mulss	xmm0, DWORD PTR _tmp1$[ebp]
	movss	xmm1, DWORD PTR _c$[ebp]
	mulss	xmm1, DWORD PTR _tmp2$[ebp]
	addss	xmm0, xmm1
	push	0
	mov	ecx, 16					; 00000010H
	shl	ecx, 1
	add	ecx, DWORD PTR _this$[ebp]
	movss	DWORD PTR tv287[ebp], xmm0
	call	??AVector4@@QAEAAMH@Z			; Vector4::operator[]
	movss	xmm0, DWORD PTR tv287[ebp]
	movss	DWORD PTR [eax], xmm0

; 385  : 		tmp1 = Row[0][1]; tmp2 = Row[2][1];

	push	1
	mov	ecx, 16					; 00000010H
	imul	ecx, 0
	add	ecx, DWORD PTR _this$[ebp]
	call	??AVector4@@QAEAAMH@Z			; Vector4::operator[]
	movss	xmm0, DWORD PTR [eax]
	movss	DWORD PTR _tmp1$[ebp], xmm0
	push	1
	mov	ecx, 16					; 00000010H
	shl	ecx, 1
	add	ecx, DWORD PTR _this$[ebp]
	call	??AVector4@@QAEAAMH@Z			; Vector4::operator[]
	movss	xmm0, DWORD PTR [eax]
	movss	DWORD PTR _tmp2$[ebp], xmm0

; 386  : 		Row[0][1] = (float)( c*tmp1 + s*tmp2);

	movss	xmm0, DWORD PTR _c$[ebp]
	mulss	xmm0, DWORD PTR _tmp1$[ebp]
	movss	xmm1, DWORD PTR _s$[ebp]
	mulss	xmm1, DWORD PTR _tmp2$[ebp]
	addss	xmm0, xmm1
	push	1
	mov	ecx, 16					; 00000010H
	imul	ecx, 0
	add	ecx, DWORD PTR _this$[ebp]
	movss	DWORD PTR tv289[ebp], xmm0
	call	??AVector4@@QAEAAMH@Z			; Vector4::operator[]
	movss	xmm0, DWORD PTR tv289[ebp]
	movss	DWORD PTR [eax], xmm0

; 387  : 		Row[2][1] = (float)(-s*tmp1 + c*tmp2);

	movss	xmm0, DWORD PTR _s$[ebp]
	xorps	xmm0, DWORD PTR __xmm@80000000800000008000000080000000
	mulss	xmm0, DWORD PTR _tmp1$[ebp]
	movss	xmm1, DWORD PTR _c$[ebp]
	mulss	xmm1, DWORD PTR _tmp2$[ebp]
	addss	xmm0, xmm1
	push	1
	mov	ecx, 16					; 00000010H
	shl	ecx, 1
	add	ecx, DWORD PTR _this$[ebp]
	movss	DWORD PTR tv291[ebp], xmm0
	call	??AVector4@@QAEAAMH@Z			; Vector4::operator[]
	movss	xmm0, DWORD PTR tv291[ebp]
	movss	DWORD PTR [eax], xmm0

; 388  : 		tmp1 = Row[0][2]; tmp2 = Row[2][2];

	push	2
	mov	ecx, 16					; 00000010H
	imul	ecx, 0
	add	ecx, DWORD PTR _this$[ebp]
	call	??AVector4@@QAEAAMH@Z			; Vector4::operator[]
	movss	xmm0, DWORD PTR [eax]
	movss	DWORD PTR _tmp1$[ebp], xmm0
	push	2
	mov	ecx, 16					; 00000010H
	shl	ecx, 1
	add	ecx, DWORD PTR _this$[ebp]
	call	??AVector4@@QAEAAMH@Z			; Vector4::operator[]
	movss	xmm0, DWORD PTR [eax]
	movss	DWORD PTR _tmp2$[ebp], xmm0

; 389  : 		Row[0][2] = (float)( c*tmp1 + s*tmp2);

	movss	xmm0, DWORD PTR _c$[ebp]
	mulss	xmm0, DWORD PTR _tmp1$[ebp]
	movss	xmm1, DWORD PTR _s$[ebp]
	mulss	xmm1, DWORD PTR _tmp2$[ebp]
	addss	xmm0, xmm1
	push	2
	mov	ecx, 16					; 00000010H
	imul	ecx, 0
	add	ecx, DWORD PTR _this$[ebp]
	movss	DWORD PTR tv293[ebp], xmm0
	call	??AVector4@@QAEAAMH@Z			; Vector4::operator[]
	movss	xmm0, DWORD PTR tv293[ebp]
	movss	DWORD PTR [eax], xmm0

; 390  : 		Row[2][2] = (float)(-s*tmp1 + c*tmp2);

	movss	xmm0, DWORD PTR _s$[ebp]
	xorps	xmm0, DWORD PTR __xmm@80000000800000008000000080000000
	mulss	xmm0, DWORD PTR _tmp1$[ebp]
	movss	xmm1, DWORD PTR _c$[ebp]
	mulss	xmm1, DWORD PTR _tmp2$[ebp]
	addss	xmm0, xmm1
	push	2
	mov	ecx, 16					; 00000010H
	shl	ecx, 1
	add	ecx, DWORD PTR _this$[ebp]
	movss	DWORD PTR tv295[ebp], xmm0
	call	??AVector4@@QAEAAMH@Z			; Vector4::operator[]
	movss	xmm0, DWORD PTR tv295[ebp]
	movss	DWORD PTR [eax], xmm0

; 391  : 		tmp1 = Row[0][3]; tmp2 = Row[2][3];

	push	3
	mov	ecx, 16					; 00000010H
	imul	ecx, 0
	add	ecx, DWORD PTR _this$[ebp]
	call	??AVector4@@QAEAAMH@Z			; Vector4::operator[]
	movss	xmm0, DWORD PTR [eax]
	movss	DWORD PTR _tmp1$[ebp], xmm0
	push	3
	mov	ecx, 16					; 00000010H
	shl	ecx, 1
	add	ecx, DWORD PTR _this$[ebp]
	call	??AVector4@@QAEAAMH@Z			; Vector4::operator[]
	movss	xmm0, DWORD PTR [eax]
	movss	DWORD PTR _tmp2$[ebp], xmm0

; 392  : 		Row[0][3] = (float)( c*tmp1 + s*tmp2);

	movss	xmm0, DWORD PTR _c$[ebp]
	mulss	xmm0, DWORD PTR _tmp1$[ebp]
	movss	xmm1, DWORD PTR _s$[ebp]
	mulss	xmm1, DWORD PTR _tmp2$[ebp]
	addss	xmm0, xmm1
	push	3
	mov	ecx, 16					; 00000010H
	imul	ecx, 0
	add	ecx, DWORD PTR _this$[ebp]
	movss	DWORD PTR tv297[ebp], xmm0
	call	??AVector4@@QAEAAMH@Z			; Vector4::operator[]
	movss	xmm0, DWORD PTR tv297[ebp]
	movss	DWORD PTR [eax], xmm0

; 393  : 		Row[2][3] = (float)(-s*tmp1 + c*tmp2);

	movss	xmm0, DWORD PTR _s$[ebp]
	xorps	xmm0, DWORD PTR __xmm@80000000800000008000000080000000
	mulss	xmm0, DWORD PTR _tmp1$[ebp]
	movss	xmm1, DWORD PTR _c$[ebp]
	mulss	xmm1, DWORD PTR _tmp2$[ebp]
	addss	xmm0, xmm1
	push	3
	mov	ecx, 16					; 00000010H
	shl	ecx, 1
	add	ecx, DWORD PTR _this$[ebp]
	movss	DWORD PTR tv299[ebp], xmm0
	call	??AVector4@@QAEAAMH@Z			; Vector4::operator[]
	movss	xmm0, DWORD PTR tv299[ebp]
	movss	DWORD PTR [eax], xmm0

; 394  : 	}

	pop	edi
	pop	esi
	pop	ebx
	mov	esp, ebp
	pop	ebp
	ret	8
?Pre_Rotate_Y@Matrix3D@@QAEXMM@Z ENDP			; Matrix3D::Pre_Rotate_Y
_TEXT	ENDS
; Function compile flags: /Odtp /ZI
; File x:\github\renegade\dragonade_rxd\scripts\matrix3d.h
;	COMDAT ?Pre_Rotate_X@Matrix3D@@QAEXMM@Z
_TEXT	SEGMENT
tv295 = -80						; size = 4
tv293 = -80						; size = 4
tv291 = -80						; size = 4
tv289 = -80						; size = 4
tv287 = -80						; size = 4
tv285 = -80						; size = 4
tv283 = -80						; size = 4
tv281 = -80						; size = 4
_tmp2$ = -12						; size = 4
_tmp1$ = -8						; size = 4
_this$ = -4						; size = 4
_s$ = 8							; size = 4
_c$ = 12						; size = 4
?Pre_Rotate_X@Matrix3D@@QAEXMM@Z PROC			; Matrix3D::Pre_Rotate_X, COMDAT
; _this$ = ecx

; 364  : 	{

	push	ebp
	mov	ebp, esp
	sub	esp, 80					; 00000050H
	push	ebx
	push	esi
	push	edi
	mov	DWORD PTR _this$[ebp], ecx

; 365  : 		float tmp1,tmp2;
; 366  : 		tmp1 = Row[1][0]; tmp2 = Row[2][0];

	push	0
	mov	ecx, 16					; 00000010H
	shl	ecx, 0
	add	ecx, DWORD PTR _this$[ebp]
	call	??AVector4@@QAEAAMH@Z			; Vector4::operator[]
	movss	xmm0, DWORD PTR [eax]
	movss	DWORD PTR _tmp1$[ebp], xmm0
	push	0
	mov	ecx, 16					; 00000010H
	shl	ecx, 1
	add	ecx, DWORD PTR _this$[ebp]
	call	??AVector4@@QAEAAMH@Z			; Vector4::operator[]
	movss	xmm0, DWORD PTR [eax]
	movss	DWORD PTR _tmp2$[ebp], xmm0

; 367  : 		Row[1][0] = (float)(c*tmp1 - s*tmp2);

	movss	xmm0, DWORD PTR _c$[ebp]
	mulss	xmm0, DWORD PTR _tmp1$[ebp]
	movss	xmm1, DWORD PTR _s$[ebp]
	mulss	xmm1, DWORD PTR _tmp2$[ebp]
	subss	xmm0, xmm1
	push	0
	mov	ecx, 16					; 00000010H
	shl	ecx, 0
	add	ecx, DWORD PTR _this$[ebp]
	movss	DWORD PTR tv281[ebp], xmm0
	call	??AVector4@@QAEAAMH@Z			; Vector4::operator[]
	movss	xmm0, DWORD PTR tv281[ebp]
	movss	DWORD PTR [eax], xmm0

; 368  : 		Row[2][0] = (float)(s*tmp1 + c*tmp2);

	movss	xmm0, DWORD PTR _s$[ebp]
	mulss	xmm0, DWORD PTR _tmp1$[ebp]
	movss	xmm1, DWORD PTR _c$[ebp]
	mulss	xmm1, DWORD PTR _tmp2$[ebp]
	addss	xmm0, xmm1
	push	0
	mov	ecx, 16					; 00000010H
	shl	ecx, 1
	add	ecx, DWORD PTR _this$[ebp]
	movss	DWORD PTR tv283[ebp], xmm0
	call	??AVector4@@QAEAAMH@Z			; Vector4::operator[]
	movss	xmm0, DWORD PTR tv283[ebp]
	movss	DWORD PTR [eax], xmm0

; 369  : 		tmp1 = Row[1][1]; tmp2 = Row[2][1];

	push	1
	mov	ecx, 16					; 00000010H
	shl	ecx, 0
	add	ecx, DWORD PTR _this$[ebp]
	call	??AVector4@@QAEAAMH@Z			; Vector4::operator[]
	movss	xmm0, DWORD PTR [eax]
	movss	DWORD PTR _tmp1$[ebp], xmm0
	push	1
	mov	ecx, 16					; 00000010H
	shl	ecx, 1
	add	ecx, DWORD PTR _this$[ebp]
	call	??AVector4@@QAEAAMH@Z			; Vector4::operator[]
	movss	xmm0, DWORD PTR [eax]
	movss	DWORD PTR _tmp2$[ebp], xmm0

; 370  : 		Row[1][1] = (float)(c*tmp1 - s*tmp2);

	movss	xmm0, DWORD PTR _c$[ebp]
	mulss	xmm0, DWORD PTR _tmp1$[ebp]
	movss	xmm1, DWORD PTR _s$[ebp]
	mulss	xmm1, DWORD PTR _tmp2$[ebp]
	subss	xmm0, xmm1
	push	1
	mov	ecx, 16					; 00000010H
	shl	ecx, 0
	add	ecx, DWORD PTR _this$[ebp]
	movss	DWORD PTR tv285[ebp], xmm0
	call	??AVector4@@QAEAAMH@Z			; Vector4::operator[]
	movss	xmm0, DWORD PTR tv285[ebp]
	movss	DWORD PTR [eax], xmm0

; 371  : 		Row[2][1] = (float)(s*tmp1 + c*tmp2);

	movss	xmm0, DWORD PTR _s$[ebp]
	mulss	xmm0, DWORD PTR _tmp1$[ebp]
	movss	xmm1, DWORD PTR _c$[ebp]
	mulss	xmm1, DWORD PTR _tmp2$[ebp]
	addss	xmm0, xmm1
	push	1
	mov	ecx, 16					; 00000010H
	shl	ecx, 1
	add	ecx, DWORD PTR _this$[ebp]
	movss	DWORD PTR tv287[ebp], xmm0
	call	??AVector4@@QAEAAMH@Z			; Vector4::operator[]
	movss	xmm0, DWORD PTR tv287[ebp]
	movss	DWORD PTR [eax], xmm0

; 372  : 		tmp1 = Row[1][2]; tmp2 = Row[2][2];

	push	2
	mov	ecx, 16					; 00000010H
	shl	ecx, 0
	add	ecx, DWORD PTR _this$[ebp]
	call	??AVector4@@QAEAAMH@Z			; Vector4::operator[]
	movss	xmm0, DWORD PTR [eax]
	movss	DWORD PTR _tmp1$[ebp], xmm0
	push	2
	mov	ecx, 16					; 00000010H
	shl	ecx, 1
	add	ecx, DWORD PTR _this$[ebp]
	call	??AVector4@@QAEAAMH@Z			; Vector4::operator[]
	movss	xmm0, DWORD PTR [eax]
	movss	DWORD PTR _tmp2$[ebp], xmm0

; 373  : 		Row[1][2] = (float)(c*tmp1 - s*tmp2);

	movss	xmm0, DWORD PTR _c$[ebp]
	mulss	xmm0, DWORD PTR _tmp1$[ebp]
	movss	xmm1, DWORD PTR _s$[ebp]
	mulss	xmm1, DWORD PTR _tmp2$[ebp]
	subss	xmm0, xmm1
	push	2
	mov	ecx, 16					; 00000010H
	shl	ecx, 0
	add	ecx, DWORD PTR _this$[ebp]
	movss	DWORD PTR tv289[ebp], xmm0
	call	??AVector4@@QAEAAMH@Z			; Vector4::operator[]
	movss	xmm0, DWORD PTR tv289[ebp]
	movss	DWORD PTR [eax], xmm0

; 374  : 		Row[2][2] = (float)(s*tmp1 + c*tmp2);

	movss	xmm0, DWORD PTR _s$[ebp]
	mulss	xmm0, DWORD PTR _tmp1$[ebp]
	movss	xmm1, DWORD PTR _c$[ebp]
	mulss	xmm1, DWORD PTR _tmp2$[ebp]
	addss	xmm0, xmm1
	push	2
	mov	ecx, 16					; 00000010H
	shl	ecx, 1
	add	ecx, DWORD PTR _this$[ebp]
	movss	DWORD PTR tv291[ebp], xmm0
	call	??AVector4@@QAEAAMH@Z			; Vector4::operator[]
	movss	xmm0, DWORD PTR tv291[ebp]
	movss	DWORD PTR [eax], xmm0

; 375  : 		tmp1 = Row[1][3]; tmp2 = Row[2][3];

	push	3
	mov	ecx, 16					; 00000010H
	shl	ecx, 0
	add	ecx, DWORD PTR _this$[ebp]
	call	??AVector4@@QAEAAMH@Z			; Vector4::operator[]
	movss	xmm0, DWORD PTR [eax]
	movss	DWORD PTR _tmp1$[ebp], xmm0
	push	3
	mov	ecx, 16					; 00000010H
	shl	ecx, 1
	add	ecx, DWORD PTR _this$[ebp]
	call	??AVector4@@QAEAAMH@Z			; Vector4::operator[]
	movss	xmm0, DWORD PTR [eax]
	movss	DWORD PTR _tmp2$[ebp], xmm0

; 376  : 		Row[1][3] = (float)(c*tmp1 - s*tmp2);

	movss	xmm0, DWORD PTR _c$[ebp]
	mulss	xmm0, DWORD PTR _tmp1$[ebp]
	movss	xmm1, DWORD PTR _s$[ebp]
	mulss	xmm1, DWORD PTR _tmp2$[ebp]
	subss	xmm0, xmm1
	push	3
	mov	ecx, 16					; 00000010H
	shl	ecx, 0
	add	ecx, DWORD PTR _this$[ebp]
	movss	DWORD PTR tv293[ebp], xmm0
	call	??AVector4@@QAEAAMH@Z			; Vector4::operator[]
	movss	xmm0, DWORD PTR tv293[ebp]
	movss	DWORD PTR [eax], xmm0

; 377  : 		Row[2][3] = (float)(s*tmp1 + c*tmp2);

	movss	xmm0, DWORD PTR _s$[ebp]
	mulss	xmm0, DWORD PTR _tmp1$[ebp]
	movss	xmm1, DWORD PTR _c$[ebp]
	mulss	xmm1, DWORD PTR _tmp2$[ebp]
	addss	xmm0, xmm1
	push	3
	mov	ecx, 16					; 00000010H
	shl	ecx, 1
	add	ecx, DWORD PTR _this$[ebp]
	movss	DWORD PTR tv295[ebp], xmm0
	call	??AVector4@@QAEAAMH@Z			; Vector4::operator[]
	movss	xmm0, DWORD PTR tv295[ebp]
	movss	DWORD PTR [eax], xmm0

; 378  : 	}

	pop	edi
	pop	esi
	pop	ebx
	mov	esp, ebp
	pop	ebp
	ret	8
?Pre_Rotate_X@Matrix3D@@QAEXMM@Z ENDP			; Matrix3D::Pre_Rotate_X
_TEXT	ENDS
; Function compile flags: /Odtp /ZI
; File x:\github\renegade\dragonade_rxd\scripts\matrix3d.h
;	COMDAT ?Pre_Rotate_Z@Matrix3D@@QAEXM@Z
_TEXT	SEGMENT
tv307 = -88						; size = 4
tv305 = -88						; size = 4
tv303 = -88						; size = 4
tv301 = -88						; size = 4
tv299 = -88						; size = 4
tv297 = -88						; size = 4
tv295 = -88						; size = 4
tv293 = -88						; size = 4
_s$ = -20						; size = 4
_c$ = -16						; size = 4
_tmp2$ = -12						; size = 4
_tmp1$ = -8						; size = 4
_this$ = -4						; size = 4
_theta$ = 8						; size = 4
?Pre_Rotate_Z@Matrix3D@@QAEXM@Z PROC			; Matrix3D::Pre_Rotate_Z, COMDAT
; _this$ = ecx

; 345  : 	{

	push	ebp
	mov	ebp, esp
	sub	esp, 88					; 00000058H
	push	ebx
	push	esi
	push	edi
	mov	DWORD PTR _this$[ebp], ecx

; 346  : 		float tmp1,tmp2;
; 347  : 		float c,s;
; 348  : 		c = cosf(theta);

	push	ecx
	movss	xmm0, DWORD PTR _theta$[ebp]
	movss	DWORD PTR [esp], xmm0
	call	_cosf
	add	esp, 4
	fstp	DWORD PTR _c$[ebp]

; 349  : 		s = sinf(theta);

	push	ecx
	movss	xmm0, DWORD PTR _theta$[ebp]
	movss	DWORD PTR [esp], xmm0
	call	_sinf
	add	esp, 4
	fstp	DWORD PTR _s$[ebp]

; 350  : 		tmp1 = Row[0][0]; tmp2 = Row[1][0];

	push	0
	mov	ecx, 16					; 00000010H
	imul	ecx, 0
	add	ecx, DWORD PTR _this$[ebp]
	call	??AVector4@@QAEAAMH@Z			; Vector4::operator[]
	movss	xmm0, DWORD PTR [eax]
	movss	DWORD PTR _tmp1$[ebp], xmm0
	push	0
	mov	ecx, 16					; 00000010H
	shl	ecx, 0
	add	ecx, DWORD PTR _this$[ebp]
	call	??AVector4@@QAEAAMH@Z			; Vector4::operator[]
	movss	xmm0, DWORD PTR [eax]
	movss	DWORD PTR _tmp2$[ebp], xmm0

; 351  : 		Row[0][0] = (float)(c*tmp1 - s*tmp2);

	movss	xmm0, DWORD PTR _c$[ebp]
	mulss	xmm0, DWORD PTR _tmp1$[ebp]
	movss	xmm1, DWORD PTR _s$[ebp]
	mulss	xmm1, DWORD PTR _tmp2$[ebp]
	subss	xmm0, xmm1
	push	0
	mov	ecx, 16					; 00000010H
	imul	ecx, 0
	add	ecx, DWORD PTR _this$[ebp]
	movss	DWORD PTR tv293[ebp], xmm0
	call	??AVector4@@QAEAAMH@Z			; Vector4::operator[]
	movss	xmm0, DWORD PTR tv293[ebp]
	movss	DWORD PTR [eax], xmm0

; 352  : 		Row[1][0] = (float)(s*tmp1 + c*tmp2);

	movss	xmm0, DWORD PTR _s$[ebp]
	mulss	xmm0, DWORD PTR _tmp1$[ebp]
	movss	xmm1, DWORD PTR _c$[ebp]
	mulss	xmm1, DWORD PTR _tmp2$[ebp]
	addss	xmm0, xmm1
	push	0
	mov	ecx, 16					; 00000010H
	shl	ecx, 0
	add	ecx, DWORD PTR _this$[ebp]
	movss	DWORD PTR tv295[ebp], xmm0
	call	??AVector4@@QAEAAMH@Z			; Vector4::operator[]
	movss	xmm0, DWORD PTR tv295[ebp]
	movss	DWORD PTR [eax], xmm0

; 353  : 		tmp1 = Row[0][1]; tmp2 = Row[1][1];

	push	1
	mov	ecx, 16					; 00000010H
	imul	ecx, 0
	add	ecx, DWORD PTR _this$[ebp]
	call	??AVector4@@QAEAAMH@Z			; Vector4::operator[]
	movss	xmm0, DWORD PTR [eax]
	movss	DWORD PTR _tmp1$[ebp], xmm0
	push	1
	mov	ecx, 16					; 00000010H
	shl	ecx, 0
	add	ecx, DWORD PTR _this$[ebp]
	call	??AVector4@@QAEAAMH@Z			; Vector4::operator[]
	movss	xmm0, DWORD PTR [eax]
	movss	DWORD PTR _tmp2$[ebp], xmm0

; 354  : 		Row[0][1] = (float)(c*tmp1 - s*tmp2);

	movss	xmm0, DWORD PTR _c$[ebp]
	mulss	xmm0, DWORD PTR _tmp1$[ebp]
	movss	xmm1, DWORD PTR _s$[ebp]
	mulss	xmm1, DWORD PTR _tmp2$[ebp]
	subss	xmm0, xmm1
	push	1
	mov	ecx, 16					; 00000010H
	imul	ecx, 0
	add	ecx, DWORD PTR _this$[ebp]
	movss	DWORD PTR tv297[ebp], xmm0
	call	??AVector4@@QAEAAMH@Z			; Vector4::operator[]
	movss	xmm0, DWORD PTR tv297[ebp]
	movss	DWORD PTR [eax], xmm0

; 355  : 		Row[1][1] = (float)(s*tmp1 + c*tmp2);

	movss	xmm0, DWORD PTR _s$[ebp]
	mulss	xmm0, DWORD PTR _tmp1$[ebp]
	movss	xmm1, DWORD PTR _c$[ebp]
	mulss	xmm1, DWORD PTR _tmp2$[ebp]
	addss	xmm0, xmm1
	push	1
	mov	ecx, 16					; 00000010H
	shl	ecx, 0
	add	ecx, DWORD PTR _this$[ebp]
	movss	DWORD PTR tv299[ebp], xmm0
	call	??AVector4@@QAEAAMH@Z			; Vector4::operator[]
	movss	xmm0, DWORD PTR tv299[ebp]
	movss	DWORD PTR [eax], xmm0

; 356  : 		tmp1 = Row[0][2]; tmp2 = Row[1][2];

	push	2
	mov	ecx, 16					; 00000010H
	imul	ecx, 0
	add	ecx, DWORD PTR _this$[ebp]
	call	??AVector4@@QAEAAMH@Z			; Vector4::operator[]
	movss	xmm0, DWORD PTR [eax]
	movss	DWORD PTR _tmp1$[ebp], xmm0
	push	2
	mov	ecx, 16					; 00000010H
	shl	ecx, 0
	add	ecx, DWORD PTR _this$[ebp]
	call	??AVector4@@QAEAAMH@Z			; Vector4::operator[]
	movss	xmm0, DWORD PTR [eax]
	movss	DWORD PTR _tmp2$[ebp], xmm0

; 357  : 		Row[0][2] = (float)(c*tmp1 - s*tmp2);

	movss	xmm0, DWORD PTR _c$[ebp]
	mulss	xmm0, DWORD PTR _tmp1$[ebp]
	movss	xmm1, DWORD PTR _s$[ebp]
	mulss	xmm1, DWORD PTR _tmp2$[ebp]
	subss	xmm0, xmm1
	push	2
	mov	ecx, 16					; 00000010H
	imul	ecx, 0
	add	ecx, DWORD PTR _this$[ebp]
	movss	DWORD PTR tv301[ebp], xmm0
	call	??AVector4@@QAEAAMH@Z			; Vector4::operator[]
	movss	xmm0, DWORD PTR tv301[ebp]
	movss	DWORD PTR [eax], xmm0

; 358  : 		Row[1][2] = (float)(s*tmp1 + c*tmp2);

	movss	xmm0, DWORD PTR _s$[ebp]
	mulss	xmm0, DWORD PTR _tmp1$[ebp]
	movss	xmm1, DWORD PTR _c$[ebp]
	mulss	xmm1, DWORD PTR _tmp2$[ebp]
	addss	xmm0, xmm1
	push	2
	mov	ecx, 16					; 00000010H
	shl	ecx, 0
	add	ecx, DWORD PTR _this$[ebp]
	movss	DWORD PTR tv303[ebp], xmm0
	call	??AVector4@@QAEAAMH@Z			; Vector4::operator[]
	movss	xmm0, DWORD PTR tv303[ebp]
	movss	DWORD PTR [eax], xmm0

; 359  : 		tmp1 = Row[0][3]; tmp2 = Row[1][3];

	push	3
	mov	ecx, 16					; 00000010H
	imul	ecx, 0
	add	ecx, DWORD PTR _this$[ebp]
	call	??AVector4@@QAEAAMH@Z			; Vector4::operator[]
	movss	xmm0, DWORD PTR [eax]
	movss	DWORD PTR _tmp1$[ebp], xmm0
	push	3
	mov	ecx, 16					; 00000010H
	shl	ecx, 0
	add	ecx, DWORD PTR _this$[ebp]
	call	??AVector4@@QAEAAMH@Z			; Vector4::operator[]
	movss	xmm0, DWORD PTR [eax]
	movss	DWORD PTR _tmp2$[ebp], xmm0

; 360  : 		Row[0][3] = (float)(c*tmp1 - s*tmp2);

	movss	xmm0, DWORD PTR _c$[ebp]
	mulss	xmm0, DWORD PTR _tmp1$[ebp]
	movss	xmm1, DWORD PTR _s$[ebp]
	mulss	xmm1, DWORD PTR _tmp2$[ebp]
	subss	xmm0, xmm1
	push	3
	mov	ecx, 16					; 00000010H
	imul	ecx, 0
	add	ecx, DWORD PTR _this$[ebp]
	movss	DWORD PTR tv305[ebp], xmm0
	call	??AVector4@@QAEAAMH@Z			; Vector4::operator[]
	movss	xmm0, DWORD PTR tv305[ebp]
	movss	DWORD PTR [eax], xmm0

; 361  : 		Row[1][3] = (float)(s*tmp1 + c*tmp2);

	movss	xmm0, DWORD PTR _s$[ebp]
	mulss	xmm0, DWORD PTR _tmp1$[ebp]
	movss	xmm1, DWORD PTR _c$[ebp]
	mulss	xmm1, DWORD PTR _tmp2$[ebp]
	addss	xmm0, xmm1
	push	3
	mov	ecx, 16					; 00000010H
	shl	ecx, 0
	add	ecx, DWORD PTR _this$[ebp]
	movss	DWORD PTR tv307[ebp], xmm0
	call	??AVector4@@QAEAAMH@Z			; Vector4::operator[]
	movss	xmm0, DWORD PTR tv307[ebp]
	movss	DWORD PTR [eax], xmm0

; 362  : 	}

	pop	edi
	pop	esi
	pop	ebx
	mov	esp, ebp
	pop	ebp
	ret	4
?Pre_Rotate_Z@Matrix3D@@QAEXM@Z ENDP			; Matrix3D::Pre_Rotate_Z
_TEXT	ENDS
; Function compile flags: /Odtp /ZI
; File x:\github\renegade\dragonade_rxd\scripts\matrix3d.h
;	COMDAT ?Pre_Rotate_Y@Matrix3D@@QAEXM@Z
_TEXT	SEGMENT
tv311 = -88						; size = 4
tv309 = -88						; size = 4
tv307 = -88						; size = 4
tv305 = -88						; size = 4
tv303 = -88						; size = 4
tv301 = -88						; size = 4
tv299 = -88						; size = 4
tv297 = -88						; size = 4
_s$ = -20						; size = 4
_c$ = -16						; size = 4
_tmp2$ = -12						; size = 4
_tmp1$ = -8						; size = 4
_this$ = -4						; size = 4
_theta$ = 8						; size = 4
?Pre_Rotate_Y@Matrix3D@@QAEXM@Z PROC			; Matrix3D::Pre_Rotate_Y, COMDAT
; _this$ = ecx

; 326  : 	{

	push	ebp
	mov	ebp, esp
	sub	esp, 88					; 00000058H
	push	ebx
	push	esi
	push	edi
	mov	DWORD PTR _this$[ebp], ecx

; 327  : 		float tmp1,tmp2;
; 328  : 		float c,s;
; 329  : 		c = cosf(theta);

	push	ecx
	movss	xmm0, DWORD PTR _theta$[ebp]
	movss	DWORD PTR [esp], xmm0
	call	_cosf
	add	esp, 4
	fstp	DWORD PTR _c$[ebp]

; 330  : 		s = sinf(theta);

	push	ecx
	movss	xmm0, DWORD PTR _theta$[ebp]
	movss	DWORD PTR [esp], xmm0
	call	_sinf
	add	esp, 4
	fstp	DWORD PTR _s$[ebp]

; 331  : 		tmp1 = Row[0][0]; tmp2 = Row[2][0];

	push	0
	mov	ecx, 16					; 00000010H
	imul	ecx, 0
	add	ecx, DWORD PTR _this$[ebp]
	call	??AVector4@@QAEAAMH@Z			; Vector4::operator[]
	movss	xmm0, DWORD PTR [eax]
	movss	DWORD PTR _tmp1$[ebp], xmm0
	push	0
	mov	ecx, 16					; 00000010H
	shl	ecx, 1
	add	ecx, DWORD PTR _this$[ebp]
	call	??AVector4@@QAEAAMH@Z			; Vector4::operator[]
	movss	xmm0, DWORD PTR [eax]
	movss	DWORD PTR _tmp2$[ebp], xmm0

; 332  : 		Row[0][0] = (float)( c*tmp1 + s*tmp2);

	movss	xmm0, DWORD PTR _c$[ebp]
	mulss	xmm0, DWORD PTR _tmp1$[ebp]
	movss	xmm1, DWORD PTR _s$[ebp]
	mulss	xmm1, DWORD PTR _tmp2$[ebp]
	addss	xmm0, xmm1
	push	0
	mov	ecx, 16					; 00000010H
	imul	ecx, 0
	add	ecx, DWORD PTR _this$[ebp]
	movss	DWORD PTR tv297[ebp], xmm0
	call	??AVector4@@QAEAAMH@Z			; Vector4::operator[]
	movss	xmm0, DWORD PTR tv297[ebp]
	movss	DWORD PTR [eax], xmm0

; 333  : 		Row[2][0] = (float)(-s*tmp1 + c*tmp2);

	movss	xmm0, DWORD PTR _s$[ebp]
	xorps	xmm0, DWORD PTR __xmm@80000000800000008000000080000000
	mulss	xmm0, DWORD PTR _tmp1$[ebp]
	movss	xmm1, DWORD PTR _c$[ebp]
	mulss	xmm1, DWORD PTR _tmp2$[ebp]
	addss	xmm0, xmm1
	push	0
	mov	ecx, 16					; 00000010H
	shl	ecx, 1
	add	ecx, DWORD PTR _this$[ebp]
	movss	DWORD PTR tv299[ebp], xmm0
	call	??AVector4@@QAEAAMH@Z			; Vector4::operator[]
	movss	xmm0, DWORD PTR tv299[ebp]
	movss	DWORD PTR [eax], xmm0

; 334  : 		tmp1 = Row[0][1]; tmp2 = Row[2][1];

	push	1
	mov	ecx, 16					; 00000010H
	imul	ecx, 0
	add	ecx, DWORD PTR _this$[ebp]
	call	??AVector4@@QAEAAMH@Z			; Vector4::operator[]
	movss	xmm0, DWORD PTR [eax]
	movss	DWORD PTR _tmp1$[ebp], xmm0
	push	1
	mov	ecx, 16					; 00000010H
	shl	ecx, 1
	add	ecx, DWORD PTR _this$[ebp]
	call	??AVector4@@QAEAAMH@Z			; Vector4::operator[]
	movss	xmm0, DWORD PTR [eax]
	movss	DWORD PTR _tmp2$[ebp], xmm0

; 335  : 		Row[0][1] = (float)( c*tmp1 + s*tmp2);

	movss	xmm0, DWORD PTR _c$[ebp]
	mulss	xmm0, DWORD PTR _tmp1$[ebp]
	movss	xmm1, DWORD PTR _s$[ebp]
	mulss	xmm1, DWORD PTR _tmp2$[ebp]
	addss	xmm0, xmm1
	push	1
	mov	ecx, 16					; 00000010H
	imul	ecx, 0
	add	ecx, DWORD PTR _this$[ebp]
	movss	DWORD PTR tv301[ebp], xmm0
	call	??AVector4@@QAEAAMH@Z			; Vector4::operator[]
	movss	xmm0, DWORD PTR tv301[ebp]
	movss	DWORD PTR [eax], xmm0

; 336  : 		Row[2][1] = (float)(-s*tmp1 + c*tmp2);

	movss	xmm0, DWORD PTR _s$[ebp]
	xorps	xmm0, DWORD PTR __xmm@80000000800000008000000080000000
	mulss	xmm0, DWORD PTR _tmp1$[ebp]
	movss	xmm1, DWORD PTR _c$[ebp]
	mulss	xmm1, DWORD PTR _tmp2$[ebp]
	addss	xmm0, xmm1
	push	1
	mov	ecx, 16					; 00000010H
	shl	ecx, 1
	add	ecx, DWORD PTR _this$[ebp]
	movss	DWORD PTR tv303[ebp], xmm0
	call	??AVector4@@QAEAAMH@Z			; Vector4::operator[]
	movss	xmm0, DWORD PTR tv303[ebp]
	movss	DWORD PTR [eax], xmm0

; 337  : 		tmp1 = Row[0][2]; tmp2 = Row[2][2];

	push	2
	mov	ecx, 16					; 00000010H
	imul	ecx, 0
	add	ecx, DWORD PTR _this$[ebp]
	call	??AVector4@@QAEAAMH@Z			; Vector4::operator[]
	movss	xmm0, DWORD PTR [eax]
	movss	DWORD PTR _tmp1$[ebp], xmm0
	push	2
	mov	ecx, 16					; 00000010H
	shl	ecx, 1
	add	ecx, DWORD PTR _this$[ebp]
	call	??AVector4@@QAEAAMH@Z			; Vector4::operator[]
	movss	xmm0, DWORD PTR [eax]
	movss	DWORD PTR _tmp2$[ebp], xmm0

; 338  : 		Row[0][2] = (float)( c*tmp1 + s*tmp2);

	movss	xmm0, DWORD PTR _c$[ebp]
	mulss	xmm0, DWORD PTR _tmp1$[ebp]
	movss	xmm1, DWORD PTR _s$[ebp]
	mulss	xmm1, DWORD PTR _tmp2$[ebp]
	addss	xmm0, xmm1
	push	2
	mov	ecx, 16					; 00000010H
	imul	ecx, 0
	add	ecx, DWORD PTR _this$[ebp]
	movss	DWORD PTR tv305[ebp], xmm0
	call	??AVector4@@QAEAAMH@Z			; Vector4::operator[]
	movss	xmm0, DWORD PTR tv305[ebp]
	movss	DWORD PTR [eax], xmm0

; 339  : 		Row[2][2] = (float)(-s*tmp1 + c*tmp2);

	movss	xmm0, DWORD PTR _s$[ebp]
	xorps	xmm0, DWORD PTR __xmm@80000000800000008000000080000000
	mulss	xmm0, DWORD PTR _tmp1$[ebp]
	movss	xmm1, DWORD PTR _c$[ebp]
	mulss	xmm1, DWORD PTR _tmp2$[ebp]
	addss	xmm0, xmm1
	push	2
	mov	ecx, 16					; 00000010H
	shl	ecx, 1
	add	ecx, DWORD PTR _this$[ebp]
	movss	DWORD PTR tv307[ebp], xmm0
	call	??AVector4@@QAEAAMH@Z			; Vector4::operator[]
	movss	xmm0, DWORD PTR tv307[ebp]
	movss	DWORD PTR [eax], xmm0

; 340  : 		tmp1 = Row[0][3]; tmp2 = Row[2][3];

	push	3
	mov	ecx, 16					; 00000010H
	imul	ecx, 0
	add	ecx, DWORD PTR _this$[ebp]
	call	??AVector4@@QAEAAMH@Z			; Vector4::operator[]
	movss	xmm0, DWORD PTR [eax]
	movss	DWORD PTR _tmp1$[ebp], xmm0
	push	3
	mov	ecx, 16					; 00000010H
	shl	ecx, 1
	add	ecx, DWORD PTR _this$[ebp]
	call	??AVector4@@QAEAAMH@Z			; Vector4::operator[]
	movss	xmm0, DWORD PTR [eax]
	movss	DWORD PTR _tmp2$[ebp], xmm0

; 341  : 		Row[0][3] = (float)( c*tmp1 + s*tmp2);

	movss	xmm0, DWORD PTR _c$[ebp]
	mulss	xmm0, DWORD PTR _tmp1$[ebp]
	movss	xmm1, DWORD PTR _s$[ebp]
	mulss	xmm1, DWORD PTR _tmp2$[ebp]
	addss	xmm0, xmm1
	push	3
	mov	ecx, 16					; 00000010H
	imul	ecx, 0
	add	ecx, DWORD PTR _this$[ebp]
	movss	DWORD PTR tv309[ebp], xmm0
	call	??AVector4@@QAEAAMH@Z			; Vector4::operator[]
	movss	xmm0, DWORD PTR tv309[ebp]
	movss	DWORD PTR [eax], xmm0

; 342  : 		Row[2][3] = (float)(-s*tmp1 + c*tmp2);

	movss	xmm0, DWORD PTR _s$[ebp]
	xorps	xmm0, DWORD PTR __xmm@80000000800000008000000080000000
	mulss	xmm0, DWORD PTR _tmp1$[ebp]
	movss	xmm1, DWORD PTR _c$[ebp]
	mulss	xmm1, DWORD PTR _tmp2$[ebp]
	addss	xmm0, xmm1
	push	3
	mov	ecx, 16					; 00000010H
	shl	ecx, 1
	add	ecx, DWORD PTR _this$[ebp]
	movss	DWORD PTR tv311[ebp], xmm0
	call	??AVector4@@QAEAAMH@Z			; Vector4::operator[]
	movss	xmm0, DWORD PTR tv311[ebp]
	movss	DWORD PTR [eax], xmm0

; 343  : 	}

	pop	edi
	pop	esi
	pop	ebx
	mov	esp, ebp
	pop	ebp
	ret	4
?Pre_Rotate_Y@Matrix3D@@QAEXM@Z ENDP			; Matrix3D::Pre_Rotate_Y
_TEXT	ENDS
; Function compile flags: /Odtp /ZI
; File x:\github\renegade\dragonade_rxd\scripts\matrix3d.h
;	COMDAT ?Pre_Rotate_X@Matrix3D@@QAEXM@Z
_TEXT	SEGMENT
tv307 = -88						; size = 4
tv305 = -88						; size = 4
tv303 = -88						; size = 4
tv301 = -88						; size = 4
tv299 = -88						; size = 4
tv297 = -88						; size = 4
tv295 = -88						; size = 4
tv293 = -88						; size = 4
_s$ = -20						; size = 4
_c$ = -16						; size = 4
_tmp2$ = -12						; size = 4
_tmp1$ = -8						; size = 4
_this$ = -4						; size = 4
_theta$ = 8						; size = 4
?Pre_Rotate_X@Matrix3D@@QAEXM@Z PROC			; Matrix3D::Pre_Rotate_X, COMDAT
; _this$ = ecx

; 307  : 	{

	push	ebp
	mov	ebp, esp
	sub	esp, 88					; 00000058H
	push	ebx
	push	esi
	push	edi
	mov	DWORD PTR _this$[ebp], ecx

; 308  : 		float tmp1,tmp2;
; 309  : 		float c,s;
; 310  : 		c = cosf(theta);

	push	ecx
	movss	xmm0, DWORD PTR _theta$[ebp]
	movss	DWORD PTR [esp], xmm0
	call	_cosf
	add	esp, 4
	fstp	DWORD PTR _c$[ebp]

; 311  : 		s = sinf(theta);

	push	ecx
	movss	xmm0, DWORD PTR _theta$[ebp]
	movss	DWORD PTR [esp], xmm0
	call	_sinf
	add	esp, 4
	fstp	DWORD PTR _s$[ebp]

; 312  : 		tmp1 = Row[1][0]; tmp2 = Row[2][0];

	push	0
	mov	ecx, 16					; 00000010H
	shl	ecx, 0
	add	ecx, DWORD PTR _this$[ebp]
	call	??AVector4@@QAEAAMH@Z			; Vector4::operator[]
	movss	xmm0, DWORD PTR [eax]
	movss	DWORD PTR _tmp1$[ebp], xmm0
	push	0
	mov	ecx, 16					; 00000010H
	shl	ecx, 1
	add	ecx, DWORD PTR _this$[ebp]
	call	??AVector4@@QAEAAMH@Z			; Vector4::operator[]
	movss	xmm0, DWORD PTR [eax]
	movss	DWORD PTR _tmp2$[ebp], xmm0

; 313  : 		Row[1][0] = (float)(c*tmp1 - s*tmp2);

	movss	xmm0, DWORD PTR _c$[ebp]
	mulss	xmm0, DWORD PTR _tmp1$[ebp]
	movss	xmm1, DWORD PTR _s$[ebp]
	mulss	xmm1, DWORD PTR _tmp2$[ebp]
	subss	xmm0, xmm1
	push	0
	mov	ecx, 16					; 00000010H
	shl	ecx, 0
	add	ecx, DWORD PTR _this$[ebp]
	movss	DWORD PTR tv293[ebp], xmm0
	call	??AVector4@@QAEAAMH@Z			; Vector4::operator[]
	movss	xmm0, DWORD PTR tv293[ebp]
	movss	DWORD PTR [eax], xmm0

; 314  : 		Row[2][0] = (float)(s*tmp1 + c*tmp2);

	movss	xmm0, DWORD PTR _s$[ebp]
	mulss	xmm0, DWORD PTR _tmp1$[ebp]
	movss	xmm1, DWORD PTR _c$[ebp]
	mulss	xmm1, DWORD PTR _tmp2$[ebp]
	addss	xmm0, xmm1
	push	0
	mov	ecx, 16					; 00000010H
	shl	ecx, 1
	add	ecx, DWORD PTR _this$[ebp]
	movss	DWORD PTR tv295[ebp], xmm0
	call	??AVector4@@QAEAAMH@Z			; Vector4::operator[]
	movss	xmm0, DWORD PTR tv295[ebp]
	movss	DWORD PTR [eax], xmm0

; 315  : 		tmp1 = Row[1][1]; tmp2 = Row[2][1];

	push	1
	mov	ecx, 16					; 00000010H
	shl	ecx, 0
	add	ecx, DWORD PTR _this$[ebp]
	call	??AVector4@@QAEAAMH@Z			; Vector4::operator[]
	movss	xmm0, DWORD PTR [eax]
	movss	DWORD PTR _tmp1$[ebp], xmm0
	push	1
	mov	ecx, 16					; 00000010H
	shl	ecx, 1
	add	ecx, DWORD PTR _this$[ebp]
	call	??AVector4@@QAEAAMH@Z			; Vector4::operator[]
	movss	xmm0, DWORD PTR [eax]
	movss	DWORD PTR _tmp2$[ebp], xmm0

; 316  : 		Row[1][1] = (float)(c*tmp1 - s*tmp2);

	movss	xmm0, DWORD PTR _c$[ebp]
	mulss	xmm0, DWORD PTR _tmp1$[ebp]
	movss	xmm1, DWORD PTR _s$[ebp]
	mulss	xmm1, DWORD PTR _tmp2$[ebp]
	subss	xmm0, xmm1
	push	1
	mov	ecx, 16					; 00000010H
	shl	ecx, 0
	add	ecx, DWORD PTR _this$[ebp]
	movss	DWORD PTR tv297[ebp], xmm0
	call	??AVector4@@QAEAAMH@Z			; Vector4::operator[]
	movss	xmm0, DWORD PTR tv297[ebp]
	movss	DWORD PTR [eax], xmm0

; 317  : 		Row[2][1] = (float)(s*tmp1 + c*tmp2);

	movss	xmm0, DWORD PTR _s$[ebp]
	mulss	xmm0, DWORD PTR _tmp1$[ebp]
	movss	xmm1, DWORD PTR _c$[ebp]
	mulss	xmm1, DWORD PTR _tmp2$[ebp]
	addss	xmm0, xmm1
	push	1
	mov	ecx, 16					; 00000010H
	shl	ecx, 1
	add	ecx, DWORD PTR _this$[ebp]
	movss	DWORD PTR tv299[ebp], xmm0
	call	??AVector4@@QAEAAMH@Z			; Vector4::operator[]
	movss	xmm0, DWORD PTR tv299[ebp]
	movss	DWORD PTR [eax], xmm0

; 318  : 		tmp1 = Row[1][2]; tmp2 = Row[2][2];

	push	2
	mov	ecx, 16					; 00000010H
	shl	ecx, 0
	add	ecx, DWORD PTR _this$[ebp]
	call	??AVector4@@QAEAAMH@Z			; Vector4::operator[]
	movss	xmm0, DWORD PTR [eax]
	movss	DWORD PTR _tmp1$[ebp], xmm0
	push	2
	mov	ecx, 16					; 00000010H
	shl	ecx, 1
	add	ecx, DWORD PTR _this$[ebp]
	call	??AVector4@@QAEAAMH@Z			; Vector4::operator[]
	movss	xmm0, DWORD PTR [eax]
	movss	DWORD PTR _tmp2$[ebp], xmm0

; 319  : 		Row[1][2] = (float)(c*tmp1 - s*tmp2);

	movss	xmm0, DWORD PTR _c$[ebp]
	mulss	xmm0, DWORD PTR _tmp1$[ebp]
	movss	xmm1, DWORD PTR _s$[ebp]
	mulss	xmm1, DWORD PTR _tmp2$[ebp]
	subss	xmm0, xmm1
	push	2
	mov	ecx, 16					; 00000010H
	shl	ecx, 0
	add	ecx, DWORD PTR _this$[ebp]
	movss	DWORD PTR tv301[ebp], xmm0
	call	??AVector4@@QAEAAMH@Z			; Vector4::operator[]
	movss	xmm0, DWORD PTR tv301[ebp]
	movss	DWORD PTR [eax], xmm0

; 320  : 		Row[2][2] = (float)(s*tmp1 + c*tmp2);

	movss	xmm0, DWORD PTR _s$[ebp]
	mulss	xmm0, DWORD PTR _tmp1$[ebp]
	movss	xmm1, DWORD PTR _c$[ebp]
	mulss	xmm1, DWORD PTR _tmp2$[ebp]
	addss	xmm0, xmm1
	push	2
	mov	ecx, 16					; 00000010H
	shl	ecx, 1
	add	ecx, DWORD PTR _this$[ebp]
	movss	DWORD PTR tv303[ebp], xmm0
	call	??AVector4@@QAEAAMH@Z			; Vector4::operator[]
	movss	xmm0, DWORD PTR tv303[ebp]
	movss	DWORD PTR [eax], xmm0

; 321  : 		tmp1 = Row[1][3]; tmp2 = Row[2][3];

	push	3
	mov	ecx, 16					; 00000010H
	shl	ecx, 0
	add	ecx, DWORD PTR _this$[ebp]
	call	??AVector4@@QAEAAMH@Z			; Vector4::operator[]
	movss	xmm0, DWORD PTR [eax]
	movss	DWORD PTR _tmp1$[ebp], xmm0
	push	3
	mov	ecx, 16					; 00000010H
	shl	ecx, 1
	add	ecx, DWORD PTR _this$[ebp]
	call	??AVector4@@QAEAAMH@Z			; Vector4::operator[]
	movss	xmm0, DWORD PTR [eax]
	movss	DWORD PTR _tmp2$[ebp], xmm0

; 322  : 		Row[1][3] = (float)(c*tmp1 - s*tmp2);

	movss	xmm0, DWORD PTR _c$[ebp]
	mulss	xmm0, DWORD PTR _tmp1$[ebp]
	movss	xmm1, DWORD PTR _s$[ebp]
	mulss	xmm1, DWORD PTR _tmp2$[ebp]
	subss	xmm0, xmm1
	push	3
	mov	ecx, 16					; 00000010H
	shl	ecx, 0
	add	ecx, DWORD PTR _this$[ebp]
	movss	DWORD PTR tv305[ebp], xmm0
	call	??AVector4@@QAEAAMH@Z			; Vector4::operator[]
	movss	xmm0, DWORD PTR tv305[ebp]
	movss	DWORD PTR [eax], xmm0

; 323  : 		Row[2][3] = (float)(s*tmp1 + c*tmp2);

	movss	xmm0, DWORD PTR _s$[ebp]
	mulss	xmm0, DWORD PTR _tmp1$[ebp]
	movss	xmm1, DWORD PTR _c$[ebp]
	mulss	xmm1, DWORD PTR _tmp2$[ebp]
	addss	xmm0, xmm1
	push	3
	mov	ecx, 16					; 00000010H
	shl	ecx, 1
	add	ecx, DWORD PTR _this$[ebp]
	movss	DWORD PTR tv307[ebp], xmm0
	call	??AVector4@@QAEAAMH@Z			; Vector4::operator[]
	movss	xmm0, DWORD PTR tv307[ebp]
	movss	DWORD PTR [eax], xmm0

; 324  : 	}

	pop	edi
	pop	esi
	pop	ebx
	mov	esp, ebp
	pop	ebp
	ret	4
?Pre_Rotate_X@Matrix3D@@QAEXM@Z ENDP			; Matrix3D::Pre_Rotate_X
_TEXT	ENDS
; Function compile flags: /Odtp /ZI
; File x:\github\renegade\dragonade_rxd\scripts\matrix3d.h
;	COMDAT ?Scale@Matrix3D@@QAEXAAVVector3@@@Z
_TEXT	SEGMENT
_this$ = -4						; size = 4
_scale$ = 8						; size = 4
?Scale@Matrix3D@@QAEXAAVVector3@@@Z PROC		; Matrix3D::Scale, COMDAT
; _this$ = ecx

; 303  : 	{

	push	ebp
	mov	ebp, esp
	sub	esp, 68					; 00000044H
	push	ebx
	push	esi
	push	edi
	mov	DWORD PTR _this$[ebp], ecx

; 304  : 		Scale(scale.X, scale.Y, scale.Z);

	mov	eax, DWORD PTR _scale$[ebp]
	push	ecx
	movss	xmm0, DWORD PTR [eax+8]
	movss	DWORD PTR [esp], xmm0
	mov	ecx, DWORD PTR _scale$[ebp]
	push	ecx
	movss	xmm0, DWORD PTR [ecx+4]
	movss	DWORD PTR [esp], xmm0
	mov	edx, DWORD PTR _scale$[ebp]
	push	ecx
	movss	xmm0, DWORD PTR [edx]
	movss	DWORD PTR [esp], xmm0
	mov	ecx, DWORD PTR _this$[ebp]
	call	?Scale@Matrix3D@@QAEXMMM@Z		; Matrix3D::Scale

; 305  : 	}

	pop	edi
	pop	esi
	pop	ebx
	mov	esp, ebp
	pop	ebp
	ret	4
?Scale@Matrix3D@@QAEXAAVVector3@@@Z ENDP		; Matrix3D::Scale
_TEXT	ENDS
; Function compile flags: /Odtp /ZI
; File x:\github\renegade\dragonade_rxd\scripts\matrix3d.h
;	COMDAT ?Scale@Matrix3D@@QAEXMMM@Z
_TEXT	SEGMENT
tv166 = -72						; size = 4
tv158 = -72						; size = 4
tv150 = -72						; size = 4
tv142 = -72						; size = 4
tv134 = -72						; size = 4
tv94 = -72						; size = 4
tv86 = -72						; size = 4
tv78 = -72						; size = 4
tv70 = -72						; size = 4
_this$ = -4						; size = 4
_x$ = 8							; size = 4
_y$ = 12						; size = 4
_z$ = 16						; size = 4
?Scale@Matrix3D@@QAEXMMM@Z PROC				; Matrix3D::Scale, COMDAT
; _this$ = ecx

; 291  : 	{

	push	ebp
	mov	ebp, esp
	sub	esp, 72					; 00000048H
	push	ebx
	push	esi
	push	edi
	mov	DWORD PTR _this$[ebp], ecx

; 292  : 		Row[0][0] *= x;

	push	0
	mov	ecx, 16					; 00000010H
	imul	ecx, 0
	add	ecx, DWORD PTR _this$[ebp]
	call	??AVector4@@QAEAAMH@Z			; Vector4::operator[]
	mov	DWORD PTR tv70[ebp], eax
	mov	eax, DWORD PTR tv70[ebp]
	movss	xmm0, DWORD PTR [eax]
	mulss	xmm0, DWORD PTR _x$[ebp]
	mov	ecx, DWORD PTR tv70[ebp]
	movss	DWORD PTR [ecx], xmm0

; 293  : 		Row[1][0] *= x;

	push	0
	mov	ecx, 16					; 00000010H
	shl	ecx, 0
	add	ecx, DWORD PTR _this$[ebp]
	call	??AVector4@@QAEAAMH@Z			; Vector4::operator[]
	mov	DWORD PTR tv78[ebp], eax
	mov	eax, DWORD PTR tv78[ebp]
	movss	xmm0, DWORD PTR [eax]
	mulss	xmm0, DWORD PTR _x$[ebp]
	mov	ecx, DWORD PTR tv78[ebp]
	movss	DWORD PTR [ecx], xmm0

; 294  : 		Row[2][0] *= x;

	push	0
	mov	ecx, 16					; 00000010H
	shl	ecx, 1
	add	ecx, DWORD PTR _this$[ebp]
	call	??AVector4@@QAEAAMH@Z			; Vector4::operator[]
	mov	DWORD PTR tv86[ebp], eax
	mov	eax, DWORD PTR tv86[ebp]
	movss	xmm0, DWORD PTR [eax]
	mulss	xmm0, DWORD PTR _x$[ebp]
	mov	ecx, DWORD PTR tv86[ebp]
	movss	DWORD PTR [ecx], xmm0

; 295  : 		Row[0][1] *= y;

	push	1
	mov	ecx, 16					; 00000010H
	imul	ecx, 0
	add	ecx, DWORD PTR _this$[ebp]
	call	??AVector4@@QAEAAMH@Z			; Vector4::operator[]
	mov	DWORD PTR tv94[ebp], eax
	mov	eax, DWORD PTR tv94[ebp]
	movss	xmm0, DWORD PTR [eax]
	mulss	xmm0, DWORD PTR _y$[ebp]
	mov	ecx, DWORD PTR tv94[ebp]
	movss	DWORD PTR [ecx], xmm0

; 296  : 		Row[1][1] *= y;

	push	1
	mov	ecx, 16					; 00000010H
	shl	ecx, 0
	add	ecx, DWORD PTR _this$[ebp]
	call	??AVector4@@QAEAAMH@Z			; Vector4::operator[]
	mov	DWORD PTR tv134[ebp], eax
	mov	eax, DWORD PTR tv134[ebp]
	movss	xmm0, DWORD PTR [eax]
	mulss	xmm0, DWORD PTR _y$[ebp]
	mov	ecx, DWORD PTR tv134[ebp]
	movss	DWORD PTR [ecx], xmm0

; 297  : 		Row[2][1] *= y;

	push	1
	mov	ecx, 16					; 00000010H
	shl	ecx, 1
	add	ecx, DWORD PTR _this$[ebp]
	call	??AVector4@@QAEAAMH@Z			; Vector4::operator[]
	mov	DWORD PTR tv142[ebp], eax
	mov	eax, DWORD PTR tv142[ebp]
	movss	xmm0, DWORD PTR [eax]
	mulss	xmm0, DWORD PTR _y$[ebp]
	mov	ecx, DWORD PTR tv142[ebp]
	movss	DWORD PTR [ecx], xmm0

; 298  : 		Row[0][2] *= z;

	push	2
	mov	ecx, 16					; 00000010H
	imul	ecx, 0
	add	ecx, DWORD PTR _this$[ebp]
	call	??AVector4@@QAEAAMH@Z			; Vector4::operator[]
	mov	DWORD PTR tv150[ebp], eax
	mov	eax, DWORD PTR tv150[ebp]
	movss	xmm0, DWORD PTR [eax]
	mulss	xmm0, DWORD PTR _z$[ebp]
	mov	ecx, DWORD PTR tv150[ebp]
	movss	DWORD PTR [ecx], xmm0

; 299  : 		Row[1][2] *= z;

	push	2
	mov	ecx, 16					; 00000010H
	shl	ecx, 0
	add	ecx, DWORD PTR _this$[ebp]
	call	??AVector4@@QAEAAMH@Z			; Vector4::operator[]
	mov	DWORD PTR tv158[ebp], eax
	mov	eax, DWORD PTR tv158[ebp]
	movss	xmm0, DWORD PTR [eax]
	mulss	xmm0, DWORD PTR _z$[ebp]
	mov	ecx, DWORD PTR tv158[ebp]
	movss	DWORD PTR [ecx], xmm0

; 300  : 		Row[2][2] *= z;

	push	2
	mov	ecx, 16					; 00000010H
	shl	ecx, 1
	add	ecx, DWORD PTR _this$[ebp]
	call	??AVector4@@QAEAAMH@Z			; Vector4::operator[]
	mov	DWORD PTR tv166[ebp], eax
	mov	eax, DWORD PTR tv166[ebp]
	movss	xmm0, DWORD PTR [eax]
	mulss	xmm0, DWORD PTR _z$[ebp]
	mov	ecx, DWORD PTR tv166[ebp]
	movss	DWORD PTR [ecx], xmm0

; 301  : 	}

	pop	edi
	pop	esi
	pop	ebx
	mov	esp, ebp
	pop	ebp
	ret	12					; 0000000cH
?Scale@Matrix3D@@QAEXMMM@Z ENDP				; Matrix3D::Scale
_TEXT	ENDS
; Function compile flags: /Odtp /ZI
; File x:\github\renegade\dragonade_rxd\scripts\matrix3d.h
;	COMDAT ?Scale@Matrix3D@@QAEXM@Z
_TEXT	SEGMENT
tv166 = -72						; size = 4
tv158 = -72						; size = 4
tv150 = -72						; size = 4
tv142 = -72						; size = 4
tv134 = -72						; size = 4
tv94 = -72						; size = 4
tv86 = -72						; size = 4
tv78 = -72						; size = 4
tv70 = -72						; size = 4
_this$ = -4						; size = 4
_scale$ = 8						; size = 4
?Scale@Matrix3D@@QAEXM@Z PROC				; Matrix3D::Scale, COMDAT
; _this$ = ecx

; 279  : 	{

	push	ebp
	mov	ebp, esp
	sub	esp, 72					; 00000048H
	push	ebx
	push	esi
	push	edi
	mov	DWORD PTR _this$[ebp], ecx

; 280  : 		Row[0][0] *= scale;

	push	0
	mov	ecx, 16					; 00000010H
	imul	ecx, 0
	add	ecx, DWORD PTR _this$[ebp]
	call	??AVector4@@QAEAAMH@Z			; Vector4::operator[]
	mov	DWORD PTR tv70[ebp], eax
	mov	eax, DWORD PTR tv70[ebp]
	movss	xmm0, DWORD PTR [eax]
	mulss	xmm0, DWORD PTR _scale$[ebp]
	mov	ecx, DWORD PTR tv70[ebp]
	movss	DWORD PTR [ecx], xmm0

; 281  : 		Row[1][0] *= scale;

	push	0
	mov	ecx, 16					; 00000010H
	shl	ecx, 0
	add	ecx, DWORD PTR _this$[ebp]
	call	??AVector4@@QAEAAMH@Z			; Vector4::operator[]
	mov	DWORD PTR tv78[ebp], eax
	mov	eax, DWORD PTR tv78[ebp]
	movss	xmm0, DWORD PTR [eax]
	mulss	xmm0, DWORD PTR _scale$[ebp]
	mov	ecx, DWORD PTR tv78[ebp]
	movss	DWORD PTR [ecx], xmm0

; 282  : 		Row[2][0] *= scale;

	push	0
	mov	ecx, 16					; 00000010H
	shl	ecx, 1
	add	ecx, DWORD PTR _this$[ebp]
	call	??AVector4@@QAEAAMH@Z			; Vector4::operator[]
	mov	DWORD PTR tv86[ebp], eax
	mov	eax, DWORD PTR tv86[ebp]
	movss	xmm0, DWORD PTR [eax]
	mulss	xmm0, DWORD PTR _scale$[ebp]
	mov	ecx, DWORD PTR tv86[ebp]
	movss	DWORD PTR [ecx], xmm0

; 283  : 		Row[0][1] *= scale;

	push	1
	mov	ecx, 16					; 00000010H
	imul	ecx, 0
	add	ecx, DWORD PTR _this$[ebp]
	call	??AVector4@@QAEAAMH@Z			; Vector4::operator[]
	mov	DWORD PTR tv94[ebp], eax
	mov	eax, DWORD PTR tv94[ebp]
	movss	xmm0, DWORD PTR [eax]
	mulss	xmm0, DWORD PTR _scale$[ebp]
	mov	ecx, DWORD PTR tv94[ebp]
	movss	DWORD PTR [ecx], xmm0

; 284  : 		Row[1][1] *= scale;

	push	1
	mov	ecx, 16					; 00000010H
	shl	ecx, 0
	add	ecx, DWORD PTR _this$[ebp]
	call	??AVector4@@QAEAAMH@Z			; Vector4::operator[]
	mov	DWORD PTR tv134[ebp], eax
	mov	eax, DWORD PTR tv134[ebp]
	movss	xmm0, DWORD PTR [eax]
	mulss	xmm0, DWORD PTR _scale$[ebp]
	mov	ecx, DWORD PTR tv134[ebp]
	movss	DWORD PTR [ecx], xmm0

; 285  : 		Row[2][1] *= scale;

	push	1
	mov	ecx, 16					; 00000010H
	shl	ecx, 1
	add	ecx, DWORD PTR _this$[ebp]
	call	??AVector4@@QAEAAMH@Z			; Vector4::operator[]
	mov	DWORD PTR tv142[ebp], eax
	mov	eax, DWORD PTR tv142[ebp]
	movss	xmm0, DWORD PTR [eax]
	mulss	xmm0, DWORD PTR _scale$[ebp]
	mov	ecx, DWORD PTR tv142[ebp]
	movss	DWORD PTR [ecx], xmm0

; 286  : 		Row[0][2] *= scale;

	push	2
	mov	ecx, 16					; 00000010H
	imul	ecx, 0
	add	ecx, DWORD PTR _this$[ebp]
	call	??AVector4@@QAEAAMH@Z			; Vector4::operator[]
	mov	DWORD PTR tv150[ebp], eax
	mov	eax, DWORD PTR tv150[ebp]
	movss	xmm0, DWORD PTR [eax]
	mulss	xmm0, DWORD PTR _scale$[ebp]
	mov	ecx, DWORD PTR tv150[ebp]
	movss	DWORD PTR [ecx], xmm0

; 287  : 		Row[1][2] *= scale;

	push	2
	mov	ecx, 16					; 00000010H
	shl	ecx, 0
	add	ecx, DWORD PTR _this$[ebp]
	call	??AVector4@@QAEAAMH@Z			; Vector4::operator[]
	mov	DWORD PTR tv158[ebp], eax
	mov	eax, DWORD PTR tv158[ebp]
	movss	xmm0, DWORD PTR [eax]
	mulss	xmm0, DWORD PTR _scale$[ebp]
	mov	ecx, DWORD PTR tv158[ebp]
	movss	DWORD PTR [ecx], xmm0

; 288  : 		Row[2][2] *= scale;

	push	2
	mov	ecx, 16					; 00000010H
	shl	ecx, 1
	add	ecx, DWORD PTR _this$[ebp]
	call	??AVector4@@QAEAAMH@Z			; Vector4::operator[]
	mov	DWORD PTR tv166[ebp], eax
	mov	eax, DWORD PTR tv166[ebp]
	movss	xmm0, DWORD PTR [eax]
	mulss	xmm0, DWORD PTR _scale$[ebp]
	mov	ecx, DWORD PTR tv166[ebp]
	movss	DWORD PTR [ecx], xmm0

; 289  : 	}

	pop	edi
	pop	esi
	pop	ebx
	mov	esp, ebp
	pop	ebp
	ret	4
?Scale@Matrix3D@@QAEXM@Z ENDP				; Matrix3D::Scale
_TEXT	ENDS
; Function compile flags: /Odtp /ZI
; File x:\github\renegade\dragonade_rxd\scripts\matrix3d.h
;	COMDAT ?Rotate_Z@Matrix3D@@QAEXMM@Z
_TEXT	SEGMENT
tv248 = -80						; size = 4
tv246 = -80						; size = 4
tv244 = -80						; size = 4
tv242 = -80						; size = 4
tv240 = -80						; size = 4
tv238 = -80						; size = 4
_tmp2$ = -12						; size = 4
_tmp1$ = -8						; size = 4
_this$ = -4						; size = 4
_s$ = 8							; size = 4
_c$ = 12						; size = 4
?Rotate_Z@Matrix3D@@QAEXMM@Z PROC			; Matrix3D::Rotate_Z, COMDAT
; _this$ = ecx

; 266  : 	{

	push	ebp
	mov	ebp, esp
	sub	esp, 80					; 00000050H
	push	ebx
	push	esi
	push	edi
	mov	DWORD PTR _this$[ebp], ecx

; 267  : 		float tmp1,tmp2;
; 268  : 		tmp1 = Row[0][0]; tmp2 = Row[0][1];

	push	0
	mov	ecx, 16					; 00000010H
	imul	ecx, 0
	add	ecx, DWORD PTR _this$[ebp]
	call	??AVector4@@QAEAAMH@Z			; Vector4::operator[]
	movss	xmm0, DWORD PTR [eax]
	movss	DWORD PTR _tmp1$[ebp], xmm0
	push	1
	mov	ecx, 16					; 00000010H
	imul	ecx, 0
	add	ecx, DWORD PTR _this$[ebp]
	call	??AVector4@@QAEAAMH@Z			; Vector4::operator[]
	movss	xmm0, DWORD PTR [eax]
	movss	DWORD PTR _tmp2$[ebp], xmm0

; 269  : 		Row[0][0] = (float)( c*tmp1 + s*tmp2);

	movss	xmm0, DWORD PTR _c$[ebp]
	mulss	xmm0, DWORD PTR _tmp1$[ebp]
	movss	xmm1, DWORD PTR _s$[ebp]
	mulss	xmm1, DWORD PTR _tmp2$[ebp]
	addss	xmm0, xmm1
	push	0
	mov	ecx, 16					; 00000010H
	imul	ecx, 0
	add	ecx, DWORD PTR _this$[ebp]
	movss	DWORD PTR tv238[ebp], xmm0
	call	??AVector4@@QAEAAMH@Z			; Vector4::operator[]
	movss	xmm0, DWORD PTR tv238[ebp]
	movss	DWORD PTR [eax], xmm0

; 270  : 		Row[0][1] = (float)(-s*tmp1 + c*tmp2);

	movss	xmm0, DWORD PTR _s$[ebp]
	xorps	xmm0, DWORD PTR __xmm@80000000800000008000000080000000
	mulss	xmm0, DWORD PTR _tmp1$[ebp]
	movss	xmm1, DWORD PTR _c$[ebp]
	mulss	xmm1, DWORD PTR _tmp2$[ebp]
	addss	xmm0, xmm1
	push	1
	mov	ecx, 16					; 00000010H
	imul	ecx, 0
	add	ecx, DWORD PTR _this$[ebp]
	movss	DWORD PTR tv240[ebp], xmm0
	call	??AVector4@@QAEAAMH@Z			; Vector4::operator[]
	movss	xmm0, DWORD PTR tv240[ebp]
	movss	DWORD PTR [eax], xmm0

; 271  : 		tmp1 = Row[1][0]; tmp2 = Row[1][1];

	push	0
	mov	ecx, 16					; 00000010H
	shl	ecx, 0
	add	ecx, DWORD PTR _this$[ebp]
	call	??AVector4@@QAEAAMH@Z			; Vector4::operator[]
	movss	xmm0, DWORD PTR [eax]
	movss	DWORD PTR _tmp1$[ebp], xmm0
	push	1
	mov	ecx, 16					; 00000010H
	shl	ecx, 0
	add	ecx, DWORD PTR _this$[ebp]
	call	??AVector4@@QAEAAMH@Z			; Vector4::operator[]
	movss	xmm0, DWORD PTR [eax]
	movss	DWORD PTR _tmp2$[ebp], xmm0

; 272  : 		Row[1][0] = (float)( c*tmp1 + s*tmp2);

	movss	xmm0, DWORD PTR _c$[ebp]
	mulss	xmm0, DWORD PTR _tmp1$[ebp]
	movss	xmm1, DWORD PTR _s$[ebp]
	mulss	xmm1, DWORD PTR _tmp2$[ebp]
	addss	xmm0, xmm1
	push	0
	mov	ecx, 16					; 00000010H
	shl	ecx, 0
	add	ecx, DWORD PTR _this$[ebp]
	movss	DWORD PTR tv242[ebp], xmm0
	call	??AVector4@@QAEAAMH@Z			; Vector4::operator[]
	movss	xmm0, DWORD PTR tv242[ebp]
	movss	DWORD PTR [eax], xmm0

; 273  : 		Row[1][1] = (float)(-s*tmp1 + c*tmp2);

	movss	xmm0, DWORD PTR _s$[ebp]
	xorps	xmm0, DWORD PTR __xmm@80000000800000008000000080000000
	mulss	xmm0, DWORD PTR _tmp1$[ebp]
	movss	xmm1, DWORD PTR _c$[ebp]
	mulss	xmm1, DWORD PTR _tmp2$[ebp]
	addss	xmm0, xmm1
	push	1
	mov	ecx, 16					; 00000010H
	shl	ecx, 0
	add	ecx, DWORD PTR _this$[ebp]
	movss	DWORD PTR tv244[ebp], xmm0
	call	??AVector4@@QAEAAMH@Z			; Vector4::operator[]
	movss	xmm0, DWORD PTR tv244[ebp]
	movss	DWORD PTR [eax], xmm0

; 274  : 		tmp1 = Row[2][0]; tmp2 = Row[2][1];

	push	0
	mov	ecx, 16					; 00000010H
	shl	ecx, 1
	add	ecx, DWORD PTR _this$[ebp]
	call	??AVector4@@QAEAAMH@Z			; Vector4::operator[]
	movss	xmm0, DWORD PTR [eax]
	movss	DWORD PTR _tmp1$[ebp], xmm0
	push	1
	mov	ecx, 16					; 00000010H
	shl	ecx, 1
	add	ecx, DWORD PTR _this$[ebp]
	call	??AVector4@@QAEAAMH@Z			; Vector4::operator[]
	movss	xmm0, DWORD PTR [eax]
	movss	DWORD PTR _tmp2$[ebp], xmm0

; 275  : 		Row[2][0] = (float)( c*tmp1 + s*tmp2);

	movss	xmm0, DWORD PTR _c$[ebp]
	mulss	xmm0, DWORD PTR _tmp1$[ebp]
	movss	xmm1, DWORD PTR _s$[ebp]
	mulss	xmm1, DWORD PTR _tmp2$[ebp]
	addss	xmm0, xmm1
	push	0
	mov	ecx, 16					; 00000010H
	shl	ecx, 1
	add	ecx, DWORD PTR _this$[ebp]
	movss	DWORD PTR tv246[ebp], xmm0
	call	??AVector4@@QAEAAMH@Z			; Vector4::operator[]
	movss	xmm0, DWORD PTR tv246[ebp]
	movss	DWORD PTR [eax], xmm0

; 276  : 		Row[2][1] = (float)(-s*tmp1 + c*tmp2);

	movss	xmm0, DWORD PTR _s$[ebp]
	xorps	xmm0, DWORD PTR __xmm@80000000800000008000000080000000
	mulss	xmm0, DWORD PTR _tmp1$[ebp]
	movss	xmm1, DWORD PTR _c$[ebp]
	mulss	xmm1, DWORD PTR _tmp2$[ebp]
	addss	xmm0, xmm1
	push	1
	mov	ecx, 16					; 00000010H
	shl	ecx, 1
	add	ecx, DWORD PTR _this$[ebp]
	movss	DWORD PTR tv248[ebp], xmm0
	call	??AVector4@@QAEAAMH@Z			; Vector4::operator[]
	movss	xmm0, DWORD PTR tv248[ebp]
	movss	DWORD PTR [eax], xmm0

; 277  : 	}

	pop	edi
	pop	esi
	pop	ebx
	mov	esp, ebp
	pop	ebp
	ret	8
?Rotate_Z@Matrix3D@@QAEXMM@Z ENDP			; Matrix3D::Rotate_Z
_TEXT	ENDS
; Function compile flags: /Odtp /ZI
; File x:\github\renegade\dragonade_rxd\scripts\matrix3d.h
;	COMDAT ?Rotate_Y@Matrix3D@@QAEXMM@Z
_TEXT	SEGMENT
tv245 = -80						; size = 4
tv243 = -80						; size = 4
tv241 = -80						; size = 4
tv239 = -80						; size = 4
tv237 = -80						; size = 4
tv235 = -80						; size = 4
_tmp2$ = -12						; size = 4
_tmp1$ = -8						; size = 4
_this$ = -4						; size = 4
_s$ = 8							; size = 4
_c$ = 12						; size = 4
?Rotate_Y@Matrix3D@@QAEXMM@Z PROC			; Matrix3D::Rotate_Y, COMDAT
; _this$ = ecx

; 253  : 	{

	push	ebp
	mov	ebp, esp
	sub	esp, 80					; 00000050H
	push	ebx
	push	esi
	push	edi
	mov	DWORD PTR _this$[ebp], ecx

; 254  : 		float tmp1,tmp2;
; 255  : 		tmp1 = Row[0][0]; tmp2 = Row[0][2];

	push	0
	mov	ecx, 16					; 00000010H
	imul	ecx, 0
	add	ecx, DWORD PTR _this$[ebp]
	call	??AVector4@@QAEAAMH@Z			; Vector4::operator[]
	movss	xmm0, DWORD PTR [eax]
	movss	DWORD PTR _tmp1$[ebp], xmm0
	push	2
	mov	ecx, 16					; 00000010H
	imul	ecx, 0
	add	ecx, DWORD PTR _this$[ebp]
	call	??AVector4@@QAEAAMH@Z			; Vector4::operator[]
	movss	xmm0, DWORD PTR [eax]
	movss	DWORD PTR _tmp2$[ebp], xmm0

; 256  : 		Row[0][0] = (float)(c*tmp1 - s*tmp2);

	movss	xmm0, DWORD PTR _c$[ebp]
	mulss	xmm0, DWORD PTR _tmp1$[ebp]
	movss	xmm1, DWORD PTR _s$[ebp]
	mulss	xmm1, DWORD PTR _tmp2$[ebp]
	subss	xmm0, xmm1
	push	0
	mov	ecx, 16					; 00000010H
	imul	ecx, 0
	add	ecx, DWORD PTR _this$[ebp]
	movss	DWORD PTR tv235[ebp], xmm0
	call	??AVector4@@QAEAAMH@Z			; Vector4::operator[]
	movss	xmm0, DWORD PTR tv235[ebp]
	movss	DWORD PTR [eax], xmm0

; 257  : 		Row[0][2] = (float)(s*tmp1 + c*tmp2);

	movss	xmm0, DWORD PTR _s$[ebp]
	mulss	xmm0, DWORD PTR _tmp1$[ebp]
	movss	xmm1, DWORD PTR _c$[ebp]
	mulss	xmm1, DWORD PTR _tmp2$[ebp]
	addss	xmm0, xmm1
	push	2
	mov	ecx, 16					; 00000010H
	imul	ecx, 0
	add	ecx, DWORD PTR _this$[ebp]
	movss	DWORD PTR tv237[ebp], xmm0
	call	??AVector4@@QAEAAMH@Z			; Vector4::operator[]
	movss	xmm0, DWORD PTR tv237[ebp]
	movss	DWORD PTR [eax], xmm0

; 258  : 		tmp1 = Row[1][0]; tmp2 = Row[1][2];

	push	0
	mov	ecx, 16					; 00000010H
	shl	ecx, 0
	add	ecx, DWORD PTR _this$[ebp]
	call	??AVector4@@QAEAAMH@Z			; Vector4::operator[]
	movss	xmm0, DWORD PTR [eax]
	movss	DWORD PTR _tmp1$[ebp], xmm0
	push	2
	mov	ecx, 16					; 00000010H
	shl	ecx, 0
	add	ecx, DWORD PTR _this$[ebp]
	call	??AVector4@@QAEAAMH@Z			; Vector4::operator[]
	movss	xmm0, DWORD PTR [eax]
	movss	DWORD PTR _tmp2$[ebp], xmm0

; 259  : 		Row[1][0] = (float)(c*tmp1 - s*tmp2);

	movss	xmm0, DWORD PTR _c$[ebp]
	mulss	xmm0, DWORD PTR _tmp1$[ebp]
	movss	xmm1, DWORD PTR _s$[ebp]
	mulss	xmm1, DWORD PTR _tmp2$[ebp]
	subss	xmm0, xmm1
	push	0
	mov	ecx, 16					; 00000010H
	shl	ecx, 0
	add	ecx, DWORD PTR _this$[ebp]
	movss	DWORD PTR tv239[ebp], xmm0
	call	??AVector4@@QAEAAMH@Z			; Vector4::operator[]
	movss	xmm0, DWORD PTR tv239[ebp]
	movss	DWORD PTR [eax], xmm0

; 260  : 		Row[1][2] = (float)(s*tmp1 + c*tmp2);

	movss	xmm0, DWORD PTR _s$[ebp]
	mulss	xmm0, DWORD PTR _tmp1$[ebp]
	movss	xmm1, DWORD PTR _c$[ebp]
	mulss	xmm1, DWORD PTR _tmp2$[ebp]
	addss	xmm0, xmm1
	push	2
	mov	ecx, 16					; 00000010H
	shl	ecx, 0
	add	ecx, DWORD PTR _this$[ebp]
	movss	DWORD PTR tv241[ebp], xmm0
	call	??AVector4@@QAEAAMH@Z			; Vector4::operator[]
	movss	xmm0, DWORD PTR tv241[ebp]
	movss	DWORD PTR [eax], xmm0

; 261  : 		tmp1 = Row[2][0]; tmp2 = Row[2][2];

	push	0
	mov	ecx, 16					; 00000010H
	shl	ecx, 1
	add	ecx, DWORD PTR _this$[ebp]
	call	??AVector4@@QAEAAMH@Z			; Vector4::operator[]
	movss	xmm0, DWORD PTR [eax]
	movss	DWORD PTR _tmp1$[ebp], xmm0
	push	2
	mov	ecx, 16					; 00000010H
	shl	ecx, 1
	add	ecx, DWORD PTR _this$[ebp]
	call	??AVector4@@QAEAAMH@Z			; Vector4::operator[]
	movss	xmm0, DWORD PTR [eax]
	movss	DWORD PTR _tmp2$[ebp], xmm0

; 262  : 		Row[2][0] = (float)(c*tmp1 - s*tmp2);

	movss	xmm0, DWORD PTR _c$[ebp]
	mulss	xmm0, DWORD PTR _tmp1$[ebp]
	movss	xmm1, DWORD PTR _s$[ebp]
	mulss	xmm1, DWORD PTR _tmp2$[ebp]
	subss	xmm0, xmm1
	push	0
	mov	ecx, 16					; 00000010H
	shl	ecx, 1
	add	ecx, DWORD PTR _this$[ebp]
	movss	DWORD PTR tv243[ebp], xmm0
	call	??AVector4@@QAEAAMH@Z			; Vector4::operator[]
	movss	xmm0, DWORD PTR tv243[ebp]
	movss	DWORD PTR [eax], xmm0

; 263  : 		Row[2][2] = (float)(s*tmp1 + c*tmp2);

	movss	xmm0, DWORD PTR _s$[ebp]
	mulss	xmm0, DWORD PTR _tmp1$[ebp]
	movss	xmm1, DWORD PTR _c$[ebp]
	mulss	xmm1, DWORD PTR _tmp2$[ebp]
	addss	xmm0, xmm1
	push	2
	mov	ecx, 16					; 00000010H
	shl	ecx, 1
	add	ecx, DWORD PTR _this$[ebp]
	movss	DWORD PTR tv245[ebp], xmm0
	call	??AVector4@@QAEAAMH@Z			; Vector4::operator[]
	movss	xmm0, DWORD PTR tv245[ebp]
	movss	DWORD PTR [eax], xmm0

; 264  : 	}

	pop	edi
	pop	esi
	pop	ebx
	mov	esp, ebp
	pop	ebp
	ret	8
?Rotate_Y@Matrix3D@@QAEXMM@Z ENDP			; Matrix3D::Rotate_Y
_TEXT	ENDS
; Function compile flags: /Odtp /ZI
; File x:\github\renegade\dragonade_rxd\scripts\matrix3d.h
;	COMDAT ?Rotate_X@Matrix3D@@QAEXMM@Z
_TEXT	SEGMENT
tv248 = -80						; size = 4
tv246 = -80						; size = 4
tv244 = -80						; size = 4
tv242 = -80						; size = 4
tv240 = -80						; size = 4
tv238 = -80						; size = 4
_tmp2$ = -12						; size = 4
_tmp1$ = -8						; size = 4
_this$ = -4						; size = 4
_s$ = 8							; size = 4
_c$ = 12						; size = 4
?Rotate_X@Matrix3D@@QAEXMM@Z PROC			; Matrix3D::Rotate_X, COMDAT
; _this$ = ecx

; 240  : 	{

	push	ebp
	mov	ebp, esp
	sub	esp, 80					; 00000050H
	push	ebx
	push	esi
	push	edi
	mov	DWORD PTR _this$[ebp], ecx

; 241  : 		float tmp1,tmp2;
; 242  : 		tmp1 = Row[0][1]; tmp2 = Row[0][2];

	push	1
	mov	ecx, 16					; 00000010H
	imul	ecx, 0
	add	ecx, DWORD PTR _this$[ebp]
	call	??AVector4@@QAEAAMH@Z			; Vector4::operator[]
	movss	xmm0, DWORD PTR [eax]
	movss	DWORD PTR _tmp1$[ebp], xmm0
	push	2
	mov	ecx, 16					; 00000010H
	imul	ecx, 0
	add	ecx, DWORD PTR _this$[ebp]
	call	??AVector4@@QAEAAMH@Z			; Vector4::operator[]
	movss	xmm0, DWORD PTR [eax]
	movss	DWORD PTR _tmp2$[ebp], xmm0

; 243  : 		Row[0][1] = (float)( c*tmp1 + s*tmp2);

	movss	xmm0, DWORD PTR _c$[ebp]
	mulss	xmm0, DWORD PTR _tmp1$[ebp]
	movss	xmm1, DWORD PTR _s$[ebp]
	mulss	xmm1, DWORD PTR _tmp2$[ebp]
	addss	xmm0, xmm1
	push	1
	mov	ecx, 16					; 00000010H
	imul	ecx, 0
	add	ecx, DWORD PTR _this$[ebp]
	movss	DWORD PTR tv238[ebp], xmm0
	call	??AVector4@@QAEAAMH@Z			; Vector4::operator[]
	movss	xmm0, DWORD PTR tv238[ebp]
	movss	DWORD PTR [eax], xmm0

; 244  : 		Row[0][2] = (float)(-s*tmp1 + c*tmp2);

	movss	xmm0, DWORD PTR _s$[ebp]
	xorps	xmm0, DWORD PTR __xmm@80000000800000008000000080000000
	mulss	xmm0, DWORD PTR _tmp1$[ebp]
	movss	xmm1, DWORD PTR _c$[ebp]
	mulss	xmm1, DWORD PTR _tmp2$[ebp]
	addss	xmm0, xmm1
	push	2
	mov	ecx, 16					; 00000010H
	imul	ecx, 0
	add	ecx, DWORD PTR _this$[ebp]
	movss	DWORD PTR tv240[ebp], xmm0
	call	??AVector4@@QAEAAMH@Z			; Vector4::operator[]
	movss	xmm0, DWORD PTR tv240[ebp]
	movss	DWORD PTR [eax], xmm0

; 245  : 		tmp1 = Row[1][1]; tmp2 = Row[1][2];

	push	1
	mov	ecx, 16					; 00000010H
	shl	ecx, 0
	add	ecx, DWORD PTR _this$[ebp]
	call	??AVector4@@QAEAAMH@Z			; Vector4::operator[]
	movss	xmm0, DWORD PTR [eax]
	movss	DWORD PTR _tmp1$[ebp], xmm0
	push	2
	mov	ecx, 16					; 00000010H
	shl	ecx, 0
	add	ecx, DWORD PTR _this$[ebp]
	call	??AVector4@@QAEAAMH@Z			; Vector4::operator[]
	movss	xmm0, DWORD PTR [eax]
	movss	DWORD PTR _tmp2$[ebp], xmm0

; 246  : 		Row[1][1] = (float)( c*tmp1 + s*tmp2);

	movss	xmm0, DWORD PTR _c$[ebp]
	mulss	xmm0, DWORD PTR _tmp1$[ebp]
	movss	xmm1, DWORD PTR _s$[ebp]
	mulss	xmm1, DWORD PTR _tmp2$[ebp]
	addss	xmm0, xmm1
	push	1
	mov	ecx, 16					; 00000010H
	shl	ecx, 0
	add	ecx, DWORD PTR _this$[ebp]
	movss	DWORD PTR tv242[ebp], xmm0
	call	??AVector4@@QAEAAMH@Z			; Vector4::operator[]
	movss	xmm0, DWORD PTR tv242[ebp]
	movss	DWORD PTR [eax], xmm0

; 247  : 		Row[1][2] = (float)(-s*tmp1 + c*tmp2);

	movss	xmm0, DWORD PTR _s$[ebp]
	xorps	xmm0, DWORD PTR __xmm@80000000800000008000000080000000
	mulss	xmm0, DWORD PTR _tmp1$[ebp]
	movss	xmm1, DWORD PTR _c$[ebp]
	mulss	xmm1, DWORD PTR _tmp2$[ebp]
	addss	xmm0, xmm1
	push	2
	mov	ecx, 16					; 00000010H
	shl	ecx, 0
	add	ecx, DWORD PTR _this$[ebp]
	movss	DWORD PTR tv244[ebp], xmm0
	call	??AVector4@@QAEAAMH@Z			; Vector4::operator[]
	movss	xmm0, DWORD PTR tv244[ebp]
	movss	DWORD PTR [eax], xmm0

; 248  : 		tmp1 = Row[2][1]; tmp2 = Row[2][2];

	push	1
	mov	ecx, 16					; 00000010H
	shl	ecx, 1
	add	ecx, DWORD PTR _this$[ebp]
	call	??AVector4@@QAEAAMH@Z			; Vector4::operator[]
	movss	xmm0, DWORD PTR [eax]
	movss	DWORD PTR _tmp1$[ebp], xmm0
	push	2
	mov	ecx, 16					; 00000010H
	shl	ecx, 1
	add	ecx, DWORD PTR _this$[ebp]
	call	??AVector4@@QAEAAMH@Z			; Vector4::operator[]
	movss	xmm0, DWORD PTR [eax]
	movss	DWORD PTR _tmp2$[ebp], xmm0

; 249  : 		Row[2][1] = (float)( c*tmp1 + s*tmp2);

	movss	xmm0, DWORD PTR _c$[ebp]
	mulss	xmm0, DWORD PTR _tmp1$[ebp]
	movss	xmm1, DWORD PTR _s$[ebp]
	mulss	xmm1, DWORD PTR _tmp2$[ebp]
	addss	xmm0, xmm1
	push	1
	mov	ecx, 16					; 00000010H
	shl	ecx, 1
	add	ecx, DWORD PTR _this$[ebp]
	movss	DWORD PTR tv246[ebp], xmm0
	call	??AVector4@@QAEAAMH@Z			; Vector4::operator[]
	movss	xmm0, DWORD PTR tv246[ebp]
	movss	DWORD PTR [eax], xmm0

; 250  : 		Row[2][2] = (float)(-s*tmp1 + c*tmp2);

	movss	xmm0, DWORD PTR _s$[ebp]
	xorps	xmm0, DWORD PTR __xmm@80000000800000008000000080000000
	mulss	xmm0, DWORD PTR _tmp1$[ebp]
	movss	xmm1, DWORD PTR _c$[ebp]
	mulss	xmm1, DWORD PTR _tmp2$[ebp]
	addss	xmm0, xmm1
	push	2
	mov	ecx, 16					; 00000010H
	shl	ecx, 1
	add	ecx, DWORD PTR _this$[ebp]
	movss	DWORD PTR tv248[ebp], xmm0
	call	??AVector4@@QAEAAMH@Z			; Vector4::operator[]
	movss	xmm0, DWORD PTR tv248[ebp]
	movss	DWORD PTR [eax], xmm0

; 251  : 	}

	pop	edi
	pop	esi
	pop	ebx
	mov	esp, ebp
	pop	ebp
	ret	8
?Rotate_X@Matrix3D@@QAEXMM@Z ENDP			; Matrix3D::Rotate_X
_TEXT	ENDS
; Function compile flags: /Odtp /ZI
; File x:\github\renegade\dragonade_rxd\scripts\matrix3d.h
;	COMDAT ?Rotate_Z@Matrix3D@@QAEXM@Z
_TEXT	SEGMENT
tv260 = -88						; size = 4
tv258 = -88						; size = 4
tv256 = -88						; size = 4
tv254 = -88						; size = 4
tv252 = -88						; size = 4
tv250 = -88						; size = 4
_s$ = -20						; size = 4
_c$ = -16						; size = 4
_tmp2$ = -12						; size = 4
_tmp1$ = -8						; size = 4
_this$ = -4						; size = 4
_theta$ = 8						; size = 4
?Rotate_Z@Matrix3D@@QAEXM@Z PROC			; Matrix3D::Rotate_Z, COMDAT
; _this$ = ecx

; 224  : 	{

	push	ebp
	mov	ebp, esp
	sub	esp, 88					; 00000058H
	push	ebx
	push	esi
	push	edi
	mov	DWORD PTR _this$[ebp], ecx

; 225  : 		float tmp1,tmp2;
; 226  : 		float c,s;
; 227  : 		c = cosf(theta);

	push	ecx
	movss	xmm0, DWORD PTR _theta$[ebp]
	movss	DWORD PTR [esp], xmm0
	call	_cosf
	add	esp, 4
	fstp	DWORD PTR _c$[ebp]

; 228  : 		s = sinf(theta);

	push	ecx
	movss	xmm0, DWORD PTR _theta$[ebp]
	movss	DWORD PTR [esp], xmm0
	call	_sinf
	add	esp, 4
	fstp	DWORD PTR _s$[ebp]

; 229  : 		tmp1 = Row[0][0]; tmp2 = Row[0][1];

	push	0
	mov	ecx, 16					; 00000010H
	imul	ecx, 0
	add	ecx, DWORD PTR _this$[ebp]
	call	??AVector4@@QAEAAMH@Z			; Vector4::operator[]
	movss	xmm0, DWORD PTR [eax]
	movss	DWORD PTR _tmp1$[ebp], xmm0
	push	1
	mov	ecx, 16					; 00000010H
	imul	ecx, 0
	add	ecx, DWORD PTR _this$[ebp]
	call	??AVector4@@QAEAAMH@Z			; Vector4::operator[]
	movss	xmm0, DWORD PTR [eax]
	movss	DWORD PTR _tmp2$[ebp], xmm0

; 230  : 		Row[0][0] = (float)( c*tmp1 + s*tmp2);

	movss	xmm0, DWORD PTR _c$[ebp]
	mulss	xmm0, DWORD PTR _tmp1$[ebp]
	movss	xmm1, DWORD PTR _s$[ebp]
	mulss	xmm1, DWORD PTR _tmp2$[ebp]
	addss	xmm0, xmm1
	push	0
	mov	ecx, 16					; 00000010H
	imul	ecx, 0
	add	ecx, DWORD PTR _this$[ebp]
	movss	DWORD PTR tv250[ebp], xmm0
	call	??AVector4@@QAEAAMH@Z			; Vector4::operator[]
	movss	xmm0, DWORD PTR tv250[ebp]
	movss	DWORD PTR [eax], xmm0

; 231  : 		Row[0][1] = (float)(-s*tmp1 + c*tmp2);

	movss	xmm0, DWORD PTR _s$[ebp]
	xorps	xmm0, DWORD PTR __xmm@80000000800000008000000080000000
	mulss	xmm0, DWORD PTR _tmp1$[ebp]
	movss	xmm1, DWORD PTR _c$[ebp]
	mulss	xmm1, DWORD PTR _tmp2$[ebp]
	addss	xmm0, xmm1
	push	1
	mov	ecx, 16					; 00000010H
	imul	ecx, 0
	add	ecx, DWORD PTR _this$[ebp]
	movss	DWORD PTR tv252[ebp], xmm0
	call	??AVector4@@QAEAAMH@Z			; Vector4::operator[]
	movss	xmm0, DWORD PTR tv252[ebp]
	movss	DWORD PTR [eax], xmm0

; 232  : 		tmp1 = Row[1][0]; tmp2 = Row[1][1];

	push	0
	mov	ecx, 16					; 00000010H
	shl	ecx, 0
	add	ecx, DWORD PTR _this$[ebp]
	call	??AVector4@@QAEAAMH@Z			; Vector4::operator[]
	movss	xmm0, DWORD PTR [eax]
	movss	DWORD PTR _tmp1$[ebp], xmm0
	push	1
	mov	ecx, 16					; 00000010H
	shl	ecx, 0
	add	ecx, DWORD PTR _this$[ebp]
	call	??AVector4@@QAEAAMH@Z			; Vector4::operator[]
	movss	xmm0, DWORD PTR [eax]
	movss	DWORD PTR _tmp2$[ebp], xmm0

; 233  : 		Row[1][0] = (float)( c*tmp1 + s*tmp2);

	movss	xmm0, DWORD PTR _c$[ebp]
	mulss	xmm0, DWORD PTR _tmp1$[ebp]
	movss	xmm1, DWORD PTR _s$[ebp]
	mulss	xmm1, DWORD PTR _tmp2$[ebp]
	addss	xmm0, xmm1
	push	0
	mov	ecx, 16					; 00000010H
	shl	ecx, 0
	add	ecx, DWORD PTR _this$[ebp]
	movss	DWORD PTR tv254[ebp], xmm0
	call	??AVector4@@QAEAAMH@Z			; Vector4::operator[]
	movss	xmm0, DWORD PTR tv254[ebp]
	movss	DWORD PTR [eax], xmm0

; 234  : 		Row[1][1] = (float)(-s*tmp1 + c*tmp2);

	movss	xmm0, DWORD PTR _s$[ebp]
	xorps	xmm0, DWORD PTR __xmm@80000000800000008000000080000000
	mulss	xmm0, DWORD PTR _tmp1$[ebp]
	movss	xmm1, DWORD PTR _c$[ebp]
	mulss	xmm1, DWORD PTR _tmp2$[ebp]
	addss	xmm0, xmm1
	push	1
	mov	ecx, 16					; 00000010H
	shl	ecx, 0
	add	ecx, DWORD PTR _this$[ebp]
	movss	DWORD PTR tv256[ebp], xmm0
	call	??AVector4@@QAEAAMH@Z			; Vector4::operator[]
	movss	xmm0, DWORD PTR tv256[ebp]
	movss	DWORD PTR [eax], xmm0

; 235  : 		tmp1 = Row[2][0]; tmp2 = Row[2][1];

	push	0
	mov	ecx, 16					; 00000010H
	shl	ecx, 1
	add	ecx, DWORD PTR _this$[ebp]
	call	??AVector4@@QAEAAMH@Z			; Vector4::operator[]
	movss	xmm0, DWORD PTR [eax]
	movss	DWORD PTR _tmp1$[ebp], xmm0
	push	1
	mov	ecx, 16					; 00000010H
	shl	ecx, 1
	add	ecx, DWORD PTR _this$[ebp]
	call	??AVector4@@QAEAAMH@Z			; Vector4::operator[]
	movss	xmm0, DWORD PTR [eax]
	movss	DWORD PTR _tmp2$[ebp], xmm0

; 236  : 		Row[2][0] = (float)( c*tmp1 + s*tmp2);

	movss	xmm0, DWORD PTR _c$[ebp]
	mulss	xmm0, DWORD PTR _tmp1$[ebp]
	movss	xmm1, DWORD PTR _s$[ebp]
	mulss	xmm1, DWORD PTR _tmp2$[ebp]
	addss	xmm0, xmm1
	push	0
	mov	ecx, 16					; 00000010H
	shl	ecx, 1
	add	ecx, DWORD PTR _this$[ebp]
	movss	DWORD PTR tv258[ebp], xmm0
	call	??AVector4@@QAEAAMH@Z			; Vector4::operator[]
	movss	xmm0, DWORD PTR tv258[ebp]
	movss	DWORD PTR [eax], xmm0

; 237  : 		Row[2][1] = (float)(-s*tmp1 + c*tmp2);

	movss	xmm0, DWORD PTR _s$[ebp]
	xorps	xmm0, DWORD PTR __xmm@80000000800000008000000080000000
	mulss	xmm0, DWORD PTR _tmp1$[ebp]
	movss	xmm1, DWORD PTR _c$[ebp]
	mulss	xmm1, DWORD PTR _tmp2$[ebp]
	addss	xmm0, xmm1
	push	1
	mov	ecx, 16					; 00000010H
	shl	ecx, 1
	add	ecx, DWORD PTR _this$[ebp]
	movss	DWORD PTR tv260[ebp], xmm0
	call	??AVector4@@QAEAAMH@Z			; Vector4::operator[]
	movss	xmm0, DWORD PTR tv260[ebp]
	movss	DWORD PTR [eax], xmm0

; 238  : 	}

	pop	edi
	pop	esi
	pop	ebx
	mov	esp, ebp
	pop	ebp
	ret	4
?Rotate_Z@Matrix3D@@QAEXM@Z ENDP			; Matrix3D::Rotate_Z
_TEXT	ENDS
; Function compile flags: /Odtp /ZI
; File x:\github\renegade\dragonade_rxd\scripts\matrix3d.h
;	COMDAT ?Rotate_Y@Matrix3D@@QAEXM@Z
_TEXT	SEGMENT
tv257 = -88						; size = 4
tv255 = -88						; size = 4
tv253 = -88						; size = 4
tv251 = -88						; size = 4
tv249 = -88						; size = 4
tv247 = -88						; size = 4
_c$ = -20						; size = 4
_s$ = -16						; size = 4
_tmp2$ = -12						; size = 4
_tmp1$ = -8						; size = 4
_this$ = -4						; size = 4
_theta$ = 8						; size = 4
?Rotate_Y@Matrix3D@@QAEXM@Z PROC			; Matrix3D::Rotate_Y, COMDAT
; _this$ = ecx

; 208  : 	{

	push	ebp
	mov	ebp, esp
	sub	esp, 88					; 00000058H
	push	ebx
	push	esi
	push	edi
	mov	DWORD PTR _this$[ebp], ecx

; 209  : 		float tmp1,tmp2;
; 210  : 		float s,c;
; 211  : 		s = sinf(theta);

	push	ecx
	movss	xmm0, DWORD PTR _theta$[ebp]
	movss	DWORD PTR [esp], xmm0
	call	_sinf
	add	esp, 4
	fstp	DWORD PTR _s$[ebp]

; 212  : 		c = cosf(theta);

	push	ecx
	movss	xmm0, DWORD PTR _theta$[ebp]
	movss	DWORD PTR [esp], xmm0
	call	_cosf
	add	esp, 4
	fstp	DWORD PTR _c$[ebp]

; 213  : 		tmp1 = Row[0][0]; tmp2 = Row[0][2];

	push	0
	mov	ecx, 16					; 00000010H
	imul	ecx, 0
	add	ecx, DWORD PTR _this$[ebp]
	call	??AVector4@@QAEAAMH@Z			; Vector4::operator[]
	movss	xmm0, DWORD PTR [eax]
	movss	DWORD PTR _tmp1$[ebp], xmm0
	push	2
	mov	ecx, 16					; 00000010H
	imul	ecx, 0
	add	ecx, DWORD PTR _this$[ebp]
	call	??AVector4@@QAEAAMH@Z			; Vector4::operator[]
	movss	xmm0, DWORD PTR [eax]
	movss	DWORD PTR _tmp2$[ebp], xmm0

; 214  : 		Row[0][0] = (float)(c*tmp1 - s*tmp2);

	movss	xmm0, DWORD PTR _c$[ebp]
	mulss	xmm0, DWORD PTR _tmp1$[ebp]
	movss	xmm1, DWORD PTR _s$[ebp]
	mulss	xmm1, DWORD PTR _tmp2$[ebp]
	subss	xmm0, xmm1
	push	0
	mov	ecx, 16					; 00000010H
	imul	ecx, 0
	add	ecx, DWORD PTR _this$[ebp]
	movss	DWORD PTR tv247[ebp], xmm0
	call	??AVector4@@QAEAAMH@Z			; Vector4::operator[]
	movss	xmm0, DWORD PTR tv247[ebp]
	movss	DWORD PTR [eax], xmm0

; 215  : 		Row[0][2] = (float)(s*tmp1 + c*tmp2);

	movss	xmm0, DWORD PTR _s$[ebp]
	mulss	xmm0, DWORD PTR _tmp1$[ebp]
	movss	xmm1, DWORD PTR _c$[ebp]
	mulss	xmm1, DWORD PTR _tmp2$[ebp]
	addss	xmm0, xmm1
	push	2
	mov	ecx, 16					; 00000010H
	imul	ecx, 0
	add	ecx, DWORD PTR _this$[ebp]
	movss	DWORD PTR tv249[ebp], xmm0
	call	??AVector4@@QAEAAMH@Z			; Vector4::operator[]
	movss	xmm0, DWORD PTR tv249[ebp]
	movss	DWORD PTR [eax], xmm0

; 216  : 		tmp1 = Row[1][0]; tmp2 = Row[1][2];

	push	0
	mov	ecx, 16					; 00000010H
	shl	ecx, 0
	add	ecx, DWORD PTR _this$[ebp]
	call	??AVector4@@QAEAAMH@Z			; Vector4::operator[]
	movss	xmm0, DWORD PTR [eax]
	movss	DWORD PTR _tmp1$[ebp], xmm0
	push	2
	mov	ecx, 16					; 00000010H
	shl	ecx, 0
	add	ecx, DWORD PTR _this$[ebp]
	call	??AVector4@@QAEAAMH@Z			; Vector4::operator[]
	movss	xmm0, DWORD PTR [eax]
	movss	DWORD PTR _tmp2$[ebp], xmm0

; 217  : 		Row[1][0] = (float)(c*tmp1 - s*tmp2);

	movss	xmm0, DWORD PTR _c$[ebp]
	mulss	xmm0, DWORD PTR _tmp1$[ebp]
	movss	xmm1, DWORD PTR _s$[ebp]
	mulss	xmm1, DWORD PTR _tmp2$[ebp]
	subss	xmm0, xmm1
	push	0
	mov	ecx, 16					; 00000010H
	shl	ecx, 0
	add	ecx, DWORD PTR _this$[ebp]
	movss	DWORD PTR tv251[ebp], xmm0
	call	??AVector4@@QAEAAMH@Z			; Vector4::operator[]
	movss	xmm0, DWORD PTR tv251[ebp]
	movss	DWORD PTR [eax], xmm0

; 218  : 		Row[1][2] = (float)(s*tmp1 + c*tmp2);

	movss	xmm0, DWORD PTR _s$[ebp]
	mulss	xmm0, DWORD PTR _tmp1$[ebp]
	movss	xmm1, DWORD PTR _c$[ebp]
	mulss	xmm1, DWORD PTR _tmp2$[ebp]
	addss	xmm0, xmm1
	push	2
	mov	ecx, 16					; 00000010H
	shl	ecx, 0
	add	ecx, DWORD PTR _this$[ebp]
	movss	DWORD PTR tv253[ebp], xmm0
	call	??AVector4@@QAEAAMH@Z			; Vector4::operator[]
	movss	xmm0, DWORD PTR tv253[ebp]
	movss	DWORD PTR [eax], xmm0

; 219  : 		tmp1 = Row[2][0]; tmp2 = Row[2][2];

	push	0
	mov	ecx, 16					; 00000010H
	shl	ecx, 1
	add	ecx, DWORD PTR _this$[ebp]
	call	??AVector4@@QAEAAMH@Z			; Vector4::operator[]
	movss	xmm0, DWORD PTR [eax]
	movss	DWORD PTR _tmp1$[ebp], xmm0
	push	2
	mov	ecx, 16					; 00000010H
	shl	ecx, 1
	add	ecx, DWORD PTR _this$[ebp]
	call	??AVector4@@QAEAAMH@Z			; Vector4::operator[]
	movss	xmm0, DWORD PTR [eax]
	movss	DWORD PTR _tmp2$[ebp], xmm0

; 220  : 		Row[2][0] = (float)(c*tmp1 - s*tmp2);

	movss	xmm0, DWORD PTR _c$[ebp]
	mulss	xmm0, DWORD PTR _tmp1$[ebp]
	movss	xmm1, DWORD PTR _s$[ebp]
	mulss	xmm1, DWORD PTR _tmp2$[ebp]
	subss	xmm0, xmm1
	push	0
	mov	ecx, 16					; 00000010H
	shl	ecx, 1
	add	ecx, DWORD PTR _this$[ebp]
	movss	DWORD PTR tv255[ebp], xmm0
	call	??AVector4@@QAEAAMH@Z			; Vector4::operator[]
	movss	xmm0, DWORD PTR tv255[ebp]
	movss	DWORD PTR [eax], xmm0

; 221  : 		Row[2][2] = (float)(s*tmp1 + c*tmp2);

	movss	xmm0, DWORD PTR _s$[ebp]
	mulss	xmm0, DWORD PTR _tmp1$[ebp]
	movss	xmm1, DWORD PTR _c$[ebp]
	mulss	xmm1, DWORD PTR _tmp2$[ebp]
	addss	xmm0, xmm1
	push	2
	mov	ecx, 16					; 00000010H
	shl	ecx, 1
	add	ecx, DWORD PTR _this$[ebp]
	movss	DWORD PTR tv257[ebp], xmm0
	call	??AVector4@@QAEAAMH@Z			; Vector4::operator[]
	movss	xmm0, DWORD PTR tv257[ebp]
	movss	DWORD PTR [eax], xmm0

; 222  : 	}

	pop	edi
	pop	esi
	pop	ebx
	mov	esp, ebp
	pop	ebp
	ret	4
?Rotate_Y@Matrix3D@@QAEXM@Z ENDP			; Matrix3D::Rotate_Y
_TEXT	ENDS
; Function compile flags: /Odtp /ZI
; File x:\github\renegade\dragonade_rxd\scripts\matrix3d.h
;	COMDAT ?Rotate_X@Matrix3D@@QAEXM@Z
_TEXT	SEGMENT
tv260 = -88						; size = 4
tv258 = -88						; size = 4
tv256 = -88						; size = 4
tv254 = -88						; size = 4
tv252 = -88						; size = 4
tv250 = -88						; size = 4
_c$ = -20						; size = 4
_s$ = -16						; size = 4
_tmp2$ = -12						; size = 4
_tmp1$ = -8						; size = 4
_this$ = -4						; size = 4
_theta$ = 8						; size = 4
?Rotate_X@Matrix3D@@QAEXM@Z PROC			; Matrix3D::Rotate_X, COMDAT
; _this$ = ecx

; 192  : 	{

	push	ebp
	mov	ebp, esp
	sub	esp, 88					; 00000058H
	push	ebx
	push	esi
	push	edi
	mov	DWORD PTR _this$[ebp], ecx

; 193  : 		float tmp1,tmp2;
; 194  : 		float s,c;
; 195  : 		s = sinf(theta);

	push	ecx
	movss	xmm0, DWORD PTR _theta$[ebp]
	movss	DWORD PTR [esp], xmm0
	call	_sinf
	add	esp, 4
	fstp	DWORD PTR _s$[ebp]

; 196  : 		c = cosf(theta);

	push	ecx
	movss	xmm0, DWORD PTR _theta$[ebp]
	movss	DWORD PTR [esp], xmm0
	call	_cosf
	add	esp, 4
	fstp	DWORD PTR _c$[ebp]

; 197  : 		tmp1 = Row[0][1]; tmp2 = Row[0][2];

	push	1
	mov	ecx, 16					; 00000010H
	imul	ecx, 0
	add	ecx, DWORD PTR _this$[ebp]
	call	??AVector4@@QAEAAMH@Z			; Vector4::operator[]
	movss	xmm0, DWORD PTR [eax]
	movss	DWORD PTR _tmp1$[ebp], xmm0
	push	2
	mov	ecx, 16					; 00000010H
	imul	ecx, 0
	add	ecx, DWORD PTR _this$[ebp]
	call	??AVector4@@QAEAAMH@Z			; Vector4::operator[]
	movss	xmm0, DWORD PTR [eax]
	movss	DWORD PTR _tmp2$[ebp], xmm0

; 198  : 		Row[0][1] = (float)( c*tmp1 + s*tmp2);

	movss	xmm0, DWORD PTR _c$[ebp]
	mulss	xmm0, DWORD PTR _tmp1$[ebp]
	movss	xmm1, DWORD PTR _s$[ebp]
	mulss	xmm1, DWORD PTR _tmp2$[ebp]
	addss	xmm0, xmm1
	push	1
	mov	ecx, 16					; 00000010H
	imul	ecx, 0
	add	ecx, DWORD PTR _this$[ebp]
	movss	DWORD PTR tv250[ebp], xmm0
	call	??AVector4@@QAEAAMH@Z			; Vector4::operator[]
	movss	xmm0, DWORD PTR tv250[ebp]
	movss	DWORD PTR [eax], xmm0

; 199  : 		Row[0][2] = (float)(-s*tmp1 + c*tmp2);

	movss	xmm0, DWORD PTR _s$[ebp]
	xorps	xmm0, DWORD PTR __xmm@80000000800000008000000080000000
	mulss	xmm0, DWORD PTR _tmp1$[ebp]
	movss	xmm1, DWORD PTR _c$[ebp]
	mulss	xmm1, DWORD PTR _tmp2$[ebp]
	addss	xmm0, xmm1
	push	2
	mov	ecx, 16					; 00000010H
	imul	ecx, 0
	add	ecx, DWORD PTR _this$[ebp]
	movss	DWORD PTR tv252[ebp], xmm0
	call	??AVector4@@QAEAAMH@Z			; Vector4::operator[]
	movss	xmm0, DWORD PTR tv252[ebp]
	movss	DWORD PTR [eax], xmm0

; 200  : 		tmp1 = Row[1][1]; tmp2 = Row[1][2];

	push	1
	mov	ecx, 16					; 00000010H
	shl	ecx, 0
	add	ecx, DWORD PTR _this$[ebp]
	call	??AVector4@@QAEAAMH@Z			; Vector4::operator[]
	movss	xmm0, DWORD PTR [eax]
	movss	DWORD PTR _tmp1$[ebp], xmm0
	push	2
	mov	ecx, 16					; 00000010H
	shl	ecx, 0
	add	ecx, DWORD PTR _this$[ebp]
	call	??AVector4@@QAEAAMH@Z			; Vector4::operator[]
	movss	xmm0, DWORD PTR [eax]
	movss	DWORD PTR _tmp2$[ebp], xmm0

; 201  : 		Row[1][1] = (float)( c*tmp1 + s*tmp2);

	movss	xmm0, DWORD PTR _c$[ebp]
	mulss	xmm0, DWORD PTR _tmp1$[ebp]
	movss	xmm1, DWORD PTR _s$[ebp]
	mulss	xmm1, DWORD PTR _tmp2$[ebp]
	addss	xmm0, xmm1
	push	1
	mov	ecx, 16					; 00000010H
	shl	ecx, 0
	add	ecx, DWORD PTR _this$[ebp]
	movss	DWORD PTR tv254[ebp], xmm0
	call	??AVector4@@QAEAAMH@Z			; Vector4::operator[]
	movss	xmm0, DWORD PTR tv254[ebp]
	movss	DWORD PTR [eax], xmm0

; 202  : 		Row[1][2] = (float)(-s*tmp1 + c*tmp2);

	movss	xmm0, DWORD PTR _s$[ebp]
	xorps	xmm0, DWORD PTR __xmm@80000000800000008000000080000000
	mulss	xmm0, DWORD PTR _tmp1$[ebp]
	movss	xmm1, DWORD PTR _c$[ebp]
	mulss	xmm1, DWORD PTR _tmp2$[ebp]
	addss	xmm0, xmm1
	push	2
	mov	ecx, 16					; 00000010H
	shl	ecx, 0
	add	ecx, DWORD PTR _this$[ebp]
	movss	DWORD PTR tv256[ebp], xmm0
	call	??AVector4@@QAEAAMH@Z			; Vector4::operator[]
	movss	xmm0, DWORD PTR tv256[ebp]
	movss	DWORD PTR [eax], xmm0

; 203  : 		tmp1 = Row[2][1]; tmp2 = Row[2][2];

	push	1
	mov	ecx, 16					; 00000010H
	shl	ecx, 1
	add	ecx, DWORD PTR _this$[ebp]
	call	??AVector4@@QAEAAMH@Z			; Vector4::operator[]
	movss	xmm0, DWORD PTR [eax]
	movss	DWORD PTR _tmp1$[ebp], xmm0
	push	2
	mov	ecx, 16					; 00000010H
	shl	ecx, 1
	add	ecx, DWORD PTR _this$[ebp]
	call	??AVector4@@QAEAAMH@Z			; Vector4::operator[]
	movss	xmm0, DWORD PTR [eax]
	movss	DWORD PTR _tmp2$[ebp], xmm0

; 204  : 		Row[2][1] = (float)( c*tmp1 + s*tmp2);

	movss	xmm0, DWORD PTR _c$[ebp]
	mulss	xmm0, DWORD PTR _tmp1$[ebp]
	movss	xmm1, DWORD PTR _s$[ebp]
	mulss	xmm1, DWORD PTR _tmp2$[ebp]
	addss	xmm0, xmm1
	push	1
	mov	ecx, 16					; 00000010H
	shl	ecx, 1
	add	ecx, DWORD PTR _this$[ebp]
	movss	DWORD PTR tv258[ebp], xmm0
	call	??AVector4@@QAEAAMH@Z			; Vector4::operator[]
	movss	xmm0, DWORD PTR tv258[ebp]
	movss	DWORD PTR [eax], xmm0

; 205  : 		Row[2][2] = (float)(-s*tmp1 + c*tmp2);

	movss	xmm0, DWORD PTR _s$[ebp]
	xorps	xmm0, DWORD PTR __xmm@80000000800000008000000080000000
	mulss	xmm0, DWORD PTR _tmp1$[ebp]
	movss	xmm1, DWORD PTR _c$[ebp]
	mulss	xmm1, DWORD PTR _tmp2$[ebp]
	addss	xmm0, xmm1
	push	2
	mov	ecx, 16					; 00000010H
	shl	ecx, 1
	add	ecx, DWORD PTR _this$[ebp]
	movss	DWORD PTR tv260[ebp], xmm0
	call	??AVector4@@QAEAAMH@Z			; Vector4::operator[]
	movss	xmm0, DWORD PTR tv260[ebp]
	movss	DWORD PTR [eax], xmm0

; 206  : 	}

	pop	edi
	pop	esi
	pop	ebx
	mov	esp, ebp
	pop	ebp
	ret	4
?Rotate_X@Matrix3D@@QAEXM@Z ENDP			; Matrix3D::Rotate_X
_TEXT	ENDS
; Function compile flags: /Odtp /ZI
; File x:\github\renegade\dragonade_rxd\scripts\matrix3d.h
;	COMDAT ?Translate_Z@Matrix3D@@QAEXM@Z
_TEXT	SEGMENT
tv142 = -72						; size = 4
tv94 = -72						; size = 4
tv78 = -72						; size = 4
_this$ = -4						; size = 4
_z$ = 8							; size = 4
?Translate_Z@Matrix3D@@QAEXM@Z PROC			; Matrix3D::Translate_Z, COMDAT
; _this$ = ecx

; 186  : 	{

	push	ebp
	mov	ebp, esp
	sub	esp, 72					; 00000048H
	push	ebx
	push	esi
	push	edi
	mov	DWORD PTR _this$[ebp], ecx

; 187  : 		Row[0][3]  += (float)(Row[0][2]*z);

	push	3
	mov	ecx, 16					; 00000010H
	imul	ecx, 0
	add	ecx, DWORD PTR _this$[ebp]
	call	??AVector4@@QAEAAMH@Z			; Vector4::operator[]
	mov	DWORD PTR tv78[ebp], eax
	push	2
	mov	ecx, 16					; 00000010H
	imul	ecx, 0
	add	ecx, DWORD PTR _this$[ebp]
	call	??AVector4@@QAEAAMH@Z			; Vector4::operator[]
	movss	xmm0, DWORD PTR [eax]
	mulss	xmm0, DWORD PTR _z$[ebp]
	mov	eax, DWORD PTR tv78[ebp]
	addss	xmm0, DWORD PTR [eax]
	mov	ecx, DWORD PTR tv78[ebp]
	movss	DWORD PTR [ecx], xmm0

; 188  : 		Row[1][3]  += (float)(Row[1][2]*z);

	push	3
	mov	ecx, 16					; 00000010H
	shl	ecx, 0
	add	ecx, DWORD PTR _this$[ebp]
	call	??AVector4@@QAEAAMH@Z			; Vector4::operator[]
	mov	DWORD PTR tv94[ebp], eax
	push	2
	mov	ecx, 16					; 00000010H
	shl	ecx, 0
	add	ecx, DWORD PTR _this$[ebp]
	call	??AVector4@@QAEAAMH@Z			; Vector4::operator[]
	movss	xmm0, DWORD PTR [eax]
	mulss	xmm0, DWORD PTR _z$[ebp]
	mov	eax, DWORD PTR tv94[ebp]
	addss	xmm0, DWORD PTR [eax]
	mov	ecx, DWORD PTR tv94[ebp]
	movss	DWORD PTR [ecx], xmm0

; 189  : 		Row[2][3]  += (float)(Row[2][2]*z);

	push	3
	mov	ecx, 16					; 00000010H
	shl	ecx, 1
	add	ecx, DWORD PTR _this$[ebp]
	call	??AVector4@@QAEAAMH@Z			; Vector4::operator[]
	mov	DWORD PTR tv142[ebp], eax
	push	2
	mov	ecx, 16					; 00000010H
	shl	ecx, 1
	add	ecx, DWORD PTR _this$[ebp]
	call	??AVector4@@QAEAAMH@Z			; Vector4::operator[]
	movss	xmm0, DWORD PTR [eax]
	mulss	xmm0, DWORD PTR _z$[ebp]
	mov	eax, DWORD PTR tv142[ebp]
	addss	xmm0, DWORD PTR [eax]
	mov	ecx, DWORD PTR tv142[ebp]
	movss	DWORD PTR [ecx], xmm0

; 190  : 	}

	pop	edi
	pop	esi
	pop	ebx
	mov	esp, ebp
	pop	ebp
	ret	4
?Translate_Z@Matrix3D@@QAEXM@Z ENDP			; Matrix3D::Translate_Z
_TEXT	ENDS
; Function compile flags: /Odtp /ZI
; File x:\github\renegade\dragonade_rxd\scripts\matrix3d.h
;	COMDAT ?Translate_Y@Matrix3D@@QAEXM@Z
_TEXT	SEGMENT
tv142 = -72						; size = 4
tv94 = -72						; size = 4
tv78 = -72						; size = 4
_this$ = -4						; size = 4
_y$ = 8							; size = 4
?Translate_Y@Matrix3D@@QAEXM@Z PROC			; Matrix3D::Translate_Y, COMDAT
; _this$ = ecx

; 180  : 	{

	push	ebp
	mov	ebp, esp
	sub	esp, 72					; 00000048H
	push	ebx
	push	esi
	push	edi
	mov	DWORD PTR _this$[ebp], ecx

; 181  : 		Row[0][3]  += (float)(Row[0][1]*y);

	push	3
	mov	ecx, 16					; 00000010H
	imul	ecx, 0
	add	ecx, DWORD PTR _this$[ebp]
	call	??AVector4@@QAEAAMH@Z			; Vector4::operator[]
	mov	DWORD PTR tv78[ebp], eax
	push	1
	mov	ecx, 16					; 00000010H
	imul	ecx, 0
	add	ecx, DWORD PTR _this$[ebp]
	call	??AVector4@@QAEAAMH@Z			; Vector4::operator[]
	movss	xmm0, DWORD PTR [eax]
	mulss	xmm0, DWORD PTR _y$[ebp]
	mov	eax, DWORD PTR tv78[ebp]
	addss	xmm0, DWORD PTR [eax]
	mov	ecx, DWORD PTR tv78[ebp]
	movss	DWORD PTR [ecx], xmm0

; 182  : 		Row[1][3]  += (float)(Row[1][1]*y);

	push	3
	mov	ecx, 16					; 00000010H
	shl	ecx, 0
	add	ecx, DWORD PTR _this$[ebp]
	call	??AVector4@@QAEAAMH@Z			; Vector4::operator[]
	mov	DWORD PTR tv94[ebp], eax
	push	1
	mov	ecx, 16					; 00000010H
	shl	ecx, 0
	add	ecx, DWORD PTR _this$[ebp]
	call	??AVector4@@QAEAAMH@Z			; Vector4::operator[]
	movss	xmm0, DWORD PTR [eax]
	mulss	xmm0, DWORD PTR _y$[ebp]
	mov	eax, DWORD PTR tv94[ebp]
	addss	xmm0, DWORD PTR [eax]
	mov	ecx, DWORD PTR tv94[ebp]
	movss	DWORD PTR [ecx], xmm0

; 183  : 		Row[2][3]  += (float)(Row[2][1]*y);

	push	3
	mov	ecx, 16					; 00000010H
	shl	ecx, 1
	add	ecx, DWORD PTR _this$[ebp]
	call	??AVector4@@QAEAAMH@Z			; Vector4::operator[]
	mov	DWORD PTR tv142[ebp], eax
	push	1
	mov	ecx, 16					; 00000010H
	shl	ecx, 1
	add	ecx, DWORD PTR _this$[ebp]
	call	??AVector4@@QAEAAMH@Z			; Vector4::operator[]
	movss	xmm0, DWORD PTR [eax]
	mulss	xmm0, DWORD PTR _y$[ebp]
	mov	eax, DWORD PTR tv142[ebp]
	addss	xmm0, DWORD PTR [eax]
	mov	ecx, DWORD PTR tv142[ebp]
	movss	DWORD PTR [ecx], xmm0

; 184  : 	}

	pop	edi
	pop	esi
	pop	ebx
	mov	esp, ebp
	pop	ebp
	ret	4
?Translate_Y@Matrix3D@@QAEXM@Z ENDP			; Matrix3D::Translate_Y
_TEXT	ENDS
; Function compile flags: /Odtp /ZI
; File x:\github\renegade\dragonade_rxd\scripts\matrix3d.h
;	COMDAT ?Translate_X@Matrix3D@@QAEXM@Z
_TEXT	SEGMENT
tv142 = -72						; size = 4
tv94 = -72						; size = 4
tv78 = -72						; size = 4
_this$ = -4						; size = 4
_x$ = 8							; size = 4
?Translate_X@Matrix3D@@QAEXM@Z PROC			; Matrix3D::Translate_X, COMDAT
; _this$ = ecx

; 174  : 	{

	push	ebp
	mov	ebp, esp
	sub	esp, 72					; 00000048H
	push	ebx
	push	esi
	push	edi
	mov	DWORD PTR _this$[ebp], ecx

; 175  : 		Row[0][3]  += (float)(Row[0][0]*x);

	push	3
	mov	ecx, 16					; 00000010H
	imul	ecx, 0
	add	ecx, DWORD PTR _this$[ebp]
	call	??AVector4@@QAEAAMH@Z			; Vector4::operator[]
	mov	DWORD PTR tv78[ebp], eax
	push	0
	mov	ecx, 16					; 00000010H
	imul	ecx, 0
	add	ecx, DWORD PTR _this$[ebp]
	call	??AVector4@@QAEAAMH@Z			; Vector4::operator[]
	movss	xmm0, DWORD PTR [eax]
	mulss	xmm0, DWORD PTR _x$[ebp]
	mov	eax, DWORD PTR tv78[ebp]
	addss	xmm0, DWORD PTR [eax]
	mov	ecx, DWORD PTR tv78[ebp]
	movss	DWORD PTR [ecx], xmm0

; 176  : 		Row[1][3]  += (float)(Row[1][0]*x);

	push	3
	mov	ecx, 16					; 00000010H
	shl	ecx, 0
	add	ecx, DWORD PTR _this$[ebp]
	call	??AVector4@@QAEAAMH@Z			; Vector4::operator[]
	mov	DWORD PTR tv94[ebp], eax
	push	0
	mov	ecx, 16					; 00000010H
	shl	ecx, 0
	add	ecx, DWORD PTR _this$[ebp]
	call	??AVector4@@QAEAAMH@Z			; Vector4::operator[]
	movss	xmm0, DWORD PTR [eax]
	mulss	xmm0, DWORD PTR _x$[ebp]
	mov	eax, DWORD PTR tv94[ebp]
	addss	xmm0, DWORD PTR [eax]
	mov	ecx, DWORD PTR tv94[ebp]
	movss	DWORD PTR [ecx], xmm0

; 177  : 		Row[2][3]  += (float)(Row[2][0]*x);

	push	3
	mov	ecx, 16					; 00000010H
	shl	ecx, 1
	add	ecx, DWORD PTR _this$[ebp]
	call	??AVector4@@QAEAAMH@Z			; Vector4::operator[]
	mov	DWORD PTR tv142[ebp], eax
	push	0
	mov	ecx, 16					; 00000010H
	shl	ecx, 1
	add	ecx, DWORD PTR _this$[ebp]
	call	??AVector4@@QAEAAMH@Z			; Vector4::operator[]
	movss	xmm0, DWORD PTR [eax]
	mulss	xmm0, DWORD PTR _x$[ebp]
	mov	eax, DWORD PTR tv142[ebp]
	addss	xmm0, DWORD PTR [eax]
	mov	ecx, DWORD PTR tv142[ebp]
	movss	DWORD PTR [ecx], xmm0

; 178  : 	}

	pop	edi
	pop	esi
	pop	ebx
	mov	esp, ebp
	pop	ebp
	ret	4
?Translate_X@Matrix3D@@QAEXM@Z ENDP			; Matrix3D::Translate_X
_TEXT	ENDS
; Function compile flags: /Odtp /ZI
; File x:\github\renegade\dragonade_rxd\scripts\matrix3d.h
;	COMDAT ?Translate@Matrix3D@@QAEXABVVector3@@@Z
_TEXT	SEGMENT
tv278 = -80						; size = 4
tv274 = -80						; size = 4
tv270 = -80						; size = 4
tv276 = -76						; size = 4
tv272 = -76						; size = 4
tv268 = -76						; size = 4
tv214 = -72						; size = 4
tv174 = -72						; size = 4
tv134 = -72						; size = 4
_this$ = -4						; size = 4
_t$ = 8							; size = 4
?Translate@Matrix3D@@QAEXABVVector3@@@Z PROC		; Matrix3D::Translate, COMDAT
; _this$ = ecx

; 168  : 	{

	push	ebp
	mov	ebp, esp
	sub	esp, 80					; 00000050H
	push	ebx
	push	esi
	push	edi
	mov	DWORD PTR _this$[ebp], ecx

; 169  : 		Row[0][3]  += Row[0][0]*t[0] + Row[0][1]*t[1] + Row[0][2]*t[2];

	push	3
	mov	ecx, 16					; 00000010H
	imul	ecx, 0
	add	ecx, DWORD PTR _this$[ebp]
	call	??AVector4@@QAEAAMH@Z			; Vector4::operator[]
	mov	DWORD PTR tv134[ebp], eax
	push	0
	mov	ecx, 16					; 00000010H
	imul	ecx, 0
	add	ecx, DWORD PTR _this$[ebp]
	call	??AVector4@@QAEAAMH@Z			; Vector4::operator[]
	mov	esi, eax
	push	0
	mov	ecx, DWORD PTR _t$[ebp]
	call	??AVector3@@QBEABMH@Z			; Vector3::operator[]
	movss	xmm0, DWORD PTR [esi]
	mulss	xmm0, DWORD PTR [eax]
	push	1
	mov	ecx, 16					; 00000010H
	imul	ecx, 0
	add	ecx, DWORD PTR _this$[ebp]
	movss	DWORD PTR tv268[ebp], xmm0
	call	??AVector4@@QAEAAMH@Z			; Vector4::operator[]
	mov	esi, eax
	push	1
	mov	ecx, DWORD PTR _t$[ebp]
	call	??AVector3@@QBEABMH@Z			; Vector3::operator[]
	movss	xmm0, DWORD PTR [esi]
	mulss	xmm0, DWORD PTR [eax]
	movss	xmm1, DWORD PTR tv268[ebp]
	addss	xmm1, xmm0
	push	2
	mov	ecx, 16					; 00000010H
	imul	ecx, 0
	add	ecx, DWORD PTR _this$[ebp]
	movss	DWORD PTR tv270[ebp], xmm1
	call	??AVector4@@QAEAAMH@Z			; Vector4::operator[]
	mov	esi, eax
	push	2
	mov	ecx, DWORD PTR _t$[ebp]
	call	??AVector3@@QBEABMH@Z			; Vector3::operator[]
	movss	xmm0, DWORD PTR [esi]
	mulss	xmm0, DWORD PTR [eax]
	movss	xmm1, DWORD PTR tv270[ebp]
	addss	xmm1, xmm0
	mov	eax, DWORD PTR tv134[ebp]
	addss	xmm1, DWORD PTR [eax]
	mov	ecx, DWORD PTR tv134[ebp]
	movss	DWORD PTR [ecx], xmm1

; 170  : 		Row[1][3]  += Row[1][0]*t[0] + Row[1][1]*t[1] + Row[1][2]*t[2];

	push	3
	mov	ecx, 16					; 00000010H
	shl	ecx, 0
	add	ecx, DWORD PTR _this$[ebp]
	call	??AVector4@@QAEAAMH@Z			; Vector4::operator[]
	mov	DWORD PTR tv174[ebp], eax
	push	0
	mov	ecx, 16					; 00000010H
	shl	ecx, 0
	add	ecx, DWORD PTR _this$[ebp]
	call	??AVector4@@QAEAAMH@Z			; Vector4::operator[]
	mov	esi, eax
	push	0
	mov	ecx, DWORD PTR _t$[ebp]
	call	??AVector3@@QBEABMH@Z			; Vector3::operator[]
	movss	xmm0, DWORD PTR [esi]
	mulss	xmm0, DWORD PTR [eax]
	push	1
	mov	ecx, 16					; 00000010H
	shl	ecx, 0
	add	ecx, DWORD PTR _this$[ebp]
	movss	DWORD PTR tv272[ebp], xmm0
	call	??AVector4@@QAEAAMH@Z			; Vector4::operator[]
	mov	esi, eax
	push	1
	mov	ecx, DWORD PTR _t$[ebp]
	call	??AVector3@@QBEABMH@Z			; Vector3::operator[]
	movss	xmm0, DWORD PTR [esi]
	mulss	xmm0, DWORD PTR [eax]
	movss	xmm1, DWORD PTR tv272[ebp]
	addss	xmm1, xmm0
	push	2
	mov	ecx, 16					; 00000010H
	shl	ecx, 0
	add	ecx, DWORD PTR _this$[ebp]
	movss	DWORD PTR tv274[ebp], xmm1
	call	??AVector4@@QAEAAMH@Z			; Vector4::operator[]
	mov	esi, eax
	push	2
	mov	ecx, DWORD PTR _t$[ebp]
	call	??AVector3@@QBEABMH@Z			; Vector3::operator[]
	movss	xmm0, DWORD PTR [esi]
	mulss	xmm0, DWORD PTR [eax]
	movss	xmm1, DWORD PTR tv274[ebp]
	addss	xmm1, xmm0
	mov	eax, DWORD PTR tv174[ebp]
	addss	xmm1, DWORD PTR [eax]
	mov	ecx, DWORD PTR tv174[ebp]
	movss	DWORD PTR [ecx], xmm1

; 171  : 		Row[2][3]  += Row[2][0]*t[0] + Row[2][1]*t[1] + Row[2][2]*t[2];

	push	3
	mov	ecx, 16					; 00000010H
	shl	ecx, 1
	add	ecx, DWORD PTR _this$[ebp]
	call	??AVector4@@QAEAAMH@Z			; Vector4::operator[]
	mov	DWORD PTR tv214[ebp], eax
	push	0
	mov	ecx, 16					; 00000010H
	shl	ecx, 1
	add	ecx, DWORD PTR _this$[ebp]
	call	??AVector4@@QAEAAMH@Z			; Vector4::operator[]
	mov	esi, eax
	push	0
	mov	ecx, DWORD PTR _t$[ebp]
	call	??AVector3@@QBEABMH@Z			; Vector3::operator[]
	movss	xmm0, DWORD PTR [esi]
	mulss	xmm0, DWORD PTR [eax]
	push	1
	mov	ecx, 16					; 00000010H
	shl	ecx, 1
	add	ecx, DWORD PTR _this$[ebp]
	movss	DWORD PTR tv276[ebp], xmm0
	call	??AVector4@@QAEAAMH@Z			; Vector4::operator[]
	mov	esi, eax
	push	1
	mov	ecx, DWORD PTR _t$[ebp]
	call	??AVector3@@QBEABMH@Z			; Vector3::operator[]
	movss	xmm0, DWORD PTR [esi]
	mulss	xmm0, DWORD PTR [eax]
	movss	xmm1, DWORD PTR tv276[ebp]
	addss	xmm1, xmm0
	push	2
	mov	ecx, 16					; 00000010H
	shl	ecx, 1
	add	ecx, DWORD PTR _this$[ebp]
	movss	DWORD PTR tv278[ebp], xmm1
	call	??AVector4@@QAEAAMH@Z			; Vector4::operator[]
	mov	esi, eax
	push	2
	mov	ecx, DWORD PTR _t$[ebp]
	call	??AVector3@@QBEABMH@Z			; Vector3::operator[]
	movss	xmm0, DWORD PTR [esi]
	mulss	xmm0, DWORD PTR [eax]
	movss	xmm1, DWORD PTR tv278[ebp]
	addss	xmm1, xmm0
	mov	eax, DWORD PTR tv214[ebp]
	addss	xmm1, DWORD PTR [eax]
	mov	ecx, DWORD PTR tv214[ebp]
	movss	DWORD PTR [ecx], xmm1

; 172  : 	}

	pop	edi
	pop	esi
	pop	ebx
	mov	esp, ebp
	pop	ebp
	ret	4
?Translate@Matrix3D@@QAEXABVVector3@@@Z ENDP		; Matrix3D::Translate
_TEXT	ENDS
; Function compile flags: /Odtp /ZI
; File x:\github\renegade\dragonade_rxd\scripts\matrix3d.h
;	COMDAT ?Translate@Matrix3D@@QAEXMMM@Z
_TEXT	SEGMENT
tv245 = -80						; size = 4
tv241 = -80						; size = 4
tv237 = -80						; size = 4
tv243 = -76						; size = 4
tv239 = -76						; size = 4
tv235 = -76						; size = 4
tv190 = -72						; size = 4
tv158 = -72						; size = 4
tv94 = -72						; size = 4
_this$ = -4						; size = 4
_x$ = 8							; size = 4
_y$ = 12						; size = 4
_z$ = 16						; size = 4
?Translate@Matrix3D@@QAEXMMM@Z PROC			; Matrix3D::Translate, COMDAT
; _this$ = ecx

; 162  : 	{

	push	ebp
	mov	ebp, esp
	sub	esp, 80					; 00000050H
	push	ebx
	push	esi
	push	edi
	mov	DWORD PTR _this$[ebp], ecx

; 163  : 		Row[0][3]  += (float)(Row[0][0]*x + Row[0][1]*y + Row[0][2]*z);

	push	3
	mov	ecx, 16					; 00000010H
	imul	ecx, 0
	add	ecx, DWORD PTR _this$[ebp]
	call	??AVector4@@QAEAAMH@Z			; Vector4::operator[]
	mov	DWORD PTR tv94[ebp], eax
	push	0
	mov	ecx, 16					; 00000010H
	imul	ecx, 0
	add	ecx, DWORD PTR _this$[ebp]
	call	??AVector4@@QAEAAMH@Z			; Vector4::operator[]
	movss	xmm0, DWORD PTR [eax]
	mulss	xmm0, DWORD PTR _x$[ebp]
	push	1
	mov	ecx, 16					; 00000010H
	imul	ecx, 0
	add	ecx, DWORD PTR _this$[ebp]
	movss	DWORD PTR tv235[ebp], xmm0
	call	??AVector4@@QAEAAMH@Z			; Vector4::operator[]
	movss	xmm0, DWORD PTR [eax]
	mulss	xmm0, DWORD PTR _y$[ebp]
	movss	xmm1, DWORD PTR tv235[ebp]
	addss	xmm1, xmm0
	push	2
	mov	ecx, 16					; 00000010H
	imul	ecx, 0
	add	ecx, DWORD PTR _this$[ebp]
	movss	DWORD PTR tv237[ebp], xmm1
	call	??AVector4@@QAEAAMH@Z			; Vector4::operator[]
	movss	xmm0, DWORD PTR [eax]
	mulss	xmm0, DWORD PTR _z$[ebp]
	movss	xmm1, DWORD PTR tv237[ebp]
	addss	xmm1, xmm0
	mov	eax, DWORD PTR tv94[ebp]
	addss	xmm1, DWORD PTR [eax]
	mov	ecx, DWORD PTR tv94[ebp]
	movss	DWORD PTR [ecx], xmm1

; 164  : 		Row[1][3]  += (float)(Row[1][0]*x + Row[1][1]*y + Row[1][2]*z);

	push	3
	mov	ecx, 16					; 00000010H
	shl	ecx, 0
	add	ecx, DWORD PTR _this$[ebp]
	call	??AVector4@@QAEAAMH@Z			; Vector4::operator[]
	mov	DWORD PTR tv158[ebp], eax
	push	0
	mov	ecx, 16					; 00000010H
	shl	ecx, 0
	add	ecx, DWORD PTR _this$[ebp]
	call	??AVector4@@QAEAAMH@Z			; Vector4::operator[]
	movss	xmm0, DWORD PTR [eax]
	mulss	xmm0, DWORD PTR _x$[ebp]
	push	1
	mov	ecx, 16					; 00000010H
	shl	ecx, 0
	add	ecx, DWORD PTR _this$[ebp]
	movss	DWORD PTR tv239[ebp], xmm0
	call	??AVector4@@QAEAAMH@Z			; Vector4::operator[]
	movss	xmm0, DWORD PTR [eax]
	mulss	xmm0, DWORD PTR _y$[ebp]
	movss	xmm1, DWORD PTR tv239[ebp]
	addss	xmm1, xmm0
	push	2
	mov	ecx, 16					; 00000010H
	shl	ecx, 0
	add	ecx, DWORD PTR _this$[ebp]
	movss	DWORD PTR tv241[ebp], xmm1
	call	??AVector4@@QAEAAMH@Z			; Vector4::operator[]
	movss	xmm0, DWORD PTR [eax]
	mulss	xmm0, DWORD PTR _z$[ebp]
	movss	xmm1, DWORD PTR tv241[ebp]
	addss	xmm1, xmm0
	mov	eax, DWORD PTR tv158[ebp]
	addss	xmm1, DWORD PTR [eax]
	mov	ecx, DWORD PTR tv158[ebp]
	movss	DWORD PTR [ecx], xmm1

; 165  : 		Row[2][3]  += (float)(Row[2][0]*x + Row[2][1]*y + Row[2][2]*z);

	push	3
	mov	ecx, 16					; 00000010H
	shl	ecx, 1
	add	ecx, DWORD PTR _this$[ebp]
	call	??AVector4@@QAEAAMH@Z			; Vector4::operator[]
	mov	DWORD PTR tv190[ebp], eax
	push	0
	mov	ecx, 16					; 00000010H
	shl	ecx, 1
	add	ecx, DWORD PTR _this$[ebp]
	call	??AVector4@@QAEAAMH@Z			; Vector4::operator[]
	movss	xmm0, DWORD PTR [eax]
	mulss	xmm0, DWORD PTR _x$[ebp]
	push	1
	mov	ecx, 16					; 00000010H
	shl	ecx, 1
	add	ecx, DWORD PTR _this$[ebp]
	movss	DWORD PTR tv243[ebp], xmm0
	call	??AVector4@@QAEAAMH@Z			; Vector4::operator[]
	movss	xmm0, DWORD PTR [eax]
	mulss	xmm0, DWORD PTR _y$[ebp]
	movss	xmm1, DWORD PTR tv243[ebp]
	addss	xmm1, xmm0
	push	2
	mov	ecx, 16					; 00000010H
	shl	ecx, 1
	add	ecx, DWORD PTR _this$[ebp]
	movss	DWORD PTR tv245[ebp], xmm1
	call	??AVector4@@QAEAAMH@Z			; Vector4::operator[]
	movss	xmm0, DWORD PTR [eax]
	mulss	xmm0, DWORD PTR _z$[ebp]
	movss	xmm1, DWORD PTR tv245[ebp]
	addss	xmm1, xmm0
	mov	eax, DWORD PTR tv190[ebp]
	addss	xmm1, DWORD PTR [eax]
	mov	ecx, DWORD PTR tv190[ebp]
	movss	DWORD PTR [ecx], xmm1

; 166  : 	}

	pop	edi
	pop	esi
	pop	ebx
	mov	esp, ebp
	pop	ebp
	ret	12					; 0000000cH
?Translate@Matrix3D@@QAEXMMM@Z ENDP			; Matrix3D::Translate
_TEXT	ENDS
; Function compile flags: /Odtp /ZI
; File x:\github\renegade\dragonade_rxd\scripts\matrix3d.h
;	COMDAT ?Make_Identity@Matrix3D@@QAEXXZ
_TEXT	SEGMENT
_this$ = -4						; size = 4
?Make_Identity@Matrix3D@@QAEXXZ PROC			; Matrix3D::Make_Identity, COMDAT
; _this$ = ecx

; 156  : 	{

	push	ebp
	mov	ebp, esp
	sub	esp, 68					; 00000044H
	push	ebx
	push	esi
	push	edi
	mov	DWORD PTR _this$[ebp], ecx

; 157  : 		Row[0].Set(1.0f,0.0f,0.0f,0.0f);

	push	ecx
	movss	xmm0, DWORD PTR __real@00000000
	movss	DWORD PTR [esp], xmm0
	push	ecx
	movss	xmm0, DWORD PTR __real@00000000
	movss	DWORD PTR [esp], xmm0
	push	ecx
	movss	xmm0, DWORD PTR __real@00000000
	movss	DWORD PTR [esp], xmm0
	push	ecx
	movss	xmm0, DWORD PTR __real@3f800000
	movss	DWORD PTR [esp], xmm0
	mov	ecx, 16					; 00000010H
	imul	ecx, 0
	add	ecx, DWORD PTR _this$[ebp]
	call	?Set@Vector4@@QAEXMMMM@Z		; Vector4::Set

; 158  : 		Row[1].Set(0.0f,1.0f,0.0f,0.0f);

	push	ecx
	movss	xmm0, DWORD PTR __real@00000000
	movss	DWORD PTR [esp], xmm0
	push	ecx
	movss	xmm0, DWORD PTR __real@00000000
	movss	DWORD PTR [esp], xmm0
	push	ecx
	movss	xmm0, DWORD PTR __real@3f800000
	movss	DWORD PTR [esp], xmm0
	push	ecx
	movss	xmm0, DWORD PTR __real@00000000
	movss	DWORD PTR [esp], xmm0
	mov	ecx, 16					; 00000010H
	shl	ecx, 0
	add	ecx, DWORD PTR _this$[ebp]
	call	?Set@Vector4@@QAEXMMMM@Z		; Vector4::Set

; 159  : 		Row[2].Set(0.0f,0.0f,1.0f,0.0f);

	push	ecx
	movss	xmm0, DWORD PTR __real@00000000
	movss	DWORD PTR [esp], xmm0
	push	ecx
	movss	xmm0, DWORD PTR __real@3f800000
	movss	DWORD PTR [esp], xmm0
	push	ecx
	movss	xmm0, DWORD PTR __real@00000000
	movss	DWORD PTR [esp], xmm0
	push	ecx
	movss	xmm0, DWORD PTR __real@00000000
	movss	DWORD PTR [esp], xmm0
	mov	ecx, 16					; 00000010H
	shl	ecx, 1
	add	ecx, DWORD PTR _this$[ebp]
	call	?Set@Vector4@@QAEXMMMM@Z		; Vector4::Set

; 160  : 	}

	pop	edi
	pop	esi
	pop	ebx
	mov	esp, ebp
	pop	ebp
	ret	0
?Make_Identity@Matrix3D@@QAEXXZ ENDP			; Matrix3D::Make_Identity
_TEXT	ENDS
; Function compile flags: /Odtp /ZI
; File x:\github\renegade\dragonade_rxd\scripts\matrix3d.h
;	COMDAT ?Adjust_Z_Translation@Matrix3D@@QAEXM@Z
_TEXT	SEGMENT
tv70 = -72						; size = 4
_this$ = -4						; size = 4
_z$ = 8							; size = 4
?Adjust_Z_Translation@Matrix3D@@QAEXM@Z PROC		; Matrix3D::Adjust_Z_Translation, COMDAT
; _this$ = ecx

; 154  : 	TT_INLINE void Adjust_Z_Translation(float z) { Row[2][3] += z; };

	push	ebp
	mov	ebp, esp
	sub	esp, 72					; 00000048H
	push	ebx
	push	esi
	push	edi
	mov	DWORD PTR _this$[ebp], ecx
	push	3
	mov	ecx, 16					; 00000010H
	shl	ecx, 1
	add	ecx, DWORD PTR _this$[ebp]
	call	??AVector4@@QAEAAMH@Z			; Vector4::operator[]
	mov	DWORD PTR tv70[ebp], eax
	mov	eax, DWORD PTR tv70[ebp]
	movss	xmm0, DWORD PTR [eax]
	addss	xmm0, DWORD PTR _z$[ebp]
	mov	ecx, DWORD PTR tv70[ebp]
	movss	DWORD PTR [ecx], xmm0
	pop	edi
	pop	esi
	pop	ebx
	mov	esp, ebp
	pop	ebp
	ret	4
?Adjust_Z_Translation@Matrix3D@@QAEXM@Z ENDP		; Matrix3D::Adjust_Z_Translation
_TEXT	ENDS
; Function compile flags: /Odtp /ZI
; File x:\github\renegade\dragonade_rxd\scripts\matrix3d.h
;	COMDAT ?Adjust_Y_Translation@Matrix3D@@QAEXM@Z
_TEXT	SEGMENT
tv70 = -72						; size = 4
_this$ = -4						; size = 4
_y$ = 8							; size = 4
?Adjust_Y_Translation@Matrix3D@@QAEXM@Z PROC		; Matrix3D::Adjust_Y_Translation, COMDAT
; _this$ = ecx

; 153  : 	TT_INLINE void Adjust_Y_Translation(float y) { Row[1][3] += y; };

	push	ebp
	mov	ebp, esp
	sub	esp, 72					; 00000048H
	push	ebx
	push	esi
	push	edi
	mov	DWORD PTR _this$[ebp], ecx
	push	3
	mov	ecx, 16					; 00000010H
	shl	ecx, 0
	add	ecx, DWORD PTR _this$[ebp]
	call	??AVector4@@QAEAAMH@Z			; Vector4::operator[]
	mov	DWORD PTR tv70[ebp], eax
	mov	eax, DWORD PTR tv70[ebp]
	movss	xmm0, DWORD PTR [eax]
	addss	xmm0, DWORD PTR _y$[ebp]
	mov	ecx, DWORD PTR tv70[ebp]
	movss	DWORD PTR [ecx], xmm0
	pop	edi
	pop	esi
	pop	ebx
	mov	esp, ebp
	pop	ebp
	ret	4
?Adjust_Y_Translation@Matrix3D@@QAEXM@Z ENDP		; Matrix3D::Adjust_Y_Translation
_TEXT	ENDS
; Function compile flags: /Odtp /ZI
; File x:\github\renegade\dragonade_rxd\scripts\matrix3d.h
;	COMDAT ?Adjust_X_Translation@Matrix3D@@QAEXM@Z
_TEXT	SEGMENT
tv70 = -72						; size = 4
_this$ = -4						; size = 4
_x$ = 8							; size = 4
?Adjust_X_Translation@Matrix3D@@QAEXM@Z PROC		; Matrix3D::Adjust_X_Translation, COMDAT
; _this$ = ecx

; 152  : 	TT_INLINE void Adjust_X_Translation(float x) { Row[0][3] += x; };

	push	ebp
	mov	ebp, esp
	sub	esp, 72					; 00000048H
	push	ebx
	push	esi
	push	edi
	mov	DWORD PTR _this$[ebp], ecx
	push	3
	mov	ecx, 16					; 00000010H
	imul	ecx, 0
	add	ecx, DWORD PTR _this$[ebp]
	call	??AVector4@@QAEAAMH@Z			; Vector4::operator[]
	mov	DWORD PTR tv70[ebp], eax
	mov	eax, DWORD PTR tv70[ebp]
	movss	xmm0, DWORD PTR [eax]
	addss	xmm0, DWORD PTR _x$[ebp]
	mov	ecx, DWORD PTR tv70[ebp]
	movss	DWORD PTR [ecx], xmm0
	pop	edi
	pop	esi
	pop	ebx
	mov	esp, ebp
	pop	ebp
	ret	4
?Adjust_X_Translation@Matrix3D@@QAEXM@Z ENDP		; Matrix3D::Adjust_X_Translation
_TEXT	ENDS
; Function compile flags: /Odtp /ZI
; File x:\github\renegade\dragonade_rxd\scripts\matrix3d.h
;	COMDAT ?Adjust_Translation@Matrix3D@@QAEXABVVector3@@@Z
_TEXT	SEGMENT
tv95 = -72						; size = 4
tv84 = -72						; size = 4
tv73 = -72						; size = 4
_this$ = -4						; size = 4
_t$ = 8							; size = 4
?Adjust_Translation@Matrix3D@@QAEXABVVector3@@@Z PROC	; Matrix3D::Adjust_Translation, COMDAT
; _this$ = ecx

; 151  : 	TT_INLINE void Adjust_Translation(const Vector3 & t) { Row[0][3] += t[0]; Row[1][3] += t[1]; Row[2][3] += t[2]; };

	push	ebp
	mov	ebp, esp
	sub	esp, 72					; 00000048H
	push	ebx
	push	esi
	push	edi
	mov	DWORD PTR _this$[ebp], ecx
	push	3
	mov	ecx, 16					; 00000010H
	imul	ecx, 0
	add	ecx, DWORD PTR _this$[ebp]
	call	??AVector4@@QAEAAMH@Z			; Vector4::operator[]
	mov	DWORD PTR tv73[ebp], eax
	push	0
	mov	ecx, DWORD PTR _t$[ebp]
	call	??AVector3@@QBEABMH@Z			; Vector3::operator[]
	mov	ecx, DWORD PTR tv73[ebp]
	movss	xmm0, DWORD PTR [ecx]
	addss	xmm0, DWORD PTR [eax]
	mov	edx, DWORD PTR tv73[ebp]
	movss	DWORD PTR [edx], xmm0
	push	3
	mov	ecx, 16					; 00000010H
	shl	ecx, 0
	add	ecx, DWORD PTR _this$[ebp]
	call	??AVector4@@QAEAAMH@Z			; Vector4::operator[]
	mov	DWORD PTR tv84[ebp], eax
	push	1
	mov	ecx, DWORD PTR _t$[ebp]
	call	??AVector3@@QBEABMH@Z			; Vector3::operator[]
	mov	ecx, DWORD PTR tv84[ebp]
	movss	xmm0, DWORD PTR [ecx]
	addss	xmm0, DWORD PTR [eax]
	mov	edx, DWORD PTR tv84[ebp]
	movss	DWORD PTR [edx], xmm0
	push	3
	mov	ecx, 16					; 00000010H
	shl	ecx, 1
	add	ecx, DWORD PTR _this$[ebp]
	call	??AVector4@@QAEAAMH@Z			; Vector4::operator[]
	mov	DWORD PTR tv95[ebp], eax
	push	2
	mov	ecx, DWORD PTR _t$[ebp]
	call	??AVector3@@QBEABMH@Z			; Vector3::operator[]
	mov	ecx, DWORD PTR tv95[ebp]
	movss	xmm0, DWORD PTR [ecx]
	addss	xmm0, DWORD PTR [eax]
	mov	edx, DWORD PTR tv95[ebp]
	movss	DWORD PTR [edx], xmm0
	pop	edi
	pop	esi
	pop	ebx
	mov	esp, ebp
	pop	ebp
	ret	4
?Adjust_Translation@Matrix3D@@QAEXABVVector3@@@Z ENDP	; Matrix3D::Adjust_Translation
_TEXT	ENDS
; Function compile flags: /Odtp /ZI
; File x:\github\renegade\dragonade_rxd\scripts\matrix3d.h
;	COMDAT ?Set_Z_Translation@Matrix3D@@QAEXM@Z
_TEXT	SEGMENT
_this$ = -4						; size = 4
_z$ = 8							; size = 4
?Set_Z_Translation@Matrix3D@@QAEXM@Z PROC		; Matrix3D::Set_Z_Translation, COMDAT
; _this$ = ecx

; 150  : 	TT_INLINE void Set_Z_Translation(float z) { Row[2][3] = z; };

	push	ebp
	mov	ebp, esp
	sub	esp, 68					; 00000044H
	push	ebx
	push	esi
	push	edi
	mov	DWORD PTR _this$[ebp], ecx
	push	3
	mov	ecx, 16					; 00000010H
	shl	ecx, 1
	add	ecx, DWORD PTR _this$[ebp]
	call	??AVector4@@QAEAAMH@Z			; Vector4::operator[]
	movss	xmm0, DWORD PTR _z$[ebp]
	movss	DWORD PTR [eax], xmm0
	pop	edi
	pop	esi
	pop	ebx
	mov	esp, ebp
	pop	ebp
	ret	4
?Set_Z_Translation@Matrix3D@@QAEXM@Z ENDP		; Matrix3D::Set_Z_Translation
_TEXT	ENDS
; Function compile flags: /Odtp /ZI
; File x:\github\renegade\dragonade_rxd\scripts\matrix3d.h
;	COMDAT ?Set_Y_Translation@Matrix3D@@QAEXM@Z
_TEXT	SEGMENT
_this$ = -4						; size = 4
_y$ = 8							; size = 4
?Set_Y_Translation@Matrix3D@@QAEXM@Z PROC		; Matrix3D::Set_Y_Translation, COMDAT
; _this$ = ecx

; 149  : 	TT_INLINE void Set_Y_Translation(float y) { Row[1][3] = y; };

	push	ebp
	mov	ebp, esp
	sub	esp, 68					; 00000044H
	push	ebx
	push	esi
	push	edi
	mov	DWORD PTR _this$[ebp], ecx
	push	3
	mov	ecx, 16					; 00000010H
	shl	ecx, 0
	add	ecx, DWORD PTR _this$[ebp]
	call	??AVector4@@QAEAAMH@Z			; Vector4::operator[]
	movss	xmm0, DWORD PTR _y$[ebp]
	movss	DWORD PTR [eax], xmm0
	pop	edi
	pop	esi
	pop	ebx
	mov	esp, ebp
	pop	ebp
	ret	4
?Set_Y_Translation@Matrix3D@@QAEXM@Z ENDP		; Matrix3D::Set_Y_Translation
_TEXT	ENDS
; Function compile flags: /Odtp /ZI
; File x:\github\renegade\dragonade_rxd\scripts\matrix3d.h
;	COMDAT ?Set_X_Translation@Matrix3D@@QAEXM@Z
_TEXT	SEGMENT
_this$ = -4						; size = 4
_x$ = 8							; size = 4
?Set_X_Translation@Matrix3D@@QAEXM@Z PROC		; Matrix3D::Set_X_Translation, COMDAT
; _this$ = ecx

; 148  : 	TT_INLINE void Set_X_Translation(float x) { Row[0][3] = x; };

	push	ebp
	mov	ebp, esp
	sub	esp, 68					; 00000044H
	push	ebx
	push	esi
	push	edi
	mov	DWORD PTR _this$[ebp], ecx
	push	3
	mov	ecx, 16					; 00000010H
	imul	ecx, 0
	add	ecx, DWORD PTR _this$[ebp]
	call	??AVector4@@QAEAAMH@Z			; Vector4::operator[]
	movss	xmm0, DWORD PTR _x$[ebp]
	movss	DWORD PTR [eax], xmm0
	pop	edi
	pop	esi
	pop	ebx
	mov	esp, ebp
	pop	ebp
	ret	4
?Set_X_Translation@Matrix3D@@QAEXM@Z ENDP		; Matrix3D::Set_X_Translation
_TEXT	ENDS
; Function compile flags: /Odtp /ZI
; File x:\github\renegade\dragonade_rxd\scripts\matrix3d.h
;	COMDAT ?Get_Z_Translation@Matrix3D@@QBEMXZ
_TEXT	SEGMENT
_this$ = -4						; size = 4
?Get_Z_Translation@Matrix3D@@QBEMXZ PROC		; Matrix3D::Get_Z_Translation, COMDAT
; _this$ = ecx

; 147  : 	TT_INLINE float Get_Z_Translation(void) const { return Row[2][3]; };

	push	ebp
	mov	ebp, esp
	sub	esp, 68					; 00000044H
	push	ebx
	push	esi
	push	edi
	mov	DWORD PTR _this$[ebp], ecx
	push	3
	mov	ecx, 16					; 00000010H
	shl	ecx, 1
	add	ecx, DWORD PTR _this$[ebp]
	call	??AVector4@@QBEABMH@Z			; Vector4::operator[]
	fld	DWORD PTR [eax]
	pop	edi
	pop	esi
	pop	ebx
	mov	esp, ebp
	pop	ebp
	ret	0
?Get_Z_Translation@Matrix3D@@QBEMXZ ENDP		; Matrix3D::Get_Z_Translation
_TEXT	ENDS
; Function compile flags: /Odtp /ZI
; File x:\github\renegade\dragonade_rxd\scripts\matrix3d.h
;	COMDAT ?Get_Y_Translation@Matrix3D@@QBEMXZ
_TEXT	SEGMENT
_this$ = -4						; size = 4
?Get_Y_Translation@Matrix3D@@QBEMXZ PROC		; Matrix3D::Get_Y_Translation, COMDAT
; _this$ = ecx

; 146  : 	TT_INLINE float Get_Y_Translation(void) const { return Row[1][3]; };

	push	ebp
	mov	ebp, esp
	sub	esp, 68					; 00000044H
	push	ebx
	push	esi
	push	edi
	mov	DWORD PTR _this$[ebp], ecx
	push	3
	mov	ecx, 16					; 00000010H
	shl	ecx, 0
	add	ecx, DWORD PTR _this$[ebp]
	call	??AVector4@@QBEABMH@Z			; Vector4::operator[]
	fld	DWORD PTR [eax]
	pop	edi
	pop	esi
	pop	ebx
	mov	esp, ebp
	pop	ebp
	ret	0
?Get_Y_Translation@Matrix3D@@QBEMXZ ENDP		; Matrix3D::Get_Y_Translation
_TEXT	ENDS
; Function compile flags: /Odtp /ZI
; File x:\github\renegade\dragonade_rxd\scripts\matrix3d.h
;	COMDAT ?Get_X_Translation@Matrix3D@@QBEMXZ
_TEXT	SEGMENT
_this$ = -4						; size = 4
?Get_X_Translation@Matrix3D@@QBEMXZ PROC		; Matrix3D::Get_X_Translation, COMDAT
; _this$ = ecx

; 145  : 	TT_INLINE float Get_X_Translation(void) const { return Row[0][3]; };

	push	ebp
	mov	ebp, esp
	sub	esp, 68					; 00000044H
	push	ebx
	push	esi
	push	edi
	mov	DWORD PTR _this$[ebp], ecx
	push	3
	mov	ecx, 16					; 00000010H
	imul	ecx, 0
	add	ecx, DWORD PTR _this$[ebp]
	call	??AVector4@@QBEABMH@Z			; Vector4::operator[]
	fld	DWORD PTR [eax]
	pop	edi
	pop	esi
	pop	ebx
	mov	esp, ebp
	pop	ebp
	ret	0
?Get_X_Translation@Matrix3D@@QBEMXZ ENDP		; Matrix3D::Get_X_Translation
_TEXT	ENDS
; Function compile flags: /Odtp /ZI
; File x:\github\renegade\dragonade_rxd\scripts\matrix3d.h
;	COMDAT ?Set_Translation@Matrix3D@@QAEXABVVector3@@@Z
_TEXT	SEGMENT
_this$ = -4						; size = 4
_t$ = 8							; size = 4
?Set_Translation@Matrix3D@@QAEXABVVector3@@@Z PROC	; Matrix3D::Set_Translation, COMDAT
; _this$ = ecx

; 143  : 	TT_INLINE void Set_Translation(const Vector3 & t)  { Row[0][3] = t[0]; Row[1][3] = t[1];Row[2][3] = t[2]; }

	push	ebp
	mov	ebp, esp
	sub	esp, 68					; 00000044H
	push	ebx
	push	esi
	push	edi
	mov	DWORD PTR _this$[ebp], ecx
	push	0
	mov	ecx, DWORD PTR _t$[ebp]
	call	??AVector3@@QBEABMH@Z			; Vector3::operator[]
	mov	esi, eax
	push	3
	mov	ecx, 16					; 00000010H
	imul	ecx, 0
	add	ecx, DWORD PTR _this$[ebp]
	call	??AVector4@@QAEAAMH@Z			; Vector4::operator[]
	mov	ecx, DWORD PTR [esi]
	mov	DWORD PTR [eax], ecx
	push	1
	mov	ecx, DWORD PTR _t$[ebp]
	call	??AVector3@@QBEABMH@Z			; Vector3::operator[]
	mov	esi, eax
	push	3
	mov	ecx, 16					; 00000010H
	shl	ecx, 0
	add	ecx, DWORD PTR _this$[ebp]
	call	??AVector4@@QAEAAMH@Z			; Vector4::operator[]
	mov	ecx, DWORD PTR [esi]
	mov	DWORD PTR [eax], ecx
	push	2
	mov	ecx, DWORD PTR _t$[ebp]
	call	??AVector3@@QBEABMH@Z			; Vector3::operator[]
	mov	esi, eax
	push	3
	mov	ecx, 16					; 00000010H
	shl	ecx, 1
	add	ecx, DWORD PTR _this$[ebp]
	call	??AVector4@@QAEAAMH@Z			; Vector4::operator[]
	mov	ecx, DWORD PTR [esi]
	mov	DWORD PTR [eax], ecx
	pop	edi
	pop	esi
	pop	ebx
	mov	esp, ebp
	pop	ebp
	ret	4
?Set_Translation@Matrix3D@@QAEXABVVector3@@@Z ENDP	; Matrix3D::Set_Translation
_TEXT	ENDS
; Function compile flags: /Odtp /ZI
; File x:\github\renegade\dragonade_rxd\scripts\matrix3d.h
;	COMDAT ?Get_Translation@Matrix3D@@QBEXPAVVector3@@@Z
_TEXT	SEGMENT
_this$ = -4						; size = 4
_set$ = 8						; size = 4
?Get_Translation@Matrix3D@@QBEXPAVVector3@@@Z PROC	; Matrix3D::Get_Translation, COMDAT
; _this$ = ecx

; 142  : 	TT_INLINE void Get_Translation(Vector3 * set) const { set->X = Row[0][3]; set->Y = Row[1][3]; set->Z = Row[2][3]; }

	push	ebp
	mov	ebp, esp
	sub	esp, 68					; 00000044H
	push	ebx
	push	esi
	push	edi
	mov	DWORD PTR _this$[ebp], ecx
	push	3
	mov	ecx, 16					; 00000010H
	imul	ecx, 0
	add	ecx, DWORD PTR _this$[ebp]
	call	??AVector4@@QBEABMH@Z			; Vector4::operator[]
	mov	ecx, DWORD PTR _set$[ebp]
	mov	edx, DWORD PTR [eax]
	mov	DWORD PTR [ecx], edx
	push	3
	mov	ecx, 16					; 00000010H
	shl	ecx, 0
	add	ecx, DWORD PTR _this$[ebp]
	call	??AVector4@@QBEABMH@Z			; Vector4::operator[]
	mov	ecx, DWORD PTR _set$[ebp]
	mov	edx, DWORD PTR [eax]
	mov	DWORD PTR [ecx+4], edx
	push	3
	mov	ecx, 16					; 00000010H
	shl	ecx, 1
	add	ecx, DWORD PTR _this$[ebp]
	call	??AVector4@@QBEABMH@Z			; Vector4::operator[]
	mov	ecx, DWORD PTR _set$[ebp]
	mov	edx, DWORD PTR [eax]
	mov	DWORD PTR [ecx+8], edx
	pop	edi
	pop	esi
	pop	ebx
	mov	esp, ebp
	pop	ebp
	ret	4
?Get_Translation@Matrix3D@@QBEXPAVVector3@@@Z ENDP	; Matrix3D::Get_Translation
_TEXT	ENDS
; Function compile flags: /Odtp /ZI
; File x:\github\renegade\dragonade_rxd\scripts\matrix3d.h
;	COMDAT ?Get_Translation@Matrix3D@@QBE?AVVector3@@XZ
_TEXT	SEGMENT
_this$ = -4						; size = 4
___$ReturnUdt$ = 8					; size = 4
?Get_Translation@Matrix3D@@QBE?AVVector3@@XZ PROC	; Matrix3D::Get_Translation, COMDAT
; _this$ = ecx

; 141  : 	TT_INLINE Vector3 Get_Translation(void) const { return Vector3(Row[0][3],Row[1][3],Row[2][3]); }

	push	ebp
	mov	ebp, esp
	sub	esp, 68					; 00000044H
	push	ebx
	push	esi
	push	edi
	mov	DWORD PTR _this$[ebp], ecx
	push	3
	mov	ecx, 16					; 00000010H
	shl	ecx, 1
	add	ecx, DWORD PTR _this$[ebp]
	call	??AVector4@@QBEABMH@Z			; Vector4::operator[]
	push	ecx
	movss	xmm0, DWORD PTR [eax]
	movss	DWORD PTR [esp], xmm0
	push	3
	mov	ecx, 16					; 00000010H
	shl	ecx, 0
	add	ecx, DWORD PTR _this$[ebp]
	call	??AVector4@@QBEABMH@Z			; Vector4::operator[]
	push	ecx
	movss	xmm0, DWORD PTR [eax]
	movss	DWORD PTR [esp], xmm0
	push	3
	mov	ecx, 16					; 00000010H
	imul	ecx, 0
	add	ecx, DWORD PTR _this$[ebp]
	call	??AVector4@@QBEABMH@Z			; Vector4::operator[]
	push	ecx
	movss	xmm0, DWORD PTR [eax]
	movss	DWORD PTR [esp], xmm0
	mov	ecx, DWORD PTR ___$ReturnUdt$[ebp]
	call	??0Vector3@@QAE@MMM@Z			; Vector3::Vector3
	mov	eax, DWORD PTR ___$ReturnUdt$[ebp]
	pop	edi
	pop	esi
	pop	ebx
	mov	esp, ebp
	pop	ebp
	ret	4
?Get_Translation@Matrix3D@@QBE?AVVector3@@XZ ENDP	; Matrix3D::Get_Translation
_TEXT	ENDS
; Function compile flags: /Odtp /ZI
; File x:\github\renegade\dragonade_rxd\scripts\matrix3d.h
;	COMDAT ?Set@Matrix3D@@QAEXABVVector3@@@Z
_TEXT	SEGMENT
_this$ = -4						; size = 4
_position$ = 8						; size = 4
?Set@Matrix3D@@QAEXABVVector3@@@Z PROC			; Matrix3D::Set, COMDAT
; _this$ = ecx

; 133  : 	{

	push	ebp
	mov	ebp, esp
	sub	esp, 68					; 00000044H
	push	ebx
	push	esi
	push	edi
	mov	DWORD PTR _this$[ebp], ecx

; 134  : 		Row[0].Set(1.0f,0.0f,0.0f,position[0]);

	push	0
	mov	ecx, DWORD PTR _position$[ebp]
	call	??AVector3@@QBEABMH@Z			; Vector3::operator[]
	push	ecx
	movss	xmm0, DWORD PTR [eax]
	movss	DWORD PTR [esp], xmm0
	push	ecx
	movss	xmm0, DWORD PTR __real@00000000
	movss	DWORD PTR [esp], xmm0
	push	ecx
	movss	xmm0, DWORD PTR __real@00000000
	movss	DWORD PTR [esp], xmm0
	push	ecx
	movss	xmm0, DWORD PTR __real@3f800000
	movss	DWORD PTR [esp], xmm0
	mov	ecx, 16					; 00000010H
	imul	ecx, 0
	add	ecx, DWORD PTR _this$[ebp]
	call	?Set@Vector4@@QAEXMMMM@Z		; Vector4::Set

; 135  : 		Row[1].Set(0.0f,1.0f,0.0f,position[1]);

	push	1
	mov	ecx, DWORD PTR _position$[ebp]
	call	??AVector3@@QBEABMH@Z			; Vector3::operator[]
	push	ecx
	movss	xmm0, DWORD PTR [eax]
	movss	DWORD PTR [esp], xmm0
	push	ecx
	movss	xmm0, DWORD PTR __real@00000000
	movss	DWORD PTR [esp], xmm0
	push	ecx
	movss	xmm0, DWORD PTR __real@3f800000
	movss	DWORD PTR [esp], xmm0
	push	ecx
	movss	xmm0, DWORD PTR __real@00000000
	movss	DWORD PTR [esp], xmm0
	mov	ecx, 16					; 00000010H
	shl	ecx, 0
	add	ecx, DWORD PTR _this$[ebp]
	call	?Set@Vector4@@QAEXMMMM@Z		; Vector4::Set

; 136  : 		Row[2].Set(0.0f,0.0f,1.0f,position[2]);

	push	2
	mov	ecx, DWORD PTR _position$[ebp]
	call	??AVector3@@QBEABMH@Z			; Vector3::operator[]
	push	ecx
	movss	xmm0, DWORD PTR [eax]
	movss	DWORD PTR [esp], xmm0
	push	ecx
	movss	xmm0, DWORD PTR __real@3f800000
	movss	DWORD PTR [esp], xmm0
	push	ecx
	movss	xmm0, DWORD PTR __real@00000000
	movss	DWORD PTR [esp], xmm0
	push	ecx
	movss	xmm0, DWORD PTR __real@00000000
	movss	DWORD PTR [esp], xmm0
	mov	ecx, 16					; 00000010H
	shl	ecx, 1
	add	ecx, DWORD PTR _this$[ebp]
	call	?Set@Vector4@@QAEXMMMM@Z		; Vector4::Set

; 137  : 	}

	pop	edi
	pop	esi
	pop	ebx
	mov	esp, ebp
	pop	ebp
	ret	4
?Set@Matrix3D@@QAEXABVVector3@@@Z ENDP			; Matrix3D::Set
_TEXT	ENDS
; Function compile flags: /Odtp /ZI
; File x:\github\renegade\dragonade_rxd\scripts\matrix3d.h
;	COMDAT ?Set@Matrix3D@@QAEXABVVector3@@MM@Z
_TEXT	SEGMENT
tv368 = -80						; size = 4
tv362 = -80						; size = 4
tv356 = -80						; size = 4
tv366 = -76						; size = 4
tv360 = -76						; size = 4
tv354 = -76						; size = 4
tv364 = -72						; size = 4
tv358 = -72						; size = 4
tv352 = -72						; size = 4
_this$ = -4						; size = 4
_axis$ = 8						; size = 4
_s$ = 12						; size = 4
_c$ = 16						; size = 4
?Set@Matrix3D@@QAEXABVVector3@@MM@Z PROC		; Matrix3D::Set, COMDAT
; _this$ = ecx

; 112  : 	{

	push	ebp
	mov	ebp, esp
	sub	esp, 80					; 00000050H
	push	ebx
	push	esi
	push	edi
	mov	DWORD PTR _this$[ebp], ecx

; 113  : 		Row[0].Set(
; 114  : 			(float)(axis[0]*axis[0] + c*(1.0f - axis[0]*axis[0])),
; 115  : 			(float)(axis[0]*axis[1]*(1.0f - c) - axis[2]*s),
; 116  : 			(float)(axis[2]*axis[0]*(1.0f - c) + axis[1]*s),
; 117  : 			0.0f
; 118  : 		);

	push	ecx
	movss	xmm0, DWORD PTR __real@00000000
	movss	DWORD PTR [esp], xmm0
	push	2
	mov	ecx, DWORD PTR _axis$[ebp]
	call	??AVector3@@QBEABMH@Z			; Vector3::operator[]
	mov	esi, eax
	push	0
	mov	ecx, DWORD PTR _axis$[ebp]
	call	??AVector3@@QBEABMH@Z			; Vector3::operator[]
	movss	xmm0, DWORD PTR [esi]
	mulss	xmm0, DWORD PTR [eax]
	movss	xmm1, DWORD PTR __real@3f800000
	subss	xmm1, DWORD PTR _c$[ebp]
	mulss	xmm0, xmm1
	push	1
	mov	ecx, DWORD PTR _axis$[ebp]
	movss	DWORD PTR tv352[ebp], xmm0
	call	??AVector3@@QBEABMH@Z			; Vector3::operator[]
	movss	xmm0, DWORD PTR [eax]
	mulss	xmm0, DWORD PTR _s$[ebp]
	movss	xmm1, DWORD PTR tv352[ebp]
	addss	xmm1, xmm0
	push	ecx
	movss	DWORD PTR [esp], xmm1
	push	0
	mov	ecx, DWORD PTR _axis$[ebp]
	call	??AVector3@@QBEABMH@Z			; Vector3::operator[]
	mov	esi, eax
	push	1
	mov	ecx, DWORD PTR _axis$[ebp]
	call	??AVector3@@QBEABMH@Z			; Vector3::operator[]
	movss	xmm0, DWORD PTR [esi]
	mulss	xmm0, DWORD PTR [eax]
	movss	xmm1, DWORD PTR __real@3f800000
	subss	xmm1, DWORD PTR _c$[ebp]
	mulss	xmm0, xmm1
	push	2
	mov	ecx, DWORD PTR _axis$[ebp]
	movss	DWORD PTR tv354[ebp], xmm0
	call	??AVector3@@QBEABMH@Z			; Vector3::operator[]
	movss	xmm0, DWORD PTR [eax]
	mulss	xmm0, DWORD PTR _s$[ebp]
	movss	xmm1, DWORD PTR tv354[ebp]
	subss	xmm1, xmm0
	push	ecx
	movss	DWORD PTR [esp], xmm1
	push	0
	mov	ecx, DWORD PTR _axis$[ebp]
	call	??AVector3@@QBEABMH@Z			; Vector3::operator[]
	mov	esi, eax
	push	0
	mov	ecx, DWORD PTR _axis$[ebp]
	call	??AVector3@@QBEABMH@Z			; Vector3::operator[]
	movss	xmm0, DWORD PTR [esi]
	mulss	xmm0, DWORD PTR [eax]
	push	0
	mov	ecx, DWORD PTR _axis$[ebp]
	movss	DWORD PTR tv356[ebp], xmm0
	call	??AVector3@@QBEABMH@Z			; Vector3::operator[]
	mov	esi, eax
	push	0
	mov	ecx, DWORD PTR _axis$[ebp]
	call	??AVector3@@QBEABMH@Z			; Vector3::operator[]
	movss	xmm0, DWORD PTR [esi]
	mulss	xmm0, DWORD PTR [eax]
	movss	xmm1, DWORD PTR __real@3f800000
	subss	xmm1, xmm0
	mulss	xmm1, DWORD PTR _c$[ebp]
	movss	xmm0, DWORD PTR tv356[ebp]
	addss	xmm0, xmm1
	push	ecx
	movss	DWORD PTR [esp], xmm0
	mov	ecx, 16					; 00000010H
	imul	ecx, 0
	add	ecx, DWORD PTR _this$[ebp]
	call	?Set@Vector4@@QAEXMMMM@Z		; Vector4::Set

; 119  : 		Row[1].Set(
; 120  : 			(float)(axis[0]*axis[1]*(1.0f - c) + axis[2]*s),
; 121  : 			(float)(axis[1]*axis[1] + c*(1.0f - axis[1]*axis[1])),
; 122  : 			(float)(axis[1]*axis[2]*(1.0f - c) - axis[0]*s),
; 123  : 			0.0f
; 124  : 		);

	push	ecx
	movss	xmm0, DWORD PTR __real@00000000
	movss	DWORD PTR [esp], xmm0
	push	1
	mov	ecx, DWORD PTR _axis$[ebp]
	call	??AVector3@@QBEABMH@Z			; Vector3::operator[]
	mov	esi, eax
	push	2
	mov	ecx, DWORD PTR _axis$[ebp]
	call	??AVector3@@QBEABMH@Z			; Vector3::operator[]
	movss	xmm0, DWORD PTR [esi]
	mulss	xmm0, DWORD PTR [eax]
	movss	xmm1, DWORD PTR __real@3f800000
	subss	xmm1, DWORD PTR _c$[ebp]
	mulss	xmm0, xmm1
	push	0
	mov	ecx, DWORD PTR _axis$[ebp]
	movss	DWORD PTR tv358[ebp], xmm0
	call	??AVector3@@QBEABMH@Z			; Vector3::operator[]
	movss	xmm0, DWORD PTR [eax]
	mulss	xmm0, DWORD PTR _s$[ebp]
	movss	xmm1, DWORD PTR tv358[ebp]
	subss	xmm1, xmm0
	push	ecx
	movss	DWORD PTR [esp], xmm1
	push	1
	mov	ecx, DWORD PTR _axis$[ebp]
	call	??AVector3@@QBEABMH@Z			; Vector3::operator[]
	mov	esi, eax
	push	1
	mov	ecx, DWORD PTR _axis$[ebp]
	call	??AVector3@@QBEABMH@Z			; Vector3::operator[]
	movss	xmm0, DWORD PTR [esi]
	mulss	xmm0, DWORD PTR [eax]
	push	1
	mov	ecx, DWORD PTR _axis$[ebp]
	movss	DWORD PTR tv360[ebp], xmm0
	call	??AVector3@@QBEABMH@Z			; Vector3::operator[]
	mov	esi, eax
	push	1
	mov	ecx, DWORD PTR _axis$[ebp]
	call	??AVector3@@QBEABMH@Z			; Vector3::operator[]
	movss	xmm0, DWORD PTR [esi]
	mulss	xmm0, DWORD PTR [eax]
	movss	xmm1, DWORD PTR __real@3f800000
	subss	xmm1, xmm0
	mulss	xmm1, DWORD PTR _c$[ebp]
	movss	xmm0, DWORD PTR tv360[ebp]
	addss	xmm0, xmm1
	push	ecx
	movss	DWORD PTR [esp], xmm0
	push	0
	mov	ecx, DWORD PTR _axis$[ebp]
	call	??AVector3@@QBEABMH@Z			; Vector3::operator[]
	mov	esi, eax
	push	1
	mov	ecx, DWORD PTR _axis$[ebp]
	call	??AVector3@@QBEABMH@Z			; Vector3::operator[]
	movss	xmm0, DWORD PTR [esi]
	mulss	xmm0, DWORD PTR [eax]
	movss	xmm1, DWORD PTR __real@3f800000
	subss	xmm1, DWORD PTR _c$[ebp]
	mulss	xmm0, xmm1
	push	2
	mov	ecx, DWORD PTR _axis$[ebp]
	movss	DWORD PTR tv362[ebp], xmm0
	call	??AVector3@@QBEABMH@Z			; Vector3::operator[]
	movss	xmm0, DWORD PTR [eax]
	mulss	xmm0, DWORD PTR _s$[ebp]
	movss	xmm1, DWORD PTR tv362[ebp]
	addss	xmm1, xmm0
	push	ecx
	movss	DWORD PTR [esp], xmm1
	mov	ecx, 16					; 00000010H
	shl	ecx, 0
	add	ecx, DWORD PTR _this$[ebp]
	call	?Set@Vector4@@QAEXMMMM@Z		; Vector4::Set

; 125  : 		Row[2].Set(
; 126  : 			(float)(axis[2]*axis[0]*(1.0f - c) - axis[1]*s),
; 127  : 			(float)(axis[1]*axis[2]*(1.0f - c) + axis[0]*s),
; 128  : 			(float)(axis[2]*axis[2] + c*(1 - axis[2]*axis[2])),
; 129  : 			0.0f
; 130  : 		);

	push	ecx
	movss	xmm0, DWORD PTR __real@00000000
	movss	DWORD PTR [esp], xmm0
	push	2
	mov	ecx, DWORD PTR _axis$[ebp]
	call	??AVector3@@QBEABMH@Z			; Vector3::operator[]
	mov	esi, eax
	push	2
	mov	ecx, DWORD PTR _axis$[ebp]
	call	??AVector3@@QBEABMH@Z			; Vector3::operator[]
	movss	xmm0, DWORD PTR [esi]
	mulss	xmm0, DWORD PTR [eax]
	push	2
	mov	ecx, DWORD PTR _axis$[ebp]
	movss	DWORD PTR tv364[ebp], xmm0
	call	??AVector3@@QBEABMH@Z			; Vector3::operator[]
	mov	esi, eax
	push	2
	mov	ecx, DWORD PTR _axis$[ebp]
	call	??AVector3@@QBEABMH@Z			; Vector3::operator[]
	movss	xmm0, DWORD PTR [esi]
	mulss	xmm0, DWORD PTR [eax]
	movss	xmm1, DWORD PTR __real@3f800000
	subss	xmm1, xmm0
	mulss	xmm1, DWORD PTR _c$[ebp]
	movss	xmm0, DWORD PTR tv364[ebp]
	addss	xmm0, xmm1
	push	ecx
	movss	DWORD PTR [esp], xmm0
	push	1
	mov	ecx, DWORD PTR _axis$[ebp]
	call	??AVector3@@QBEABMH@Z			; Vector3::operator[]
	mov	esi, eax
	push	2
	mov	ecx, DWORD PTR _axis$[ebp]
	call	??AVector3@@QBEABMH@Z			; Vector3::operator[]
	movss	xmm0, DWORD PTR [esi]
	mulss	xmm0, DWORD PTR [eax]
	movss	xmm1, DWORD PTR __real@3f800000
	subss	xmm1, DWORD PTR _c$[ebp]
	mulss	xmm0, xmm1
	push	0
	mov	ecx, DWORD PTR _axis$[ebp]
	movss	DWORD PTR tv366[ebp], xmm0
	call	??AVector3@@QBEABMH@Z			; Vector3::operator[]
	movss	xmm0, DWORD PTR [eax]
	mulss	xmm0, DWORD PTR _s$[ebp]
	movss	xmm1, DWORD PTR tv366[ebp]
	addss	xmm1, xmm0
	push	ecx
	movss	DWORD PTR [esp], xmm1
	push	2
	mov	ecx, DWORD PTR _axis$[ebp]
	call	??AVector3@@QBEABMH@Z			; Vector3::operator[]
	mov	esi, eax
	push	0
	mov	ecx, DWORD PTR _axis$[ebp]
	call	??AVector3@@QBEABMH@Z			; Vector3::operator[]
	movss	xmm0, DWORD PTR [esi]
	mulss	xmm0, DWORD PTR [eax]
	movss	xmm1, DWORD PTR __real@3f800000
	subss	xmm1, DWORD PTR _c$[ebp]
	mulss	xmm0, xmm1
	push	1
	mov	ecx, DWORD PTR _axis$[ebp]
	movss	DWORD PTR tv368[ebp], xmm0
	call	??AVector3@@QBEABMH@Z			; Vector3::operator[]
	movss	xmm0, DWORD PTR [eax]
	mulss	xmm0, DWORD PTR _s$[ebp]
	movss	xmm1, DWORD PTR tv368[ebp]
	subss	xmm1, xmm0
	push	ecx
	movss	DWORD PTR [esp], xmm1
	mov	ecx, 16					; 00000010H
	shl	ecx, 1
	add	ecx, DWORD PTR _this$[ebp]
	call	?Set@Vector4@@QAEXMMMM@Z		; Vector4::Set

; 131  : 	}

	pop	edi
	pop	esi
	pop	ebx
	mov	esp, ebp
	pop	ebp
	ret	12					; 0000000cH
?Set@Matrix3D@@QAEXABVVector3@@MM@Z ENDP		; Matrix3D::Set
_TEXT	ENDS
; Function compile flags: /Odtp /ZI
; File x:\github\renegade\dragonade_rxd\scripts\matrix3d.h
;	COMDAT ?Set@Matrix3D@@QAEXABVVector3@@M@Z
_TEXT	SEGMENT
_s$ = -12						; size = 4
_c$ = -8						; size = 4
_this$ = -4						; size = 4
_axis$ = 8						; size = 4
_angle$ = 12						; size = 4
?Set@Matrix3D@@QAEXABVVector3@@M@Z PROC			; Matrix3D::Set, COMDAT
; _this$ = ecx

; 106  : 	{

	push	ebp
	mov	ebp, esp
	sub	esp, 76					; 0000004cH
	push	ebx
	push	esi
	push	edi
	mov	DWORD PTR _this$[ebp], ecx

; 107  : 		float c = cosf(angle);

	push	ecx
	movss	xmm0, DWORD PTR _angle$[ebp]
	movss	DWORD PTR [esp], xmm0
	call	_cosf
	add	esp, 4
	fstp	DWORD PTR _c$[ebp]

; 108  : 		float s = sinf(angle);

	push	ecx
	movss	xmm0, DWORD PTR _angle$[ebp]
	movss	DWORD PTR [esp], xmm0
	call	_sinf
	add	esp, 4
	fstp	DWORD PTR _s$[ebp]

; 109  : 		Set(axis,s,c);

	push	ecx
	movss	xmm0, DWORD PTR _c$[ebp]
	movss	DWORD PTR [esp], xmm0
	push	ecx
	movss	xmm0, DWORD PTR _s$[ebp]
	movss	DWORD PTR [esp], xmm0
	mov	eax, DWORD PTR _axis$[ebp]
	push	eax
	mov	ecx, DWORD PTR _this$[ebp]
	call	?Set@Matrix3D@@QAEXABVVector3@@MM@Z	; Matrix3D::Set

; 110  : 	}

	pop	edi
	pop	esi
	pop	ebx
	mov	esp, ebp
	pop	ebp
	ret	8
?Set@Matrix3D@@QAEXABVVector3@@M@Z ENDP			; Matrix3D::Set
_TEXT	ENDS
; Function compile flags: /Odtp /ZI
; File x:\github\renegade\dragonade_rxd\scripts\matrix3d.h
;	COMDAT ?Set@Matrix3D@@QAEXABVVector3@@000@Z
_TEXT	SEGMENT
_this$ = -4						; size = 4
_x$ = 8							; size = 4
_y$ = 12						; size = 4
_z$ = 16						; size = 4
_pos$ = 20						; size = 4
?Set@Matrix3D@@QAEXABVVector3@@000@Z PROC		; Matrix3D::Set, COMDAT
; _this$ = ecx

; 100  : 	{

	push	ebp
	mov	ebp, esp
	sub	esp, 68					; 00000044H
	push	ebx
	push	esi
	push	edi
	mov	DWORD PTR _this$[ebp], ecx

; 101  : 		Row[0].Set(x[0],y[0],z[0],pos[0]);

	push	0
	mov	ecx, DWORD PTR _pos$[ebp]
	call	??AVector3@@QBEABMH@Z			; Vector3::operator[]
	push	ecx
	movss	xmm0, DWORD PTR [eax]
	movss	DWORD PTR [esp], xmm0
	push	0
	mov	ecx, DWORD PTR _z$[ebp]
	call	??AVector3@@QBEABMH@Z			; Vector3::operator[]
	push	ecx
	movss	xmm0, DWORD PTR [eax]
	movss	DWORD PTR [esp], xmm0
	push	0
	mov	ecx, DWORD PTR _y$[ebp]
	call	??AVector3@@QBEABMH@Z			; Vector3::operator[]
	push	ecx
	movss	xmm0, DWORD PTR [eax]
	movss	DWORD PTR [esp], xmm0
	push	0
	mov	ecx, DWORD PTR _x$[ebp]
	call	??AVector3@@QBEABMH@Z			; Vector3::operator[]
	push	ecx
	movss	xmm0, DWORD PTR [eax]
	movss	DWORD PTR [esp], xmm0
	mov	ecx, 16					; 00000010H
	imul	ecx, 0
	add	ecx, DWORD PTR _this$[ebp]
	call	?Set@Vector4@@QAEXMMMM@Z		; Vector4::Set

; 102  : 		Row[1].Set(x[1],y[1],z[1],pos[1]);

	push	1
	mov	ecx, DWORD PTR _pos$[ebp]
	call	??AVector3@@QBEABMH@Z			; Vector3::operator[]
	push	ecx
	movss	xmm0, DWORD PTR [eax]
	movss	DWORD PTR [esp], xmm0
	push	1
	mov	ecx, DWORD PTR _z$[ebp]
	call	??AVector3@@QBEABMH@Z			; Vector3::operator[]
	push	ecx
	movss	xmm0, DWORD PTR [eax]
	movss	DWORD PTR [esp], xmm0
	push	1
	mov	ecx, DWORD PTR _y$[ebp]
	call	??AVector3@@QBEABMH@Z			; Vector3::operator[]
	push	ecx
	movss	xmm0, DWORD PTR [eax]
	movss	DWORD PTR [esp], xmm0
	push	1
	mov	ecx, DWORD PTR _x$[ebp]
	call	??AVector3@@QBEABMH@Z			; Vector3::operator[]
	push	ecx
	movss	xmm0, DWORD PTR [eax]
	movss	DWORD PTR [esp], xmm0
	mov	ecx, 16					; 00000010H
	shl	ecx, 0
	add	ecx, DWORD PTR _this$[ebp]
	call	?Set@Vector4@@QAEXMMMM@Z		; Vector4::Set

; 103  : 		Row[2].Set(x[2],y[2],z[2],pos[2]);

	push	2
	mov	ecx, DWORD PTR _pos$[ebp]
	call	??AVector3@@QBEABMH@Z			; Vector3::operator[]
	push	ecx
	movss	xmm0, DWORD PTR [eax]
	movss	DWORD PTR [esp], xmm0
	push	2
	mov	ecx, DWORD PTR _z$[ebp]
	call	??AVector3@@QBEABMH@Z			; Vector3::operator[]
	push	ecx
	movss	xmm0, DWORD PTR [eax]
	movss	DWORD PTR [esp], xmm0
	push	2
	mov	ecx, DWORD PTR _y$[ebp]
	call	??AVector3@@QBEABMH@Z			; Vector3::operator[]
	push	ecx
	movss	xmm0, DWORD PTR [eax]
	movss	DWORD PTR [esp], xmm0
	push	2
	mov	ecx, DWORD PTR _x$[ebp]
	call	??AVector3@@QBEABMH@Z			; Vector3::operator[]
	push	ecx
	movss	xmm0, DWORD PTR [eax]
	movss	DWORD PTR [esp], xmm0
	mov	ecx, 16					; 00000010H
	shl	ecx, 1
	add	ecx, DWORD PTR _this$[ebp]
	call	?Set@Vector4@@QAEXMMMM@Z		; Vector4::Set

; 104  : 	}

	pop	edi
	pop	esi
	pop	ebx
	mov	esp, ebp
	pop	ebp
	ret	16					; 00000010H
?Set@Matrix3D@@QAEXABVVector3@@000@Z ENDP		; Matrix3D::Set
_TEXT	ENDS
; Function compile flags: /Odtp /ZI
; File x:\github\renegade\dragonade_rxd\scripts\matrix3d.h
;	COMDAT ?Set@Matrix3D@@QAEXMMMMMMMMMMMM@Z
_TEXT	SEGMENT
_this$ = -4						; size = 4
_m11$ = 8						; size = 4
_m12$ = 12						; size = 4
_m13$ = 16						; size = 4
_m14$ = 20						; size = 4
_m21$ = 24						; size = 4
_m22$ = 28						; size = 4
_m23$ = 32						; size = 4
_m24$ = 36						; size = 4
_m31$ = 40						; size = 4
_m32$ = 44						; size = 4
_m33$ = 48						; size = 4
_m34$ = 52						; size = 4
?Set@Matrix3D@@QAEXMMMMMMMMMMMM@Z PROC			; Matrix3D::Set, COMDAT
; _this$ = ecx

; 94   : 	{

	push	ebp
	mov	ebp, esp
	sub	esp, 68					; 00000044H
	push	ebx
	push	esi
	push	edi
	mov	DWORD PTR _this$[ebp], ecx

; 95   : 		Row[0].Set(m11,m12,m13,m14);

	push	ecx
	movss	xmm0, DWORD PTR _m14$[ebp]
	movss	DWORD PTR [esp], xmm0
	push	ecx
	movss	xmm0, DWORD PTR _m13$[ebp]
	movss	DWORD PTR [esp], xmm0
	push	ecx
	movss	xmm0, DWORD PTR _m12$[ebp]
	movss	DWORD PTR [esp], xmm0
	push	ecx
	movss	xmm0, DWORD PTR _m11$[ebp]
	movss	DWORD PTR [esp], xmm0
	mov	ecx, 16					; 00000010H
	imul	ecx, 0
	add	ecx, DWORD PTR _this$[ebp]
	call	?Set@Vector4@@QAEXMMMM@Z		; Vector4::Set

; 96   : 		Row[1].Set(m21,m22,m23,m24);

	push	ecx
	movss	xmm0, DWORD PTR _m24$[ebp]
	movss	DWORD PTR [esp], xmm0
	push	ecx
	movss	xmm0, DWORD PTR _m23$[ebp]
	movss	DWORD PTR [esp], xmm0
	push	ecx
	movss	xmm0, DWORD PTR _m22$[ebp]
	movss	DWORD PTR [esp], xmm0
	push	ecx
	movss	xmm0, DWORD PTR _m21$[ebp]
	movss	DWORD PTR [esp], xmm0
	mov	ecx, 16					; 00000010H
	shl	ecx, 0
	add	ecx, DWORD PTR _this$[ebp]
	call	?Set@Vector4@@QAEXMMMM@Z		; Vector4::Set

; 97   : 		Row[2].Set(m31,m32,m33,m34);

	push	ecx
	movss	xmm0, DWORD PTR _m34$[ebp]
	movss	DWORD PTR [esp], xmm0
	push	ecx
	movss	xmm0, DWORD PTR _m33$[ebp]
	movss	DWORD PTR [esp], xmm0
	push	ecx
	movss	xmm0, DWORD PTR _m32$[ebp]
	movss	DWORD PTR [esp], xmm0
	push	ecx
	movss	xmm0, DWORD PTR _m31$[ebp]
	movss	DWORD PTR [esp], xmm0
	mov	ecx, 16					; 00000010H
	shl	ecx, 1
	add	ecx, DWORD PTR _this$[ebp]
	call	?Set@Vector4@@QAEXMMMM@Z		; Vector4::Set

; 98   : 	}

	pop	edi
	pop	esi
	pop	ebx
	mov	esp, ebp
	pop	ebp
	ret	48					; 00000030H
?Set@Matrix3D@@QAEXMMMMMMMMMMMM@Z ENDP			; Matrix3D::Set
_TEXT	ENDS
; Function compile flags: /Odtp /ZI
; File x:\github\renegade\dragonade_rxd\scripts\matrix3d.h
;	COMDAT ?Set@Matrix3D@@QAEXQAM@Z
_TEXT	SEGMENT
_this$ = -4						; size = 4
_m$ = 8							; size = 4
?Set@Matrix3D@@QAEXQAM@Z PROC				; Matrix3D::Set, COMDAT
; _this$ = ecx

; 88   : 	{

	push	ebp
	mov	ebp, esp
	sub	esp, 68					; 00000044H
	push	ebx
	push	esi
	push	edi
	mov	DWORD PTR _this$[ebp], ecx

; 89   : 		Row[0].Set(m[0],m[1],m[2],m[3]);

	mov	eax, 4
	imul	eax, 3
	mov	ecx, DWORD PTR _m$[ebp]
	push	ecx
	movss	xmm0, DWORD PTR [ecx+eax]
	movss	DWORD PTR [esp], xmm0
	mov	edx, 4
	shl	edx, 1
	mov	eax, DWORD PTR _m$[ebp]
	push	ecx
	movss	xmm0, DWORD PTR [eax+edx]
	movss	DWORD PTR [esp], xmm0
	mov	ecx, 4
	shl	ecx, 0
	mov	edx, DWORD PTR _m$[ebp]
	push	ecx
	movss	xmm0, DWORD PTR [edx+ecx]
	movss	DWORD PTR [esp], xmm0
	mov	eax, 4
	imul	eax, 0
	mov	ecx, DWORD PTR _m$[ebp]
	push	ecx
	movss	xmm0, DWORD PTR [ecx+eax]
	movss	DWORD PTR [esp], xmm0
	mov	ecx, 16					; 00000010H
	imul	ecx, 0
	add	ecx, DWORD PTR _this$[ebp]
	call	?Set@Vector4@@QAEXMMMM@Z		; Vector4::Set

; 90   : 		Row[1].Set(m[4],m[5],m[6],m[7]);

	mov	eax, 4
	imul	eax, 7
	mov	ecx, DWORD PTR _m$[ebp]
	push	ecx
	movss	xmm0, DWORD PTR [ecx+eax]
	movss	DWORD PTR [esp], xmm0
	mov	edx, 4
	imul	edx, 6
	mov	eax, DWORD PTR _m$[ebp]
	push	ecx
	movss	xmm0, DWORD PTR [eax+edx]
	movss	DWORD PTR [esp], xmm0
	mov	ecx, 4
	imul	ecx, 5
	mov	edx, DWORD PTR _m$[ebp]
	push	ecx
	movss	xmm0, DWORD PTR [edx+ecx]
	movss	DWORD PTR [esp], xmm0
	mov	eax, 4
	shl	eax, 2
	mov	ecx, DWORD PTR _m$[ebp]
	push	ecx
	movss	xmm0, DWORD PTR [ecx+eax]
	movss	DWORD PTR [esp], xmm0
	mov	ecx, 16					; 00000010H
	shl	ecx, 0
	add	ecx, DWORD PTR _this$[ebp]
	call	?Set@Vector4@@QAEXMMMM@Z		; Vector4::Set

; 91   : 		Row[2].Set(m[8],m[9],m[10],m[11]);

	mov	eax, 4
	imul	eax, 11					; 0000000bH
	mov	ecx, DWORD PTR _m$[ebp]
	push	ecx
	movss	xmm0, DWORD PTR [ecx+eax]
	movss	DWORD PTR [esp], xmm0
	mov	edx, 4
	imul	edx, 10					; 0000000aH
	mov	eax, DWORD PTR _m$[ebp]
	push	ecx
	movss	xmm0, DWORD PTR [eax+edx]
	movss	DWORD PTR [esp], xmm0
	mov	ecx, 4
	imul	ecx, 9
	mov	edx, DWORD PTR _m$[ebp]
	push	ecx
	movss	xmm0, DWORD PTR [edx+ecx]
	movss	DWORD PTR [esp], xmm0
	mov	eax, 4
	shl	eax, 3
	mov	ecx, DWORD PTR _m$[ebp]
	push	ecx
	movss	xmm0, DWORD PTR [ecx+eax]
	movss	DWORD PTR [esp], xmm0
	mov	ecx, 16					; 00000010H
	shl	ecx, 1
	add	ecx, DWORD PTR _this$[ebp]
	call	?Set@Vector4@@QAEXMMMM@Z		; Vector4::Set

; 92   : 	}

	pop	edi
	pop	esi
	pop	ebx
	mov	esp, ebp
	pop	ebp
	ret	4
?Set@Matrix3D@@QAEXQAM@Z ENDP				; Matrix3D::Set
_TEXT	ENDS
; Function compile flags: /Odtp /ZI
; File x:\github\renegade\dragonade_rxd\scripts\matrix3d.h
;	COMDAT ??4Matrix3D@@QAEAAV0@ABV0@@Z
_TEXT	SEGMENT
_this$ = -4						; size = 4
_m$ = 8							; size = 4
??4Matrix3D@@QAEAAV0@ABV0@@Z PROC			; Matrix3D::operator=, COMDAT
; _this$ = ecx

; 68   : 	{

	push	ebp
	mov	ebp, esp
	sub	esp, 68					; 00000044H
	push	ebx
	push	esi
	push	edi
	mov	DWORD PTR _this$[ebp], ecx

; 69   : 		Row[0] = m.Row[0];

	mov	eax, 16					; 00000010H
	imul	eax, 0
	add	eax, DWORD PTR _m$[ebp]
	push	eax
	mov	ecx, 16					; 00000010H
	imul	ecx, 0
	add	ecx, DWORD PTR _this$[ebp]
	call	??4Vector4@@QAEAAV0@ABV0@@Z		; Vector4::operator=

; 70   : 		Row[1] = m.Row[1];

	mov	eax, 16					; 00000010H
	shl	eax, 0
	add	eax, DWORD PTR _m$[ebp]
	push	eax
	mov	ecx, 16					; 00000010H
	shl	ecx, 0
	add	ecx, DWORD PTR _this$[ebp]
	call	??4Vector4@@QAEAAV0@ABV0@@Z		; Vector4::operator=

; 71   : 		Row[2] = m.Row[2];

	mov	eax, 16					; 00000010H
	shl	eax, 1
	add	eax, DWORD PTR _m$[ebp]
	push	eax
	mov	ecx, 16					; 00000010H
	shl	ecx, 1
	add	ecx, DWORD PTR _this$[ebp]
	call	??4Vector4@@QAEAAV0@ABV0@@Z		; Vector4::operator=

; 72   : 		return *this; 

	mov	eax, DWORD PTR _this$[ebp]

; 73   : 	}

	pop	edi
	pop	esi
	pop	ebx
	mov	esp, ebp
	pop	ebp
	ret	4
??4Matrix3D@@QAEAAV0@ABV0@@Z ENDP			; Matrix3D::operator=
_TEXT	ENDS
; Function compile flags: /Odtp /ZI
; File x:\github\renegade\dragonade_rxd\scripts\matrix3d.h
;	COMDAT ??0Matrix3D@@QAE@ABV0@@Z
_TEXT	SEGMENT
_this$ = -4						; size = 4
_m$ = 8							; size = 4
??0Matrix3D@@QAE@ABV0@@Z PROC				; Matrix3D::Matrix3D, COMDAT
; _this$ = ecx

; 61   : 	TT_INLINE Matrix3D(const Matrix3D & m)

	push	ebp
	mov	ebp, esp
	sub	esp, 68					; 00000044H
	push	ebx
	push	esi
	push	edi
	mov	DWORD PTR _this$[ebp], ecx
	push	OFFSET ??0Vector4@@QAE@XZ		; Vector4::Vector4
	push	3
	push	16					; 00000010H
	mov	eax, DWORD PTR _this$[ebp]
	push	eax
	call	??_H@YGXPAXIHP6EPAX0@Z@Z

; 62   : 	{
; 63   : 		Row[0] = m.Row[0];

	mov	eax, 16					; 00000010H
	imul	eax, 0
	add	eax, DWORD PTR _m$[ebp]
	push	eax
	mov	ecx, 16					; 00000010H
	imul	ecx, 0
	add	ecx, DWORD PTR _this$[ebp]
	call	??4Vector4@@QAEAAV0@ABV0@@Z		; Vector4::operator=

; 64   : 		Row[1] = m.Row[1];

	mov	eax, 16					; 00000010H
	shl	eax, 0
	add	eax, DWORD PTR _m$[ebp]
	push	eax
	mov	ecx, 16					; 00000010H
	shl	ecx, 0
	add	ecx, DWORD PTR _this$[ebp]
	call	??4Vector4@@QAEAAV0@ABV0@@Z		; Vector4::operator=

; 65   : 		Row[2] = m.Row[2];

	mov	eax, 16					; 00000010H
	shl	eax, 1
	add	eax, DWORD PTR _m$[ebp]
	push	eax
	mov	ecx, 16					; 00000010H
	shl	ecx, 1
	add	ecx, DWORD PTR _this$[ebp]
	call	??4Vector4@@QAEAAV0@ABV0@@Z		; Vector4::operator=

; 66   : 	}

	mov	eax, DWORD PTR _this$[ebp]
	pop	edi
	pop	esi
	pop	ebx
	mov	esp, ebp
	pop	ebp
	ret	4
??0Matrix3D@@QAE@ABV0@@Z ENDP				; Matrix3D::Matrix3D
_TEXT	ENDS
; Function compile flags: /Odtp /ZI
; File x:\github\renegade\dragonade_rxd\scripts\matrix3d.h
;	COMDAT ??0Matrix3D@@QAE@ABVVector3@@@Z
_TEXT	SEGMENT
_this$ = -4						; size = 4
_position$ = 8						; size = 4
??0Matrix3D@@QAE@ABVVector3@@@Z PROC			; Matrix3D::Matrix3D, COMDAT
; _this$ = ecx

; 57   : 	TT_INLINE explicit Matrix3D(const Vector3 & position)

	push	ebp
	mov	ebp, esp
	sub	esp, 68					; 00000044H
	push	ebx
	push	esi
	push	edi
	mov	DWORD PTR _this$[ebp], ecx
	push	OFFSET ??0Vector4@@QAE@XZ		; Vector4::Vector4
	push	3
	push	16					; 00000010H
	mov	eax, DWORD PTR _this$[ebp]
	push	eax
	call	??_H@YGXPAXIHP6EPAX0@Z@Z

; 58   : 	{
; 59   : 		Set(position);

	mov	eax, DWORD PTR _position$[ebp]
	push	eax
	mov	ecx, DWORD PTR _this$[ebp]
	call	?Set@Matrix3D@@QAEXABVVector3@@@Z	; Matrix3D::Set

; 60   : 	}

	mov	eax, DWORD PTR _this$[ebp]
	pop	edi
	pop	esi
	pop	ebx
	mov	esp, ebp
	pop	ebp
	ret	4
??0Matrix3D@@QAE@ABVVector3@@@Z ENDP			; Matrix3D::Matrix3D
_TEXT	ENDS
; Function compile flags: /Odtp /ZI
; File x:\github\renegade\dragonade_rxd\scripts\matrix3d.h
;	COMDAT ??0Matrix3D@@QAE@ABVQuaternion@@ABVVector3@@@Z
_TEXT	SEGMENT
_this$ = -4						; size = 4
_rotation$ = 8						; size = 4
_position$ = 12						; size = 4
??0Matrix3D@@QAE@ABVQuaternion@@ABVVector3@@@Z PROC	; Matrix3D::Matrix3D, COMDAT
; _this$ = ecx

; 53   : 	TT_INLINE explicit Matrix3D(const Quaternion & rotation,const Vector3 & position)

	push	ebp
	mov	ebp, esp
	sub	esp, 68					; 00000044H
	push	ebx
	push	esi
	push	edi
	mov	DWORD PTR _this$[ebp], ecx
	push	OFFSET ??0Vector4@@QAE@XZ		; Vector4::Vector4
	push	3
	push	16					; 00000010H
	mov	eax, DWORD PTR _this$[ebp]
	push	eax
	call	??_H@YGXPAXIHP6EPAX0@Z@Z

; 54   : 	{
; 55   : 		Set(rotation,position);

	mov	eax, DWORD PTR _position$[ebp]
	push	eax
	mov	ecx, DWORD PTR _rotation$[ebp]
	push	ecx
	mov	ecx, DWORD PTR _this$[ebp]
	call	?Set@Matrix3D@@QAEXABVQuaternion@@ABVVector3@@@Z ; Matrix3D::Set

; 56   : 	}

	mov	eax, DWORD PTR _this$[ebp]
	pop	edi
	pop	esi
	pop	ebx
	mov	esp, ebp
	pop	ebp
	ret	8
??0Matrix3D@@QAE@ABVQuaternion@@ABVVector3@@@Z ENDP	; Matrix3D::Matrix3D
_TEXT	ENDS
; Function compile flags: /Odtp /ZI
; File x:\github\renegade\dragonade_rxd\scripts\matrix3d.h
;	COMDAT ??0Matrix3D@@QAE@ABVMatrix3@@ABVVector3@@@Z
_TEXT	SEGMENT
_this$ = -4						; size = 4
_rotation$ = 8						; size = 4
_position$ = 12						; size = 4
??0Matrix3D@@QAE@ABVMatrix3@@ABVVector3@@@Z PROC	; Matrix3D::Matrix3D, COMDAT
; _this$ = ecx

; 49   : 	TT_INLINE explicit Matrix3D(const Matrix3 & rotation,const Vector3 & position)

	push	ebp
	mov	ebp, esp
	sub	esp, 68					; 00000044H
	push	ebx
	push	esi
	push	edi
	mov	DWORD PTR _this$[ebp], ecx
	push	OFFSET ??0Vector4@@QAE@XZ		; Vector4::Vector4
	push	3
	push	16					; 00000010H
	mov	eax, DWORD PTR _this$[ebp]
	push	eax
	call	??_H@YGXPAXIHP6EPAX0@Z@Z

; 50   : 	{
; 51   : 		Set(rotation,position);

	mov	eax, DWORD PTR _position$[ebp]
	push	eax
	mov	ecx, DWORD PTR _rotation$[ebp]
	push	ecx
	mov	ecx, DWORD PTR _this$[ebp]
	call	?Set@Matrix3D@@QAEXABVMatrix3@@ABVVector3@@@Z ; Matrix3D::Set

; 52   : 	}

	mov	eax, DWORD PTR _this$[ebp]
	pop	edi
	pop	esi
	pop	ebx
	mov	esp, ebp
	pop	ebp
	ret	8
??0Matrix3D@@QAE@ABVMatrix3@@ABVVector3@@@Z ENDP	; Matrix3D::Matrix3D
_TEXT	ENDS
; Function compile flags: /Odtp /ZI
; File x:\github\renegade\dragonade_rxd\scripts\matrix3d.h
;	COMDAT ??0Matrix3D@@QAE@ABVVector3@@MM@Z
_TEXT	SEGMENT
_this$ = -4						; size = 4
_axis$ = 8						; size = 4
_sine$ = 12						; size = 4
_cosine$ = 16						; size = 4
??0Matrix3D@@QAE@ABVVector3@@MM@Z PROC			; Matrix3D::Matrix3D, COMDAT
; _this$ = ecx

; 45   : 	TT_INLINE explicit Matrix3D(const Vector3	&axis,float sine,float cosine)

	push	ebp
	mov	ebp, esp
	sub	esp, 68					; 00000044H
	push	ebx
	push	esi
	push	edi
	mov	DWORD PTR _this$[ebp], ecx
	push	OFFSET ??0Vector4@@QAE@XZ		; Vector4::Vector4
	push	3
	push	16					; 00000010H
	mov	eax, DWORD PTR _this$[ebp]
	push	eax
	call	??_H@YGXPAXIHP6EPAX0@Z@Z

; 46   : 	{
; 47   : 		Set(axis,sine,cosine);

	push	ecx
	movss	xmm0, DWORD PTR _cosine$[ebp]
	movss	DWORD PTR [esp], xmm0
	push	ecx
	movss	xmm0, DWORD PTR _sine$[ebp]
	movss	DWORD PTR [esp], xmm0
	mov	eax, DWORD PTR _axis$[ebp]
	push	eax
	mov	ecx, DWORD PTR _this$[ebp]
	call	?Set@Matrix3D@@QAEXABVVector3@@MM@Z	; Matrix3D::Set

; 48   : 	}

	mov	eax, DWORD PTR _this$[ebp]
	pop	edi
	pop	esi
	pop	ebx
	mov	esp, ebp
	pop	ebp
	ret	12					; 0000000cH
??0Matrix3D@@QAE@ABVVector3@@MM@Z ENDP			; Matrix3D::Matrix3D
_TEXT	ENDS
; Function compile flags: /Odtp /ZI
; File x:\github\renegade\dragonade_rxd\scripts\matrix3d.h
;	COMDAT ??0Matrix3D@@QAE@ABVVector3@@M@Z
_TEXT	SEGMENT
_this$ = -4						; size = 4
_axis$ = 8						; size = 4
_angle$ = 12						; size = 4
??0Matrix3D@@QAE@ABVVector3@@M@Z PROC			; Matrix3D::Matrix3D, COMDAT
; _this$ = ecx

; 41   : 	TT_INLINE explicit Matrix3D(const Vector3	&axis,float angle)

	push	ebp
	mov	ebp, esp
	sub	esp, 68					; 00000044H
	push	ebx
	push	esi
	push	edi
	mov	DWORD PTR _this$[ebp], ecx
	push	OFFSET ??0Vector4@@QAE@XZ		; Vector4::Vector4
	push	3
	push	16					; 00000010H
	mov	eax, DWORD PTR _this$[ebp]
	push	eax
	call	??_H@YGXPAXIHP6EPAX0@Z@Z

; 42   : 	{
; 43   : 		Set(axis,angle);

	push	ecx
	movss	xmm0, DWORD PTR _angle$[ebp]
	movss	DWORD PTR [esp], xmm0
	mov	eax, DWORD PTR _axis$[ebp]
	push	eax
	mov	ecx, DWORD PTR _this$[ebp]
	call	?Set@Matrix3D@@QAEXABVVector3@@M@Z	; Matrix3D::Set

; 44   : 	}

	mov	eax, DWORD PTR _this$[ebp]
	pop	edi
	pop	esi
	pop	ebx
	mov	esp, ebp
	pop	ebp
	ret	8
??0Matrix3D@@QAE@ABVVector3@@M@Z ENDP			; Matrix3D::Matrix3D
_TEXT	ENDS
; Function compile flags: /Odtp /ZI
; File x:\github\renegade\dragonade_rxd\scripts\matrix3d.h
;	COMDAT ??0Matrix3D@@QAE@ABVVector3@@000@Z
_TEXT	SEGMENT
_this$ = -4						; size = 4
_x$ = 8							; size = 4
_y$ = 12						; size = 4
_z$ = 16						; size = 4
_pos$ = 20						; size = 4
??0Matrix3D@@QAE@ABVVector3@@000@Z PROC			; Matrix3D::Matrix3D, COMDAT
; _this$ = ecx

; 37   : 	TT_INLINE explicit Matrix3D(const Vector3	&x,const Vector3	&y,const Vector3	&z,const Vector3	&pos)

	push	ebp
	mov	ebp, esp
	sub	esp, 68					; 00000044H
	push	ebx
	push	esi
	push	edi
	mov	DWORD PTR _this$[ebp], ecx
	push	OFFSET ??0Vector4@@QAE@XZ		; Vector4::Vector4
	push	3
	push	16					; 00000010H
	mov	eax, DWORD PTR _this$[ebp]
	push	eax
	call	??_H@YGXPAXIHP6EPAX0@Z@Z

; 38   : 	{
; 39   : 		Set(x,y,z,pos);

	mov	eax, DWORD PTR _pos$[ebp]
	push	eax
	mov	ecx, DWORD PTR _z$[ebp]
	push	ecx
	mov	edx, DWORD PTR _y$[ebp]
	push	edx
	mov	eax, DWORD PTR _x$[ebp]
	push	eax
	mov	ecx, DWORD PTR _this$[ebp]
	call	?Set@Matrix3D@@QAEXABVVector3@@000@Z	; Matrix3D::Set

; 40   : 	}

	mov	eax, DWORD PTR _this$[ebp]
	pop	edi
	pop	esi
	pop	ebx
	mov	esp, ebp
	pop	ebp
	ret	16					; 00000010H
??0Matrix3D@@QAE@ABVVector3@@000@Z ENDP			; Matrix3D::Matrix3D
_TEXT	ENDS
; Function compile flags: /Odtp /ZI
; File x:\github\renegade\dragonade_rxd\scripts\matrix3d.h
;	COMDAT ??0Matrix3D@@QAE@QAM@Z
_TEXT	SEGMENT
_this$ = -4						; size = 4
_m$ = 8							; size = 4
??0Matrix3D@@QAE@QAM@Z PROC				; Matrix3D::Matrix3D, COMDAT
; _this$ = ecx

; 31   : 	TT_INLINE explicit Matrix3D(float m[12])

	push	ebp
	mov	ebp, esp
	sub	esp, 68					; 00000044H
	push	ebx
	push	esi
	push	edi
	mov	DWORD PTR _this$[ebp], ecx
	push	OFFSET ??0Vector4@@QAE@XZ		; Vector4::Vector4
	push	3
	push	16					; 00000010H
	mov	eax, DWORD PTR _this$[ebp]
	push	eax
	call	??_H@YGXPAXIHP6EPAX0@Z@Z

; 32   : 	{
; 33   : 		Row[0].Set(m[0],m[1],m[2],m[3]);

	mov	eax, 4
	imul	eax, 3
	mov	ecx, DWORD PTR _m$[ebp]
	push	ecx
	movss	xmm0, DWORD PTR [ecx+eax]
	movss	DWORD PTR [esp], xmm0
	mov	edx, 4
	shl	edx, 1
	mov	eax, DWORD PTR _m$[ebp]
	push	ecx
	movss	xmm0, DWORD PTR [eax+edx]
	movss	DWORD PTR [esp], xmm0
	mov	ecx, 4
	shl	ecx, 0
	mov	edx, DWORD PTR _m$[ebp]
	push	ecx
	movss	xmm0, DWORD PTR [edx+ecx]
	movss	DWORD PTR [esp], xmm0
	mov	eax, 4
	imul	eax, 0
	mov	ecx, DWORD PTR _m$[ebp]
	push	ecx
	movss	xmm0, DWORD PTR [ecx+eax]
	movss	DWORD PTR [esp], xmm0
	mov	ecx, 16					; 00000010H
	imul	ecx, 0
	add	ecx, DWORD PTR _this$[ebp]
	call	?Set@Vector4@@QAEXMMMM@Z		; Vector4::Set

; 34   : 		Row[1].Set(m[4],m[5],m[6],m[7]);

	mov	eax, 4
	imul	eax, 7
	mov	ecx, DWORD PTR _m$[ebp]
	push	ecx
	movss	xmm0, DWORD PTR [ecx+eax]
	movss	DWORD PTR [esp], xmm0
	mov	edx, 4
	imul	edx, 6
	mov	eax, DWORD PTR _m$[ebp]
	push	ecx
	movss	xmm0, DWORD PTR [eax+edx]
	movss	DWORD PTR [esp], xmm0
	mov	ecx, 4
	imul	ecx, 5
	mov	edx, DWORD PTR _m$[ebp]
	push	ecx
	movss	xmm0, DWORD PTR [edx+ecx]
	movss	DWORD PTR [esp], xmm0
	mov	eax, 4
	shl	eax, 2
	mov	ecx, DWORD PTR _m$[ebp]
	push	ecx
	movss	xmm0, DWORD PTR [ecx+eax]
	movss	DWORD PTR [esp], xmm0
	mov	ecx, 16					; 00000010H
	shl	ecx, 0
	add	ecx, DWORD PTR _this$[ebp]
	call	?Set@Vector4@@QAEXMMMM@Z		; Vector4::Set

; 35   : 		Row[2].Set(m[8],m[9],m[10],m[11]);

	mov	eax, 4
	imul	eax, 11					; 0000000bH
	mov	ecx, DWORD PTR _m$[ebp]
	push	ecx
	movss	xmm0, DWORD PTR [ecx+eax]
	movss	DWORD PTR [esp], xmm0
	mov	edx, 4
	imul	edx, 10					; 0000000aH
	mov	eax, DWORD PTR _m$[ebp]
	push	ecx
	movss	xmm0, DWORD PTR [eax+edx]
	movss	DWORD PTR [esp], xmm0
	mov	ecx, 4
	imul	ecx, 9
	mov	edx, DWORD PTR _m$[ebp]
	push	ecx
	movss	xmm0, DWORD PTR [edx+ecx]
	movss	DWORD PTR [esp], xmm0
	mov	eax, 4
	shl	eax, 3
	mov	ecx, DWORD PTR _m$[ebp]
	push	ecx
	movss	xmm0, DWORD PTR [ecx+eax]
	movss	DWORD PTR [esp], xmm0
	mov	ecx, 16					; 00000010H
	shl	ecx, 1
	add	ecx, DWORD PTR _this$[ebp]
	call	?Set@Vector4@@QAEXMMMM@Z		; Vector4::Set

; 36   : 	}

	mov	eax, DWORD PTR _this$[ebp]
	pop	edi
	pop	esi
	pop	ebx
	mov	esp, ebp
	pop	ebp
	ret	4
??0Matrix3D@@QAE@QAM@Z ENDP				; Matrix3D::Matrix3D
_TEXT	ENDS
; Function compile flags: /Odtp /ZI
; File x:\github\renegade\dragonade_rxd\scripts\matrix3d.h
;	COMDAT ??0Matrix3D@@QAE@_N@Z
_TEXT	SEGMENT
_this$ = -4						; size = 4
_init$ = 8						; size = 1
??0Matrix3D@@QAE@_N@Z PROC				; Matrix3D::Matrix3D, COMDAT
; _this$ = ecx

; 30   : 	TT_INLINE explicit Matrix3D(bool init) { if (init) Make_Identity(); }

	push	ebp
	mov	ebp, esp
	sub	esp, 68					; 00000044H
	push	ebx
	push	esi
	push	edi
	mov	DWORD PTR _this$[ebp], ecx
	push	OFFSET ??0Vector4@@QAE@XZ		; Vector4::Vector4
	push	3
	push	16					; 00000010H
	mov	eax, DWORD PTR _this$[ebp]
	push	eax
	call	??_H@YGXPAXIHP6EPAX0@Z@Z
	movzx	eax, BYTE PTR _init$[ebp]
	test	eax, eax
	je	SHORT $LN2@Matrix3D
	mov	ecx, DWORD PTR _this$[ebp]
	call	?Make_Identity@Matrix3D@@QAEXXZ		; Matrix3D::Make_Identity
$LN2@Matrix3D:
	mov	eax, DWORD PTR _this$[ebp]
	pop	edi
	pop	esi
	pop	ebx
	mov	esp, ebp
	pop	ebp
	ret	4
??0Matrix3D@@QAE@_N@Z ENDP				; Matrix3D::Matrix3D
_TEXT	ENDS
; Function compile flags: /Odtp /ZI
; File x:\github\renegade\dragonade_rxd\scripts\matrix3d.h
;	COMDAT ??AMatrix3D@@QBEABVVector4@@H@Z
_TEXT	SEGMENT
_this$ = -4						; size = 4
_i$ = 8							; size = 4
??AMatrix3D@@QBEABVVector4@@H@Z PROC			; Matrix3D::operator[], COMDAT
; _this$ = ecx

; 28   :    TT_INLINE const Vector4 & operator [] (int i) const { return Row[i]; }

	push	ebp
	mov	ebp, esp
	sub	esp, 68					; 00000044H
	push	ebx
	push	esi
	push	edi
	mov	DWORD PTR _this$[ebp], ecx
	mov	eax, DWORD PTR _i$[ebp]
	shl	eax, 4
	add	eax, DWORD PTR _this$[ebp]
	pop	edi
	pop	esi
	pop	ebx
	mov	esp, ebp
	pop	ebp
	ret	4
??AMatrix3D@@QBEABVVector4@@H@Z ENDP			; Matrix3D::operator[]
_TEXT	ENDS
; Function compile flags: /Odtp /ZI
; File x:\github\renegade\dragonade_rxd\scripts\matrix3d.h
;	COMDAT ??AMatrix3D@@QAEAAVVector4@@H@Z
_TEXT	SEGMENT
_this$ = -4						; size = 4
_i$ = 8							; size = 4
??AMatrix3D@@QAEAAVVector4@@H@Z PROC			; Matrix3D::operator[], COMDAT
; _this$ = ecx

; 27   :    TT_INLINE Vector4 & operator [] (int i) { return Row[i]; }

	push	ebp
	mov	ebp, esp
	sub	esp, 68					; 00000044H
	push	ebx
	push	esi
	push	edi
	mov	DWORD PTR _this$[ebp], ecx
	mov	eax, DWORD PTR _i$[ebp]
	shl	eax, 4
	add	eax, DWORD PTR _this$[ebp]
	pop	edi
	pop	esi
	pop	ebx
	mov	esp, ebp
	pop	ebp
	ret	4
??AMatrix3D@@QAEAAVVector4@@H@Z ENDP			; Matrix3D::operator[]
_TEXT	ENDS
; Function compile flags: /Odtp /ZI
; File x:\github\renegade\dragonade_rxd\scripts\vector4.h
;	COMDAT ??AVector4@@QBEABMH@Z
_TEXT	SEGMENT
_this$ = -4						; size = 4
_i$ = 8							; size = 4
??AVector4@@QBEABMH@Z PROC				; Vector4::operator[], COMDAT
; _this$ = ecx

; 39   : 	TT_INLINE const float& operator[](int i) const { return (&X)[i]; };

	push	ebp
	mov	ebp, esp
	sub	esp, 68					; 00000044H
	push	ebx
	push	esi
	push	edi
	mov	DWORD PTR _this$[ebp], ecx
	mov	eax, DWORD PTR _i$[ebp]
	mov	ecx, DWORD PTR _this$[ebp]
	lea	eax, DWORD PTR [ecx+eax*4]
	pop	edi
	pop	esi
	pop	ebx
	mov	esp, ebp
	pop	ebp
	ret	4
??AVector4@@QBEABMH@Z ENDP				; Vector4::operator[]
_TEXT	ENDS
; Function compile flags: /Odtp /ZI
; File x:\github\renegade\dragonade_rxd\scripts\vector4.h
;	COMDAT ??AVector4@@QAEAAMH@Z
_TEXT	SEGMENT
_this$ = -4						; size = 4
_i$ = 8							; size = 4
??AVector4@@QAEAAMH@Z PROC				; Vector4::operator[], COMDAT
; _this$ = ecx

; 38   : 	TT_INLINE float& operator[](int i) { return (&X)[i]; };

	push	ebp
	mov	ebp, esp
	sub	esp, 68					; 00000044H
	push	ebx
	push	esi
	push	edi
	mov	DWORD PTR _this$[ebp], ecx
	mov	eax, DWORD PTR _i$[ebp]
	mov	ecx, DWORD PTR _this$[ebp]
	lea	eax, DWORD PTR [ecx+eax*4]
	pop	edi
	pop	esi
	pop	ebx
	mov	esp, ebp
	pop	ebp
	ret	4
??AVector4@@QAEAAMH@Z ENDP				; Vector4::operator[]
_TEXT	ENDS
; Function compile flags: /Odtp /ZI
; File x:\github\renegade\dragonade_rxd\scripts\vector4.h
;	COMDAT ?Set@Vector4@@QAEXMMMM@Z
_TEXT	SEGMENT
_this$ = -4						; size = 4
_x$ = 8							; size = 4
_y$ = 12						; size = 4
_z$ = 16						; size = 4
_w$ = 20						; size = 4
?Set@Vector4@@QAEXMMMM@Z PROC				; Vector4::Set, COMDAT
; _this$ = ecx

; 35   : 	TT_INLINE void Set(float x, float y, float z, float w) { X = x; Y = y; Z = z; W = w; };

	push	ebp
	mov	ebp, esp
	sub	esp, 68					; 00000044H
	push	ebx
	push	esi
	push	edi
	mov	DWORD PTR _this$[ebp], ecx
	mov	eax, DWORD PTR _this$[ebp]
	movss	xmm0, DWORD PTR _x$[ebp]
	movss	DWORD PTR [eax], xmm0
	mov	eax, DWORD PTR _this$[ebp]
	movss	xmm0, DWORD PTR _y$[ebp]
	movss	DWORD PTR [eax+4], xmm0
	mov	eax, DWORD PTR _this$[ebp]
	movss	xmm0, DWORD PTR _z$[ebp]
	movss	DWORD PTR [eax+8], xmm0
	mov	eax, DWORD PTR _this$[ebp]
	movss	xmm0, DWORD PTR _w$[ebp]
	movss	DWORD PTR [eax+12], xmm0
	pop	edi
	pop	esi
	pop	ebx
	mov	esp, ebp
	pop	ebp
	ret	16					; 00000010H
?Set@Vector4@@QAEXMMMM@Z ENDP				; Vector4::Set
_TEXT	ENDS
; Function compile flags: /Odtp /ZI
; File x:\github\renegade\dragonade_rxd\scripts\vector4.h
;	COMDAT ??4Vector4@@QAEAAV0@ABV0@@Z
_TEXT	SEGMENT
_this$ = -4						; size = 4
_v$ = 8							; size = 4
??4Vector4@@QAEAAV0@ABV0@@Z PROC			; Vector4::operator=, COMDAT
; _this$ = ecx

; 34   : 	TT_INLINE Vector4& operator=(const Vector4& v) { X = v.X; Y = v.Y; Z = v.Z; W = v.W; return *this; };	

	push	ebp
	mov	ebp, esp
	sub	esp, 68					; 00000044H
	push	ebx
	push	esi
	push	edi
	mov	DWORD PTR _this$[ebp], ecx
	mov	eax, DWORD PTR _this$[ebp]
	mov	ecx, DWORD PTR _v$[ebp]
	mov	edx, DWORD PTR [ecx]
	mov	DWORD PTR [eax], edx
	mov	eax, DWORD PTR _this$[ebp]
	mov	ecx, DWORD PTR _v$[ebp]
	mov	edx, DWORD PTR [ecx+4]
	mov	DWORD PTR [eax+4], edx
	mov	eax, DWORD PTR _this$[ebp]
	mov	ecx, DWORD PTR _v$[ebp]
	mov	edx, DWORD PTR [ecx+8]
	mov	DWORD PTR [eax+8], edx
	mov	eax, DWORD PTR _this$[ebp]
	mov	ecx, DWORD PTR _v$[ebp]
	mov	edx, DWORD PTR [ecx+12]
	mov	DWORD PTR [eax+12], edx
	mov	eax, DWORD PTR _this$[ebp]
	pop	edi
	pop	esi
	pop	ebx
	mov	esp, ebp
	pop	ebp
	ret	4
??4Vector4@@QAEAAV0@ABV0@@Z ENDP			; Vector4::operator=
_TEXT	ENDS
; Function compile flags: /Odtp /ZI
; File x:\github\renegade\dragonade_rxd\scripts\vector4.h
;	COMDAT ??0Vector4@@QAE@XZ
_TEXT	SEGMENT
_this$ = -4						; size = 4
??0Vector4@@QAE@XZ PROC					; Vector4::Vector4, COMDAT
; _this$ = ecx

; 24   : 	TT_INLINE Vector4() {};

	push	ebp
	mov	ebp, esp
	sub	esp, 68					; 00000044H
	push	ebx
	push	esi
	push	edi
	mov	DWORD PTR _this$[ebp], ecx
	mov	eax, DWORD PTR _this$[ebp]
	pop	edi
	pop	esi
	pop	ebx
	mov	esp, ebp
	pop	ebp
	ret	0
??0Vector4@@QAE@XZ ENDP					; Vector4::Vector4
_TEXT	ENDS
; Function compile flags: /Odtp /ZI
;	COMDAT ??4SysTimeClass@@QAEAAV0@ABV0@@Z
_TEXT	SEGMENT
_this$ = -4						; size = 4
___that$ = 8						; size = 4
??4SysTimeClass@@QAEAAV0@ABV0@@Z PROC			; SysTimeClass::operator=, COMDAT
; _this$ = ecx
	push	ebp
	mov	ebp, esp
	sub	esp, 68					; 00000044H
	push	ebx
	push	esi
	push	edi
	mov	DWORD PTR _this$[ebp], ecx
	mov	eax, DWORD PTR ___that$[ebp]
	mov	ecx, DWORD PTR [eax]
	mov	edx, DWORD PTR [eax+4]
	mov	eax, DWORD PTR _this$[ebp]
	mov	DWORD PTR [eax], ecx
	mov	DWORD PTR [eax+4], edx
	mov	eax, DWORD PTR _this$[ebp]
	pop	edi
	pop	esi
	pop	ebx
	mov	esp, ebp
	pop	ebp
	ret	4
??4SysTimeClass@@QAEAAV0@ABV0@@Z ENDP			; SysTimeClass::operator=
_TEXT	ENDS
; Function compile flags: /Odtp /ZI
; File x:\github\renegade\dragonade_rxd\scripts\referenceableclass.h
;	COMDAT ?Get_Data@?$ReferenceableClass@VScriptableGameObj@@@@IBEPAVScriptableGameObj@@XZ
_TEXT	SEGMENT
_this$ = -4						; size = 4
?Get_Data@?$ReferenceableClass@VScriptableGameObj@@@@IBEPAVScriptableGameObj@@XZ PROC ; ReferenceableClass<ScriptableGameObj>::Get_Data, COMDAT
; _this$ = ecx

; 30   : 	T * Get_Data( void ) const	{ return ReferenceData; }

	push	ebp
	mov	ebp, esp
	sub	esp, 68					; 00000044H
	push	ebx
	push	esi
	push	edi
	mov	DWORD PTR _this$[ebp], ecx
	mov	eax, DWORD PTR _this$[ebp]
	mov	eax, DWORD PTR [eax+4]
	pop	edi
	pop	esi
	pop	ebx
	mov	esp, ebp
	pop	ebp
	ret	0
?Get_Data@?$ReferenceableClass@VScriptableGameObj@@@@IBEPAVScriptableGameObj@@XZ ENDP ; ReferenceableClass<ScriptableGameObj>::Get_Data
_TEXT	ENDS
; Function compile flags: /Odtp /ZI
;	COMDAT ??_EReferencerClass@@UAEPAXI@Z
_TEXT	SEGMENT
_this$ = -4						; size = 4
___flags$ = 8						; size = 4
??_EReferencerClass@@UAEPAXI@Z PROC			; ReferencerClass::`vector deleting destructor', COMDAT
; _this$ = ecx
	push	ebp
	mov	ebp, esp
	sub	esp, 68					; 00000044H
	push	ebx
	push	esi
	push	edi
	mov	DWORD PTR _this$[ebp], ecx
	mov	eax, DWORD PTR ___flags$[ebp]
	and	eax, 2
	je	SHORT $LN3@vector
	push	OFFSET ??1ReferencerClass@@UAE@XZ	; ReferencerClass::~ReferencerClass
	mov	eax, DWORD PTR _this$[ebp]
	mov	ecx, DWORD PTR [eax-4]
	push	ecx
	push	16					; 00000010H
	mov	edx, DWORD PTR _this$[ebp]
	push	edx
	call	??_I@YGXPAXIHP6EX0@Z@Z
	mov	eax, DWORD PTR ___flags$[ebp]
	and	eax, 1
	je	SHORT $LN2@vector
	mov	eax, DWORD PTR _this$[ebp]
	sub	eax, 4
	push	eax
	call	??_V@YAXPAX@Z				; operator delete[]
	add	esp, 4
$LN2@vector:
	mov	eax, DWORD PTR _this$[ebp]
	sub	eax, 4
	jmp	SHORT $LN4@vector
$LN3@vector:
	mov	ecx, DWORD PTR _this$[ebp]
	call	??1ReferencerClass@@UAE@XZ		; ReferencerClass::~ReferencerClass
	mov	eax, DWORD PTR ___flags$[ebp]
	and	eax, 1
	je	SHORT $LN1@vector
	mov	eax, DWORD PTR _this$[ebp]
	push	eax
	call	??3@YAXPAX@Z				; operator delete
	add	esp, 4
$LN1@vector:
	mov	eax, DWORD PTR _this$[ebp]
$LN4@vector:
	pop	edi
	pop	esi
	pop	ebx
	mov	esp, ebp
	pop	ebp
	ret	4
??_EReferencerClass@@UAEPAXI@Z ENDP			; ReferencerClass::`vector deleting destructor'
_TEXT	ENDS
; Function compile flags: /Odtp /ZI
;	COMDAT ??_GReferencerClass@@UAEPAXI@Z
_TEXT	SEGMENT
_this$ = -4						; size = 4
___flags$ = 8						; size = 4
??_GReferencerClass@@UAEPAXI@Z PROC			; ReferencerClass::`scalar deleting destructor', COMDAT
; _this$ = ecx
	push	ebp
	mov	ebp, esp
	sub	esp, 68					; 00000044H
	push	ebx
	push	esi
	push	edi
	mov	DWORD PTR _this$[ebp], ecx
	mov	ecx, DWORD PTR _this$[ebp]
	call	??1ReferencerClass@@UAE@XZ		; ReferencerClass::~ReferencerClass
	mov	eax, DWORD PTR ___flags$[ebp]
	and	eax, 1
	je	SHORT $LN1@scalar
	mov	eax, DWORD PTR _this$[ebp]
	push	eax
	call	??3@YAXPAX@Z				; operator delete
	add	esp, 4
$LN1@scalar:
	mov	eax, DWORD PTR _this$[ebp]
	pop	edi
	pop	esi
	pop	ebx
	mov	esp, ebp
	pop	ebp
	ret	4
??_GReferencerClass@@UAEPAXI@Z ENDP			; ReferencerClass::`scalar deleting destructor'
_TEXT	ENDS
; Function compile flags: /Odtp /ZI
;	COMDAT ??0ReferencerClass@@QAE@ABV0@@Z
_TEXT	SEGMENT
_this$ = -4						; size = 4
___that$ = 8						; size = 4
??0ReferencerClass@@QAE@ABV0@@Z PROC			; ReferencerClass::ReferencerClass, COMDAT
; _this$ = ecx
	push	ebp
	mov	ebp, esp
	sub	esp, 68					; 00000044H
	push	ebx
	push	esi
	push	edi
	mov	DWORD PTR _this$[ebp], ecx
	mov	eax, DWORD PTR ___that$[ebp]
	push	eax
	mov	ecx, DWORD PTR _this$[ebp]
	call	??0PostLoadableClass@@QAE@ABV0@@Z
	mov	eax, DWORD PTR _this$[ebp]
	mov	DWORD PTR [eax], OFFSET ??_7ReferencerClass@@6B@
	mov	eax, DWORD PTR _this$[ebp]
	mov	ecx, DWORD PTR ___that$[ebp]
	mov	edx, DWORD PTR [ecx+8]
	mov	DWORD PTR [eax+8], edx
	mov	eax, DWORD PTR _this$[ebp]
	mov	ecx, DWORD PTR ___that$[ebp]
	mov	edx, DWORD PTR [ecx+12]
	mov	DWORD PTR [eax+12], edx
	mov	eax, DWORD PTR _this$[ebp]
	pop	edi
	pop	esi
	pop	ebx
	mov	esp, ebp
	pop	ebp
	ret	4
??0ReferencerClass@@QAE@ABV0@@Z ENDP			; ReferencerClass::ReferencerClass
_TEXT	ENDS
; Function compile flags: /Odtp /ZI
; File x:\github\renegade\dragonade_rxd\scripts\referencerclass.h
;	COMDAT ?Set_Ptr@ReferencerClass@@QAEXPAVScriptableGameObj@@@Z
_TEXT	SEGMENT
_this$ = -4						; size = 4
_object$ = 8						; size = 4
?Set_Ptr@ReferencerClass@@QAEXPAVScriptableGameObj@@@Z PROC ; ReferencerClass::Set_Ptr, COMDAT
; _this$ = ecx

; 61   : 	{

	push	ebp
	mov	ebp, esp
	sub	esp, 68					; 00000044H
	push	ebx
	push	esi
	push	edi
	mov	DWORD PTR _this$[ebp], ecx

; 62   : 		*this = object;

	mov	eax, DWORD PTR _object$[ebp]
	push	eax
	mov	ecx, DWORD PTR _this$[ebp]
	call	??4ReferencerClass@@QAEAAV0@PAVScriptableGameObj@@@Z ; ReferencerClass::operator=

; 63   : 	}

	pop	edi
	pop	esi
	pop	ebx
	mov	esp, ebp
	pop	ebp
	ret	4
?Set_Ptr@ReferencerClass@@QAEXPAVScriptableGameObj@@@Z ENDP ; ReferencerClass::Set_Ptr
_TEXT	ENDS
; Function compile flags: /Odtp /ZI
; File x:\github\renegade\dragonade_rxd\scripts\referencerclass.h
;	COMDAT ?Get_Ptr@ReferencerClass@@QBEPAVScriptableGameObj@@XZ
_TEXT	SEGMENT
tv69 = -72						; size = 4
_this$ = -4						; size = 4
?Get_Ptr@ReferencerClass@@QBEPAVScriptableGameObj@@XZ PROC ; ReferencerClass::Get_Ptr, COMDAT
; _this$ = ecx

; 54   : 	{

	push	ebp
	mov	ebp, esp
	sub	esp, 72					; 00000048H
	push	ebx
	push	esi
	push	edi
	mov	DWORD PTR _this$[ebp], ecx

; 55   : 		return ReferenceTarget ? ReferenceTarget->Get_Data() : NULL;

	mov	eax, DWORD PTR _this$[ebp]
	cmp	DWORD PTR [eax+8], 0
	je	SHORT $LN3@Get_Ptr
	mov	ecx, DWORD PTR _this$[ebp]
	mov	ecx, DWORD PTR [ecx+8]
	call	?Get_Data@?$ReferenceableClass@VScriptableGameObj@@@@IBEPAVScriptableGameObj@@XZ ; ReferenceableClass<ScriptableGameObj>::Get_Data
	mov	DWORD PTR tv69[ebp], eax
	jmp	SHORT $LN4@Get_Ptr
$LN3@Get_Ptr:
	mov	DWORD PTR tv69[ebp], 0
$LN4@Get_Ptr:
	mov	eax, DWORD PTR tv69[ebp]

; 56   : 	}

	pop	edi
	pop	esi
	pop	ebx
	mov	esp, ebp
	pop	ebp
	ret	0
?Get_Ptr@ReferencerClass@@QBEPAVScriptableGameObj@@XZ ENDP ; ReferencerClass::Get_Ptr
_TEXT	ENDS
; Function compile flags: /Odtp /ZI
; File x:\github\renegade\dragonade_rxd\scripts\referencerclass.h
;	COMDAT ??0ReferencerClass@@QAE@PAVScriptableGameObj@@@Z
_TEXT	SEGMENT
_this$ = -4						; size = 4
_object$ = 8						; size = 4
??0ReferencerClass@@QAE@PAVScriptableGameObj@@@Z PROC	; ReferencerClass::ReferencerClass, COMDAT
; _this$ = ecx

; 48   : 	{

	push	ebp
	mov	ebp, esp
	sub	esp, 68					; 00000044H
	push	ebx
	push	esi
	push	edi
	mov	DWORD PTR _this$[ebp], ecx
	mov	ecx, DWORD PTR _this$[ebp]
	call	??0PostLoadableClass@@QAE@XZ		; PostLoadableClass::PostLoadableClass
	mov	eax, DWORD PTR _this$[ebp]
	mov	DWORD PTR [eax], OFFSET ??_7ReferencerClass@@6B@
	mov	eax, DWORD PTR _this$[ebp]
	mov	DWORD PTR [eax+8], 0
	mov	eax, DWORD PTR _this$[ebp]
	mov	DWORD PTR [eax+12], 0

; 49   : 		*this = object;

	mov	eax, DWORD PTR _object$[ebp]
	push	eax
	mov	ecx, DWORD PTR _this$[ebp]
	call	??4ReferencerClass@@QAEAAV0@PAVScriptableGameObj@@@Z ; ReferencerClass::operator=

; 50   : 	}

	mov	eax, DWORD PTR _this$[ebp]
	pop	edi
	pop	esi
	pop	ebx
	mov	esp, ebp
	pop	ebp
	ret	4
??0ReferencerClass@@QAE@PAVScriptableGameObj@@@Z ENDP	; ReferencerClass::ReferencerClass
_TEXT	ENDS
; Function compile flags: /Odtp /ZI
; File x:\github\renegade\dragonade_rxd\scripts\referencerclass.h
;	COMDAT ??0ReferencerClass@@QAE@XZ
_TEXT	SEGMENT
_this$ = -4						; size = 4
??0ReferencerClass@@QAE@XZ PROC				; ReferencerClass::ReferencerClass, COMDAT
; _this$ = ecx

; 41   : 	{

	push	ebp
	mov	ebp, esp
	sub	esp, 68					; 00000044H
	push	ebx
	push	esi
	push	edi
	mov	DWORD PTR _this$[ebp], ecx
	mov	ecx, DWORD PTR _this$[ebp]
	call	??0PostLoadableClass@@QAE@XZ		; PostLoadableClass::PostLoadableClass
	mov	eax, DWORD PTR _this$[ebp]
	mov	DWORD PTR [eax], OFFSET ??_7ReferencerClass@@6B@
	mov	eax, DWORD PTR _this$[ebp]
	mov	DWORD PTR [eax+8], 0
	mov	eax, DWORD PTR _this$[ebp]
	mov	DWORD PTR [eax+12], 0

; 42   : 	}

	mov	eax, DWORD PTR _this$[ebp]
	pop	edi
	pop	esi
	pop	ebx
	mov	esp, ebp
	pop	ebp
	ret	0
??0ReferencerClass@@QAE@XZ ENDP				; ReferencerClass::ReferencerClass
_TEXT	ENDS
; Function compile flags: /Odtp /ZI
; File x:\github\renegade\dragonade_rxd\scripts\referencerclass.h
;	COMDAT ??CReferencerClass@@QAEPAVScriptableGameObj@@XZ
_TEXT	SEGMENT
_this$ = -4						; size = 4
??CReferencerClass@@QAEPAVScriptableGameObj@@XZ PROC	; ReferencerClass::operator->, COMDAT
; _this$ = ecx

; 37   : 	inline ScriptableGameObj* operator ->() { return Get_Ptr(); }

	push	ebp
	mov	ebp, esp
	sub	esp, 68					; 00000044H
	push	ebx
	push	esi
	push	edi
	mov	DWORD PTR _this$[ebp], ecx
	mov	ecx, DWORD PTR _this$[ebp]
	call	?Get_Ptr@ReferencerClass@@QBEPAVScriptableGameObj@@XZ ; ReferencerClass::Get_Ptr
	pop	edi
	pop	esi
	pop	ebx
	mov	esp, ebp
	pop	ebp
	ret	0
??CReferencerClass@@QAEPAVScriptableGameObj@@XZ ENDP	; ReferencerClass::operator->
_TEXT	ENDS
; Function compile flags: /Odtp /ZI
;	COMDAT ??4file_auto_ptr@@QAEAAV0@ABV0@@Z
_TEXT	SEGMENT
_this$ = -4						; size = 4
___that$ = 8						; size = 4
??4file_auto_ptr@@QAEAAV0@ABV0@@Z PROC			; file_auto_ptr::operator=, COMDAT
; _this$ = ecx
	push	ebp
	mov	ebp, esp
	sub	esp, 68					; 00000044H
	push	ebx
	push	esi
	push	edi
	mov	DWORD PTR _this$[ebp], ecx
	mov	eax, DWORD PTR ___that$[ebp]
	mov	ecx, DWORD PTR [eax]
	mov	edx, DWORD PTR [eax+4]
	mov	eax, DWORD PTR _this$[ebp]
	mov	DWORD PTR [eax], ecx
	mov	DWORD PTR [eax+4], edx
	mov	eax, DWORD PTR _this$[ebp]
	pop	edi
	pop	esi
	pop	ebx
	mov	esp, ebp
	pop	ebp
	ret	4
??4file_auto_ptr@@QAEAAV0@ABV0@@Z ENDP			; file_auto_ptr::operator=
_TEXT	ENDS
; Function compile flags: /Odtp /ZI
; File x:\github\renegade\dragonade_rxd\scripts\engine_io.h
;	COMDAT ?get@file_auto_ptr@@QAEPAVFileClass@@XZ
_TEXT	SEGMENT
_this$ = -4						; size = 4
?get@file_auto_ptr@@QAEPAVFileClass@@XZ PROC		; file_auto_ptr::get, COMDAT
; _this$ = ecx

; 202  : 	FileClass* get() { return _Ptr; }

	push	ebp
	mov	ebp, esp
	sub	esp, 68					; 00000044H
	push	ebx
	push	esi
	push	edi
	mov	DWORD PTR _this$[ebp], ecx
	mov	eax, DWORD PTR _this$[ebp]
	mov	eax, DWORD PTR [eax]
	pop	edi
	pop	esi
	pop	ebx
	mov	esp, ebp
	pop	ebp
	ret	0
?get@file_auto_ptr@@QAEPAVFileClass@@XZ ENDP		; file_auto_ptr::get
_TEXT	ENDS
; Function compile flags: /Odtp /ZI
; File x:\github\renegade\dragonade_rxd\scripts\engine_io.h
;	COMDAT ??Dfile_auto_ptr@@QAEAAVFileClass@@XZ
_TEXT	SEGMENT
_this$ = -4						; size = 4
??Dfile_auto_ptr@@QAEAAVFileClass@@XZ PROC		; file_auto_ptr::operator*, COMDAT
; _this$ = ecx

; 201  : 	FileClass& operator*() { return *_Ptr; }

	push	ebp
	mov	ebp, esp
	sub	esp, 68					; 00000044H
	push	ebx
	push	esi
	push	edi
	mov	DWORD PTR _this$[ebp], ecx
	mov	eax, DWORD PTR _this$[ebp]
	mov	eax, DWORD PTR [eax]
	pop	edi
	pop	esi
	pop	ebx
	mov	esp, ebp
	pop	ebp
	ret	0
??Dfile_auto_ptr@@QAEAAVFileClass@@XZ ENDP		; file_auto_ptr::operator*
_TEXT	ENDS
; Function compile flags: /Odtp /ZI
; File x:\github\renegade\dragonade_rxd\scripts\engine_io.h
;	COMDAT ??Bfile_auto_ptr@@QAEPAVFileClass@@XZ
_TEXT	SEGMENT
_this$ = -4						; size = 4
??Bfile_auto_ptr@@QAEPAVFileClass@@XZ PROC		; file_auto_ptr::operator FileClass *, COMDAT
; _this$ = ecx

; 200  : 	operator FileClass *() { return _Ptr; }

	push	ebp
	mov	ebp, esp
	sub	esp, 68					; 00000044H
	push	ebx
	push	esi
	push	edi
	mov	DWORD PTR _this$[ebp], ecx
	mov	eax, DWORD PTR _this$[ebp]
	mov	eax, DWORD PTR [eax]
	pop	edi
	pop	esi
	pop	ebx
	mov	esp, ebp
	pop	ebp
	ret	0
??Bfile_auto_ptr@@QAEPAVFileClass@@XZ ENDP		; file_auto_ptr::operator FileClass *
_TEXT	ENDS
; Function compile flags: /Odtp /ZI
; File x:\github\renegade\dragonade_rxd\scripts\engine_io.h
;	COMDAT ??Cfile_auto_ptr@@QAEPAVFileClass@@XZ
_TEXT	SEGMENT
_this$ = -4						; size = 4
??Cfile_auto_ptr@@QAEPAVFileClass@@XZ PROC		; file_auto_ptr::operator->, COMDAT
; _this$ = ecx

; 199  : 	FileClass* operator ->() { return _Ptr; }

	push	ebp
	mov	ebp, esp
	sub	esp, 68					; 00000044H
	push	ebx
	push	esi
	push	edi
	mov	DWORD PTR _this$[ebp], ecx
	mov	eax, DWORD PTR _this$[ebp]
	mov	eax, DWORD PTR [eax]
	pop	edi
	pop	esi
	pop	ebx
	mov	esp, ebp
	pop	ebp
	ret	0
??Cfile_auto_ptr@@QAEPAVFileClass@@XZ ENDP		; file_auto_ptr::operator->
_TEXT	ENDS
; Function compile flags: /Odtp /ZI
;	COMDAT ??_EINIClass@@UAEPAXI@Z
_TEXT	SEGMENT
_this$ = -4						; size = 4
___flags$ = 8						; size = 4
??_EINIClass@@UAEPAXI@Z PROC				; INIClass::`vector deleting destructor', COMDAT
; _this$ = ecx
	push	ebp
	mov	ebp, esp
	sub	esp, 68					; 00000044H
	push	ebx
	push	esi
	push	edi
	mov	DWORD PTR _this$[ebp], ecx
	mov	eax, DWORD PTR ___flags$[ebp]
	and	eax, 2
	je	SHORT $LN3@vector
	push	OFFSET ??1INIClass@@UAE@XZ		; INIClass::~INIClass
	mov	eax, DWORD PTR _this$[ebp]
	mov	ecx, DWORD PTR [eax-4]
	push	ecx
	push	16					; 00000010H
	mov	edx, DWORD PTR _this$[ebp]
	push	edx
	call	??_I@YGXPAXIHP6EX0@Z@Z
	mov	eax, DWORD PTR ___flags$[ebp]
	and	eax, 1
	je	SHORT $LN2@vector
	mov	eax, DWORD PTR _this$[ebp]
	sub	eax, 4
	push	eax
	call	??_V@YAXPAX@Z				; operator delete[]
	add	esp, 4
$LN2@vector:
	mov	eax, DWORD PTR _this$[ebp]
	sub	eax, 4
	jmp	SHORT $LN4@vector
$LN3@vector:
	mov	ecx, DWORD PTR _this$[ebp]
	call	??1INIClass@@UAE@XZ			; INIClass::~INIClass
	mov	eax, DWORD PTR ___flags$[ebp]
	and	eax, 1
	je	SHORT $LN1@vector
	mov	eax, DWORD PTR _this$[ebp]
	push	eax
	call	??3@YAXPAX@Z				; operator delete
	add	esp, 4
$LN1@vector:
	mov	eax, DWORD PTR _this$[ebp]
$LN4@vector:
	pop	edi
	pop	esi
	pop	ebx
	mov	esp, ebp
	pop	ebp
	ret	4
??_EINIClass@@UAEPAXI@Z ENDP				; INIClass::`vector deleting destructor'
_TEXT	ENDS
; Function compile flags: /Odtp /ZI
;	COMDAT ??_GINIClass@@UAEPAXI@Z
_TEXT	SEGMENT
_this$ = -4						; size = 4
___flags$ = 8						; size = 4
??_GINIClass@@UAEPAXI@Z PROC				; INIClass::`scalar deleting destructor', COMDAT
; _this$ = ecx
	push	ebp
	mov	ebp, esp
	sub	esp, 68					; 00000044H
	push	ebx
	push	esi
	push	edi
	mov	DWORD PTR _this$[ebp], ecx
	mov	ecx, DWORD PTR _this$[ebp]
	call	??1INIClass@@UAE@XZ			; INIClass::~INIClass
	mov	eax, DWORD PTR ___flags$[ebp]
	and	eax, 1
	je	SHORT $LN1@scalar
	mov	eax, DWORD PTR _this$[ebp]
	push	eax
	call	??3@YAXPAX@Z				; operator delete
	add	esp, 4
$LN1@scalar:
	mov	eax, DWORD PTR _this$[ebp]
	pop	edi
	pop	esi
	pop	ebx
	mov	esp, ebp
	pop	ebp
	ret	4
??_GINIClass@@UAEPAXI@Z ENDP				; INIClass::`scalar deleting destructor'
_TEXT	ENDS
; Function compile flags: /Odtp /ZI
;	COMDAT ??4INIClass@@QAEAAV0@ABV0@@Z
_TEXT	SEGMENT
_this$ = -4						; size = 4
___that$ = 8						; size = 4
??4INIClass@@QAEAAV0@ABV0@@Z PROC			; INIClass::operator=, COMDAT
; _this$ = ecx
	push	ebp
	mov	ebp, esp
	sub	esp, 68					; 00000044H
	push	ebx
	push	esi
	push	edi
	mov	DWORD PTR _this$[ebp], ecx
	mov	eax, DWORD PTR _this$[ebp]
	mov	ecx, DWORD PTR ___that$[ebp]
	mov	edx, DWORD PTR [ecx+4]
	mov	DWORD PTR [eax+4], edx
	mov	eax, DWORD PTR _this$[ebp]
	mov	ecx, DWORD PTR ___that$[ebp]
	mov	edx, DWORD PTR [ecx+8]
	mov	DWORD PTR [eax+8], edx
	mov	eax, DWORD PTR _this$[ebp]
	mov	ecx, DWORD PTR ___that$[ebp]
	mov	edx, DWORD PTR [ecx+12]
	mov	DWORD PTR [eax+12], edx
	mov	eax, DWORD PTR _this$[ebp]
	pop	edi
	pop	esi
	pop	ebx
	mov	esp, ebp
	pop	ebp
	ret	4
??4INIClass@@QAEAAV0@ABV0@@Z ENDP			; INIClass::operator=
_TEXT	ENDS
; Function compile flags: /Odtp /ZI
;	COMDAT ??0INIClass@@QAE@ABV0@@Z
_TEXT	SEGMENT
_this$ = -4						; size = 4
___that$ = 8						; size = 4
??0INIClass@@QAE@ABV0@@Z PROC				; INIClass::INIClass, COMDAT
; _this$ = ecx
	push	ebp
	mov	ebp, esp
	sub	esp, 68					; 00000044H
	push	ebx
	push	esi
	push	edi
	mov	DWORD PTR _this$[ebp], ecx
	mov	eax, DWORD PTR _this$[ebp]
	mov	DWORD PTR [eax], OFFSET ??_7INIClass@@6B@
	mov	eax, DWORD PTR _this$[ebp]
	mov	ecx, DWORD PTR ___that$[ebp]
	mov	edx, DWORD PTR [ecx+4]
	mov	DWORD PTR [eax+4], edx
	mov	eax, DWORD PTR _this$[ebp]
	mov	ecx, DWORD PTR ___that$[ebp]
	mov	edx, DWORD PTR [ecx+8]
	mov	DWORD PTR [eax+8], edx
	mov	eax, DWORD PTR _this$[ebp]
	mov	ecx, DWORD PTR ___that$[ebp]
	mov	edx, DWORD PTR [ecx+12]
	mov	DWORD PTR [eax+12], edx
	mov	eax, DWORD PTR _this$[ebp]
	pop	edi
	pop	esi
	pop	ebx
	mov	esp, ebp
	pop	ebp
	ret	4
??0INIClass@@QAE@ABV0@@Z ENDP				; INIClass::INIClass
_TEXT	ENDS
; Function compile flags: /Odtp /ZI
; File x:\github\renegade\dragonade_rxd\scripts\engine_io.h
;	COMDAT ?Get_File_Name@INIClass@@QAEPBDXZ
_TEXT	SEGMENT
_this$ = -4						; size = 4
?Get_File_Name@INIClass@@QAEPBDXZ PROC			; INIClass::Get_File_Name, COMDAT
; _this$ = ecx

; 183  : 	const char *Get_File_Name() { //DA

	push	ebp
	mov	ebp, esp
	sub	esp, 68					; 00000044H
	push	ebx
	push	esi
	push	edi
	mov	DWORD PTR _this$[ebp], ecx

; 184  : 		return Filename;

	mov	eax, DWORD PTR _this$[ebp]
	mov	eax, DWORD PTR [eax+12]

; 185  : 	}

	pop	edi
	pop	esi
	pop	ebx
	mov	esp, ebp
	pop	ebp
	ret	0
?Get_File_Name@INIClass@@QAEPBDXZ ENDP			; INIClass::Get_File_Name
_TEXT	ENDS
; Function compile flags: /Odtp /ZI
; File x:\github\renegade\dragonade_rxd\scripts\engine_io.h
;	COMDAT ?Get_Section_Index@INIClass@@QAEAAV?$IndexClass@HPAUINISection@@@@XZ
_TEXT	SEGMENT
_this$ = -4						; size = 4
?Get_Section_Index@INIClass@@QAEAAV?$IndexClass@HPAUINISection@@@@XZ PROC ; INIClass::Get_Section_Index, COMDAT
; _this$ = ecx

; 180  : 	{

	push	ebp
	mov	ebp, esp
	sub	esp, 68					; 00000044H
	push	ebx
	push	esi
	push	edi
	mov	DWORD PTR _this$[ebp], ecx

; 181  : 		return *SectionIndex;

	mov	eax, DWORD PTR _this$[ebp]
	mov	eax, DWORD PTR [eax+8]

; 182  : 	}

	pop	edi
	pop	esi
	pop	ebx
	mov	esp, ebp
	pop	ebp
	ret	0
?Get_Section_Index@INIClass@@QAEAAV?$IndexClass@HPAUINISection@@@@XZ ENDP ; INIClass::Get_Section_Index
_TEXT	ENDS
; Function compile flags: /Odtp /ZI
; File x:\github\renegade\dragonade_rxd\scripts\engine_io.h
;	COMDAT ?Get_Section_List@INIClass@@QAEAAV?$List@PAUINISection@@@@XZ
_TEXT	SEGMENT
_this$ = -4						; size = 4
?Get_Section_List@INIClass@@QAEAAV?$List@PAUINISection@@@@XZ PROC ; INIClass::Get_Section_List, COMDAT
; _this$ = ecx

; 176  : 	{

	push	ebp
	mov	ebp, esp
	sub	esp, 68					; 00000044H
	push	ebx
	push	esi
	push	edi
	mov	DWORD PTR _this$[ebp], ecx

; 177  : 		return *SectionList;

	mov	eax, DWORD PTR _this$[ebp]
	mov	eax, DWORD PTR [eax+4]

; 178  : 	}

	pop	edi
	pop	esi
	pop	ebx
	mov	esp, ebp
	pop	ebp
	ret	0
?Get_Section_List@INIClass@@QAEAAV?$List@PAUINISection@@@@XZ ENDP ; INIClass::Get_Section_List
_TEXT	ENDS
; Function compile flags: /Odtp /ZI
; File x:\github\renegade\dragonade_rxd\scripts\engine_io.h
;	COMDAT ?Section_Present@INIClass@@QBE_NPBD@Z
_TEXT	SEGMENT
tv68 = -72						; size = 4
_this$ = -4						; size = 4
_section$ = 8						; size = 4
?Section_Present@INIClass@@QBE_NPBD@Z PROC		; INIClass::Section_Present, COMDAT
; _this$ = ecx

; 172  : 	{

	push	ebp
	mov	ebp, esp
	sub	esp, 72					; 00000048H
	push	ebx
	push	esi
	push	edi
	mov	DWORD PTR _this$[ebp], ecx

; 173  : 		return Find_Section(section) != 0;

	mov	eax, DWORD PTR _section$[ebp]
	push	eax
	mov	ecx, DWORD PTR _this$[ebp]
	call	?Find_Section@INIClass@@QBEPAUINISection@@PBD@Z ; INIClass::Find_Section
	test	eax, eax
	je	SHORT $LN3@Section_Pr
	mov	DWORD PTR tv68[ebp], 1
	jmp	SHORT $LN4@Section_Pr
$LN3@Section_Pr:
	mov	DWORD PTR tv68[ebp], 0
$LN4@Section_Pr:
	mov	al, BYTE PTR tv68[ebp]

; 174  : 	}

	pop	edi
	pop	esi
	pop	ebx
	mov	esp, ebp
	pop	ebp
	ret	4
?Section_Present@INIClass@@QBE_NPBD@Z ENDP		; INIClass::Section_Present
_TEXT	ENDS
; Function compile flags: /Odtp /ZI
; File x:\github\renegade\dragonade_rxd\scripts\engine_io.h
;	COMDAT ?Is_Present@INIClass@@QBE_NPBD0@Z
_TEXT	SEGMENT
tv76 = -72						; size = 4
tv70 = -72						; size = 4
_this$ = -4						; size = 4
_section$ = 8						; size = 4
_entry$ = 12						; size = 4
?Is_Present@INIClass@@QBE_NPBD0@Z PROC			; INIClass::Is_Present, COMDAT
; _this$ = ecx

; 161  : 	{

	push	ebp
	mov	ebp, esp
	sub	esp, 72					; 00000048H
	push	ebx
	push	esi
	push	edi
	mov	DWORD PTR _this$[ebp], ecx

; 162  : 		if (entry)

	cmp	DWORD PTR _entry$[ebp], 0
	je	SHORT $LN2@Is_Present

; 163  : 		{
; 164  : 			return Find_Entry(section,entry) != 0;

	mov	eax, DWORD PTR _entry$[ebp]
	push	eax
	mov	ecx, DWORD PTR _section$[ebp]
	push	ecx
	mov	ecx, DWORD PTR _this$[ebp]
	call	?Find_Entry@INIClass@@QBEPAUINIEntry@@PBD0@Z ; INIClass::Find_Entry
	test	eax, eax
	je	SHORT $LN5@Is_Present
	mov	DWORD PTR tv70[ebp], 1
	jmp	SHORT $LN6@Is_Present
$LN5@Is_Present:
	mov	DWORD PTR tv70[ebp], 0
$LN6@Is_Present:
	mov	al, BYTE PTR tv70[ebp]
	jmp	SHORT $LN3@Is_Present

; 165  : 		}
; 166  : 		else

	jmp	SHORT $LN3@Is_Present
$LN2@Is_Present:

; 167  : 		{
; 168  : 			return Find_Section(section) != 0;

	mov	eax, DWORD PTR _section$[ebp]
	push	eax
	mov	ecx, DWORD PTR _this$[ebp]
	call	?Find_Section@INIClass@@QBEPAUINISection@@PBD@Z ; INIClass::Find_Section
	test	eax, eax
	je	SHORT $LN7@Is_Present
	mov	DWORD PTR tv76[ebp], 1
	jmp	SHORT $LN8@Is_Present
$LN7@Is_Present:
	mov	DWORD PTR tv76[ebp], 0
$LN8@Is_Present:
	mov	al, BYTE PTR tv76[ebp]
$LN3@Is_Present:

; 169  : 		}
; 170  : 	}

	pop	edi
	pop	esi
	pop	ebx
	mov	esp, ebp
	pop	ebp
	ret	8
?Is_Present@INIClass@@QBE_NPBD0@Z ENDP			; INIClass::Is_Present
_TEXT	ENDS
; Function compile flags: /Odtp /ZI
;	COMDAT ??4ChunkSaveClass@@QAEAAV0@ABV0@@Z
_TEXT	SEGMENT
_this$ = -4						; size = 4
___that$ = 8						; size = 4
??4ChunkSaveClass@@QAEAAV0@ABV0@@Z PROC			; ChunkSaveClass::operator=, COMDAT
; _this$ = ecx
	push	ebp
	mov	ebp, esp
	sub	esp, 68					; 00000044H
	push	ebx
	push	esi
	push	edi
	mov	DWORD PTR _this$[ebp], ecx
	mov	ecx, 773				; 00000305H
	mov	esi, DWORD PTR ___that$[ebp]
	mov	edi, DWORD PTR _this$[ebp]
	rep movsd
	mov	eax, DWORD PTR _this$[ebp]
	pop	edi
	pop	esi
	pop	ebx
	mov	esp, ebp
	pop	ebp
	ret	4
??4ChunkSaveClass@@QAEAAV0@ABV0@@Z ENDP			; ChunkSaveClass::operator=
_TEXT	ENDS
; Function compile flags: /Odtp /ZI
; File x:\github\renegade\dragonade_rxd\scripts\chunkclass.h
;	COMDAT ?Set_Contains_Chunks@ChunkSaveClass@@QAEXXZ
_TEXT	SEGMENT
_this$ = -4						; size = 4
?Set_Contains_Chunks@ChunkSaveClass@@QAEXXZ PROC	; ChunkSaveClass::Set_Contains_Chunks, COMDAT
; _this$ = ecx

; 102  : 	{

	push	ebp
	mov	ebp, esp
	sub	esp, 68					; 00000044H
	push	ebx
	push	esi
	push	edi
	mov	DWORD PTR _this$[ebp], ecx

; 103  : 		HeaderStack[StackIndex-1].ChunkSize |= 0x80000000;

	mov	eax, DWORD PTR _this$[ebp]
	mov	ecx, DWORD PTR [eax+4]
	mov	edx, DWORD PTR _this$[ebp]
	mov	eax, DWORD PTR [edx+ecx*8+1028]
	or	eax, -2147483648			; 80000000H
	mov	ecx, DWORD PTR _this$[ebp]
	mov	edx, DWORD PTR [ecx+4]
	mov	ecx, DWORD PTR _this$[ebp]
	mov	DWORD PTR [ecx+edx*8+1028], eax

; 104  : 	}

	pop	edi
	pop	esi
	pop	ebx
	mov	esp, ebp
	pop	ebp
	ret	0
?Set_Contains_Chunks@ChunkSaveClass@@QAEXXZ ENDP	; ChunkSaveClass::Set_Contains_Chunks
_TEXT	ENDS
; Function compile flags: /Odtp /ZI
;	COMDAT ??4ChunkLoadClass@@QAEAAV0@ABV0@@Z
_TEXT	SEGMENT
_this$ = -4						; size = 4
___that$ = 8						; size = 4
??4ChunkLoadClass@@QAEAAV0@ABV0@@Z PROC			; ChunkLoadClass::operator=, COMDAT
; _this$ = ecx
	push	ebp
	mov	ebp, esp
	sub	esp, 68					; 00000044H
	push	ebx
	push	esi
	push	edi
	mov	DWORD PTR _this$[ebp], ecx
	mov	ecx, 773				; 00000305H
	mov	esi, DWORD PTR ___that$[ebp]
	mov	edi, DWORD PTR _this$[ebp]
	rep movsd
	mov	eax, DWORD PTR _this$[ebp]
	pop	edi
	pop	esi
	pop	ebx
	mov	esp, ebp
	pop	ebp
	ret	4
??4ChunkLoadClass@@QAEAAV0@ABV0@@Z ENDP			; ChunkLoadClass::operator=
_TEXT	ENDS
; Function compile flags: /Odtp /ZI
;	COMDAT ??4ScriptRegistrar@@QAEAAV0@ABV0@@Z
_TEXT	SEGMENT
_this$ = -4						; size = 4
___that$ = 8						; size = 4
??4ScriptRegistrar@@QAEAAV0@ABV0@@Z PROC		; ScriptRegistrar::operator=, COMDAT
; _this$ = ecx
	push	ebp
	mov	ebp, esp
	sub	esp, 68					; 00000044H
	push	ebx
	push	esi
	push	edi
	mov	DWORD PTR _this$[ebp], ecx
	mov	eax, DWORD PTR _this$[ebp]
	pop	edi
	pop	esi
	pop	ebx
	mov	esp, ebp
	pop	ebp
	ret	4
??4ScriptRegistrar@@QAEAAV0@ABV0@@Z ENDP		; ScriptRegistrar::operator=
_TEXT	ENDS
; Function compile flags: /Odtp /ZI
;	COMDAT ??_EScriptFactory@@UAEPAXI@Z
_TEXT	SEGMENT
_this$ = -4						; size = 4
___flags$ = 8						; size = 4
??_EScriptFactory@@UAEPAXI@Z PROC			; ScriptFactory::`vector deleting destructor', COMDAT
; _this$ = ecx
	push	ebp
	mov	ebp, esp
	sub	esp, 68					; 00000044H
	push	ebx
	push	esi
	push	edi
	mov	DWORD PTR _this$[ebp], ecx
	mov	eax, DWORD PTR ___flags$[ebp]
	and	eax, 2
	je	SHORT $LN3@vector
	push	OFFSET ??1ScriptFactory@@UAE@XZ		; ScriptFactory::~ScriptFactory
	mov	eax, DWORD PTR _this$[ebp]
	mov	ecx, DWORD PTR [eax-4]
	push	ecx
	push	16					; 00000010H
	mov	edx, DWORD PTR _this$[ebp]
	push	edx
	call	??_I@YGXPAXIHP6EX0@Z@Z
	mov	eax, DWORD PTR ___flags$[ebp]
	and	eax, 1
	je	SHORT $LN2@vector
	mov	eax, DWORD PTR _this$[ebp]
	sub	eax, 4
	push	eax
	call	??_V@YAXPAX@Z				; operator delete[]
	add	esp, 4
$LN2@vector:
	mov	eax, DWORD PTR _this$[ebp]
	sub	eax, 4
	jmp	SHORT $LN4@vector
$LN3@vector:
	mov	ecx, DWORD PTR _this$[ebp]
	call	??1ScriptFactory@@UAE@XZ		; ScriptFactory::~ScriptFactory
	mov	eax, DWORD PTR ___flags$[ebp]
	and	eax, 1
	je	SHORT $LN1@vector
	mov	eax, DWORD PTR _this$[ebp]
	push	eax
	call	??3@YAXPAX@Z				; operator delete
	add	esp, 4
$LN1@vector:
	mov	eax, DWORD PTR _this$[ebp]
$LN4@vector:
	pop	edi
	pop	esi
	pop	ebx
	mov	esp, ebp
	pop	ebp
	ret	4
??_EScriptFactory@@UAEPAXI@Z ENDP			; ScriptFactory::`vector deleting destructor'
_TEXT	ENDS
; Function compile flags: /Odtp /ZI
;	COMDAT ??_GScriptFactory@@UAEPAXI@Z
_TEXT	SEGMENT
_this$ = -4						; size = 4
___flags$ = 8						; size = 4
??_GScriptFactory@@UAEPAXI@Z PROC			; ScriptFactory::`scalar deleting destructor', COMDAT
; _this$ = ecx
	push	ebp
	mov	ebp, esp
	sub	esp, 68					; 00000044H
	push	ebx
	push	esi
	push	edi
	mov	DWORD PTR _this$[ebp], ecx
	mov	ecx, DWORD PTR _this$[ebp]
	call	??1ScriptFactory@@UAE@XZ		; ScriptFactory::~ScriptFactory
	mov	eax, DWORD PTR ___flags$[ebp]
	and	eax, 1
	je	SHORT $LN1@scalar
	mov	eax, DWORD PTR _this$[ebp]
	push	eax
	call	??3@YAXPAX@Z				; operator delete
	add	esp, 4
$LN1@scalar:
	mov	eax, DWORD PTR _this$[ebp]
	pop	edi
	pop	esi
	pop	ebx
	mov	esp, ebp
	pop	ebp
	ret	4
??_GScriptFactory@@UAEPAXI@Z ENDP			; ScriptFactory::`scalar deleting destructor'
_TEXT	ENDS
; Function compile flags: /Odtp /ZI
;	COMDAT ??4ScriptFactory@@QAEAAV0@ABV0@@Z
_TEXT	SEGMENT
_this$ = -4						; size = 4
___that$ = 8						; size = 4
??4ScriptFactory@@QAEAAV0@ABV0@@Z PROC			; ScriptFactory::operator=, COMDAT
; _this$ = ecx
	push	ebp
	mov	ebp, esp
	sub	esp, 68					; 00000044H
	push	ebx
	push	esi
	push	edi
	mov	DWORD PTR _this$[ebp], ecx
	mov	eax, DWORD PTR _this$[ebp]
	mov	ecx, DWORD PTR ___that$[ebp]
	mov	edx, DWORD PTR [ecx+4]
	mov	DWORD PTR [eax+4], edx
	mov	eax, DWORD PTR _this$[ebp]
	mov	ecx, DWORD PTR ___that$[ebp]
	mov	edx, DWORD PTR [ecx+8]
	mov	DWORD PTR [eax+8], edx
	mov	eax, DWORD PTR _this$[ebp]
	mov	ecx, DWORD PTR ___that$[ebp]
	mov	edx, DWORD PTR [ecx+12]
	mov	DWORD PTR [eax+12], edx
	mov	eax, DWORD PTR _this$[ebp]
	pop	edi
	pop	esi
	pop	ebx
	mov	esp, ebp
	pop	ebp
	ret	4
??4ScriptFactory@@QAEAAV0@ABV0@@Z ENDP			; ScriptFactory::operator=
_TEXT	ENDS
; Function compile flags: /Odtp /ZI
;	COMDAT ??0ScriptFactory@@QAE@ABV0@@Z
_TEXT	SEGMENT
_this$ = -4						; size = 4
___that$ = 8						; size = 4
??0ScriptFactory@@QAE@ABV0@@Z PROC			; ScriptFactory::ScriptFactory, COMDAT
; _this$ = ecx
	push	ebp
	mov	ebp, esp
	sub	esp, 68					; 00000044H
	push	ebx
	push	esi
	push	edi
	mov	DWORD PTR _this$[ebp], ecx
	mov	eax, DWORD PTR _this$[ebp]
	mov	DWORD PTR [eax], OFFSET ??_7ScriptFactory@@6B@
	mov	eax, DWORD PTR _this$[ebp]
	mov	ecx, DWORD PTR ___that$[ebp]
	mov	edx, DWORD PTR [ecx+4]
	mov	DWORD PTR [eax+4], edx
	mov	eax, DWORD PTR _this$[ebp]
	mov	ecx, DWORD PTR ___that$[ebp]
	mov	edx, DWORD PTR [ecx+8]
	mov	DWORD PTR [eax+8], edx
	mov	eax, DWORD PTR _this$[ebp]
	mov	ecx, DWORD PTR ___that$[ebp]
	mov	edx, DWORD PTR [ecx+12]
	mov	DWORD PTR [eax+12], edx
	mov	eax, DWORD PTR _this$[ebp]
	pop	edi
	pop	esi
	pop	ebx
	mov	esp, ebp
	pop	ebp
	ret	4
??0ScriptFactory@@QAE@ABV0@@Z ENDP			; ScriptFactory::ScriptFactory
_TEXT	ENDS
; Function compile flags: /Odtp /ZI
;	COMDAT ??_EScriptImpClass@@UAEPAXI@Z
_TEXT	SEGMENT
_this$ = -4						; size = 4
___flags$ = 8						; size = 4
??_EScriptImpClass@@UAEPAXI@Z PROC			; ScriptImpClass::`vector deleting destructor', COMDAT
; _this$ = ecx
	push	ebp
	mov	ebp, esp
	sub	esp, 68					; 00000044H
	push	ebx
	push	esi
	push	edi
	mov	DWORD PTR _this$[ebp], ecx
	mov	eax, DWORD PTR ___flags$[ebp]
	and	eax, 2
	je	SHORT $LN3@vector
	push	OFFSET ??1ScriptImpClass@@UAE@XZ	; ScriptImpClass::~ScriptImpClass
	mov	eax, DWORD PTR _this$[ebp]
	mov	ecx, DWORD PTR [eax-4]
	push	ecx
	push	28					; 0000001cH
	mov	edx, DWORD PTR _this$[ebp]
	push	edx
	call	??_I@YGXPAXIHP6EX0@Z@Z
	mov	eax, DWORD PTR ___flags$[ebp]
	and	eax, 1
	je	SHORT $LN2@vector
	mov	eax, DWORD PTR _this$[ebp]
	sub	eax, 4
	push	eax
	call	??_V@YAXPAX@Z				; operator delete[]
	add	esp, 4
$LN2@vector:
	mov	eax, DWORD PTR _this$[ebp]
	sub	eax, 4
	jmp	SHORT $LN4@vector
$LN3@vector:
	mov	ecx, DWORD PTR _this$[ebp]
	call	??1ScriptImpClass@@UAE@XZ		; ScriptImpClass::~ScriptImpClass
	mov	eax, DWORD PTR ___flags$[ebp]
	and	eax, 1
	je	SHORT $LN1@vector
	mov	eax, DWORD PTR _this$[ebp]
	push	eax
	call	??3@YAXPAX@Z				; operator delete
	add	esp, 4
$LN1@vector:
	mov	eax, DWORD PTR _this$[ebp]
$LN4@vector:
	pop	edi
	pop	esi
	pop	ebx
	mov	esp, ebp
	pop	ebp
	ret	4
??_EScriptImpClass@@UAEPAXI@Z ENDP			; ScriptImpClass::`vector deleting destructor'
_TEXT	ENDS
; Function compile flags: /Odtp /ZI
;	COMDAT ??_GScriptImpClass@@UAEPAXI@Z
_TEXT	SEGMENT
_this$ = -4						; size = 4
___flags$ = 8						; size = 4
??_GScriptImpClass@@UAEPAXI@Z PROC			; ScriptImpClass::`scalar deleting destructor', COMDAT
; _this$ = ecx
	push	ebp
	mov	ebp, esp
	sub	esp, 68					; 00000044H
	push	ebx
	push	esi
	push	edi
	mov	DWORD PTR _this$[ebp], ecx
	mov	ecx, DWORD PTR _this$[ebp]
	call	??1ScriptImpClass@@UAE@XZ		; ScriptImpClass::~ScriptImpClass
	mov	eax, DWORD PTR ___flags$[ebp]
	and	eax, 1
	je	SHORT $LN1@scalar
	mov	eax, DWORD PTR _this$[ebp]
	push	eax
	call	??3@YAXPAX@Z				; operator delete
	add	esp, 4
$LN1@scalar:
	mov	eax, DWORD PTR _this$[ebp]
	pop	edi
	pop	esi
	pop	ebx
	mov	esp, ebp
	pop	ebp
	ret	4
??_GScriptImpClass@@UAEPAXI@Z ENDP			; ScriptImpClass::`scalar deleting destructor'
_TEXT	ENDS
; Function compile flags: /Odtp /ZI
;	COMDAT ??4ScriptImpClass@@QAEAAV0@ABV0@@Z
_TEXT	SEGMENT
_this$ = -4						; size = 4
___that$ = 8						; size = 4
??4ScriptImpClass@@QAEAAV0@ABV0@@Z PROC			; ScriptImpClass::operator=, COMDAT
; _this$ = ecx
	push	ebp
	mov	ebp, esp
	sub	esp, 68					; 00000044H
	push	ebx
	push	esi
	push	edi
	mov	DWORD PTR _this$[ebp], ecx
	mov	eax, DWORD PTR ___that$[ebp]
	push	eax
	mov	ecx, DWORD PTR _this$[ebp]
	call	??4ScriptClass@@QAEAAV0@ABV0@@Z
	mov	eax, DWORD PTR _this$[ebp]
	mov	ecx, DWORD PTR ___that$[ebp]
	mov	edx, DWORD PTR [ecx+8]
	mov	DWORD PTR [eax+8], edx
	mov	eax, DWORD PTR _this$[ebp]
	mov	ecx, DWORD PTR ___that$[ebp]
	mov	edx, DWORD PTR [ecx+12]
	mov	DWORD PTR [eax+12], edx
	mov	eax, DWORD PTR _this$[ebp]
	mov	ecx, DWORD PTR ___that$[ebp]
	mov	edx, DWORD PTR [ecx+16]
	mov	DWORD PTR [eax+16], edx
	mov	eax, DWORD PTR _this$[ebp]
	mov	ecx, DWORD PTR ___that$[ebp]
	mov	edx, DWORD PTR [ecx+20]
	mov	DWORD PTR [eax+20], edx
	mov	eax, DWORD PTR _this$[ebp]
	mov	ecx, DWORD PTR ___that$[ebp]
	mov	edx, DWORD PTR [ecx+24]
	mov	DWORD PTR [eax+24], edx
	mov	eax, DWORD PTR _this$[ebp]
	pop	edi
	pop	esi
	pop	ebx
	mov	esp, ebp
	pop	ebp
	ret	4
??4ScriptImpClass@@QAEAAV0@ABV0@@Z ENDP			; ScriptImpClass::operator=
_TEXT	ENDS
; Function compile flags: /Odtp /ZI
;	COMDAT ??0ScriptImpClass@@QAE@ABV0@@Z
_TEXT	SEGMENT
_this$ = -4						; size = 4
___that$ = 8						; size = 4
??0ScriptImpClass@@QAE@ABV0@@Z PROC			; ScriptImpClass::ScriptImpClass, COMDAT
; _this$ = ecx
	push	ebp
	mov	ebp, esp
	sub	esp, 68					; 00000044H
	push	ebx
	push	esi
	push	edi
	mov	DWORD PTR _this$[ebp], ecx
	mov	eax, DWORD PTR ___that$[ebp]
	push	eax
	mov	ecx, DWORD PTR _this$[ebp]
	call	??0ScriptClass@@QAE@ABV0@@Z
	mov	eax, DWORD PTR _this$[ebp]
	mov	DWORD PTR [eax], OFFSET ??_7ScriptImpClass@@6B@
	mov	eax, DWORD PTR _this$[ebp]
	mov	ecx, DWORD PTR ___that$[ebp]
	mov	edx, DWORD PTR [ecx+8]
	mov	DWORD PTR [eax+8], edx
	mov	eax, DWORD PTR _this$[ebp]
	mov	ecx, DWORD PTR ___that$[ebp]
	mov	edx, DWORD PTR [ecx+12]
	mov	DWORD PTR [eax+12], edx
	mov	eax, DWORD PTR _this$[ebp]
	mov	ecx, DWORD PTR ___that$[ebp]
	mov	edx, DWORD PTR [ecx+16]
	mov	DWORD PTR [eax+16], edx
	mov	eax, DWORD PTR _this$[ebp]
	mov	ecx, DWORD PTR ___that$[ebp]
	mov	edx, DWORD PTR [ecx+20]
	mov	DWORD PTR [eax+20], edx
	mov	eax, DWORD PTR _this$[ebp]
	mov	ecx, DWORD PTR ___that$[ebp]
	mov	edx, DWORD PTR [ecx+24]
	mov	DWORD PTR [eax+24], edx
	mov	eax, DWORD PTR _this$[ebp]
	pop	edi
	pop	esi
	pop	ebx
	mov	esp, ebp
	pop	ebp
	ret	4
??0ScriptImpClass@@QAE@ABV0@@Z ENDP			; ScriptImpClass::ScriptImpClass
_TEXT	ENDS
; Function compile flags: /Odtp /ZI
; File x:\github\renegade\dragonade_rxd\scripts\scripts.h
;	COMDAT ?Get_Bool_Parameter@ScriptImpClass@@QAE_NH@Z
_TEXT	SEGMENT
tv68 = -72						; size = 4
_this$ = -4						; size = 4
_index$ = 8						; size = 4
?Get_Bool_Parameter@ScriptImpClass@@QAE_NH@Z PROC	; ScriptImpClass::Get_Bool_Parameter, COMDAT
; _this$ = ecx

; 290  :     {

	push	ebp
	mov	ebp, esp
	sub	esp, 72					; 00000048H
	push	ebx
	push	esi
	push	edi
	mov	DWORD PTR _this$[ebp], ecx

; 291  :         return Get_Int_Parameter(index) != 0;

	mov	eax, DWORD PTR _index$[ebp]
	push	eax
	mov	ecx, DWORD PTR _this$[ebp]
	call	?Get_Int_Parameter@ScriptImpClass@@QAEHH@Z ; ScriptImpClass::Get_Int_Parameter
	test	eax, eax
	je	SHORT $LN3@Get_Bool_P
	mov	DWORD PTR tv68[ebp], 1
	jmp	SHORT $LN4@Get_Bool_P
$LN3@Get_Bool_P:
	mov	DWORD PTR tv68[ebp], 0
$LN4@Get_Bool_P:
	mov	al, BYTE PTR tv68[ebp]

; 292  :     }

	pop	edi
	pop	esi
	pop	ebx
	mov	esp, ebp
	pop	ebp
	ret	4
?Get_Bool_Parameter@ScriptImpClass@@QAE_NH@Z ENDP	; ScriptImpClass::Get_Bool_Parameter
_TEXT	ENDS
; Function compile flags: /Odtp /ZI
; File x:\github\renegade\dragonade_rxd\scripts\scripts.h
;	COMDAT ?Get_Bool_Parameter@ScriptImpClass@@QAE_NPBD@Z
_TEXT	SEGMENT
tv68 = -72						; size = 4
_this$ = -4						; size = 4
_name$ = 8						; size = 4
?Get_Bool_Parameter@ScriptImpClass@@QAE_NPBD@Z PROC	; ScriptImpClass::Get_Bool_Parameter, COMDAT
; _this$ = ecx

; 286  :     {

	push	ebp
	mov	ebp, esp
	sub	esp, 72					; 00000048H
	push	ebx
	push	esi
	push	edi
	mov	DWORD PTR _this$[ebp], ecx

; 287  :         return Get_Int_Parameter(name) != 0;

	mov	eax, DWORD PTR _name$[ebp]
	push	eax
	mov	ecx, DWORD PTR _this$[ebp]
	call	?Get_Int_Parameter@ScriptImpClass@@QAEHPBD@Z ; ScriptImpClass::Get_Int_Parameter
	test	eax, eax
	je	SHORT $LN3@Get_Bool_P
	mov	DWORD PTR tv68[ebp], 1
	jmp	SHORT $LN4@Get_Bool_P
$LN3@Get_Bool_P:
	mov	DWORD PTR tv68[ebp], 0
$LN4@Get_Bool_P:
	mov	al, BYTE PTR tv68[ebp]

; 288  :     }

	pop	edi
	pop	esi
	pop	ebx
	mov	esp, ebp
	pop	ebp
	ret	4
?Get_Bool_Parameter@ScriptImpClass@@QAE_NPBD@Z ENDP	; ScriptImpClass::Get_Bool_Parameter
_TEXT	ENDS
; Function compile flags: /Odtp /ZI
; File x:\github\renegade\dragonade_rxd\scripts\scripts.h
;	COMDAT ?Get_Float_Parameter@ScriptImpClass@@QAEMH@Z
_TEXT	SEGMENT
tv74 = -72						; size = 4
_this$ = -4						; size = 4
_index$ = 8						; size = 4
?Get_Float_Parameter@ScriptImpClass@@QAEMH@Z PROC	; ScriptImpClass::Get_Float_Parameter, COMDAT
; _this$ = ecx

; 282  : 	{

	push	ebp
	mov	ebp, esp
	sub	esp, 72					; 00000048H
	push	ebx
	push	esi
	push	edi
	mov	DWORD PTR _this$[ebp], ecx

; 283  : 		return (float)atof(Get_Parameter(index));

	mov	eax, DWORD PTR _index$[ebp]
	push	eax
	mov	ecx, DWORD PTR _this$[ebp]
	call	?Get_Parameter@ScriptImpClass@@QAEPBDH@Z ; ScriptImpClass::Get_Parameter
	push	eax
	call	DWORD PTR __imp__atof
	add	esp, 4
	fstp	DWORD PTR tv74[ebp]
	fld	DWORD PTR tv74[ebp]

; 284  : 	}

	pop	edi
	pop	esi
	pop	ebx
	mov	esp, ebp
	pop	ebp
	ret	4
?Get_Float_Parameter@ScriptImpClass@@QAEMH@Z ENDP	; ScriptImpClass::Get_Float_Parameter
_TEXT	ENDS
; Function compile flags: /Odtp /ZI
; File x:\github\renegade\dragonade_rxd\scripts\scripts.h
;	COMDAT ?Get_Int_Parameter@ScriptImpClass@@QAEHH@Z
_TEXT	SEGMENT
_this$ = -4						; size = 4
_index$ = 8						; size = 4
?Get_Int_Parameter@ScriptImpClass@@QAEHH@Z PROC		; ScriptImpClass::Get_Int_Parameter, COMDAT
; _this$ = ecx

; 278  : 	{

	push	ebp
	mov	ebp, esp
	sub	esp, 68					; 00000044H
	push	ebx
	push	esi
	push	edi
	mov	DWORD PTR _this$[ebp], ecx

; 279  : 		return atoi(Get_Parameter(index));

	mov	eax, DWORD PTR _index$[ebp]
	push	eax
	mov	ecx, DWORD PTR _this$[ebp]
	call	?Get_Parameter@ScriptImpClass@@QAEPBDH@Z ; ScriptImpClass::Get_Parameter
	push	eax
	call	DWORD PTR __imp__atoi
	add	esp, 4

; 280  : 	}

	pop	edi
	pop	esi
	pop	ebx
	mov	esp, ebp
	pop	ebp
	ret	4
?Get_Int_Parameter@ScriptImpClass@@QAEHH@Z ENDP		; ScriptImpClass::Get_Int_Parameter
_TEXT	ENDS
; Function compile flags: /Odtp /ZI
; File x:\github\renegade\dragonade_rxd\scripts\scripts.h
;	COMDAT ?Get_Parameter_Count@ScriptImpClass@@QAEHXZ
_TEXT	SEGMENT
_this$ = -4						; size = 4
?Get_Parameter_Count@ScriptImpClass@@QAEHXZ PROC	; ScriptImpClass::Get_Parameter_Count, COMDAT
; _this$ = ecx

; 274  : 	{

	push	ebp
	mov	ebp, esp
	sub	esp, 68					; 00000044H
	push	ebx
	push	esi
	push	edi
	mov	DWORD PTR _this$[ebp], ecx

; 275  : 		return mArgC;

	mov	eax, DWORD PTR _this$[ebp]
	mov	eax, DWORD PTR [eax+12]

; 276  : 	}

	pop	edi
	pop	esi
	pop	ebx
	mov	esp, ebp
	pop	ebp
	ret	0
?Get_Parameter_Count@ScriptImpClass@@QAEHXZ ENDP	; ScriptImpClass::Get_Parameter_Count
_TEXT	ENDS
; Function compile flags: /Odtp /ZI
; File x:\github\renegade\dragonade_rxd\scripts\scripts.h
;	COMDAT ?Register_Auto_Save_Variables@ScriptImpClass@@UAEXXZ
_TEXT	SEGMENT
_this$ = -4						; size = 4
?Register_Auto_Save_Variables@ScriptImpClass@@UAEXXZ PROC ; ScriptImpClass::Register_Auto_Save_Variables, COMDAT
; _this$ = ecx

; 265  : 	virtual	void Register_Auto_Save_Variables()	{}

	push	ebp
	mov	ebp, esp
	sub	esp, 68					; 00000044H
	push	ebx
	push	esi
	push	edi
	mov	DWORD PTR _this$[ebp], ecx
	pop	edi
	pop	esi
	pop	ebx
	mov	esp, ebp
	pop	ebp
	ret	0
?Register_Auto_Save_Variables@ScriptImpClass@@UAEXXZ ENDP ; ScriptImpClass::Register_Auto_Save_Variables
_TEXT	ENDS
; Function compile flags: /Odtp /ZI
; File x:\github\renegade\dragonade_rxd\scripts\scripts.h
;	COMDAT ?Load_Data@ScriptImpClass@@UAEXAAVScriptLoader@@@Z
_TEXT	SEGMENT
_this$ = -4						; size = 4
_loader$ = 8						; size = 4
?Load_Data@ScriptImpClass@@UAEXAAVScriptLoader@@@Z PROC	; ScriptImpClass::Load_Data, COMDAT
; _this$ = ecx

; 264  : 	virtual void Load_Data(ScriptLoader& loader) {}

	push	ebp
	mov	ebp, esp
	sub	esp, 68					; 00000044H
	push	ebx
	push	esi
	push	edi
	mov	DWORD PTR _this$[ebp], ecx
	pop	edi
	pop	esi
	pop	ebx
	mov	esp, ebp
	pop	ebp
	ret	4
?Load_Data@ScriptImpClass@@UAEXAAVScriptLoader@@@Z ENDP	; ScriptImpClass::Load_Data
_TEXT	ENDS
; Function compile flags: /Odtp /ZI
; File x:\github\renegade\dragonade_rxd\scripts\scripts.h
;	COMDAT ?Save_Data@ScriptImpClass@@UAEXAAVScriptSaver@@@Z
_TEXT	SEGMENT
_this$ = -4						; size = 4
_saver$ = 8						; size = 4
?Save_Data@ScriptImpClass@@UAEXAAVScriptSaver@@@Z PROC	; ScriptImpClass::Save_Data, COMDAT
; _this$ = ecx

; 263  : 	virtual void Save_Data(ScriptSaver& saver) {}

	push	ebp
	mov	ebp, esp
	sub	esp, 68					; 00000044H
	push	ebx
	push	esi
	push	edi
	mov	DWORD PTR _this$[ebp], ecx
	pop	edi
	pop	esi
	pop	ebx
	mov	esp, ebp
	pop	ebp
	ret	4
?Save_Data@ScriptImpClass@@UAEXAAVScriptSaver@@@Z ENDP	; ScriptImpClass::Save_Data
_TEXT	ENDS
; Function compile flags: /Odtp /ZI
; File x:\github\renegade\dragonade_rxd\scripts\scripts.h
;	COMDAT ?Get_Owner_Ptr@ScriptImpClass@@UAEPAPAVScriptableGameObj@@XZ
_TEXT	SEGMENT
_this$ = -4						; size = 4
?Get_Owner_Ptr@ScriptImpClass@@UAEPAPAVScriptableGameObj@@XZ PROC ; ScriptImpClass::Get_Owner_Ptr, COMDAT
; _this$ = ecx

; 258  : 	{

	push	ebp
	mov	ebp, esp
	sub	esp, 68					; 00000044H
	push	ebx
	push	esi
	push	edi
	mov	DWORD PTR _this$[ebp], ecx

; 259  : 		return &mOwner;

	mov	eax, DWORD PTR _this$[ebp]
	add	eax, 8

; 260  : 	}

	pop	edi
	pop	esi
	pop	ebx
	mov	esp, ebp
	pop	ebp
	ret	0
?Get_Owner_Ptr@ScriptImpClass@@UAEPAPAVScriptableGameObj@@XZ ENDP ; ScriptImpClass::Get_Owner_Ptr
_TEXT	ENDS
; Function compile flags: /Odtp /ZI
; File x:\github\renegade\dragonade_rxd\scripts\scripts.h
;	COMDAT ?Owner@ScriptImpClass@@UAEPAVScriptableGameObj@@XZ
_TEXT	SEGMENT
_this$ = -4						; size = 4
?Owner@ScriptImpClass@@UAEPAVScriptableGameObj@@XZ PROC	; ScriptImpClass::Owner, COMDAT
; _this$ = ecx

; 254  : 	{

	push	ebp
	mov	ebp, esp
	sub	esp, 68					; 00000044H
	push	ebx
	push	esi
	push	edi
	mov	DWORD PTR _this$[ebp], ecx

; 255  : 		return mOwner;

	mov	eax, DWORD PTR _this$[ebp]
	mov	eax, DWORD PTR [eax+8]

; 256  : 	}

	pop	edi
	pop	esi
	pop	ebx
	mov	esp, ebp
	pop	ebp
	ret	0
?Owner@ScriptImpClass@@UAEPAVScriptableGameObj@@XZ ENDP	; ScriptImpClass::Owner
_TEXT	ENDS
; Function compile flags: /Odtp /ZI
; File x:\github\renegade\dragonade_rxd\scripts\scripts.h
;	COMDAT ?Exited@ScriptImpClass@@UAEXPAVScriptableGameObj@@0@Z
_TEXT	SEGMENT
_this$ = -4						; size = 4
_obj$ = 8						; size = 4
_exiter$ = 12						; size = 4
?Exited@ScriptImpClass@@UAEXPAVScriptableGameObj@@0@Z PROC ; ScriptImpClass::Exited, COMDAT
; _this$ = ecx

; 251  :   void Exited(GameObject *obj,GameObject *exiter) {}

	push	ebp
	mov	ebp, esp
	sub	esp, 68					; 00000044H
	push	ebx
	push	esi
	push	edi
	mov	DWORD PTR _this$[ebp], ecx
	pop	edi
	pop	esi
	pop	ebx
	mov	esp, ebp
	pop	ebp
	ret	8
?Exited@ScriptImpClass@@UAEXPAVScriptableGameObj@@0@Z ENDP ; ScriptImpClass::Exited
_TEXT	ENDS
; Function compile flags: /Odtp /ZI
; File x:\github\renegade\dragonade_rxd\scripts\scripts.h
;	COMDAT ?Entered@ScriptImpClass@@UAEXPAVScriptableGameObj@@0@Z
_TEXT	SEGMENT
_this$ = -4						; size = 4
_obj$ = 8						; size = 4
_enterer$ = 12						; size = 4
?Entered@ScriptImpClass@@UAEXPAVScriptableGameObj@@0@Z PROC ; ScriptImpClass::Entered, COMDAT
; _this$ = ecx

; 244  :   void Entered(GameObject *obj,GameObject *enterer) {}

	push	ebp
	mov	ebp, esp
	sub	esp, 68					; 00000044H
	push	ebx
	push	esi
	push	edi
	mov	DWORD PTR _this$[ebp], ecx
	pop	edi
	pop	esi
	pop	ebx
	mov	esp, ebp
	pop	ebp
	ret	8
?Entered@ScriptImpClass@@UAEXPAVScriptableGameObj@@0@Z ENDP ; ScriptImpClass::Entered
_TEXT	ENDS
; Function compile flags: /Odtp /ZI
; File x:\github\renegade\dragonade_rxd\scripts\scripts.h
;	COMDAT ?Poked@ScriptImpClass@@UAEXPAVScriptableGameObj@@0@Z
_TEXT	SEGMENT
_this$ = -4						; size = 4
_obj$ = 8						; size = 4
_poker$ = 12						; size = 4
?Poked@ScriptImpClass@@UAEXPAVScriptableGameObj@@0@Z PROC ; ScriptImpClass::Poked, COMDAT
; _this$ = ecx

; 237  :   void Poked(GameObject *obj,GameObject *poker) {}

	push	ebp
	mov	ebp, esp
	sub	esp, 68					; 00000044H
	push	ebx
	push	esi
	push	edi
	mov	DWORD PTR _this$[ebp], ecx
	pop	edi
	pop	esi
	pop	ebx
	mov	esp, ebp
	pop	ebp
	ret	8
?Poked@ScriptImpClass@@UAEXPAVScriptableGameObj@@0@Z ENDP ; ScriptImpClass::Poked
_TEXT	ENDS
; Function compile flags: /Odtp /ZI
; File x:\github\renegade\dragonade_rxd\scripts\scripts.h
;	COMDAT ?Animation_Complete@ScriptImpClass@@UAEXPAVScriptableGameObj@@PBD@Z
_TEXT	SEGMENT
_this$ = -4						; size = 4
_obj$ = 8						; size = 4
_animation_name$ = 12					; size = 4
?Animation_Complete@ScriptImpClass@@UAEXPAVScriptableGameObj@@PBD@Z PROC ; ScriptImpClass::Animation_Complete, COMDAT
; _this$ = ecx

; 229  :   void Animation_Complete(GameObject *obj,const char *animation_name) {}

	push	ebp
	mov	ebp, esp
	sub	esp, 68					; 00000044H
	push	ebx
	push	esi
	push	edi
	mov	DWORD PTR _this$[ebp], ecx
	pop	edi
	pop	esi
	pop	ebx
	mov	esp, ebp
	pop	ebp
	ret	8
?Animation_Complete@ScriptImpClass@@UAEXPAVScriptableGameObj@@PBD@Z ENDP ; ScriptImpClass::Animation_Complete
_TEXT	ENDS
; Function compile flags: /Odtp /ZI
; File x:\github\renegade\dragonade_rxd\scripts\scripts.h
;	COMDAT ?Timer_Expired@ScriptImpClass@@UAEXPAVScriptableGameObj@@H@Z
_TEXT	SEGMENT
_this$ = -4						; size = 4
_obj$ = 8						; size = 4
_number$ = 12						; size = 4
?Timer_Expired@ScriptImpClass@@UAEXPAVScriptableGameObj@@H@Z PROC ; ScriptImpClass::Timer_Expired, COMDAT
; _this$ = ecx

; 221  :   void Timer_Expired(GameObject *obj,int number) {}

	push	ebp
	mov	ebp, esp
	sub	esp, 68					; 00000044H
	push	ebx
	push	esi
	push	edi
	mov	DWORD PTR _this$[ebp], ecx
	pop	edi
	pop	esi
	pop	ebx
	mov	esp, ebp
	pop	ebp
	ret	8
?Timer_Expired@ScriptImpClass@@UAEXPAVScriptableGameObj@@H@Z ENDP ; ScriptImpClass::Timer_Expired
_TEXT	ENDS
; Function compile flags: /Odtp /ZI
; File x:\github\renegade\dragonade_rxd\scripts\scripts.h
;	COMDAT ?Action_Complete@ScriptImpClass@@UAEXPAVScriptableGameObj@@HW4ActionCompleteReason@@@Z
_TEXT	SEGMENT
_this$ = -4						; size = 4
_obj$ = 8						; size = 4
_action_id$ = 12					; size = 4
_complete_reason$ = 16					; size = 4
?Action_Complete@ScriptImpClass@@UAEXPAVScriptableGameObj@@HW4ActionCompleteReason@@@Z PROC ; ScriptImpClass::Action_Complete, COMDAT
; _this$ = ecx

; 212  :   void Action_Complete(GameObject *obj,int action_id,ActionCompleteReason complete_reason) {}

	push	ebp
	mov	ebp, esp
	sub	esp, 68					; 00000044H
	push	ebx
	push	esi
	push	edi
	mov	DWORD PTR _this$[ebp], ecx
	pop	edi
	pop	esi
	pop	ebx
	mov	esp, ebp
	pop	ebp
	ret	12					; 0000000cH
?Action_Complete@ScriptImpClass@@UAEXPAVScriptableGameObj@@HW4ActionCompleteReason@@@Z ENDP ; ScriptImpClass::Action_Complete
_TEXT	ENDS
; Function compile flags: /Odtp /ZI
; File x:\github\renegade\dragonade_rxd\scripts\scripts.h
;	COMDAT ?Enemy_Seen@ScriptImpClass@@UAEXPAVScriptableGameObj@@0@Z
_TEXT	SEGMENT
_this$ = -4						; size = 4
_obj$ = 8						; size = 4
_enemy$ = 12						; size = 4
?Enemy_Seen@ScriptImpClass@@UAEXPAVScriptableGameObj@@0@Z PROC ; ScriptImpClass::Enemy_Seen, COMDAT
; _this$ = ecx

; 201  :   void Enemy_Seen(GameObject *obj,GameObject *enemy) {}

	push	ebp
	mov	ebp, esp
	sub	esp, 68					; 00000044H
	push	ebx
	push	esi
	push	edi
	mov	DWORD PTR _this$[ebp], ecx
	pop	edi
	pop	esi
	pop	ebx
	mov	esp, ebp
	pop	ebp
	ret	8
?Enemy_Seen@ScriptImpClass@@UAEXPAVScriptableGameObj@@0@Z ENDP ; ScriptImpClass::Enemy_Seen
_TEXT	ENDS
; Function compile flags: /Odtp /ZI
; File x:\github\renegade\dragonade_rxd\scripts\scripts.h
;	COMDAT ?Sound_Heard@ScriptImpClass@@UAEXPAVScriptableGameObj@@ABUCombatSound@@@Z
_TEXT	SEGMENT
_this$ = -4						; size = 4
_obj$ = 8						; size = 4
_sound$ = 12						; size = 4
?Sound_Heard@ScriptImpClass@@UAEXPAVScriptableGameObj@@ABUCombatSound@@@Z PROC ; ScriptImpClass::Sound_Heard, COMDAT
; _this$ = ecx

; 193  :   void Sound_Heard(GameObject *obj,const CombatSound & sound) {}

	push	ebp
	mov	ebp, esp
	sub	esp, 68					; 00000044H
	push	ebx
	push	esi
	push	edi
	mov	DWORD PTR _this$[ebp], ecx
	pop	edi
	pop	esi
	pop	ebx
	mov	esp, ebp
	pop	ebp
	ret	8
?Sound_Heard@ScriptImpClass@@UAEXPAVScriptableGameObj@@ABUCombatSound@@@Z ENDP ; ScriptImpClass::Sound_Heard
_TEXT	ENDS
; Function compile flags: /Odtp /ZI
; File x:\github\renegade\dragonade_rxd\scripts\scripts.h
;	COMDAT ?Custom@ScriptImpClass@@UAEXPAVScriptableGameObj@@HH0@Z
_TEXT	SEGMENT
_this$ = -4						; size = 4
_obj$ = 8						; size = 4
_type$ = 12						; size = 4
_param$ = 16						; size = 4
_sender$ = 20						; size = 4
?Custom@ScriptImpClass@@UAEXPAVScriptableGameObj@@HH0@Z PROC ; ScriptImpClass::Custom, COMDAT
; _this$ = ecx

; 184  :   void Custom(GameObject *obj,int type,int param,GameObject *sender) {}

	push	ebp
	mov	ebp, esp
	sub	esp, 68					; 00000044H
	push	ebx
	push	esi
	push	edi
	mov	DWORD PTR _this$[ebp], ecx
	pop	edi
	pop	esi
	pop	ebx
	mov	esp, ebp
	pop	ebp
	ret	16					; 00000010H
?Custom@ScriptImpClass@@UAEXPAVScriptableGameObj@@HH0@Z ENDP ; ScriptImpClass::Custom
_TEXT	ENDS
; Function compile flags: /Odtp /ZI
; File x:\github\renegade\dragonade_rxd\scripts\scripts.h
;	COMDAT ?Damaged@ScriptImpClass@@UAEXPAVScriptableGameObj@@0M@Z
_TEXT	SEGMENT
_this$ = -4						; size = 4
_obj$ = 8						; size = 4
_damager$ = 12						; size = 4
_amount$ = 16						; size = 4
?Damaged@ScriptImpClass@@UAEXPAVScriptableGameObj@@0M@Z PROC ; ScriptImpClass::Damaged, COMDAT
; _this$ = ecx

; 174  :   void Damaged(GameObject *obj,GameObject *damager,float amount) {}

	push	ebp
	mov	ebp, esp
	sub	esp, 68					; 00000044H
	push	ebx
	push	esi
	push	edi
	mov	DWORD PTR _this$[ebp], ecx
	pop	edi
	pop	esi
	pop	ebx
	mov	esp, ebp
	pop	ebp
	ret	12					; 0000000cH
?Damaged@ScriptImpClass@@UAEXPAVScriptableGameObj@@0M@Z ENDP ; ScriptImpClass::Damaged
_TEXT	ENDS
; Function compile flags: /Odtp /ZI
; File x:\github\renegade\dragonade_rxd\scripts\scripts.h
;	COMDAT ?Killed@ScriptImpClass@@UAEXPAVScriptableGameObj@@0@Z
_TEXT	SEGMENT
_this$ = -4						; size = 4
_obj$ = 8						; size = 4
_killer$ = 12						; size = 4
?Killed@ScriptImpClass@@UAEXPAVScriptableGameObj@@0@Z PROC ; ScriptImpClass::Killed, COMDAT
; _this$ = ecx

; 164  :   void Killed(GameObject *obj,GameObject *killer) {}

	push	ebp
	mov	ebp, esp
	sub	esp, 68					; 00000044H
	push	ebx
	push	esi
	push	edi
	mov	DWORD PTR _this$[ebp], ecx
	pop	edi
	pop	esi
	pop	ebx
	mov	esp, ebp
	pop	ebp
	ret	8
?Killed@ScriptImpClass@@UAEXPAVScriptableGameObj@@0@Z ENDP ; ScriptImpClass::Killed
_TEXT	ENDS
; Function compile flags: /Odtp /ZI
; File x:\github\renegade\dragonade_rxd\scripts\scripts.h
;	COMDAT ?Destroyed@ScriptImpClass@@UAEXPAVScriptableGameObj@@@Z
_TEXT	SEGMENT
_this$ = -4						; size = 4
_obj$ = 8						; size = 4
?Destroyed@ScriptImpClass@@UAEXPAVScriptableGameObj@@@Z PROC ; ScriptImpClass::Destroyed, COMDAT
; _this$ = ecx

; 155  :   void Destroyed(GameObject *obj) {}

	push	ebp
	mov	ebp, esp
	sub	esp, 68					; 00000044H
	push	ebx
	push	esi
	push	edi
	mov	DWORD PTR _this$[ebp], ecx
	pop	edi
	pop	esi
	pop	ebx
	mov	esp, ebp
	pop	ebp
	ret	4
?Destroyed@ScriptImpClass@@UAEXPAVScriptableGameObj@@@Z ENDP ; ScriptImpClass::Destroyed
_TEXT	ENDS
; Function compile flags: /Odtp /ZI
; File x:\github\renegade\dragonade_rxd\scripts\scripts.h
;	COMDAT ?Created@ScriptImpClass@@UAEXPAVScriptableGameObj@@@Z
_TEXT	SEGMENT
_this$ = -4						; size = 4
_obj$ = 8						; size = 4
?Created@ScriptImpClass@@UAEXPAVScriptableGameObj@@@Z PROC ; ScriptImpClass::Created, COMDAT
; _this$ = ecx

; 149  :   void Created(GameObject *obj) {}

	push	ebp
	mov	ebp, esp
	sub	esp, 68					; 00000044H
	push	ebx
	push	esi
	push	edi
	mov	DWORD PTR _this$[ebp], ecx
	pop	edi
	pop	esi
	pop	ebx
	mov	esp, ebp
	pop	ebp
	ret	4
?Created@ScriptImpClass@@UAEXPAVScriptableGameObj@@@Z ENDP ; ScriptImpClass::Created
_TEXT	ENDS
; Function compile flags: /Odtp /ZI
; File x:\github\renegade\dragonade_rxd\scripts\scripts.h
;	COMDAT ?SetFactory@ScriptImpClass@@QAEXPAVScriptFactory@@@Z
_TEXT	SEGMENT
_this$ = -4						; size = 4
_factory$ = 8						; size = 4
?SetFactory@ScriptImpClass@@QAEXPAVScriptFactory@@@Z PROC ; ScriptImpClass::SetFactory, COMDAT
; _this$ = ecx

; 136  : 	{

	push	ebp
	mov	ebp, esp
	sub	esp, 68					; 00000044H
	push	ebx
	push	esi
	push	edi
	mov	DWORD PTR _this$[ebp], ecx

; 137  : 		mFactory = factory;

	mov	eax, DWORD PTR _this$[ebp]
	mov	ecx, DWORD PTR _factory$[ebp]
	mov	DWORD PTR [eax+20], ecx

; 138  : 	}

	pop	edi
	pop	esi
	pop	ebx
	mov	esp, ebp
	pop	ebp
	ret	4
?SetFactory@ScriptImpClass@@QAEXPAVScriptFactory@@@Z ENDP ; ScriptImpClass::SetFactory
_TEXT	ENDS
; Function compile flags: /Odtp /ZI
;	COMDAT ??_EScriptClass@@UAEPAXI@Z
_TEXT	SEGMENT
_this$ = -4						; size = 4
___flags$ = 8						; size = 4
??_EScriptClass@@UAEPAXI@Z PROC				; ScriptClass::`vector deleting destructor', COMDAT
; _this$ = ecx
	push	ebp
	mov	ebp, esp
	sub	esp, 68					; 00000044H
	push	ebx
	push	esi
	push	edi
	mov	DWORD PTR _this$[ebp], ecx
	mov	eax, DWORD PTR ___flags$[ebp]
	and	eax, 2
	je	SHORT $LN3@vector
	push	OFFSET ??1ScriptClass@@UAE@XZ		; ScriptClass::~ScriptClass
	mov	eax, DWORD PTR _this$[ebp]
	mov	ecx, DWORD PTR [eax-4]
	push	ecx
	push	8
	mov	edx, DWORD PTR _this$[ebp]
	push	edx
	call	??_I@YGXPAXIHP6EX0@Z@Z
	mov	eax, DWORD PTR ___flags$[ebp]
	and	eax, 1
	je	SHORT $LN2@vector
	mov	eax, DWORD PTR _this$[ebp]
	sub	eax, 4
	push	eax
	call	??_V@YAXPAX@Z				; operator delete[]
	add	esp, 4
$LN2@vector:
	mov	eax, DWORD PTR _this$[ebp]
	sub	eax, 4
	jmp	SHORT $LN4@vector
$LN3@vector:
	mov	ecx, DWORD PTR _this$[ebp]
	call	??1ScriptClass@@UAE@XZ			; ScriptClass::~ScriptClass
	mov	eax, DWORD PTR ___flags$[ebp]
	and	eax, 1
	je	SHORT $LN1@vector
	mov	eax, DWORD PTR _this$[ebp]
	push	eax
	call	??3@YAXPAX@Z				; operator delete
	add	esp, 4
$LN1@vector:
	mov	eax, DWORD PTR _this$[ebp]
$LN4@vector:
	pop	edi
	pop	esi
	pop	ebx
	mov	esp, ebp
	pop	ebp
	ret	4
??_EScriptClass@@UAEPAXI@Z ENDP				; ScriptClass::`vector deleting destructor'
_TEXT	ENDS
; Function compile flags: /Odtp /ZI
;	COMDAT ??_GScriptClass@@UAEPAXI@Z
_TEXT	SEGMENT
_this$ = -4						; size = 4
___flags$ = 8						; size = 4
??_GScriptClass@@UAEPAXI@Z PROC				; ScriptClass::`scalar deleting destructor', COMDAT
; _this$ = ecx
	push	ebp
	mov	ebp, esp
	sub	esp, 68					; 00000044H
	push	ebx
	push	esi
	push	edi
	mov	DWORD PTR _this$[ebp], ecx
	mov	ecx, DWORD PTR _this$[ebp]
	call	??1ScriptClass@@UAE@XZ			; ScriptClass::~ScriptClass
	mov	eax, DWORD PTR ___flags$[ebp]
	and	eax, 1
	je	SHORT $LN1@scalar
	mov	eax, DWORD PTR _this$[ebp]
	push	eax
	call	??3@YAXPAX@Z				; operator delete
	add	esp, 4
$LN1@scalar:
	mov	eax, DWORD PTR _this$[ebp]
	pop	edi
	pop	esi
	pop	ebx
	mov	esp, ebp
	pop	ebp
	ret	4
??_GScriptClass@@UAEPAXI@Z ENDP				; ScriptClass::`scalar deleting destructor'
_TEXT	ENDS
; Function compile flags: /Odtp /ZI
;	COMDAT ??4ScriptClass@@QAEAAV0@ABV0@@Z
_TEXT	SEGMENT
_this$ = -4						; size = 4
___that$ = 8						; size = 4
??4ScriptClass@@QAEAAV0@ABV0@@Z PROC			; ScriptClass::operator=, COMDAT
; _this$ = ecx
	push	ebp
	mov	ebp, esp
	sub	esp, 68					; 00000044H
	push	ebx
	push	esi
	push	edi
	mov	DWORD PTR _this$[ebp], ecx
	mov	eax, DWORD PTR ___that$[ebp]
	push	eax
	mov	ecx, DWORD PTR _this$[ebp]
	call	??4GameObjObserverClass@@QAEAAV0@ABV0@@Z
	mov	eax, DWORD PTR _this$[ebp]
	pop	edi
	pop	esi
	pop	ebx
	mov	esp, ebp
	pop	ebp
	ret	4
??4ScriptClass@@QAEAAV0@ABV0@@Z ENDP			; ScriptClass::operator=
_TEXT	ENDS
; Function compile flags: /Odtp /ZI
;	COMDAT ??0ScriptClass@@QAE@ABV0@@Z
_TEXT	SEGMENT
_this$ = -4						; size = 4
___that$ = 8						; size = 4
??0ScriptClass@@QAE@ABV0@@Z PROC			; ScriptClass::ScriptClass, COMDAT
; _this$ = ecx
	push	ebp
	mov	ebp, esp
	sub	esp, 68					; 00000044H
	push	ebx
	push	esi
	push	edi
	mov	DWORD PTR _this$[ebp], ecx
	mov	eax, DWORD PTR ___that$[ebp]
	push	eax
	mov	ecx, DWORD PTR _this$[ebp]
	call	??0GameObjObserverClass@@QAE@ABV0@@Z
	mov	eax, DWORD PTR _this$[ebp]
	mov	DWORD PTR [eax], OFFSET ??_7ScriptClass@@6B@
	mov	eax, DWORD PTR _this$[ebp]
	pop	edi
	pop	esi
	pop	ebx
	mov	esp, ebp
	pop	ebp
	ret	4
??0ScriptClass@@QAE@ABV0@@Z ENDP			; ScriptClass::ScriptClass
_TEXT	ENDS
; Function compile flags: /Odtp /ZI
;	COMDAT ??0ScriptClass@@QAE@XZ
_TEXT	SEGMENT
_this$ = -4						; size = 4
??0ScriptClass@@QAE@XZ PROC				; ScriptClass::ScriptClass, COMDAT
; _this$ = ecx
	push	ebp
	mov	ebp, esp
	sub	esp, 68					; 00000044H
	push	ebx
	push	esi
	push	edi
	mov	DWORD PTR _this$[ebp], ecx
	mov	ecx, DWORD PTR _this$[ebp]
	call	??0GameObjObserverClass@@QAE@XZ		; GameObjObserverClass::GameObjObserverClass
	mov	eax, DWORD PTR _this$[ebp]
	mov	DWORD PTR [eax], OFFSET ??_7ScriptClass@@6B@
	mov	eax, DWORD PTR _this$[ebp]
	pop	edi
	pop	esi
	pop	ebx
	mov	esp, ebp
	pop	ebp
	ret	0
??0ScriptClass@@QAE@XZ ENDP				; ScriptClass::ScriptClass
_TEXT	ENDS
; Function compile flags: /Odtp /ZI
; File x:\github\renegade\dragonade_rxd\scripts\scripts.h
;	COMDAT ??1ScriptClass@@UAE@XZ
_TEXT	SEGMENT
_this$ = -4						; size = 4
??1ScriptClass@@UAE@XZ PROC				; ScriptClass::~ScriptClass, COMDAT
; _this$ = ecx

; 124  : 	virtual ~ScriptClass() {}

	push	ebp
	mov	ebp, esp
	sub	esp, 68					; 00000044H
	push	ebx
	push	esi
	push	edi
	mov	DWORD PTR _this$[ebp], ecx
	mov	eax, DWORD PTR _this$[ebp]
	mov	DWORD PTR [eax], OFFSET ??_7ScriptClass@@6B@
	mov	ecx, DWORD PTR _this$[ebp]
	call	??1GameObjObserverClass@@UAE@XZ		; GameObjObserverClass::~GameObjObserverClass
	pop	edi
	pop	esi
	pop	ebx
	mov	esp, ebp
	pop	ebp
	ret	0
??1ScriptClass@@UAE@XZ ENDP				; ScriptClass::~ScriptClass
_TEXT	ENDS
; Function compile flags: /Odtp /ZI
;	COMDAT ??_EGameObjObserverClass@@UAEPAXI@Z
_TEXT	SEGMENT
_this$ = -4						; size = 4
___flags$ = 8						; size = 4
??_EGameObjObserverClass@@UAEPAXI@Z PROC		; GameObjObserverClass::`vector deleting destructor', COMDAT
; _this$ = ecx
	push	ebp
	mov	ebp, esp
	sub	esp, 68					; 00000044H
	push	ebx
	push	esi
	push	edi
	mov	DWORD PTR _this$[ebp], ecx
	mov	eax, DWORD PTR ___flags$[ebp]
	and	eax, 2
	je	SHORT $LN3@vector
	push	OFFSET ??1GameObjObserverClass@@UAE@XZ	; GameObjObserverClass::~GameObjObserverClass
	mov	eax, DWORD PTR _this$[ebp]
	mov	ecx, DWORD PTR [eax-4]
	push	ecx
	push	8
	mov	edx, DWORD PTR _this$[ebp]
	push	edx
	call	??_I@YGXPAXIHP6EX0@Z@Z
	mov	eax, DWORD PTR ___flags$[ebp]
	and	eax, 1
	je	SHORT $LN2@vector
	mov	eax, DWORD PTR _this$[ebp]
	sub	eax, 4
	push	eax
	call	??_V@YAXPAX@Z				; operator delete[]
	add	esp, 4
$LN2@vector:
	mov	eax, DWORD PTR _this$[ebp]
	sub	eax, 4
	jmp	SHORT $LN4@vector
$LN3@vector:
	mov	ecx, DWORD PTR _this$[ebp]
	call	??1GameObjObserverClass@@UAE@XZ		; GameObjObserverClass::~GameObjObserverClass
	mov	eax, DWORD PTR ___flags$[ebp]
	and	eax, 1
	je	SHORT $LN1@vector
	mov	eax, DWORD PTR _this$[ebp]
	push	eax
	call	??3@YAXPAX@Z				; operator delete
	add	esp, 4
$LN1@vector:
	mov	eax, DWORD PTR _this$[ebp]
$LN4@vector:
	pop	edi
	pop	esi
	pop	ebx
	mov	esp, ebp
	pop	ebp
	ret	4
??_EGameObjObserverClass@@UAEPAXI@Z ENDP		; GameObjObserverClass::`vector deleting destructor'
_TEXT	ENDS
; Function compile flags: /Odtp /ZI
;	COMDAT ??_GGameObjObserverClass@@UAEPAXI@Z
_TEXT	SEGMENT
_this$ = -4						; size = 4
___flags$ = 8						; size = 4
??_GGameObjObserverClass@@UAEPAXI@Z PROC		; GameObjObserverClass::`scalar deleting destructor', COMDAT
; _this$ = ecx
	push	ebp
	mov	ebp, esp
	sub	esp, 68					; 00000044H
	push	ebx
	push	esi
	push	edi
	mov	DWORD PTR _this$[ebp], ecx
	mov	ecx, DWORD PTR _this$[ebp]
	call	??1GameObjObserverClass@@UAE@XZ		; GameObjObserverClass::~GameObjObserverClass
	mov	eax, DWORD PTR ___flags$[ebp]
	and	eax, 1
	je	SHORT $LN1@scalar
	mov	eax, DWORD PTR _this$[ebp]
	push	eax
	call	??3@YAXPAX@Z				; operator delete
	add	esp, 4
$LN1@scalar:
	mov	eax, DWORD PTR _this$[ebp]
	pop	edi
	pop	esi
	pop	ebx
	mov	esp, ebp
	pop	ebp
	ret	4
??_GGameObjObserverClass@@UAEPAXI@Z ENDP		; GameObjObserverClass::`scalar deleting destructor'
_TEXT	ENDS
; Function compile flags: /Odtp /ZI
;	COMDAT ??4GameObjObserverClass@@QAEAAV0@ABV0@@Z
_TEXT	SEGMENT
_this$ = -4						; size = 4
___that$ = 8						; size = 4
??4GameObjObserverClass@@QAEAAV0@ABV0@@Z PROC		; GameObjObserverClass::operator=, COMDAT
; _this$ = ecx
	push	ebp
	mov	ebp, esp
	sub	esp, 68					; 00000044H
	push	ebx
	push	esi
	push	edi
	mov	DWORD PTR _this$[ebp], ecx
	mov	eax, DWORD PTR _this$[ebp]
	mov	ecx, DWORD PTR ___that$[ebp]
	mov	edx, DWORD PTR [ecx+4]
	mov	DWORD PTR [eax+4], edx
	mov	eax, DWORD PTR _this$[ebp]
	pop	edi
	pop	esi
	pop	ebx
	mov	esp, ebp
	pop	ebp
	ret	4
??4GameObjObserverClass@@QAEAAV0@ABV0@@Z ENDP		; GameObjObserverClass::operator=
_TEXT	ENDS
; Function compile flags: /Odtp /ZI
;	COMDAT ??0GameObjObserverClass@@QAE@ABV0@@Z
_TEXT	SEGMENT
_this$ = -4						; size = 4
___that$ = 8						; size = 4
??0GameObjObserverClass@@QAE@ABV0@@Z PROC		; GameObjObserverClass::GameObjObserverClass, COMDAT
; _this$ = ecx
	push	ebp
	mov	ebp, esp
	sub	esp, 68					; 00000044H
	push	ebx
	push	esi
	push	edi
	mov	DWORD PTR _this$[ebp], ecx
	mov	eax, DWORD PTR _this$[ebp]
	mov	DWORD PTR [eax], OFFSET ??_7GameObjObserverClass@@6B@
	mov	eax, DWORD PTR _this$[ebp]
	mov	ecx, DWORD PTR ___that$[ebp]
	mov	edx, DWORD PTR [ecx+4]
	mov	DWORD PTR [eax+4], edx
	mov	eax, DWORD PTR _this$[ebp]
	pop	edi
	pop	esi
	pop	ebx
	mov	esp, ebp
	pop	ebp
	ret	4
??0GameObjObserverClass@@QAE@ABV0@@Z ENDP		; GameObjObserverClass::GameObjObserverClass
_TEXT	ENDS
; Function compile flags: /Odtp /ZI
; File x:\github\renegade\dragonade_rxd\scripts\scripts.h
;	COMDAT ?Owner@GameObjObserverClass@@UAEPAVScriptableGameObj@@XZ
_TEXT	SEGMENT
_this$ = -4						; size = 4
?Owner@GameObjObserverClass@@UAEPAVScriptableGameObj@@XZ PROC ; GameObjObserverClass::Owner, COMDAT
; _this$ = ecx

; 117  : 	virtual GameObject* Owner() {return 0;}

	push	ebp
	mov	ebp, esp
	sub	esp, 68					; 00000044H
	push	ebx
	push	esi
	push	edi
	mov	DWORD PTR _this$[ebp], ecx
	xor	eax, eax
	pop	edi
	pop	esi
	pop	ebx
	mov	esp, ebp
	pop	ebp
	ret	0
?Owner@GameObjObserverClass@@UAEPAVScriptableGameObj@@XZ ENDP ; GameObjObserverClass::Owner
_TEXT	ENDS
; Function compile flags: /Odtp /ZI
; File x:\github\renegade\dragonade_rxd\scripts\scripts.h
;	COMDAT ?Get_ID@GameObjObserverClass@@QAEHXZ
_TEXT	SEGMENT
_this$ = -4						; size = 4
?Get_ID@GameObjObserverClass@@QAEHXZ PROC		; GameObjObserverClass::Get_ID, COMDAT
; _this$ = ecx

; 99   : 	{

	push	ebp
	mov	ebp, esp
	sub	esp, 68					; 00000044H
	push	ebx
	push	esi
	push	edi
	mov	DWORD PTR _this$[ebp], ecx

; 100  : 		return ID;

	mov	eax, DWORD PTR _this$[ebp]
	mov	eax, DWORD PTR [eax+4]

; 101  : 	}

	pop	edi
	pop	esi
	pop	ebx
	mov	esp, ebp
	pop	ebp
	ret	0
?Get_ID@GameObjObserverClass@@QAEHXZ ENDP		; GameObjObserverClass::Get_ID
_TEXT	ENDS
; Function compile flags: /Odtp /ZI
; File x:\github\renegade\dragonade_rxd\scripts\scripts.h
;	COMDAT ?Set_ID@GameObjObserverClass@@QAEXH@Z
_TEXT	SEGMENT
_this$ = -4						; size = 4
_id$ = 8						; size = 4
?Set_ID@GameObjObserverClass@@QAEXH@Z PROC		; GameObjObserverClass::Set_ID, COMDAT
; _this$ = ecx

; 95   : 	{

	push	ebp
	mov	ebp, esp
	sub	esp, 68					; 00000044H
	push	ebx
	push	esi
	push	edi
	mov	DWORD PTR _this$[ebp], ecx

; 96   : 		ID = id;

	mov	eax, DWORD PTR _this$[ebp]
	mov	ecx, DWORD PTR _id$[ebp]
	mov	DWORD PTR [eax+4], ecx

; 97   : 	}

	pop	edi
	pop	esi
	pop	ebx
	mov	esp, ebp
	pop	ebp
	ret	4
?Set_ID@GameObjObserverClass@@QAEXH@Z ENDP		; GameObjObserverClass::Set_ID
_TEXT	ENDS
; Function compile flags: /Odtp /ZI
; File x:\github\renegade\dragonade_rxd\scripts\scripts.h
;	COMDAT ??1GameObjObserverClass@@UAE@XZ
_TEXT	SEGMENT
_this$ = -4						; size = 4
??1GameObjObserverClass@@UAE@XZ PROC			; GameObjObserverClass::~GameObjObserverClass, COMDAT
; _this$ = ecx

; 92   : 	virtual	~GameObjObserverClass() {}

	push	ebp
	mov	ebp, esp
	sub	esp, 68					; 00000044H
	push	ebx
	push	esi
	push	edi
	mov	DWORD PTR _this$[ebp], ecx
	mov	eax, DWORD PTR _this$[ebp]
	mov	DWORD PTR [eax], OFFSET ??_7GameObjObserverClass@@6B@
	pop	edi
	pop	esi
	pop	ebx
	mov	esp, ebp
	pop	ebp
	ret	0
??1GameObjObserverClass@@UAE@XZ ENDP			; GameObjObserverClass::~GameObjObserverClass
_TEXT	ENDS
; Function compile flags: /Odtp /ZI
; File x:\github\renegade\dragonade_rxd\scripts\scripts.h
;	COMDAT ??0GameObjObserverClass@@QAE@XZ
_TEXT	SEGMENT
_this$ = -4						; size = 4
??0GameObjObserverClass@@QAE@XZ PROC			; GameObjObserverClass::GameObjObserverClass, COMDAT
; _this$ = ecx

; 91   : 	GameObjObserverClass() : ID( 0 ) {}

	push	ebp
	mov	ebp, esp
	sub	esp, 68					; 00000044H
	push	ebx
	push	esi
	push	edi
	mov	DWORD PTR _this$[ebp], ecx
	mov	eax, DWORD PTR _this$[ebp]
	mov	DWORD PTR [eax], OFFSET ??_7GameObjObserverClass@@6B@
	mov	eax, DWORD PTR _this$[ebp]
	mov	DWORD PTR [eax+4], 0
	mov	eax, DWORD PTR _this$[ebp]
	pop	edi
	pop	esi
	pop	ebx
	mov	esp, ebp
	pop	ebp
	ret	0
??0GameObjObserverClass@@QAE@XZ ENDP			; GameObjObserverClass::GameObjObserverClass
_TEXT	ENDS
; Function compile flags: /Odtp /ZI
; File x:\github\renegade\dragonade_rxd\scripts\vector3.h
;	COMDAT ?Add@Vector3@@SAXABV1@0PAV1@@Z
_TEXT	SEGMENT
_a$ = 8							; size = 4
_b$ = 12						; size = 4
_set_result$ = 16					; size = 4
?Add@Vector3@@SAXABV1@0PAV1@@Z PROC			; Vector3::Add, COMDAT

; 212  : 	{

	push	ebp
	mov	ebp, esp
	sub	esp, 64					; 00000040H
	push	ebx
	push	esi
	push	edi

; 213  : 		set_result->X = a.X + b.X;

	mov	eax, DWORD PTR _a$[ebp]
	mov	ecx, DWORD PTR _b$[ebp]
	movss	xmm0, DWORD PTR [eax]
	addss	xmm0, DWORD PTR [ecx]
	mov	edx, DWORD PTR _set_result$[ebp]
	movss	DWORD PTR [edx], xmm0

; 214  : 		set_result->Y = a.Y + b.Y;

	mov	eax, DWORD PTR _a$[ebp]
	mov	ecx, DWORD PTR _b$[ebp]
	movss	xmm0, DWORD PTR [eax+4]
	addss	xmm0, DWORD PTR [ecx+4]
	mov	edx, DWORD PTR _set_result$[ebp]
	movss	DWORD PTR [edx+4], xmm0

; 215  : 		set_result->Z = a.Z + b.Z;

	mov	eax, DWORD PTR _a$[ebp]
	mov	ecx, DWORD PTR _b$[ebp]
	movss	xmm0, DWORD PTR [eax+8]
	addss	xmm0, DWORD PTR [ecx+8]
	mov	edx, DWORD PTR _set_result$[ebp]
	movss	DWORD PTR [edx+8], xmm0

; 216  : 	}

	pop	edi
	pop	esi
	pop	ebx
	mov	esp, ebp
	pop	ebp
	ret	0
?Add@Vector3@@SAXABV1@0PAV1@@Z ENDP			; Vector3::Add
_TEXT	ENDS
; Function compile flags: /Odtp /ZI
; File x:\github\renegade\dragonade_rxd\scripts\vector3.h
;	COMDAT ??G@YA?AVVector3@@ABV0@0@Z
_TEXT	SEGMENT
___$ReturnUdt$ = 8					; size = 4
_a$ = 12						; size = 4
_b$ = 16						; size = 4
??G@YA?AVVector3@@ABV0@0@Z PROC				; operator-, COMDAT

; 377  : {

	push	ebp
	mov	ebp, esp
	sub	esp, 64					; 00000040H
	push	ebx
	push	esi
	push	edi

; 378  : 	return Vector3(a.X - b.X,a.Y - b.Y,a.Z - b.Z);

	mov	eax, DWORD PTR _a$[ebp]
	mov	ecx, DWORD PTR _b$[ebp]
	movss	xmm0, DWORD PTR [eax+8]
	subss	xmm0, DWORD PTR [ecx+8]
	push	ecx
	movss	DWORD PTR [esp], xmm0
	mov	edx, DWORD PTR _a$[ebp]
	mov	eax, DWORD PTR _b$[ebp]
	movss	xmm0, DWORD PTR [edx+4]
	subss	xmm0, DWORD PTR [eax+4]
	push	ecx
	movss	DWORD PTR [esp], xmm0
	mov	ecx, DWORD PTR _a$[ebp]
	mov	edx, DWORD PTR _b$[ebp]
	movss	xmm0, DWORD PTR [ecx]
	subss	xmm0, DWORD PTR [edx]
	push	ecx
	movss	DWORD PTR [esp], xmm0
	mov	ecx, DWORD PTR ___$ReturnUdt$[ebp]
	call	??0Vector3@@QAE@MMM@Z			; Vector3::Vector3
	mov	eax, DWORD PTR ___$ReturnUdt$[ebp]

; 379  : }

	pop	edi
	pop	esi
	pop	ebx
	mov	esp, ebp
	pop	ebp
	ret	0
??G@YA?AVVector3@@ABV0@0@Z ENDP				; operator-
_TEXT	ENDS
; Function compile flags: /Odtp /ZI
; File x:\github\renegade\dragonade_rxd\scripts\vector3.h
;	COMDAT ??H@YA?AVVector3@@ABV0@0@Z
_TEXT	SEGMENT
___$ReturnUdt$ = 8					; size = 4
_a$ = 12						; size = 4
_b$ = 16						; size = 4
??H@YA?AVVector3@@ABV0@0@Z PROC				; operator+, COMDAT

; 373  : {

	push	ebp
	mov	ebp, esp
	sub	esp, 64					; 00000040H
	push	ebx
	push	esi
	push	edi

; 374  : 	return Vector3(a.X + b.X,a.Y + b.Y,a.Z + b.Z);

	mov	eax, DWORD PTR _a$[ebp]
	mov	ecx, DWORD PTR _b$[ebp]
	movss	xmm0, DWORD PTR [eax+8]
	addss	xmm0, DWORD PTR [ecx+8]
	push	ecx
	movss	DWORD PTR [esp], xmm0
	mov	edx, DWORD PTR _a$[ebp]
	mov	eax, DWORD PTR _b$[ebp]
	movss	xmm0, DWORD PTR [edx+4]
	addss	xmm0, DWORD PTR [eax+4]
	push	ecx
	movss	DWORD PTR [esp], xmm0
	mov	ecx, DWORD PTR _a$[ebp]
	mov	edx, DWORD PTR _b$[ebp]
	movss	xmm0, DWORD PTR [ecx]
	addss	xmm0, DWORD PTR [edx]
	push	ecx
	movss	DWORD PTR [esp], xmm0
	mov	ecx, DWORD PTR ___$ReturnUdt$[ebp]
	call	??0Vector3@@QAE@MMM@Z			; Vector3::Vector3
	mov	eax, DWORD PTR ___$ReturnUdt$[ebp]

; 375  : }

	pop	edi
	pop	esi
	pop	ebx
	mov	esp, ebp
	pop	ebp
	ret	0
??H@YA?AVVector3@@ABV0@0@Z ENDP				; operator+
_TEXT	ENDS
; Function compile flags: /Odtp /ZI
; File x:\github\renegade\dragonade_rxd\scripts\vector3.h
;	COMDAT ??D@YA?AVVector3@@MABV0@@Z
_TEXT	SEGMENT
___$ReturnUdt$ = 8					; size = 4
_k$ = 12						; size = 4
_a$ = 16						; size = 4
??D@YA?AVVector3@@MABV0@@Z PROC				; operator*, COMDAT

; 365  : {

	push	ebp
	mov	ebp, esp
	sub	esp, 64					; 00000040H
	push	ebx
	push	esi
	push	edi

; 366  : 	return Vector3((a.X * k),(a.Y * k),(a.Z * k));

	mov	eax, DWORD PTR _a$[ebp]
	movss	xmm0, DWORD PTR [eax+8]
	mulss	xmm0, DWORD PTR _k$[ebp]
	push	ecx
	movss	DWORD PTR [esp], xmm0
	mov	ecx, DWORD PTR _a$[ebp]
	movss	xmm0, DWORD PTR [ecx+4]
	mulss	xmm0, DWORD PTR _k$[ebp]
	push	ecx
	movss	DWORD PTR [esp], xmm0
	mov	edx, DWORD PTR _a$[ebp]
	movss	xmm0, DWORD PTR [edx]
	mulss	xmm0, DWORD PTR _k$[ebp]
	push	ecx
	movss	DWORD PTR [esp], xmm0
	mov	ecx, DWORD PTR ___$ReturnUdt$[ebp]
	call	??0Vector3@@QAE@MMM@Z			; Vector3::Vector3
	mov	eax, DWORD PTR ___$ReturnUdt$[ebp]

; 367  : }

	pop	edi
	pop	esi
	pop	ebx
	mov	esp, ebp
	pop	ebp
	ret	0
??D@YA?AVVector3@@MABV0@@Z ENDP				; operator*
_TEXT	ENDS
; Function compile flags: /Odtp /ZI
; File x:\github\renegade\dragonade_rxd\scripts\vector3.h
;	COMDAT ??D@YA?AVVector3@@ABV0@M@Z
_TEXT	SEGMENT
___$ReturnUdt$ = 8					; size = 4
_a$ = 12						; size = 4
_k$ = 16						; size = 4
??D@YA?AVVector3@@ABV0@M@Z PROC				; operator*, COMDAT

; 361  : {

	push	ebp
	mov	ebp, esp
	sub	esp, 64					; 00000040H
	push	ebx
	push	esi
	push	edi

; 362  : 	return Vector3((a.X * k),(a.Y * k),(a.Z * k));

	mov	eax, DWORD PTR _a$[ebp]
	movss	xmm0, DWORD PTR [eax+8]
	mulss	xmm0, DWORD PTR _k$[ebp]
	push	ecx
	movss	DWORD PTR [esp], xmm0
	mov	ecx, DWORD PTR _a$[ebp]
	movss	xmm0, DWORD PTR [ecx+4]
	mulss	xmm0, DWORD PTR _k$[ebp]
	push	ecx
	movss	DWORD PTR [esp], xmm0
	mov	edx, DWORD PTR _a$[ebp]
	movss	xmm0, DWORD PTR [edx]
	mulss	xmm0, DWORD PTR _k$[ebp]
	push	ecx
	movss	DWORD PTR [esp], xmm0
	mov	ecx, DWORD PTR ___$ReturnUdt$[ebp]
	call	??0Vector3@@QAE@MMM@Z			; Vector3::Vector3
	mov	eax, DWORD PTR ___$ReturnUdt$[ebp]

; 363  : }

	pop	edi
	pop	esi
	pop	ebx
	mov	esp, ebp
	pop	ebp
	ret	0
??D@YA?AVVector3@@ABV0@M@Z ENDP				; operator*
_TEXT	ENDS
; Function compile flags: /Odtp /ZI
; File x:\github\renegade\dragonade_rxd\scripts\vector3.h
;	COMDAT ?Length2@Vector3@@QBEMXZ
_TEXT	SEGMENT
tv85 = -72						; size = 4
_this$ = -4						; size = 4
?Length2@Vector3@@QBEMXZ PROC				; Vector3::Length2, COMDAT
; _this$ = ecx

; 92   : 	{

	push	ebp
	mov	ebp, esp
	sub	esp, 72					; 00000048H
	push	ebx
	push	esi
	push	edi
	mov	DWORD PTR _this$[ebp], ecx

; 93   : 		return X * X + Y * Y + Z * Z;

	mov	eax, DWORD PTR _this$[ebp]
	mov	ecx, DWORD PTR _this$[ebp]
	movss	xmm0, DWORD PTR [eax]
	mulss	xmm0, DWORD PTR [ecx]
	mov	edx, DWORD PTR _this$[ebp]
	mov	eax, DWORD PTR _this$[ebp]
	movss	xmm1, DWORD PTR [edx+4]
	mulss	xmm1, DWORD PTR [eax+4]
	addss	xmm0, xmm1
	mov	ecx, DWORD PTR _this$[ebp]
	mov	edx, DWORD PTR _this$[ebp]
	movss	xmm1, DWORD PTR [ecx+8]
	mulss	xmm1, DWORD PTR [edx+8]
	addss	xmm0, xmm1
	movss	DWORD PTR tv85[ebp], xmm0
	fld	DWORD PTR tv85[ebp]

; 94   : 	}

	pop	edi
	pop	esi
	pop	ebx
	mov	esp, ebp
	pop	ebp
	ret	0
?Length2@Vector3@@QBEMXZ ENDP				; Vector3::Length2
_TEXT	ENDS
; Function compile flags: /Odtp /ZI
; File x:\github\renegade\dragonade_rxd\scripts\vector3.h
;	COMDAT ?Length@Vector3@@QBEMXZ
_TEXT	SEGMENT
_this$ = -4						; size = 4
?Length@Vector3@@QBEMXZ PROC				; Vector3::Length, COMDAT
; _this$ = ecx

; 88   : 	{

	push	ebp
	mov	ebp, esp
	sub	esp, 68					; 00000044H
	push	ebx
	push	esi
	push	edi
	mov	DWORD PTR _this$[ebp], ecx

; 89   : 		return WWMath::Sqrt(Length2());

	mov	ecx, DWORD PTR _this$[ebp]
	call	?Length2@Vector3@@QBEMXZ		; Vector3::Length2
	push	ecx
	fstp	DWORD PTR [esp]
	call	?Sqrt@WWMath@@SAMM@Z			; WWMath::Sqrt
	add	esp, 4

; 90   : 	}

	pop	edi
	pop	esi
	pop	ebx
	mov	esp, ebp
	pop	ebp
	ret	0
?Length@Vector3@@QBEMXZ ENDP				; Vector3::Length
_TEXT	ENDS
; Function compile flags: /Odtp /ZI
; File x:\github\renegade\dragonade_rxd\scripts\vector3.h
;	COMDAT ?Normalize@Vector3@@QAEXXZ
_TEXT	SEGMENT
tv81 = -80						; size = 4
_oolen$ = -12						; size = 4
_len2$ = -8						; size = 4
_this$ = -4						; size = 4
?Normalize@Vector3@@QAEXXZ PROC				; Vector3::Normalize, COMDAT
; _this$ = ecx

; 74   : 	{

	push	ebp
	mov	ebp, esp
	sub	esp, 80					; 00000050H
	push	ebx
	push	esi
	push	edi
	mov	DWORD PTR _this$[ebp], ecx

; 75   : 		float len2 = WWMATH_FLOAT_TINY + Length2();

	mov	ecx, DWORD PTR _this$[ebp]
	call	?Length2@Vector3@@QBEMXZ		; Vector3::Length2
	fstp	DWORD PTR tv81[ebp]
	movss	xmm0, DWORD PTR tv81[ebp]
	addss	xmm0, DWORD PTR __real@02081cea
	movss	DWORD PTR _len2$[ebp], xmm0

; 76   : 		float oolen = WWMath::Inv_Sqrt(len2);

	push	ecx
	movss	xmm0, DWORD PTR _len2$[ebp]
	movss	DWORD PTR [esp], xmm0
	call	?Inv_Sqrt@WWMath@@SIMM@Z		; WWMath::Inv_Sqrt
	fstp	DWORD PTR _oolen$[ebp]

; 77   : 		X *= oolen;

	mov	eax, DWORD PTR _this$[ebp]
	movss	xmm0, DWORD PTR [eax]
	mulss	xmm0, DWORD PTR _oolen$[ebp]
	mov	ecx, DWORD PTR _this$[ebp]
	movss	DWORD PTR [ecx], xmm0

; 78   : 		Y *= oolen;

	mov	eax, DWORD PTR _this$[ebp]
	movss	xmm0, DWORD PTR [eax+4]
	mulss	xmm0, DWORD PTR _oolen$[ebp]
	mov	ecx, DWORD PTR _this$[ebp]
	movss	DWORD PTR [ecx+4], xmm0

; 79   : 		Z *= oolen;

	mov	eax, DWORD PTR _this$[ebp]
	movss	xmm0, DWORD PTR [eax+8]
	mulss	xmm0, DWORD PTR _oolen$[ebp]
	mov	ecx, DWORD PTR _this$[ebp]
	movss	DWORD PTR [ecx+8], xmm0

; 80   : 	}

	pop	edi
	pop	esi
	pop	ebx
	mov	esp, ebp
	pop	ebp
	ret	0
?Normalize@Vector3@@QAEXXZ ENDP				; Vector3::Normalize
_TEXT	ENDS
; Function compile flags: /Odtp /ZI
; File x:\github\renegade\dragonade_rxd\scripts\vector3.h
;	COMDAT ??AVector3@@QBEABMH@Z
_TEXT	SEGMENT
_this$ = -4						; size = 4
_i$ = 8							; size = 4
??AVector3@@QBEABMH@Z PROC				; Vector3::operator[], COMDAT
; _this$ = ecx

; 70   : 	{

	push	ebp
	mov	ebp, esp
	sub	esp, 68					; 00000044H
	push	ebx
	push	esi
	push	edi
	mov	DWORD PTR _this$[ebp], ecx

; 71   : 		return (&X)[i];

	mov	eax, DWORD PTR _i$[ebp]
	mov	ecx, DWORD PTR _this$[ebp]
	lea	eax, DWORD PTR [ecx+eax*4]

; 72   : 	}

	pop	edi
	pop	esi
	pop	ebx
	mov	esp, ebp
	pop	ebp
	ret	4
??AVector3@@QBEABMH@Z ENDP				; Vector3::operator[]
_TEXT	ENDS
; Function compile flags: /Odtp /ZI
; File x:\github\renegade\dragonade_rxd\scripts\vector3.h
;	COMDAT ?Set@Vector3@@QAEXMMM@Z
_TEXT	SEGMENT
_this$ = -4						; size = 4
_x$ = 8							; size = 4
_y$ = 12						; size = 4
_z$ = 16						; size = 4
?Set@Vector3@@QAEXMMM@Z PROC				; Vector3::Set, COMDAT
; _this$ = ecx

; 54   : 	{

	push	ebp
	mov	ebp, esp
	sub	esp, 68					; 00000044H
	push	ebx
	push	esi
	push	edi
	mov	DWORD PTR _this$[ebp], ecx

; 55   : 		X = x;

	mov	eax, DWORD PTR _this$[ebp]
	movss	xmm0, DWORD PTR _x$[ebp]
	movss	DWORD PTR [eax], xmm0

; 56   : 		Y = y;

	mov	eax, DWORD PTR _this$[ebp]
	movss	xmm0, DWORD PTR _y$[ebp]
	movss	DWORD PTR [eax+4], xmm0

; 57   : 		Z = z;

	mov	eax, DWORD PTR _this$[ebp]
	movss	xmm0, DWORD PTR _z$[ebp]
	movss	DWORD PTR [eax+8], xmm0

; 58   : 	}

	pop	edi
	pop	esi
	pop	ebx
	mov	esp, ebp
	pop	ebp
	ret	12					; 0000000cH
?Set@Vector3@@QAEXMMM@Z ENDP				; Vector3::Set
_TEXT	ENDS
; Function compile flags: /Odtp /ZI
; File x:\github\renegade\dragonade_rxd\scripts\vector3.h
;	COMDAT ??4Vector3@@QAEAAV0@ABV0@@Z
_TEXT	SEGMENT
_this$ = -4						; size = 4
_v$ = 8							; size = 4
??4Vector3@@QAEAAV0@ABV0@@Z PROC			; Vector3::operator=, COMDAT
; _this$ = ecx

; 47   : 	{

	push	ebp
	mov	ebp, esp
	sub	esp, 68					; 00000044H
	push	ebx
	push	esi
	push	edi
	mov	DWORD PTR _this$[ebp], ecx

; 48   : 		X = v.X;

	mov	eax, DWORD PTR _this$[ebp]
	mov	ecx, DWORD PTR _v$[ebp]
	mov	edx, DWORD PTR [ecx]
	mov	DWORD PTR [eax], edx

; 49   : 		Y = v.Y;

	mov	eax, DWORD PTR _this$[ebp]
	mov	ecx, DWORD PTR _v$[ebp]
	mov	edx, DWORD PTR [ecx+4]
	mov	DWORD PTR [eax+4], edx

; 50   : 		Z = v.Z;

	mov	eax, DWORD PTR _this$[ebp]
	mov	ecx, DWORD PTR _v$[ebp]
	mov	edx, DWORD PTR [ecx+8]
	mov	DWORD PTR [eax+8], edx

; 51   : 		return *this;

	mov	eax, DWORD PTR _this$[ebp]

; 52   : 	}

	pop	edi
	pop	esi
	pop	ebx
	mov	esp, ebp
	pop	ebp
	ret	4
??4Vector3@@QAEAAV0@ABV0@@Z ENDP			; Vector3::operator=
_TEXT	ENDS
; Function compile flags: /Odtp /ZI
; File x:\github\renegade\dragonade_rxd\scripts\vector3.h
;	COMDAT ??0Vector3@@QAE@MMM@Z
_TEXT	SEGMENT
_this$ = -4						; size = 4
_x$ = 8							; size = 4
_y$ = 12						; size = 4
_z$ = 16						; size = 4
??0Vector3@@QAE@MMM@Z PROC				; Vector3::Vector3, COMDAT
; _this$ = ecx

; 33   : 	TT_INLINE Vector3(float x, float y, float z)

	push	ebp
	mov	ebp, esp
	sub	esp, 68					; 00000044H
	push	ebx
	push	esi
	push	edi
	mov	DWORD PTR _this$[ebp], ecx

; 34   : 	{
; 35   : 		X = x;

	mov	eax, DWORD PTR _this$[ebp]
	movss	xmm0, DWORD PTR _x$[ebp]
	movss	DWORD PTR [eax], xmm0

; 36   : 		Y = y;

	mov	eax, DWORD PTR _this$[ebp]
	movss	xmm0, DWORD PTR _y$[ebp]
	movss	DWORD PTR [eax+4], xmm0

; 37   : 		Z = z;

	mov	eax, DWORD PTR _this$[ebp]
	movss	xmm0, DWORD PTR _z$[ebp]
	movss	DWORD PTR [eax+8], xmm0

; 38   : 	}

	mov	eax, DWORD PTR _this$[ebp]
	pop	edi
	pop	esi
	pop	ebx
	mov	esp, ebp
	pop	ebp
	ret	12					; 0000000cH
??0Vector3@@QAE@MMM@Z ENDP				; Vector3::Vector3
_TEXT	ENDS
; Function compile flags: /Odtp /ZI
; File x:\github\renegade\dragonade_rxd\scripts\vector3.h
;	COMDAT ??0Vector3@@QAE@ABV0@@Z
_TEXT	SEGMENT
_this$ = -4						; size = 4
_v$ = 8							; size = 4
??0Vector3@@QAE@ABV0@@Z PROC				; Vector3::Vector3, COMDAT
; _this$ = ecx

; 27   : 	TT_INLINE Vector3(const Vector3 &v)

	push	ebp
	mov	ebp, esp
	sub	esp, 68					; 00000044H
	push	ebx
	push	esi
	push	edi
	mov	DWORD PTR _this$[ebp], ecx

; 28   : 	{
; 29   : 		X = v.X;

	mov	eax, DWORD PTR _this$[ebp]
	mov	ecx, DWORD PTR _v$[ebp]
	mov	edx, DWORD PTR [ecx]
	mov	DWORD PTR [eax], edx

; 30   : 		Y = v.Y;

	mov	eax, DWORD PTR _this$[ebp]
	mov	ecx, DWORD PTR _v$[ebp]
	mov	edx, DWORD PTR [ecx+4]
	mov	DWORD PTR [eax+4], edx

; 31   : 		Z = v.Z;

	mov	eax, DWORD PTR _this$[ebp]
	mov	ecx, DWORD PTR _v$[ebp]
	mov	edx, DWORD PTR [ecx+8]
	mov	DWORD PTR [eax+8], edx

; 32   : 	}

	mov	eax, DWORD PTR _this$[ebp]
	pop	edi
	pop	esi
	pop	ebx
	mov	esp, ebp
	pop	ebp
	ret	4
??0Vector3@@QAE@ABV0@@Z ENDP				; Vector3::Vector3
_TEXT	ENDS
; Function compile flags: /Odtp /ZI
; File x:\github\renegade\dragonade_rxd\scripts\vector3.h
;	COMDAT ??0Vector3@@QAE@XZ
_TEXT	SEGMENT
_this$ = -4						; size = 4
??0Vector3@@QAE@XZ PROC					; Vector3::Vector3, COMDAT
; _this$ = ecx

; 23   : 	TT_INLINE Vector3()

	push	ebp
	mov	ebp, esp
	sub	esp, 68					; 00000044H
	push	ebx
	push	esi
	push	edi
	mov	DWORD PTR _this$[ebp], ecx

; 24   : 	{
; 25   : 		X = Y = Z = 0.0f;

	mov	eax, DWORD PTR _this$[ebp]
	movss	xmm0, DWORD PTR __real@00000000
	movss	DWORD PTR [eax+8], xmm0
	mov	ecx, DWORD PTR _this$[ebp]
	movss	xmm0, DWORD PTR __real@00000000
	movss	DWORD PTR [ecx+4], xmm0
	mov	edx, DWORD PTR _this$[ebp]
	movss	xmm0, DWORD PTR __real@00000000
	movss	DWORD PTR [edx], xmm0

; 26   : 	}

	mov	eax, DWORD PTR _this$[ebp]
	pop	edi
	pop	esi
	pop	ebx
	mov	esp, ebp
	pop	ebp
	ret	0
??0Vector3@@QAE@XZ ENDP					; Vector3::Vector3
_TEXT	ENDS
; Function compile flags: /Odtp /ZI
; File x:\github\renegade\dragonade_rxd\scripts\defines.h
;	COMDAT ??B?$RefArrayHelper@M$0EAA@@@QAEPAMXZ
_TEXT	SEGMENT
_this$ = -4						; size = 4
??B?$RefArrayHelper@M$0EAA@@@QAEPAMXZ PROC		; RefArrayHelper<float,1024>::operator float *, COMDAT
; _this$ = ecx

; 161  : 	{

	push	ebp
	mov	ebp, esp
	sub	esp, 68					; 00000044H
	push	ebx
	push	esi
	push	edi
	mov	DWORD PTR _this$[ebp], ecx

; 162  : 		return (T*) this;

	mov	eax, DWORD PTR _this$[ebp]

; 163  : 	};

	pop	edi
	pop	esi
	pop	ebx
	mov	esp, ebp
	pop	ebp
	ret	0
??B?$RefArrayHelper@M$0EAA@@@QAEPAMXZ ENDP		; RefArrayHelper<float,1024>::operator float *
_TEXT	ENDS
; Function compile flags: /Odtp /ZI
;	COMDAT ??4WWMath@@QAEAAV0@ABV0@@Z
_TEXT	SEGMENT
_this$ = -4						; size = 4
___that$ = 8						; size = 4
??4WWMath@@QAEAAV0@ABV0@@Z PROC				; WWMath::operator=, COMDAT
; _this$ = ecx
	push	ebp
	mov	ebp, esp
	sub	esp, 68					; 00000044H
	push	ebx
	push	esi
	push	edi
	mov	DWORD PTR _this$[ebp], ecx
	mov	eax, DWORD PTR _this$[ebp]
	pop	edi
	pop	esi
	pop	ebx
	mov	esp, ebp
	pop	ebp
	ret	4
??4WWMath@@QAEAAV0@ABV0@@Z ENDP				; WWMath::operator=
_TEXT	ENDS
; Function compile flags: /Odtp /ZI
; File x:\github\renegade\dragonade_rxd\scripts\wwmath.h
;	COMDAT ?Is_Valid_Double@WWMath@@SA_NN@Z
_TEXT	SEGMENT
_exponent$ = -8						; size = 4
_plong$ = -4						; size = 4
_x$ = 8							; size = 8
?Is_Valid_Double@WWMath@@SA_NN@Z PROC			; WWMath::Is_Valid_Double, COMDAT

; 207  : {

	push	ebp
	mov	ebp, esp
	sub	esp, 72					; 00000048H
	push	ebx
	push	esi
	push	edi

; 208  : 	unsigned long * plong = (unsigned long *)(&x) + 1;

	lea	eax, DWORD PTR _x$[ebp+4]
	mov	DWORD PTR _plong$[ebp], eax

; 209  : 	unsigned long exponent = ((*plong) & 0x7FF00000) >> (32-12);

	mov	eax, DWORD PTR _plong$[ebp]
	mov	ecx, DWORD PTR [eax]
	and	ecx, 2146435072				; 7ff00000H
	shr	ecx, 20					; 00000014H
	mov	DWORD PTR _exponent$[ebp], ecx

; 210  : 	if (exponent == 0x7FF) {

	cmp	DWORD PTR _exponent$[ebp], 2047		; 000007ffH
	jne	SHORT $LN1@Is_Valid_D

; 211  : 		return false;

	xor	al, al
	jmp	SHORT $LN2@Is_Valid_D
$LN1@Is_Valid_D:

; 212  : 	}
; 213  : 	return true;

	mov	al, 1
$LN2@Is_Valid_D:

; 214  : }

	pop	edi
	pop	esi
	pop	ebx
	mov	esp, ebp
	pop	ebp
	ret	0
?Is_Valid_Double@WWMath@@SA_NN@Z ENDP			; WWMath::Is_Valid_Double
_TEXT	ENDS
; Function compile flags: /Odtp /ZI
; File x:\github\renegade\dragonade_rxd\scripts\wwmath.h
;	COMDAT ?Is_Valid_Float@WWMath@@SA_NM@Z
_TEXT	SEGMENT
_exponent$ = -8						; size = 4
_plong$ = -4						; size = 4
_x$ = 8							; size = 4
?Is_Valid_Float@WWMath@@SA_NM@Z PROC			; WWMath::Is_Valid_Float, COMDAT

; 197  : {

	push	ebp
	mov	ebp, esp
	sub	esp, 72					; 00000048H
	push	ebx
	push	esi
	push	edi

; 198  : 	unsigned long * plong = (unsigned long *)(&x);

	lea	eax, DWORD PTR _x$[ebp]
	mov	DWORD PTR _plong$[ebp], eax

; 199  : 	unsigned long exponent = ((*plong) & 0x7F800000) >> (32-9);

	mov	eax, DWORD PTR _plong$[ebp]
	mov	ecx, DWORD PTR [eax]
	and	ecx, 2139095040				; 7f800000H
	shr	ecx, 23					; 00000017H
	mov	DWORD PTR _exponent$[ebp], ecx

; 200  : 	if (exponent == 0xFF) {

	cmp	DWORD PTR _exponent$[ebp], 255		; 000000ffH
	jne	SHORT $LN1@Is_Valid_F

; 201  : 		return false;

	xor	al, al
	jmp	SHORT $LN2@Is_Valid_F
$LN1@Is_Valid_F:

; 202  : 	}
; 203  : 	return true;

	mov	al, 1
$LN2@Is_Valid_F:

; 204  : }

	pop	edi
	pop	esi
	pop	ebx
	mov	esp, ebp
	pop	ebp
	ret	0
?Is_Valid_Float@WWMath@@SA_NM@Z ENDP			; WWMath::Is_Valid_Float
_TEXT	ENDS
; Function compile flags: /Odtp /ZI
; File x:\github\renegade\dragonade_rxd\scripts\wwmath.h
;	COMDAT ?Byte_To_Unit_Float@WWMath@@SAME@Z
_TEXT	SEGMENT
tv69 = -68						; size = 4
_byte$ = 8						; size = 1
?Byte_To_Unit_Float@WWMath@@SAME@Z PROC			; WWMath::Byte_To_Unit_Float, COMDAT

; 97   : 	static float Byte_To_Unit_Float(unsigned char byte) { return ((float)byte) / 255.0f; }

	push	ebp
	mov	ebp, esp
	sub	esp, 68					; 00000044H
	push	ebx
	push	esi
	push	edi
	movzx	eax, BYTE PTR _byte$[ebp]
	cvtsi2ss xmm0, eax
	divss	xmm0, DWORD PTR __real@437f0000
	movss	DWORD PTR tv69[ebp], xmm0
	fld	DWORD PTR tv69[ebp]
	pop	edi
	pop	esi
	pop	ebx
	mov	esp, ebp
	pop	ebp
	ret	0
?Byte_To_Unit_Float@WWMath@@SAME@Z ENDP			; WWMath::Byte_To_Unit_Float
_TEXT	ENDS
; Function compile flags: /Odtp /ZI
; File x:\github\renegade\dragonade_rxd\scripts\wwmath.h
;	COMDAT ?Unit_Float_To_Byte@WWMath@@SAEM@Z
_TEXT	SEGMENT
_f$ = 8							; size = 4
?Unit_Float_To_Byte@WWMath@@SAEM@Z PROC			; WWMath::Unit_Float_To_Byte, COMDAT

; 96   : 	static unsigned char Unit_Float_To_Byte(float f) { return (unsigned char)(f*255.0f); }

	push	ebp
	mov	ebp, esp
	sub	esp, 64					; 00000040H
	push	ebx
	push	esi
	push	edi
	movss	xmm0, DWORD PTR _f$[ebp]
	mulss	xmm0, DWORD PTR __real@437f0000
	cvttss2si eax, xmm0
	pop	edi
	pop	esi
	pop	ebx
	mov	esp, ebp
	pop	ebp
	ret	0
?Unit_Float_To_Byte@WWMath@@SAEM@Z ENDP			; WWMath::Unit_Float_To_Byte
_TEXT	ENDS
; Function compile flags: /Odtp /ZI
; File x:\github\renegade\dragonade_rxd\scripts\wwmath.h
;	COMDAT ?Float_To_Long@WWMath@@SAJN@Z
_TEXT	SEGMENT
$T1 = -80						; size = 16
_f$ = 8							; size = 8
?Float_To_Long@WWMath@@SAJN@Z PROC			; WWMath::Float_To_Long, COMDAT

; 222  : {

	push	ebx
	mov	ebx, esp
	sub	esp, 8
	and	esp, -16				; fffffff0H
	add	esp, 4
	push	ebp
	mov	ebp, DWORD PTR [ebx+4]
	mov	DWORD PTR [esp+4], ebp
	mov	ebp, esp
	sub	esp, 88					; 00000058H
	push	esi
	push	edi

; 223  :     return _mm_cvttsd_si32(_mm_load_pd(&f));

	movupd	xmm0, XMMWORD PTR _f$[ebx]
	movapd	XMMWORD PTR $T1[ebp], xmm0
	movapd	xmm0, XMMWORD PTR $T1[ebp]
	cvttsd2si eax, xmm0

; 224  : }

	pop	edi
	pop	esi
	mov	esp, ebp
	pop	ebp
	mov	esp, ebx
	pop	ebx
	ret	0
?Float_To_Long@WWMath@@SAJN@Z ENDP			; WWMath::Float_To_Long
_TEXT	ENDS
; Function compile flags: /Odtp /ZI
; File x:\github\renegade\dragonade_rxd\scripts\wwmath.h
;	COMDAT ?Lerp@WWMath@@SAHHHM@Z
_TEXT	SEGMENT
_a$ = 8							; size = 4
_b$ = 12						; size = 4
_lerp$ = 16						; size = 4
?Lerp@WWMath@@SAHHHM@Z PROC				; WWMath::Lerp, COMDAT

; 192  : {

	push	ebp
	mov	ebp, esp
	sub	esp, 64					; 00000040H
	push	ebx
	push	esi
	push	edi

; 193  : 	return (a + (int)((b - a)*lerp));

	mov	eax, DWORD PTR _b$[ebp]
	sub	eax, DWORD PTR _a$[ebp]
	cvtsi2ss xmm0, eax
	mulss	xmm0, DWORD PTR _lerp$[ebp]
	cvttss2si eax, xmm0
	add	eax, DWORD PTR _a$[ebp]

; 194  : }

	pop	edi
	pop	esi
	pop	ebx
	mov	esp, ebp
	pop	ebp
	ret	0
?Lerp@WWMath@@SAHHHM@Z ENDP				; WWMath::Lerp
_TEXT	ENDS
; Function compile flags: /Odtp /ZI
; File x:\github\renegade\dragonade_rxd\scripts\wwmath.h
;	COMDAT ?Lerp@WWMath@@SANNNM@Z
_TEXT	SEGMENT
tv73 = -72						; size = 8
_a$ = 8							; size = 8
_b$ = 16						; size = 8
_lerp$ = 24						; size = 4
?Lerp@WWMath@@SANNNM@Z PROC				; WWMath::Lerp, COMDAT

; 187  : {

	push	ebp
	mov	ebp, esp
	sub	esp, 72					; 00000048H
	push	ebx
	push	esi
	push	edi

; 188  : 	return (a + (b - a)*lerp);

	movsd	xmm0, QWORD PTR _b$[ebp]
	subsd	xmm0, QWORD PTR _a$[ebp]
	cvtss2sd xmm1, DWORD PTR _lerp$[ebp]
	mulsd	xmm0, xmm1
	addsd	xmm0, QWORD PTR _a$[ebp]
	movsd	QWORD PTR tv73[ebp], xmm0
	fld	QWORD PTR tv73[ebp]

; 189  : }

	pop	edi
	pop	esi
	pop	ebx
	mov	esp, ebp
	pop	ebp
	ret	0
?Lerp@WWMath@@SANNNM@Z ENDP				; WWMath::Lerp
_TEXT	ENDS
; Function compile flags: /Odtp /ZI
; File x:\github\renegade\dragonade_rxd\scripts\wwmath.h
;	COMDAT ?Lerp@WWMath@@SAMMMM@Z
_TEXT	SEGMENT
tv72 = -68						; size = 4
_a$ = 8							; size = 4
_b$ = 12						; size = 4
_lerp$ = 16						; size = 4
?Lerp@WWMath@@SAMMMM@Z PROC				; WWMath::Lerp, COMDAT

; 182  : {

	push	ebp
	mov	ebp, esp
	sub	esp, 68					; 00000044H
	push	ebx
	push	esi
	push	edi

; 183  : 	return (a + (b - a)*lerp);

	movss	xmm0, DWORD PTR _b$[ebp]
	subss	xmm0, DWORD PTR _a$[ebp]
	mulss	xmm0, DWORD PTR _lerp$[ebp]
	addss	xmm0, DWORD PTR _a$[ebp]
	movss	DWORD PTR tv72[ebp], xmm0
	fld	DWORD PTR tv72[ebp]

; 184  : }

	pop	edi
	pop	esi
	pop	ebx
	mov	esp, ebp
	pop	ebp
	ret	0
?Lerp@WWMath@@SAMMMM@Z ENDP				; WWMath::Lerp
_TEXT	ENDS
; Function compile flags: /Odtp /ZI
; File x:\github\renegade\dragonade_rxd\scripts\wwmath.h
;	COMDAT ?Max@WWMath@@SAMMM@Z
_TEXT	SEGMENT
_a$ = 8							; size = 4
_b$ = 12						; size = 4
?Max@WWMath@@SAMMM@Z PROC				; WWMath::Max, COMDAT

; 176  : {

	push	ebp
	mov	ebp, esp
	sub	esp, 64					; 00000040H
	push	ebx
	push	esi
	push	edi

; 177  : 	if (a>b) return a;

	movss	xmm0, DWORD PTR _a$[ebp]
	comiss	xmm0, DWORD PTR _b$[ebp]
	jbe	SHORT $LN1@Max
	fld	DWORD PTR _a$[ebp]
	jmp	SHORT $LN2@Max
$LN1@Max:

; 178  : 	return b;

	fld	DWORD PTR _b$[ebp]
$LN2@Max:

; 179  : }

	pop	edi
	pop	esi
	pop	ebx
	mov	esp, ebp
	pop	ebp
	ret	0
?Max@WWMath@@SAMMM@Z ENDP				; WWMath::Max
_TEXT	ENDS
; Function compile flags: /Odtp /ZI
; File x:\github\renegade\dragonade_rxd\scripts\wwmath.h
;	COMDAT ?Min@WWMath@@SAMMM@Z
_TEXT	SEGMENT
_a$ = 8							; size = 4
_b$ = 12						; size = 4
?Min@WWMath@@SAMMM@Z PROC				; WWMath::Min, COMDAT

; 170  : {

	push	ebp
	mov	ebp, esp
	sub	esp, 64					; 00000040H
	push	ebx
	push	esi
	push	edi

; 171  : 	if (a<b) return a;

	movss	xmm0, DWORD PTR _b$[ebp]
	comiss	xmm0, DWORD PTR _a$[ebp]
	jbe	SHORT $LN1@Min
	fld	DWORD PTR _a$[ebp]
	jmp	SHORT $LN2@Min
$LN1@Min:

; 172  : 	return b;

	fld	DWORD PTR _b$[ebp]
$LN2@Min:

; 173  : }

	pop	edi
	pop	esi
	pop	ebx
	mov	esp, ebp
	pop	ebp
	ret	0
?Min@WWMath@@SAMMM@Z ENDP				; WWMath::Min
_TEXT	ENDS
; Function compile flags: /Odtp /ZI
; File x:\github\renegade\dragonade_rxd\scripts\wwmath.h
;	COMDAT ?Wrap@WWMath@@SANNNN@Z
_TEXT	SEGMENT
_val$ = 8						; size = 8
_min$ = 16						; size = 8
_max$ = 24						; size = 8
?Wrap@WWMath@@SANNNN@Z PROC				; WWMath::Wrap, COMDAT

; 157  : {

	push	ebp
	mov	ebp, esp
	sub	esp, 64					; 00000040H
	push	ebx
	push	esi
	push	edi

; 158  : 	if ( val >= max )	val -= (max-min);

	movsd	xmm0, QWORD PTR _val$[ebp]
	comisd	xmm0, QWORD PTR _max$[ebp]
	jb	SHORT $LN4@Wrap
	movsd	xmm0, QWORD PTR _max$[ebp]
	subsd	xmm0, QWORD PTR _min$[ebp]
	movsd	xmm1, QWORD PTR _val$[ebp]
	subsd	xmm1, xmm0
	movsd	QWORD PTR _val$[ebp], xmm1
$LN4@Wrap:

; 159  : 	if ( val < min )	val += (max-min);

	movsd	xmm0, QWORD PTR _min$[ebp]
	comisd	xmm0, QWORD PTR _val$[ebp]
	jbe	SHORT $LN3@Wrap
	movsd	xmm0, QWORD PTR _max$[ebp]
	subsd	xmm0, QWORD PTR _min$[ebp]
	addsd	xmm0, QWORD PTR _val$[ebp]
	movsd	QWORD PTR _val$[ebp], xmm0
$LN3@Wrap:

; 160  : 	if ( val < min ) {

	movsd	xmm0, QWORD PTR _min$[ebp]
	comisd	xmm0, QWORD PTR _val$[ebp]
	jbe	SHORT $LN2@Wrap

; 161  : 		val = min;

	movsd	xmm0, QWORD PTR _min$[ebp]
	movsd	QWORD PTR _val$[ebp], xmm0
$LN2@Wrap:

; 162  : 	}
; 163  : 	if ( val > max ) {

	movsd	xmm0, QWORD PTR _val$[ebp]
	comisd	xmm0, QWORD PTR _max$[ebp]
	jbe	SHORT $LN1@Wrap

; 164  : 		val = max;

	movsd	xmm0, QWORD PTR _max$[ebp]
	movsd	QWORD PTR _val$[ebp], xmm0
$LN1@Wrap:

; 165  : 	}
; 166  : 	return val;

	fld	QWORD PTR _val$[ebp]

; 167  : }

	pop	edi
	pop	esi
	pop	ebx
	mov	esp, ebp
	pop	ebp
	ret	0
?Wrap@WWMath@@SANNNN@Z ENDP				; WWMath::Wrap
_TEXT	ENDS
; Function compile flags: /Odtp /ZI
; File x:\github\renegade\dragonade_rxd\scripts\wwmath.h
;	COMDAT ?Wrap@WWMath@@SAMMMM@Z
_TEXT	SEGMENT
_val$ = 8						; size = 4
_min$ = 12						; size = 4
_max$ = 16						; size = 4
?Wrap@WWMath@@SAMMMM@Z PROC				; WWMath::Wrap, COMDAT

; 144  : {

	push	ebp
	mov	ebp, esp
	sub	esp, 64					; 00000040H
	push	ebx
	push	esi
	push	edi

; 145  : 	if ( val >= max )	val -= (max-min);

	movss	xmm0, DWORD PTR _val$[ebp]
	comiss	xmm0, DWORD PTR _max$[ebp]
	jb	SHORT $LN4@Wrap
	movss	xmm0, DWORD PTR _max$[ebp]
	subss	xmm0, DWORD PTR _min$[ebp]
	movss	xmm1, DWORD PTR _val$[ebp]
	subss	xmm1, xmm0
	movss	DWORD PTR _val$[ebp], xmm1
$LN4@Wrap:

; 146  : 	if ( val < min )	val += (max-min);

	movss	xmm0, DWORD PTR _min$[ebp]
	comiss	xmm0, DWORD PTR _val$[ebp]
	jbe	SHORT $LN3@Wrap
	movss	xmm0, DWORD PTR _max$[ebp]
	subss	xmm0, DWORD PTR _min$[ebp]
	addss	xmm0, DWORD PTR _val$[ebp]
	movss	DWORD PTR _val$[ebp], xmm0
$LN3@Wrap:

; 147  : 	if ( val < min ) {

	movss	xmm0, DWORD PTR _min$[ebp]
	comiss	xmm0, DWORD PTR _val$[ebp]
	jbe	SHORT $LN2@Wrap

; 148  : 		val = min;

	movss	xmm0, DWORD PTR _min$[ebp]
	movss	DWORD PTR _val$[ebp], xmm0
$LN2@Wrap:

; 149  : 	}
; 150  : 	if ( val > max ) {

	movss	xmm0, DWORD PTR _val$[ebp]
	comiss	xmm0, DWORD PTR _max$[ebp]
	jbe	SHORT $LN1@Wrap

; 151  : 		val = max;

	movss	xmm0, DWORD PTR _max$[ebp]
	movss	DWORD PTR _val$[ebp], xmm0
$LN1@Wrap:

; 152  : 	}
; 153  : 	return val;

	fld	DWORD PTR _val$[ebp]

; 154  : }

	pop	edi
	pop	esi
	pop	ebx
	mov	esp, ebp
	pop	ebp
	ret	0
?Wrap@WWMath@@SAMMMM@Z ENDP				; WWMath::Wrap
_TEXT	ENDS
; Function compile flags: /Odtp /ZI
; File x:\github\renegade\dragonade_rxd\scripts\wwmath.h
;	COMDAT ?Clamp_Int@WWMath@@SAHHHH@Z
_TEXT	SEGMENT
_val$ = 8						; size = 4
_min_val$ = 12						; size = 4
_max_val$ = 16						; size = 4
?Clamp_Int@WWMath@@SAHHHH@Z PROC			; WWMath::Clamp_Int, COMDAT

; 137  : {

	push	ebp
	mov	ebp, esp
	sub	esp, 64					; 00000040H
	push	ebx
	push	esi
	push	edi

; 138  : 	if(val < min_val) return min_val;

	mov	eax, DWORD PTR _val$[ebp]
	cmp	eax, DWORD PTR _min_val$[ebp]
	jge	SHORT $LN2@Clamp_Int
	mov	eax, DWORD PTR _min_val$[ebp]
	jmp	SHORT $LN3@Clamp_Int
$LN2@Clamp_Int:

; 139  : 	if(val > max_val) return max_val;

	mov	eax, DWORD PTR _val$[ebp]
	cmp	eax, DWORD PTR _max_val$[ebp]
	jle	SHORT $LN1@Clamp_Int
	mov	eax, DWORD PTR _max_val$[ebp]
	jmp	SHORT $LN3@Clamp_Int
$LN1@Clamp_Int:

; 140  : 	return val;

	mov	eax, DWORD PTR _val$[ebp]
$LN3@Clamp_Int:

; 141  : }

	pop	edi
	pop	esi
	pop	ebx
	mov	esp, ebp
	pop	ebp
	ret	0
?Clamp_Int@WWMath@@SAHHHH@Z ENDP			; WWMath::Clamp_Int
_TEXT	ENDS
; Function compile flags: /Odtp /ZI
; File x:\github\renegade\dragonade_rxd\scripts\wwmath.h
;	COMDAT ?Clamp@WWMath@@SANNNN@Z
_TEXT	SEGMENT
_val$ = 8						; size = 8
_min$ = 16						; size = 8
_max$ = 24						; size = 8
?Clamp@WWMath@@SANNNN@Z PROC				; WWMath::Clamp, COMDAT

; 130  : {

	push	ebp
	mov	ebp, esp
	sub	esp, 64					; 00000040H
	push	ebx
	push	esi
	push	edi

; 131  : 	if(val < min) return min;

	movsd	xmm0, QWORD PTR _min$[ebp]
	comisd	xmm0, QWORD PTR _val$[ebp]
	jbe	SHORT $LN2@Clamp
	fld	QWORD PTR _min$[ebp]
	jmp	SHORT $LN3@Clamp
$LN2@Clamp:

; 132  : 	if(val > max) return max;

	movsd	xmm0, QWORD PTR _val$[ebp]
	comisd	xmm0, QWORD PTR _max$[ebp]
	jbe	SHORT $LN1@Clamp
	fld	QWORD PTR _max$[ebp]
	jmp	SHORT $LN3@Clamp
$LN1@Clamp:

; 133  : 	return val;

	fld	QWORD PTR _val$[ebp]
$LN3@Clamp:

; 134  : }

	pop	edi
	pop	esi
	pop	ebx
	mov	esp, ebp
	pop	ebp
	ret	0
?Clamp@WWMath@@SANNNN@Z ENDP				; WWMath::Clamp
_TEXT	ENDS
; Function compile flags: /Odtp /ZI
; File x:\github\renegade\dragonade_rxd\scripts\wwmath.h
;	COMDAT ?Clamp@WWMath@@SAMMMM@Z
_TEXT	SEGMENT
_val$ = 8						; size = 4
_min$ = 12						; size = 4
_max$ = 16						; size = 4
?Clamp@WWMath@@SAMMMM@Z PROC				; WWMath::Clamp, COMDAT

; 123  : {

	push	ebp
	mov	ebp, esp
	sub	esp, 64					; 00000040H
	push	ebx
	push	esi
	push	edi

; 124  : 	if(val < min) return min;

	movss	xmm0, DWORD PTR _min$[ebp]
	comiss	xmm0, DWORD PTR _val$[ebp]
	jbe	SHORT $LN2@Clamp
	fld	DWORD PTR _min$[ebp]
	jmp	SHORT $LN3@Clamp
$LN2@Clamp:

; 125  : 	if(val > max) return max;

	movss	xmm0, DWORD PTR _val$[ebp]
	comiss	xmm0, DWORD PTR _max$[ebp]
	jbe	SHORT $LN1@Clamp
	fld	DWORD PTR _max$[ebp]
	jmp	SHORT $LN3@Clamp
$LN1@Clamp:

; 126  : 	return val;

	fld	DWORD PTR _val$[ebp]
$LN3@Clamp:

; 127  : }

	pop	edi
	pop	esi
	pop	ebx
	mov	esp, ebp
	pop	ebp
	ret	0
?Clamp@WWMath@@SAMMMM@Z ENDP				; WWMath::Clamp
_TEXT	ENDS
; Function compile flags: /Odtp /ZI
; File x:\github\renegade\dragonade_rxd\scripts\wwmath.h
;	COMDAT ?Random_Float@WWMath@@SAMMM@Z
_TEXT	SEGMENT
tv76 = -72						; size = 4
tv73 = -68						; size = 4
_min$ = 8						; size = 4
_max$ = 12						; size = 4
?Random_Float@WWMath@@SAMMM@Z PROC			; WWMath::Random_Float, COMDAT

; 118  : { 

	push	ebp
	mov	ebp, esp
	sub	esp, 72					; 00000048H
	push	ebx
	push	esi
	push	edi

; 119  : 	return Random_Float() * (max-min) + min; 

	call	?Random_Float@WWMath@@SAMXZ		; WWMath::Random_Float
	fstp	DWORD PTR tv73[ebp]
	movss	xmm0, DWORD PTR tv73[ebp]
	movss	xmm1, DWORD PTR _max$[ebp]
	subss	xmm1, DWORD PTR _min$[ebp]
	mulss	xmm0, xmm1
	addss	xmm0, DWORD PTR _min$[ebp]
	movss	DWORD PTR tv76[ebp], xmm0
	fld	DWORD PTR tv76[ebp]

; 120  : }

	pop	edi
	pop	esi
	pop	ebx
	mov	esp, ebp
	pop	ebp
	ret	0
?Random_Float@WWMath@@SAMMM@Z ENDP			; WWMath::Random_Float
_TEXT	ENDS
; Function compile flags: /Odtp /ZI
; File x:\github\renegade\dragonade_rxd\scripts\wwmath.h
;	COMDAT ?Fast_Is_Float_Positive@WWMath@@SA_NABM@Z
_TEXT	SEGMENT
tv66 = -68						; size = 4
_val$ = 8						; size = 4
?Fast_Is_Float_Positive@WWMath@@SA_NABM@Z PROC		; WWMath::Fast_Is_Float_Positive, COMDAT

; 113  : {

	push	ebp
	mov	ebp, esp
	sub	esp, 68					; 00000044H
	push	ebx
	push	esi
	push	edi

; 114  : 	return !((*(int *)(&val)) & 0x80000000);

	mov	eax, DWORD PTR _val$[ebp]
	mov	ecx, DWORD PTR [eax]
	and	ecx, -2147483648			; 80000000H
	jne	SHORT $LN3@Fast_Is_Fl
	mov	DWORD PTR tv66[ebp], 1
	jmp	SHORT $LN4@Fast_Is_Fl
$LN3@Fast_Is_Fl:
	mov	DWORD PTR tv66[ebp], 0
$LN4@Fast_Is_Fl:
	mov	al, BYTE PTR tv66[ebp]

; 115  : }

	pop	edi
	pop	esi
	pop	ebx
	mov	esp, ebp
	pop	ebp
	ret	0
?Fast_Is_Float_Positive@WWMath@@SA_NABM@Z ENDP		; WWMath::Fast_Is_Float_Positive
_TEXT	ENDS
; Function compile flags: /Odtp /ZI
; File x:\github\renegade\dragonade_rxd\scripts\wwmath.h
;	COMDAT ?Floor@WWMath@@SAMM@Z
_TEXT	SEGMENT
_val$ = 8						; size = 4
?Floor@WWMath@@SAMM@Z PROC				; WWMath::Floor, COMDAT

; 81   : 	static float Floor(float val) { return floorf(val); }

	push	ebp
	mov	ebp, esp
	sub	esp, 64					; 00000040H
	push	ebx
	push	esi
	push	edi
	push	ecx
	movss	xmm0, DWORD PTR _val$[ebp]
	movss	DWORD PTR [esp], xmm0
	call	_floorf
	add	esp, 4
	pop	edi
	pop	esi
	pop	ebx
	mov	esp, ebp
	pop	ebp
	ret	0
?Floor@WWMath@@SAMM@Z ENDP				; WWMath::Floor
_TEXT	ENDS
; Function compile flags: /Odtp /ZI
; File x:\github\renegade\dragonade_rxd\scripts\wwmath.h
;	COMDAT ?Ceil@WWMath@@SAMM@Z
_TEXT	SEGMENT
_val$ = 8						; size = 4
?Ceil@WWMath@@SAMM@Z PROC				; WWMath::Ceil, COMDAT

; 80   : 	static float Ceil(float val) { return ceilf(val); }

	push	ebp
	mov	ebp, esp
	sub	esp, 64					; 00000040H
	push	ebx
	push	esi
	push	edi
	push	ecx
	movss	xmm0, DWORD PTR _val$[ebp]
	movss	DWORD PTR [esp], xmm0
	call	_ceilf
	add	esp, 4
	pop	edi
	pop	esi
	pop	ebx
	mov	esp, ebp
	pop	ebp
	ret	0
?Ceil@WWMath@@SAMM@Z ENDP				; WWMath::Ceil
_TEXT	ENDS
; Function compile flags: /Odtp /ZI
; File x:\github\renegade\dragonade_rxd\scripts\wwmath.h
;	COMDAT ?Sign@WWMath@@SAMM@Z
_TEXT	SEGMENT
_val$ = 8						; size = 4
?Sign@WWMath@@SAMM@Z PROC				; WWMath::Sign, COMDAT

; 102  : { 

	push	ebp
	mov	ebp, esp
	sub	esp, 64					; 00000040H
	push	ebx
	push	esi
	push	edi

; 103  : 	if (val > 0.0f) { 

	movss	xmm0, DWORD PTR _val$[ebp]
	comiss	xmm0, DWORD PTR __real@00000000
	jbe	SHORT $LN2@Sign

; 104  : 		return +1.0f; 

	fld1
	jmp	SHORT $LN3@Sign
$LN2@Sign:

; 105  : 	} 
; 106  : 	if (val < 0.0f) { 

	movss	xmm0, DWORD PTR __real@00000000
	comiss	xmm0, DWORD PTR _val$[ebp]
	jbe	SHORT $LN1@Sign

; 107  : 		return -1.0f; 

	fld	DWORD PTR __real@bf800000
	jmp	SHORT $LN3@Sign
$LN1@Sign:

; 108  : 	} 
; 109  : 	return 0.0f; 

	fldz
$LN3@Sign:

; 110  : }

	pop	edi
	pop	esi
	pop	ebx
	mov	esp, ebp
	pop	ebp
	ret	0
?Sign@WWMath@@SAMM@Z ENDP				; WWMath::Sign
_TEXT	ENDS
; Function compile flags: /Odtp /ZI
; File x:\github\renegade\dragonade_rxd\scripts\wwmath.h
;	COMDAT ?Atan2@WWMath@@SAMMM@Z
_TEXT	SEGMENT
_y$ = 8							; size = 4
_x$ = 12						; size = 4
?Atan2@WWMath@@SAMMM@Z PROC				; WWMath::Atan2, COMDAT

; 78   : 	static float Atan2(float y,float x) { return static_cast<float>(atan2(y,x)); }

	push	ebp
	mov	ebp, esp
	sub	esp, 64					; 00000040H
	push	ebx
	push	esi
	push	edi
	push	ecx
	movss	xmm0, DWORD PTR _x$[ebp]
	movss	DWORD PTR [esp], xmm0
	push	ecx
	movss	xmm0, DWORD PTR _y$[ebp]
	movss	DWORD PTR [esp], xmm0
	call	?atan2@@YAMMM@Z				; atan2
	add	esp, 8
	pop	edi
	pop	esi
	pop	ebx
	mov	esp, ebp
	pop	ebp
	ret	0
?Atan2@WWMath@@SAMMM@Z ENDP				; WWMath::Atan2
_TEXT	ENDS
; Function compile flags: /Odtp /ZI
; File x:\github\renegade\dragonade_rxd\scripts\wwmath.h
;	COMDAT ?Atan@WWMath@@SAMM@Z
_TEXT	SEGMENT
_x$ = 8							; size = 4
?Atan@WWMath@@SAMM@Z PROC				; WWMath::Atan, COMDAT

; 77   : 	static float Atan(float x) { return static_cast<float>(atan(x)); }

	push	ebp
	mov	ebp, esp
	sub	esp, 64					; 00000040H
	push	ebx
	push	esi
	push	edi
	push	ecx
	movss	xmm0, DWORD PTR _x$[ebp]
	movss	DWORD PTR [esp], xmm0
	call	?atan@@YAMM@Z				; atan
	add	esp, 4
	pop	edi
	pop	esi
	pop	ebx
	mov	esp, ebp
	pop	ebp
	ret	0
?Atan@WWMath@@SAMM@Z ENDP				; WWMath::Atan
_TEXT	ENDS
; Function compile flags: /Odtp /ZI
; File x:\github\renegade\dragonade_rxd\scripts\wwmath.h
;	COMDAT ?Asin@WWMath@@SAMM@Z
_TEXT	SEGMENT
_val$ = 8						; size = 4
?Asin@WWMath@@SAMM@Z PROC				; WWMath::Asin, COMDAT

; 306  : {

	push	ebp
	mov	ebp, esp
	sub	esp, 64					; 00000040H
	push	ebx
	push	esi
	push	edi

; 307  : 	return (float)asin(val);

	push	ecx
	movss	xmm0, DWORD PTR _val$[ebp]
	movss	DWORD PTR [esp], xmm0
	call	?asin@@YAMM@Z				; asin
	add	esp, 4

; 308  : }

	pop	edi
	pop	esi
	pop	ebx
	mov	esp, ebp
	pop	ebp
	ret	0
?Asin@WWMath@@SAMM@Z ENDP				; WWMath::Asin
_TEXT	ENDS
; Function compile flags: /Odtp /ZI
; File x:\github\renegade\dragonade_rxd\scripts\wwmath.h
;	COMDAT ?Acos@WWMath@@SAMM@Z
_TEXT	SEGMENT
_val$ = 8						; size = 4
?Acos@WWMath@@SAMM@Z PROC				; WWMath::Acos, COMDAT

; 286  : {

	push	ebp
	mov	ebp, esp
	sub	esp, 64					; 00000040H
	push	ebx
	push	esi
	push	edi

; 287  : 	return (float)acos(val);

	push	ecx
	movss	xmm0, DWORD PTR _val$[ebp]
	movss	DWORD PTR [esp], xmm0
	call	?acos@@YAMM@Z				; acos
	add	esp, 4

; 288  : }

	pop	edi
	pop	esi
	pop	ebx
	mov	esp, ebp
	pop	ebp
	ret	0
?Acos@WWMath@@SAMM@Z ENDP				; WWMath::Acos
_TEXT	ENDS
; Function compile flags: /Odtp /ZI
; File x:\github\renegade\dragonade_rxd\scripts\wwmath.h
;	COMDAT ?Fast_Asin@WWMath@@SAMM@Z
_TEXT	SEGMENT
tv156 = -88						; size = 4
tv161 = -84						; size = 4
tv159 = -80						; size = 4
tv134 = -80						; size = 4
_frac$ = -12						; size = 4
_idx1$ = -8						; size = 4
_idx0$ = -4						; size = 4
_val$ = 8						; size = 4
?Fast_Asin@WWMath@@SAMM@Z PROC				; WWMath::Fast_Asin, COMDAT

; 291  : {

	push	ebp
	mov	ebp, esp
	sub	esp, 88					; 00000058H
	push	ebx
	push	esi
	push	edi

; 292  : 	if (WWMath::Fabs(val) > 0.975f) {

	push	ecx
	movss	xmm0, DWORD PTR _val$[ebp]
	movss	DWORD PTR [esp], xmm0
	call	?Fabs@WWMath@@SAMM@Z			; WWMath::Fabs
	add	esp, 4
	fstp	DWORD PTR tv134[ebp]
	movss	xmm0, DWORD PTR tv134[ebp]
	comiss	xmm0, DWORD PTR __real@3f79999a
	jbe	SHORT $LN11@Fast_Asin

; 293  : 		return WWMath::Asin(val);

	push	ecx
	movss	xmm0, DWORD PTR _val$[ebp]
	movss	DWORD PTR [esp], xmm0
	call	?Asin@WWMath@@SAMM@Z			; WWMath::Asin
	add	esp, 4
	jmp	$LN12@Fast_Asin
$LN11@Fast_Asin:

; 294  : 	}
; 295  : 	val*=float(ARC_TABLE_SIZE/2);

	movss	xmm0, DWORD PTR _val$[ebp]
	mulss	xmm0, DWORD PTR __real@44000000
	movss	DWORD PTR _val$[ebp], xmm0

; 296  : 	int idx0=Float_To_Int_Floor(val); 

	lea	eax, DWORD PTR _val$[ebp]
	push	eax
	call	?Float_To_Int_Floor@WWMath@@SAHABM@Z	; WWMath::Float_To_Int_Floor
	add	esp, 4
	mov	DWORD PTR _idx0$[ebp], eax

; 297  : 	int idx1=idx0+1;

	mov	eax, DWORD PTR _idx0$[ebp]
	add	eax, 1
	mov	DWORD PTR _idx1$[ebp], eax

; 298  : 	float frac=val-(float)idx0;

	cvtsi2ss xmm0, DWORD PTR _idx0$[ebp]
	movss	xmm1, DWORD PTR _val$[ebp]
	subss	xmm1, xmm0
	movss	DWORD PTR _frac$[ebp], xmm1

; 299  : 	idx0+=ARC_TABLE_SIZE/2;

	mov	eax, DWORD PTR _idx0$[ebp]
	add	eax, 512				; 00000200H
	mov	DWORD PTR _idx0$[ebp], eax

; 300  : 	idx1+=ARC_TABLE_SIZE/2;

	mov	eax, DWORD PTR _idx1$[ebp]
	add	eax, 512				; 00000200H
	mov	DWORD PTR _idx1$[ebp], eax
$LN10@Fast_Asin:

; 301  : 	TT_ASSERT((idx0 >= 0) && (idx0 < ARC_TABLE_SIZE));

	xor	eax, eax
	jne	SHORT $LN10@Fast_Asin
	cmp	DWORD PTR _idx0$[ebp], 0
	jl	SHORT $LN6@Fast_Asin
	cmp	DWORD PTR _idx0$[ebp], 1024		; 00000400H
	jl	SHORT $LN7@Fast_Asin
$LN6@Fast_Asin:
	int	3
$LN7@Fast_Asin:

; 302  : 	TT_ASSERT((idx1 >= 0) && (idx1 < ARC_TABLE_SIZE));

	xor	eax, eax
	jne	SHORT $LN7@Fast_Asin
	cmp	DWORD PTR _idx1$[ebp], 0
	jl	SHORT $LN1@Fast_Asin
	cmp	DWORD PTR _idx1$[ebp], 1024		; 00000400H
	jl	SHORT $LN2@Fast_Asin
$LN1@Fast_Asin:
	int	3
$LN2@Fast_Asin:

; 303  : 	return (1.0f - frac) * _FastAsinTable[idx0] + frac * _FastAsinTable[idx1];

	movss	xmm0, DWORD PTR __real@3f800000
	subss	xmm0, DWORD PTR _frac$[ebp]
	mov	ecx, DWORD PTR ?_FastAsinTable@@3AAV?$RefArrayHelper@M$0EAA@@@A ; _FastAsinTable
	movss	DWORD PTR tv159[ebp], xmm0
	call	??B?$RefArrayHelper@M$0EAA@@@QAEPAMXZ	; RefArrayHelper<float,1024>::operator float *
	mov	ecx, DWORD PTR _idx0$[ebp]
	movss	xmm0, DWORD PTR tv159[ebp]
	mulss	xmm0, DWORD PTR [eax+ecx*4]
	mov	ecx, DWORD PTR ?_FastAsinTable@@3AAV?$RefArrayHelper@M$0EAA@@@A ; _FastAsinTable
	movss	DWORD PTR tv161[ebp], xmm0
	call	??B?$RefArrayHelper@M$0EAA@@@QAEPAMXZ	; RefArrayHelper<float,1024>::operator float *
	mov	edx, DWORD PTR _idx1$[ebp]
	movss	xmm0, DWORD PTR _frac$[ebp]
	mulss	xmm0, DWORD PTR [eax+edx*4]
	movss	xmm1, DWORD PTR tv161[ebp]
	addss	xmm1, xmm0
	movss	DWORD PTR tv156[ebp], xmm1
	fld	DWORD PTR tv156[ebp]
$LN12@Fast_Asin:

; 304  : }

	pop	edi
	pop	esi
	pop	ebx
	mov	esp, ebp
	pop	ebp
	ret	0
?Fast_Asin@WWMath@@SAMM@Z ENDP				; WWMath::Fast_Asin
_TEXT	ENDS
; Function compile flags: /Odtp /ZI
; File x:\github\renegade\dragonade_rxd\scripts\wwmath.h
;	COMDAT ?Fast_Acos@WWMath@@SAMM@Z
_TEXT	SEGMENT
tv156 = -88						; size = 4
tv161 = -84						; size = 4
tv159 = -80						; size = 4
tv134 = -80						; size = 4
_frac$ = -12						; size = 4
_idx1$ = -8						; size = 4
_idx0$ = -4						; size = 4
_val$ = 8						; size = 4
?Fast_Acos@WWMath@@SAMM@Z PROC				; WWMath::Fast_Acos, COMDAT

; 270  : {

	push	ebp
	mov	ebp, esp
	sub	esp, 88					; 00000058H
	push	ebx
	push	esi
	push	edi

; 271  : 	if (WWMath::Fabs(val) > 0.975f) {

	push	ecx
	movss	xmm0, DWORD PTR _val$[ebp]
	movss	DWORD PTR [esp], xmm0
	call	?Fabs@WWMath@@SAMM@Z			; WWMath::Fabs
	add	esp, 4
	fstp	DWORD PTR tv134[ebp]
	movss	xmm0, DWORD PTR tv134[ebp]
	comiss	xmm0, DWORD PTR __real@3f79999a
	jbe	SHORT $LN11@Fast_Acos

; 272  : 		return WWMath::Acos(val);

	push	ecx
	movss	xmm0, DWORD PTR _val$[ebp]
	movss	DWORD PTR [esp], xmm0
	call	?Acos@WWMath@@SAMM@Z			; WWMath::Acos
	add	esp, 4
	jmp	$LN12@Fast_Acos
$LN11@Fast_Acos:

; 273  : 	}
; 274  : 	val*=float(ARC_TABLE_SIZE/2);

	movss	xmm0, DWORD PTR _val$[ebp]
	mulss	xmm0, DWORD PTR __real@44000000
	movss	DWORD PTR _val$[ebp], xmm0

; 275  : 	int idx0=Float_To_Int_Floor(val);

	lea	eax, DWORD PTR _val$[ebp]
	push	eax
	call	?Float_To_Int_Floor@WWMath@@SAHABM@Z	; WWMath::Float_To_Int_Floor
	add	esp, 4
	mov	DWORD PTR _idx0$[ebp], eax

; 276  : 	int idx1=idx0+1;

	mov	eax, DWORD PTR _idx0$[ebp]
	add	eax, 1
	mov	DWORD PTR _idx1$[ebp], eax

; 277  : 	float frac=val-(float)idx0;

	cvtsi2ss xmm0, DWORD PTR _idx0$[ebp]
	movss	xmm1, DWORD PTR _val$[ebp]
	subss	xmm1, xmm0
	movss	DWORD PTR _frac$[ebp], xmm1

; 278  : 	idx0+=ARC_TABLE_SIZE/2;

	mov	eax, DWORD PTR _idx0$[ebp]
	add	eax, 512				; 00000200H
	mov	DWORD PTR _idx0$[ebp], eax

; 279  : 	idx1+=ARC_TABLE_SIZE/2;

	mov	eax, DWORD PTR _idx1$[ebp]
	add	eax, 512				; 00000200H
	mov	DWORD PTR _idx1$[ebp], eax
$LN10@Fast_Acos:

; 280  : 	TT_ASSERT((idx0 >= 0) && (idx0 < ARC_TABLE_SIZE));

	xor	eax, eax
	jne	SHORT $LN10@Fast_Acos
	cmp	DWORD PTR _idx0$[ebp], 0
	jl	SHORT $LN6@Fast_Acos
	cmp	DWORD PTR _idx0$[ebp], 1024		; 00000400H
	jl	SHORT $LN7@Fast_Acos
$LN6@Fast_Acos:
	int	3
$LN7@Fast_Acos:

; 281  : 	TT_ASSERT((idx1 >= 0) && (idx1 < ARC_TABLE_SIZE));

	xor	eax, eax
	jne	SHORT $LN7@Fast_Acos
	cmp	DWORD PTR _idx1$[ebp], 0
	jl	SHORT $LN1@Fast_Acos
	cmp	DWORD PTR _idx1$[ebp], 1024		; 00000400H
	jl	SHORT $LN2@Fast_Acos
$LN1@Fast_Acos:
	int	3
$LN2@Fast_Acos:

; 282  : 	return (1.0f - frac) * _FastAcosTable[idx0] + frac * _FastAcosTable[idx1];

	movss	xmm0, DWORD PTR __real@3f800000
	subss	xmm0, DWORD PTR _frac$[ebp]
	mov	ecx, DWORD PTR ?_FastAcosTable@@3AAV?$RefArrayHelper@M$0EAA@@@A ; _FastAcosTable
	movss	DWORD PTR tv159[ebp], xmm0
	call	??B?$RefArrayHelper@M$0EAA@@@QAEPAMXZ	; RefArrayHelper<float,1024>::operator float *
	mov	ecx, DWORD PTR _idx0$[ebp]
	movss	xmm0, DWORD PTR tv159[ebp]
	mulss	xmm0, DWORD PTR [eax+ecx*4]
	mov	ecx, DWORD PTR ?_FastAcosTable@@3AAV?$RefArrayHelper@M$0EAA@@@A ; _FastAcosTable
	movss	DWORD PTR tv161[ebp], xmm0
	call	??B?$RefArrayHelper@M$0EAA@@@QAEPAMXZ	; RefArrayHelper<float,1024>::operator float *
	mov	edx, DWORD PTR _idx1$[ebp]
	movss	xmm0, DWORD PTR _frac$[ebp]
	mulss	xmm0, DWORD PTR [eax+edx*4]
	movss	xmm1, DWORD PTR tv161[ebp]
	addss	xmm1, xmm0
	movss	DWORD PTR tv156[ebp], xmm1
	fld	DWORD PTR tv156[ebp]
$LN12@Fast_Acos:

; 283  : }

	pop	edi
	pop	esi
	pop	ebx
	mov	esp, ebp
	pop	ebp
	ret	0
?Fast_Acos@WWMath@@SAMM@Z ENDP				; WWMath::Fast_Acos
_TEXT	ENDS
; Function compile flags: /Odtp /ZI
; File x:\github\renegade\dragonade_rxd\scripts\wwmath.h
;	COMDAT ?Fast_Inv_Cos@WWMath@@SAMM@Z
_TEXT	SEGMENT
tv76 = -72						; size = 4
tv73 = -68						; size = 4
_val$ = 8						; size = 4
?Fast_Inv_Cos@WWMath@@SAMM@Z PROC			; WWMath::Fast_Inv_Cos, COMDAT

; 265  : {

	push	ebp
	mov	ebp, esp
	sub	esp, 72					; 00000048H
	push	ebx
	push	esi
	push	edi

; 266  : 	return 1.0f / WWMath::Fast_Cos(val);

	push	ecx
	movss	xmm0, DWORD PTR _val$[ebp]
	movss	DWORD PTR [esp], xmm0
	call	?Fast_Cos@WWMath@@SAMM@Z		; WWMath::Fast_Cos
	add	esp, 4
	fstp	DWORD PTR tv73[ebp]
	movss	xmm0, DWORD PTR __real@3f800000
	divss	xmm0, DWORD PTR tv73[ebp]
	movss	DWORD PTR tv76[ebp], xmm0
	fld	DWORD PTR tv76[ebp]

; 267  : }

	pop	edi
	pop	esi
	pop	ebx
	mov	esp, ebp
	pop	ebp
	ret	0
?Fast_Inv_Cos@WWMath@@SAMM@Z ENDP			; WWMath::Fast_Inv_Cos
_TEXT	ENDS
; Function compile flags: /Odtp /ZI
; File x:\github\renegade\dragonade_rxd\scripts\wwmath.h
;	COMDAT ?Fast_Cos@WWMath@@SAMM@Z
_TEXT	SEGMENT
tv135 = -88						; size = 4
tv140 = -84						; size = 4
tv138 = -80						; size = 4
_frac$ = -12						; size = 4
_idx1$ = -8						; size = 4
_idx0$ = -4						; size = 4
_val$ = 8						; size = 4
?Fast_Cos@WWMath@@SAMM@Z PROC				; WWMath::Fast_Cos, COMDAT

; 253  : {

	push	ebp
	mov	ebp, esp
	sub	esp, 88					; 00000058H
	push	ebx
	push	esi
	push	edi

; 254  : 	val+=(WWMATH_PI * 0.5f);

	movss	xmm0, DWORD PTR _val$[ebp]
	addss	xmm0, DWORD PTR __real@3fc90fdb
	movss	DWORD PTR _val$[ebp], xmm0

; 255  : 	val*=float(SIN_TABLE_SIZE) / (2.0f * WWMATH_PI);

	movss	xmm0, DWORD PTR __real@44800000
	divss	xmm0, DWORD PTR __real@40c90fdb
	mulss	xmm0, DWORD PTR _val$[ebp]
	movss	DWORD PTR _val$[ebp], xmm0

; 256  : 	int idx0=Float_To_Int_Floor(val);

	lea	eax, DWORD PTR _val$[ebp]
	push	eax
	call	?Float_To_Int_Floor@WWMath@@SAHABM@Z	; WWMath::Float_To_Int_Floor
	add	esp, 4
	mov	DWORD PTR _idx0$[ebp], eax

; 257  : 	int idx1=idx0+1;

	mov	eax, DWORD PTR _idx0$[ebp]
	add	eax, 1
	mov	DWORD PTR _idx1$[ebp], eax

; 258  : 	float frac=val-(float)idx0;

	cvtsi2ss xmm0, DWORD PTR _idx0$[ebp]
	movss	xmm1, DWORD PTR _val$[ebp]
	subss	xmm1, xmm0
	movss	DWORD PTR _frac$[ebp], xmm1

; 259  : 	idx0 = ((unsigned)idx0) & (SIN_TABLE_SIZE-1);

	mov	eax, DWORD PTR _idx0$[ebp]
	and	eax, 1023				; 000003ffH
	mov	DWORD PTR _idx0$[ebp], eax

; 260  : 	idx1 = ((unsigned)idx1) & (SIN_TABLE_SIZE-1);

	mov	eax, DWORD PTR _idx1$[ebp]
	and	eax, 1023				; 000003ffH
	mov	DWORD PTR _idx1$[ebp], eax

; 261  : 	return (1.0f - frac) * _FastSinTable[idx0] + frac * _FastSinTable[idx1];

	movss	xmm0, DWORD PTR __real@3f800000
	subss	xmm0, DWORD PTR _frac$[ebp]
	mov	ecx, DWORD PTR ?_FastSinTable@@3AAV?$RefArrayHelper@M$0EAA@@@A ; _FastSinTable
	movss	DWORD PTR tv138[ebp], xmm0
	call	??B?$RefArrayHelper@M$0EAA@@@QAEPAMXZ	; RefArrayHelper<float,1024>::operator float *
	mov	ecx, DWORD PTR _idx0$[ebp]
	movss	xmm0, DWORD PTR tv138[ebp]
	mulss	xmm0, DWORD PTR [eax+ecx*4]
	mov	ecx, DWORD PTR ?_FastSinTable@@3AAV?$RefArrayHelper@M$0EAA@@@A ; _FastSinTable
	movss	DWORD PTR tv140[ebp], xmm0
	call	??B?$RefArrayHelper@M$0EAA@@@QAEPAMXZ	; RefArrayHelper<float,1024>::operator float *
	mov	edx, DWORD PTR _idx1$[ebp]
	movss	xmm0, DWORD PTR _frac$[ebp]
	mulss	xmm0, DWORD PTR [eax+edx*4]
	movss	xmm1, DWORD PTR tv140[ebp]
	addss	xmm1, xmm0
	movss	DWORD PTR tv135[ebp], xmm1
	fld	DWORD PTR tv135[ebp]

; 262  : }

	pop	edi
	pop	esi
	pop	ebx
	mov	esp, ebp
	pop	ebp
	ret	0
?Fast_Cos@WWMath@@SAMM@Z ENDP				; WWMath::Fast_Cos
_TEXT	ENDS
; Function compile flags: /Odtp /ZI
; File x:\github\renegade\dragonade_rxd\scripts\wwmath.h
;	COMDAT ?Fast_Inv_Sin@WWMath@@SAMM@Z
_TEXT	SEGMENT
tv76 = -72						; size = 4
tv73 = -68						; size = 4
_val$ = 8						; size = 4
?Fast_Inv_Sin@WWMath@@SAMM@Z PROC			; WWMath::Fast_Inv_Sin, COMDAT

; 248  : {

	push	ebp
	mov	ebp, esp
	sub	esp, 72					; 00000048H
	push	ebx
	push	esi
	push	edi

; 249  : 	return 1.0f / WWMath::Fast_Sin(val);

	push	ecx
	movss	xmm0, DWORD PTR _val$[ebp]
	movss	DWORD PTR [esp], xmm0
	call	?Fast_Sin@WWMath@@SAMM@Z		; WWMath::Fast_Sin
	add	esp, 4
	fstp	DWORD PTR tv73[ebp]
	movss	xmm0, DWORD PTR __real@3f800000
	divss	xmm0, DWORD PTR tv73[ebp]
	movss	DWORD PTR tv76[ebp], xmm0
	fld	DWORD PTR tv76[ebp]

; 250  : }

	pop	edi
	pop	esi
	pop	ebx
	mov	esp, ebp
	pop	ebp
	ret	0
?Fast_Inv_Sin@WWMath@@SAMM@Z ENDP			; WWMath::Fast_Inv_Sin
_TEXT	ENDS
; Function compile flags: /Odtp /ZI
; File x:\github\renegade\dragonade_rxd\scripts\wwmath.h
;	COMDAT ?Fast_Sin@WWMath@@SAMM@Z
_TEXT	SEGMENT
tv133 = -88						; size = 4
tv138 = -84						; size = 4
tv136 = -80						; size = 4
_frac$ = -12						; size = 4
_idx1$ = -8						; size = 4
_idx0$ = -4						; size = 4
_val$ = 8						; size = 4
?Fast_Sin@WWMath@@SAMM@Z PROC				; WWMath::Fast_Sin, COMDAT

; 237  : {

	push	ebp
	mov	ebp, esp
	sub	esp, 88					; 00000058H
	push	ebx
	push	esi
	push	edi

; 238  : 	val*=float(SIN_TABLE_SIZE) / (2.0f * WWMATH_PI);

	movss	xmm0, DWORD PTR __real@44800000
	divss	xmm0, DWORD PTR __real@40c90fdb
	mulss	xmm0, DWORD PTR _val$[ebp]
	movss	DWORD PTR _val$[ebp], xmm0

; 239  : 	int idx0=Float_To_Int_Floor(val);

	lea	eax, DWORD PTR _val$[ebp]
	push	eax
	call	?Float_To_Int_Floor@WWMath@@SAHABM@Z	; WWMath::Float_To_Int_Floor
	add	esp, 4
	mov	DWORD PTR _idx0$[ebp], eax

; 240  : 	int idx1=idx0+1;

	mov	eax, DWORD PTR _idx0$[ebp]
	add	eax, 1
	mov	DWORD PTR _idx1$[ebp], eax

; 241  : 	float frac=val-(float)idx0;

	cvtsi2ss xmm0, DWORD PTR _idx0$[ebp]
	movss	xmm1, DWORD PTR _val$[ebp]
	subss	xmm1, xmm0
	movss	DWORD PTR _frac$[ebp], xmm1

; 242  : 	idx0 = ((unsigned)idx0) & (SIN_TABLE_SIZE-1);

	mov	eax, DWORD PTR _idx0$[ebp]
	and	eax, 1023				; 000003ffH
	mov	DWORD PTR _idx0$[ebp], eax

; 243  : 	idx1 = ((unsigned)idx1) & (SIN_TABLE_SIZE-1);

	mov	eax, DWORD PTR _idx1$[ebp]
	and	eax, 1023				; 000003ffH
	mov	DWORD PTR _idx1$[ebp], eax

; 244  : 	return (1.0f - frac) * _FastSinTable[idx0] + frac * _FastSinTable[idx1];

	movss	xmm0, DWORD PTR __real@3f800000
	subss	xmm0, DWORD PTR _frac$[ebp]
	mov	ecx, DWORD PTR ?_FastSinTable@@3AAV?$RefArrayHelper@M$0EAA@@@A ; _FastSinTable
	movss	DWORD PTR tv136[ebp], xmm0
	call	??B?$RefArrayHelper@M$0EAA@@@QAEPAMXZ	; RefArrayHelper<float,1024>::operator float *
	mov	ecx, DWORD PTR _idx0$[ebp]
	movss	xmm0, DWORD PTR tv136[ebp]
	mulss	xmm0, DWORD PTR [eax+ecx*4]
	mov	ecx, DWORD PTR ?_FastSinTable@@3AAV?$RefArrayHelper@M$0EAA@@@A ; _FastSinTable
	movss	DWORD PTR tv138[ebp], xmm0
	call	??B?$RefArrayHelper@M$0EAA@@@QAEPAMXZ	; RefArrayHelper<float,1024>::operator float *
	mov	edx, DWORD PTR _idx1$[ebp]
	movss	xmm0, DWORD PTR _frac$[ebp]
	mulss	xmm0, DWORD PTR [eax+edx*4]
	movss	xmm1, DWORD PTR tv138[ebp]
	addss	xmm1, xmm0
	movss	DWORD PTR tv133[ebp], xmm1
	fld	DWORD PTR tv133[ebp]

; 245  : }

	pop	edi
	pop	esi
	pop	ebx
	mov	esp, ebp
	pop	ebp
	ret	0
?Fast_Sin@WWMath@@SAMM@Z ENDP				; WWMath::Fast_Sin
_TEXT	ENDS
; Function compile flags: /Odtp /ZI
; File x:\github\renegade\dragonade_rxd\scripts\wwmath.h
;	COMDAT ?Float_To_Long@WWMath@@SAJM@Z
_TEXT	SEGMENT
$T1 = -80						; size = 16
_f$ = 8							; size = 4
?Float_To_Long@WWMath@@SAJM@Z PROC			; WWMath::Float_To_Long, COMDAT

; 217  : {

	push	ebx
	mov	ebx, esp
	sub	esp, 8
	and	esp, -16				; fffffff0H
	add	esp, 4
	push	ebp
	mov	ebp, DWORD PTR [ebx+4]
	mov	DWORD PTR [esp+4], ebp
	mov	ebp, esp
	sub	esp, 88					; 00000058H
	push	esi
	push	edi

; 218  :     return _mm_cvtt_ss2si(_mm_load_ss(&f));

	movss	xmm0, DWORD PTR _f$[ebx]
	movaps	XMMWORD PTR $T1[ebp], xmm0
	movaps	xmm0, XMMWORD PTR $T1[ebp]
	cvttss2si eax, xmm0

; 219  : }

	pop	edi
	pop	esi
	mov	esp, ebp
	pop	ebp
	mov	esp, ebx
	pop	ebx
	ret	0
?Float_To_Long@WWMath@@SAJM@Z ENDP			; WWMath::Float_To_Long
_TEXT	ENDS
; Function compile flags: /Odtp /ZI
; File x:\github\renegade\dragonade_rxd\scripts\wwmath.h
;	COMDAT ?Inv_Sqrt@WWMath@@SIMM@Z
_TEXT	SEGMENT
tv76 = -72						; size = 4
tv73 = -68						; size = 4
_number$ = 8						; size = 4
?Inv_Sqrt@WWMath@@SIMM@Z PROC				; WWMath::Inv_Sqrt, COMDAT

; 341  : {

	push	ebp
	mov	ebp, esp
	sub	esp, 72					; 00000048H
	push	ebx
	push	esi
	push	edi

; 342  : 	return 1.f / sqrt(number);

	push	ecx
	movss	xmm0, DWORD PTR _number$[ebp]
	movss	DWORD PTR [esp], xmm0
	call	?sqrt@@YAMM@Z				; sqrt
	add	esp, 4
	fstp	DWORD PTR tv73[ebp]
	movss	xmm0, DWORD PTR __real@3f800000
	divss	xmm0, DWORD PTR tv73[ebp]
	movss	DWORD PTR tv76[ebp], xmm0
	fld	DWORD PTR tv76[ebp]

; 343  : }

	pop	edi
	pop	esi
	pop	ebx
	mov	esp, ebp
	pop	ebp
	ret	4
?Inv_Sqrt@WWMath@@SIMM@Z ENDP				; WWMath::Inv_Sqrt
_TEXT	ENDS
; Function compile flags: /Odtp /ZI
; File x:\github\renegade\dragonade_rxd\scripts\wwmath.h
;	COMDAT ?Sqrt@WWMath@@SAMM@Z
_TEXT	SEGMENT
_val$ = 8						; size = 4
?Sqrt@WWMath@@SAMM@Z PROC				; WWMath::Sqrt, COMDAT

; 311  : {

	push	ebp
	mov	ebp, esp
	sub	esp, 64					; 00000040H
	push	ebx
	push	esi
	push	edi

; 312  :     return ::sqrtf(val);

	push	ecx
	movss	xmm0, DWORD PTR _val$[ebp]
	movss	DWORD PTR [esp], xmm0
	call	_sqrtf
	add	esp, 4

; 313  : }

	pop	edi
	pop	esi
	pop	ebx
	mov	esp, ebp
	pop	ebp
	ret	0
?Sqrt@WWMath@@SAMM@Z ENDP				; WWMath::Sqrt
_TEXT	ENDS
; Function compile flags: /Odtp /ZI
; File x:\github\renegade\dragonade_rxd\scripts\wwmath.h
;	COMDAT ?Sin@WWMath@@SAMM@Z
_TEXT	SEGMENT
_val$ = 8						; size = 4
?Sin@WWMath@@SAMM@Z PROC				; WWMath::Sin, COMDAT

; 232  : {

	push	ebp
	mov	ebp, esp
	sub	esp, 64					; 00000040H
	push	ebx
	push	esi
	push	edi

; 233  :     return ::sin(val);

	push	ecx
	movss	xmm0, DWORD PTR _val$[ebp]
	movss	DWORD PTR [esp], xmm0
	call	?sin@@YAMM@Z				; sin
	add	esp, 4

; 234  : }

	pop	edi
	pop	esi
	pop	ebx
	mov	esp, ebp
	pop	ebp
	ret	0
?Sin@WWMath@@SAMM@Z ENDP				; WWMath::Sin
_TEXT	ENDS
; Function compile flags: /Odtp /ZI
; File x:\github\renegade\dragonade_rxd\scripts\wwmath.h
;	COMDAT ?Cos@WWMath@@SAMM@Z
_TEXT	SEGMENT
_val$ = 8						; size = 4
?Cos@WWMath@@SAMM@Z PROC				; WWMath::Cos, COMDAT

; 227  : {

	push	ebp
	mov	ebp, esp
	sub	esp, 64					; 00000040H
	push	ebx
	push	esi
	push	edi

; 228  :     return ::cos(val);

	push	ecx
	movss	xmm0, DWORD PTR _val$[ebp]
	movss	DWORD PTR [esp], xmm0
	call	?cos@@YAMM@Z				; cos
	add	esp, 4

; 229  : }

	pop	edi
	pop	esi
	pop	ebx
	mov	esp, ebp
	pop	ebp
	ret	0
?Cos@WWMath@@SAMM@Z ENDP				; WWMath::Cos
_TEXT	ENDS
; Function compile flags: /Odtp /ZI
; File x:\github\renegade\dragonade_rxd\scripts\wwmath.h
;	COMDAT ?Float_To_Int_Floor@WWMath@@SAHABM@Z
_TEXT	SEGMENT
tv83 = -96						; size = 4
_r$ = -28						; size = 4
_mantissa$ = -24					; size = 4
_imask$ = -20						; size = 4
_expsign$ = -16						; size = 4
_exponent$ = -12					; size = 4
_sign$ = -8						; size = 4
_a$ = -4						; size = 4
_f$ = 8							; size = 4
?Float_To_Int_Floor@WWMath@@SAHABM@Z PROC		; WWMath::Float_To_Int_Floor, COMDAT

; 326  : {

	push	ebp
	mov	ebp, esp
	sub	esp, 96					; 00000060H
	push	ebx
	push	esi
	push	edi

; 327  : 	int a = *reinterpret_cast<const int*>(&f);

	mov	eax, DWORD PTR _f$[ebp]
	mov	ecx, DWORD PTR [eax]
	mov	DWORD PTR _a$[ebp], ecx

; 328  : 	int sign = (a>>31);

	mov	eax, DWORD PTR _a$[ebp]
	sar	eax, 31					; 0000001fH
	mov	DWORD PTR _sign$[ebp], eax

; 329  : 	a&=0x7fffffff;

	mov	eax, DWORD PTR _a$[ebp]
	and	eax, 2147483647				; 7fffffffH
	mov	DWORD PTR _a$[ebp], eax

; 330  : 	int exponent = (a>>23)-127;

	mov	eax, DWORD PTR _a$[ebp]
	sar	eax, 23					; 00000017H
	sub	eax, 127				; 0000007fH
	mov	DWORD PTR _exponent$[ebp], eax

; 331  : 	int expsign	= ~(exponent>>31);

	mov	eax, DWORD PTR _exponent$[ebp]
	sar	eax, 31					; 0000001fH
	not	eax
	mov	DWORD PTR _expsign$[ebp], eax

; 332  : 	int imask = ( (1<<(31-(exponent))))-1;

	mov	ecx, 31					; 0000001fH
	sub	ecx, DWORD PTR _exponent$[ebp]
	mov	eax, 1
	shl	eax, cl
	sub	eax, 1
	mov	DWORD PTR _imask$[ebp], eax

; 333  : 	int mantissa = (a&((1<<23)-1));

	mov	eax, DWORD PTR _a$[ebp]
	and	eax, 8388607				; 007fffffH
	mov	DWORD PTR _mantissa$[ebp], eax

; 334  : 	int r = ((unsigned int)(mantissa|(1<<23))<<8)>>(31-exponent);

	mov	eax, DWORD PTR _mantissa$[ebp]
	or	eax, 8388608				; 00800000H
	shl	eax, 8
	mov	ecx, 31					; 0000001fH
	sub	ecx, DWORD PTR _exponent$[ebp]
	shr	eax, cl
	mov	DWORD PTR _r$[ebp], eax

; 335  : #pragma warning(suppress: 6290) //warning C6290: Bitwise operation on logical result: ! has higher precedence than &. Use && or (!(x & y)) instead
; 336  : 	r = ((r & expsign) ^ (sign)) + ((!((mantissa<<8)&imask)&(expsign^((a-1)>>31)))&sign);

	mov	eax, DWORD PTR _mantissa$[ebp]
	shl	eax, 8
	and	eax, DWORD PTR _imask$[ebp]
	jne	SHORT $LN3@Float_To_I
	mov	DWORD PTR tv83[ebp], 1
	jmp	SHORT $LN4@Float_To_I
$LN3@Float_To_I:
	mov	DWORD PTR tv83[ebp], 0
$LN4@Float_To_I:
	mov	ecx, DWORD PTR _r$[ebp]
	and	ecx, DWORD PTR _expsign$[ebp]
	xor	ecx, DWORD PTR _sign$[ebp]
	mov	edx, DWORD PTR _a$[ebp]
	sub	edx, 1
	sar	edx, 31					; 0000001fH
	xor	edx, DWORD PTR _expsign$[ebp]
	and	edx, DWORD PTR tv83[ebp]
	and	edx, DWORD PTR _sign$[ebp]
	add	ecx, edx
	mov	DWORD PTR _r$[ebp], ecx

; 337  : 	return r;

	mov	eax, DWORD PTR _r$[ebp]

; 338  : }

	pop	edi
	pop	esi
	pop	ebx
	mov	esp, ebp
	pop	ebp
	ret	0
?Float_To_Int_Floor@WWMath@@SAHABM@Z ENDP		; WWMath::Float_To_Int_Floor
_TEXT	ENDS
; Function compile flags: /Odtp /ZI
; File x:\github\renegade\dragonade_rxd\scripts\wwmath.h
;	COMDAT ?Float_To_Int_Chop@WWMath@@SAHABM@Z
_TEXT	SEGMENT
_r$ = -20						; size = 4
_exponent$ = -16					; size = 4
_mantissa$ = -12					; size = 4
_sign$ = -8						; size = 4
_a$ = -4						; size = 4
_f$ = 8							; size = 4
?Float_To_Int_Chop@WWMath@@SAHABM@Z PROC		; WWMath::Float_To_Int_Chop, COMDAT

; 316  : {

	push	ebp
	mov	ebp, esp
	sub	esp, 84					; 00000054H
	push	ebx
	push	esi
	push	edi

; 317  :     int a = *reinterpret_cast<const int*>(&f);

	mov	eax, DWORD PTR _f$[ebp]
	mov	ecx, DWORD PTR [eax]
	mov	DWORD PTR _a$[ebp], ecx

; 318  :     int sign = (a>>31);

	mov	eax, DWORD PTR _a$[ebp]
	sar	eax, 31					; 0000001fH
	mov	DWORD PTR _sign$[ebp], eax

; 319  :     int mantissa = (a&((1<<23)-1))|(1<<23);

	mov	eax, DWORD PTR _a$[ebp]
	and	eax, 8388607				; 007fffffH
	or	eax, 8388608				; 00800000H
	mov	DWORD PTR _mantissa$[ebp], eax

; 320  :     int exponent = ((a&0x7fffffff)>>23)-127;

	mov	eax, DWORD PTR _a$[ebp]
	and	eax, 2147483647				; 7fffffffH
	sar	eax, 23					; 00000017H
	sub	eax, 127				; 0000007fH
	mov	DWORD PTR _exponent$[ebp], eax

; 321  :     int r = ((unsigned int)(mantissa)<<8)>>(31-exponent);

	mov	eax, DWORD PTR _mantissa$[ebp]
	shl	eax, 8
	mov	ecx, 31					; 0000001fH
	sub	ecx, DWORD PTR _exponent$[ebp]
	shr	eax, cl
	mov	DWORD PTR _r$[ebp], eax

; 322  :     return ((r ^ (sign)) - sign ) &~ (exponent>>31);

	mov	eax, DWORD PTR _r$[ebp]
	xor	eax, DWORD PTR _sign$[ebp]
	sub	eax, DWORD PTR _sign$[ebp]
	mov	ecx, DWORD PTR _exponent$[ebp]
	sar	ecx, 31					; 0000001fH
	not	ecx
	and	eax, ecx

; 323  : }

	pop	edi
	pop	esi
	pop	ebx
	mov	esp, ebp
	pop	ebp
	ret	0
?Float_To_Int_Chop@WWMath@@SAHABM@Z ENDP		; WWMath::Float_To_Int_Chop
_TEXT	ENDS
; Function compile flags: /Odtp /ZI
; File x:\github\renegade\dragonade_rxd\scripts\wwmath.h
;	COMDAT ?Fabs@WWMath@@SAMM@Z
_TEXT	SEGMENT
_value$ = -4						; size = 4
_val$ = 8						; size = 4
?Fabs@WWMath@@SAMM@Z PROC				; WWMath::Fabs, COMDAT

; 57   : 	{

	push	ebp
	mov	ebp, esp
	sub	esp, 68					; 00000044H
	push	ebx
	push	esi
	push	edi

; 58   : 		int value=*(int*)&val;

	mov	eax, DWORD PTR _val$[ebp]
	mov	DWORD PTR _value$[ebp], eax

; 59   : 		value&=0x7fffffff;

	mov	eax, DWORD PTR _value$[ebp]
	and	eax, 2147483647				; 7fffffffH
	mov	DWORD PTR _value$[ebp], eax

; 60   : 		return *(float*)&value;

	fld	DWORD PTR _value$[ebp]

; 61   : 	}

	pop	edi
	pop	esi
	pop	ebx
	mov	esp, ebp
	pop	ebp
	ret	0
?Fabs@WWMath@@SAMM@Z ENDP				; WWMath::Fabs
_TEXT	ENDS
; Function compile flags: /Odtp /ZI
;	COMDAT ??4CriticalSectionClass@@QAEAAV0@ABV0@@Z
_TEXT	SEGMENT
_this$ = -4						; size = 4
___that$ = 8						; size = 4
??4CriticalSectionClass@@QAEAAV0@ABV0@@Z PROC		; CriticalSectionClass::operator=, COMDAT
; _this$ = ecx
	push	ebp
	mov	ebp, esp
	sub	esp, 68					; 00000044H
	push	ebx
	push	esi
	push	edi
	mov	DWORD PTR _this$[ebp], ecx
	mov	eax, DWORD PTR ___that$[ebp]
	mov	ecx, DWORD PTR [eax]
	mov	edx, DWORD PTR [eax+4]
	mov	eax, DWORD PTR _this$[ebp]
	mov	DWORD PTR [eax], ecx
	mov	DWORD PTR [eax+4], edx
	mov	eax, DWORD PTR _this$[ebp]
	pop	edi
	pop	esi
	pop	ebx
	mov	esp, ebp
	pop	ebp
	ret	4
??4CriticalSectionClass@@QAEAAV0@ABV0@@Z ENDP		; CriticalSectionClass::operator=
_TEXT	ENDS
; Function compile flags: /Odtp /ZI
;	COMDAT ??_EThreadClass@@UAEPAXI@Z
_TEXT	SEGMENT
_this$ = -4						; size = 4
___flags$ = 8						; size = 4
??_EThreadClass@@UAEPAXI@Z PROC				; ThreadClass::`vector deleting destructor', COMDAT
; _this$ = ecx
	push	ebp
	mov	ebp, esp
	sub	esp, 68					; 00000044H
	push	ebx
	push	esi
	push	edi
	mov	DWORD PTR _this$[ebp], ecx
	mov	eax, DWORD PTR ___flags$[ebp]
	and	eax, 2
	je	SHORT $LN3@vector
	push	OFFSET ??1ThreadClass@@UAE@XZ		; ThreadClass::~ThreadClass
	mov	eax, DWORD PTR _this$[ebp]
	mov	ecx, DWORD PTR [eax-4]
	push	ecx
	push	88					; 00000058H
	mov	edx, DWORD PTR _this$[ebp]
	push	edx
	call	??_I@YGXPAXIHP6EX0@Z@Z
	mov	eax, DWORD PTR ___flags$[ebp]
	and	eax, 1
	je	SHORT $LN2@vector
	mov	eax, DWORD PTR _this$[ebp]
	sub	eax, 4
	push	eax
	call	??_V@YAXPAX@Z				; operator delete[]
	add	esp, 4
$LN2@vector:
	mov	eax, DWORD PTR _this$[ebp]
	sub	eax, 4
	jmp	SHORT $LN4@vector
$LN3@vector:
	mov	ecx, DWORD PTR _this$[ebp]
	call	??1ThreadClass@@UAE@XZ			; ThreadClass::~ThreadClass
	mov	eax, DWORD PTR ___flags$[ebp]
	and	eax, 1
	je	SHORT $LN1@vector
	mov	eax, DWORD PTR _this$[ebp]
	push	eax
	call	??3@YAXPAX@Z				; operator delete
	add	esp, 4
$LN1@vector:
	mov	eax, DWORD PTR _this$[ebp]
$LN4@vector:
	pop	edi
	pop	esi
	pop	ebx
	mov	esp, ebp
	pop	ebp
	ret	4
??_EThreadClass@@UAEPAXI@Z ENDP				; ThreadClass::`vector deleting destructor'
_TEXT	ENDS
; Function compile flags: /Odtp /ZI
;	COMDAT ??_GThreadClass@@UAEPAXI@Z
_TEXT	SEGMENT
_this$ = -4						; size = 4
___flags$ = 8						; size = 4
??_GThreadClass@@UAEPAXI@Z PROC				; ThreadClass::`scalar deleting destructor', COMDAT
; _this$ = ecx
	push	ebp
	mov	ebp, esp
	sub	esp, 68					; 00000044H
	push	ebx
	push	esi
	push	edi
	mov	DWORD PTR _this$[ebp], ecx
	mov	ecx, DWORD PTR _this$[ebp]
	call	??1ThreadClass@@UAE@XZ			; ThreadClass::~ThreadClass
	mov	eax, DWORD PTR ___flags$[ebp]
	and	eax, 1
	je	SHORT $LN1@scalar
	mov	eax, DWORD PTR _this$[ebp]
	push	eax
	call	??3@YAXPAX@Z				; operator delete
	add	esp, 4
$LN1@scalar:
	mov	eax, DWORD PTR _this$[ebp]
	pop	edi
	pop	esi
	pop	ebx
	mov	esp, ebp
	pop	ebp
	ret	4
??_GThreadClass@@UAEPAXI@Z ENDP				; ThreadClass::`scalar deleting destructor'
_TEXT	ENDS
; Function compile flags: /Odtp /ZI
;	COMDAT ??4ThreadClass@@QAEAAV0@ABV0@@Z
_TEXT	SEGMENT
_$S1$1 = -8						; size = 4
_this$ = -4						; size = 4
___that$ = 8						; size = 4
??4ThreadClass@@QAEAAV0@ABV0@@Z PROC			; ThreadClass::operator=, COMDAT
; _this$ = ecx
	push	ebp
	mov	ebp, esp
	sub	esp, 72					; 00000048H
	push	ebx
	push	esi
	push	edi
	mov	DWORD PTR _this$[ebp], ecx
	mov	eax, DWORD PTR _this$[ebp]
	mov	ecx, DWORD PTR ___that$[ebp]
	mov	dl, BYTE PTR [ecx+4]
	mov	BYTE PTR [eax+4], dl
	mov	DWORD PTR _$S1$1[ebp], 0
	jmp	SHORT $LN3@operator
$LN2@operator:
	mov	eax, DWORD PTR _$S1$1[ebp]
	add	eax, 1
	mov	DWORD PTR _$S1$1[ebp], eax
$LN3@operator:
	cmp	DWORD PTR _$S1$1[ebp], 67		; 00000043H
	jae	SHORT $LN1@operator
	mov	eax, DWORD PTR _this$[ebp]
	add	eax, DWORD PTR _$S1$1[ebp]
	mov	ecx, DWORD PTR ___that$[ebp]
	add	ecx, DWORD PTR _$S1$1[ebp]
	mov	dl, BYTE PTR [ecx+5]
	mov	BYTE PTR [eax+5], dl
	jmp	SHORT $LN2@operator
$LN1@operator:
	mov	eax, DWORD PTR _this$[ebp]
	mov	ecx, DWORD PTR ___that$[ebp]
	mov	edx, DWORD PTR [ecx+72]
	mov	DWORD PTR [eax+72], edx
	mov	eax, DWORD PTR _this$[ebp]
	mov	ecx, DWORD PTR ___that$[ebp]
	mov	edx, DWORD PTR [ecx+76]
	mov	DWORD PTR [eax+76], edx
	mov	eax, DWORD PTR _this$[ebp]
	mov	ecx, DWORD PTR ___that$[ebp]
	mov	edx, DWORD PTR [ecx+80]
	mov	DWORD PTR [eax+80], edx
	mov	eax, DWORD PTR _this$[ebp]
	mov	ecx, DWORD PTR ___that$[ebp]
	mov	edx, DWORD PTR [ecx+84]
	mov	DWORD PTR [eax+84], edx
	mov	eax, DWORD PTR _this$[ebp]
	pop	edi
	pop	esi
	pop	ebx
	mov	esp, ebp
	pop	ebp
	ret	4
??4ThreadClass@@QAEAAV0@ABV0@@Z ENDP			; ThreadClass::operator=
_TEXT	ENDS
; Function compile flags: /Odtp /ZI
;	COMDAT ??0ThreadClass@@QAE@ABV0@@Z
_TEXT	SEGMENT
_this$ = -4						; size = 4
___that$ = 8						; size = 4
??0ThreadClass@@QAE@ABV0@@Z PROC			; ThreadClass::ThreadClass, COMDAT
; _this$ = ecx
	push	ebp
	mov	ebp, esp
	sub	esp, 68					; 00000044H
	push	ebx
	push	esi
	push	edi
	mov	DWORD PTR _this$[ebp], ecx
	mov	eax, DWORD PTR _this$[ebp]
	mov	DWORD PTR [eax], OFFSET ??_7ThreadClass@@6B@
	mov	eax, DWORD PTR _this$[ebp]
	mov	ecx, DWORD PTR ___that$[ebp]
	mov	dl, BYTE PTR [ecx+4]
	mov	BYTE PTR [eax+4], dl
	mov	esi, DWORD PTR ___that$[ebp]
	add	esi, 5
	mov	edi, DWORD PTR _this$[ebp]
	add	edi, 5
	mov	ecx, 16					; 00000010H
	rep movsd
	movsw
	movsb
	mov	eax, DWORD PTR _this$[ebp]
	mov	ecx, DWORD PTR ___that$[ebp]
	mov	edx, DWORD PTR [ecx+72]
	mov	DWORD PTR [eax+72], edx
	mov	eax, DWORD PTR _this$[ebp]
	mov	ecx, DWORD PTR ___that$[ebp]
	mov	edx, DWORD PTR [ecx+76]
	mov	DWORD PTR [eax+76], edx
	mov	eax, DWORD PTR _this$[ebp]
	mov	ecx, DWORD PTR ___that$[ebp]
	mov	edx, DWORD PTR [ecx+80]
	mov	DWORD PTR [eax+80], edx
	mov	eax, DWORD PTR _this$[ebp]
	mov	ecx, DWORD PTR ___that$[ebp]
	mov	edx, DWORD PTR [ecx+84]
	mov	DWORD PTR [eax+84], edx
	mov	eax, DWORD PTR _this$[ebp]
	pop	edi
	pop	esi
	pop	ebx
	mov	esp, ebp
	pop	ebp
	ret	4
??0ThreadClass@@QAE@ABV0@@Z ENDP			; ThreadClass::ThreadClass
_TEXT	ENDS
; Function compile flags: /Odtp /ZI
; File x:\github\renegade\dragonade_rxd\scripts\threadclass.h
;	COMDAT ?Get_Name@ThreadClass@@QAEPBDXZ
_TEXT	SEGMENT
_this$ = -4						; size = 4
?Get_Name@ThreadClass@@QAEPBDXZ PROC			; ThreadClass::Get_Name, COMDAT
; _this$ = ecx

; 45   : 	{

	push	ebp
	mov	ebp, esp
	sub	esp, 68					; 00000044H
	push	ebx
	push	esi
	push	edi
	mov	DWORD PTR _this$[ebp], ecx

; 46   : 		return name;

	mov	eax, DWORD PTR _this$[ebp]
	add	eax, 5

; 47   : 	}

	pop	edi
	pop	esi
	pop	ebx
	mov	esp, ebp
	pop	ebp
	ret	0
?Get_Name@ThreadClass@@QAEPBDXZ ENDP			; ThreadClass::Get_Name
_TEXT	ENDS
; Function compile flags: /Odtp /ZI
; File x:\github\renegade\dragonade_rxd\scripts\threadclass.h
;	COMDAT ?Get_Current_Thread_ID@ThreadClass@@SAHXZ
_TEXT	SEGMENT
?Get_Current_Thread_ID@ThreadClass@@SAHXZ PROC		; ThreadClass::Get_Current_Thread_ID, COMDAT

; 41   : 	{

	push	ebp
	mov	ebp, esp
	sub	esp, 64					; 00000040H
	push	ebx
	push	esi
	push	edi

; 42   : 		return GetCurrentThreadId();

	call	DWORD PTR __imp__GetCurrentThreadId@0

; 43   : 	}

	pop	edi
	pop	esi
	pop	ebx
	mov	esp, ebp
	pop	ebp
	ret	0
?Get_Current_Thread_ID@ThreadClass@@SAHXZ ENDP		; ThreadClass::Get_Current_Thread_ID
_TEXT	ENDS
; Function compile flags: /Odtp /ZI
; File x:\github\renegade\dragonade_rxd\scripts\threadclass.h
;	COMDAT ?Is_Running@ThreadClass@@QAE_NXZ
_TEXT	SEGMENT
tv66 = -72						; size = 4
_this$ = -4						; size = 4
?Is_Running@ThreadClass@@QAE_NXZ PROC			; ThreadClass::Is_Running, COMDAT
; _this$ = ecx

; 37   : 	{

	push	ebp
	mov	ebp, esp
	sub	esp, 72					; 00000048H
	push	ebx
	push	esi
	push	edi
	mov	DWORD PTR _this$[ebp], ecx

; 38   : 		return handle != 0;

	mov	eax, DWORD PTR _this$[ebp]
	cmp	DWORD PTR [eax+80], 0
	je	SHORT $LN3@Is_Running
	mov	DWORD PTR tv66[ebp], 1
	jmp	SHORT $LN4@Is_Running
$LN3@Is_Running:
	mov	DWORD PTR tv66[ebp], 0
$LN4@Is_Running:
	mov	al, BYTE PTR tv66[ebp]

; 39   : 	}

	pop	edi
	pop	esi
	pop	ebx
	mov	esp, ebp
	pop	ebp
	ret	0
?Is_Running@ThreadClass@@QAE_NXZ ENDP			; ThreadClass::Is_Running
_TEXT	ENDS
; Function compile flags: /Odtp /ZI
;	COMDAT ??_EStringClass@@QAEPAXI@Z
_TEXT	SEGMENT
_this$ = -4						; size = 4
___flags$ = 8						; size = 4
??_EStringClass@@QAEPAXI@Z PROC				; StringClass::`vector deleting destructor', COMDAT
; _this$ = ecx
	push	ebp
	mov	ebp, esp
	sub	esp, 68					; 00000044H
	push	ebx
	push	esi
	push	edi
	mov	DWORD PTR _this$[ebp], ecx
	mov	eax, DWORD PTR ___flags$[ebp]
	and	eax, 2
	je	SHORT $LN3@vector
	push	OFFSET ??1StringClass@@QAE@XZ		; StringClass::~StringClass
	mov	eax, DWORD PTR _this$[ebp]
	mov	ecx, DWORD PTR [eax-4]
	push	ecx
	push	4
	mov	edx, DWORD PTR _this$[ebp]
	push	edx
	call	??_I@YGXPAXIHP6EX0@Z@Z
	mov	eax, DWORD PTR ___flags$[ebp]
	and	eax, 1
	je	SHORT $LN2@vector
	mov	eax, DWORD PTR _this$[ebp]
	sub	eax, 4
	push	eax
	call	??_V@YAXPAX@Z				; operator delete[]
	add	esp, 4
$LN2@vector:
	mov	eax, DWORD PTR _this$[ebp]
	sub	eax, 4
	jmp	SHORT $LN4@vector
$LN3@vector:
	mov	ecx, DWORD PTR _this$[ebp]
	call	??1StringClass@@QAE@XZ			; StringClass::~StringClass
	mov	eax, DWORD PTR ___flags$[ebp]
	and	eax, 1
	je	SHORT $LN1@vector
	mov	eax, DWORD PTR _this$[ebp]
	push	eax
	call	??3@YAXPAX@Z				; operator delete
	add	esp, 4
$LN1@vector:
	mov	eax, DWORD PTR _this$[ebp]
$LN4@vector:
	pop	edi
	pop	esi
	pop	ebx
	mov	esp, ebp
	pop	ebp
	ret	4
??_EStringClass@@QAEPAXI@Z ENDP				; StringClass::`vector deleting destructor'
_TEXT	ENDS
; Function compile flags: /Odtp /ZI
; File x:\github\renegade\dragonade_rxd\scripts\engine_string.h
;	COMDAT ??1StringClass@@QAE@XZ
_TEXT	SEGMENT
_this$ = -4						; size = 4
??1StringClass@@QAE@XZ PROC				; StringClass::~StringClass, COMDAT
; _this$ = ecx

; 366  : {

	push	ebp
	mov	ebp, esp
	sub	esp, 68					; 00000044H
	push	ebx
	push	esi
	push	edi
	mov	DWORD PTR _this$[ebp], ecx

; 367  : 	Free_String ();

	mov	ecx, DWORD PTR _this$[ebp]
	call	DWORD PTR __imp_?Free_String@StringClass@@AAEXXZ

; 368  : }

	pop	edi
	pop	esi
	pop	ebx
	mov	esp, ebp
	pop	ebp
	ret	0
??1StringClass@@QAE@XZ ENDP				; StringClass::~StringClass
_TEXT	ENDS
; Function compile flags: /Odtp /ZI
;	COMDAT ??_EPostLoadableClass@@UAEPAXI@Z
_TEXT	SEGMENT
_this$ = -4						; size = 4
___flags$ = 8						; size = 4
??_EPostLoadableClass@@UAEPAXI@Z PROC			; PostLoadableClass::`vector deleting destructor', COMDAT
; _this$ = ecx
	push	ebp
	mov	ebp, esp
	sub	esp, 68					; 00000044H
	push	ebx
	push	esi
	push	edi
	mov	DWORD PTR _this$[ebp], ecx
	mov	eax, DWORD PTR ___flags$[ebp]
	and	eax, 2
	je	SHORT $LN3@vector
	push	OFFSET ??1PostLoadableClass@@UAE@XZ	; PostLoadableClass::~PostLoadableClass
	mov	eax, DWORD PTR _this$[ebp]
	mov	ecx, DWORD PTR [eax-4]
	push	ecx
	push	8
	mov	edx, DWORD PTR _this$[ebp]
	push	edx
	call	??_I@YGXPAXIHP6EX0@Z@Z
	mov	eax, DWORD PTR ___flags$[ebp]
	and	eax, 1
	je	SHORT $LN2@vector
	mov	eax, DWORD PTR _this$[ebp]
	sub	eax, 4
	push	eax
	call	??_V@YAXPAX@Z				; operator delete[]
	add	esp, 4
$LN2@vector:
	mov	eax, DWORD PTR _this$[ebp]
	sub	eax, 4
	jmp	SHORT $LN4@vector
$LN3@vector:
	mov	ecx, DWORD PTR _this$[ebp]
	call	??1PostLoadableClass@@UAE@XZ		; PostLoadableClass::~PostLoadableClass
	mov	eax, DWORD PTR ___flags$[ebp]
	and	eax, 1
	je	SHORT $LN1@vector
	mov	eax, DWORD PTR _this$[ebp]
	push	eax
	call	??3@YAXPAX@Z				; operator delete
	add	esp, 4
$LN1@vector:
	mov	eax, DWORD PTR _this$[ebp]
$LN4@vector:
	pop	edi
	pop	esi
	pop	ebx
	mov	esp, ebp
	pop	ebp
	ret	4
??_EPostLoadableClass@@UAEPAXI@Z ENDP			; PostLoadableClass::`vector deleting destructor'
_TEXT	ENDS
; Function compile flags: /Odtp /ZI
;	COMDAT ??_GPostLoadableClass@@UAEPAXI@Z
_TEXT	SEGMENT
_this$ = -4						; size = 4
___flags$ = 8						; size = 4
??_GPostLoadableClass@@UAEPAXI@Z PROC			; PostLoadableClass::`scalar deleting destructor', COMDAT
; _this$ = ecx
	push	ebp
	mov	ebp, esp
	sub	esp, 68					; 00000044H
	push	ebx
	push	esi
	push	edi
	mov	DWORD PTR _this$[ebp], ecx
	mov	ecx, DWORD PTR _this$[ebp]
	call	??1PostLoadableClass@@UAE@XZ		; PostLoadableClass::~PostLoadableClass
	mov	eax, DWORD PTR ___flags$[ebp]
	and	eax, 1
	je	SHORT $LN1@scalar
	mov	eax, DWORD PTR _this$[ebp]
	push	eax
	call	??3@YAXPAX@Z				; operator delete
	add	esp, 4
$LN1@scalar:
	mov	eax, DWORD PTR _this$[ebp]
	pop	edi
	pop	esi
	pop	ebx
	mov	esp, ebp
	pop	ebp
	ret	4
??_GPostLoadableClass@@UAEPAXI@Z ENDP			; PostLoadableClass::`scalar deleting destructor'
_TEXT	ENDS
; Function compile flags: /Odtp /ZI
;	COMDAT ??4PostLoadableClass@@QAEAAV0@ABV0@@Z
_TEXT	SEGMENT
_this$ = -4						; size = 4
___that$ = 8						; size = 4
??4PostLoadableClass@@QAEAAV0@ABV0@@Z PROC		; PostLoadableClass::operator=, COMDAT
; _this$ = ecx
	push	ebp
	mov	ebp, esp
	sub	esp, 68					; 00000044H
	push	ebx
	push	esi
	push	edi
	mov	DWORD PTR _this$[ebp], ecx
	mov	eax, DWORD PTR _this$[ebp]
	mov	ecx, DWORD PTR ___that$[ebp]
	mov	dl, BYTE PTR [ecx+4]
	mov	BYTE PTR [eax+4], dl
	mov	eax, DWORD PTR _this$[ebp]
	pop	edi
	pop	esi
	pop	ebx
	mov	esp, ebp
	pop	ebp
	ret	4
??4PostLoadableClass@@QAEAAV0@ABV0@@Z ENDP		; PostLoadableClass::operator=
_TEXT	ENDS
; Function compile flags: /Odtp /ZI
;	COMDAT ??0PostLoadableClass@@QAE@ABV0@@Z
_TEXT	SEGMENT
_this$ = -4						; size = 4
___that$ = 8						; size = 4
??0PostLoadableClass@@QAE@ABV0@@Z PROC			; PostLoadableClass::PostLoadableClass, COMDAT
; _this$ = ecx
	push	ebp
	mov	ebp, esp
	sub	esp, 68					; 00000044H
	push	ebx
	push	esi
	push	edi
	mov	DWORD PTR _this$[ebp], ecx
	mov	eax, DWORD PTR _this$[ebp]
	mov	DWORD PTR [eax], OFFSET ??_7PostLoadableClass@@6B@
	mov	eax, DWORD PTR _this$[ebp]
	mov	ecx, DWORD PTR ___that$[ebp]
	mov	dl, BYTE PTR [ecx+4]
	mov	BYTE PTR [eax+4], dl
	mov	eax, DWORD PTR _this$[ebp]
	pop	edi
	pop	esi
	pop	ebx
	mov	esp, ebp
	pop	ebp
	ret	4
??0PostLoadableClass@@QAE@ABV0@@Z ENDP			; PostLoadableClass::PostLoadableClass
_TEXT	ENDS
; Function compile flags: /Odtp /ZI
; File x:\github\renegade\dragonade_rxd\scripts\postloadableclass.h
;	COMDAT ?Set_Post_Load_Registered@PostLoadableClass@@QAEX_N@Z
_TEXT	SEGMENT
_this$ = -4						; size = 4
_onoff$ = 8						; size = 1
?Set_Post_Load_Registered@PostLoadableClass@@QAEX_N@Z PROC ; PostLoadableClass::Set_Post_Load_Registered, COMDAT
; _this$ = ecx

; 22   : 	void									Set_Post_Load_Registered(bool onoff)	{ IsPostLoadRegistered = onoff; }

	push	ebp
	mov	ebp, esp
	sub	esp, 68					; 00000044H
	push	ebx
	push	esi
	push	edi
	mov	DWORD PTR _this$[ebp], ecx
	mov	eax, DWORD PTR _this$[ebp]
	mov	cl, BYTE PTR _onoff$[ebp]
	mov	BYTE PTR [eax+4], cl
	pop	edi
	pop	esi
	pop	ebx
	mov	esp, ebp
	pop	ebp
	ret	4
?Set_Post_Load_Registered@PostLoadableClass@@QAEX_N@Z ENDP ; PostLoadableClass::Set_Post_Load_Registered
_TEXT	ENDS
; Function compile flags: /Odtp /ZI
; File x:\github\renegade\dragonade_rxd\scripts\postloadableclass.h
;	COMDAT ?Is_Post_Load_Registered@PostLoadableClass@@QBE_NXZ
_TEXT	SEGMENT
_this$ = -4						; size = 4
?Is_Post_Load_Registered@PostLoadableClass@@QBE_NXZ PROC ; PostLoadableClass::Is_Post_Load_Registered, COMDAT
; _this$ = ecx

; 21   : 	bool									Is_Post_Load_Registered(void) const				{ return IsPostLoadRegistered; }

	push	ebp
	mov	ebp, esp
	sub	esp, 68					; 00000044H
	push	ebx
	push	esi
	push	edi
	mov	DWORD PTR _this$[ebp], ecx
	mov	eax, DWORD PTR _this$[ebp]
	mov	al, BYTE PTR [eax+4]
	pop	edi
	pop	esi
	pop	ebx
	mov	esp, ebp
	pop	ebp
	ret	0
?Is_Post_Load_Registered@PostLoadableClass@@QBE_NXZ ENDP ; PostLoadableClass::Is_Post_Load_Registered
_TEXT	ENDS
; Function compile flags: /Odtp /ZI
; File x:\github\renegade\dragonade_rxd\scripts\postloadableclass.h
;	COMDAT ?On_Post_Load@PostLoadableClass@@UAEXXZ
_TEXT	SEGMENT
_this$ = -4						; size = 4
?On_Post_Load@PostLoadableClass@@UAEXXZ PROC		; PostLoadableClass::On_Post_Load, COMDAT
; _this$ = ecx

; 20   : 	virtual void						On_Post_Load (void)							{ }

	push	ebp
	mov	ebp, esp
	sub	esp, 68					; 00000044H
	push	ebx
	push	esi
	push	edi
	mov	DWORD PTR _this$[ebp], ecx
	pop	edi
	pop	esi
	pop	ebx
	mov	esp, ebp
	pop	ebp
	ret	0
?On_Post_Load@PostLoadableClass@@UAEXXZ ENDP		; PostLoadableClass::On_Post_Load
_TEXT	ENDS
; Function compile flags: /Odtp /ZI
; File x:\github\renegade\dragonade_rxd\scripts\postloadableclass.h
;	COMDAT ??1PostLoadableClass@@UAE@XZ
_TEXT	SEGMENT
_this$ = -4						; size = 4
??1PostLoadableClass@@UAE@XZ PROC			; PostLoadableClass::~PostLoadableClass, COMDAT
; _this$ = ecx

; 19   : 	virtual ~PostLoadableClass(void)													{ }

	push	ebp
	mov	ebp, esp
	sub	esp, 68					; 00000044H
	push	ebx
	push	esi
	push	edi
	mov	DWORD PTR _this$[ebp], ecx
	mov	eax, DWORD PTR _this$[ebp]
	mov	DWORD PTR [eax], OFFSET ??_7PostLoadableClass@@6B@
	pop	edi
	pop	esi
	pop	ebx
	mov	esp, ebp
	pop	ebp
	ret	0
??1PostLoadableClass@@UAE@XZ ENDP			; PostLoadableClass::~PostLoadableClass
_TEXT	ENDS
; Function compile flags: /Odtp /ZI
; File x:\github\renegade\dragonade_rxd\scripts\postloadableclass.h
;	COMDAT ??0PostLoadableClass@@QAE@XZ
_TEXT	SEGMENT
_this$ = -4						; size = 4
??0PostLoadableClass@@QAE@XZ PROC			; PostLoadableClass::PostLoadableClass, COMDAT
; _this$ = ecx

; 18   : 	PostLoadableClass(void) : IsPostLoadRegistered(false)						{ }

	push	ebp
	mov	ebp, esp
	sub	esp, 68					; 00000044H
	push	ebx
	push	esi
	push	edi
	mov	DWORD PTR _this$[ebp], ecx
	mov	eax, DWORD PTR _this$[ebp]
	mov	DWORD PTR [eax], OFFSET ??_7PostLoadableClass@@6B@
	mov	eax, DWORD PTR _this$[ebp]
	mov	BYTE PTR [eax+4], 0
	mov	eax, DWORD PTR _this$[ebp]
	pop	edi
	pop	esi
	pop	ebx
	mov	esp, ebp
	pop	ebp
	ret	0
??0PostLoadableClass@@QAE@XZ ENDP			; PostLoadableClass::PostLoadableClass
_TEXT	ENDS
; Function compile flags: /Odtp /ZI
; File c:\program files (x86)\microsoft visual studio 11.0\vc\include\math.h
;	COMDAT ?sqrt@@YAMM@Z
_TEXT	SEGMENT
__X$ = 8						; size = 4
?sqrt@@YAMM@Z PROC					; sqrt, COMDAT

; 541  :         {return (sqrtf(_X)); }

	push	ebp
	mov	ebp, esp
	sub	esp, 64					; 00000040H
	push	ebx
	push	esi
	push	edi
	push	ecx
	movss	xmm0, DWORD PTR __X$[ebp]
	movss	DWORD PTR [esp], xmm0
	call	_sqrtf
	add	esp, 4
	pop	edi
	pop	esi
	pop	ebx
	mov	esp, ebp
	pop	ebp
	ret	0
?sqrt@@YAMM@Z ENDP					; sqrt
_TEXT	ENDS
; Function compile flags: /Odtp /ZI
; File c:\program files (x86)\microsoft visual studio 11.0\vc\include\math.h
;	COMDAT ?sin@@YAMM@Z
_TEXT	SEGMENT
__X$ = 8						; size = 4
?sin@@YAMM@Z PROC					; sin, COMDAT

; 537  :         {return (sinf(_X)); }

	push	ebp
	mov	ebp, esp
	sub	esp, 64					; 00000040H
	push	ebx
	push	esi
	push	edi
	push	ecx
	movss	xmm0, DWORD PTR __X$[ebp]
	movss	DWORD PTR [esp], xmm0
	call	_sinf
	add	esp, 4
	pop	edi
	pop	esi
	pop	ebx
	mov	esp, ebp
	pop	ebp
	ret	0
?sin@@YAMM@Z ENDP					; sin
_TEXT	ENDS
; Function compile flags: /Odtp /ZI
; File c:\program files (x86)\microsoft visual studio 11.0\vc\include\math.h
;	COMDAT ?cos@@YAMM@Z
_TEXT	SEGMENT
__X$ = 8						; size = 4
?cos@@YAMM@Z PROC					; cos, COMDAT

; 511  :         {return (cosf(_X)); }

	push	ebp
	mov	ebp, esp
	sub	esp, 64					; 00000040H
	push	ebx
	push	esi
	push	edi
	push	ecx
	movss	xmm0, DWORD PTR __X$[ebp]
	movss	DWORD PTR [esp], xmm0
	call	_cosf
	add	esp, 4
	pop	edi
	pop	esi
	pop	ebx
	mov	esp, ebp
	pop	ebp
	ret	0
?cos@@YAMM@Z ENDP					; cos
_TEXT	ENDS
; Function compile flags: /Odtp /ZI
; File c:\program files (x86)\microsoft visual studio 11.0\vc\include\math.h
;	COMDAT ?atan2@@YAMMM@Z
_TEXT	SEGMENT
__Y$ = 8						; size = 4
__X$ = 12						; size = 4
?atan2@@YAMMM@Z PROC					; atan2, COMDAT

; 507  :         {return (atan2f(_Y, _X)); }

	push	ebp
	mov	ebp, esp
	sub	esp, 64					; 00000040H
	push	ebx
	push	esi
	push	edi
	push	ecx
	movss	xmm0, DWORD PTR __X$[ebp]
	movss	DWORD PTR [esp], xmm0
	push	ecx
	movss	xmm0, DWORD PTR __Y$[ebp]
	movss	DWORD PTR [esp], xmm0
	call	_atan2f
	add	esp, 8
	pop	edi
	pop	esi
	pop	ebx
	mov	esp, ebp
	pop	ebp
	ret	0
?atan2@@YAMMM@Z ENDP					; atan2
_TEXT	ENDS
; Function compile flags: /Odtp /ZI
; File c:\program files (x86)\microsoft visual studio 11.0\vc\include\math.h
;	COMDAT ?atan@@YAMM@Z
_TEXT	SEGMENT
__X$ = 8						; size = 4
?atan@@YAMM@Z PROC					; atan, COMDAT

; 505  :         {return (atanf(_X)); }

	push	ebp
	mov	ebp, esp
	sub	esp, 64					; 00000040H
	push	ebx
	push	esi
	push	edi
	push	ecx
	movss	xmm0, DWORD PTR __X$[ebp]
	movss	DWORD PTR [esp], xmm0
	call	_atanf
	add	esp, 4
	pop	edi
	pop	esi
	pop	ebx
	mov	esp, ebp
	pop	ebp
	ret	0
?atan@@YAMM@Z ENDP					; atan
_TEXT	ENDS
; Function compile flags: /Odtp /ZI
; File c:\program files (x86)\microsoft visual studio 11.0\vc\include\math.h
;	COMDAT ?asin@@YAMM@Z
_TEXT	SEGMENT
__X$ = 8						; size = 4
?asin@@YAMM@Z PROC					; asin, COMDAT

; 503  :         {return (asinf(_X)); }

	push	ebp
	mov	ebp, esp
	sub	esp, 64					; 00000040H
	push	ebx
	push	esi
	push	edi
	push	ecx
	movss	xmm0, DWORD PTR __X$[ebp]
	movss	DWORD PTR [esp], xmm0
	call	_asinf
	add	esp, 4
	pop	edi
	pop	esi
	pop	ebx
	mov	esp, ebp
	pop	ebp
	ret	0
?asin@@YAMM@Z ENDP					; asin
_TEXT	ENDS
; Function compile flags: /Odtp /ZI
; File c:\program files (x86)\microsoft visual studio 11.0\vc\include\math.h
;	COMDAT ?acos@@YAMM@Z
_TEXT	SEGMENT
__X$ = 8						; size = 4
?acos@@YAMM@Z PROC					; acos, COMDAT

; 501  :         {return (acosf(_X)); }

	push	ebp
	mov	ebp, esp
	sub	esp, 64					; 00000040H
	push	ebx
	push	esi
	push	edi
	push	ecx
	movss	xmm0, DWORD PTR __X$[ebp]
	movss	DWORD PTR [esp], xmm0
	call	_acosf
	add	esp, 4
	pop	edi
	pop	esi
	pop	ebx
	mov	esp, ebp
	pop	ebp
	ret	0
?acos@@YAMM@Z ENDP					; acos
_TEXT	ENDS
; Function compile flags: /Odtp /ZI
; File c:\program files (x86)\microsoft visual studio 11.0\vc\include\math.h
;	COMDAT _sqrtf
_TEXT	SEGMENT
tv71 = -68						; size = 4
__X$ = 8						; size = 4
_sqrtf	PROC						; COMDAT

; 434  :         {return ((float)sqrt((double)_X)); }

	push	ebp
	mov	ebp, esp
	sub	esp, 68					; 00000044H
	push	ebx
	push	esi
	push	edi
	cvtss2sd xmm0, DWORD PTR __X$[ebp]
	call	__libm_sse2_sqrt_precise
	cvtsd2ss xmm0, xmm0
	movss	DWORD PTR tv71[ebp], xmm0
	fld	DWORD PTR tv71[ebp]
	pop	edi
	pop	esi
	pop	ebx
	mov	esp, ebp
	pop	ebp
	ret	0
_sqrtf	ENDP
_TEXT	ENDS
; Function compile flags: /Odtp /ZI
; File c:\program files (x86)\microsoft visual studio 11.0\vc\include\math.h
;	COMDAT _sinf
_TEXT	SEGMENT
tv71 = -68						; size = 4
__X$ = 8						; size = 4
_sinf	PROC						; COMDAT

; 430  :         {return ((float)sin((double)_X)); }

	push	ebp
	mov	ebp, esp
	sub	esp, 68					; 00000044H
	push	ebx
	push	esi
	push	edi
	cvtss2sd xmm0, DWORD PTR __X$[ebp]
	call	__libm_sse2_sin_precise
	cvtsd2ss xmm0, xmm0
	movss	DWORD PTR tv71[ebp], xmm0
	fld	DWORD PTR tv71[ebp]
	pop	edi
	pop	esi
	pop	ebx
	mov	esp, ebp
	pop	ebp
	ret	0
_sinf	ENDP
_TEXT	ENDS
; Function compile flags: /Odtp /ZI
; File c:\program files (x86)\microsoft visual studio 11.0\vc\include\math.h
;	COMDAT _floorf
_TEXT	SEGMENT
tv80 = -84						; size = 4
tv78 = -80						; size = 8
tv72 = -72						; size = 8
__X$ = 8						; size = 4
_floorf	PROC						; COMDAT

; 416  :         {return ((float)floor((double)_X)); }

	push	ebp
	mov	ebp, esp
	sub	esp, 84					; 00000054H
	push	ebx
	push	esi
	push	edi
	cvtss2sd xmm0, DWORD PTR __X$[ebp]
	movsd	QWORD PTR tv72[ebp], xmm0
	fld	QWORD PTR tv72[ebp]
	sub	esp, 8
	fstp	QWORD PTR [esp]
	call	_floor
	add	esp, 8
	fstp	QWORD PTR tv78[ebp]
	movsd	xmm0, QWORD PTR tv78[ebp]
	cvtsd2ss xmm0, xmm0
	movss	DWORD PTR tv80[ebp], xmm0
	fld	DWORD PTR tv80[ebp]
	pop	edi
	pop	esi
	pop	ebx
	mov	esp, ebp
	pop	ebp
	ret	0
_floorf	ENDP
_TEXT	ENDS
; Function compile flags: /Odtp /ZI
; File c:\program files (x86)\microsoft visual studio 11.0\vc\include\math.h
;	COMDAT _cosf
_TEXT	SEGMENT
tv71 = -68						; size = 4
__X$ = 8						; size = 4
_cosf	PROC						; COMDAT

; 410  :         {return ((float)cos((double)_X)); }

	push	ebp
	mov	ebp, esp
	sub	esp, 68					; 00000044H
	push	ebx
	push	esi
	push	edi
	cvtss2sd xmm0, DWORD PTR __X$[ebp]
	call	__libm_sse2_cos_precise
	cvtsd2ss xmm0, xmm0
	movss	DWORD PTR tv71[ebp], xmm0
	fld	DWORD PTR tv71[ebp]
	pop	edi
	pop	esi
	pop	ebx
	mov	esp, ebp
	pop	ebp
	ret	0
_cosf	ENDP
_TEXT	ENDS
; Function compile flags: /Odtp /ZI
; File c:\program files (x86)\microsoft visual studio 11.0\vc\include\math.h
;	COMDAT _ceilf
_TEXT	SEGMENT
tv76 = -76						; size = 4
tv74 = -72						; size = 8
__X$ = 8						; size = 4
_ceilf	PROC						; COMDAT

; 408  :         {return ((float)ceil((double)_X)); }

	push	ebp
	mov	ebp, esp
	sub	esp, 76					; 0000004cH
	push	ebx
	push	esi
	push	edi
	cvtss2sd xmm0, DWORD PTR __X$[ebp]
	sub	esp, 8
	movsd	QWORD PTR [esp], xmm0
	call	DWORD PTR __imp__ceil
	add	esp, 8
	fstp	QWORD PTR tv74[ebp]
	movsd	xmm0, QWORD PTR tv74[ebp]
	cvtsd2ss xmm0, xmm0
	movss	DWORD PTR tv76[ebp], xmm0
	fld	DWORD PTR tv76[ebp]
	pop	edi
	pop	esi
	pop	ebx
	mov	esp, ebp
	pop	ebp
	ret	0
_ceilf	ENDP
_TEXT	ENDS
; Function compile flags: /Odtp /ZI
; File c:\program files (x86)\microsoft visual studio 11.0\vc\include\math.h
;	COMDAT _atan2f
_TEXT	SEGMENT
tv85 = -92						; size = 4
tv83 = -88						; size = 8
tv77 = -80						; size = 8
tv75 = -72						; size = 8
__Y$ = 8						; size = 4
__X$ = 12						; size = 4
_atan2f	PROC						; COMDAT

; 406  :         {return ((float)atan2((double)_Y, (double)_X)); }

	push	ebp
	mov	ebp, esp
	sub	esp, 92					; 0000005cH
	push	ebx
	push	esi
	push	edi
	cvtss2sd xmm0, DWORD PTR __Y$[ebp]
	movsd	QWORD PTR tv75[ebp], xmm0
	fld	QWORD PTR tv75[ebp]
	cvtss2sd xmm0, DWORD PTR __X$[ebp]
	movsd	QWORD PTR tv77[ebp], xmm0
	fld	QWORD PTR tv77[ebp]
	call	__CIatan2
	fstp	QWORD PTR tv83[ebp]
	movsd	xmm0, QWORD PTR tv83[ebp]
	cvtsd2ss xmm0, xmm0
	movss	DWORD PTR tv85[ebp], xmm0
	fld	DWORD PTR tv85[ebp]
	pop	edi
	pop	esi
	pop	ebx
	mov	esp, ebp
	pop	ebp
	ret	0
_atan2f	ENDP
_TEXT	ENDS
; Function compile flags: /Odtp /ZI
; File c:\program files (x86)\microsoft visual studio 11.0\vc\include\math.h
;	COMDAT _atanf
_TEXT	SEGMENT
tv71 = -68						; size = 4
__X$ = 8						; size = 4
_atanf	PROC						; COMDAT

; 404  :         {return ((float)atan((double)_X)); }

	push	ebp
	mov	ebp, esp
	sub	esp, 68					; 00000044H
	push	ebx
	push	esi
	push	edi
	cvtss2sd xmm0, DWORD PTR __X$[ebp]
	call	__libm_sse2_atan_precise
	cvtsd2ss xmm0, xmm0
	movss	DWORD PTR tv71[ebp], xmm0
	fld	DWORD PTR tv71[ebp]
	pop	edi
	pop	esi
	pop	ebx
	mov	esp, ebp
	pop	ebp
	ret	0
_atanf	ENDP
_TEXT	ENDS
; Function compile flags: /Odtp /ZI
; File c:\program files (x86)\microsoft visual studio 11.0\vc\include\math.h
;	COMDAT _asinf
_TEXT	SEGMENT
tv71 = -68						; size = 4
__X$ = 8						; size = 4
_asinf	PROC						; COMDAT

; 402  :         {return ((float)asin((double)_X)); }

	push	ebp
	mov	ebp, esp
	sub	esp, 68					; 00000044H
	push	ebx
	push	esi
	push	edi
	cvtss2sd xmm0, DWORD PTR __X$[ebp]
	call	__libm_sse2_asin_precise
	cvtsd2ss xmm0, xmm0
	movss	DWORD PTR tv71[ebp], xmm0
	fld	DWORD PTR tv71[ebp]
	pop	edi
	pop	esi
	pop	ebx
	mov	esp, ebp
	pop	ebp
	ret	0
_asinf	ENDP
_TEXT	ENDS
; Function compile flags: /Odtp /ZI
; File c:\program files (x86)\microsoft visual studio 11.0\vc\include\math.h
;	COMDAT _acosf
_TEXT	SEGMENT
tv71 = -68						; size = 4
__X$ = 8						; size = 4
_acosf	PROC						; COMDAT

; 400  :         {return ((float)acos((double)_X)); }

	push	ebp
	mov	ebp, esp
	sub	esp, 68					; 00000044H
	push	ebx
	push	esi
	push	edi
	cvtss2sd xmm0, DWORD PTR __X$[ebp]
	call	__libm_sse2_acos_precise
	cvtsd2ss xmm0, xmm0
	movss	DWORD PTR tv71[ebp], xmm0
	fld	DWORD PTR tv71[ebp]
	pop	edi
	pop	esi
	pop	ebx
	mov	esp, ebp
	pop	ebp
	ret	0
_acosf	ENDP
_TEXT	ENDS
; Function compile flags: /Odtp /ZI
;	COMDAT ??_I@YGXPAXIHP6EX0@Z@Z
_TEXT	SEGMENT
___t$ = 8						; size = 4
___s$ = 12						; size = 4
___n$ = 16						; size = 4
___f$ = 20						; size = 4
??_I@YGXPAXIHP6EX0@Z@Z PROC				; `vector destructor iterator', COMDAT
	push	ebp
	mov	ebp, esp
	sub	esp, 64					; 00000040H
	push	ebx
	push	esi
	push	edi
	mov	eax, DWORD PTR ___s$[ebp]
	imul	eax, DWORD PTR ___n$[ebp]
	add	eax, DWORD PTR ___t$[ebp]
	mov	DWORD PTR ___t$[ebp], eax
$LN2@vector:
	mov	eax, DWORD PTR ___n$[ebp]
	sub	eax, 1
	mov	DWORD PTR ___n$[ebp], eax
	js	SHORT $LN3@vector
	mov	eax, DWORD PTR ___t$[ebp]
	sub	eax, DWORD PTR ___s$[ebp]
	mov	DWORD PTR ___t$[ebp], eax
	mov	ecx, DWORD PTR ___t$[ebp]
	call	DWORD PTR ___f$[ebp]
	jmp	SHORT $LN2@vector
$LN3@vector:
	pop	edi
	pop	esi
	pop	ebx
	mov	esp, ebp
	pop	ebp
	ret	16					; 00000010H
??_I@YGXPAXIHP6EX0@Z@Z ENDP				; `vector destructor iterator'
_TEXT	ENDS
; Function compile flags: /Odtp /ZI
;	COMDAT ??_H@YGXPAXIHP6EPAX0@Z@Z
_TEXT	SEGMENT
___t$ = 8						; size = 4
___s$ = 12						; size = 4
___n$ = 16						; size = 4
___f$ = 20						; size = 4
??_H@YGXPAXIHP6EPAX0@Z@Z PROC				; `vector constructor iterator', COMDAT
	push	ebp
	mov	ebp, esp
	sub	esp, 64					; 00000040H
	push	ebx
	push	esi
	push	edi
$LN2@vector:
	mov	eax, DWORD PTR ___n$[ebp]
	sub	eax, 1
	mov	DWORD PTR ___n$[ebp], eax
	js	SHORT $LN3@vector
	mov	ecx, DWORD PTR ___t$[ebp]
	call	DWORD PTR ___f$[ebp]
	mov	eax, DWORD PTR ___t$[ebp]
	add	eax, DWORD PTR ___s$[ebp]
	mov	DWORD PTR ___t$[ebp], eax
	jmp	SHORT $LN2@vector
$LN3@vector:
	pop	edi
	pop	esi
	pop	ebx
	mov	esp, ebp
	pop	ebp
	ret	16					; 00000010H
??_H@YGXPAXIHP6EPAX0@Z@Z ENDP				; `vector constructor iterator'
_TEXT	ENDS
END
