; Listing generated by Microsoft (R) Optimizing Compiler Version 17.00.61219.0 

	TITLE	X:\GitHub\Renegade\Dragonade_RxD\scripts\engine_weap.cpp
	.686P
	.XMM
	include listing.inc
	.model	flat

INCLUDELIB MSVCRTD
INCLUDELIB OLDNAMES

CONST	SEGMENT
_DONT_MOVE_ARRIVED_DIST DD 0447a0000r		; 1000
CONST	ENDS
PUBLIC	??_H@YGXPAXIHP6EPAX0@Z@Z			; `vector constructor iterator'
PUBLIC	??_I@YGXPAXIHP6EX0@Z@Z				; `vector destructor iterator'
PUBLIC	_acosf
PUBLIC	_asinf
PUBLIC	_atanf
PUBLIC	_atan2f
PUBLIC	_ceilf
PUBLIC	_cosf
PUBLIC	_floorf
PUBLIC	_sinf
PUBLIC	_sqrtf
PUBLIC	?acos@@YAMM@Z					; acos
PUBLIC	?asin@@YAMM@Z					; asin
PUBLIC	?atan@@YAMM@Z					; atan
PUBLIC	?atan2@@YAMMM@Z					; atan2
PUBLIC	?cos@@YAMM@Z					; cos
PUBLIC	?sin@@YAMM@Z					; sin
PUBLIC	?sqrt@@YAMM@Z					; sqrt
PUBLIC	?infinity@?$numeric_limits@M@std@@SAMXZ		; std::numeric_limits<float>::infinity
PUBLIC	?Fabs@WWMath@@SAMM@Z				; WWMath::Fabs
PUBLIC	?Float_To_Int_Chop@WWMath@@SAHABM@Z		; WWMath::Float_To_Int_Chop
PUBLIC	?Float_To_Int_Floor@WWMath@@SAHABM@Z		; WWMath::Float_To_Int_Floor
PUBLIC	?Cos@WWMath@@SAMM@Z				; WWMath::Cos
PUBLIC	?Sin@WWMath@@SAMM@Z				; WWMath::Sin
PUBLIC	?Sqrt@WWMath@@SAMM@Z				; WWMath::Sqrt
PUBLIC	?Inv_Sqrt@WWMath@@SIMM@Z			; WWMath::Inv_Sqrt
PUBLIC	?Float_To_Long@WWMath@@SAJM@Z			; WWMath::Float_To_Long
PUBLIC	?Fast_Sin@WWMath@@SAMM@Z			; WWMath::Fast_Sin
PUBLIC	?Fast_Inv_Sin@WWMath@@SAMM@Z			; WWMath::Fast_Inv_Sin
PUBLIC	?Fast_Cos@WWMath@@SAMM@Z			; WWMath::Fast_Cos
PUBLIC	?Fast_Inv_Cos@WWMath@@SAMM@Z			; WWMath::Fast_Inv_Cos
PUBLIC	?Fast_Acos@WWMath@@SAMM@Z			; WWMath::Fast_Acos
PUBLIC	?Fast_Asin@WWMath@@SAMM@Z			; WWMath::Fast_Asin
PUBLIC	?Acos@WWMath@@SAMM@Z				; WWMath::Acos
PUBLIC	?Asin@WWMath@@SAMM@Z				; WWMath::Asin
PUBLIC	?Atan@WWMath@@SAMM@Z				; WWMath::Atan
PUBLIC	?Atan2@WWMath@@SAMMM@Z				; WWMath::Atan2
PUBLIC	?Sign@WWMath@@SAMM@Z				; WWMath::Sign
PUBLIC	?Ceil@WWMath@@SAMM@Z				; WWMath::Ceil
PUBLIC	?Floor@WWMath@@SAMM@Z				; WWMath::Floor
PUBLIC	?Fast_Is_Float_Positive@WWMath@@SA_NABM@Z	; WWMath::Fast_Is_Float_Positive
PUBLIC	?Random_Float@WWMath@@SAMMM@Z			; WWMath::Random_Float
PUBLIC	?Clamp@WWMath@@SAMMMM@Z				; WWMath::Clamp
PUBLIC	?Clamp@WWMath@@SANNNN@Z				; WWMath::Clamp
PUBLIC	?Clamp_Int@WWMath@@SAHHHH@Z			; WWMath::Clamp_Int
PUBLIC	?Wrap@WWMath@@SAMMMM@Z				; WWMath::Wrap
PUBLIC	?Wrap@WWMath@@SANNNN@Z				; WWMath::Wrap
PUBLIC	?Min@WWMath@@SAMMM@Z				; WWMath::Min
PUBLIC	?Max@WWMath@@SAMMM@Z				; WWMath::Max
PUBLIC	?Lerp@WWMath@@SAMMMM@Z				; WWMath::Lerp
PUBLIC	?Lerp@WWMath@@SANNNM@Z				; WWMath::Lerp
PUBLIC	?Lerp@WWMath@@SAHHHM@Z				; WWMath::Lerp
PUBLIC	?Float_To_Long@WWMath@@SAJN@Z			; WWMath::Float_To_Long
PUBLIC	?Unit_Float_To_Byte@WWMath@@SAEM@Z		; WWMath::Unit_Float_To_Byte
PUBLIC	?Byte_To_Unit_Float@WWMath@@SAME@Z		; WWMath::Byte_To_Unit_Float
PUBLIC	?Is_Valid_Float@WWMath@@SA_NM@Z			; WWMath::Is_Valid_Float
PUBLIC	?Is_Valid_Double@WWMath@@SA_NN@Z		; WWMath::Is_Valid_Double
PUBLIC	??4WWMath@@QAEAAV0@ABV0@@Z			; WWMath::operator=
PUBLIC	??B?$RefArrayHelper@M$0EAA@@@QAEPAMXZ		; RefArrayHelper<float,1024>::operator float *
PUBLIC	??0Vector3@@QAE@XZ				; Vector3::Vector3
PUBLIC	??0Vector3@@QAE@ABV0@@Z				; Vector3::Vector3
PUBLIC	??0Vector3@@QAE@MMM@Z				; Vector3::Vector3
PUBLIC	??4Vector3@@QAEAAV0@ABV0@@Z			; Vector3::operator=
PUBLIC	?Set@Vector3@@QAEXMMM@Z				; Vector3::Set
PUBLIC	??AVector3@@QAEAAMH@Z				; Vector3::operator[]
PUBLIC	??AVector3@@QBEABMH@Z				; Vector3::operator[]
PUBLIC	?Normalize@Vector3@@QAEXXZ			; Vector3::Normalize
PUBLIC	?Length@Vector3@@QBEMXZ				; Vector3::Length
PUBLIC	?Length2@Vector3@@QBEMXZ			; Vector3::Length2
PUBLIC	??YVector3@@QAEAAV0@ABV0@@Z			; Vector3::operator+=
PUBLIC	??ZVector3@@QAEAAV0@ABV0@@Z			; Vector3::operator-=
PUBLIC	??XVector3@@QAEAAV0@M@Z				; Vector3::operator*=
PUBLIC	??_0Vector3@@QAEAAV0@M@Z			; Vector3::operator/=
PUBLIC	??D@YA?AVVector3@@ABV0@M@Z			; operator*
PUBLIC	??D@YA?AVVector3@@MABV0@@Z			; operator*
PUBLIC	??H@YA?AVVector3@@ABV0@0@Z			; operator+
PUBLIC	??G@YA?AVVector3@@ABV0@0@Z			; operator-
PUBLIC	?Add@Vector3@@SAXABV1@0PAV1@@Z			; Vector3::Add
PUBLIC	?Subtract@Vector3@@SAXABV1@0PAV1@@Z		; Vector3::Subtract
PUBLIC	?Swap@@YAXAAVVector3@@0@Z			; Swap
PUBLIC	??0GameObjObserverClass@@QAE@XZ			; GameObjObserverClass::GameObjObserverClass
PUBLIC	??1GameObjObserverClass@@UAE@XZ			; GameObjObserverClass::~GameObjObserverClass
PUBLIC	?Set_ID@GameObjObserverClass@@QAEXH@Z		; GameObjObserverClass::Set_ID
PUBLIC	?Get_ID@GameObjObserverClass@@QAEHXZ		; GameObjObserverClass::Get_ID
PUBLIC	?Owner@GameObjObserverClass@@UAEPAVScriptableGameObj@@XZ ; GameObjObserverClass::Owner
PUBLIC	??0GameObjObserverClass@@QAE@ABV0@@Z		; GameObjObserverClass::GameObjObserverClass
PUBLIC	??4GameObjObserverClass@@QAEAAV0@ABV0@@Z	; GameObjObserverClass::operator=
PUBLIC	??_GGameObjObserverClass@@UAEPAXI@Z		; GameObjObserverClass::`scalar deleting destructor'
PUBLIC	??_EGameObjObserverClass@@UAEPAXI@Z		; GameObjObserverClass::`vector deleting destructor'
PUBLIC	??1ScriptClass@@UAE@XZ				; ScriptClass::~ScriptClass
PUBLIC	??0ScriptClass@@QAE@XZ				; ScriptClass::ScriptClass
PUBLIC	??0ScriptClass@@QAE@ABV0@@Z			; ScriptClass::ScriptClass
PUBLIC	??4ScriptClass@@QAEAAV0@ABV0@@Z			; ScriptClass::operator=
PUBLIC	??_GScriptClass@@UAEPAXI@Z			; ScriptClass::`scalar deleting destructor'
PUBLIC	??_EScriptClass@@UAEPAXI@Z			; ScriptClass::`vector deleting destructor'
PUBLIC	?SetFactory@ScriptImpClass@@QAEXPAVScriptFactory@@@Z ; ScriptImpClass::SetFactory
PUBLIC	?Created@ScriptImpClass@@UAEXPAVScriptableGameObj@@@Z ; ScriptImpClass::Created
PUBLIC	?Destroyed@ScriptImpClass@@UAEXPAVScriptableGameObj@@@Z ; ScriptImpClass::Destroyed
PUBLIC	?Killed@ScriptImpClass@@UAEXPAVScriptableGameObj@@0@Z ; ScriptImpClass::Killed
PUBLIC	?Damaged@ScriptImpClass@@UAEXPAVScriptableGameObj@@0M@Z ; ScriptImpClass::Damaged
PUBLIC	?Custom@ScriptImpClass@@UAEXPAVScriptableGameObj@@HH0@Z ; ScriptImpClass::Custom
PUBLIC	?Sound_Heard@ScriptImpClass@@UAEXPAVScriptableGameObj@@ABUCombatSound@@@Z ; ScriptImpClass::Sound_Heard
PUBLIC	?Enemy_Seen@ScriptImpClass@@UAEXPAVScriptableGameObj@@0@Z ; ScriptImpClass::Enemy_Seen
PUBLIC	?Action_Complete@ScriptImpClass@@UAEXPAVScriptableGameObj@@HW4ActionCompleteReason@@@Z ; ScriptImpClass::Action_Complete
PUBLIC	?Timer_Expired@ScriptImpClass@@UAEXPAVScriptableGameObj@@H@Z ; ScriptImpClass::Timer_Expired
PUBLIC	?Animation_Complete@ScriptImpClass@@UAEXPAVScriptableGameObj@@PBD@Z ; ScriptImpClass::Animation_Complete
PUBLIC	?Poked@ScriptImpClass@@UAEXPAVScriptableGameObj@@0@Z ; ScriptImpClass::Poked
PUBLIC	?Entered@ScriptImpClass@@UAEXPAVScriptableGameObj@@0@Z ; ScriptImpClass::Entered
PUBLIC	?Exited@ScriptImpClass@@UAEXPAVScriptableGameObj@@0@Z ; ScriptImpClass::Exited
PUBLIC	?Owner@ScriptImpClass@@UAEPAVScriptableGameObj@@XZ ; ScriptImpClass::Owner
PUBLIC	?Get_Owner_Ptr@ScriptImpClass@@UAEPAPAVScriptableGameObj@@XZ ; ScriptImpClass::Get_Owner_Ptr
PUBLIC	?Save_Data@ScriptImpClass@@UAEXAAVScriptSaver@@@Z ; ScriptImpClass::Save_Data
PUBLIC	?Load_Data@ScriptImpClass@@UAEXAAVScriptLoader@@@Z ; ScriptImpClass::Load_Data
PUBLIC	?Register_Auto_Save_Variables@ScriptImpClass@@UAEXXZ ; ScriptImpClass::Register_Auto_Save_Variables
PUBLIC	?Get_Parameter_Count@ScriptImpClass@@QAEHXZ	; ScriptImpClass::Get_Parameter_Count
PUBLIC	?Get_Int_Parameter@ScriptImpClass@@QAEHH@Z	; ScriptImpClass::Get_Int_Parameter
PUBLIC	?Get_Float_Parameter@ScriptImpClass@@QAEMH@Z	; ScriptImpClass::Get_Float_Parameter
PUBLIC	?Get_Bool_Parameter@ScriptImpClass@@QAE_NPBD@Z	; ScriptImpClass::Get_Bool_Parameter
PUBLIC	?Get_Bool_Parameter@ScriptImpClass@@QAE_NH@Z	; ScriptImpClass::Get_Bool_Parameter
PUBLIC	??0ScriptImpClass@@QAE@ABV0@@Z			; ScriptImpClass::ScriptImpClass
PUBLIC	??4ScriptImpClass@@QAEAAV0@ABV0@@Z		; ScriptImpClass::operator=
PUBLIC	??_GScriptImpClass@@UAEPAXI@Z			; ScriptImpClass::`scalar deleting destructor'
PUBLIC	??_EScriptImpClass@@UAEPAXI@Z			; ScriptImpClass::`vector deleting destructor'
PUBLIC	??0ScriptFactory@@QAE@ABV0@@Z			; ScriptFactory::ScriptFactory
PUBLIC	??4ScriptFactory@@QAEAAV0@ABV0@@Z		; ScriptFactory::operator=
PUBLIC	??_GScriptFactory@@UAEPAXI@Z			; ScriptFactory::`scalar deleting destructor'
PUBLIC	??_EScriptFactory@@UAEPAXI@Z			; ScriptFactory::`vector deleting destructor'
PUBLIC	??4ScriptRegistrar@@QAEAAV0@ABV0@@Z		; ScriptRegistrar::operator=
PUBLIC	?Is_Running@ThreadClass@@QAE_NXZ		; ThreadClass::Is_Running
PUBLIC	?Get_Current_Thread_ID@ThreadClass@@SAHXZ	; ThreadClass::Get_Current_Thread_ID
PUBLIC	?Get_Name@ThreadClass@@QAEPBDXZ			; ThreadClass::Get_Name
PUBLIC	??0ThreadClass@@QAE@ABV0@@Z			; ThreadClass::ThreadClass
PUBLIC	??4ThreadClass@@QAEAAV0@ABV0@@Z			; ThreadClass::operator=
PUBLIC	??_GThreadClass@@UAEPAXI@Z			; ThreadClass::`scalar deleting destructor'
PUBLIC	??_EThreadClass@@UAEPAXI@Z			; ThreadClass::`vector deleting destructor'
PUBLIC	??4CriticalSectionClass@@QAEAAV0@ABV0@@Z	; CriticalSectionClass::operator=
PUBLIC	??0PostLoadableClass@@QAE@XZ			; PostLoadableClass::PostLoadableClass
PUBLIC	??1PostLoadableClass@@UAE@XZ			; PostLoadableClass::~PostLoadableClass
PUBLIC	?On_Post_Load@PostLoadableClass@@UAEXXZ		; PostLoadableClass::On_Post_Load
PUBLIC	?Is_Post_Load_Registered@PostLoadableClass@@QBE_NXZ ; PostLoadableClass::Is_Post_Load_Registered
PUBLIC	?Set_Post_Load_Registered@PostLoadableClass@@QAEX_N@Z ; PostLoadableClass::Set_Post_Load_Registered
PUBLIC	??0PostLoadableClass@@QAE@ABV0@@Z		; PostLoadableClass::PostLoadableClass
PUBLIC	??4PostLoadableClass@@QAEAAV0@ABV0@@Z		; PostLoadableClass::operator=
PUBLIC	??_GPostLoadableClass@@UAEPAXI@Z		; PostLoadableClass::`scalar deleting destructor'
PUBLIC	??_EPostLoadableClass@@UAEPAXI@Z		; PostLoadableClass::`vector deleting destructor'
PUBLIC	??1StringClass@@QAE@XZ				; StringClass::~StringClass
PUBLIC	??_EStringClass@@QAEPAXI@Z			; StringClass::`vector deleting destructor'
PUBLIC	??4ChunkLoadClass@@QAEAAV0@ABV0@@Z		; ChunkLoadClass::operator=
PUBLIC	?Set_Contains_Chunks@ChunkSaveClass@@QAEXXZ	; ChunkSaveClass::Set_Contains_Chunks
PUBLIC	??4ChunkSaveClass@@QAEAAV0@ABV0@@Z		; ChunkSaveClass::operator=
PUBLIC	?Is_Present@INIClass@@QBE_NPBD0@Z		; INIClass::Is_Present
PUBLIC	?Section_Present@INIClass@@QBE_NPBD@Z		; INIClass::Section_Present
PUBLIC	?Get_Section_List@INIClass@@QAEAAV?$List@PAUINISection@@@@XZ ; INIClass::Get_Section_List
PUBLIC	?Get_Section_Index@INIClass@@QAEAAV?$IndexClass@HPAUINISection@@@@XZ ; INIClass::Get_Section_Index
PUBLIC	?Get_File_Name@INIClass@@QAEPBDXZ		; INIClass::Get_File_Name
PUBLIC	??0INIClass@@QAE@ABV0@@Z			; INIClass::INIClass
PUBLIC	??4INIClass@@QAEAAV0@ABV0@@Z			; INIClass::operator=
PUBLIC	??_GINIClass@@UAEPAXI@Z				; INIClass::`scalar deleting destructor'
PUBLIC	??_EINIClass@@UAEPAXI@Z				; INIClass::`vector deleting destructor'
PUBLIC	??Cfile_auto_ptr@@QAEPAVFileClass@@XZ		; file_auto_ptr::operator->
PUBLIC	??Bfile_auto_ptr@@QAEPAVFileClass@@XZ		; file_auto_ptr::operator FileClass *
PUBLIC	??Dfile_auto_ptr@@QAEAAVFileClass@@XZ		; file_auto_ptr::operator*
PUBLIC	?get@file_auto_ptr@@QAEPAVFileClass@@XZ		; file_auto_ptr::get
PUBLIC	??4file_auto_ptr@@QAEAAV0@ABV0@@Z		; file_auto_ptr::operator=
PUBLIC	??CReferencerClass@@QAEPAVScriptableGameObj@@XZ	; ReferencerClass::operator->
PUBLIC	??0ReferencerClass@@QAE@XZ			; ReferencerClass::ReferencerClass
PUBLIC	??0ReferencerClass@@QAE@PAVScriptableGameObj@@@Z ; ReferencerClass::ReferencerClass
PUBLIC	?Get_Ptr@ReferencerClass@@QBEPAVScriptableGameObj@@XZ ; ReferencerClass::Get_Ptr
PUBLIC	?Set_Ptr@ReferencerClass@@QAEXPAVScriptableGameObj@@@Z ; ReferencerClass::Set_Ptr
PUBLIC	??0ReferencerClass@@QAE@ABV0@@Z			; ReferencerClass::ReferencerClass
PUBLIC	??_GReferencerClass@@UAEPAXI@Z			; ReferencerClass::`scalar deleting destructor'
PUBLIC	??_EReferencerClass@@UAEPAXI@Z			; ReferencerClass::`vector deleting destructor'
PUBLIC	?Get_Data@?$ReferenceableClass@VScriptableGameObj@@@@IBEPAVScriptableGameObj@@XZ ; ReferenceableClass<ScriptableGameObj>::Get_Data
PUBLIC	??4SysTimeClass@@QAEAAV0@ABV0@@Z		; SysTimeClass::operator=
PUBLIC	??0DataSafeHandleClass@@QAE@H@Z			; DataSafeHandleClass::DataSafeHandleClass
PUBLIC	?Is_Valid@DataSafeHandleClass@@QBE_NXZ		; DataSafeHandleClass::Is_Valid
PUBLIC	??4DataSafeHandleClass@@QAEHABH@Z		; DataSafeHandleClass::operator=
PUBLIC	??BDataSafeHandleClass@@QAEHXZ			; DataSafeHandleClass::operator int
PUBLIC	??_FDataSafeHandleClass@@QAEXXZ			; DataSafeHandleClass::`default constructor closure'
PUBLIC	?Security_Check@GenericDataSafeClass@@KAXXZ	; GenericDataSafeClass::Security_Check
PUBLIC	?Security_Fault@GenericDataSafeClass@@KAXXZ	; GenericDataSafeClass::Security_Fault
PUBLIC	?Get_Type_Size@GenericDataSafeClass@@KAHH@Z	; GenericDataSafeClass::Get_Type_Size
PUBLIC	??B?$RefArray@VDataSafeEntryTypeClass@@$0IA@@@QAEPAVDataSafeEntryTypeClass@@XZ ; RefArray<DataSafeEntryTypeClass,128>::operator DataSafeEntryTypeClass *
PUBLIC	??B?$RefArray@PAVDataSafeEntryListClass@@$0CAAA@@@QAEPAPAVDataSafeEntryListClass@@XZ ; RefArray<DataSafeEntryListClass *,8192>::operator DataSafeEntryListClass * *
PUBLIC	?Get@?$DataSafeClass@H@@SA_NVDataSafeHandleClass@@AAPAH@Z ; DataSafeClass<int>::Get
PUBLIC	??0?$SafeDataClass@M@@QAE@M@Z			; SafeDataClass<float>::SafeDataClass<float>
PUBLIC	??1?$SafeDataClass@M@@QAE@XZ			; SafeDataClass<float>::~SafeDataClass<float>
PUBLIC	??R?$SafeDataClass@M@@QBEAAMXZ			; SafeDataClass<float>::operator()
PUBLIC	??B?$SafeDataClass@M@@QBEMXZ			; SafeDataClass<float>::operator float
PUBLIC	??0Vector4@@QAE@XZ				; Vector4::Vector4
PUBLIC	??0Vector4@@QAE@MMMM@Z				; Vector4::Vector4
PUBLIC	??4Vector4@@QAEAAV0@ABV0@@Z			; Vector4::operator=
PUBLIC	?Set@Vector4@@QAEXMMMM@Z			; Vector4::Set
PUBLIC	??AVector4@@QAEAAMH@Z				; Vector4::operator[]
PUBLIC	??AVector4@@QBEABMH@Z				; Vector4::operator[]
PUBLIC	??YVector4@@QAEAAV0@ABV0@@Z			; Vector4::operator+=
PUBLIC	??ZVector4@@QAEAAV0@ABV0@@Z			; Vector4::operator-=
PUBLIC	??XVector4@@QAEAAV0@M@Z				; Vector4::operator*=
PUBLIC	??AMatrix3D@@QAEAAVVector4@@H@Z			; Matrix3D::operator[]
PUBLIC	??AMatrix3D@@QBEABVVector4@@H@Z			; Matrix3D::operator[]
PUBLIC	??0Matrix3D@@QAE@_N@Z				; Matrix3D::Matrix3D
PUBLIC	??0Matrix3D@@QAE@QAM@Z				; Matrix3D::Matrix3D
PUBLIC	??0Matrix3D@@QAE@ABVVector3@@000@Z		; Matrix3D::Matrix3D
PUBLIC	??0Matrix3D@@QAE@ABVVector3@@M@Z		; Matrix3D::Matrix3D
PUBLIC	??0Matrix3D@@QAE@ABVVector3@@MM@Z		; Matrix3D::Matrix3D
PUBLIC	??0Matrix3D@@QAE@ABVMatrix3@@ABVVector3@@@Z	; Matrix3D::Matrix3D
PUBLIC	??0Matrix3D@@QAE@ABVQuaternion@@ABVVector3@@@Z	; Matrix3D::Matrix3D
PUBLIC	??0Matrix3D@@QAE@ABVVector3@@@Z			; Matrix3D::Matrix3D
PUBLIC	??0Matrix3D@@QAE@ABV0@@Z			; Matrix3D::Matrix3D
PUBLIC	??4Matrix3D@@QAEAAV0@ABV0@@Z			; Matrix3D::operator=
PUBLIC	?Set@Matrix3D@@QAEXQAM@Z			; Matrix3D::Set
PUBLIC	?Set@Matrix3D@@QAEXMMMMMMMMMMMM@Z		; Matrix3D::Set
PUBLIC	?Set@Matrix3D@@QAEXABVVector3@@000@Z		; Matrix3D::Set
PUBLIC	?Set@Matrix3D@@QAEXABVVector3@@M@Z		; Matrix3D::Set
PUBLIC	?Set@Matrix3D@@QAEXABVVector3@@MM@Z		; Matrix3D::Set
PUBLIC	?Set@Matrix3D@@QAEXABVVector3@@@Z		; Matrix3D::Set
PUBLIC	?Get_Translation@Matrix3D@@QBE?AVVector3@@XZ	; Matrix3D::Get_Translation
PUBLIC	?Get_Translation@Matrix3D@@QBEXPAVVector3@@@Z	; Matrix3D::Get_Translation
PUBLIC	?Set_Translation@Matrix3D@@QAEXABVVector3@@@Z	; Matrix3D::Set_Translation
PUBLIC	?Get_X_Translation@Matrix3D@@QBEMXZ		; Matrix3D::Get_X_Translation
PUBLIC	?Get_Y_Translation@Matrix3D@@QBEMXZ		; Matrix3D::Get_Y_Translation
PUBLIC	?Get_Z_Translation@Matrix3D@@QBEMXZ		; Matrix3D::Get_Z_Translation
PUBLIC	?Set_X_Translation@Matrix3D@@QAEXM@Z		; Matrix3D::Set_X_Translation
PUBLIC	?Set_Y_Translation@Matrix3D@@QAEXM@Z		; Matrix3D::Set_Y_Translation
PUBLIC	?Set_Z_Translation@Matrix3D@@QAEXM@Z		; Matrix3D::Set_Z_Translation
PUBLIC	?Adjust_Translation@Matrix3D@@QAEXABVVector3@@@Z ; Matrix3D::Adjust_Translation
PUBLIC	?Adjust_X_Translation@Matrix3D@@QAEXM@Z		; Matrix3D::Adjust_X_Translation
PUBLIC	?Adjust_Y_Translation@Matrix3D@@QAEXM@Z		; Matrix3D::Adjust_Y_Translation
PUBLIC	?Adjust_Z_Translation@Matrix3D@@QAEXM@Z		; Matrix3D::Adjust_Z_Translation
PUBLIC	?Make_Identity@Matrix3D@@QAEXXZ			; Matrix3D::Make_Identity
PUBLIC	?Translate@Matrix3D@@QAEXMMM@Z			; Matrix3D::Translate
PUBLIC	?Translate@Matrix3D@@QAEXABVVector3@@@Z		; Matrix3D::Translate
PUBLIC	?Translate_X@Matrix3D@@QAEXM@Z			; Matrix3D::Translate_X
PUBLIC	?Translate_Y@Matrix3D@@QAEXM@Z			; Matrix3D::Translate_Y
PUBLIC	?Translate_Z@Matrix3D@@QAEXM@Z			; Matrix3D::Translate_Z
PUBLIC	?Rotate_X@Matrix3D@@QAEXM@Z			; Matrix3D::Rotate_X
PUBLIC	?Rotate_Y@Matrix3D@@QAEXM@Z			; Matrix3D::Rotate_Y
PUBLIC	?Rotate_Z@Matrix3D@@QAEXM@Z			; Matrix3D::Rotate_Z
PUBLIC	?Rotate_X@Matrix3D@@QAEXMM@Z			; Matrix3D::Rotate_X
PUBLIC	?Rotate_Y@Matrix3D@@QAEXMM@Z			; Matrix3D::Rotate_Y
PUBLIC	?Rotate_Z@Matrix3D@@QAEXMM@Z			; Matrix3D::Rotate_Z
PUBLIC	?Scale@Matrix3D@@QAEXM@Z			; Matrix3D::Scale
PUBLIC	?Scale@Matrix3D@@QAEXMMM@Z			; Matrix3D::Scale
PUBLIC	?Scale@Matrix3D@@QAEXAAVVector3@@@Z		; Matrix3D::Scale
PUBLIC	?Pre_Rotate_X@Matrix3D@@QAEXM@Z			; Matrix3D::Pre_Rotate_X
PUBLIC	?Pre_Rotate_Y@Matrix3D@@QAEXM@Z			; Matrix3D::Pre_Rotate_Y
PUBLIC	?Pre_Rotate_Z@Matrix3D@@QAEXM@Z			; Matrix3D::Pre_Rotate_Z
PUBLIC	?Pre_Rotate_X@Matrix3D@@QAEXMM@Z		; Matrix3D::Pre_Rotate_X
PUBLIC	?Pre_Rotate_Y@Matrix3D@@QAEXMM@Z		; Matrix3D::Pre_Rotate_Y
PUBLIC	?Pre_Rotate_Z@Matrix3D@@QAEXMM@Z		; Matrix3D::Pre_Rotate_Z
PUBLIC	?In_Place_Pre_Rotate_X@Matrix3D@@QAEXM@Z	; Matrix3D::In_Place_Pre_Rotate_X
PUBLIC	?In_Place_Pre_Rotate_Y@Matrix3D@@QAEXM@Z	; Matrix3D::In_Place_Pre_Rotate_Y
PUBLIC	?In_Place_Pre_Rotate_Z@Matrix3D@@QAEXM@Z	; Matrix3D::In_Place_Pre_Rotate_Z
PUBLIC	?In_Place_Pre_Rotate_X@Matrix3D@@QAEXMM@Z	; Matrix3D::In_Place_Pre_Rotate_X
PUBLIC	?In_Place_Pre_Rotate_Y@Matrix3D@@QAEXMM@Z	; Matrix3D::In_Place_Pre_Rotate_Y
PUBLIC	?In_Place_Pre_Rotate_Z@Matrix3D@@QAEXMM@Z	; Matrix3D::In_Place_Pre_Rotate_Z
PUBLIC	?Transform_Vector@Matrix3D@@SAXABV1@ABVVector3@@PAV2@@Z ; Matrix3D::Transform_Vector
PUBLIC	?Get_X_Vector@Matrix3D@@QBE?AVVector3@@XZ	; Matrix3D::Get_X_Vector
PUBLIC	?Get_Y_Vector@Matrix3D@@QBE?AVVector3@@XZ	; Matrix3D::Get_Y_Vector
PUBLIC	?Get_Z_Vector@Matrix3D@@QBE?AVVector3@@XZ	; Matrix3D::Get_Z_Vector
PUBLIC	?Get_X_Vector@Matrix3D@@QBEXPAVVector3@@@Z	; Matrix3D::Get_X_Vector
PUBLIC	?Get_Y_Vector@Matrix3D@@QBEXPAVVector3@@@Z	; Matrix3D::Get_Y_Vector
PUBLIC	?Get_Z_Vector@Matrix3D@@QBEXPAVVector3@@@Z	; Matrix3D::Get_Z_Vector
PUBLIC	?Rotate_Vector@Matrix3D@@SAXABV1@ABVVector3@@PAV2@@Z ; Matrix3D::Rotate_Vector
PUBLIC	?Inverse_Transform_Vector@Matrix3D@@SAXABV1@ABVVector3@@PAV2@@Z ; Matrix3D::Inverse_Transform_Vector
PUBLIC	?Inverse_Rotate_Vector@Matrix3D@@SAXABV1@ABVVector3@@PAV2@@Z ; Matrix3D::Inverse_Rotate_Vector
PUBLIC	??0LineSegClass@@QAE@XZ				; LineSegClass::LineSegClass
PUBLIC	??0LineSegClass@@QAE@ABVVector3@@0@Z		; LineSegClass::LineSegClass
PUBLIC	??0LineSegClass@@QAE@ABVVector3@@0M@Z		; LineSegClass::LineSegClass
PUBLIC	??0LineSegClass@@QAE@ABV0@ABVMatrix3D@@@Z	; LineSegClass::LineSegClass
PUBLIC	?Set@LineSegClass@@QAEXABVVector3@@0@Z		; LineSegClass::Set
PUBLIC	?Set@LineSegClass@@QAEXABVVector3@@0M@Z		; LineSegClass::Set
PUBLIC	?Get_P0@LineSegClass@@QBEABVVector3@@XZ		; LineSegClass::Get_P0
PUBLIC	?Get_P1@LineSegClass@@QBEABVVector3@@XZ		; LineSegClass::Get_P1
PUBLIC	?Get_DP@LineSegClass@@QBEABVVector3@@XZ		; LineSegClass::Get_DP
PUBLIC	?Get_Dir@LineSegClass@@QBEABVVector3@@XZ	; LineSegClass::Get_Dir
PUBLIC	?Get_Length@LineSegClass@@QBEMXZ		; LineSegClass::Get_Length
PUBLIC	?Compute_Point@LineSegClass@@QBEXMPAVVector3@@@Z ; LineSegClass::Compute_Point
PUBLIC	?recalculate@LineSegClass@@IAEXXZ		; LineSegClass::recalculate
PUBLIC	??0LineSegClass@@QAE@ABV0@@Z			; LineSegClass::LineSegClass
PUBLIC	??4LineSegClass@@QAEAAV0@ABV0@@Z		; LineSegClass::operator=
PUBLIC	?Get_Position@PhysClass@@QBEXPAVVector3@@@Z	; PhysClass::Get_Position
PUBLIC	?Peek_Physical_Object@PhysicalGameObj@@QBEPAVPhysClass@@XZ ; PhysicalGameObj::Peek_Physical_Object
PUBLIC	?Get_Position@PhysicalGameObj@@QAE?AVVector3@@XZ ; PhysicalGameObj::Get_Position
PUBLIC	?Get_Owner@BeaconGameObj@@QAEPAVSoldierGameObj@@XZ ; BeaconGameObj::Get_Owner
PUBLIC	?Restore_Owner@C4GameObj@@QAEXXZ		; C4GameObj::Restore_Owner
PUBLIC	?Get_Stuck_Object@C4GameObj@@QAEPAVScriptableGameObj@@XZ ; C4GameObj::Get_Stuck_Object
PUBLIC	?Get_Owner@C4GameObj@@QBEPAVSoldierGameObj@@XZ	; C4GameObj::Get_Owner
PUBLIC	?Get_Ammo_Def@C4GameObj@@QAEPBVAmmoDefinitionClass@@XZ ; C4GameObj::Get_Ammo_Def
PUBLIC	?Get_Ptr@?$SafeDataClass@H@@QBEPAHXZ		; SafeDataClass<int>::Get_Ptr
PUBLIC	??R?$SafeDataClass@H@@QBEAAHXZ			; SafeDataClass<int>::operator()
PUBLIC	??B?$SafeDataClass@H@@QBEHXZ			; SafeDataClass<int>::operator int
PUBLIC	??8?$SafeDataClass@H@@QAE_NABH@Z		; SafeDataClass<int>::operator==
PUBLIC	??M?$SafeDataClass@H@@QAE_NABH@Z		; SafeDataClass<int>::operator<
PUBLIC	??H?$SafeDataClass@H@@QAEAAHAAV0@@Z		; SafeDataClass<int>::operator+
PUBLIC	?Get_Weapon@ArmedGameObj@@QAEPAVWeaponClass@@XZ	; ArmedGameObj::Get_Weapon
PUBLIC	?Get_Weapon_Bag@ArmedGameObj@@QAEPAVWeaponBagClass@@XZ ; ArmedGameObj::Get_Weapon_Bag
PUBLIC	?Get_Count@WeaponBagClass@@QAEHXZ		; WeaponBagClass::Get_Count
PUBLIC	?Peek_Weapon@WeaponBagClass@@QAEPAVWeaponClass@@H@Z ; WeaponBagClass::Peek_Weapon
PUBLIC	?Get_Weapon@WeaponBagClass@@QAEPAVWeaponClass@@XZ ; WeaponBagClass::Get_Weapon
PUBLIC	?Get_Index@WeaponBagClass@@QAEHXZ		; WeaponBagClass::Get_Index
PUBLIC	??A?$VectorClass@PAVWeaponClass@@@@QAEAAPAVWeaponClass@@H@Z ; VectorClass<WeaponClass *>::operator[]
PUBLIC	?Count@?$DynamicVectorClass@PAVWeaponClass@@@@QBEHXZ ; DynamicVectorClass<WeaponClass *>::Count
PUBLIC	?Get_Definition@WeaponClass@@QAEPBVWeaponDefinitionClass@@XZ ; WeaponClass::Get_Definition
PUBLIC	?Get_Name@WeaponClass@@QAEPBDXZ			; WeaponClass::Get_Name
PUBLIC	?Get_Total_Rounds@WeaponClass@@QAEHXZ		; WeaponClass::Get_Total_Rounds
PUBLIC	?Get_Clip_Rounds@WeaponClass@@QAEHXZ		; WeaponClass::Get_Clip_Rounds
PUBLIC	?Get_Inventory_Rounds@WeaponClass@@QAEHXZ	; WeaponClass::Get_Inventory_Rounds
PUBLIC	?Is_Ammo_Maxed@WeaponClass@@QAE_NXZ		; WeaponClass::Is_Ammo_Maxed
PUBLIC	?Get_Range@WeaponClass@@QAEMXZ			; WeaponClass::Get_Range
PUBLIC	?Get_Targeting_Range@WeaponClass@@QAEMXZ	; WeaponClass::Get_Targeting_Range
PUBLIC	?Head@?$SList@VC4GameObj@@@@QBEPAV?$SLNode@VC4GameObj@@@@XZ ; SList<C4GameObj>::Head
PUBLIC	?Head@?$SList@VBeaconGameObj@@@@QBEPAV?$SLNode@VBeaconGameObj@@@@XZ ; SList<BeaconGameObj>::Head
PUBLIC	?Head@?$SList@VSoldierGameObj@@@@QBEPAV?$SLNode@VSoldierGameObj@@@@XZ ; SList<SoldierGameObj>::Head
PUBLIC	?Get_Player_Data@SmartGameObj@@QAEPAVPlayerDataClass@@XZ ; SmartGameObj::Get_Player_Data
PUBLIC	?Get_Grant_Weapon_ID@PowerUpGameObjDef@@QBEHXZ	; PowerUpGameObjDef::Get_Grant_Weapon_ID
PUBLIC	??4ArmorWarheadManager@@QAEAAV0@ABV0@@Z		; ArmorWarheadManager::operator=
PUBLIC	??0Matrix4@@QAE@XZ				; Matrix4::Matrix4
PUBLIC	??0Matrix4@@QAE@ABV0@@Z				; Matrix4::Matrix4
PUBLIC	??0Matrix4@@QAE@_N@Z				; Matrix4::Matrix4
PUBLIC	??0Matrix4@@QAE@ABVMatrix3D@@@Z			; Matrix4::Matrix4
PUBLIC	??0Matrix4@@QAE@ABVVector4@@000@Z		; Matrix4::Matrix4
PUBLIC	?Make_Identity@Matrix4@@QAEXXZ			; Matrix4::Make_Identity
PUBLIC	?Init@Matrix4@@QAEXABVMatrix3D@@@Z		; Matrix4::Init
PUBLIC	?Init@Matrix4@@QAEXABVVector4@@000@Z		; Matrix4::Init
PUBLIC	?Init_Ortho_OGL@Matrix4@@QAEXMMMMMM@Z		; Matrix4::Init_Ortho_OGL
PUBLIC	?Init_Perspective_OGL@Matrix4@@QAEXMMMM@Z	; Matrix4::Init_Perspective_OGL
PUBLIC	?Init_Perspective_OGL@Matrix4@@QAEXMMMMMM@Z	; Matrix4::Init_Perspective_OGL
PUBLIC	?Init_Ortho@Matrix4@@QAEXMMMMMM@Z		; Matrix4::Init_Ortho
PUBLIC	?Init_Perspective@Matrix4@@QAEXMMMMMM@Z		; Matrix4::Init_Perspective
PUBLIC	??AMatrix4@@QAEAAVVector4@@H@Z			; Matrix4::operator[]
PUBLIC	??AMatrix4@@QBEABVVector4@@H@Z			; Matrix4::operator[]
PUBLIC	?Transpose@Matrix4@@QBE?AV1@XZ			; Matrix4::Transpose
PUBLIC	?Determinant@Matrix4@@QBEMXZ			; Matrix4::Determinant
PUBLIC	?Inverse@Matrix4@@QBE?AV1@XZ			; Matrix4::Inverse
PUBLIC	??4Matrix4@@QAEAAV0@ABV0@@Z			; Matrix4::operator=
PUBLIC	??YMatrix4@@QAEAAV0@ABV0@@Z			; Matrix4::operator+=
PUBLIC	??ZMatrix4@@QAEAAV0@ABV0@@Z			; Matrix4::operator-=
PUBLIC	??XMatrix4@@QAEAAV0@M@Z				; Matrix4::operator*=
PUBLIC	??_0Matrix4@@QAEAAV0@M@Z			; Matrix4::operator/=
PUBLIC	?Transform_Vector@Matrix4@@SAXABV1@ABVVector3@@PAV2@@Z ; Matrix4::Transform_Vector
PUBLIC	?Transform_Vector@Matrix4@@SAXABV1@ABVVector3@@PAVVector4@@@Z ; Matrix4::Transform_Vector
PUBLIC	?Transform_Vector@Matrix4@@SAXABV1@ABVVector4@@PAV2@@Z ; Matrix4::Transform_Vector
PUBLIC	??0Matrix3@@QAE@XZ				; Matrix3::Matrix3
PUBLIC	??0Matrix3@@QAE@ABV0@@Z				; Matrix3::Matrix3
PUBLIC	??0Matrix3@@QAE@_N@Z				; Matrix3::Matrix3
PUBLIC	??0Matrix3@@QAE@ABVVector3@@00@Z		; Matrix3::Matrix3
PUBLIC	??0Matrix3@@QAE@MMMMMMMMM@Z			; Matrix3::Matrix3
PUBLIC	??0Matrix3@@QAE@ABVVector3@@M@Z			; Matrix3::Matrix3
PUBLIC	??0Matrix3@@QAE@ABVVector3@@MM@Z		; Matrix3::Matrix3
PUBLIC	??0Matrix3@@QAE@ABVQuaternion@@@Z		; Matrix3::Matrix3
PUBLIC	?Set@Matrix3@@QAEXABVVector3@@00@Z		; Matrix3::Set
PUBLIC	?Set@Matrix3@@QAEXMMMMMMMMM@Z			; Matrix3::Set
PUBLIC	?Set@Matrix3@@QAEXABVVector3@@M@Z		; Matrix3::Set
PUBLIC	?Set@Matrix3@@QAEXABVVector3@@MM@Z		; Matrix3::Set
PUBLIC	??AMatrix3@@QAEAAVVector3@@H@Z			; Matrix3::operator[]
PUBLIC	??AMatrix3@@QBEABVVector3@@H@Z			; Matrix3::operator[]
PUBLIC	?Transpose@Matrix3@@QBE?AV1@XZ			; Matrix3::Transpose
PUBLIC	?Determinant@Matrix3@@QBEMXZ			; Matrix3::Determinant
PUBLIC	??4Matrix3@@QAEAAV0@ABV0@@Z			; Matrix3::operator=
PUBLIC	??YMatrix3@@QAEAAV0@ABV0@@Z			; Matrix3::operator+=
PUBLIC	??ZMatrix3@@QAEAAV0@ABV0@@Z			; Matrix3::operator-=
PUBLIC	??XMatrix3@@QAEAAV0@M@Z				; Matrix3::operator*=
PUBLIC	??_0Matrix3@@QAEAAV0@M@Z			; Matrix3::operator/=
PUBLIC	?Make_Identity@Matrix3@@QAEXXZ			; Matrix3::Make_Identity
PUBLIC	?Rotate_X@Matrix3@@QAEXM@Z			; Matrix3::Rotate_X
PUBLIC	?Rotate_X@Matrix3@@QAEXMM@Z			; Matrix3::Rotate_X
PUBLIC	?Rotate_Y@Matrix3@@QAEXM@Z			; Matrix3::Rotate_Y
PUBLIC	?Rotate_Y@Matrix3@@QAEXMM@Z			; Matrix3::Rotate_Y
PUBLIC	?Rotate_Z@Matrix3@@QAEXM@Z			; Matrix3::Rotate_Z
PUBLIC	?Rotate_Z@Matrix3@@QAEXMM@Z			; Matrix3::Rotate_Z
PUBLIC	?Get_X_Rotation@Matrix3@@QBEMXZ			; Matrix3::Get_X_Rotation
PUBLIC	?Get_Y_Rotation@Matrix3@@QBEMXZ			; Matrix3::Get_Y_Rotation
PUBLIC	?Get_Z_Rotation@Matrix3@@QBEMXZ			; Matrix3::Get_Z_Rotation
PUBLIC	?Get_X_Vector@Matrix3@@QBE?AVVector3@@XZ	; Matrix3::Get_X_Vector
PUBLIC	?Get_Y_Vector@Matrix3@@QBE?AVVector3@@XZ	; Matrix3::Get_Y_Vector
PUBLIC	?Get_Z_Vector@Matrix3@@QBE?AVVector3@@XZ	; Matrix3::Get_Z_Vector
PUBLIC	?Get_X_Vector@Matrix3@@QBEXPAVVector3@@@Z	; Matrix3::Get_X_Vector
PUBLIC	?Get_Y_Vector@Matrix3@@QBEXPAVVector3@@@Z	; Matrix3::Get_Y_Vector
PUBLIC	?Get_Z_Vector@Matrix3@@QBEXPAVVector3@@@Z	; Matrix3::Get_Z_Vector
PUBLIC	??D@YA?AVVector3@@ABVMatrix3@@ABV0@@Z		; operator*
PUBLIC	?Add@Matrix3@@SAXABV1@0PAV1@@Z			; Matrix3::Add
PUBLIC	?Subtract@Matrix3@@SAXABV1@0PAV1@@Z		; Matrix3::Subtract
PUBLIC	?Rotate_Vector@Matrix3@@SAXABV1@ABVVector3@@PAV2@@Z ; Matrix3::Rotate_Vector
PUBLIC	?Transpose_Rotate_Vector@Matrix3@@SAXABV1@ABVVector3@@PAV2@@Z ; Matrix3::Transpose_Rotate_Vector
PUBLIC	?Rotate_AABox_Extent@Matrix3@@QAEXABVVector3@@PAV2@@Z ; Matrix3::Rotate_AABox_Extent
PUBLIC	?Inverse@Matrix3@@QBE?AV1@XZ			; Matrix3::Inverse
PUBLIC	?Get_Bullets@@YAHPAVScriptableGameObj@@PBD@Z	; Get_Bullets
PUBLIC	?Get_Max_Bullets@@YAHPAVScriptableGameObj@@PBD@Z ; Get_Max_Bullets
PUBLIC	?Get_Clip_Bullets@@YAHPAVScriptableGameObj@@PBD@Z ; Get_Clip_Bullets
PUBLIC	?Get_Max_Clip_Bullets@@YAHPAVScriptableGameObj@@PBD@Z ; Get_Max_Clip_Bullets
PUBLIC	?Get_Total_Bullets@@YAHPAVScriptableGameObj@@PBD@Z ; Get_Total_Bullets
PUBLIC	?Get_Max_Total_Bullets@@YAHPAVScriptableGameObj@@PBD@Z ; Get_Max_Total_Bullets
PUBLIC	?Get_Current_Bullets@@YAHPAVScriptableGameObj@@@Z ; Get_Current_Bullets
PUBLIC	?Get_Current_Max_Bullets@@YAHPAVScriptableGameObj@@@Z ; Get_Current_Max_Bullets
PUBLIC	?Get_Current_Clip_Bullets@@YAHPAVScriptableGameObj@@@Z ; Get_Current_Clip_Bullets
PUBLIC	?Get_Current_Clip_Max_Bullets@@YAHPAVScriptableGameObj@@@Z ; Get_Current_Clip_Max_Bullets
PUBLIC	?Get_Current_Total_Bullets@@YAHPAVScriptableGameObj@@@Z ; Get_Current_Total_Bullets
PUBLIC	?Get_Current_Total_Max_Bullets@@YAHPAVScriptableGameObj@@@Z ; Get_Current_Total_Max_Bullets
PUBLIC	?Get_Position_Bullets@@YAHPAVScriptableGameObj@@H@Z ; Get_Position_Bullets
PUBLIC	?Get_Position_Max_Bullets@@YAHPAVScriptableGameObj@@H@Z ; Get_Position_Max_Bullets
PUBLIC	?Get_Position_Clip_Bullets@@YAHPAVScriptableGameObj@@H@Z ; Get_Position_Clip_Bullets
PUBLIC	?Get_Position_Clip_Max_Bullets@@YAHPAVScriptableGameObj@@H@Z ; Get_Position_Clip_Max_Bullets
PUBLIC	?Get_Position_Total_Bullets@@YAHPAVScriptableGameObj@@H@Z ; Get_Position_Total_Bullets
PUBLIC	?Get_Position_Total_Max_Bullets@@YAHPAVScriptableGameObj@@H@Z ; Get_Position_Total_Max_Bullets
PUBLIC	?Get_Powerup_Weapon@@YAPBDPBD@Z			; Get_Powerup_Weapon
PUBLIC	?Get_Weapon_Ammo_Definition@@YAPBVAmmoDefinitionClass@@PBD_N@Z ; Get_Weapon_Ammo_Definition
PUBLIC	?Get_Weapon_Definition@@YAPBVWeaponDefinitionClass@@PBD@Z ; Get_Weapon_Definition
PUBLIC	?Get_Current_Weapon_Definition@@YAPBVWeaponDefinitionClass@@PAVScriptableGameObj@@@Z ; Get_Current_Weapon_Definition
PUBLIC	?Get_Position_Weapon_Definition@@YAPBVWeaponDefinitionClass@@PAVScriptableGameObj@@H@Z ; Get_Position_Weapon_Definition
PUBLIC	?Get_Explosion@@YAPBVExplosionDefinitionClass@@PBD@Z ; Get_Explosion
PUBLIC	?Get_Powerup_Weapon_By_Obj@@YAPBDPAVScriptableGameObj@@@Z ; Get_Powerup_Weapon_By_Obj
PUBLIC	?Get_Current_Weapon_Style@@YAHPAVScriptableGameObj@@@Z ; Get_Current_Weapon_Style
PUBLIC	?Get_Position_Weapon_Style@@YAHPAVScriptableGameObj@@H@Z ; Get_Position_Weapon_Style
PUBLIC	?Get_Weapon_Style@@YAHPAVScriptableGameObj@@PBD@Z ; Get_Weapon_Style
PUBLIC	?Disarm_Beacon@@YAXPAVScriptableGameObj@@@Z	; Disarm_Beacon
PUBLIC	?Disarm_Beacons@@YAXH@Z				; Disarm_Beacons
PUBLIC	?Disarm_C4@@YAXPAVScriptableGameObj@@@Z		; Disarm_C4
PUBLIC	?Disarm_All_C4_Beacons@@YAXH@Z			; Disarm_All_C4_Beacons
PUBLIC	?Get_Current_Weapon@@YAPBDPAVScriptableGameObj@@@Z ; Get_Current_Weapon
PUBLIC	?Get_Weapon_Count@@YAHPAVScriptableGameObj@@@Z	; Get_Weapon_Count
PUBLIC	?Get_Weapon@@YAPBDPAVScriptableGameObj@@H@Z	; Get_Weapon
PUBLIC	?Has_Weapon@@YA_NPAVScriptableGameObj@@PBD@Z	; Has_Weapon
PUBLIC	?Find_Beacon@@YAPAVScriptableGameObj@@HH@Z	; Find_Beacon
PUBLIC	?Get_C4_Count@@YAHHH@Z				; Get_C4_Count
PUBLIC	?Defuse_Owned_C4@@YAXHH@Z			; Defuse_Owned_C4
PUBLIC	?Defuse_Attached_C4@@YAXPAVScriptableGameObj@@@Z ; Defuse_Attached_C4
PUBLIC	?Get_Beacon_Count@@YAHH@Z			; Get_Beacon_Count
PUBLIC	?Get_C4_Mode@@YAHPAVScriptableGameObj@@@Z	; Get_C4_Mode
PUBLIC	?Get_C4_Planter@@YAPAVScriptableGameObj@@PAV1@@Z ; Get_C4_Planter
PUBLIC	?Get_C4_Attached@@YAPAVScriptableGameObj@@PAV1@@Z ; Get_C4_Attached
PUBLIC	?Get_Beacon_Planter@@YAPAVScriptableGameObj@@PAV1@@Z ; Get_Beacon_Planter
PUBLIC	?Find_Nearest_Beacon@@YAPAVBeaconGameObj@@ABVVector3@@H@Z ; Find_Nearest_Beacon
PUBLIC	??0OffenseObjectClass@@QAE@MIPAVArmedGameObj@@@Z ; OffenseObjectClass::OffenseObjectClass
PUBLIC	??1OffenseObjectClass@@QAE@XZ			; OffenseObjectClass::~OffenseObjectClass
PUBLIC	?Set_Owner@OffenseObjectClass@@QAEXPAVArmedGameObj@@@Z ; OffenseObjectClass::Set_Owner
PUBLIC	?_Get_Current_Weapon@@YAPAVWeaponClass@@PAVScriptableGameObj@@@Z ; _Get_Current_Weapon
PUBLIC	?_Get_Position_Weapon@@YAPAVWeaponClass@@PAVScriptableGameObj@@H@Z ; _Get_Position_Weapon
PUBLIC	?_Get_Weapon@@YAPAVWeaponClass@@PAVScriptableGameObj@@PBD@Z ; _Get_Weapon
PUBLIC	??0?$Iterator@AAV?$SList@VSoldierGameObj@@@@@@QAE@AAV?$SList@VSoldierGameObj@@@@@Z ; Iterator<SList<SoldierGameObj> &>::Iterator<SList<SoldierGameObj> &>
PUBLIC	??B?$Iterator@AAV?$SList@VSoldierGameObj@@@@@@QAE_NXZ ; Iterator<SList<SoldierGameObj> &>::operator bool
PUBLIC	??B?$Iterator@AAV?$SList@VSoldierGameObj@@@@@@QAEPAVSoldierGameObj@@XZ ; Iterator<SList<SoldierGameObj> &>::operator SoldierGameObj *
PUBLIC	??C?$Iterator@AAV?$SList@VSoldierGameObj@@@@@@QAEPAVSoldierGameObj@@XZ ; Iterator<SList<SoldierGameObj> &>::operator->
PUBLIC	??E?$Iterator@AAV?$SList@VSoldierGameObj@@@@@@QAEAAV0@XZ ; Iterator<SList<SoldierGameObj> &>::operator++
PUBLIC	?Next@?$SLNode@VBeaconGameObj@@@@QBEPAV1@XZ	; SLNode<BeaconGameObj>::Next
PUBLIC	?Data@?$SLNode@VBeaconGameObj@@@@QBEPAVBeaconGameObj@@XZ ; SLNode<BeaconGameObj>::Data
PUBLIC	?Next@?$SLNode@VC4GameObj@@@@QBEPAV1@XZ		; SLNode<C4GameObj>::Next
PUBLIC	?Data@?$SLNode@VC4GameObj@@@@QBEPAVC4GameObj@@XZ ; SLNode<C4GameObj>::Data
PUBLIC	?Next@?$SLNode@VSoldierGameObj@@@@QBEPAV1@XZ	; SLNode<SoldierGameObj>::Next
PUBLIC	?Data@?$SLNode@VSoldierGameObj@@@@QBEPAVSoldierGameObj@@XZ ; SLNode<SoldierGameObj>::Data
PUBLIC	??B?$RefArray@D$03@@QAEPADXZ			; RefArray<char,4>::operator char *
PUBLIC	??B?$RefArray@V?$RefArray@D$03@@$07@@QAEPAV?$RefArray@D$03@@XZ ; RefArray<RefArray<char,4>,8>::operator RefArray<char,4> *
PUBLIC	?Get@?$DataSafeClass@M@@SA_NVDataSafeHandleClass@@AAPAM@Z ; DataSafeClass<float>::Get
PUBLIC	?Add_Entry@?$DataSafeClass@M@@SA?AVDataSafeHandleClass@@AAM_N@Z ; DataSafeClass<float>::Add_Entry
PUBLIC	?Delete_Entry@?$DataSafeClass@M@@SAXVDataSafeHandleClass@@@Z ; DataSafeClass<float>::Delete_Entry
PUBLIC	??_7GameObjObserverClass@@6B@			; GameObjObserverClass::`vftable'
PUBLIC	??_7ScriptClass@@6B@				; ScriptClass::`vftable'
PUBLIC	??_7ScriptImpClass@@6B@				; ScriptImpClass::`vftable'
PUBLIC	??_7ScriptFactory@@6B@				; ScriptFactory::`vftable'
PUBLIC	??_7ThreadClass@@6B@				; ThreadClass::`vftable'
PUBLIC	??_C@_1M@HLGKFCJM@?$AAf?$AAa?$AAl?$AAs?$AAe?$AA?$AA@ ; `string'
PUBLIC	??_7PostLoadableClass@@6B@			; PostLoadableClass::`vftable'
PUBLIC	??_7INIClass@@6B@				; INIClass::`vftable'
PUBLIC	??_7ReferencerClass@@6B@			; ReferencerClass::`vftable'
PUBLIC	?_checking@?1??Security_Check@GenericDataSafeClass@@KAXXZ@4_NA ; `GenericDataSafeClass::Security_Check'::`2'::_checking
PUBLIC	?_calls@?1??Security_Check@GenericDataSafeClass@@KAXXZ@4KA ; `GenericDataSafeClass::Security_Check'::`2'::_calls
PUBLIC	??_C@_04OHJIHAFH@None?$AA@			; `string'
PUBLIC	??_C@_0DE@KMNOIKEO@x?3?2github?2renegade?2dragonade_rxd@ ; `string'
PUBLIC	??_C@_1GI@MPPDIKBN@?$AAx?$AA?3?$AA?2?$AAg?$AAi?$AAt?$AAh?$AAu?$AAb?$AA?2?$AAr?$AAe?$AAn?$AAe?$AAg?$AAa?$AAd?$AAe?$AA?2?$AAd?$AAr?$AAa?$AAg?$AAo?$AAn?$AAa?$AAd?$AAe?$AA_?$AAr?$AAx?$AAd@ ; `string'
PUBLIC	?oh_dear@?7???R?$SafeDataClass@M@@QBEAAMXZ@4MA	; `SafeDataClass<float>::operator()'::`8'::oh_dear
PUBLIC	??_C@_0CA@MPJANLK@DataSafeClass?$DMfloat?$DO?3?3Add_Entry?$AA@ ; `string'
PUBLIC	??_C@_0CD@NFGONDJL@DataSafeClass?$DMfloat?$DO?3?3Delete_Ent@ ; `string'
PUBLIC	?oh_dear@?7???R?$SafeDataClass@H@@QBEAAHXZ@4HA	; `SafeDataClass<int>::operator()'::`8'::oh_dear
PUBLIC	??_R4ScriptFactory@@6B@				; ScriptFactory::`RTTI Complete Object Locator'
PUBLIC	??_R0?AVScriptFactory@@@8			; ScriptFactory `RTTI Type Descriptor'
PUBLIC	??_R3ScriptFactory@@8				; ScriptFactory::`RTTI Class Hierarchy Descriptor'
PUBLIC	??_R2ScriptFactory@@8				; ScriptFactory::`RTTI Base Class Array'
PUBLIC	??_R1A@?0A@EA@ScriptFactory@@8			; ScriptFactory::`RTTI Base Class Descriptor at (0,-1,0,64)'
PUBLIC	??_R4ScriptClass@@6B@				; ScriptClass::`RTTI Complete Object Locator'
PUBLIC	??_R0?AVScriptClass@@@8				; ScriptClass `RTTI Type Descriptor'
PUBLIC	??_R3ScriptClass@@8				; ScriptClass::`RTTI Class Hierarchy Descriptor'
PUBLIC	??_R2ScriptClass@@8				; ScriptClass::`RTTI Base Class Array'
PUBLIC	??_R1A@?0A@EA@ScriptClass@@8			; ScriptClass::`RTTI Base Class Descriptor at (0,-1,0,64)'
PUBLIC	??_R1A@?0A@EA@GameObjObserverClass@@8		; GameObjObserverClass::`RTTI Base Class Descriptor at (0,-1,0,64)'
PUBLIC	??_R0?AVGameObjObserverClass@@@8		; GameObjObserverClass `RTTI Type Descriptor'
PUBLIC	??_R3GameObjObserverClass@@8			; GameObjObserverClass::`RTTI Class Hierarchy Descriptor'
PUBLIC	??_R2GameObjObserverClass@@8			; GameObjObserverClass::`RTTI Base Class Array'
PUBLIC	??_R4GameObjObserverClass@@6B@			; GameObjObserverClass::`RTTI Complete Object Locator'
PUBLIC	??_R4ScriptImpClass@@6B@			; ScriptImpClass::`RTTI Complete Object Locator'
PUBLIC	??_R0?AVScriptImpClass@@@8			; ScriptImpClass `RTTI Type Descriptor'
PUBLIC	??_R3ScriptImpClass@@8				; ScriptImpClass::`RTTI Class Hierarchy Descriptor'
PUBLIC	??_R2ScriptImpClass@@8				; ScriptImpClass::`RTTI Base Class Array'
PUBLIC	??_R1A@?0A@EA@ScriptImpClass@@8			; ScriptImpClass::`RTTI Base Class Descriptor at (0,-1,0,64)'
PUBLIC	??_R4ThreadClass@@6B@				; ThreadClass::`RTTI Complete Object Locator'
PUBLIC	??_R0?AVThreadClass@@@8				; ThreadClass `RTTI Type Descriptor'
PUBLIC	??_R3ThreadClass@@8				; ThreadClass::`RTTI Class Hierarchy Descriptor'
PUBLIC	??_R2ThreadClass@@8				; ThreadClass::`RTTI Base Class Array'
PUBLIC	??_R1A@?0A@EA@ThreadClass@@8			; ThreadClass::`RTTI Base Class Descriptor at (0,-1,0,64)'
PUBLIC	??_R4PostLoadableClass@@6B@			; PostLoadableClass::`RTTI Complete Object Locator'
PUBLIC	??_R0?AVPostLoadableClass@@@8			; PostLoadableClass `RTTI Type Descriptor'
PUBLIC	??_R3PostLoadableClass@@8			; PostLoadableClass::`RTTI Class Hierarchy Descriptor'
PUBLIC	??_R2PostLoadableClass@@8			; PostLoadableClass::`RTTI Base Class Array'
PUBLIC	??_R1A@?0A@EA@PostLoadableClass@@8		; PostLoadableClass::`RTTI Base Class Descriptor at (0,-1,0,64)'
PUBLIC	??_R4INIClass@@6B@				; INIClass::`RTTI Complete Object Locator'
PUBLIC	??_R0?AVINIClass@@@8				; INIClass `RTTI Type Descriptor'
PUBLIC	??_R3INIClass@@8				; INIClass::`RTTI Class Hierarchy Descriptor'
PUBLIC	??_R2INIClass@@8				; INIClass::`RTTI Base Class Array'
PUBLIC	??_R1A@?0A@EA@INIClass@@8			; INIClass::`RTTI Base Class Descriptor at (0,-1,0,64)'
PUBLIC	??_R4ReferencerClass@@6B@			; ReferencerClass::`RTTI Complete Object Locator'
PUBLIC	??_R0?AVReferencerClass@@@8			; ReferencerClass `RTTI Type Descriptor'
PUBLIC	??_R3ReferencerClass@@8				; ReferencerClass::`RTTI Class Hierarchy Descriptor'
PUBLIC	??_R2ReferencerClass@@8				; ReferencerClass::`RTTI Base Class Array'
PUBLIC	??_R1A@?0A@EA@ReferencerClass@@8		; ReferencerClass::`RTTI Base Class Descriptor at (0,-1,0,64)'
PUBLIC	__real@00000000
PUBLIC	__real@0000000000000000
PUBLIC	__real@02081cea
PUBLIC	__real@3f79999a
PUBLIC	__real@3f800000
PUBLIC	__real@3fc90fdb
PUBLIC	__real@3fe0000000000000
PUBLIC	__real@3ff0000000000000
PUBLIC	__real@40000000
PUBLIC	__real@4000000000000000
PUBLIC	__real@40c90fdb
PUBLIC	__real@437f0000
PUBLIC	__real@44000000
PUBLIC	__real@44800000
PUBLIC	__real@bf800000
PUBLIC	__real@c0000000
PUBLIC	__xmm@80000000000000008000000000000000
PUBLIC	__xmm@80000000800000008000000080000000
EXTRN	__purecall:PROC
EXTRN	??3@YAXPAX@Z:PROC				; operator delete
EXTRN	__imp___wassert:PROC
EXTRN	__imp__atof:PROC
EXTRN	__imp__ceil:PROC
EXTRN	__imp__atoi:PROC
EXTRN	??_V@YAXPAX@Z:PROC				; operator delete[]
EXTRN	??_U@YAPAXI@Z:PROC				; operator new[]
EXTRN	__imp___stricmp:PROC
EXTRN	__imp__GetCurrentThreadId@0:PROC
EXTRN	?SetThreadTrackingInformation@@YAXPBDI0@Z:PROC	; SetThreadTrackingInformation
EXTRN	?Random_Float@WWMath@@SAMXZ:PROC		; WWMath::Random_Float
EXTRN	??1ScriptImpClass@@UAE@XZ:PROC			; ScriptImpClass::~ScriptImpClass
EXTRN	?Get_Name@ScriptImpClass@@UAEPBDXZ:PROC		; ScriptImpClass::Get_Name
EXTRN	?Set_Parameters_String@ScriptImpClass@@UAEXPBD@Z:PROC ; ScriptImpClass::Set_Parameters_String
EXTRN	?Get_Parameters_String@ScriptImpClass@@UAEXPADI@Z:PROC ; ScriptImpClass::Get_Parameters_String
EXTRN	?Get_Parameter@ScriptImpClass@@QAEPBDH@Z:PROC	; ScriptImpClass::Get_Parameter
EXTRN	?Get_Int_Parameter@ScriptImpClass@@QAEHPBD@Z:PROC ; ScriptImpClass::Get_Int_Parameter
EXTRN	?Attach@ScriptImpClass@@MAEXPAVScriptableGameObj@@@Z:PROC ; ScriptImpClass::Attach
EXTRN	?Detach@ScriptImpClass@@MAEXPAVScriptableGameObj@@@Z:PROC ; ScriptImpClass::Detach
EXTRN	?Save@ScriptImpClass@@MAEXAAVScriptSaver@@@Z:PROC ; ScriptImpClass::Save
EXTRN	?Load@ScriptImpClass@@MAEXAAVScriptLoader@@@Z:PROC ; ScriptImpClass::Load
EXTRN	??1ScriptFactory@@UAE@XZ:PROC			; ScriptFactory::~ScriptFactory
EXTRN	??1ThreadClass@@UAE@XZ:PROC			; ThreadClass::~ThreadClass
EXTRN	__imp_?Free_String@StringClass@@AAEXXZ:PROC
EXTRN	?Find_Entry@INIClass@@QBEPAUINIEntry@@PBD0@Z:PROC ; INIClass::Find_Entry
EXTRN	?Find_Section@INIClass@@QBEPAUINISection@@PBD@Z:PROC ; INIClass::Find_Section
EXTRN	??1INIClass@@UAE@XZ:PROC			; INIClass::~INIClass
EXTRN	??1ReferencerClass@@UAE@XZ:PROC			; ReferencerClass::~ReferencerClass
EXTRN	?On_Post_Load@ReferencerClass@@UAEXXZ:PROC	; ReferencerClass::On_Post_Load
EXTRN	??4ReferencerClass@@QAEAAV0@PAVScriptableGameObj@@@Z:PROC ; ReferencerClass::operator=
EXTRN	??BReferencerClass@@QBEPAVScriptableGameObj@@XZ:PROC ; ReferencerClass::operator ScriptableGameObj *
EXTRN	?Get@SysTimeClass@@QAEIXZ:PROC			; SysTimeClass::Get
EXTRN	?Get_Entry@GenericDataSafeClass@@SAPAVDataSafeEntryClass@@VDataSafeHandleClass@@@Z:PROC ; GenericDataSafeClass::Get_Entry
EXTRN	?Shuffle@GenericDataSafeClass@@KAX_N@Z:PROC	; GenericDataSafeClass::Shuffle
EXTRN	?Encrypt@GenericDataSafeClass@@KAXPAXHK_N@Z:PROC ; GenericDataSafeClass::Encrypt
EXTRN	?Decrypt@GenericDataSafeClass@@KAXPAXHK_N@Z:PROC ; GenericDataSafeClass::Decrypt
EXTRN	?Mem_Copy_Encrypt@GenericDataSafeClass@@KAXPAX0H_N@Z:PROC ; GenericDataSafeClass::Mem_Copy_Encrypt
EXTRN	?Mem_Copy_Decrypt@GenericDataSafeClass@@KAXPAX0H_N@Z:PROC ; GenericDataSafeClass::Mem_Copy_Decrypt
EXTRN	?Say_Security_Fault@GenericDataSafeClass@@KAXXZ:PROC ; GenericDataSafeClass::Say_Security_Fault
EXTRN	?Get_Random_List_For_Insertion@GenericDataSafeClass@@KAHH@Z:PROC ; GenericDataSafeClass::Get_Random_List_For_Insertion
EXTRN	?Random_Insertion@GenericDataSafeClass@@KAXPAVDataSafeEntryClass@@HH_N@Z:PROC ; GenericDataSafeClass::Random_Insertion
EXTRN	?Get_Handle_ID@GenericDataSafeClass@@KAHH@Z:PROC ; GenericDataSafeClass::Get_Handle_ID
EXTRN	?Remove_From_List@GenericDataSafeClass@@KAXHPAVDataSafeEntryClass@@@Z:PROC ; GenericDataSafeClass::Remove_From_List
EXTRN	?Free_Handle_ID@GenericDataSafeClass@@KAXHH@Z:PROC ; GenericDataSafeClass::Free_Handle_ID
EXTRN	?Get_Definition@ScriptableGameObj@@QBEABVScriptableGameObjDef@@XZ:PROC ; ScriptableGameObj::Get_Definition
EXTRN	?Set@Matrix3D@@QAEXABVMatrix3@@ABVVector3@@@Z:PROC ; Matrix3D::Set
EXTRN	?Set@Matrix3D@@QAEXABVQuaternion@@ABVVector3@@@Z:PROC ; Matrix3D::Set
EXTRN	?Set@LineSegClass@@QAEXABV1@ABVMatrix3D@@@Z:PROC ; LineSegClass::Set
EXTRN	?Defuse@C4GameObj@@QAEXXZ:PROC			; C4GameObj::Defuse
EXTRN	?Find_Named_Definition@@YAPAVDefinitionClass@@PBD@Z:PROC ; Find_Named_Definition
EXTRN	?Find_Definition@@YAPAVDefinitionClass@@K@Z:PROC ; Find_Definition
EXTRN	?Get_Object_Type@@YAHPAVScriptableGameObj@@@Z:PROC ; Get_Object_Type
EXTRN	?Get_Player_ID@@YAJPAVScriptableGameObj@@@Z:PROC ; Get_Player_ID
EXTRN	?Set@Matrix3@@QAEXABVQuaternion@@@Z:PROC	; Matrix3::Set
EXTRN	__CIatan2:PROC
EXTRN	__libm_sse2_acos_precise:PROC
EXTRN	__libm_sse2_asin_precise:PROC
EXTRN	__libm_sse2_atan_precise:PROC
EXTRN	__libm_sse2_cos_precise:PROC
EXTRN	__libm_sse2_sin_precise:PROC
EXTRN	__libm_sse2_sqrt_precise:PROC
EXTRN	__libm_sse2_tan_precise:PROC
EXTRN	_floor:PROC
EXTRN	__imp___FInf:BYTE
EXTRN	??_7type_info@@6B@:QWORD			; type_info::`vftable'
EXTRN	?_FastAcosTable@@3AAV?$RefArrayHelper@M$0EAA@@@A:DWORD ; _FastAcosTable
EXTRN	?_FastAsinTable@@3AAV?$RefArrayHelper@M$0EAA@@@A:DWORD ; _FastAsinTable
EXTRN	?_FastSinTable@@3AAV?$RefArrayHelper@M$0EAA@@@A:DWORD ; _FastSinTable
EXTRN	?SystemTime@SysTimeClass@@2AAV1@A:DWORD		; SysTimeClass::SystemTime
EXTRN	?SimpleKey@GenericDataSafeClass@@1AAKA:DWORD	; GenericDataSafeClass::SimpleKey
EXTRN	?HandleKey@GenericDataSafeClass@@1AAKA:DWORD	; GenericDataSafeClass::HandleKey
EXTRN	?NumLists@GenericDataSafeClass@@1AAHA:DWORD	; GenericDataSafeClass::NumLists
EXTRN	?Safe@GenericDataSafeClass@@1AAV?$RefArray@PAVDataSafeEntryListClass@@$0CAAA@@@A:DWORD ; GenericDataSafeClass::Safe
EXTRN	?Checksum@GenericDataSafeClass@@1AAKA:DWORD	; GenericDataSafeClass::Checksum
EXTRN	?SecurityCheckDelay@GenericDataSafeClass@@1AAKA:DWORD ; GenericDataSafeClass::SecurityCheckDelay
EXTRN	?TypeList@GenericDataSafeClass@@1AAV?$RefArray@VDataSafeEntryTypeClass@@$0IA@@@A:DWORD ; GenericDataSafeClass::TypeList
EXTRN	?SentinelOne@GenericDataSafeClass@@1AAVDataSafeHandleClass@@A:DWORD ; GenericDataSafeClass::SentinelOne
EXTRN	?SentinelTwo@GenericDataSafeClass@@1AAVDataSafeHandleClass@@A:DWORD ; GenericDataSafeClass::SentinelTwo
EXTRN	?CRCErrors@GenericDataSafeClass@@1AAHA:DWORD	; GenericDataSafeClass::CRCErrors
EXTRN	?ErrorVal@@3PADA:BYTE				; ErrorVal
EXTRN	?ReturnList@?$DataSafeClass@H@@0AAV?$RefArray@V?$RefArray@D$03@@$07@@A:DWORD ; DataSafeClass<int>::ReturnList
EXTRN	?ReturnIndex@?$DataSafeClass@H@@0AAHA:DWORD	; DataSafeClass<int>::ReturnIndex
EXTRN	?StarGameObjList@GameObjManager@@2AAV?$SList@VSoldierGameObj@@@@A:DWORD ; GameObjManager::StarGameObjList
EXTRN	__imp_?C4GameObjList@GameObjManager@@2V?$SList@VC4GameObj@@@@A:BYTE
EXTRN	__imp_?BeaconGameObjList@GameObjManager@@2V?$SList@VBeaconGameObj@@@@A:BYTE
EXTRN	?Type@?$DataSafeClass@M@@0AAHA:DWORD		; DataSafeClass<float>::Type
EXTRN	?MinSlop@?$DataSafeClass@M@@0AAHA:DWORD		; DataSafeClass<float>::MinSlop
EXTRN	?ReturnList@?$DataSafeClass@M@@0AAV?$RefArray@V?$RefArray@D$03@@$07@@A:DWORD ; DataSafeClass<float>::ReturnList
EXTRN	?ReturnIndex@?$DataSafeClass@M@@0AAHA:DWORD	; DataSafeClass<float>::ReturnIndex
EXTRN	__fltused:DWORD
;	COMDAT ?_checking@?1??Security_Check@GenericDataSafeClass@@KAXXZ@4_NA
_BSS	SEGMENT
?_checking@?1??Security_Check@GenericDataSafeClass@@KAXXZ@4_NA DB 01H DUP (?) ; `GenericDataSafeClass::Security_Check'::`2'::_checking
_BSS	ENDS
;	COMDAT ?_calls@?1??Security_Check@GenericDataSafeClass@@KAXXZ@4KA
_BSS	SEGMENT
?_calls@?1??Security_Check@GenericDataSafeClass@@KAXXZ@4KA DD 01H DUP (?) ; `GenericDataSafeClass::Security_Check'::`2'::_calls
_BSS	ENDS
;	COMDAT ?oh_dear@?7???R?$SafeDataClass@M@@QBEAAMXZ@4MA
_BSS	SEGMENT
?oh_dear@?7???R?$SafeDataClass@M@@QBEAAMXZ@4MA DD 01H DUP (?) ; `SafeDataClass<float>::operator()'::`8'::oh_dear
_BSS	ENDS
;	COMDAT ?oh_dear@?7???R?$SafeDataClass@H@@QBEAAHXZ@4HA
_BSS	SEGMENT
?oh_dear@?7???R?$SafeDataClass@H@@QBEAAHXZ@4HA DD 01H DUP (?) ; `SafeDataClass<int>::operator()'::`8'::oh_dear
_BSS	ENDS
;	COMDAT __xmm@80000000800000008000000080000000
CONST	SEGMENT
__xmm@80000000800000008000000080000000 DB 00H, 00H, 00H, 080H, 00H, 00H, 00H
	DB	080H, 00H, 00H, 00H, 080H, 00H, 00H, 00H, 080H
CONST	ENDS
;	COMDAT __xmm@80000000000000008000000000000000
CONST	SEGMENT
__xmm@80000000000000008000000000000000 DB 00H, 00H, 00H, 00H, 00H, 00H, 00H
	DB	080H, 00H, 00H, 00H, 00H, 00H, 00H, 00H, 080H
CONST	ENDS
;	COMDAT __real@c0000000
CONST	SEGMENT
__real@c0000000 DD 0c0000000r			; -2
CONST	ENDS
;	COMDAT __real@bf800000
CONST	SEGMENT
__real@bf800000 DD 0bf800000r			; -1
CONST	ENDS
;	COMDAT __real@44800000
CONST	SEGMENT
__real@44800000 DD 044800000r			; 1024
CONST	ENDS
;	COMDAT __real@44000000
CONST	SEGMENT
__real@44000000 DD 044000000r			; 512
CONST	ENDS
;	COMDAT __real@437f0000
CONST	SEGMENT
__real@437f0000 DD 0437f0000r			; 255
CONST	ENDS
;	COMDAT __real@40c90fdb
CONST	SEGMENT
__real@40c90fdb DD 040c90fdbr			; 6.28319
CONST	ENDS
;	COMDAT __real@4000000000000000
CONST	SEGMENT
__real@4000000000000000 DQ 04000000000000000r	; 2
CONST	ENDS
;	COMDAT __real@40000000
CONST	SEGMENT
__real@40000000 DD 040000000r			; 2
CONST	ENDS
;	COMDAT __real@3ff0000000000000
CONST	SEGMENT
__real@3ff0000000000000 DQ 03ff0000000000000r	; 1
CONST	ENDS
;	COMDAT __real@3fe0000000000000
CONST	SEGMENT
__real@3fe0000000000000 DQ 03fe0000000000000r	; 0.5
CONST	ENDS
;	COMDAT __real@3fc90fdb
CONST	SEGMENT
__real@3fc90fdb DD 03fc90fdbr			; 1.5708
CONST	ENDS
;	COMDAT __real@3f800000
CONST	SEGMENT
__real@3f800000 DD 03f800000r			; 1
CONST	ENDS
;	COMDAT __real@3f79999a
CONST	SEGMENT
__real@3f79999a DD 03f79999ar			; 0.975
CONST	ENDS
;	COMDAT __real@02081cea
CONST	SEGMENT
__real@02081cea DD 002081cear			; 1e-037
CONST	ENDS
;	COMDAT __real@0000000000000000
CONST	SEGMENT
__real@0000000000000000 DQ 00000000000000000r	; 0
CONST	ENDS
;	COMDAT __real@00000000
CONST	SEGMENT
__real@00000000 DD 000000000r			; 0
CONST	ENDS
;	COMDAT ??_R1A@?0A@EA@ReferencerClass@@8
rdata$r	SEGMENT
??_R1A@?0A@EA@ReferencerClass@@8 DD FLAT:??_R0?AVReferencerClass@@@8 ; ReferencerClass::`RTTI Base Class Descriptor at (0,-1,0,64)'
	DD	01H
	DD	00H
	DD	0ffffffffH
	DD	00H
	DD	040H
	DD	FLAT:??_R3ReferencerClass@@8
rdata$r	ENDS
;	COMDAT ??_R2ReferencerClass@@8
rdata$r	SEGMENT
??_R2ReferencerClass@@8 DD FLAT:??_R1A@?0A@EA@ReferencerClass@@8 ; ReferencerClass::`RTTI Base Class Array'
	DD	FLAT:??_R1A@?0A@EA@PostLoadableClass@@8
rdata$r	ENDS
;	COMDAT ??_R3ReferencerClass@@8
rdata$r	SEGMENT
??_R3ReferencerClass@@8 DD 00H				; ReferencerClass::`RTTI Class Hierarchy Descriptor'
	DD	00H
	DD	02H
	DD	FLAT:??_R2ReferencerClass@@8
rdata$r	ENDS
;	COMDAT ??_R0?AVReferencerClass@@@8
_DATA	SEGMENT
??_R0?AVReferencerClass@@@8 DD FLAT:??_7type_info@@6B@	; ReferencerClass `RTTI Type Descriptor'
	DD	00H
	DB	'.?AVReferencerClass@@', 00H
_DATA	ENDS
;	COMDAT ??_R4ReferencerClass@@6B@
rdata$r	SEGMENT
??_R4ReferencerClass@@6B@ DD 00H			; ReferencerClass::`RTTI Complete Object Locator'
	DD	00H
	DD	00H
	DD	FLAT:??_R0?AVReferencerClass@@@8
	DD	FLAT:??_R3ReferencerClass@@8
rdata$r	ENDS
;	COMDAT ??_R1A@?0A@EA@INIClass@@8
rdata$r	SEGMENT
??_R1A@?0A@EA@INIClass@@8 DD FLAT:??_R0?AVINIClass@@@8	; INIClass::`RTTI Base Class Descriptor at (0,-1,0,64)'
	DD	00H
	DD	00H
	DD	0ffffffffH
	DD	00H
	DD	040H
	DD	FLAT:??_R3INIClass@@8
rdata$r	ENDS
;	COMDAT ??_R2INIClass@@8
rdata$r	SEGMENT
??_R2INIClass@@8 DD FLAT:??_R1A@?0A@EA@INIClass@@8	; INIClass::`RTTI Base Class Array'
rdata$r	ENDS
;	COMDAT ??_R3INIClass@@8
rdata$r	SEGMENT
??_R3INIClass@@8 DD 00H					; INIClass::`RTTI Class Hierarchy Descriptor'
	DD	00H
	DD	01H
	DD	FLAT:??_R2INIClass@@8
rdata$r	ENDS
;	COMDAT ??_R0?AVINIClass@@@8
_DATA	SEGMENT
??_R0?AVINIClass@@@8 DD FLAT:??_7type_info@@6B@		; INIClass `RTTI Type Descriptor'
	DD	00H
	DB	'.?AVINIClass@@', 00H
_DATA	ENDS
;	COMDAT ??_R4INIClass@@6B@
rdata$r	SEGMENT
??_R4INIClass@@6B@ DD 00H				; INIClass::`RTTI Complete Object Locator'
	DD	00H
	DD	00H
	DD	FLAT:??_R0?AVINIClass@@@8
	DD	FLAT:??_R3INIClass@@8
rdata$r	ENDS
;	COMDAT ??_R1A@?0A@EA@PostLoadableClass@@8
rdata$r	SEGMENT
??_R1A@?0A@EA@PostLoadableClass@@8 DD FLAT:??_R0?AVPostLoadableClass@@@8 ; PostLoadableClass::`RTTI Base Class Descriptor at (0,-1,0,64)'
	DD	00H
	DD	00H
	DD	0ffffffffH
	DD	00H
	DD	040H
	DD	FLAT:??_R3PostLoadableClass@@8
rdata$r	ENDS
;	COMDAT ??_R2PostLoadableClass@@8
rdata$r	SEGMENT
??_R2PostLoadableClass@@8 DD FLAT:??_R1A@?0A@EA@PostLoadableClass@@8 ; PostLoadableClass::`RTTI Base Class Array'
rdata$r	ENDS
;	COMDAT ??_R3PostLoadableClass@@8
rdata$r	SEGMENT
??_R3PostLoadableClass@@8 DD 00H			; PostLoadableClass::`RTTI Class Hierarchy Descriptor'
	DD	00H
	DD	01H
	DD	FLAT:??_R2PostLoadableClass@@8
rdata$r	ENDS
;	COMDAT ??_R0?AVPostLoadableClass@@@8
_DATA	SEGMENT
??_R0?AVPostLoadableClass@@@8 DD FLAT:??_7type_info@@6B@ ; PostLoadableClass `RTTI Type Descriptor'
	DD	00H
	DB	'.?AVPostLoadableClass@@', 00H
_DATA	ENDS
;	COMDAT ??_R4PostLoadableClass@@6B@
rdata$r	SEGMENT
??_R4PostLoadableClass@@6B@ DD 00H			; PostLoadableClass::`RTTI Complete Object Locator'
	DD	00H
	DD	00H
	DD	FLAT:??_R0?AVPostLoadableClass@@@8
	DD	FLAT:??_R3PostLoadableClass@@8
rdata$r	ENDS
;	COMDAT ??_R1A@?0A@EA@ThreadClass@@8
rdata$r	SEGMENT
??_R1A@?0A@EA@ThreadClass@@8 DD FLAT:??_R0?AVThreadClass@@@8 ; ThreadClass::`RTTI Base Class Descriptor at (0,-1,0,64)'
	DD	00H
	DD	00H
	DD	0ffffffffH
	DD	00H
	DD	040H
	DD	FLAT:??_R3ThreadClass@@8
rdata$r	ENDS
;	COMDAT ??_R2ThreadClass@@8
rdata$r	SEGMENT
??_R2ThreadClass@@8 DD FLAT:??_R1A@?0A@EA@ThreadClass@@8 ; ThreadClass::`RTTI Base Class Array'
rdata$r	ENDS
;	COMDAT ??_R3ThreadClass@@8
rdata$r	SEGMENT
??_R3ThreadClass@@8 DD 00H				; ThreadClass::`RTTI Class Hierarchy Descriptor'
	DD	00H
	DD	01H
	DD	FLAT:??_R2ThreadClass@@8
rdata$r	ENDS
;	COMDAT ??_R0?AVThreadClass@@@8
_DATA	SEGMENT
??_R0?AVThreadClass@@@8 DD FLAT:??_7type_info@@6B@	; ThreadClass `RTTI Type Descriptor'
	DD	00H
	DB	'.?AVThreadClass@@', 00H
_DATA	ENDS
;	COMDAT ??_R4ThreadClass@@6B@
rdata$r	SEGMENT
??_R4ThreadClass@@6B@ DD 00H				; ThreadClass::`RTTI Complete Object Locator'
	DD	00H
	DD	00H
	DD	FLAT:??_R0?AVThreadClass@@@8
	DD	FLAT:??_R3ThreadClass@@8
rdata$r	ENDS
;	COMDAT ??_R1A@?0A@EA@ScriptImpClass@@8
rdata$r	SEGMENT
??_R1A@?0A@EA@ScriptImpClass@@8 DD FLAT:??_R0?AVScriptImpClass@@@8 ; ScriptImpClass::`RTTI Base Class Descriptor at (0,-1,0,64)'
	DD	02H
	DD	00H
	DD	0ffffffffH
	DD	00H
	DD	040H
	DD	FLAT:??_R3ScriptImpClass@@8
rdata$r	ENDS
;	COMDAT ??_R2ScriptImpClass@@8
rdata$r	SEGMENT
??_R2ScriptImpClass@@8 DD FLAT:??_R1A@?0A@EA@ScriptImpClass@@8 ; ScriptImpClass::`RTTI Base Class Array'
	DD	FLAT:??_R1A@?0A@EA@ScriptClass@@8
	DD	FLAT:??_R1A@?0A@EA@GameObjObserverClass@@8
rdata$r	ENDS
;	COMDAT ??_R3ScriptImpClass@@8
rdata$r	SEGMENT
??_R3ScriptImpClass@@8 DD 00H				; ScriptImpClass::`RTTI Class Hierarchy Descriptor'
	DD	00H
	DD	03H
	DD	FLAT:??_R2ScriptImpClass@@8
rdata$r	ENDS
;	COMDAT ??_R0?AVScriptImpClass@@@8
_DATA	SEGMENT
??_R0?AVScriptImpClass@@@8 DD FLAT:??_7type_info@@6B@	; ScriptImpClass `RTTI Type Descriptor'
	DD	00H
	DB	'.?AVScriptImpClass@@', 00H
_DATA	ENDS
;	COMDAT ??_R4ScriptImpClass@@6B@
rdata$r	SEGMENT
??_R4ScriptImpClass@@6B@ DD 00H				; ScriptImpClass::`RTTI Complete Object Locator'
	DD	00H
	DD	00H
	DD	FLAT:??_R0?AVScriptImpClass@@@8
	DD	FLAT:??_R3ScriptImpClass@@8
rdata$r	ENDS
;	COMDAT ??_R4GameObjObserverClass@@6B@
rdata$r	SEGMENT
??_R4GameObjObserverClass@@6B@ DD 00H			; GameObjObserverClass::`RTTI Complete Object Locator'
	DD	00H
	DD	00H
	DD	FLAT:??_R0?AVGameObjObserverClass@@@8
	DD	FLAT:??_R3GameObjObserverClass@@8
rdata$r	ENDS
;	COMDAT ??_R2GameObjObserverClass@@8
rdata$r	SEGMENT
??_R2GameObjObserverClass@@8 DD FLAT:??_R1A@?0A@EA@GameObjObserverClass@@8 ; GameObjObserverClass::`RTTI Base Class Array'
rdata$r	ENDS
;	COMDAT ??_R3GameObjObserverClass@@8
rdata$r	SEGMENT
??_R3GameObjObserverClass@@8 DD 00H			; GameObjObserverClass::`RTTI Class Hierarchy Descriptor'
	DD	00H
	DD	01H
	DD	FLAT:??_R2GameObjObserverClass@@8
rdata$r	ENDS
;	COMDAT ??_R0?AVGameObjObserverClass@@@8
_DATA	SEGMENT
??_R0?AVGameObjObserverClass@@@8 DD FLAT:??_7type_info@@6B@ ; GameObjObserverClass `RTTI Type Descriptor'
	DD	00H
	DB	'.?AVGameObjObserverClass@@', 00H
_DATA	ENDS
;	COMDAT ??_R1A@?0A@EA@GameObjObserverClass@@8
rdata$r	SEGMENT
??_R1A@?0A@EA@GameObjObserverClass@@8 DD FLAT:??_R0?AVGameObjObserverClass@@@8 ; GameObjObserverClass::`RTTI Base Class Descriptor at (0,-1,0,64)'
	DD	00H
	DD	00H
	DD	0ffffffffH
	DD	00H
	DD	040H
	DD	FLAT:??_R3GameObjObserverClass@@8
rdata$r	ENDS
;	COMDAT ??_R1A@?0A@EA@ScriptClass@@8
rdata$r	SEGMENT
??_R1A@?0A@EA@ScriptClass@@8 DD FLAT:??_R0?AVScriptClass@@@8 ; ScriptClass::`RTTI Base Class Descriptor at (0,-1,0,64)'
	DD	01H
	DD	00H
	DD	0ffffffffH
	DD	00H
	DD	040H
	DD	FLAT:??_R3ScriptClass@@8
rdata$r	ENDS
;	COMDAT ??_R2ScriptClass@@8
rdata$r	SEGMENT
??_R2ScriptClass@@8 DD FLAT:??_R1A@?0A@EA@ScriptClass@@8 ; ScriptClass::`RTTI Base Class Array'
	DD	FLAT:??_R1A@?0A@EA@GameObjObserverClass@@8
rdata$r	ENDS
;	COMDAT ??_R3ScriptClass@@8
rdata$r	SEGMENT
??_R3ScriptClass@@8 DD 00H				; ScriptClass::`RTTI Class Hierarchy Descriptor'
	DD	00H
	DD	02H
	DD	FLAT:??_R2ScriptClass@@8
rdata$r	ENDS
;	COMDAT ??_R0?AVScriptClass@@@8
_DATA	SEGMENT
??_R0?AVScriptClass@@@8 DD FLAT:??_7type_info@@6B@	; ScriptClass `RTTI Type Descriptor'
	DD	00H
	DB	'.?AVScriptClass@@', 00H
_DATA	ENDS
;	COMDAT ??_R4ScriptClass@@6B@
rdata$r	SEGMENT
??_R4ScriptClass@@6B@ DD 00H				; ScriptClass::`RTTI Complete Object Locator'
	DD	00H
	DD	00H
	DD	FLAT:??_R0?AVScriptClass@@@8
	DD	FLAT:??_R3ScriptClass@@8
rdata$r	ENDS
;	COMDAT ??_R1A@?0A@EA@ScriptFactory@@8
rdata$r	SEGMENT
??_R1A@?0A@EA@ScriptFactory@@8 DD FLAT:??_R0?AVScriptFactory@@@8 ; ScriptFactory::`RTTI Base Class Descriptor at (0,-1,0,64)'
	DD	00H
	DD	00H
	DD	0ffffffffH
	DD	00H
	DD	040H
	DD	FLAT:??_R3ScriptFactory@@8
rdata$r	ENDS
;	COMDAT ??_R2ScriptFactory@@8
rdata$r	SEGMENT
??_R2ScriptFactory@@8 DD FLAT:??_R1A@?0A@EA@ScriptFactory@@8 ; ScriptFactory::`RTTI Base Class Array'
rdata$r	ENDS
;	COMDAT ??_R3ScriptFactory@@8
rdata$r	SEGMENT
??_R3ScriptFactory@@8 DD 00H				; ScriptFactory::`RTTI Class Hierarchy Descriptor'
	DD	00H
	DD	01H
	DD	FLAT:??_R2ScriptFactory@@8
rdata$r	ENDS
;	COMDAT ??_R0?AVScriptFactory@@@8
_DATA	SEGMENT
??_R0?AVScriptFactory@@@8 DD FLAT:??_7type_info@@6B@	; ScriptFactory `RTTI Type Descriptor'
	DD	00H
	DB	'.?AVScriptFactory@@', 00H
_DATA	ENDS
;	COMDAT ??_R4ScriptFactory@@6B@
rdata$r	SEGMENT
??_R4ScriptFactory@@6B@ DD 00H				; ScriptFactory::`RTTI Complete Object Locator'
	DD	00H
	DD	00H
	DD	FLAT:??_R0?AVScriptFactory@@@8
	DD	FLAT:??_R3ScriptFactory@@8
rdata$r	ENDS
;	COMDAT ??_C@_0CD@NFGONDJL@DataSafeClass?$DMfloat?$DO?3?3Delete_Ent@
CONST	SEGMENT
??_C@_0CD@NFGONDJL@DataSafeClass?$DMfloat?$DO?3?3Delete_Ent@ DB 'DataSafe'
	DB	'Class<float>::Delete_Entry', 00H		; `string'
CONST	ENDS
;	COMDAT ??_C@_0CA@MPJANLK@DataSafeClass?$DMfloat?$DO?3?3Add_Entry?$AA@
CONST	SEGMENT
??_C@_0CA@MPJANLK@DataSafeClass?$DMfloat?$DO?3?3Add_Entry?$AA@ DB 'DataSa'
	DB	'feClass<float>::Add_Entry', 00H		; `string'
CONST	ENDS
;	COMDAT ??_C@_1GI@MPPDIKBN@?$AAx?$AA?3?$AA?2?$AAg?$AAi?$AAt?$AAh?$AAu?$AAb?$AA?2?$AAr?$AAe?$AAn?$AAe?$AAg?$AAa?$AAd?$AAe?$AA?2?$AAd?$AAr?$AAa?$AAg?$AAo?$AAn?$AAa?$AAd?$AAe?$AA_?$AAr?$AAx?$AAd@
CONST	SEGMENT
??_C@_1GI@MPPDIKBN@?$AAx?$AA?3?$AA?2?$AAg?$AAi?$AAt?$AAh?$AAu?$AAb?$AA?2?$AAr?$AAe?$AAn?$AAe?$AAg?$AAa?$AAd?$AAe?$AA?2?$AAd?$AAr?$AAa?$AAg?$AAo?$AAn?$AAa?$AAd?$AAe?$AA_?$AAr?$AAx?$AAd@ DB 'x'
	DB	00H, ':', 00H, '\', 00H, 'g', 00H, 'i', 00H, 't', 00H, 'h', 00H
	DB	'u', 00H, 'b', 00H, '\', 00H, 'r', 00H, 'e', 00H, 'n', 00H, 'e'
	DB	00H, 'g', 00H, 'a', 00H, 'd', 00H, 'e', 00H, '\', 00H, 'd', 00H
	DB	'r', 00H, 'a', 00H, 'g', 00H, 'o', 00H, 'n', 00H, 'a', 00H, 'd'
	DB	00H, 'e', 00H, '_', 00H, 'r', 00H, 'x', 00H, 'd', 00H, '\', 00H
	DB	's', 00H, 'c', 00H, 'r', 00H, 'i', 00H, 'p', 00H, 't', 00H, 's'
	DB	00H, '\', 00H, 'd', 00H, 'a', 00H, 't', 00H, 'a', 00H, 's', 00H
	DB	'a', 00H, 'f', 00H, 'e', 00H, '.', 00H, 'h', 00H, 00H, 00H ; `string'
CONST	ENDS
;	COMDAT ??_C@_0DE@KMNOIKEO@x?3?2github?2renegade?2dragonade_rxd@
CONST	SEGMENT
??_C@_0DE@KMNOIKEO@x?3?2github?2renegade?2dragonade_rxd@ DB 'x:\github\re'
	DB	'negade\dragonade_rxd\scripts\datasafe.h', 00H ; `string'
CONST	ENDS
;	COMDAT ??_C@_04OHJIHAFH@None?$AA@
CONST	SEGMENT
??_C@_04OHJIHAFH@None?$AA@ DB 'None', 00H		; `string'
CONST	ENDS
;	COMDAT ??_7ReferencerClass@@6B@
CONST	SEGMENT
??_7ReferencerClass@@6B@ DD FLAT:??_R4ReferencerClass@@6B@ ; ReferencerClass::`vftable'
	DD	FLAT:??_EReferencerClass@@UAEPAXI@Z
	DD	FLAT:?On_Post_Load@ReferencerClass@@UAEXXZ
CONST	ENDS
;	COMDAT ??_7INIClass@@6B@
CONST	SEGMENT
??_7INIClass@@6B@ DD FLAT:??_R4INIClass@@6B@		; INIClass::`vftable'
	DD	FLAT:??_EINIClass@@UAEPAXI@Z
CONST	ENDS
;	COMDAT ??_7PostLoadableClass@@6B@
CONST	SEGMENT
??_7PostLoadableClass@@6B@ DD FLAT:??_R4PostLoadableClass@@6B@ ; PostLoadableClass::`vftable'
	DD	FLAT:??_EPostLoadableClass@@UAEPAXI@Z
	DD	FLAT:?On_Post_Load@PostLoadableClass@@UAEXXZ
CONST	ENDS
;	COMDAT ??_C@_1M@HLGKFCJM@?$AAf?$AAa?$AAl?$AAs?$AAe?$AA?$AA@
CONST	SEGMENT
??_C@_1M@HLGKFCJM@?$AAf?$AAa?$AAl?$AAs?$AAe?$AA?$AA@ DB 'f', 00H, 'a', 00H
	DB	'l', 00H, 's', 00H, 'e', 00H, 00H, 00H	; `string'
CONST	ENDS
;	COMDAT ??_7ThreadClass@@6B@
CONST	SEGMENT
??_7ThreadClass@@6B@ DD FLAT:??_R4ThreadClass@@6B@	; ThreadClass::`vftable'
	DD	FLAT:??_EThreadClass@@UAEPAXI@Z
	DD	FLAT:__purecall
CONST	ENDS
;	COMDAT ??_7ScriptFactory@@6B@
CONST	SEGMENT
??_7ScriptFactory@@6B@ DD FLAT:??_R4ScriptFactory@@6B@	; ScriptFactory::`vftable'
	DD	FLAT:??_EScriptFactory@@UAEPAXI@Z
	DD	FLAT:__purecall
CONST	ENDS
;	COMDAT ??_7ScriptImpClass@@6B@
CONST	SEGMENT
??_7ScriptImpClass@@6B@ DD FLAT:??_R4ScriptImpClass@@6B@ ; ScriptImpClass::`vftable'
	DD	FLAT:??_EScriptImpClass@@UAEPAXI@Z
	DD	FLAT:?Get_Name@ScriptImpClass@@UAEPBDXZ
	DD	FLAT:?Attach@ScriptImpClass@@MAEXPAVScriptableGameObj@@@Z
	DD	FLAT:?Detach@ScriptImpClass@@MAEXPAVScriptableGameObj@@@Z
	DD	FLAT:?Created@ScriptImpClass@@UAEXPAVScriptableGameObj@@@Z
	DD	FLAT:?Destroyed@ScriptImpClass@@UAEXPAVScriptableGameObj@@@Z
	DD	FLAT:?Killed@ScriptImpClass@@UAEXPAVScriptableGameObj@@0@Z
	DD	FLAT:?Damaged@ScriptImpClass@@UAEXPAVScriptableGameObj@@0M@Z
	DD	FLAT:?Custom@ScriptImpClass@@UAEXPAVScriptableGameObj@@HH0@Z
	DD	FLAT:?Sound_Heard@ScriptImpClass@@UAEXPAVScriptableGameObj@@ABUCombatSound@@@Z
	DD	FLAT:?Enemy_Seen@ScriptImpClass@@UAEXPAVScriptableGameObj@@0@Z
	DD	FLAT:?Action_Complete@ScriptImpClass@@UAEXPAVScriptableGameObj@@HW4ActionCompleteReason@@@Z
	DD	FLAT:?Timer_Expired@ScriptImpClass@@UAEXPAVScriptableGameObj@@H@Z
	DD	FLAT:?Animation_Complete@ScriptImpClass@@UAEXPAVScriptableGameObj@@PBD@Z
	DD	FLAT:?Poked@ScriptImpClass@@UAEXPAVScriptableGameObj@@0@Z
	DD	FLAT:?Entered@ScriptImpClass@@UAEXPAVScriptableGameObj@@0@Z
	DD	FLAT:?Exited@ScriptImpClass@@UAEXPAVScriptableGameObj@@0@Z
	DD	FLAT:?Owner@ScriptImpClass@@UAEPAVScriptableGameObj@@XZ
	DD	FLAT:?Get_Owner_Ptr@ScriptImpClass@@UAEPAPAVScriptableGameObj@@XZ
	DD	FLAT:?Set_Parameters_String@ScriptImpClass@@UAEXPBD@Z
	DD	FLAT:?Get_Parameters_String@ScriptImpClass@@UAEXPADI@Z
	DD	FLAT:?Save@ScriptImpClass@@MAEXAAVScriptSaver@@@Z
	DD	FLAT:?Load@ScriptImpClass@@MAEXAAVScriptLoader@@@Z
	DD	FLAT:?Save_Data@ScriptImpClass@@UAEXAAVScriptSaver@@@Z
	DD	FLAT:?Load_Data@ScriptImpClass@@UAEXAAVScriptLoader@@@Z
	DD	FLAT:?Register_Auto_Save_Variables@ScriptImpClass@@UAEXXZ
CONST	ENDS
;	COMDAT ??_7ScriptClass@@6B@
CONST	SEGMENT
??_7ScriptClass@@6B@ DD FLAT:??_R4ScriptClass@@6B@	; ScriptClass::`vftable'
	DD	FLAT:??_EScriptClass@@UAEPAXI@Z
	DD	FLAT:__purecall
	DD	FLAT:__purecall
	DD	FLAT:__purecall
	DD	FLAT:__purecall
	DD	FLAT:__purecall
	DD	FLAT:__purecall
	DD	FLAT:__purecall
	DD	FLAT:__purecall
	DD	FLAT:__purecall
	DD	FLAT:__purecall
	DD	FLAT:__purecall
	DD	FLAT:__purecall
	DD	FLAT:__purecall
	DD	FLAT:__purecall
	DD	FLAT:__purecall
	DD	FLAT:__purecall
	DD	FLAT:?Owner@GameObjObserverClass@@UAEPAVScriptableGameObj@@XZ
	DD	FLAT:__purecall
	DD	FLAT:__purecall
	DD	FLAT:__purecall
	DD	FLAT:__purecall
	DD	FLAT:__purecall
CONST	ENDS
;	COMDAT ??_7GameObjObserverClass@@6B@
CONST	SEGMENT
??_7GameObjObserverClass@@6B@ DD FLAT:??_R4GameObjObserverClass@@6B@ ; GameObjObserverClass::`vftable'
	DD	FLAT:??_EGameObjObserverClass@@UAEPAXI@Z
	DD	FLAT:__purecall
	DD	FLAT:__purecall
	DD	FLAT:__purecall
	DD	FLAT:__purecall
	DD	FLAT:__purecall
	DD	FLAT:__purecall
	DD	FLAT:__purecall
	DD	FLAT:__purecall
	DD	FLAT:__purecall
	DD	FLAT:__purecall
	DD	FLAT:__purecall
	DD	FLAT:__purecall
	DD	FLAT:__purecall
	DD	FLAT:__purecall
	DD	FLAT:__purecall
	DD	FLAT:__purecall
	DD	FLAT:?Owner@GameObjObserverClass@@UAEPAVScriptableGameObj@@XZ
CONST	ENDS
; Function compile flags: /Odtp /ZI
; File x:\github\renegade\dragonade_rxd\scripts\datasafe.h
;	COMDAT ?Delete_Entry@?$DataSafeClass@M@@SAXVDataSafeHandleClass@@@Z
_TEXT	SEGMENT
$T1 = -92						; size = 4
_whole_entry_ptr$2 = -24				; size = 4
_match_handle$3 = -20					; size = 4
_entry_ptr$ = -16					; size = 4
_new_handle$ = -12					; size = 4
_id$ = -8						; size = 4
_list$ = -4						; size = 4
_handle$ = 8						; size = 4
?Delete_Entry@?$DataSafeClass@M@@SAXVDataSafeHandleClass@@@Z PROC ; DataSafeClass<float>::Delete_Entry, COMDAT

; 534  : {

	push	ebp
	mov	ebp, esp
	sub	esp, 92					; 0000005cH
	push	ebx
	push	esi
	push	edi

; 535  : 	int list;
; 536  : 	int id;
; 537  : 	Security_Check();

	call	?Security_Check@GenericDataSafeClass@@KAXXZ ; GenericDataSafeClass::Security_Check

; 538  : 	DataSafeHandleClass new_handle = handle ^ HandleKey;

	lea	ecx, DWORD PTR _handle$[ebp]
	call	??BDataSafeHandleClass@@QAEHXZ		; DataSafeHandleClass::operator int
	mov	ecx, DWORD PTR ?HandleKey@GenericDataSafeClass@@1AAKA ; GenericDataSafeClass::HandleKey
	xor	eax, DWORD PTR [ecx]
	push	eax
	lea	ecx, DWORD PTR _new_handle$[ebp]
	call	??0DataSafeHandleClass@@QAE@H@Z		; DataSafeHandleClass::DataSafeHandleClass

; 539  : 	list = new_handle.Handle.Part.List;

	movzx	eax, WORD PTR _new_handle$[ebp+2]
	mov	DWORD PTR _list$[ebp], eax

; 540  : 	id = new_handle.Handle.Part.ID;

	movzx	eax, BYTE PTR _new_handle$[ebp]
	mov	DWORD PTR _id$[ebp], eax

; 541  : 	DataSafeEntryClass *entry_ptr = Get_Entry(handle);

	mov	eax, DWORD PTR _handle$[ebp]
	push	eax
	call	?Get_Entry@GenericDataSafeClass@@SAPAVDataSafeEntryClass@@VDataSafeHandleClass@@@Z ; GenericDataSafeClass::Get_Entry
	add	esp, 4
	mov	DWORD PTR _entry_ptr$[ebp], eax

; 542  : 	if (entry_ptr != NULL)

	cmp	DWORD PTR _entry_ptr$[ebp], 0
	je	$LN3@Delete_Ent

; 543  : 	{
; 544  : 		DataSafeHandleClass match_handle = new_handle ^ SimpleKey;

	lea	ecx, DWORD PTR _new_handle$[ebp]
	call	??BDataSafeHandleClass@@QAEHXZ		; DataSafeHandleClass::operator int
	mov	ecx, DWORD PTR ?SimpleKey@GenericDataSafeClass@@1AAKA ; GenericDataSafeClass::SimpleKey
	xor	eax, DWORD PTR [ecx]
	push	eax
	lea	ecx, DWORD PTR _match_handle$3[ebp]
	call	??0DataSafeHandleClass@@QAE@H@Z		; DataSafeHandleClass::DataSafeHandleClass

; 545  : 		Checksum ^= match_handle;

	lea	ecx, DWORD PTR _match_handle$3[ebp]
	call	??BDataSafeHandleClass@@QAEHXZ		; DataSafeHandleClass::operator int
	mov	ecx, DWORD PTR ?Checksum@GenericDataSafeClass@@1AAKA ; GenericDataSafeClass::Checksum
	xor	eax, DWORD PTR [ecx]
	mov	edx, DWORD PTR ?Checksum@GenericDataSafeClass@@1AAKA ; GenericDataSafeClass::Checksum
	mov	DWORD PTR [edx], eax

; 546  : 		DataSafeEntryDataClass<T> *whole_entry_ptr = (DataSafeEntryDataClass<T>*) entry_ptr;

	mov	eax, DWORD PTR _entry_ptr$[ebp]
	mov	DWORD PTR _whole_entry_ptr$2[ebp], eax

; 547  : 		Decrypt(&whole_entry_ptr->Data, Get_Type_Size(Safe[list]->EntryType), SimpleKey);

	push	1
	mov	eax, DWORD PTR ?SimpleKey@GenericDataSafeClass@@1AAKA ; GenericDataSafeClass::SimpleKey
	mov	ecx, DWORD PTR [eax]
	push	ecx
	mov	ecx, DWORD PTR ?Safe@GenericDataSafeClass@@1AAV?$RefArray@PAVDataSafeEntryListClass@@$0CAAA@@@A ; GenericDataSafeClass::Safe
	call	??B?$RefArray@PAVDataSafeEntryListClass@@$0CAAA@@@QAEPAPAVDataSafeEntryListClass@@XZ ; RefArray<DataSafeEntryListClass *,8192>::operator DataSafeEntryListClass * *
	mov	edx, DWORD PTR _list$[ebp]
	mov	eax, DWORD PTR [eax+edx*4]
	mov	ecx, DWORD PTR [eax+8]
	push	ecx
	call	?Get_Type_Size@GenericDataSafeClass@@KAHH@Z ; GenericDataSafeClass::Get_Type_Size
	add	esp, 4
	push	eax
	mov	edx, DWORD PTR _whole_entry_ptr$2[ebp]
	add	edx, 20					; 00000014H
	push	edx
	call	?Decrypt@GenericDataSafeClass@@KAXPAXHK_N@Z ; GenericDataSafeClass::Decrypt
	add	esp, 16					; 00000010H

; 548  : 		if (!whole_entry_ptr->IsSlop)
; 549  : 		{
; 550  : 			whole_entry_ptr->Data.T::~T();
; 551  : 		}
; 552  : 		Remove_From_List(list, entry_ptr);

	mov	eax, DWORD PTR _entry_ptr$[ebp]
	push	eax
	mov	ecx, DWORD PTR _list$[ebp]
	push	ecx
	call	?Remove_From_List@GenericDataSafeClass@@KAXHPAVDataSafeEntryClass@@@Z ; GenericDataSafeClass::Remove_From_List
	add	esp, 8

; 553  : 		Free_Handle_ID(list, id);

	mov	eax, DWORD PTR _id$[ebp]
	push	eax
	mov	ecx, DWORD PTR _list$[ebp]
	push	ecx
	call	?Free_Handle_ID@GenericDataSafeClass@@KAXHH@Z ; GenericDataSafeClass::Free_Handle_ID
	add	esp, 8

; 554  : 		delete [] (void*) entry_ptr;

	push	OFFSET ??_C@_0CD@NFGONDJL@DataSafeClass?$DMfloat?$DO?3?3Delete_Ent@
	push	554					; 0000022aH
	push	OFFSET ??_C@_0DE@KMNOIKEO@x?3?2github?2renegade?2dragonade_rxd@
	call	?SetThreadTrackingInformation@@YAXPBDI0@Z ; SetThreadTrackingInformation
	add	esp, 12					; 0000000cH
	xor	eax, eax
	je	SHORT $LN6@Delete_Ent
	xor	ecx, ecx
	jne	SHORT $LN5@Delete_Ent
	push	554					; 0000022aH
	push	OFFSET ??_C@_1GI@MPPDIKBN@?$AAx?$AA?3?$AA?2?$AAg?$AAi?$AAt?$AAh?$AAu?$AAb?$AA?2?$AAr?$AAe?$AAn?$AAe?$AAg?$AAa?$AAd?$AAe?$AA?2?$AAd?$AAr?$AAa?$AAg?$AAo?$AAn?$AAa?$AAd?$AAe?$AA_?$AAr?$AAx?$AAd@
	push	OFFSET ??_C@_1M@HLGKFCJM@?$AAf?$AAa?$AAl?$AAs?$AAe?$AA?$AA@
	call	DWORD PTR __imp___wassert
	add	esp, 12					; 0000000cH
$LN5@Delete_Ent:
	jmp	SHORT $LN3@Delete_Ent
$LN6@Delete_Ent:
	mov	eax, DWORD PTR _entry_ptr$[ebp]
	mov	DWORD PTR $T1[ebp], eax
	mov	ecx, DWORD PTR $T1[ebp]
	push	ecx
	call	??_V@YAXPAX@Z				; operator delete[]
	add	esp, 4
$LN3@Delete_Ent:

; 555  : 		return;
; 556  : 	}
; 557  : }

	pop	edi
	pop	esi
	pop	ebx
	mov	esp, ebp
	pop	ebp
	ret	0
?Delete_Entry@?$DataSafeClass@M@@SAXVDataSafeHandleClass@@@Z ENDP ; DataSafeClass<float>::Delete_Entry
_TEXT	ENDS
; Function compile flags: /Odtp /ZI
; File x:\github\renegade\dragonade_rxd\scripts\datasafe.h
;	COMDAT ?Add_Entry@?$DataSafeClass@M@@SA?AVDataSafeHandleClass@@AAM_N@Z
_TEXT	SEGMENT
tv168 = -196						; size = 4
tv75 = -196						; size = 4
$T1 = -192						; size = 4
$T2 = -188						; size = 4
$T3 = -184						; size = 4
_j$4 = -116						; size = 4
_decode_handle$5 = -112					; size = 4
_j$6 = -108						; size = 4
_removal_count$7 = -104					; size = 4
_removal_list$8 = -100					; size = 64
_encrypted_slop_handle$9 = -36				; size = 4
_slop_handle$10 = -32					; size = 4
_i$11 = -28						; size = 4
_encrypted_handle$12 = -24				; size = 4
_handle$13 = -20					; size = 4
_index$14 = -16						; size = 4
_list$15 = -12						; size = 4
_data_ptr$16 = -8					; size = 4
_entry_ptr$ = -4					; size = 4
___$ReturnUdt$ = 8					; size = 4
_value$ = 12						; size = 4
_is_slop$ = 16						; size = 1
?Add_Entry@?$DataSafeClass@M@@SA?AVDataSafeHandleClass@@AAM_N@Z PROC ; DataSafeClass<float>::Add_Entry, COMDAT

; 456  : {

	push	ebp
	mov	ebp, esp
	sub	esp, 196				; 000000c4H
	push	ebx
	push	esi
	push	edi

; 457  : 	Security_Check();

	call	?Security_Check@GenericDataSafeClass@@KAXXZ ; GenericDataSafeClass::Security_Check

; 458  : 	DataSafeEntryClass *entry_ptr = (DataSafeEntryClass*) (new char [sizeof(DataSafeEntryDataClass<T>)]);

	push	OFFSET ??_C@_0CA@MPJANLK@DataSafeClass?$DMfloat?$DO?3?3Add_Entry?$AA@
	push	458					; 000001caH
	push	OFFSET ??_C@_0DE@KMNOIKEO@x?3?2github?2renegade?2dragonade_rxd@
	call	?SetThreadTrackingInformation@@YAXPBDI0@Z ; SetThreadTrackingInformation
	add	esp, 12					; 0000000cH
	xor	eax, eax
	je	SHORT $LN20@Add_Entry
	xor	ecx, ecx
	jne	SHORT $LN19@Add_Entry
	push	458					; 000001caH
	push	OFFSET ??_C@_1GI@MPPDIKBN@?$AAx?$AA?3?$AA?2?$AAg?$AAi?$AAt?$AAh?$AAu?$AAb?$AA?2?$AAr?$AAe?$AAn?$AAe?$AAg?$AAa?$AAd?$AAe?$AA?2?$AAd?$AAr?$AAa?$AAg?$AAo?$AAn?$AAa?$AAd?$AAe?$AA_?$AAr?$AAx?$AAd@
	push	OFFSET ??_C@_1M@HLGKFCJM@?$AAf?$AAa?$AAl?$AAs?$AAe?$AA?$AA@
	call	DWORD PTR __imp___wassert
	add	esp, 12					; 0000000cH
$LN19@Add_Entry:
	mov	DWORD PTR tv75[ebp], 0
	jmp	SHORT $LN21@Add_Entry
$LN20@Add_Entry:
	push	24					; 00000018H
	call	??_U@YAPAXI@Z				; operator new[]
	add	esp, 4
	mov	DWORD PTR $T1[ebp], eax
	mov	eax, DWORD PTR $T1[ebp]
	mov	DWORD PTR tv75[ebp], eax
$LN21@Add_Entry:
	mov	ecx, DWORD PTR tv75[ebp]
	mov	DWORD PTR _entry_ptr$[ebp], ecx

; 459  : 	if (entry_ptr)

	cmp	DWORD PTR _entry_ptr$[ebp], 0
	je	$LN16@Add_Entry

; 460  : 	{
; 461  : 		entry_ptr->Next = NULL;

	mov	eax, DWORD PTR _entry_ptr$[ebp]
	mov	DWORD PTR [eax+4], 0

; 462  : 		entry_ptr->Prev = NULL;

	mov	eax, DWORD PTR _entry_ptr$[ebp]
	mov	DWORD PTR [eax+8], 0

; 463  : 		entry_ptr->Size = sizeof(value);

	mov	eax, DWORD PTR _entry_ptr$[ebp]
	mov	DWORD PTR [eax+12], 4

; 464  : 		entry_ptr->IsSlop = is_slop;

	mov	eax, DWORD PTR _entry_ptr$[ebp]
	mov	cl, BYTE PTR _is_slop$[ebp]
	mov	BYTE PTR [eax+16], cl

; 465  : 		DataSafeEntryDataClass<T>* data_ptr = (DataSafeEntryDataClass<T>*)  entry_ptr;

	mov	eax, DWORD PTR _entry_ptr$[ebp]
	mov	DWORD PTR _data_ptr$16[ebp], eax

; 466  : 		Mem_Copy_Encrypt(& data_ptr->Data, &value, sizeof(value), true);

	push	1
	push	4
	mov	eax, DWORD PTR _value$[ebp]
	push	eax
	mov	ecx, DWORD PTR _data_ptr$16[ebp]
	add	ecx, 20					; 00000014H
	push	ecx
	call	?Mem_Copy_Encrypt@GenericDataSafeClass@@KAXPAX0H_N@Z ; GenericDataSafeClass::Mem_Copy_Encrypt
	add	esp, 16					; 00000010H

; 467  : 		int list = Get_Random_List_For_Insertion(Type);

	mov	eax, DWORD PTR ?Type@?$DataSafeClass@M@@0AAHA ; DataSafeClass<float>::Type
	mov	ecx, DWORD PTR [eax]
	push	ecx
	call	?Get_Random_List_For_Insertion@GenericDataSafeClass@@KAHH@Z ; GenericDataSafeClass::Get_Random_List_For_Insertion
	add	esp, 4
	mov	DWORD PTR _list$15[ebp], eax

; 468  : 		if (list != -1 && Safe[list] != NULL)

	cmp	DWORD PTR _list$15[ebp], -1
	je	$LN16@Add_Entry
	mov	ecx, DWORD PTR ?Safe@GenericDataSafeClass@@1AAV?$RefArray@PAVDataSafeEntryListClass@@$0CAAA@@@A ; GenericDataSafeClass::Safe
	call	??B?$RefArray@PAVDataSafeEntryListClass@@$0CAAA@@@QAEPAPAVDataSafeEntryListClass@@XZ ; RefArray<DataSafeEntryListClass *,8192>::operator DataSafeEntryListClass * *
	mov	ecx, DWORD PTR _list$15[ebp]
	cmp	DWORD PTR [eax+ecx*4], 0
	je	$LN16@Add_Entry

; 469  : 		{
; 470  : 			int index = Get_Handle_ID(list);

	mov	eax, DWORD PTR _list$15[ebp]
	push	eax
	call	?Get_Handle_ID@GenericDataSafeClass@@KAHH@Z ; GenericDataSafeClass::Get_Handle_ID
	add	esp, 4
	mov	DWORD PTR _index$14[ebp], eax

; 471  : 			DataSafeHandleClass handle;

	push	0
	lea	ecx, DWORD PTR _handle$13[ebp]
	call	??0DataSafeHandleClass@@QAE@H@Z		; DataSafeHandleClass::DataSafeHandleClass

; 472  : 			handle.Handle.Part.List = (unsigned short)list;

	mov	ax, WORD PTR _list$15[ebp]
	mov	WORD PTR _handle$13[ebp+2], ax

; 473  : 			handle.Handle.Part.ID = (unsigned char)index;

	mov	al, BYTE PTR _index$14[ebp]
	mov	BYTE PTR _handle$13[ebp], al

; 474  : 			handle.Handle.Part.Type = (unsigned char)Type;

	mov	eax, DWORD PTR ?Type@?$DataSafeClass@M@@0AAHA ; DataSafeClass<float>::Type
	mov	cl, BYTE PTR [eax]
	mov	BYTE PTR _handle$13[ebp+1], cl

; 475  : 			DataSafeHandleClass encrypted_handle = handle ^ SimpleKey;

	lea	ecx, DWORD PTR _handle$13[ebp]
	call	??BDataSafeHandleClass@@QAEHXZ		; DataSafeHandleClass::operator int
	mov	ecx, DWORD PTR ?SimpleKey@GenericDataSafeClass@@1AAKA ; GenericDataSafeClass::SimpleKey
	xor	eax, DWORD PTR [ecx]
	push	eax
	lea	ecx, DWORD PTR _encrypted_handle$12[ebp]
	call	??0DataSafeHandleClass@@QAE@H@Z		; DataSafeHandleClass::DataSafeHandleClass

; 476  : 			Checksum = Checksum ^ encrypted_handle;

	lea	ecx, DWORD PTR _encrypted_handle$12[ebp]
	call	??BDataSafeHandleClass@@QAEHXZ		; DataSafeHandleClass::operator int
	mov	ecx, DWORD PTR ?Checksum@GenericDataSafeClass@@1AAKA ; GenericDataSafeClass::Checksum
	xor	eax, DWORD PTR [ecx]
	mov	edx, DWORD PTR ?Checksum@GenericDataSafeClass@@1AAKA ; GenericDataSafeClass::Checksum
	mov	DWORD PTR [edx], eax

; 477  : 			entry_ptr->Handle = encrypted_handle;

	mov	eax, DWORD PTR _entry_ptr$[ebp]
	mov	ecx, DWORD PTR _encrypted_handle$12[ebp]
	mov	DWORD PTR [eax], ecx

; 478  : 			Random_Insertion(entry_ptr, list, Type, is_slop);

	movzx	eax, BYTE PTR _is_slop$[ebp]
	push	eax
	mov	ecx, DWORD PTR ?Type@?$DataSafeClass@M@@0AAHA ; DataSafeClass<float>::Type
	mov	edx, DWORD PTR [ecx]
	push	edx
	mov	eax, DWORD PTR _list$15[ebp]
	push	eax
	mov	ecx, DWORD PTR _entry_ptr$[ebp]
	push	ecx
	call	?Random_Insertion@GenericDataSafeClass@@KAXPAVDataSafeEntryClass@@HH_N@Z ; GenericDataSafeClass::Random_Insertion
	add	esp, 16					; 00000010H

; 479  : 			if (Safe[list]->EntryCount == 1 && !is_slop)

	mov	ecx, DWORD PTR ?Safe@GenericDataSafeClass@@1AAV?$RefArray@PAVDataSafeEntryListClass@@$0CAAA@@@A ; GenericDataSafeClass::Safe
	call	??B?$RefArray@PAVDataSafeEntryListClass@@$0CAAA@@@QAEPAPAVDataSafeEntryListClass@@XZ ; RefArray<DataSafeEntryListClass *,8192>::operator DataSafeEntryListClass * *
	mov	ecx, DWORD PTR _list$15[ebp]
	mov	edx, DWORD PTR [eax+ecx*4]
	cmp	DWORD PTR [edx+4], 1
	jne	$LN14@Add_Entry
	movzx	eax, BYTE PTR _is_slop$[ebp]
	test	eax, eax
	jne	$LN14@Add_Entry

; 480  : 			{
; 481  : 				for (int i=0 ; i<MinSlop ; i++)

	mov	DWORD PTR _i$11[ebp], 0
	jmp	SHORT $LN13@Add_Entry
$LN12@Add_Entry:
	mov	eax, DWORD PTR _i$11[ebp]
	add	eax, 1
	mov	DWORD PTR _i$11[ebp], eax
$LN13@Add_Entry:
	mov	eax, DWORD PTR ?MinSlop@?$DataSafeClass@M@@0AAHA ; DataSafeClass<float>::MinSlop
	mov	ecx, DWORD PTR _i$11[ebp]
	cmp	ecx, DWORD PTR [eax]
	jge	$LN14@Add_Entry

; 482  : 				{
; 483  : 					entry_ptr = (DataSafeEntryClass*) (new char [sizeof(DataSafeEntryDataClass<T>)]);

	push	OFFSET ??_C@_0CA@MPJANLK@DataSafeClass?$DMfloat?$DO?3?3Add_Entry?$AA@
	push	483					; 000001e3H
	push	OFFSET ??_C@_0DE@KMNOIKEO@x?3?2github?2renegade?2dragonade_rxd@
	call	?SetThreadTrackingInformation@@YAXPBDI0@Z ; SetThreadTrackingInformation
	add	esp, 12					; 0000000cH
	xor	eax, eax
	je	SHORT $LN23@Add_Entry
	xor	ecx, ecx
	jne	SHORT $LN22@Add_Entry
	push	483					; 000001e3H
	push	OFFSET ??_C@_1GI@MPPDIKBN@?$AAx?$AA?3?$AA?2?$AAg?$AAi?$AAt?$AAh?$AAu?$AAb?$AA?2?$AAr?$AAe?$AAn?$AAe?$AAg?$AAa?$AAd?$AAe?$AA?2?$AAd?$AAr?$AAa?$AAg?$AAo?$AAn?$AAa?$AAd?$AAe?$AA_?$AAr?$AAx?$AAd@
	push	OFFSET ??_C@_1M@HLGKFCJM@?$AAf?$AAa?$AAl?$AAs?$AAe?$AA?$AA@
	call	DWORD PTR __imp___wassert
	add	esp, 12					; 0000000cH
$LN22@Add_Entry:
	mov	DWORD PTR tv168[ebp], 0
	jmp	SHORT $LN24@Add_Entry
$LN23@Add_Entry:
	push	24					; 00000018H
	call	??_U@YAPAXI@Z				; operator new[]
	add	esp, 4
	mov	DWORD PTR $T2[ebp], eax
	mov	eax, DWORD PTR $T2[ebp]
	mov	DWORD PTR tv168[ebp], eax
$LN24@Add_Entry:
	mov	ecx, DWORD PTR tv168[ebp]
	mov	DWORD PTR _entry_ptr$[ebp], ecx

; 484  : 					if (entry_ptr)

	cmp	DWORD PTR _entry_ptr$[ebp], 0
	je	$LN10@Add_Entry

; 485  : 					{
; 486  : 						entry_ptr->Next = NULL;

	mov	eax, DWORD PTR _entry_ptr$[ebp]
	mov	DWORD PTR [eax+4], 0

; 487  : 						entry_ptr->Prev = NULL;

	mov	eax, DWORD PTR _entry_ptr$[ebp]
	mov	DWORD PTR [eax+8], 0

; 488  : 						entry_ptr->Size = sizeof(T);

	mov	eax, DWORD PTR _entry_ptr$[ebp]
	mov	DWORD PTR [eax+12], 4

; 489  : 						entry_ptr->IsSlop = true;

	mov	eax, DWORD PTR _entry_ptr$[ebp]
	mov	BYTE PTR [eax+16], 1

; 490  : 						Encrypt(&((DataSafeEntryDataClass<T>*)entry_ptr)->Data, sizeof(T), SimpleKey, true);

	push	1
	mov	eax, DWORD PTR ?SimpleKey@GenericDataSafeClass@@1AAKA ; GenericDataSafeClass::SimpleKey
	mov	ecx, DWORD PTR [eax]
	push	ecx
	push	4
	mov	edx, DWORD PTR _entry_ptr$[ebp]
	add	edx, 20					; 00000014H
	push	edx
	call	?Encrypt@GenericDataSafeClass@@KAXPAXHK_N@Z ; GenericDataSafeClass::Encrypt
	add	esp, 16					; 00000010H

; 491  : 						DataSafeHandleClass slop_handle;

	push	0
	lea	ecx, DWORD PTR _slop_handle$10[ebp]
	call	??0DataSafeHandleClass@@QAE@H@Z		; DataSafeHandleClass::DataSafeHandleClass

; 492  : 						slop_handle.Handle.Part.ID = (unsigned char)Get_Handle_ID(list);

	mov	eax, DWORD PTR _list$15[ebp]
	push	eax
	call	?Get_Handle_ID@GenericDataSafeClass@@KAHH@Z ; GenericDataSafeClass::Get_Handle_ID
	add	esp, 4
	mov	BYTE PTR _slop_handle$10[ebp], al

; 493  : 						slop_handle.Handle.Part.List = (unsigned short)list;

	mov	ax, WORD PTR _list$15[ebp]
	mov	WORD PTR _slop_handle$10[ebp+2], ax

; 494  : 						slop_handle.Handle.Part.Type = (unsigned char)Type;

	mov	eax, DWORD PTR ?Type@?$DataSafeClass@M@@0AAHA ; DataSafeClass<float>::Type
	mov	cl, BYTE PTR [eax]
	mov	BYTE PTR _slop_handle$10[ebp+1], cl

; 495  : 						DataSafeHandleClass encrypted_slop_handle = slop_handle ^ SimpleKey;

	lea	ecx, DWORD PTR _slop_handle$10[ebp]
	call	??BDataSafeHandleClass@@QAEHXZ		; DataSafeHandleClass::operator int
	mov	ecx, DWORD PTR ?SimpleKey@GenericDataSafeClass@@1AAKA ; GenericDataSafeClass::SimpleKey
	xor	eax, DWORD PTR [ecx]
	push	eax
	lea	ecx, DWORD PTR _encrypted_slop_handle$9[ebp]
	call	??0DataSafeHandleClass@@QAE@H@Z		; DataSafeHandleClass::DataSafeHandleClass

; 496  : 						Checksum = Checksum ^ encrypted_slop_handle;

	lea	ecx, DWORD PTR _encrypted_slop_handle$9[ebp]
	call	??BDataSafeHandleClass@@QAEHXZ		; DataSafeHandleClass::operator int
	mov	ecx, DWORD PTR ?Checksum@GenericDataSafeClass@@1AAKA ; GenericDataSafeClass::Checksum
	xor	eax, DWORD PTR [ecx]
	mov	edx, DWORD PTR ?Checksum@GenericDataSafeClass@@1AAKA ; GenericDataSafeClass::Checksum
	mov	DWORD PTR [edx], eax

; 497  : 						entry_ptr->Handle = encrypted_slop_handle;

	mov	eax, DWORD PTR _entry_ptr$[ebp]
	mov	ecx, DWORD PTR _encrypted_slop_handle$9[ebp]
	mov	DWORD PTR [eax], ecx

; 498  : 						Random_Insertion(entry_ptr, list, Type, true);

	push	1
	mov	eax, DWORD PTR ?Type@?$DataSafeClass@M@@0AAHA ; DataSafeClass<float>::Type
	mov	ecx, DWORD PTR [eax]
	push	ecx
	mov	edx, DWORD PTR _list$15[ebp]
	push	edx
	mov	eax, DWORD PTR _entry_ptr$[ebp]
	push	eax
	call	?Random_Insertion@GenericDataSafeClass@@KAXPAVDataSafeEntryClass@@HH_N@Z ; GenericDataSafeClass::Random_Insertion
	add	esp, 16					; 00000010H
$LN10@Add_Entry:

; 499  : 					}
; 500  : 				}

	jmp	$LN12@Add_Entry
$LN14@Add_Entry:

; 501  : 			}
; 502  : 			if (Safe[list]->SlopCount != 0 && Safe[list]->EntryCount > Safe[list]->SlopCount * 2 && !is_slop)

	mov	ecx, DWORD PTR ?Safe@GenericDataSafeClass@@1AAV?$RefArray@PAVDataSafeEntryListClass@@$0CAAA@@@A ; GenericDataSafeClass::Safe
	call	??B?$RefArray@PAVDataSafeEntryListClass@@$0CAAA@@@QAEPAPAVDataSafeEntryListClass@@XZ ; RefArray<DataSafeEntryListClass *,8192>::operator DataSafeEntryListClass * *
	mov	ecx, DWORD PTR _list$15[ebp]
	mov	edx, DWORD PTR [eax+ecx*4]
	cmp	DWORD PTR [edx+12], 0
	je	$LN9@Add_Entry
	mov	ecx, DWORD PTR ?Safe@GenericDataSafeClass@@1AAV?$RefArray@PAVDataSafeEntryListClass@@$0CAAA@@@A ; GenericDataSafeClass::Safe
	call	??B?$RefArray@PAVDataSafeEntryListClass@@$0CAAA@@@QAEPAPAVDataSafeEntryListClass@@XZ ; RefArray<DataSafeEntryListClass *,8192>::operator DataSafeEntryListClass * *
	mov	ecx, DWORD PTR _list$15[ebp]
	mov	esi, DWORD PTR [eax+ecx*4]
	mov	ecx, DWORD PTR ?Safe@GenericDataSafeClass@@1AAV?$RefArray@PAVDataSafeEntryListClass@@$0CAAA@@@A ; GenericDataSafeClass::Safe
	call	??B?$RefArray@PAVDataSafeEntryListClass@@$0CAAA@@@QAEPAPAVDataSafeEntryListClass@@XZ ; RefArray<DataSafeEntryListClass *,8192>::operator DataSafeEntryListClass * *
	mov	edx, DWORD PTR _list$15[ebp]
	mov	eax, DWORD PTR [eax+edx*4]
	mov	ecx, DWORD PTR [eax+12]
	shl	ecx, 1
	cmp	DWORD PTR [esi+4], ecx
	jle	$LN9@Add_Entry
	movzx	eax, BYTE PTR _is_slop$[ebp]
	test	eax, eax
	jne	$LN9@Add_Entry

; 503  : 			{
; 504  : 				entry_ptr = Safe[list]->SafeList;

	mov	ecx, DWORD PTR ?Safe@GenericDataSafeClass@@1AAV?$RefArray@PAVDataSafeEntryListClass@@$0CAAA@@@A ; GenericDataSafeClass::Safe
	call	??B?$RefArray@PAVDataSafeEntryListClass@@$0CAAA@@@QAEPAPAVDataSafeEntryListClass@@XZ ; RefArray<DataSafeEntryListClass *,8192>::operator DataSafeEntryListClass * *
	mov	ecx, DWORD PTR _list$15[ebp]
	mov	edx, DWORD PTR [eax+ecx*4]
	mov	eax, DWORD PTR [edx]
	mov	DWORD PTR _entry_ptr$[ebp], eax

; 505  : 				DataSafeHandleClass removal_list[MAX_ENTRIES_PER_LIST];

	push	OFFSET ??_FDataSafeHandleClass@@QAEXXZ
	push	16					; 00000010H
	push	4
	lea	eax, DWORD PTR _removal_list$8[ebp]
	push	eax
	call	??_H@YGXPAXIHP6EPAX0@Z@Z

; 506  : 				int removal_count = 0;

	mov	DWORD PTR _removal_count$7[ebp], 0

; 507  : 				if (entry_ptr)

	cmp	DWORD PTR _entry_ptr$[ebp], 0
	je	$LN8@Add_Entry

; 508  : 				{
; 509  : 					for (int j=0 ; j<Safe[list]->EntryCount ; j++)

	mov	DWORD PTR _j$6[ebp], 0
	jmp	SHORT $LN7@Add_Entry
$LN6@Add_Entry:
	mov	eax, DWORD PTR _j$6[ebp]
	add	eax, 1
	mov	DWORD PTR _j$6[ebp], eax
$LN7@Add_Entry:
	mov	ecx, DWORD PTR ?Safe@GenericDataSafeClass@@1AAV?$RefArray@PAVDataSafeEntryListClass@@$0CAAA@@@A ; GenericDataSafeClass::Safe
	call	??B?$RefArray@PAVDataSafeEntryListClass@@$0CAAA@@@QAEPAPAVDataSafeEntryListClass@@XZ ; RefArray<DataSafeEntryListClass *,8192>::operator DataSafeEntryListClass * *
	mov	ecx, DWORD PTR _list$15[ebp]
	mov	edx, DWORD PTR [eax+ecx*4]
	mov	eax, DWORD PTR _j$6[ebp]
	cmp	eax, DWORD PTR [edx+4]
	jge	SHORT $LN8@Add_Entry

; 510  : 					{
; 511  : 						if (entry_ptr->IsSlop)

	mov	eax, DWORD PTR _entry_ptr$[ebp]
	movzx	ecx, BYTE PTR [eax+16]
	test	ecx, ecx
	je	SHORT $LN4@Add_Entry

; 512  : 						{
; 513  : 							DataSafeHandleClass decode_handle = entry_ptr->Handle ^ SimpleKey;

	mov	ecx, DWORD PTR _entry_ptr$[ebp]
	call	??BDataSafeHandleClass@@QAEHXZ		; DataSafeHandleClass::operator int
	mov	ecx, DWORD PTR ?SimpleKey@GenericDataSafeClass@@1AAKA ; GenericDataSafeClass::SimpleKey
	xor	eax, DWORD PTR [ecx]
	push	eax
	lea	ecx, DWORD PTR _decode_handle$5[ebp]
	call	??0DataSafeHandleClass@@QAE@H@Z		; DataSafeHandleClass::DataSafeHandleClass

; 514  : 							decode_handle = decode_handle ^ HandleKey;

	lea	ecx, DWORD PTR _decode_handle$5[ebp]
	call	??BDataSafeHandleClass@@QAEHXZ		; DataSafeHandleClass::operator int
	mov	ecx, DWORD PTR ?HandleKey@GenericDataSafeClass@@1AAKA ; GenericDataSafeClass::HandleKey
	xor	eax, DWORD PTR [ecx]
	mov	DWORD PTR $T3[ebp], eax
	lea	edx, DWORD PTR $T3[ebp]
	push	edx
	lea	ecx, DWORD PTR _decode_handle$5[ebp]
	call	??4DataSafeHandleClass@@QAEHABH@Z	; DataSafeHandleClass::operator=

; 515  : 							removal_list[removal_count++] = decode_handle;

	mov	eax, DWORD PTR _removal_count$7[ebp]
	mov	ecx, DWORD PTR _decode_handle$5[ebp]
	mov	DWORD PTR _removal_list$8[ebp+eax*4], ecx
	mov	edx, DWORD PTR _removal_count$7[ebp]
	add	edx, 1
	mov	DWORD PTR _removal_count$7[ebp], edx
$LN4@Add_Entry:

; 516  : 						}
; 517  : 						entry_ptr = entry_ptr->Next;

	mov	eax, DWORD PTR _entry_ptr$[ebp]
	mov	ecx, DWORD PTR [eax+4]
	mov	DWORD PTR _entry_ptr$[ebp], ecx

; 518  : 					}

	jmp	$LN6@Add_Entry
$LN8@Add_Entry:

; 519  : 				}
; 520  : 				for (int j=0 ; j<removal_count ; j++)

	mov	DWORD PTR _j$4[ebp], 0
	jmp	SHORT $LN3@Add_Entry
$LN2@Add_Entry:
	mov	eax, DWORD PTR _j$4[ebp]
	add	eax, 1
	mov	DWORD PTR _j$4[ebp], eax
$LN3@Add_Entry:
	mov	eax, DWORD PTR _j$4[ebp]
	cmp	eax, DWORD PTR _removal_count$7[ebp]
	jge	SHORT $LN9@Add_Entry

; 521  : 				{
; 522  : 					Delete_Entry(removal_list[j]);

	mov	eax, DWORD PTR _j$4[ebp]
	mov	ecx, DWORD PTR _removal_list$8[ebp+eax*4]
	push	ecx
	call	?Delete_Entry@?$DataSafeClass@M@@SAXVDataSafeHandleClass@@@Z ; DataSafeClass<float>::Delete_Entry
	add	esp, 4

; 523  : 				}

	jmp	SHORT $LN2@Add_Entry
$LN9@Add_Entry:

; 524  : 			}
; 525  : 			handle.Handle.Whole.WholeHandle ^= HandleKey;

	mov	eax, DWORD PTR ?HandleKey@GenericDataSafeClass@@1AAKA ; GenericDataSafeClass::HandleKey
	mov	ecx, DWORD PTR _handle$13[ebp]
	xor	ecx, DWORD PTR [eax]
	mov	DWORD PTR _handle$13[ebp], ecx

; 526  : 			return handle;

	mov	eax, DWORD PTR ___$ReturnUdt$[ebp]
	mov	ecx, DWORD PTR _handle$13[ebp]
	mov	DWORD PTR [eax], ecx
	mov	eax, DWORD PTR ___$ReturnUdt$[ebp]
	jmp	SHORT $LN17@Add_Entry
$LN16@Add_Entry:

; 527  : 		}
; 528  : 	}
; 529  : 	return (DataSafeHandleClass)-1;

	push	-1
	mov	ecx, DWORD PTR ___$ReturnUdt$[ebp]
	call	??0DataSafeHandleClass@@QAE@H@Z		; DataSafeHandleClass::DataSafeHandleClass
	mov	eax, DWORD PTR ___$ReturnUdt$[ebp]
$LN17@Add_Entry:

; 530  : }

	pop	edi
	pop	esi
	pop	ebx
	mov	esp, ebp
	pop	ebp
	ret	0
?Add_Entry@?$DataSafeClass@M@@SA?AVDataSafeHandleClass@@AAM_N@Z ENDP ; DataSafeClass<float>::Add_Entry
_TEXT	ENDS
; Function compile flags: /Odtp /ZI
; File x:\github\renegade\dragonade_rxd\scripts\datasafe.h
;	COMDAT ?Get@?$DataSafeClass@M@@SA_NVDataSafeHandleClass@@AAPAM@Z
_TEXT	SEGMENT
_data_entry_ptr$ = -8					; size = 4
_entry_ptr$ = -4					; size = 4
_handle$ = 8						; size = 4
_item$ = 12						; size = 4
?Get@?$DataSafeClass@M@@SA_NVDataSafeHandleClass@@AAPAM@Z PROC ; DataSafeClass<float>::Get, COMDAT

; 561  : {

	push	ebp
	mov	ebp, esp
	sub	esp, 72					; 00000048H
	push	ebx
	push	esi
	push	edi

; 562  : 	DataSafeEntryClass *entry_ptr = Get_Entry(handle);

	mov	eax, DWORD PTR _handle$[ebp]
	push	eax
	call	?Get_Entry@GenericDataSafeClass@@SAPAVDataSafeEntryClass@@VDataSafeHandleClass@@@Z ; GenericDataSafeClass::Get_Entry
	add	esp, 4
	mov	DWORD PTR _entry_ptr$[ebp], eax

; 563  : 	if (entry_ptr == NULL)

	cmp	DWORD PTR _entry_ptr$[ebp], 0
	jne	SHORT $LN2@Get

; 564  : 	{
; 565  : 		return(false);

	xor	al, al
	jmp	$LN3@Get
$LN2@Get:

; 566  : 	}
; 567  : 	DataSafeEntryDataClass<T> *data_entry_ptr = (DataSafeEntryDataClass<T>*) entry_ptr;

	mov	eax, DWORD PTR _entry_ptr$[ebp]
	mov	DWORD PTR _data_entry_ptr$[ebp], eax

; 568  : 	Mem_Copy_Decrypt(&(ReturnList[ReturnIndex][0]), &data_entry_ptr->Data, sizeof(T), false);

	push	0
	push	4
	mov	eax, DWORD PTR _data_entry_ptr$[ebp]
	add	eax, 20					; 00000014H
	push	eax
	mov	ecx, DWORD PTR ?ReturnList@?$DataSafeClass@M@@0AAV?$RefArray@V?$RefArray@D$03@@$07@@A ; DataSafeClass<float>::ReturnList
	call	??B?$RefArray@V?$RefArray@D$03@@$07@@QAEPAV?$RefArray@D$03@@XZ ; RefArray<RefArray<char,4>,8>::operator RefArray<char,4> *
	mov	ecx, DWORD PTR ?ReturnIndex@?$DataSafeClass@M@@0AAHA ; DataSafeClass<float>::ReturnIndex
	mov	edx, DWORD PTR [ecx]
	lea	ecx, DWORD PTR [eax+edx*4]
	call	??B?$RefArray@D$03@@QAEPADXZ		; RefArray<char,4>::operator char *
	mov	ecx, 1
	imul	ecx, 0
	add	eax, ecx
	push	eax
	call	?Mem_Copy_Decrypt@GenericDataSafeClass@@KAXPAX0H_N@Z ; GenericDataSafeClass::Mem_Copy_Decrypt
	add	esp, 16					; 00000010H

; 569  : 	item = (T*)(&(ReturnList[ReturnIndex][0]));

	mov	ecx, DWORD PTR ?ReturnList@?$DataSafeClass@M@@0AAV?$RefArray@V?$RefArray@D$03@@$07@@A ; DataSafeClass<float>::ReturnList
	call	??B?$RefArray@V?$RefArray@D$03@@$07@@QAEPAV?$RefArray@D$03@@XZ ; RefArray<RefArray<char,4>,8>::operator RefArray<char,4> *
	mov	ecx, DWORD PTR ?ReturnIndex@?$DataSafeClass@M@@0AAHA ; DataSafeClass<float>::ReturnIndex
	mov	edx, DWORD PTR [ecx]
	lea	ecx, DWORD PTR [eax+edx*4]
	call	??B?$RefArray@D$03@@QAEPADXZ		; RefArray<char,4>::operator char *
	mov	ecx, 1
	imul	ecx, 0
	add	eax, ecx
	mov	edx, DWORD PTR _item$[ebp]
	mov	DWORD PTR [edx], eax

; 570  : 	ReturnIndex++;

	mov	eax, DWORD PTR ?ReturnIndex@?$DataSafeClass@M@@0AAHA ; DataSafeClass<float>::ReturnIndex
	mov	ecx, DWORD PTR [eax]
	add	ecx, 1
	mov	edx, DWORD PTR ?ReturnIndex@?$DataSafeClass@M@@0AAHA ; DataSafeClass<float>::ReturnIndex
	mov	DWORD PTR [edx], ecx

; 571  : 	if (ReturnIndex >= MAX_OBJECT_COPIES)

	mov	eax, DWORD PTR ?ReturnIndex@?$DataSafeClass@M@@0AAHA ; DataSafeClass<float>::ReturnIndex
	cmp	DWORD PTR [eax], 8
	jl	SHORT $LN1@Get

; 572  : 	{
; 573  : 		ReturnIndex = 0;

	mov	eax, DWORD PTR ?ReturnIndex@?$DataSafeClass@M@@0AAHA ; DataSafeClass<float>::ReturnIndex
	mov	DWORD PTR [eax], 0
$LN1@Get:

; 574  : 	}
; 575  : 	Shuffle();

	push	0
	call	?Shuffle@GenericDataSafeClass@@KAX_N@Z	; GenericDataSafeClass::Shuffle
	add	esp, 4

; 576  : 	Security_Check();

	call	?Security_Check@GenericDataSafeClass@@KAXXZ ; GenericDataSafeClass::Security_Check

; 577  : 	return(true);

	mov	al, 1
$LN3@Get:

; 578  : }

	pop	edi
	pop	esi
	pop	ebx
	mov	esp, ebp
	pop	ebp
	ret	0
?Get@?$DataSafeClass@M@@SA_NVDataSafeHandleClass@@AAPAM@Z ENDP ; DataSafeClass<float>::Get
_TEXT	ENDS
; Function compile flags: /Odtp /ZI
; File x:\github\renegade\dragonade_rxd\scripts\datasafe.h
;	COMDAT ??B?$RefArray@V?$RefArray@D$03@@$07@@QAEPAV?$RefArray@D$03@@XZ
_TEXT	SEGMENT
_this$ = -4						; size = 4
??B?$RefArray@V?$RefArray@D$03@@$07@@QAEPAV?$RefArray@D$03@@XZ PROC ; RefArray<RefArray<char,4>,8>::operator RefArray<char,4> *, COMDAT
; _this$ = ecx

; 44   : 	{

	push	ebp
	mov	ebp, esp
	sub	esp, 68					; 00000044H
	push	ebx
	push	esi
	push	edi
	mov	DWORD PTR _this$[ebp], ecx

; 45   : 		return (T*) this;

	mov	eax, DWORD PTR _this$[ebp]

; 46   : 	};

	pop	edi
	pop	esi
	pop	ebx
	mov	esp, ebp
	pop	ebp
	ret	0
??B?$RefArray@V?$RefArray@D$03@@$07@@QAEPAV?$RefArray@D$03@@XZ ENDP ; RefArray<RefArray<char,4>,8>::operator RefArray<char,4> *
_TEXT	ENDS
; Function compile flags: /Odtp /ZI
; File x:\github\renegade\dragonade_rxd\scripts\datasafe.h
;	COMDAT ??B?$RefArray@D$03@@QAEPADXZ
_TEXT	SEGMENT
_this$ = -4						; size = 4
??B?$RefArray@D$03@@QAEPADXZ PROC			; RefArray<char,4>::operator char *, COMDAT
; _this$ = ecx

; 44   : 	{

	push	ebp
	mov	ebp, esp
	sub	esp, 68					; 00000044H
	push	ebx
	push	esi
	push	edi
	mov	DWORD PTR _this$[ebp], ecx

; 45   : 		return (T*) this;

	mov	eax, DWORD PTR _this$[ebp]

; 46   : 	};

	pop	edi
	pop	esi
	pop	ebx
	mov	esp, ebp
	pop	ebp
	ret	0
??B?$RefArray@D$03@@QAEPADXZ ENDP			; RefArray<char,4>::operator char *
_TEXT	ENDS
; Function compile flags: /Odtp /ZI
; File x:\github\renegade\dragonade_rxd\scripts\slist.h
;	COMDAT ?Data@?$SLNode@VSoldierGameObj@@@@QBEPAVSoldierGameObj@@XZ
_TEXT	SEGMENT
_this$ = -4						; size = 4
?Data@?$SLNode@VSoldierGameObj@@@@QBEPAVSoldierGameObj@@XZ PROC ; SLNode<SoldierGameObj>::Data, COMDAT
; _this$ = ecx

; 65   : 	{

	push	ebp
	mov	ebp, esp
	sub	esp, 68					; 00000044H
	push	ebx
	push	esi
	push	edi
	mov	DWORD PTR _this$[ebp], ecx

; 66   : 		return (T*)NodeData;

	mov	eax, DWORD PTR _this$[ebp]
	mov	eax, DWORD PTR [eax+4]

; 67   : 	}

	pop	edi
	pop	esi
	pop	ebx
	mov	esp, ebp
	pop	ebp
	ret	0
?Data@?$SLNode@VSoldierGameObj@@@@QBEPAVSoldierGameObj@@XZ ENDP ; SLNode<SoldierGameObj>::Data
_TEXT	ENDS
; Function compile flags: /Odtp /ZI
; File x:\github\renegade\dragonade_rxd\scripts\slist.h
;	COMDAT ?Next@?$SLNode@VSoldierGameObj@@@@QBEPAV1@XZ
_TEXT	SEGMENT
_this$ = -4						; size = 4
?Next@?$SLNode@VSoldierGameObj@@@@QBEPAV1@XZ PROC	; SLNode<SoldierGameObj>::Next, COMDAT
; _this$ = ecx

; 61   : 	{

	push	ebp
	mov	ebp, esp
	sub	esp, 68					; 00000044H
	push	ebx
	push	esi
	push	edi
	mov	DWORD PTR _this$[ebp], ecx

; 62   : 		return (SLNode<T>*)NodeNext;

	mov	eax, DWORD PTR _this$[ebp]
	mov	eax, DWORD PTR [eax]

; 63   : 	}

	pop	edi
	pop	esi
	pop	ebx
	mov	esp, ebp
	pop	ebp
	ret	0
?Next@?$SLNode@VSoldierGameObj@@@@QBEPAV1@XZ ENDP	; SLNode<SoldierGameObj>::Next
_TEXT	ENDS
; Function compile flags: /Odtp /ZI
; File x:\github\renegade\dragonade_rxd\scripts\slist.h
;	COMDAT ?Data@?$SLNode@VC4GameObj@@@@QBEPAVC4GameObj@@XZ
_TEXT	SEGMENT
_this$ = -4						; size = 4
?Data@?$SLNode@VC4GameObj@@@@QBEPAVC4GameObj@@XZ PROC	; SLNode<C4GameObj>::Data, COMDAT
; _this$ = ecx

; 65   : 	{

	push	ebp
	mov	ebp, esp
	sub	esp, 68					; 00000044H
	push	ebx
	push	esi
	push	edi
	mov	DWORD PTR _this$[ebp], ecx

; 66   : 		return (T*)NodeData;

	mov	eax, DWORD PTR _this$[ebp]
	mov	eax, DWORD PTR [eax+4]

; 67   : 	}

	pop	edi
	pop	esi
	pop	ebx
	mov	esp, ebp
	pop	ebp
	ret	0
?Data@?$SLNode@VC4GameObj@@@@QBEPAVC4GameObj@@XZ ENDP	; SLNode<C4GameObj>::Data
_TEXT	ENDS
; Function compile flags: /Odtp /ZI
; File x:\github\renegade\dragonade_rxd\scripts\slist.h
;	COMDAT ?Next@?$SLNode@VC4GameObj@@@@QBEPAV1@XZ
_TEXT	SEGMENT
_this$ = -4						; size = 4
?Next@?$SLNode@VC4GameObj@@@@QBEPAV1@XZ PROC		; SLNode<C4GameObj>::Next, COMDAT
; _this$ = ecx

; 61   : 	{

	push	ebp
	mov	ebp, esp
	sub	esp, 68					; 00000044H
	push	ebx
	push	esi
	push	edi
	mov	DWORD PTR _this$[ebp], ecx

; 62   : 		return (SLNode<T>*)NodeNext;

	mov	eax, DWORD PTR _this$[ebp]
	mov	eax, DWORD PTR [eax]

; 63   : 	}

	pop	edi
	pop	esi
	pop	ebx
	mov	esp, ebp
	pop	ebp
	ret	0
?Next@?$SLNode@VC4GameObj@@@@QBEPAV1@XZ ENDP		; SLNode<C4GameObj>::Next
_TEXT	ENDS
; Function compile flags: /Odtp /ZI
; File x:\github\renegade\dragonade_rxd\scripts\slist.h
;	COMDAT ?Data@?$SLNode@VBeaconGameObj@@@@QBEPAVBeaconGameObj@@XZ
_TEXT	SEGMENT
_this$ = -4						; size = 4
?Data@?$SLNode@VBeaconGameObj@@@@QBEPAVBeaconGameObj@@XZ PROC ; SLNode<BeaconGameObj>::Data, COMDAT
; _this$ = ecx

; 65   : 	{

	push	ebp
	mov	ebp, esp
	sub	esp, 68					; 00000044H
	push	ebx
	push	esi
	push	edi
	mov	DWORD PTR _this$[ebp], ecx

; 66   : 		return (T*)NodeData;

	mov	eax, DWORD PTR _this$[ebp]
	mov	eax, DWORD PTR [eax+4]

; 67   : 	}

	pop	edi
	pop	esi
	pop	ebx
	mov	esp, ebp
	pop	ebp
	ret	0
?Data@?$SLNode@VBeaconGameObj@@@@QBEPAVBeaconGameObj@@XZ ENDP ; SLNode<BeaconGameObj>::Data
_TEXT	ENDS
; Function compile flags: /Odtp /ZI
; File x:\github\renegade\dragonade_rxd\scripts\slist.h
;	COMDAT ?Next@?$SLNode@VBeaconGameObj@@@@QBEPAV1@XZ
_TEXT	SEGMENT
_this$ = -4						; size = 4
?Next@?$SLNode@VBeaconGameObj@@@@QBEPAV1@XZ PROC	; SLNode<BeaconGameObj>::Next, COMDAT
; _this$ = ecx

; 61   : 	{

	push	ebp
	mov	ebp, esp
	sub	esp, 68					; 00000044H
	push	ebx
	push	esi
	push	edi
	mov	DWORD PTR _this$[ebp], ecx

; 62   : 		return (SLNode<T>*)NodeNext;

	mov	eax, DWORD PTR _this$[ebp]
	mov	eax, DWORD PTR [eax]

; 63   : 	}

	pop	edi
	pop	esi
	pop	ebx
	mov	esp, ebp
	pop	ebp
	ret	0
?Next@?$SLNode@VBeaconGameObj@@@@QBEPAV1@XZ ENDP	; SLNode<BeaconGameObj>::Next
_TEXT	ENDS
; Function compile flags: /Odtp /ZI
; File x:\github\renegade\dragonade_rxd\scripts\iterator.h
;	COMDAT ??E?$Iterator@AAV?$SList@VSoldierGameObj@@@@@@QAEAAV0@XZ
_TEXT	SEGMENT
_this$ = -4						; size = 4
??E?$Iterator@AAV?$SList@VSoldierGameObj@@@@@@QAEAAV0@XZ PROC ; Iterator<SList<SoldierGameObj> &>::operator++, COMDAT
; _this$ = ecx

; 40   : 	inline Iterator& operator ++() { node = node->Next(); return *this; }

	push	ebp
	mov	ebp, esp
	sub	esp, 68					; 00000044H
	push	ebx
	push	esi
	push	edi
	mov	DWORD PTR _this$[ebp], ecx
	mov	eax, DWORD PTR _this$[ebp]
	mov	ecx, DWORD PTR [eax]
	call	?Next@?$SLNode@VSoldierGameObj@@@@QBEPAV1@XZ ; SLNode<SoldierGameObj>::Next
	mov	ecx, DWORD PTR _this$[ebp]
	mov	DWORD PTR [ecx], eax
	mov	eax, DWORD PTR _this$[ebp]
	pop	edi
	pop	esi
	pop	ebx
	mov	esp, ebp
	pop	ebp
	ret	0
??E?$Iterator@AAV?$SList@VSoldierGameObj@@@@@@QAEAAV0@XZ ENDP ; Iterator<SList<SoldierGameObj> &>::operator++
_TEXT	ENDS
; Function compile flags: /Odtp /ZI
; File x:\github\renegade\dragonade_rxd\scripts\iterator.h
;	COMDAT ??C?$Iterator@AAV?$SList@VSoldierGameObj@@@@@@QAEPAVSoldierGameObj@@XZ
_TEXT	SEGMENT
_this$ = -4						; size = 4
??C?$Iterator@AAV?$SList@VSoldierGameObj@@@@@@QAEPAVSoldierGameObj@@XZ PROC ; Iterator<SList<SoldierGameObj> &>::operator->, COMDAT
; _this$ = ecx

; 39   : 	inline T* operator ->() { return (T*)*this; }

	push	ebp
	mov	ebp, esp
	sub	esp, 68					; 00000044H
	push	ebx
	push	esi
	push	edi
	mov	DWORD PTR _this$[ebp], ecx
	mov	ecx, DWORD PTR _this$[ebp]
	call	??B?$Iterator@AAV?$SList@VSoldierGameObj@@@@@@QAEPAVSoldierGameObj@@XZ ; Iterator<SList<SoldierGameObj> &>::operator SoldierGameObj *
	pop	edi
	pop	esi
	pop	ebx
	mov	esp, ebp
	pop	ebp
	ret	0
??C?$Iterator@AAV?$SList@VSoldierGameObj@@@@@@QAEPAVSoldierGameObj@@XZ ENDP ; Iterator<SList<SoldierGameObj> &>::operator->
_TEXT	ENDS
; Function compile flags: /Odtp /ZI
; File x:\github\renegade\dragonade_rxd\scripts\iterator.h
;	COMDAT ??B?$Iterator@AAV?$SList@VSoldierGameObj@@@@@@QAEPAVSoldierGameObj@@XZ
_TEXT	SEGMENT
_this$ = -4						; size = 4
??B?$Iterator@AAV?$SList@VSoldierGameObj@@@@@@QAEPAVSoldierGameObj@@XZ PROC ; Iterator<SList<SoldierGameObj> &>::operator SoldierGameObj *, COMDAT
; _this$ = ecx

; 38   : 	inline operator T*() { return node->Data(); }

	push	ebp
	mov	ebp, esp
	sub	esp, 68					; 00000044H
	push	ebx
	push	esi
	push	edi
	mov	DWORD PTR _this$[ebp], ecx
	mov	eax, DWORD PTR _this$[ebp]
	mov	ecx, DWORD PTR [eax]
	call	?Data@?$SLNode@VSoldierGameObj@@@@QBEPAVSoldierGameObj@@XZ ; SLNode<SoldierGameObj>::Data
	pop	edi
	pop	esi
	pop	ebx
	mov	esp, ebp
	pop	ebp
	ret	0
??B?$Iterator@AAV?$SList@VSoldierGameObj@@@@@@QAEPAVSoldierGameObj@@XZ ENDP ; Iterator<SList<SoldierGameObj> &>::operator SoldierGameObj *
_TEXT	ENDS
; Function compile flags: /Odtp /ZI
; File x:\github\renegade\dragonade_rxd\scripts\iterator.h
;	COMDAT ??B?$Iterator@AAV?$SList@VSoldierGameObj@@@@@@QAE_NXZ
_TEXT	SEGMENT
tv66 = -72						; size = 4
_this$ = -4						; size = 4
??B?$Iterator@AAV?$SList@VSoldierGameObj@@@@@@QAE_NXZ PROC ; Iterator<SList<SoldierGameObj> &>::operator bool, COMDAT
; _this$ = ecx

; 37   : 	inline operator bool() { return node != NULL; }

	push	ebp
	mov	ebp, esp
	sub	esp, 72					; 00000048H
	push	ebx
	push	esi
	push	edi
	mov	DWORD PTR _this$[ebp], ecx
	mov	eax, DWORD PTR _this$[ebp]
	cmp	DWORD PTR [eax], 0
	je	SHORT $LN3@operator
	mov	DWORD PTR tv66[ebp], 1
	jmp	SHORT $LN4@operator
$LN3@operator:
	mov	DWORD PTR tv66[ebp], 0
$LN4@operator:
	mov	al, BYTE PTR tv66[ebp]
	pop	edi
	pop	esi
	pop	ebx
	mov	esp, ebp
	pop	ebp
	ret	0
??B?$Iterator@AAV?$SList@VSoldierGameObj@@@@@@QAE_NXZ ENDP ; Iterator<SList<SoldierGameObj> &>::operator bool
_TEXT	ENDS
; Function compile flags: /Odtp /ZI
; File x:\github\renegade\dragonade_rxd\scripts\iterator.h
;	COMDAT ??0?$Iterator@AAV?$SList@VSoldierGameObj@@@@@@QAE@AAV?$SList@VSoldierGameObj@@@@@Z
_TEXT	SEGMENT
_this$ = -4						; size = 4
_list$ = 8						; size = 4
??0?$Iterator@AAV?$SList@VSoldierGameObj@@@@@@QAE@AAV?$SList@VSoldierGameObj@@@@@Z PROC ; Iterator<SList<SoldierGameObj> &>::Iterator<SList<SoldierGameObj> &>, COMDAT
; _this$ = ecx

; 36   : 	inline Iterator(SList<T>& list) { node = list.Head(); }

	push	ebp
	mov	ebp, esp
	sub	esp, 68					; 00000044H
	push	ebx
	push	esi
	push	edi
	mov	DWORD PTR _this$[ebp], ecx
	mov	ecx, DWORD PTR _list$[ebp]
	call	?Head@?$SList@VSoldierGameObj@@@@QBEPAV?$SLNode@VSoldierGameObj@@@@XZ ; SList<SoldierGameObj>::Head
	mov	ecx, DWORD PTR _this$[ebp]
	mov	DWORD PTR [ecx], eax
	mov	eax, DWORD PTR _this$[ebp]
	pop	edi
	pop	esi
	pop	ebx
	mov	esp, ebp
	pop	ebp
	ret	4
??0?$Iterator@AAV?$SList@VSoldierGameObj@@@@@@QAE@AAV?$SList@VSoldierGameObj@@@@@Z ENDP ; Iterator<SList<SoldierGameObj> &>::Iterator<SList<SoldierGameObj> &>
_TEXT	ENDS
; Function compile flags: /Odtp /ZI
; File x:\github\renegade\dragonade_rxd\scripts\engine_weap.cpp
;	COMDAT ?_Get_Weapon@@YAPAVWeaponClass@@PAVScriptableGameObj@@PBD@Z
_TEXT	SEGMENT
_i$1 = -20						; size = 4
_x$2 = -16						; size = 4
_w$3 = -12						; size = 4
_pArmedObj$4 = -8					; size = 4
_pPhysObjo2$ = -4					; size = 4
_obj$ = 8						; size = 4
_weapon$ = 12						; size = 4
?_Get_Weapon@@YAPAVWeaponClass@@PAVScriptableGameObj@@PBD@Z PROC ; _Get_Weapon, COMDAT

; 210  : {

	push	ebp
	mov	ebp, esp
	sub	esp, 84					; 00000054H
	push	ebx
	push	esi
	push	edi

; 211  :   if (!obj)

	cmp	DWORD PTR _obj$[ebp], 0
	jne	SHORT $LN8@Get_Weapon

; 212  :     return NULL;

	xor	eax, eax
	jmp	$LN9@Get_Weapon
$LN8@Get_Weapon:

; 213  : 
; 214  :   PhysicalGameObj* pPhysObjo2 = obj->As_PhysicalGameObj();

	mov	eax, DWORD PTR _obj$[ebp]
	mov	edx, DWORD PTR [eax]
	mov	ecx, DWORD PTR _obj$[ebp]
	mov	eax, DWORD PTR [edx+36]
	call	eax
	mov	DWORD PTR _pPhysObjo2$[ebp], eax

; 215  :   if (!pPhysObjo2)

	cmp	DWORD PTR _pPhysObjo2$[ebp], 0
	jne	SHORT $LN7@Get_Weapon

; 216  :     return NULL;

	xor	eax, eax
	jmp	$LN9@Get_Weapon
$LN7@Get_Weapon:

; 217  : 
; 218  :   if ( ArmedGameObj* pArmedObj = pPhysObjo2->As_ArmedGameObj() )

	mov	eax, DWORD PTR _pPhysObjo2$[ebp]
	mov	edx, DWORD PTR [eax]
	mov	ecx, DWORD PTR _pPhysObjo2$[ebp]
	mov	eax, DWORD PTR [edx+148]
	call	eax
	mov	DWORD PTR _pArmedObj$4[ebp], eax
	cmp	DWORD PTR _pArmedObj$4[ebp], 0
	je	SHORT $LN6@Get_Weapon

; 219  :   {
; 220  :     WeaponBagClass* w = pArmedObj->Get_Weapon_Bag();

	mov	ecx, DWORD PTR _pArmedObj$4[ebp]
	call	?Get_Weapon_Bag@ArmedGameObj@@QAEPAVWeaponBagClass@@XZ ; ArmedGameObj::Get_Weapon_Bag
	mov	DWORD PTR _w$3[ebp], eax

; 221  :     int x = w->Get_Count();

	mov	ecx, DWORD PTR _w$3[ebp]
	call	?Get_Count@WeaponBagClass@@QAEHXZ	; WeaponBagClass::Get_Count
	mov	DWORD PTR _x$2[ebp], eax

; 222  :     for (int i = 0;i < x;i++)

	mov	DWORD PTR _i$1[ebp], 0
	jmp	SHORT $LN5@Get_Weapon
$LN4@Get_Weapon:
	mov	eax, DWORD PTR _i$1[ebp]
	add	eax, 1
	mov	DWORD PTR _i$1[ebp], eax
$LN5@Get_Weapon:
	mov	eax, DWORD PTR _i$1[ebp]
	cmp	eax, DWORD PTR _x$2[ebp]
	jge	SHORT $LN6@Get_Weapon

; 223  :     {
; 224  :       if (w->Peek_Weapon(i))

	mov	eax, DWORD PTR _i$1[ebp]
	push	eax
	mov	ecx, DWORD PTR _w$3[ebp]
	call	?Peek_Weapon@WeaponBagClass@@QAEPAVWeaponClass@@H@Z ; WeaponBagClass::Peek_Weapon
	test	eax, eax
	je	SHORT $LN2@Get_Weapon

; 225  :       {
; 226  :         if (!_stricmp(w->Peek_Weapon(i)->Get_Name(),weapon))

	mov	eax, DWORD PTR _weapon$[ebp]
	push	eax
	mov	ecx, DWORD PTR _i$1[ebp]
	push	ecx
	mov	ecx, DWORD PTR _w$3[ebp]
	call	?Peek_Weapon@WeaponBagClass@@QAEPAVWeaponClass@@H@Z ; WeaponBagClass::Peek_Weapon
	mov	ecx, eax
	call	?Get_Name@WeaponClass@@QAEPBDXZ		; WeaponClass::Get_Name
	push	eax
	call	DWORD PTR __imp___stricmp
	add	esp, 8
	test	eax, eax
	jne	SHORT $LN2@Get_Weapon

; 227  :           return w->Peek_Weapon(i);

	mov	eax, DWORD PTR _i$1[ebp]
	push	eax
	mov	ecx, DWORD PTR _w$3[ebp]
	call	?Peek_Weapon@WeaponBagClass@@QAEPAVWeaponClass@@H@Z ; WeaponBagClass::Peek_Weapon
	jmp	SHORT $LN9@Get_Weapon
$LN2@Get_Weapon:

; 228  :       }
; 229  :     }

	jmp	SHORT $LN4@Get_Weapon
$LN6@Get_Weapon:

; 230  :   }
; 231  : 
; 232  :   return NULL;

	xor	eax, eax
$LN9@Get_Weapon:

; 233  : }

	pop	edi
	pop	esi
	pop	ebx
	mov	esp, ebp
	pop	ebp
	ret	0
?_Get_Weapon@@YAPAVWeaponClass@@PAVScriptableGameObj@@PBD@Z ENDP ; _Get_Weapon
_TEXT	ENDS
; Function compile flags: /Odtp /ZI
; File x:\github\renegade\dragonade_rxd\scripts\engine_weap.cpp
;	COMDAT ?_Get_Position_Weapon@@YAPAVWeaponClass@@PAVScriptableGameObj@@H@Z
_TEXT	SEGMENT
_w$1 = -12						; size = 4
_pArmedObj$2 = -8					; size = 4
_pPhysObjo2$ = -4					; size = 4
_obj$ = 8						; size = 4
_position$ = 12						; size = 4
?_Get_Position_Weapon@@YAPAVWeaponClass@@PAVScriptableGameObj@@H@Z PROC ; _Get_Position_Weapon, COMDAT

; 130  : {

	push	ebp
	mov	ebp, esp
	sub	esp, 76					; 0000004cH
	push	ebx
	push	esi
	push	edi

; 131  :   if (!obj)

	cmp	DWORD PTR _obj$[ebp], 0
	jne	SHORT $LN4@Get_Positi

; 132  :     return NULL;

	xor	eax, eax
	jmp	SHORT $LN5@Get_Positi
$LN4@Get_Positi:

; 133  : 
; 134  :   PhysicalGameObj* pPhysObjo2 = obj->As_PhysicalGameObj();

	mov	eax, DWORD PTR _obj$[ebp]
	mov	edx, DWORD PTR [eax]
	mov	ecx, DWORD PTR _obj$[ebp]
	mov	eax, DWORD PTR [edx+36]
	call	eax
	mov	DWORD PTR _pPhysObjo2$[ebp], eax

; 135  :   if (!pPhysObjo2)

	cmp	DWORD PTR _pPhysObjo2$[ebp], 0
	jne	SHORT $LN3@Get_Positi

; 136  :     return NULL;

	xor	eax, eax
	jmp	SHORT $LN5@Get_Positi
$LN3@Get_Positi:

; 137  : 
; 138  :   if ( ArmedGameObj* pArmedObj = pPhysObjo2->As_ArmedGameObj() )

	mov	eax, DWORD PTR _pPhysObjo2$[ebp]
	mov	edx, DWORD PTR [eax]
	mov	ecx, DWORD PTR _pPhysObjo2$[ebp]
	mov	eax, DWORD PTR [edx+148]
	call	eax
	mov	DWORD PTR _pArmedObj$2[ebp], eax
	cmp	DWORD PTR _pArmedObj$2[ebp], 0
	je	SHORT $LN2@Get_Positi

; 139  :   {
; 140  :     WeaponBagClass* w = pArmedObj->Get_Weapon_Bag();

	mov	ecx, DWORD PTR _pArmedObj$2[ebp]
	call	?Get_Weapon_Bag@ArmedGameObj@@QAEPAVWeaponBagClass@@XZ ; ArmedGameObj::Get_Weapon_Bag
	mov	DWORD PTR _w$1[ebp], eax

; 141  :     if ((position) && (position < w->Get_Count()))

	cmp	DWORD PTR _position$[ebp], 0
	je	SHORT $LN2@Get_Positi
	mov	ecx, DWORD PTR _w$1[ebp]
	call	?Get_Count@WeaponBagClass@@QAEHXZ	; WeaponBagClass::Get_Count
	cmp	DWORD PTR _position$[ebp], eax
	jge	SHORT $LN2@Get_Positi

; 142  :       return w->Peek_Weapon(position);

	mov	eax, DWORD PTR _position$[ebp]
	push	eax
	mov	ecx, DWORD PTR _w$1[ebp]
	call	?Peek_Weapon@WeaponBagClass@@QAEPAVWeaponClass@@H@Z ; WeaponBagClass::Peek_Weapon
	jmp	SHORT $LN5@Get_Positi
$LN2@Get_Positi:

; 143  :   }
; 144  : 
; 145  :   return NULL;

	xor	eax, eax
$LN5@Get_Positi:

; 146  : }

	pop	edi
	pop	esi
	pop	ebx
	mov	esp, ebp
	pop	ebp
	ret	0
?_Get_Position_Weapon@@YAPAVWeaponClass@@PAVScriptableGameObj@@H@Z ENDP ; _Get_Position_Weapon
_TEXT	ENDS
; Function compile flags: /Odtp /ZI
; File x:\github\renegade\dragonade_rxd\scripts\engine_weap.cpp
;	COMDAT ?_Get_Current_Weapon@@YAPAVWeaponClass@@PAVScriptableGameObj@@@Z
_TEXT	SEGMENT
_w$1 = -12						; size = 4
_pArmedObj$2 = -8					; size = 4
_pPhysObjo2$ = -4					; size = 4
_obj$ = 8						; size = 4
?_Get_Current_Weapon@@YAPAVWeaponClass@@PAVScriptableGameObj@@@Z PROC ; _Get_Current_Weapon, COMDAT

; 50   : {

	push	ebp
	mov	ebp, esp
	sub	esp, 76					; 0000004cH
	push	ebx
	push	esi
	push	edi

; 51   :   if (!obj)

	cmp	DWORD PTR _obj$[ebp], 0
	jne	SHORT $LN4@Get_Curren

; 52   :     return NULL;

	xor	eax, eax
	jmp	SHORT $LN5@Get_Curren
$LN4@Get_Curren:

; 53   : 
; 54   :   PhysicalGameObj* pPhysObjo2 = obj->As_PhysicalGameObj();

	mov	eax, DWORD PTR _obj$[ebp]
	mov	edx, DWORD PTR [eax]
	mov	ecx, DWORD PTR _obj$[ebp]
	mov	eax, DWORD PTR [edx+36]
	call	eax
	mov	DWORD PTR _pPhysObjo2$[ebp], eax

; 55   :   if (!pPhysObjo2)

	cmp	DWORD PTR _pPhysObjo2$[ebp], 0
	jne	SHORT $LN3@Get_Curren

; 56   :     return NULL;

	xor	eax, eax
	jmp	SHORT $LN5@Get_Curren
$LN3@Get_Curren:

; 57   : 
; 58   :   if ( ArmedGameObj* pArmedObj = pPhysObjo2->As_ArmedGameObj() )

	mov	eax, DWORD PTR _pPhysObjo2$[ebp]
	mov	edx, DWORD PTR [eax]
	mov	ecx, DWORD PTR _pPhysObjo2$[ebp]
	mov	eax, DWORD PTR [edx+148]
	call	eax
	mov	DWORD PTR _pArmedObj$2[ebp], eax
	cmp	DWORD PTR _pArmedObj$2[ebp], 0
	je	SHORT $LN2@Get_Curren

; 59   :   {
; 60   :     WeaponBagClass* w = pArmedObj->Get_Weapon_Bag();

	mov	ecx, DWORD PTR _pArmedObj$2[ebp]
	call	?Get_Weapon_Bag@ArmedGameObj@@QAEPAVWeaponBagClass@@XZ ; ArmedGameObj::Get_Weapon_Bag
	mov	DWORD PTR _w$1[ebp], eax

; 61   :     if ((w->Get_Index()) && (w->Get_Index() < w->Get_Count()))

	mov	ecx, DWORD PTR _w$1[ebp]
	call	?Get_Index@WeaponBagClass@@QAEHXZ	; WeaponBagClass::Get_Index
	test	eax, eax
	je	SHORT $LN2@Get_Curren
	mov	ecx, DWORD PTR _w$1[ebp]
	call	?Get_Index@WeaponBagClass@@QAEHXZ	; WeaponBagClass::Get_Index
	mov	esi, eax
	mov	ecx, DWORD PTR _w$1[ebp]
	call	?Get_Count@WeaponBagClass@@QAEHXZ	; WeaponBagClass::Get_Count
	cmp	esi, eax
	jge	SHORT $LN2@Get_Curren

; 62   :       return w->Peek_Weapon(w->Get_Index());

	mov	ecx, DWORD PTR _w$1[ebp]
	call	?Get_Index@WeaponBagClass@@QAEHXZ	; WeaponBagClass::Get_Index
	push	eax
	mov	ecx, DWORD PTR _w$1[ebp]
	call	?Peek_Weapon@WeaponBagClass@@QAEPAVWeaponClass@@H@Z ; WeaponBagClass::Peek_Weapon
	jmp	SHORT $LN5@Get_Curren
$LN2@Get_Curren:

; 63   :   }
; 64   : 
; 65   :   return NULL;

	xor	eax, eax
$LN5@Get_Curren:

; 66   : }

	pop	edi
	pop	esi
	pop	ebx
	mov	esp, ebp
	pop	ebp
	ret	0
?_Get_Current_Weapon@@YAPAVWeaponClass@@PAVScriptableGameObj@@@Z ENDP ; _Get_Current_Weapon
_TEXT	ENDS
; Function compile flags: /Odtp /ZI
; File x:\github\renegade\dragonade_rxd\scripts\offenseobjectclass.h
;	COMDAT ?Set_Owner@OffenseObjectClass@@QAEXPAVArmedGameObj@@@Z
_TEXT	SEGMENT
_this$ = -4						; size = 4
_owner$ = 8						; size = 4
?Set_Owner@OffenseObjectClass@@QAEXPAVArmedGameObj@@@Z PROC ; OffenseObjectClass::Set_Owner, COMDAT
; _this$ = ecx

; 28   : 	void	Set_Owner( ArmedGameObj *owner )	{ Owner = (ScriptableGameObj *)owner; }

	push	ebp
	mov	ebp, esp
	sub	esp, 68					; 00000044H
	push	ebx
	push	esi
	push	edi
	mov	DWORD PTR _this$[ebp], ecx
	mov	eax, DWORD PTR _owner$[ebp]
	push	eax
	mov	ecx, DWORD PTR _this$[ebp]
	add	ecx, 12					; 0000000cH
	call	??4ReferencerClass@@QAEAAV0@PAVScriptableGameObj@@@Z ; ReferencerClass::operator=
	pop	edi
	pop	esi
	pop	ebx
	mov	esp, ebp
	pop	ebp
	ret	4
?Set_Owner@OffenseObjectClass@@QAEXPAVArmedGameObj@@@Z ENDP ; OffenseObjectClass::Set_Owner
_TEXT	ENDS
; Function compile flags: /Odtp /ZI
; File x:\github\renegade\dragonade_rxd\scripts\offenseobjectclass.h
;	COMDAT ??1OffenseObjectClass@@QAE@XZ
_TEXT	SEGMENT
_this$ = -4						; size = 4
??1OffenseObjectClass@@QAE@XZ PROC			; OffenseObjectClass::~OffenseObjectClass, COMDAT
; _this$ = ecx

; 20   : 	~OffenseObjectClass() { Set_Owner( NULL ); };

	push	ebp
	mov	ebp, esp
	sub	esp, 68					; 00000044H
	push	ebx
	push	esi
	push	edi
	mov	DWORD PTR _this$[ebp], ecx
	push	0
	mov	ecx, DWORD PTR _this$[ebp]
	call	?Set_Owner@OffenseObjectClass@@QAEXPAVArmedGameObj@@@Z ; OffenseObjectClass::Set_Owner
	mov	ecx, DWORD PTR _this$[ebp]
	add	ecx, 12					; 0000000cH
	call	??1ReferencerClass@@UAE@XZ		; ReferencerClass::~ReferencerClass
	pop	edi
	pop	esi
	pop	ebx
	mov	esp, ebp
	pop	ebp
	ret	0
??1OffenseObjectClass@@QAE@XZ ENDP			; OffenseObjectClass::~OffenseObjectClass
_TEXT	ENDS
; Function compile flags: /Odtp /ZI
; File x:\github\renegade\dragonade_rxd\scripts\offenseobjectclass.h
;	COMDAT ??0OffenseObjectClass@@QAE@MIPAVArmedGameObj@@@Z
_TEXT	SEGMENT
_this$ = -4						; size = 4
_damage$ = 8						; size = 4
_warhead$ = 12						; size = 4
_owner$ = 16						; size = 4
??0OffenseObjectClass@@QAE@MIPAVArmedGameObj@@@Z PROC	; OffenseObjectClass::OffenseObjectClass, COMDAT
; _this$ = ecx

; 18   : 	OffenseObjectClass( float damage = DEFAULT_DAMAGE, unsigned int warhead = 0, ArmedGameObj *owner = NULL ) : Damage( damage ), Warhead( warhead ), ForceServerDamage( false ), EnableClientDamage( false ) { Set_Owner( owner ); }

	push	ebp
	mov	ebp, esp
	sub	esp, 68					; 00000044H
	push	ebx
	push	esi
	push	edi
	mov	DWORD PTR _this$[ebp], ecx
	mov	eax, DWORD PTR _this$[ebp]
	mov	BYTE PTR [eax], 0
	mov	eax, DWORD PTR _this$[ebp]
	mov	BYTE PTR [eax+1], 0
	mov	eax, DWORD PTR _this$[ebp]
	movss	xmm0, DWORD PTR _damage$[ebp]
	movss	DWORD PTR [eax+4], xmm0
	mov	eax, DWORD PTR _this$[ebp]
	mov	ecx, DWORD PTR _warhead$[ebp]
	mov	DWORD PTR [eax+8], ecx
	mov	ecx, DWORD PTR _this$[ebp]
	add	ecx, 12					; 0000000cH
	call	??0ReferencerClass@@QAE@XZ		; ReferencerClass::ReferencerClass
	mov	eax, DWORD PTR _owner$[ebp]
	push	eax
	mov	ecx, DWORD PTR _this$[ebp]
	call	?Set_Owner@OffenseObjectClass@@QAEXPAVArmedGameObj@@@Z ; OffenseObjectClass::Set_Owner
	mov	eax, DWORD PTR _this$[ebp]
	pop	edi
	pop	esi
	pop	ebx
	mov	esp, ebp
	pop	ebp
	ret	12					; 0000000cH
??0OffenseObjectClass@@QAE@MIPAVArmedGameObj@@@Z ENDP	; OffenseObjectClass::OffenseObjectClass
_TEXT	ENDS
; Function compile flags: /Odtp /ZI
; File x:\github\renegade\dragonade_rxd\scripts\engine_weap.cpp
;	COMDAT ?Find_Nearest_Beacon@@YAPAVBeaconGameObj@@ABVVector3@@H@Z
_TEXT	SEGMENT
$T1 = -108						; size = 12
_distance$2 = -32					; size = 4
_beacon_position$3 = -28				; size = 12
_object$4 = -16						; size = 4
_object_node$5 = -12					; size = 4
_min_distance$ = -8					; size = 4
_beacon$ = -4						; size = 4
_position$ = 8						; size = 4
_team$ = 12						; size = 4
?Find_Nearest_Beacon@@YAPAVBeaconGameObj@@ABVVector3@@H@Z PROC ; Find_Nearest_Beacon, COMDAT

; 570  : {

	push	ebp
	mov	ebp, esp
	sub	esp, 108				; 0000006cH
	push	ebx
	push	esi
	push	edi

; 571  : 	BeaconGameObj* beacon = nullptr;

	mov	DWORD PTR _beacon$[ebp], 0

; 572  : 	float min_distance = std::numeric_limits<float>::infinity();

	call	?infinity@?$numeric_limits@M@std@@SAMXZ	; std::numeric_limits<float>::infinity
	fstp	DWORD PTR _min_distance$[ebp]

; 573  : 
; 574  : 	for (auto object_node = GameObjManager::BeaconGameObjList.Head(); object_node; object_node = object_node->Next())

	mov	ecx, DWORD PTR __imp_?BeaconGameObjList@GameObjManager@@2V?$SList@VBeaconGameObj@@@@A
	call	?Head@?$SList@VBeaconGameObj@@@@QBEPAV?$SLNode@VBeaconGameObj@@@@XZ ; SList<BeaconGameObj>::Head
	mov	DWORD PTR _object_node$5[ebp], eax
	jmp	SHORT $LN6@Find_Neare
$LN5@Find_Neare:
	mov	ecx, DWORD PTR _object_node$5[ebp]
	call	?Next@?$SLNode@VBeaconGameObj@@@@QBEPAV1@XZ ; SLNode<BeaconGameObj>::Next
	mov	DWORD PTR _object_node$5[ebp], eax
$LN6@Find_Neare:
	cmp	DWORD PTR _object_node$5[ebp], 0
	je	SHORT $LN4@Find_Neare

; 575  : 	{
; 576  : 		BeaconGameObj* object = object_node->Data();

	mov	ecx, DWORD PTR _object_node$5[ebp]
	call	?Data@?$SLNode@VBeaconGameObj@@@@QBEPAVBeaconGameObj@@XZ ; SLNode<BeaconGameObj>::Data
	mov	DWORD PTR _object$4[ebp], eax

; 577  : 		if (team == 2 || team == object->Get_Player_Type())

	cmp	DWORD PTR _team$[ebp], 2
	je	SHORT $LN2@Find_Neare
	mov	eax, DWORD PTR _object$4[ebp]
	mov	edx, DWORD PTR [eax]
	mov	ecx, DWORD PTR _object$4[ebp]
	mov	eax, DWORD PTR [edx+104]
	call	eax
	cmp	DWORD PTR _team$[ebp], eax
	jne	SHORT $LN1@Find_Neare
$LN2@Find_Neare:

; 578  : 		{
; 579  : 			Vector3 beacon_position;

	lea	ecx, DWORD PTR _beacon_position$3[ebp]
	call	??0Vector3@@QAE@XZ			; Vector3::Vector3

; 580  : 			object->Get_Position(&beacon_position);

	lea	eax, DWORD PTR _beacon_position$3[ebp]
	push	eax
	mov	ecx, DWORD PTR _object$4[ebp]
	mov	edx, DWORD PTR [ecx]
	mov	ecx, DWORD PTR _object$4[ebp]
	mov	eax, DWORD PTR [edx+56]
	call	eax

; 581  : 
; 582  : 			float distance = (beacon_position - position).Length2();

	mov	eax, DWORD PTR _position$[ebp]
	push	eax
	lea	ecx, DWORD PTR _beacon_position$3[ebp]
	push	ecx
	lea	edx, DWORD PTR $T1[ebp]
	push	edx
	call	??G@YA?AVVector3@@ABV0@0@Z		; operator-
	add	esp, 12					; 0000000cH
	mov	ecx, eax
	call	?Length2@Vector3@@QBEMXZ		; Vector3::Length2
	fstp	DWORD PTR _distance$2[ebp]

; 583  : 
; 584  : 			if (distance < min_distance)

	movss	xmm0, DWORD PTR _min_distance$[ebp]
	comiss	xmm0, DWORD PTR _distance$2[ebp]
	jbe	SHORT $LN1@Find_Neare

; 585  : 			{
; 586  : 				beacon = object;

	mov	eax, DWORD PTR _object$4[ebp]
	mov	DWORD PTR _beacon$[ebp], eax
$LN1@Find_Neare:

; 587  : 			}
; 588  : 		}
; 589  : 	}

	jmp	SHORT $LN5@Find_Neare
$LN4@Find_Neare:

; 590  : 
; 591  : 	return beacon;

	mov	eax, DWORD PTR _beacon$[ebp]

; 592  : }

	pop	edi
	pop	esi
	pop	ebx
	mov	esp, ebp
	pop	ebp
	ret	0
?Find_Nearest_Beacon@@YAPAVBeaconGameObj@@ABVVector3@@H@Z ENDP ; Find_Nearest_Beacon
_TEXT	ENDS
; Function compile flags: /Odtp /ZI
; File x:\github\renegade\dragonade_rxd\scripts\engine_weap.cpp
;	COMDAT ?Get_Beacon_Planter@@YAPAVScriptableGameObj@@PAV1@@Z
_TEXT	SEGMENT
_o3$ = -8						; size = 4
_o2$ = -4						; size = 4
_obj$ = 8						; size = 4
?Get_Beacon_Planter@@YAPAVScriptableGameObj@@PAV1@@Z PROC ; Get_Beacon_Planter, COMDAT

; 533  : {

	push	ebp
	mov	ebp, esp
	sub	esp, 72					; 00000048H
	push	ebx
	push	esi
	push	edi

; 534  : 	if (!obj)

	cmp	DWORD PTR _obj$[ebp], 0
	jne	SHORT $LN3@Get_Beacon

; 535  : 	{
; 536  : 		return 0;

	xor	eax, eax
	jmp	SHORT $LN4@Get_Beacon
$LN3@Get_Beacon:

; 537  : 	}
; 538  : 	PhysicalGameObj *o2 = obj->As_PhysicalGameObj();

	mov	eax, DWORD PTR _obj$[ebp]
	mov	edx, DWORD PTR [eax]
	mov	ecx, DWORD PTR _obj$[ebp]
	mov	eax, DWORD PTR [edx+36]
	call	eax
	mov	DWORD PTR _o2$[ebp], eax

; 539  : 	if (!o2)

	cmp	DWORD PTR _o2$[ebp], 0
	jne	SHORT $LN2@Get_Beacon

; 540  : 	{
; 541  : 		return 0;

	xor	eax, eax
	jmp	SHORT $LN4@Get_Beacon
$LN2@Get_Beacon:

; 542  : 	}
; 543  : 	BeaconGameObj *o3 = o2->As_BeaconGameObj();

	mov	eax, DWORD PTR _o2$[ebp]
	mov	edx, DWORD PTR [eax]
	mov	ecx, DWORD PTR _o2$[ebp]
	mov	eax, DWORD PTR [edx+144]
	call	eax
	mov	DWORD PTR _o3$[ebp], eax

; 544  : 	if (!o3)

	cmp	DWORD PTR _o3$[ebp], 0
	jne	SHORT $LN1@Get_Beacon

; 545  : 	{
; 546  : 		return 0;

	xor	eax, eax
	jmp	SHORT $LN4@Get_Beacon
$LN1@Get_Beacon:

; 547  : 	}
; 548  : 	return o3->Get_Owner();

	mov	ecx, DWORD PTR _o3$[ebp]
	call	?Get_Owner@BeaconGameObj@@QAEPAVSoldierGameObj@@XZ ; BeaconGameObj::Get_Owner
$LN4@Get_Beacon:

; 549  : }

	pop	edi
	pop	esi
	pop	ebx
	mov	esp, ebp
	pop	ebp
	ret	0
?Get_Beacon_Planter@@YAPAVScriptableGameObj@@PAV1@@Z ENDP ; Get_Beacon_Planter
_TEXT	ENDS
; Function compile flags: /Odtp /ZI
; File x:\github\renegade\dragonade_rxd\scripts\engine_weap.cpp
;	COMDAT ?Get_C4_Attached@@YAPAVScriptableGameObj@@PAV1@@Z
_TEXT	SEGMENT
_o3$ = -8						; size = 4
_o2$ = -4						; size = 4
_obj$ = 8						; size = 4
?Get_C4_Attached@@YAPAVScriptableGameObj@@PAV1@@Z PROC	; Get_C4_Attached, COMDAT

; 888  : {	

	push	ebp
	mov	ebp, esp
	sub	esp, 72					; 00000048H
	push	ebx
	push	esi
	push	edi

; 889  : 	if (!obj)

	cmp	DWORD PTR _obj$[ebp], 0
	jne	SHORT $LN3@Get_C4_Att

; 890  : 	{
; 891  : 		return 0;

	xor	eax, eax
	jmp	SHORT $LN4@Get_C4_Att
$LN3@Get_C4_Att:

; 892  : 	}
; 893  : 	PhysicalGameObj *o2 = obj->As_PhysicalGameObj();

	mov	eax, DWORD PTR _obj$[ebp]
	mov	edx, DWORD PTR [eax]
	mov	ecx, DWORD PTR _obj$[ebp]
	mov	eax, DWORD PTR [edx+36]
	call	eax
	mov	DWORD PTR _o2$[ebp], eax

; 894  : 	if (!o2)

	cmp	DWORD PTR _o2$[ebp], 0
	jne	SHORT $LN2@Get_C4_Att

; 895  : 	{
; 896  : 		return 0;

	xor	eax, eax
	jmp	SHORT $LN4@Get_C4_Att
$LN2@Get_C4_Att:

; 897  : 	}
; 898  : 	C4GameObj *o3 = o2->As_C4GameObj();

	mov	eax, DWORD PTR _o2$[ebp]
	mov	edx, DWORD PTR [eax]
	mov	ecx, DWORD PTR _o2$[ebp]
	mov	eax, DWORD PTR [edx+140]
	call	eax
	mov	DWORD PTR _o3$[ebp], eax

; 899  : 	if (!o3)

	cmp	DWORD PTR _o3$[ebp], 0
	jne	SHORT $LN1@Get_C4_Att

; 900  : 	{
; 901  : 		return 0;

	xor	eax, eax
	jmp	SHORT $LN4@Get_C4_Att
$LN1@Get_C4_Att:

; 902  : 	}
; 903  : 
; 904  : 	return (GameObject *)o3->Get_Stuck_Object();

	mov	ecx, DWORD PTR _o3$[ebp]
	call	?Get_Stuck_Object@C4GameObj@@QAEPAVScriptableGameObj@@XZ ; C4GameObj::Get_Stuck_Object
$LN4@Get_C4_Att:

; 905  : }

	pop	edi
	pop	esi
	pop	ebx
	mov	esp, ebp
	pop	ebp
	ret	0
?Get_C4_Attached@@YAPAVScriptableGameObj@@PAV1@@Z ENDP	; Get_C4_Attached
_TEXT	ENDS
; Function compile flags: /Odtp /ZI
; File x:\github\renegade\dragonade_rxd\scripts\engine_weap.cpp
;	COMDAT ?Get_C4_Planter@@YAPAVScriptableGameObj@@PAV1@@Z
_TEXT	SEGMENT
_o3$ = -8						; size = 4
_o2$ = -4						; size = 4
_obj$ = 8						; size = 4
?Get_C4_Planter@@YAPAVScriptableGameObj@@PAV1@@Z PROC	; Get_C4_Planter, COMDAT

; 868  : {	

	push	ebp
	mov	ebp, esp
	sub	esp, 72					; 00000048H
	push	ebx
	push	esi
	push	edi

; 869  : 	if (!obj)

	cmp	DWORD PTR _obj$[ebp], 0
	jne	SHORT $LN3@Get_C4_Pla

; 870  : 	{
; 871  : 		return 0;

	xor	eax, eax
	jmp	SHORT $LN4@Get_C4_Pla
$LN3@Get_C4_Pla:

; 872  : 	}
; 873  : 	PhysicalGameObj *o2 = obj->As_PhysicalGameObj();

	mov	eax, DWORD PTR _obj$[ebp]
	mov	edx, DWORD PTR [eax]
	mov	ecx, DWORD PTR _obj$[ebp]
	mov	eax, DWORD PTR [edx+36]
	call	eax
	mov	DWORD PTR _o2$[ebp], eax

; 874  : 	if (!o2)

	cmp	DWORD PTR _o2$[ebp], 0
	jne	SHORT $LN2@Get_C4_Pla

; 875  : 	{
; 876  : 		return 0;

	xor	eax, eax
	jmp	SHORT $LN4@Get_C4_Pla
$LN2@Get_C4_Pla:

; 877  : 	}
; 878  : 	C4GameObj *o3 = o2->As_C4GameObj();

	mov	eax, DWORD PTR _o2$[ebp]
	mov	edx, DWORD PTR [eax]
	mov	ecx, DWORD PTR _o2$[ebp]
	mov	eax, DWORD PTR [edx+140]
	call	eax
	mov	DWORD PTR _o3$[ebp], eax

; 879  : 	if (!o3)

	cmp	DWORD PTR _o3$[ebp], 0
	jne	SHORT $LN1@Get_C4_Pla

; 880  : 	{
; 881  : 		return 0;

	xor	eax, eax
	jmp	SHORT $LN4@Get_C4_Pla
$LN1@Get_C4_Pla:

; 882  : 	}
; 883  : 	o3->Restore_Owner();

	mov	ecx, DWORD PTR _o3$[ebp]
	call	?Restore_Owner@C4GameObj@@QAEXXZ	; C4GameObj::Restore_Owner

; 884  : 	return (GameObject *)o3->Get_Owner();

	mov	ecx, DWORD PTR _o3$[ebp]
	call	?Get_Owner@C4GameObj@@QBEPAVSoldierGameObj@@XZ ; C4GameObj::Get_Owner
$LN4@Get_C4_Pla:

; 885  : }

	pop	edi
	pop	esi
	pop	ebx
	mov	esp, ebp
	pop	ebp
	ret	0
?Get_C4_Planter@@YAPAVScriptableGameObj@@PAV1@@Z ENDP	; Get_C4_Planter
_TEXT	ENDS
; Function compile flags: /Odtp /ZI
; File x:\github\renegade\dragonade_rxd\scripts\engine_weap.cpp
;	COMDAT ?Get_C4_Mode@@YAHPAVScriptableGameObj@@@Z
_TEXT	SEGMENT
_o3$ = -8						; size = 4
_o2$ = -4						; size = 4
_obj$ = 8						; size = 4
?Get_C4_Mode@@YAHPAVScriptableGameObj@@@Z PROC		; Get_C4_Mode, COMDAT

; 849  : {

	push	ebp
	mov	ebp, esp
	sub	esp, 72					; 00000048H
	push	ebx
	push	esi
	push	edi

; 850  : 	if (!obj)

	cmp	DWORD PTR _obj$[ebp], 0
	jne	SHORT $LN3@Get_C4_Mod

; 851  : 	{
; 852  : 		return 0;

	xor	eax, eax
	jmp	SHORT $LN4@Get_C4_Mod
$LN3@Get_C4_Mod:

; 853  : 	}
; 854  : 	PhysicalGameObj *o2 = obj->As_PhysicalGameObj();

	mov	eax, DWORD PTR _obj$[ebp]
	mov	edx, DWORD PTR [eax]
	mov	ecx, DWORD PTR _obj$[ebp]
	mov	eax, DWORD PTR [edx+36]
	call	eax
	mov	DWORD PTR _o2$[ebp], eax

; 855  : 	if (!o2)

	cmp	DWORD PTR _o2$[ebp], 0
	jne	SHORT $LN2@Get_C4_Mod

; 856  : 	{
; 857  : 		return 0;

	xor	eax, eax
	jmp	SHORT $LN4@Get_C4_Mod
$LN2@Get_C4_Mod:

; 858  : 	}
; 859  : 	C4GameObj *o3 = o2->As_C4GameObj();

	mov	eax, DWORD PTR _o2$[ebp]
	mov	edx, DWORD PTR [eax]
	mov	ecx, DWORD PTR _o2$[ebp]
	mov	eax, DWORD PTR [edx+140]
	call	eax
	mov	DWORD PTR _o3$[ebp], eax

; 860  : 	if (!o3)

	cmp	DWORD PTR _o3$[ebp], 0
	jne	SHORT $LN1@Get_C4_Mod

; 861  : 	{
; 862  : 		return 0;

	xor	eax, eax
	jmp	SHORT $LN4@Get_C4_Mod
$LN1@Get_C4_Mod:

; 863  : 	}
; 864  : 	return o3->Get_Ammo_Def()->AmmoType;

	mov	ecx, DWORD PTR _o3$[ebp]
	call	?Get_Ammo_Def@C4GameObj@@QAEPBVAmmoDefinitionClass@@XZ ; C4GameObj::Get_Ammo_Def
	add	eax, 140				; 0000008cH
	mov	ecx, eax
	call	??B?$SafeDataClass@H@@QBEHXZ		; SafeDataClass<int>::operator int
$LN4@Get_C4_Mod:

; 865  : }

	pop	edi
	pop	esi
	pop	ebx
	mov	esp, ebp
	pop	ebp
	ret	0
?Get_C4_Mode@@YAHPAVScriptableGameObj@@@Z ENDP		; Get_C4_Mode
_TEXT	ENDS
; Function compile flags: /Odtp /ZI
; File x:\github\renegade\dragonade_rxd\scripts\engine_weap.cpp
;	COMDAT ?Get_Beacon_Count@@YAHH@Z
_TEXT	SEGMENT
_o$1 = -12						; size = 4
_x$ = -8						; size = 4
_Total$ = -4						; size = 4
_Team$ = 8						; size = 4
?Get_Beacon_Count@@YAHH@Z PROC				; Get_Beacon_Count, COMDAT

; 826  : {

	push	ebp
	mov	ebp, esp
	sub	esp, 76					; 0000004cH
	push	ebx
	push	esi
	push	edi

; 827  : 	int Total = 0;

	mov	DWORD PTR _Total$[ebp], 0

; 828  : 	SLNode<BeaconGameObj> *x = GameObjManager::BeaconGameObjList.Head();

	mov	ecx, DWORD PTR __imp_?BeaconGameObjList@GameObjManager@@2V?$SList@VBeaconGameObj@@@@A
	call	?Head@?$SList@VBeaconGameObj@@@@QBEPAV?$SLNode@VBeaconGameObj@@@@XZ ; SList<BeaconGameObj>::Head
	mov	DWORD PTR _x$[ebp], eax
$LN6@Get_Beacon:

; 829  : 	while (x)

	cmp	DWORD PTR _x$[ebp], 0
	je	SHORT $LN5@Get_Beacon

; 830  : 	{
; 831  : 		GameObject *o = (GameObject *)x->Data();

	mov	ecx, DWORD PTR _x$[ebp]
	call	?Data@?$SLNode@VBeaconGameObj@@@@QBEPAVBeaconGameObj@@XZ ; SLNode<BeaconGameObj>::Data
	mov	DWORD PTR _o$1[ebp], eax

; 832  : 		if (o)

	cmp	DWORD PTR _o$1[ebp], 0
	je	SHORT $LN4@Get_Beacon

; 833  : 		{
; 834  : 			if (Team == 2)

	cmp	DWORD PTR _Team$[ebp], 2
	jne	SHORT $LN3@Get_Beacon

; 835  : 			{
; 836  : 				Total++;

	mov	eax, DWORD PTR _Total$[ebp]
	add	eax, 1
	mov	DWORD PTR _Total$[ebp], eax
	jmp	SHORT $LN4@Get_Beacon
$LN3@Get_Beacon:

; 837  : 			}
; 838  : 			else if (Get_Object_Type(o) == Team)

	mov	eax, DWORD PTR _o$1[ebp]
	push	eax
	call	?Get_Object_Type@@YAHPAVScriptableGameObj@@@Z ; Get_Object_Type
	add	esp, 4
	cmp	eax, DWORD PTR _Team$[ebp]
	jne	SHORT $LN4@Get_Beacon

; 839  : 			{
; 840  : 				Total++;

	mov	eax, DWORD PTR _Total$[ebp]
	add	eax, 1
	mov	DWORD PTR _Total$[ebp], eax
$LN4@Get_Beacon:

; 841  : 			}
; 842  : 		}
; 843  : 		x = x->Next();

	mov	ecx, DWORD PTR _x$[ebp]
	call	?Next@?$SLNode@VBeaconGameObj@@@@QBEPAV1@XZ ; SLNode<BeaconGameObj>::Next
	mov	DWORD PTR _x$[ebp], eax

; 844  : 	}

	jmp	SHORT $LN6@Get_Beacon
$LN5@Get_Beacon:

; 845  : 	return Total;

	mov	eax, DWORD PTR _Total$[ebp]

; 846  : }

	pop	edi
	pop	esi
	pop	ebx
	mov	esp, ebp
	pop	ebp
	ret	0
?Get_Beacon_Count@@YAHH@Z ENDP				; Get_Beacon_Count
_TEXT	ENDS
; Function compile flags: /Odtp /ZI
; File x:\github\renegade\dragonade_rxd\scripts\engine_weap.cpp
;	COMDAT ?Defuse_Attached_C4@@YAXPAVScriptableGameObj@@@Z
_TEXT	SEGMENT
_c4$1 = -8						; size = 4
_c4_node$2 = -4						; size = 4
_attached_object$ = 8					; size = 4
?Defuse_Attached_C4@@YAXPAVScriptableGameObj@@@Z PROC	; Defuse_Attached_C4, COMDAT

; 649  : {

	push	ebp
	mov	ebp, esp
	sub	esp, 72					; 00000048H
	push	ebx
	push	esi
	push	edi

; 650  : 	for (auto c4_node = GameObjManager::C4GameObjList.Head(); c4_node; c4_node = c4_node->Next())

	mov	ecx, DWORD PTR __imp_?C4GameObjList@GameObjManager@@2V?$SList@VC4GameObj@@@@A
	call	?Head@?$SList@VC4GameObj@@@@QBEPAV?$SLNode@VC4GameObj@@@@XZ ; SList<C4GameObj>::Head
	mov	DWORD PTR _c4_node$2[ebp], eax
	jmp	SHORT $LN4@Defuse_Att
$LN3@Defuse_Att:
	mov	ecx, DWORD PTR _c4_node$2[ebp]
	call	?Next@?$SLNode@VC4GameObj@@@@QBEPAV1@XZ	; SLNode<C4GameObj>::Next
	mov	DWORD PTR _c4_node$2[ebp], eax
$LN4@Defuse_Att:
	cmp	DWORD PTR _c4_node$2[ebp], 0
	je	SHORT $LN5@Defuse_Att

; 651  : 	{
; 652  : 		C4GameObj* c4 = c4_node->Data();

	mov	ecx, DWORD PTR _c4_node$2[ebp]
	call	?Data@?$SLNode@VC4GameObj@@@@QBEPAVC4GameObj@@XZ ; SLNode<C4GameObj>::Data
	mov	DWORD PTR _c4$1[ebp], eax

; 653  : 		if (c4->Get_Stuck_Object() == attached_object)

	mov	ecx, DWORD PTR _c4$1[ebp]
	call	?Get_Stuck_Object@C4GameObj@@QAEPAVScriptableGameObj@@XZ ; C4GameObj::Get_Stuck_Object
	cmp	eax, DWORD PTR _attached_object$[ebp]
	jne	SHORT $LN1@Defuse_Att

; 654  : 		{
; 655  : 			c4->Defuse();

	mov	ecx, DWORD PTR _c4$1[ebp]
	call	?Defuse@C4GameObj@@QAEXXZ		; C4GameObj::Defuse
$LN1@Defuse_Att:

; 656  : 		}
; 657  : 	}

	jmp	SHORT $LN3@Defuse_Att
$LN5@Defuse_Att:

; 658  : }

	pop	edi
	pop	esi
	pop	ebx
	mov	esp, ebp
	pop	ebp
	ret	0
?Defuse_Attached_C4@@YAXPAVScriptableGameObj@@@Z ENDP	; Defuse_Attached_C4
_TEXT	ENDS
; Function compile flags: /Odtp /ZI
; File x:\github\renegade\dragonade_rxd\scripts\engine_weap.cpp
;	COMDAT ?Defuse_Owned_C4@@YAXHH@Z
_TEXT	SEGMENT
_ammo$1 = -12						; size = 4
_c4$2 = -8						; size = 4
_c4_node$3 = -4						; size = 4
_player_id$ = 8						; size = 4
_type$ = 12						; size = 4
?Defuse_Owned_C4@@YAXHH@Z PROC				; Defuse_Owned_C4, COMDAT

; 631  : {

	push	ebp
	mov	ebp, esp
	sub	esp, 76					; 0000004cH
	push	ebx
	push	esi
	push	edi

; 632  : 	for (auto c4_node = GameObjManager::C4GameObjList.Head(); c4_node; c4_node = c4_node->Next())

	mov	ecx, DWORD PTR __imp_?C4GameObjList@GameObjManager@@2V?$SList@VC4GameObj@@@@A
	call	?Head@?$SList@VC4GameObj@@@@QBEPAV?$SLNode@VC4GameObj@@@@XZ ; SList<C4GameObj>::Head
	mov	DWORD PTR _c4_node$3[ebp], eax
	jmp	SHORT $LN6@Defuse_Own
$LN5@Defuse_Own:
	mov	ecx, DWORD PTR _c4_node$3[ebp]
	call	?Next@?$SLNode@VC4GameObj@@@@QBEPAV1@XZ	; SLNode<C4GameObj>::Next
	mov	DWORD PTR _c4_node$3[ebp], eax
$LN6@Defuse_Own:
	cmp	DWORD PTR _c4_node$3[ebp], 0
	je	SHORT $LN7@Defuse_Own

; 633  : 	{
; 634  : 		C4GameObj* c4 = c4_node->Data();

	mov	ecx, DWORD PTR _c4_node$3[ebp]
	call	?Data@?$SLNode@VC4GameObj@@@@QBEPAVC4GameObj@@XZ ; SLNode<C4GameObj>::Data
	mov	DWORD PTR _c4$2[ebp], eax

; 635  : 
; 636  : 		const AmmoDefinitionClass* ammo = c4->Get_Ammo_Def();

	mov	ecx, DWORD PTR _c4$2[ebp]
	call	?Get_Ammo_Def@C4GameObj@@QAEPBVAmmoDefinitionClass@@XZ ; C4GameObj::Get_Ammo_Def
	mov	DWORD PTR _ammo$1[ebp], eax

; 637  : 		if (type == 0 || type == ammo->AmmoType)

	cmp	DWORD PTR _type$[ebp], 0
	je	SHORT $LN2@Defuse_Own
	mov	ecx, DWORD PTR _ammo$1[ebp]
	add	ecx, 140				; 0000008cH
	call	??B?$SafeDataClass@H@@QBEHXZ		; SafeDataClass<int>::operator int
	cmp	DWORD PTR _type$[ebp], eax
	jne	SHORT $LN3@Defuse_Own
$LN2@Defuse_Own:

; 638  : 		{
; 639  : 			c4->Restore_Owner();

	mov	ecx, DWORD PTR _c4$2[ebp]
	call	?Restore_Owner@C4GameObj@@QAEXXZ	; C4GameObj::Restore_Owner

; 640  : 			if (Get_Player_ID(c4->Get_Owner()) == player_id)

	mov	ecx, DWORD PTR _c4$2[ebp]
	call	?Get_Owner@C4GameObj@@QBEPAVSoldierGameObj@@XZ ; C4GameObj::Get_Owner
	push	eax
	call	?Get_Player_ID@@YAJPAVScriptableGameObj@@@Z ; Get_Player_ID
	add	esp, 4
	cmp	eax, DWORD PTR _player_id$[ebp]
	jne	SHORT $LN3@Defuse_Own

; 641  : 			{
; 642  : 				c4->Defuse();

	mov	ecx, DWORD PTR _c4$2[ebp]
	call	?Defuse@C4GameObj@@QAEXXZ		; C4GameObj::Defuse
$LN3@Defuse_Own:

; 643  : 			}
; 644  : 		}
; 645  : 	}

	jmp	SHORT $LN5@Defuse_Own
$LN7@Defuse_Own:

; 646  : }

	pop	edi
	pop	esi
	pop	ebx
	mov	esp, ebp
	pop	ebp
	ret	0
?Defuse_Owned_C4@@YAXHH@Z ENDP				; Defuse_Owned_C4
_TEXT	ENDS
; Function compile flags: /Odtp /ZI
; File x:\github\renegade\dragonade_rxd\scripts\engine_weap.cpp
;	COMDAT ?Get_C4_Count@@YAHHH@Z
_TEXT	SEGMENT
_ammo$1 = -16						; size = 4
_c4$2 = -12						; size = 4
_c4_node$3 = -8						; size = 4
_total$ = -4						; size = 4
_team$ = 8						; size = 4
_type$ = 12						; size = 4
?Get_C4_Count@@YAHHH@Z PROC				; Get_C4_Count, COMDAT

; 614  : {

	push	ebp
	mov	ebp, esp
	sub	esp, 80					; 00000050H
	push	ebx
	push	esi
	push	edi

; 615  : 	int total = 0;

	mov	DWORD PTR _total$[ebp], 0

; 616  : 
; 617  : 	for (auto c4_node = GameObjManager::C4GameObjList.Head(); c4_node; c4_node = c4_node->Next())

	mov	ecx, DWORD PTR __imp_?C4GameObjList@GameObjManager@@2V?$SList@VC4GameObj@@@@A
	call	?Head@?$SList@VC4GameObj@@@@QBEPAV?$SLNode@VC4GameObj@@@@XZ ; SList<C4GameObj>::Head
	mov	DWORD PTR _c4_node$3[ebp], eax
	jmp	SHORT $LN6@Get_C4_Cou
$LN5@Get_C4_Cou:
	mov	ecx, DWORD PTR _c4_node$3[ebp]
	call	?Next@?$SLNode@VC4GameObj@@@@QBEPAV1@XZ	; SLNode<C4GameObj>::Next
	mov	DWORD PTR _c4_node$3[ebp], eax
$LN6@Get_C4_Cou:
	cmp	DWORD PTR _c4_node$3[ebp], 0
	je	SHORT $LN4@Get_C4_Cou

; 618  : 	{
; 619  : 		C4GameObj* c4 = c4_node->Data();

	mov	ecx, DWORD PTR _c4_node$3[ebp]
	call	?Data@?$SLNode@VC4GameObj@@@@QBEPAVC4GameObj@@XZ ; SLNode<C4GameObj>::Data
	mov	DWORD PTR _c4$2[ebp], eax

; 620  : 		const AmmoDefinitionClass* ammo = c4->Get_Ammo_Def();

	mov	ecx, DWORD PTR _c4$2[ebp]
	call	?Get_Ammo_Def@C4GameObj@@QAEPBVAmmoDefinitionClass@@XZ ; C4GameObj::Get_Ammo_Def
	mov	DWORD PTR _ammo$1[ebp], eax

; 621  : 		if ((type == 0 || type == ammo->AmmoType) && (team == 2 || team == c4->Get_Player_Type()))

	cmp	DWORD PTR _type$[ebp], 0
	je	SHORT $LN2@Get_C4_Cou
	mov	ecx, DWORD PTR _ammo$1[ebp]
	add	ecx, 140				; 0000008cH
	call	??B?$SafeDataClass@H@@QBEHXZ		; SafeDataClass<int>::operator int
	cmp	DWORD PTR _type$[ebp], eax
	jne	SHORT $LN3@Get_C4_Cou
$LN2@Get_C4_Cou:
	cmp	DWORD PTR _team$[ebp], 2
	je	SHORT $LN1@Get_C4_Cou
	mov	eax, DWORD PTR _c4$2[ebp]
	mov	edx, DWORD PTR [eax]
	mov	ecx, DWORD PTR _c4$2[ebp]
	mov	eax, DWORD PTR [edx+104]
	call	eax
	cmp	DWORD PTR _team$[ebp], eax
	jne	SHORT $LN3@Get_C4_Cou
$LN1@Get_C4_Cou:

; 622  : 		{
; 623  : 			++total;

	mov	eax, DWORD PTR _total$[ebp]
	add	eax, 1
	mov	DWORD PTR _total$[ebp], eax
$LN3@Get_C4_Cou:

; 624  : 		}
; 625  : 	}

	jmp	SHORT $LN5@Get_C4_Cou
$LN4@Get_C4_Cou:

; 626  : 
; 627  : 	return total;

	mov	eax, DWORD PTR _total$[ebp]

; 628  : }

	pop	edi
	pop	esi
	pop	ebx
	mov	esp, ebp
	pop	ebp
	ret	0
?Get_C4_Count@@YAHHH@Z ENDP				; Get_C4_Count
_TEXT	ENDS
; Function compile flags: /Odtp /ZI
; File x:\github\renegade\dragonade_rxd\scripts\engine_weap.cpp
;	COMDAT ?Find_Beacon@@YAPAVScriptableGameObj@@HH@Z
_TEXT	SEGMENT
_o$1 = -16						; size = 4
_x$ = -12						; size = 4
_ReturnObj$ = -8					; size = 4
_Total$ = -4						; size = 4
_Number$ = 8						; size = 4
_Team$ = 12						; size = 4
?Find_Beacon@@YAPAVScriptableGameObj@@HH@Z PROC		; Find_Beacon, COMDAT

; 793  : {

	push	ebp
	mov	ebp, esp
	sub	esp, 80					; 00000050H
	push	ebx
	push	esi
	push	edi

; 794  : 	if (Number < 0)

	cmp	DWORD PTR _Number$[ebp], 0
	jge	SHORT $LN9@Find_Beaco

; 795  : 	{
; 796  : 		Number = 0;

	mov	DWORD PTR _Number$[ebp], 0
$LN9@Find_Beaco:

; 797  : 	}
; 798  : 	if (!Number)

	cmp	DWORD PTR _Number$[ebp], 0
	jne	SHORT $LN8@Find_Beaco

; 799  : 	{
; 800  : 		return 0;

	xor	eax, eax
	jmp	SHORT $LN10@Find_Beaco
$LN8@Find_Beaco:

; 801  : 	}
; 802  : 	int Total = 0;

	mov	DWORD PTR _Total$[ebp], 0

; 803  : 	GameObject *ReturnObj = 0;

	mov	DWORD PTR _ReturnObj$[ebp], 0

; 804  : 	SLNode<BeaconGameObj> *x = GameObjManager::BeaconGameObjList.Head();

	mov	ecx, DWORD PTR __imp_?BeaconGameObjList@GameObjManager@@2V?$SList@VBeaconGameObj@@@@A
	call	?Head@?$SList@VBeaconGameObj@@@@QBEPAV?$SLNode@VBeaconGameObj@@@@XZ ; SList<BeaconGameObj>::Head
	mov	DWORD PTR _x$[ebp], eax
$LN7@Find_Beaco:

; 805  : 	while (x)

	cmp	DWORD PTR _x$[ebp], 0
	je	SHORT $LN6@Find_Beaco

; 806  : 	{
; 807  : 		GameObject *o = (GameObject *)x->Data();

	mov	ecx, DWORD PTR _x$[ebp]
	call	?Data@?$SLNode@VBeaconGameObj@@@@QBEPAVBeaconGameObj@@XZ ; SLNode<BeaconGameObj>::Data
	mov	DWORD PTR _o$1[ebp], eax

; 808  : 		if (o)

	cmp	DWORD PTR _o$1[ebp], 0
	je	SHORT $LN5@Find_Beaco

; 809  : 		{
; 810  : 			if (Team == 2)

	cmp	DWORD PTR _Team$[ebp], 2
	jne	SHORT $LN4@Find_Beaco

; 811  : 			{
; 812  : 				Total++;

	mov	eax, DWORD PTR _Total$[ebp]
	add	eax, 1
	mov	DWORD PTR _Total$[ebp], eax
	jmp	SHORT $LN3@Find_Beaco
$LN4@Find_Beaco:

; 813  : 			}
; 814  : 			else if (Get_Object_Type(o) == Team)

	mov	eax, DWORD PTR _o$1[ebp]
	push	eax
	call	?Get_Object_Type@@YAHPAVScriptableGameObj@@@Z ; Get_Object_Type
	add	esp, 4
	cmp	eax, DWORD PTR _Team$[ebp]
	jne	SHORT $LN3@Find_Beaco

; 815  : 			{
; 816  : 				Total++;

	mov	eax, DWORD PTR _Total$[ebp]
	add	eax, 1
	mov	DWORD PTR _Total$[ebp], eax
$LN3@Find_Beaco:

; 817  : 			}
; 818  : 			if (Total == Number) ReturnObj = o;

	mov	eax, DWORD PTR _Total$[ebp]
	cmp	eax, DWORD PTR _Number$[ebp]
	jne	SHORT $LN5@Find_Beaco
	mov	eax, DWORD PTR _o$1[ebp]
	mov	DWORD PTR _ReturnObj$[ebp], eax
$LN5@Find_Beaco:

; 819  : 		}
; 820  : 		x = x->Next();

	mov	ecx, DWORD PTR _x$[ebp]
	call	?Next@?$SLNode@VBeaconGameObj@@@@QBEPAV1@XZ ; SLNode<BeaconGameObj>::Next
	mov	DWORD PTR _x$[ebp], eax

; 821  : 	}

	jmp	SHORT $LN7@Find_Beaco
$LN6@Find_Beaco:

; 822  : 	return ReturnObj;

	mov	eax, DWORD PTR _ReturnObj$[ebp]
$LN10@Find_Beaco:

; 823  : }

	pop	edi
	pop	esi
	pop	ebx
	mov	esp, ebp
	pop	ebp
	ret	0
?Find_Beacon@@YAPAVScriptableGameObj@@HH@Z ENDP		; Find_Beacon
_TEXT	ENDS
; Function compile flags: /Odtp /ZI
; File x:\github\renegade\dragonade_rxd\scripts\engine_weap.cpp
;	COMDAT ?Has_Weapon@@YA_NPAVScriptableGameObj@@PBD@Z
_TEXT	SEGMENT
_i$1 = -20						; size = 4
_x$ = -16						; size = 4
_w$ = -12						; size = 4
_o3$ = -8						; size = 4
_o2$ = -4						; size = 4
_obj$ = 8						; size = 4
_weapon$ = 12						; size = 4
?Has_Weapon@@YA_NPAVScriptableGameObj@@PBD@Z PROC	; Has_Weapon, COMDAT

; 762  : {

	push	ebp
	mov	ebp, esp
	sub	esp, 84					; 00000054H
	push	ebx
	push	esi
	push	edi

; 763  : 	if (!obj)

	cmp	DWORD PTR _obj$[ebp], 0
	jne	SHORT $LN8@Has_Weapon

; 764  : 	{
; 765  : 		return 0;

	xor	al, al
	jmp	$LN9@Has_Weapon
$LN8@Has_Weapon:

; 766  : 	}
; 767  : 	PhysicalGameObj *o2 = obj->As_PhysicalGameObj();

	mov	eax, DWORD PTR _obj$[ebp]
	mov	edx, DWORD PTR [eax]
	mov	ecx, DWORD PTR _obj$[ebp]
	mov	eax, DWORD PTR [edx+36]
	call	eax
	mov	DWORD PTR _o2$[ebp], eax

; 768  : 	if (!o2)

	cmp	DWORD PTR _o2$[ebp], 0
	jne	SHORT $LN7@Has_Weapon

; 769  : 	{
; 770  : 		return 0;

	xor	al, al
	jmp	$LN9@Has_Weapon
$LN7@Has_Weapon:

; 771  : 	}
; 772  : 	ArmedGameObj *o3 = o2->As_ArmedGameObj();

	mov	eax, DWORD PTR _o2$[ebp]
	mov	edx, DWORD PTR [eax]
	mov	ecx, DWORD PTR _o2$[ebp]
	mov	eax, DWORD PTR [edx+148]
	call	eax
	mov	DWORD PTR _o3$[ebp], eax

; 773  : 	if (!o3)

	cmp	DWORD PTR _o3$[ebp], 0
	jne	SHORT $LN6@Has_Weapon

; 774  : 	{
; 775  : 		return 0;

	xor	al, al
	jmp	SHORT $LN9@Has_Weapon
$LN6@Has_Weapon:

; 776  : 	}
; 777  : 	WeaponBagClass *w = o3->Get_Weapon_Bag();

	mov	ecx, DWORD PTR _o3$[ebp]
	call	?Get_Weapon_Bag@ArmedGameObj@@QAEPAVWeaponBagClass@@XZ ; ArmedGameObj::Get_Weapon_Bag
	mov	DWORD PTR _w$[ebp], eax

; 778  : 	int x = w->Get_Count();

	mov	ecx, DWORD PTR _w$[ebp]
	call	?Get_Count@WeaponBagClass@@QAEHXZ	; WeaponBagClass::Get_Count
	mov	DWORD PTR _x$[ebp], eax

; 779  : 	for (int i = 0;i < x;i++)

	mov	DWORD PTR _i$1[ebp], 0
	jmp	SHORT $LN5@Has_Weapon
$LN4@Has_Weapon:
	mov	eax, DWORD PTR _i$1[ebp]
	add	eax, 1
	mov	DWORD PTR _i$1[ebp], eax
$LN5@Has_Weapon:
	mov	eax, DWORD PTR _i$1[ebp]
	cmp	eax, DWORD PTR _x$[ebp]
	jge	SHORT $LN3@Has_Weapon

; 780  : 	{
; 781  : 		if (w->Peek_Weapon(i))

	mov	eax, DWORD PTR _i$1[ebp]
	push	eax
	mov	ecx, DWORD PTR _w$[ebp]
	call	?Peek_Weapon@WeaponBagClass@@QAEPAVWeaponClass@@H@Z ; WeaponBagClass::Peek_Weapon
	test	eax, eax
	je	SHORT $LN2@Has_Weapon

; 782  : 		{
; 783  : 			if (!_stricmp(w->Peek_Weapon(i)->Get_Name(),weapon))

	mov	eax, DWORD PTR _weapon$[ebp]
	push	eax
	mov	ecx, DWORD PTR _i$1[ebp]
	push	ecx
	mov	ecx, DWORD PTR _w$[ebp]
	call	?Peek_Weapon@WeaponBagClass@@QAEPAVWeaponClass@@H@Z ; WeaponBagClass::Peek_Weapon
	mov	ecx, eax
	call	?Get_Name@WeaponClass@@QAEPBDXZ		; WeaponClass::Get_Name
	push	eax
	call	DWORD PTR __imp___stricmp
	add	esp, 8
	test	eax, eax
	jne	SHORT $LN2@Has_Weapon

; 784  : 			{
; 785  : 				return true;

	mov	al, 1
	jmp	SHORT $LN9@Has_Weapon
$LN2@Has_Weapon:

; 786  : 			}
; 787  : 		}
; 788  : 	}

	jmp	SHORT $LN4@Has_Weapon
$LN3@Has_Weapon:

; 789  : 	return false;

	xor	al, al
$LN9@Has_Weapon:

; 790  : }

	pop	edi
	pop	esi
	pop	ebx
	mov	esp, ebp
	pop	ebp
	ret	0
?Has_Weapon@@YA_NPAVScriptableGameObj@@PBD@Z ENDP	; Has_Weapon
_TEXT	ENDS
; Function compile flags: /Odtp /ZI
; File x:\github\renegade\dragonade_rxd\scripts\engine_weap.cpp
;	COMDAT ?Get_Weapon@@YAPBDPAVScriptableGameObj@@H@Z
_TEXT	SEGMENT
_w$ = -12						; size = 4
_o3$ = -8						; size = 4
_o2$ = -4						; size = 4
_obj$ = 8						; size = 4
_position$ = 12						; size = 4
?Get_Weapon@@YAPBDPAVScriptableGameObj@@H@Z PROC	; Get_Weapon, COMDAT

; 738  : {

	push	ebp
	mov	ebp, esp
	sub	esp, 76					; 0000004cH
	push	ebx
	push	esi
	push	edi

; 739  : 	if (!obj)

	cmp	DWORD PTR _obj$[ebp], 0
	jne	SHORT $LN4@Get_Weapon

; 740  : 	{
; 741  : 		return "None";

	mov	eax, OFFSET ??_C@_04OHJIHAFH@None?$AA@
	jmp	SHORT $LN5@Get_Weapon
$LN4@Get_Weapon:

; 742  : 	}
; 743  : 	PhysicalGameObj *o2 = obj->As_PhysicalGameObj();

	mov	eax, DWORD PTR _obj$[ebp]
	mov	edx, DWORD PTR [eax]
	mov	ecx, DWORD PTR _obj$[ebp]
	mov	eax, DWORD PTR [edx+36]
	call	eax
	mov	DWORD PTR _o2$[ebp], eax

; 744  : 	if (!o2)

	cmp	DWORD PTR _o2$[ebp], 0
	jne	SHORT $LN3@Get_Weapon

; 745  : 	{
; 746  : 		return "None";

	mov	eax, OFFSET ??_C@_04OHJIHAFH@None?$AA@
	jmp	SHORT $LN5@Get_Weapon
$LN3@Get_Weapon:

; 747  : 	}
; 748  : 	ArmedGameObj *o3 = o2->As_ArmedGameObj();

	mov	eax, DWORD PTR _o2$[ebp]
	mov	edx, DWORD PTR [eax]
	mov	ecx, DWORD PTR _o2$[ebp]
	mov	eax, DWORD PTR [edx+148]
	call	eax
	mov	DWORD PTR _o3$[ebp], eax

; 749  : 	if (!o3)

	cmp	DWORD PTR _o3$[ebp], 0
	jne	SHORT $LN2@Get_Weapon

; 750  : 	{
; 751  : 		return "None";

	mov	eax, OFFSET ??_C@_04OHJIHAFH@None?$AA@
	jmp	SHORT $LN5@Get_Weapon
$LN2@Get_Weapon:

; 752  : 	}
; 753  : 	WeaponBagClass *w = o3->Get_Weapon_Bag();

	mov	ecx, DWORD PTR _o3$[ebp]
	call	?Get_Weapon_Bag@ArmedGameObj@@QAEPAVWeaponBagClass@@XZ ; ArmedGameObj::Get_Weapon_Bag
	mov	DWORD PTR _w$[ebp], eax

; 754  : 	if ((position) && (position < w->Get_Count()))

	cmp	DWORD PTR _position$[ebp], 0
	je	SHORT $LN1@Get_Weapon
	mov	ecx, DWORD PTR _w$[ebp]
	call	?Get_Count@WeaponBagClass@@QAEHXZ	; WeaponBagClass::Get_Count
	cmp	DWORD PTR _position$[ebp], eax
	jge	SHORT $LN1@Get_Weapon

; 755  : 	{
; 756  : 		return (w->Peek_Weapon(position)->Get_Name());

	mov	eax, DWORD PTR _position$[ebp]
	push	eax
	mov	ecx, DWORD PTR _w$[ebp]
	call	?Peek_Weapon@WeaponBagClass@@QAEPAVWeaponClass@@H@Z ; WeaponBagClass::Peek_Weapon
	mov	ecx, eax
	call	?Get_Name@WeaponClass@@QAEPBDXZ		; WeaponClass::Get_Name
	jmp	SHORT $LN5@Get_Weapon
$LN1@Get_Weapon:

; 757  : 	}
; 758  : 	return "None";

	mov	eax, OFFSET ??_C@_04OHJIHAFH@None?$AA@
$LN5@Get_Weapon:

; 759  : }

	pop	edi
	pop	esi
	pop	ebx
	mov	esp, ebp
	pop	ebp
	ret	0
?Get_Weapon@@YAPBDPAVScriptableGameObj@@H@Z ENDP	; Get_Weapon
_TEXT	ENDS
; Function compile flags: /Odtp /ZI
; File x:\github\renegade\dragonade_rxd\scripts\engine_weap.cpp
;	COMDAT ?Get_Weapon_Count@@YAHPAVScriptableGameObj@@@Z
_TEXT	SEGMENT
_w$ = -12						; size = 4
_o3$ = -8						; size = 4
_o2$ = -4						; size = 4
_obj$ = 8						; size = 4
?Get_Weapon_Count@@YAHPAVScriptableGameObj@@@Z PROC	; Get_Weapon_Count, COMDAT

; 718  : {

	push	ebp
	mov	ebp, esp
	sub	esp, 76					; 0000004cH
	push	ebx
	push	esi
	push	edi

; 719  : 	if (!obj)

	cmp	DWORD PTR _obj$[ebp], 0
	jne	SHORT $LN3@Get_Weapon

; 720  : 	{
; 721  : 		return 0;

	xor	eax, eax
	jmp	SHORT $LN4@Get_Weapon
$LN3@Get_Weapon:

; 722  : 	}
; 723  : 	PhysicalGameObj *o2 = obj->As_PhysicalGameObj();

	mov	eax, DWORD PTR _obj$[ebp]
	mov	edx, DWORD PTR [eax]
	mov	ecx, DWORD PTR _obj$[ebp]
	mov	eax, DWORD PTR [edx+36]
	call	eax
	mov	DWORD PTR _o2$[ebp], eax

; 724  : 	if (!o2)

	cmp	DWORD PTR _o2$[ebp], 0
	jne	SHORT $LN2@Get_Weapon

; 725  : 	{
; 726  : 		return 0;

	xor	eax, eax
	jmp	SHORT $LN4@Get_Weapon
$LN2@Get_Weapon:

; 727  : 	}
; 728  : 	ArmedGameObj *o3 = o2->As_ArmedGameObj();

	mov	eax, DWORD PTR _o2$[ebp]
	mov	edx, DWORD PTR [eax]
	mov	ecx, DWORD PTR _o2$[ebp]
	mov	eax, DWORD PTR [edx+148]
	call	eax
	mov	DWORD PTR _o3$[ebp], eax

; 729  : 	if (!o3)

	cmp	DWORD PTR _o3$[ebp], 0
	jne	SHORT $LN1@Get_Weapon

; 730  : 	{
; 731  : 		return 0;

	xor	eax, eax
	jmp	SHORT $LN4@Get_Weapon
$LN1@Get_Weapon:

; 732  : 	}
; 733  : 	WeaponBagClass *w = o3->Get_Weapon_Bag();

	mov	ecx, DWORD PTR _o3$[ebp]
	call	?Get_Weapon_Bag@ArmedGameObj@@QAEPAVWeaponBagClass@@XZ ; ArmedGameObj::Get_Weapon_Bag
	mov	DWORD PTR _w$[ebp], eax

; 734  : 	return w->Get_Count();

	mov	ecx, DWORD PTR _w$[ebp]
	call	?Get_Count@WeaponBagClass@@QAEHXZ	; WeaponBagClass::Get_Count
$LN4@Get_Weapon:

; 735  : }

	pop	edi
	pop	esi
	pop	ebx
	mov	esp, ebp
	pop	ebp
	ret	0
?Get_Weapon_Count@@YAHPAVScriptableGameObj@@@Z ENDP	; Get_Weapon_Count
_TEXT	ENDS
; Function compile flags: /Odtp /ZI
; File x:\github\renegade\dragonade_rxd\scripts\engine_weap.cpp
;	COMDAT ?Get_Current_Weapon@@YAPBDPAVScriptableGameObj@@@Z
_TEXT	SEGMENT
_w$ = -12						; size = 4
_o3$ = -8						; size = 4
_o2$ = -4						; size = 4
_obj$ = 8						; size = 4
?Get_Current_Weapon@@YAPBDPAVScriptableGameObj@@@Z PROC	; Get_Current_Weapon, COMDAT

; 694  : {

	push	ebp
	mov	ebp, esp
	sub	esp, 76					; 0000004cH
	push	ebx
	push	esi
	push	edi

; 695  : 	if (!obj)

	cmp	DWORD PTR _obj$[ebp], 0
	jne	SHORT $LN4@Get_Curren

; 696  : 	{
; 697  : 		return "None";

	mov	eax, OFFSET ??_C@_04OHJIHAFH@None?$AA@
	jmp	$LN5@Get_Curren
$LN4@Get_Curren:

; 698  : 	}
; 699  : 	PhysicalGameObj *o2 = obj->As_PhysicalGameObj();

	mov	eax, DWORD PTR _obj$[ebp]
	mov	edx, DWORD PTR [eax]
	mov	ecx, DWORD PTR _obj$[ebp]
	mov	eax, DWORD PTR [edx+36]
	call	eax
	mov	DWORD PTR _o2$[ebp], eax

; 700  : 	if (!o2)

	cmp	DWORD PTR _o2$[ebp], 0
	jne	SHORT $LN3@Get_Curren

; 701  : 	{
; 702  : 		return "None";

	mov	eax, OFFSET ??_C@_04OHJIHAFH@None?$AA@
	jmp	SHORT $LN5@Get_Curren
$LN3@Get_Curren:

; 703  : 	}
; 704  : 	ArmedGameObj *o3 = o2->As_ArmedGameObj();

	mov	eax, DWORD PTR _o2$[ebp]
	mov	edx, DWORD PTR [eax]
	mov	ecx, DWORD PTR _o2$[ebp]
	mov	eax, DWORD PTR [edx+148]
	call	eax
	mov	DWORD PTR _o3$[ebp], eax

; 705  : 	if (!o3)

	cmp	DWORD PTR _o3$[ebp], 0
	jne	SHORT $LN2@Get_Curren

; 706  : 	{
; 707  : 		return "None";

	mov	eax, OFFSET ??_C@_04OHJIHAFH@None?$AA@
	jmp	SHORT $LN5@Get_Curren
$LN2@Get_Curren:

; 708  : 	}
; 709  : 	WeaponBagClass *w = o3->Get_Weapon_Bag();

	mov	ecx, DWORD PTR _o3$[ebp]
	call	?Get_Weapon_Bag@ArmedGameObj@@QAEPAVWeaponBagClass@@XZ ; ArmedGameObj::Get_Weapon_Bag
	mov	DWORD PTR _w$[ebp], eax

; 710  : 	if ((w->Get_Index()) && (w->Get_Index() < w->Get_Count()))

	mov	ecx, DWORD PTR _w$[ebp]
	call	?Get_Index@WeaponBagClass@@QAEHXZ	; WeaponBagClass::Get_Index
	test	eax, eax
	je	SHORT $LN1@Get_Curren
	mov	ecx, DWORD PTR _w$[ebp]
	call	?Get_Index@WeaponBagClass@@QAEHXZ	; WeaponBagClass::Get_Index
	mov	esi, eax
	mov	ecx, DWORD PTR _w$[ebp]
	call	?Get_Count@WeaponBagClass@@QAEHXZ	; WeaponBagClass::Get_Count
	cmp	esi, eax
	jge	SHORT $LN1@Get_Curren

; 711  : 	{
; 712  : 		return w->Peek_Weapon(w->Get_Index())->Get_Name();

	mov	ecx, DWORD PTR _w$[ebp]
	call	?Get_Index@WeaponBagClass@@QAEHXZ	; WeaponBagClass::Get_Index
	push	eax
	mov	ecx, DWORD PTR _w$[ebp]
	call	?Peek_Weapon@WeaponBagClass@@QAEPAVWeaponClass@@H@Z ; WeaponBagClass::Peek_Weapon
	mov	ecx, eax
	call	?Get_Name@WeaponClass@@QAEPBDXZ		; WeaponClass::Get_Name
	jmp	SHORT $LN5@Get_Curren
$LN1@Get_Curren:

; 713  : 	}
; 714  : 	return "None";

	mov	eax, OFFSET ??_C@_04OHJIHAFH@None?$AA@
$LN5@Get_Curren:

; 715  : }

	pop	edi
	pop	esi
	pop	ebx
	mov	esp, ebp
	pop	ebp
	ret	0
?Get_Current_Weapon@@YAPBDPAVScriptableGameObj@@@Z ENDP	; Get_Current_Weapon
_TEXT	ENDS
; Function compile flags: /Odtp /ZI
; File x:\github\renegade\dragonade_rxd\scripts\engine_weap.cpp
;	COMDAT ?Disarm_All_C4_Beacons@@YAXH@Z
_TEXT	SEGMENT
_o$1 = -16						; size = 4
_x2$ = -12						; size = 4
_o$2 = -8						; size = 4
_x$ = -4						; size = 4
_PlayerID$ = 8						; size = 4
?Disarm_All_C4_Beacons@@YAXH@Z PROC			; Disarm_All_C4_Beacons, COMDAT

; 664  : {

	push	ebp
	mov	ebp, esp
	sub	esp, 80					; 00000050H
	push	ebx
	push	esi
	push	edi

; 665  : 	SLNode<BeaconGameObj> *x = GameObjManager::BeaconGameObjList.Head();

	mov	ecx, DWORD PTR __imp_?BeaconGameObjList@GameObjManager@@2V?$SList@VBeaconGameObj@@@@A
	call	?Head@?$SList@VBeaconGameObj@@@@QBEPAV?$SLNode@VBeaconGameObj@@@@XZ ; SList<BeaconGameObj>::Head
	mov	DWORD PTR _x$[ebp], eax
$LN8@Disarm_All:

; 666  : 	while (x)

	cmp	DWORD PTR _x$[ebp], 0
	je	SHORT $LN7@Disarm_All

; 667  : 	{
; 668  : 		GameObject *o = (GameObject *)x->Data();

	mov	ecx, DWORD PTR _x$[ebp]
	call	?Data@?$SLNode@VBeaconGameObj@@@@QBEPAVBeaconGameObj@@XZ ; SLNode<BeaconGameObj>::Data
	mov	DWORD PTR _o$2[ebp], eax

; 669  : 		if (o)

	cmp	DWORD PTR _o$2[ebp], 0
	je	SHORT $LN6@Disarm_All

; 670  : 		{
; 671  : 			if (Get_Player_ID(Get_Beacon_Planter(o)) == PlayerID)

	mov	eax, DWORD PTR _o$2[ebp]
	push	eax
	call	?Get_Beacon_Planter@@YAPAVScriptableGameObj@@PAV1@@Z ; Get_Beacon_Planter
	add	esp, 4
	push	eax
	call	?Get_Player_ID@@YAJPAVScriptableGameObj@@@Z ; Get_Player_ID
	add	esp, 4
	cmp	eax, DWORD PTR _PlayerID$[ebp]
	jne	SHORT $LN6@Disarm_All

; 672  : 			{
; 673  : 				Disarm_Beacon(o);

	mov	eax, DWORD PTR _o$2[ebp]
	push	eax
	call	?Disarm_Beacon@@YAXPAVScriptableGameObj@@@Z ; Disarm_Beacon
	add	esp, 4
$LN6@Disarm_All:

; 674  : 			}
; 675  : 		}
; 676  : 		x = x->Next();

	mov	ecx, DWORD PTR _x$[ebp]
	call	?Next@?$SLNode@VBeaconGameObj@@@@QBEPAV1@XZ ; SLNode<BeaconGameObj>::Next
	mov	DWORD PTR _x$[ebp], eax

; 677  : 	}

	jmp	SHORT $LN8@Disarm_All
$LN7@Disarm_All:

; 678  : 	SLNode<C4GameObj> *x2 = GameObjManager::C4GameObjList.Head();

	mov	ecx, DWORD PTR __imp_?C4GameObjList@GameObjManager@@2V?$SList@VC4GameObj@@@@A
	call	?Head@?$SList@VC4GameObj@@@@QBEPAV?$SLNode@VC4GameObj@@@@XZ ; SList<C4GameObj>::Head
	mov	DWORD PTR _x2$[ebp], eax
$LN4@Disarm_All:

; 679  : 	while (x2)

	cmp	DWORD PTR _x2$[ebp], 0
	je	SHORT $LN9@Disarm_All

; 680  : 	{
; 681  : 		GameObject *o = (GameObject *)x2->Data();

	mov	ecx, DWORD PTR _x2$[ebp]
	call	?Data@?$SLNode@VC4GameObj@@@@QBEPAVC4GameObj@@XZ ; SLNode<C4GameObj>::Data
	mov	DWORD PTR _o$1[ebp], eax

; 682  : 		if (o)

	cmp	DWORD PTR _o$1[ebp], 0
	je	SHORT $LN2@Disarm_All

; 683  : 		{
; 684  : 			if (Get_Player_ID(Get_C4_Planter(o)) == PlayerID)

	mov	eax, DWORD PTR _o$1[ebp]
	push	eax
	call	?Get_C4_Planter@@YAPAVScriptableGameObj@@PAV1@@Z ; Get_C4_Planter
	add	esp, 4
	push	eax
	call	?Get_Player_ID@@YAJPAVScriptableGameObj@@@Z ; Get_Player_ID
	add	esp, 4
	cmp	eax, DWORD PTR _PlayerID$[ebp]
	jne	SHORT $LN2@Disarm_All

; 685  : 			{
; 686  : 				Disarm_C4(o);

	mov	eax, DWORD PTR _o$1[ebp]
	push	eax
	call	?Disarm_C4@@YAXPAVScriptableGameObj@@@Z	; Disarm_C4
	add	esp, 4
$LN2@Disarm_All:

; 687  : 			}
; 688  : 		}
; 689  : 		x2 = x2->Next();

	mov	ecx, DWORD PTR _x2$[ebp]
	call	?Next@?$SLNode@VC4GameObj@@@@QBEPAV1@XZ	; SLNode<C4GameObj>::Next
	mov	DWORD PTR _x2$[ebp], eax

; 690  : 	}

	jmp	SHORT $LN4@Disarm_All
$LN9@Disarm_All:

; 691  : }

	pop	edi
	pop	esi
	pop	ebx
	mov	esp, ebp
	pop	ebp
	ret	0
?Disarm_All_C4_Beacons@@YAXH@Z ENDP			; Disarm_All_C4_Beacons
_TEXT	ENDS
; Function compile flags: /Odtp /ZI
; File x:\github\renegade\dragonade_rxd\scripts\engine_weap.cpp
;	COMDAT ?Disarm_C4@@YAXPAVScriptableGameObj@@@Z
_TEXT	SEGMENT
_o3$ = -8						; size = 4
_o2$ = -4						; size = 4
_obj$ = 8						; size = 4
?Disarm_C4@@YAXPAVScriptableGameObj@@@Z PROC		; Disarm_C4, COMDAT

; 595  : {

	push	ebp
	mov	ebp, esp
	sub	esp, 72					; 00000048H
	push	ebx
	push	esi
	push	edi

; 596  : 	if (!obj)

	cmp	DWORD PTR _obj$[ebp], 0
	jne	SHORT $LN3@Disarm_C4

; 597  : 	{
; 598  : 		return;

	jmp	SHORT $LN4@Disarm_C4
$LN3@Disarm_C4:

; 599  : 	}
; 600  : 	PhysicalGameObj *o2 = obj->As_PhysicalGameObj();

	mov	eax, DWORD PTR _obj$[ebp]
	mov	edx, DWORD PTR [eax]
	mov	ecx, DWORD PTR _obj$[ebp]
	mov	eax, DWORD PTR [edx+36]
	call	eax
	mov	DWORD PTR _o2$[ebp], eax

; 601  : 	if (!o2)

	cmp	DWORD PTR _o2$[ebp], 0
	jne	SHORT $LN2@Disarm_C4

; 602  : 	{
; 603  : 		return;

	jmp	SHORT $LN4@Disarm_C4
$LN2@Disarm_C4:

; 604  : 	}
; 605  : 	C4GameObj *o3 = o2->As_C4GameObj();

	mov	eax, DWORD PTR _o2$[ebp]
	mov	edx, DWORD PTR [eax]
	mov	ecx, DWORD PTR _o2$[ebp]
	mov	eax, DWORD PTR [edx+140]
	call	eax
	mov	DWORD PTR _o3$[ebp], eax

; 606  : 	if (!o3)

	cmp	DWORD PTR _o3$[ebp], 0
	jne	SHORT $LN1@Disarm_C4

; 607  : 	{
; 608  : 		return;

	jmp	SHORT $LN4@Disarm_C4
$LN1@Disarm_C4:

; 609  : 	}
; 610  : 	o3->Defuse();

	mov	ecx, DWORD PTR _o3$[ebp]
	call	?Defuse@C4GameObj@@QAEXXZ		; C4GameObj::Defuse
$LN4@Disarm_C4:

; 611  : }

	pop	edi
	pop	esi
	pop	ebx
	mov	esp, ebp
	pop	ebp
	ret	0
?Disarm_C4@@YAXPAVScriptableGameObj@@@Z ENDP		; Disarm_C4
_TEXT	ENDS
; Function compile flags: /Odtp /ZI
; File x:\github\renegade\dragonade_rxd\scripts\engine_weap.cpp
;	COMDAT ?Disarm_Beacons@@YAXH@Z
_TEXT	SEGMENT
_o$1 = -8						; size = 4
_x$ = -4						; size = 4
_PlayerID$ = 8						; size = 4
?Disarm_Beacons@@YAXH@Z PROC				; Disarm_Beacons, COMDAT

; 552  : {

	push	ebp
	mov	ebp, esp
	sub	esp, 72					; 00000048H
	push	ebx
	push	esi
	push	edi

; 553  : 	SLNode<BeaconGameObj> *x = GameObjManager::BeaconGameObjList.Head();

	mov	ecx, DWORD PTR __imp_?BeaconGameObjList@GameObjManager@@2V?$SList@VBeaconGameObj@@@@A
	call	?Head@?$SList@VBeaconGameObj@@@@QBEPAV?$SLNode@VBeaconGameObj@@@@XZ ; SList<BeaconGameObj>::Head
	mov	DWORD PTR _x$[ebp], eax
$LN4@Disarm_Bea:

; 554  : 	while (x)

	cmp	DWORD PTR _x$[ebp], 0
	je	SHORT $LN5@Disarm_Bea

; 555  : 	{
; 556  : 		GameObject *o = (GameObject *)x->Data();

	mov	ecx, DWORD PTR _x$[ebp]
	call	?Data@?$SLNode@VBeaconGameObj@@@@QBEPAVBeaconGameObj@@XZ ; SLNode<BeaconGameObj>::Data
	mov	DWORD PTR _o$1[ebp], eax

; 557  : 		if (o)

	cmp	DWORD PTR _o$1[ebp], 0
	je	SHORT $LN2@Disarm_Bea

; 558  : 		{
; 559  : 			if (Get_Player_ID(Get_Beacon_Planter(o)) == PlayerID)

	mov	eax, DWORD PTR _o$1[ebp]
	push	eax
	call	?Get_Beacon_Planter@@YAPAVScriptableGameObj@@PAV1@@Z ; Get_Beacon_Planter
	add	esp, 4
	push	eax
	call	?Get_Player_ID@@YAJPAVScriptableGameObj@@@Z ; Get_Player_ID
	add	esp, 4
	cmp	eax, DWORD PTR _PlayerID$[ebp]
	jne	SHORT $LN2@Disarm_Bea

; 560  : 			{
; 561  : 				Disarm_Beacon(o);

	mov	eax, DWORD PTR _o$1[ebp]
	push	eax
	call	?Disarm_Beacon@@YAXPAVScriptableGameObj@@@Z ; Disarm_Beacon
	add	esp, 4
$LN2@Disarm_Bea:

; 562  : 			}
; 563  : 		}
; 564  : 		x = x->Next();

	mov	ecx, DWORD PTR _x$[ebp]
	call	?Next@?$SLNode@VBeaconGameObj@@@@QBEPAV1@XZ ; SLNode<BeaconGameObj>::Next
	mov	DWORD PTR _x$[ebp], eax

; 565  : 	}

	jmp	SHORT $LN4@Disarm_Bea
$LN5@Disarm_Bea:

; 566  : }

	pop	edi
	pop	esi
	pop	ebx
	mov	esp, ebp
	pop	ebp
	ret	0
?Disarm_Beacons@@YAXH@Z ENDP				; Disarm_Beacons
_TEXT	ENDS
; Function compile flags: /Odtp /ZI
; File x:\github\renegade\dragonade_rxd\scripts\engine_weap.cpp
;	COMDAT ?Disarm_Beacon@@YAXPAVScriptableGameObj@@@Z
_TEXT	SEGMENT
_offense$ = -36						; size = 28
_o3$ = -8						; size = 4
_o2$ = -4						; size = 4
_obj$ = 8						; size = 4
?Disarm_Beacon@@YAXPAVScriptableGameObj@@@Z PROC	; Disarm_Beacon, COMDAT

; 513  : {

	push	ebp
	mov	ebp, esp
	sub	esp, 100				; 00000064H
	push	ebx
	push	esi
	push	edi

; 514  : 	if (!obj)

	cmp	DWORD PTR _obj$[ebp], 0
	jne	SHORT $LN3@Disarm_Bea

; 515  : 	{
; 516  : 		return;

	jmp	SHORT $LN4@Disarm_Bea
$LN3@Disarm_Bea:

; 517  : 	}
; 518  : 	PhysicalGameObj *o2 = obj->As_PhysicalGameObj();

	mov	eax, DWORD PTR _obj$[ebp]
	mov	edx, DWORD PTR [eax]
	mov	ecx, DWORD PTR _obj$[ebp]
	mov	eax, DWORD PTR [edx+36]
	call	eax
	mov	DWORD PTR _o2$[ebp], eax

; 519  : 	if (!o2)

	cmp	DWORD PTR _o2$[ebp], 0
	jne	SHORT $LN2@Disarm_Bea

; 520  : 	{
; 521  : 		return;

	jmp	SHORT $LN4@Disarm_Bea
$LN2@Disarm_Bea:

; 522  : 	}
; 523  : 	BeaconGameObj *o3 = o2->As_BeaconGameObj();

	mov	eax, DWORD PTR _o2$[ebp]
	mov	edx, DWORD PTR [eax]
	mov	ecx, DWORD PTR _o2$[ebp]
	mov	eax, DWORD PTR [edx+144]
	call	eax
	mov	DWORD PTR _o3$[ebp], eax

; 524  : 	if (!o3)

	cmp	DWORD PTR _o3$[ebp], 0
	jne	SHORT $LN1@Disarm_Bea

; 525  : 	{
; 526  : 		return;

	jmp	SHORT $LN4@Disarm_Bea
$LN1@Disarm_Bea:

; 527  : 	}
; 528  : 	OffenseObjectClass offense(0);

	push	0
	push	0
	push	ecx
	movss	xmm0, DWORD PTR __real@00000000
	movss	DWORD PTR [esp], xmm0
	lea	ecx, DWORD PTR _offense$[ebp]
	call	??0OffenseObjectClass@@QAE@MIPAVArmedGameObj@@@Z ; OffenseObjectClass::OffenseObjectClass

; 529  : 	o3->Completely_Damaged(offense);

	lea	eax, DWORD PTR _offense$[ebp]
	push	eax
	mov	ecx, DWORD PTR _o3$[ebp]
	mov	edx, DWORD PTR [ecx]
	mov	ecx, DWORD PTR _o3$[ebp]
	mov	eax, DWORD PTR [edx+88]
	call	eax

; 530  : }

	lea	ecx, DWORD PTR _offense$[ebp]
	call	??1OffenseObjectClass@@QAE@XZ		; OffenseObjectClass::~OffenseObjectClass
$LN4@Disarm_Bea:
	pop	edi
	pop	esi
	pop	ebx
	mov	esp, ebp
	pop	ebp
	ret	0
?Disarm_Beacon@@YAXPAVScriptableGameObj@@@Z ENDP	; Disarm_Beacon
_TEXT	ENDS
; Function compile flags: /Odtp /ZI
; File x:\github\renegade\dragonade_rxd\scripts\engine_weap.cpp
;	COMDAT ?Get_Weapon_Style@@YAHPAVScriptableGameObj@@PBD@Z
_TEXT	SEGMENT
_wc$1 = -24						; size = 4
_i$2 = -20						; size = 4
_x$ = -16						; size = 4
_w$ = -12						; size = 4
_o3$ = -8						; size = 4
_o2$ = -4						; size = 4
_obj$ = 8						; size = 4
_weapon$ = 12						; size = 4
?Get_Weapon_Style@@YAHPAVScriptableGameObj@@PBD@Z PROC	; Get_Weapon_Style, COMDAT

; 481  : {

	push	ebp
	mov	ebp, esp
	sub	esp, 88					; 00000058H
	push	ebx
	push	esi
	push	edi

; 482  : 	if (!obj)

	cmp	DWORD PTR _obj$[ebp], 0
	jne	SHORT $LN8@Get_Weapon

; 483  : 	{
; 484  : 		return 0;

	xor	eax, eax
	jmp	$LN9@Get_Weapon
$LN8@Get_Weapon:

; 485  : 	}
; 486  : 	PhysicalGameObj *o2 = obj->As_PhysicalGameObj();

	mov	eax, DWORD PTR _obj$[ebp]
	mov	edx, DWORD PTR [eax]
	mov	ecx, DWORD PTR _obj$[ebp]
	mov	eax, DWORD PTR [edx+36]
	call	eax
	mov	DWORD PTR _o2$[ebp], eax

; 487  : 	if (!o2)

	cmp	DWORD PTR _o2$[ebp], 0
	jne	SHORT $LN7@Get_Weapon

; 488  : 	{
; 489  : 		return 0;

	xor	eax, eax
	jmp	$LN9@Get_Weapon
$LN7@Get_Weapon:

; 490  : 	}
; 491  : 	ArmedGameObj *o3 = o2->As_ArmedGameObj();

	mov	eax, DWORD PTR _o2$[ebp]
	mov	edx, DWORD PTR [eax]
	mov	ecx, DWORD PTR _o2$[ebp]
	mov	eax, DWORD PTR [edx+148]
	call	eax
	mov	DWORD PTR _o3$[ebp], eax

; 492  : 	if (!o3)

	cmp	DWORD PTR _o3$[ebp], 0
	jne	SHORT $LN6@Get_Weapon

; 493  : 	{
; 494  : 		return 0;

	xor	eax, eax
	jmp	$LN9@Get_Weapon
$LN6@Get_Weapon:

; 495  : 	}
; 496  : 	WeaponBagClass *w = o3->Get_Weapon_Bag();

	mov	ecx, DWORD PTR _o3$[ebp]
	call	?Get_Weapon_Bag@ArmedGameObj@@QAEPAVWeaponBagClass@@XZ ; ArmedGameObj::Get_Weapon_Bag
	mov	DWORD PTR _w$[ebp], eax

; 497  : 	int x = w->Get_Count();

	mov	ecx, DWORD PTR _w$[ebp]
	call	?Get_Count@WeaponBagClass@@QAEHXZ	; WeaponBagClass::Get_Count
	mov	DWORD PTR _x$[ebp], eax

; 498  : 	for (int i = 0;i < x;i++)

	mov	DWORD PTR _i$2[ebp], 0
	jmp	SHORT $LN5@Get_Weapon
$LN4@Get_Weapon:
	mov	eax, DWORD PTR _i$2[ebp]
	add	eax, 1
	mov	DWORD PTR _i$2[ebp], eax
$LN5@Get_Weapon:
	mov	eax, DWORD PTR _i$2[ebp]
	cmp	eax, DWORD PTR _x$[ebp]
	jge	SHORT $LN3@Get_Weapon

; 499  : 	{
; 500  : 		if (w->Peek_Weapon(i))

	mov	eax, DWORD PTR _i$2[ebp]
	push	eax
	mov	ecx, DWORD PTR _w$[ebp]
	call	?Peek_Weapon@WeaponBagClass@@QAEPAVWeaponClass@@H@Z ; WeaponBagClass::Peek_Weapon
	test	eax, eax
	je	SHORT $LN2@Get_Weapon

; 501  : 		{
; 502  : 			if (!_stricmp(w->Peek_Weapon(i)->Get_Name(),weapon))

	mov	eax, DWORD PTR _weapon$[ebp]
	push	eax
	mov	ecx, DWORD PTR _i$2[ebp]
	push	ecx
	mov	ecx, DWORD PTR _w$[ebp]
	call	?Peek_Weapon@WeaponBagClass@@QAEPAVWeaponClass@@H@Z ; WeaponBagClass::Peek_Weapon
	mov	ecx, eax
	call	?Get_Name@WeaponClass@@QAEPBDXZ		; WeaponClass::Get_Name
	push	eax
	call	DWORD PTR __imp___stricmp
	add	esp, 8
	test	eax, eax
	jne	SHORT $LN2@Get_Weapon

; 503  : 			{
; 504  : 				WeaponClass *wc = w->Peek_Weapon(i);

	mov	eax, DWORD PTR _i$2[ebp]
	push	eax
	mov	ecx, DWORD PTR _w$[ebp]
	call	?Peek_Weapon@WeaponBagClass@@QAEPAVWeaponClass@@H@Z ; WeaponBagClass::Peek_Weapon
	mov	DWORD PTR _wc$1[ebp], eax

; 505  : 				return wc->Get_Definition()->Style;

	mov	ecx, DWORD PTR _wc$1[ebp]
	call	?Get_Definition@WeaponClass@@QAEPBVWeaponDefinitionClass@@XZ ; WeaponClass::Get_Definition
	mov	eax, DWORD PTR [eax+28]
	jmp	SHORT $LN9@Get_Weapon
$LN2@Get_Weapon:

; 506  : 			}
; 507  : 		}
; 508  : 	}

	jmp	SHORT $LN4@Get_Weapon
$LN3@Get_Weapon:

; 509  : 	return 0;

	xor	eax, eax
$LN9@Get_Weapon:

; 510  : }

	pop	edi
	pop	esi
	pop	ebx
	mov	esp, ebp
	pop	ebp
	ret	0
?Get_Weapon_Style@@YAHPAVScriptableGameObj@@PBD@Z ENDP	; Get_Weapon_Style
_TEXT	ENDS
; Function compile flags: /Odtp /ZI
; File x:\github\renegade\dragonade_rxd\scripts\engine_weap.cpp
;	COMDAT ?Get_Position_Weapon_Style@@YAHPAVScriptableGameObj@@H@Z
_TEXT	SEGMENT
_wc$1 = -16						; size = 4
_w$ = -12						; size = 4
_o3$ = -8						; size = 4
_o2$ = -4						; size = 4
_obj$ = 8						; size = 4
_position$ = 12						; size = 4
?Get_Position_Weapon_Style@@YAHPAVScriptableGameObj@@H@Z PROC ; Get_Position_Weapon_Style, COMDAT

; 456  : {

	push	ebp
	mov	ebp, esp
	sub	esp, 80					; 00000050H
	push	ebx
	push	esi
	push	edi

; 457  : 	if (!obj)

	cmp	DWORD PTR _obj$[ebp], 0
	jne	SHORT $LN4@Get_Positi

; 458  : 	{
; 459  : 		return 0;

	xor	eax, eax
	jmp	SHORT $LN5@Get_Positi
$LN4@Get_Positi:

; 460  : 	}
; 461  : 	PhysicalGameObj *o2 = obj->As_PhysicalGameObj();

	mov	eax, DWORD PTR _obj$[ebp]
	mov	edx, DWORD PTR [eax]
	mov	ecx, DWORD PTR _obj$[ebp]
	mov	eax, DWORD PTR [edx+36]
	call	eax
	mov	DWORD PTR _o2$[ebp], eax

; 462  : 	if (!o2)

	cmp	DWORD PTR _o2$[ebp], 0
	jne	SHORT $LN3@Get_Positi

; 463  : 	{
; 464  : 		return 0;

	xor	eax, eax
	jmp	SHORT $LN5@Get_Positi
$LN3@Get_Positi:

; 465  : 	}
; 466  : 	ArmedGameObj *o3 = o2->As_ArmedGameObj();

	mov	eax, DWORD PTR _o2$[ebp]
	mov	edx, DWORD PTR [eax]
	mov	ecx, DWORD PTR _o2$[ebp]
	mov	eax, DWORD PTR [edx+148]
	call	eax
	mov	DWORD PTR _o3$[ebp], eax

; 467  : 	if (!o3)

	cmp	DWORD PTR _o3$[ebp], 0
	jne	SHORT $LN2@Get_Positi

; 468  : 	{
; 469  : 		return 0;

	xor	eax, eax
	jmp	SHORT $LN5@Get_Positi
$LN2@Get_Positi:

; 470  : 	}
; 471  : 	WeaponBagClass *w = o3->Get_Weapon_Bag();

	mov	ecx, DWORD PTR _o3$[ebp]
	call	?Get_Weapon_Bag@ArmedGameObj@@QAEPAVWeaponBagClass@@XZ ; ArmedGameObj::Get_Weapon_Bag
	mov	DWORD PTR _w$[ebp], eax

; 472  : 	if ((position) && (position < w->Get_Count()))

	cmp	DWORD PTR _position$[ebp], 0
	je	SHORT $LN1@Get_Positi
	mov	ecx, DWORD PTR _w$[ebp]
	call	?Get_Count@WeaponBagClass@@QAEHXZ	; WeaponBagClass::Get_Count
	cmp	DWORD PTR _position$[ebp], eax
	jge	SHORT $LN1@Get_Positi

; 473  : 	{
; 474  : 		WeaponClass *wc = w->Peek_Weapon(position);

	mov	eax, DWORD PTR _position$[ebp]
	push	eax
	mov	ecx, DWORD PTR _w$[ebp]
	call	?Peek_Weapon@WeaponBagClass@@QAEPAVWeaponClass@@H@Z ; WeaponBagClass::Peek_Weapon
	mov	DWORD PTR _wc$1[ebp], eax

; 475  : 		return wc->Get_Definition()->Style;

	mov	ecx, DWORD PTR _wc$1[ebp]
	call	?Get_Definition@WeaponClass@@QAEPBVWeaponDefinitionClass@@XZ ; WeaponClass::Get_Definition
	mov	eax, DWORD PTR [eax+28]
	jmp	SHORT $LN5@Get_Positi
$LN1@Get_Positi:

; 476  : 	}
; 477  : 	return 0;

	xor	eax, eax
$LN5@Get_Positi:

; 478  : }

	pop	edi
	pop	esi
	pop	ebx
	mov	esp, ebp
	pop	ebp
	ret	0
?Get_Position_Weapon_Style@@YAHPAVScriptableGameObj@@H@Z ENDP ; Get_Position_Weapon_Style
_TEXT	ENDS
; Function compile flags: /Odtp /ZI
; File x:\github\renegade\dragonade_rxd\scripts\engine_weap.cpp
;	COMDAT ?Get_Current_Weapon_Style@@YAHPAVScriptableGameObj@@@Z
_TEXT	SEGMENT
_wc$1 = -16						; size = 4
_w$ = -12						; size = 4
_o3$ = -8						; size = 4
_o2$ = -4						; size = 4
_obj$ = 8						; size = 4
?Get_Current_Weapon_Style@@YAHPAVScriptableGameObj@@@Z PROC ; Get_Current_Weapon_Style, COMDAT

; 431  : {

	push	ebp
	mov	ebp, esp
	sub	esp, 80					; 00000050H
	push	ebx
	push	esi
	push	edi

; 432  : 	if (!obj)

	cmp	DWORD PTR _obj$[ebp], 0
	jne	SHORT $LN4@Get_Curren

; 433  : 	{
; 434  : 		return 0;

	xor	eax, eax
	jmp	$LN5@Get_Curren
$LN4@Get_Curren:

; 435  : 	}
; 436  : 	PhysicalGameObj *o2 = obj->As_PhysicalGameObj();

	mov	eax, DWORD PTR _obj$[ebp]
	mov	edx, DWORD PTR [eax]
	mov	ecx, DWORD PTR _obj$[ebp]
	mov	eax, DWORD PTR [edx+36]
	call	eax
	mov	DWORD PTR _o2$[ebp], eax

; 437  : 	if (!o2)

	cmp	DWORD PTR _o2$[ebp], 0
	jne	SHORT $LN3@Get_Curren

; 438  : 	{
; 439  : 		return 0;

	xor	eax, eax
	jmp	SHORT $LN5@Get_Curren
$LN3@Get_Curren:

; 440  : 	}
; 441  : 	ArmedGameObj *o3 = o2->As_ArmedGameObj();

	mov	eax, DWORD PTR _o2$[ebp]
	mov	edx, DWORD PTR [eax]
	mov	ecx, DWORD PTR _o2$[ebp]
	mov	eax, DWORD PTR [edx+148]
	call	eax
	mov	DWORD PTR _o3$[ebp], eax

; 442  : 	if (!o3)

	cmp	DWORD PTR _o3$[ebp], 0
	jne	SHORT $LN2@Get_Curren

; 443  : 	{
; 444  : 		return 0;

	xor	eax, eax
	jmp	SHORT $LN5@Get_Curren
$LN2@Get_Curren:

; 445  : 	}
; 446  : 	WeaponBagClass *w = o3->Get_Weapon_Bag();

	mov	ecx, DWORD PTR _o3$[ebp]
	call	?Get_Weapon_Bag@ArmedGameObj@@QAEPAVWeaponBagClass@@XZ ; ArmedGameObj::Get_Weapon_Bag
	mov	DWORD PTR _w$[ebp], eax

; 447  : 	if ((w->Get_Index()) && (w->Get_Index() < w->Get_Count()))

	mov	ecx, DWORD PTR _w$[ebp]
	call	?Get_Index@WeaponBagClass@@QAEHXZ	; WeaponBagClass::Get_Index
	test	eax, eax
	je	SHORT $LN1@Get_Curren
	mov	ecx, DWORD PTR _w$[ebp]
	call	?Get_Index@WeaponBagClass@@QAEHXZ	; WeaponBagClass::Get_Index
	mov	esi, eax
	mov	ecx, DWORD PTR _w$[ebp]
	call	?Get_Count@WeaponBagClass@@QAEHXZ	; WeaponBagClass::Get_Count
	cmp	esi, eax
	jge	SHORT $LN1@Get_Curren

; 448  : 	{
; 449  : 		WeaponClass *wc = w->Peek_Weapon(w->Get_Index());

	mov	ecx, DWORD PTR _w$[ebp]
	call	?Get_Index@WeaponBagClass@@QAEHXZ	; WeaponBagClass::Get_Index
	push	eax
	mov	ecx, DWORD PTR _w$[ebp]
	call	?Peek_Weapon@WeaponBagClass@@QAEPAVWeaponClass@@H@Z ; WeaponBagClass::Peek_Weapon
	mov	DWORD PTR _wc$1[ebp], eax

; 450  : 		return wc->Get_Definition()->Style;

	mov	ecx, DWORD PTR _wc$1[ebp]
	call	?Get_Definition@WeaponClass@@QAEPBVWeaponDefinitionClass@@XZ ; WeaponClass::Get_Definition
	mov	eax, DWORD PTR [eax+28]
	jmp	SHORT $LN5@Get_Curren
$LN1@Get_Curren:

; 451  : 	}
; 452  : 	return 0;

	xor	eax, eax
$LN5@Get_Curren:

; 453  : }

	pop	edi
	pop	esi
	pop	ebx
	mov	esp, ebp
	pop	ebp
	ret	0
?Get_Current_Weapon_Style@@YAHPAVScriptableGameObj@@@Z ENDP ; Get_Current_Weapon_Style
_TEXT	ENDS
; Function compile flags: /Odtp /ZI
; File x:\github\renegade\dragonade_rxd\scripts\engine_weap.cpp
;	COMDAT ?Get_Powerup_Weapon_By_Obj@@YAPBDPAVScriptableGameObj@@@Z
_TEXT	SEGMENT
_weapondef$1 = -12					; size = 4
_c$ = -8						; size = 4
_powerupdef$ = -4					; size = 4
_Powerup$ = 8						; size = 4
?Get_Powerup_Weapon_By_Obj@@YAPBDPAVScriptableGameObj@@@Z PROC ; Get_Powerup_Weapon_By_Obj, COMDAT

; 411  : {

	push	ebp
	mov	ebp, esp
	sub	esp, 76					; 0000004cH
	push	ebx
	push	esi
	push	edi

; 412  : 	if (!Powerup)

	cmp	DWORD PTR _Powerup$[ebp], 0
	jne	SHORT $LN3@Get_Poweru

; 413  : 	{
; 414  : 		return "None";

	mov	eax, OFFSET ??_C@_04OHJIHAFH@None?$AA@
	jmp	SHORT $LN4@Get_Poweru
$LN3@Get_Poweru:

; 415  : 	}
; 416  : 	const DefinitionClass *powerupdef = &Powerup->Get_Definition();

	mov	ecx, DWORD PTR _Powerup$[ebp]
	call	?Get_Definition@ScriptableGameObj@@QBEABVScriptableGameObjDef@@XZ ; ScriptableGameObj::Get_Definition
	mov	DWORD PTR _powerupdef$[ebp], eax

; 417  : 	PowerUpGameObjDef *c = (PowerUpGameObjDef *)powerupdef;

	mov	eax, DWORD PTR _powerupdef$[ebp]
	mov	DWORD PTR _c$[ebp], eax

; 418  : 	if (!c)

	cmp	DWORD PTR _c$[ebp], 0
	jne	SHORT $LN2@Get_Poweru

; 419  : 	{
; 420  : 		return "None";

	mov	eax, OFFSET ??_C@_04OHJIHAFH@None?$AA@
	jmp	SHORT $LN4@Get_Poweru
$LN2@Get_Poweru:

; 421  : 	}
; 422  : 	if (c->Get_Grant_Weapon_ID())

	mov	ecx, DWORD PTR _c$[ebp]
	call	?Get_Grant_Weapon_ID@PowerUpGameObjDef@@QBEHXZ ; PowerUpGameObjDef::Get_Grant_Weapon_ID
	test	eax, eax
	je	SHORT $LN1@Get_Poweru

; 423  : 	{
; 424  : 		DefinitionClass *weapondef = Find_Definition(c->Get_Grant_Weapon_ID());

	mov	ecx, DWORD PTR _c$[ebp]
	call	?Get_Grant_Weapon_ID@PowerUpGameObjDef@@QBEHXZ ; PowerUpGameObjDef::Get_Grant_Weapon_ID
	push	eax
	call	?Find_Definition@@YAPAVDefinitionClass@@K@Z ; Find_Definition
	add	esp, 4
	mov	DWORD PTR _weapondef$1[ebp], eax

; 425  : 		return weapondef->Get_Name();

	mov	eax, DWORD PTR _weapondef$1[ebp]
	mov	edx, DWORD PTR [eax]
	mov	ecx, DWORD PTR _weapondef$1[ebp]
	mov	eax, DWORD PTR [edx+48]
	call	eax
	jmp	SHORT $LN4@Get_Poweru
$LN1@Get_Poweru:

; 426  : 	}
; 427  : 	return "None";

	mov	eax, OFFSET ??_C@_04OHJIHAFH@None?$AA@
$LN4@Get_Poweru:

; 428  : }

	pop	edi
	pop	esi
	pop	ebx
	mov	esp, ebp
	pop	ebp
	ret	0
?Get_Powerup_Weapon_By_Obj@@YAPBDPAVScriptableGameObj@@@Z ENDP ; Get_Powerup_Weapon_By_Obj
_TEXT	ENDS
; Function compile flags: /Odtp /ZI
; File x:\github\renegade\dragonade_rxd\scripts\engine_weap.cpp
;	COMDAT ?Get_Explosion@@YAPBVExplosionDefinitionClass@@PBD@Z
_TEXT	SEGMENT
_explosion$ = 8						; size = 4
?Get_Explosion@@YAPBVExplosionDefinitionClass@@PBD@Z PROC ; Get_Explosion, COMDAT

; 406  : {

	push	ebp
	mov	ebp, esp
	sub	esp, 64					; 00000040H
	push	ebx
	push	esi
	push	edi

; 407  : 	return (ExplosionDefinitionClass *)Find_Named_Definition(explosion);

	mov	eax, DWORD PTR _explosion$[ebp]
	push	eax
	call	?Find_Named_Definition@@YAPAVDefinitionClass@@PBD@Z ; Find_Named_Definition
	add	esp, 4

; 408  : }

	pop	edi
	pop	esi
	pop	ebx
	mov	esp, ebp
	pop	ebp
	ret	0
?Get_Explosion@@YAPBVExplosionDefinitionClass@@PBD@Z ENDP ; Get_Explosion
_TEXT	ENDS
; Function compile flags: /Odtp /ZI
; File x:\github\renegade\dragonade_rxd\scripts\engine_weap.cpp
;	COMDAT ?Get_Position_Weapon_Definition@@YAPBVWeaponDefinitionClass@@PAVScriptableGameObj@@H@Z
_TEXT	SEGMENT
_w$ = -12						; size = 4
_o3$ = -8						; size = 4
_o2$ = -4						; size = 4
_obj$ = 8						; size = 4
_position$ = 12						; size = 4
?Get_Position_Weapon_Definition@@YAPBVWeaponDefinitionClass@@PAVScriptableGameObj@@H@Z PROC ; Get_Position_Weapon_Definition, COMDAT

; 382  : {

	push	ebp
	mov	ebp, esp
	sub	esp, 76					; 0000004cH
	push	ebx
	push	esi
	push	edi

; 383  : 	if (!obj)

	cmp	DWORD PTR _obj$[ebp], 0
	jne	SHORT $LN4@Get_Positi

; 384  : 	{
; 385  : 		return 0;

	xor	eax, eax
	jmp	SHORT $LN5@Get_Positi
$LN4@Get_Positi:

; 386  : 	}
; 387  : 	PhysicalGameObj *o2 = obj->As_PhysicalGameObj();

	mov	eax, DWORD PTR _obj$[ebp]
	mov	edx, DWORD PTR [eax]
	mov	ecx, DWORD PTR _obj$[ebp]
	mov	eax, DWORD PTR [edx+36]
	call	eax
	mov	DWORD PTR _o2$[ebp], eax

; 388  : 	if (!o2)

	cmp	DWORD PTR _o2$[ebp], 0
	jne	SHORT $LN3@Get_Positi

; 389  : 	{
; 390  : 		return 0;

	xor	eax, eax
	jmp	SHORT $LN5@Get_Positi
$LN3@Get_Positi:

; 391  : 	}
; 392  : 	ArmedGameObj *o3 = o2->As_ArmedGameObj();

	mov	eax, DWORD PTR _o2$[ebp]
	mov	edx, DWORD PTR [eax]
	mov	ecx, DWORD PTR _o2$[ebp]
	mov	eax, DWORD PTR [edx+148]
	call	eax
	mov	DWORD PTR _o3$[ebp], eax

; 393  : 	if (!o3)

	cmp	DWORD PTR _o3$[ebp], 0
	jne	SHORT $LN2@Get_Positi

; 394  : 	{
; 395  : 		return 0;

	xor	eax, eax
	jmp	SHORT $LN5@Get_Positi
$LN2@Get_Positi:

; 396  : 	}
; 397  : 	WeaponBagClass *w = o3->Get_Weapon_Bag();

	mov	ecx, DWORD PTR _o3$[ebp]
	call	?Get_Weapon_Bag@ArmedGameObj@@QAEPAVWeaponBagClass@@XZ ; ArmedGameObj::Get_Weapon_Bag
	mov	DWORD PTR _w$[ebp], eax

; 398  : 	if ((position) && (position < w->Get_Count()))

	cmp	DWORD PTR _position$[ebp], 0
	je	SHORT $LN1@Get_Positi
	mov	ecx, DWORD PTR _w$[ebp]
	call	?Get_Count@WeaponBagClass@@QAEHXZ	; WeaponBagClass::Get_Count
	cmp	DWORD PTR _position$[ebp], eax
	jge	SHORT $LN1@Get_Positi

; 399  : 	{
; 400  : 		return w->Peek_Weapon(position)->Get_Definition();

	mov	eax, DWORD PTR _position$[ebp]
	push	eax
	mov	ecx, DWORD PTR _w$[ebp]
	call	?Peek_Weapon@WeaponBagClass@@QAEPAVWeaponClass@@H@Z ; WeaponBagClass::Peek_Weapon
	mov	ecx, eax
	call	?Get_Definition@WeaponClass@@QAEPBVWeaponDefinitionClass@@XZ ; WeaponClass::Get_Definition
	jmp	SHORT $LN5@Get_Positi
$LN1@Get_Positi:

; 401  : 	}
; 402  : 	return 0;

	xor	eax, eax
$LN5@Get_Positi:

; 403  : }

	pop	edi
	pop	esi
	pop	ebx
	mov	esp, ebp
	pop	ebp
	ret	0
?Get_Position_Weapon_Definition@@YAPBVWeaponDefinitionClass@@PAVScriptableGameObj@@H@Z ENDP ; Get_Position_Weapon_Definition
_TEXT	ENDS
; Function compile flags: /Odtp /ZI
; File x:\github\renegade\dragonade_rxd\scripts\engine_weap.cpp
;	COMDAT ?Get_Current_Weapon_Definition@@YAPBVWeaponDefinitionClass@@PAVScriptableGameObj@@@Z
_TEXT	SEGMENT
_w$ = -12						; size = 4
_o3$ = -8						; size = 4
_o2$ = -4						; size = 4
_obj$ = 8						; size = 4
?Get_Current_Weapon_Definition@@YAPBVWeaponDefinitionClass@@PAVScriptableGameObj@@@Z PROC ; Get_Current_Weapon_Definition, COMDAT

; 353  : {

	push	ebp
	mov	ebp, esp
	sub	esp, 76					; 0000004cH
	push	ebx
	push	esi
	push	edi

; 354  : 	if (!obj)

	cmp	DWORD PTR _obj$[ebp], 0
	jne	SHORT $LN4@Get_Curren

; 355  : 	{
; 356  : 		return 0;

	xor	eax, eax
	jmp	$LN5@Get_Curren
$LN4@Get_Curren:

; 357  : 	}
; 358  : 	PhysicalGameObj *o2 = obj->As_PhysicalGameObj();

	mov	eax, DWORD PTR _obj$[ebp]
	mov	edx, DWORD PTR [eax]
	mov	ecx, DWORD PTR _obj$[ebp]
	mov	eax, DWORD PTR [edx+36]
	call	eax
	mov	DWORD PTR _o2$[ebp], eax

; 359  : 	if (!o2)

	cmp	DWORD PTR _o2$[ebp], 0
	jne	SHORT $LN3@Get_Curren

; 360  : 	{
; 361  : 		return 0;

	xor	eax, eax
	jmp	SHORT $LN5@Get_Curren
$LN3@Get_Curren:

; 362  : 	}
; 363  : 	ArmedGameObj *o3 = o2->As_ArmedGameObj();

	mov	eax, DWORD PTR _o2$[ebp]
	mov	edx, DWORD PTR [eax]
	mov	ecx, DWORD PTR _o2$[ebp]
	mov	eax, DWORD PTR [edx+148]
	call	eax
	mov	DWORD PTR _o3$[ebp], eax

; 364  : 	if (!o3)

	cmp	DWORD PTR _o3$[ebp], 0
	jne	SHORT $LN2@Get_Curren

; 365  : 	{
; 366  : 		return 0;

	xor	eax, eax
	jmp	SHORT $LN5@Get_Curren
$LN2@Get_Curren:

; 367  : 	}
; 368  : 	WeaponBagClass *w = o3->Get_Weapon_Bag();

	mov	ecx, DWORD PTR _o3$[ebp]
	call	?Get_Weapon_Bag@ArmedGameObj@@QAEPAVWeaponBagClass@@XZ ; ArmedGameObj::Get_Weapon_Bag
	mov	DWORD PTR _w$[ebp], eax

; 369  : 	if ((w->Get_Index()) && (w->Get_Index() < w->Get_Count()))

	mov	ecx, DWORD PTR _w$[ebp]
	call	?Get_Index@WeaponBagClass@@QAEHXZ	; WeaponBagClass::Get_Index
	test	eax, eax
	je	SHORT $LN1@Get_Curren
	mov	ecx, DWORD PTR _w$[ebp]
	call	?Get_Index@WeaponBagClass@@QAEHXZ	; WeaponBagClass::Get_Index
	mov	esi, eax
	mov	ecx, DWORD PTR _w$[ebp]
	call	?Get_Count@WeaponBagClass@@QAEHXZ	; WeaponBagClass::Get_Count
	cmp	esi, eax
	jge	SHORT $LN1@Get_Curren

; 370  : 	{
; 371  : 		return w->Peek_Weapon(w->Get_Index())->Get_Definition();

	mov	ecx, DWORD PTR _w$[ebp]
	call	?Get_Index@WeaponBagClass@@QAEHXZ	; WeaponBagClass::Get_Index
	push	eax
	mov	ecx, DWORD PTR _w$[ebp]
	call	?Peek_Weapon@WeaponBagClass@@QAEPAVWeaponClass@@H@Z ; WeaponBagClass::Peek_Weapon
	mov	ecx, eax
	call	?Get_Definition@WeaponClass@@QAEPBVWeaponDefinitionClass@@XZ ; WeaponClass::Get_Definition
	jmp	SHORT $LN5@Get_Curren
$LN1@Get_Curren:

; 372  : 	}
; 373  : 	return 0;

	xor	eax, eax
$LN5@Get_Curren:

; 374  : }

	pop	edi
	pop	esi
	pop	ebx
	mov	esp, ebp
	pop	ebp
	ret	0
?Get_Current_Weapon_Definition@@YAPBVWeaponDefinitionClass@@PAVScriptableGameObj@@@Z ENDP ; Get_Current_Weapon_Definition
_TEXT	ENDS
; Function compile flags: /Odtp /ZI
; File x:\github\renegade\dragonade_rxd\scripts\engine_weap.cpp
;	COMDAT ?Get_Weapon_Definition@@YAPBVWeaponDefinitionClass@@PBD@Z
_TEXT	SEGMENT
_weapon$ = 8						; size = 4
?Get_Weapon_Definition@@YAPBVWeaponDefinitionClass@@PBD@Z PROC ; Get_Weapon_Definition, COMDAT

; 377  : {

	push	ebp
	mov	ebp, esp
	sub	esp, 64					; 00000040H
	push	ebx
	push	esi
	push	edi

; 378  : 	return (WeaponDefinitionClass *)Find_Named_Definition(weapon);

	mov	eax, DWORD PTR _weapon$[ebp]
	push	eax
	call	?Find_Named_Definition@@YAPAVDefinitionClass@@PBD@Z ; Find_Named_Definition
	add	esp, 4

; 379  : }

	pop	edi
	pop	esi
	pop	ebx
	mov	esp, ebp
	pop	ebp
	ret	0
?Get_Weapon_Definition@@YAPBVWeaponDefinitionClass@@PBD@Z ENDP ; Get_Weapon_Definition
_TEXT	ENDS
; Function compile flags: /Odtp /ZI
; File x:\github\renegade\dragonade_rxd\scripts\engine_weap.cpp
;	COMDAT ?Get_Weapon_Ammo_Definition@@YAPBVAmmoDefinitionClass@@PBD_N@Z
_TEXT	SEGMENT
_AmmoDef$1 = -20					; size = 4
_AmmoID$2 = -16						; size = 4
_AmmoDef$3 = -12					; size = 4
_AmmoID$4 = -8						; size = 4
_d$ = -4						; size = 4
_weapon$ = 8						; size = 4
_PrimaryFire$ = 12					; size = 1
?Get_Weapon_Ammo_Definition@@YAPBVAmmoDefinitionClass@@PBD_N@Z PROC ; Get_Weapon_Ammo_Definition, COMDAT

; 332  : {

	push	ebp
	mov	ebp, esp
	sub	esp, 84					; 00000054H
	push	ebx
	push	esi
	push	edi

; 333  : 	WeaponDefinitionClass *d = (WeaponDefinitionClass *)Find_Named_Definition(weapon);

	mov	eax, DWORD PTR _weapon$[ebp]
	push	eax
	call	?Find_Named_Definition@@YAPAVDefinitionClass@@PBD@Z ; Find_Named_Definition
	add	esp, 4
	mov	DWORD PTR _d$[ebp], eax

; 334  : 	if (d)

	cmp	DWORD PTR _d$[ebp], 0
	je	SHORT $LN3@Get_Weapon

; 335  : 	{
; 336  : 		if (PrimaryFire)

	movzx	eax, BYTE PTR _PrimaryFire$[ebp]
	test	eax, eax
	je	SHORT $LN2@Get_Weapon

; 337  : 		{
; 338  : 			unsigned long AmmoID = d->PrimaryAmmoDefID;

	mov	eax, DWORD PTR _d$[ebp]
	mov	ecx, DWORD PTR [eax+108]
	mov	DWORD PTR _AmmoID$4[ebp], ecx

; 339  : 			AmmoDefinitionClass *AmmoDef = (AmmoDefinitionClass*)Find_Definition(AmmoID);

	mov	eax, DWORD PTR _AmmoID$4[ebp]
	push	eax
	call	?Find_Definition@@YAPAVDefinitionClass@@K@Z ; Find_Definition
	add	esp, 4
	mov	DWORD PTR _AmmoDef$3[ebp], eax

; 340  : 			return AmmoDef;

	mov	eax, DWORD PTR _AmmoDef$3[ebp]
	jmp	SHORT $LN4@Get_Weapon

; 341  : 		}
; 342  : 		else

	jmp	SHORT $LN3@Get_Weapon
$LN2@Get_Weapon:

; 343  : 		{
; 344  : 			unsigned long AmmoID = d->SecondaryAmmoDefID;

	mov	eax, DWORD PTR _d$[ebp]
	mov	ecx, DWORD PTR [eax+112]
	mov	DWORD PTR _AmmoID$2[ebp], ecx

; 345  : 			AmmoDefinitionClass *AmmoDef = (AmmoDefinitionClass*)Find_Definition(AmmoID);

	mov	eax, DWORD PTR _AmmoID$2[ebp]
	push	eax
	call	?Find_Definition@@YAPAVDefinitionClass@@K@Z ; Find_Definition
	add	esp, 4
	mov	DWORD PTR _AmmoDef$1[ebp], eax

; 346  : 			return AmmoDef;

	mov	eax, DWORD PTR _AmmoDef$1[ebp]
	jmp	SHORT $LN4@Get_Weapon
$LN3@Get_Weapon:

; 347  : 		}
; 348  : 	}
; 349  : 	return 0;

	xor	eax, eax
$LN4@Get_Weapon:

; 350  : }

	pop	edi
	pop	esi
	pop	ebx
	mov	esp, ebp
	pop	ebp
	ret	0
?Get_Weapon_Ammo_Definition@@YAPBVAmmoDefinitionClass@@PBD_N@Z ENDP ; Get_Weapon_Ammo_Definition
_TEXT	ENDS
; Function compile flags: /Odtp /ZI
; File x:\github\renegade\dragonade_rxd\scripts\engine_weap.cpp
;	COMDAT ?Get_Powerup_Weapon@@YAPBDPBD@Z
_TEXT	SEGMENT
_weapondef$1 = -12					; size = 4
_c$ = -8						; size = 4
_powerupdef$ = -4					; size = 4
_Powerup$ = 8						; size = 4
?Get_Powerup_Weapon@@YAPBDPBD@Z PROC			; Get_Powerup_Weapon, COMDAT

; 320  : {

	push	ebp
	mov	ebp, esp
	sub	esp, 76					; 0000004cH
	push	ebx
	push	esi
	push	edi

; 321  :   DefinitionClass *powerupdef = Find_Named_Definition(Powerup);

	mov	eax, DWORD PTR _Powerup$[ebp]
	push	eax
	call	?Find_Named_Definition@@YAPAVDefinitionClass@@PBD@Z ; Find_Named_Definition
	add	esp, 4
	mov	DWORD PTR _powerupdef$[ebp], eax

; 322  :   PowerUpGameObjDef *c = (PowerUpGameObjDef *)powerupdef;

	mov	eax, DWORD PTR _powerupdef$[ebp]
	mov	DWORD PTR _c$[ebp], eax

; 323  :   if (c && c->Get_Grant_Weapon_ID())

	cmp	DWORD PTR _c$[ebp], 0
	je	SHORT $LN2@Get_Poweru
	mov	ecx, DWORD PTR _c$[ebp]
	call	?Get_Grant_Weapon_ID@PowerUpGameObjDef@@QBEHXZ ; PowerUpGameObjDef::Get_Grant_Weapon_ID
	test	eax, eax
	je	SHORT $LN2@Get_Poweru

; 324  :   {
; 325  :     if ( DefinitionClass *weapondef = Find_Definition(c->Get_Grant_Weapon_ID()) )

	mov	ecx, DWORD PTR _c$[ebp]
	call	?Get_Grant_Weapon_ID@PowerUpGameObjDef@@QBEHXZ ; PowerUpGameObjDef::Get_Grant_Weapon_ID
	push	eax
	call	?Find_Definition@@YAPAVDefinitionClass@@K@Z ; Find_Definition
	add	esp, 4
	mov	DWORD PTR _weapondef$1[ebp], eax
	cmp	DWORD PTR _weapondef$1[ebp], 0
	je	SHORT $LN2@Get_Poweru

; 326  :       return weapondef->Get_Name();

	mov	eax, DWORD PTR _weapondef$1[ebp]
	mov	edx, DWORD PTR [eax]
	mov	ecx, DWORD PTR _weapondef$1[ebp]
	mov	eax, DWORD PTR [edx+48]
	call	eax
	jmp	SHORT $LN3@Get_Poweru
$LN2@Get_Poweru:

; 327  :   }
; 328  :   return "None";

	mov	eax, OFFSET ??_C@_04OHJIHAFH@None?$AA@
$LN3@Get_Poweru:

; 329  : }

	pop	edi
	pop	esi
	pop	ebx
	mov	esp, ebp
	pop	ebp
	ret	0
?Get_Powerup_Weapon@@YAPBDPBD@Z ENDP			; Get_Powerup_Weapon
_TEXT	ENDS
; Function compile flags: /Odtp /ZI
; File x:\github\renegade\dragonade_rxd\scripts\engine_weap.cpp
;	COMDAT ?Get_Position_Total_Max_Bullets@@YAHPAVScriptableGameObj@@H@Z
_TEXT	SEGMENT
_clipbullets$1 = -12					; size = 4
_bullets$2 = -8						; size = 4
_wc$3 = -4						; size = 4
_obj$ = 8						; size = 4
_position$ = 12						; size = 4
?Get_Position_Total_Max_Bullets@@YAHPAVScriptableGameObj@@H@Z PROC ; Get_Position_Total_Max_Bullets, COMDAT

; 192  : {

	push	ebp
	mov	ebp, esp
	sub	esp, 76					; 0000004cH
	push	ebx
	push	esi
	push	edi

; 193  :   if ( WeaponClass* wc = _Get_Position_Weapon(obj,position) )

	mov	eax, DWORD PTR _position$[ebp]
	push	eax
	mov	ecx, DWORD PTR _obj$[ebp]
	push	ecx
	call	?_Get_Position_Weapon@@YAPAVWeaponClass@@PAVScriptableGameObj@@H@Z ; _Get_Position_Weapon
	add	esp, 8
	mov	DWORD PTR _wc$3[ebp], eax
	cmp	DWORD PTR _wc$3[ebp], 0
	je	SHORT $LN2@Get_Positi

; 194  :   {
; 195  :     int bullets = wc->Get_Definition()->ClipSize;

	mov	ecx, DWORD PTR _wc$3[ebp]
	call	?Get_Definition@WeaponClass@@QAEPBVWeaponDefinitionClass@@XZ ; WeaponClass::Get_Definition
	add	eax, 116				; 00000074H
	mov	ecx, eax
	call	??B?$SafeDataClass@H@@QBEHXZ		; SafeDataClass<int>::operator int
	mov	DWORD PTR _bullets$2[ebp], eax

; 196  :     int clipbullets = wc->Get_Definition()->MaxInventoryRounds;

	mov	ecx, DWORD PTR _wc$3[ebp]
	call	?Get_Definition@WeaponClass@@QAEPBVWeaponDefinitionClass@@XZ ; WeaponClass::Get_Definition
	add	eax, 132				; 00000084H
	mov	ecx, eax
	call	??B?$SafeDataClass@H@@QBEHXZ		; SafeDataClass<int>::operator int
	mov	DWORD PTR _clipbullets$1[ebp], eax

; 197  : 
; 198  :     if (clipbullets < 0)

	cmp	DWORD PTR _clipbullets$1[ebp], 0
	jge	SHORT $LN1@Get_Positi

; 199  :       return -1;

	or	eax, -1
	jmp	SHORT $LN3@Get_Positi
$LN1@Get_Positi:

; 200  : 
; 201  :     return bullets+clipbullets;

	mov	eax, DWORD PTR _bullets$2[ebp]
	add	eax, DWORD PTR _clipbullets$1[ebp]
	jmp	SHORT $LN3@Get_Positi
$LN2@Get_Positi:

; 202  :   }
; 203  :   return 0;

	xor	eax, eax
$LN3@Get_Positi:

; 204  : }

	pop	edi
	pop	esi
	pop	ebx
	mov	esp, ebp
	pop	ebp
	ret	0
?Get_Position_Total_Max_Bullets@@YAHPAVScriptableGameObj@@H@Z ENDP ; Get_Position_Total_Max_Bullets
_TEXT	ENDS
; Function compile flags: /Odtp /ZI
; File x:\github\renegade\dragonade_rxd\scripts\engine_weap.cpp
;	COMDAT ?Get_Position_Total_Bullets@@YAHPAVScriptableGameObj@@H@Z
_TEXT	SEGMENT
_clipbullets$1 = -12					; size = 4
_bullets$2 = -8						; size = 4
_wc$3 = -4						; size = 4
_obj$ = 8						; size = 4
_position$ = 12						; size = 4
?Get_Position_Total_Bullets@@YAHPAVScriptableGameObj@@H@Z PROC ; Get_Position_Total_Bullets, COMDAT

; 177  : {

	push	ebp
	mov	ebp, esp
	sub	esp, 76					; 0000004cH
	push	ebx
	push	esi
	push	edi

; 178  :   if ( WeaponClass* wc = _Get_Position_Weapon(obj,position) )

	mov	eax, DWORD PTR _position$[ebp]
	push	eax
	mov	ecx, DWORD PTR _obj$[ebp]
	push	ecx
	call	?_Get_Position_Weapon@@YAPAVWeaponClass@@PAVScriptableGameObj@@H@Z ; _Get_Position_Weapon
	add	esp, 8
	mov	DWORD PTR _wc$3[ebp], eax
	cmp	DWORD PTR _wc$3[ebp], 0
	je	SHORT $LN2@Get_Positi

; 179  :   {
; 180  :     int bullets = wc->Get_Clip_Rounds();

	mov	ecx, DWORD PTR _wc$3[ebp]
	call	?Get_Clip_Rounds@WeaponClass@@QAEHXZ	; WeaponClass::Get_Clip_Rounds
	mov	DWORD PTR _bullets$2[ebp], eax

; 181  :     int clipbullets = wc->Get_Inventory_Rounds();

	mov	ecx, DWORD PTR _wc$3[ebp]
	call	?Get_Inventory_Rounds@WeaponClass@@QAEHXZ ; WeaponClass::Get_Inventory_Rounds
	mov	DWORD PTR _clipbullets$1[ebp], eax

; 182  : 
; 183  :     if (clipbullets < 0)

	cmp	DWORD PTR _clipbullets$1[ebp], 0
	jge	SHORT $LN1@Get_Positi

; 184  :       return -1;

	or	eax, -1
	jmp	SHORT $LN3@Get_Positi
$LN1@Get_Positi:

; 185  : 
; 186  :     return bullets+clipbullets;

	mov	eax, DWORD PTR _bullets$2[ebp]
	add	eax, DWORD PTR _clipbullets$1[ebp]
	jmp	SHORT $LN3@Get_Positi
$LN2@Get_Positi:

; 187  :   }
; 188  :   return 0;

	xor	eax, eax
$LN3@Get_Positi:

; 189  : }

	pop	edi
	pop	esi
	pop	ebx
	mov	esp, ebp
	pop	ebp
	ret	0
?Get_Position_Total_Bullets@@YAHPAVScriptableGameObj@@H@Z ENDP ; Get_Position_Total_Bullets
_TEXT	ENDS
; Function compile flags: /Odtp /ZI
; File x:\github\renegade\dragonade_rxd\scripts\engine_weap.cpp
;	COMDAT ?Get_Position_Clip_Max_Bullets@@YAHPAVScriptableGameObj@@H@Z
_TEXT	SEGMENT
_wc$1 = -4						; size = 4
_obj$ = 8						; size = 4
_position$ = 12						; size = 4
?Get_Position_Clip_Max_Bullets@@YAHPAVScriptableGameObj@@H@Z PROC ; Get_Position_Clip_Max_Bullets, COMDAT

; 170  : {

	push	ebp
	mov	ebp, esp
	sub	esp, 68					; 00000044H
	push	ebx
	push	esi
	push	edi

; 171  :   if ( WeaponClass* wc = _Get_Position_Weapon(obj,position) )

	mov	eax, DWORD PTR _position$[ebp]
	push	eax
	mov	ecx, DWORD PTR _obj$[ebp]
	push	ecx
	call	?_Get_Position_Weapon@@YAPAVWeaponClass@@PAVScriptableGameObj@@H@Z ; _Get_Position_Weapon
	add	esp, 8
	mov	DWORD PTR _wc$1[ebp], eax
	cmp	DWORD PTR _wc$1[ebp], 0
	je	SHORT $LN1@Get_Positi

; 172  :     return wc->Get_Definition()->MaxInventoryRounds;

	mov	ecx, DWORD PTR _wc$1[ebp]
	call	?Get_Definition@WeaponClass@@QAEPBVWeaponDefinitionClass@@XZ ; WeaponClass::Get_Definition
	add	eax, 132				; 00000084H
	mov	ecx, eax
	call	??B?$SafeDataClass@H@@QBEHXZ		; SafeDataClass<int>::operator int
	jmp	SHORT $LN2@Get_Positi
$LN1@Get_Positi:

; 173  :   return 0;

	xor	eax, eax
$LN2@Get_Positi:

; 174  : }

	pop	edi
	pop	esi
	pop	ebx
	mov	esp, ebp
	pop	ebp
	ret	0
?Get_Position_Clip_Max_Bullets@@YAHPAVScriptableGameObj@@H@Z ENDP ; Get_Position_Clip_Max_Bullets
_TEXT	ENDS
; Function compile flags: /Odtp /ZI
; File x:\github\renegade\dragonade_rxd\scripts\engine_weap.cpp
;	COMDAT ?Get_Position_Clip_Bullets@@YAHPAVScriptableGameObj@@H@Z
_TEXT	SEGMENT
_wc$1 = -4						; size = 4
_obj$ = 8						; size = 4
_position$ = 12						; size = 4
?Get_Position_Clip_Bullets@@YAHPAVScriptableGameObj@@H@Z PROC ; Get_Position_Clip_Bullets, COMDAT

; 163  : {

	push	ebp
	mov	ebp, esp
	sub	esp, 68					; 00000044H
	push	ebx
	push	esi
	push	edi

; 164  :   if ( WeaponClass* wc = _Get_Position_Weapon(obj,position) )

	mov	eax, DWORD PTR _position$[ebp]
	push	eax
	mov	ecx, DWORD PTR _obj$[ebp]
	push	ecx
	call	?_Get_Position_Weapon@@YAPAVWeaponClass@@PAVScriptableGameObj@@H@Z ; _Get_Position_Weapon
	add	esp, 8
	mov	DWORD PTR _wc$1[ebp], eax
	cmp	DWORD PTR _wc$1[ebp], 0
	je	SHORT $LN1@Get_Positi

; 165  :     return wc->Get_Inventory_Rounds();

	mov	ecx, DWORD PTR _wc$1[ebp]
	call	?Get_Inventory_Rounds@WeaponClass@@QAEHXZ ; WeaponClass::Get_Inventory_Rounds
	jmp	SHORT $LN2@Get_Positi
$LN1@Get_Positi:

; 166  :   return 0;

	xor	eax, eax
$LN2@Get_Positi:

; 167  : }

	pop	edi
	pop	esi
	pop	ebx
	mov	esp, ebp
	pop	ebp
	ret	0
?Get_Position_Clip_Bullets@@YAHPAVScriptableGameObj@@H@Z ENDP ; Get_Position_Clip_Bullets
_TEXT	ENDS
; Function compile flags: /Odtp /ZI
; File x:\github\renegade\dragonade_rxd\scripts\engine_weap.cpp
;	COMDAT ?Get_Position_Max_Bullets@@YAHPAVScriptableGameObj@@H@Z
_TEXT	SEGMENT
_wc$1 = -4						; size = 4
_obj$ = 8						; size = 4
_position$ = 12						; size = 4
?Get_Position_Max_Bullets@@YAHPAVScriptableGameObj@@H@Z PROC ; Get_Position_Max_Bullets, COMDAT

; 156  : {

	push	ebp
	mov	ebp, esp
	sub	esp, 68					; 00000044H
	push	ebx
	push	esi
	push	edi

; 157  :   if ( WeaponClass* wc = _Get_Position_Weapon(obj,position) )

	mov	eax, DWORD PTR _position$[ebp]
	push	eax
	mov	ecx, DWORD PTR _obj$[ebp]
	push	ecx
	call	?_Get_Position_Weapon@@YAPAVWeaponClass@@PAVScriptableGameObj@@H@Z ; _Get_Position_Weapon
	add	esp, 8
	mov	DWORD PTR _wc$1[ebp], eax
	cmp	DWORD PTR _wc$1[ebp], 0
	je	SHORT $LN1@Get_Positi

; 158  :     return wc->Get_Definition()->ClipSize;

	mov	ecx, DWORD PTR _wc$1[ebp]
	call	?Get_Definition@WeaponClass@@QAEPBVWeaponDefinitionClass@@XZ ; WeaponClass::Get_Definition
	add	eax, 116				; 00000074H
	mov	ecx, eax
	call	??B?$SafeDataClass@H@@QBEHXZ		; SafeDataClass<int>::operator int
	jmp	SHORT $LN2@Get_Positi
$LN1@Get_Positi:

; 159  :   return 0;

	xor	eax, eax
$LN2@Get_Positi:

; 160  : }

	pop	edi
	pop	esi
	pop	ebx
	mov	esp, ebp
	pop	ebp
	ret	0
?Get_Position_Max_Bullets@@YAHPAVScriptableGameObj@@H@Z ENDP ; Get_Position_Max_Bullets
_TEXT	ENDS
; Function compile flags: /Odtp /ZI
; File x:\github\renegade\dragonade_rxd\scripts\engine_weap.cpp
;	COMDAT ?Get_Position_Bullets@@YAHPAVScriptableGameObj@@H@Z
_TEXT	SEGMENT
_wc$1 = -4						; size = 4
_obj$ = 8						; size = 4
_position$ = 12						; size = 4
?Get_Position_Bullets@@YAHPAVScriptableGameObj@@H@Z PROC ; Get_Position_Bullets, COMDAT

; 149  : {

	push	ebp
	mov	ebp, esp
	sub	esp, 68					; 00000044H
	push	ebx
	push	esi
	push	edi

; 150  :   if ( WeaponClass* wc = _Get_Position_Weapon(obj,position) )

	mov	eax, DWORD PTR _position$[ebp]
	push	eax
	mov	ecx, DWORD PTR _obj$[ebp]
	push	ecx
	call	?_Get_Position_Weapon@@YAPAVWeaponClass@@PAVScriptableGameObj@@H@Z ; _Get_Position_Weapon
	add	esp, 8
	mov	DWORD PTR _wc$1[ebp], eax
	cmp	DWORD PTR _wc$1[ebp], 0
	je	SHORT $LN1@Get_Positi

; 151  :     return wc->Get_Clip_Rounds();

	mov	ecx, DWORD PTR _wc$1[ebp]
	call	?Get_Clip_Rounds@WeaponClass@@QAEHXZ	; WeaponClass::Get_Clip_Rounds
	jmp	SHORT $LN2@Get_Positi
$LN1@Get_Positi:

; 152  :   return 0;

	xor	eax, eax
$LN2@Get_Positi:

; 153  : }

	pop	edi
	pop	esi
	pop	ebx
	mov	esp, ebp
	pop	ebp
	ret	0
?Get_Position_Bullets@@YAHPAVScriptableGameObj@@H@Z ENDP ; Get_Position_Bullets
_TEXT	ENDS
; Function compile flags: /Odtp /ZI
; File x:\github\renegade\dragonade_rxd\scripts\engine_weap.cpp
;	COMDAT ?Get_Current_Total_Max_Bullets@@YAHPAVScriptableGameObj@@@Z
_TEXT	SEGMENT
_clipbullets$1 = -12					; size = 4
_bullets$2 = -8						; size = 4
_wc$3 = -4						; size = 4
_obj$ = 8						; size = 4
?Get_Current_Total_Max_Bullets@@YAHPAVScriptableGameObj@@@Z PROC ; Get_Current_Total_Max_Bullets, COMDAT

; 112  : {

	push	ebp
	mov	ebp, esp
	sub	esp, 76					; 0000004cH
	push	ebx
	push	esi
	push	edi

; 113  :   if ( WeaponClass* wc = _Get_Current_Weapon(obj) )

	mov	eax, DWORD PTR _obj$[ebp]
	push	eax
	call	?_Get_Current_Weapon@@YAPAVWeaponClass@@PAVScriptableGameObj@@@Z ; _Get_Current_Weapon
	add	esp, 4
	mov	DWORD PTR _wc$3[ebp], eax
	cmp	DWORD PTR _wc$3[ebp], 0
	je	SHORT $LN2@Get_Curren

; 114  :   {
; 115  :     int bullets = wc->Get_Definition()->ClipSize;

	mov	ecx, DWORD PTR _wc$3[ebp]
	call	?Get_Definition@WeaponClass@@QAEPBVWeaponDefinitionClass@@XZ ; WeaponClass::Get_Definition
	add	eax, 116				; 00000074H
	mov	ecx, eax
	call	??B?$SafeDataClass@H@@QBEHXZ		; SafeDataClass<int>::operator int
	mov	DWORD PTR _bullets$2[ebp], eax

; 116  :     int clipbullets = wc->Get_Definition()->MaxInventoryRounds;

	mov	ecx, DWORD PTR _wc$3[ebp]
	call	?Get_Definition@WeaponClass@@QAEPBVWeaponDefinitionClass@@XZ ; WeaponClass::Get_Definition
	add	eax, 132				; 00000084H
	mov	ecx, eax
	call	??B?$SafeDataClass@H@@QBEHXZ		; SafeDataClass<int>::operator int
	mov	DWORD PTR _clipbullets$1[ebp], eax

; 117  : 
; 118  :     if (clipbullets < 0)

	cmp	DWORD PTR _clipbullets$1[ebp], 0
	jge	SHORT $LN1@Get_Curren

; 119  :       return -1;

	or	eax, -1
	jmp	SHORT $LN3@Get_Curren
$LN1@Get_Curren:

; 120  : 
; 121  :     return bullets+clipbullets;

	mov	eax, DWORD PTR _bullets$2[ebp]
	add	eax, DWORD PTR _clipbullets$1[ebp]
	jmp	SHORT $LN3@Get_Curren
$LN2@Get_Curren:

; 122  :   }
; 123  :   return 0;

	xor	eax, eax
$LN3@Get_Curren:

; 124  : }

	pop	edi
	pop	esi
	pop	ebx
	mov	esp, ebp
	pop	ebp
	ret	0
?Get_Current_Total_Max_Bullets@@YAHPAVScriptableGameObj@@@Z ENDP ; Get_Current_Total_Max_Bullets
_TEXT	ENDS
; Function compile flags: /Odtp /ZI
; File x:\github\renegade\dragonade_rxd\scripts\engine_weap.cpp
;	COMDAT ?Get_Current_Total_Bullets@@YAHPAVScriptableGameObj@@@Z
_TEXT	SEGMENT
_clipbullets$1 = -12					; size = 4
_bullets$2 = -8						; size = 4
_wc$3 = -4						; size = 4
_obj$ = 8						; size = 4
?Get_Current_Total_Bullets@@YAHPAVScriptableGameObj@@@Z PROC ; Get_Current_Total_Bullets, COMDAT

; 97   : {

	push	ebp
	mov	ebp, esp
	sub	esp, 76					; 0000004cH
	push	ebx
	push	esi
	push	edi

; 98   :   if ( WeaponClass* wc = _Get_Current_Weapon(obj) )

	mov	eax, DWORD PTR _obj$[ebp]
	push	eax
	call	?_Get_Current_Weapon@@YAPAVWeaponClass@@PAVScriptableGameObj@@@Z ; _Get_Current_Weapon
	add	esp, 4
	mov	DWORD PTR _wc$3[ebp], eax
	cmp	DWORD PTR _wc$3[ebp], 0
	je	SHORT $LN2@Get_Curren

; 99   :   {
; 100  :     int bullets = wc->Get_Clip_Rounds();

	mov	ecx, DWORD PTR _wc$3[ebp]
	call	?Get_Clip_Rounds@WeaponClass@@QAEHXZ	; WeaponClass::Get_Clip_Rounds
	mov	DWORD PTR _bullets$2[ebp], eax

; 101  :     int clipbullets = wc->Get_Inventory_Rounds();

	mov	ecx, DWORD PTR _wc$3[ebp]
	call	?Get_Inventory_Rounds@WeaponClass@@QAEHXZ ; WeaponClass::Get_Inventory_Rounds
	mov	DWORD PTR _clipbullets$1[ebp], eax

; 102  : 
; 103  :     if (clipbullets < 0)

	cmp	DWORD PTR _clipbullets$1[ebp], 0
	jge	SHORT $LN1@Get_Curren

; 104  :       return -1;

	or	eax, -1
	jmp	SHORT $LN3@Get_Curren
$LN1@Get_Curren:

; 105  : 
; 106  :     return bullets+clipbullets;

	mov	eax, DWORD PTR _bullets$2[ebp]
	add	eax, DWORD PTR _clipbullets$1[ebp]
	jmp	SHORT $LN3@Get_Curren
$LN2@Get_Curren:

; 107  :   }
; 108  :   return 0;

	xor	eax, eax
$LN3@Get_Curren:

; 109  : }

	pop	edi
	pop	esi
	pop	ebx
	mov	esp, ebp
	pop	ebp
	ret	0
?Get_Current_Total_Bullets@@YAHPAVScriptableGameObj@@@Z ENDP ; Get_Current_Total_Bullets
_TEXT	ENDS
; Function compile flags: /Odtp /ZI
; File x:\github\renegade\dragonade_rxd\scripts\engine_weap.cpp
;	COMDAT ?Get_Current_Clip_Max_Bullets@@YAHPAVScriptableGameObj@@@Z
_TEXT	SEGMENT
_wc$1 = -4						; size = 4
_obj$ = 8						; size = 4
?Get_Current_Clip_Max_Bullets@@YAHPAVScriptableGameObj@@@Z PROC ; Get_Current_Clip_Max_Bullets, COMDAT

; 90   : {

	push	ebp
	mov	ebp, esp
	sub	esp, 68					; 00000044H
	push	ebx
	push	esi
	push	edi

; 91   :   if ( WeaponClass* wc = _Get_Current_Weapon(obj) )

	mov	eax, DWORD PTR _obj$[ebp]
	push	eax
	call	?_Get_Current_Weapon@@YAPAVWeaponClass@@PAVScriptableGameObj@@@Z ; _Get_Current_Weapon
	add	esp, 4
	mov	DWORD PTR _wc$1[ebp], eax
	cmp	DWORD PTR _wc$1[ebp], 0
	je	SHORT $LN1@Get_Curren

; 92   :     return wc->Get_Definition()->MaxInventoryRounds;

	mov	ecx, DWORD PTR _wc$1[ebp]
	call	?Get_Definition@WeaponClass@@QAEPBVWeaponDefinitionClass@@XZ ; WeaponClass::Get_Definition
	add	eax, 132				; 00000084H
	mov	ecx, eax
	call	??B?$SafeDataClass@H@@QBEHXZ		; SafeDataClass<int>::operator int
	jmp	SHORT $LN2@Get_Curren
$LN1@Get_Curren:

; 93   :   return 0;

	xor	eax, eax
$LN2@Get_Curren:

; 94   : }

	pop	edi
	pop	esi
	pop	ebx
	mov	esp, ebp
	pop	ebp
	ret	0
?Get_Current_Clip_Max_Bullets@@YAHPAVScriptableGameObj@@@Z ENDP ; Get_Current_Clip_Max_Bullets
_TEXT	ENDS
; Function compile flags: /Odtp /ZI
; File x:\github\renegade\dragonade_rxd\scripts\engine_weap.cpp
;	COMDAT ?Get_Current_Clip_Bullets@@YAHPAVScriptableGameObj@@@Z
_TEXT	SEGMENT
_wc$1 = -4						; size = 4
_obj$ = 8						; size = 4
?Get_Current_Clip_Bullets@@YAHPAVScriptableGameObj@@@Z PROC ; Get_Current_Clip_Bullets, COMDAT

; 83   : {

	push	ebp
	mov	ebp, esp
	sub	esp, 68					; 00000044H
	push	ebx
	push	esi
	push	edi

; 84   :   if ( WeaponClass* wc = _Get_Current_Weapon(obj) )

	mov	eax, DWORD PTR _obj$[ebp]
	push	eax
	call	?_Get_Current_Weapon@@YAPAVWeaponClass@@PAVScriptableGameObj@@@Z ; _Get_Current_Weapon
	add	esp, 4
	mov	DWORD PTR _wc$1[ebp], eax
	cmp	DWORD PTR _wc$1[ebp], 0
	je	SHORT $LN1@Get_Curren

; 85   :     return wc->Get_Inventory_Rounds();

	mov	ecx, DWORD PTR _wc$1[ebp]
	call	?Get_Inventory_Rounds@WeaponClass@@QAEHXZ ; WeaponClass::Get_Inventory_Rounds
	jmp	SHORT $LN2@Get_Curren
$LN1@Get_Curren:

; 86   :   return 0;

	xor	eax, eax
$LN2@Get_Curren:

; 87   : }

	pop	edi
	pop	esi
	pop	ebx
	mov	esp, ebp
	pop	ebp
	ret	0
?Get_Current_Clip_Bullets@@YAHPAVScriptableGameObj@@@Z ENDP ; Get_Current_Clip_Bullets
_TEXT	ENDS
; Function compile flags: /Odtp /ZI
; File x:\github\renegade\dragonade_rxd\scripts\engine_weap.cpp
;	COMDAT ?Get_Current_Max_Bullets@@YAHPAVScriptableGameObj@@@Z
_TEXT	SEGMENT
_wc$1 = -4						; size = 4
_obj$ = 8						; size = 4
?Get_Current_Max_Bullets@@YAHPAVScriptableGameObj@@@Z PROC ; Get_Current_Max_Bullets, COMDAT

; 76   : {

	push	ebp
	mov	ebp, esp
	sub	esp, 68					; 00000044H
	push	ebx
	push	esi
	push	edi

; 77   :   if ( WeaponClass* wc = _Get_Current_Weapon(obj) )

	mov	eax, DWORD PTR _obj$[ebp]
	push	eax
	call	?_Get_Current_Weapon@@YAPAVWeaponClass@@PAVScriptableGameObj@@@Z ; _Get_Current_Weapon
	add	esp, 4
	mov	DWORD PTR _wc$1[ebp], eax
	cmp	DWORD PTR _wc$1[ebp], 0
	je	SHORT $LN1@Get_Curren

; 78   :     return wc->Get_Definition()->ClipSize;

	mov	ecx, DWORD PTR _wc$1[ebp]
	call	?Get_Definition@WeaponClass@@QAEPBVWeaponDefinitionClass@@XZ ; WeaponClass::Get_Definition
	add	eax, 116				; 00000074H
	mov	ecx, eax
	call	??B?$SafeDataClass@H@@QBEHXZ		; SafeDataClass<int>::operator int
	jmp	SHORT $LN2@Get_Curren
$LN1@Get_Curren:

; 79   :   return 0;

	xor	eax, eax
$LN2@Get_Curren:

; 80   : }

	pop	edi
	pop	esi
	pop	ebx
	mov	esp, ebp
	pop	ebp
	ret	0
?Get_Current_Max_Bullets@@YAHPAVScriptableGameObj@@@Z ENDP ; Get_Current_Max_Bullets
_TEXT	ENDS
; Function compile flags: /Odtp /ZI
; File x:\github\renegade\dragonade_rxd\scripts\engine_weap.cpp
;	COMDAT ?Get_Current_Bullets@@YAHPAVScriptableGameObj@@@Z
_TEXT	SEGMENT
_wc$1 = -4						; size = 4
_obj$ = 8						; size = 4
?Get_Current_Bullets@@YAHPAVScriptableGameObj@@@Z PROC	; Get_Current_Bullets, COMDAT

; 69   : {

	push	ebp
	mov	ebp, esp
	sub	esp, 68					; 00000044H
	push	ebx
	push	esi
	push	edi

; 70   :   if ( WeaponClass* wc = _Get_Current_Weapon(obj) )

	mov	eax, DWORD PTR _obj$[ebp]
	push	eax
	call	?_Get_Current_Weapon@@YAPAVWeaponClass@@PAVScriptableGameObj@@@Z ; _Get_Current_Weapon
	add	esp, 4
	mov	DWORD PTR _wc$1[ebp], eax
	cmp	DWORD PTR _wc$1[ebp], 0
	je	SHORT $LN1@Get_Curren

; 71   :     return wc->Get_Clip_Rounds();

	mov	ecx, DWORD PTR _wc$1[ebp]
	call	?Get_Clip_Rounds@WeaponClass@@QAEHXZ	; WeaponClass::Get_Clip_Rounds
	jmp	SHORT $LN2@Get_Curren
$LN1@Get_Curren:

; 72   :   return 0;

	xor	eax, eax
$LN2@Get_Curren:

; 73   : }

	pop	edi
	pop	esi
	pop	ebx
	mov	esp, ebp
	pop	ebp
	ret	0
?Get_Current_Bullets@@YAHPAVScriptableGameObj@@@Z ENDP	; Get_Current_Bullets
_TEXT	ENDS
; Function compile flags: /Odtp /ZI
; File x:\github\renegade\dragonade_rxd\scripts\engine_weap.cpp
;	COMDAT ?Get_Max_Total_Bullets@@YAHPAVScriptableGameObj@@PBD@Z
_TEXT	SEGMENT
_clipbullets$1 = -12					; size = 4
_bullets$2 = -8						; size = 4
_wc$3 = -4						; size = 4
_obj$ = 8						; size = 4
_weapon$ = 12						; size = 4
?Get_Max_Total_Bullets@@YAHPAVScriptableGameObj@@PBD@Z PROC ; Get_Max_Total_Bullets, COMDAT

; 279  : {

	push	ebp
	mov	ebp, esp
	sub	esp, 76					; 0000004cH
	push	ebx
	push	esi
	push	edi

; 280  :   if ( WeaponClass* wc = _Get_Weapon(obj,weapon) )

	mov	eax, DWORD PTR _weapon$[ebp]
	push	eax
	mov	ecx, DWORD PTR _obj$[ebp]
	push	ecx
	call	?_Get_Weapon@@YAPAVWeaponClass@@PAVScriptableGameObj@@PBD@Z ; _Get_Weapon
	add	esp, 8
	mov	DWORD PTR _wc$3[ebp], eax
	cmp	DWORD PTR _wc$3[ebp], 0
	je	SHORT $LN2@Get_Max_To

; 281  :   {
; 282  :     int bullets = wc->Get_Definition()->ClipSize;

	mov	ecx, DWORD PTR _wc$3[ebp]
	call	?Get_Definition@WeaponClass@@QAEPBVWeaponDefinitionClass@@XZ ; WeaponClass::Get_Definition
	add	eax, 116				; 00000074H
	mov	ecx, eax
	call	??B?$SafeDataClass@H@@QBEHXZ		; SafeDataClass<int>::operator int
	mov	DWORD PTR _bullets$2[ebp], eax

; 283  :     int clipbullets = wc->Get_Definition()->MaxInventoryRounds;

	mov	ecx, DWORD PTR _wc$3[ebp]
	call	?Get_Definition@WeaponClass@@QAEPBVWeaponDefinitionClass@@XZ ; WeaponClass::Get_Definition
	add	eax, 132				; 00000084H
	mov	ecx, eax
	call	??B?$SafeDataClass@H@@QBEHXZ		; SafeDataClass<int>::operator int
	mov	DWORD PTR _clipbullets$1[ebp], eax

; 284  : 
; 285  :     if (clipbullets < 0)

	cmp	DWORD PTR _clipbullets$1[ebp], 0
	jge	SHORT $LN1@Get_Max_To

; 286  :       return -1;

	or	eax, -1
	jmp	SHORT $LN3@Get_Max_To
$LN1@Get_Max_To:

; 287  : 
; 288  :     return bullets+clipbullets;

	mov	eax, DWORD PTR _bullets$2[ebp]
	add	eax, DWORD PTR _clipbullets$1[ebp]
	jmp	SHORT $LN3@Get_Max_To
$LN2@Get_Max_To:

; 289  :   }
; 290  :   return 0;

	xor	eax, eax
$LN3@Get_Max_To:

; 291  : }

	pop	edi
	pop	esi
	pop	ebx
	mov	esp, ebp
	pop	ebp
	ret	0
?Get_Max_Total_Bullets@@YAHPAVScriptableGameObj@@PBD@Z ENDP ; Get_Max_Total_Bullets
_TEXT	ENDS
; Function compile flags: /Odtp /ZI
; File x:\github\renegade\dragonade_rxd\scripts\engine_weap.cpp
;	COMDAT ?Get_Total_Bullets@@YAHPAVScriptableGameObj@@PBD@Z
_TEXT	SEGMENT
_clipbullets$1 = -12					; size = 4
_bullets$2 = -8						; size = 4
_wc$3 = -4						; size = 4
_obj$ = 8						; size = 4
_weapon$ = 12						; size = 4
?Get_Total_Bullets@@YAHPAVScriptableGameObj@@PBD@Z PROC	; Get_Total_Bullets, COMDAT

; 264  : {

	push	ebp
	mov	ebp, esp
	sub	esp, 76					; 0000004cH
	push	ebx
	push	esi
	push	edi

; 265  :   if ( WeaponClass* wc = _Get_Weapon(obj,weapon) )

	mov	eax, DWORD PTR _weapon$[ebp]
	push	eax
	mov	ecx, DWORD PTR _obj$[ebp]
	push	ecx
	call	?_Get_Weapon@@YAPAVWeaponClass@@PAVScriptableGameObj@@PBD@Z ; _Get_Weapon
	add	esp, 8
	mov	DWORD PTR _wc$3[ebp], eax
	cmp	DWORD PTR _wc$3[ebp], 0
	je	SHORT $LN2@Get_Total_

; 266  :   {
; 267  :     int bullets = wc->Get_Clip_Rounds();

	mov	ecx, DWORD PTR _wc$3[ebp]
	call	?Get_Clip_Rounds@WeaponClass@@QAEHXZ	; WeaponClass::Get_Clip_Rounds
	mov	DWORD PTR _bullets$2[ebp], eax

; 268  :     int clipbullets = wc->Get_Inventory_Rounds();

	mov	ecx, DWORD PTR _wc$3[ebp]
	call	?Get_Inventory_Rounds@WeaponClass@@QAEHXZ ; WeaponClass::Get_Inventory_Rounds
	mov	DWORD PTR _clipbullets$1[ebp], eax

; 269  : 
; 270  :     if (clipbullets < 0)

	cmp	DWORD PTR _clipbullets$1[ebp], 0
	jge	SHORT $LN1@Get_Total_

; 271  :       return -1;

	or	eax, -1
	jmp	SHORT $LN3@Get_Total_
$LN1@Get_Total_:

; 272  : 
; 273  :     return bullets+clipbullets;

	mov	eax, DWORD PTR _bullets$2[ebp]
	add	eax, DWORD PTR _clipbullets$1[ebp]
	jmp	SHORT $LN3@Get_Total_
$LN2@Get_Total_:

; 274  :   }
; 275  :   return 0;

	xor	eax, eax
$LN3@Get_Total_:

; 276  : }

	pop	edi
	pop	esi
	pop	ebx
	mov	esp, ebp
	pop	ebp
	ret	0
?Get_Total_Bullets@@YAHPAVScriptableGameObj@@PBD@Z ENDP	; Get_Total_Bullets
_TEXT	ENDS
; Function compile flags: /Odtp /ZI
; File x:\github\renegade\dragonade_rxd\scripts\engine_weap.cpp
;	COMDAT ?Get_Max_Clip_Bullets@@YAHPAVScriptableGameObj@@PBD@Z
_TEXT	SEGMENT
_wc$1 = -4						; size = 4
_obj$ = 8						; size = 4
_weapon$ = 12						; size = 4
?Get_Max_Clip_Bullets@@YAHPAVScriptableGameObj@@PBD@Z PROC ; Get_Max_Clip_Bullets, COMDAT

; 257  : {

	push	ebp
	mov	ebp, esp
	sub	esp, 68					; 00000044H
	push	ebx
	push	esi
	push	edi

; 258  :   if ( WeaponClass* wc = _Get_Weapon(obj,weapon) )

	mov	eax, DWORD PTR _weapon$[ebp]
	push	eax
	mov	ecx, DWORD PTR _obj$[ebp]
	push	ecx
	call	?_Get_Weapon@@YAPAVWeaponClass@@PAVScriptableGameObj@@PBD@Z ; _Get_Weapon
	add	esp, 8
	mov	DWORD PTR _wc$1[ebp], eax
	cmp	DWORD PTR _wc$1[ebp], 0
	je	SHORT $LN1@Get_Max_Cl

; 259  :     return wc->Get_Definition()->MaxInventoryRounds;

	mov	ecx, DWORD PTR _wc$1[ebp]
	call	?Get_Definition@WeaponClass@@QAEPBVWeaponDefinitionClass@@XZ ; WeaponClass::Get_Definition
	add	eax, 132				; 00000084H
	mov	ecx, eax
	call	??B?$SafeDataClass@H@@QBEHXZ		; SafeDataClass<int>::operator int
	jmp	SHORT $LN2@Get_Max_Cl
$LN1@Get_Max_Cl:

; 260  :   return 0;

	xor	eax, eax
$LN2@Get_Max_Cl:

; 261  : }

	pop	edi
	pop	esi
	pop	ebx
	mov	esp, ebp
	pop	ebp
	ret	0
?Get_Max_Clip_Bullets@@YAHPAVScriptableGameObj@@PBD@Z ENDP ; Get_Max_Clip_Bullets
_TEXT	ENDS
; Function compile flags: /Odtp /ZI
; File x:\github\renegade\dragonade_rxd\scripts\engine_weap.cpp
;	COMDAT ?Get_Clip_Bullets@@YAHPAVScriptableGameObj@@PBD@Z
_TEXT	SEGMENT
_wc$1 = -4						; size = 4
_obj$ = 8						; size = 4
_weapon$ = 12						; size = 4
?Get_Clip_Bullets@@YAHPAVScriptableGameObj@@PBD@Z PROC	; Get_Clip_Bullets, COMDAT

; 250  : {

	push	ebp
	mov	ebp, esp
	sub	esp, 68					; 00000044H
	push	ebx
	push	esi
	push	edi

; 251  :   if ( WeaponClass* wc = _Get_Weapon(obj,weapon) )

	mov	eax, DWORD PTR _weapon$[ebp]
	push	eax
	mov	ecx, DWORD PTR _obj$[ebp]
	push	ecx
	call	?_Get_Weapon@@YAPAVWeaponClass@@PAVScriptableGameObj@@PBD@Z ; _Get_Weapon
	add	esp, 8
	mov	DWORD PTR _wc$1[ebp], eax
	cmp	DWORD PTR _wc$1[ebp], 0
	je	SHORT $LN1@Get_Clip_B

; 252  :     return wc->Get_Inventory_Rounds();

	mov	ecx, DWORD PTR _wc$1[ebp]
	call	?Get_Inventory_Rounds@WeaponClass@@QAEHXZ ; WeaponClass::Get_Inventory_Rounds
	jmp	SHORT $LN2@Get_Clip_B
$LN1@Get_Clip_B:

; 253  :   return 0;

	xor	eax, eax
$LN2@Get_Clip_B:

; 254  : }

	pop	edi
	pop	esi
	pop	ebx
	mov	esp, ebp
	pop	ebp
	ret	0
?Get_Clip_Bullets@@YAHPAVScriptableGameObj@@PBD@Z ENDP	; Get_Clip_Bullets
_TEXT	ENDS
; Function compile flags: /Odtp /ZI
; File x:\github\renegade\dragonade_rxd\scripts\engine_weap.cpp
;	COMDAT ?Get_Max_Bullets@@YAHPAVScriptableGameObj@@PBD@Z
_TEXT	SEGMENT
_wc$1 = -4						; size = 4
_obj$ = 8						; size = 4
_weapon$ = 12						; size = 4
?Get_Max_Bullets@@YAHPAVScriptableGameObj@@PBD@Z PROC	; Get_Max_Bullets, COMDAT

; 243  : {

	push	ebp
	mov	ebp, esp
	sub	esp, 68					; 00000044H
	push	ebx
	push	esi
	push	edi

; 244  :   if ( WeaponClass* wc = _Get_Weapon(obj,weapon) )

	mov	eax, DWORD PTR _weapon$[ebp]
	push	eax
	mov	ecx, DWORD PTR _obj$[ebp]
	push	ecx
	call	?_Get_Weapon@@YAPAVWeaponClass@@PAVScriptableGameObj@@PBD@Z ; _Get_Weapon
	add	esp, 8
	mov	DWORD PTR _wc$1[ebp], eax
	cmp	DWORD PTR _wc$1[ebp], 0
	je	SHORT $LN1@Get_Max_Bu

; 245  :     return wc->Get_Definition()->ClipSize;

	mov	ecx, DWORD PTR _wc$1[ebp]
	call	?Get_Definition@WeaponClass@@QAEPBVWeaponDefinitionClass@@XZ ; WeaponClass::Get_Definition
	add	eax, 116				; 00000074H
	mov	ecx, eax
	call	??B?$SafeDataClass@H@@QBEHXZ		; SafeDataClass<int>::operator int
	jmp	SHORT $LN2@Get_Max_Bu
$LN1@Get_Max_Bu:

; 246  :   return 0;

	xor	eax, eax
$LN2@Get_Max_Bu:

; 247  : }

	pop	edi
	pop	esi
	pop	ebx
	mov	esp, ebp
	pop	ebp
	ret	0
?Get_Max_Bullets@@YAHPAVScriptableGameObj@@PBD@Z ENDP	; Get_Max_Bullets
_TEXT	ENDS
; Function compile flags: /Odtp /ZI
; File x:\github\renegade\dragonade_rxd\scripts\engine_weap.cpp
;	COMDAT ?Get_Bullets@@YAHPAVScriptableGameObj@@PBD@Z
_TEXT	SEGMENT
_wc$1 = -4						; size = 4
_obj$ = 8						; size = 4
_weapon$ = 12						; size = 4
?Get_Bullets@@YAHPAVScriptableGameObj@@PBD@Z PROC	; Get_Bullets, COMDAT

; 236  : {

	push	ebp
	mov	ebp, esp
	sub	esp, 68					; 00000044H
	push	ebx
	push	esi
	push	edi

; 237  :   if ( WeaponClass* wc = _Get_Weapon(obj,weapon) )

	mov	eax, DWORD PTR _weapon$[ebp]
	push	eax
	mov	ecx, DWORD PTR _obj$[ebp]
	push	ecx
	call	?_Get_Weapon@@YAPAVWeaponClass@@PAVScriptableGameObj@@PBD@Z ; _Get_Weapon
	add	esp, 8
	mov	DWORD PTR _wc$1[ebp], eax
	cmp	DWORD PTR _wc$1[ebp], 0
	je	SHORT $LN1@Get_Bullet

; 238  :     return wc->Get_Clip_Rounds();

	mov	ecx, DWORD PTR _wc$1[ebp]
	call	?Get_Clip_Rounds@WeaponClass@@QAEHXZ	; WeaponClass::Get_Clip_Rounds
	jmp	SHORT $LN2@Get_Bullet
$LN1@Get_Bullet:

; 239  :   return 0;

	xor	eax, eax
$LN2@Get_Bullet:

; 240  : }

	pop	edi
	pop	esi
	pop	ebx
	mov	esp, ebp
	pop	ebp
	ret	0
?Get_Bullets@@YAHPAVScriptableGameObj@@PBD@Z ENDP	; Get_Bullets
_TEXT	ENDS
; Function compile flags: /Odtp /ZI
; File x:\github\renegade\dragonade_rxd\scripts\matrix3.h
;	COMDAT ?Inverse@Matrix3@@QBE?AV1@XZ
_TEXT	SEGMENT
tv222 = -188						; size = 4
tv272 = -184						; size = 4
tv212 = -180						; size = 4
$T1 = -176						; size = 12
$T2 = -164						; size = 12
_i1$ = -88						; size = 4
_j$ = -84						; size = 4
_i$ = -80						; size = 4
_b$ = -76						; size = 36
_a$ = -40						; size = 36
_this$ = -4						; size = 4
___$ReturnUdt$ = 8					; size = 4
?Inverse@Matrix3@@QBE?AV1@XZ PROC			; Matrix3::Inverse, COMDAT
; _this$ = ecx

; 309  : 	{

	push	ebp
	mov	ebp, esp
	sub	esp, 188				; 000000bcH
	push	ebx
	push	esi
	push	edi
	mov	DWORD PTR _this$[ebp], ecx

; 310  : 		Matrix3 a(*this);				// As a evolves from original mat into identity

	mov	eax, DWORD PTR _this$[ebp]
	push	eax
	lea	ecx, DWORD PTR _a$[ebp]
	call	??0Matrix3@@QAE@ABV0@@Z			; Matrix3::Matrix3

; 311  : 		Matrix3 b(true);				// b evolves from identity into inverse(a)

	push	1
	lea	ecx, DWORD PTR _b$[ebp]
	call	??0Matrix3@@QAE@_N@Z			; Matrix3::Matrix3

; 312  : 		int i, j, i1;
; 313  : 
; 314  : 		// Loop over cols of a from left to right, eliminating above and below diagonal
; 315  : 		for (j=0; j<3; j++) {

	mov	DWORD PTR _j$[ebp], 0
	jmp	SHORT $LN12@Inverse
$LN11@Inverse:
	mov	eax, DWORD PTR _j$[ebp]
	add	eax, 1
	mov	DWORD PTR _j$[ebp], eax
$LN12@Inverse:
	cmp	DWORD PTR _j$[ebp], 3
	jge	$LN10@Inverse

; 316  : 
; 317  : 			// Find largest pivot in column j among rows j..3
; 318  : 			i1 = j;

	mov	eax, DWORD PTR _j$[ebp]
	mov	DWORD PTR _i1$[ebp], eax

; 319  : 			for (i=j+1; i<3; i++) {

	mov	eax, DWORD PTR _j$[ebp]
	add	eax, 1
	mov	DWORD PTR _i$[ebp], eax
	jmp	SHORT $LN9@Inverse
$LN8@Inverse:
	mov	eax, DWORD PTR _i$[ebp]
	add	eax, 1
	mov	DWORD PTR _i$[ebp], eax
$LN9@Inverse:
	cmp	DWORD PTR _i$[ebp], 3
	jge	$LN7@Inverse

; 320  : 				if (WWMath::Fabs(a[i][j]) > WWMath::Fabs(a[i1][j])) {

	mov	eax, DWORD PTR _j$[ebp]
	push	eax
	mov	ecx, DWORD PTR _i$[ebp]
	push	ecx
	lea	ecx, DWORD PTR _a$[ebp]
	call	??AMatrix3@@QAEAAVVector3@@H@Z		; Matrix3::operator[]
	mov	ecx, eax
	call	??AVector3@@QAEAAMH@Z			; Vector3::operator[]
	push	ecx
	movss	xmm0, DWORD PTR [eax]
	movss	DWORD PTR [esp], xmm0
	call	?Fabs@WWMath@@SAMM@Z			; WWMath::Fabs
	add	esp, 4
	fstp	DWORD PTR tv212[ebp]
	movss	xmm0, DWORD PTR tv212[ebp]
	mov	edx, DWORD PTR _j$[ebp]
	push	edx
	mov	eax, DWORD PTR _i1$[ebp]
	push	eax
	lea	ecx, DWORD PTR _a$[ebp]
	movss	DWORD PTR tv272[ebp], xmm0
	call	??AMatrix3@@QAEAAVVector3@@H@Z		; Matrix3::operator[]
	mov	ecx, eax
	call	??AVector3@@QAEAAMH@Z			; Vector3::operator[]
	push	ecx
	movss	xmm0, DWORD PTR [eax]
	movss	DWORD PTR [esp], xmm0
	call	?Fabs@WWMath@@SAMM@Z			; WWMath::Fabs
	add	esp, 4
	fstp	DWORD PTR tv222[ebp]
	movss	xmm0, DWORD PTR tv272[ebp]
	comiss	xmm0, DWORD PTR tv222[ebp]
	jbe	SHORT $LN6@Inverse

; 321  : 					i1 = i;

	mov	eax, DWORD PTR _i$[ebp]
	mov	DWORD PTR _i1$[ebp], eax
$LN6@Inverse:

; 322  : 				}
; 323  : 			}

	jmp	$LN8@Inverse
$LN7@Inverse:

; 324  : 
; 325  : 			// Swap rows i1 and j in a and b to put pivot on diagonal
; 326  : 			Swap(a.Row[i1], a.Row[j]);

	mov	eax, DWORD PTR _j$[ebp]
	imul	eax, 12					; 0000000cH
	lea	ecx, DWORD PTR _a$[ebp+eax]
	push	ecx
	mov	edx, DWORD PTR _i1$[ebp]
	imul	edx, 12					; 0000000cH
	lea	eax, DWORD PTR _a$[ebp+edx]
	push	eax
	call	?Swap@@YAXAAVVector3@@0@Z		; Swap
	add	esp, 8

; 327  : 			Swap(b.Row[i1], b.Row[j]);

	mov	eax, DWORD PTR _j$[ebp]
	imul	eax, 12					; 0000000cH
	lea	ecx, DWORD PTR _b$[ebp+eax]
	push	ecx
	mov	edx, DWORD PTR _i1$[ebp]
	imul	edx, 12					; 0000000cH
	lea	eax, DWORD PTR _b$[ebp+edx]
	push	eax
	call	?Swap@@YAXAAVVector3@@0@Z		; Swap
	add	esp, 8

; 328  : 
; 329  : 			// Scale row j to have a unit diagonal
; 330  : 			if (a[j][j]==0.) {

	mov	eax, DWORD PTR _j$[ebp]
	push	eax
	mov	ecx, DWORD PTR _j$[ebp]
	push	ecx
	lea	ecx, DWORD PTR _a$[ebp]
	call	??AMatrix3@@QAEAAVVector3@@H@Z		; Matrix3::operator[]
	mov	ecx, eax
	call	??AVector3@@QAEAAMH@Z			; Vector3::operator[]

; 331  : 				//Matrix3::inverse: singular matrix; can't invert
; 332  : 			}
; 333  : 			b.Row[j] /= a.Row[j][j];

	mov	eax, DWORD PTR _j$[ebp]
	push	eax
	mov	ecx, DWORD PTR _j$[ebp]
	imul	ecx, 12					; 0000000cH
	lea	ecx, DWORD PTR _a$[ebp+ecx]
	call	??AVector3@@QAEAAMH@Z			; Vector3::operator[]
	push	ecx
	movss	xmm0, DWORD PTR [eax]
	movss	DWORD PTR [esp], xmm0
	mov	edx, DWORD PTR _j$[ebp]
	imul	edx, 12					; 0000000cH
	lea	ecx, DWORD PTR _b$[ebp+edx]
	call	??_0Vector3@@QAEAAV0@M@Z		; Vector3::operator/=

; 334  : 			a.Row[j] /= a.Row[j][j];

	mov	eax, DWORD PTR _j$[ebp]
	push	eax
	mov	ecx, DWORD PTR _j$[ebp]
	imul	ecx, 12					; 0000000cH
	lea	ecx, DWORD PTR _a$[ebp+ecx]
	call	??AVector3@@QAEAAMH@Z			; Vector3::operator[]
	push	ecx
	movss	xmm0, DWORD PTR [eax]
	movss	DWORD PTR [esp], xmm0
	mov	edx, DWORD PTR _j$[ebp]
	imul	edx, 12					; 0000000cH
	lea	ecx, DWORD PTR _a$[ebp+edx]
	call	??_0Vector3@@QAEAAV0@M@Z		; Vector3::operator/=

; 335  : 
; 336  : 			// Eliminate off-diagonal elems in col j of a, doing identical ops to b
; 337  : 			for (i=0; i<3; i++) {

	mov	DWORD PTR _i$[ebp], 0
	jmp	SHORT $LN4@Inverse
$LN3@Inverse:
	mov	eax, DWORD PTR _i$[ebp]
	add	eax, 1
	mov	DWORD PTR _i$[ebp], eax
$LN4@Inverse:
	cmp	DWORD PTR _i$[ebp], 3
	jge	$LN2@Inverse

; 338  : 				if (i != j) {

	mov	eax, DWORD PTR _i$[ebp]
	cmp	eax, DWORD PTR _j$[ebp]
	je	$LN1@Inverse

; 339  : 					b.Row[i] -= a[i][j] * b.Row[j];

	mov	eax, DWORD PTR _j$[ebp]
	imul	eax, 12					; 0000000cH
	lea	ecx, DWORD PTR _b$[ebp+eax]
	push	ecx
	mov	edx, DWORD PTR _j$[ebp]
	push	edx
	mov	eax, DWORD PTR _i$[ebp]
	push	eax
	lea	ecx, DWORD PTR _a$[ebp]
	call	??AMatrix3@@QAEAAVVector3@@H@Z		; Matrix3::operator[]
	mov	ecx, eax
	call	??AVector3@@QAEAAMH@Z			; Vector3::operator[]
	push	ecx
	movss	xmm0, DWORD PTR [eax]
	movss	DWORD PTR [esp], xmm0
	lea	ecx, DWORD PTR $T1[ebp]
	push	ecx
	call	??D@YA?AVVector3@@MABV0@@Z		; operator*
	add	esp, 12					; 0000000cH
	push	eax
	mov	edx, DWORD PTR _i$[ebp]
	imul	edx, 12					; 0000000cH
	lea	ecx, DWORD PTR _b$[ebp+edx]
	call	??ZVector3@@QAEAAV0@ABV0@@Z		; Vector3::operator-=

; 340  : 					a.Row[i] -= a[i][j] * a.Row[j];

	mov	eax, DWORD PTR _j$[ebp]
	imul	eax, 12					; 0000000cH
	lea	ecx, DWORD PTR _a$[ebp+eax]
	push	ecx
	mov	edx, DWORD PTR _j$[ebp]
	push	edx
	mov	eax, DWORD PTR _i$[ebp]
	push	eax
	lea	ecx, DWORD PTR _a$[ebp]
	call	??AMatrix3@@QAEAAVVector3@@H@Z		; Matrix3::operator[]
	mov	ecx, eax
	call	??AVector3@@QAEAAMH@Z			; Vector3::operator[]
	push	ecx
	movss	xmm0, DWORD PTR [eax]
	movss	DWORD PTR [esp], xmm0
	lea	ecx, DWORD PTR $T2[ebp]
	push	ecx
	call	??D@YA?AVVector3@@MABV0@@Z		; operator*
	add	esp, 12					; 0000000cH
	push	eax
	mov	edx, DWORD PTR _i$[ebp]
	imul	edx, 12					; 0000000cH
	lea	ecx, DWORD PTR _a$[ebp+edx]
	call	??ZVector3@@QAEAAV0@ABV0@@Z		; Vector3::operator-=
$LN1@Inverse:

; 341  : 				}
; 342  : 			}

	jmp	$LN3@Inverse
$LN2@Inverse:

; 343  : 		}

	jmp	$LN11@Inverse
$LN10@Inverse:

; 344  : 		return b;

	lea	eax, DWORD PTR _b$[ebp]
	push	eax
	mov	ecx, DWORD PTR ___$ReturnUdt$[ebp]
	call	??0Matrix3@@QAE@ABV0@@Z			; Matrix3::Matrix3
	mov	eax, DWORD PTR ___$ReturnUdt$[ebp]

; 345  : 	}

	pop	edi
	pop	esi
	pop	ebx
	mov	esp, ebp
	pop	ebp
	ret	4
?Inverse@Matrix3@@QBE?AV1@XZ ENDP			; Matrix3::Inverse
_TEXT	ENDS
; Function compile flags: /Odtp /ZI
; File x:\github\renegade\dragonade_rxd\scripts\matrix3.h
;	COMDAT ?Rotate_AABox_Extent@Matrix3@@QAEXABVVector3@@PAV2@@Z
_TEXT	SEGMENT
tv137 = -84						; size = 4
tv86 = -80						; size = 4
_j$1 = -12						; size = 4
_i$2 = -8						; size = 4
_this$ = -4						; size = 4
_extent$ = 8						; size = 4
_new_extent$ = 12					; size = 4
?Rotate_AABox_Extent@Matrix3@@QAEXABVVector3@@PAV2@@Z PROC ; Matrix3::Rotate_AABox_Extent, COMDAT
; _this$ = ecx

; 298  : 	{

	push	ebp
	mov	ebp, esp
	sub	esp, 84					; 00000054H
	push	ebx
	push	esi
	push	edi
	mov	DWORD PTR _this$[ebp], ecx

; 299  : 		for (int i=0; i<3; i++)

	mov	DWORD PTR _i$2[ebp], 0
	jmp	SHORT $LN6@Rotate_AAB
$LN5@Rotate_AAB:
	mov	eax, DWORD PTR _i$2[ebp]
	add	eax, 1
	mov	DWORD PTR _i$2[ebp], eax
$LN6@Rotate_AAB:
	cmp	DWORD PTR _i$2[ebp], 3
	jge	$LN4@Rotate_AAB

; 300  : 		{
; 301  : 			(*new_extent)[i] = 0.0f;

	mov	eax, DWORD PTR _i$2[ebp]
	push	eax
	mov	ecx, DWORD PTR _new_extent$[ebp]
	call	??AVector3@@QAEAAMH@Z			; Vector3::operator[]
	movss	xmm0, DWORD PTR __real@00000000
	movss	DWORD PTR [eax], xmm0

; 302  : 			for (int j=0; j<3; j++)

	mov	DWORD PTR _j$1[ebp], 0
	jmp	SHORT $LN3@Rotate_AAB
$LN2@Rotate_AAB:
	mov	eax, DWORD PTR _j$1[ebp]
	add	eax, 1
	mov	DWORD PTR _j$1[ebp], eax
$LN3@Rotate_AAB:
	cmp	DWORD PTR _j$1[ebp], 3
	jge	SHORT $LN1@Rotate_AAB

; 303  : 			{
; 304  : 				(*new_extent)[i] += WWMath::Fabs(Row[i][j] * extent[j]);

	mov	eax, DWORD PTR _i$2[ebp]
	push	eax
	mov	ecx, DWORD PTR _new_extent$[ebp]
	call	??AVector3@@QAEAAMH@Z			; Vector3::operator[]
	mov	DWORD PTR tv86[ebp], eax
	mov	ecx, DWORD PTR _j$1[ebp]
	push	ecx
	mov	ecx, DWORD PTR _i$2[ebp]
	imul	ecx, 12					; 0000000cH
	add	ecx, DWORD PTR _this$[ebp]
	call	??AVector3@@QAEAAMH@Z			; Vector3::operator[]
	mov	esi, eax
	mov	edx, DWORD PTR _j$1[ebp]
	push	edx
	mov	ecx, DWORD PTR _extent$[ebp]
	call	??AVector3@@QBEABMH@Z			; Vector3::operator[]
	movss	xmm0, DWORD PTR [esi]
	mulss	xmm0, DWORD PTR [eax]
	push	ecx
	movss	DWORD PTR [esp], xmm0
	call	?Fabs@WWMath@@SAMM@Z			; WWMath::Fabs
	add	esp, 4
	fstp	DWORD PTR tv137[ebp]
	mov	eax, DWORD PTR tv86[ebp]
	movss	xmm0, DWORD PTR tv137[ebp]
	addss	xmm0, DWORD PTR [eax]
	mov	ecx, DWORD PTR tv86[ebp]
	movss	DWORD PTR [ecx], xmm0

; 305  : 			}

	jmp	SHORT $LN2@Rotate_AAB
$LN1@Rotate_AAB:

; 306  : 		}

	jmp	$LN5@Rotate_AAB
$LN4@Rotate_AAB:

; 307  : 	}

	pop	edi
	pop	esi
	pop	ebx
	mov	esp, ebp
	pop	ebp
	ret	8
?Rotate_AABox_Extent@Matrix3@@QAEXABVVector3@@PAV2@@Z ENDP ; Matrix3::Rotate_AABox_Extent
_TEXT	ENDS
; Function compile flags: /Odtp /ZI
; File x:\github\renegade\dragonade_rxd\scripts\matrix3.h
;	COMDAT ?Transpose_Rotate_Vector@Matrix3@@SAXABV1@ABVVector3@@PAV2@@Z
_TEXT	SEGMENT
tv237 = -88						; size = 4
tv233 = -88						; size = 4
tv229 = -88						; size = 4
tv235 = -84						; size = 4
tv231 = -84						; size = 4
tv227 = -84						; size = 4
_v$ = -16						; size = 4
_tmp$ = -12						; size = 12
_A$ = 8							; size = 4
_in$ = 12						; size = 4
_out$ = 16						; size = 4
?Transpose_Rotate_Vector@Matrix3@@SAXABV1@ABVVector3@@PAV2@@Z PROC ; Matrix3::Transpose_Rotate_Vector, COMDAT

; 283  : 	{

	push	ebp
	mov	ebp, esp
	sub	esp, 88					; 00000058H
	push	ebx
	push	esi
	push	edi

; 284  : 		Vector3 tmp;

	lea	ecx, DWORD PTR _tmp$[ebp]
	call	??0Vector3@@QAE@XZ			; Vector3::Vector3

; 285  : 		Vector3 * v;
; 286  : 		if (out == &in)

	mov	eax, DWORD PTR _out$[ebp]
	cmp	eax, DWORD PTR _in$[ebp]
	jne	SHORT $LN2@Transpose_

; 287  : 		{
; 288  : 			tmp = in;

	mov	eax, DWORD PTR _in$[ebp]
	push	eax
	lea	ecx, DWORD PTR _tmp$[ebp]
	call	??4Vector3@@QAEAAV0@ABV0@@Z		; Vector3::operator=

; 289  : 			v = &tmp;

	lea	eax, DWORD PTR _tmp$[ebp]
	mov	DWORD PTR _v$[ebp], eax

; 290  : 		} else {

	jmp	SHORT $LN1@Transpose_
$LN2@Transpose_:

; 291  : 			v = (Vector3 *)&in;

	mov	eax, DWORD PTR _in$[ebp]
	mov	DWORD PTR _v$[ebp], eax
$LN1@Transpose_:

; 292  : 		}
; 293  : 		out->X = (A[0][0] * v->X + A[1][0] * v->Y + A[2][0] * v->Z);

	push	0
	push	0
	mov	ecx, DWORD PTR _A$[ebp]
	call	??AMatrix3@@QBEABVVector3@@H@Z		; Matrix3::operator[]
	mov	ecx, eax
	call	??AVector3@@QBEABMH@Z			; Vector3::operator[]
	mov	ecx, DWORD PTR _v$[ebp]
	movss	xmm0, DWORD PTR [eax]
	mulss	xmm0, DWORD PTR [ecx]
	push	0
	push	1
	mov	ecx, DWORD PTR _A$[ebp]
	movss	DWORD PTR tv227[ebp], xmm0
	call	??AMatrix3@@QBEABVVector3@@H@Z		; Matrix3::operator[]
	mov	ecx, eax
	call	??AVector3@@QBEABMH@Z			; Vector3::operator[]
	mov	edx, DWORD PTR _v$[ebp]
	movss	xmm0, DWORD PTR [eax]
	mulss	xmm0, DWORD PTR [edx+4]
	movss	xmm1, DWORD PTR tv227[ebp]
	addss	xmm1, xmm0
	push	0
	push	2
	mov	ecx, DWORD PTR _A$[ebp]
	movss	DWORD PTR tv229[ebp], xmm1
	call	??AMatrix3@@QBEABVVector3@@H@Z		; Matrix3::operator[]
	mov	ecx, eax
	call	??AVector3@@QBEABMH@Z			; Vector3::operator[]
	mov	ecx, DWORD PTR _v$[ebp]
	movss	xmm0, DWORD PTR [eax]
	mulss	xmm0, DWORD PTR [ecx+8]
	movss	xmm1, DWORD PTR tv229[ebp]
	addss	xmm1, xmm0
	mov	edx, DWORD PTR _out$[ebp]
	movss	DWORD PTR [edx], xmm1

; 294  : 		out->Y = (A[0][1] * v->X + A[1][1] * v->Y + A[2][1] * v->Z);

	push	1
	push	0
	mov	ecx, DWORD PTR _A$[ebp]
	call	??AMatrix3@@QBEABVVector3@@H@Z		; Matrix3::operator[]
	mov	ecx, eax
	call	??AVector3@@QBEABMH@Z			; Vector3::operator[]
	mov	ecx, DWORD PTR _v$[ebp]
	movss	xmm0, DWORD PTR [eax]
	mulss	xmm0, DWORD PTR [ecx]
	push	1
	push	1
	mov	ecx, DWORD PTR _A$[ebp]
	movss	DWORD PTR tv231[ebp], xmm0
	call	??AMatrix3@@QBEABVVector3@@H@Z		; Matrix3::operator[]
	mov	ecx, eax
	call	??AVector3@@QBEABMH@Z			; Vector3::operator[]
	mov	edx, DWORD PTR _v$[ebp]
	movss	xmm0, DWORD PTR [eax]
	mulss	xmm0, DWORD PTR [edx+4]
	movss	xmm1, DWORD PTR tv231[ebp]
	addss	xmm1, xmm0
	push	1
	push	2
	mov	ecx, DWORD PTR _A$[ebp]
	movss	DWORD PTR tv233[ebp], xmm1
	call	??AMatrix3@@QBEABVVector3@@H@Z		; Matrix3::operator[]
	mov	ecx, eax
	call	??AVector3@@QBEABMH@Z			; Vector3::operator[]
	mov	ecx, DWORD PTR _v$[ebp]
	movss	xmm0, DWORD PTR [eax]
	mulss	xmm0, DWORD PTR [ecx+8]
	movss	xmm1, DWORD PTR tv233[ebp]
	addss	xmm1, xmm0
	mov	edx, DWORD PTR _out$[ebp]
	movss	DWORD PTR [edx+4], xmm1

; 295  : 		out->Z = (A[0][2] * v->X + A[1][2] * v->Y + A[2][2] * v->Z);

	push	2
	push	0
	mov	ecx, DWORD PTR _A$[ebp]
	call	??AMatrix3@@QBEABVVector3@@H@Z		; Matrix3::operator[]
	mov	ecx, eax
	call	??AVector3@@QBEABMH@Z			; Vector3::operator[]
	mov	ecx, DWORD PTR _v$[ebp]
	movss	xmm0, DWORD PTR [eax]
	mulss	xmm0, DWORD PTR [ecx]
	push	2
	push	1
	mov	ecx, DWORD PTR _A$[ebp]
	movss	DWORD PTR tv235[ebp], xmm0
	call	??AMatrix3@@QBEABVVector3@@H@Z		; Matrix3::operator[]
	mov	ecx, eax
	call	??AVector3@@QBEABMH@Z			; Vector3::operator[]
	mov	edx, DWORD PTR _v$[ebp]
	movss	xmm0, DWORD PTR [eax]
	mulss	xmm0, DWORD PTR [edx+4]
	movss	xmm1, DWORD PTR tv235[ebp]
	addss	xmm1, xmm0
	push	2
	push	2
	mov	ecx, DWORD PTR _A$[ebp]
	movss	DWORD PTR tv237[ebp], xmm1
	call	??AMatrix3@@QBEABVVector3@@H@Z		; Matrix3::operator[]
	mov	ecx, eax
	call	??AVector3@@QBEABMH@Z			; Vector3::operator[]
	mov	ecx, DWORD PTR _v$[ebp]
	movss	xmm0, DWORD PTR [eax]
	mulss	xmm0, DWORD PTR [ecx+8]
	movss	xmm1, DWORD PTR tv237[ebp]
	addss	xmm1, xmm0
	mov	edx, DWORD PTR _out$[ebp]
	movss	DWORD PTR [edx+8], xmm1

; 296  : 	}

	pop	edi
	pop	esi
	pop	ebx
	mov	esp, ebp
	pop	ebp
	ret	0
?Transpose_Rotate_Vector@Matrix3@@SAXABV1@ABVVector3@@PAV2@@Z ENDP ; Matrix3::Transpose_Rotate_Vector
_TEXT	ENDS
; Function compile flags: /Odtp /ZI
; File x:\github\renegade\dragonade_rxd\scripts\matrix3.h
;	COMDAT ?Rotate_Vector@Matrix3@@SAXABV1@ABVVector3@@PAV2@@Z
_TEXT	SEGMENT
tv237 = -88						; size = 4
tv233 = -88						; size = 4
tv229 = -88						; size = 4
tv235 = -84						; size = 4
tv231 = -84						; size = 4
tv227 = -84						; size = 4
_v$ = -16						; size = 4
_tmp$ = -12						; size = 12
_A$ = 8							; size = 4
_in$ = 12						; size = 4
_out$ = 16						; size = 4
?Rotate_Vector@Matrix3@@SAXABV1@ABVVector3@@PAV2@@Z PROC ; Matrix3::Rotate_Vector, COMDAT

; 266  : 	{

	push	ebp
	mov	ebp, esp
	sub	esp, 88					; 00000058H
	push	ebx
	push	esi
	push	edi

; 267  : 		Vector3 tmp;

	lea	ecx, DWORD PTR _tmp$[ebp]
	call	??0Vector3@@QAE@XZ			; Vector3::Vector3

; 268  : 		Vector3 * v;
; 269  : 		if (out == &in)

	mov	eax, DWORD PTR _out$[ebp]
	cmp	eax, DWORD PTR _in$[ebp]
	jne	SHORT $LN2@Rotate_Vec

; 270  : 		{
; 271  : 			tmp = in;

	mov	eax, DWORD PTR _in$[ebp]
	push	eax
	lea	ecx, DWORD PTR _tmp$[ebp]
	call	??4Vector3@@QAEAAV0@ABV0@@Z		; Vector3::operator=

; 272  : 			v = &tmp;

	lea	eax, DWORD PTR _tmp$[ebp]
	mov	DWORD PTR _v$[ebp], eax

; 273  : 		}
; 274  : 		else

	jmp	SHORT $LN1@Rotate_Vec
$LN2@Rotate_Vec:

; 275  : 		{
; 276  : 			v = (Vector3 *)&in;

	mov	eax, DWORD PTR _in$[ebp]
	mov	DWORD PTR _v$[ebp], eax
$LN1@Rotate_Vec:

; 277  : 		}
; 278  : 		out->X = (A[0][0] * v->X + A[0][1] * v->Y + A[0][2] * v->Z);

	push	0
	push	0
	mov	ecx, DWORD PTR _A$[ebp]
	call	??AMatrix3@@QBEABVVector3@@H@Z		; Matrix3::operator[]
	mov	ecx, eax
	call	??AVector3@@QBEABMH@Z			; Vector3::operator[]
	mov	ecx, DWORD PTR _v$[ebp]
	movss	xmm0, DWORD PTR [eax]
	mulss	xmm0, DWORD PTR [ecx]
	push	1
	push	0
	mov	ecx, DWORD PTR _A$[ebp]
	movss	DWORD PTR tv227[ebp], xmm0
	call	??AMatrix3@@QBEABVVector3@@H@Z		; Matrix3::operator[]
	mov	ecx, eax
	call	??AVector3@@QBEABMH@Z			; Vector3::operator[]
	mov	edx, DWORD PTR _v$[ebp]
	movss	xmm0, DWORD PTR [eax]
	mulss	xmm0, DWORD PTR [edx+4]
	movss	xmm1, DWORD PTR tv227[ebp]
	addss	xmm1, xmm0
	push	2
	push	0
	mov	ecx, DWORD PTR _A$[ebp]
	movss	DWORD PTR tv229[ebp], xmm1
	call	??AMatrix3@@QBEABVVector3@@H@Z		; Matrix3::operator[]
	mov	ecx, eax
	call	??AVector3@@QBEABMH@Z			; Vector3::operator[]
	mov	ecx, DWORD PTR _v$[ebp]
	movss	xmm0, DWORD PTR [eax]
	mulss	xmm0, DWORD PTR [ecx+8]
	movss	xmm1, DWORD PTR tv229[ebp]
	addss	xmm1, xmm0
	mov	edx, DWORD PTR _out$[ebp]
	movss	DWORD PTR [edx], xmm1

; 279  : 		out->Y = (A[1][0] * v->X + A[1][1] * v->Y + A[1][2] * v->Z);

	push	0
	push	1
	mov	ecx, DWORD PTR _A$[ebp]
	call	??AMatrix3@@QBEABVVector3@@H@Z		; Matrix3::operator[]
	mov	ecx, eax
	call	??AVector3@@QBEABMH@Z			; Vector3::operator[]
	mov	ecx, DWORD PTR _v$[ebp]
	movss	xmm0, DWORD PTR [eax]
	mulss	xmm0, DWORD PTR [ecx]
	push	1
	push	1
	mov	ecx, DWORD PTR _A$[ebp]
	movss	DWORD PTR tv231[ebp], xmm0
	call	??AMatrix3@@QBEABVVector3@@H@Z		; Matrix3::operator[]
	mov	ecx, eax
	call	??AVector3@@QBEABMH@Z			; Vector3::operator[]
	mov	edx, DWORD PTR _v$[ebp]
	movss	xmm0, DWORD PTR [eax]
	mulss	xmm0, DWORD PTR [edx+4]
	movss	xmm1, DWORD PTR tv231[ebp]
	addss	xmm1, xmm0
	push	2
	push	1
	mov	ecx, DWORD PTR _A$[ebp]
	movss	DWORD PTR tv233[ebp], xmm1
	call	??AMatrix3@@QBEABVVector3@@H@Z		; Matrix3::operator[]
	mov	ecx, eax
	call	??AVector3@@QBEABMH@Z			; Vector3::operator[]
	mov	ecx, DWORD PTR _v$[ebp]
	movss	xmm0, DWORD PTR [eax]
	mulss	xmm0, DWORD PTR [ecx+8]
	movss	xmm1, DWORD PTR tv233[ebp]
	addss	xmm1, xmm0
	mov	edx, DWORD PTR _out$[ebp]
	movss	DWORD PTR [edx+4], xmm1

; 280  : 		out->Z = (A[2][0] * v->X + A[2][1] * v->Y + A[2][2] * v->Z);

	push	0
	push	2
	mov	ecx, DWORD PTR _A$[ebp]
	call	??AMatrix3@@QBEABVVector3@@H@Z		; Matrix3::operator[]
	mov	ecx, eax
	call	??AVector3@@QBEABMH@Z			; Vector3::operator[]
	mov	ecx, DWORD PTR _v$[ebp]
	movss	xmm0, DWORD PTR [eax]
	mulss	xmm0, DWORD PTR [ecx]
	push	1
	push	2
	mov	ecx, DWORD PTR _A$[ebp]
	movss	DWORD PTR tv235[ebp], xmm0
	call	??AMatrix3@@QBEABVVector3@@H@Z		; Matrix3::operator[]
	mov	ecx, eax
	call	??AVector3@@QBEABMH@Z			; Vector3::operator[]
	mov	edx, DWORD PTR _v$[ebp]
	movss	xmm0, DWORD PTR [eax]
	mulss	xmm0, DWORD PTR [edx+4]
	movss	xmm1, DWORD PTR tv235[ebp]
	addss	xmm1, xmm0
	push	2
	push	2
	mov	ecx, DWORD PTR _A$[ebp]
	movss	DWORD PTR tv237[ebp], xmm1
	call	??AMatrix3@@QBEABVVector3@@H@Z		; Matrix3::operator[]
	mov	ecx, eax
	call	??AVector3@@QBEABMH@Z			; Vector3::operator[]
	mov	ecx, DWORD PTR _v$[ebp]
	movss	xmm0, DWORD PTR [eax]
	mulss	xmm0, DWORD PTR [ecx+8]
	movss	xmm1, DWORD PTR tv237[ebp]
	addss	xmm1, xmm0
	mov	edx, DWORD PTR _out$[ebp]
	movss	DWORD PTR [edx+8], xmm1

; 281  : 	}

	pop	edi
	pop	esi
	pop	ebx
	mov	esp, ebp
	pop	ebp
	ret	0
?Rotate_Vector@Matrix3@@SAXABV1@ABVVector3@@PAV2@@Z ENDP ; Matrix3::Rotate_Vector
_TEXT	ENDS
; Function compile flags: /Odtp /ZI
; File x:\github\renegade\dragonade_rxd\scripts\matrix3.h
;	COMDAT ?Subtract@Matrix3@@SAXABV1@0PAV1@@Z
_TEXT	SEGMENT
_a$ = 8							; size = 4
_b$ = 12						; size = 4
_res$ = 16						; size = 4
?Subtract@Matrix3@@SAXABV1@0PAV1@@Z PROC		; Matrix3::Subtract, COMDAT

; 257  : 	{

	push	ebp
	mov	ebp, esp
	sub	esp, 64					; 00000040H
	push	ebx
	push	esi
	push	edi

; 258  : 		Vector3::Subtract(a.Row[0],b.Row[0],&(res->Row[0]));

	mov	eax, 12					; 0000000cH
	imul	eax, 0
	add	eax, DWORD PTR _res$[ebp]
	push	eax
	mov	ecx, 12					; 0000000cH
	imul	ecx, 0
	add	ecx, DWORD PTR _b$[ebp]
	push	ecx
	mov	edx, 12					; 0000000cH
	imul	edx, 0
	add	edx, DWORD PTR _a$[ebp]
	push	edx
	call	?Subtract@Vector3@@SAXABV1@0PAV1@@Z	; Vector3::Subtract
	add	esp, 12					; 0000000cH

; 259  : 		Vector3::Subtract(a.Row[1],b.Row[1],&(res->Row[1]));

	mov	eax, 12					; 0000000cH
	shl	eax, 0
	add	eax, DWORD PTR _res$[ebp]
	push	eax
	mov	ecx, 12					; 0000000cH
	shl	ecx, 0
	add	ecx, DWORD PTR _b$[ebp]
	push	ecx
	mov	edx, 12					; 0000000cH
	shl	edx, 0
	add	edx, DWORD PTR _a$[ebp]
	push	edx
	call	?Subtract@Vector3@@SAXABV1@0PAV1@@Z	; Vector3::Subtract
	add	esp, 12					; 0000000cH

; 260  : 		Vector3::Subtract(a.Row[2],b.Row[2],&(res->Row[2]));

	mov	eax, 12					; 0000000cH
	shl	eax, 1
	add	eax, DWORD PTR _res$[ebp]
	push	eax
	mov	ecx, 12					; 0000000cH
	shl	ecx, 1
	add	ecx, DWORD PTR _b$[ebp]
	push	ecx
	mov	edx, 12					; 0000000cH
	shl	edx, 1
	add	edx, DWORD PTR _a$[ebp]
	push	edx
	call	?Subtract@Vector3@@SAXABV1@0PAV1@@Z	; Vector3::Subtract
	add	esp, 12					; 0000000cH

; 261  : 	}

	pop	edi
	pop	esi
	pop	ebx
	mov	esp, ebp
	pop	ebp
	ret	0
?Subtract@Matrix3@@SAXABV1@0PAV1@@Z ENDP		; Matrix3::Subtract
_TEXT	ENDS
; Function compile flags: /Odtp /ZI
; File x:\github\renegade\dragonade_rxd\scripts\matrix3.h
;	COMDAT ?Add@Matrix3@@SAXABV1@0PAV1@@Z
_TEXT	SEGMENT
_a$ = 8							; size = 4
_b$ = 12						; size = 4
_res$ = 16						; size = 4
?Add@Matrix3@@SAXABV1@0PAV1@@Z PROC			; Matrix3::Add, COMDAT

; 251  : 	{ 

	push	ebp
	mov	ebp, esp
	sub	esp, 64					; 00000040H
	push	ebx
	push	esi
	push	edi

; 252  : 		Vector3::Add(a.Row[0],b.Row[0],&(res->Row[0]));

	mov	eax, 12					; 0000000cH
	imul	eax, 0
	add	eax, DWORD PTR _res$[ebp]
	push	eax
	mov	ecx, 12					; 0000000cH
	imul	ecx, 0
	add	ecx, DWORD PTR _b$[ebp]
	push	ecx
	mov	edx, 12					; 0000000cH
	imul	edx, 0
	add	edx, DWORD PTR _a$[ebp]
	push	edx
	call	?Add@Vector3@@SAXABV1@0PAV1@@Z		; Vector3::Add
	add	esp, 12					; 0000000cH

; 253  : 		Vector3::Add(a.Row[1],b.Row[1],&(res->Row[1]));

	mov	eax, 12					; 0000000cH
	shl	eax, 0
	add	eax, DWORD PTR _res$[ebp]
	push	eax
	mov	ecx, 12					; 0000000cH
	shl	ecx, 0
	add	ecx, DWORD PTR _b$[ebp]
	push	ecx
	mov	edx, 12					; 0000000cH
	shl	edx, 0
	add	edx, DWORD PTR _a$[ebp]
	push	edx
	call	?Add@Vector3@@SAXABV1@0PAV1@@Z		; Vector3::Add
	add	esp, 12					; 0000000cH

; 254  : 		Vector3::Add(a.Row[2],b.Row[2],&(res->Row[2]));

	mov	eax, 12					; 0000000cH
	shl	eax, 1
	add	eax, DWORD PTR _res$[ebp]
	push	eax
	mov	ecx, 12					; 0000000cH
	shl	ecx, 1
	add	ecx, DWORD PTR _b$[ebp]
	push	ecx
	mov	edx, 12					; 0000000cH
	shl	edx, 1
	add	edx, DWORD PTR _a$[ebp]
	push	edx
	call	?Add@Vector3@@SAXABV1@0PAV1@@Z		; Vector3::Add
	add	esp, 12					; 0000000cH

; 255  : 	}

	pop	edi
	pop	esi
	pop	ebx
	mov	esp, ebp
	pop	ebp
	ret	0
?Add@Matrix3@@SAXABV1@0PAV1@@Z ENDP			; Matrix3::Add
_TEXT	ENDS
; Function compile flags: /Odtp /ZI
; File x:\github\renegade\dragonade_rxd\scripts\matrix3.h
;	COMDAT ??D@YA?AVVector3@@ABVMatrix3@@ABV0@@Z
_TEXT	SEGMENT
tv246 = -88						; size = 4
tv244 = -84						; size = 4
tv242 = -80						; size = 4
tv240 = -76						; size = 4
tv238 = -72						; size = 4
tv236 = -68						; size = 4
___$ReturnUdt$ = 8					; size = 4
_a$ = 12						; size = 4
_v$ = 16						; size = 4
??D@YA?AVVector3@@ABVMatrix3@@ABV0@@Z PROC		; operator*, COMDAT

; 398  : {

	push	ebp
	mov	ebp, esp
	sub	esp, 88					; 00000058H
	push	ebx
	push	esi
	push	edi

; 399  : 	return Vector3(
; 400  : 		a[0][0] * v[0] + a[0][1] * v[1] + a[0][2] * v[2],
; 401  : 		a[1][0] * v[0] + a[1][1] * v[1] + a[1][2] * v[2],
; 402  : 		a[2][0] * v[0] + a[2][1] * v[1] + a[2][2] * v[2] 
; 403  : 	);

	push	0
	push	2
	mov	ecx, DWORD PTR _a$[ebp]
	call	??AMatrix3@@QBEABVVector3@@H@Z		; Matrix3::operator[]
	mov	ecx, eax
	call	??AVector3@@QBEABMH@Z			; Vector3::operator[]
	mov	esi, eax
	push	0
	mov	ecx, DWORD PTR _v$[ebp]
	call	??AVector3@@QBEABMH@Z			; Vector3::operator[]
	movss	xmm0, DWORD PTR [esi]
	mulss	xmm0, DWORD PTR [eax]
	push	1
	push	2
	mov	ecx, DWORD PTR _a$[ebp]
	movss	DWORD PTR tv236[ebp], xmm0
	call	??AMatrix3@@QBEABVVector3@@H@Z		; Matrix3::operator[]
	mov	ecx, eax
	call	??AVector3@@QBEABMH@Z			; Vector3::operator[]
	mov	esi, eax
	push	1
	mov	ecx, DWORD PTR _v$[ebp]
	call	??AVector3@@QBEABMH@Z			; Vector3::operator[]
	movss	xmm0, DWORD PTR [esi]
	mulss	xmm0, DWORD PTR [eax]
	movss	xmm1, DWORD PTR tv236[ebp]
	addss	xmm1, xmm0
	push	2
	push	2
	mov	ecx, DWORD PTR _a$[ebp]
	movss	DWORD PTR tv238[ebp], xmm1
	call	??AMatrix3@@QBEABVVector3@@H@Z		; Matrix3::operator[]
	mov	ecx, eax
	call	??AVector3@@QBEABMH@Z			; Vector3::operator[]
	mov	esi, eax
	push	2
	mov	ecx, DWORD PTR _v$[ebp]
	call	??AVector3@@QBEABMH@Z			; Vector3::operator[]
	movss	xmm0, DWORD PTR [esi]
	mulss	xmm0, DWORD PTR [eax]
	movss	xmm1, DWORD PTR tv238[ebp]
	addss	xmm1, xmm0
	push	ecx
	movss	DWORD PTR [esp], xmm1
	push	0
	push	1
	mov	ecx, DWORD PTR _a$[ebp]
	call	??AMatrix3@@QBEABVVector3@@H@Z		; Matrix3::operator[]
	mov	ecx, eax
	call	??AVector3@@QBEABMH@Z			; Vector3::operator[]
	mov	esi, eax
	push	0
	mov	ecx, DWORD PTR _v$[ebp]
	call	??AVector3@@QBEABMH@Z			; Vector3::operator[]
	movss	xmm0, DWORD PTR [esi]
	mulss	xmm0, DWORD PTR [eax]
	push	1
	push	1
	mov	ecx, DWORD PTR _a$[ebp]
	movss	DWORD PTR tv240[ebp], xmm0
	call	??AMatrix3@@QBEABVVector3@@H@Z		; Matrix3::operator[]
	mov	ecx, eax
	call	??AVector3@@QBEABMH@Z			; Vector3::operator[]
	mov	esi, eax
	push	1
	mov	ecx, DWORD PTR _v$[ebp]
	call	??AVector3@@QBEABMH@Z			; Vector3::operator[]
	movss	xmm0, DWORD PTR [esi]
	mulss	xmm0, DWORD PTR [eax]
	movss	xmm1, DWORD PTR tv240[ebp]
	addss	xmm1, xmm0
	push	2
	push	1
	mov	ecx, DWORD PTR _a$[ebp]
	movss	DWORD PTR tv242[ebp], xmm1
	call	??AMatrix3@@QBEABVVector3@@H@Z		; Matrix3::operator[]
	mov	ecx, eax
	call	??AVector3@@QBEABMH@Z			; Vector3::operator[]
	mov	esi, eax
	push	2
	mov	ecx, DWORD PTR _v$[ebp]
	call	??AVector3@@QBEABMH@Z			; Vector3::operator[]
	movss	xmm0, DWORD PTR [esi]
	mulss	xmm0, DWORD PTR [eax]
	movss	xmm1, DWORD PTR tv242[ebp]
	addss	xmm1, xmm0
	push	ecx
	movss	DWORD PTR [esp], xmm1
	push	0
	push	0
	mov	ecx, DWORD PTR _a$[ebp]
	call	??AMatrix3@@QBEABVVector3@@H@Z		; Matrix3::operator[]
	mov	ecx, eax
	call	??AVector3@@QBEABMH@Z			; Vector3::operator[]
	mov	esi, eax
	push	0
	mov	ecx, DWORD PTR _v$[ebp]
	call	??AVector3@@QBEABMH@Z			; Vector3::operator[]
	movss	xmm0, DWORD PTR [esi]
	mulss	xmm0, DWORD PTR [eax]
	push	1
	push	0
	mov	ecx, DWORD PTR _a$[ebp]
	movss	DWORD PTR tv244[ebp], xmm0
	call	??AMatrix3@@QBEABVVector3@@H@Z		; Matrix3::operator[]
	mov	ecx, eax
	call	??AVector3@@QBEABMH@Z			; Vector3::operator[]
	mov	esi, eax
	push	1
	mov	ecx, DWORD PTR _v$[ebp]
	call	??AVector3@@QBEABMH@Z			; Vector3::operator[]
	movss	xmm0, DWORD PTR [esi]
	mulss	xmm0, DWORD PTR [eax]
	movss	xmm1, DWORD PTR tv244[ebp]
	addss	xmm1, xmm0
	push	2
	push	0
	mov	ecx, DWORD PTR _a$[ebp]
	movss	DWORD PTR tv246[ebp], xmm1
	call	??AMatrix3@@QBEABVVector3@@H@Z		; Matrix3::operator[]
	mov	ecx, eax
	call	??AVector3@@QBEABMH@Z			; Vector3::operator[]
	mov	esi, eax
	push	2
	mov	ecx, DWORD PTR _v$[ebp]
	call	??AVector3@@QBEABMH@Z			; Vector3::operator[]
	movss	xmm0, DWORD PTR [esi]
	mulss	xmm0, DWORD PTR [eax]
	movss	xmm1, DWORD PTR tv246[ebp]
	addss	xmm1, xmm0
	push	ecx
	movss	DWORD PTR [esp], xmm1
	mov	ecx, DWORD PTR ___$ReturnUdt$[ebp]
	call	??0Vector3@@QAE@MMM@Z			; Vector3::Vector3
	mov	eax, DWORD PTR ___$ReturnUdt$[ebp]

; 404  : }

	pop	edi
	pop	esi
	pop	ebx
	mov	esp, ebp
	pop	ebp
	ret	0
??D@YA?AVVector3@@ABVMatrix3@@ABV0@@Z ENDP		; operator*
_TEXT	ENDS
; Function compile flags: /Odtp /ZI
; File x:\github\renegade\dragonade_rxd\scripts\matrix3.h
;	COMDAT ?Get_Z_Vector@Matrix3@@QBEXPAVVector3@@@Z
_TEXT	SEGMENT
_this$ = -4						; size = 4
_set_z$ = 8						; size = 4
?Get_Z_Vector@Matrix3@@QBEXPAVVector3@@@Z PROC		; Matrix3::Get_Z_Vector, COMDAT
; _this$ = ecx

; 234  : 	{

	push	ebp
	mov	ebp, esp
	sub	esp, 68					; 00000044H
	push	ebx
	push	esi
	push	edi
	mov	DWORD PTR _this$[ebp], ecx

; 235  : 		set_z->Set(Row[0][2], Row[1][2], Row[2][2]);

	push	2
	mov	ecx, 12					; 0000000cH
	shl	ecx, 1
	add	ecx, DWORD PTR _this$[ebp]
	call	??AVector3@@QBEABMH@Z			; Vector3::operator[]
	push	ecx
	movss	xmm0, DWORD PTR [eax]
	movss	DWORD PTR [esp], xmm0
	push	2
	mov	ecx, 12					; 0000000cH
	shl	ecx, 0
	add	ecx, DWORD PTR _this$[ebp]
	call	??AVector3@@QBEABMH@Z			; Vector3::operator[]
	push	ecx
	movss	xmm0, DWORD PTR [eax]
	movss	DWORD PTR [esp], xmm0
	push	2
	mov	ecx, 12					; 0000000cH
	imul	ecx, 0
	add	ecx, DWORD PTR _this$[ebp]
	call	??AVector3@@QBEABMH@Z			; Vector3::operator[]
	push	ecx
	movss	xmm0, DWORD PTR [eax]
	movss	DWORD PTR [esp], xmm0
	mov	ecx, DWORD PTR _set_z$[ebp]
	call	?Set@Vector3@@QAEXMMM@Z			; Vector3::Set

; 236  : 	}

	pop	edi
	pop	esi
	pop	ebx
	mov	esp, ebp
	pop	ebp
	ret	4
?Get_Z_Vector@Matrix3@@QBEXPAVVector3@@@Z ENDP		; Matrix3::Get_Z_Vector
_TEXT	ENDS
; Function compile flags: /Odtp /ZI
; File x:\github\renegade\dragonade_rxd\scripts\matrix3.h
;	COMDAT ?Get_Y_Vector@Matrix3@@QBEXPAVVector3@@@Z
_TEXT	SEGMENT
_this$ = -4						; size = 4
_set_y$ = 8						; size = 4
?Get_Y_Vector@Matrix3@@QBEXPAVVector3@@@Z PROC		; Matrix3::Get_Y_Vector, COMDAT
; _this$ = ecx

; 230  : 	{

	push	ebp
	mov	ebp, esp
	sub	esp, 68					; 00000044H
	push	ebx
	push	esi
	push	edi
	mov	DWORD PTR _this$[ebp], ecx

; 231  : 		set_y->Set(Row[0][1], Row[1][1], Row[2][1]);

	push	1
	mov	ecx, 12					; 0000000cH
	shl	ecx, 1
	add	ecx, DWORD PTR _this$[ebp]
	call	??AVector3@@QBEABMH@Z			; Vector3::operator[]
	push	ecx
	movss	xmm0, DWORD PTR [eax]
	movss	DWORD PTR [esp], xmm0
	push	1
	mov	ecx, 12					; 0000000cH
	shl	ecx, 0
	add	ecx, DWORD PTR _this$[ebp]
	call	??AVector3@@QBEABMH@Z			; Vector3::operator[]
	push	ecx
	movss	xmm0, DWORD PTR [eax]
	movss	DWORD PTR [esp], xmm0
	push	1
	mov	ecx, 12					; 0000000cH
	imul	ecx, 0
	add	ecx, DWORD PTR _this$[ebp]
	call	??AVector3@@QBEABMH@Z			; Vector3::operator[]
	push	ecx
	movss	xmm0, DWORD PTR [eax]
	movss	DWORD PTR [esp], xmm0
	mov	ecx, DWORD PTR _set_y$[ebp]
	call	?Set@Vector3@@QAEXMMM@Z			; Vector3::Set

; 232  : 	}

	pop	edi
	pop	esi
	pop	ebx
	mov	esp, ebp
	pop	ebp
	ret	4
?Get_Y_Vector@Matrix3@@QBEXPAVVector3@@@Z ENDP		; Matrix3::Get_Y_Vector
_TEXT	ENDS
; Function compile flags: /Odtp /ZI
; File x:\github\renegade\dragonade_rxd\scripts\matrix3.h
;	COMDAT ?Get_X_Vector@Matrix3@@QBEXPAVVector3@@@Z
_TEXT	SEGMENT
_this$ = -4						; size = 4
_set_x$ = 8						; size = 4
?Get_X_Vector@Matrix3@@QBEXPAVVector3@@@Z PROC		; Matrix3::Get_X_Vector, COMDAT
; _this$ = ecx

; 226  : 	{

	push	ebp
	mov	ebp, esp
	sub	esp, 68					; 00000044H
	push	ebx
	push	esi
	push	edi
	mov	DWORD PTR _this$[ebp], ecx

; 227  : 		set_x->Set(Row[0][0], Row[1][0], Row[2][0]);

	push	0
	mov	ecx, 12					; 0000000cH
	shl	ecx, 1
	add	ecx, DWORD PTR _this$[ebp]
	call	??AVector3@@QBEABMH@Z			; Vector3::operator[]
	push	ecx
	movss	xmm0, DWORD PTR [eax]
	movss	DWORD PTR [esp], xmm0
	push	0
	mov	ecx, 12					; 0000000cH
	shl	ecx, 0
	add	ecx, DWORD PTR _this$[ebp]
	call	??AVector3@@QBEABMH@Z			; Vector3::operator[]
	push	ecx
	movss	xmm0, DWORD PTR [eax]
	movss	DWORD PTR [esp], xmm0
	push	0
	mov	ecx, 12					; 0000000cH
	imul	ecx, 0
	add	ecx, DWORD PTR _this$[ebp]
	call	??AVector3@@QBEABMH@Z			; Vector3::operator[]
	push	ecx
	movss	xmm0, DWORD PTR [eax]
	movss	DWORD PTR [esp], xmm0
	mov	ecx, DWORD PTR _set_x$[ebp]
	call	?Set@Vector3@@QAEXMMM@Z			; Vector3::Set

; 228  : 	}

	pop	edi
	pop	esi
	pop	ebx
	mov	esp, ebp
	pop	ebp
	ret	4
?Get_X_Vector@Matrix3@@QBEXPAVVector3@@@Z ENDP		; Matrix3::Get_X_Vector
_TEXT	ENDS
; Function compile flags: /Odtp /ZI
; File x:\github\renegade\dragonade_rxd\scripts\matrix3.h
;	COMDAT ?Get_Z_Vector@Matrix3@@QBE?AVVector3@@XZ
_TEXT	SEGMENT
_this$ = -4						; size = 4
___$ReturnUdt$ = 8					; size = 4
?Get_Z_Vector@Matrix3@@QBE?AVVector3@@XZ PROC		; Matrix3::Get_Z_Vector, COMDAT
; _this$ = ecx

; 222  : 	{

	push	ebp
	mov	ebp, esp
	sub	esp, 68					; 00000044H
	push	ebx
	push	esi
	push	edi
	mov	DWORD PTR _this$[ebp], ecx

; 223  : 		return Vector3(Row[0][2], Row[1][2], Row[2][2]);

	push	2
	mov	ecx, 12					; 0000000cH
	shl	ecx, 1
	add	ecx, DWORD PTR _this$[ebp]
	call	??AVector3@@QBEABMH@Z			; Vector3::operator[]
	push	ecx
	movss	xmm0, DWORD PTR [eax]
	movss	DWORD PTR [esp], xmm0
	push	2
	mov	ecx, 12					; 0000000cH
	shl	ecx, 0
	add	ecx, DWORD PTR _this$[ebp]
	call	??AVector3@@QBEABMH@Z			; Vector3::operator[]
	push	ecx
	movss	xmm0, DWORD PTR [eax]
	movss	DWORD PTR [esp], xmm0
	push	2
	mov	ecx, 12					; 0000000cH
	imul	ecx, 0
	add	ecx, DWORD PTR _this$[ebp]
	call	??AVector3@@QBEABMH@Z			; Vector3::operator[]
	push	ecx
	movss	xmm0, DWORD PTR [eax]
	movss	DWORD PTR [esp], xmm0
	mov	ecx, DWORD PTR ___$ReturnUdt$[ebp]
	call	??0Vector3@@QAE@MMM@Z			; Vector3::Vector3
	mov	eax, DWORD PTR ___$ReturnUdt$[ebp]

; 224  : 	}

	pop	edi
	pop	esi
	pop	ebx
	mov	esp, ebp
	pop	ebp
	ret	4
?Get_Z_Vector@Matrix3@@QBE?AVVector3@@XZ ENDP		; Matrix3::Get_Z_Vector
_TEXT	ENDS
; Function compile flags: /Odtp /ZI
; File x:\github\renegade\dragonade_rxd\scripts\matrix3.h
;	COMDAT ?Get_Y_Vector@Matrix3@@QBE?AVVector3@@XZ
_TEXT	SEGMENT
_this$ = -4						; size = 4
___$ReturnUdt$ = 8					; size = 4
?Get_Y_Vector@Matrix3@@QBE?AVVector3@@XZ PROC		; Matrix3::Get_Y_Vector, COMDAT
; _this$ = ecx

; 218  : 	{

	push	ebp
	mov	ebp, esp
	sub	esp, 68					; 00000044H
	push	ebx
	push	esi
	push	edi
	mov	DWORD PTR _this$[ebp], ecx

; 219  : 		return Vector3(Row[0][1], Row[1][1], Row[2][1]);

	push	1
	mov	ecx, 12					; 0000000cH
	shl	ecx, 1
	add	ecx, DWORD PTR _this$[ebp]
	call	??AVector3@@QBEABMH@Z			; Vector3::operator[]
	push	ecx
	movss	xmm0, DWORD PTR [eax]
	movss	DWORD PTR [esp], xmm0
	push	1
	mov	ecx, 12					; 0000000cH
	shl	ecx, 0
	add	ecx, DWORD PTR _this$[ebp]
	call	??AVector3@@QBEABMH@Z			; Vector3::operator[]
	push	ecx
	movss	xmm0, DWORD PTR [eax]
	movss	DWORD PTR [esp], xmm0
	push	1
	mov	ecx, 12					; 0000000cH
	imul	ecx, 0
	add	ecx, DWORD PTR _this$[ebp]
	call	??AVector3@@QBEABMH@Z			; Vector3::operator[]
	push	ecx
	movss	xmm0, DWORD PTR [eax]
	movss	DWORD PTR [esp], xmm0
	mov	ecx, DWORD PTR ___$ReturnUdt$[ebp]
	call	??0Vector3@@QAE@MMM@Z			; Vector3::Vector3
	mov	eax, DWORD PTR ___$ReturnUdt$[ebp]

; 220  : 	}

	pop	edi
	pop	esi
	pop	ebx
	mov	esp, ebp
	pop	ebp
	ret	4
?Get_Y_Vector@Matrix3@@QBE?AVVector3@@XZ ENDP		; Matrix3::Get_Y_Vector
_TEXT	ENDS
; Function compile flags: /Odtp /ZI
; File x:\github\renegade\dragonade_rxd\scripts\matrix3.h
;	COMDAT ?Get_X_Vector@Matrix3@@QBE?AVVector3@@XZ
_TEXT	SEGMENT
_this$ = -4						; size = 4
___$ReturnUdt$ = 8					; size = 4
?Get_X_Vector@Matrix3@@QBE?AVVector3@@XZ PROC		; Matrix3::Get_X_Vector, COMDAT
; _this$ = ecx

; 214  : 	{

	push	ebp
	mov	ebp, esp
	sub	esp, 68					; 00000044H
	push	ebx
	push	esi
	push	edi
	mov	DWORD PTR _this$[ebp], ecx

; 215  : 		return Vector3(Row[0][0], Row[1][0], Row[2][0]);

	push	0
	mov	ecx, 12					; 0000000cH
	shl	ecx, 1
	add	ecx, DWORD PTR _this$[ebp]
	call	??AVector3@@QBEABMH@Z			; Vector3::operator[]
	push	ecx
	movss	xmm0, DWORD PTR [eax]
	movss	DWORD PTR [esp], xmm0
	push	0
	mov	ecx, 12					; 0000000cH
	shl	ecx, 0
	add	ecx, DWORD PTR _this$[ebp]
	call	??AVector3@@QBEABMH@Z			; Vector3::operator[]
	push	ecx
	movss	xmm0, DWORD PTR [eax]
	movss	DWORD PTR [esp], xmm0
	push	0
	mov	ecx, 12					; 0000000cH
	imul	ecx, 0
	add	ecx, DWORD PTR _this$[ebp]
	call	??AVector3@@QBEABMH@Z			; Vector3::operator[]
	push	ecx
	movss	xmm0, DWORD PTR [eax]
	movss	DWORD PTR [esp], xmm0
	mov	ecx, DWORD PTR ___$ReturnUdt$[ebp]
	call	??0Vector3@@QAE@MMM@Z			; Vector3::Vector3
	mov	eax, DWORD PTR ___$ReturnUdt$[ebp]

; 216  : 	}

	pop	edi
	pop	esi
	pop	ebx
	mov	esp, ebp
	pop	ebp
	ret	4
?Get_X_Vector@Matrix3@@QBE?AVVector3@@XZ ENDP		; Matrix3::Get_X_Vector
_TEXT	ENDS
; Function compile flags: /Odtp /ZI
; File x:\github\renegade\dragonade_rxd\scripts\matrix3.h
;	COMDAT ?Get_Z_Rotation@Matrix3@@QBEMXZ
_TEXT	SEGMENT
$T1 = -92						; size = 12
_v$ = -16						; size = 12
_this$ = -4						; size = 4
?Get_Z_Rotation@Matrix3@@QBEMXZ PROC			; Matrix3::Get_Z_Rotation, COMDAT
; _this$ = ecx

; 209  : 	{

	push	ebp
	mov	ebp, esp
	sub	esp, 92					; 0000005cH
	push	ebx
	push	esi
	push	edi
	mov	DWORD PTR _this$[ebp], ecx

; 210  : 		Vector3 v = (*this) * Vector3(1.0,0.0,0.0);

	push	ecx
	movss	xmm0, DWORD PTR __real@00000000
	movss	DWORD PTR [esp], xmm0
	push	ecx
	movss	xmm0, DWORD PTR __real@00000000
	movss	DWORD PTR [esp], xmm0
	push	ecx
	movss	xmm0, DWORD PTR __real@3f800000
	movss	DWORD PTR [esp], xmm0
	lea	ecx, DWORD PTR $T1[ebp]
	call	??0Vector3@@QAE@MMM@Z			; Vector3::Vector3
	push	eax
	mov	eax, DWORD PTR _this$[ebp]
	push	eax
	lea	ecx, DWORD PTR _v$[ebp]
	push	ecx
	call	??D@YA?AVVector3@@ABVMatrix3@@ABV0@@Z	; operator*
	add	esp, 12					; 0000000cH

; 211  : 		return atan2(v[1],v[0]);

	push	0
	lea	ecx, DWORD PTR _v$[ebp]
	call	??AVector3@@QAEAAMH@Z			; Vector3::operator[]
	push	ecx
	movss	xmm0, DWORD PTR [eax]
	movss	DWORD PTR [esp], xmm0
	push	1
	lea	ecx, DWORD PTR _v$[ebp]
	call	??AVector3@@QAEAAMH@Z			; Vector3::operator[]
	push	ecx
	movss	xmm0, DWORD PTR [eax]
	movss	DWORD PTR [esp], xmm0
	call	?atan2@@YAMMM@Z				; atan2
	add	esp, 8

; 212  : 	}

	pop	edi
	pop	esi
	pop	ebx
	mov	esp, ebp
	pop	ebp
	ret	0
?Get_Z_Rotation@Matrix3@@QBEMXZ ENDP			; Matrix3::Get_Z_Rotation
_TEXT	ENDS
; Function compile flags: /Odtp /ZI
; File x:\github\renegade\dragonade_rxd\scripts\matrix3.h
;	COMDAT ?Get_Y_Rotation@Matrix3@@QBEMXZ
_TEXT	SEGMENT
$T1 = -92						; size = 12
_v$ = -16						; size = 12
_this$ = -4						; size = 4
?Get_Y_Rotation@Matrix3@@QBEMXZ PROC			; Matrix3::Get_Y_Rotation, COMDAT
; _this$ = ecx

; 204  : 	{

	push	ebp
	mov	ebp, esp
	sub	esp, 92					; 0000005cH
	push	ebx
	push	esi
	push	edi
	mov	DWORD PTR _this$[ebp], ecx

; 205  : 		Vector3 v = (*this) * Vector3(0.0,0.0,1.0);

	push	ecx
	movss	xmm0, DWORD PTR __real@3f800000
	movss	DWORD PTR [esp], xmm0
	push	ecx
	movss	xmm0, DWORD PTR __real@00000000
	movss	DWORD PTR [esp], xmm0
	push	ecx
	movss	xmm0, DWORD PTR __real@00000000
	movss	DWORD PTR [esp], xmm0
	lea	ecx, DWORD PTR $T1[ebp]
	call	??0Vector3@@QAE@MMM@Z			; Vector3::Vector3
	push	eax
	mov	eax, DWORD PTR _this$[ebp]
	push	eax
	lea	ecx, DWORD PTR _v$[ebp]
	push	ecx
	call	??D@YA?AVVector3@@ABVMatrix3@@ABV0@@Z	; operator*
	add	esp, 12					; 0000000cH

; 206  : 		return atan2(v[0],v[2]);

	push	2
	lea	ecx, DWORD PTR _v$[ebp]
	call	??AVector3@@QAEAAMH@Z			; Vector3::operator[]
	push	ecx
	movss	xmm0, DWORD PTR [eax]
	movss	DWORD PTR [esp], xmm0
	push	0
	lea	ecx, DWORD PTR _v$[ebp]
	call	??AVector3@@QAEAAMH@Z			; Vector3::operator[]
	push	ecx
	movss	xmm0, DWORD PTR [eax]
	movss	DWORD PTR [esp], xmm0
	call	?atan2@@YAMMM@Z				; atan2
	add	esp, 8

; 207  : 	}

	pop	edi
	pop	esi
	pop	ebx
	mov	esp, ebp
	pop	ebp
	ret	0
?Get_Y_Rotation@Matrix3@@QBEMXZ ENDP			; Matrix3::Get_Y_Rotation
_TEXT	ENDS
; Function compile flags: /Odtp /ZI
; File x:\github\renegade\dragonade_rxd\scripts\matrix3.h
;	COMDAT ?Get_X_Rotation@Matrix3@@QBEMXZ
_TEXT	SEGMENT
$T1 = -92						; size = 12
_v$ = -16						; size = 12
_this$ = -4						; size = 4
?Get_X_Rotation@Matrix3@@QBEMXZ PROC			; Matrix3::Get_X_Rotation, COMDAT
; _this$ = ecx

; 199  : 	{

	push	ebp
	mov	ebp, esp
	sub	esp, 92					; 0000005cH
	push	ebx
	push	esi
	push	edi
	mov	DWORD PTR _this$[ebp], ecx

; 200  : 		Vector3 v = (*this) * Vector3(0.0,1.0,0.0);

	push	ecx
	movss	xmm0, DWORD PTR __real@00000000
	movss	DWORD PTR [esp], xmm0
	push	ecx
	movss	xmm0, DWORD PTR __real@3f800000
	movss	DWORD PTR [esp], xmm0
	push	ecx
	movss	xmm0, DWORD PTR __real@00000000
	movss	DWORD PTR [esp], xmm0
	lea	ecx, DWORD PTR $T1[ebp]
	call	??0Vector3@@QAE@MMM@Z			; Vector3::Vector3
	push	eax
	mov	eax, DWORD PTR _this$[ebp]
	push	eax
	lea	ecx, DWORD PTR _v$[ebp]
	push	ecx
	call	??D@YA?AVVector3@@ABVMatrix3@@ABV0@@Z	; operator*
	add	esp, 12					; 0000000cH

; 201  : 		return atan2(v[2], v[1]);

	push	1
	lea	ecx, DWORD PTR _v$[ebp]
	call	??AVector3@@QAEAAMH@Z			; Vector3::operator[]
	push	ecx
	movss	xmm0, DWORD PTR [eax]
	movss	DWORD PTR [esp], xmm0
	push	2
	lea	ecx, DWORD PTR _v$[ebp]
	call	??AVector3@@QAEAAMH@Z			; Vector3::operator[]
	push	ecx
	movss	xmm0, DWORD PTR [eax]
	movss	DWORD PTR [esp], xmm0
	call	?atan2@@YAMMM@Z				; atan2
	add	esp, 8

; 202  : 	}

	pop	edi
	pop	esi
	pop	ebx
	mov	esp, ebp
	pop	ebp
	ret	0
?Get_X_Rotation@Matrix3@@QBEMXZ ENDP			; Matrix3::Get_X_Rotation
_TEXT	ENDS
; Function compile flags: /Odtp /ZI
; File x:\github\renegade\dragonade_rxd\scripts\matrix3.h
;	COMDAT ?Rotate_Z@Matrix3@@QAEXMM@Z
_TEXT	SEGMENT
tv248 = -80						; size = 4
tv246 = -80						; size = 4
tv244 = -80						; size = 4
tv242 = -80						; size = 4
tv240 = -80						; size = 4
tv238 = -80						; size = 4
_tmp2$ = -12						; size = 4
_tmp1$ = -8						; size = 4
_this$ = -4						; size = 4
_s$ = 8							; size = 4
_c$ = 12						; size = 4
?Rotate_Z@Matrix3@@QAEXMM@Z PROC			; Matrix3::Rotate_Z, COMDAT
; _this$ = ecx

; 186  : 	{

	push	ebp
	mov	ebp, esp
	sub	esp, 80					; 00000050H
	push	ebx
	push	esi
	push	edi
	mov	DWORD PTR _this$[ebp], ecx

; 187  : 		float tmp1,tmp2;
; 188  : 		tmp1 = Row[0][0]; tmp2 = Row[0][1];

	push	0
	mov	ecx, 12					; 0000000cH
	imul	ecx, 0
	add	ecx, DWORD PTR _this$[ebp]
	call	??AVector3@@QAEAAMH@Z			; Vector3::operator[]
	movss	xmm0, DWORD PTR [eax]
	movss	DWORD PTR _tmp1$[ebp], xmm0
	push	1
	mov	ecx, 12					; 0000000cH
	imul	ecx, 0
	add	ecx, DWORD PTR _this$[ebp]
	call	??AVector3@@QAEAAMH@Z			; Vector3::operator[]
	movss	xmm0, DWORD PTR [eax]
	movss	DWORD PTR _tmp2$[ebp], xmm0

; 189  : 		Row[0][0] = (float)( c*tmp1 + s*tmp2);

	movss	xmm0, DWORD PTR _c$[ebp]
	mulss	xmm0, DWORD PTR _tmp1$[ebp]
	movss	xmm1, DWORD PTR _s$[ebp]
	mulss	xmm1, DWORD PTR _tmp2$[ebp]
	addss	xmm0, xmm1
	push	0
	mov	ecx, 12					; 0000000cH
	imul	ecx, 0
	add	ecx, DWORD PTR _this$[ebp]
	movss	DWORD PTR tv238[ebp], xmm0
	call	??AVector3@@QAEAAMH@Z			; Vector3::operator[]
	movss	xmm0, DWORD PTR tv238[ebp]
	movss	DWORD PTR [eax], xmm0

; 190  : 		Row[0][1] = (float)(-s*tmp1 + c*tmp2);

	movss	xmm0, DWORD PTR _s$[ebp]
	xorps	xmm0, DWORD PTR __xmm@80000000800000008000000080000000
	mulss	xmm0, DWORD PTR _tmp1$[ebp]
	movss	xmm1, DWORD PTR _c$[ebp]
	mulss	xmm1, DWORD PTR _tmp2$[ebp]
	addss	xmm0, xmm1
	push	1
	mov	ecx, 12					; 0000000cH
	imul	ecx, 0
	add	ecx, DWORD PTR _this$[ebp]
	movss	DWORD PTR tv240[ebp], xmm0
	call	??AVector3@@QAEAAMH@Z			; Vector3::operator[]
	movss	xmm0, DWORD PTR tv240[ebp]
	movss	DWORD PTR [eax], xmm0

; 191  : 		tmp1 = Row[1][0]; tmp2 = Row[1][1];

	push	0
	mov	ecx, 12					; 0000000cH
	shl	ecx, 0
	add	ecx, DWORD PTR _this$[ebp]
	call	??AVector3@@QAEAAMH@Z			; Vector3::operator[]
	movss	xmm0, DWORD PTR [eax]
	movss	DWORD PTR _tmp1$[ebp], xmm0
	push	1
	mov	ecx, 12					; 0000000cH
	shl	ecx, 0
	add	ecx, DWORD PTR _this$[ebp]
	call	??AVector3@@QAEAAMH@Z			; Vector3::operator[]
	movss	xmm0, DWORD PTR [eax]
	movss	DWORD PTR _tmp2$[ebp], xmm0

; 192  : 		Row[1][0] = (float)( c*tmp1 + s*tmp2);

	movss	xmm0, DWORD PTR _c$[ebp]
	mulss	xmm0, DWORD PTR _tmp1$[ebp]
	movss	xmm1, DWORD PTR _s$[ebp]
	mulss	xmm1, DWORD PTR _tmp2$[ebp]
	addss	xmm0, xmm1
	push	0
	mov	ecx, 12					; 0000000cH
	shl	ecx, 0
	add	ecx, DWORD PTR _this$[ebp]
	movss	DWORD PTR tv242[ebp], xmm0
	call	??AVector3@@QAEAAMH@Z			; Vector3::operator[]
	movss	xmm0, DWORD PTR tv242[ebp]
	movss	DWORD PTR [eax], xmm0

; 193  : 		Row[1][1] = (float)(-s*tmp1 + c*tmp2);

	movss	xmm0, DWORD PTR _s$[ebp]
	xorps	xmm0, DWORD PTR __xmm@80000000800000008000000080000000
	mulss	xmm0, DWORD PTR _tmp1$[ebp]
	movss	xmm1, DWORD PTR _c$[ebp]
	mulss	xmm1, DWORD PTR _tmp2$[ebp]
	addss	xmm0, xmm1
	push	1
	mov	ecx, 12					; 0000000cH
	shl	ecx, 0
	add	ecx, DWORD PTR _this$[ebp]
	movss	DWORD PTR tv244[ebp], xmm0
	call	??AVector3@@QAEAAMH@Z			; Vector3::operator[]
	movss	xmm0, DWORD PTR tv244[ebp]
	movss	DWORD PTR [eax], xmm0

; 194  : 		tmp1 = Row[2][0]; tmp2 = Row[2][1];

	push	0
	mov	ecx, 12					; 0000000cH
	shl	ecx, 1
	add	ecx, DWORD PTR _this$[ebp]
	call	??AVector3@@QAEAAMH@Z			; Vector3::operator[]
	movss	xmm0, DWORD PTR [eax]
	movss	DWORD PTR _tmp1$[ebp], xmm0
	push	1
	mov	ecx, 12					; 0000000cH
	shl	ecx, 1
	add	ecx, DWORD PTR _this$[ebp]
	call	??AVector3@@QAEAAMH@Z			; Vector3::operator[]
	movss	xmm0, DWORD PTR [eax]
	movss	DWORD PTR _tmp2$[ebp], xmm0

; 195  : 		Row[2][0] = (float)( c*tmp1 + s*tmp2);

	movss	xmm0, DWORD PTR _c$[ebp]
	mulss	xmm0, DWORD PTR _tmp1$[ebp]
	movss	xmm1, DWORD PTR _s$[ebp]
	mulss	xmm1, DWORD PTR _tmp2$[ebp]
	addss	xmm0, xmm1
	push	0
	mov	ecx, 12					; 0000000cH
	shl	ecx, 1
	add	ecx, DWORD PTR _this$[ebp]
	movss	DWORD PTR tv246[ebp], xmm0
	call	??AVector3@@QAEAAMH@Z			; Vector3::operator[]
	movss	xmm0, DWORD PTR tv246[ebp]
	movss	DWORD PTR [eax], xmm0

; 196  : 		Row[2][1] = (float)(-s*tmp1 + c*tmp2);

	movss	xmm0, DWORD PTR _s$[ebp]
	xorps	xmm0, DWORD PTR __xmm@80000000800000008000000080000000
	mulss	xmm0, DWORD PTR _tmp1$[ebp]
	movss	xmm1, DWORD PTR _c$[ebp]
	mulss	xmm1, DWORD PTR _tmp2$[ebp]
	addss	xmm0, xmm1
	push	1
	mov	ecx, 12					; 0000000cH
	shl	ecx, 1
	add	ecx, DWORD PTR _this$[ebp]
	movss	DWORD PTR tv248[ebp], xmm0
	call	??AVector3@@QAEAAMH@Z			; Vector3::operator[]
	movss	xmm0, DWORD PTR tv248[ebp]
	movss	DWORD PTR [eax], xmm0

; 197  : 	}

	pop	edi
	pop	esi
	pop	ebx
	mov	esp, ebp
	pop	ebp
	ret	8
?Rotate_Z@Matrix3@@QAEXMM@Z ENDP			; Matrix3::Rotate_Z
_TEXT	ENDS
; Function compile flags: /Odtp /ZI
; File x:\github\renegade\dragonade_rxd\scripts\matrix3.h
;	COMDAT ?Rotate_Z@Matrix3@@QAEXM@Z
_TEXT	SEGMENT
_this$ = -4						; size = 4
_theta$ = 8						; size = 4
?Rotate_Z@Matrix3@@QAEXM@Z PROC				; Matrix3::Rotate_Z, COMDAT
; _this$ = ecx

; 182  : 	{

	push	ebp
	mov	ebp, esp
	sub	esp, 68					; 00000044H
	push	ebx
	push	esi
	push	edi
	mov	DWORD PTR _this$[ebp], ecx

; 183  : 		Rotate_Z(sinf(theta),cosf(theta));

	push	ecx
	movss	xmm0, DWORD PTR _theta$[ebp]
	movss	DWORD PTR [esp], xmm0
	call	_cosf
	fstp	DWORD PTR [esp]
	push	ecx
	movss	xmm0, DWORD PTR _theta$[ebp]
	movss	DWORD PTR [esp], xmm0
	call	_sinf
	fstp	DWORD PTR [esp]
	mov	ecx, DWORD PTR _this$[ebp]
	call	?Rotate_Z@Matrix3@@QAEXMM@Z		; Matrix3::Rotate_Z

; 184  : 	}

	pop	edi
	pop	esi
	pop	ebx
	mov	esp, ebp
	pop	ebp
	ret	4
?Rotate_Z@Matrix3@@QAEXM@Z ENDP				; Matrix3::Rotate_Z
_TEXT	ENDS
; Function compile flags: /Odtp /ZI
; File x:\github\renegade\dragonade_rxd\scripts\matrix3.h
;	COMDAT ?Rotate_Y@Matrix3@@QAEXMM@Z
_TEXT	SEGMENT
tv245 = -80						; size = 4
tv243 = -80						; size = 4
tv241 = -80						; size = 4
tv239 = -80						; size = 4
tv237 = -80						; size = 4
tv235 = -80						; size = 4
_tmp2$ = -12						; size = 4
_tmp1$ = -8						; size = 4
_this$ = -4						; size = 4
_s$ = 8							; size = 4
_c$ = 12						; size = 4
?Rotate_Y@Matrix3@@QAEXMM@Z PROC			; Matrix3::Rotate_Y, COMDAT
; _this$ = ecx

; 169  : 	{

	push	ebp
	mov	ebp, esp
	sub	esp, 80					; 00000050H
	push	ebx
	push	esi
	push	edi
	mov	DWORD PTR _this$[ebp], ecx

; 170  : 		float tmp1,tmp2;
; 171  : 		tmp1 = Row[0][0]; tmp2 = Row[0][2];

	push	0
	mov	ecx, 12					; 0000000cH
	imul	ecx, 0
	add	ecx, DWORD PTR _this$[ebp]
	call	??AVector3@@QAEAAMH@Z			; Vector3::operator[]
	movss	xmm0, DWORD PTR [eax]
	movss	DWORD PTR _tmp1$[ebp], xmm0
	push	2
	mov	ecx, 12					; 0000000cH
	imul	ecx, 0
	add	ecx, DWORD PTR _this$[ebp]
	call	??AVector3@@QAEAAMH@Z			; Vector3::operator[]
	movss	xmm0, DWORD PTR [eax]
	movss	DWORD PTR _tmp2$[ebp], xmm0

; 172  : 		Row[0][0] = (float)(c*tmp1 - s*tmp2);

	movss	xmm0, DWORD PTR _c$[ebp]
	mulss	xmm0, DWORD PTR _tmp1$[ebp]
	movss	xmm1, DWORD PTR _s$[ebp]
	mulss	xmm1, DWORD PTR _tmp2$[ebp]
	subss	xmm0, xmm1
	push	0
	mov	ecx, 12					; 0000000cH
	imul	ecx, 0
	add	ecx, DWORD PTR _this$[ebp]
	movss	DWORD PTR tv235[ebp], xmm0
	call	??AVector3@@QAEAAMH@Z			; Vector3::operator[]
	movss	xmm0, DWORD PTR tv235[ebp]
	movss	DWORD PTR [eax], xmm0

; 173  : 		Row[0][2] = (float)(s*tmp1 + c*tmp2);

	movss	xmm0, DWORD PTR _s$[ebp]
	mulss	xmm0, DWORD PTR _tmp1$[ebp]
	movss	xmm1, DWORD PTR _c$[ebp]
	mulss	xmm1, DWORD PTR _tmp2$[ebp]
	addss	xmm0, xmm1
	push	2
	mov	ecx, 12					; 0000000cH
	imul	ecx, 0
	add	ecx, DWORD PTR _this$[ebp]
	movss	DWORD PTR tv237[ebp], xmm0
	call	??AVector3@@QAEAAMH@Z			; Vector3::operator[]
	movss	xmm0, DWORD PTR tv237[ebp]
	movss	DWORD PTR [eax], xmm0

; 174  : 		tmp1 = Row[1][0]; tmp2 = Row[1][2];

	push	0
	mov	ecx, 12					; 0000000cH
	shl	ecx, 0
	add	ecx, DWORD PTR _this$[ebp]
	call	??AVector3@@QAEAAMH@Z			; Vector3::operator[]
	movss	xmm0, DWORD PTR [eax]
	movss	DWORD PTR _tmp1$[ebp], xmm0
	push	2
	mov	ecx, 12					; 0000000cH
	shl	ecx, 0
	add	ecx, DWORD PTR _this$[ebp]
	call	??AVector3@@QAEAAMH@Z			; Vector3::operator[]
	movss	xmm0, DWORD PTR [eax]
	movss	DWORD PTR _tmp2$[ebp], xmm0

; 175  : 		Row[1][0] = (float)(c*tmp1 - s*tmp2);

	movss	xmm0, DWORD PTR _c$[ebp]
	mulss	xmm0, DWORD PTR _tmp1$[ebp]
	movss	xmm1, DWORD PTR _s$[ebp]
	mulss	xmm1, DWORD PTR _tmp2$[ebp]
	subss	xmm0, xmm1
	push	0
	mov	ecx, 12					; 0000000cH
	shl	ecx, 0
	add	ecx, DWORD PTR _this$[ebp]
	movss	DWORD PTR tv239[ebp], xmm0
	call	??AVector3@@QAEAAMH@Z			; Vector3::operator[]
	movss	xmm0, DWORD PTR tv239[ebp]
	movss	DWORD PTR [eax], xmm0

; 176  : 		Row[1][2] = (float)(s*tmp1 + c*tmp2);

	movss	xmm0, DWORD PTR _s$[ebp]
	mulss	xmm0, DWORD PTR _tmp1$[ebp]
	movss	xmm1, DWORD PTR _c$[ebp]
	mulss	xmm1, DWORD PTR _tmp2$[ebp]
	addss	xmm0, xmm1
	push	2
	mov	ecx, 12					; 0000000cH
	shl	ecx, 0
	add	ecx, DWORD PTR _this$[ebp]
	movss	DWORD PTR tv241[ebp], xmm0
	call	??AVector3@@QAEAAMH@Z			; Vector3::operator[]
	movss	xmm0, DWORD PTR tv241[ebp]
	movss	DWORD PTR [eax], xmm0

; 177  : 		tmp1 = Row[2][0]; tmp2 = Row[2][2];

	push	0
	mov	ecx, 12					; 0000000cH
	shl	ecx, 1
	add	ecx, DWORD PTR _this$[ebp]
	call	??AVector3@@QAEAAMH@Z			; Vector3::operator[]
	movss	xmm0, DWORD PTR [eax]
	movss	DWORD PTR _tmp1$[ebp], xmm0
	push	2
	mov	ecx, 12					; 0000000cH
	shl	ecx, 1
	add	ecx, DWORD PTR _this$[ebp]
	call	??AVector3@@QAEAAMH@Z			; Vector3::operator[]
	movss	xmm0, DWORD PTR [eax]
	movss	DWORD PTR _tmp2$[ebp], xmm0

; 178  : 		Row[2][0] = (float)(c*tmp1 - s*tmp2);

	movss	xmm0, DWORD PTR _c$[ebp]
	mulss	xmm0, DWORD PTR _tmp1$[ebp]
	movss	xmm1, DWORD PTR _s$[ebp]
	mulss	xmm1, DWORD PTR _tmp2$[ebp]
	subss	xmm0, xmm1
	push	0
	mov	ecx, 12					; 0000000cH
	shl	ecx, 1
	add	ecx, DWORD PTR _this$[ebp]
	movss	DWORD PTR tv243[ebp], xmm0
	call	??AVector3@@QAEAAMH@Z			; Vector3::operator[]
	movss	xmm0, DWORD PTR tv243[ebp]
	movss	DWORD PTR [eax], xmm0

; 179  : 		Row[2][2] = (float)(s*tmp1 + c*tmp2);

	movss	xmm0, DWORD PTR _s$[ebp]
	mulss	xmm0, DWORD PTR _tmp1$[ebp]
	movss	xmm1, DWORD PTR _c$[ebp]
	mulss	xmm1, DWORD PTR _tmp2$[ebp]
	addss	xmm0, xmm1
	push	2
	mov	ecx, 12					; 0000000cH
	shl	ecx, 1
	add	ecx, DWORD PTR _this$[ebp]
	movss	DWORD PTR tv245[ebp], xmm0
	call	??AVector3@@QAEAAMH@Z			; Vector3::operator[]
	movss	xmm0, DWORD PTR tv245[ebp]
	movss	DWORD PTR [eax], xmm0

; 180  : 	}

	pop	edi
	pop	esi
	pop	ebx
	mov	esp, ebp
	pop	ebp
	ret	8
?Rotate_Y@Matrix3@@QAEXMM@Z ENDP			; Matrix3::Rotate_Y
_TEXT	ENDS
; Function compile flags: /Odtp /ZI
; File x:\github\renegade\dragonade_rxd\scripts\matrix3.h
;	COMDAT ?Rotate_Y@Matrix3@@QAEXM@Z
_TEXT	SEGMENT
_this$ = -4						; size = 4
_theta$ = 8						; size = 4
?Rotate_Y@Matrix3@@QAEXM@Z PROC				; Matrix3::Rotate_Y, COMDAT
; _this$ = ecx

; 165  : 	{

	push	ebp
	mov	ebp, esp
	sub	esp, 68					; 00000044H
	push	ebx
	push	esi
	push	edi
	mov	DWORD PTR _this$[ebp], ecx

; 166  : 		Rotate_Y(sinf(theta),cosf(theta));

	push	ecx
	movss	xmm0, DWORD PTR _theta$[ebp]
	movss	DWORD PTR [esp], xmm0
	call	_cosf
	fstp	DWORD PTR [esp]
	push	ecx
	movss	xmm0, DWORD PTR _theta$[ebp]
	movss	DWORD PTR [esp], xmm0
	call	_sinf
	fstp	DWORD PTR [esp]
	mov	ecx, DWORD PTR _this$[ebp]
	call	?Rotate_Y@Matrix3@@QAEXMM@Z		; Matrix3::Rotate_Y

; 167  : 	}

	pop	edi
	pop	esi
	pop	ebx
	mov	esp, ebp
	pop	ebp
	ret	4
?Rotate_Y@Matrix3@@QAEXM@Z ENDP				; Matrix3::Rotate_Y
_TEXT	ENDS
; Function compile flags: /Odtp /ZI
; File x:\github\renegade\dragonade_rxd\scripts\matrix3.h
;	COMDAT ?Rotate_X@Matrix3@@QAEXMM@Z
_TEXT	SEGMENT
tv248 = -80						; size = 4
tv246 = -80						; size = 4
tv244 = -80						; size = 4
tv242 = -80						; size = 4
tv240 = -80						; size = 4
tv238 = -80						; size = 4
_tmp2$ = -12						; size = 4
_tmp1$ = -8						; size = 4
_this$ = -4						; size = 4
_s$ = 8							; size = 4
_c$ = 12						; size = 4
?Rotate_X@Matrix3@@QAEXMM@Z PROC			; Matrix3::Rotate_X, COMDAT
; _this$ = ecx

; 152  : 	{

	push	ebp
	mov	ebp, esp
	sub	esp, 80					; 00000050H
	push	ebx
	push	esi
	push	edi
	mov	DWORD PTR _this$[ebp], ecx

; 153  : 		float tmp1,tmp2;
; 154  : 		tmp1 = Row[0][1]; tmp2 = Row[0][2];

	push	1
	mov	ecx, 12					; 0000000cH
	imul	ecx, 0
	add	ecx, DWORD PTR _this$[ebp]
	call	??AVector3@@QAEAAMH@Z			; Vector3::operator[]
	movss	xmm0, DWORD PTR [eax]
	movss	DWORD PTR _tmp1$[ebp], xmm0
	push	2
	mov	ecx, 12					; 0000000cH
	imul	ecx, 0
	add	ecx, DWORD PTR _this$[ebp]
	call	??AVector3@@QAEAAMH@Z			; Vector3::operator[]
	movss	xmm0, DWORD PTR [eax]
	movss	DWORD PTR _tmp2$[ebp], xmm0

; 155  : 		Row[0][1] = (float)( c*tmp1 + s*tmp2);

	movss	xmm0, DWORD PTR _c$[ebp]
	mulss	xmm0, DWORD PTR _tmp1$[ebp]
	movss	xmm1, DWORD PTR _s$[ebp]
	mulss	xmm1, DWORD PTR _tmp2$[ebp]
	addss	xmm0, xmm1
	push	1
	mov	ecx, 12					; 0000000cH
	imul	ecx, 0
	add	ecx, DWORD PTR _this$[ebp]
	movss	DWORD PTR tv238[ebp], xmm0
	call	??AVector3@@QAEAAMH@Z			; Vector3::operator[]
	movss	xmm0, DWORD PTR tv238[ebp]
	movss	DWORD PTR [eax], xmm0

; 156  : 		Row[0][2] = (float)(-s*tmp1 + c*tmp2);

	movss	xmm0, DWORD PTR _s$[ebp]
	xorps	xmm0, DWORD PTR __xmm@80000000800000008000000080000000
	mulss	xmm0, DWORD PTR _tmp1$[ebp]
	movss	xmm1, DWORD PTR _c$[ebp]
	mulss	xmm1, DWORD PTR _tmp2$[ebp]
	addss	xmm0, xmm1
	push	2
	mov	ecx, 12					; 0000000cH
	imul	ecx, 0
	add	ecx, DWORD PTR _this$[ebp]
	movss	DWORD PTR tv240[ebp], xmm0
	call	??AVector3@@QAEAAMH@Z			; Vector3::operator[]
	movss	xmm0, DWORD PTR tv240[ebp]
	movss	DWORD PTR [eax], xmm0

; 157  : 		tmp1 = Row[1][1]; tmp2 = Row[1][2];

	push	1
	mov	ecx, 12					; 0000000cH
	shl	ecx, 0
	add	ecx, DWORD PTR _this$[ebp]
	call	??AVector3@@QAEAAMH@Z			; Vector3::operator[]
	movss	xmm0, DWORD PTR [eax]
	movss	DWORD PTR _tmp1$[ebp], xmm0
	push	2
	mov	ecx, 12					; 0000000cH
	shl	ecx, 0
	add	ecx, DWORD PTR _this$[ebp]
	call	??AVector3@@QAEAAMH@Z			; Vector3::operator[]
	movss	xmm0, DWORD PTR [eax]
	movss	DWORD PTR _tmp2$[ebp], xmm0

; 158  : 		Row[1][1] = (float)( c*tmp1 + s*tmp2);

	movss	xmm0, DWORD PTR _c$[ebp]
	mulss	xmm0, DWORD PTR _tmp1$[ebp]
	movss	xmm1, DWORD PTR _s$[ebp]
	mulss	xmm1, DWORD PTR _tmp2$[ebp]
	addss	xmm0, xmm1
	push	1
	mov	ecx, 12					; 0000000cH
	shl	ecx, 0
	add	ecx, DWORD PTR _this$[ebp]
	movss	DWORD PTR tv242[ebp], xmm0
	call	??AVector3@@QAEAAMH@Z			; Vector3::operator[]
	movss	xmm0, DWORD PTR tv242[ebp]
	movss	DWORD PTR [eax], xmm0

; 159  : 		Row[1][2] = (float)(-s*tmp1 + c*tmp2);

	movss	xmm0, DWORD PTR _s$[ebp]
	xorps	xmm0, DWORD PTR __xmm@80000000800000008000000080000000
	mulss	xmm0, DWORD PTR _tmp1$[ebp]
	movss	xmm1, DWORD PTR _c$[ebp]
	mulss	xmm1, DWORD PTR _tmp2$[ebp]
	addss	xmm0, xmm1
	push	2
	mov	ecx, 12					; 0000000cH
	shl	ecx, 0
	add	ecx, DWORD PTR _this$[ebp]
	movss	DWORD PTR tv244[ebp], xmm0
	call	??AVector3@@QAEAAMH@Z			; Vector3::operator[]
	movss	xmm0, DWORD PTR tv244[ebp]
	movss	DWORD PTR [eax], xmm0

; 160  : 		tmp1 = Row[2][1]; tmp2 = Row[2][2];

	push	1
	mov	ecx, 12					; 0000000cH
	shl	ecx, 1
	add	ecx, DWORD PTR _this$[ebp]
	call	??AVector3@@QAEAAMH@Z			; Vector3::operator[]
	movss	xmm0, DWORD PTR [eax]
	movss	DWORD PTR _tmp1$[ebp], xmm0
	push	2
	mov	ecx, 12					; 0000000cH
	shl	ecx, 1
	add	ecx, DWORD PTR _this$[ebp]
	call	??AVector3@@QAEAAMH@Z			; Vector3::operator[]
	movss	xmm0, DWORD PTR [eax]
	movss	DWORD PTR _tmp2$[ebp], xmm0

; 161  : 		Row[2][1] = (float)( c*tmp1 + s*tmp2);

	movss	xmm0, DWORD PTR _c$[ebp]
	mulss	xmm0, DWORD PTR _tmp1$[ebp]
	movss	xmm1, DWORD PTR _s$[ebp]
	mulss	xmm1, DWORD PTR _tmp2$[ebp]
	addss	xmm0, xmm1
	push	1
	mov	ecx, 12					; 0000000cH
	shl	ecx, 1
	add	ecx, DWORD PTR _this$[ebp]
	movss	DWORD PTR tv246[ebp], xmm0
	call	??AVector3@@QAEAAMH@Z			; Vector3::operator[]
	movss	xmm0, DWORD PTR tv246[ebp]
	movss	DWORD PTR [eax], xmm0

; 162  : 		Row[2][2] = (float)(-s*tmp1 + c*tmp2);

	movss	xmm0, DWORD PTR _s$[ebp]
	xorps	xmm0, DWORD PTR __xmm@80000000800000008000000080000000
	mulss	xmm0, DWORD PTR _tmp1$[ebp]
	movss	xmm1, DWORD PTR _c$[ebp]
	mulss	xmm1, DWORD PTR _tmp2$[ebp]
	addss	xmm0, xmm1
	push	2
	mov	ecx, 12					; 0000000cH
	shl	ecx, 1
	add	ecx, DWORD PTR _this$[ebp]
	movss	DWORD PTR tv248[ebp], xmm0
	call	??AVector3@@QAEAAMH@Z			; Vector3::operator[]
	movss	xmm0, DWORD PTR tv248[ebp]
	movss	DWORD PTR [eax], xmm0

; 163  : 	}

	pop	edi
	pop	esi
	pop	ebx
	mov	esp, ebp
	pop	ebp
	ret	8
?Rotate_X@Matrix3@@QAEXMM@Z ENDP			; Matrix3::Rotate_X
_TEXT	ENDS
; Function compile flags: /Odtp /ZI
; File x:\github\renegade\dragonade_rxd\scripts\matrix3.h
;	COMDAT ?Rotate_X@Matrix3@@QAEXM@Z
_TEXT	SEGMENT
_this$ = -4						; size = 4
_theta$ = 8						; size = 4
?Rotate_X@Matrix3@@QAEXM@Z PROC				; Matrix3::Rotate_X, COMDAT
; _this$ = ecx

; 148  : 	{

	push	ebp
	mov	ebp, esp
	sub	esp, 68					; 00000044H
	push	ebx
	push	esi
	push	edi
	mov	DWORD PTR _this$[ebp], ecx

; 149  : 		Rotate_X(sinf(theta),cosf(theta));

	push	ecx
	movss	xmm0, DWORD PTR _theta$[ebp]
	movss	DWORD PTR [esp], xmm0
	call	_cosf
	fstp	DWORD PTR [esp]
	push	ecx
	movss	xmm0, DWORD PTR _theta$[ebp]
	movss	DWORD PTR [esp], xmm0
	call	_sinf
	fstp	DWORD PTR [esp]
	mov	ecx, DWORD PTR _this$[ebp]
	call	?Rotate_X@Matrix3@@QAEXMM@Z		; Matrix3::Rotate_X

; 150  : 	}

	pop	edi
	pop	esi
	pop	ebx
	mov	esp, ebp
	pop	ebp
	ret	4
?Rotate_X@Matrix3@@QAEXM@Z ENDP				; Matrix3::Rotate_X
_TEXT	ENDS
; Function compile flags: /Odtp /ZI
; File x:\github\renegade\dragonade_rxd\scripts\matrix3.h
;	COMDAT ?Make_Identity@Matrix3@@QAEXXZ
_TEXT	SEGMENT
_this$ = -4						; size = 4
?Make_Identity@Matrix3@@QAEXXZ PROC			; Matrix3::Make_Identity, COMDAT
; _this$ = ecx

; 142  : 	{

	push	ebp
	mov	ebp, esp
	sub	esp, 68					; 00000044H
	push	ebx
	push	esi
	push	edi
	mov	DWORD PTR _this$[ebp], ecx

; 143  : 		Row[0].Set(1.0f,0.0f,0.0f);

	push	ecx
	movss	xmm0, DWORD PTR __real@00000000
	movss	DWORD PTR [esp], xmm0
	push	ecx
	movss	xmm0, DWORD PTR __real@00000000
	movss	DWORD PTR [esp], xmm0
	push	ecx
	movss	xmm0, DWORD PTR __real@3f800000
	movss	DWORD PTR [esp], xmm0
	mov	ecx, 12					; 0000000cH
	imul	ecx, 0
	add	ecx, DWORD PTR _this$[ebp]
	call	?Set@Vector3@@QAEXMMM@Z			; Vector3::Set

; 144  : 		Row[1].Set(0.0f,1.0f,0.0f);

	push	ecx
	movss	xmm0, DWORD PTR __real@00000000
	movss	DWORD PTR [esp], xmm0
	push	ecx
	movss	xmm0, DWORD PTR __real@3f800000
	movss	DWORD PTR [esp], xmm0
	push	ecx
	movss	xmm0, DWORD PTR __real@00000000
	movss	DWORD PTR [esp], xmm0
	mov	ecx, 12					; 0000000cH
	shl	ecx, 0
	add	ecx, DWORD PTR _this$[ebp]
	call	?Set@Vector3@@QAEXMMM@Z			; Vector3::Set

; 145  : 		Row[2].Set(0.0f,0.0f,1.0f);

	push	ecx
	movss	xmm0, DWORD PTR __real@3f800000
	movss	DWORD PTR [esp], xmm0
	push	ecx
	movss	xmm0, DWORD PTR __real@00000000
	movss	DWORD PTR [esp], xmm0
	push	ecx
	movss	xmm0, DWORD PTR __real@00000000
	movss	DWORD PTR [esp], xmm0
	mov	ecx, 12					; 0000000cH
	shl	ecx, 1
	add	ecx, DWORD PTR _this$[ebp]
	call	?Set@Vector3@@QAEXMMM@Z			; Vector3::Set

; 146  : 	}

	pop	edi
	pop	esi
	pop	ebx
	mov	esp, ebp
	pop	ebp
	ret	0
?Make_Identity@Matrix3@@QAEXXZ ENDP			; Matrix3::Make_Identity
_TEXT	ENDS
; Function compile flags: /Odtp /ZI
; File x:\github\renegade\dragonade_rxd\scripts\matrix3.h
;	COMDAT ??_0Matrix3@@QAEAAV0@M@Z
_TEXT	SEGMENT
_this$ = -4						; size = 4
_d$ = 8							; size = 4
??_0Matrix3@@QAEAAV0@M@Z PROC				; Matrix3::operator/=, COMDAT
; _this$ = ecx

; 137  : 	{

	push	ebp
	mov	ebp, esp
	sub	esp, 68					; 00000044H
	push	ebx
	push	esi
	push	edi
	mov	DWORD PTR _this$[ebp], ecx

; 138  : 		Row[0] /= d; Row[1] /= d; Row[2] /= d; 

	push	ecx
	movss	xmm0, DWORD PTR _d$[ebp]
	movss	DWORD PTR [esp], xmm0
	mov	ecx, 12					; 0000000cH
	imul	ecx, 0
	add	ecx, DWORD PTR _this$[ebp]
	call	??_0Vector3@@QAEAAV0@M@Z		; Vector3::operator/=
	push	ecx
	movss	xmm0, DWORD PTR _d$[ebp]
	movss	DWORD PTR [esp], xmm0
	mov	ecx, 12					; 0000000cH
	shl	ecx, 0
	add	ecx, DWORD PTR _this$[ebp]
	call	??_0Vector3@@QAEAAV0@M@Z		; Vector3::operator/=
	push	ecx
	movss	xmm0, DWORD PTR _d$[ebp]
	movss	DWORD PTR [esp], xmm0
	mov	ecx, 12					; 0000000cH
	shl	ecx, 1
	add	ecx, DWORD PTR _this$[ebp]
	call	??_0Vector3@@QAEAAV0@M@Z		; Vector3::operator/=

; 139  : 		return *this; 

	mov	eax, DWORD PTR _this$[ebp]

; 140  : 	}

	pop	edi
	pop	esi
	pop	ebx
	mov	esp, ebp
	pop	ebp
	ret	4
??_0Matrix3@@QAEAAV0@M@Z ENDP				; Matrix3::operator/=
_TEXT	ENDS
; Function compile flags: /Odtp /ZI
; File x:\github\renegade\dragonade_rxd\scripts\matrix3.h
;	COMDAT ??XMatrix3@@QAEAAV0@M@Z
_TEXT	SEGMENT
_this$ = -4						; size = 4
_d$ = 8							; size = 4
??XMatrix3@@QAEAAV0@M@Z PROC				; Matrix3::operator*=, COMDAT
; _this$ = ecx

; 132  : 	{

	push	ebp
	mov	ebp, esp
	sub	esp, 68					; 00000044H
	push	ebx
	push	esi
	push	edi
	mov	DWORD PTR _this$[ebp], ecx

; 133  : 		Row[0] *= d; Row[1] *= d; Row[2] *= d; 

	push	ecx
	movss	xmm0, DWORD PTR _d$[ebp]
	movss	DWORD PTR [esp], xmm0
	mov	ecx, 12					; 0000000cH
	imul	ecx, 0
	add	ecx, DWORD PTR _this$[ebp]
	call	??XVector3@@QAEAAV0@M@Z			; Vector3::operator*=
	push	ecx
	movss	xmm0, DWORD PTR _d$[ebp]
	movss	DWORD PTR [esp], xmm0
	mov	ecx, 12					; 0000000cH
	shl	ecx, 0
	add	ecx, DWORD PTR _this$[ebp]
	call	??XVector3@@QAEAAV0@M@Z			; Vector3::operator*=
	push	ecx
	movss	xmm0, DWORD PTR _d$[ebp]
	movss	DWORD PTR [esp], xmm0
	mov	ecx, 12					; 0000000cH
	shl	ecx, 1
	add	ecx, DWORD PTR _this$[ebp]
	call	??XVector3@@QAEAAV0@M@Z			; Vector3::operator*=

; 134  : 		return *this; 

	mov	eax, DWORD PTR _this$[ebp]

; 135  : 	}

	pop	edi
	pop	esi
	pop	ebx
	mov	esp, ebp
	pop	ebp
	ret	4
??XMatrix3@@QAEAAV0@M@Z ENDP				; Matrix3::operator*=
_TEXT	ENDS
; Function compile flags: /Odtp /ZI
; File x:\github\renegade\dragonade_rxd\scripts\matrix3.h
;	COMDAT ??ZMatrix3@@QAEAAV0@ABV0@@Z
_TEXT	SEGMENT
_this$ = -4						; size = 4
_m$ = 8							; size = 4
??ZMatrix3@@QAEAAV0@ABV0@@Z PROC			; Matrix3::operator-=, COMDAT
; _this$ = ecx

; 127  : 	{

	push	ebp
	mov	ebp, esp
	sub	esp, 68					; 00000044H
	push	ebx
	push	esi
	push	edi
	mov	DWORD PTR _this$[ebp], ecx

; 128  : 		Row[0] -= m.Row[0]; Row[1] -= m.Row[1]; Row[2] -= m.Row[2]; 

	mov	eax, 12					; 0000000cH
	imul	eax, 0
	add	eax, DWORD PTR _m$[ebp]
	push	eax
	mov	ecx, 12					; 0000000cH
	imul	ecx, 0
	add	ecx, DWORD PTR _this$[ebp]
	call	??ZVector3@@QAEAAV0@ABV0@@Z		; Vector3::operator-=
	mov	eax, 12					; 0000000cH
	shl	eax, 0
	add	eax, DWORD PTR _m$[ebp]
	push	eax
	mov	ecx, 12					; 0000000cH
	shl	ecx, 0
	add	ecx, DWORD PTR _this$[ebp]
	call	??ZVector3@@QAEAAV0@ABV0@@Z		; Vector3::operator-=
	mov	eax, 12					; 0000000cH
	shl	eax, 1
	add	eax, DWORD PTR _m$[ebp]
	push	eax
	mov	ecx, 12					; 0000000cH
	shl	ecx, 1
	add	ecx, DWORD PTR _this$[ebp]
	call	??ZVector3@@QAEAAV0@ABV0@@Z		; Vector3::operator-=

; 129  : 		return *this; 

	mov	eax, DWORD PTR _this$[ebp]

; 130  : 	}

	pop	edi
	pop	esi
	pop	ebx
	mov	esp, ebp
	pop	ebp
	ret	4
??ZMatrix3@@QAEAAV0@ABV0@@Z ENDP			; Matrix3::operator-=
_TEXT	ENDS
; Function compile flags: /Odtp /ZI
; File x:\github\renegade\dragonade_rxd\scripts\matrix3.h
;	COMDAT ??YMatrix3@@QAEAAV0@ABV0@@Z
_TEXT	SEGMENT
_this$ = -4						; size = 4
_m$ = 8							; size = 4
??YMatrix3@@QAEAAV0@ABV0@@Z PROC			; Matrix3::operator+=, COMDAT
; _this$ = ecx

; 122  : 	{

	push	ebp
	mov	ebp, esp
	sub	esp, 68					; 00000044H
	push	ebx
	push	esi
	push	edi
	mov	DWORD PTR _this$[ebp], ecx

; 123  : 		Row[0] += m.Row[0]; Row[1] += m.Row[1]; Row[2] += m.Row[2]; 

	mov	eax, 12					; 0000000cH
	imul	eax, 0
	add	eax, DWORD PTR _m$[ebp]
	push	eax
	mov	ecx, 12					; 0000000cH
	imul	ecx, 0
	add	ecx, DWORD PTR _this$[ebp]
	call	??YVector3@@QAEAAV0@ABV0@@Z		; Vector3::operator+=
	mov	eax, 12					; 0000000cH
	shl	eax, 0
	add	eax, DWORD PTR _m$[ebp]
	push	eax
	mov	ecx, 12					; 0000000cH
	shl	ecx, 0
	add	ecx, DWORD PTR _this$[ebp]
	call	??YVector3@@QAEAAV0@ABV0@@Z		; Vector3::operator+=
	mov	eax, 12					; 0000000cH
	shl	eax, 1
	add	eax, DWORD PTR _m$[ebp]
	push	eax
	mov	ecx, 12					; 0000000cH
	shl	ecx, 1
	add	ecx, DWORD PTR _this$[ebp]
	call	??YVector3@@QAEAAV0@ABV0@@Z		; Vector3::operator+=

; 124  : 		return *this; 

	mov	eax, DWORD PTR _this$[ebp]

; 125  : 	}

	pop	edi
	pop	esi
	pop	ebx
	mov	esp, ebp
	pop	ebp
	ret	4
??YMatrix3@@QAEAAV0@ABV0@@Z ENDP			; Matrix3::operator+=
_TEXT	ENDS
; Function compile flags: /Odtp /ZI
; File x:\github\renegade\dragonade_rxd\scripts\matrix3.h
;	COMDAT ??4Matrix3@@QAEAAV0@ABV0@@Z
_TEXT	SEGMENT
_this$ = -4						; size = 4
_m$ = 8							; size = 4
??4Matrix3@@QAEAAV0@ABV0@@Z PROC			; Matrix3::operator=, COMDAT
; _this$ = ecx

; 115  : 	{

	push	ebp
	mov	ebp, esp
	sub	esp, 68					; 00000044H
	push	ebx
	push	esi
	push	edi
	mov	DWORD PTR _this$[ebp], ecx

; 116  : 		Row[0] = m.Row[0]; Row[1] = m.Row[1]; Row[2] = m.Row[2];

	mov	eax, 12					; 0000000cH
	imul	eax, 0
	add	eax, DWORD PTR _m$[ebp]
	push	eax
	mov	ecx, 12					; 0000000cH
	imul	ecx, 0
	add	ecx, DWORD PTR _this$[ebp]
	call	??4Vector3@@QAEAAV0@ABV0@@Z		; Vector3::operator=
	mov	eax, 12					; 0000000cH
	shl	eax, 0
	add	eax, DWORD PTR _m$[ebp]
	push	eax
	mov	ecx, 12					; 0000000cH
	shl	ecx, 0
	add	ecx, DWORD PTR _this$[ebp]
	call	??4Vector3@@QAEAAV0@ABV0@@Z		; Vector3::operator=
	mov	eax, 12					; 0000000cH
	shl	eax, 1
	add	eax, DWORD PTR _m$[ebp]
	push	eax
	mov	ecx, 12					; 0000000cH
	shl	ecx, 1
	add	ecx, DWORD PTR _this$[ebp]
	call	??4Vector3@@QAEAAV0@ABV0@@Z		; Vector3::operator=

; 117  : 		return *this; 

	mov	eax, DWORD PTR _this$[ebp]

; 118  : 	}

	pop	edi
	pop	esi
	pop	ebx
	mov	esp, ebp
	pop	ebp
	ret	4
??4Matrix3@@QAEAAV0@ABV0@@Z ENDP			; Matrix3::operator=
_TEXT	ENDS
; Function compile flags: /Odtp /ZI
; File x:\github\renegade\dragonade_rxd\scripts\matrix3.h
;	COMDAT ?Determinant@Matrix3@@QBEMXZ
_TEXT	SEGMENT
tv243 = -92						; size = 4
tv255 = -88						; size = 4
tv253 = -84						; size = 4
tv251 = -80						; size = 4
tv249 = -76						; size = 4
tv247 = -72						; size = 4
_this$ = -4						; size = 4
?Determinant@Matrix3@@QBEMXZ PROC			; Matrix3::Determinant, COMDAT
; _this$ = ecx

; 109  : 	{

	push	ebp
	mov	ebp, esp
	sub	esp, 92					; 0000005cH
	push	ebx
	push	esi
	push	edi
	mov	DWORD PTR _this$[ebp], ecx

; 110  : 		return   Row[0][0] * (Row[1][1] * Row[2][2] - Row[1][2] * Row[2][1])
; 111  : 				- Row[0][1] * (Row[1][0] * Row[2][2] - Row[1][2] * Row[2][0])
; 112  : 				- Row[0][2] * (Row[1][0] * Row[2][1] - Row[1][1] * Row[2][0]);

	push	0
	mov	ecx, 12					; 0000000cH
	imul	ecx, 0
	add	ecx, DWORD PTR _this$[ebp]
	call	??AVector3@@QBEABMH@Z			; Vector3::operator[]
	mov	esi, eax
	push	1
	mov	ecx, 12					; 0000000cH
	shl	ecx, 0
	add	ecx, DWORD PTR _this$[ebp]
	call	??AVector3@@QBEABMH@Z			; Vector3::operator[]
	mov	edi, eax
	push	2
	mov	ecx, 12					; 0000000cH
	shl	ecx, 1
	add	ecx, DWORD PTR _this$[ebp]
	call	??AVector3@@QBEABMH@Z			; Vector3::operator[]
	movss	xmm0, DWORD PTR [edi]
	mulss	xmm0, DWORD PTR [eax]
	push	2
	mov	ecx, 12					; 0000000cH
	shl	ecx, 0
	add	ecx, DWORD PTR _this$[ebp]
	movss	DWORD PTR tv247[ebp], xmm0
	call	??AVector3@@QBEABMH@Z			; Vector3::operator[]
	mov	edi, eax
	push	1
	mov	ecx, 12					; 0000000cH
	shl	ecx, 1
	add	ecx, DWORD PTR _this$[ebp]
	call	??AVector3@@QBEABMH@Z			; Vector3::operator[]
	movss	xmm0, DWORD PTR [edi]
	mulss	xmm0, DWORD PTR [eax]
	movss	xmm1, DWORD PTR tv247[ebp]
	subss	xmm1, xmm0
	mulss	xmm1, DWORD PTR [esi]
	push	1
	mov	ecx, 12					; 0000000cH
	imul	ecx, 0
	add	ecx, DWORD PTR _this$[ebp]
	movss	DWORD PTR tv249[ebp], xmm1
	call	??AVector3@@QBEABMH@Z			; Vector3::operator[]
	mov	esi, eax
	push	0
	mov	ecx, 12					; 0000000cH
	shl	ecx, 0
	add	ecx, DWORD PTR _this$[ebp]
	call	??AVector3@@QBEABMH@Z			; Vector3::operator[]
	mov	edi, eax
	push	2
	mov	ecx, 12					; 0000000cH
	shl	ecx, 1
	add	ecx, DWORD PTR _this$[ebp]
	call	??AVector3@@QBEABMH@Z			; Vector3::operator[]
	movss	xmm0, DWORD PTR [edi]
	mulss	xmm0, DWORD PTR [eax]
	push	2
	mov	ecx, 12					; 0000000cH
	shl	ecx, 0
	add	ecx, DWORD PTR _this$[ebp]
	movss	DWORD PTR tv251[ebp], xmm0
	call	??AVector3@@QBEABMH@Z			; Vector3::operator[]
	mov	edi, eax
	push	0
	mov	ecx, 12					; 0000000cH
	shl	ecx, 1
	add	ecx, DWORD PTR _this$[ebp]
	call	??AVector3@@QBEABMH@Z			; Vector3::operator[]
	movss	xmm0, DWORD PTR [edi]
	mulss	xmm0, DWORD PTR [eax]
	movss	xmm1, DWORD PTR tv251[ebp]
	subss	xmm1, xmm0
	mulss	xmm1, DWORD PTR [esi]
	movss	xmm0, DWORD PTR tv249[ebp]
	subss	xmm0, xmm1
	push	2
	mov	ecx, 12					; 0000000cH
	imul	ecx, 0
	add	ecx, DWORD PTR _this$[ebp]
	movss	DWORD PTR tv253[ebp], xmm0
	call	??AVector3@@QBEABMH@Z			; Vector3::operator[]
	mov	esi, eax
	push	0
	mov	ecx, 12					; 0000000cH
	shl	ecx, 0
	add	ecx, DWORD PTR _this$[ebp]
	call	??AVector3@@QBEABMH@Z			; Vector3::operator[]
	mov	edi, eax
	push	1
	mov	ecx, 12					; 0000000cH
	shl	ecx, 1
	add	ecx, DWORD PTR _this$[ebp]
	call	??AVector3@@QBEABMH@Z			; Vector3::operator[]
	movss	xmm0, DWORD PTR [edi]
	mulss	xmm0, DWORD PTR [eax]
	push	1
	mov	ecx, 12					; 0000000cH
	shl	ecx, 0
	add	ecx, DWORD PTR _this$[ebp]
	movss	DWORD PTR tv255[ebp], xmm0
	call	??AVector3@@QBEABMH@Z			; Vector3::operator[]
	mov	edi, eax
	push	0
	mov	ecx, 12					; 0000000cH
	shl	ecx, 1
	add	ecx, DWORD PTR _this$[ebp]
	call	??AVector3@@QBEABMH@Z			; Vector3::operator[]
	movss	xmm0, DWORD PTR [edi]
	mulss	xmm0, DWORD PTR [eax]
	movss	xmm1, DWORD PTR tv255[ebp]
	subss	xmm1, xmm0
	mulss	xmm1, DWORD PTR [esi]
	movss	xmm0, DWORD PTR tv253[ebp]
	subss	xmm0, xmm1
	movss	DWORD PTR tv243[ebp], xmm0
	fld	DWORD PTR tv243[ebp]

; 113  : 	}

	pop	edi
	pop	esi
	pop	ebx
	mov	esp, ebp
	pop	ebp
	ret	0
?Determinant@Matrix3@@QBEMXZ ENDP			; Matrix3::Determinant
_TEXT	ENDS
; Function compile flags: /Odtp /ZI
; File x:\github\renegade\dragonade_rxd\scripts\matrix3.h
;	COMDAT ?Transpose@Matrix3@@QBE?AV1@XZ
_TEXT	SEGMENT
$T1 = -104						; size = 12
$T2 = -92						; size = 12
$T3 = -80						; size = 12
_this$ = -4						; size = 4
___$ReturnUdt$ = 8					; size = 4
?Transpose@Matrix3@@QBE?AV1@XZ PROC			; Matrix3::Transpose, COMDAT
; _this$ = ecx

; 101  : 	{

	push	ebp
	mov	ebp, esp
	sub	esp, 104				; 00000068H
	push	ebx
	push	esi
	push	edi
	mov	DWORD PTR _this$[ebp], ecx

; 102  : 		return Matrix3(
; 103  : 				Vector3(Row[0][0], Row[1][0], Row[2][0]),
; 104  : 				Vector3(Row[0][1], Row[1][1], Row[2][1]),
; 105  : 				Vector3(Row[0][2], Row[1][2], Row[2][2])
; 106  : 		);

	push	2
	mov	ecx, 12					; 0000000cH
	shl	ecx, 1
	add	ecx, DWORD PTR _this$[ebp]
	call	??AVector3@@QBEABMH@Z			; Vector3::operator[]
	push	ecx
	movss	xmm0, DWORD PTR [eax]
	movss	DWORD PTR [esp], xmm0
	push	2
	mov	ecx, 12					; 0000000cH
	shl	ecx, 0
	add	ecx, DWORD PTR _this$[ebp]
	call	??AVector3@@QBEABMH@Z			; Vector3::operator[]
	push	ecx
	movss	xmm0, DWORD PTR [eax]
	movss	DWORD PTR [esp], xmm0
	push	2
	mov	ecx, 12					; 0000000cH
	imul	ecx, 0
	add	ecx, DWORD PTR _this$[ebp]
	call	??AVector3@@QBEABMH@Z			; Vector3::operator[]
	push	ecx
	movss	xmm0, DWORD PTR [eax]
	movss	DWORD PTR [esp], xmm0
	lea	ecx, DWORD PTR $T1[ebp]
	call	??0Vector3@@QAE@MMM@Z			; Vector3::Vector3
	push	eax
	push	1
	mov	ecx, 12					; 0000000cH
	shl	ecx, 1
	add	ecx, DWORD PTR _this$[ebp]
	call	??AVector3@@QBEABMH@Z			; Vector3::operator[]
	push	ecx
	movss	xmm0, DWORD PTR [eax]
	movss	DWORD PTR [esp], xmm0
	push	1
	mov	ecx, 12					; 0000000cH
	shl	ecx, 0
	add	ecx, DWORD PTR _this$[ebp]
	call	??AVector3@@QBEABMH@Z			; Vector3::operator[]
	push	ecx
	movss	xmm0, DWORD PTR [eax]
	movss	DWORD PTR [esp], xmm0
	push	1
	mov	ecx, 12					; 0000000cH
	imul	ecx, 0
	add	ecx, DWORD PTR _this$[ebp]
	call	??AVector3@@QBEABMH@Z			; Vector3::operator[]
	push	ecx
	movss	xmm0, DWORD PTR [eax]
	movss	DWORD PTR [esp], xmm0
	lea	ecx, DWORD PTR $T2[ebp]
	call	??0Vector3@@QAE@MMM@Z			; Vector3::Vector3
	push	eax
	push	0
	mov	ecx, 12					; 0000000cH
	shl	ecx, 1
	add	ecx, DWORD PTR _this$[ebp]
	call	??AVector3@@QBEABMH@Z			; Vector3::operator[]
	push	ecx
	movss	xmm0, DWORD PTR [eax]
	movss	DWORD PTR [esp], xmm0
	push	0
	mov	ecx, 12					; 0000000cH
	shl	ecx, 0
	add	ecx, DWORD PTR _this$[ebp]
	call	??AVector3@@QBEABMH@Z			; Vector3::operator[]
	push	ecx
	movss	xmm0, DWORD PTR [eax]
	movss	DWORD PTR [esp], xmm0
	push	0
	mov	ecx, 12					; 0000000cH
	imul	ecx, 0
	add	ecx, DWORD PTR _this$[ebp]
	call	??AVector3@@QBEABMH@Z			; Vector3::operator[]
	push	ecx
	movss	xmm0, DWORD PTR [eax]
	movss	DWORD PTR [esp], xmm0
	lea	ecx, DWORD PTR $T3[ebp]
	call	??0Vector3@@QAE@MMM@Z			; Vector3::Vector3
	push	eax
	mov	ecx, DWORD PTR ___$ReturnUdt$[ebp]
	call	??0Matrix3@@QAE@ABVVector3@@00@Z	; Matrix3::Matrix3
	mov	eax, DWORD PTR ___$ReturnUdt$[ebp]

; 107  : 	}

	pop	edi
	pop	esi
	pop	ebx
	mov	esp, ebp
	pop	ebp
	ret	4
?Transpose@Matrix3@@QBE?AV1@XZ ENDP			; Matrix3::Transpose
_TEXT	ENDS
; Function compile flags: /Odtp /ZI
; File x:\github\renegade\dragonade_rxd\scripts\matrix3.h
;	COMDAT ??AMatrix3@@QBEABVVector3@@H@Z
_TEXT	SEGMENT
_this$ = -4						; size = 4
_i$ = 8							; size = 4
??AMatrix3@@QBEABVVector3@@H@Z PROC			; Matrix3::operator[], COMDAT
; _this$ = ecx

; 99   : 	TT_INLINE const Vector3 & operator [] (int i) const { return Row[i]; }

	push	ebp
	mov	ebp, esp
	sub	esp, 68					; 00000044H
	push	ebx
	push	esi
	push	edi
	mov	DWORD PTR _this$[ebp], ecx
	mov	eax, DWORD PTR _i$[ebp]
	imul	eax, 12					; 0000000cH
	add	eax, DWORD PTR _this$[ebp]
	pop	edi
	pop	esi
	pop	ebx
	mov	esp, ebp
	pop	ebp
	ret	4
??AMatrix3@@QBEABVVector3@@H@Z ENDP			; Matrix3::operator[]
_TEXT	ENDS
; Function compile flags: /Odtp /ZI
; File x:\github\renegade\dragonade_rxd\scripts\matrix3.h
;	COMDAT ??AMatrix3@@QAEAAVVector3@@H@Z
_TEXT	SEGMENT
_this$ = -4						; size = 4
_i$ = 8							; size = 4
??AMatrix3@@QAEAAVVector3@@H@Z PROC			; Matrix3::operator[], COMDAT
; _this$ = ecx

; 98   : 	TT_INLINE Vector3 & operator [] (int i) { return Row[i]; }

	push	ebp
	mov	ebp, esp
	sub	esp, 68					; 00000044H
	push	ebx
	push	esi
	push	edi
	mov	DWORD PTR _this$[ebp], ecx
	mov	eax, DWORD PTR _i$[ebp]
	imul	eax, 12					; 0000000cH
	add	eax, DWORD PTR _this$[ebp]
	pop	edi
	pop	esi
	pop	ebx
	mov	esp, ebp
	pop	ebp
	ret	4
??AMatrix3@@QAEAAVVector3@@H@Z ENDP			; Matrix3::operator[]
_TEXT	ENDS
; Function compile flags: /Odtp /ZI
; File x:\github\renegade\dragonade_rxd\scripts\matrix3.h
;	COMDAT ?Set@Matrix3@@QAEXABVVector3@@MM@Z
_TEXT	SEGMENT
tv359 = -80						; size = 4
tv353 = -80						; size = 4
tv347 = -80						; size = 4
tv357 = -76						; size = 4
tv351 = -76						; size = 4
tv345 = -76						; size = 4
tv355 = -72						; size = 4
tv349 = -72						; size = 4
tv343 = -72						; size = 4
_this$ = -4						; size = 4
_axis$ = 8						; size = 4
_s$ = 12						; size = 4
_c$ = 16						; size = 4
?Set@Matrix3@@QAEXABVVector3@@MM@Z PROC			; Matrix3::Set, COMDAT
; _this$ = ecx

; 80   : 	{

	push	ebp
	mov	ebp, esp
	sub	esp, 80					; 00000050H
	push	ebx
	push	esi
	push	edi
	mov	DWORD PTR _this$[ebp], ecx

; 81   : 		Row[0].Set(
; 82   : 			(float)(axis[0]*axis[0] + c*(1.0f - axis[0]*axis[0])),
; 83   : 			(float)(axis[0]*axis[1]*(1.0f - c) - axis[2]*s),
; 84   : 			(float)(axis[2]*axis[0]*(1.0f - c) + axis[1]*s)
; 85   : 		);

	push	2
	mov	ecx, DWORD PTR _axis$[ebp]
	call	??AVector3@@QBEABMH@Z			; Vector3::operator[]
	mov	esi, eax
	push	0
	mov	ecx, DWORD PTR _axis$[ebp]
	call	??AVector3@@QBEABMH@Z			; Vector3::operator[]
	movss	xmm0, DWORD PTR [esi]
	mulss	xmm0, DWORD PTR [eax]
	movss	xmm1, DWORD PTR __real@3f800000
	subss	xmm1, DWORD PTR _c$[ebp]
	mulss	xmm0, xmm1
	push	1
	mov	ecx, DWORD PTR _axis$[ebp]
	movss	DWORD PTR tv343[ebp], xmm0
	call	??AVector3@@QBEABMH@Z			; Vector3::operator[]
	movss	xmm0, DWORD PTR [eax]
	mulss	xmm0, DWORD PTR _s$[ebp]
	movss	xmm1, DWORD PTR tv343[ebp]
	addss	xmm1, xmm0
	push	ecx
	movss	DWORD PTR [esp], xmm1
	push	0
	mov	ecx, DWORD PTR _axis$[ebp]
	call	??AVector3@@QBEABMH@Z			; Vector3::operator[]
	mov	esi, eax
	push	1
	mov	ecx, DWORD PTR _axis$[ebp]
	call	??AVector3@@QBEABMH@Z			; Vector3::operator[]
	movss	xmm0, DWORD PTR [esi]
	mulss	xmm0, DWORD PTR [eax]
	movss	xmm1, DWORD PTR __real@3f800000
	subss	xmm1, DWORD PTR _c$[ebp]
	mulss	xmm0, xmm1
	push	2
	mov	ecx, DWORD PTR _axis$[ebp]
	movss	DWORD PTR tv345[ebp], xmm0
	call	??AVector3@@QBEABMH@Z			; Vector3::operator[]
	movss	xmm0, DWORD PTR [eax]
	mulss	xmm0, DWORD PTR _s$[ebp]
	movss	xmm1, DWORD PTR tv345[ebp]
	subss	xmm1, xmm0
	push	ecx
	movss	DWORD PTR [esp], xmm1
	push	0
	mov	ecx, DWORD PTR _axis$[ebp]
	call	??AVector3@@QBEABMH@Z			; Vector3::operator[]
	mov	esi, eax
	push	0
	mov	ecx, DWORD PTR _axis$[ebp]
	call	??AVector3@@QBEABMH@Z			; Vector3::operator[]
	movss	xmm0, DWORD PTR [esi]
	mulss	xmm0, DWORD PTR [eax]
	push	0
	mov	ecx, DWORD PTR _axis$[ebp]
	movss	DWORD PTR tv347[ebp], xmm0
	call	??AVector3@@QBEABMH@Z			; Vector3::operator[]
	mov	esi, eax
	push	0
	mov	ecx, DWORD PTR _axis$[ebp]
	call	??AVector3@@QBEABMH@Z			; Vector3::operator[]
	movss	xmm0, DWORD PTR [esi]
	mulss	xmm0, DWORD PTR [eax]
	movss	xmm1, DWORD PTR __real@3f800000
	subss	xmm1, xmm0
	mulss	xmm1, DWORD PTR _c$[ebp]
	movss	xmm0, DWORD PTR tv347[ebp]
	addss	xmm0, xmm1
	push	ecx
	movss	DWORD PTR [esp], xmm0
	mov	ecx, 12					; 0000000cH
	imul	ecx, 0
	add	ecx, DWORD PTR _this$[ebp]
	call	?Set@Vector3@@QAEXMMM@Z			; Vector3::Set

; 86   : 		Row[1].Set(
; 87   : 			(float)(axis[0]*axis[1]*(1.0f - c) + axis[2]*s),
; 88   : 			(float)(axis[1]*axis[1] + c*(1.0f - axis[1]*axis[1])),
; 89   : 			(float)(axis[1]*axis[2]*(1.0f - c) - axis[0]*s)
; 90   : 		);

	push	1
	mov	ecx, DWORD PTR _axis$[ebp]
	call	??AVector3@@QBEABMH@Z			; Vector3::operator[]
	mov	esi, eax
	push	2
	mov	ecx, DWORD PTR _axis$[ebp]
	call	??AVector3@@QBEABMH@Z			; Vector3::operator[]
	movss	xmm0, DWORD PTR [esi]
	mulss	xmm0, DWORD PTR [eax]
	movss	xmm1, DWORD PTR __real@3f800000
	subss	xmm1, DWORD PTR _c$[ebp]
	mulss	xmm0, xmm1
	push	0
	mov	ecx, DWORD PTR _axis$[ebp]
	movss	DWORD PTR tv349[ebp], xmm0
	call	??AVector3@@QBEABMH@Z			; Vector3::operator[]
	movss	xmm0, DWORD PTR [eax]
	mulss	xmm0, DWORD PTR _s$[ebp]
	movss	xmm1, DWORD PTR tv349[ebp]
	subss	xmm1, xmm0
	push	ecx
	movss	DWORD PTR [esp], xmm1
	push	1
	mov	ecx, DWORD PTR _axis$[ebp]
	call	??AVector3@@QBEABMH@Z			; Vector3::operator[]
	mov	esi, eax
	push	1
	mov	ecx, DWORD PTR _axis$[ebp]
	call	??AVector3@@QBEABMH@Z			; Vector3::operator[]
	movss	xmm0, DWORD PTR [esi]
	mulss	xmm0, DWORD PTR [eax]
	push	1
	mov	ecx, DWORD PTR _axis$[ebp]
	movss	DWORD PTR tv351[ebp], xmm0
	call	??AVector3@@QBEABMH@Z			; Vector3::operator[]
	mov	esi, eax
	push	1
	mov	ecx, DWORD PTR _axis$[ebp]
	call	??AVector3@@QBEABMH@Z			; Vector3::operator[]
	movss	xmm0, DWORD PTR [esi]
	mulss	xmm0, DWORD PTR [eax]
	movss	xmm1, DWORD PTR __real@3f800000
	subss	xmm1, xmm0
	mulss	xmm1, DWORD PTR _c$[ebp]
	movss	xmm0, DWORD PTR tv351[ebp]
	addss	xmm0, xmm1
	push	ecx
	movss	DWORD PTR [esp], xmm0
	push	0
	mov	ecx, DWORD PTR _axis$[ebp]
	call	??AVector3@@QBEABMH@Z			; Vector3::operator[]
	mov	esi, eax
	push	1
	mov	ecx, DWORD PTR _axis$[ebp]
	call	??AVector3@@QBEABMH@Z			; Vector3::operator[]
	movss	xmm0, DWORD PTR [esi]
	mulss	xmm0, DWORD PTR [eax]
	movss	xmm1, DWORD PTR __real@3f800000
	subss	xmm1, DWORD PTR _c$[ebp]
	mulss	xmm0, xmm1
	push	2
	mov	ecx, DWORD PTR _axis$[ebp]
	movss	DWORD PTR tv353[ebp], xmm0
	call	??AVector3@@QBEABMH@Z			; Vector3::operator[]
	movss	xmm0, DWORD PTR [eax]
	mulss	xmm0, DWORD PTR _s$[ebp]
	movss	xmm1, DWORD PTR tv353[ebp]
	addss	xmm1, xmm0
	push	ecx
	movss	DWORD PTR [esp], xmm1
	mov	ecx, 12					; 0000000cH
	shl	ecx, 0
	add	ecx, DWORD PTR _this$[ebp]
	call	?Set@Vector3@@QAEXMMM@Z			; Vector3::Set

; 91   : 	Row[2].Set(
; 92   : 			(float)(axis[2]*axis[0]*(1.0f - c) - axis[1]*s),
; 93   : 			(float)(axis[1]*axis[2]*(1.0f - c) + axis[0]*s),
; 94   : 			(float)(axis[2]*axis[2] + c*(1 - axis[2]*axis[2]))
; 95   : 		);

	push	2
	mov	ecx, DWORD PTR _axis$[ebp]
	call	??AVector3@@QBEABMH@Z			; Vector3::operator[]
	mov	esi, eax
	push	2
	mov	ecx, DWORD PTR _axis$[ebp]
	call	??AVector3@@QBEABMH@Z			; Vector3::operator[]
	movss	xmm0, DWORD PTR [esi]
	mulss	xmm0, DWORD PTR [eax]
	push	2
	mov	ecx, DWORD PTR _axis$[ebp]
	movss	DWORD PTR tv355[ebp], xmm0
	call	??AVector3@@QBEABMH@Z			; Vector3::operator[]
	mov	esi, eax
	push	2
	mov	ecx, DWORD PTR _axis$[ebp]
	call	??AVector3@@QBEABMH@Z			; Vector3::operator[]
	movss	xmm0, DWORD PTR [esi]
	mulss	xmm0, DWORD PTR [eax]
	movss	xmm1, DWORD PTR __real@3f800000
	subss	xmm1, xmm0
	mulss	xmm1, DWORD PTR _c$[ebp]
	movss	xmm0, DWORD PTR tv355[ebp]
	addss	xmm0, xmm1
	push	ecx
	movss	DWORD PTR [esp], xmm0
	push	1
	mov	ecx, DWORD PTR _axis$[ebp]
	call	??AVector3@@QBEABMH@Z			; Vector3::operator[]
	mov	esi, eax
	push	2
	mov	ecx, DWORD PTR _axis$[ebp]
	call	??AVector3@@QBEABMH@Z			; Vector3::operator[]
	movss	xmm0, DWORD PTR [esi]
	mulss	xmm0, DWORD PTR [eax]
	movss	xmm1, DWORD PTR __real@3f800000
	subss	xmm1, DWORD PTR _c$[ebp]
	mulss	xmm0, xmm1
	push	0
	mov	ecx, DWORD PTR _axis$[ebp]
	movss	DWORD PTR tv357[ebp], xmm0
	call	??AVector3@@QBEABMH@Z			; Vector3::operator[]
	movss	xmm0, DWORD PTR [eax]
	mulss	xmm0, DWORD PTR _s$[ebp]
	movss	xmm1, DWORD PTR tv357[ebp]
	addss	xmm1, xmm0
	push	ecx
	movss	DWORD PTR [esp], xmm1
	push	2
	mov	ecx, DWORD PTR _axis$[ebp]
	call	??AVector3@@QBEABMH@Z			; Vector3::operator[]
	mov	esi, eax
	push	0
	mov	ecx, DWORD PTR _axis$[ebp]
	call	??AVector3@@QBEABMH@Z			; Vector3::operator[]
	movss	xmm0, DWORD PTR [esi]
	mulss	xmm0, DWORD PTR [eax]
	movss	xmm1, DWORD PTR __real@3f800000
	subss	xmm1, DWORD PTR _c$[ebp]
	mulss	xmm0, xmm1
	push	1
	mov	ecx, DWORD PTR _axis$[ebp]
	movss	DWORD PTR tv359[ebp], xmm0
	call	??AVector3@@QBEABMH@Z			; Vector3::operator[]
	movss	xmm0, DWORD PTR [eax]
	mulss	xmm0, DWORD PTR _s$[ebp]
	movss	xmm1, DWORD PTR tv359[ebp]
	subss	xmm1, xmm0
	push	ecx
	movss	DWORD PTR [esp], xmm1
	mov	ecx, 12					; 0000000cH
	shl	ecx, 1
	add	ecx, DWORD PTR _this$[ebp]
	call	?Set@Vector3@@QAEXMMM@Z			; Vector3::Set

; 96   : 	}

	pop	edi
	pop	esi
	pop	ebx
	mov	esp, ebp
	pop	ebp
	ret	12					; 0000000cH
?Set@Matrix3@@QAEXABVVector3@@MM@Z ENDP			; Matrix3::Set
_TEXT	ENDS
; Function compile flags: /Odtp /ZI
; File x:\github\renegade\dragonade_rxd\scripts\matrix3.h
;	COMDAT ?Set@Matrix3@@QAEXABVVector3@@M@Z
_TEXT	SEGMENT
_this$ = -4						; size = 4
_axis$ = 8						; size = 4
_angle$ = 12						; size = 4
?Set@Matrix3@@QAEXABVVector3@@M@Z PROC			; Matrix3::Set, COMDAT
; _this$ = ecx

; 76   : 	{

	push	ebp
	mov	ebp, esp
	sub	esp, 68					; 00000044H
	push	ebx
	push	esi
	push	edi
	mov	DWORD PTR _this$[ebp], ecx

; 77   : 		Set(axis,sinf(angle),cosf(angle));

	push	ecx
	movss	xmm0, DWORD PTR _angle$[ebp]
	movss	DWORD PTR [esp], xmm0
	call	_cosf
	fstp	DWORD PTR [esp]
	push	ecx
	movss	xmm0, DWORD PTR _angle$[ebp]
	movss	DWORD PTR [esp], xmm0
	call	_sinf
	fstp	DWORD PTR [esp]
	mov	eax, DWORD PTR _axis$[ebp]
	push	eax
	mov	ecx, DWORD PTR _this$[ebp]
	call	?Set@Matrix3@@QAEXABVVector3@@MM@Z	; Matrix3::Set

; 78   : 	}

	pop	edi
	pop	esi
	pop	ebx
	mov	esp, ebp
	pop	ebp
	ret	8
?Set@Matrix3@@QAEXABVVector3@@M@Z ENDP			; Matrix3::Set
_TEXT	ENDS
; Function compile flags: /Odtp /ZI
; File x:\github\renegade\dragonade_rxd\scripts\matrix3.h
;	COMDAT ?Set@Matrix3@@QAEXMMMMMMMMM@Z
_TEXT	SEGMENT
_this$ = -4						; size = 4
_m11$ = 8						; size = 4
_m12$ = 12						; size = 4
_m13$ = 16						; size = 4
_m21$ = 20						; size = 4
_m22$ = 24						; size = 4
_m23$ = 28						; size = 4
_m31$ = 32						; size = 4
_m32$ = 36						; size = 4
_m33$ = 40						; size = 4
?Set@Matrix3@@QAEXMMMMMMMMM@Z PROC			; Matrix3::Set, COMDAT
; _this$ = ecx

; 70   : 	{

	push	ebp
	mov	ebp, esp
	sub	esp, 68					; 00000044H
	push	ebx
	push	esi
	push	edi
	mov	DWORD PTR _this$[ebp], ecx

; 71   : 		Row[0].Set(m11,m12,m13);

	push	ecx
	movss	xmm0, DWORD PTR _m13$[ebp]
	movss	DWORD PTR [esp], xmm0
	push	ecx
	movss	xmm0, DWORD PTR _m12$[ebp]
	movss	DWORD PTR [esp], xmm0
	push	ecx
	movss	xmm0, DWORD PTR _m11$[ebp]
	movss	DWORD PTR [esp], xmm0
	mov	ecx, 12					; 0000000cH
	imul	ecx, 0
	add	ecx, DWORD PTR _this$[ebp]
	call	?Set@Vector3@@QAEXMMM@Z			; Vector3::Set

; 72   : 		Row[1].Set(m21,m22,m23);

	push	ecx
	movss	xmm0, DWORD PTR _m23$[ebp]
	movss	DWORD PTR [esp], xmm0
	push	ecx
	movss	xmm0, DWORD PTR _m22$[ebp]
	movss	DWORD PTR [esp], xmm0
	push	ecx
	movss	xmm0, DWORD PTR _m21$[ebp]
	movss	DWORD PTR [esp], xmm0
	mov	ecx, 12					; 0000000cH
	shl	ecx, 0
	add	ecx, DWORD PTR _this$[ebp]
	call	?Set@Vector3@@QAEXMMM@Z			; Vector3::Set

; 73   : 		Row[2].Set(m31,m32,m33);

	push	ecx
	movss	xmm0, DWORD PTR _m33$[ebp]
	movss	DWORD PTR [esp], xmm0
	push	ecx
	movss	xmm0, DWORD PTR _m32$[ebp]
	movss	DWORD PTR [esp], xmm0
	push	ecx
	movss	xmm0, DWORD PTR _m31$[ebp]
	movss	DWORD PTR [esp], xmm0
	mov	ecx, 12					; 0000000cH
	shl	ecx, 1
	add	ecx, DWORD PTR _this$[ebp]
	call	?Set@Vector3@@QAEXMMM@Z			; Vector3::Set

; 74   : 	}

	pop	edi
	pop	esi
	pop	ebx
	mov	esp, ebp
	pop	ebp
	ret	36					; 00000024H
?Set@Matrix3@@QAEXMMMMMMMMM@Z ENDP			; Matrix3::Set
_TEXT	ENDS
; Function compile flags: /Odtp /ZI
; File x:\github\renegade\dragonade_rxd\scripts\matrix3.h
;	COMDAT ?Set@Matrix3@@QAEXABVVector3@@00@Z
_TEXT	SEGMENT
_this$ = -4						; size = 4
_v0$ = 8						; size = 4
_v1$ = 12						; size = 4
_v2$ = 16						; size = 4
?Set@Matrix3@@QAEXABVVector3@@00@Z PROC			; Matrix3::Set, COMDAT
; _this$ = ecx

; 64   : 	{ 

	push	ebp
	mov	ebp, esp
	sub	esp, 68					; 00000044H
	push	ebx
	push	esi
	push	edi
	mov	DWORD PTR _this$[ebp], ecx

; 65   : 		Row[0] = v0; 

	mov	eax, DWORD PTR _v0$[ebp]
	push	eax
	mov	ecx, 12					; 0000000cH
	imul	ecx, 0
	add	ecx, DWORD PTR _this$[ebp]
	call	??4Vector3@@QAEAAV0@ABV0@@Z		; Vector3::operator=

; 66   : 		Row[1] = v1; 

	mov	eax, DWORD PTR _v1$[ebp]
	push	eax
	mov	ecx, 12					; 0000000cH
	shl	ecx, 0
	add	ecx, DWORD PTR _this$[ebp]
	call	??4Vector3@@QAEAAV0@ABV0@@Z		; Vector3::operator=

; 67   : 		Row[2] = v2; 

	mov	eax, DWORD PTR _v2$[ebp]
	push	eax
	mov	ecx, 12					; 0000000cH
	shl	ecx, 1
	add	ecx, DWORD PTR _this$[ebp]
	call	??4Vector3@@QAEAAV0@ABV0@@Z		; Vector3::operator=

; 68   : 	}

	pop	edi
	pop	esi
	pop	ebx
	mov	esp, ebp
	pop	ebp
	ret	12					; 0000000cH
?Set@Matrix3@@QAEXABVVector3@@00@Z ENDP			; Matrix3::Set
_TEXT	ENDS
; Function compile flags: /Odtp /ZI
; File x:\github\renegade\dragonade_rxd\scripts\matrix3.h
;	COMDAT ??0Matrix3@@QAE@ABVQuaternion@@@Z
_TEXT	SEGMENT
_this$ = -4						; size = 4
_q$ = 8							; size = 4
??0Matrix3@@QAE@ABVQuaternion@@@Z PROC			; Matrix3::Matrix3, COMDAT
; _this$ = ecx

; 57   : 	TT_INLINE Matrix3(const Quaternion & q)

	push	ebp
	mov	ebp, esp
	sub	esp, 68					; 00000044H
	push	ebx
	push	esi
	push	edi
	mov	DWORD PTR _this$[ebp], ecx
	push	OFFSET ??0Vector3@@QAE@XZ		; Vector3::Vector3
	push	3
	push	12					; 0000000cH
	mov	eax, DWORD PTR _this$[ebp]
	push	eax
	call	??_H@YGXPAXIHP6EPAX0@Z@Z

; 58   : 	{
; 59   : 		this->Set(q);

	mov	eax, DWORD PTR _q$[ebp]
	push	eax
	mov	ecx, DWORD PTR _this$[ebp]
	call	?Set@Matrix3@@QAEXABVQuaternion@@@Z	; Matrix3::Set

; 60   : 	}

	mov	eax, DWORD PTR _this$[ebp]
	pop	edi
	pop	esi
	pop	ebx
	mov	esp, ebp
	pop	ebp
	ret	4
??0Matrix3@@QAE@ABVQuaternion@@@Z ENDP			; Matrix3::Matrix3
_TEXT	ENDS
; Function compile flags: /Odtp /ZI
; File x:\github\renegade\dragonade_rxd\scripts\matrix3.h
;	COMDAT ??0Matrix3@@QAE@ABVVector3@@MM@Z
_TEXT	SEGMENT
_this$ = -4						; size = 4
_axis$ = 8						; size = 4
_s_angle$ = 12						; size = 4
_c_angle$ = 16						; size = 4
??0Matrix3@@QAE@ABVVector3@@MM@Z PROC			; Matrix3::Matrix3, COMDAT
; _this$ = ecx

; 53   : 	TT_INLINE explicit Matrix3(const Vector3 & axis,float s_angle,float c_angle)

	push	ebp
	mov	ebp, esp
	sub	esp, 68					; 00000044H
	push	ebx
	push	esi
	push	edi
	mov	DWORD PTR _this$[ebp], ecx
	push	OFFSET ??0Vector3@@QAE@XZ		; Vector3::Vector3
	push	3
	push	12					; 0000000cH
	mov	eax, DWORD PTR _this$[ebp]
	push	eax
	call	??_H@YGXPAXIHP6EPAX0@Z@Z

; 54   : 	{ 
; 55   : 		Set(axis,s_angle,c_angle); 

	push	ecx
	movss	xmm0, DWORD PTR _c_angle$[ebp]
	movss	DWORD PTR [esp], xmm0
	push	ecx
	movss	xmm0, DWORD PTR _s_angle$[ebp]
	movss	DWORD PTR [esp], xmm0
	mov	eax, DWORD PTR _axis$[ebp]
	push	eax
	mov	ecx, DWORD PTR _this$[ebp]
	call	?Set@Matrix3@@QAEXABVVector3@@MM@Z	; Matrix3::Set

; 56   : 	}

	mov	eax, DWORD PTR _this$[ebp]
	pop	edi
	pop	esi
	pop	ebx
	mov	esp, ebp
	pop	ebp
	ret	12					; 0000000cH
??0Matrix3@@QAE@ABVVector3@@MM@Z ENDP			; Matrix3::Matrix3
_TEXT	ENDS
; Function compile flags: /Odtp /ZI
; File x:\github\renegade\dragonade_rxd\scripts\matrix3.h
;	COMDAT ??0Matrix3@@QAE@ABVVector3@@M@Z
_TEXT	SEGMENT
_this$ = -4						; size = 4
_axis$ = 8						; size = 4
_angle$ = 12						; size = 4
??0Matrix3@@QAE@ABVVector3@@M@Z PROC			; Matrix3::Matrix3, COMDAT
; _this$ = ecx

; 49   : 	TT_INLINE explicit Matrix3(const Vector3 & axis,float angle)

	push	ebp
	mov	ebp, esp
	sub	esp, 68					; 00000044H
	push	ebx
	push	esi
	push	edi
	mov	DWORD PTR _this$[ebp], ecx
	push	OFFSET ??0Vector3@@QAE@XZ		; Vector3::Vector3
	push	3
	push	12					; 0000000cH
	mov	eax, DWORD PTR _this$[ebp]
	push	eax
	call	??_H@YGXPAXIHP6EPAX0@Z@Z

; 50   : 	{ 
; 51   : 		Set(axis,angle); 

	push	ecx
	movss	xmm0, DWORD PTR _angle$[ebp]
	movss	DWORD PTR [esp], xmm0
	mov	eax, DWORD PTR _axis$[ebp]
	push	eax
	mov	ecx, DWORD PTR _this$[ebp]
	call	?Set@Matrix3@@QAEXABVVector3@@M@Z	; Matrix3::Set

; 52   : 	}

	mov	eax, DWORD PTR _this$[ebp]
	pop	edi
	pop	esi
	pop	ebx
	mov	esp, ebp
	pop	ebp
	ret	8
??0Matrix3@@QAE@ABVVector3@@M@Z ENDP			; Matrix3::Matrix3
_TEXT	ENDS
; Function compile flags: /Odtp /ZI
; File x:\github\renegade\dragonade_rxd\scripts\matrix3.h
;	COMDAT ??0Matrix3@@QAE@MMMMMMMMM@Z
_TEXT	SEGMENT
_this$ = -4						; size = 4
_m11$ = 8						; size = 4
_m12$ = 12						; size = 4
_m13$ = 16						; size = 4
_m21$ = 20						; size = 4
_m22$ = 24						; size = 4
_m23$ = 28						; size = 4
_m31$ = 32						; size = 4
_m32$ = 36						; size = 4
_m33$ = 40						; size = 4
??0Matrix3@@QAE@MMMMMMMMM@Z PROC			; Matrix3::Matrix3, COMDAT
; _this$ = ecx

; 43   : 	TT_INLINE explicit Matrix3(float m11,float m12,float m13,float m21,float m22,float m23,float m31,float m32,float m33)

	push	ebp
	mov	ebp, esp
	sub	esp, 68					; 00000044H
	push	ebx
	push	esi
	push	edi
	mov	DWORD PTR _this$[ebp], ecx
	push	OFFSET ??0Vector3@@QAE@XZ		; Vector3::Vector3
	push	3
	push	12					; 0000000cH
	mov	eax, DWORD PTR _this$[ebp]
	push	eax
	call	??_H@YGXPAXIHP6EPAX0@Z@Z

; 44   : 	{
; 45   : 		Row[0].Set(m11,m12,m13);

	push	ecx
	movss	xmm0, DWORD PTR _m13$[ebp]
	movss	DWORD PTR [esp], xmm0
	push	ecx
	movss	xmm0, DWORD PTR _m12$[ebp]
	movss	DWORD PTR [esp], xmm0
	push	ecx
	movss	xmm0, DWORD PTR _m11$[ebp]
	movss	DWORD PTR [esp], xmm0
	mov	ecx, 12					; 0000000cH
	imul	ecx, 0
	add	ecx, DWORD PTR _this$[ebp]
	call	?Set@Vector3@@QAEXMMM@Z			; Vector3::Set

; 46   : 		Row[1].Set(m21,m22,m23);

	push	ecx
	movss	xmm0, DWORD PTR _m23$[ebp]
	movss	DWORD PTR [esp], xmm0
	push	ecx
	movss	xmm0, DWORD PTR _m22$[ebp]
	movss	DWORD PTR [esp], xmm0
	push	ecx
	movss	xmm0, DWORD PTR _m21$[ebp]
	movss	DWORD PTR [esp], xmm0
	mov	ecx, 12					; 0000000cH
	shl	ecx, 0
	add	ecx, DWORD PTR _this$[ebp]
	call	?Set@Vector3@@QAEXMMM@Z			; Vector3::Set

; 47   : 		Row[2].Set(m31,m32,m33);

	push	ecx
	movss	xmm0, DWORD PTR _m33$[ebp]
	movss	DWORD PTR [esp], xmm0
	push	ecx
	movss	xmm0, DWORD PTR _m32$[ebp]
	movss	DWORD PTR [esp], xmm0
	push	ecx
	movss	xmm0, DWORD PTR _m31$[ebp]
	movss	DWORD PTR [esp], xmm0
	mov	ecx, 12					; 0000000cH
	shl	ecx, 1
	add	ecx, DWORD PTR _this$[ebp]
	call	?Set@Vector3@@QAEXMMM@Z			; Vector3::Set

; 48   : 	}

	mov	eax, DWORD PTR _this$[ebp]
	pop	edi
	pop	esi
	pop	ebx
	mov	esp, ebp
	pop	ebp
	ret	36					; 00000024H
??0Matrix3@@QAE@MMMMMMMMM@Z ENDP			; Matrix3::Matrix3
_TEXT	ENDS
; Function compile flags: /Odtp /ZI
; File x:\github\renegade\dragonade_rxd\scripts\matrix3.h
;	COMDAT ??0Matrix3@@QAE@ABVVector3@@00@Z
_TEXT	SEGMENT
_this$ = -4						; size = 4
_v0$ = 8						; size = 4
_v1$ = 12						; size = 4
_v2$ = 16						; size = 4
??0Matrix3@@QAE@ABVVector3@@00@Z PROC			; Matrix3::Matrix3, COMDAT
; _this$ = ecx

; 35   : 	TT_INLINE explicit Matrix3(const Vector3 & v0, const Vector3 & v1, const Vector3 & v2)

	push	ebp
	mov	ebp, esp
	sub	esp, 68					; 00000044H
	push	ebx
	push	esi
	push	edi
	mov	DWORD PTR _this$[ebp], ecx
	push	OFFSET ??0Vector3@@QAE@XZ		; Vector3::Vector3
	push	3
	push	12					; 0000000cH
	mov	eax, DWORD PTR _this$[ebp]
	push	eax
	call	??_H@YGXPAXIHP6EPAX0@Z@Z

; 36   : 	{ 
; 37   : 		Row[0] = v0; 

	mov	eax, DWORD PTR _v0$[ebp]
	push	eax
	mov	ecx, 12					; 0000000cH
	imul	ecx, 0
	add	ecx, DWORD PTR _this$[ebp]
	call	??4Vector3@@QAEAAV0@ABV0@@Z		; Vector3::operator=

; 38   : 		Row[1] = v1; 

	mov	eax, DWORD PTR _v1$[ebp]
	push	eax
	mov	ecx, 12					; 0000000cH
	shl	ecx, 0
	add	ecx, DWORD PTR _this$[ebp]
	call	??4Vector3@@QAEAAV0@ABV0@@Z		; Vector3::operator=

; 39   : 		Row[2] = v2; 

	mov	eax, DWORD PTR _v2$[ebp]
	push	eax
	mov	ecx, 12					; 0000000cH
	shl	ecx, 1
	add	ecx, DWORD PTR _this$[ebp]
	call	??4Vector3@@QAEAAV0@ABV0@@Z		; Vector3::operator=

; 40   : 	}

	mov	eax, DWORD PTR _this$[ebp]
	pop	edi
	pop	esi
	pop	ebx
	mov	esp, ebp
	pop	ebp
	ret	12					; 0000000cH
??0Matrix3@@QAE@ABVVector3@@00@Z ENDP			; Matrix3::Matrix3
_TEXT	ENDS
; Function compile flags: /Odtp /ZI
; File x:\github\renegade\dragonade_rxd\scripts\matrix3.h
;	COMDAT ??0Matrix3@@QAE@_N@Z
_TEXT	SEGMENT
_this$ = -4						; size = 4
_identity$ = 8						; size = 1
??0Matrix3@@QAE@_N@Z PROC				; Matrix3::Matrix3, COMDAT
; _this$ = ecx

; 26   : 	TT_INLINE explicit Matrix3(bool identity)

	push	ebp
	mov	ebp, esp
	sub	esp, 68					; 00000044H
	push	ebx
	push	esi
	push	edi
	mov	DWORD PTR _this$[ebp], ecx
	push	OFFSET ??0Vector3@@QAE@XZ		; Vector3::Vector3
	push	3
	push	12					; 0000000cH
	mov	eax, DWORD PTR _this$[ebp]
	push	eax
	call	??_H@YGXPAXIHP6EPAX0@Z@Z

; 27   : 	{
; 28   : 		if (identity)

	movzx	eax, BYTE PTR _identity$[ebp]
	test	eax, eax
	je	$LN1@Matrix3

; 29   : 		{
; 30   : 			Row[0].Set(1.0,0.0,0.0);

	push	ecx
	movss	xmm0, DWORD PTR __real@00000000
	movss	DWORD PTR [esp], xmm0
	push	ecx
	movss	xmm0, DWORD PTR __real@00000000
	movss	DWORD PTR [esp], xmm0
	push	ecx
	movss	xmm0, DWORD PTR __real@3f800000
	movss	DWORD PTR [esp], xmm0
	mov	ecx, 12					; 0000000cH
	imul	ecx, 0
	add	ecx, DWORD PTR _this$[ebp]
	call	?Set@Vector3@@QAEXMMM@Z			; Vector3::Set

; 31   : 			Row[1].Set(0.0,1.0,0.0);

	push	ecx
	movss	xmm0, DWORD PTR __real@00000000
	movss	DWORD PTR [esp], xmm0
	push	ecx
	movss	xmm0, DWORD PTR __real@3f800000
	movss	DWORD PTR [esp], xmm0
	push	ecx
	movss	xmm0, DWORD PTR __real@00000000
	movss	DWORD PTR [esp], xmm0
	mov	ecx, 12					; 0000000cH
	shl	ecx, 0
	add	ecx, DWORD PTR _this$[ebp]
	call	?Set@Vector3@@QAEXMMM@Z			; Vector3::Set

; 32   : 			Row[2].Set(0.0,0.0,1.0);

	push	ecx
	movss	xmm0, DWORD PTR __real@3f800000
	movss	DWORD PTR [esp], xmm0
	push	ecx
	movss	xmm0, DWORD PTR __real@00000000
	movss	DWORD PTR [esp], xmm0
	push	ecx
	movss	xmm0, DWORD PTR __real@00000000
	movss	DWORD PTR [esp], xmm0
	mov	ecx, 12					; 0000000cH
	shl	ecx, 1
	add	ecx, DWORD PTR _this$[ebp]
	call	?Set@Vector3@@QAEXMMM@Z			; Vector3::Set
$LN1@Matrix3:

; 33   : 		}
; 34   : 	}

	mov	eax, DWORD PTR _this$[ebp]
	pop	edi
	pop	esi
	pop	ebx
	mov	esp, ebp
	pop	ebp
	ret	4
??0Matrix3@@QAE@_N@Z ENDP				; Matrix3::Matrix3
_TEXT	ENDS
; Function compile flags: /Odtp /ZI
; File x:\github\renegade\dragonade_rxd\scripts\matrix3.h
;	COMDAT ??0Matrix3@@QAE@ABV0@@Z
_TEXT	SEGMENT
_this$ = -4						; size = 4
_m$ = 8							; size = 4
??0Matrix3@@QAE@ABV0@@Z PROC				; Matrix3::Matrix3, COMDAT
; _this$ = ecx

; 22   : 	TT_INLINE Matrix3(const Matrix3 & m)

	push	ebp
	mov	ebp, esp
	sub	esp, 68					; 00000044H
	push	ebx
	push	esi
	push	edi
	mov	DWORD PTR _this$[ebp], ecx
	push	OFFSET ??0Vector3@@QAE@XZ		; Vector3::Vector3
	push	3
	push	12					; 0000000cH
	mov	eax, DWORD PTR _this$[ebp]
	push	eax
	call	??_H@YGXPAXIHP6EPAX0@Z@Z

; 23   : 	{
; 24   : 		Row[0] = m.Row[0]; Row[1] = m.Row[1]; Row[2] = m.Row[2];

	mov	eax, 12					; 0000000cH
	imul	eax, 0
	add	eax, DWORD PTR _m$[ebp]
	push	eax
	mov	ecx, 12					; 0000000cH
	imul	ecx, 0
	add	ecx, DWORD PTR _this$[ebp]
	call	??4Vector3@@QAEAAV0@ABV0@@Z		; Vector3::operator=
	mov	eax, 12					; 0000000cH
	shl	eax, 0
	add	eax, DWORD PTR _m$[ebp]
	push	eax
	mov	ecx, 12					; 0000000cH
	shl	ecx, 0
	add	ecx, DWORD PTR _this$[ebp]
	call	??4Vector3@@QAEAAV0@ABV0@@Z		; Vector3::operator=
	mov	eax, 12					; 0000000cH
	shl	eax, 1
	add	eax, DWORD PTR _m$[ebp]
	push	eax
	mov	ecx, 12					; 0000000cH
	shl	ecx, 1
	add	ecx, DWORD PTR _this$[ebp]
	call	??4Vector3@@QAEAAV0@ABV0@@Z		; Vector3::operator=

; 25   : 	}

	mov	eax, DWORD PTR _this$[ebp]
	pop	edi
	pop	esi
	pop	ebx
	mov	esp, ebp
	pop	ebp
	ret	4
??0Matrix3@@QAE@ABV0@@Z ENDP				; Matrix3::Matrix3
_TEXT	ENDS
; Function compile flags: /Odtp /ZI
; File x:\github\renegade\dragonade_rxd\scripts\matrix3.h
;	COMDAT ??0Matrix3@@QAE@XZ
_TEXT	SEGMENT
_this$ = -4						; size = 4
??0Matrix3@@QAE@XZ PROC					; Matrix3::Matrix3, COMDAT
; _this$ = ecx

; 21   : 	TT_INLINE Matrix3(void) {};

	push	ebp
	mov	ebp, esp
	sub	esp, 68					; 00000044H
	push	ebx
	push	esi
	push	edi
	mov	DWORD PTR _this$[ebp], ecx
	push	OFFSET ??0Vector3@@QAE@XZ		; Vector3::Vector3
	push	3
	push	12					; 0000000cH
	mov	eax, DWORD PTR _this$[ebp]
	push	eax
	call	??_H@YGXPAXIHP6EPAX0@Z@Z
	mov	eax, DWORD PTR _this$[ebp]
	pop	edi
	pop	esi
	pop	ebx
	mov	esp, ebp
	pop	ebp
	ret	0
??0Matrix3@@QAE@XZ ENDP					; Matrix3::Matrix3
_TEXT	ENDS
; Function compile flags: /Odtp /ZI
; File x:\github\renegade\dragonade_rxd\scripts\matrix4.h
;	COMDAT ?Transform_Vector@Matrix4@@SAXABV1@ABVVector4@@PAV2@@Z
_TEXT	SEGMENT
tv342 = -96						; size = 4
tv336 = -96						; size = 4
tv330 = -96						; size = 4
tv324 = -96						; size = 4
tv340 = -92						; size = 4
tv334 = -92						; size = 4
tv328 = -92						; size = 4
tv322 = -92						; size = 4
tv338 = -88						; size = 4
tv332 = -88						; size = 4
tv326 = -88						; size = 4
tv320 = -88						; size = 4
_v$ = -20						; size = 4
_tmp$ = -16						; size = 16
_A$ = 8							; size = 4
_in$ = 12						; size = 4
_out$ = 16						; size = 4
?Transform_Vector@Matrix4@@SAXABV1@ABVVector4@@PAV2@@Z PROC ; Matrix4::Transform_Vector, COMDAT

; 227  : 	{

	push	ebp
	mov	ebp, esp
	sub	esp, 96					; 00000060H
	push	ebx
	push	esi
	push	edi

; 228  : 		Vector4 tmp;

	lea	ecx, DWORD PTR _tmp$[ebp]
	call	??0Vector4@@QAE@XZ			; Vector4::Vector4

; 229  : 		Vector4 * v;
; 230  : 		if (out == &in)

	mov	eax, DWORD PTR _out$[ebp]
	cmp	eax, DWORD PTR _in$[ebp]
	jne	SHORT $LN2@Transform_

; 231  : 		{
; 232  : 			tmp = in;

	mov	eax, DWORD PTR _in$[ebp]
	push	eax
	lea	ecx, DWORD PTR _tmp$[ebp]
	call	??4Vector4@@QAEAAV0@ABV0@@Z		; Vector4::operator=

; 233  : 			v = &tmp;

	lea	eax, DWORD PTR _tmp$[ebp]
	mov	DWORD PTR _v$[ebp], eax

; 234  : 		}
; 235  : 		else

	jmp	SHORT $LN1@Transform_
$LN2@Transform_:

; 236  : 		{
; 237  : 			v = (Vector4 *)&in;

	mov	eax, DWORD PTR _in$[ebp]
	mov	DWORD PTR _v$[ebp], eax
$LN1@Transform_:

; 238  : 		}
; 239  : 		out->X = (A[0][0] * v->X + A[0][1] * v->Y + A[0][2] * v->Z + A[0][3] * v->W);

	push	0
	push	0
	mov	ecx, DWORD PTR _A$[ebp]
	call	??AMatrix4@@QBEABVVector4@@H@Z		; Matrix4::operator[]
	mov	ecx, eax
	call	??AVector4@@QBEABMH@Z			; Vector4::operator[]
	mov	ecx, DWORD PTR _v$[ebp]
	movss	xmm0, DWORD PTR [eax]
	mulss	xmm0, DWORD PTR [ecx]
	push	1
	push	0
	mov	ecx, DWORD PTR _A$[ebp]
	movss	DWORD PTR tv320[ebp], xmm0
	call	??AMatrix4@@QBEABVVector4@@H@Z		; Matrix4::operator[]
	mov	ecx, eax
	call	??AVector4@@QBEABMH@Z			; Vector4::operator[]
	mov	edx, DWORD PTR _v$[ebp]
	movss	xmm0, DWORD PTR [eax]
	mulss	xmm0, DWORD PTR [edx+4]
	movss	xmm1, DWORD PTR tv320[ebp]
	addss	xmm1, xmm0
	push	2
	push	0
	mov	ecx, DWORD PTR _A$[ebp]
	movss	DWORD PTR tv322[ebp], xmm1
	call	??AMatrix4@@QBEABVVector4@@H@Z		; Matrix4::operator[]
	mov	ecx, eax
	call	??AVector4@@QBEABMH@Z			; Vector4::operator[]
	mov	ecx, DWORD PTR _v$[ebp]
	movss	xmm0, DWORD PTR [eax]
	mulss	xmm0, DWORD PTR [ecx+8]
	movss	xmm1, DWORD PTR tv322[ebp]
	addss	xmm1, xmm0
	push	3
	push	0
	mov	ecx, DWORD PTR _A$[ebp]
	movss	DWORD PTR tv324[ebp], xmm1
	call	??AMatrix4@@QBEABVVector4@@H@Z		; Matrix4::operator[]
	mov	ecx, eax
	call	??AVector4@@QBEABMH@Z			; Vector4::operator[]
	mov	edx, DWORD PTR _v$[ebp]
	movss	xmm0, DWORD PTR [eax]
	mulss	xmm0, DWORD PTR [edx+12]
	movss	xmm1, DWORD PTR tv324[ebp]
	addss	xmm1, xmm0
	mov	eax, DWORD PTR _out$[ebp]
	movss	DWORD PTR [eax], xmm1

; 240  : 		out->Y = (A[1][0] * v->X + A[1][1] * v->Y + A[1][2] * v->Z + A[1][3] * v->W);

	push	0
	push	1
	mov	ecx, DWORD PTR _A$[ebp]
	call	??AMatrix4@@QBEABVVector4@@H@Z		; Matrix4::operator[]
	mov	ecx, eax
	call	??AVector4@@QBEABMH@Z			; Vector4::operator[]
	mov	ecx, DWORD PTR _v$[ebp]
	movss	xmm0, DWORD PTR [eax]
	mulss	xmm0, DWORD PTR [ecx]
	push	1
	push	1
	mov	ecx, DWORD PTR _A$[ebp]
	movss	DWORD PTR tv326[ebp], xmm0
	call	??AMatrix4@@QBEABVVector4@@H@Z		; Matrix4::operator[]
	mov	ecx, eax
	call	??AVector4@@QBEABMH@Z			; Vector4::operator[]
	mov	edx, DWORD PTR _v$[ebp]
	movss	xmm0, DWORD PTR [eax]
	mulss	xmm0, DWORD PTR [edx+4]
	movss	xmm1, DWORD PTR tv326[ebp]
	addss	xmm1, xmm0
	push	2
	push	1
	mov	ecx, DWORD PTR _A$[ebp]
	movss	DWORD PTR tv328[ebp], xmm1
	call	??AMatrix4@@QBEABVVector4@@H@Z		; Matrix4::operator[]
	mov	ecx, eax
	call	??AVector4@@QBEABMH@Z			; Vector4::operator[]
	mov	ecx, DWORD PTR _v$[ebp]
	movss	xmm0, DWORD PTR [eax]
	mulss	xmm0, DWORD PTR [ecx+8]
	movss	xmm1, DWORD PTR tv328[ebp]
	addss	xmm1, xmm0
	push	3
	push	1
	mov	ecx, DWORD PTR _A$[ebp]
	movss	DWORD PTR tv330[ebp], xmm1
	call	??AMatrix4@@QBEABVVector4@@H@Z		; Matrix4::operator[]
	mov	ecx, eax
	call	??AVector4@@QBEABMH@Z			; Vector4::operator[]
	mov	edx, DWORD PTR _v$[ebp]
	movss	xmm0, DWORD PTR [eax]
	mulss	xmm0, DWORD PTR [edx+12]
	movss	xmm1, DWORD PTR tv330[ebp]
	addss	xmm1, xmm0
	mov	eax, DWORD PTR _out$[ebp]
	movss	DWORD PTR [eax+4], xmm1

; 241  : 		out->Z = (A[2][0] * v->X + A[2][1] * v->Y + A[2][2] * v->Z + A[2][3] * v->W);

	push	0
	push	2
	mov	ecx, DWORD PTR _A$[ebp]
	call	??AMatrix4@@QBEABVVector4@@H@Z		; Matrix4::operator[]
	mov	ecx, eax
	call	??AVector4@@QBEABMH@Z			; Vector4::operator[]
	mov	ecx, DWORD PTR _v$[ebp]
	movss	xmm0, DWORD PTR [eax]
	mulss	xmm0, DWORD PTR [ecx]
	push	1
	push	2
	mov	ecx, DWORD PTR _A$[ebp]
	movss	DWORD PTR tv332[ebp], xmm0
	call	??AMatrix4@@QBEABVVector4@@H@Z		; Matrix4::operator[]
	mov	ecx, eax
	call	??AVector4@@QBEABMH@Z			; Vector4::operator[]
	mov	edx, DWORD PTR _v$[ebp]
	movss	xmm0, DWORD PTR [eax]
	mulss	xmm0, DWORD PTR [edx+4]
	movss	xmm1, DWORD PTR tv332[ebp]
	addss	xmm1, xmm0
	push	2
	push	2
	mov	ecx, DWORD PTR _A$[ebp]
	movss	DWORD PTR tv334[ebp], xmm1
	call	??AMatrix4@@QBEABVVector4@@H@Z		; Matrix4::operator[]
	mov	ecx, eax
	call	??AVector4@@QBEABMH@Z			; Vector4::operator[]
	mov	ecx, DWORD PTR _v$[ebp]
	movss	xmm0, DWORD PTR [eax]
	mulss	xmm0, DWORD PTR [ecx+8]
	movss	xmm1, DWORD PTR tv334[ebp]
	addss	xmm1, xmm0
	push	3
	push	2
	mov	ecx, DWORD PTR _A$[ebp]
	movss	DWORD PTR tv336[ebp], xmm1
	call	??AMatrix4@@QBEABVVector4@@H@Z		; Matrix4::operator[]
	mov	ecx, eax
	call	??AVector4@@QBEABMH@Z			; Vector4::operator[]
	mov	edx, DWORD PTR _v$[ebp]
	movss	xmm0, DWORD PTR [eax]
	mulss	xmm0, DWORD PTR [edx+12]
	movss	xmm1, DWORD PTR tv336[ebp]
	addss	xmm1, xmm0
	mov	eax, DWORD PTR _out$[ebp]
	movss	DWORD PTR [eax+8], xmm1

; 242  : 		out->W = (A[3][0] * v->X + A[3][1] * v->Y + A[3][2] * v->Z + A[3][3] * v->W);

	push	0
	push	3
	mov	ecx, DWORD PTR _A$[ebp]
	call	??AMatrix4@@QBEABVVector4@@H@Z		; Matrix4::operator[]
	mov	ecx, eax
	call	??AVector4@@QBEABMH@Z			; Vector4::operator[]
	mov	ecx, DWORD PTR _v$[ebp]
	movss	xmm0, DWORD PTR [eax]
	mulss	xmm0, DWORD PTR [ecx]
	push	1
	push	3
	mov	ecx, DWORD PTR _A$[ebp]
	movss	DWORD PTR tv338[ebp], xmm0
	call	??AMatrix4@@QBEABVVector4@@H@Z		; Matrix4::operator[]
	mov	ecx, eax
	call	??AVector4@@QBEABMH@Z			; Vector4::operator[]
	mov	edx, DWORD PTR _v$[ebp]
	movss	xmm0, DWORD PTR [eax]
	mulss	xmm0, DWORD PTR [edx+4]
	movss	xmm1, DWORD PTR tv338[ebp]
	addss	xmm1, xmm0
	push	2
	push	3
	mov	ecx, DWORD PTR _A$[ebp]
	movss	DWORD PTR tv340[ebp], xmm1
	call	??AMatrix4@@QBEABVVector4@@H@Z		; Matrix4::operator[]
	mov	ecx, eax
	call	??AVector4@@QBEABMH@Z			; Vector4::operator[]
	mov	ecx, DWORD PTR _v$[ebp]
	movss	xmm0, DWORD PTR [eax]
	mulss	xmm0, DWORD PTR [ecx+8]
	movss	xmm1, DWORD PTR tv340[ebp]
	addss	xmm1, xmm0
	push	3
	push	3
	mov	ecx, DWORD PTR _A$[ebp]
	movss	DWORD PTR tv342[ebp], xmm1
	call	??AMatrix4@@QBEABVVector4@@H@Z		; Matrix4::operator[]
	mov	ecx, eax
	call	??AVector4@@QBEABMH@Z			; Vector4::operator[]
	mov	edx, DWORD PTR _v$[ebp]
	movss	xmm0, DWORD PTR [eax]
	mulss	xmm0, DWORD PTR [edx+12]
	movss	xmm1, DWORD PTR tv342[ebp]
	addss	xmm1, xmm0
	mov	eax, DWORD PTR _out$[ebp]
	movss	DWORD PTR [eax+12], xmm1

; 243  : 	}

	pop	edi
	pop	esi
	pop	ebx
	mov	esp, ebp
	pop	ebp
	ret	0
?Transform_Vector@Matrix4@@SAXABV1@ABVVector4@@PAV2@@Z ENDP ; Matrix4::Transform_Vector
_TEXT	ENDS
; Function compile flags: /Odtp /ZI
; File x:\github\renegade\dragonade_rxd\scripts\matrix4.h
;	COMDAT ?Transform_Vector@Matrix4@@SAXABV1@ABVVector3@@PAVVector4@@@Z
_TEXT	SEGMENT
tv265 = -76						; size = 4
tv259 = -76						; size = 4
tv253 = -76						; size = 4
tv263 = -72						; size = 4
tv257 = -72						; size = 4
tv251 = -72						; size = 4
tv261 = -68						; size = 4
tv255 = -68						; size = 4
tv249 = -68						; size = 4
_A$ = 8							; size = 4
_in$ = 12						; size = 4
_out$ = 16						; size = 4
?Transform_Vector@Matrix4@@SAXABV1@ABVVector3@@PAVVector4@@@Z PROC ; Matrix4::Transform_Vector, COMDAT

; 220  : 	{

	push	ebp
	mov	ebp, esp
	sub	esp, 76					; 0000004cH
	push	ebx
	push	esi
	push	edi

; 221  : 		out->X = (A[0][0] * in.X + A[0][1] * in.Y + A[0][2] * in.Z + A[0][3]);

	push	0
	push	0
	mov	ecx, DWORD PTR _A$[ebp]
	call	??AMatrix4@@QBEABVVector4@@H@Z		; Matrix4::operator[]
	mov	ecx, eax
	call	??AVector4@@QBEABMH@Z			; Vector4::operator[]
	mov	ecx, DWORD PTR _in$[ebp]
	movss	xmm0, DWORD PTR [eax]
	mulss	xmm0, DWORD PTR [ecx]
	push	1
	push	0
	mov	ecx, DWORD PTR _A$[ebp]
	movss	DWORD PTR tv249[ebp], xmm0
	call	??AMatrix4@@QBEABVVector4@@H@Z		; Matrix4::operator[]
	mov	ecx, eax
	call	??AVector4@@QBEABMH@Z			; Vector4::operator[]
	mov	edx, DWORD PTR _in$[ebp]
	movss	xmm0, DWORD PTR [eax]
	mulss	xmm0, DWORD PTR [edx+4]
	movss	xmm1, DWORD PTR tv249[ebp]
	addss	xmm1, xmm0
	push	2
	push	0
	mov	ecx, DWORD PTR _A$[ebp]
	movss	DWORD PTR tv251[ebp], xmm1
	call	??AMatrix4@@QBEABVVector4@@H@Z		; Matrix4::operator[]
	mov	ecx, eax
	call	??AVector4@@QBEABMH@Z			; Vector4::operator[]
	mov	ecx, DWORD PTR _in$[ebp]
	movss	xmm0, DWORD PTR [eax]
	mulss	xmm0, DWORD PTR [ecx+8]
	movss	xmm1, DWORD PTR tv251[ebp]
	addss	xmm1, xmm0
	push	3
	push	0
	mov	ecx, DWORD PTR _A$[ebp]
	movss	DWORD PTR tv253[ebp], xmm1
	call	??AMatrix4@@QBEABVVector4@@H@Z		; Matrix4::operator[]
	mov	ecx, eax
	call	??AVector4@@QBEABMH@Z			; Vector4::operator[]
	movss	xmm0, DWORD PTR tv253[ebp]
	addss	xmm0, DWORD PTR [eax]
	mov	edx, DWORD PTR _out$[ebp]
	movss	DWORD PTR [edx], xmm0

; 222  : 		out->Y = (A[1][0] * in.X + A[1][1] * in.Y + A[1][2] * in.Z + A[1][3]);

	push	0
	push	1
	mov	ecx, DWORD PTR _A$[ebp]
	call	??AMatrix4@@QBEABVVector4@@H@Z		; Matrix4::operator[]
	mov	ecx, eax
	call	??AVector4@@QBEABMH@Z			; Vector4::operator[]
	mov	ecx, DWORD PTR _in$[ebp]
	movss	xmm0, DWORD PTR [eax]
	mulss	xmm0, DWORD PTR [ecx]
	push	1
	push	1
	mov	ecx, DWORD PTR _A$[ebp]
	movss	DWORD PTR tv255[ebp], xmm0
	call	??AMatrix4@@QBEABVVector4@@H@Z		; Matrix4::operator[]
	mov	ecx, eax
	call	??AVector4@@QBEABMH@Z			; Vector4::operator[]
	mov	edx, DWORD PTR _in$[ebp]
	movss	xmm0, DWORD PTR [eax]
	mulss	xmm0, DWORD PTR [edx+4]
	movss	xmm1, DWORD PTR tv255[ebp]
	addss	xmm1, xmm0
	push	2
	push	1
	mov	ecx, DWORD PTR _A$[ebp]
	movss	DWORD PTR tv257[ebp], xmm1
	call	??AMatrix4@@QBEABVVector4@@H@Z		; Matrix4::operator[]
	mov	ecx, eax
	call	??AVector4@@QBEABMH@Z			; Vector4::operator[]
	mov	ecx, DWORD PTR _in$[ebp]
	movss	xmm0, DWORD PTR [eax]
	mulss	xmm0, DWORD PTR [ecx+8]
	movss	xmm1, DWORD PTR tv257[ebp]
	addss	xmm1, xmm0
	push	3
	push	1
	mov	ecx, DWORD PTR _A$[ebp]
	movss	DWORD PTR tv259[ebp], xmm1
	call	??AMatrix4@@QBEABVVector4@@H@Z		; Matrix4::operator[]
	mov	ecx, eax
	call	??AVector4@@QBEABMH@Z			; Vector4::operator[]
	movss	xmm0, DWORD PTR tv259[ebp]
	addss	xmm0, DWORD PTR [eax]
	mov	edx, DWORD PTR _out$[ebp]
	movss	DWORD PTR [edx+4], xmm0

; 223  : 		out->Z = (A[2][0] * in.X + A[2][1] * in.Y + A[2][2] * in.Z + A[2][3]);

	push	0
	push	2
	mov	ecx, DWORD PTR _A$[ebp]
	call	??AMatrix4@@QBEABVVector4@@H@Z		; Matrix4::operator[]
	mov	ecx, eax
	call	??AVector4@@QBEABMH@Z			; Vector4::operator[]
	mov	ecx, DWORD PTR _in$[ebp]
	movss	xmm0, DWORD PTR [eax]
	mulss	xmm0, DWORD PTR [ecx]
	push	1
	push	2
	mov	ecx, DWORD PTR _A$[ebp]
	movss	DWORD PTR tv261[ebp], xmm0
	call	??AMatrix4@@QBEABVVector4@@H@Z		; Matrix4::operator[]
	mov	ecx, eax
	call	??AVector4@@QBEABMH@Z			; Vector4::operator[]
	mov	edx, DWORD PTR _in$[ebp]
	movss	xmm0, DWORD PTR [eax]
	mulss	xmm0, DWORD PTR [edx+4]
	movss	xmm1, DWORD PTR tv261[ebp]
	addss	xmm1, xmm0
	push	2
	push	2
	mov	ecx, DWORD PTR _A$[ebp]
	movss	DWORD PTR tv263[ebp], xmm1
	call	??AMatrix4@@QBEABVVector4@@H@Z		; Matrix4::operator[]
	mov	ecx, eax
	call	??AVector4@@QBEABMH@Z			; Vector4::operator[]
	mov	ecx, DWORD PTR _in$[ebp]
	movss	xmm0, DWORD PTR [eax]
	mulss	xmm0, DWORD PTR [ecx+8]
	movss	xmm1, DWORD PTR tv263[ebp]
	addss	xmm1, xmm0
	push	3
	push	2
	mov	ecx, DWORD PTR _A$[ebp]
	movss	DWORD PTR tv265[ebp], xmm1
	call	??AMatrix4@@QBEABVVector4@@H@Z		; Matrix4::operator[]
	mov	ecx, eax
	call	??AVector4@@QBEABMH@Z			; Vector4::operator[]
	movss	xmm0, DWORD PTR tv265[ebp]
	addss	xmm0, DWORD PTR [eax]
	mov	edx, DWORD PTR _out$[ebp]
	movss	DWORD PTR [edx+8], xmm0

; 224  : 		out->W = 1.0f;

	mov	eax, DWORD PTR _out$[ebp]
	movss	xmm0, DWORD PTR __real@3f800000
	movss	DWORD PTR [eax+12], xmm0

; 225  : 	}

	pop	edi
	pop	esi
	pop	ebx
	mov	esp, ebp
	pop	ebp
	ret	0
?Transform_Vector@Matrix4@@SAXABV1@ABVVector3@@PAVVector4@@@Z ENDP ; Matrix4::Transform_Vector
_TEXT	ENDS
; Function compile flags: /Odtp /ZI
; File x:\github\renegade\dragonade_rxd\scripts\matrix4.h
;	COMDAT ?Transform_Vector@Matrix4@@SAXABV1@ABVVector3@@PAV2@@Z
_TEXT	SEGMENT
tv270 = -92						; size = 4
tv264 = -92						; size = 4
tv258 = -92						; size = 4
tv268 = -88						; size = 4
tv262 = -88						; size = 4
tv256 = -88						; size = 4
tv266 = -84						; size = 4
tv260 = -84						; size = 4
tv254 = -84						; size = 4
_v$ = -16						; size = 4
_tmp$ = -12						; size = 12
_A$ = 8							; size = 4
_in$ = 12						; size = 4
_out$ = 16						; size = 4
?Transform_Vector@Matrix4@@SAXABV1@ABVVector3@@PAV2@@Z PROC ; Matrix4::Transform_Vector, COMDAT

; 203  : 	{

	push	ebp
	mov	ebp, esp
	sub	esp, 92					; 0000005cH
	push	ebx
	push	esi
	push	edi

; 204  : 		Vector3 tmp;

	lea	ecx, DWORD PTR _tmp$[ebp]
	call	??0Vector3@@QAE@XZ			; Vector3::Vector3

; 205  : 		Vector3 *v;
; 206  : 		if (out == &in)

	mov	eax, DWORD PTR _out$[ebp]
	cmp	eax, DWORD PTR _in$[ebp]
	jne	SHORT $LN2@Transform_

; 207  : 		{
; 208  : 			tmp = in;

	mov	eax, DWORD PTR _in$[ebp]
	push	eax
	lea	ecx, DWORD PTR _tmp$[ebp]
	call	??4Vector3@@QAEAAV0@ABV0@@Z		; Vector3::operator=

; 209  : 			v = &tmp;

	lea	eax, DWORD PTR _tmp$[ebp]
	mov	DWORD PTR _v$[ebp], eax

; 210  : 		}
; 211  : 		else

	jmp	SHORT $LN1@Transform_
$LN2@Transform_:

; 212  : 		{
; 213  : 			v = (Vector3 *)&in;

	mov	eax, DWORD PTR _in$[ebp]
	mov	DWORD PTR _v$[ebp], eax
$LN1@Transform_:

; 214  : 		}
; 215  : 		out->X = (A[0][0] * v->X + A[0][1] * v->Y + A[0][2] * v->Z + A[0][3]);

	push	0
	push	0
	mov	ecx, DWORD PTR _A$[ebp]
	call	??AMatrix4@@QBEABVVector4@@H@Z		; Matrix4::operator[]
	mov	ecx, eax
	call	??AVector4@@QBEABMH@Z			; Vector4::operator[]
	mov	ecx, DWORD PTR _v$[ebp]
	movss	xmm0, DWORD PTR [eax]
	mulss	xmm0, DWORD PTR [ecx]
	push	1
	push	0
	mov	ecx, DWORD PTR _A$[ebp]
	movss	DWORD PTR tv254[ebp], xmm0
	call	??AMatrix4@@QBEABVVector4@@H@Z		; Matrix4::operator[]
	mov	ecx, eax
	call	??AVector4@@QBEABMH@Z			; Vector4::operator[]
	mov	edx, DWORD PTR _v$[ebp]
	movss	xmm0, DWORD PTR [eax]
	mulss	xmm0, DWORD PTR [edx+4]
	movss	xmm1, DWORD PTR tv254[ebp]
	addss	xmm1, xmm0
	push	2
	push	0
	mov	ecx, DWORD PTR _A$[ebp]
	movss	DWORD PTR tv256[ebp], xmm1
	call	??AMatrix4@@QBEABVVector4@@H@Z		; Matrix4::operator[]
	mov	ecx, eax
	call	??AVector4@@QBEABMH@Z			; Vector4::operator[]
	mov	ecx, DWORD PTR _v$[ebp]
	movss	xmm0, DWORD PTR [eax]
	mulss	xmm0, DWORD PTR [ecx+8]
	movss	xmm1, DWORD PTR tv256[ebp]
	addss	xmm1, xmm0
	push	3
	push	0
	mov	ecx, DWORD PTR _A$[ebp]
	movss	DWORD PTR tv258[ebp], xmm1
	call	??AMatrix4@@QBEABVVector4@@H@Z		; Matrix4::operator[]
	mov	ecx, eax
	call	??AVector4@@QBEABMH@Z			; Vector4::operator[]
	movss	xmm0, DWORD PTR tv258[ebp]
	addss	xmm0, DWORD PTR [eax]
	mov	edx, DWORD PTR _out$[ebp]
	movss	DWORD PTR [edx], xmm0

; 216  : 		out->Y = (A[1][0] * v->X + A[1][1] * v->Y + A[1][2] * v->Z + A[1][3]);

	push	0
	push	1
	mov	ecx, DWORD PTR _A$[ebp]
	call	??AMatrix4@@QBEABVVector4@@H@Z		; Matrix4::operator[]
	mov	ecx, eax
	call	??AVector4@@QBEABMH@Z			; Vector4::operator[]
	mov	ecx, DWORD PTR _v$[ebp]
	movss	xmm0, DWORD PTR [eax]
	mulss	xmm0, DWORD PTR [ecx]
	push	1
	push	1
	mov	ecx, DWORD PTR _A$[ebp]
	movss	DWORD PTR tv260[ebp], xmm0
	call	??AMatrix4@@QBEABVVector4@@H@Z		; Matrix4::operator[]
	mov	ecx, eax
	call	??AVector4@@QBEABMH@Z			; Vector4::operator[]
	mov	edx, DWORD PTR _v$[ebp]
	movss	xmm0, DWORD PTR [eax]
	mulss	xmm0, DWORD PTR [edx+4]
	movss	xmm1, DWORD PTR tv260[ebp]
	addss	xmm1, xmm0
	push	2
	push	1
	mov	ecx, DWORD PTR _A$[ebp]
	movss	DWORD PTR tv262[ebp], xmm1
	call	??AMatrix4@@QBEABVVector4@@H@Z		; Matrix4::operator[]
	mov	ecx, eax
	call	??AVector4@@QBEABMH@Z			; Vector4::operator[]
	mov	ecx, DWORD PTR _v$[ebp]
	movss	xmm0, DWORD PTR [eax]
	mulss	xmm0, DWORD PTR [ecx+8]
	movss	xmm1, DWORD PTR tv262[ebp]
	addss	xmm1, xmm0
	push	3
	push	1
	mov	ecx, DWORD PTR _A$[ebp]
	movss	DWORD PTR tv264[ebp], xmm1
	call	??AMatrix4@@QBEABVVector4@@H@Z		; Matrix4::operator[]
	mov	ecx, eax
	call	??AVector4@@QBEABMH@Z			; Vector4::operator[]
	movss	xmm0, DWORD PTR tv264[ebp]
	addss	xmm0, DWORD PTR [eax]
	mov	edx, DWORD PTR _out$[ebp]
	movss	DWORD PTR [edx+4], xmm0

; 217  : 		out->Z = (A[2][0] * v->X + A[2][1] * v->Y + A[2][2] * v->Z + A[2][3]);

	push	0
	push	2
	mov	ecx, DWORD PTR _A$[ebp]
	call	??AMatrix4@@QBEABVVector4@@H@Z		; Matrix4::operator[]
	mov	ecx, eax
	call	??AVector4@@QBEABMH@Z			; Vector4::operator[]
	mov	ecx, DWORD PTR _v$[ebp]
	movss	xmm0, DWORD PTR [eax]
	mulss	xmm0, DWORD PTR [ecx]
	push	1
	push	2
	mov	ecx, DWORD PTR _A$[ebp]
	movss	DWORD PTR tv266[ebp], xmm0
	call	??AMatrix4@@QBEABVVector4@@H@Z		; Matrix4::operator[]
	mov	ecx, eax
	call	??AVector4@@QBEABMH@Z			; Vector4::operator[]
	mov	edx, DWORD PTR _v$[ebp]
	movss	xmm0, DWORD PTR [eax]
	mulss	xmm0, DWORD PTR [edx+4]
	movss	xmm1, DWORD PTR tv266[ebp]
	addss	xmm1, xmm0
	push	2
	push	2
	mov	ecx, DWORD PTR _A$[ebp]
	movss	DWORD PTR tv268[ebp], xmm1
	call	??AMatrix4@@QBEABVVector4@@H@Z		; Matrix4::operator[]
	mov	ecx, eax
	call	??AVector4@@QBEABMH@Z			; Vector4::operator[]
	mov	ecx, DWORD PTR _v$[ebp]
	movss	xmm0, DWORD PTR [eax]
	mulss	xmm0, DWORD PTR [ecx+8]
	movss	xmm1, DWORD PTR tv268[ebp]
	addss	xmm1, xmm0
	push	3
	push	2
	mov	ecx, DWORD PTR _A$[ebp]
	movss	DWORD PTR tv270[ebp], xmm1
	call	??AMatrix4@@QBEABVVector4@@H@Z		; Matrix4::operator[]
	mov	ecx, eax
	call	??AVector4@@QBEABMH@Z			; Vector4::operator[]
	movss	xmm0, DWORD PTR tv270[ebp]
	addss	xmm0, DWORD PTR [eax]
	mov	edx, DWORD PTR _out$[ebp]
	movss	DWORD PTR [edx+8], xmm0

; 218  : 	}

	pop	edi
	pop	esi
	pop	ebx
	mov	esp, ebp
	pop	ebp
	ret	0
?Transform_Vector@Matrix4@@SAXABV1@ABVVector3@@PAV2@@Z ENDP ; Matrix4::Transform_Vector
_TEXT	ENDS
; Function compile flags: /Odtp /ZI
; File x:\github\renegade\dragonade_rxd\scripts\matrix4.h
;	COMDAT ??_0Matrix4@@QAEAAV0@M@Z
_TEXT	SEGMENT
_ood$ = -8						; size = 4
_this$ = -4						; size = 4
_d$ = 8							; size = 4
??_0Matrix4@@QAEAAV0@M@Z PROC				; Matrix4::operator/=, COMDAT
; _this$ = ecx

; 177  : 	{

	push	ebp
	mov	ebp, esp
	sub	esp, 72					; 00000048H
	push	ebx
	push	esi
	push	edi
	mov	DWORD PTR _this$[ebp], ecx

; 178  : 		float ood = d;

	movss	xmm0, DWORD PTR _d$[ebp]
	movss	DWORD PTR _ood$[ebp], xmm0

; 179  : 		Row[0] *= ood; Row[1] *= ood; Row[2] *= ood; Row[3] *= ood;

	push	ecx
	movss	xmm0, DWORD PTR _ood$[ebp]
	movss	DWORD PTR [esp], xmm0
	mov	ecx, 16					; 00000010H
	imul	ecx, 0
	add	ecx, DWORD PTR _this$[ebp]
	call	??XVector4@@QAEAAV0@M@Z			; Vector4::operator*=
	push	ecx
	movss	xmm0, DWORD PTR _ood$[ebp]
	movss	DWORD PTR [esp], xmm0
	mov	ecx, 16					; 00000010H
	shl	ecx, 0
	add	ecx, DWORD PTR _this$[ebp]
	call	??XVector4@@QAEAAV0@M@Z			; Vector4::operator*=
	push	ecx
	movss	xmm0, DWORD PTR _ood$[ebp]
	movss	DWORD PTR [esp], xmm0
	mov	ecx, 16					; 00000010H
	shl	ecx, 1
	add	ecx, DWORD PTR _this$[ebp]
	call	??XVector4@@QAEAAV0@M@Z			; Vector4::operator*=
	push	ecx
	movss	xmm0, DWORD PTR _ood$[ebp]
	movss	DWORD PTR [esp], xmm0
	mov	ecx, 16					; 00000010H
	imul	ecx, 3
	add	ecx, DWORD PTR _this$[ebp]
	call	??XVector4@@QAEAAV0@M@Z			; Vector4::operator*=

; 180  : 		return *this;

	mov	eax, DWORD PTR _this$[ebp]

; 181  : 	}

	pop	edi
	pop	esi
	pop	ebx
	mov	esp, ebp
	pop	ebp
	ret	4
??_0Matrix4@@QAEAAV0@M@Z ENDP				; Matrix4::operator/=
_TEXT	ENDS
; Function compile flags: /Odtp /ZI
; File x:\github\renegade\dragonade_rxd\scripts\matrix4.h
;	COMDAT ??XMatrix4@@QAEAAV0@M@Z
_TEXT	SEGMENT
_this$ = -4						; size = 4
_d$ = 8							; size = 4
??XMatrix4@@QAEAAV0@M@Z PROC				; Matrix4::operator*=, COMDAT
; _this$ = ecx

; 172  : 	{

	push	ebp
	mov	ebp, esp
	sub	esp, 68					; 00000044H
	push	ebx
	push	esi
	push	edi
	mov	DWORD PTR _this$[ebp], ecx

; 173  : 		Row[0] *= d; Row[1] *= d; Row[2] *= d; Row[3] *= d;

	push	ecx
	movss	xmm0, DWORD PTR _d$[ebp]
	movss	DWORD PTR [esp], xmm0
	mov	ecx, 16					; 00000010H
	imul	ecx, 0
	add	ecx, DWORD PTR _this$[ebp]
	call	??XVector4@@QAEAAV0@M@Z			; Vector4::operator*=
	push	ecx
	movss	xmm0, DWORD PTR _d$[ebp]
	movss	DWORD PTR [esp], xmm0
	mov	ecx, 16					; 00000010H
	shl	ecx, 0
	add	ecx, DWORD PTR _this$[ebp]
	call	??XVector4@@QAEAAV0@M@Z			; Vector4::operator*=
	push	ecx
	movss	xmm0, DWORD PTR _d$[ebp]
	movss	DWORD PTR [esp], xmm0
	mov	ecx, 16					; 00000010H
	shl	ecx, 1
	add	ecx, DWORD PTR _this$[ebp]
	call	??XVector4@@QAEAAV0@M@Z			; Vector4::operator*=
	push	ecx
	movss	xmm0, DWORD PTR _d$[ebp]
	movss	DWORD PTR [esp], xmm0
	mov	ecx, 16					; 00000010H
	imul	ecx, 3
	add	ecx, DWORD PTR _this$[ebp]
	call	??XVector4@@QAEAAV0@M@Z			; Vector4::operator*=

; 174  : 		return *this;

	mov	eax, DWORD PTR _this$[ebp]

; 175  : 	}

	pop	edi
	pop	esi
	pop	ebx
	mov	esp, ebp
	pop	ebp
	ret	4
??XMatrix4@@QAEAAV0@M@Z ENDP				; Matrix4::operator*=
_TEXT	ENDS
; Function compile flags: /Odtp /ZI
; File x:\github\renegade\dragonade_rxd\scripts\matrix4.h
;	COMDAT ??ZMatrix4@@QAEAAV0@ABV0@@Z
_TEXT	SEGMENT
_this$ = -4						; size = 4
_m$ = 8							; size = 4
??ZMatrix4@@QAEAAV0@ABV0@@Z PROC			; Matrix4::operator-=, COMDAT
; _this$ = ecx

; 167  : 	{

	push	ebp
	mov	ebp, esp
	sub	esp, 68					; 00000044H
	push	ebx
	push	esi
	push	edi
	mov	DWORD PTR _this$[ebp], ecx

; 168  : 		Row[0] -= m.Row[0]; Row[1] -= m.Row[1]; Row[2] -= m.Row[2]; Row[3] -= m.Row[3];

	mov	eax, 16					; 00000010H
	imul	eax, 0
	add	eax, DWORD PTR _m$[ebp]
	push	eax
	mov	ecx, 16					; 00000010H
	imul	ecx, 0
	add	ecx, DWORD PTR _this$[ebp]
	call	??ZVector4@@QAEAAV0@ABV0@@Z		; Vector4::operator-=
	mov	eax, 16					; 00000010H
	shl	eax, 0
	add	eax, DWORD PTR _m$[ebp]
	push	eax
	mov	ecx, 16					; 00000010H
	shl	ecx, 0
	add	ecx, DWORD PTR _this$[ebp]
	call	??ZVector4@@QAEAAV0@ABV0@@Z		; Vector4::operator-=
	mov	eax, 16					; 00000010H
	shl	eax, 1
	add	eax, DWORD PTR _m$[ebp]
	push	eax
	mov	ecx, 16					; 00000010H
	shl	ecx, 1
	add	ecx, DWORD PTR _this$[ebp]
	call	??ZVector4@@QAEAAV0@ABV0@@Z		; Vector4::operator-=
	mov	eax, 16					; 00000010H
	imul	eax, 3
	add	eax, DWORD PTR _m$[ebp]
	push	eax
	mov	ecx, 16					; 00000010H
	imul	ecx, 3
	add	ecx, DWORD PTR _this$[ebp]
	call	??ZVector4@@QAEAAV0@ABV0@@Z		; Vector4::operator-=

; 169  : 		return *this; 

	mov	eax, DWORD PTR _this$[ebp]

; 170  : 	}

	pop	edi
	pop	esi
	pop	ebx
	mov	esp, ebp
	pop	ebp
	ret	4
??ZMatrix4@@QAEAAV0@ABV0@@Z ENDP			; Matrix4::operator-=
_TEXT	ENDS
; Function compile flags: /Odtp /ZI
; File x:\github\renegade\dragonade_rxd\scripts\matrix4.h
;	COMDAT ??YMatrix4@@QAEAAV0@ABV0@@Z
_TEXT	SEGMENT
_this$ = -4						; size = 4
_m$ = 8							; size = 4
??YMatrix4@@QAEAAV0@ABV0@@Z PROC			; Matrix4::operator+=, COMDAT
; _this$ = ecx

; 162  : 	{

	push	ebp
	mov	ebp, esp
	sub	esp, 68					; 00000044H
	push	ebx
	push	esi
	push	edi
	mov	DWORD PTR _this$[ebp], ecx

; 163  : 		Row[0] += m.Row[0]; Row[1] += m.Row[1]; Row[2] += m.Row[2]; Row[3] += m.Row[3];

	mov	eax, 16					; 00000010H
	imul	eax, 0
	add	eax, DWORD PTR _m$[ebp]
	push	eax
	mov	ecx, 16					; 00000010H
	imul	ecx, 0
	add	ecx, DWORD PTR _this$[ebp]
	call	??YVector4@@QAEAAV0@ABV0@@Z		; Vector4::operator+=
	mov	eax, 16					; 00000010H
	shl	eax, 0
	add	eax, DWORD PTR _m$[ebp]
	push	eax
	mov	ecx, 16					; 00000010H
	shl	ecx, 0
	add	ecx, DWORD PTR _this$[ebp]
	call	??YVector4@@QAEAAV0@ABV0@@Z		; Vector4::operator+=
	mov	eax, 16					; 00000010H
	shl	eax, 1
	add	eax, DWORD PTR _m$[ebp]
	push	eax
	mov	ecx, 16					; 00000010H
	shl	ecx, 1
	add	ecx, DWORD PTR _this$[ebp]
	call	??YVector4@@QAEAAV0@ABV0@@Z		; Vector4::operator+=
	mov	eax, 16					; 00000010H
	imul	eax, 3
	add	eax, DWORD PTR _m$[ebp]
	push	eax
	mov	ecx, 16					; 00000010H
	imul	ecx, 3
	add	ecx, DWORD PTR _this$[ebp]
	call	??YVector4@@QAEAAV0@ABV0@@Z		; Vector4::operator+=

; 164  : 		return *this; 

	mov	eax, DWORD PTR _this$[ebp]

; 165  : 	}

	pop	edi
	pop	esi
	pop	ebx
	mov	esp, ebp
	pop	ebp
	ret	4
??YMatrix4@@QAEAAV0@ABV0@@Z ENDP			; Matrix4::operator+=
_TEXT	ENDS
; Function compile flags: /Odtp /ZI
; File x:\github\renegade\dragonade_rxd\scripts\matrix4.h
;	COMDAT ??4Matrix4@@QAEAAV0@ABV0@@Z
_TEXT	SEGMENT
_this$ = -4						; size = 4
_m$ = 8							; size = 4
??4Matrix4@@QAEAAV0@ABV0@@Z PROC			; Matrix4::operator=, COMDAT
; _this$ = ecx

; 157  : 	{

	push	ebp
	mov	ebp, esp
	sub	esp, 68					; 00000044H
	push	ebx
	push	esi
	push	edi
	mov	DWORD PTR _this$[ebp], ecx

; 158  : 		Row[0] = m.Row[0]; Row[1] = m.Row[1]; Row[2] = m.Row[2]; Row[3] = m.Row[3];

	mov	eax, 16					; 00000010H
	imul	eax, 0
	add	eax, DWORD PTR _m$[ebp]
	push	eax
	mov	ecx, 16					; 00000010H
	imul	ecx, 0
	add	ecx, DWORD PTR _this$[ebp]
	call	??4Vector4@@QAEAAV0@ABV0@@Z		; Vector4::operator=
	mov	eax, 16					; 00000010H
	shl	eax, 0
	add	eax, DWORD PTR _m$[ebp]
	push	eax
	mov	ecx, 16					; 00000010H
	shl	ecx, 0
	add	ecx, DWORD PTR _this$[ebp]
	call	??4Vector4@@QAEAAV0@ABV0@@Z		; Vector4::operator=
	mov	eax, 16					; 00000010H
	shl	eax, 1
	add	eax, DWORD PTR _m$[ebp]
	push	eax
	mov	ecx, 16					; 00000010H
	shl	ecx, 1
	add	ecx, DWORD PTR _this$[ebp]
	call	??4Vector4@@QAEAAV0@ABV0@@Z		; Vector4::operator=
	mov	eax, 16					; 00000010H
	imul	eax, 3
	add	eax, DWORD PTR _m$[ebp]
	push	eax
	mov	ecx, 16					; 00000010H
	imul	ecx, 3
	add	ecx, DWORD PTR _this$[ebp]
	call	??4Vector4@@QAEAAV0@ABV0@@Z		; Vector4::operator=

; 159  : 		return *this; 

	mov	eax, DWORD PTR _this$[ebp]

; 160  : 	}

	pop	edi
	pop	esi
	pop	ebx
	mov	esp, ebp
	pop	ebp
	ret	4
??4Matrix4@@QAEAAV0@ABV0@@Z ENDP			; Matrix4::operator=
_TEXT	ENDS
; Function compile flags: /Odtp /ZI
; File x:\github\renegade\dragonade_rxd\scripts\matrix4.h
;	COMDAT ?Inverse@Matrix4@@QBE?AV1@XZ
_TEXT	SEGMENT
_t$ = -72						; size = 64
_s$ = -8						; size = 4
_this$ = -4						; size = 4
___$ReturnUdt$ = 8					; size = 4
?Inverse@Matrix4@@QBE?AV1@XZ PROC			; Matrix4::Inverse, COMDAT
; _this$ = ecx

; 133  : 	{

	push	ebp
	mov	ebp, esp
	sub	esp, 136				; 00000088H
	push	ebx
	push	esi
	push	edi
	mov	DWORD PTR _this$[ebp], ecx

; 134  : 		float s = Determinant();

	mov	ecx, DWORD PTR _this$[ebp]
	call	?Determinant@Matrix4@@QBEMXZ		; Matrix4::Determinant
	fstp	DWORD PTR _s$[ebp]

; 135  : 		if (s == 0.0) return Matrix4();

	cvtss2sd xmm0, DWORD PTR _s$[ebp]
	ucomisd	xmm0, QWORD PTR __real@0000000000000000
	lahf
	test	ah, 68					; 00000044H
	jp	SHORT $LN1@Inverse
	mov	ecx, DWORD PTR ___$ReturnUdt$[ebp]
	call	??0Matrix4@@QAE@XZ			; Matrix4::Matrix4
	mov	eax, DWORD PTR ___$ReturnUdt$[ebp]
	jmp	$LN2@Inverse
$LN1@Inverse:

; 136  : 		s = 1/s;

	movss	xmm0, DWORD PTR __real@3f800000
	divss	xmm0, DWORD PTR _s$[ebp]
	movss	DWORD PTR _s$[ebp], xmm0

; 137  : 		Matrix4 t;

	lea	ecx, DWORD PTR _t$[ebp]
	call	??0Matrix4@@QAE@XZ			; Matrix4::Matrix4

; 138  : 		t.Row[0].X = s*(Row[1].Y*(Row[2].Z*Row[3].W - Row[2].W*Row[3].Z) + Row[1].Z*(Row[2].W*Row[3].Y - Row[2].Y*Row[3].W) + Row[1].W*(Row[2].Y*Row[3].Z - Row[2].Z*Row[3].Y));

	mov	eax, 16					; 00000010H
	shl	eax, 0
	mov	ecx, 16					; 00000010H
	shl	ecx, 1
	mov	edx, 16					; 00000010H
	imul	edx, 3
	mov	esi, DWORD PTR _this$[ebp]
	mov	edi, DWORD PTR _this$[ebp]
	movss	xmm0, DWORD PTR [esi+ecx+8]
	mulss	xmm0, DWORD PTR [edi+edx+12]
	mov	ecx, 16					; 00000010H
	shl	ecx, 1
	mov	edx, 16					; 00000010H
	imul	edx, 3
	mov	esi, DWORD PTR _this$[ebp]
	mov	edi, DWORD PTR _this$[ebp]
	movss	xmm1, DWORD PTR [esi+ecx+12]
	mulss	xmm1, DWORD PTR [edi+edx+8]
	subss	xmm0, xmm1
	mov	ecx, DWORD PTR _this$[ebp]
	mulss	xmm0, DWORD PTR [ecx+eax+4]
	mov	edx, 16					; 00000010H
	shl	edx, 0
	mov	eax, 16					; 00000010H
	shl	eax, 1
	mov	ecx, 16					; 00000010H
	imul	ecx, 3
	mov	esi, DWORD PTR _this$[ebp]
	mov	edi, DWORD PTR _this$[ebp]
	movss	xmm1, DWORD PTR [esi+eax+12]
	mulss	xmm1, DWORD PTR [edi+ecx+4]
	mov	eax, 16					; 00000010H
	shl	eax, 1
	mov	ecx, 16					; 00000010H
	imul	ecx, 3
	mov	esi, DWORD PTR _this$[ebp]
	mov	edi, DWORD PTR _this$[ebp]
	movss	xmm2, DWORD PTR [esi+eax+4]
	mulss	xmm2, DWORD PTR [edi+ecx+12]
	subss	xmm1, xmm2
	mov	eax, DWORD PTR _this$[ebp]
	mulss	xmm1, DWORD PTR [eax+edx+8]
	addss	xmm0, xmm1
	mov	ecx, 16					; 00000010H
	shl	ecx, 0
	mov	edx, 16					; 00000010H
	shl	edx, 1
	mov	eax, 16					; 00000010H
	imul	eax, 3
	mov	esi, DWORD PTR _this$[ebp]
	mov	edi, DWORD PTR _this$[ebp]
	movss	xmm1, DWORD PTR [esi+edx+4]
	mulss	xmm1, DWORD PTR [edi+eax+8]
	mov	edx, 16					; 00000010H
	shl	edx, 1
	mov	eax, 16					; 00000010H
	imul	eax, 3
	mov	esi, DWORD PTR _this$[ebp]
	mov	edi, DWORD PTR _this$[ebp]
	movss	xmm2, DWORD PTR [esi+edx+8]
	mulss	xmm2, DWORD PTR [edi+eax+4]
	subss	xmm1, xmm2
	mov	edx, DWORD PTR _this$[ebp]
	mulss	xmm1, DWORD PTR [edx+ecx+12]
	addss	xmm0, xmm1
	mulss	xmm0, DWORD PTR _s$[ebp]
	mov	eax, 16					; 00000010H
	imul	eax, 0
	movss	DWORD PTR _t$[ebp+eax], xmm0

; 139  : 		t.Row[0].Y = s*(Row[2].Y*(Row[0].Z*Row[3].W - Row[0].W*Row[3].Z) + Row[2].Z*(Row[0].W*Row[3].Y - Row[0].Y*Row[3].W) + Row[2].W*(Row[0].Y*Row[3].Z - Row[0].Z*Row[3].Y));

	mov	eax, 16					; 00000010H
	shl	eax, 1
	mov	ecx, 16					; 00000010H
	imul	ecx, 0
	mov	edx, 16					; 00000010H
	imul	edx, 3
	mov	esi, DWORD PTR _this$[ebp]
	mov	edi, DWORD PTR _this$[ebp]
	movss	xmm0, DWORD PTR [esi+ecx+8]
	mulss	xmm0, DWORD PTR [edi+edx+12]
	mov	ecx, 16					; 00000010H
	imul	ecx, 0
	mov	edx, 16					; 00000010H
	imul	edx, 3
	mov	esi, DWORD PTR _this$[ebp]
	mov	edi, DWORD PTR _this$[ebp]
	movss	xmm1, DWORD PTR [esi+ecx+12]
	mulss	xmm1, DWORD PTR [edi+edx+8]
	subss	xmm0, xmm1
	mov	ecx, DWORD PTR _this$[ebp]
	mulss	xmm0, DWORD PTR [ecx+eax+4]
	mov	edx, 16					; 00000010H
	shl	edx, 1
	mov	eax, 16					; 00000010H
	imul	eax, 0
	mov	ecx, 16					; 00000010H
	imul	ecx, 3
	mov	esi, DWORD PTR _this$[ebp]
	mov	edi, DWORD PTR _this$[ebp]
	movss	xmm1, DWORD PTR [esi+eax+12]
	mulss	xmm1, DWORD PTR [edi+ecx+4]
	mov	eax, 16					; 00000010H
	imul	eax, 0
	mov	ecx, 16					; 00000010H
	imul	ecx, 3
	mov	esi, DWORD PTR _this$[ebp]
	mov	edi, DWORD PTR _this$[ebp]
	movss	xmm2, DWORD PTR [esi+eax+4]
	mulss	xmm2, DWORD PTR [edi+ecx+12]
	subss	xmm1, xmm2
	mov	eax, DWORD PTR _this$[ebp]
	mulss	xmm1, DWORD PTR [eax+edx+8]
	addss	xmm0, xmm1
	mov	ecx, 16					; 00000010H
	shl	ecx, 1
	mov	edx, 16					; 00000010H
	imul	edx, 0
	mov	eax, 16					; 00000010H
	imul	eax, 3
	mov	esi, DWORD PTR _this$[ebp]
	mov	edi, DWORD PTR _this$[ebp]
	movss	xmm1, DWORD PTR [esi+edx+4]
	mulss	xmm1, DWORD PTR [edi+eax+8]
	mov	edx, 16					; 00000010H
	imul	edx, 0
	mov	eax, 16					; 00000010H
	imul	eax, 3
	mov	esi, DWORD PTR _this$[ebp]
	mov	edi, DWORD PTR _this$[ebp]
	movss	xmm2, DWORD PTR [esi+edx+8]
	mulss	xmm2, DWORD PTR [edi+eax+4]
	subss	xmm1, xmm2
	mov	edx, DWORD PTR _this$[ebp]
	mulss	xmm1, DWORD PTR [edx+ecx+12]
	addss	xmm0, xmm1
	mulss	xmm0, DWORD PTR _s$[ebp]
	mov	eax, 16					; 00000010H
	imul	eax, 0
	movss	DWORD PTR _t$[ebp+eax+4], xmm0

; 140  : 		t.Row[0].Z = s*(Row[3].Y*(Row[0].Z*Row[1].W - Row[0].W*Row[1].Z) + Row[3].Z*(Row[0].W*Row[1].Y - Row[0].Y*Row[1].W) + Row[3].W*(Row[0].Y*Row[1].Z - Row[0].Z*Row[1].Y));

	mov	eax, 16					; 00000010H
	imul	eax, 3
	mov	ecx, 16					; 00000010H
	imul	ecx, 0
	mov	edx, 16					; 00000010H
	shl	edx, 0
	mov	esi, DWORD PTR _this$[ebp]
	mov	edi, DWORD PTR _this$[ebp]
	movss	xmm0, DWORD PTR [esi+ecx+8]
	mulss	xmm0, DWORD PTR [edi+edx+12]
	mov	ecx, 16					; 00000010H
	imul	ecx, 0
	mov	edx, 16					; 00000010H
	shl	edx, 0
	mov	esi, DWORD PTR _this$[ebp]
	mov	edi, DWORD PTR _this$[ebp]
	movss	xmm1, DWORD PTR [esi+ecx+12]
	mulss	xmm1, DWORD PTR [edi+edx+8]
	subss	xmm0, xmm1
	mov	ecx, DWORD PTR _this$[ebp]
	mulss	xmm0, DWORD PTR [ecx+eax+4]
	mov	edx, 16					; 00000010H
	imul	edx, 3
	mov	eax, 16					; 00000010H
	imul	eax, 0
	mov	ecx, 16					; 00000010H
	shl	ecx, 0
	mov	esi, DWORD PTR _this$[ebp]
	mov	edi, DWORD PTR _this$[ebp]
	movss	xmm1, DWORD PTR [esi+eax+12]
	mulss	xmm1, DWORD PTR [edi+ecx+4]
	mov	eax, 16					; 00000010H
	imul	eax, 0
	mov	ecx, 16					; 00000010H
	shl	ecx, 0
	mov	esi, DWORD PTR _this$[ebp]
	mov	edi, DWORD PTR _this$[ebp]
	movss	xmm2, DWORD PTR [esi+eax+4]
	mulss	xmm2, DWORD PTR [edi+ecx+12]
	subss	xmm1, xmm2
	mov	eax, DWORD PTR _this$[ebp]
	mulss	xmm1, DWORD PTR [eax+edx+8]
	addss	xmm0, xmm1
	mov	ecx, 16					; 00000010H
	imul	ecx, 3
	mov	edx, 16					; 00000010H
	imul	edx, 0
	mov	eax, 16					; 00000010H
	shl	eax, 0
	mov	esi, DWORD PTR _this$[ebp]
	mov	edi, DWORD PTR _this$[ebp]
	movss	xmm1, DWORD PTR [esi+edx+4]
	mulss	xmm1, DWORD PTR [edi+eax+8]
	mov	edx, 16					; 00000010H
	imul	edx, 0
	mov	eax, 16					; 00000010H
	shl	eax, 0
	mov	esi, DWORD PTR _this$[ebp]
	mov	edi, DWORD PTR _this$[ebp]
	movss	xmm2, DWORD PTR [esi+edx+8]
	mulss	xmm2, DWORD PTR [edi+eax+4]
	subss	xmm1, xmm2
	mov	edx, DWORD PTR _this$[ebp]
	mulss	xmm1, DWORD PTR [edx+ecx+12]
	addss	xmm0, xmm1
	mulss	xmm0, DWORD PTR _s$[ebp]
	mov	eax, 16					; 00000010H
	imul	eax, 0
	movss	DWORD PTR _t$[ebp+eax+8], xmm0

; 141  : 		t.Row[0].W = s*(Row[0].Y*(Row[1].W*Row[2].Z - Row[1].Z*Row[2].W) + Row[0].Z*(Row[1].Y*Row[2].W - Row[1].W*Row[2].Y) + Row[0].W*(Row[1].Z*Row[2].Y - Row[1].Y*Row[2].Z));

	mov	eax, 16					; 00000010H
	imul	eax, 0
	mov	ecx, 16					; 00000010H
	shl	ecx, 0
	mov	edx, 16					; 00000010H
	shl	edx, 1
	mov	esi, DWORD PTR _this$[ebp]
	mov	edi, DWORD PTR _this$[ebp]
	movss	xmm0, DWORD PTR [esi+ecx+12]
	mulss	xmm0, DWORD PTR [edi+edx+8]
	mov	ecx, 16					; 00000010H
	shl	ecx, 0
	mov	edx, 16					; 00000010H
	shl	edx, 1
	mov	esi, DWORD PTR _this$[ebp]
	mov	edi, DWORD PTR _this$[ebp]
	movss	xmm1, DWORD PTR [esi+ecx+8]
	mulss	xmm1, DWORD PTR [edi+edx+12]
	subss	xmm0, xmm1
	mov	ecx, DWORD PTR _this$[ebp]
	mulss	xmm0, DWORD PTR [ecx+eax+4]
	mov	edx, 16					; 00000010H
	imul	edx, 0
	mov	eax, 16					; 00000010H
	shl	eax, 0
	mov	ecx, 16					; 00000010H
	shl	ecx, 1
	mov	esi, DWORD PTR _this$[ebp]
	mov	edi, DWORD PTR _this$[ebp]
	movss	xmm1, DWORD PTR [esi+eax+4]
	mulss	xmm1, DWORD PTR [edi+ecx+12]
	mov	eax, 16					; 00000010H
	shl	eax, 0
	mov	ecx, 16					; 00000010H
	shl	ecx, 1
	mov	esi, DWORD PTR _this$[ebp]
	mov	edi, DWORD PTR _this$[ebp]
	movss	xmm2, DWORD PTR [esi+eax+12]
	mulss	xmm2, DWORD PTR [edi+ecx+4]
	subss	xmm1, xmm2
	mov	eax, DWORD PTR _this$[ebp]
	mulss	xmm1, DWORD PTR [eax+edx+8]
	addss	xmm0, xmm1
	mov	ecx, 16					; 00000010H
	imul	ecx, 0
	mov	edx, 16					; 00000010H
	shl	edx, 0
	mov	eax, 16					; 00000010H
	shl	eax, 1
	mov	esi, DWORD PTR _this$[ebp]
	mov	edi, DWORD PTR _this$[ebp]
	movss	xmm1, DWORD PTR [esi+edx+8]
	mulss	xmm1, DWORD PTR [edi+eax+4]
	mov	edx, 16					; 00000010H
	shl	edx, 0
	mov	eax, 16					; 00000010H
	shl	eax, 1
	mov	esi, DWORD PTR _this$[ebp]
	mov	edi, DWORD PTR _this$[ebp]
	movss	xmm2, DWORD PTR [esi+edx+4]
	mulss	xmm2, DWORD PTR [edi+eax+8]
	subss	xmm1, xmm2
	mov	edx, DWORD PTR _this$[ebp]
	mulss	xmm1, DWORD PTR [edx+ecx+12]
	addss	xmm0, xmm1
	mulss	xmm0, DWORD PTR _s$[ebp]
	mov	eax, 16					; 00000010H
	imul	eax, 0
	movss	DWORD PTR _t$[ebp+eax+12], xmm0

; 142  : 		t.Row[1].X = s*(Row[1].Z*(Row[2].X*Row[3].W - Row[2].W*Row[3].X) + Row[1].W*(Row[2].Z*Row[3].X - Row[2].X*Row[3].Z) + Row[1].X*(Row[2].W*Row[3].Z - Row[2].Z*Row[3].W));

	mov	eax, 16					; 00000010H
	shl	eax, 0
	mov	ecx, 16					; 00000010H
	shl	ecx, 1
	mov	edx, 16					; 00000010H
	imul	edx, 3
	mov	esi, DWORD PTR _this$[ebp]
	mov	edi, DWORD PTR _this$[ebp]
	movss	xmm0, DWORD PTR [esi+ecx]
	mulss	xmm0, DWORD PTR [edi+edx+12]
	mov	ecx, 16					; 00000010H
	shl	ecx, 1
	mov	edx, 16					; 00000010H
	imul	edx, 3
	mov	esi, DWORD PTR _this$[ebp]
	mov	edi, DWORD PTR _this$[ebp]
	movss	xmm1, DWORD PTR [esi+ecx+12]
	mulss	xmm1, DWORD PTR [edi+edx]
	subss	xmm0, xmm1
	mov	ecx, DWORD PTR _this$[ebp]
	mulss	xmm0, DWORD PTR [ecx+eax+8]
	mov	edx, 16					; 00000010H
	shl	edx, 0
	mov	eax, 16					; 00000010H
	shl	eax, 1
	mov	ecx, 16					; 00000010H
	imul	ecx, 3
	mov	esi, DWORD PTR _this$[ebp]
	mov	edi, DWORD PTR _this$[ebp]
	movss	xmm1, DWORD PTR [esi+eax+8]
	mulss	xmm1, DWORD PTR [edi+ecx]
	mov	eax, 16					; 00000010H
	shl	eax, 1
	mov	ecx, 16					; 00000010H
	imul	ecx, 3
	mov	esi, DWORD PTR _this$[ebp]
	mov	edi, DWORD PTR _this$[ebp]
	movss	xmm2, DWORD PTR [esi+eax]
	mulss	xmm2, DWORD PTR [edi+ecx+8]
	subss	xmm1, xmm2
	mov	eax, DWORD PTR _this$[ebp]
	mulss	xmm1, DWORD PTR [eax+edx+12]
	addss	xmm0, xmm1
	mov	ecx, 16					; 00000010H
	shl	ecx, 0
	mov	edx, 16					; 00000010H
	shl	edx, 1
	mov	eax, 16					; 00000010H
	imul	eax, 3
	mov	esi, DWORD PTR _this$[ebp]
	mov	edi, DWORD PTR _this$[ebp]
	movss	xmm1, DWORD PTR [esi+edx+12]
	mulss	xmm1, DWORD PTR [edi+eax+8]
	mov	edx, 16					; 00000010H
	shl	edx, 1
	mov	eax, 16					; 00000010H
	imul	eax, 3
	mov	esi, DWORD PTR _this$[ebp]
	mov	edi, DWORD PTR _this$[ebp]
	movss	xmm2, DWORD PTR [esi+edx+8]
	mulss	xmm2, DWORD PTR [edi+eax+12]
	subss	xmm1, xmm2
	mov	edx, DWORD PTR _this$[ebp]
	mulss	xmm1, DWORD PTR [edx+ecx]
	addss	xmm0, xmm1
	mulss	xmm0, DWORD PTR _s$[ebp]
	mov	eax, 16					; 00000010H
	shl	eax, 0
	movss	DWORD PTR _t$[ebp+eax], xmm0

; 143  : 		t.Row[1].Y = s*(Row[2].Z*(Row[0].X*Row[3].W - Row[0].W*Row[3].X) + Row[2].W*(Row[0].Z*Row[3].X - Row[0].X*Row[3].Z) + Row[2].X*(Row[0].W*Row[3].Z - Row[0].Z*Row[3].W));

	mov	eax, 16					; 00000010H
	shl	eax, 1
	mov	ecx, 16					; 00000010H
	imul	ecx, 0
	mov	edx, 16					; 00000010H
	imul	edx, 3
	mov	esi, DWORD PTR _this$[ebp]
	mov	edi, DWORD PTR _this$[ebp]
	movss	xmm0, DWORD PTR [esi+ecx]
	mulss	xmm0, DWORD PTR [edi+edx+12]
	mov	ecx, 16					; 00000010H
	imul	ecx, 0
	mov	edx, 16					; 00000010H
	imul	edx, 3
	mov	esi, DWORD PTR _this$[ebp]
	mov	edi, DWORD PTR _this$[ebp]
	movss	xmm1, DWORD PTR [esi+ecx+12]
	mulss	xmm1, DWORD PTR [edi+edx]
	subss	xmm0, xmm1
	mov	ecx, DWORD PTR _this$[ebp]
	mulss	xmm0, DWORD PTR [ecx+eax+8]
	mov	edx, 16					; 00000010H
	shl	edx, 1
	mov	eax, 16					; 00000010H
	imul	eax, 0
	mov	ecx, 16					; 00000010H
	imul	ecx, 3
	mov	esi, DWORD PTR _this$[ebp]
	mov	edi, DWORD PTR _this$[ebp]
	movss	xmm1, DWORD PTR [esi+eax+8]
	mulss	xmm1, DWORD PTR [edi+ecx]
	mov	eax, 16					; 00000010H
	imul	eax, 0
	mov	ecx, 16					; 00000010H
	imul	ecx, 3
	mov	esi, DWORD PTR _this$[ebp]
	mov	edi, DWORD PTR _this$[ebp]
	movss	xmm2, DWORD PTR [esi+eax]
	mulss	xmm2, DWORD PTR [edi+ecx+8]
	subss	xmm1, xmm2
	mov	eax, DWORD PTR _this$[ebp]
	mulss	xmm1, DWORD PTR [eax+edx+12]
	addss	xmm0, xmm1
	mov	ecx, 16					; 00000010H
	shl	ecx, 1
	mov	edx, 16					; 00000010H
	imul	edx, 0
	mov	eax, 16					; 00000010H
	imul	eax, 3
	mov	esi, DWORD PTR _this$[ebp]
	mov	edi, DWORD PTR _this$[ebp]
	movss	xmm1, DWORD PTR [esi+edx+12]
	mulss	xmm1, DWORD PTR [edi+eax+8]
	mov	edx, 16					; 00000010H
	imul	edx, 0
	mov	eax, 16					; 00000010H
	imul	eax, 3
	mov	esi, DWORD PTR _this$[ebp]
	mov	edi, DWORD PTR _this$[ebp]
	movss	xmm2, DWORD PTR [esi+edx+8]
	mulss	xmm2, DWORD PTR [edi+eax+12]
	subss	xmm1, xmm2
	mov	edx, DWORD PTR _this$[ebp]
	mulss	xmm1, DWORD PTR [edx+ecx]
	addss	xmm0, xmm1
	mulss	xmm0, DWORD PTR _s$[ebp]
	mov	eax, 16					; 00000010H
	shl	eax, 0
	movss	DWORD PTR _t$[ebp+eax+4], xmm0

; 144  : 		t.Row[1].Z = s*(Row[3].Z*(Row[0].X*Row[1].W - Row[0].W*Row[1].X) + Row[3].W*(Row[0].Z*Row[1].X - Row[0].X*Row[1].Z) + Row[3].X*(Row[0].W*Row[1].Z - Row[0].Z*Row[1].W));

	mov	eax, 16					; 00000010H
	imul	eax, 3
	mov	ecx, 16					; 00000010H
	imul	ecx, 0
	mov	edx, 16					; 00000010H
	shl	edx, 0
	mov	esi, DWORD PTR _this$[ebp]
	mov	edi, DWORD PTR _this$[ebp]
	movss	xmm0, DWORD PTR [esi+ecx]
	mulss	xmm0, DWORD PTR [edi+edx+12]
	mov	ecx, 16					; 00000010H
	imul	ecx, 0
	mov	edx, 16					; 00000010H
	shl	edx, 0
	mov	esi, DWORD PTR _this$[ebp]
	mov	edi, DWORD PTR _this$[ebp]
	movss	xmm1, DWORD PTR [esi+ecx+12]
	mulss	xmm1, DWORD PTR [edi+edx]
	subss	xmm0, xmm1
	mov	ecx, DWORD PTR _this$[ebp]
	mulss	xmm0, DWORD PTR [ecx+eax+8]
	mov	edx, 16					; 00000010H
	imul	edx, 3
	mov	eax, 16					; 00000010H
	imul	eax, 0
	mov	ecx, 16					; 00000010H
	shl	ecx, 0
	mov	esi, DWORD PTR _this$[ebp]
	mov	edi, DWORD PTR _this$[ebp]
	movss	xmm1, DWORD PTR [esi+eax+8]
	mulss	xmm1, DWORD PTR [edi+ecx]
	mov	eax, 16					; 00000010H
	imul	eax, 0
	mov	ecx, 16					; 00000010H
	shl	ecx, 0
	mov	esi, DWORD PTR _this$[ebp]
	mov	edi, DWORD PTR _this$[ebp]
	movss	xmm2, DWORD PTR [esi+eax]
	mulss	xmm2, DWORD PTR [edi+ecx+8]
	subss	xmm1, xmm2
	mov	eax, DWORD PTR _this$[ebp]
	mulss	xmm1, DWORD PTR [eax+edx+12]
	addss	xmm0, xmm1
	mov	ecx, 16					; 00000010H
	imul	ecx, 3
	mov	edx, 16					; 00000010H
	imul	edx, 0
	mov	eax, 16					; 00000010H
	shl	eax, 0
	mov	esi, DWORD PTR _this$[ebp]
	mov	edi, DWORD PTR _this$[ebp]
	movss	xmm1, DWORD PTR [esi+edx+12]
	mulss	xmm1, DWORD PTR [edi+eax+8]
	mov	edx, 16					; 00000010H
	imul	edx, 0
	mov	eax, 16					; 00000010H
	shl	eax, 0
	mov	esi, DWORD PTR _this$[ebp]
	mov	edi, DWORD PTR _this$[ebp]
	movss	xmm2, DWORD PTR [esi+edx+8]
	mulss	xmm2, DWORD PTR [edi+eax+12]
	subss	xmm1, xmm2
	mov	edx, DWORD PTR _this$[ebp]
	mulss	xmm1, DWORD PTR [edx+ecx]
	addss	xmm0, xmm1
	mulss	xmm0, DWORD PTR _s$[ebp]
	mov	eax, 16					; 00000010H
	shl	eax, 0
	movss	DWORD PTR _t$[ebp+eax+8], xmm0

; 145  : 		t.Row[1].W = s*(Row[0].Z*(Row[1].W*Row[2].X - Row[1].X*Row[2].W) + Row[0].W*(Row[1].X*Row[2].Z - Row[1].Z*Row[2].X) + Row[0].X*(Row[1].Z*Row[2].W - Row[1].W*Row[2].Z));

	mov	eax, 16					; 00000010H
	imul	eax, 0
	mov	ecx, 16					; 00000010H
	shl	ecx, 0
	mov	edx, 16					; 00000010H
	shl	edx, 1
	mov	esi, DWORD PTR _this$[ebp]
	mov	edi, DWORD PTR _this$[ebp]
	movss	xmm0, DWORD PTR [esi+ecx+12]
	mulss	xmm0, DWORD PTR [edi+edx]
	mov	ecx, 16					; 00000010H
	shl	ecx, 0
	mov	edx, 16					; 00000010H
	shl	edx, 1
	mov	esi, DWORD PTR _this$[ebp]
	mov	edi, DWORD PTR _this$[ebp]
	movss	xmm1, DWORD PTR [esi+ecx]
	mulss	xmm1, DWORD PTR [edi+edx+12]
	subss	xmm0, xmm1
	mov	ecx, DWORD PTR _this$[ebp]
	mulss	xmm0, DWORD PTR [ecx+eax+8]
	mov	edx, 16					; 00000010H
	imul	edx, 0
	mov	eax, 16					; 00000010H
	shl	eax, 0
	mov	ecx, 16					; 00000010H
	shl	ecx, 1
	mov	esi, DWORD PTR _this$[ebp]
	mov	edi, DWORD PTR _this$[ebp]
	movss	xmm1, DWORD PTR [esi+eax]
	mulss	xmm1, DWORD PTR [edi+ecx+8]
	mov	eax, 16					; 00000010H
	shl	eax, 0
	mov	ecx, 16					; 00000010H
	shl	ecx, 1
	mov	esi, DWORD PTR _this$[ebp]
	mov	edi, DWORD PTR _this$[ebp]
	movss	xmm2, DWORD PTR [esi+eax+8]
	mulss	xmm2, DWORD PTR [edi+ecx]
	subss	xmm1, xmm2
	mov	eax, DWORD PTR _this$[ebp]
	mulss	xmm1, DWORD PTR [eax+edx+12]
	addss	xmm0, xmm1
	mov	ecx, 16					; 00000010H
	imul	ecx, 0
	mov	edx, 16					; 00000010H
	shl	edx, 0
	mov	eax, 16					; 00000010H
	shl	eax, 1
	mov	esi, DWORD PTR _this$[ebp]
	mov	edi, DWORD PTR _this$[ebp]
	movss	xmm1, DWORD PTR [esi+edx+8]
	mulss	xmm1, DWORD PTR [edi+eax+12]
	mov	edx, 16					; 00000010H
	shl	edx, 0
	mov	eax, 16					; 00000010H
	shl	eax, 1
	mov	esi, DWORD PTR _this$[ebp]
	mov	edi, DWORD PTR _this$[ebp]
	movss	xmm2, DWORD PTR [esi+edx+12]
	mulss	xmm2, DWORD PTR [edi+eax+8]
	subss	xmm1, xmm2
	mov	edx, DWORD PTR _this$[ebp]
	mulss	xmm1, DWORD PTR [edx+ecx]
	addss	xmm0, xmm1
	mulss	xmm0, DWORD PTR _s$[ebp]
	mov	eax, 16					; 00000010H
	shl	eax, 0
	movss	DWORD PTR _t$[ebp+eax+12], xmm0

; 146  : 		t.Row[2].X = s*(Row[1].W*(Row[2].X*Row[3].Y - Row[2].Y*Row[3].X) + Row[1].X*(Row[2].Y*Row[3].W - Row[2].W*Row[3].Y) + Row[1].Y*(Row[2].W*Row[3].X - Row[2].X*Row[3].W));

	mov	eax, 16					; 00000010H
	shl	eax, 0
	mov	ecx, 16					; 00000010H
	shl	ecx, 1
	mov	edx, 16					; 00000010H
	imul	edx, 3
	mov	esi, DWORD PTR _this$[ebp]
	mov	edi, DWORD PTR _this$[ebp]
	movss	xmm0, DWORD PTR [esi+ecx]
	mulss	xmm0, DWORD PTR [edi+edx+4]
	mov	ecx, 16					; 00000010H
	shl	ecx, 1
	mov	edx, 16					; 00000010H
	imul	edx, 3
	mov	esi, DWORD PTR _this$[ebp]
	mov	edi, DWORD PTR _this$[ebp]
	movss	xmm1, DWORD PTR [esi+ecx+4]
	mulss	xmm1, DWORD PTR [edi+edx]
	subss	xmm0, xmm1
	mov	ecx, DWORD PTR _this$[ebp]
	mulss	xmm0, DWORD PTR [ecx+eax+12]
	mov	edx, 16					; 00000010H
	shl	edx, 0
	mov	eax, 16					; 00000010H
	shl	eax, 1
	mov	ecx, 16					; 00000010H
	imul	ecx, 3
	mov	esi, DWORD PTR _this$[ebp]
	mov	edi, DWORD PTR _this$[ebp]
	movss	xmm1, DWORD PTR [esi+eax+4]
	mulss	xmm1, DWORD PTR [edi+ecx+12]
	mov	eax, 16					; 00000010H
	shl	eax, 1
	mov	ecx, 16					; 00000010H
	imul	ecx, 3
	mov	esi, DWORD PTR _this$[ebp]
	mov	edi, DWORD PTR _this$[ebp]
	movss	xmm2, DWORD PTR [esi+eax+12]
	mulss	xmm2, DWORD PTR [edi+ecx+4]
	subss	xmm1, xmm2
	mov	eax, DWORD PTR _this$[ebp]
	mulss	xmm1, DWORD PTR [eax+edx]
	addss	xmm0, xmm1
	mov	ecx, 16					; 00000010H
	shl	ecx, 0
	mov	edx, 16					; 00000010H
	shl	edx, 1
	mov	eax, 16					; 00000010H
	imul	eax, 3
	mov	esi, DWORD PTR _this$[ebp]
	mov	edi, DWORD PTR _this$[ebp]
	movss	xmm1, DWORD PTR [esi+edx+12]
	mulss	xmm1, DWORD PTR [edi+eax]
	mov	edx, 16					; 00000010H
	shl	edx, 1
	mov	eax, 16					; 00000010H
	imul	eax, 3
	mov	esi, DWORD PTR _this$[ebp]
	mov	edi, DWORD PTR _this$[ebp]
	movss	xmm2, DWORD PTR [esi+edx]
	mulss	xmm2, DWORD PTR [edi+eax+12]
	subss	xmm1, xmm2
	mov	edx, DWORD PTR _this$[ebp]
	mulss	xmm1, DWORD PTR [edx+ecx+4]
	addss	xmm0, xmm1
	mulss	xmm0, DWORD PTR _s$[ebp]
	mov	eax, 16					; 00000010H
	shl	eax, 1
	movss	DWORD PTR _t$[ebp+eax], xmm0

; 147  : 		t.Row[2].Y = s*(Row[2].W*(Row[0].X*Row[3].Y - Row[0].Y*Row[3].X) + Row[2].X*(Row[0].Y*Row[3].W - Row[0].W*Row[3].Y) + Row[2].Y*(Row[0].W*Row[3].X - Row[0].X*Row[3].W));

	mov	eax, 16					; 00000010H
	shl	eax, 1
	mov	ecx, 16					; 00000010H
	imul	ecx, 0
	mov	edx, 16					; 00000010H
	imul	edx, 3
	mov	esi, DWORD PTR _this$[ebp]
	mov	edi, DWORD PTR _this$[ebp]
	movss	xmm0, DWORD PTR [esi+ecx]
	mulss	xmm0, DWORD PTR [edi+edx+4]
	mov	ecx, 16					; 00000010H
	imul	ecx, 0
	mov	edx, 16					; 00000010H
	imul	edx, 3
	mov	esi, DWORD PTR _this$[ebp]
	mov	edi, DWORD PTR _this$[ebp]
	movss	xmm1, DWORD PTR [esi+ecx+4]
	mulss	xmm1, DWORD PTR [edi+edx]
	subss	xmm0, xmm1
	mov	ecx, DWORD PTR _this$[ebp]
	mulss	xmm0, DWORD PTR [ecx+eax+12]
	mov	edx, 16					; 00000010H
	shl	edx, 1
	mov	eax, 16					; 00000010H
	imul	eax, 0
	mov	ecx, 16					; 00000010H
	imul	ecx, 3
	mov	esi, DWORD PTR _this$[ebp]
	mov	edi, DWORD PTR _this$[ebp]
	movss	xmm1, DWORD PTR [esi+eax+4]
	mulss	xmm1, DWORD PTR [edi+ecx+12]
	mov	eax, 16					; 00000010H
	imul	eax, 0
	mov	ecx, 16					; 00000010H
	imul	ecx, 3
	mov	esi, DWORD PTR _this$[ebp]
	mov	edi, DWORD PTR _this$[ebp]
	movss	xmm2, DWORD PTR [esi+eax+12]
	mulss	xmm2, DWORD PTR [edi+ecx+4]
	subss	xmm1, xmm2
	mov	eax, DWORD PTR _this$[ebp]
	mulss	xmm1, DWORD PTR [eax+edx]
	addss	xmm0, xmm1
	mov	ecx, 16					; 00000010H
	shl	ecx, 1
	mov	edx, 16					; 00000010H
	imul	edx, 0
	mov	eax, 16					; 00000010H
	imul	eax, 3
	mov	esi, DWORD PTR _this$[ebp]
	mov	edi, DWORD PTR _this$[ebp]
	movss	xmm1, DWORD PTR [esi+edx+12]
	mulss	xmm1, DWORD PTR [edi+eax]
	mov	edx, 16					; 00000010H
	imul	edx, 0
	mov	eax, 16					; 00000010H
	imul	eax, 3
	mov	esi, DWORD PTR _this$[ebp]
	mov	edi, DWORD PTR _this$[ebp]
	movss	xmm2, DWORD PTR [esi+edx]
	mulss	xmm2, DWORD PTR [edi+eax+12]
	subss	xmm1, xmm2
	mov	edx, DWORD PTR _this$[ebp]
	mulss	xmm1, DWORD PTR [edx+ecx+4]
	addss	xmm0, xmm1
	mulss	xmm0, DWORD PTR _s$[ebp]
	mov	eax, 16					; 00000010H
	shl	eax, 1
	movss	DWORD PTR _t$[ebp+eax+4], xmm0

; 148  : 		t.Row[2].Z = s*(Row[3].W*(Row[0].X*Row[1].Y - Row[0].Y*Row[1].X) + Row[3].X*(Row[0].Y*Row[1].W - Row[0].W*Row[1].Y) + Row[3].Y*(Row[0].W*Row[1].X - Row[0].X*Row[1].W));

	mov	eax, 16					; 00000010H
	imul	eax, 3
	mov	ecx, 16					; 00000010H
	imul	ecx, 0
	mov	edx, 16					; 00000010H
	shl	edx, 0
	mov	esi, DWORD PTR _this$[ebp]
	mov	edi, DWORD PTR _this$[ebp]
	movss	xmm0, DWORD PTR [esi+ecx]
	mulss	xmm0, DWORD PTR [edi+edx+4]
	mov	ecx, 16					; 00000010H
	imul	ecx, 0
	mov	edx, 16					; 00000010H
	shl	edx, 0
	mov	esi, DWORD PTR _this$[ebp]
	mov	edi, DWORD PTR _this$[ebp]
	movss	xmm1, DWORD PTR [esi+ecx+4]
	mulss	xmm1, DWORD PTR [edi+edx]
	subss	xmm0, xmm1
	mov	ecx, DWORD PTR _this$[ebp]
	mulss	xmm0, DWORD PTR [ecx+eax+12]
	mov	edx, 16					; 00000010H
	imul	edx, 3
	mov	eax, 16					; 00000010H
	imul	eax, 0
	mov	ecx, 16					; 00000010H
	shl	ecx, 0
	mov	esi, DWORD PTR _this$[ebp]
	mov	edi, DWORD PTR _this$[ebp]
	movss	xmm1, DWORD PTR [esi+eax+4]
	mulss	xmm1, DWORD PTR [edi+ecx+12]
	mov	eax, 16					; 00000010H
	imul	eax, 0
	mov	ecx, 16					; 00000010H
	shl	ecx, 0
	mov	esi, DWORD PTR _this$[ebp]
	mov	edi, DWORD PTR _this$[ebp]
	movss	xmm2, DWORD PTR [esi+eax+12]
	mulss	xmm2, DWORD PTR [edi+ecx+4]
	subss	xmm1, xmm2
	mov	eax, DWORD PTR _this$[ebp]
	mulss	xmm1, DWORD PTR [eax+edx]
	addss	xmm0, xmm1
	mov	ecx, 16					; 00000010H
	imul	ecx, 3
	mov	edx, 16					; 00000010H
	imul	edx, 0
	mov	eax, 16					; 00000010H
	shl	eax, 0
	mov	esi, DWORD PTR _this$[ebp]
	mov	edi, DWORD PTR _this$[ebp]
	movss	xmm1, DWORD PTR [esi+edx+12]
	mulss	xmm1, DWORD PTR [edi+eax]
	mov	edx, 16					; 00000010H
	imul	edx, 0
	mov	eax, 16					; 00000010H
	shl	eax, 0
	mov	esi, DWORD PTR _this$[ebp]
	mov	edi, DWORD PTR _this$[ebp]
	movss	xmm2, DWORD PTR [esi+edx]
	mulss	xmm2, DWORD PTR [edi+eax+12]
	subss	xmm1, xmm2
	mov	edx, DWORD PTR _this$[ebp]
	mulss	xmm1, DWORD PTR [edx+ecx+4]
	addss	xmm0, xmm1
	mulss	xmm0, DWORD PTR _s$[ebp]
	mov	eax, 16					; 00000010H
	shl	eax, 1
	movss	DWORD PTR _t$[ebp+eax+8], xmm0

; 149  : 		t.Row[2].W = s*(Row[0].W*(Row[1].Y*Row[2].X - Row[1].X*Row[2].Y) + Row[0].X*(Row[1].W*Row[2].Y - Row[1].Y*Row[2].W) + Row[0].Y*(Row[1].X*Row[2].W - Row[1].W*Row[2].X));

	mov	eax, 16					; 00000010H
	imul	eax, 0
	mov	ecx, 16					; 00000010H
	shl	ecx, 0
	mov	edx, 16					; 00000010H
	shl	edx, 1
	mov	esi, DWORD PTR _this$[ebp]
	mov	edi, DWORD PTR _this$[ebp]
	movss	xmm0, DWORD PTR [esi+ecx+4]
	mulss	xmm0, DWORD PTR [edi+edx]
	mov	ecx, 16					; 00000010H
	shl	ecx, 0
	mov	edx, 16					; 00000010H
	shl	edx, 1
	mov	esi, DWORD PTR _this$[ebp]
	mov	edi, DWORD PTR _this$[ebp]
	movss	xmm1, DWORD PTR [esi+ecx]
	mulss	xmm1, DWORD PTR [edi+edx+4]
	subss	xmm0, xmm1
	mov	ecx, DWORD PTR _this$[ebp]
	mulss	xmm0, DWORD PTR [ecx+eax+12]
	mov	edx, 16					; 00000010H
	imul	edx, 0
	mov	eax, 16					; 00000010H
	shl	eax, 0
	mov	ecx, 16					; 00000010H
	shl	ecx, 1
	mov	esi, DWORD PTR _this$[ebp]
	mov	edi, DWORD PTR _this$[ebp]
	movss	xmm1, DWORD PTR [esi+eax+12]
	mulss	xmm1, DWORD PTR [edi+ecx+4]
	mov	eax, 16					; 00000010H
	shl	eax, 0
	mov	ecx, 16					; 00000010H
	shl	ecx, 1
	mov	esi, DWORD PTR _this$[ebp]
	mov	edi, DWORD PTR _this$[ebp]
	movss	xmm2, DWORD PTR [esi+eax+4]
	mulss	xmm2, DWORD PTR [edi+ecx+12]
	subss	xmm1, xmm2
	mov	eax, DWORD PTR _this$[ebp]
	mulss	xmm1, DWORD PTR [eax+edx]
	addss	xmm0, xmm1
	mov	ecx, 16					; 00000010H
	imul	ecx, 0
	mov	edx, 16					; 00000010H
	shl	edx, 0
	mov	eax, 16					; 00000010H
	shl	eax, 1
	mov	esi, DWORD PTR _this$[ebp]
	mov	edi, DWORD PTR _this$[ebp]
	movss	xmm1, DWORD PTR [esi+edx]
	mulss	xmm1, DWORD PTR [edi+eax+12]
	mov	edx, 16					; 00000010H
	shl	edx, 0
	mov	eax, 16					; 00000010H
	shl	eax, 1
	mov	esi, DWORD PTR _this$[ebp]
	mov	edi, DWORD PTR _this$[ebp]
	movss	xmm2, DWORD PTR [esi+edx+12]
	mulss	xmm2, DWORD PTR [edi+eax]
	subss	xmm1, xmm2
	mov	edx, DWORD PTR _this$[ebp]
	mulss	xmm1, DWORD PTR [edx+ecx+4]
	addss	xmm0, xmm1
	mulss	xmm0, DWORD PTR _s$[ebp]
	mov	eax, 16					; 00000010H
	shl	eax, 1
	movss	DWORD PTR _t$[ebp+eax+12], xmm0

; 150  : 		t.Row[3].X = s*(Row[1].X*(Row[2].Z*Row[3].Y - Row[2].Y*Row[3].Z) + Row[1].Y*(Row[2].X*Row[3].Z - Row[2].Z*Row[3].X) + Row[1].Z*(Row[2].Y*Row[3].X - Row[2].X*Row[3].Y));

	mov	eax, 16					; 00000010H
	shl	eax, 0
	mov	ecx, 16					; 00000010H
	shl	ecx, 1
	mov	edx, 16					; 00000010H
	imul	edx, 3
	mov	esi, DWORD PTR _this$[ebp]
	mov	edi, DWORD PTR _this$[ebp]
	movss	xmm0, DWORD PTR [esi+ecx+8]
	mulss	xmm0, DWORD PTR [edi+edx+4]
	mov	ecx, 16					; 00000010H
	shl	ecx, 1
	mov	edx, 16					; 00000010H
	imul	edx, 3
	mov	esi, DWORD PTR _this$[ebp]
	mov	edi, DWORD PTR _this$[ebp]
	movss	xmm1, DWORD PTR [esi+ecx+4]
	mulss	xmm1, DWORD PTR [edi+edx+8]
	subss	xmm0, xmm1
	mov	ecx, DWORD PTR _this$[ebp]
	mulss	xmm0, DWORD PTR [ecx+eax]
	mov	edx, 16					; 00000010H
	shl	edx, 0
	mov	eax, 16					; 00000010H
	shl	eax, 1
	mov	ecx, 16					; 00000010H
	imul	ecx, 3
	mov	esi, DWORD PTR _this$[ebp]
	mov	edi, DWORD PTR _this$[ebp]
	movss	xmm1, DWORD PTR [esi+eax]
	mulss	xmm1, DWORD PTR [edi+ecx+8]
	mov	eax, 16					; 00000010H
	shl	eax, 1
	mov	ecx, 16					; 00000010H
	imul	ecx, 3
	mov	esi, DWORD PTR _this$[ebp]
	mov	edi, DWORD PTR _this$[ebp]
	movss	xmm2, DWORD PTR [esi+eax+8]
	mulss	xmm2, DWORD PTR [edi+ecx]
	subss	xmm1, xmm2
	mov	eax, DWORD PTR _this$[ebp]
	mulss	xmm1, DWORD PTR [eax+edx+4]
	addss	xmm0, xmm1
	mov	ecx, 16					; 00000010H
	shl	ecx, 0
	mov	edx, 16					; 00000010H
	shl	edx, 1
	mov	eax, 16					; 00000010H
	imul	eax, 3
	mov	esi, DWORD PTR _this$[ebp]
	mov	edi, DWORD PTR _this$[ebp]
	movss	xmm1, DWORD PTR [esi+edx+4]
	mulss	xmm1, DWORD PTR [edi+eax]
	mov	edx, 16					; 00000010H
	shl	edx, 1
	mov	eax, 16					; 00000010H
	imul	eax, 3
	mov	esi, DWORD PTR _this$[ebp]
	mov	edi, DWORD PTR _this$[ebp]
	movss	xmm2, DWORD PTR [esi+edx]
	mulss	xmm2, DWORD PTR [edi+eax+4]
	subss	xmm1, xmm2
	mov	edx, DWORD PTR _this$[ebp]
	mulss	xmm1, DWORD PTR [edx+ecx+8]
	addss	xmm0, xmm1
	mulss	xmm0, DWORD PTR _s$[ebp]
	mov	eax, 16					; 00000010H
	imul	eax, 3
	movss	DWORD PTR _t$[ebp+eax], xmm0

; 151  : 		t.Row[3].Y = s*(Row[2].X*(Row[0].Z*Row[3].Y - Row[0].Y*Row[3].Z) + Row[2].Y*(Row[0].X*Row[3].Z - Row[0].Z*Row[3].X) + Row[2].Z*(Row[0].Y*Row[3].X - Row[0].X*Row[3].Y));

	mov	eax, 16					; 00000010H
	shl	eax, 1
	mov	ecx, 16					; 00000010H
	imul	ecx, 0
	mov	edx, 16					; 00000010H
	imul	edx, 3
	mov	esi, DWORD PTR _this$[ebp]
	mov	edi, DWORD PTR _this$[ebp]
	movss	xmm0, DWORD PTR [esi+ecx+8]
	mulss	xmm0, DWORD PTR [edi+edx+4]
	mov	ecx, 16					; 00000010H
	imul	ecx, 0
	mov	edx, 16					; 00000010H
	imul	edx, 3
	mov	esi, DWORD PTR _this$[ebp]
	mov	edi, DWORD PTR _this$[ebp]
	movss	xmm1, DWORD PTR [esi+ecx+4]
	mulss	xmm1, DWORD PTR [edi+edx+8]
	subss	xmm0, xmm1
	mov	ecx, DWORD PTR _this$[ebp]
	mulss	xmm0, DWORD PTR [ecx+eax]
	mov	edx, 16					; 00000010H
	shl	edx, 1
	mov	eax, 16					; 00000010H
	imul	eax, 0
	mov	ecx, 16					; 00000010H
	imul	ecx, 3
	mov	esi, DWORD PTR _this$[ebp]
	mov	edi, DWORD PTR _this$[ebp]
	movss	xmm1, DWORD PTR [esi+eax]
	mulss	xmm1, DWORD PTR [edi+ecx+8]
	mov	eax, 16					; 00000010H
	imul	eax, 0
	mov	ecx, 16					; 00000010H
	imul	ecx, 3
	mov	esi, DWORD PTR _this$[ebp]
	mov	edi, DWORD PTR _this$[ebp]
	movss	xmm2, DWORD PTR [esi+eax+8]
	mulss	xmm2, DWORD PTR [edi+ecx]
	subss	xmm1, xmm2
	mov	eax, DWORD PTR _this$[ebp]
	mulss	xmm1, DWORD PTR [eax+edx+4]
	addss	xmm0, xmm1
	mov	ecx, 16					; 00000010H
	shl	ecx, 1
	mov	edx, 16					; 00000010H
	imul	edx, 0
	mov	eax, 16					; 00000010H
	imul	eax, 3
	mov	esi, DWORD PTR _this$[ebp]
	mov	edi, DWORD PTR _this$[ebp]
	movss	xmm1, DWORD PTR [esi+edx+4]
	mulss	xmm1, DWORD PTR [edi+eax]
	mov	edx, 16					; 00000010H
	imul	edx, 0
	mov	eax, 16					; 00000010H
	imul	eax, 3
	mov	esi, DWORD PTR _this$[ebp]
	mov	edi, DWORD PTR _this$[ebp]
	movss	xmm2, DWORD PTR [esi+edx]
	mulss	xmm2, DWORD PTR [edi+eax+4]
	subss	xmm1, xmm2
	mov	edx, DWORD PTR _this$[ebp]
	mulss	xmm1, DWORD PTR [edx+ecx+8]
	addss	xmm0, xmm1
	mulss	xmm0, DWORD PTR _s$[ebp]
	mov	eax, 16					; 00000010H
	imul	eax, 3
	movss	DWORD PTR _t$[ebp+eax+4], xmm0

; 152  : 		t.Row[3].Z = s*(Row[3].X*(Row[0].Z*Row[1].Y - Row[0].Y*Row[1].Z) + Row[3].Y*(Row[0].X*Row[1].Z - Row[0].Z*Row[1].X) + Row[3].Z*(Row[0].Y*Row[1].X - Row[0].X*Row[1].Y));

	mov	eax, 16					; 00000010H
	imul	eax, 3
	mov	ecx, 16					; 00000010H
	imul	ecx, 0
	mov	edx, 16					; 00000010H
	shl	edx, 0
	mov	esi, DWORD PTR _this$[ebp]
	mov	edi, DWORD PTR _this$[ebp]
	movss	xmm0, DWORD PTR [esi+ecx+8]
	mulss	xmm0, DWORD PTR [edi+edx+4]
	mov	ecx, 16					; 00000010H
	imul	ecx, 0
	mov	edx, 16					; 00000010H
	shl	edx, 0
	mov	esi, DWORD PTR _this$[ebp]
	mov	edi, DWORD PTR _this$[ebp]
	movss	xmm1, DWORD PTR [esi+ecx+4]
	mulss	xmm1, DWORD PTR [edi+edx+8]
	subss	xmm0, xmm1
	mov	ecx, DWORD PTR _this$[ebp]
	mulss	xmm0, DWORD PTR [ecx+eax]
	mov	edx, 16					; 00000010H
	imul	edx, 3
	mov	eax, 16					; 00000010H
	imul	eax, 0
	mov	ecx, 16					; 00000010H
	shl	ecx, 0
	mov	esi, DWORD PTR _this$[ebp]
	mov	edi, DWORD PTR _this$[ebp]
	movss	xmm1, DWORD PTR [esi+eax]
	mulss	xmm1, DWORD PTR [edi+ecx+8]
	mov	eax, 16					; 00000010H
	imul	eax, 0
	mov	ecx, 16					; 00000010H
	shl	ecx, 0
	mov	esi, DWORD PTR _this$[ebp]
	mov	edi, DWORD PTR _this$[ebp]
	movss	xmm2, DWORD PTR [esi+eax+8]
	mulss	xmm2, DWORD PTR [edi+ecx]
	subss	xmm1, xmm2
	mov	eax, DWORD PTR _this$[ebp]
	mulss	xmm1, DWORD PTR [eax+edx+4]
	addss	xmm0, xmm1
	mov	ecx, 16					; 00000010H
	imul	ecx, 3
	mov	edx, 16					; 00000010H
	imul	edx, 0
	mov	eax, 16					; 00000010H
	shl	eax, 0
	mov	esi, DWORD PTR _this$[ebp]
	mov	edi, DWORD PTR _this$[ebp]
	movss	xmm1, DWORD PTR [esi+edx+4]
	mulss	xmm1, DWORD PTR [edi+eax]
	mov	edx, 16					; 00000010H
	imul	edx, 0
	mov	eax, 16					; 00000010H
	shl	eax, 0
	mov	esi, DWORD PTR _this$[ebp]
	mov	edi, DWORD PTR _this$[ebp]
	movss	xmm2, DWORD PTR [esi+edx]
	mulss	xmm2, DWORD PTR [edi+eax+4]
	subss	xmm1, xmm2
	mov	edx, DWORD PTR _this$[ebp]
	mulss	xmm1, DWORD PTR [edx+ecx+8]
	addss	xmm0, xmm1
	mulss	xmm0, DWORD PTR _s$[ebp]
	mov	eax, 16					; 00000010H
	imul	eax, 3
	movss	DWORD PTR _t$[ebp+eax+8], xmm0

; 153  : 		t.Row[3].W = s*(Row[0].X*(Row[1].Y*Row[2].Z - Row[1].Z*Row[2].Y) + Row[0].Y*(Row[1].Z*Row[2].X - Row[1].X*Row[2].Z) + Row[0].Z*(Row[1].X*Row[2].Y - Row[1].Y*Row[2].X));

	mov	eax, 16					; 00000010H
	imul	eax, 0
	mov	ecx, 16					; 00000010H
	shl	ecx, 0
	mov	edx, 16					; 00000010H
	shl	edx, 1
	mov	esi, DWORD PTR _this$[ebp]
	mov	edi, DWORD PTR _this$[ebp]
	movss	xmm0, DWORD PTR [esi+ecx+4]
	mulss	xmm0, DWORD PTR [edi+edx+8]
	mov	ecx, 16					; 00000010H
	shl	ecx, 0
	mov	edx, 16					; 00000010H
	shl	edx, 1
	mov	esi, DWORD PTR _this$[ebp]
	mov	edi, DWORD PTR _this$[ebp]
	movss	xmm1, DWORD PTR [esi+ecx+8]
	mulss	xmm1, DWORD PTR [edi+edx+4]
	subss	xmm0, xmm1
	mov	ecx, DWORD PTR _this$[ebp]
	mulss	xmm0, DWORD PTR [ecx+eax]
	mov	edx, 16					; 00000010H
	imul	edx, 0
	mov	eax, 16					; 00000010H
	shl	eax, 0
	mov	ecx, 16					; 00000010H
	shl	ecx, 1
	mov	esi, DWORD PTR _this$[ebp]
	mov	edi, DWORD PTR _this$[ebp]
	movss	xmm1, DWORD PTR [esi+eax+8]
	mulss	xmm1, DWORD PTR [edi+ecx]
	mov	eax, 16					; 00000010H
	shl	eax, 0
	mov	ecx, 16					; 00000010H
	shl	ecx, 1
	mov	esi, DWORD PTR _this$[ebp]
	mov	edi, DWORD PTR _this$[ebp]
	movss	xmm2, DWORD PTR [esi+eax]
	mulss	xmm2, DWORD PTR [edi+ecx+8]
	subss	xmm1, xmm2
	mov	eax, DWORD PTR _this$[ebp]
	mulss	xmm1, DWORD PTR [eax+edx+4]
	addss	xmm0, xmm1
	mov	ecx, 16					; 00000010H
	imul	ecx, 0
	mov	edx, 16					; 00000010H
	shl	edx, 0
	mov	eax, 16					; 00000010H
	shl	eax, 1
	mov	esi, DWORD PTR _this$[ebp]
	mov	edi, DWORD PTR _this$[ebp]
	movss	xmm1, DWORD PTR [esi+edx]
	mulss	xmm1, DWORD PTR [edi+eax+4]
	mov	edx, 16					; 00000010H
	shl	edx, 0
	mov	eax, 16					; 00000010H
	shl	eax, 1
	mov	esi, DWORD PTR _this$[ebp]
	mov	edi, DWORD PTR _this$[ebp]
	movss	xmm2, DWORD PTR [esi+edx+4]
	mulss	xmm2, DWORD PTR [edi+eax]
	subss	xmm1, xmm2
	mov	edx, DWORD PTR _this$[ebp]
	mulss	xmm1, DWORD PTR [edx+ecx+8]
	addss	xmm0, xmm1
	mulss	xmm0, DWORD PTR _s$[ebp]
	mov	eax, 16					; 00000010H
	imul	eax, 3
	movss	DWORD PTR _t$[ebp+eax+12], xmm0

; 154  : 		return t;

	lea	eax, DWORD PTR _t$[ebp]
	push	eax
	mov	ecx, DWORD PTR ___$ReturnUdt$[ebp]
	call	??0Matrix4@@QAE@ABV0@@Z			; Matrix4::Matrix4
	mov	eax, DWORD PTR ___$ReturnUdt$[ebp]
$LN2@Inverse:

; 155  : 	}

	pop	edi
	pop	esi
	pop	ebx
	mov	esp, ebp
	pop	ebp
	ret	4
?Inverse@Matrix4@@QBE?AV1@XZ ENDP			; Matrix4::Inverse
_TEXT	ENDS
; Function compile flags: /Odtp /ZI
; File x:\github\renegade\dragonade_rxd\scripts\matrix4.h
;	COMDAT ?Determinant@Matrix4@@QBEMXZ
_TEXT	SEGMENT
_det$ = -8						; size = 4
_this$ = -4						; size = 4
?Determinant@Matrix4@@QBEMXZ PROC			; Matrix4::Determinant, COMDAT
; _this$ = ecx

; 122  : 	{

	push	ebp
	mov	ebp, esp
	sub	esp, 72					; 00000048H
	push	ebx
	push	esi
	push	edi
	mov	DWORD PTR _this$[ebp], ecx

; 123  : 		float det;
; 124  : 		det =	(Row[0].X * Row[1].Y - Row[0].Y * Row[1].X) * (Row[2].Z * Row[3].W - Row[2].W * Row[3].Z);

	mov	eax, 16					; 00000010H
	imul	eax, 0
	mov	ecx, 16					; 00000010H
	shl	ecx, 0
	mov	edx, DWORD PTR _this$[ebp]
	mov	esi, DWORD PTR _this$[ebp]
	movss	xmm0, DWORD PTR [edx+eax]
	mulss	xmm0, DWORD PTR [esi+ecx+4]
	mov	eax, 16					; 00000010H
	imul	eax, 0
	mov	ecx, 16					; 00000010H
	shl	ecx, 0
	mov	edx, DWORD PTR _this$[ebp]
	mov	esi, DWORD PTR _this$[ebp]
	movss	xmm1, DWORD PTR [edx+eax+4]
	mulss	xmm1, DWORD PTR [esi+ecx]
	subss	xmm0, xmm1
	mov	eax, 16					; 00000010H
	shl	eax, 1
	mov	ecx, 16					; 00000010H
	imul	ecx, 3
	mov	edx, DWORD PTR _this$[ebp]
	mov	esi, DWORD PTR _this$[ebp]
	movss	xmm1, DWORD PTR [edx+eax+8]
	mulss	xmm1, DWORD PTR [esi+ecx+12]
	mov	eax, 16					; 00000010H
	shl	eax, 1
	mov	ecx, 16					; 00000010H
	imul	ecx, 3
	mov	edx, DWORD PTR _this$[ebp]
	mov	esi, DWORD PTR _this$[ebp]
	movss	xmm2, DWORD PTR [edx+eax+12]
	mulss	xmm2, DWORD PTR [esi+ecx+8]
	subss	xmm1, xmm2
	mulss	xmm0, xmm1
	movss	DWORD PTR _det$[ebp], xmm0

; 125  : 		det -=	(Row[0].X * Row[1].Z - Row[0].Z * Row[1].X) * (Row[2].Y * Row[3].W - Row[2].W * Row[3].Y);

	mov	eax, 16					; 00000010H
	imul	eax, 0
	mov	ecx, 16					; 00000010H
	shl	ecx, 0
	mov	edx, DWORD PTR _this$[ebp]
	mov	esi, DWORD PTR _this$[ebp]
	movss	xmm0, DWORD PTR [edx+eax]
	mulss	xmm0, DWORD PTR [esi+ecx+8]
	mov	eax, 16					; 00000010H
	imul	eax, 0
	mov	ecx, 16					; 00000010H
	shl	ecx, 0
	mov	edx, DWORD PTR _this$[ebp]
	mov	esi, DWORD PTR _this$[ebp]
	movss	xmm1, DWORD PTR [edx+eax+8]
	mulss	xmm1, DWORD PTR [esi+ecx]
	subss	xmm0, xmm1
	mov	eax, 16					; 00000010H
	shl	eax, 1
	mov	ecx, 16					; 00000010H
	imul	ecx, 3
	mov	edx, DWORD PTR _this$[ebp]
	mov	esi, DWORD PTR _this$[ebp]
	movss	xmm1, DWORD PTR [edx+eax+4]
	mulss	xmm1, DWORD PTR [esi+ecx+12]
	mov	eax, 16					; 00000010H
	shl	eax, 1
	mov	ecx, 16					; 00000010H
	imul	ecx, 3
	mov	edx, DWORD PTR _this$[ebp]
	mov	esi, DWORD PTR _this$[ebp]
	movss	xmm2, DWORD PTR [edx+eax+12]
	mulss	xmm2, DWORD PTR [esi+ecx+4]
	subss	xmm1, xmm2
	mulss	xmm0, xmm1
	movss	xmm1, DWORD PTR _det$[ebp]
	subss	xmm1, xmm0
	movss	DWORD PTR _det$[ebp], xmm1

; 126  : 		det +=	(Row[0].X * Row[1].W - Row[0].W * Row[1].X) * (Row[2].Y * Row[3].Z - Row[2].Z * Row[3].Y);

	mov	eax, 16					; 00000010H
	imul	eax, 0
	mov	ecx, 16					; 00000010H
	shl	ecx, 0
	mov	edx, DWORD PTR _this$[ebp]
	mov	esi, DWORD PTR _this$[ebp]
	movss	xmm0, DWORD PTR [edx+eax]
	mulss	xmm0, DWORD PTR [esi+ecx+12]
	mov	eax, 16					; 00000010H
	imul	eax, 0
	mov	ecx, 16					; 00000010H
	shl	ecx, 0
	mov	edx, DWORD PTR _this$[ebp]
	mov	esi, DWORD PTR _this$[ebp]
	movss	xmm1, DWORD PTR [edx+eax+12]
	mulss	xmm1, DWORD PTR [esi+ecx]
	subss	xmm0, xmm1
	mov	eax, 16					; 00000010H
	shl	eax, 1
	mov	ecx, 16					; 00000010H
	imul	ecx, 3
	mov	edx, DWORD PTR _this$[ebp]
	mov	esi, DWORD PTR _this$[ebp]
	movss	xmm1, DWORD PTR [edx+eax+4]
	mulss	xmm1, DWORD PTR [esi+ecx+8]
	mov	eax, 16					; 00000010H
	shl	eax, 1
	mov	ecx, 16					; 00000010H
	imul	ecx, 3
	mov	edx, DWORD PTR _this$[ebp]
	mov	esi, DWORD PTR _this$[ebp]
	movss	xmm2, DWORD PTR [edx+eax+8]
	mulss	xmm2, DWORD PTR [esi+ecx+4]
	subss	xmm1, xmm2
	mulss	xmm0, xmm1
	addss	xmm0, DWORD PTR _det$[ebp]
	movss	DWORD PTR _det$[ebp], xmm0

; 127  : 		det +=	(Row[0].Y * Row[1].Z - Row[0].Z * Row[1].Y) * (Row[2].X * Row[3].W - Row[2].W * Row[3].X);

	mov	eax, 16					; 00000010H
	imul	eax, 0
	mov	ecx, 16					; 00000010H
	shl	ecx, 0
	mov	edx, DWORD PTR _this$[ebp]
	mov	esi, DWORD PTR _this$[ebp]
	movss	xmm0, DWORD PTR [edx+eax+4]
	mulss	xmm0, DWORD PTR [esi+ecx+8]
	mov	eax, 16					; 00000010H
	imul	eax, 0
	mov	ecx, 16					; 00000010H
	shl	ecx, 0
	mov	edx, DWORD PTR _this$[ebp]
	mov	esi, DWORD PTR _this$[ebp]
	movss	xmm1, DWORD PTR [edx+eax+8]
	mulss	xmm1, DWORD PTR [esi+ecx+4]
	subss	xmm0, xmm1
	mov	eax, 16					; 00000010H
	shl	eax, 1
	mov	ecx, 16					; 00000010H
	imul	ecx, 3
	mov	edx, DWORD PTR _this$[ebp]
	mov	esi, DWORD PTR _this$[ebp]
	movss	xmm1, DWORD PTR [edx+eax]
	mulss	xmm1, DWORD PTR [esi+ecx+12]
	mov	eax, 16					; 00000010H
	shl	eax, 1
	mov	ecx, 16					; 00000010H
	imul	ecx, 3
	mov	edx, DWORD PTR _this$[ebp]
	mov	esi, DWORD PTR _this$[ebp]
	movss	xmm2, DWORD PTR [edx+eax+12]
	mulss	xmm2, DWORD PTR [esi+ecx]
	subss	xmm1, xmm2
	mulss	xmm0, xmm1
	addss	xmm0, DWORD PTR _det$[ebp]
	movss	DWORD PTR _det$[ebp], xmm0

; 128  : 		det -=	(Row[0].Y * Row[1].W - Row[0].W * Row[1].Y) * (Row[2].X * Row[3].Z - Row[2].Z * Row[3].X);

	mov	eax, 16					; 00000010H
	imul	eax, 0
	mov	ecx, 16					; 00000010H
	shl	ecx, 0
	mov	edx, DWORD PTR _this$[ebp]
	mov	esi, DWORD PTR _this$[ebp]
	movss	xmm0, DWORD PTR [edx+eax+4]
	mulss	xmm0, DWORD PTR [esi+ecx+12]
	mov	eax, 16					; 00000010H
	imul	eax, 0
	mov	ecx, 16					; 00000010H
	shl	ecx, 0
	mov	edx, DWORD PTR _this$[ebp]
	mov	esi, DWORD PTR _this$[ebp]
	movss	xmm1, DWORD PTR [edx+eax+12]
	mulss	xmm1, DWORD PTR [esi+ecx+4]
	subss	xmm0, xmm1
	mov	eax, 16					; 00000010H
	shl	eax, 1
	mov	ecx, 16					; 00000010H
	imul	ecx, 3
	mov	edx, DWORD PTR _this$[ebp]
	mov	esi, DWORD PTR _this$[ebp]
	movss	xmm1, DWORD PTR [edx+eax]
	mulss	xmm1, DWORD PTR [esi+ecx+8]
	mov	eax, 16					; 00000010H
	shl	eax, 1
	mov	ecx, 16					; 00000010H
	imul	ecx, 3
	mov	edx, DWORD PTR _this$[ebp]
	mov	esi, DWORD PTR _this$[ebp]
	movss	xmm2, DWORD PTR [edx+eax+8]
	mulss	xmm2, DWORD PTR [esi+ecx]
	subss	xmm1, xmm2
	mulss	xmm0, xmm1
	movss	xmm1, DWORD PTR _det$[ebp]
	subss	xmm1, xmm0
	movss	DWORD PTR _det$[ebp], xmm1

; 129  : 		det +=	(Row[0].Z * Row[1].W - Row[0].W * Row[1].Z) * (Row[2].X * Row[3].Y - Row[2].Y * Row[3].X);		

	mov	eax, 16					; 00000010H
	imul	eax, 0
	mov	ecx, 16					; 00000010H
	shl	ecx, 0
	mov	edx, DWORD PTR _this$[ebp]
	mov	esi, DWORD PTR _this$[ebp]
	movss	xmm0, DWORD PTR [edx+eax+8]
	mulss	xmm0, DWORD PTR [esi+ecx+12]
	mov	eax, 16					; 00000010H
	imul	eax, 0
	mov	ecx, 16					; 00000010H
	shl	ecx, 0
	mov	edx, DWORD PTR _this$[ebp]
	mov	esi, DWORD PTR _this$[ebp]
	movss	xmm1, DWORD PTR [edx+eax+12]
	mulss	xmm1, DWORD PTR [esi+ecx+8]
	subss	xmm0, xmm1
	mov	eax, 16					; 00000010H
	shl	eax, 1
	mov	ecx, 16					; 00000010H
	imul	ecx, 3
	mov	edx, DWORD PTR _this$[ebp]
	mov	esi, DWORD PTR _this$[ebp]
	movss	xmm1, DWORD PTR [edx+eax]
	mulss	xmm1, DWORD PTR [esi+ecx+4]
	mov	eax, 16					; 00000010H
	shl	eax, 1
	mov	ecx, 16					; 00000010H
	imul	ecx, 3
	mov	edx, DWORD PTR _this$[ebp]
	mov	esi, DWORD PTR _this$[ebp]
	movss	xmm2, DWORD PTR [edx+eax+4]
	mulss	xmm2, DWORD PTR [esi+ecx]
	subss	xmm1, xmm2
	mulss	xmm0, xmm1
	addss	xmm0, DWORD PTR _det$[ebp]
	movss	DWORD PTR _det$[ebp], xmm0

; 130  : 		return det;	

	fld	DWORD PTR _det$[ebp]

; 131  : 	};	

	pop	edi
	pop	esi
	pop	ebx
	mov	esp, ebp
	pop	ebp
	ret	0
?Determinant@Matrix4@@QBEMXZ ENDP			; Matrix4::Determinant
_TEXT	ENDS
; Function compile flags: /Odtp /ZI
; File x:\github\renegade\dragonade_rxd\scripts\matrix4.h
;	COMDAT ?Transpose@Matrix4@@QBE?AV1@XZ
_TEXT	SEGMENT
$T1 = -132						; size = 16
$T2 = -116						; size = 16
$T3 = -100						; size = 16
$T4 = -84						; size = 16
_this$ = -4						; size = 4
___$ReturnUdt$ = 8					; size = 4
?Transpose@Matrix4@@QBE?AV1@XZ PROC			; Matrix4::Transpose, COMDAT
; _this$ = ecx

; 118  : 	{

	push	ebp
	mov	ebp, esp
	sub	esp, 132				; 00000084H
	push	ebx
	push	esi
	push	edi
	mov	DWORD PTR _this$[ebp], ecx

; 119  : 		return Matrix4(Vector4(Row[0][0], Row[1][0], Row[2][0], Row[3][0]),Vector4(Row[0][1], Row[1][1], Row[2][1], Row[3][1]),Vector4(Row[0][2], Row[1][2], Row[2][2], Row[3][2]),Vector4(Row[0][3], Row[1][3], Row[2][3], Row[3][3]));

	push	3
	mov	ecx, 16					; 00000010H
	imul	ecx, 3
	add	ecx, DWORD PTR _this$[ebp]
	call	??AVector4@@QBEABMH@Z			; Vector4::operator[]
	push	ecx
	movss	xmm0, DWORD PTR [eax]
	movss	DWORD PTR [esp], xmm0
	push	3
	mov	ecx, 16					; 00000010H
	shl	ecx, 1
	add	ecx, DWORD PTR _this$[ebp]
	call	??AVector4@@QBEABMH@Z			; Vector4::operator[]
	push	ecx
	movss	xmm0, DWORD PTR [eax]
	movss	DWORD PTR [esp], xmm0
	push	3
	mov	ecx, 16					; 00000010H
	shl	ecx, 0
	add	ecx, DWORD PTR _this$[ebp]
	call	??AVector4@@QBEABMH@Z			; Vector4::operator[]
	push	ecx
	movss	xmm0, DWORD PTR [eax]
	movss	DWORD PTR [esp], xmm0
	push	3
	mov	ecx, 16					; 00000010H
	imul	ecx, 0
	add	ecx, DWORD PTR _this$[ebp]
	call	??AVector4@@QBEABMH@Z			; Vector4::operator[]
	push	ecx
	movss	xmm0, DWORD PTR [eax]
	movss	DWORD PTR [esp], xmm0
	lea	ecx, DWORD PTR $T1[ebp]
	call	??0Vector4@@QAE@MMMM@Z			; Vector4::Vector4
	push	eax
	push	2
	mov	ecx, 16					; 00000010H
	imul	ecx, 3
	add	ecx, DWORD PTR _this$[ebp]
	call	??AVector4@@QBEABMH@Z			; Vector4::operator[]
	push	ecx
	movss	xmm0, DWORD PTR [eax]
	movss	DWORD PTR [esp], xmm0
	push	2
	mov	ecx, 16					; 00000010H
	shl	ecx, 1
	add	ecx, DWORD PTR _this$[ebp]
	call	??AVector4@@QBEABMH@Z			; Vector4::operator[]
	push	ecx
	movss	xmm0, DWORD PTR [eax]
	movss	DWORD PTR [esp], xmm0
	push	2
	mov	ecx, 16					; 00000010H
	shl	ecx, 0
	add	ecx, DWORD PTR _this$[ebp]
	call	??AVector4@@QBEABMH@Z			; Vector4::operator[]
	push	ecx
	movss	xmm0, DWORD PTR [eax]
	movss	DWORD PTR [esp], xmm0
	push	2
	mov	ecx, 16					; 00000010H
	imul	ecx, 0
	add	ecx, DWORD PTR _this$[ebp]
	call	??AVector4@@QBEABMH@Z			; Vector4::operator[]
	push	ecx
	movss	xmm0, DWORD PTR [eax]
	movss	DWORD PTR [esp], xmm0
	lea	ecx, DWORD PTR $T2[ebp]
	call	??0Vector4@@QAE@MMMM@Z			; Vector4::Vector4
	push	eax
	push	1
	mov	ecx, 16					; 00000010H
	imul	ecx, 3
	add	ecx, DWORD PTR _this$[ebp]
	call	??AVector4@@QBEABMH@Z			; Vector4::operator[]
	push	ecx
	movss	xmm0, DWORD PTR [eax]
	movss	DWORD PTR [esp], xmm0
	push	1
	mov	ecx, 16					; 00000010H
	shl	ecx, 1
	add	ecx, DWORD PTR _this$[ebp]
	call	??AVector4@@QBEABMH@Z			; Vector4::operator[]
	push	ecx
	movss	xmm0, DWORD PTR [eax]
	movss	DWORD PTR [esp], xmm0
	push	1
	mov	ecx, 16					; 00000010H
	shl	ecx, 0
	add	ecx, DWORD PTR _this$[ebp]
	call	??AVector4@@QBEABMH@Z			; Vector4::operator[]
	push	ecx
	movss	xmm0, DWORD PTR [eax]
	movss	DWORD PTR [esp], xmm0
	push	1
	mov	ecx, 16					; 00000010H
	imul	ecx, 0
	add	ecx, DWORD PTR _this$[ebp]
	call	??AVector4@@QBEABMH@Z			; Vector4::operator[]
	push	ecx
	movss	xmm0, DWORD PTR [eax]
	movss	DWORD PTR [esp], xmm0
	lea	ecx, DWORD PTR $T3[ebp]
	call	??0Vector4@@QAE@MMMM@Z			; Vector4::Vector4
	push	eax
	push	0
	mov	ecx, 16					; 00000010H
	imul	ecx, 3
	add	ecx, DWORD PTR _this$[ebp]
	call	??AVector4@@QBEABMH@Z			; Vector4::operator[]
	push	ecx
	movss	xmm0, DWORD PTR [eax]
	movss	DWORD PTR [esp], xmm0
	push	0
	mov	ecx, 16					; 00000010H
	shl	ecx, 1
	add	ecx, DWORD PTR _this$[ebp]
	call	??AVector4@@QBEABMH@Z			; Vector4::operator[]
	push	ecx
	movss	xmm0, DWORD PTR [eax]
	movss	DWORD PTR [esp], xmm0
	push	0
	mov	ecx, 16					; 00000010H
	shl	ecx, 0
	add	ecx, DWORD PTR _this$[ebp]
	call	??AVector4@@QBEABMH@Z			; Vector4::operator[]
	push	ecx
	movss	xmm0, DWORD PTR [eax]
	movss	DWORD PTR [esp], xmm0
	push	0
	mov	ecx, 16					; 00000010H
	imul	ecx, 0
	add	ecx, DWORD PTR _this$[ebp]
	call	??AVector4@@QBEABMH@Z			; Vector4::operator[]
	push	ecx
	movss	xmm0, DWORD PTR [eax]
	movss	DWORD PTR [esp], xmm0
	lea	ecx, DWORD PTR $T4[ebp]
	call	??0Vector4@@QAE@MMMM@Z			; Vector4::Vector4
	push	eax
	mov	ecx, DWORD PTR ___$ReturnUdt$[ebp]
	call	??0Matrix4@@QAE@ABVVector4@@000@Z	; Matrix4::Matrix4
	mov	eax, DWORD PTR ___$ReturnUdt$[ebp]

; 120  : 	}

	pop	edi
	pop	esi
	pop	ebx
	mov	esp, ebp
	pop	ebp
	ret	4
?Transpose@Matrix4@@QBE?AV1@XZ ENDP			; Matrix4::Transpose
_TEXT	ENDS
; Function compile flags: /Odtp /ZI
; File x:\github\renegade\dragonade_rxd\scripts\matrix4.h
;	COMDAT ??AMatrix4@@QBEABVVector4@@H@Z
_TEXT	SEGMENT
_this$ = -4						; size = 4
_i$ = 8							; size = 4
??AMatrix4@@QBEABVVector4@@H@Z PROC			; Matrix4::operator[], COMDAT
; _this$ = ecx

; 116  : 	TT_INLINE const Vector4 & operator [] (int i) const { return Row[i]; }

	push	ebp
	mov	ebp, esp
	sub	esp, 68					; 00000044H
	push	ebx
	push	esi
	push	edi
	mov	DWORD PTR _this$[ebp], ecx
	mov	eax, DWORD PTR _i$[ebp]
	shl	eax, 4
	add	eax, DWORD PTR _this$[ebp]
	pop	edi
	pop	esi
	pop	ebx
	mov	esp, ebp
	pop	ebp
	ret	4
??AMatrix4@@QBEABVVector4@@H@Z ENDP			; Matrix4::operator[]
_TEXT	ENDS
; Function compile flags: /Odtp /ZI
; File x:\github\renegade\dragonade_rxd\scripts\matrix4.h
;	COMDAT ??AMatrix4@@QAEAAVVector4@@H@Z
_TEXT	SEGMENT
_this$ = -4						; size = 4
_i$ = 8							; size = 4
??AMatrix4@@QAEAAVVector4@@H@Z PROC			; Matrix4::operator[], COMDAT
; _this$ = ecx

; 115  : 	TT_INLINE Vector4 & operator [] (int i) { return Row[i]; }

	push	ebp
	mov	ebp, esp
	sub	esp, 68					; 00000044H
	push	ebx
	push	esi
	push	edi
	mov	DWORD PTR _this$[ebp], ecx
	mov	eax, DWORD PTR _i$[ebp]
	shl	eax, 4
	add	eax, DWORD PTR _this$[ebp]
	pop	edi
	pop	esi
	pop	ebx
	mov	esp, ebp
	pop	ebp
	ret	4
??AMatrix4@@QAEAAVVector4@@H@Z ENDP			; Matrix4::operator[]
_TEXT	ENDS
; Function compile flags: /Odtp /ZI
; File x:\github\renegade\dragonade_rxd\scripts\matrix4.h
;	COMDAT ?Init_Perspective@Matrix4@@QAEXMMMMMM@Z
_TEXT	SEGMENT
tv218 = -72						; size = 4
tv216 = -72						; size = 4
tv214 = -72						; size = 4
tv212 = -72						; size = 4
tv210 = -72						; size = 4
tv208 = -72						; size = 4
_this$ = -4						; size = 4
_left$ = 8						; size = 4
_right$ = 12						; size = 4
_bottom$ = 16						; size = 4
_top$ = 20						; size = 4
_znear$ = 24						; size = 4
_zfar$ = 28						; size = 4
?Init_Perspective@Matrix4@@QAEXMMMMMM@Z PROC		; Matrix4::Init_Perspective, COMDAT
; _this$ = ecx

; 103  : 	{

	push	ebp
	mov	ebp, esp
	sub	esp, 72					; 00000048H
	push	ebx
	push	esi
	push	edi
	mov	DWORD PTR _this$[ebp], ecx

; 104  : 		Make_Identity();

	mov	ecx, DWORD PTR _this$[ebp]
	call	?Make_Identity@Matrix4@@QAEXXZ		; Matrix4::Make_Identity

; 105  : 		Row[0][0] = static_cast<float>(2.0*znear / (right - left));

	cvtss2sd xmm0, DWORD PTR _znear$[ebp]
	mulsd	xmm0, QWORD PTR __real@4000000000000000
	movss	xmm1, DWORD PTR _right$[ebp]
	subss	xmm1, DWORD PTR _left$[ebp]
	cvtss2sd xmm1, xmm1
	divsd	xmm0, xmm1
	cvtsd2ss xmm0, xmm0
	push	0
	mov	ecx, 16					; 00000010H
	imul	ecx, 0
	add	ecx, DWORD PTR _this$[ebp]
	movss	DWORD PTR tv208[ebp], xmm0
	call	??AVector4@@QAEAAMH@Z			; Vector4::operator[]
	movss	xmm0, DWORD PTR tv208[ebp]
	movss	DWORD PTR [eax], xmm0

; 106  : 		Row[0][2] = (right + left) / (right - left);

	movss	xmm0, DWORD PTR _right$[ebp]
	addss	xmm0, DWORD PTR _left$[ebp]
	movss	xmm1, DWORD PTR _right$[ebp]
	subss	xmm1, DWORD PTR _left$[ebp]
	divss	xmm0, xmm1
	push	2
	mov	ecx, 16					; 00000010H
	imul	ecx, 0
	add	ecx, DWORD PTR _this$[ebp]
	movss	DWORD PTR tv210[ebp], xmm0
	call	??AVector4@@QAEAAMH@Z			; Vector4::operator[]
	movss	xmm0, DWORD PTR tv210[ebp]
	movss	DWORD PTR [eax], xmm0

; 107  : 		Row[1][1] = static_cast<float>(2.0*znear / (top - bottom));

	cvtss2sd xmm0, DWORD PTR _znear$[ebp]
	mulsd	xmm0, QWORD PTR __real@4000000000000000
	movss	xmm1, DWORD PTR _top$[ebp]
	subss	xmm1, DWORD PTR _bottom$[ebp]
	cvtss2sd xmm1, xmm1
	divsd	xmm0, xmm1
	cvtsd2ss xmm0, xmm0
	push	1
	mov	ecx, 16					; 00000010H
	shl	ecx, 0
	add	ecx, DWORD PTR _this$[ebp]
	movss	DWORD PTR tv212[ebp], xmm0
	call	??AVector4@@QAEAAMH@Z			; Vector4::operator[]
	movss	xmm0, DWORD PTR tv212[ebp]
	movss	DWORD PTR [eax], xmm0

; 108  : 		Row[1][2] = (top + bottom) / (top - bottom);

	movss	xmm0, DWORD PTR _top$[ebp]
	addss	xmm0, DWORD PTR _bottom$[ebp]
	movss	xmm1, DWORD PTR _top$[ebp]
	subss	xmm1, DWORD PTR _bottom$[ebp]
	divss	xmm0, xmm1
	push	2
	mov	ecx, 16					; 00000010H
	shl	ecx, 0
	add	ecx, DWORD PTR _this$[ebp]
	movss	DWORD PTR tv214[ebp], xmm0
	call	??AVector4@@QAEAAMH@Z			; Vector4::operator[]
	movss	xmm0, DWORD PTR tv214[ebp]
	movss	DWORD PTR [eax], xmm0

; 109  : 		Row[2][2] = zfar / (znear - zfar);

	movss	xmm0, DWORD PTR _znear$[ebp]
	subss	xmm0, DWORD PTR _zfar$[ebp]
	movss	xmm1, DWORD PTR _zfar$[ebp]
	divss	xmm1, xmm0
	push	2
	mov	ecx, 16					; 00000010H
	shl	ecx, 1
	add	ecx, DWORD PTR _this$[ebp]
	movss	DWORD PTR tv216[ebp], xmm1
	call	??AVector4@@QAEAAMH@Z			; Vector4::operator[]
	movss	xmm0, DWORD PTR tv216[ebp]
	movss	DWORD PTR [eax], xmm0

; 110  : 		Row[2][3] = (znear * zfar) / (znear - zfar);

	movss	xmm0, DWORD PTR _znear$[ebp]
	mulss	xmm0, DWORD PTR _zfar$[ebp]
	movss	xmm1, DWORD PTR _znear$[ebp]
	subss	xmm1, DWORD PTR _zfar$[ebp]
	divss	xmm0, xmm1
	push	3
	mov	ecx, 16					; 00000010H
	shl	ecx, 1
	add	ecx, DWORD PTR _this$[ebp]
	movss	DWORD PTR tv218[ebp], xmm0
	call	??AVector4@@QAEAAMH@Z			; Vector4::operator[]
	movss	xmm0, DWORD PTR tv218[ebp]
	movss	DWORD PTR [eax], xmm0

; 111  : 		Row[3][2] = -1.0f;

	push	2
	mov	ecx, 16					; 00000010H
	imul	ecx, 3
	add	ecx, DWORD PTR _this$[ebp]
	call	??AVector4@@QAEAAMH@Z			; Vector4::operator[]
	movss	xmm0, DWORD PTR __real@bf800000
	movss	DWORD PTR [eax], xmm0

; 112  : 		Row[3][3] = 0.0f;

	push	3
	mov	ecx, 16					; 00000010H
	imul	ecx, 3
	add	ecx, DWORD PTR _this$[ebp]
	call	??AVector4@@QAEAAMH@Z			; Vector4::operator[]
	movss	xmm0, DWORD PTR __real@00000000
	movss	DWORD PTR [eax], xmm0

; 113  : 	}

	pop	edi
	pop	esi
	pop	ebx
	mov	esp, ebp
	pop	ebp
	ret	24					; 00000018H
?Init_Perspective@Matrix4@@QAEXMMMMMM@Z ENDP		; Matrix4::Init_Perspective
_TEXT	ENDS
; Function compile flags: /Odtp /ZI
; File x:\github\renegade\dragonade_rxd\scripts\matrix4.h
;	COMDAT ?Init_Ortho@Matrix4@@QAEXMMMMMM@Z
_TEXT	SEGMENT
tv190 = -72						; size = 4
tv188 = -72						; size = 4
tv186 = -72						; size = 4
tv184 = -72						; size = 4
tv182 = -72						; size = 4
tv180 = -72						; size = 4
_this$ = -4						; size = 4
_left$ = 8						; size = 4
_right$ = 12						; size = 4
_bottom$ = 16						; size = 4
_top$ = 20						; size = 4
_znear$ = 24						; size = 4
_zfar$ = 28						; size = 4
?Init_Ortho@Matrix4@@QAEXMMMMMM@Z PROC			; Matrix4::Init_Ortho, COMDAT
; _this$ = ecx

; 92   : 	{

	push	ebp
	mov	ebp, esp
	sub	esp, 72					; 00000048H
	push	ebx
	push	esi
	push	edi
	mov	DWORD PTR _this$[ebp], ecx

; 93   : 		Make_Identity();

	mov	ecx, DWORD PTR _this$[ebp]
	call	?Make_Identity@Matrix4@@QAEXXZ		; Matrix4::Make_Identity

; 94   : 		Row[0][0] = 2.0f / (right - left);

	movss	xmm0, DWORD PTR _right$[ebp]
	subss	xmm0, DWORD PTR _left$[ebp]
	movss	xmm1, DWORD PTR __real@40000000
	divss	xmm1, xmm0
	push	0
	mov	ecx, 16					; 00000010H
	imul	ecx, 0
	add	ecx, DWORD PTR _this$[ebp]
	movss	DWORD PTR tv180[ebp], xmm1
	call	??AVector4@@QAEAAMH@Z			; Vector4::operator[]
	movss	xmm0, DWORD PTR tv180[ebp]
	movss	DWORD PTR [eax], xmm0

; 95   : 		Row[0][3] = (left + right) / (left - right);

	movss	xmm0, DWORD PTR _left$[ebp]
	addss	xmm0, DWORD PTR _right$[ebp]
	movss	xmm1, DWORD PTR _left$[ebp]
	subss	xmm1, DWORD PTR _right$[ebp]
	divss	xmm0, xmm1
	push	3
	mov	ecx, 16					; 00000010H
	imul	ecx, 0
	add	ecx, DWORD PTR _this$[ebp]
	movss	DWORD PTR tv182[ebp], xmm0
	call	??AVector4@@QAEAAMH@Z			; Vector4::operator[]
	movss	xmm0, DWORD PTR tv182[ebp]
	movss	DWORD PTR [eax], xmm0

; 96   : 		Row[1][1] = 2.0f / (top - bottom);

	movss	xmm0, DWORD PTR _top$[ebp]
	subss	xmm0, DWORD PTR _bottom$[ebp]
	movss	xmm1, DWORD PTR __real@40000000
	divss	xmm1, xmm0
	push	1
	mov	ecx, 16					; 00000010H
	shl	ecx, 0
	add	ecx, DWORD PTR _this$[ebp]
	movss	DWORD PTR tv184[ebp], xmm1
	call	??AVector4@@QAEAAMH@Z			; Vector4::operator[]
	movss	xmm0, DWORD PTR tv184[ebp]
	movss	DWORD PTR [eax], xmm0

; 97   : 		Row[1][3] = (top + bottom) / (bottom - top);

	movss	xmm0, DWORD PTR _top$[ebp]
	addss	xmm0, DWORD PTR _bottom$[ebp]
	movss	xmm1, DWORD PTR _bottom$[ebp]
	subss	xmm1, DWORD PTR _top$[ebp]
	divss	xmm0, xmm1
	push	3
	mov	ecx, 16					; 00000010H
	shl	ecx, 0
	add	ecx, DWORD PTR _this$[ebp]
	movss	DWORD PTR tv186[ebp], xmm0
	call	??AVector4@@QAEAAMH@Z			; Vector4::operator[]
	movss	xmm0, DWORD PTR tv186[ebp]
	movss	DWORD PTR [eax], xmm0

; 98   : 		Row[2][2] = 1.0f / (znear - zfar);

	movss	xmm0, DWORD PTR _znear$[ebp]
	subss	xmm0, DWORD PTR _zfar$[ebp]
	movss	xmm1, DWORD PTR __real@3f800000
	divss	xmm1, xmm0
	push	2
	mov	ecx, 16					; 00000010H
	shl	ecx, 1
	add	ecx, DWORD PTR _this$[ebp]
	movss	DWORD PTR tv188[ebp], xmm1
	call	??AVector4@@QAEAAMH@Z			; Vector4::operator[]
	movss	xmm0, DWORD PTR tv188[ebp]
	movss	DWORD PTR [eax], xmm0

; 99   : 		Row[2][3] = znear / (znear - zfar);

	movss	xmm0, DWORD PTR _znear$[ebp]
	subss	xmm0, DWORD PTR _zfar$[ebp]
	movss	xmm1, DWORD PTR _znear$[ebp]
	divss	xmm1, xmm0
	push	3
	mov	ecx, 16					; 00000010H
	shl	ecx, 1
	add	ecx, DWORD PTR _this$[ebp]
	movss	DWORD PTR tv190[ebp], xmm1
	call	??AVector4@@QAEAAMH@Z			; Vector4::operator[]
	movss	xmm0, DWORD PTR tv190[ebp]
	movss	DWORD PTR [eax], xmm0

; 100  : 
; 101  : 	}

	pop	edi
	pop	esi
	pop	ebx
	mov	esp, ebp
	pop	ebp
	ret	24					; 00000018H
?Init_Ortho@Matrix4@@QAEXMMMMMM@Z ENDP			; Matrix4::Init_Ortho
_TEXT	ENDS
; Function compile flags: /Odtp /ZI
; File x:\github\renegade\dragonade_rxd\scripts\matrix4.h
;	COMDAT ?Init_Perspective_OGL@Matrix4@@QAEXMMMMMM@Z
_TEXT	SEGMENT
tv227 = -72						; size = 4
tv225 = -72						; size = 4
tv223 = -72						; size = 4
tv221 = -72						; size = 4
tv219 = -72						; size = 4
tv217 = -72						; size = 4
_this$ = -4						; size = 4
_left$ = 8						; size = 4
_right$ = 12						; size = 4
_bottom$ = 16						; size = 4
_top$ = 20						; size = 4
_znear$ = 24						; size = 4
_zfar$ = 28						; size = 4
?Init_Perspective_OGL@Matrix4@@QAEXMMMMMM@Z PROC	; Matrix4::Init_Perspective_OGL, COMDAT
; _this$ = ecx

; 80   : 	{

	push	ebp
	mov	ebp, esp
	sub	esp, 72					; 00000048H
	push	ebx
	push	esi
	push	edi
	mov	DWORD PTR _this$[ebp], ecx

; 81   : 		Make_Identity();

	mov	ecx, DWORD PTR _this$[ebp]
	call	?Make_Identity@Matrix4@@QAEXXZ		; Matrix4::Make_Identity

; 82   : 		Row[0][0] = static_cast<float>(2.0*znear / (right - left));

	cvtss2sd xmm0, DWORD PTR _znear$[ebp]
	mulsd	xmm0, QWORD PTR __real@4000000000000000
	movss	xmm1, DWORD PTR _right$[ebp]
	subss	xmm1, DWORD PTR _left$[ebp]
	cvtss2sd xmm1, xmm1
	divsd	xmm0, xmm1
	cvtsd2ss xmm0, xmm0
	push	0
	mov	ecx, 16					; 00000010H
	imul	ecx, 0
	add	ecx, DWORD PTR _this$[ebp]
	movss	DWORD PTR tv217[ebp], xmm0
	call	??AVector4@@QAEAAMH@Z			; Vector4::operator[]
	movss	xmm0, DWORD PTR tv217[ebp]
	movss	DWORD PTR [eax], xmm0

; 83   : 		Row[0][2] = (right + left) / (right - left);

	movss	xmm0, DWORD PTR _right$[ebp]
	addss	xmm0, DWORD PTR _left$[ebp]
	movss	xmm1, DWORD PTR _right$[ebp]
	subss	xmm1, DWORD PTR _left$[ebp]
	divss	xmm0, xmm1
	push	2
	mov	ecx, 16					; 00000010H
	imul	ecx, 0
	add	ecx, DWORD PTR _this$[ebp]
	movss	DWORD PTR tv219[ebp], xmm0
	call	??AVector4@@QAEAAMH@Z			; Vector4::operator[]
	movss	xmm0, DWORD PTR tv219[ebp]
	movss	DWORD PTR [eax], xmm0

; 84   : 		Row[1][1] = static_cast<float>(2.0*znear / (top - bottom));

	cvtss2sd xmm0, DWORD PTR _znear$[ebp]
	mulsd	xmm0, QWORD PTR __real@4000000000000000
	movss	xmm1, DWORD PTR _top$[ebp]
	subss	xmm1, DWORD PTR _bottom$[ebp]
	cvtss2sd xmm1, xmm1
	divsd	xmm0, xmm1
	cvtsd2ss xmm0, xmm0
	push	1
	mov	ecx, 16					; 00000010H
	shl	ecx, 0
	add	ecx, DWORD PTR _this$[ebp]
	movss	DWORD PTR tv221[ebp], xmm0
	call	??AVector4@@QAEAAMH@Z			; Vector4::operator[]
	movss	xmm0, DWORD PTR tv221[ebp]
	movss	DWORD PTR [eax], xmm0

; 85   : 		Row[1][2] = (top + bottom) / (top - bottom);

	movss	xmm0, DWORD PTR _top$[ebp]
	addss	xmm0, DWORD PTR _bottom$[ebp]
	movss	xmm1, DWORD PTR _top$[ebp]
	subss	xmm1, DWORD PTR _bottom$[ebp]
	divss	xmm0, xmm1
	push	2
	mov	ecx, 16					; 00000010H
	shl	ecx, 0
	add	ecx, DWORD PTR _this$[ebp]
	movss	DWORD PTR tv223[ebp], xmm0
	call	??AVector4@@QAEAAMH@Z			; Vector4::operator[]
	movss	xmm0, DWORD PTR tv223[ebp]
	movss	DWORD PTR [eax], xmm0

; 86   : 		Row[2][2] = -(zfar + znear) / (zfar - znear);

	movss	xmm0, DWORD PTR _zfar$[ebp]
	addss	xmm0, DWORD PTR _znear$[ebp]
	xorps	xmm0, DWORD PTR __xmm@80000000800000008000000080000000
	movss	xmm1, DWORD PTR _zfar$[ebp]
	subss	xmm1, DWORD PTR _znear$[ebp]
	divss	xmm0, xmm1
	push	2
	mov	ecx, 16					; 00000010H
	shl	ecx, 1
	add	ecx, DWORD PTR _this$[ebp]
	movss	DWORD PTR tv225[ebp], xmm0
	call	??AVector4@@QAEAAMH@Z			; Vector4::operator[]
	movss	xmm0, DWORD PTR tv225[ebp]
	movss	DWORD PTR [eax], xmm0

; 87   : 		Row[2][3] = static_cast<float>(-(2.0*zfar*znear) / (zfar - znear));

	cvtss2sd xmm0, DWORD PTR _zfar$[ebp]
	mulsd	xmm0, QWORD PTR __real@4000000000000000
	cvtss2sd xmm1, DWORD PTR _znear$[ebp]
	mulsd	xmm0, xmm1
	xorpd	xmm0, QWORD PTR __xmm@80000000000000008000000000000000
	movss	xmm1, DWORD PTR _zfar$[ebp]
	subss	xmm1, DWORD PTR _znear$[ebp]
	cvtss2sd xmm1, xmm1
	divsd	xmm0, xmm1
	cvtsd2ss xmm0, xmm0
	push	3
	mov	ecx, 16					; 00000010H
	shl	ecx, 1
	add	ecx, DWORD PTR _this$[ebp]
	movss	DWORD PTR tv227[ebp], xmm0
	call	??AVector4@@QAEAAMH@Z			; Vector4::operator[]
	movss	xmm0, DWORD PTR tv227[ebp]
	movss	DWORD PTR [eax], xmm0

; 88   : 		Row[3][2] = -1.0f;

	push	2
	mov	ecx, 16					; 00000010H
	imul	ecx, 3
	add	ecx, DWORD PTR _this$[ebp]
	call	??AVector4@@QAEAAMH@Z			; Vector4::operator[]
	movss	xmm0, DWORD PTR __real@bf800000
	movss	DWORD PTR [eax], xmm0

; 89   : 		Row[3][3] = 0.0f;

	push	3
	mov	ecx, 16					; 00000010H
	imul	ecx, 3
	add	ecx, DWORD PTR _this$[ebp]
	call	??AVector4@@QAEAAMH@Z			; Vector4::operator[]
	movss	xmm0, DWORD PTR __real@00000000
	movss	DWORD PTR [eax], xmm0

; 90   : 	}

	pop	edi
	pop	esi
	pop	ebx
	mov	esp, ebp
	pop	ebp
	ret	24					; 00000018H
?Init_Perspective_OGL@Matrix4@@QAEXMMMMMM@Z ENDP	; Matrix4::Init_Perspective_OGL
_TEXT	ENDS
; Function compile flags: /Odtp /ZI
; File x:\github\renegade\dragonade_rxd\scripts\matrix4.h
;	COMDAT ?Init_Perspective_OGL@Matrix4@@QAEXMMMM@Z
_TEXT	SEGMENT
tv191 = -72						; size = 4
tv189 = -72						; size = 4
tv187 = -72						; size = 4
tv185 = -72						; size = 4
_this$ = -4						; size = 4
_hfov$ = 8						; size = 4
_vfov$ = 12						; size = 4
_znear$ = 16						; size = 4
_zfar$ = 20						; size = 4
?Init_Perspective_OGL@Matrix4@@QAEXMMMM@Z PROC		; Matrix4::Init_Perspective_OGL, COMDAT
; _this$ = ecx

; 70   : 	{

	push	ebp
	mov	ebp, esp
	sub	esp, 72					; 00000048H
	push	ebx
	push	esi
	push	edi
	mov	DWORD PTR _this$[ebp], ecx

; 71   : 		Make_Identity();

	mov	ecx, DWORD PTR _this$[ebp]
	call	?Make_Identity@Matrix4@@QAEXXZ		; Matrix4::Make_Identity

; 72   : 		Row[0][0] = static_cast<float>(1.0 / tan(hfov*0.5));

	cvtss2sd xmm0, DWORD PTR _hfov$[ebp]
	mulsd	xmm0, QWORD PTR __real@3fe0000000000000
	call	__libm_sse2_tan_precise
	movsd	xmm1, QWORD PTR __real@3ff0000000000000
	divsd	xmm1, xmm0
	cvtsd2ss xmm0, xmm1
	push	0
	mov	ecx, 16					; 00000010H
	imul	ecx, 0
	add	ecx, DWORD PTR _this$[ebp]
	movss	DWORD PTR tv185[ebp], xmm0
	call	??AVector4@@QAEAAMH@Z			; Vector4::operator[]
	movss	xmm0, DWORD PTR tv185[ebp]
	movss	DWORD PTR [eax], xmm0

; 73   : 		Row[1][1] = static_cast<float>(1.0 / tan(vfov*0.5));

	cvtss2sd xmm0, DWORD PTR _vfov$[ebp]
	mulsd	xmm0, QWORD PTR __real@3fe0000000000000
	call	__libm_sse2_tan_precise
	movsd	xmm1, QWORD PTR __real@3ff0000000000000
	divsd	xmm1, xmm0
	cvtsd2ss xmm0, xmm1
	push	1
	mov	ecx, 16					; 00000010H
	shl	ecx, 0
	add	ecx, DWORD PTR _this$[ebp]
	movss	DWORD PTR tv187[ebp], xmm0
	call	??AVector4@@QAEAAMH@Z			; Vector4::operator[]
	movss	xmm0, DWORD PTR tv187[ebp]
	movss	DWORD PTR [eax], xmm0

; 74   : 		Row[2][2] = -(zfar + znear) / (zfar - znear);

	movss	xmm0, DWORD PTR _zfar$[ebp]
	addss	xmm0, DWORD PTR _znear$[ebp]
	xorps	xmm0, DWORD PTR __xmm@80000000800000008000000080000000
	movss	xmm1, DWORD PTR _zfar$[ebp]
	subss	xmm1, DWORD PTR _znear$[ebp]
	divss	xmm0, xmm1
	push	2
	mov	ecx, 16					; 00000010H
	shl	ecx, 1
	add	ecx, DWORD PTR _this$[ebp]
	movss	DWORD PTR tv189[ebp], xmm0
	call	??AVector4@@QAEAAMH@Z			; Vector4::operator[]
	movss	xmm0, DWORD PTR tv189[ebp]
	movss	DWORD PTR [eax], xmm0

; 75   : 		Row[2][3] = static_cast<float>(-(2.0*zfar*znear) / (zfar - znear));

	cvtss2sd xmm0, DWORD PTR _zfar$[ebp]
	mulsd	xmm0, QWORD PTR __real@4000000000000000
	cvtss2sd xmm1, DWORD PTR _znear$[ebp]
	mulsd	xmm0, xmm1
	xorpd	xmm0, QWORD PTR __xmm@80000000000000008000000000000000
	movss	xmm1, DWORD PTR _zfar$[ebp]
	subss	xmm1, DWORD PTR _znear$[ebp]
	cvtss2sd xmm1, xmm1
	divsd	xmm0, xmm1
	cvtsd2ss xmm0, xmm0
	push	3
	mov	ecx, 16					; 00000010H
	shl	ecx, 1
	add	ecx, DWORD PTR _this$[ebp]
	movss	DWORD PTR tv191[ebp], xmm0
	call	??AVector4@@QAEAAMH@Z			; Vector4::operator[]
	movss	xmm0, DWORD PTR tv191[ebp]
	movss	DWORD PTR [eax], xmm0

; 76   : 		Row[3][2] = -1.0f;

	push	2
	mov	ecx, 16					; 00000010H
	imul	ecx, 3
	add	ecx, DWORD PTR _this$[ebp]
	call	??AVector4@@QAEAAMH@Z			; Vector4::operator[]
	movss	xmm0, DWORD PTR __real@bf800000
	movss	DWORD PTR [eax], xmm0

; 77   : 		Row[3][3] = 0.0f;

	push	3
	mov	ecx, 16					; 00000010H
	imul	ecx, 3
	add	ecx, DWORD PTR _this$[ebp]
	call	??AVector4@@QAEAAMH@Z			; Vector4::operator[]
	movss	xmm0, DWORD PTR __real@00000000
	movss	DWORD PTR [eax], xmm0

; 78   : 	}

	pop	edi
	pop	esi
	pop	ebx
	mov	esp, ebp
	pop	ebp
	ret	16					; 00000010H
?Init_Perspective_OGL@Matrix4@@QAEXMMMM@Z ENDP		; Matrix4::Init_Perspective_OGL
_TEXT	ENDS
; Function compile flags: /Odtp /ZI
; File x:\github\renegade\dragonade_rxd\scripts\matrix4.h
;	COMDAT ?Init_Ortho_OGL@Matrix4@@QAEXMMMMMM@Z
_TEXT	SEGMENT
tv195 = -72						; size = 4
tv193 = -72						; size = 4
tv191 = -72						; size = 4
tv189 = -72						; size = 4
tv187 = -72						; size = 4
tv185 = -72						; size = 4
_this$ = -4						; size = 4
_left$ = 8						; size = 4
_right$ = 12						; size = 4
_bottom$ = 16						; size = 4
_top$ = 20						; size = 4
_znear$ = 24						; size = 4
_zfar$ = 28						; size = 4
?Init_Ortho_OGL@Matrix4@@QAEXMMMMMM@Z PROC		; Matrix4::Init_Ortho_OGL, COMDAT
; _this$ = ecx

; 59   : 	{

	push	ebp
	mov	ebp, esp
	sub	esp, 72					; 00000048H
	push	ebx
	push	esi
	push	edi
	mov	DWORD PTR _this$[ebp], ecx

; 60   : 		Make_Identity();

	mov	ecx, DWORD PTR _this$[ebp]
	call	?Make_Identity@Matrix4@@QAEXXZ		; Matrix4::Make_Identity

; 61   : 		Row[0][0] = 2.0f / (right - left);

	movss	xmm0, DWORD PTR _right$[ebp]
	subss	xmm0, DWORD PTR _left$[ebp]
	movss	xmm1, DWORD PTR __real@40000000
	divss	xmm1, xmm0
	push	0
	mov	ecx, 16					; 00000010H
	imul	ecx, 0
	add	ecx, DWORD PTR _this$[ebp]
	movss	DWORD PTR tv185[ebp], xmm1
	call	??AVector4@@QAEAAMH@Z			; Vector4::operator[]
	movss	xmm0, DWORD PTR tv185[ebp]
	movss	DWORD PTR [eax], xmm0

; 62   : 		Row[0][3] = -(right + left) / (right - left);

	movss	xmm0, DWORD PTR _right$[ebp]
	addss	xmm0, DWORD PTR _left$[ebp]
	xorps	xmm0, DWORD PTR __xmm@80000000800000008000000080000000
	movss	xmm1, DWORD PTR _right$[ebp]
	subss	xmm1, DWORD PTR _left$[ebp]
	divss	xmm0, xmm1
	push	3
	mov	ecx, 16					; 00000010H
	imul	ecx, 0
	add	ecx, DWORD PTR _this$[ebp]
	movss	DWORD PTR tv187[ebp], xmm0
	call	??AVector4@@QAEAAMH@Z			; Vector4::operator[]
	movss	xmm0, DWORD PTR tv187[ebp]
	movss	DWORD PTR [eax], xmm0

; 63   : 		Row[1][1] = 2.0f / (top - bottom);

	movss	xmm0, DWORD PTR _top$[ebp]
	subss	xmm0, DWORD PTR _bottom$[ebp]
	movss	xmm1, DWORD PTR __real@40000000
	divss	xmm1, xmm0
	push	1
	mov	ecx, 16					; 00000010H
	shl	ecx, 0
	add	ecx, DWORD PTR _this$[ebp]
	movss	DWORD PTR tv189[ebp], xmm1
	call	??AVector4@@QAEAAMH@Z			; Vector4::operator[]
	movss	xmm0, DWORD PTR tv189[ebp]
	movss	DWORD PTR [eax], xmm0

; 64   : 		Row[1][3] = -(top + bottom) / (top - bottom);

	movss	xmm0, DWORD PTR _top$[ebp]
	addss	xmm0, DWORD PTR _bottom$[ebp]
	xorps	xmm0, DWORD PTR __xmm@80000000800000008000000080000000
	movss	xmm1, DWORD PTR _top$[ebp]
	subss	xmm1, DWORD PTR _bottom$[ebp]
	divss	xmm0, xmm1
	push	3
	mov	ecx, 16					; 00000010H
	shl	ecx, 0
	add	ecx, DWORD PTR _this$[ebp]
	movss	DWORD PTR tv191[ebp], xmm0
	call	??AVector4@@QAEAAMH@Z			; Vector4::operator[]
	movss	xmm0, DWORD PTR tv191[ebp]
	movss	DWORD PTR [eax], xmm0

; 65   : 		Row[2][2] = -2.0f / (zfar - znear);

	movss	xmm0, DWORD PTR _zfar$[ebp]
	subss	xmm0, DWORD PTR _znear$[ebp]
	movss	xmm1, DWORD PTR __real@c0000000
	divss	xmm1, xmm0
	push	2
	mov	ecx, 16					; 00000010H
	shl	ecx, 1
	add	ecx, DWORD PTR _this$[ebp]
	movss	DWORD PTR tv193[ebp], xmm1
	call	??AVector4@@QAEAAMH@Z			; Vector4::operator[]
	movss	xmm0, DWORD PTR tv193[ebp]
	movss	DWORD PTR [eax], xmm0

; 66   : 		Row[2][3] = -(zfar + znear) / (zfar - znear);

	movss	xmm0, DWORD PTR _zfar$[ebp]
	addss	xmm0, DWORD PTR _znear$[ebp]
	xorps	xmm0, DWORD PTR __xmm@80000000800000008000000080000000
	movss	xmm1, DWORD PTR _zfar$[ebp]
	subss	xmm1, DWORD PTR _znear$[ebp]
	divss	xmm0, xmm1
	push	3
	mov	ecx, 16					; 00000010H
	shl	ecx, 1
	add	ecx, DWORD PTR _this$[ebp]
	movss	DWORD PTR tv195[ebp], xmm0
	call	??AVector4@@QAEAAMH@Z			; Vector4::operator[]
	movss	xmm0, DWORD PTR tv195[ebp]
	movss	DWORD PTR [eax], xmm0

; 67   : 
; 68   : 	}

	pop	edi
	pop	esi
	pop	ebx
	mov	esp, ebp
	pop	ebp
	ret	24					; 00000018H
?Init_Ortho_OGL@Matrix4@@QAEXMMMMMM@Z ENDP		; Matrix4::Init_Ortho_OGL
_TEXT	ENDS
; Function compile flags: /Odtp /ZI
; File x:\github\renegade\dragonade_rxd\scripts\matrix4.h
;	COMDAT ?Init@Matrix4@@QAEXABVVector4@@000@Z
_TEXT	SEGMENT
_this$ = -4						; size = 4
_v0$ = 8						; size = 4
_v1$ = 12						; size = 4
_v2$ = 16						; size = 4
_v3$ = 20						; size = 4
?Init@Matrix4@@QAEXABVVector4@@000@Z PROC		; Matrix4::Init, COMDAT
; _this$ = ecx

; 55   : 	{

	push	ebp
	mov	ebp, esp
	sub	esp, 68					; 00000044H
	push	ebx
	push	esi
	push	edi
	mov	DWORD PTR _this$[ebp], ecx

; 56   : 		Row[0] = v0; Row[1] = v1; Row[2] = v2; Row[3] = v3;

	mov	eax, DWORD PTR _v0$[ebp]
	push	eax
	mov	ecx, 16					; 00000010H
	imul	ecx, 0
	add	ecx, DWORD PTR _this$[ebp]
	call	??4Vector4@@QAEAAV0@ABV0@@Z		; Vector4::operator=
	mov	eax, DWORD PTR _v1$[ebp]
	push	eax
	mov	ecx, 16					; 00000010H
	shl	ecx, 0
	add	ecx, DWORD PTR _this$[ebp]
	call	??4Vector4@@QAEAAV0@ABV0@@Z		; Vector4::operator=
	mov	eax, DWORD PTR _v2$[ebp]
	push	eax
	mov	ecx, 16					; 00000010H
	shl	ecx, 1
	add	ecx, DWORD PTR _this$[ebp]
	call	??4Vector4@@QAEAAV0@ABV0@@Z		; Vector4::operator=
	mov	eax, DWORD PTR _v3$[ebp]
	push	eax
	mov	ecx, 16					; 00000010H
	imul	ecx, 3
	add	ecx, DWORD PTR _this$[ebp]
	call	??4Vector4@@QAEAAV0@ABV0@@Z		; Vector4::operator=

; 57   : 	}

	pop	edi
	pop	esi
	pop	ebx
	mov	esp, ebp
	pop	ebp
	ret	16					; 00000010H
?Init@Matrix4@@QAEXABVVector4@@000@Z ENDP		; Matrix4::Init
_TEXT	ENDS
; Function compile flags: /Odtp /ZI
; File x:\github\renegade\dragonade_rxd\scripts\matrix4.h
;	COMDAT ?Init@Matrix4@@QAEXABVMatrix3D@@@Z
_TEXT	SEGMENT
$T1 = -84						; size = 16
_this$ = -4						; size = 4
_m$ = 8							; size = 4
?Init@Matrix4@@QAEXABVMatrix3D@@@Z PROC			; Matrix4::Init, COMDAT
; _this$ = ecx

; 51   : 	{

	push	ebp
	mov	ebp, esp
	sub	esp, 84					; 00000054H
	push	ebx
	push	esi
	push	edi
	mov	DWORD PTR _this$[ebp], ecx

; 52   : 		Row[0] = m[0]; Row[1] = m[1]; Row[2] = m[2]; Row[3] = Vector4(0.0,0.0,0.0,1.0); 

	push	0
	mov	ecx, DWORD PTR _m$[ebp]
	call	??AMatrix3D@@QBEABVVector4@@H@Z		; Matrix3D::operator[]
	push	eax
	mov	ecx, 16					; 00000010H
	imul	ecx, 0
	add	ecx, DWORD PTR _this$[ebp]
	call	??4Vector4@@QAEAAV0@ABV0@@Z		; Vector4::operator=
	push	1
	mov	ecx, DWORD PTR _m$[ebp]
	call	??AMatrix3D@@QBEABVVector4@@H@Z		; Matrix3D::operator[]
	push	eax
	mov	ecx, 16					; 00000010H
	shl	ecx, 0
	add	ecx, DWORD PTR _this$[ebp]
	call	??4Vector4@@QAEAAV0@ABV0@@Z		; Vector4::operator=
	push	2
	mov	ecx, DWORD PTR _m$[ebp]
	call	??AMatrix3D@@QBEABVVector4@@H@Z		; Matrix3D::operator[]
	push	eax
	mov	ecx, 16					; 00000010H
	shl	ecx, 1
	add	ecx, DWORD PTR _this$[ebp]
	call	??4Vector4@@QAEAAV0@ABV0@@Z		; Vector4::operator=
	push	ecx
	movss	xmm0, DWORD PTR __real@3f800000
	movss	DWORD PTR [esp], xmm0
	push	ecx
	movss	xmm0, DWORD PTR __real@00000000
	movss	DWORD PTR [esp], xmm0
	push	ecx
	movss	xmm0, DWORD PTR __real@00000000
	movss	DWORD PTR [esp], xmm0
	push	ecx
	movss	xmm0, DWORD PTR __real@00000000
	movss	DWORD PTR [esp], xmm0
	lea	ecx, DWORD PTR $T1[ebp]
	call	??0Vector4@@QAE@MMMM@Z			; Vector4::Vector4
	push	eax
	mov	ecx, 16					; 00000010H
	imul	ecx, 3
	add	ecx, DWORD PTR _this$[ebp]
	call	??4Vector4@@QAEAAV0@ABV0@@Z		; Vector4::operator=

; 53   : 	}

	pop	edi
	pop	esi
	pop	ebx
	mov	esp, ebp
	pop	ebp
	ret	4
?Init@Matrix4@@QAEXABVMatrix3D@@@Z ENDP			; Matrix4::Init
_TEXT	ENDS
; Function compile flags: /Odtp /ZI
; File x:\github\renegade\dragonade_rxd\scripts\matrix4.h
;	COMDAT ?Make_Identity@Matrix4@@QAEXXZ
_TEXT	SEGMENT
_this$ = -4						; size = 4
?Make_Identity@Matrix4@@QAEXXZ PROC			; Matrix4::Make_Identity, COMDAT
; _this$ = ecx

; 44   : 	{

	push	ebp
	mov	ebp, esp
	sub	esp, 68					; 00000044H
	push	ebx
	push	esi
	push	edi
	mov	DWORD PTR _this$[ebp], ecx

; 45   : 		Row[0].Set(1.0,0.0,0.0,0.0);

	push	ecx
	movss	xmm0, DWORD PTR __real@00000000
	movss	DWORD PTR [esp], xmm0
	push	ecx
	movss	xmm0, DWORD PTR __real@00000000
	movss	DWORD PTR [esp], xmm0
	push	ecx
	movss	xmm0, DWORD PTR __real@00000000
	movss	DWORD PTR [esp], xmm0
	push	ecx
	movss	xmm0, DWORD PTR __real@3f800000
	movss	DWORD PTR [esp], xmm0
	mov	ecx, 16					; 00000010H
	imul	ecx, 0
	add	ecx, DWORD PTR _this$[ebp]
	call	?Set@Vector4@@QAEXMMMM@Z		; Vector4::Set

; 46   : 		Row[1].Set(0.0,1.0,0.0,0.0);

	push	ecx
	movss	xmm0, DWORD PTR __real@00000000
	movss	DWORD PTR [esp], xmm0
	push	ecx
	movss	xmm0, DWORD PTR __real@00000000
	movss	DWORD PTR [esp], xmm0
	push	ecx
	movss	xmm0, DWORD PTR __real@3f800000
	movss	DWORD PTR [esp], xmm0
	push	ecx
	movss	xmm0, DWORD PTR __real@00000000
	movss	DWORD PTR [esp], xmm0
	mov	ecx, 16					; 00000010H
	shl	ecx, 0
	add	ecx, DWORD PTR _this$[ebp]
	call	?Set@Vector4@@QAEXMMMM@Z		; Vector4::Set

; 47   : 		Row[2].Set(0.0,0.0,1.0,0.0);

	push	ecx
	movss	xmm0, DWORD PTR __real@00000000
	movss	DWORD PTR [esp], xmm0
	push	ecx
	movss	xmm0, DWORD PTR __real@3f800000
	movss	DWORD PTR [esp], xmm0
	push	ecx
	movss	xmm0, DWORD PTR __real@00000000
	movss	DWORD PTR [esp], xmm0
	push	ecx
	movss	xmm0, DWORD PTR __real@00000000
	movss	DWORD PTR [esp], xmm0
	mov	ecx, 16					; 00000010H
	shl	ecx, 1
	add	ecx, DWORD PTR _this$[ebp]
	call	?Set@Vector4@@QAEXMMMM@Z		; Vector4::Set

; 48   : 		Row[3].Set(0.0,0.0,0.0,1.0);

	push	ecx
	movss	xmm0, DWORD PTR __real@3f800000
	movss	DWORD PTR [esp], xmm0
	push	ecx
	movss	xmm0, DWORD PTR __real@00000000
	movss	DWORD PTR [esp], xmm0
	push	ecx
	movss	xmm0, DWORD PTR __real@00000000
	movss	DWORD PTR [esp], xmm0
	push	ecx
	movss	xmm0, DWORD PTR __real@00000000
	movss	DWORD PTR [esp], xmm0
	mov	ecx, 16					; 00000010H
	imul	ecx, 3
	add	ecx, DWORD PTR _this$[ebp]
	call	?Set@Vector4@@QAEXMMMM@Z		; Vector4::Set

; 49   : 	}

	pop	edi
	pop	esi
	pop	ebx
	mov	esp, ebp
	pop	ebp
	ret	0
?Make_Identity@Matrix4@@QAEXXZ ENDP			; Matrix4::Make_Identity
_TEXT	ENDS
; Function compile flags: /Odtp /ZI
; File x:\github\renegade\dragonade_rxd\scripts\matrix4.h
;	COMDAT ??0Matrix4@@QAE@ABVVector4@@000@Z
_TEXT	SEGMENT
_this$ = -4						; size = 4
_v0$ = 8						; size = 4
_v1$ = 12						; size = 4
_v2$ = 16						; size = 4
_v3$ = 20						; size = 4
??0Matrix4@@QAE@ABVVector4@@000@Z PROC			; Matrix4::Matrix4, COMDAT
; _this$ = ecx

; 40   : 	TT_INLINE explicit Matrix4(const Vector4 & v0, const Vector4 & v1, const Vector4 & v2, const Vector4 & v3)	{

	push	ebp
	mov	ebp, esp
	sub	esp, 68					; 00000044H
	push	ebx
	push	esi
	push	edi
	mov	DWORD PTR _this$[ebp], ecx
	push	OFFSET ??0Vector4@@QAE@XZ		; Vector4::Vector4
	push	4
	push	16					; 00000010H
	mov	eax, DWORD PTR _this$[ebp]
	push	eax
	call	??_H@YGXPAXIHP6EPAX0@Z@Z

; 41   : 		Init(v0,v1,v2,v3);

	mov	eax, DWORD PTR _v3$[ebp]
	push	eax
	mov	ecx, DWORD PTR _v2$[ebp]
	push	ecx
	mov	edx, DWORD PTR _v1$[ebp]
	push	edx
	mov	eax, DWORD PTR _v0$[ebp]
	push	eax
	mov	ecx, DWORD PTR _this$[ebp]
	call	?Init@Matrix4@@QAEXABVVector4@@000@Z	; Matrix4::Init

; 42   : 	}

	mov	eax, DWORD PTR _this$[ebp]
	pop	edi
	pop	esi
	pop	ebx
	mov	esp, ebp
	pop	ebp
	ret	16					; 00000010H
??0Matrix4@@QAE@ABVVector4@@000@Z ENDP			; Matrix4::Matrix4
_TEXT	ENDS
; Function compile flags: /Odtp /ZI
; File x:\github\renegade\dragonade_rxd\scripts\matrix4.h
;	COMDAT ??0Matrix4@@QAE@ABVMatrix3D@@@Z
_TEXT	SEGMENT
_this$ = -4						; size = 4
_m$ = 8							; size = 4
??0Matrix4@@QAE@ABVMatrix3D@@@Z PROC			; Matrix4::Matrix4, COMDAT
; _this$ = ecx

; 36   : 	TT_INLINE explicit Matrix4(const Matrix3D & m)

	push	ebp
	mov	ebp, esp
	sub	esp, 68					; 00000044H
	push	ebx
	push	esi
	push	edi
	mov	DWORD PTR _this$[ebp], ecx
	push	OFFSET ??0Vector4@@QAE@XZ		; Vector4::Vector4
	push	4
	push	16					; 00000010H
	mov	eax, DWORD PTR _this$[ebp]
	push	eax
	call	??_H@YGXPAXIHP6EPAX0@Z@Z

; 37   : 	{
; 38   : 		Init(m);

	mov	eax, DWORD PTR _m$[ebp]
	push	eax
	mov	ecx, DWORD PTR _this$[ebp]
	call	?Init@Matrix4@@QAEXABVMatrix3D@@@Z	; Matrix4::Init

; 39   : 	}

	mov	eax, DWORD PTR _this$[ebp]
	pop	edi
	pop	esi
	pop	ebx
	mov	esp, ebp
	pop	ebp
	ret	4
??0Matrix4@@QAE@ABVMatrix3D@@@Z ENDP			; Matrix4::Matrix4
_TEXT	ENDS
; Function compile flags: /Odtp /ZI
; File x:\github\renegade\dragonade_rxd\scripts\matrix4.h
;	COMDAT ??0Matrix4@@QAE@_N@Z
_TEXT	SEGMENT
_this$ = -4						; size = 4
_identity$ = 8						; size = 1
??0Matrix4@@QAE@_N@Z PROC				; Matrix4::Matrix4, COMDAT
; _this$ = ecx

; 29   : 	TT_INLINE explicit Matrix4(bool identity)

	push	ebp
	mov	ebp, esp
	sub	esp, 68					; 00000044H
	push	ebx
	push	esi
	push	edi
	mov	DWORD PTR _this$[ebp], ecx
	push	OFFSET ??0Vector4@@QAE@XZ		; Vector4::Vector4
	push	4
	push	16					; 00000010H
	mov	eax, DWORD PTR _this$[ebp]
	push	eax
	call	??_H@YGXPAXIHP6EPAX0@Z@Z

; 30   : 	{
; 31   : 		if (identity)

	movzx	eax, BYTE PTR _identity$[ebp]
	test	eax, eax
	je	SHORT $LN2@Matrix4

; 32   : 		{
; 33   : 			Make_Identity();

	mov	ecx, DWORD PTR _this$[ebp]
	call	?Make_Identity@Matrix4@@QAEXXZ		; Matrix4::Make_Identity
$LN2@Matrix4:

; 34   : 		}
; 35   : 	}

	mov	eax, DWORD PTR _this$[ebp]
	pop	edi
	pop	esi
	pop	ebx
	mov	esp, ebp
	pop	ebp
	ret	4
??0Matrix4@@QAE@_N@Z ENDP				; Matrix4::Matrix4
_TEXT	ENDS
; Function compile flags: /Odtp /ZI
; File x:\github\renegade\dragonade_rxd\scripts\matrix4.h
;	COMDAT ??0Matrix4@@QAE@ABV0@@Z
_TEXT	SEGMENT
_this$ = -4						; size = 4
_m$ = 8							; size = 4
??0Matrix4@@QAE@ABV0@@Z PROC				; Matrix4::Matrix4, COMDAT
; _this$ = ecx

; 25   : 	TT_INLINE Matrix4(const Matrix4 & m)

	push	ebp
	mov	ebp, esp
	sub	esp, 68					; 00000044H
	push	ebx
	push	esi
	push	edi
	mov	DWORD PTR _this$[ebp], ecx
	push	OFFSET ??0Vector4@@QAE@XZ		; Vector4::Vector4
	push	4
	push	16					; 00000010H
	mov	eax, DWORD PTR _this$[ebp]
	push	eax
	call	??_H@YGXPAXIHP6EPAX0@Z@Z

; 26   : 	{
; 27   : 		Row[0] = m.Row[0]; Row[1] = m.Row[1]; Row[2] = m.Row[2]; Row[3] = m.Row[3];

	mov	eax, 16					; 00000010H
	imul	eax, 0
	add	eax, DWORD PTR _m$[ebp]
	push	eax
	mov	ecx, 16					; 00000010H
	imul	ecx, 0
	add	ecx, DWORD PTR _this$[ebp]
	call	??4Vector4@@QAEAAV0@ABV0@@Z		; Vector4::operator=
	mov	eax, 16					; 00000010H
	shl	eax, 0
	add	eax, DWORD PTR _m$[ebp]
	push	eax
	mov	ecx, 16					; 00000010H
	shl	ecx, 0
	add	ecx, DWORD PTR _this$[ebp]
	call	??4Vector4@@QAEAAV0@ABV0@@Z		; Vector4::operator=
	mov	eax, 16					; 00000010H
	shl	eax, 1
	add	eax, DWORD PTR _m$[ebp]
	push	eax
	mov	ecx, 16					; 00000010H
	shl	ecx, 1
	add	ecx, DWORD PTR _this$[ebp]
	call	??4Vector4@@QAEAAV0@ABV0@@Z		; Vector4::operator=
	mov	eax, 16					; 00000010H
	imul	eax, 3
	add	eax, DWORD PTR _m$[ebp]
	push	eax
	mov	ecx, 16					; 00000010H
	imul	ecx, 3
	add	ecx, DWORD PTR _this$[ebp]
	call	??4Vector4@@QAEAAV0@ABV0@@Z		; Vector4::operator=

; 28   : 	}

	mov	eax, DWORD PTR _this$[ebp]
	pop	edi
	pop	esi
	pop	ebx
	mov	esp, ebp
	pop	ebp
	ret	4
??0Matrix4@@QAE@ABV0@@Z ENDP				; Matrix4::Matrix4
_TEXT	ENDS
; Function compile flags: /Odtp /ZI
; File x:\github\renegade\dragonade_rxd\scripts\matrix4.h
;	COMDAT ??0Matrix4@@QAE@XZ
_TEXT	SEGMENT
_this$ = -4						; size = 4
??0Matrix4@@QAE@XZ PROC					; Matrix4::Matrix4, COMDAT
; _this$ = ecx

; 22   : 	TT_INLINE Matrix4(void)

	push	ebp
	mov	ebp, esp
	sub	esp, 68					; 00000044H
	push	ebx
	push	esi
	push	edi
	mov	DWORD PTR _this$[ebp], ecx
	push	OFFSET ??0Vector4@@QAE@XZ		; Vector4::Vector4
	push	4
	push	16					; 00000010H
	mov	eax, DWORD PTR _this$[ebp]
	push	eax
	call	??_H@YGXPAXIHP6EPAX0@Z@Z

; 23   : 	{
; 24   : 	}

	mov	eax, DWORD PTR _this$[ebp]
	pop	edi
	pop	esi
	pop	ebx
	mov	esp, ebp
	pop	ebp
	ret	0
??0Matrix4@@QAE@XZ ENDP					; Matrix4::Matrix4
_TEXT	ENDS
; Function compile flags: /Odtp /ZI
;	COMDAT ??4ArmorWarheadManager@@QAEAAV0@ABV0@@Z
_TEXT	SEGMENT
_this$ = -4						; size = 4
___that$ = 8						; size = 4
??4ArmorWarheadManager@@QAEAAV0@ABV0@@Z PROC		; ArmorWarheadManager::operator=, COMDAT
; _this$ = ecx
	push	ebp
	mov	ebp, esp
	sub	esp, 68					; 00000044H
	push	ebx
	push	esi
	push	edi
	mov	DWORD PTR _this$[ebp], ecx
	mov	eax, DWORD PTR _this$[ebp]
	pop	edi
	pop	esi
	pop	ebx
	mov	esp, ebp
	pop	ebp
	ret	4
??4ArmorWarheadManager@@QAEAAV0@ABV0@@Z ENDP		; ArmorWarheadManager::operator=
_TEXT	ENDS
; Function compile flags: /Odtp /ZI
; File x:\github\renegade\dragonade_rxd\scripts\powerupgameobjdef.h
;	COMDAT ?Get_Grant_Weapon_ID@PowerUpGameObjDef@@QBEHXZ
_TEXT	SEGMENT
_this$ = -4						; size = 4
?Get_Grant_Weapon_ID@PowerUpGameObjDef@@QBEHXZ PROC	; PowerUpGameObjDef::Get_Grant_Weapon_ID, COMDAT
; _this$ = ecx

; 27   : 	int											Get_Grant_Weapon_ID (void) const	{ return GrantWeaponID; }

	push	ebp
	mov	ebp, esp
	sub	esp, 68					; 00000044H
	push	ebx
	push	esi
	push	edi
	mov	DWORD PTR _this$[ebp], ecx
	mov	eax, DWORD PTR _this$[ebp]
	mov	eax, DWORD PTR [eax+196]
	pop	edi
	pop	esi
	pop	ebx
	mov	esp, ebp
	pop	ebp
	ret	0
?Get_Grant_Weapon_ID@PowerUpGameObjDef@@QBEHXZ ENDP	; PowerUpGameObjDef::Get_Grant_Weapon_ID
_TEXT	ENDS
; Function compile flags: /Odtp /ZI
; File x:\github\renegade\dragonade_rxd\scripts\smartgameobj.h
;	COMDAT ?Get_Player_Data@SmartGameObj@@QAEPAVPlayerDataClass@@XZ
_TEXT	SEGMENT
_this$ = -4						; size = 4
?Get_Player_Data@SmartGameObj@@QAEPAVPlayerDataClass@@XZ PROC ; SmartGameObj::Get_Player_Data, COMDAT
; _this$ = ecx

; 59   : 	PlayerDataClass * Get_Player_Data( void )						{ return PlayerData; }

	push	ebp
	mov	ebp, esp
	sub	esp, 68					; 00000044H
	push	ebx
	push	esi
	push	edi
	mov	DWORD PTR _this$[ebp], ecx
	mov	eax, DWORD PTR _this$[ebp]
	mov	eax, DWORD PTR [eax+2400]
	pop	edi
	pop	esi
	pop	ebx
	mov	esp, ebp
	pop	ebp
	ret	0
?Get_Player_Data@SmartGameObj@@QAEPAVPlayerDataClass@@XZ ENDP ; SmartGameObj::Get_Player_Data
_TEXT	ENDS
; Function compile flags: /Odtp /ZI
; File x:\github\renegade\dragonade_rxd\scripts\slist.h
;	COMDAT ?Head@?$SList@VSoldierGameObj@@@@QBEPAV?$SLNode@VSoldierGameObj@@@@XZ
_TEXT	SEGMENT
_this$ = -4						; size = 4
?Head@?$SList@VSoldierGameObj@@@@QBEPAV?$SLNode@VSoldierGameObj@@@@XZ PROC ; SList<SoldierGameObj>::Head, COMDAT
; _this$ = ecx

; 313  : 	{

	push	ebp
	mov	ebp, esp
	sub	esp, 68					; 00000044H
	push	ebx
	push	esi
	push	edi
	mov	DWORD PTR _this$[ebp], ecx

; 314  : 		return HeadNode;

	mov	eax, DWORD PTR _this$[ebp]
	mov	eax, DWORD PTR [eax+4]

; 315  : 	}

	pop	edi
	pop	esi
	pop	ebx
	mov	esp, ebp
	pop	ebp
	ret	0
?Head@?$SList@VSoldierGameObj@@@@QBEPAV?$SLNode@VSoldierGameObj@@@@XZ ENDP ; SList<SoldierGameObj>::Head
_TEXT	ENDS
; Function compile flags: /Odtp /ZI
; File x:\github\renegade\dragonade_rxd\scripts\slist.h
;	COMDAT ?Head@?$SList@VBeaconGameObj@@@@QBEPAV?$SLNode@VBeaconGameObj@@@@XZ
_TEXT	SEGMENT
_this$ = -4						; size = 4
?Head@?$SList@VBeaconGameObj@@@@QBEPAV?$SLNode@VBeaconGameObj@@@@XZ PROC ; SList<BeaconGameObj>::Head, COMDAT
; _this$ = ecx

; 313  : 	{

	push	ebp
	mov	ebp, esp
	sub	esp, 68					; 00000044H
	push	ebx
	push	esi
	push	edi
	mov	DWORD PTR _this$[ebp], ecx

; 314  : 		return HeadNode;

	mov	eax, DWORD PTR _this$[ebp]
	mov	eax, DWORD PTR [eax+4]

; 315  : 	}

	pop	edi
	pop	esi
	pop	ebx
	mov	esp, ebp
	pop	ebp
	ret	0
?Head@?$SList@VBeaconGameObj@@@@QBEPAV?$SLNode@VBeaconGameObj@@@@XZ ENDP ; SList<BeaconGameObj>::Head
_TEXT	ENDS
; Function compile flags: /Odtp /ZI
; File x:\github\renegade\dragonade_rxd\scripts\slist.h
;	COMDAT ?Head@?$SList@VC4GameObj@@@@QBEPAV?$SLNode@VC4GameObj@@@@XZ
_TEXT	SEGMENT
_this$ = -4						; size = 4
?Head@?$SList@VC4GameObj@@@@QBEPAV?$SLNode@VC4GameObj@@@@XZ PROC ; SList<C4GameObj>::Head, COMDAT
; _this$ = ecx

; 313  : 	{

	push	ebp
	mov	ebp, esp
	sub	esp, 68					; 00000044H
	push	ebx
	push	esi
	push	edi
	mov	DWORD PTR _this$[ebp], ecx

; 314  : 		return HeadNode;

	mov	eax, DWORD PTR _this$[ebp]
	mov	eax, DWORD PTR [eax+4]

; 315  : 	}

	pop	edi
	pop	esi
	pop	ebx
	mov	esp, ebp
	pop	ebp
	ret	0
?Head@?$SList@VC4GameObj@@@@QBEPAV?$SLNode@VC4GameObj@@@@XZ ENDP ; SList<C4GameObj>::Head
_TEXT	ENDS
; Function compile flags: /Odtp /ZI
; File x:\github\renegade\dragonade_rxd\scripts\engine_weap.cpp
;	COMDAT ?Get_Targeting_Range@WeaponClass@@QAEMXZ
_TEXT	SEGMENT
_range$1 = -8						; size = 4
_this$ = -4						; size = 4
?Get_Targeting_Range@WeaponClass@@QAEMXZ PROC		; WeaponClass::Get_Targeting_Range, COMDAT
; _this$ = ecx

; 934  : {

	push	ebp
	mov	ebp, esp
	sub	esp, 72					; 00000048H
	push	ebx
	push	esi
	push	edi
	mov	DWORD PTR _this$[ebp], ecx

; 935  : 	if (PrimaryAmmoDefinition != NULL)

	mov	eax, DWORD PTR _this$[ebp]
	cmp	DWORD PTR [eax+28], 0
	je	SHORT $LN1@Get_Target

; 936  : 	{
; 937  : 		float range = PrimaryAmmoDefinition->TargetingRange;

	mov	eax, DWORD PTR _this$[ebp]
	mov	ecx, DWORD PTR [eax+28]
	add	ecx, 276				; 00000114H
	call	??B?$SafeDataClass@M@@QBEMXZ		; SafeDataClass<float>::operator float
	fstp	DWORD PTR _range$1[ebp]

; 938  : 		return range;

	fld	DWORD PTR _range$1[ebp]
	jmp	SHORT $LN2@Get_Target
$LN1@Get_Target:

; 939  : 	}
; 940  : 	return 0;

	fldz
$LN2@Get_Target:

; 941  : }

	pop	edi
	pop	esi
	pop	ebx
	mov	esp, ebp
	pop	ebp
	ret	0
?Get_Targeting_Range@WeaponClass@@QAEMXZ ENDP		; WeaponClass::Get_Targeting_Range
_TEXT	ENDS
; Function compile flags: /Odtp /ZI
; File x:\github\renegade\dragonade_rxd\scripts\engine_weap.cpp
;	COMDAT ?Get_Range@WeaponClass@@QAEMXZ
_TEXT	SEGMENT
tv87 = -96						; size = 4
$T1 = -92						; size = 4
$T2 = -88						; size = 4
$T3 = -84						; size = 4
$T4 = -80						; size = 4
$T5 = -76						; size = 4
$T6 = -72						; size = 4
_this$ = -4						; size = 4
?Get_Range@WeaponClass@@QAEMXZ PROC			; WeaponClass::Get_Range, COMDAT
; _this$ = ecx

; 922  : {

	push	ebp
	mov	ebp, esp
	sub	esp, 96					; 00000060H
	push	ebx
	push	esi
	push	edi
	mov	DWORD PTR _this$[ebp], ecx
	mov	DWORD PTR $T6[ebp], 0

; 923  : 	return ( PrimaryAmmoDefinition != NULL ) ? PrimaryAmmoDefinition->Range : 0;

	mov	eax, DWORD PTR _this$[ebp]
	cmp	DWORD PTR [eax+28], 0
	je	SHORT $LN3@Get_Range
	mov	ecx, DWORD PTR _this$[ebp]
	mov	ecx, DWORD PTR [ecx+28]
	add	ecx, 44					; 0000002cH
	call	??B?$SafeDataClass@M@@QBEMXZ		; SafeDataClass<float>::operator float
	push	ecx
	fstp	DWORD PTR [esp]
	lea	ecx, DWORD PTR $T3[ebp]
	call	??0?$SafeDataClass@M@@QAE@M@Z		; SafeDataClass<float>::SafeDataClass<float>
	or	DWORD PTR $T6[ebp], 1
	mov	DWORD PTR tv87[ebp], eax
	jmp	SHORT $LN4@Get_Range
$LN3@Get_Range:
	push	ecx
	movss	xmm0, DWORD PTR __real@00000000
	movss	DWORD PTR [esp], xmm0
	lea	ecx, DWORD PTR $T5[ebp]
	call	??0?$SafeDataClass@M@@QAE@M@Z		; SafeDataClass<float>::SafeDataClass<float>
	or	DWORD PTR $T6[ebp], 2
	mov	ecx, eax
	call	??B?$SafeDataClass@M@@QBEMXZ		; SafeDataClass<float>::operator float
	push	ecx
	fstp	DWORD PTR [esp]
	lea	ecx, DWORD PTR $T4[ebp]
	call	??0?$SafeDataClass@M@@QAE@M@Z		; SafeDataClass<float>::SafeDataClass<float>
	or	DWORD PTR $T6[ebp], 4
	mov	DWORD PTR tv87[ebp], eax
$LN4@Get_Range:
	mov	edx, DWORD PTR tv87[ebp]
	mov	DWORD PTR $T2[ebp], edx
	mov	ecx, DWORD PTR $T2[ebp]
	call	??B?$SafeDataClass@M@@QBEMXZ		; SafeDataClass<float>::operator float
	fstp	DWORD PTR $T1[ebp]
	mov	eax, DWORD PTR $T6[ebp]
	and	eax, 4
	je	SHORT $LN5@Get_Range
	and	DWORD PTR $T6[ebp], -5			; fffffffbH
	lea	ecx, DWORD PTR $T4[ebp]
	call	??1?$SafeDataClass@M@@QAE@XZ		; SafeDataClass<float>::~SafeDataClass<float>
$LN5@Get_Range:
	mov	ecx, DWORD PTR $T6[ebp]
	and	ecx, 2
	je	SHORT $LN6@Get_Range
	and	DWORD PTR $T6[ebp], -3			; fffffffdH
	lea	ecx, DWORD PTR $T5[ebp]
	call	??1?$SafeDataClass@M@@QAE@XZ		; SafeDataClass<float>::~SafeDataClass<float>
$LN6@Get_Range:
	mov	edx, DWORD PTR $T6[ebp]
	and	edx, 1
	je	SHORT $LN7@Get_Range
	and	DWORD PTR $T6[ebp], -2			; fffffffeH
	lea	ecx, DWORD PTR $T3[ebp]
	call	??1?$SafeDataClass@M@@QAE@XZ		; SafeDataClass<float>::~SafeDataClass<float>
$LN7@Get_Range:
	fld	DWORD PTR $T1[ebp]

; 924  : }

	pop	edi
	pop	esi
	pop	ebx
	mov	esp, ebp
	pop	ebp
	ret	0
?Get_Range@WeaponClass@@QAEMXZ ENDP			; WeaponClass::Get_Range
_TEXT	ENDS
; Function compile flags: /Odtp /ZI
; File x:\github\renegade\dragonade_rxd\scripts\engine_weap.cpp
;	COMDAT ?Is_Ammo_Maxed@WeaponClass@@QAE_NXZ
_TEXT	SEGMENT
$T1 = -80						; size = 4
$T2 = -76						; size = 4
$T3 = -72						; size = 4
_this$ = -4						; size = 4
?Is_Ammo_Maxed@WeaponClass@@QAE_NXZ PROC		; WeaponClass::Is_Ammo_Maxed, COMDAT
; _this$ = ecx

; 927  : {

	push	ebp
	mov	ebp, esp
	sub	esp, 80					; 00000050H
	push	ebx
	push	esi
	push	edi
	mov	DWORD PTR _this$[ebp], ecx

; 928  : 	if (InventoryRounds == -1) return true;

	mov	DWORD PTR $T1[ebp], -1
	lea	eax, DWORD PTR $T1[ebp]
	push	eax
	mov	ecx, DWORD PTR _this$[ebp]
	add	ecx, 40					; 00000028H
	call	??8?$SafeDataClass@H@@QAE_NABH@Z	; SafeDataClass<int>::operator==
	movzx	ecx, al
	test	ecx, ecx
	je	SHORT $LN2@Is_Ammo_Ma
	mov	al, 1
	jmp	SHORT $LN3@Is_Ammo_Ma
$LN2@Is_Ammo_Ma:

; 929  : 	if (((int)Definition->MaxInventoryRounds == 0) && (ClipRounds == 0)) return false;

	mov	eax, DWORD PTR _this$[ebp]
	mov	ecx, DWORD PTR [eax]
	add	ecx, 132				; 00000084H
	call	??B?$SafeDataClass@H@@QBEHXZ		; SafeDataClass<int>::operator int
	test	eax, eax
	jne	SHORT $LN1@Is_Ammo_Ma
	mov	DWORD PTR $T2[ebp], 0
	lea	eax, DWORD PTR $T2[ebp]
	push	eax
	mov	ecx, DWORD PTR _this$[ebp]
	add	ecx, 36					; 00000024H
	call	??8?$SafeDataClass@H@@QAE_NABH@Z	; SafeDataClass<int>::operator==
	movzx	ecx, al
	test	ecx, ecx
	je	SHORT $LN1@Is_Ammo_Ma
	xor	al, al
	jmp	SHORT $LN3@Is_Ammo_Ma
$LN1@Is_Ammo_Ma:

; 930  : 	return (InventoryRounds == (int)Definition->MaxInventoryRounds);

	mov	eax, DWORD PTR _this$[ebp]
	mov	ecx, DWORD PTR [eax]
	add	ecx, 132				; 00000084H
	call	??B?$SafeDataClass@H@@QBEHXZ		; SafeDataClass<int>::operator int
	mov	DWORD PTR $T3[ebp], eax
	lea	ecx, DWORD PTR $T3[ebp]
	push	ecx
	mov	ecx, DWORD PTR _this$[ebp]
	add	ecx, 40					; 00000028H
	call	??8?$SafeDataClass@H@@QAE_NABH@Z	; SafeDataClass<int>::operator==
$LN3@Is_Ammo_Ma:

; 931  : }

	pop	edi
	pop	esi
	pop	ebx
	mov	esp, ebp
	pop	ebp
	ret	0
?Is_Ammo_Maxed@WeaponClass@@QAE_NXZ ENDP		; WeaponClass::Is_Ammo_Maxed
_TEXT	ENDS
; Function compile flags: /Odtp /ZI
; File x:\github\renegade\dragonade_rxd\scripts\weaponclass.h
;	COMDAT ?Get_Inventory_Rounds@WeaponClass@@QAEHXZ
_TEXT	SEGMENT
_this$ = -4						; size = 4
?Get_Inventory_Rounds@WeaponClass@@QAEHXZ PROC		; WeaponClass::Get_Inventory_Rounds, COMDAT
; _this$ = ecx

; 114  : 	int				Get_Inventory_Rounds( void )			{ return InventoryRounds; }

	push	ebp
	mov	ebp, esp
	sub	esp, 68					; 00000044H
	push	ebx
	push	esi
	push	edi
	mov	DWORD PTR _this$[ebp], ecx
	mov	ecx, DWORD PTR _this$[ebp]
	add	ecx, 40					; 00000028H
	call	??B?$SafeDataClass@H@@QBEHXZ		; SafeDataClass<int>::operator int
	pop	edi
	pop	esi
	pop	ebx
	mov	esp, ebp
	pop	ebp
	ret	0
?Get_Inventory_Rounds@WeaponClass@@QAEHXZ ENDP		; WeaponClass::Get_Inventory_Rounds
_TEXT	ENDS
; Function compile flags: /Odtp /ZI
; File x:\github\renegade\dragonade_rxd\scripts\weaponclass.h
;	COMDAT ?Get_Clip_Rounds@WeaponClass@@QAEHXZ
_TEXT	SEGMENT
_this$ = -4						; size = 4
?Get_Clip_Rounds@WeaponClass@@QAEHXZ PROC		; WeaponClass::Get_Clip_Rounds, COMDAT
; _this$ = ecx

; 113  : 	int				Get_Clip_Rounds( void )					{ return ClipRounds; }

	push	ebp
	mov	ebp, esp
	sub	esp, 68					; 00000044H
	push	ebx
	push	esi
	push	edi
	mov	DWORD PTR _this$[ebp], ecx
	mov	ecx, DWORD PTR _this$[ebp]
	add	ecx, 36					; 00000024H
	call	??B?$SafeDataClass@H@@QBEHXZ		; SafeDataClass<int>::operator int
	pop	edi
	pop	esi
	pop	ebx
	mov	esp, ebp
	pop	ebp
	ret	0
?Get_Clip_Rounds@WeaponClass@@QAEHXZ ENDP		; WeaponClass::Get_Clip_Rounds
_TEXT	ENDS
; Function compile flags: /Odtp /ZI
; File x:\github\renegade\dragonade_rxd\scripts\engine_weap.cpp
;	COMDAT ?Get_Total_Rounds@WeaponClass@@QAEHXZ
_TEXT	SEGMENT
$T1 = -72						; size = 4
_this$ = -4						; size = 4
?Get_Total_Rounds@WeaponClass@@QAEHXZ PROC		; WeaponClass::Get_Total_Rounds, COMDAT
; _this$ = ecx

; 913  : {

	push	ebp
	mov	ebp, esp
	sub	esp, 72					; 00000048H
	push	ebx
	push	esi
	push	edi
	mov	DWORD PTR _this$[ebp], ecx

; 914  : 	if (InventoryRounds < 0)

	mov	DWORD PTR $T1[ebp], 0
	lea	eax, DWORD PTR $T1[ebp]
	push	eax
	mov	ecx, DWORD PTR _this$[ebp]
	add	ecx, 40					; 00000028H
	call	??M?$SafeDataClass@H@@QAE_NABH@Z	; SafeDataClass<int>::operator<
	movzx	ecx, al
	test	ecx, ecx
	je	SHORT $LN1@Get_Total_

; 915  : 	{
; 916  : 		return -1;

	or	eax, -1
	jmp	SHORT $LN2@Get_Total_
$LN1@Get_Total_:

; 917  : 	}
; 918  : 	return ClipRounds + InventoryRounds;

	mov	eax, DWORD PTR _this$[ebp]
	add	eax, 40					; 00000028H
	push	eax
	mov	ecx, DWORD PTR _this$[ebp]
	add	ecx, 36					; 00000024H
	call	??H?$SafeDataClass@H@@QAEAAHAAV0@@Z	; SafeDataClass<int>::operator+
	mov	eax, DWORD PTR [eax]
$LN2@Get_Total_:

; 919  : }

	pop	edi
	pop	esi
	pop	ebx
	mov	esp, ebp
	pop	ebp
	ret	0
?Get_Total_Rounds@WeaponClass@@QAEHXZ ENDP		; WeaponClass::Get_Total_Rounds
_TEXT	ENDS
; Function compile flags: /Odtp /ZI
; File x:\github\renegade\dragonade_rxd\scripts\weaponclass.h
;	COMDAT ?Get_Name@WeaponClass@@QAEPBDXZ
_TEXT	SEGMENT
_this$ = -4						; size = 4
?Get_Name@WeaponClass@@QAEPBDXZ PROC			; WeaponClass::Get_Name, COMDAT
; _this$ = ecx

; 86   : 	const char * 	Get_Name( void )		  		{ return Definition->Get_Name(); }

	push	ebp
	mov	ebp, esp
	sub	esp, 68					; 00000044H
	push	ebx
	push	esi
	push	edi
	mov	DWORD PTR _this$[ebp], ecx
	mov	eax, DWORD PTR _this$[ebp]
	mov	ecx, DWORD PTR [eax]
	mov	edx, DWORD PTR _this$[ebp]
	mov	eax, DWORD PTR [ecx]
	mov	ecx, DWORD PTR [edx]
	mov	edx, DWORD PTR [eax+48]
	call	edx
	pop	edi
	pop	esi
	pop	ebx
	mov	esp, ebp
	pop	ebp
	ret	0
?Get_Name@WeaponClass@@QAEPBDXZ ENDP			; WeaponClass::Get_Name
_TEXT	ENDS
; Function compile flags: /Odtp /ZI
; File x:\github\renegade\dragonade_rxd\scripts\weaponclass.h
;	COMDAT ?Get_Definition@WeaponClass@@QAEPBVWeaponDefinitionClass@@XZ
_TEXT	SEGMENT
_this$ = -4						; size = 4
?Get_Definition@WeaponClass@@QAEPBVWeaponDefinitionClass@@XZ PROC ; WeaponClass::Get_Definition, COMDAT
; _this$ = ecx

; 85   : 	const WeaponDefinitionClass *Get_Definition( void )		{ return Definition; }

	push	ebp
	mov	ebp, esp
	sub	esp, 68					; 00000044H
	push	ebx
	push	esi
	push	edi
	mov	DWORD PTR _this$[ebp], ecx
	mov	eax, DWORD PTR _this$[ebp]
	mov	eax, DWORD PTR [eax]
	pop	edi
	pop	esi
	pop	ebx
	mov	esp, ebp
	pop	ebp
	ret	0
?Get_Definition@WeaponClass@@QAEPBVWeaponDefinitionClass@@XZ ENDP ; WeaponClass::Get_Definition
_TEXT	ENDS
; Function compile flags: /Odtp /ZI
; File x:\github\renegade\dragonade_rxd\scripts\engine_vector.h
;	COMDAT ?Count@?$DynamicVectorClass@PAVWeaponClass@@@@QBEHXZ
_TEXT	SEGMENT
_this$ = -4						; size = 4
?Count@?$DynamicVectorClass@PAVWeaponClass@@@@QBEHXZ PROC ; DynamicVectorClass<WeaponClass *>::Count, COMDAT
; _this$ = ecx

; 314  : 	{

	push	ebp
	mov	ebp, esp
	sub	esp, 68					; 00000044H
	push	ebx
	push	esi
	push	edi
	mov	DWORD PTR _this$[ebp], ecx

; 315  : 		return(ActiveCount);

	mov	eax, DWORD PTR _this$[ebp]
	mov	eax, DWORD PTR [eax+16]

; 316  : 	}

	pop	edi
	pop	esi
	pop	ebx
	mov	esp, ebp
	pop	ebp
	ret	0
?Count@?$DynamicVectorClass@PAVWeaponClass@@@@QBEHXZ ENDP ; DynamicVectorClass<WeaponClass *>::Count
_TEXT	ENDS
; Function compile flags: /Odtp /ZI
; File x:\github\renegade\dragonade_rxd\scripts\engine_vector.h
;	COMDAT ??A?$VectorClass@PAVWeaponClass@@@@QAEAAPAVWeaponClass@@H@Z
_TEXT	SEGMENT
_this$ = -4						; size = 4
_index$ = 8						; size = 4
??A?$VectorClass@PAVWeaponClass@@@@QAEAAPAVWeaponClass@@H@Z PROC ; VectorClass<WeaponClass *>::operator[], COMDAT
; _this$ = ecx

; 122  : 	{

	push	ebp
	mov	ebp, esp
	sub	esp, 68					; 00000044H
	push	ebx
	push	esi
	push	edi
	mov	DWORD PTR _this$[ebp], ecx

; 123  : 		return(Vector[index]);

	mov	eax, DWORD PTR _this$[ebp]
	mov	ecx, DWORD PTR [eax+4]
	mov	edx, DWORD PTR _index$[ebp]
	lea	eax, DWORD PTR [ecx+edx*4]

; 124  : 	} 

	pop	edi
	pop	esi
	pop	ebx
	mov	esp, ebp
	pop	ebp
	ret	4
??A?$VectorClass@PAVWeaponClass@@@@QAEAAPAVWeaponClass@@H@Z ENDP ; VectorClass<WeaponClass *>::operator[]
_TEXT	ENDS
; Function compile flags: /Odtp /ZI
; File x:\github\renegade\dragonade_rxd\scripts\weaponbagclass.h
;	COMDAT ?Get_Index@WeaponBagClass@@QAEHXZ
_TEXT	SEGMENT
_this$ = -4						; size = 4
?Get_Index@WeaponBagClass@@QAEHXZ PROC			; WeaponBagClass::Get_Index, COMDAT
; _this$ = ecx

; 41   : 	int				Get_Index( void )					{ return WeaponIndex; }

	push	ebp
	mov	ebp, esp
	sub	esp, 68					; 00000044H
	push	ebx
	push	esi
	push	edi
	mov	DWORD PTR _this$[ebp], ecx
	mov	eax, DWORD PTR _this$[ebp]
	mov	eax, DWORD PTR [eax+28]
	pop	edi
	pop	esi
	pop	ebx
	mov	esp, ebp
	pop	ebp
	ret	0
?Get_Index@WeaponBagClass@@QAEHXZ ENDP			; WeaponBagClass::Get_Index
_TEXT	ENDS
; Function compile flags: /Odtp /ZI
; File x:\github\renegade\dragonade_rxd\scripts\weaponbagclass.h
;	COMDAT ?Get_Weapon@WeaponBagClass@@QAEPAVWeaponClass@@XZ
_TEXT	SEGMENT
_this$ = -4						; size = 4
?Get_Weapon@WeaponBagClass@@QAEPAVWeaponClass@@XZ PROC	; WeaponBagClass::Get_Weapon, COMDAT
; _this$ = ecx

; 35   : 	WeaponClass	*	Get_Weapon( void )				{ return	WeaponList[ WeaponIndex ]; }

	push	ebp
	mov	ebp, esp
	sub	esp, 68					; 00000044H
	push	ebx
	push	esi
	push	edi
	mov	DWORD PTR _this$[ebp], ecx
	mov	eax, DWORD PTR _this$[ebp]
	mov	ecx, DWORD PTR [eax+28]
	push	ecx
	mov	ecx, DWORD PTR _this$[ebp]
	add	ecx, 4
	call	??A?$VectorClass@PAVWeaponClass@@@@QAEAAPAVWeaponClass@@H@Z ; VectorClass<WeaponClass *>::operator[]
	mov	eax, DWORD PTR [eax]
	pop	edi
	pop	esi
	pop	ebx
	mov	esp, ebp
	pop	ebp
	ret	0
?Get_Weapon@WeaponBagClass@@QAEPAVWeaponClass@@XZ ENDP	; WeaponBagClass::Get_Weapon
_TEXT	ENDS
; Function compile flags: /Odtp /ZI
; File x:\github\renegade\dragonade_rxd\scripts\weaponbagclass.h
;	COMDAT ?Peek_Weapon@WeaponBagClass@@QAEPAVWeaponClass@@H@Z
_TEXT	SEGMENT
_this$ = -4						; size = 4
_index$ = 8						; size = 4
?Peek_Weapon@WeaponBagClass@@QAEPAVWeaponClass@@H@Z PROC ; WeaponBagClass::Peek_Weapon, COMDAT
; _this$ = ecx

; 34   : 	WeaponClass *	Peek_Weapon( int index )		{ return WeaponList[ index ]; }

	push	ebp
	mov	ebp, esp
	sub	esp, 68					; 00000044H
	push	ebx
	push	esi
	push	edi
	mov	DWORD PTR _this$[ebp], ecx
	mov	eax, DWORD PTR _index$[ebp]
	push	eax
	mov	ecx, DWORD PTR _this$[ebp]
	add	ecx, 4
	call	??A?$VectorClass@PAVWeaponClass@@@@QAEAAPAVWeaponClass@@H@Z ; VectorClass<WeaponClass *>::operator[]
	mov	eax, DWORD PTR [eax]
	pop	edi
	pop	esi
	pop	ebx
	mov	esp, ebp
	pop	ebp
	ret	4
?Peek_Weapon@WeaponBagClass@@QAEPAVWeaponClass@@H@Z ENDP ; WeaponBagClass::Peek_Weapon
_TEXT	ENDS
; Function compile flags: /Odtp /ZI
; File x:\github\renegade\dragonade_rxd\scripts\weaponbagclass.h
;	COMDAT ?Get_Count@WeaponBagClass@@QAEHXZ
_TEXT	SEGMENT
_this$ = -4						; size = 4
?Get_Count@WeaponBagClass@@QAEHXZ PROC			; WeaponBagClass::Get_Count, COMDAT
; _this$ = ecx

; 33   : 	int				Get_Count( void )					{ return WeaponList.Count(); }

	push	ebp
	mov	ebp, esp
	sub	esp, 68					; 00000044H
	push	ebx
	push	esi
	push	edi
	mov	DWORD PTR _this$[ebp], ecx
	mov	ecx, DWORD PTR _this$[ebp]
	add	ecx, 4
	call	?Count@?$DynamicVectorClass@PAVWeaponClass@@@@QBEHXZ ; DynamicVectorClass<WeaponClass *>::Count
	pop	edi
	pop	esi
	pop	ebx
	mov	esp, ebp
	pop	ebp
	ret	0
?Get_Count@WeaponBagClass@@QAEHXZ ENDP			; WeaponBagClass::Get_Count
_TEXT	ENDS
; Function compile flags: /Odtp /ZI
; File x:\github\renegade\dragonade_rxd\scripts\armedgameobj.h
;	COMDAT ?Get_Weapon_Bag@ArmedGameObj@@QAEPAVWeaponBagClass@@XZ
_TEXT	SEGMENT
_this$ = -4						; size = 4
?Get_Weapon_Bag@ArmedGameObj@@QAEPAVWeaponBagClass@@XZ PROC ; ArmedGameObj::Get_Weapon_Bag, COMDAT
; _this$ = ecx

; 37   : 	WeaponBagClass	*			Get_Weapon_Bag( void )						{ return WeaponBag; }

	push	ebp
	mov	ebp, esp
	sub	esp, 68					; 00000044H
	push	ebx
	push	esi
	push	edi
	mov	DWORD PTR _this$[ebp], ecx
	mov	eax, DWORD PTR _this$[ebp]
	mov	eax, DWORD PTR [eax+1968]
	pop	edi
	pop	esi
	pop	ebx
	mov	esp, ebp
	pop	ebp
	ret	0
?Get_Weapon_Bag@ArmedGameObj@@QAEPAVWeaponBagClass@@XZ ENDP ; ArmedGameObj::Get_Weapon_Bag
_TEXT	ENDS
; Function compile flags: /Odtp /ZI
; File x:\github\renegade\dragonade_rxd\scripts\engine_weap.cpp
;	COMDAT ?Get_Weapon@ArmedGameObj@@QAEPAVWeaponClass@@XZ
_TEXT	SEGMENT
_this$ = -4						; size = 4
?Get_Weapon@ArmedGameObj@@QAEPAVWeaponClass@@XZ PROC	; ArmedGameObj::Get_Weapon, COMDAT
; _this$ = ecx

; 908  : {

	push	ebp
	mov	ebp, esp
	sub	esp, 68					; 00000044H
	push	ebx
	push	esi
	push	edi
	mov	DWORD PTR _this$[ebp], ecx

; 909  : 	return WeaponBag->Get_Weapon();

	mov	eax, DWORD PTR _this$[ebp]
	mov	ecx, DWORD PTR [eax+1968]
	call	?Get_Weapon@WeaponBagClass@@QAEPAVWeaponClass@@XZ ; WeaponBagClass::Get_Weapon

; 910  : }

	pop	edi
	pop	esi
	pop	ebx
	mov	esp, ebp
	pop	ebp
	ret	0
?Get_Weapon@ArmedGameObj@@QAEPAVWeaponClass@@XZ ENDP	; ArmedGameObj::Get_Weapon
_TEXT	ENDS
; Function compile flags: /Odtp /ZI
; File x:\github\renegade\dragonade_rxd\scripts\datasafe.h
;	COMDAT ??H?$SafeDataClass@H@@QAEAAHAAV0@@Z
_TEXT	SEGMENT
_other_value$ = -12					; size = 4
_data_ptr$ = -8						; size = 4
_this$ = -4						; size = 4
_safevalue$ = 8						; size = 4
??H?$SafeDataClass@H@@QAEAAHAAV0@@Z PROC		; SafeDataClass<int>::operator+, COMDAT
; _this$ = ecx

; 874  : {

	push	ebp
	mov	ebp, esp
	sub	esp, 76					; 0000004cH
	push	ebx
	push	esi
	push	edi
	mov	DWORD PTR _this$[ebp], ecx

; 875  : 	T *data_ptr = NULL;

	mov	DWORD PTR _data_ptr$[ebp], 0

; 876  : 	T *other_value = NULL;

	mov	DWORD PTR _other_value$[ebp], 0

; 877  : 	if (Handle.Is_Valid())

	mov	ecx, DWORD PTR _this$[ebp]
	call	?Is_Valid@DataSafeHandleClass@@QBE_NXZ	; DataSafeHandleClass::Is_Valid
	movzx	eax, al
	test	eax, eax
	je	SHORT $LN4@operator

; 878  : 	{
; 879  : 		DataSafeClass<T>::Get(Handle, data_ptr);

	lea	eax, DWORD PTR _data_ptr$[ebp]
	push	eax
	mov	ecx, DWORD PTR _this$[ebp]
	mov	edx, DWORD PTR [ecx]
	push	edx
	call	?Get@?$DataSafeClass@H@@SA_NVDataSafeHandleClass@@AAPAH@Z ; DataSafeClass<int>::Get
	add	esp, 8

; 880  : 		if (data_ptr)

	cmp	DWORD PTR _data_ptr$[ebp], 0
	je	SHORT $LN4@operator

; 881  : 		{
; 882  : 			other_value = safevalue.Get_Ptr();

	mov	ecx, DWORD PTR _safevalue$[ebp]
	call	?Get_Ptr@?$SafeDataClass@H@@QBEPAHXZ	; SafeDataClass<int>::Get_Ptr
	mov	DWORD PTR _other_value$[ebp], eax

; 883  : 			if (other_value)

	cmp	DWORD PTR _other_value$[ebp], 0
	je	SHORT $LN2@operator

; 884  : 			{
; 885  : 				*data_ptr = *data_ptr + *other_value;

	mov	eax, DWORD PTR _data_ptr$[ebp]
	mov	ecx, DWORD PTR [eax]
	mov	edx, DWORD PTR _other_value$[ebp]
	add	ecx, DWORD PTR [edx]
	mov	eax, DWORD PTR _data_ptr$[ebp]
	mov	DWORD PTR [eax], ecx

; 886  : 				return (T&)*data_ptr;

	mov	eax, DWORD PTR _data_ptr$[ebp]
	jmp	SHORT $LN5@operator

; 887  : 			}
; 888  : 			else

	jmp	SHORT $LN4@operator
$LN2@operator:

; 889  : 			{
; 890  : 				return (T&)*data_ptr;

	mov	eax, DWORD PTR _data_ptr$[ebp]
	jmp	SHORT $LN5@operator
$LN4@operator:

; 891  : 			}
; 892  : 		}
; 893  : 	}
; 894  : 	return (T&)ErrorVal[0];

	mov	eax, 1
	imul	eax, 0
	add	eax, OFFSET ?ErrorVal@@3PADA		; ErrorVal
$LN5@operator:

; 895  : }

	pop	edi
	pop	esi
	pop	ebx
	mov	esp, ebp
	pop	ebp
	ret	4
??H?$SafeDataClass@H@@QAEAAHAAV0@@Z ENDP		; SafeDataClass<int>::operator+
_TEXT	ENDS
; Function compile flags: /Odtp /ZI
; File x:\github\renegade\dragonade_rxd\scripts\datasafe.h
;	COMDAT ??M?$SafeDataClass@H@@QAE_NABH@Z
_TEXT	SEGMENT
tv74 = -76						; size = 4
_data_ptr$ = -8						; size = 4
_this$ = -4						; size = 4
_data$ = 8						; size = 4
??M?$SafeDataClass@H@@QAE_NABH@Z PROC			; SafeDataClass<int>::operator<, COMDAT
; _this$ = ecx

; 793  : {

	push	ebp
	mov	ebp, esp
	sub	esp, 76					; 0000004cH
	push	ebx
	push	esi
	push	edi
	mov	DWORD PTR _this$[ebp], ecx

; 794  : 	T *data_ptr = NULL;

	mov	DWORD PTR _data_ptr$[ebp], 0

; 795  : 	if (Handle.Is_Valid())

	mov	ecx, DWORD PTR _this$[ebp]
	call	?Is_Valid@DataSafeHandleClass@@QBE_NXZ	; DataSafeHandleClass::Is_Valid
	movzx	eax, al
	test	eax, eax
	je	SHORT $LN2@operator

; 796  : 	{
; 797  : 		DataSafeClass<T>::Get(Handle, data_ptr);

	lea	eax, DWORD PTR _data_ptr$[ebp]
	push	eax
	mov	ecx, DWORD PTR _this$[ebp]
	mov	edx, DWORD PTR [ecx]
	push	edx
	call	?Get@?$DataSafeClass@H@@SA_NVDataSafeHandleClass@@AAPAH@Z ; DataSafeClass<int>::Get
	add	esp, 8

; 798  : 		if (data_ptr)

	cmp	DWORD PTR _data_ptr$[ebp], 0
	je	SHORT $LN2@operator

; 799  : 		{
; 800  : 			return *data_ptr < data;

	mov	eax, DWORD PTR _data_ptr$[ebp]
	mov	ecx, DWORD PTR _data$[ebp]
	mov	edx, DWORD PTR [eax]
	cmp	edx, DWORD PTR [ecx]
	jge	SHORT $LN5@operator
	mov	DWORD PTR tv74[ebp], 1
	jmp	SHORT $LN6@operator
$LN5@operator:
	mov	DWORD PTR tv74[ebp], 0
$LN6@operator:
	mov	al, BYTE PTR tv74[ebp]
	jmp	SHORT $LN3@operator
$LN2@operator:

; 801  : 		}
; 802  : 	}
; 803  : 	return false;

	xor	al, al
$LN3@operator:

; 804  : }

	pop	edi
	pop	esi
	pop	ebx
	mov	esp, ebp
	pop	ebp
	ret	4
??M?$SafeDataClass@H@@QAE_NABH@Z ENDP			; SafeDataClass<int>::operator<
_TEXT	ENDS
; Function compile flags: /Odtp /ZI
; File x:\github\renegade\dragonade_rxd\scripts\datasafe.h
;	COMDAT ??8?$SafeDataClass@H@@QAE_NABH@Z
_TEXT	SEGMENT
tv74 = -76						; size = 4
_data_ptr$ = -8						; size = 4
_this$ = -4						; size = 4
_data$ = 8						; size = 4
??8?$SafeDataClass@H@@QAE_NABH@Z PROC			; SafeDataClass<int>::operator==, COMDAT
; _this$ = ecx

; 654  : {

	push	ebp
	mov	ebp, esp
	sub	esp, 76					; 0000004cH
	push	ebx
	push	esi
	push	edi
	mov	DWORD PTR _this$[ebp], ecx

; 655  : 	T *data_ptr = NULL;

	mov	DWORD PTR _data_ptr$[ebp], 0

; 656  : 	if (Handle.Is_Valid())

	mov	ecx, DWORD PTR _this$[ebp]
	call	?Is_Valid@DataSafeHandleClass@@QBE_NXZ	; DataSafeHandleClass::Is_Valid
	movzx	eax, al
	test	eax, eax
	je	SHORT $LN2@operator

; 657  : 	{
; 658  : 		DataSafeClass<T>::Get(Handle, data_ptr);

	lea	eax, DWORD PTR _data_ptr$[ebp]
	push	eax
	mov	ecx, DWORD PTR _this$[ebp]
	mov	edx, DWORD PTR [ecx]
	push	edx
	call	?Get@?$DataSafeClass@H@@SA_NVDataSafeHandleClass@@AAPAH@Z ; DataSafeClass<int>::Get
	add	esp, 8

; 659  : 		if (data_ptr)

	cmp	DWORD PTR _data_ptr$[ebp], 0
	je	SHORT $LN2@operator

; 660  : 		{
; 661  : 			return(*data_ptr == data);

	mov	eax, DWORD PTR _data_ptr$[ebp]
	mov	ecx, DWORD PTR _data$[ebp]
	mov	edx, DWORD PTR [eax]
	cmp	edx, DWORD PTR [ecx]
	jne	SHORT $LN5@operator
	mov	DWORD PTR tv74[ebp], 1
	jmp	SHORT $LN6@operator
$LN5@operator:
	mov	DWORD PTR tv74[ebp], 0
$LN6@operator:
	mov	al, BYTE PTR tv74[ebp]
	jmp	SHORT $LN3@operator
$LN2@operator:

; 662  : 		}
; 663  : 	}
; 664  : 	return false;

	xor	al, al
$LN3@operator:

; 665  : }

	pop	edi
	pop	esi
	pop	ebx
	mov	esp, ebp
	pop	ebp
	ret	4
??8?$SafeDataClass@H@@QAE_NABH@Z ENDP			; SafeDataClass<int>::operator==
_TEXT	ENDS
; Function compile flags: /Odtp /ZI
; File x:\github\renegade\dragonade_rxd\scripts\datasafe.h
;	COMDAT ??B?$SafeDataClass@H@@QBEHXZ
_TEXT	SEGMENT
_this$ = -4						; size = 4
??B?$SafeDataClass@H@@QBEHXZ PROC			; SafeDataClass<int>::operator int, COMDAT
; _this$ = ecx

; 1236 : {

	push	ebp
	mov	ebp, esp
	sub	esp, 68					; 00000044H
	push	ebx
	push	esi
	push	edi
	mov	DWORD PTR _this$[ebp], ecx

; 1237 : 	return (*this)();

	mov	ecx, DWORD PTR _this$[ebp]
	call	??R?$SafeDataClass@H@@QBEAAHXZ		; SafeDataClass<int>::operator()
	mov	eax, DWORD PTR [eax]

; 1238 : }

	pop	edi
	pop	esi
	pop	ebx
	mov	esp, ebp
	pop	ebp
	ret	0
??B?$SafeDataClass@H@@QBEHXZ ENDP			; SafeDataClass<int>::operator int
_TEXT	ENDS
; Function compile flags: /Odtp /ZI
; File x:\github\renegade\dragonade_rxd\scripts\datasafe.h
;	COMDAT ??R?$SafeDataClass@H@@QBEAAHXZ
_TEXT	SEGMENT
_data_ptr$ = -8						; size = 4
_this$ = -4						; size = 4
??R?$SafeDataClass@H@@QBEAAHXZ PROC			; SafeDataClass<int>::operator(), COMDAT
; _this$ = ecx

; 1221 : {

	push	ebp
	mov	ebp, esp
	sub	esp, 72					; 00000048H
	push	ebx
	push	esi
	push	edi
	mov	DWORD PTR _this$[ebp], ecx

; 1222 : 	T *data_ptr = NULL;

	mov	DWORD PTR _data_ptr$[ebp], 0

; 1223 : 	if (Handle.Is_Valid())

	mov	ecx, DWORD PTR _this$[ebp]
	call	?Is_Valid@DataSafeHandleClass@@QBE_NXZ	; DataSafeHandleClass::Is_Valid
	movzx	eax, al
	test	eax, eax
	je	SHORT $LN2@operator

; 1224 : 	{
; 1225 : 		DataSafeClass<T>::Get(Handle, data_ptr);

	lea	eax, DWORD PTR _data_ptr$[ebp]
	push	eax
	mov	ecx, DWORD PTR _this$[ebp]
	mov	edx, DWORD PTR [ecx]
	push	edx
	call	?Get@?$DataSafeClass@H@@SA_NVDataSafeHandleClass@@AAPAH@Z ; DataSafeClass<int>::Get
	add	esp, 8

; 1226 : 		if (data_ptr)

	cmp	DWORD PTR _data_ptr$[ebp], 0
	je	SHORT $LN2@operator

; 1227 : 		{
; 1228 : 			return *data_ptr;

	mov	eax, DWORD PTR _data_ptr$[ebp]
	jmp	SHORT $LN3@operator
$LN2@operator:

; 1229 : 		}
; 1230 : 	}
; 1231 : 	static T oh_dear;
; 1232 : 	return oh_dear;

	mov	eax, OFFSET ?oh_dear@?7???R?$SafeDataClass@H@@QBEAAHXZ@4HA ; `SafeDataClass<int>::operator()'::`8'::oh_dear
$LN3@operator:

; 1233 : }

	pop	edi
	pop	esi
	pop	ebx
	mov	esp, ebp
	pop	ebp
	ret	0
??R?$SafeDataClass@H@@QBEAAHXZ ENDP			; SafeDataClass<int>::operator()
_TEXT	ENDS
; Function compile flags: /Odtp /ZI
; File x:\github\renegade\dragonade_rxd\scripts\datasafe.h
;	COMDAT ?Get_Ptr@?$SafeDataClass@H@@QBEPAHXZ
_TEXT	SEGMENT
_data_ptr$ = -8						; size = 4
_this$ = -4						; size = 4
?Get_Ptr@?$SafeDataClass@H@@QBEPAHXZ PROC		; SafeDataClass<int>::Get_Ptr, COMDAT
; _this$ = ecx

; 1241 : {

	push	ebp
	mov	ebp, esp
	sub	esp, 72					; 00000048H
	push	ebx
	push	esi
	push	edi
	mov	DWORD PTR _this$[ebp], ecx

; 1242 : 	T *data_ptr = NULL;

	mov	DWORD PTR _data_ptr$[ebp], 0

; 1243 : 	if (Handle.Is_Valid())

	mov	ecx, DWORD PTR _this$[ebp]
	call	?Is_Valid@DataSafeHandleClass@@QBE_NXZ	; DataSafeHandleClass::Is_Valid
	movzx	eax, al
	test	eax, eax
	je	SHORT $LN2@Get_Ptr

; 1244 : 	{
; 1245 : 		DataSafeClass<T>::Get(Handle, data_ptr);

	lea	eax, DWORD PTR _data_ptr$[ebp]
	push	eax
	mov	ecx, DWORD PTR _this$[ebp]
	mov	edx, DWORD PTR [ecx]
	push	edx
	call	?Get@?$DataSafeClass@H@@SA_NVDataSafeHandleClass@@AAPAH@Z ; DataSafeClass<int>::Get
	add	esp, 8

; 1246 : 		if (data_ptr)

	cmp	DWORD PTR _data_ptr$[ebp], 0
	je	SHORT $LN2@Get_Ptr

; 1247 : 		{
; 1248 : 			return data_ptr;

	mov	eax, DWORD PTR _data_ptr$[ebp]
	jmp	SHORT $LN3@Get_Ptr
$LN2@Get_Ptr:

; 1249 : 		}
; 1250 : 	}
; 1251 : 	return NULL;

	xor	eax, eax
$LN3@Get_Ptr:

; 1252 : }

	pop	edi
	pop	esi
	pop	ebx
	mov	esp, ebp
	pop	ebp
	ret	0
?Get_Ptr@?$SafeDataClass@H@@QBEPAHXZ ENDP		; SafeDataClass<int>::Get_Ptr
_TEXT	ENDS
; Function compile flags: /Odtp /ZI
; File x:\github\renegade\dragonade_rxd\scripts\c4gameobj.h
;	COMDAT ?Get_Ammo_Def@C4GameObj@@QAEPBVAmmoDefinitionClass@@XZ
_TEXT	SEGMENT
_this$ = -4						; size = 4
?Get_Ammo_Def@C4GameObj@@QAEPBVAmmoDefinitionClass@@XZ PROC ; C4GameObj::Get_Ammo_Def, COMDAT
; _this$ = ecx

; 61   : 	const AmmoDefinitionClass *Get_Ammo_Def() {return AmmoDef;}

	push	ebp
	mov	ebp, esp
	sub	esp, 68					; 00000044H
	push	ebx
	push	esi
	push	edi
	mov	DWORD PTR _this$[ebp], ecx
	mov	eax, DWORD PTR _this$[ebp]
	mov	eax, DWORD PTR [eax+1992]
	pop	edi
	pop	esi
	pop	ebx
	mov	esp, ebp
	pop	ebp
	ret	0
?Get_Ammo_Def@C4GameObj@@QAEPBVAmmoDefinitionClass@@XZ ENDP ; C4GameObj::Get_Ammo_Def
_TEXT	ENDS
; Function compile flags: /Odtp /ZI
; File x:\github\renegade\dragonade_rxd\scripts\c4gameobj.h
;	COMDAT ?Get_Owner@C4GameObj@@QBEPAVSoldierGameObj@@XZ
_TEXT	SEGMENT
_this$ = -4						; size = 4
?Get_Owner@C4GameObj@@QBEPAVSoldierGameObj@@XZ PROC	; C4GameObj::Get_Owner, COMDAT
; _this$ = ecx

; 60   : 	SoldierGameObj *Get_Owner() const {return (SoldierGameObj*)Owner.Get_Ptr();}

	push	ebp
	mov	ebp, esp
	sub	esp, 68					; 00000044H
	push	ebx
	push	esi
	push	edi
	mov	DWORD PTR _this$[ebp], ecx
	mov	ecx, DWORD PTR _this$[ebp]
	add	ecx, 1972				; 000007b4H
	call	?Get_Ptr@ReferencerClass@@QBEPAVScriptableGameObj@@XZ ; ReferencerClass::Get_Ptr
	pop	edi
	pop	esi
	pop	ebx
	mov	esp, ebp
	pop	ebp
	ret	0
?Get_Owner@C4GameObj@@QBEPAVSoldierGameObj@@XZ ENDP	; C4GameObj::Get_Owner
_TEXT	ENDS
; Function compile flags: /Odtp /ZI
; File x:\github\renegade\dragonade_rxd\scripts\c4gameobj.h
;	COMDAT ?Get_Stuck_Object@C4GameObj@@QAEPAVScriptableGameObj@@XZ
_TEXT	SEGMENT
_this$ = -4						; size = 4
?Get_Stuck_Object@C4GameObj@@QAEPAVScriptableGameObj@@XZ PROC ; C4GameObj::Get_Stuck_Object, COMDAT
; _this$ = ecx

; 59   : 	ScriptableGameObj * Get_Stuck_Object() {return attachObject;}

	push	ebp
	mov	ebp, esp
	sub	esp, 68					; 00000044H
	push	ebx
	push	esi
	push	edi
	mov	DWORD PTR _this$[ebp], ecx
	mov	ecx, DWORD PTR _this$[ebp]
	add	ecx, 2004				; 000007d4H
	call	??BReferencerClass@@QBEPAVScriptableGameObj@@XZ ; ReferencerClass::operator ScriptableGameObj *
	pop	edi
	pop	esi
	pop	ebx
	mov	esp, ebp
	pop	ebp
	ret	0
?Get_Stuck_Object@C4GameObj@@QAEPAVScriptableGameObj@@XZ ENDP ; C4GameObj::Get_Stuck_Object
_TEXT	ENDS
; Function compile flags: /Odtp /ZI
; File x:\github\renegade\dragonade_rxd\scripts\engine_weap.cpp
;	COMDAT ?Restore_Owner@C4GameObj@@QAEXXZ
_TEXT	SEGMENT
_object$1 = -12						; size = 4
_at$ = -8						; size = 4
_this$ = -4						; size = 4
?Restore_Owner@C4GameObj@@QAEXXZ PROC			; C4GameObj::Restore_Owner, COMDAT
; _this$ = ecx

; 296  : {

	push	ebp
	mov	ebp, esp
	sub	esp, 76					; 0000004cH
	push	ebx
	push	esi
	push	edi
	mov	DWORD PTR _this$[ebp], ecx

; 297  : 	int at = AmmoDef->AmmoType;

	mov	eax, DWORD PTR _this$[ebp]
	mov	ecx, DWORD PTR [eax+1992]
	add	ecx, 140				; 0000008cH
	call	??B?$SafeDataClass@H@@QBEHXZ		; SafeDataClass<int>::operator int
	mov	DWORD PTR _at$[ebp], eax

; 298  : 	if (!Owner && Player && AmmoDef && (1 != at))

	mov	ecx, DWORD PTR _this$[ebp]
	add	ecx, 1972				; 000007b4H
	call	??BReferencerClass@@QBEPAVScriptableGameObj@@XZ ; ReferencerClass::operator ScriptableGameObj *
	test	eax, eax
	jne	SHORT $LN6@Restore_Ow
	mov	eax, DWORD PTR _this$[ebp]
	cmp	DWORD PTR [eax+1988], 0
	je	SHORT $LN6@Restore_Ow
	mov	eax, DWORD PTR _this$[ebp]
	cmp	DWORD PTR [eax+1992], 0
	je	SHORT $LN6@Restore_Ow
	cmp	DWORD PTR _at$[ebp], 1
	je	SHORT $LN6@Restore_Ow

; 299  : 	{
; 300  : 		TT_FOREACH(object, GameObjManager::StarGameObjList)

	mov	eax, DWORD PTR ?StarGameObjList@GameObjManager@@2AAV?$SList@VSoldierGameObj@@@@A ; GameObjManager::StarGameObjList
	push	eax
	lea	ecx, DWORD PTR _object$1[ebp]
	call	??0?$Iterator@AAV?$SList@VSoldierGameObj@@@@@@QAE@AAV?$SList@VSoldierGameObj@@@@@Z ; Iterator<SList<SoldierGameObj> &>::Iterator<SList<SoldierGameObj> &>
	jmp	SHORT $LN4@Restore_Ow
$LN3@Restore_Ow:
	lea	ecx, DWORD PTR _object$1[ebp]
	call	??E?$Iterator@AAV?$SList@VSoldierGameObj@@@@@@QAEAAV0@XZ ; Iterator<SList<SoldierGameObj> &>::operator++
$LN4@Restore_Ow:
	lea	ecx, DWORD PTR _object$1[ebp]
	call	??B?$Iterator@AAV?$SList@VSoldierGameObj@@@@@@QAE_NXZ ; Iterator<SList<SoldierGameObj> &>::operator bool
	movzx	eax, al
	test	eax, eax
	je	SHORT $LN6@Restore_Ow

; 301  : 		{
; 302  : 			if (object->Get_Player_Data() == Player)

	lea	ecx, DWORD PTR _object$1[ebp]
	call	??C?$Iterator@AAV?$SList@VSoldierGameObj@@@@@@QAEPAVSoldierGameObj@@XZ ; Iterator<SList<SoldierGameObj> &>::operator->
	mov	ecx, eax
	call	?Get_Player_Data@SmartGameObj@@QAEPAVPlayerDataClass@@XZ ; SmartGameObj::Get_Player_Data
	mov	ecx, DWORD PTR _this$[ebp]
	cmp	eax, DWORD PTR [ecx+1988]
	jne	SHORT $LN1@Restore_Ow

; 303  : 			{
; 304  : 				Owner = object;

	lea	ecx, DWORD PTR _object$1[ebp]
	call	??B?$Iterator@AAV?$SList@VSoldierGameObj@@@@@@QAEPAVSoldierGameObj@@XZ ; Iterator<SList<SoldierGameObj> &>::operator SoldierGameObj *
	push	eax
	mov	ecx, DWORD PTR _this$[ebp]
	add	ecx, 1972				; 000007b4H
	call	??4ReferencerClass@@QAEAAV0@PAVScriptableGameObj@@@Z ; ReferencerClass::operator=

; 305  : 				break;

	jmp	SHORT $LN6@Restore_Ow
$LN1@Restore_Ow:

; 306  : 			}
; 307  : 		}

	jmp	SHORT $LN3@Restore_Ow
$LN6@Restore_Ow:

; 308  : 
; 309  : 		/*
; 310  : 		if (!Owner)
; 311  : 		{
; 312  : 			Player = NULL;
; 313  : 			C4GameObj::Defuse(this);
; 314  : 		}
; 315  : 		*/
; 316  : 	}
; 317  : }

	pop	edi
	pop	esi
	pop	ebx
	mov	esp, ebp
	pop	ebp
	ret	0
?Restore_Owner@C4GameObj@@QAEXXZ ENDP			; C4GameObj::Restore_Owner
_TEXT	ENDS
; Function compile flags: /Odtp /ZI
; File x:\github\renegade\dragonade_rxd\scripts\engine_weap.cpp
;	COMDAT ?Get_Owner@BeaconGameObj@@QAEPAVSoldierGameObj@@XZ
_TEXT	SEGMENT
tv76 = -76						; size = 4
_physicalOwner$ = -8					; size = 4
_this$ = -4						; size = 4
?Get_Owner@BeaconGameObj@@QAEPAVSoldierGameObj@@XZ PROC	; BeaconGameObj::Get_Owner, COMDAT
; _this$ = ecx

; 35   : {

	push	ebp
	mov	ebp, esp
	sub	esp, 76					; 0000004cH
	push	ebx
	push	esi
	push	edi
	mov	DWORD PTR _this$[ebp], ecx

; 36   : 	if (!Owner)

	mov	ecx, DWORD PTR _this$[ebp]
	add	ecx, 1968				; 000007b0H
	call	??BReferencerClass@@QBEPAVScriptableGameObj@@XZ ; ReferencerClass::operator ScriptableGameObj *
	test	eax, eax
	jne	SHORT $LN2@Get_Owner

; 37   : 		return NULL;

	xor	eax, eax
	jmp	SHORT $LN3@Get_Owner
$LN2@Get_Owner:

; 38   : 	
; 39   : 	PhysicalGameObj* physicalOwner = Owner->As_PhysicalGameObj();

	mov	ecx, DWORD PTR _this$[ebp]
	add	ecx, 1968				; 000007b0H
	call	??CReferencerClass@@QAEPAVScriptableGameObj@@XZ ; ReferencerClass::operator->
	mov	DWORD PTR tv76[ebp], eax
	mov	eax, DWORD PTR tv76[ebp]
	mov	edx, DWORD PTR [eax]
	mov	ecx, DWORD PTR tv76[ebp]
	mov	eax, DWORD PTR [edx+36]
	call	eax
	mov	DWORD PTR _physicalOwner$[ebp], eax

; 40   : 	if (!physicalOwner)

	cmp	DWORD PTR _physicalOwner$[ebp], 0
	jne	SHORT $LN1@Get_Owner

; 41   : 		return NULL;

	xor	eax, eax
	jmp	SHORT $LN3@Get_Owner
$LN1@Get_Owner:

; 42   : 	
; 43   : 	return physicalOwner->As_SoldierGameObj();

	mov	eax, DWORD PTR _physicalOwner$[ebp]
	mov	edx, DWORD PTR [eax]
	mov	ecx, DWORD PTR _physicalOwner$[ebp]
	mov	eax, DWORD PTR [edx+68]
	call	eax
$LN3@Get_Owner:

; 44   : }

	pop	edi
	pop	esi
	pop	ebx
	mov	esp, ebp
	pop	ebp
	ret	0
?Get_Owner@BeaconGameObj@@QAEPAVSoldierGameObj@@XZ ENDP	; BeaconGameObj::Get_Owner
_TEXT	ENDS
; Function compile flags: /Odtp /ZI
; File x:\github\renegade\dragonade_rxd\scripts\physicalgameobj.h
;	COMDAT ?Get_Position@PhysicalGameObj@@QAE?AVVector3@@XZ
_TEXT	SEGMENT
_Return$ = -16						; size = 12
_this$ = -4						; size = 4
___$ReturnUdt$ = 8					; size = 4
?Get_Position@PhysicalGameObj@@QAE?AVVector3@@XZ PROC	; PhysicalGameObj::Get_Position, COMDAT
; _this$ = ecx

; 47   : 	SCRIPTS_API Vector3 Get_Position() { Vector3 Return; Peek_Physical_Object()->Get_Position(&Return); return Return; }

	push	ebp
	mov	ebp, esp
	sub	esp, 80					; 00000050H
	push	ebx
	push	esi
	push	edi
	mov	DWORD PTR _this$[ebp], ecx
	lea	ecx, DWORD PTR _Return$[ebp]
	call	??0Vector3@@QAE@XZ			; Vector3::Vector3
	lea	eax, DWORD PTR _Return$[ebp]
	push	eax
	mov	ecx, DWORD PTR _this$[ebp]
	call	?Peek_Physical_Object@PhysicalGameObj@@QBEPAVPhysClass@@XZ ; PhysicalGameObj::Peek_Physical_Object
	mov	ecx, eax
	call	?Get_Position@PhysClass@@QBEXPAVVector3@@@Z ; PhysClass::Get_Position
	lea	eax, DWORD PTR _Return$[ebp]
	push	eax
	mov	ecx, DWORD PTR ___$ReturnUdt$[ebp]
	call	??0Vector3@@QAE@ABV0@@Z			; Vector3::Vector3
	mov	eax, DWORD PTR ___$ReturnUdt$[ebp]
	pop	edi
	pop	esi
	pop	ebx
	mov	esp, ebp
	pop	ebp
	ret	4
?Get_Position@PhysicalGameObj@@QAE?AVVector3@@XZ ENDP	; PhysicalGameObj::Get_Position
_TEXT	ENDS
; Function compile flags: /Odtp /ZI
; File x:\github\renegade\dragonade_rxd\scripts\physicalgameobj.h
;	COMDAT ?Peek_Physical_Object@PhysicalGameObj@@QBEPAVPhysClass@@XZ
_TEXT	SEGMENT
_this$ = -4						; size = 4
?Peek_Physical_Object@PhysicalGameObj@@QBEPAVPhysClass@@XZ PROC ; PhysicalGameObj::Peek_Physical_Object, COMDAT
; _this$ = ecx

; 40   : 	inline PhysClass *	Peek_Physical_Object( void ) const { return PhysObj; }

	push	ebp
	mov	ebp, esp
	sub	esp, 68					; 00000044H
	push	ebx
	push	esi
	push	edi
	mov	DWORD PTR _this$[ebp], ecx
	mov	eax, DWORD PTR _this$[ebp]
	mov	eax, DWORD PTR [eax+1908]
	pop	edi
	pop	esi
	pop	ebx
	mov	esp, ebp
	pop	ebp
	ret	0
?Peek_Physical_Object@PhysicalGameObj@@QBEPAVPhysClass@@XZ ENDP ; PhysicalGameObj::Peek_Physical_Object
_TEXT	ENDS
; Function compile flags: /Odtp /ZI
; File x:\github\renegade\dragonade_rxd\scripts\physclass.h
;	COMDAT ?Get_Position@PhysClass@@QBEXPAVVector3@@@Z
_TEXT	SEGMENT
_this$ = -4						; size = 4
_set_pos$ = 8						; size = 4
?Get_Position@PhysClass@@QBEXPAVVector3@@@Z PROC	; PhysClass::Get_Position, COMDAT
; _this$ = ecx

; 73   : 	void								Get_Position(Vector3 * set_pos) const	{ Get_Transform().Get_Translation(set_pos); }

	push	ebp
	mov	ebp, esp
	sub	esp, 68					; 00000044H
	push	ebx
	push	esi
	push	edi
	mov	DWORD PTR _this$[ebp], ecx
	mov	eax, DWORD PTR _set_pos$[ebp]
	push	eax
	mov	ecx, DWORD PTR _this$[ebp]
	mov	edx, DWORD PTR [ecx]
	mov	ecx, DWORD PTR _this$[ebp]
	mov	eax, DWORD PTR [edx+24]
	call	eax
	mov	ecx, eax
	call	?Get_Translation@Matrix3D@@QBEXPAVVector3@@@Z ; Matrix3D::Get_Translation
	pop	edi
	pop	esi
	pop	ebx
	mov	esp, ebp
	pop	ebp
	ret	4
?Get_Position@PhysClass@@QBEXPAVVector3@@@Z ENDP	; PhysClass::Get_Position
_TEXT	ENDS
; Function compile flags: /Odtp /ZI
;	COMDAT ??4LineSegClass@@QAEAAV0@ABV0@@Z
_TEXT	SEGMENT
_this$ = -4						; size = 4
___that$ = 8						; size = 4
??4LineSegClass@@QAEAAV0@ABV0@@Z PROC			; LineSegClass::operator=, COMDAT
; _this$ = ecx
	push	ebp
	mov	ebp, esp
	sub	esp, 68					; 00000044H
	push	ebx
	push	esi
	push	edi
	mov	DWORD PTR _this$[ebp], ecx
	mov	eax, DWORD PTR ___that$[ebp]
	push	eax
	mov	ecx, DWORD PTR _this$[ebp]
	call	??4Vector3@@QAEAAV0@ABV0@@Z		; Vector3::operator=
	mov	eax, DWORD PTR ___that$[ebp]
	add	eax, 12					; 0000000cH
	push	eax
	mov	ecx, DWORD PTR _this$[ebp]
	add	ecx, 12					; 0000000cH
	call	??4Vector3@@QAEAAV0@ABV0@@Z		; Vector3::operator=
	mov	eax, DWORD PTR ___that$[ebp]
	add	eax, 24					; 00000018H
	push	eax
	mov	ecx, DWORD PTR _this$[ebp]
	add	ecx, 24					; 00000018H
	call	??4Vector3@@QAEAAV0@ABV0@@Z		; Vector3::operator=
	mov	eax, DWORD PTR ___that$[ebp]
	add	eax, 36					; 00000024H
	push	eax
	mov	ecx, DWORD PTR _this$[ebp]
	add	ecx, 36					; 00000024H
	call	??4Vector3@@QAEAAV0@ABV0@@Z		; Vector3::operator=
	mov	eax, DWORD PTR _this$[ebp]
	mov	ecx, DWORD PTR ___that$[ebp]
	mov	edx, DWORD PTR [ecx+48]
	mov	DWORD PTR [eax+48], edx
	mov	eax, DWORD PTR _this$[ebp]
	pop	edi
	pop	esi
	pop	ebx
	mov	esp, ebp
	pop	ebp
	ret	4
??4LineSegClass@@QAEAAV0@ABV0@@Z ENDP			; LineSegClass::operator=
_TEXT	ENDS
; Function compile flags: /Odtp /ZI
;	COMDAT ??0LineSegClass@@QAE@ABV0@@Z
_TEXT	SEGMENT
_this$ = -4						; size = 4
___that$ = 8						; size = 4
??0LineSegClass@@QAE@ABV0@@Z PROC			; LineSegClass::LineSegClass, COMDAT
; _this$ = ecx
	push	ebp
	mov	ebp, esp
	sub	esp, 68					; 00000044H
	push	ebx
	push	esi
	push	edi
	mov	DWORD PTR _this$[ebp], ecx
	mov	eax, DWORD PTR ___that$[ebp]
	push	eax
	mov	ecx, DWORD PTR _this$[ebp]
	call	??0Vector3@@QAE@ABV0@@Z			; Vector3::Vector3
	mov	eax, DWORD PTR ___that$[ebp]
	add	eax, 12					; 0000000cH
	push	eax
	mov	ecx, DWORD PTR _this$[ebp]
	add	ecx, 12					; 0000000cH
	call	??0Vector3@@QAE@ABV0@@Z			; Vector3::Vector3
	mov	eax, DWORD PTR ___that$[ebp]
	add	eax, 24					; 00000018H
	push	eax
	mov	ecx, DWORD PTR _this$[ebp]
	add	ecx, 24					; 00000018H
	call	??0Vector3@@QAE@ABV0@@Z			; Vector3::Vector3
	mov	eax, DWORD PTR ___that$[ebp]
	add	eax, 36					; 00000024H
	push	eax
	mov	ecx, DWORD PTR _this$[ebp]
	add	ecx, 36					; 00000024H
	call	??0Vector3@@QAE@ABV0@@Z			; Vector3::Vector3
	mov	eax, DWORD PTR _this$[ebp]
	mov	ecx, DWORD PTR ___that$[ebp]
	mov	edx, DWORD PTR [ecx+48]
	mov	DWORD PTR [eax+48], edx
	mov	eax, DWORD PTR _this$[ebp]
	pop	edi
	pop	esi
	pop	ebx
	mov	esp, ebp
	pop	ebp
	ret	4
??0LineSegClass@@QAE@ABV0@@Z ENDP			; LineSegClass::LineSegClass
_TEXT	ENDS
; Function compile flags: /Odtp /ZI
; File x:\github\renegade\dragonade_rxd\scripts\linesegclass.h
;	COMDAT ?recalculate@LineSegClass@@IAEXXZ
_TEXT	SEGMENT
$T1 = -80						; size = 12
_this$ = -4						; size = 4
?recalculate@LineSegClass@@IAEXXZ PROC			; LineSegClass::recalculate, COMDAT
; _this$ = ecx

; 81   : 	{

	push	ebp
	mov	ebp, esp
	sub	esp, 80					; 00000050H
	push	ebx
	push	esi
	push	edi
	mov	DWORD PTR _this$[ebp], ecx

; 82   : 		DP = P1 - P0;

	mov	eax, DWORD PTR _this$[ebp]
	push	eax
	mov	ecx, DWORD PTR _this$[ebp]
	add	ecx, 12					; 0000000cH
	push	ecx
	lea	edx, DWORD PTR $T1[ebp]
	push	edx
	call	??G@YA?AVVector3@@ABV0@0@Z		; operator-
	add	esp, 12					; 0000000cH
	push	eax
	mov	ecx, DWORD PTR _this$[ebp]
	add	ecx, 24					; 00000018H
	call	??4Vector3@@QAEAAV0@ABV0@@Z		; Vector3::operator=

; 83   : 		Dir = DP;

	mov	eax, DWORD PTR _this$[ebp]
	add	eax, 24					; 00000018H
	push	eax
	mov	ecx, DWORD PTR _this$[ebp]
	add	ecx, 36					; 00000024H
	call	??4Vector3@@QAEAAV0@ABV0@@Z		; Vector3::operator=

; 84   : 		Dir.Normalize();

	mov	ecx, DWORD PTR _this$[ebp]
	add	ecx, 36					; 00000024H
	call	?Normalize@Vector3@@QAEXXZ		; Vector3::Normalize

; 85   : 		Length = DP.Length();

	mov	ecx, DWORD PTR _this$[ebp]
	add	ecx, 24					; 00000018H
	call	?Length@Vector3@@QBEMXZ			; Vector3::Length
	mov	eax, DWORD PTR _this$[ebp]
	fstp	DWORD PTR [eax+48]

; 86   : 	}

	pop	edi
	pop	esi
	pop	ebx
	mov	esp, ebp
	pop	ebp
	ret	0
?recalculate@LineSegClass@@IAEXXZ ENDP			; LineSegClass::recalculate
_TEXT	ENDS
; Function compile flags: /Odtp /ZI
; File x:\github\renegade\dragonade_rxd\scripts\linesegclass.h
;	COMDAT ?Compute_Point@LineSegClass@@QBEXMPAVVector3@@@Z
_TEXT	SEGMENT
$T1 = -80						; size = 12
_this$ = -4						; size = 4
_t$ = 8							; size = 4
_set$ = 12						; size = 4
?Compute_Point@LineSegClass@@QBEXMPAVVector3@@@Z PROC	; LineSegClass::Compute_Point, COMDAT
; _this$ = ecx

; 74   : 	{

	push	ebp
	mov	ebp, esp
	sub	esp, 80					; 00000050H
	push	ebx
	push	esi
	push	edi
	mov	DWORD PTR _this$[ebp], ecx

; 75   : 		Vector3::Add(P0,t*DP,set);

	mov	eax, DWORD PTR _set$[ebp]
	push	eax
	mov	ecx, DWORD PTR _this$[ebp]
	add	ecx, 24					; 00000018H
	push	ecx
	push	ecx
	movss	xmm0, DWORD PTR _t$[ebp]
	movss	DWORD PTR [esp], xmm0
	lea	edx, DWORD PTR $T1[ebp]
	push	edx
	call	??D@YA?AVVector3@@MABV0@@Z		; operator*
	add	esp, 12					; 0000000cH
	push	eax
	mov	eax, DWORD PTR _this$[ebp]
	push	eax
	call	?Add@Vector3@@SAXABV1@0PAV1@@Z		; Vector3::Add
	add	esp, 12					; 0000000cH

; 76   : 	}

	pop	edi
	pop	esi
	pop	ebx
	mov	esp, ebp
	pop	ebp
	ret	8
?Compute_Point@LineSegClass@@QBEXMPAVVector3@@@Z ENDP	; LineSegClass::Compute_Point
_TEXT	ENDS
; Function compile flags: /Odtp /ZI
; File x:\github\renegade\dragonade_rxd\scripts\linesegclass.h
;	COMDAT ?Get_Length@LineSegClass@@QBEMXZ
_TEXT	SEGMENT
_this$ = -4						; size = 4
?Get_Length@LineSegClass@@QBEMXZ PROC			; LineSegClass::Get_Length, COMDAT
; _this$ = ecx

; 70   : 	{

	push	ebp
	mov	ebp, esp
	sub	esp, 68					; 00000044H
	push	ebx
	push	esi
	push	edi
	mov	DWORD PTR _this$[ebp], ecx

; 71   : 		return Length;

	mov	eax, DWORD PTR _this$[ebp]
	fld	DWORD PTR [eax+48]

; 72   : 	}

	pop	edi
	pop	esi
	pop	ebx
	mov	esp, ebp
	pop	ebp
	ret	0
?Get_Length@LineSegClass@@QBEMXZ ENDP			; LineSegClass::Get_Length
_TEXT	ENDS
; Function compile flags: /Odtp /ZI
; File x:\github\renegade\dragonade_rxd\scripts\linesegclass.h
;	COMDAT ?Get_Dir@LineSegClass@@QBEABVVector3@@XZ
_TEXT	SEGMENT
_this$ = -4						; size = 4
?Get_Dir@LineSegClass@@QBEABVVector3@@XZ PROC		; LineSegClass::Get_Dir, COMDAT
; _this$ = ecx

; 66   : 	{

	push	ebp
	mov	ebp, esp
	sub	esp, 68					; 00000044H
	push	ebx
	push	esi
	push	edi
	mov	DWORD PTR _this$[ebp], ecx

; 67   : 		return Dir;

	mov	eax, DWORD PTR _this$[ebp]
	add	eax, 36					; 00000024H

; 68   : 	}

	pop	edi
	pop	esi
	pop	ebx
	mov	esp, ebp
	pop	ebp
	ret	0
?Get_Dir@LineSegClass@@QBEABVVector3@@XZ ENDP		; LineSegClass::Get_Dir
_TEXT	ENDS
; Function compile flags: /Odtp /ZI
; File x:\github\renegade\dragonade_rxd\scripts\linesegclass.h
;	COMDAT ?Get_DP@LineSegClass@@QBEABVVector3@@XZ
_TEXT	SEGMENT
_this$ = -4						; size = 4
?Get_DP@LineSegClass@@QBEABVVector3@@XZ PROC		; LineSegClass::Get_DP, COMDAT
; _this$ = ecx

; 62   : 	{

	push	ebp
	mov	ebp, esp
	sub	esp, 68					; 00000044H
	push	ebx
	push	esi
	push	edi
	mov	DWORD PTR _this$[ebp], ecx

; 63   : 		return DP;

	mov	eax, DWORD PTR _this$[ebp]
	add	eax, 24					; 00000018H

; 64   : 	}

	pop	edi
	pop	esi
	pop	ebx
	mov	esp, ebp
	pop	ebp
	ret	0
?Get_DP@LineSegClass@@QBEABVVector3@@XZ ENDP		; LineSegClass::Get_DP
_TEXT	ENDS
; Function compile flags: /Odtp /ZI
; File x:\github\renegade\dragonade_rxd\scripts\linesegclass.h
;	COMDAT ?Get_P1@LineSegClass@@QBEABVVector3@@XZ
_TEXT	SEGMENT
_this$ = -4						; size = 4
?Get_P1@LineSegClass@@QBEABVVector3@@XZ PROC		; LineSegClass::Get_P1, COMDAT
; _this$ = ecx

; 58   : 	{

	push	ebp
	mov	ebp, esp
	sub	esp, 68					; 00000044H
	push	ebx
	push	esi
	push	edi
	mov	DWORD PTR _this$[ebp], ecx

; 59   : 		return P1;

	mov	eax, DWORD PTR _this$[ebp]
	add	eax, 12					; 0000000cH

; 60   : 	}

	pop	edi
	pop	esi
	pop	ebx
	mov	esp, ebp
	pop	ebp
	ret	0
?Get_P1@LineSegClass@@QBEABVVector3@@XZ ENDP		; LineSegClass::Get_P1
_TEXT	ENDS
; Function compile flags: /Odtp /ZI
; File x:\github\renegade\dragonade_rxd\scripts\linesegclass.h
;	COMDAT ?Get_P0@LineSegClass@@QBEABVVector3@@XZ
_TEXT	SEGMENT
_this$ = -4						; size = 4
?Get_P0@LineSegClass@@QBEABVVector3@@XZ PROC		; LineSegClass::Get_P0, COMDAT
; _this$ = ecx

; 54   : 	{

	push	ebp
	mov	ebp, esp
	sub	esp, 68					; 00000044H
	push	ebx
	push	esi
	push	edi
	mov	DWORD PTR _this$[ebp], ecx

; 55   : 		return P0;

	mov	eax, DWORD PTR _this$[ebp]

; 56   : 	}

	pop	edi
	pop	esi
	pop	ebx
	mov	esp, ebp
	pop	ebp
	ret	0
?Get_P0@LineSegClass@@QBEABVVector3@@XZ ENDP		; LineSegClass::Get_P0
_TEXT	ENDS
; Function compile flags: /Odtp /ZI
; File x:\github\renegade\dragonade_rxd\scripts\linesegclass.h
;	COMDAT ?Set@LineSegClass@@QAEXABVVector3@@0M@Z
_TEXT	SEGMENT
$T1 = -92						; size = 12
$T2 = -80						; size = 12
_this$ = -4						; size = 4
_p0$ = 8						; size = 4
_dir$ = 12						; size = 4
_l$ = 16						; size = 4
?Set@LineSegClass@@QAEXABVVector3@@0M@Z PROC		; LineSegClass::Set, COMDAT
; _this$ = ecx

; 44   : 	{

	push	ebp
	mov	ebp, esp
	sub	esp, 92					; 0000005cH
	push	ebx
	push	esi
	push	edi
	mov	DWORD PTR _this$[ebp], ecx

; 45   : 		DP = dir * l;

	push	ecx
	movss	xmm0, DWORD PTR _l$[ebp]
	movss	DWORD PTR [esp], xmm0
	mov	eax, DWORD PTR _dir$[ebp]
	push	eax
	lea	ecx, DWORD PTR $T1[ebp]
	push	ecx
	call	??D@YA?AVVector3@@ABV0@M@Z		; operator*
	add	esp, 12					; 0000000cH
	push	eax
	mov	ecx, DWORD PTR _this$[ebp]
	add	ecx, 24					; 00000018H
	call	??4Vector3@@QAEAAV0@ABV0@@Z		; Vector3::operator=

; 46   : 		P0 = p0;

	mov	eax, DWORD PTR _p0$[ebp]
	push	eax
	mov	ecx, DWORD PTR _this$[ebp]
	call	??4Vector3@@QAEAAV0@ABV0@@Z		; Vector3::operator=

; 47   : 		P1 = p0 + DP;

	mov	eax, DWORD PTR _this$[ebp]
	add	eax, 24					; 00000018H
	push	eax
	mov	ecx, DWORD PTR _p0$[ebp]
	push	ecx
	lea	edx, DWORD PTR $T2[ebp]
	push	edx
	call	??H@YA?AVVector3@@ABV0@0@Z		; operator+
	add	esp, 12					; 0000000cH
	push	eax
	mov	ecx, DWORD PTR _this$[ebp]
	add	ecx, 12					; 0000000cH
	call	??4Vector3@@QAEAAV0@ABV0@@Z		; Vector3::operator=

; 48   : 		Dir = dir;

	mov	eax, DWORD PTR _dir$[ebp]
	push	eax
	mov	ecx, DWORD PTR _this$[ebp]
	add	ecx, 36					; 00000024H
	call	??4Vector3@@QAEAAV0@ABV0@@Z		; Vector3::operator=

; 49   : 		Length = l;

	mov	eax, DWORD PTR _this$[ebp]
	movss	xmm0, DWORD PTR _l$[ebp]
	movss	DWORD PTR [eax+48], xmm0

; 50   : 	}

	pop	edi
	pop	esi
	pop	ebx
	mov	esp, ebp
	pop	ebp
	ret	12					; 0000000cH
?Set@LineSegClass@@QAEXABVVector3@@0M@Z ENDP		; LineSegClass::Set
_TEXT	ENDS
; Function compile flags: /Odtp /ZI
; File x:\github\renegade\dragonade_rxd\scripts\linesegclass.h
;	COMDAT ?Set@LineSegClass@@QAEXABVVector3@@0@Z
_TEXT	SEGMENT
_this$ = -4						; size = 4
_p0$ = 8						; size = 4
_p1$ = 12						; size = 4
?Set@LineSegClass@@QAEXABVVector3@@0@Z PROC		; LineSegClass::Set, COMDAT
; _this$ = ecx

; 38   : 	{

	push	ebp
	mov	ebp, esp
	sub	esp, 68					; 00000044H
	push	ebx
	push	esi
	push	edi
	mov	DWORD PTR _this$[ebp], ecx

; 39   : 		P0 = p0;

	mov	eax, DWORD PTR _p0$[ebp]
	push	eax
	mov	ecx, DWORD PTR _this$[ebp]
	call	??4Vector3@@QAEAAV0@ABV0@@Z		; Vector3::operator=

; 40   : 		P1 = p1;

	mov	eax, DWORD PTR _p1$[ebp]
	push	eax
	mov	ecx, DWORD PTR _this$[ebp]
	add	ecx, 12					; 0000000cH
	call	??4Vector3@@QAEAAV0@ABV0@@Z		; Vector3::operator=

; 41   : 		recalculate();

	mov	ecx, DWORD PTR _this$[ebp]
	call	?recalculate@LineSegClass@@IAEXXZ	; LineSegClass::recalculate

; 42   : 	}

	pop	edi
	pop	esi
	pop	ebx
	mov	esp, ebp
	pop	ebp
	ret	8
?Set@LineSegClass@@QAEXABVVector3@@0@Z ENDP		; LineSegClass::Set
_TEXT	ENDS
; Function compile flags: /Odtp /ZI
; File x:\github\renegade\dragonade_rxd\scripts\linesegclass.h
;	COMDAT ??0LineSegClass@@QAE@ABV0@ABVMatrix3D@@@Z
_TEXT	SEGMENT
_this$ = -4						; size = 4
_that$ = 8						; size = 4
_tm$ = 12						; size = 4
??0LineSegClass@@QAE@ABV0@ABVMatrix3D@@@Z PROC		; LineSegClass::LineSegClass, COMDAT
; _this$ = ecx

; 33   : 	LineSegClass(const LineSegClass & that,const Matrix3D & tm)

	push	ebp
	mov	ebp, esp
	sub	esp, 68					; 00000044H
	push	ebx
	push	esi
	push	edi
	mov	DWORD PTR _this$[ebp], ecx
	mov	ecx, DWORD PTR _this$[ebp]
	call	??0Vector3@@QAE@XZ			; Vector3::Vector3
	mov	ecx, DWORD PTR _this$[ebp]
	add	ecx, 12					; 0000000cH
	call	??0Vector3@@QAE@XZ			; Vector3::Vector3
	mov	ecx, DWORD PTR _this$[ebp]
	add	ecx, 24					; 00000018H
	call	??0Vector3@@QAE@XZ			; Vector3::Vector3
	mov	ecx, DWORD PTR _this$[ebp]
	add	ecx, 36					; 00000024H
	call	??0Vector3@@QAE@XZ			; Vector3::Vector3

; 34   : 	{
; 35   : 		Set(that,tm);

	mov	eax, DWORD PTR _tm$[ebp]
	push	eax
	mov	ecx, DWORD PTR _that$[ebp]
	push	ecx
	mov	ecx, DWORD PTR _this$[ebp]
	call	?Set@LineSegClass@@QAEXABV1@ABVMatrix3D@@@Z ; LineSegClass::Set

; 36   : 	}

	mov	eax, DWORD PTR _this$[ebp]
	pop	edi
	pop	esi
	pop	ebx
	mov	esp, ebp
	pop	ebp
	ret	8
??0LineSegClass@@QAE@ABV0@ABVMatrix3D@@@Z ENDP		; LineSegClass::LineSegClass
_TEXT	ENDS
; Function compile flags: /Odtp /ZI
; File x:\github\renegade\dragonade_rxd\scripts\linesegclass.h
;	COMDAT ??0LineSegClass@@QAE@ABVVector3@@0M@Z
_TEXT	SEGMENT
$T1 = -92						; size = 12
$T2 = -80						; size = 12
_this$ = -4						; size = 4
_p0$ = 8						; size = 4
_dir$ = 12						; size = 4
_l$ = 16						; size = 4
??0LineSegClass@@QAE@ABVVector3@@0M@Z PROC		; LineSegClass::LineSegClass, COMDAT
; _this$ = ecx

; 29   : 	{

	push	ebp
	mov	ebp, esp
	sub	esp, 92					; 0000005cH
	push	ebx
	push	esi
	push	edi
	mov	DWORD PTR _this$[ebp], ecx
	mov	eax, DWORD PTR _p0$[ebp]
	push	eax
	mov	ecx, DWORD PTR _this$[ebp]
	call	??0Vector3@@QAE@ABV0@@Z			; Vector3::Vector3
	mov	ecx, DWORD PTR _this$[ebp]
	add	ecx, 12					; 0000000cH
	call	??0Vector3@@QAE@XZ			; Vector3::Vector3
	mov	ecx, DWORD PTR _this$[ebp]
	add	ecx, 24					; 00000018H
	call	??0Vector3@@QAE@XZ			; Vector3::Vector3
	mov	eax, DWORD PTR _dir$[ebp]
	push	eax
	mov	ecx, DWORD PTR _this$[ebp]
	add	ecx, 36					; 00000024H
	call	??0Vector3@@QAE@ABV0@@Z			; Vector3::Vector3
	mov	eax, DWORD PTR _this$[ebp]
	movss	xmm0, DWORD PTR _l$[ebp]
	movss	DWORD PTR [eax+48], xmm0

; 30   : 		DP = Dir * Length;

	mov	eax, DWORD PTR _this$[ebp]
	push	ecx
	movss	xmm0, DWORD PTR [eax+48]
	movss	DWORD PTR [esp], xmm0
	mov	ecx, DWORD PTR _this$[ebp]
	add	ecx, 36					; 00000024H
	push	ecx
	lea	edx, DWORD PTR $T1[ebp]
	push	edx
	call	??D@YA?AVVector3@@ABV0@M@Z		; operator*
	add	esp, 12					; 0000000cH
	push	eax
	mov	ecx, DWORD PTR _this$[ebp]
	add	ecx, 24					; 00000018H
	call	??4Vector3@@QAEAAV0@ABV0@@Z		; Vector3::operator=

; 31   : 		P1 = P0 + DP;

	mov	eax, DWORD PTR _this$[ebp]
	add	eax, 24					; 00000018H
	push	eax
	mov	ecx, DWORD PTR _this$[ebp]
	push	ecx
	lea	edx, DWORD PTR $T2[ebp]
	push	edx
	call	??H@YA?AVVector3@@ABV0@0@Z		; operator+
	add	esp, 12					; 0000000cH
	push	eax
	mov	ecx, DWORD PTR _this$[ebp]
	add	ecx, 12					; 0000000cH
	call	??4Vector3@@QAEAAV0@ABV0@@Z		; Vector3::operator=

; 32   : 	}

	mov	eax, DWORD PTR _this$[ebp]
	pop	edi
	pop	esi
	pop	ebx
	mov	esp, ebp
	pop	ebp
	ret	12					; 0000000cH
??0LineSegClass@@QAE@ABVVector3@@0M@Z ENDP		; LineSegClass::LineSegClass
_TEXT	ENDS
; Function compile flags: /Odtp /ZI
; File x:\github\renegade\dragonade_rxd\scripts\linesegclass.h
;	COMDAT ??0LineSegClass@@QAE@ABVVector3@@0@Z
_TEXT	SEGMENT
_this$ = -4						; size = 4
_p0$ = 8						; size = 4
_p1$ = 12						; size = 4
??0LineSegClass@@QAE@ABVVector3@@0@Z PROC		; LineSegClass::LineSegClass, COMDAT
; _this$ = ecx

; 25   : 	{

	push	ebp
	mov	ebp, esp
	sub	esp, 68					; 00000044H
	push	ebx
	push	esi
	push	edi
	mov	DWORD PTR _this$[ebp], ecx
	mov	eax, DWORD PTR _p0$[ebp]
	push	eax
	mov	ecx, DWORD PTR _this$[ebp]
	call	??0Vector3@@QAE@ABV0@@Z			; Vector3::Vector3
	mov	eax, DWORD PTR _p1$[ebp]
	push	eax
	mov	ecx, DWORD PTR _this$[ebp]
	add	ecx, 12					; 0000000cH
	call	??0Vector3@@QAE@ABV0@@Z			; Vector3::Vector3
	mov	ecx, DWORD PTR _this$[ebp]
	add	ecx, 24					; 00000018H
	call	??0Vector3@@QAE@XZ			; Vector3::Vector3
	mov	ecx, DWORD PTR _this$[ebp]
	add	ecx, 36					; 00000024H
	call	??0Vector3@@QAE@XZ			; Vector3::Vector3

; 26   : 		recalculate();

	mov	ecx, DWORD PTR _this$[ebp]
	call	?recalculate@LineSegClass@@IAEXXZ	; LineSegClass::recalculate

; 27   : 	}

	mov	eax, DWORD PTR _this$[ebp]
	pop	edi
	pop	esi
	pop	ebx
	mov	esp, ebp
	pop	ebp
	ret	8
??0LineSegClass@@QAE@ABVVector3@@0@Z ENDP		; LineSegClass::LineSegClass
_TEXT	ENDS
; Function compile flags: /Odtp /ZI
; File x:\github\renegade\dragonade_rxd\scripts\linesegclass.h
;	COMDAT ??0LineSegClass@@QAE@XZ
_TEXT	SEGMENT
_this$ = -4						; size = 4
??0LineSegClass@@QAE@XZ PROC				; LineSegClass::LineSegClass, COMDAT
; _this$ = ecx

; 21   : 	LineSegClass(void)

	push	ebp
	mov	ebp, esp
	sub	esp, 68					; 00000044H
	push	ebx
	push	esi
	push	edi
	mov	DWORD PTR _this$[ebp], ecx
	mov	ecx, DWORD PTR _this$[ebp]
	call	??0Vector3@@QAE@XZ			; Vector3::Vector3
	mov	ecx, DWORD PTR _this$[ebp]
	add	ecx, 12					; 0000000cH
	call	??0Vector3@@QAE@XZ			; Vector3::Vector3
	mov	ecx, DWORD PTR _this$[ebp]
	add	ecx, 24					; 00000018H
	call	??0Vector3@@QAE@XZ			; Vector3::Vector3
	mov	ecx, DWORD PTR _this$[ebp]
	add	ecx, 36					; 00000024H
	call	??0Vector3@@QAE@XZ			; Vector3::Vector3

; 22   : 	{
; 23   : 	}

	mov	eax, DWORD PTR _this$[ebp]
	pop	edi
	pop	esi
	pop	ebx
	mov	esp, ebp
	pop	ebp
	ret	0
??0LineSegClass@@QAE@XZ ENDP				; LineSegClass::LineSegClass
_TEXT	ENDS
; Function compile flags: /Odtp /ZI
; File x:\github\renegade\dragonade_rxd\scripts\matrix3d.h
;	COMDAT ?Inverse_Rotate_Vector@Matrix3D@@SAXABV1@ABVVector3@@PAV2@@Z
_TEXT	SEGMENT
tv237 = -88						; size = 4
tv233 = -88						; size = 4
tv229 = -88						; size = 4
tv235 = -84						; size = 4
tv231 = -84						; size = 4
tv227 = -84						; size = 4
_v$ = -16						; size = 4
_tmp$ = -12						; size = 12
_A$ = 8							; size = 4
_in$ = 12						; size = 4
_out$ = 16						; size = 4
?Inverse_Rotate_Vector@Matrix3D@@SAXABV1@ABVVector3@@PAV2@@Z PROC ; Matrix3D::Inverse_Rotate_Vector, COMDAT

; 564  : 	{

	push	ebp
	mov	ebp, esp
	sub	esp, 88					; 00000058H
	push	ebx
	push	esi
	push	edi

; 565  : 		Vector3 tmp;

	lea	ecx, DWORD PTR _tmp$[ebp]
	call	??0Vector3@@QAE@XZ			; Vector3::Vector3

; 566  : 		Vector3 * v;
; 567  : 		if (out == &in)

	mov	eax, DWORD PTR _out$[ebp]
	cmp	eax, DWORD PTR _in$[ebp]
	jne	SHORT $LN2@Inverse_Ro

; 568  : 		{
; 569  : 			tmp = in;

	mov	eax, DWORD PTR _in$[ebp]
	push	eax
	lea	ecx, DWORD PTR _tmp$[ebp]
	call	??4Vector3@@QAEAAV0@ABV0@@Z		; Vector3::operator=

; 570  : 			v = &tmp;

	lea	eax, DWORD PTR _tmp$[ebp]
	mov	DWORD PTR _v$[ebp], eax

; 571  : 		}
; 572  : 		else

	jmp	SHORT $LN1@Inverse_Ro
$LN2@Inverse_Ro:

; 573  : 		{
; 574  : 			v = (Vector3 *)&in;

	mov	eax, DWORD PTR _in$[ebp]
	mov	DWORD PTR _v$[ebp], eax
$LN1@Inverse_Ro:

; 575  : 		}
; 576  : 		out->X = (A[0][0] * v->X + A[1][0] * v->Y + A[2][0] * v->Z);

	push	0
	push	0
	mov	ecx, DWORD PTR _A$[ebp]
	call	??AMatrix3D@@QBEABVVector4@@H@Z		; Matrix3D::operator[]
	mov	ecx, eax
	call	??AVector4@@QBEABMH@Z			; Vector4::operator[]
	mov	ecx, DWORD PTR _v$[ebp]
	movss	xmm0, DWORD PTR [eax]
	mulss	xmm0, DWORD PTR [ecx]
	push	0
	push	1
	mov	ecx, DWORD PTR _A$[ebp]
	movss	DWORD PTR tv227[ebp], xmm0
	call	??AMatrix3D@@QBEABVVector4@@H@Z		; Matrix3D::operator[]
	mov	ecx, eax
	call	??AVector4@@QBEABMH@Z			; Vector4::operator[]
	mov	edx, DWORD PTR _v$[ebp]
	movss	xmm0, DWORD PTR [eax]
	mulss	xmm0, DWORD PTR [edx+4]
	movss	xmm1, DWORD PTR tv227[ebp]
	addss	xmm1, xmm0
	push	0
	push	2
	mov	ecx, DWORD PTR _A$[ebp]
	movss	DWORD PTR tv229[ebp], xmm1
	call	??AMatrix3D@@QBEABVVector4@@H@Z		; Matrix3D::operator[]
	mov	ecx, eax
	call	??AVector4@@QBEABMH@Z			; Vector4::operator[]
	mov	ecx, DWORD PTR _v$[ebp]
	movss	xmm0, DWORD PTR [eax]
	mulss	xmm0, DWORD PTR [ecx+8]
	movss	xmm1, DWORD PTR tv229[ebp]
	addss	xmm1, xmm0
	mov	edx, DWORD PTR _out$[ebp]
	movss	DWORD PTR [edx], xmm1

; 577  : 		out->Y = (A[0][1] * v->X + A[1][1] * v->Y + A[2][1] * v->Z);

	push	1
	push	0
	mov	ecx, DWORD PTR _A$[ebp]
	call	??AMatrix3D@@QBEABVVector4@@H@Z		; Matrix3D::operator[]
	mov	ecx, eax
	call	??AVector4@@QBEABMH@Z			; Vector4::operator[]
	mov	ecx, DWORD PTR _v$[ebp]
	movss	xmm0, DWORD PTR [eax]
	mulss	xmm0, DWORD PTR [ecx]
	push	1
	push	1
	mov	ecx, DWORD PTR _A$[ebp]
	movss	DWORD PTR tv231[ebp], xmm0
	call	??AMatrix3D@@QBEABVVector4@@H@Z		; Matrix3D::operator[]
	mov	ecx, eax
	call	??AVector4@@QBEABMH@Z			; Vector4::operator[]
	mov	edx, DWORD PTR _v$[ebp]
	movss	xmm0, DWORD PTR [eax]
	mulss	xmm0, DWORD PTR [edx+4]
	movss	xmm1, DWORD PTR tv231[ebp]
	addss	xmm1, xmm0
	push	1
	push	2
	mov	ecx, DWORD PTR _A$[ebp]
	movss	DWORD PTR tv233[ebp], xmm1
	call	??AMatrix3D@@QBEABVVector4@@H@Z		; Matrix3D::operator[]
	mov	ecx, eax
	call	??AVector4@@QBEABMH@Z			; Vector4::operator[]
	mov	ecx, DWORD PTR _v$[ebp]
	movss	xmm0, DWORD PTR [eax]
	mulss	xmm0, DWORD PTR [ecx+8]
	movss	xmm1, DWORD PTR tv233[ebp]
	addss	xmm1, xmm0
	mov	edx, DWORD PTR _out$[ebp]
	movss	DWORD PTR [edx+4], xmm1

; 578  : 		out->Z = (A[0][2] * v->X + A[1][2] * v->Y + A[2][2] * v->Z);

	push	2
	push	0
	mov	ecx, DWORD PTR _A$[ebp]
	call	??AMatrix3D@@QBEABVVector4@@H@Z		; Matrix3D::operator[]
	mov	ecx, eax
	call	??AVector4@@QBEABMH@Z			; Vector4::operator[]
	mov	ecx, DWORD PTR _v$[ebp]
	movss	xmm0, DWORD PTR [eax]
	mulss	xmm0, DWORD PTR [ecx]
	push	2
	push	1
	mov	ecx, DWORD PTR _A$[ebp]
	movss	DWORD PTR tv235[ebp], xmm0
	call	??AMatrix3D@@QBEABVVector4@@H@Z		; Matrix3D::operator[]
	mov	ecx, eax
	call	??AVector4@@QBEABMH@Z			; Vector4::operator[]
	mov	edx, DWORD PTR _v$[ebp]
	movss	xmm0, DWORD PTR [eax]
	mulss	xmm0, DWORD PTR [edx+4]
	movss	xmm1, DWORD PTR tv235[ebp]
	addss	xmm1, xmm0
	push	2
	push	2
	mov	ecx, DWORD PTR _A$[ebp]
	movss	DWORD PTR tv237[ebp], xmm1
	call	??AMatrix3D@@QBEABVVector4@@H@Z		; Matrix3D::operator[]
	mov	ecx, eax
	call	??AVector4@@QBEABMH@Z			; Vector4::operator[]
	mov	ecx, DWORD PTR _v$[ebp]
	movss	xmm0, DWORD PTR [eax]
	mulss	xmm0, DWORD PTR [ecx+8]
	movss	xmm1, DWORD PTR tv237[ebp]
	addss	xmm1, xmm0
	mov	edx, DWORD PTR _out$[ebp]
	movss	DWORD PTR [edx+8], xmm1

; 579  : 	}

	pop	edi
	pop	esi
	pop	ebx
	mov	esp, ebp
	pop	ebp
	ret	0
?Inverse_Rotate_Vector@Matrix3D@@SAXABV1@ABVVector3@@PAV2@@Z ENDP ; Matrix3D::Inverse_Rotate_Vector
_TEXT	ENDS
; Function compile flags: /Odtp /ZI
; File x:\github\renegade\dragonade_rxd\scripts\matrix3d.h
;	COMDAT ?Inverse_Transform_Vector@Matrix3D@@SAXABV1@ABVVector3@@PAV2@@Z
_TEXT	SEGMENT
_diff$ = -28						; size = 12
_v$ = -16						; size = 4
_tmp$ = -12						; size = 12
_A$ = 8							; size = 4
_in$ = 12						; size = 4
_out$ = 16						; size = 4
?Inverse_Transform_Vector@Matrix3D@@SAXABV1@ABVVector3@@PAV2@@Z PROC ; Matrix3D::Inverse_Transform_Vector, COMDAT

; 548  : 	{

	push	ebp
	mov	ebp, esp
	sub	esp, 92					; 0000005cH
	push	ebx
	push	esi
	push	edi

; 549  : 		Vector3 tmp;

	lea	ecx, DWORD PTR _tmp$[ebp]
	call	??0Vector3@@QAE@XZ			; Vector3::Vector3

; 550  : 		Vector3 * v;
; 551  : 		if (out == &in)

	mov	eax, DWORD PTR _out$[ebp]
	cmp	eax, DWORD PTR _in$[ebp]
	jne	SHORT $LN2@Inverse_Tr

; 552  : 		{
; 553  : 			tmp = in;

	mov	eax, DWORD PTR _in$[ebp]
	push	eax
	lea	ecx, DWORD PTR _tmp$[ebp]
	call	??4Vector3@@QAEAAV0@ABV0@@Z		; Vector3::operator=

; 554  : 			v = &tmp;

	lea	eax, DWORD PTR _tmp$[ebp]
	mov	DWORD PTR _v$[ebp], eax

; 555  : 		}
; 556  : 		else

	jmp	SHORT $LN1@Inverse_Tr
$LN2@Inverse_Tr:

; 557  : 		{
; 558  : 			v = (Vector3 *)&in;

	mov	eax, DWORD PTR _in$[ebp]
	mov	DWORD PTR _v$[ebp], eax
$LN1@Inverse_Tr:

; 559  : 		}
; 560  : 		Vector3 diff(v->X - A[0][3], v->Y - A[1][3], v->Z - A[2][3]);

	push	3
	push	2
	mov	ecx, DWORD PTR _A$[ebp]
	call	??AMatrix3D@@QBEABVVector4@@H@Z		; Matrix3D::operator[]
	mov	ecx, eax
	call	??AVector4@@QBEABMH@Z			; Vector4::operator[]
	mov	ecx, DWORD PTR _v$[ebp]
	movss	xmm0, DWORD PTR [ecx+8]
	subss	xmm0, DWORD PTR [eax]
	push	ecx
	movss	DWORD PTR [esp], xmm0
	push	3
	push	1
	mov	ecx, DWORD PTR _A$[ebp]
	call	??AMatrix3D@@QBEABVVector4@@H@Z		; Matrix3D::operator[]
	mov	ecx, eax
	call	??AVector4@@QBEABMH@Z			; Vector4::operator[]
	mov	edx, DWORD PTR _v$[ebp]
	movss	xmm0, DWORD PTR [edx+4]
	subss	xmm0, DWORD PTR [eax]
	push	ecx
	movss	DWORD PTR [esp], xmm0
	push	3
	push	0
	mov	ecx, DWORD PTR _A$[ebp]
	call	??AMatrix3D@@QBEABVVector4@@H@Z		; Matrix3D::operator[]
	mov	ecx, eax
	call	??AVector4@@QBEABMH@Z			; Vector4::operator[]
	mov	ecx, DWORD PTR _v$[ebp]
	movss	xmm0, DWORD PTR [ecx]
	subss	xmm0, DWORD PTR [eax]
	push	ecx
	movss	DWORD PTR [esp], xmm0
	lea	ecx, DWORD PTR _diff$[ebp]
	call	??0Vector3@@QAE@MMM@Z			; Vector3::Vector3

; 561  : 		Matrix3D::Inverse_Rotate_Vector(A, diff, out);

	mov	eax, DWORD PTR _out$[ebp]
	push	eax
	lea	ecx, DWORD PTR _diff$[ebp]
	push	ecx
	mov	edx, DWORD PTR _A$[ebp]
	push	edx
	call	?Inverse_Rotate_Vector@Matrix3D@@SAXABV1@ABVVector3@@PAV2@@Z ; Matrix3D::Inverse_Rotate_Vector
	add	esp, 12					; 0000000cH

; 562  : 	}

	pop	edi
	pop	esi
	pop	ebx
	mov	esp, ebp
	pop	ebp
	ret	0
?Inverse_Transform_Vector@Matrix3D@@SAXABV1@ABVVector3@@PAV2@@Z ENDP ; Matrix3D::Inverse_Transform_Vector
_TEXT	ENDS
; Function compile flags: /Odtp /ZI
; File x:\github\renegade\dragonade_rxd\scripts\matrix3d.h
;	COMDAT ?Rotate_Vector@Matrix3D@@SAXABV1@ABVVector3@@PAV2@@Z
_TEXT	SEGMENT
tv237 = -88						; size = 4
tv233 = -88						; size = 4
tv229 = -88						; size = 4
tv235 = -84						; size = 4
tv231 = -84						; size = 4
tv227 = -84						; size = 4
_v$ = -16						; size = 4
_tmp$ = -12						; size = 12
_A$ = 8							; size = 4
_in$ = 12						; size = 4
_out$ = 16						; size = 4
?Rotate_Vector@Matrix3D@@SAXABV1@ABVVector3@@PAV2@@Z PROC ; Matrix3D::Rotate_Vector, COMDAT

; 531  : 	{

	push	ebp
	mov	ebp, esp
	sub	esp, 88					; 00000058H
	push	ebx
	push	esi
	push	edi

; 532  : 		Vector3 tmp;

	lea	ecx, DWORD PTR _tmp$[ebp]
	call	??0Vector3@@QAE@XZ			; Vector3::Vector3

; 533  : 		Vector3 * v;
; 534  : 		if (out == &in)

	mov	eax, DWORD PTR _out$[ebp]
	cmp	eax, DWORD PTR _in$[ebp]
	jne	SHORT $LN2@Rotate_Vec

; 535  : 		{
; 536  : 			tmp = in;

	mov	eax, DWORD PTR _in$[ebp]
	push	eax
	lea	ecx, DWORD PTR _tmp$[ebp]
	call	??4Vector3@@QAEAAV0@ABV0@@Z		; Vector3::operator=

; 537  : 			v = &tmp;

	lea	eax, DWORD PTR _tmp$[ebp]
	mov	DWORD PTR _v$[ebp], eax

; 538  : 		}
; 539  : 		else 

	jmp	SHORT $LN1@Rotate_Vec
$LN2@Rotate_Vec:

; 540  : 		{
; 541  : 			v = (Vector3 *)&in;

	mov	eax, DWORD PTR _in$[ebp]
	mov	DWORD PTR _v$[ebp], eax
$LN1@Rotate_Vec:

; 542  : 		}
; 543  : 		out->X = (A[0][0] * v->X + A[0][1] * v->Y + A[0][2] * v->Z);

	push	0
	push	0
	mov	ecx, DWORD PTR _A$[ebp]
	call	??AMatrix3D@@QBEABVVector4@@H@Z		; Matrix3D::operator[]
	mov	ecx, eax
	call	??AVector4@@QBEABMH@Z			; Vector4::operator[]
	mov	ecx, DWORD PTR _v$[ebp]
	movss	xmm0, DWORD PTR [eax]
	mulss	xmm0, DWORD PTR [ecx]
	push	1
	push	0
	mov	ecx, DWORD PTR _A$[ebp]
	movss	DWORD PTR tv227[ebp], xmm0
	call	??AMatrix3D@@QBEABVVector4@@H@Z		; Matrix3D::operator[]
	mov	ecx, eax
	call	??AVector4@@QBEABMH@Z			; Vector4::operator[]
	mov	edx, DWORD PTR _v$[ebp]
	movss	xmm0, DWORD PTR [eax]
	mulss	xmm0, DWORD PTR [edx+4]
	movss	xmm1, DWORD PTR tv227[ebp]
	addss	xmm1, xmm0
	push	2
	push	0
	mov	ecx, DWORD PTR _A$[ebp]
	movss	DWORD PTR tv229[ebp], xmm1
	call	??AMatrix3D@@QBEABVVector4@@H@Z		; Matrix3D::operator[]
	mov	ecx, eax
	call	??AVector4@@QBEABMH@Z			; Vector4::operator[]
	mov	ecx, DWORD PTR _v$[ebp]
	movss	xmm0, DWORD PTR [eax]
	mulss	xmm0, DWORD PTR [ecx+8]
	movss	xmm1, DWORD PTR tv229[ebp]
	addss	xmm1, xmm0
	mov	edx, DWORD PTR _out$[ebp]
	movss	DWORD PTR [edx], xmm1

; 544  : 		out->Y = (A[1][0] * v->X + A[1][1] * v->Y + A[1][2] * v->Z);

	push	0
	push	1
	mov	ecx, DWORD PTR _A$[ebp]
	call	??AMatrix3D@@QBEABVVector4@@H@Z		; Matrix3D::operator[]
	mov	ecx, eax
	call	??AVector4@@QBEABMH@Z			; Vector4::operator[]
	mov	ecx, DWORD PTR _v$[ebp]
	movss	xmm0, DWORD PTR [eax]
	mulss	xmm0, DWORD PTR [ecx]
	push	1
	push	1
	mov	ecx, DWORD PTR _A$[ebp]
	movss	DWORD PTR tv231[ebp], xmm0
	call	??AMatrix3D@@QBEABVVector4@@H@Z		; Matrix3D::operator[]
	mov	ecx, eax
	call	??AVector4@@QBEABMH@Z			; Vector4::operator[]
	mov	edx, DWORD PTR _v$[ebp]
	movss	xmm0, DWORD PTR [eax]
	mulss	xmm0, DWORD PTR [edx+4]
	movss	xmm1, DWORD PTR tv231[ebp]
	addss	xmm1, xmm0
	push	2
	push	1
	mov	ecx, DWORD PTR _A$[ebp]
	movss	DWORD PTR tv233[ebp], xmm1
	call	??AMatrix3D@@QBEABVVector4@@H@Z		; Matrix3D::operator[]
	mov	ecx, eax
	call	??AVector4@@QBEABMH@Z			; Vector4::operator[]
	mov	ecx, DWORD PTR _v$[ebp]
	movss	xmm0, DWORD PTR [eax]
	mulss	xmm0, DWORD PTR [ecx+8]
	movss	xmm1, DWORD PTR tv233[ebp]
	addss	xmm1, xmm0
	mov	edx, DWORD PTR _out$[ebp]
	movss	DWORD PTR [edx+4], xmm1

; 545  : 		out->Z = (A[2][0] * v->X + A[2][1] * v->Y + A[2][2] * v->Z);

	push	0
	push	2
	mov	ecx, DWORD PTR _A$[ebp]
	call	??AMatrix3D@@QBEABVVector4@@H@Z		; Matrix3D::operator[]
	mov	ecx, eax
	call	??AVector4@@QBEABMH@Z			; Vector4::operator[]
	mov	ecx, DWORD PTR _v$[ebp]
	movss	xmm0, DWORD PTR [eax]
	mulss	xmm0, DWORD PTR [ecx]
	push	1
	push	2
	mov	ecx, DWORD PTR _A$[ebp]
	movss	DWORD PTR tv235[ebp], xmm0
	call	??AMatrix3D@@QBEABVVector4@@H@Z		; Matrix3D::operator[]
	mov	ecx, eax
	call	??AVector4@@QBEABMH@Z			; Vector4::operator[]
	mov	edx, DWORD PTR _v$[ebp]
	movss	xmm0, DWORD PTR [eax]
	mulss	xmm0, DWORD PTR [edx+4]
	movss	xmm1, DWORD PTR tv235[ebp]
	addss	xmm1, xmm0
	push	2
	push	2
	mov	ecx, DWORD PTR _A$[ebp]
	movss	DWORD PTR tv237[ebp], xmm1
	call	??AMatrix3D@@QBEABVVector4@@H@Z		; Matrix3D::operator[]
	mov	ecx, eax
	call	??AVector4@@QBEABMH@Z			; Vector4::operator[]
	mov	ecx, DWORD PTR _v$[ebp]
	movss	xmm0, DWORD PTR [eax]
	mulss	xmm0, DWORD PTR [ecx+8]
	movss	xmm1, DWORD PTR tv237[ebp]
	addss	xmm1, xmm0
	mov	edx, DWORD PTR _out$[ebp]
	movss	DWORD PTR [edx+8], xmm1

; 546  : 	}

	pop	edi
	pop	esi
	pop	ebx
	mov	esp, ebp
	pop	ebp
	ret	0
?Rotate_Vector@Matrix3D@@SAXABV1@ABVVector3@@PAV2@@Z ENDP ; Matrix3D::Rotate_Vector
_TEXT	ENDS
; Function compile flags: /Odtp /ZI
; File x:\github\renegade\dragonade_rxd\scripts\matrix3d.h
;	COMDAT ?Get_Z_Vector@Matrix3D@@QBEXPAVVector3@@@Z
_TEXT	SEGMENT
_this$ = -4						; size = 4
_set_z$ = 8						; size = 4
?Get_Z_Vector@Matrix3D@@QBEXPAVVector3@@@Z PROC		; Matrix3D::Get_Z_Vector, COMDAT
; _this$ = ecx

; 524  : 	TT_INLINE void Get_Z_Vector(Vector3 * set_z) const { set_z->Set(Row[0][2], Row[1][2], Row[2][2]); }

	push	ebp
	mov	ebp, esp
	sub	esp, 68					; 00000044H
	push	ebx
	push	esi
	push	edi
	mov	DWORD PTR _this$[ebp], ecx
	push	2
	mov	ecx, 16					; 00000010H
	shl	ecx, 1
	add	ecx, DWORD PTR _this$[ebp]
	call	??AVector4@@QBEABMH@Z			; Vector4::operator[]
	push	ecx
	movss	xmm0, DWORD PTR [eax]
	movss	DWORD PTR [esp], xmm0
	push	2
	mov	ecx, 16					; 00000010H
	shl	ecx, 0
	add	ecx, DWORD PTR _this$[ebp]
	call	??AVector4@@QBEABMH@Z			; Vector4::operator[]
	push	ecx
	movss	xmm0, DWORD PTR [eax]
	movss	DWORD PTR [esp], xmm0
	push	2
	mov	ecx, 16					; 00000010H
	imul	ecx, 0
	add	ecx, DWORD PTR _this$[ebp]
	call	??AVector4@@QBEABMH@Z			; Vector4::operator[]
	push	ecx
	movss	xmm0, DWORD PTR [eax]
	movss	DWORD PTR [esp], xmm0
	mov	ecx, DWORD PTR _set_z$[ebp]
	call	?Set@Vector3@@QAEXMMM@Z			; Vector3::Set
	pop	edi
	pop	esi
	pop	ebx
	mov	esp, ebp
	pop	ebp
	ret	4
?Get_Z_Vector@Matrix3D@@QBEXPAVVector3@@@Z ENDP		; Matrix3D::Get_Z_Vector
_TEXT	ENDS
; Function compile flags: /Odtp /ZI
; File x:\github\renegade\dragonade_rxd\scripts\matrix3d.h
;	COMDAT ?Get_Y_Vector@Matrix3D@@QBEXPAVVector3@@@Z
_TEXT	SEGMENT
_this$ = -4						; size = 4
_set_y$ = 8						; size = 4
?Get_Y_Vector@Matrix3D@@QBEXPAVVector3@@@Z PROC		; Matrix3D::Get_Y_Vector, COMDAT
; _this$ = ecx

; 523  : 	TT_INLINE void Get_Y_Vector(Vector3 * set_y) const { set_y->Set(Row[0][1], Row[1][1], Row[2][1]); }

	push	ebp
	mov	ebp, esp
	sub	esp, 68					; 00000044H
	push	ebx
	push	esi
	push	edi
	mov	DWORD PTR _this$[ebp], ecx
	push	1
	mov	ecx, 16					; 00000010H
	shl	ecx, 1
	add	ecx, DWORD PTR _this$[ebp]
	call	??AVector4@@QBEABMH@Z			; Vector4::operator[]
	push	ecx
	movss	xmm0, DWORD PTR [eax]
	movss	DWORD PTR [esp], xmm0
	push	1
	mov	ecx, 16					; 00000010H
	shl	ecx, 0
	add	ecx, DWORD PTR _this$[ebp]
	call	??AVector4@@QBEABMH@Z			; Vector4::operator[]
	push	ecx
	movss	xmm0, DWORD PTR [eax]
	movss	DWORD PTR [esp], xmm0
	push	1
	mov	ecx, 16					; 00000010H
	imul	ecx, 0
	add	ecx, DWORD PTR _this$[ebp]
	call	??AVector4@@QBEABMH@Z			; Vector4::operator[]
	push	ecx
	movss	xmm0, DWORD PTR [eax]
	movss	DWORD PTR [esp], xmm0
	mov	ecx, DWORD PTR _set_y$[ebp]
	call	?Set@Vector3@@QAEXMMM@Z			; Vector3::Set
	pop	edi
	pop	esi
	pop	ebx
	mov	esp, ebp
	pop	ebp
	ret	4
?Get_Y_Vector@Matrix3D@@QBEXPAVVector3@@@Z ENDP		; Matrix3D::Get_Y_Vector
_TEXT	ENDS
; Function compile flags: /Odtp /ZI
; File x:\github\renegade\dragonade_rxd\scripts\matrix3d.h
;	COMDAT ?Get_X_Vector@Matrix3D@@QBEXPAVVector3@@@Z
_TEXT	SEGMENT
_this$ = -4						; size = 4
_set_x$ = 8						; size = 4
?Get_X_Vector@Matrix3D@@QBEXPAVVector3@@@Z PROC		; Matrix3D::Get_X_Vector, COMDAT
; _this$ = ecx

; 522  : 	TT_INLINE void Get_X_Vector(Vector3 * set_x) const { set_x->Set(Row[0][0], Row[1][0], Row[2][0]); }

	push	ebp
	mov	ebp, esp
	sub	esp, 68					; 00000044H
	push	ebx
	push	esi
	push	edi
	mov	DWORD PTR _this$[ebp], ecx
	push	0
	mov	ecx, 16					; 00000010H
	shl	ecx, 1
	add	ecx, DWORD PTR _this$[ebp]
	call	??AVector4@@QBEABMH@Z			; Vector4::operator[]
	push	ecx
	movss	xmm0, DWORD PTR [eax]
	movss	DWORD PTR [esp], xmm0
	push	0
	mov	ecx, 16					; 00000010H
	shl	ecx, 0
	add	ecx, DWORD PTR _this$[ebp]
	call	??AVector4@@QBEABMH@Z			; Vector4::operator[]
	push	ecx
	movss	xmm0, DWORD PTR [eax]
	movss	DWORD PTR [esp], xmm0
	push	0
	mov	ecx, 16					; 00000010H
	imul	ecx, 0
	add	ecx, DWORD PTR _this$[ebp]
	call	??AVector4@@QBEABMH@Z			; Vector4::operator[]
	push	ecx
	movss	xmm0, DWORD PTR [eax]
	movss	DWORD PTR [esp], xmm0
	mov	ecx, DWORD PTR _set_x$[ebp]
	call	?Set@Vector3@@QAEXMMM@Z			; Vector3::Set
	pop	edi
	pop	esi
	pop	ebx
	mov	esp, ebp
	pop	ebp
	ret	4
?Get_X_Vector@Matrix3D@@QBEXPAVVector3@@@Z ENDP		; Matrix3D::Get_X_Vector
_TEXT	ENDS
; Function compile flags: /Odtp /ZI
; File x:\github\renegade\dragonade_rxd\scripts\matrix3d.h
;	COMDAT ?Get_Z_Vector@Matrix3D@@QBE?AVVector3@@XZ
_TEXT	SEGMENT
_this$ = -4						; size = 4
___$ReturnUdt$ = 8					; size = 4
?Get_Z_Vector@Matrix3D@@QBE?AVVector3@@XZ PROC		; Matrix3D::Get_Z_Vector, COMDAT
; _this$ = ecx

; 521  : 	TT_INLINE Vector3 Get_Z_Vector() const { return Vector3(Row[0][2], Row[1][2], Row[2][2]); }

	push	ebp
	mov	ebp, esp
	sub	esp, 68					; 00000044H
	push	ebx
	push	esi
	push	edi
	mov	DWORD PTR _this$[ebp], ecx
	push	2
	mov	ecx, 16					; 00000010H
	shl	ecx, 1
	add	ecx, DWORD PTR _this$[ebp]
	call	??AVector4@@QBEABMH@Z			; Vector4::operator[]
	push	ecx
	movss	xmm0, DWORD PTR [eax]
	movss	DWORD PTR [esp], xmm0
	push	2
	mov	ecx, 16					; 00000010H
	shl	ecx, 0
	add	ecx, DWORD PTR _this$[ebp]
	call	??AVector4@@QBEABMH@Z			; Vector4::operator[]
	push	ecx
	movss	xmm0, DWORD PTR [eax]
	movss	DWORD PTR [esp], xmm0
	push	2
	mov	ecx, 16					; 00000010H
	imul	ecx, 0
	add	ecx, DWORD PTR _this$[ebp]
	call	??AVector4@@QBEABMH@Z			; Vector4::operator[]
	push	ecx
	movss	xmm0, DWORD PTR [eax]
	movss	DWORD PTR [esp], xmm0
	mov	ecx, DWORD PTR ___$ReturnUdt$[ebp]
	call	??0Vector3@@QAE@MMM@Z			; Vector3::Vector3
	mov	eax, DWORD PTR ___$ReturnUdt$[ebp]
	pop	edi
	pop	esi
	pop	ebx
	mov	esp, ebp
	pop	ebp
	ret	4
?Get_Z_Vector@Matrix3D@@QBE?AVVector3@@XZ ENDP		; Matrix3D::Get_Z_Vector
_TEXT	ENDS
; Function compile flags: /Odtp /ZI
; File x:\github\renegade\dragonade_rxd\scripts\matrix3d.h
;	COMDAT ?Get_Y_Vector@Matrix3D@@QBE?AVVector3@@XZ
_TEXT	SEGMENT
_this$ = -4						; size = 4
___$ReturnUdt$ = 8					; size = 4
?Get_Y_Vector@Matrix3D@@QBE?AVVector3@@XZ PROC		; Matrix3D::Get_Y_Vector, COMDAT
; _this$ = ecx

; 520  : 	TT_INLINE Vector3 Get_Y_Vector() const { return Vector3(Row[0][1], Row[1][1], Row[2][1]); }

	push	ebp
	mov	ebp, esp
	sub	esp, 68					; 00000044H
	push	ebx
	push	esi
	push	edi
	mov	DWORD PTR _this$[ebp], ecx
	push	1
	mov	ecx, 16					; 00000010H
	shl	ecx, 1
	add	ecx, DWORD PTR _this$[ebp]
	call	??AVector4@@QBEABMH@Z			; Vector4::operator[]
	push	ecx
	movss	xmm0, DWORD PTR [eax]
	movss	DWORD PTR [esp], xmm0
	push	1
	mov	ecx, 16					; 00000010H
	shl	ecx, 0
	add	ecx, DWORD PTR _this$[ebp]
	call	??AVector4@@QBEABMH@Z			; Vector4::operator[]
	push	ecx
	movss	xmm0, DWORD PTR [eax]
	movss	DWORD PTR [esp], xmm0
	push	1
	mov	ecx, 16					; 00000010H
	imul	ecx, 0
	add	ecx, DWORD PTR _this$[ebp]
	call	??AVector4@@QBEABMH@Z			; Vector4::operator[]
	push	ecx
	movss	xmm0, DWORD PTR [eax]
	movss	DWORD PTR [esp], xmm0
	mov	ecx, DWORD PTR ___$ReturnUdt$[ebp]
	call	??0Vector3@@QAE@MMM@Z			; Vector3::Vector3
	mov	eax, DWORD PTR ___$ReturnUdt$[ebp]
	pop	edi
	pop	esi
	pop	ebx
	mov	esp, ebp
	pop	ebp
	ret	4
?Get_Y_Vector@Matrix3D@@QBE?AVVector3@@XZ ENDP		; Matrix3D::Get_Y_Vector
_TEXT	ENDS
; Function compile flags: /Odtp /ZI
; File x:\github\renegade\dragonade_rxd\scripts\matrix3d.h
;	COMDAT ?Get_X_Vector@Matrix3D@@QBE?AVVector3@@XZ
_TEXT	SEGMENT
_this$ = -4						; size = 4
___$ReturnUdt$ = 8					; size = 4
?Get_X_Vector@Matrix3D@@QBE?AVVector3@@XZ PROC		; Matrix3D::Get_X_Vector, COMDAT
; _this$ = ecx

; 519  : 	TT_INLINE Vector3 Get_X_Vector() const { return Vector3(Row[0][0], Row[1][0], Row[2][0]); }

	push	ebp
	mov	ebp, esp
	sub	esp, 68					; 00000044H
	push	ebx
	push	esi
	push	edi
	mov	DWORD PTR _this$[ebp], ecx
	push	0
	mov	ecx, 16					; 00000010H
	shl	ecx, 1
	add	ecx, DWORD PTR _this$[ebp]
	call	??AVector4@@QBEABMH@Z			; Vector4::operator[]
	push	ecx
	movss	xmm0, DWORD PTR [eax]
	movss	DWORD PTR [esp], xmm0
	push	0
	mov	ecx, 16					; 00000010H
	shl	ecx, 0
	add	ecx, DWORD PTR _this$[ebp]
	call	??AVector4@@QBEABMH@Z			; Vector4::operator[]
	push	ecx
	movss	xmm0, DWORD PTR [eax]
	movss	DWORD PTR [esp], xmm0
	push	0
	mov	ecx, 16					; 00000010H
	imul	ecx, 0
	add	ecx, DWORD PTR _this$[ebp]
	call	??AVector4@@QBEABMH@Z			; Vector4::operator[]
	push	ecx
	movss	xmm0, DWORD PTR [eax]
	movss	DWORD PTR [esp], xmm0
	mov	ecx, DWORD PTR ___$ReturnUdt$[ebp]
	call	??0Vector3@@QAE@MMM@Z			; Vector3::Vector3
	mov	eax, DWORD PTR ___$ReturnUdt$[ebp]
	pop	edi
	pop	esi
	pop	ebx
	mov	esp, ebp
	pop	ebp
	ret	4
?Get_X_Vector@Matrix3D@@QBE?AVVector3@@XZ ENDP		; Matrix3D::Get_X_Vector
_TEXT	ENDS
; Function compile flags: /Odtp /ZI
; File x:\github\renegade\dragonade_rxd\scripts\matrix3d.h
;	COMDAT ?Transform_Vector@Matrix3D@@SAXABV1@ABVVector3@@PAV2@@Z
_TEXT	SEGMENT
tv270 = -92						; size = 4
tv264 = -92						; size = 4
tv258 = -92						; size = 4
tv268 = -88						; size = 4
tv262 = -88						; size = 4
tv256 = -88						; size = 4
tv266 = -84						; size = 4
tv260 = -84						; size = 4
tv254 = -84						; size = 4
_v$ = -16						; size = 4
_tmp$ = -12						; size = 12
_A$ = 8							; size = 4
_in$ = 12						; size = 4
_out$ = 16						; size = 4
?Transform_Vector@Matrix3D@@SAXABV1@ABVVector3@@PAV2@@Z PROC ; Matrix3D::Transform_Vector, COMDAT

; 503  :    {

	push	ebp
	mov	ebp, esp
	sub	esp, 92					; 0000005cH
	push	ebx
	push	esi
	push	edi

; 504  : 		Vector3 tmp;

	lea	ecx, DWORD PTR _tmp$[ebp]
	call	??0Vector3@@QAE@XZ			; Vector3::Vector3

; 505  : 		Vector3 * v;
; 506  : 		if (out == &in)

	mov	eax, DWORD PTR _out$[ebp]
	cmp	eax, DWORD PTR _in$[ebp]
	jne	SHORT $LN2@Transform_

; 507  : 		{
; 508  : 			tmp = in;

	mov	eax, DWORD PTR _in$[ebp]
	push	eax
	lea	ecx, DWORD PTR _tmp$[ebp]
	call	??4Vector3@@QAEAAV0@ABV0@@Z		; Vector3::operator=

; 509  : 			v = &tmp;

	lea	eax, DWORD PTR _tmp$[ebp]
	mov	DWORD PTR _v$[ebp], eax

; 510  : 		}
; 511  : 		else

	jmp	SHORT $LN1@Transform_
$LN2@Transform_:

; 512  : 		{
; 513  : 			v = (Vector3 *)&in;

	mov	eax, DWORD PTR _in$[ebp]
	mov	DWORD PTR _v$[ebp], eax
$LN1@Transform_:

; 514  : 		}
; 515  : 		out->X = (A.Row[0][0] * v->X + A.Row[0][1] * v->Y + A.Row[0][2] * v->Z + A.Row[0][3]);

	push	0
	mov	ecx, 16					; 00000010H
	imul	ecx, 0
	add	ecx, DWORD PTR _A$[ebp]
	call	??AVector4@@QBEABMH@Z			; Vector4::operator[]
	mov	ecx, DWORD PTR _v$[ebp]
	movss	xmm0, DWORD PTR [eax]
	mulss	xmm0, DWORD PTR [ecx]
	push	1
	mov	ecx, 16					; 00000010H
	imul	ecx, 0
	add	ecx, DWORD PTR _A$[ebp]
	movss	DWORD PTR tv254[ebp], xmm0
	call	??AVector4@@QBEABMH@Z			; Vector4::operator[]
	mov	edx, DWORD PTR _v$[ebp]
	movss	xmm0, DWORD PTR [eax]
	mulss	xmm0, DWORD PTR [edx+4]
	movss	xmm1, DWORD PTR tv254[ebp]
	addss	xmm1, xmm0
	push	2
	mov	ecx, 16					; 00000010H
	imul	ecx, 0
	add	ecx, DWORD PTR _A$[ebp]
	movss	DWORD PTR tv256[ebp], xmm1
	call	??AVector4@@QBEABMH@Z			; Vector4::operator[]
	mov	ecx, DWORD PTR _v$[ebp]
	movss	xmm0, DWORD PTR [eax]
	mulss	xmm0, DWORD PTR [ecx+8]
	movss	xmm1, DWORD PTR tv256[ebp]
	addss	xmm1, xmm0
	push	3
	mov	ecx, 16					; 00000010H
	imul	ecx, 0
	add	ecx, DWORD PTR _A$[ebp]
	movss	DWORD PTR tv258[ebp], xmm1
	call	??AVector4@@QBEABMH@Z			; Vector4::operator[]
	movss	xmm0, DWORD PTR tv258[ebp]
	addss	xmm0, DWORD PTR [eax]
	mov	edx, DWORD PTR _out$[ebp]
	movss	DWORD PTR [edx], xmm0

; 516  : 		out->Y = (A.Row[1][0] * v->X + A.Row[1][1] * v->Y + A.Row[1][2] * v->Z + A.Row[1][3]);

	push	0
	mov	ecx, 16					; 00000010H
	shl	ecx, 0
	add	ecx, DWORD PTR _A$[ebp]
	call	??AVector4@@QBEABMH@Z			; Vector4::operator[]
	mov	ecx, DWORD PTR _v$[ebp]
	movss	xmm0, DWORD PTR [eax]
	mulss	xmm0, DWORD PTR [ecx]
	push	1
	mov	ecx, 16					; 00000010H
	shl	ecx, 0
	add	ecx, DWORD PTR _A$[ebp]
	movss	DWORD PTR tv260[ebp], xmm0
	call	??AVector4@@QBEABMH@Z			; Vector4::operator[]
	mov	edx, DWORD PTR _v$[ebp]
	movss	xmm0, DWORD PTR [eax]
	mulss	xmm0, DWORD PTR [edx+4]
	movss	xmm1, DWORD PTR tv260[ebp]
	addss	xmm1, xmm0
	push	2
	mov	ecx, 16					; 00000010H
	shl	ecx, 0
	add	ecx, DWORD PTR _A$[ebp]
	movss	DWORD PTR tv262[ebp], xmm1
	call	??AVector4@@QBEABMH@Z			; Vector4::operator[]
	mov	ecx, DWORD PTR _v$[ebp]
	movss	xmm0, DWORD PTR [eax]
	mulss	xmm0, DWORD PTR [ecx+8]
	movss	xmm1, DWORD PTR tv262[ebp]
	addss	xmm1, xmm0
	push	3
	mov	ecx, 16					; 00000010H
	shl	ecx, 0
	add	ecx, DWORD PTR _A$[ebp]
	movss	DWORD PTR tv264[ebp], xmm1
	call	??AVector4@@QBEABMH@Z			; Vector4::operator[]
	movss	xmm0, DWORD PTR tv264[ebp]
	addss	xmm0, DWORD PTR [eax]
	mov	edx, DWORD PTR _out$[ebp]
	movss	DWORD PTR [edx+4], xmm0

; 517  : 		out->Z = (A.Row[2][0] * v->X + A.Row[2][1] * v->Y + A.Row[2][2] * v->Z + A.Row[2][3]);

	push	0
	mov	ecx, 16					; 00000010H
	shl	ecx, 1
	add	ecx, DWORD PTR _A$[ebp]
	call	??AVector4@@QBEABMH@Z			; Vector4::operator[]
	mov	ecx, DWORD PTR _v$[ebp]
	movss	xmm0, DWORD PTR [eax]
	mulss	xmm0, DWORD PTR [ecx]
	push	1
	mov	ecx, 16					; 00000010H
	shl	ecx, 1
	add	ecx, DWORD PTR _A$[ebp]
	movss	DWORD PTR tv266[ebp], xmm0
	call	??AVector4@@QBEABMH@Z			; Vector4::operator[]
	mov	edx, DWORD PTR _v$[ebp]
	movss	xmm0, DWORD PTR [eax]
	mulss	xmm0, DWORD PTR [edx+4]
	movss	xmm1, DWORD PTR tv266[ebp]
	addss	xmm1, xmm0
	push	2
	mov	ecx, 16					; 00000010H
	shl	ecx, 1
	add	ecx, DWORD PTR _A$[ebp]
	movss	DWORD PTR tv268[ebp], xmm1
	call	??AVector4@@QBEABMH@Z			; Vector4::operator[]
	mov	ecx, DWORD PTR _v$[ebp]
	movss	xmm0, DWORD PTR [eax]
	mulss	xmm0, DWORD PTR [ecx+8]
	movss	xmm1, DWORD PTR tv268[ebp]
	addss	xmm1, xmm0
	push	3
	mov	ecx, 16					; 00000010H
	shl	ecx, 1
	add	ecx, DWORD PTR _A$[ebp]
	movss	DWORD PTR tv270[ebp], xmm1
	call	??AVector4@@QBEABMH@Z			; Vector4::operator[]
	movss	xmm0, DWORD PTR tv270[ebp]
	addss	xmm0, DWORD PTR [eax]
	mov	edx, DWORD PTR _out$[ebp]
	movss	DWORD PTR [edx+8], xmm0

; 518  :    }

	pop	edi
	pop	esi
	pop	ebx
	mov	esp, ebp
	pop	ebp
	ret	0
?Transform_Vector@Matrix3D@@SAXABV1@ABVVector3@@PAV2@@Z ENDP ; Matrix3D::Transform_Vector
_TEXT	ENDS
; Function compile flags: /Odtp /ZI
; File x:\github\renegade\dragonade_rxd\scripts\matrix3d.h
;	COMDAT ?In_Place_Pre_Rotate_Z@Matrix3D@@QAEXMM@Z
_TEXT	SEGMENT
tv245 = -80						; size = 4
tv243 = -80						; size = 4
tv241 = -80						; size = 4
tv239 = -80						; size = 4
tv237 = -80						; size = 4
tv235 = -80						; size = 4
_tmp2$ = -12						; size = 4
_tmp1$ = -8						; size = 4
_this$ = -4						; size = 4
_s$ = 8							; size = 4
_c$ = 12						; size = 4
?In_Place_Pre_Rotate_Z@Matrix3D@@QAEXMM@Z PROC		; Matrix3D::In_Place_Pre_Rotate_Z, COMDAT
; _this$ = ecx

; 486  : 	{

	push	ebp
	mov	ebp, esp
	sub	esp, 80					; 00000050H
	push	ebx
	push	esi
	push	edi
	mov	DWORD PTR _this$[ebp], ecx

; 487  : 		float tmp1,tmp2;
; 488  : 		tmp1 = Row[0][0]; tmp2 = Row[1][0];

	push	0
	mov	ecx, 16					; 00000010H
	imul	ecx, 0
	add	ecx, DWORD PTR _this$[ebp]
	call	??AVector4@@QAEAAMH@Z			; Vector4::operator[]
	movss	xmm0, DWORD PTR [eax]
	movss	DWORD PTR _tmp1$[ebp], xmm0
	push	0
	mov	ecx, 16					; 00000010H
	shl	ecx, 0
	add	ecx, DWORD PTR _this$[ebp]
	call	??AVector4@@QAEAAMH@Z			; Vector4::operator[]
	movss	xmm0, DWORD PTR [eax]
	movss	DWORD PTR _tmp2$[ebp], xmm0

; 489  : 		Row[0][0] = (float)(c*tmp1 - s*tmp2);

	movss	xmm0, DWORD PTR _c$[ebp]
	mulss	xmm0, DWORD PTR _tmp1$[ebp]
	movss	xmm1, DWORD PTR _s$[ebp]
	mulss	xmm1, DWORD PTR _tmp2$[ebp]
	subss	xmm0, xmm1
	push	0
	mov	ecx, 16					; 00000010H
	imul	ecx, 0
	add	ecx, DWORD PTR _this$[ebp]
	movss	DWORD PTR tv235[ebp], xmm0
	call	??AVector4@@QAEAAMH@Z			; Vector4::operator[]
	movss	xmm0, DWORD PTR tv235[ebp]
	movss	DWORD PTR [eax], xmm0

; 490  : 		Row[1][0] = (float)(s*tmp1 + c*tmp2);

	movss	xmm0, DWORD PTR _s$[ebp]
	mulss	xmm0, DWORD PTR _tmp1$[ebp]
	movss	xmm1, DWORD PTR _c$[ebp]
	mulss	xmm1, DWORD PTR _tmp2$[ebp]
	addss	xmm0, xmm1
	push	0
	mov	ecx, 16					; 00000010H
	shl	ecx, 0
	add	ecx, DWORD PTR _this$[ebp]
	movss	DWORD PTR tv237[ebp], xmm0
	call	??AVector4@@QAEAAMH@Z			; Vector4::operator[]
	movss	xmm0, DWORD PTR tv237[ebp]
	movss	DWORD PTR [eax], xmm0

; 491  : 		tmp1 = Row[0][1]; tmp2 = Row[1][1];

	push	1
	mov	ecx, 16					; 00000010H
	imul	ecx, 0
	add	ecx, DWORD PTR _this$[ebp]
	call	??AVector4@@QAEAAMH@Z			; Vector4::operator[]
	movss	xmm0, DWORD PTR [eax]
	movss	DWORD PTR _tmp1$[ebp], xmm0
	push	1
	mov	ecx, 16					; 00000010H
	shl	ecx, 0
	add	ecx, DWORD PTR _this$[ebp]
	call	??AVector4@@QAEAAMH@Z			; Vector4::operator[]
	movss	xmm0, DWORD PTR [eax]
	movss	DWORD PTR _tmp2$[ebp], xmm0

; 492  : 		Row[0][1] = (float)(c*tmp1 - s*tmp2);

	movss	xmm0, DWORD PTR _c$[ebp]
	mulss	xmm0, DWORD PTR _tmp1$[ebp]
	movss	xmm1, DWORD PTR _s$[ebp]
	mulss	xmm1, DWORD PTR _tmp2$[ebp]
	subss	xmm0, xmm1
	push	1
	mov	ecx, 16					; 00000010H
	imul	ecx, 0
	add	ecx, DWORD PTR _this$[ebp]
	movss	DWORD PTR tv239[ebp], xmm0
	call	??AVector4@@QAEAAMH@Z			; Vector4::operator[]
	movss	xmm0, DWORD PTR tv239[ebp]
	movss	DWORD PTR [eax], xmm0

; 493  : 		Row[1][1] = (float)(s*tmp1 + c*tmp2);

	movss	xmm0, DWORD PTR _s$[ebp]
	mulss	xmm0, DWORD PTR _tmp1$[ebp]
	movss	xmm1, DWORD PTR _c$[ebp]
	mulss	xmm1, DWORD PTR _tmp2$[ebp]
	addss	xmm0, xmm1
	push	1
	mov	ecx, 16					; 00000010H
	shl	ecx, 0
	add	ecx, DWORD PTR _this$[ebp]
	movss	DWORD PTR tv241[ebp], xmm0
	call	??AVector4@@QAEAAMH@Z			; Vector4::operator[]
	movss	xmm0, DWORD PTR tv241[ebp]
	movss	DWORD PTR [eax], xmm0

; 494  : 		tmp1 = Row[0][2]; tmp2 = Row[1][2];

	push	2
	mov	ecx, 16					; 00000010H
	imul	ecx, 0
	add	ecx, DWORD PTR _this$[ebp]
	call	??AVector4@@QAEAAMH@Z			; Vector4::operator[]
	movss	xmm0, DWORD PTR [eax]
	movss	DWORD PTR _tmp1$[ebp], xmm0
	push	2
	mov	ecx, 16					; 00000010H
	shl	ecx, 0
	add	ecx, DWORD PTR _this$[ebp]
	call	??AVector4@@QAEAAMH@Z			; Vector4::operator[]
	movss	xmm0, DWORD PTR [eax]
	movss	DWORD PTR _tmp2$[ebp], xmm0

; 495  : 		Row[0][2] = (float)(c*tmp1 - s*tmp2);

	movss	xmm0, DWORD PTR _c$[ebp]
	mulss	xmm0, DWORD PTR _tmp1$[ebp]
	movss	xmm1, DWORD PTR _s$[ebp]
	mulss	xmm1, DWORD PTR _tmp2$[ebp]
	subss	xmm0, xmm1
	push	2
	mov	ecx, 16					; 00000010H
	imul	ecx, 0
	add	ecx, DWORD PTR _this$[ebp]
	movss	DWORD PTR tv243[ebp], xmm0
	call	??AVector4@@QAEAAMH@Z			; Vector4::operator[]
	movss	xmm0, DWORD PTR tv243[ebp]
	movss	DWORD PTR [eax], xmm0

; 496  : 		Row[1][2] = (float)(s*tmp1 + c*tmp2);

	movss	xmm0, DWORD PTR _s$[ebp]
	mulss	xmm0, DWORD PTR _tmp1$[ebp]
	movss	xmm1, DWORD PTR _c$[ebp]
	mulss	xmm1, DWORD PTR _tmp2$[ebp]
	addss	xmm0, xmm1
	push	2
	mov	ecx, 16					; 00000010H
	shl	ecx, 0
	add	ecx, DWORD PTR _this$[ebp]
	movss	DWORD PTR tv245[ebp], xmm0
	call	??AVector4@@QAEAAMH@Z			; Vector4::operator[]
	movss	xmm0, DWORD PTR tv245[ebp]
	movss	DWORD PTR [eax], xmm0

; 497  : 	}

	pop	edi
	pop	esi
	pop	ebx
	mov	esp, ebp
	pop	ebp
	ret	8
?In_Place_Pre_Rotate_Z@Matrix3D@@QAEXMM@Z ENDP		; Matrix3D::In_Place_Pre_Rotate_Z
_TEXT	ENDS
; Function compile flags: /Odtp /ZI
; File x:\github\renegade\dragonade_rxd\scripts\matrix3d.h
;	COMDAT ?In_Place_Pre_Rotate_Y@Matrix3D@@QAEXMM@Z
_TEXT	SEGMENT
tv248 = -80						; size = 4
tv246 = -80						; size = 4
tv244 = -80						; size = 4
tv242 = -80						; size = 4
tv240 = -80						; size = 4
tv238 = -80						; size = 4
_tmp2$ = -12						; size = 4
_tmp1$ = -8						; size = 4
_this$ = -4						; size = 4
_s$ = 8							; size = 4
_c$ = 12						; size = 4
?In_Place_Pre_Rotate_Y@Matrix3D@@QAEXMM@Z PROC		; Matrix3D::In_Place_Pre_Rotate_Y, COMDAT
; _this$ = ecx

; 473  : 	{

	push	ebp
	mov	ebp, esp
	sub	esp, 80					; 00000050H
	push	ebx
	push	esi
	push	edi
	mov	DWORD PTR _this$[ebp], ecx

; 474  : 		float tmp1,tmp2;
; 475  : 		tmp1 = Row[0][0]; tmp2 = Row[2][0];

	push	0
	mov	ecx, 16					; 00000010H
	imul	ecx, 0
	add	ecx, DWORD PTR _this$[ebp]
	call	??AVector4@@QAEAAMH@Z			; Vector4::operator[]
	movss	xmm0, DWORD PTR [eax]
	movss	DWORD PTR _tmp1$[ebp], xmm0
	push	0
	mov	ecx, 16					; 00000010H
	shl	ecx, 1
	add	ecx, DWORD PTR _this$[ebp]
	call	??AVector4@@QAEAAMH@Z			; Vector4::operator[]
	movss	xmm0, DWORD PTR [eax]
	movss	DWORD PTR _tmp2$[ebp], xmm0

; 476  : 		Row[0][0] = (float)( c*tmp1 + s*tmp2);

	movss	xmm0, DWORD PTR _c$[ebp]
	mulss	xmm0, DWORD PTR _tmp1$[ebp]
	movss	xmm1, DWORD PTR _s$[ebp]
	mulss	xmm1, DWORD PTR _tmp2$[ebp]
	addss	xmm0, xmm1
	push	0
	mov	ecx, 16					; 00000010H
	imul	ecx, 0
	add	ecx, DWORD PTR _this$[ebp]
	movss	DWORD PTR tv238[ebp], xmm0
	call	??AVector4@@QAEAAMH@Z			; Vector4::operator[]
	movss	xmm0, DWORD PTR tv238[ebp]
	movss	DWORD PTR [eax], xmm0

; 477  : 		Row[2][0] = (float)(-s*tmp1 + c*tmp2);

	movss	xmm0, DWORD PTR _s$[ebp]
	xorps	xmm0, DWORD PTR __xmm@80000000800000008000000080000000
	mulss	xmm0, DWORD PTR _tmp1$[ebp]
	movss	xmm1, DWORD PTR _c$[ebp]
	mulss	xmm1, DWORD PTR _tmp2$[ebp]
	addss	xmm0, xmm1
	push	0
	mov	ecx, 16					; 00000010H
	shl	ecx, 1
	add	ecx, DWORD PTR _this$[ebp]
	movss	DWORD PTR tv240[ebp], xmm0
	call	??AVector4@@QAEAAMH@Z			; Vector4::operator[]
	movss	xmm0, DWORD PTR tv240[ebp]
	movss	DWORD PTR [eax], xmm0

; 478  : 		tmp1 = Row[0][1]; tmp2 = Row[2][1];

	push	1
	mov	ecx, 16					; 00000010H
	imul	ecx, 0
	add	ecx, DWORD PTR _this$[ebp]
	call	??AVector4@@QAEAAMH@Z			; Vector4::operator[]
	movss	xmm0, DWORD PTR [eax]
	movss	DWORD PTR _tmp1$[ebp], xmm0
	push	1
	mov	ecx, 16					; 00000010H
	shl	ecx, 1
	add	ecx, DWORD PTR _this$[ebp]
	call	??AVector4@@QAEAAMH@Z			; Vector4::operator[]
	movss	xmm0, DWORD PTR [eax]
	movss	DWORD PTR _tmp2$[ebp], xmm0

; 479  : 		Row[0][1] = (float)( c*tmp1 + s*tmp2);

	movss	xmm0, DWORD PTR _c$[ebp]
	mulss	xmm0, DWORD PTR _tmp1$[ebp]
	movss	xmm1, DWORD PTR _s$[ebp]
	mulss	xmm1, DWORD PTR _tmp2$[ebp]
	addss	xmm0, xmm1
	push	1
	mov	ecx, 16					; 00000010H
	imul	ecx, 0
	add	ecx, DWORD PTR _this$[ebp]
	movss	DWORD PTR tv242[ebp], xmm0
	call	??AVector4@@QAEAAMH@Z			; Vector4::operator[]
	movss	xmm0, DWORD PTR tv242[ebp]
	movss	DWORD PTR [eax], xmm0

; 480  : 		Row[2][1] = (float)(-s*tmp1 + c*tmp2);

	movss	xmm0, DWORD PTR _s$[ebp]
	xorps	xmm0, DWORD PTR __xmm@80000000800000008000000080000000
	mulss	xmm0, DWORD PTR _tmp1$[ebp]
	movss	xmm1, DWORD PTR _c$[ebp]
	mulss	xmm1, DWORD PTR _tmp2$[ebp]
	addss	xmm0, xmm1
	push	1
	mov	ecx, 16					; 00000010H
	shl	ecx, 1
	add	ecx, DWORD PTR _this$[ebp]
	movss	DWORD PTR tv244[ebp], xmm0
	call	??AVector4@@QAEAAMH@Z			; Vector4::operator[]
	movss	xmm0, DWORD PTR tv244[ebp]
	movss	DWORD PTR [eax], xmm0

; 481  : 		tmp1 = Row[0][2]; tmp2 = Row[2][2];

	push	2
	mov	ecx, 16					; 00000010H
	imul	ecx, 0
	add	ecx, DWORD PTR _this$[ebp]
	call	??AVector4@@QAEAAMH@Z			; Vector4::operator[]
	movss	xmm0, DWORD PTR [eax]
	movss	DWORD PTR _tmp1$[ebp], xmm0
	push	2
	mov	ecx, 16					; 00000010H
	shl	ecx, 1
	add	ecx, DWORD PTR _this$[ebp]
	call	??AVector4@@QAEAAMH@Z			; Vector4::operator[]
	movss	xmm0, DWORD PTR [eax]
	movss	DWORD PTR _tmp2$[ebp], xmm0

; 482  : 		Row[0][2] = (float)( c*tmp1 + s*tmp2);

	movss	xmm0, DWORD PTR _c$[ebp]
	mulss	xmm0, DWORD PTR _tmp1$[ebp]
	movss	xmm1, DWORD PTR _s$[ebp]
	mulss	xmm1, DWORD PTR _tmp2$[ebp]
	addss	xmm0, xmm1
	push	2
	mov	ecx, 16					; 00000010H
	imul	ecx, 0
	add	ecx, DWORD PTR _this$[ebp]
	movss	DWORD PTR tv246[ebp], xmm0
	call	??AVector4@@QAEAAMH@Z			; Vector4::operator[]
	movss	xmm0, DWORD PTR tv246[ebp]
	movss	DWORD PTR [eax], xmm0

; 483  : 		Row[2][2] = (float)(-s*tmp1 + c*tmp2);

	movss	xmm0, DWORD PTR _s$[ebp]
	xorps	xmm0, DWORD PTR __xmm@80000000800000008000000080000000
	mulss	xmm0, DWORD PTR _tmp1$[ebp]
	movss	xmm1, DWORD PTR _c$[ebp]
	mulss	xmm1, DWORD PTR _tmp2$[ebp]
	addss	xmm0, xmm1
	push	2
	mov	ecx, 16					; 00000010H
	shl	ecx, 1
	add	ecx, DWORD PTR _this$[ebp]
	movss	DWORD PTR tv248[ebp], xmm0
	call	??AVector4@@QAEAAMH@Z			; Vector4::operator[]
	movss	xmm0, DWORD PTR tv248[ebp]
	movss	DWORD PTR [eax], xmm0

; 484  : 	}

	pop	edi
	pop	esi
	pop	ebx
	mov	esp, ebp
	pop	ebp
	ret	8
?In_Place_Pre_Rotate_Y@Matrix3D@@QAEXMM@Z ENDP		; Matrix3D::In_Place_Pre_Rotate_Y
_TEXT	ENDS
; Function compile flags: /Odtp /ZI
; File x:\github\renegade\dragonade_rxd\scripts\matrix3d.h
;	COMDAT ?In_Place_Pre_Rotate_X@Matrix3D@@QAEXMM@Z
_TEXT	SEGMENT
tv245 = -80						; size = 4
tv243 = -80						; size = 4
tv241 = -80						; size = 4
tv239 = -80						; size = 4
tv237 = -80						; size = 4
tv235 = -80						; size = 4
_tmp2$ = -12						; size = 4
_tmp1$ = -8						; size = 4
_this$ = -4						; size = 4
_s$ = 8							; size = 4
_c$ = 12						; size = 4
?In_Place_Pre_Rotate_X@Matrix3D@@QAEXMM@Z PROC		; Matrix3D::In_Place_Pre_Rotate_X, COMDAT
; _this$ = ecx

; 460  : 	{

	push	ebp
	mov	ebp, esp
	sub	esp, 80					; 00000050H
	push	ebx
	push	esi
	push	edi
	mov	DWORD PTR _this$[ebp], ecx

; 461  : 		float tmp1,tmp2;
; 462  : 		tmp1 = Row[1][0]; tmp2 = Row[2][0];

	push	0
	mov	ecx, 16					; 00000010H
	shl	ecx, 0
	add	ecx, DWORD PTR _this$[ebp]
	call	??AVector4@@QAEAAMH@Z			; Vector4::operator[]
	movss	xmm0, DWORD PTR [eax]
	movss	DWORD PTR _tmp1$[ebp], xmm0
	push	0
	mov	ecx, 16					; 00000010H
	shl	ecx, 1
	add	ecx, DWORD PTR _this$[ebp]
	call	??AVector4@@QAEAAMH@Z			; Vector4::operator[]
	movss	xmm0, DWORD PTR [eax]
	movss	DWORD PTR _tmp2$[ebp], xmm0

; 463  : 		Row[1][0] = (float)(c*tmp1 - s*tmp2);

	movss	xmm0, DWORD PTR _c$[ebp]
	mulss	xmm0, DWORD PTR _tmp1$[ebp]
	movss	xmm1, DWORD PTR _s$[ebp]
	mulss	xmm1, DWORD PTR _tmp2$[ebp]
	subss	xmm0, xmm1
	push	0
	mov	ecx, 16					; 00000010H
	shl	ecx, 0
	add	ecx, DWORD PTR _this$[ebp]
	movss	DWORD PTR tv235[ebp], xmm0
	call	??AVector4@@QAEAAMH@Z			; Vector4::operator[]
	movss	xmm0, DWORD PTR tv235[ebp]
	movss	DWORD PTR [eax], xmm0

; 464  : 		Row[2][0] = (float)(s*tmp1 + c*tmp2);

	movss	xmm0, DWORD PTR _s$[ebp]
	mulss	xmm0, DWORD PTR _tmp1$[ebp]
	movss	xmm1, DWORD PTR _c$[ebp]
	mulss	xmm1, DWORD PTR _tmp2$[ebp]
	addss	xmm0, xmm1
	push	0
	mov	ecx, 16					; 00000010H
	shl	ecx, 1
	add	ecx, DWORD PTR _this$[ebp]
	movss	DWORD PTR tv237[ebp], xmm0
	call	??AVector4@@QAEAAMH@Z			; Vector4::operator[]
	movss	xmm0, DWORD PTR tv237[ebp]
	movss	DWORD PTR [eax], xmm0

; 465  : 		tmp1 = Row[1][1]; tmp2 = Row[2][1];

	push	1
	mov	ecx, 16					; 00000010H
	shl	ecx, 0
	add	ecx, DWORD PTR _this$[ebp]
	call	??AVector4@@QAEAAMH@Z			; Vector4::operator[]
	movss	xmm0, DWORD PTR [eax]
	movss	DWORD PTR _tmp1$[ebp], xmm0
	push	1
	mov	ecx, 16					; 00000010H
	shl	ecx, 1
	add	ecx, DWORD PTR _this$[ebp]
	call	??AVector4@@QAEAAMH@Z			; Vector4::operator[]
	movss	xmm0, DWORD PTR [eax]
	movss	DWORD PTR _tmp2$[ebp], xmm0

; 466  : 		Row[1][1] = (float)(c*tmp1 - s*tmp2);

	movss	xmm0, DWORD PTR _c$[ebp]
	mulss	xmm0, DWORD PTR _tmp1$[ebp]
	movss	xmm1, DWORD PTR _s$[ebp]
	mulss	xmm1, DWORD PTR _tmp2$[ebp]
	subss	xmm0, xmm1
	push	1
	mov	ecx, 16					; 00000010H
	shl	ecx, 0
	add	ecx, DWORD PTR _this$[ebp]
	movss	DWORD PTR tv239[ebp], xmm0
	call	??AVector4@@QAEAAMH@Z			; Vector4::operator[]
	movss	xmm0, DWORD PTR tv239[ebp]
	movss	DWORD PTR [eax], xmm0

; 467  : 		Row[2][1] = (float)(s*tmp1 + c*tmp2);

	movss	xmm0, DWORD PTR _s$[ebp]
	mulss	xmm0, DWORD PTR _tmp1$[ebp]
	movss	xmm1, DWORD PTR _c$[ebp]
	mulss	xmm1, DWORD PTR _tmp2$[ebp]
	addss	xmm0, xmm1
	push	1
	mov	ecx, 16					; 00000010H
	shl	ecx, 1
	add	ecx, DWORD PTR _this$[ebp]
	movss	DWORD PTR tv241[ebp], xmm0
	call	??AVector4@@QAEAAMH@Z			; Vector4::operator[]
	movss	xmm0, DWORD PTR tv241[ebp]
	movss	DWORD PTR [eax], xmm0

; 468  : 		tmp1 = Row[1][2]; tmp2 = Row[2][2];

	push	2
	mov	ecx, 16					; 00000010H
	shl	ecx, 0
	add	ecx, DWORD PTR _this$[ebp]
	call	??AVector4@@QAEAAMH@Z			; Vector4::operator[]
	movss	xmm0, DWORD PTR [eax]
	movss	DWORD PTR _tmp1$[ebp], xmm0
	push	2
	mov	ecx, 16					; 00000010H
	shl	ecx, 1
	add	ecx, DWORD PTR _this$[ebp]
	call	??AVector4@@QAEAAMH@Z			; Vector4::operator[]
	movss	xmm0, DWORD PTR [eax]
	movss	DWORD PTR _tmp2$[ebp], xmm0

; 469  : 		Row[1][2] = (float)(c*tmp1 - s*tmp2);

	movss	xmm0, DWORD PTR _c$[ebp]
	mulss	xmm0, DWORD PTR _tmp1$[ebp]
	movss	xmm1, DWORD PTR _s$[ebp]
	mulss	xmm1, DWORD PTR _tmp2$[ebp]
	subss	xmm0, xmm1
	push	2
	mov	ecx, 16					; 00000010H
	shl	ecx, 0
	add	ecx, DWORD PTR _this$[ebp]
	movss	DWORD PTR tv243[ebp], xmm0
	call	??AVector4@@QAEAAMH@Z			; Vector4::operator[]
	movss	xmm0, DWORD PTR tv243[ebp]
	movss	DWORD PTR [eax], xmm0

; 470  : 		Row[2][2] = (float)(s*tmp1 + c*tmp2);

	movss	xmm0, DWORD PTR _s$[ebp]
	mulss	xmm0, DWORD PTR _tmp1$[ebp]
	movss	xmm1, DWORD PTR _c$[ebp]
	mulss	xmm1, DWORD PTR _tmp2$[ebp]
	addss	xmm0, xmm1
	push	2
	mov	ecx, 16					; 00000010H
	shl	ecx, 1
	add	ecx, DWORD PTR _this$[ebp]
	movss	DWORD PTR tv245[ebp], xmm0
	call	??AVector4@@QAEAAMH@Z			; Vector4::operator[]
	movss	xmm0, DWORD PTR tv245[ebp]
	movss	DWORD PTR [eax], xmm0

; 471  : 	}

	pop	edi
	pop	esi
	pop	ebx
	mov	esp, ebp
	pop	ebp
	ret	8
?In_Place_Pre_Rotate_X@Matrix3D@@QAEXMM@Z ENDP		; Matrix3D::In_Place_Pre_Rotate_X
_TEXT	ENDS
; Function compile flags: /Odtp /ZI
; File x:\github\renegade\dragonade_rxd\scripts\matrix3d.h
;	COMDAT ?In_Place_Pre_Rotate_Z@Matrix3D@@QAEXM@Z
_TEXT	SEGMENT
tv257 = -88						; size = 4
tv255 = -88						; size = 4
tv253 = -88						; size = 4
tv251 = -88						; size = 4
tv249 = -88						; size = 4
tv247 = -88						; size = 4
_s$ = -20						; size = 4
_c$ = -16						; size = 4
_tmp2$ = -12						; size = 4
_tmp1$ = -8						; size = 4
_this$ = -4						; size = 4
_theta$ = 8						; size = 4
?In_Place_Pre_Rotate_Z@Matrix3D@@QAEXM@Z PROC		; Matrix3D::In_Place_Pre_Rotate_Z, COMDAT
; _this$ = ecx

; 444  : 	{

	push	ebp
	mov	ebp, esp
	sub	esp, 88					; 00000058H
	push	ebx
	push	esi
	push	edi
	mov	DWORD PTR _this$[ebp], ecx

; 445  : 		float tmp1,tmp2;
; 446  : 		float c,s;
; 447  : 		c = cosf(theta);

	push	ecx
	movss	xmm0, DWORD PTR _theta$[ebp]
	movss	DWORD PTR [esp], xmm0
	call	_cosf
	add	esp, 4
	fstp	DWORD PTR _c$[ebp]

; 448  : 		s = sinf(theta);

	push	ecx
	movss	xmm0, DWORD PTR _theta$[ebp]
	movss	DWORD PTR [esp], xmm0
	call	_sinf
	add	esp, 4
	fstp	DWORD PTR _s$[ebp]

; 449  : 		tmp1 = Row[0][0]; tmp2 = Row[1][0];

	push	0
	mov	ecx, 16					; 00000010H
	imul	ecx, 0
	add	ecx, DWORD PTR _this$[ebp]
	call	??AVector4@@QAEAAMH@Z			; Vector4::operator[]
	movss	xmm0, DWORD PTR [eax]
	movss	DWORD PTR _tmp1$[ebp], xmm0
	push	0
	mov	ecx, 16					; 00000010H
	shl	ecx, 0
	add	ecx, DWORD PTR _this$[ebp]
	call	??AVector4@@QAEAAMH@Z			; Vector4::operator[]
	movss	xmm0, DWORD PTR [eax]
	movss	DWORD PTR _tmp2$[ebp], xmm0

; 450  : 		Row[0][0] = (float)(c*tmp1 - s*tmp2);

	movss	xmm0, DWORD PTR _c$[ebp]
	mulss	xmm0, DWORD PTR _tmp1$[ebp]
	movss	xmm1, DWORD PTR _s$[ebp]
	mulss	xmm1, DWORD PTR _tmp2$[ebp]
	subss	xmm0, xmm1
	push	0
	mov	ecx, 16					; 00000010H
	imul	ecx, 0
	add	ecx, DWORD PTR _this$[ebp]
	movss	DWORD PTR tv247[ebp], xmm0
	call	??AVector4@@QAEAAMH@Z			; Vector4::operator[]
	movss	xmm0, DWORD PTR tv247[ebp]
	movss	DWORD PTR [eax], xmm0

; 451  : 		Row[1][0] = (float)(s*tmp1 + c*tmp2);

	movss	xmm0, DWORD PTR _s$[ebp]
	mulss	xmm0, DWORD PTR _tmp1$[ebp]
	movss	xmm1, DWORD PTR _c$[ebp]
	mulss	xmm1, DWORD PTR _tmp2$[ebp]
	addss	xmm0, xmm1
	push	0
	mov	ecx, 16					; 00000010H
	shl	ecx, 0
	add	ecx, DWORD PTR _this$[ebp]
	movss	DWORD PTR tv249[ebp], xmm0
	call	??AVector4@@QAEAAMH@Z			; Vector4::operator[]
	movss	xmm0, DWORD PTR tv249[ebp]
	movss	DWORD PTR [eax], xmm0

; 452  : 		tmp1 = Row[0][1]; tmp2 = Row[1][1];

	push	1
	mov	ecx, 16					; 00000010H
	imul	ecx, 0
	add	ecx, DWORD PTR _this$[ebp]
	call	??AVector4@@QAEAAMH@Z			; Vector4::operator[]
	movss	xmm0, DWORD PTR [eax]
	movss	DWORD PTR _tmp1$[ebp], xmm0
	push	1
	mov	ecx, 16					; 00000010H
	shl	ecx, 0
	add	ecx, DWORD PTR _this$[ebp]
	call	??AVector4@@QAEAAMH@Z			; Vector4::operator[]
	movss	xmm0, DWORD PTR [eax]
	movss	DWORD PTR _tmp2$[ebp], xmm0

; 453  : 		Row[0][1] = (float)(c*tmp1 - s*tmp2);

	movss	xmm0, DWORD PTR _c$[ebp]
	mulss	xmm0, DWORD PTR _tmp1$[ebp]
	movss	xmm1, DWORD PTR _s$[ebp]
	mulss	xmm1, DWORD PTR _tmp2$[ebp]
	subss	xmm0, xmm1
	push	1
	mov	ecx, 16					; 00000010H
	imul	ecx, 0
	add	ecx, DWORD PTR _this$[ebp]
	movss	DWORD PTR tv251[ebp], xmm0
	call	??AVector4@@QAEAAMH@Z			; Vector4::operator[]
	movss	xmm0, DWORD PTR tv251[ebp]
	movss	DWORD PTR [eax], xmm0

; 454  : 		Row[1][1] = (float)(s*tmp1 + c*tmp2);

	movss	xmm0, DWORD PTR _s$[ebp]
	mulss	xmm0, DWORD PTR _tmp1$[ebp]
	movss	xmm1, DWORD PTR _c$[ebp]
	mulss	xmm1, DWORD PTR _tmp2$[ebp]
	addss	xmm0, xmm1
	push	1
	mov	ecx, 16					; 00000010H
	shl	ecx, 0
	add	ecx, DWORD PTR _this$[ebp]
	movss	DWORD PTR tv253[ebp], xmm0
	call	??AVector4@@QAEAAMH@Z			; Vector4::operator[]
	movss	xmm0, DWORD PTR tv253[ebp]
	movss	DWORD PTR [eax], xmm0

; 455  : 		tmp1 = Row[0][2]; tmp2 = Row[1][2];

	push	2
	mov	ecx, 16					; 00000010H
	imul	ecx, 0
	add	ecx, DWORD PTR _this$[ebp]
	call	??AVector4@@QAEAAMH@Z			; Vector4::operator[]
	movss	xmm0, DWORD PTR [eax]
	movss	DWORD PTR _tmp1$[ebp], xmm0
	push	2
	mov	ecx, 16					; 00000010H
	shl	ecx, 0
	add	ecx, DWORD PTR _this$[ebp]
	call	??AVector4@@QAEAAMH@Z			; Vector4::operator[]
	movss	xmm0, DWORD PTR [eax]
	movss	DWORD PTR _tmp2$[ebp], xmm0

; 456  : 		Row[0][2] = (float)(c*tmp1 - s*tmp2);

	movss	xmm0, DWORD PTR _c$[ebp]
	mulss	xmm0, DWORD PTR _tmp1$[ebp]
	movss	xmm1, DWORD PTR _s$[ebp]
	mulss	xmm1, DWORD PTR _tmp2$[ebp]
	subss	xmm0, xmm1
	push	2
	mov	ecx, 16					; 00000010H
	imul	ecx, 0
	add	ecx, DWORD PTR _this$[ebp]
	movss	DWORD PTR tv255[ebp], xmm0
	call	??AVector4@@QAEAAMH@Z			; Vector4::operator[]
	movss	xmm0, DWORD PTR tv255[ebp]
	movss	DWORD PTR [eax], xmm0

; 457  : 		Row[1][2] = (float)(s*tmp1 + c*tmp2);

	movss	xmm0, DWORD PTR _s$[ebp]
	mulss	xmm0, DWORD PTR _tmp1$[ebp]
	movss	xmm1, DWORD PTR _c$[ebp]
	mulss	xmm1, DWORD PTR _tmp2$[ebp]
	addss	xmm0, xmm1
	push	2
	mov	ecx, 16					; 00000010H
	shl	ecx, 0
	add	ecx, DWORD PTR _this$[ebp]
	movss	DWORD PTR tv257[ebp], xmm0
	call	??AVector4@@QAEAAMH@Z			; Vector4::operator[]
	movss	xmm0, DWORD PTR tv257[ebp]
	movss	DWORD PTR [eax], xmm0

; 458  : 	}

	pop	edi
	pop	esi
	pop	ebx
	mov	esp, ebp
	pop	ebp
	ret	4
?In_Place_Pre_Rotate_Z@Matrix3D@@QAEXM@Z ENDP		; Matrix3D::In_Place_Pre_Rotate_Z
_TEXT	ENDS
; Function compile flags: /Odtp /ZI
; File x:\github\renegade\dragonade_rxd\scripts\matrix3d.h
;	COMDAT ?In_Place_Pre_Rotate_Y@Matrix3D@@QAEXM@Z
_TEXT	SEGMENT
tv260 = -88						; size = 4
tv258 = -88						; size = 4
tv256 = -88						; size = 4
tv254 = -88						; size = 4
tv252 = -88						; size = 4
tv250 = -88						; size = 4
_s$ = -20						; size = 4
_c$ = -16						; size = 4
_tmp2$ = -12						; size = 4
_tmp1$ = -8						; size = 4
_this$ = -4						; size = 4
_theta$ = 8						; size = 4
?In_Place_Pre_Rotate_Y@Matrix3D@@QAEXM@Z PROC		; Matrix3D::In_Place_Pre_Rotate_Y, COMDAT
; _this$ = ecx

; 428  : 	{

	push	ebp
	mov	ebp, esp
	sub	esp, 88					; 00000058H
	push	ebx
	push	esi
	push	edi
	mov	DWORD PTR _this$[ebp], ecx

; 429  : 		float tmp1,tmp2;
; 430  : 		float c,s;
; 431  : 		c = cosf(theta);

	push	ecx
	movss	xmm0, DWORD PTR _theta$[ebp]
	movss	DWORD PTR [esp], xmm0
	call	_cosf
	add	esp, 4
	fstp	DWORD PTR _c$[ebp]

; 432  : 		s = sinf(theta);

	push	ecx
	movss	xmm0, DWORD PTR _theta$[ebp]
	movss	DWORD PTR [esp], xmm0
	call	_sinf
	add	esp, 4
	fstp	DWORD PTR _s$[ebp]

; 433  : 		tmp1 = Row[0][0]; tmp2 = Row[2][0];

	push	0
	mov	ecx, 16					; 00000010H
	imul	ecx, 0
	add	ecx, DWORD PTR _this$[ebp]
	call	??AVector4@@QAEAAMH@Z			; Vector4::operator[]
	movss	xmm0, DWORD PTR [eax]
	movss	DWORD PTR _tmp1$[ebp], xmm0
	push	0
	mov	ecx, 16					; 00000010H
	shl	ecx, 1
	add	ecx, DWORD PTR _this$[ebp]
	call	??AVector4@@QAEAAMH@Z			; Vector4::operator[]
	movss	xmm0, DWORD PTR [eax]
	movss	DWORD PTR _tmp2$[ebp], xmm0

; 434  : 		Row[0][0] = (float)( c*tmp1 + s*tmp2);

	movss	xmm0, DWORD PTR _c$[ebp]
	mulss	xmm0, DWORD PTR _tmp1$[ebp]
	movss	xmm1, DWORD PTR _s$[ebp]
	mulss	xmm1, DWORD PTR _tmp2$[ebp]
	addss	xmm0, xmm1
	push	0
	mov	ecx, 16					; 00000010H
	imul	ecx, 0
	add	ecx, DWORD PTR _this$[ebp]
	movss	DWORD PTR tv250[ebp], xmm0
	call	??AVector4@@QAEAAMH@Z			; Vector4::operator[]
	movss	xmm0, DWORD PTR tv250[ebp]
	movss	DWORD PTR [eax], xmm0

; 435  : 		Row[2][0] = (float)(-s*tmp1 + c*tmp2);

	movss	xmm0, DWORD PTR _s$[ebp]
	xorps	xmm0, DWORD PTR __xmm@80000000800000008000000080000000
	mulss	xmm0, DWORD PTR _tmp1$[ebp]
	movss	xmm1, DWORD PTR _c$[ebp]
	mulss	xmm1, DWORD PTR _tmp2$[ebp]
	addss	xmm0, xmm1
	push	0
	mov	ecx, 16					; 00000010H
	shl	ecx, 1
	add	ecx, DWORD PTR _this$[ebp]
	movss	DWORD PTR tv252[ebp], xmm0
	call	??AVector4@@QAEAAMH@Z			; Vector4::operator[]
	movss	xmm0, DWORD PTR tv252[ebp]
	movss	DWORD PTR [eax], xmm0

; 436  : 		tmp1 = Row[0][1]; tmp2 = Row[2][1];

	push	1
	mov	ecx, 16					; 00000010H
	imul	ecx, 0
	add	ecx, DWORD PTR _this$[ebp]
	call	??AVector4@@QAEAAMH@Z			; Vector4::operator[]
	movss	xmm0, DWORD PTR [eax]
	movss	DWORD PTR _tmp1$[ebp], xmm0
	push	1
	mov	ecx, 16					; 00000010H
	shl	ecx, 1
	add	ecx, DWORD PTR _this$[ebp]
	call	??AVector4@@QAEAAMH@Z			; Vector4::operator[]
	movss	xmm0, DWORD PTR [eax]
	movss	DWORD PTR _tmp2$[ebp], xmm0

; 437  : 		Row[0][1] = (float)( c*tmp1 + s*tmp2);

	movss	xmm0, DWORD PTR _c$[ebp]
	mulss	xmm0, DWORD PTR _tmp1$[ebp]
	movss	xmm1, DWORD PTR _s$[ebp]
	mulss	xmm1, DWORD PTR _tmp2$[ebp]
	addss	xmm0, xmm1
	push	1
	mov	ecx, 16					; 00000010H
	imul	ecx, 0
	add	ecx, DWORD PTR _this$[ebp]
	movss	DWORD PTR tv254[ebp], xmm0
	call	??AVector4@@QAEAAMH@Z			; Vector4::operator[]
	movss	xmm0, DWORD PTR tv254[ebp]
	movss	DWORD PTR [eax], xmm0

; 438  : 		Row[2][1] = (float)(-s*tmp1 + c*tmp2);

	movss	xmm0, DWORD PTR _s$[ebp]
	xorps	xmm0, DWORD PTR __xmm@80000000800000008000000080000000
	mulss	xmm0, DWORD PTR _tmp1$[ebp]
	movss	xmm1, DWORD PTR _c$[ebp]
	mulss	xmm1, DWORD PTR _tmp2$[ebp]
	addss	xmm0, xmm1
	push	1
	mov	ecx, 16					; 00000010H
	shl	ecx, 1
	add	ecx, DWORD PTR _this$[ebp]
	movss	DWORD PTR tv256[ebp], xmm0
	call	??AVector4@@QAEAAMH@Z			; Vector4::operator[]
	movss	xmm0, DWORD PTR tv256[ebp]
	movss	DWORD PTR [eax], xmm0

; 439  : 		tmp1 = Row[0][2]; tmp2 = Row[2][2];

	push	2
	mov	ecx, 16					; 00000010H
	imul	ecx, 0
	add	ecx, DWORD PTR _this$[ebp]
	call	??AVector4@@QAEAAMH@Z			; Vector4::operator[]
	movss	xmm0, DWORD PTR [eax]
	movss	DWORD PTR _tmp1$[ebp], xmm0
	push	2
	mov	ecx, 16					; 00000010H
	shl	ecx, 1
	add	ecx, DWORD PTR _this$[ebp]
	call	??AVector4@@QAEAAMH@Z			; Vector4::operator[]
	movss	xmm0, DWORD PTR [eax]
	movss	DWORD PTR _tmp2$[ebp], xmm0

; 440  : 		Row[0][2] = (float)( c*tmp1 + s*tmp2);

	movss	xmm0, DWORD PTR _c$[ebp]
	mulss	xmm0, DWORD PTR _tmp1$[ebp]
	movss	xmm1, DWORD PTR _s$[ebp]
	mulss	xmm1, DWORD PTR _tmp2$[ebp]
	addss	xmm0, xmm1
	push	2
	mov	ecx, 16					; 00000010H
	imul	ecx, 0
	add	ecx, DWORD PTR _this$[ebp]
	movss	DWORD PTR tv258[ebp], xmm0
	call	??AVector4@@QAEAAMH@Z			; Vector4::operator[]
	movss	xmm0, DWORD PTR tv258[ebp]
	movss	DWORD PTR [eax], xmm0

; 441  : 		Row[2][2] = (float)(-s*tmp1 + c*tmp2);

	movss	xmm0, DWORD PTR _s$[ebp]
	xorps	xmm0, DWORD PTR __xmm@80000000800000008000000080000000
	mulss	xmm0, DWORD PTR _tmp1$[ebp]
	movss	xmm1, DWORD PTR _c$[ebp]
	mulss	xmm1, DWORD PTR _tmp2$[ebp]
	addss	xmm0, xmm1
	push	2
	mov	ecx, 16					; 00000010H
	shl	ecx, 1
	add	ecx, DWORD PTR _this$[ebp]
	movss	DWORD PTR tv260[ebp], xmm0
	call	??AVector4@@QAEAAMH@Z			; Vector4::operator[]
	movss	xmm0, DWORD PTR tv260[ebp]
	movss	DWORD PTR [eax], xmm0

; 442  : 	}

	pop	edi
	pop	esi
	pop	ebx
	mov	esp, ebp
	pop	ebp
	ret	4
?In_Place_Pre_Rotate_Y@Matrix3D@@QAEXM@Z ENDP		; Matrix3D::In_Place_Pre_Rotate_Y
_TEXT	ENDS
; Function compile flags: /Odtp /ZI
; File x:\github\renegade\dragonade_rxd\scripts\matrix3d.h
;	COMDAT ?In_Place_Pre_Rotate_X@Matrix3D@@QAEXM@Z
_TEXT	SEGMENT
tv257 = -88						; size = 4
tv255 = -88						; size = 4
tv253 = -88						; size = 4
tv251 = -88						; size = 4
tv249 = -88						; size = 4
tv247 = -88						; size = 4
_s$ = -20						; size = 4
_c$ = -16						; size = 4
_tmp2$ = -12						; size = 4
_tmp1$ = -8						; size = 4
_this$ = -4						; size = 4
_theta$ = 8						; size = 4
?In_Place_Pre_Rotate_X@Matrix3D@@QAEXM@Z PROC		; Matrix3D::In_Place_Pre_Rotate_X, COMDAT
; _this$ = ecx

; 412  : 	{

	push	ebp
	mov	ebp, esp
	sub	esp, 88					; 00000058H
	push	ebx
	push	esi
	push	edi
	mov	DWORD PTR _this$[ebp], ecx

; 413  : 		float tmp1,tmp2;
; 414  : 		float c,s;
; 415  : 		c = cosf(theta);

	push	ecx
	movss	xmm0, DWORD PTR _theta$[ebp]
	movss	DWORD PTR [esp], xmm0
	call	_cosf
	add	esp, 4
	fstp	DWORD PTR _c$[ebp]

; 416  : 		s = sinf(theta);

	push	ecx
	movss	xmm0, DWORD PTR _theta$[ebp]
	movss	DWORD PTR [esp], xmm0
	call	_sinf
	add	esp, 4
	fstp	DWORD PTR _s$[ebp]

; 417  : 		tmp1 = Row[1][0]; tmp2 = Row[2][0];

	push	0
	mov	ecx, 16					; 00000010H
	shl	ecx, 0
	add	ecx, DWORD PTR _this$[ebp]
	call	??AVector4@@QAEAAMH@Z			; Vector4::operator[]
	movss	xmm0, DWORD PTR [eax]
	movss	DWORD PTR _tmp1$[ebp], xmm0
	push	0
	mov	ecx, 16					; 00000010H
	shl	ecx, 1
	add	ecx, DWORD PTR _this$[ebp]
	call	??AVector4@@QAEAAMH@Z			; Vector4::operator[]
	movss	xmm0, DWORD PTR [eax]
	movss	DWORD PTR _tmp2$[ebp], xmm0

; 418  : 		Row[1][0] = (float)(c*tmp1 - s*tmp2);

	movss	xmm0, DWORD PTR _c$[ebp]
	mulss	xmm0, DWORD PTR _tmp1$[ebp]
	movss	xmm1, DWORD PTR _s$[ebp]
	mulss	xmm1, DWORD PTR _tmp2$[ebp]
	subss	xmm0, xmm1
	push	0
	mov	ecx, 16					; 00000010H
	shl	ecx, 0
	add	ecx, DWORD PTR _this$[ebp]
	movss	DWORD PTR tv247[ebp], xmm0
	call	??AVector4@@QAEAAMH@Z			; Vector4::operator[]
	movss	xmm0, DWORD PTR tv247[ebp]
	movss	DWORD PTR [eax], xmm0

; 419  : 		Row[2][0] = (float)(s*tmp1 + c*tmp2);

	movss	xmm0, DWORD PTR _s$[ebp]
	mulss	xmm0, DWORD PTR _tmp1$[ebp]
	movss	xmm1, DWORD PTR _c$[ebp]
	mulss	xmm1, DWORD PTR _tmp2$[ebp]
	addss	xmm0, xmm1
	push	0
	mov	ecx, 16					; 00000010H
	shl	ecx, 1
	add	ecx, DWORD PTR _this$[ebp]
	movss	DWORD PTR tv249[ebp], xmm0
	call	??AVector4@@QAEAAMH@Z			; Vector4::operator[]
	movss	xmm0, DWORD PTR tv249[ebp]
	movss	DWORD PTR [eax], xmm0

; 420  : 		tmp1 = Row[1][1]; tmp2 = Row[2][1];

	push	1
	mov	ecx, 16					; 00000010H
	shl	ecx, 0
	add	ecx, DWORD PTR _this$[ebp]
	call	??AVector4@@QAEAAMH@Z			; Vector4::operator[]
	movss	xmm0, DWORD PTR [eax]
	movss	DWORD PTR _tmp1$[ebp], xmm0
	push	1
	mov	ecx, 16					; 00000010H
	shl	ecx, 1
	add	ecx, DWORD PTR _this$[ebp]
	call	??AVector4@@QAEAAMH@Z			; Vector4::operator[]
	movss	xmm0, DWORD PTR [eax]
	movss	DWORD PTR _tmp2$[ebp], xmm0

; 421  : 		Row[1][1] = (float)(c*tmp1 - s*tmp2);

	movss	xmm0, DWORD PTR _c$[ebp]
	mulss	xmm0, DWORD PTR _tmp1$[ebp]
	movss	xmm1, DWORD PTR _s$[ebp]
	mulss	xmm1, DWORD PTR _tmp2$[ebp]
	subss	xmm0, xmm1
	push	1
	mov	ecx, 16					; 00000010H
	shl	ecx, 0
	add	ecx, DWORD PTR _this$[ebp]
	movss	DWORD PTR tv251[ebp], xmm0
	call	??AVector4@@QAEAAMH@Z			; Vector4::operator[]
	movss	xmm0, DWORD PTR tv251[ebp]
	movss	DWORD PTR [eax], xmm0

; 422  : 		Row[2][1] = (float)(s*tmp1 + c*tmp2);

	movss	xmm0, DWORD PTR _s$[ebp]
	mulss	xmm0, DWORD PTR _tmp1$[ebp]
	movss	xmm1, DWORD PTR _c$[ebp]
	mulss	xmm1, DWORD PTR _tmp2$[ebp]
	addss	xmm0, xmm1
	push	1
	mov	ecx, 16					; 00000010H
	shl	ecx, 1
	add	ecx, DWORD PTR _this$[ebp]
	movss	DWORD PTR tv253[ebp], xmm0
	call	??AVector4@@QAEAAMH@Z			; Vector4::operator[]
	movss	xmm0, DWORD PTR tv253[ebp]
	movss	DWORD PTR [eax], xmm0

; 423  : 		tmp1 = Row[1][2]; tmp2 = Row[2][2];

	push	2
	mov	ecx, 16					; 00000010H
	shl	ecx, 0
	add	ecx, DWORD PTR _this$[ebp]
	call	??AVector4@@QAEAAMH@Z			; Vector4::operator[]
	movss	xmm0, DWORD PTR [eax]
	movss	DWORD PTR _tmp1$[ebp], xmm0
	push	2
	mov	ecx, 16					; 00000010H
	shl	ecx, 1
	add	ecx, DWORD PTR _this$[ebp]
	call	??AVector4@@QAEAAMH@Z			; Vector4::operator[]
	movss	xmm0, DWORD PTR [eax]
	movss	DWORD PTR _tmp2$[ebp], xmm0

; 424  : 		Row[1][2] = (float)(c*tmp1 - s*tmp2);

	movss	xmm0, DWORD PTR _c$[ebp]
	mulss	xmm0, DWORD PTR _tmp1$[ebp]
	movss	xmm1, DWORD PTR _s$[ebp]
	mulss	xmm1, DWORD PTR _tmp2$[ebp]
	subss	xmm0, xmm1
	push	2
	mov	ecx, 16					; 00000010H
	shl	ecx, 0
	add	ecx, DWORD PTR _this$[ebp]
	movss	DWORD PTR tv255[ebp], xmm0
	call	??AVector4@@QAEAAMH@Z			; Vector4::operator[]
	movss	xmm0, DWORD PTR tv255[ebp]
	movss	DWORD PTR [eax], xmm0

; 425  : 		Row[2][2] = (float)(s*tmp1 + c*tmp2);

	movss	xmm0, DWORD PTR _s$[ebp]
	mulss	xmm0, DWORD PTR _tmp1$[ebp]
	movss	xmm1, DWORD PTR _c$[ebp]
	mulss	xmm1, DWORD PTR _tmp2$[ebp]
	addss	xmm0, xmm1
	push	2
	mov	ecx, 16					; 00000010H
	shl	ecx, 1
	add	ecx, DWORD PTR _this$[ebp]
	movss	DWORD PTR tv257[ebp], xmm0
	call	??AVector4@@QAEAAMH@Z			; Vector4::operator[]
	movss	xmm0, DWORD PTR tv257[ebp]
	movss	DWORD PTR [eax], xmm0

; 426  : 	}

	pop	edi
	pop	esi
	pop	ebx
	mov	esp, ebp
	pop	ebp
	ret	4
?In_Place_Pre_Rotate_X@Matrix3D@@QAEXM@Z ENDP		; Matrix3D::In_Place_Pre_Rotate_X
_TEXT	ENDS
; Function compile flags: /Odtp /ZI
; File x:\github\renegade\dragonade_rxd\scripts\matrix3d.h
;	COMDAT ?Pre_Rotate_Z@Matrix3D@@QAEXMM@Z
_TEXT	SEGMENT
tv295 = -80						; size = 4
tv293 = -80						; size = 4
tv291 = -80						; size = 4
tv289 = -80						; size = 4
tv287 = -80						; size = 4
tv285 = -80						; size = 4
tv283 = -80						; size = 4
tv281 = -80						; size = 4
_tmp2$ = -12						; size = 4
_tmp1$ = -8						; size = 4
_this$ = -4						; size = 4
_s$ = 8							; size = 4
_c$ = 12						; size = 4
?Pre_Rotate_Z@Matrix3D@@QAEXMM@Z PROC			; Matrix3D::Pre_Rotate_Z, COMDAT
; _this$ = ecx

; 396  : 	{

	push	ebp
	mov	ebp, esp
	sub	esp, 80					; 00000050H
	push	ebx
	push	esi
	push	edi
	mov	DWORD PTR _this$[ebp], ecx

; 397  : 		float tmp1,tmp2;
; 398  : 		tmp1 = Row[0][0]; tmp2 = Row[1][0];

	push	0
	mov	ecx, 16					; 00000010H
	imul	ecx, 0
	add	ecx, DWORD PTR _this$[ebp]
	call	??AVector4@@QAEAAMH@Z			; Vector4::operator[]
	movss	xmm0, DWORD PTR [eax]
	movss	DWORD PTR _tmp1$[ebp], xmm0
	push	0
	mov	ecx, 16					; 00000010H
	shl	ecx, 0
	add	ecx, DWORD PTR _this$[ebp]
	call	??AVector4@@QAEAAMH@Z			; Vector4::operator[]
	movss	xmm0, DWORD PTR [eax]
	movss	DWORD PTR _tmp2$[ebp], xmm0

; 399  : 		Row[0][0] = (float)(c*tmp1 - s*tmp2);

	movss	xmm0, DWORD PTR _c$[ebp]
	mulss	xmm0, DWORD PTR _tmp1$[ebp]
	movss	xmm1, DWORD PTR _s$[ebp]
	mulss	xmm1, DWORD PTR _tmp2$[ebp]
	subss	xmm0, xmm1
	push	0
	mov	ecx, 16					; 00000010H
	imul	ecx, 0
	add	ecx, DWORD PTR _this$[ebp]
	movss	DWORD PTR tv281[ebp], xmm0
	call	??AVector4@@QAEAAMH@Z			; Vector4::operator[]
	movss	xmm0, DWORD PTR tv281[ebp]
	movss	DWORD PTR [eax], xmm0

; 400  : 		Row[1][0] = (float)(s*tmp1 + c*tmp2);

	movss	xmm0, DWORD PTR _s$[ebp]
	mulss	xmm0, DWORD PTR _tmp1$[ebp]
	movss	xmm1, DWORD PTR _c$[ebp]
	mulss	xmm1, DWORD PTR _tmp2$[ebp]
	addss	xmm0, xmm1
	push	0
	mov	ecx, 16					; 00000010H
	shl	ecx, 0
	add	ecx, DWORD PTR _this$[ebp]
	movss	DWORD PTR tv283[ebp], xmm0
	call	??AVector4@@QAEAAMH@Z			; Vector4::operator[]
	movss	xmm0, DWORD PTR tv283[ebp]
	movss	DWORD PTR [eax], xmm0

; 401  : 		tmp1 = Row[0][1]; tmp2 = Row[1][1];

	push	1
	mov	ecx, 16					; 00000010H
	imul	ecx, 0
	add	ecx, DWORD PTR _this$[ebp]
	call	??AVector4@@QAEAAMH@Z			; Vector4::operator[]
	movss	xmm0, DWORD PTR [eax]
	movss	DWORD PTR _tmp1$[ebp], xmm0
	push	1
	mov	ecx, 16					; 00000010H
	shl	ecx, 0
	add	ecx, DWORD PTR _this$[ebp]
	call	??AVector4@@QAEAAMH@Z			; Vector4::operator[]
	movss	xmm0, DWORD PTR [eax]
	movss	DWORD PTR _tmp2$[ebp], xmm0

; 402  : 		Row[0][1] = (float)(c*tmp1 - s*tmp2);

	movss	xmm0, DWORD PTR _c$[ebp]
	mulss	xmm0, DWORD PTR _tmp1$[ebp]
	movss	xmm1, DWORD PTR _s$[ebp]
	mulss	xmm1, DWORD PTR _tmp2$[ebp]
	subss	xmm0, xmm1
	push	1
	mov	ecx, 16					; 00000010H
	imul	ecx, 0
	add	ecx, DWORD PTR _this$[ebp]
	movss	DWORD PTR tv285[ebp], xmm0
	call	??AVector4@@QAEAAMH@Z			; Vector4::operator[]
	movss	xmm0, DWORD PTR tv285[ebp]
	movss	DWORD PTR [eax], xmm0

; 403  : 		Row[1][1] = (float)(s*tmp1 + c*tmp2);

	movss	xmm0, DWORD PTR _s$[ebp]
	mulss	xmm0, DWORD PTR _tmp1$[ebp]
	movss	xmm1, DWORD PTR _c$[ebp]
	mulss	xmm1, DWORD PTR _tmp2$[ebp]
	addss	xmm0, xmm1
	push	1
	mov	ecx, 16					; 00000010H
	shl	ecx, 0
	add	ecx, DWORD PTR _this$[ebp]
	movss	DWORD PTR tv287[ebp], xmm0
	call	??AVector4@@QAEAAMH@Z			; Vector4::operator[]
	movss	xmm0, DWORD PTR tv287[ebp]
	movss	DWORD PTR [eax], xmm0

; 404  : 		tmp1 = Row[0][2]; tmp2 = Row[1][2];

	push	2
	mov	ecx, 16					; 00000010H
	imul	ecx, 0
	add	ecx, DWORD PTR _this$[ebp]
	call	??AVector4@@QAEAAMH@Z			; Vector4::operator[]
	movss	xmm0, DWORD PTR [eax]
	movss	DWORD PTR _tmp1$[ebp], xmm0
	push	2
	mov	ecx, 16					; 00000010H
	shl	ecx, 0
	add	ecx, DWORD PTR _this$[ebp]
	call	??AVector4@@QAEAAMH@Z			; Vector4::operator[]
	movss	xmm0, DWORD PTR [eax]
	movss	DWORD PTR _tmp2$[ebp], xmm0

; 405  : 		Row[0][2] = (float)(c*tmp1 - s*tmp2);

	movss	xmm0, DWORD PTR _c$[ebp]
	mulss	xmm0, DWORD PTR _tmp1$[ebp]
	movss	xmm1, DWORD PTR _s$[ebp]
	mulss	xmm1, DWORD PTR _tmp2$[ebp]
	subss	xmm0, xmm1
	push	2
	mov	ecx, 16					; 00000010H
	imul	ecx, 0
	add	ecx, DWORD PTR _this$[ebp]
	movss	DWORD PTR tv289[ebp], xmm0
	call	??AVector4@@QAEAAMH@Z			; Vector4::operator[]
	movss	xmm0, DWORD PTR tv289[ebp]
	movss	DWORD PTR [eax], xmm0

; 406  : 		Row[1][2] = (float)(s*tmp1 + c*tmp2);

	movss	xmm0, DWORD PTR _s$[ebp]
	mulss	xmm0, DWORD PTR _tmp1$[ebp]
	movss	xmm1, DWORD PTR _c$[ebp]
	mulss	xmm1, DWORD PTR _tmp2$[ebp]
	addss	xmm0, xmm1
	push	2
	mov	ecx, 16					; 00000010H
	shl	ecx, 0
	add	ecx, DWORD PTR _this$[ebp]
	movss	DWORD PTR tv291[ebp], xmm0
	call	??AVector4@@QAEAAMH@Z			; Vector4::operator[]
	movss	xmm0, DWORD PTR tv291[ebp]
	movss	DWORD PTR [eax], xmm0

; 407  : 		tmp1 = Row[0][3]; tmp2 = Row[1][3];

	push	3
	mov	ecx, 16					; 00000010H
	imul	ecx, 0
	add	ecx, DWORD PTR _this$[ebp]
	call	??AVector4@@QAEAAMH@Z			; Vector4::operator[]
	movss	xmm0, DWORD PTR [eax]
	movss	DWORD PTR _tmp1$[ebp], xmm0
	push	3
	mov	ecx, 16					; 00000010H
	shl	ecx, 0
	add	ecx, DWORD PTR _this$[ebp]
	call	??AVector4@@QAEAAMH@Z			; Vector4::operator[]
	movss	xmm0, DWORD PTR [eax]
	movss	DWORD PTR _tmp2$[ebp], xmm0

; 408  : 		Row[0][3] = (float)(c*tmp1 - s*tmp2);

	movss	xmm0, DWORD PTR _c$[ebp]
	mulss	xmm0, DWORD PTR _tmp1$[ebp]
	movss	xmm1, DWORD PTR _s$[ebp]
	mulss	xmm1, DWORD PTR _tmp2$[ebp]
	subss	xmm0, xmm1
	push	3
	mov	ecx, 16					; 00000010H
	imul	ecx, 0
	add	ecx, DWORD PTR _this$[ebp]
	movss	DWORD PTR tv293[ebp], xmm0
	call	??AVector4@@QAEAAMH@Z			; Vector4::operator[]
	movss	xmm0, DWORD PTR tv293[ebp]
	movss	DWORD PTR [eax], xmm0

; 409  : 		Row[1][3] = (float)(s*tmp1 + c*tmp2);

	movss	xmm0, DWORD PTR _s$[ebp]
	mulss	xmm0, DWORD PTR _tmp1$[ebp]
	movss	xmm1, DWORD PTR _c$[ebp]
	mulss	xmm1, DWORD PTR _tmp2$[ebp]
	addss	xmm0, xmm1
	push	3
	mov	ecx, 16					; 00000010H
	shl	ecx, 0
	add	ecx, DWORD PTR _this$[ebp]
	movss	DWORD PTR tv295[ebp], xmm0
	call	??AVector4@@QAEAAMH@Z			; Vector4::operator[]
	movss	xmm0, DWORD PTR tv295[ebp]
	movss	DWORD PTR [eax], xmm0

; 410  : 	}

	pop	edi
	pop	esi
	pop	ebx
	mov	esp, ebp
	pop	ebp
	ret	8
?Pre_Rotate_Z@Matrix3D@@QAEXMM@Z ENDP			; Matrix3D::Pre_Rotate_Z
_TEXT	ENDS
; Function compile flags: /Odtp /ZI
; File x:\github\renegade\dragonade_rxd\scripts\matrix3d.h
;	COMDAT ?Pre_Rotate_Y@Matrix3D@@QAEXMM@Z
_TEXT	SEGMENT
tv299 = -80						; size = 4
tv297 = -80						; size = 4
tv295 = -80						; size = 4
tv293 = -80						; size = 4
tv291 = -80						; size = 4
tv289 = -80						; size = 4
tv287 = -80						; size = 4
tv285 = -80						; size = 4
_tmp2$ = -12						; size = 4
_tmp1$ = -8						; size = 4
_this$ = -4						; size = 4
_s$ = 8							; size = 4
_c$ = 12						; size = 4
?Pre_Rotate_Y@Matrix3D@@QAEXMM@Z PROC			; Matrix3D::Pre_Rotate_Y, COMDAT
; _this$ = ecx

; 380  : 	{

	push	ebp
	mov	ebp, esp
	sub	esp, 80					; 00000050H
	push	ebx
	push	esi
	push	edi
	mov	DWORD PTR _this$[ebp], ecx

; 381  : 		float tmp1,tmp2;
; 382  : 		tmp1 = Row[0][0]; tmp2 = Row[2][0];

	push	0
	mov	ecx, 16					; 00000010H
	imul	ecx, 0
	add	ecx, DWORD PTR _this$[ebp]
	call	??AVector4@@QAEAAMH@Z			; Vector4::operator[]
	movss	xmm0, DWORD PTR [eax]
	movss	DWORD PTR _tmp1$[ebp], xmm0
	push	0
	mov	ecx, 16					; 00000010H
	shl	ecx, 1
	add	ecx, DWORD PTR _this$[ebp]
	call	??AVector4@@QAEAAMH@Z			; Vector4::operator[]
	movss	xmm0, DWORD PTR [eax]
	movss	DWORD PTR _tmp2$[ebp], xmm0

; 383  : 		Row[0][0] = (float)( c*tmp1 + s*tmp2);

	movss	xmm0, DWORD PTR _c$[ebp]
	mulss	xmm0, DWORD PTR _tmp1$[ebp]
	movss	xmm1, DWORD PTR _s$[ebp]
	mulss	xmm1, DWORD PTR _tmp2$[ebp]
	addss	xmm0, xmm1
	push	0
	mov	ecx, 16					; 00000010H
	imul	ecx, 0
	add	ecx, DWORD PTR _this$[ebp]
	movss	DWORD PTR tv285[ebp], xmm0
	call	??AVector4@@QAEAAMH@Z			; Vector4::operator[]
	movss	xmm0, DWORD PTR tv285[ebp]
	movss	DWORD PTR [eax], xmm0

; 384  : 		Row[2][0] = (float)(-s*tmp1 + c*tmp2);

	movss	xmm0, DWORD PTR _s$[ebp]
	xorps	xmm0, DWORD PTR __xmm@80000000800000008000000080000000
	mulss	xmm0, DWORD PTR _tmp1$[ebp]
	movss	xmm1, DWORD PTR _c$[ebp]
	mulss	xmm1, DWORD PTR _tmp2$[ebp]
	addss	xmm0, xmm1
	push	0
	mov	ecx, 16					; 00000010H
	shl	ecx, 1
	add	ecx, DWORD PTR _this$[ebp]
	movss	DWORD PTR tv287[ebp], xmm0
	call	??AVector4@@QAEAAMH@Z			; Vector4::operator[]
	movss	xmm0, DWORD PTR tv287[ebp]
	movss	DWORD PTR [eax], xmm0

; 385  : 		tmp1 = Row[0][1]; tmp2 = Row[2][1];

	push	1
	mov	ecx, 16					; 00000010H
	imul	ecx, 0
	add	ecx, DWORD PTR _this$[ebp]
	call	??AVector4@@QAEAAMH@Z			; Vector4::operator[]
	movss	xmm0, DWORD PTR [eax]
	movss	DWORD PTR _tmp1$[ebp], xmm0
	push	1
	mov	ecx, 16					; 00000010H
	shl	ecx, 1
	add	ecx, DWORD PTR _this$[ebp]
	call	??AVector4@@QAEAAMH@Z			; Vector4::operator[]
	movss	xmm0, DWORD PTR [eax]
	movss	DWORD PTR _tmp2$[ebp], xmm0

; 386  : 		Row[0][1] = (float)( c*tmp1 + s*tmp2);

	movss	xmm0, DWORD PTR _c$[ebp]
	mulss	xmm0, DWORD PTR _tmp1$[ebp]
	movss	xmm1, DWORD PTR _s$[ebp]
	mulss	xmm1, DWORD PTR _tmp2$[ebp]
	addss	xmm0, xmm1
	push	1
	mov	ecx, 16					; 00000010H
	imul	ecx, 0
	add	ecx, DWORD PTR _this$[ebp]
	movss	DWORD PTR tv289[ebp], xmm0
	call	??AVector4@@QAEAAMH@Z			; Vector4::operator[]
	movss	xmm0, DWORD PTR tv289[ebp]
	movss	DWORD PTR [eax], xmm0

; 387  : 		Row[2][1] = (float)(-s*tmp1 + c*tmp2);

	movss	xmm0, DWORD PTR _s$[ebp]
	xorps	xmm0, DWORD PTR __xmm@80000000800000008000000080000000
	mulss	xmm0, DWORD PTR _tmp1$[ebp]
	movss	xmm1, DWORD PTR _c$[ebp]
	mulss	xmm1, DWORD PTR _tmp2$[ebp]
	addss	xmm0, xmm1
	push	1
	mov	ecx, 16					; 00000010H
	shl	ecx, 1
	add	ecx, DWORD PTR _this$[ebp]
	movss	DWORD PTR tv291[ebp], xmm0
	call	??AVector4@@QAEAAMH@Z			; Vector4::operator[]
	movss	xmm0, DWORD PTR tv291[ebp]
	movss	DWORD PTR [eax], xmm0

; 388  : 		tmp1 = Row[0][2]; tmp2 = Row[2][2];

	push	2
	mov	ecx, 16					; 00000010H
	imul	ecx, 0
	add	ecx, DWORD PTR _this$[ebp]
	call	??AVector4@@QAEAAMH@Z			; Vector4::operator[]
	movss	xmm0, DWORD PTR [eax]
	movss	DWORD PTR _tmp1$[ebp], xmm0
	push	2
	mov	ecx, 16					; 00000010H
	shl	ecx, 1
	add	ecx, DWORD PTR _this$[ebp]
	call	??AVector4@@QAEAAMH@Z			; Vector4::operator[]
	movss	xmm0, DWORD PTR [eax]
	movss	DWORD PTR _tmp2$[ebp], xmm0

; 389  : 		Row[0][2] = (float)( c*tmp1 + s*tmp2);

	movss	xmm0, DWORD PTR _c$[ebp]
	mulss	xmm0, DWORD PTR _tmp1$[ebp]
	movss	xmm1, DWORD PTR _s$[ebp]
	mulss	xmm1, DWORD PTR _tmp2$[ebp]
	addss	xmm0, xmm1
	push	2
	mov	ecx, 16					; 00000010H
	imul	ecx, 0
	add	ecx, DWORD PTR _this$[ebp]
	movss	DWORD PTR tv293[ebp], xmm0
	call	??AVector4@@QAEAAMH@Z			; Vector4::operator[]
	movss	xmm0, DWORD PTR tv293[ebp]
	movss	DWORD PTR [eax], xmm0

; 390  : 		Row[2][2] = (float)(-s*tmp1 + c*tmp2);

	movss	xmm0, DWORD PTR _s$[ebp]
	xorps	xmm0, DWORD PTR __xmm@80000000800000008000000080000000
	mulss	xmm0, DWORD PTR _tmp1$[ebp]
	movss	xmm1, DWORD PTR _c$[ebp]
	mulss	xmm1, DWORD PTR _tmp2$[ebp]
	addss	xmm0, xmm1
	push	2
	mov	ecx, 16					; 00000010H
	shl	ecx, 1
	add	ecx, DWORD PTR _this$[ebp]
	movss	DWORD PTR tv295[ebp], xmm0
	call	??AVector4@@QAEAAMH@Z			; Vector4::operator[]
	movss	xmm0, DWORD PTR tv295[ebp]
	movss	DWORD PTR [eax], xmm0

; 391  : 		tmp1 = Row[0][3]; tmp2 = Row[2][3];

	push	3
	mov	ecx, 16					; 00000010H
	imul	ecx, 0
	add	ecx, DWORD PTR _this$[ebp]
	call	??AVector4@@QAEAAMH@Z			; Vector4::operator[]
	movss	xmm0, DWORD PTR [eax]
	movss	DWORD PTR _tmp1$[ebp], xmm0
	push	3
	mov	ecx, 16					; 00000010H
	shl	ecx, 1
	add	ecx, DWORD PTR _this$[ebp]
	call	??AVector4@@QAEAAMH@Z			; Vector4::operator[]
	movss	xmm0, DWORD PTR [eax]
	movss	DWORD PTR _tmp2$[ebp], xmm0

; 392  : 		Row[0][3] = (float)( c*tmp1 + s*tmp2);

	movss	xmm0, DWORD PTR _c$[ebp]
	mulss	xmm0, DWORD PTR _tmp1$[ebp]
	movss	xmm1, DWORD PTR _s$[ebp]
	mulss	xmm1, DWORD PTR _tmp2$[ebp]
	addss	xmm0, xmm1
	push	3
	mov	ecx, 16					; 00000010H
	imul	ecx, 0
	add	ecx, DWORD PTR _this$[ebp]
	movss	DWORD PTR tv297[ebp], xmm0
	call	??AVector4@@QAEAAMH@Z			; Vector4::operator[]
	movss	xmm0, DWORD PTR tv297[ebp]
	movss	DWORD PTR [eax], xmm0

; 393  : 		Row[2][3] = (float)(-s*tmp1 + c*tmp2);

	movss	xmm0, DWORD PTR _s$[ebp]
	xorps	xmm0, DWORD PTR __xmm@80000000800000008000000080000000
	mulss	xmm0, DWORD PTR _tmp1$[ebp]
	movss	xmm1, DWORD PTR _c$[ebp]
	mulss	xmm1, DWORD PTR _tmp2$[ebp]
	addss	xmm0, xmm1
	push	3
	mov	ecx, 16					; 00000010H
	shl	ecx, 1
	add	ecx, DWORD PTR _this$[ebp]
	movss	DWORD PTR tv299[ebp], xmm0
	call	??AVector4@@QAEAAMH@Z			; Vector4::operator[]
	movss	xmm0, DWORD PTR tv299[ebp]
	movss	DWORD PTR [eax], xmm0

; 394  : 	}

	pop	edi
	pop	esi
	pop	ebx
	mov	esp, ebp
	pop	ebp
	ret	8
?Pre_Rotate_Y@Matrix3D@@QAEXMM@Z ENDP			; Matrix3D::Pre_Rotate_Y
_TEXT	ENDS
; Function compile flags: /Odtp /ZI
; File x:\github\renegade\dragonade_rxd\scripts\matrix3d.h
;	COMDAT ?Pre_Rotate_X@Matrix3D@@QAEXMM@Z
_TEXT	SEGMENT
tv295 = -80						; size = 4
tv293 = -80						; size = 4
tv291 = -80						; size = 4
tv289 = -80						; size = 4
tv287 = -80						; size = 4
tv285 = -80						; size = 4
tv283 = -80						; size = 4
tv281 = -80						; size = 4
_tmp2$ = -12						; size = 4
_tmp1$ = -8						; size = 4
_this$ = -4						; size = 4
_s$ = 8							; size = 4
_c$ = 12						; size = 4
?Pre_Rotate_X@Matrix3D@@QAEXMM@Z PROC			; Matrix3D::Pre_Rotate_X, COMDAT
; _this$ = ecx

; 364  : 	{

	push	ebp
	mov	ebp, esp
	sub	esp, 80					; 00000050H
	push	ebx
	push	esi
	push	edi
	mov	DWORD PTR _this$[ebp], ecx

; 365  : 		float tmp1,tmp2;
; 366  : 		tmp1 = Row[1][0]; tmp2 = Row[2][0];

	push	0
	mov	ecx, 16					; 00000010H
	shl	ecx, 0
	add	ecx, DWORD PTR _this$[ebp]
	call	??AVector4@@QAEAAMH@Z			; Vector4::operator[]
	movss	xmm0, DWORD PTR [eax]
	movss	DWORD PTR _tmp1$[ebp], xmm0
	push	0
	mov	ecx, 16					; 00000010H
	shl	ecx, 1
	add	ecx, DWORD PTR _this$[ebp]
	call	??AVector4@@QAEAAMH@Z			; Vector4::operator[]
	movss	xmm0, DWORD PTR [eax]
	movss	DWORD PTR _tmp2$[ebp], xmm0

; 367  : 		Row[1][0] = (float)(c*tmp1 - s*tmp2);

	movss	xmm0, DWORD PTR _c$[ebp]
	mulss	xmm0, DWORD PTR _tmp1$[ebp]
	movss	xmm1, DWORD PTR _s$[ebp]
	mulss	xmm1, DWORD PTR _tmp2$[ebp]
	subss	xmm0, xmm1
	push	0
	mov	ecx, 16					; 00000010H
	shl	ecx, 0
	add	ecx, DWORD PTR _this$[ebp]
	movss	DWORD PTR tv281[ebp], xmm0
	call	??AVector4@@QAEAAMH@Z			; Vector4::operator[]
	movss	xmm0, DWORD PTR tv281[ebp]
	movss	DWORD PTR [eax], xmm0

; 368  : 		Row[2][0] = (float)(s*tmp1 + c*tmp2);

	movss	xmm0, DWORD PTR _s$[ebp]
	mulss	xmm0, DWORD PTR _tmp1$[ebp]
	movss	xmm1, DWORD PTR _c$[ebp]
	mulss	xmm1, DWORD PTR _tmp2$[ebp]
	addss	xmm0, xmm1
	push	0
	mov	ecx, 16					; 00000010H
	shl	ecx, 1
	add	ecx, DWORD PTR _this$[ebp]
	movss	DWORD PTR tv283[ebp], xmm0
	call	??AVector4@@QAEAAMH@Z			; Vector4::operator[]
	movss	xmm0, DWORD PTR tv283[ebp]
	movss	DWORD PTR [eax], xmm0

; 369  : 		tmp1 = Row[1][1]; tmp2 = Row[2][1];

	push	1
	mov	ecx, 16					; 00000010H
	shl	ecx, 0
	add	ecx, DWORD PTR _this$[ebp]
	call	??AVector4@@QAEAAMH@Z			; Vector4::operator[]
	movss	xmm0, DWORD PTR [eax]
	movss	DWORD PTR _tmp1$[ebp], xmm0
	push	1
	mov	ecx, 16					; 00000010H
	shl	ecx, 1
	add	ecx, DWORD PTR _this$[ebp]
	call	??AVector4@@QAEAAMH@Z			; Vector4::operator[]
	movss	xmm0, DWORD PTR [eax]
	movss	DWORD PTR _tmp2$[ebp], xmm0

; 370  : 		Row[1][1] = (float)(c*tmp1 - s*tmp2);

	movss	xmm0, DWORD PTR _c$[ebp]
	mulss	xmm0, DWORD PTR _tmp1$[ebp]
	movss	xmm1, DWORD PTR _s$[ebp]
	mulss	xmm1, DWORD PTR _tmp2$[ebp]
	subss	xmm0, xmm1
	push	1
	mov	ecx, 16					; 00000010H
	shl	ecx, 0
	add	ecx, DWORD PTR _this$[ebp]
	movss	DWORD PTR tv285[ebp], xmm0
	call	??AVector4@@QAEAAMH@Z			; Vector4::operator[]
	movss	xmm0, DWORD PTR tv285[ebp]
	movss	DWORD PTR [eax], xmm0

; 371  : 		Row[2][1] = (float)(s*tmp1 + c*tmp2);

	movss	xmm0, DWORD PTR _s$[ebp]
	mulss	xmm0, DWORD PTR _tmp1$[ebp]
	movss	xmm1, DWORD PTR _c$[ebp]
	mulss	xmm1, DWORD PTR _tmp2$[ebp]
	addss	xmm0, xmm1
	push	1
	mov	ecx, 16					; 00000010H
	shl	ecx, 1
	add	ecx, DWORD PTR _this$[ebp]
	movss	DWORD PTR tv287[ebp], xmm0
	call	??AVector4@@QAEAAMH@Z			; Vector4::operator[]
	movss	xmm0, DWORD PTR tv287[ebp]
	movss	DWORD PTR [eax], xmm0

; 372  : 		tmp1 = Row[1][2]; tmp2 = Row[2][2];

	push	2
	mov	ecx, 16					; 00000010H
	shl	ecx, 0
	add	ecx, DWORD PTR _this$[ebp]
	call	??AVector4@@QAEAAMH@Z			; Vector4::operator[]
	movss	xmm0, DWORD PTR [eax]
	movss	DWORD PTR _tmp1$[ebp], xmm0
	push	2
	mov	ecx, 16					; 00000010H
	shl	ecx, 1
	add	ecx, DWORD PTR _this$[ebp]
	call	??AVector4@@QAEAAMH@Z			; Vector4::operator[]
	movss	xmm0, DWORD PTR [eax]
	movss	DWORD PTR _tmp2$[ebp], xmm0

; 373  : 		Row[1][2] = (float)(c*tmp1 - s*tmp2);

	movss	xmm0, DWORD PTR _c$[ebp]
	mulss	xmm0, DWORD PTR _tmp1$[ebp]
	movss	xmm1, DWORD PTR _s$[ebp]
	mulss	xmm1, DWORD PTR _tmp2$[ebp]
	subss	xmm0, xmm1
	push	2
	mov	ecx, 16					; 00000010H
	shl	ecx, 0
	add	ecx, DWORD PTR _this$[ebp]
	movss	DWORD PTR tv289[ebp], xmm0
	call	??AVector4@@QAEAAMH@Z			; Vector4::operator[]
	movss	xmm0, DWORD PTR tv289[ebp]
	movss	DWORD PTR [eax], xmm0

; 374  : 		Row[2][2] = (float)(s*tmp1 + c*tmp2);

	movss	xmm0, DWORD PTR _s$[ebp]
	mulss	xmm0, DWORD PTR _tmp1$[ebp]
	movss	xmm1, DWORD PTR _c$[ebp]
	mulss	xmm1, DWORD PTR _tmp2$[ebp]
	addss	xmm0, xmm1
	push	2
	mov	ecx, 16					; 00000010H
	shl	ecx, 1
	add	ecx, DWORD PTR _this$[ebp]
	movss	DWORD PTR tv291[ebp], xmm0
	call	??AVector4@@QAEAAMH@Z			; Vector4::operator[]
	movss	xmm0, DWORD PTR tv291[ebp]
	movss	DWORD PTR [eax], xmm0

; 375  : 		tmp1 = Row[1][3]; tmp2 = Row[2][3];

	push	3
	mov	ecx, 16					; 00000010H
	shl	ecx, 0
	add	ecx, DWORD PTR _this$[ebp]
	call	??AVector4@@QAEAAMH@Z			; Vector4::operator[]
	movss	xmm0, DWORD PTR [eax]
	movss	DWORD PTR _tmp1$[ebp], xmm0
	push	3
	mov	ecx, 16					; 00000010H
	shl	ecx, 1
	add	ecx, DWORD PTR _this$[ebp]
	call	??AVector4@@QAEAAMH@Z			; Vector4::operator[]
	movss	xmm0, DWORD PTR [eax]
	movss	DWORD PTR _tmp2$[ebp], xmm0

; 376  : 		Row[1][3] = (float)(c*tmp1 - s*tmp2);

	movss	xmm0, DWORD PTR _c$[ebp]
	mulss	xmm0, DWORD PTR _tmp1$[ebp]
	movss	xmm1, DWORD PTR _s$[ebp]
	mulss	xmm1, DWORD PTR _tmp2$[ebp]
	subss	xmm0, xmm1
	push	3
	mov	ecx, 16					; 00000010H
	shl	ecx, 0
	add	ecx, DWORD PTR _this$[ebp]
	movss	DWORD PTR tv293[ebp], xmm0
	call	??AVector4@@QAEAAMH@Z			; Vector4::operator[]
	movss	xmm0, DWORD PTR tv293[ebp]
	movss	DWORD PTR [eax], xmm0

; 377  : 		Row[2][3] = (float)(s*tmp1 + c*tmp2);

	movss	xmm0, DWORD PTR _s$[ebp]
	mulss	xmm0, DWORD PTR _tmp1$[ebp]
	movss	xmm1, DWORD PTR _c$[ebp]
	mulss	xmm1, DWORD PTR _tmp2$[ebp]
	addss	xmm0, xmm1
	push	3
	mov	ecx, 16					; 00000010H
	shl	ecx, 1
	add	ecx, DWORD PTR _this$[ebp]
	movss	DWORD PTR tv295[ebp], xmm0
	call	??AVector4@@QAEAAMH@Z			; Vector4::operator[]
	movss	xmm0, DWORD PTR tv295[ebp]
	movss	DWORD PTR [eax], xmm0

; 378  : 	}

	pop	edi
	pop	esi
	pop	ebx
	mov	esp, ebp
	pop	ebp
	ret	8
?Pre_Rotate_X@Matrix3D@@QAEXMM@Z ENDP			; Matrix3D::Pre_Rotate_X
_TEXT	ENDS
; Function compile flags: /Odtp /ZI
; File x:\github\renegade\dragonade_rxd\scripts\matrix3d.h
;	COMDAT ?Pre_Rotate_Z@Matrix3D@@QAEXM@Z
_TEXT	SEGMENT
tv307 = -88						; size = 4
tv305 = -88						; size = 4
tv303 = -88						; size = 4
tv301 = -88						; size = 4
tv299 = -88						; size = 4
tv297 = -88						; size = 4
tv295 = -88						; size = 4
tv293 = -88						; size = 4
_s$ = -20						; size = 4
_c$ = -16						; size = 4
_tmp2$ = -12						; size = 4
_tmp1$ = -8						; size = 4
_this$ = -4						; size = 4
_theta$ = 8						; size = 4
?Pre_Rotate_Z@Matrix3D@@QAEXM@Z PROC			; Matrix3D::Pre_Rotate_Z, COMDAT
; _this$ = ecx

; 345  : 	{

	push	ebp
	mov	ebp, esp
	sub	esp, 88					; 00000058H
	push	ebx
	push	esi
	push	edi
	mov	DWORD PTR _this$[ebp], ecx

; 346  : 		float tmp1,tmp2;
; 347  : 		float c,s;
; 348  : 		c = cosf(theta);

	push	ecx
	movss	xmm0, DWORD PTR _theta$[ebp]
	movss	DWORD PTR [esp], xmm0
	call	_cosf
	add	esp, 4
	fstp	DWORD PTR _c$[ebp]

; 349  : 		s = sinf(theta);

	push	ecx
	movss	xmm0, DWORD PTR _theta$[ebp]
	movss	DWORD PTR [esp], xmm0
	call	_sinf
	add	esp, 4
	fstp	DWORD PTR _s$[ebp]

; 350  : 		tmp1 = Row[0][0]; tmp2 = Row[1][0];

	push	0
	mov	ecx, 16					; 00000010H
	imul	ecx, 0
	add	ecx, DWORD PTR _this$[ebp]
	call	??AVector4@@QAEAAMH@Z			; Vector4::operator[]
	movss	xmm0, DWORD PTR [eax]
	movss	DWORD PTR _tmp1$[ebp], xmm0
	push	0
	mov	ecx, 16					; 00000010H
	shl	ecx, 0
	add	ecx, DWORD PTR _this$[ebp]
	call	??AVector4@@QAEAAMH@Z			; Vector4::operator[]
	movss	xmm0, DWORD PTR [eax]
	movss	DWORD PTR _tmp2$[ebp], xmm0

; 351  : 		Row[0][0] = (float)(c*tmp1 - s*tmp2);

	movss	xmm0, DWORD PTR _c$[ebp]
	mulss	xmm0, DWORD PTR _tmp1$[ebp]
	movss	xmm1, DWORD PTR _s$[ebp]
	mulss	xmm1, DWORD PTR _tmp2$[ebp]
	subss	xmm0, xmm1
	push	0
	mov	ecx, 16					; 00000010H
	imul	ecx, 0
	add	ecx, DWORD PTR _this$[ebp]
	movss	DWORD PTR tv293[ebp], xmm0
	call	??AVector4@@QAEAAMH@Z			; Vector4::operator[]
	movss	xmm0, DWORD PTR tv293[ebp]
	movss	DWORD PTR [eax], xmm0

; 352  : 		Row[1][0] = (float)(s*tmp1 + c*tmp2);

	movss	xmm0, DWORD PTR _s$[ebp]
	mulss	xmm0, DWORD PTR _tmp1$[ebp]
	movss	xmm1, DWORD PTR _c$[ebp]
	mulss	xmm1, DWORD PTR _tmp2$[ebp]
	addss	xmm0, xmm1
	push	0
	mov	ecx, 16					; 00000010H
	shl	ecx, 0
	add	ecx, DWORD PTR _this$[ebp]
	movss	DWORD PTR tv295[ebp], xmm0
	call	??AVector4@@QAEAAMH@Z			; Vector4::operator[]
	movss	xmm0, DWORD PTR tv295[ebp]
	movss	DWORD PTR [eax], xmm0

; 353  : 		tmp1 = Row[0][1]; tmp2 = Row[1][1];

	push	1
	mov	ecx, 16					; 00000010H
	imul	ecx, 0
	add	ecx, DWORD PTR _this$[ebp]
	call	??AVector4@@QAEAAMH@Z			; Vector4::operator[]
	movss	xmm0, DWORD PTR [eax]
	movss	DWORD PTR _tmp1$[ebp], xmm0
	push	1
	mov	ecx, 16					; 00000010H
	shl	ecx, 0
	add	ecx, DWORD PTR _this$[ebp]
	call	??AVector4@@QAEAAMH@Z			; Vector4::operator[]
	movss	xmm0, DWORD PTR [eax]
	movss	DWORD PTR _tmp2$[ebp], xmm0

; 354  : 		Row[0][1] = (float)(c*tmp1 - s*tmp2);

	movss	xmm0, DWORD PTR _c$[ebp]
	mulss	xmm0, DWORD PTR _tmp1$[ebp]
	movss	xmm1, DWORD PTR _s$[ebp]
	mulss	xmm1, DWORD PTR _tmp2$[ebp]
	subss	xmm0, xmm1
	push	1
	mov	ecx, 16					; 00000010H
	imul	ecx, 0
	add	ecx, DWORD PTR _this$[ebp]
	movss	DWORD PTR tv297[ebp], xmm0
	call	??AVector4@@QAEAAMH@Z			; Vector4::operator[]
	movss	xmm0, DWORD PTR tv297[ebp]
	movss	DWORD PTR [eax], xmm0

; 355  : 		Row[1][1] = (float)(s*tmp1 + c*tmp2);

	movss	xmm0, DWORD PTR _s$[ebp]
	mulss	xmm0, DWORD PTR _tmp1$[ebp]
	movss	xmm1, DWORD PTR _c$[ebp]
	mulss	xmm1, DWORD PTR _tmp2$[ebp]
	addss	xmm0, xmm1
	push	1
	mov	ecx, 16					; 00000010H
	shl	ecx, 0
	add	ecx, DWORD PTR _this$[ebp]
	movss	DWORD PTR tv299[ebp], xmm0
	call	??AVector4@@QAEAAMH@Z			; Vector4::operator[]
	movss	xmm0, DWORD PTR tv299[ebp]
	movss	DWORD PTR [eax], xmm0

; 356  : 		tmp1 = Row[0][2]; tmp2 = Row[1][2];

	push	2
	mov	ecx, 16					; 00000010H
	imul	ecx, 0
	add	ecx, DWORD PTR _this$[ebp]
	call	??AVector4@@QAEAAMH@Z			; Vector4::operator[]
	movss	xmm0, DWORD PTR [eax]
	movss	DWORD PTR _tmp1$[ebp], xmm0
	push	2
	mov	ecx, 16					; 00000010H
	shl	ecx, 0
	add	ecx, DWORD PTR _this$[ebp]
	call	??AVector4@@QAEAAMH@Z			; Vector4::operator[]
	movss	xmm0, DWORD PTR [eax]
	movss	DWORD PTR _tmp2$[ebp], xmm0

; 357  : 		Row[0][2] = (float)(c*tmp1 - s*tmp2);

	movss	xmm0, DWORD PTR _c$[ebp]
	mulss	xmm0, DWORD PTR _tmp1$[ebp]
	movss	xmm1, DWORD PTR _s$[ebp]
	mulss	xmm1, DWORD PTR _tmp2$[ebp]
	subss	xmm0, xmm1
	push	2
	mov	ecx, 16					; 00000010H
	imul	ecx, 0
	add	ecx, DWORD PTR _this$[ebp]
	movss	DWORD PTR tv301[ebp], xmm0
	call	??AVector4@@QAEAAMH@Z			; Vector4::operator[]
	movss	xmm0, DWORD PTR tv301[ebp]
	movss	DWORD PTR [eax], xmm0

; 358  : 		Row[1][2] = (float)(s*tmp1 + c*tmp2);

	movss	xmm0, DWORD PTR _s$[ebp]
	mulss	xmm0, DWORD PTR _tmp1$[ebp]
	movss	xmm1, DWORD PTR _c$[ebp]
	mulss	xmm1, DWORD PTR _tmp2$[ebp]
	addss	xmm0, xmm1
	push	2
	mov	ecx, 16					; 00000010H
	shl	ecx, 0
	add	ecx, DWORD PTR _this$[ebp]
	movss	DWORD PTR tv303[ebp], xmm0
	call	??AVector4@@QAEAAMH@Z			; Vector4::operator[]
	movss	xmm0, DWORD PTR tv303[ebp]
	movss	DWORD PTR [eax], xmm0

; 359  : 		tmp1 = Row[0][3]; tmp2 = Row[1][3];

	push	3
	mov	ecx, 16					; 00000010H
	imul	ecx, 0
	add	ecx, DWORD PTR _this$[ebp]
	call	??AVector4@@QAEAAMH@Z			; Vector4::operator[]
	movss	xmm0, DWORD PTR [eax]
	movss	DWORD PTR _tmp1$[ebp], xmm0
	push	3
	mov	ecx, 16					; 00000010H
	shl	ecx, 0
	add	ecx, DWORD PTR _this$[ebp]
	call	??AVector4@@QAEAAMH@Z			; Vector4::operator[]
	movss	xmm0, DWORD PTR [eax]
	movss	DWORD PTR _tmp2$[ebp], xmm0

; 360  : 		Row[0][3] = (float)(c*tmp1 - s*tmp2);

	movss	xmm0, DWORD PTR _c$[ebp]
	mulss	xmm0, DWORD PTR _tmp1$[ebp]
	movss	xmm1, DWORD PTR _s$[ebp]
	mulss	xmm1, DWORD PTR _tmp2$[ebp]
	subss	xmm0, xmm1
	push	3
	mov	ecx, 16					; 00000010H
	imul	ecx, 0
	add	ecx, DWORD PTR _this$[ebp]
	movss	DWORD PTR tv305[ebp], xmm0
	call	??AVector4@@QAEAAMH@Z			; Vector4::operator[]
	movss	xmm0, DWORD PTR tv305[ebp]
	movss	DWORD PTR [eax], xmm0

; 361  : 		Row[1][3] = (float)(s*tmp1 + c*tmp2);

	movss	xmm0, DWORD PTR _s$[ebp]
	mulss	xmm0, DWORD PTR _tmp1$[ebp]
	movss	xmm1, DWORD PTR _c$[ebp]
	mulss	xmm1, DWORD PTR _tmp2$[ebp]
	addss	xmm0, xmm1
	push	3
	mov	ecx, 16					; 00000010H
	shl	ecx, 0
	add	ecx, DWORD PTR _this$[ebp]
	movss	DWORD PTR tv307[ebp], xmm0
	call	??AVector4@@QAEAAMH@Z			; Vector4::operator[]
	movss	xmm0, DWORD PTR tv307[ebp]
	movss	DWORD PTR [eax], xmm0

; 362  : 	}

	pop	edi
	pop	esi
	pop	ebx
	mov	esp, ebp
	pop	ebp
	ret	4
?Pre_Rotate_Z@Matrix3D@@QAEXM@Z ENDP			; Matrix3D::Pre_Rotate_Z
_TEXT	ENDS
; Function compile flags: /Odtp /ZI
; File x:\github\renegade\dragonade_rxd\scripts\matrix3d.h
;	COMDAT ?Pre_Rotate_Y@Matrix3D@@QAEXM@Z
_TEXT	SEGMENT
tv311 = -88						; size = 4
tv309 = -88						; size = 4
tv307 = -88						; size = 4
tv305 = -88						; size = 4
tv303 = -88						; size = 4
tv301 = -88						; size = 4
tv299 = -88						; size = 4
tv297 = -88						; size = 4
_s$ = -20						; size = 4
_c$ = -16						; size = 4
_tmp2$ = -12						; size = 4
_tmp1$ = -8						; size = 4
_this$ = -4						; size = 4
_theta$ = 8						; size = 4
?Pre_Rotate_Y@Matrix3D@@QAEXM@Z PROC			; Matrix3D::Pre_Rotate_Y, COMDAT
; _this$ = ecx

; 326  : 	{

	push	ebp
	mov	ebp, esp
	sub	esp, 88					; 00000058H
	push	ebx
	push	esi
	push	edi
	mov	DWORD PTR _this$[ebp], ecx

; 327  : 		float tmp1,tmp2;
; 328  : 		float c,s;
; 329  : 		c = cosf(theta);

	push	ecx
	movss	xmm0, DWORD PTR _theta$[ebp]
	movss	DWORD PTR [esp], xmm0
	call	_cosf
	add	esp, 4
	fstp	DWORD PTR _c$[ebp]

; 330  : 		s = sinf(theta);

	push	ecx
	movss	xmm0, DWORD PTR _theta$[ebp]
	movss	DWORD PTR [esp], xmm0
	call	_sinf
	add	esp, 4
	fstp	DWORD PTR _s$[ebp]

; 331  : 		tmp1 = Row[0][0]; tmp2 = Row[2][0];

	push	0
	mov	ecx, 16					; 00000010H
	imul	ecx, 0
	add	ecx, DWORD PTR _this$[ebp]
	call	??AVector4@@QAEAAMH@Z			; Vector4::operator[]
	movss	xmm0, DWORD PTR [eax]
	movss	DWORD PTR _tmp1$[ebp], xmm0
	push	0
	mov	ecx, 16					; 00000010H
	shl	ecx, 1
	add	ecx, DWORD PTR _this$[ebp]
	call	??AVector4@@QAEAAMH@Z			; Vector4::operator[]
	movss	xmm0, DWORD PTR [eax]
	movss	DWORD PTR _tmp2$[ebp], xmm0

; 332  : 		Row[0][0] = (float)( c*tmp1 + s*tmp2);

	movss	xmm0, DWORD PTR _c$[ebp]
	mulss	xmm0, DWORD PTR _tmp1$[ebp]
	movss	xmm1, DWORD PTR _s$[ebp]
	mulss	xmm1, DWORD PTR _tmp2$[ebp]
	addss	xmm0, xmm1
	push	0
	mov	ecx, 16					; 00000010H
	imul	ecx, 0
	add	ecx, DWORD PTR _this$[ebp]
	movss	DWORD PTR tv297[ebp], xmm0
	call	??AVector4@@QAEAAMH@Z			; Vector4::operator[]
	movss	xmm0, DWORD PTR tv297[ebp]
	movss	DWORD PTR [eax], xmm0

; 333  : 		Row[2][0] = (float)(-s*tmp1 + c*tmp2);

	movss	xmm0, DWORD PTR _s$[ebp]
	xorps	xmm0, DWORD PTR __xmm@80000000800000008000000080000000
	mulss	xmm0, DWORD PTR _tmp1$[ebp]
	movss	xmm1, DWORD PTR _c$[ebp]
	mulss	xmm1, DWORD PTR _tmp2$[ebp]
	addss	xmm0, xmm1
	push	0
	mov	ecx, 16					; 00000010H
	shl	ecx, 1
	add	ecx, DWORD PTR _this$[ebp]
	movss	DWORD PTR tv299[ebp], xmm0
	call	??AVector4@@QAEAAMH@Z			; Vector4::operator[]
	movss	xmm0, DWORD PTR tv299[ebp]
	movss	DWORD PTR [eax], xmm0

; 334  : 		tmp1 = Row[0][1]; tmp2 = Row[2][1];

	push	1
	mov	ecx, 16					; 00000010H
	imul	ecx, 0
	add	ecx, DWORD PTR _this$[ebp]
	call	??AVector4@@QAEAAMH@Z			; Vector4::operator[]
	movss	xmm0, DWORD PTR [eax]
	movss	DWORD PTR _tmp1$[ebp], xmm0
	push	1
	mov	ecx, 16					; 00000010H
	shl	ecx, 1
	add	ecx, DWORD PTR _this$[ebp]
	call	??AVector4@@QAEAAMH@Z			; Vector4::operator[]
	movss	xmm0, DWORD PTR [eax]
	movss	DWORD PTR _tmp2$[ebp], xmm0

; 335  : 		Row[0][1] = (float)( c*tmp1 + s*tmp2);

	movss	xmm0, DWORD PTR _c$[ebp]
	mulss	xmm0, DWORD PTR _tmp1$[ebp]
	movss	xmm1, DWORD PTR _s$[ebp]
	mulss	xmm1, DWORD PTR _tmp2$[ebp]
	addss	xmm0, xmm1
	push	1
	mov	ecx, 16					; 00000010H
	imul	ecx, 0
	add	ecx, DWORD PTR _this$[ebp]
	movss	DWORD PTR tv301[ebp], xmm0
	call	??AVector4@@QAEAAMH@Z			; Vector4::operator[]
	movss	xmm0, DWORD PTR tv301[ebp]
	movss	DWORD PTR [eax], xmm0

; 336  : 		Row[2][1] = (float)(-s*tmp1 + c*tmp2);

	movss	xmm0, DWORD PTR _s$[ebp]
	xorps	xmm0, DWORD PTR __xmm@80000000800000008000000080000000
	mulss	xmm0, DWORD PTR _tmp1$[ebp]
	movss	xmm1, DWORD PTR _c$[ebp]
	mulss	xmm1, DWORD PTR _tmp2$[ebp]
	addss	xmm0, xmm1
	push	1
	mov	ecx, 16					; 00000010H
	shl	ecx, 1
	add	ecx, DWORD PTR _this$[ebp]
	movss	DWORD PTR tv303[ebp], xmm0
	call	??AVector4@@QAEAAMH@Z			; Vector4::operator[]
	movss	xmm0, DWORD PTR tv303[ebp]
	movss	DWORD PTR [eax], xmm0

; 337  : 		tmp1 = Row[0][2]; tmp2 = Row[2][2];

	push	2
	mov	ecx, 16					; 00000010H
	imul	ecx, 0
	add	ecx, DWORD PTR _this$[ebp]
	call	??AVector4@@QAEAAMH@Z			; Vector4::operator[]
	movss	xmm0, DWORD PTR [eax]
	movss	DWORD PTR _tmp1$[ebp], xmm0
	push	2
	mov	ecx, 16					; 00000010H
	shl	ecx, 1
	add	ecx, DWORD PTR _this$[ebp]
	call	??AVector4@@QAEAAMH@Z			; Vector4::operator[]
	movss	xmm0, DWORD PTR [eax]
	movss	DWORD PTR _tmp2$[ebp], xmm0

; 338  : 		Row[0][2] = (float)( c*tmp1 + s*tmp2);

	movss	xmm0, DWORD PTR _c$[ebp]
	mulss	xmm0, DWORD PTR _tmp1$[ebp]
	movss	xmm1, DWORD PTR _s$[ebp]
	mulss	xmm1, DWORD PTR _tmp2$[ebp]
	addss	xmm0, xmm1
	push	2
	mov	ecx, 16					; 00000010H
	imul	ecx, 0
	add	ecx, DWORD PTR _this$[ebp]
	movss	DWORD PTR tv305[ebp], xmm0
	call	??AVector4@@QAEAAMH@Z			; Vector4::operator[]
	movss	xmm0, DWORD PTR tv305[ebp]
	movss	DWORD PTR [eax], xmm0

; 339  : 		Row[2][2] = (float)(-s*tmp1 + c*tmp2);

	movss	xmm0, DWORD PTR _s$[ebp]
	xorps	xmm0, DWORD PTR __xmm@80000000800000008000000080000000
	mulss	xmm0, DWORD PTR _tmp1$[ebp]
	movss	xmm1, DWORD PTR _c$[ebp]
	mulss	xmm1, DWORD PTR _tmp2$[ebp]
	addss	xmm0, xmm1
	push	2
	mov	ecx, 16					; 00000010H
	shl	ecx, 1
	add	ecx, DWORD PTR _this$[ebp]
	movss	DWORD PTR tv307[ebp], xmm0
	call	??AVector4@@QAEAAMH@Z			; Vector4::operator[]
	movss	xmm0, DWORD PTR tv307[ebp]
	movss	DWORD PTR [eax], xmm0

; 340  : 		tmp1 = Row[0][3]; tmp2 = Row[2][3];

	push	3
	mov	ecx, 16					; 00000010H
	imul	ecx, 0
	add	ecx, DWORD PTR _this$[ebp]
	call	??AVector4@@QAEAAMH@Z			; Vector4::operator[]
	movss	xmm0, DWORD PTR [eax]
	movss	DWORD PTR _tmp1$[ebp], xmm0
	push	3
	mov	ecx, 16					; 00000010H
	shl	ecx, 1
	add	ecx, DWORD PTR _this$[ebp]
	call	??AVector4@@QAEAAMH@Z			; Vector4::operator[]
	movss	xmm0, DWORD PTR [eax]
	movss	DWORD PTR _tmp2$[ebp], xmm0

; 341  : 		Row[0][3] = (float)( c*tmp1 + s*tmp2);

	movss	xmm0, DWORD PTR _c$[ebp]
	mulss	xmm0, DWORD PTR _tmp1$[ebp]
	movss	xmm1, DWORD PTR _s$[ebp]
	mulss	xmm1, DWORD PTR _tmp2$[ebp]
	addss	xmm0, xmm1
	push	3
	mov	ecx, 16					; 00000010H
	imul	ecx, 0
	add	ecx, DWORD PTR _this$[ebp]
	movss	DWORD PTR tv309[ebp], xmm0
	call	??AVector4@@QAEAAMH@Z			; Vector4::operator[]
	movss	xmm0, DWORD PTR tv309[ebp]
	movss	DWORD PTR [eax], xmm0

; 342  : 		Row[2][3] = (float)(-s*tmp1 + c*tmp2);

	movss	xmm0, DWORD PTR _s$[ebp]
	xorps	xmm0, DWORD PTR __xmm@80000000800000008000000080000000
	mulss	xmm0, DWORD PTR _tmp1$[ebp]
	movss	xmm1, DWORD PTR _c$[ebp]
	mulss	xmm1, DWORD PTR _tmp2$[ebp]
	addss	xmm0, xmm1
	push	3
	mov	ecx, 16					; 00000010H
	shl	ecx, 1
	add	ecx, DWORD PTR _this$[ebp]
	movss	DWORD PTR tv311[ebp], xmm0
	call	??AVector4@@QAEAAMH@Z			; Vector4::operator[]
	movss	xmm0, DWORD PTR tv311[ebp]
	movss	DWORD PTR [eax], xmm0

; 343  : 	}

	pop	edi
	pop	esi
	pop	ebx
	mov	esp, ebp
	pop	ebp
	ret	4
?Pre_Rotate_Y@Matrix3D@@QAEXM@Z ENDP			; Matrix3D::Pre_Rotate_Y
_TEXT	ENDS
; Function compile flags: /Odtp /ZI
; File x:\github\renegade\dragonade_rxd\scripts\matrix3d.h
;	COMDAT ?Pre_Rotate_X@Matrix3D@@QAEXM@Z
_TEXT	SEGMENT
tv307 = -88						; size = 4
tv305 = -88						; size = 4
tv303 = -88						; size = 4
tv301 = -88						; size = 4
tv299 = -88						; size = 4
tv297 = -88						; size = 4
tv295 = -88						; size = 4
tv293 = -88						; size = 4
_s$ = -20						; size = 4
_c$ = -16						; size = 4
_tmp2$ = -12						; size = 4
_tmp1$ = -8						; size = 4
_this$ = -4						; size = 4
_theta$ = 8						; size = 4
?Pre_Rotate_X@Matrix3D@@QAEXM@Z PROC			; Matrix3D::Pre_Rotate_X, COMDAT
; _this$ = ecx

; 307  : 	{

	push	ebp
	mov	ebp, esp
	sub	esp, 88					; 00000058H
	push	ebx
	push	esi
	push	edi
	mov	DWORD PTR _this$[ebp], ecx

; 308  : 		float tmp1,tmp2;
; 309  : 		float c,s;
; 310  : 		c = cosf(theta);

	push	ecx
	movss	xmm0, DWORD PTR _theta$[ebp]
	movss	DWORD PTR [esp], xmm0
	call	_cosf
	add	esp, 4
	fstp	DWORD PTR _c$[ebp]

; 311  : 		s = sinf(theta);

	push	ecx
	movss	xmm0, DWORD PTR _theta$[ebp]
	movss	DWORD PTR [esp], xmm0
	call	_sinf
	add	esp, 4
	fstp	DWORD PTR _s$[ebp]

; 312  : 		tmp1 = Row[1][0]; tmp2 = Row[2][0];

	push	0
	mov	ecx, 16					; 00000010H
	shl	ecx, 0
	add	ecx, DWORD PTR _this$[ebp]
	call	??AVector4@@QAEAAMH@Z			; Vector4::operator[]
	movss	xmm0, DWORD PTR [eax]
	movss	DWORD PTR _tmp1$[ebp], xmm0
	push	0
	mov	ecx, 16					; 00000010H
	shl	ecx, 1
	add	ecx, DWORD PTR _this$[ebp]
	call	??AVector4@@QAEAAMH@Z			; Vector4::operator[]
	movss	xmm0, DWORD PTR [eax]
	movss	DWORD PTR _tmp2$[ebp], xmm0

; 313  : 		Row[1][0] = (float)(c*tmp1 - s*tmp2);

	movss	xmm0, DWORD PTR _c$[ebp]
	mulss	xmm0, DWORD PTR _tmp1$[ebp]
	movss	xmm1, DWORD PTR _s$[ebp]
	mulss	xmm1, DWORD PTR _tmp2$[ebp]
	subss	xmm0, xmm1
	push	0
	mov	ecx, 16					; 00000010H
	shl	ecx, 0
	add	ecx, DWORD PTR _this$[ebp]
	movss	DWORD PTR tv293[ebp], xmm0
	call	??AVector4@@QAEAAMH@Z			; Vector4::operator[]
	movss	xmm0, DWORD PTR tv293[ebp]
	movss	DWORD PTR [eax], xmm0

; 314  : 		Row[2][0] = (float)(s*tmp1 + c*tmp2);

	movss	xmm0, DWORD PTR _s$[ebp]
	mulss	xmm0, DWORD PTR _tmp1$[ebp]
	movss	xmm1, DWORD PTR _c$[ebp]
	mulss	xmm1, DWORD PTR _tmp2$[ebp]
	addss	xmm0, xmm1
	push	0
	mov	ecx, 16					; 00000010H
	shl	ecx, 1
	add	ecx, DWORD PTR _this$[ebp]
	movss	DWORD PTR tv295[ebp], xmm0
	call	??AVector4@@QAEAAMH@Z			; Vector4::operator[]
	movss	xmm0, DWORD PTR tv295[ebp]
	movss	DWORD PTR [eax], xmm0

; 315  : 		tmp1 = Row[1][1]; tmp2 = Row[2][1];

	push	1
	mov	ecx, 16					; 00000010H
	shl	ecx, 0
	add	ecx, DWORD PTR _this$[ebp]
	call	??AVector4@@QAEAAMH@Z			; Vector4::operator[]
	movss	xmm0, DWORD PTR [eax]
	movss	DWORD PTR _tmp1$[ebp], xmm0
	push	1
	mov	ecx, 16					; 00000010H
	shl	ecx, 1
	add	ecx, DWORD PTR _this$[ebp]
	call	??AVector4@@QAEAAMH@Z			; Vector4::operator[]
	movss	xmm0, DWORD PTR [eax]
	movss	DWORD PTR _tmp2$[ebp], xmm0

; 316  : 		Row[1][1] = (float)(c*tmp1 - s*tmp2);

	movss	xmm0, DWORD PTR _c$[ebp]
	mulss	xmm0, DWORD PTR _tmp1$[ebp]
	movss	xmm1, DWORD PTR _s$[ebp]
	mulss	xmm1, DWORD PTR _tmp2$[ebp]
	subss	xmm0, xmm1
	push	1
	mov	ecx, 16					; 00000010H
	shl	ecx, 0
	add	ecx, DWORD PTR _this$[ebp]
	movss	DWORD PTR tv297[ebp], xmm0
	call	??AVector4@@QAEAAMH@Z			; Vector4::operator[]
	movss	xmm0, DWORD PTR tv297[ebp]
	movss	DWORD PTR [eax], xmm0

; 317  : 		Row[2][1] = (float)(s*tmp1 + c*tmp2);

	movss	xmm0, DWORD PTR _s$[ebp]
	mulss	xmm0, DWORD PTR _tmp1$[ebp]
	movss	xmm1, DWORD PTR _c$[ebp]
	mulss	xmm1, DWORD PTR _tmp2$[ebp]
	addss	xmm0, xmm1
	push	1
	mov	ecx, 16					; 00000010H
	shl	ecx, 1
	add	ecx, DWORD PTR _this$[ebp]
	movss	DWORD PTR tv299[ebp], xmm0
	call	??AVector4@@QAEAAMH@Z			; Vector4::operator[]
	movss	xmm0, DWORD PTR tv299[ebp]
	movss	DWORD PTR [eax], xmm0

; 318  : 		tmp1 = Row[1][2]; tmp2 = Row[2][2];

	push	2
	mov	ecx, 16					; 00000010H
	shl	ecx, 0
	add	ecx, DWORD PTR _this$[ebp]
	call	??AVector4@@QAEAAMH@Z			; Vector4::operator[]
	movss	xmm0, DWORD PTR [eax]
	movss	DWORD PTR _tmp1$[ebp], xmm0
	push	2
	mov	ecx, 16					; 00000010H
	shl	ecx, 1
	add	ecx, DWORD PTR _this$[ebp]
	call	??AVector4@@QAEAAMH@Z			; Vector4::operator[]
	movss	xmm0, DWORD PTR [eax]
	movss	DWORD PTR _tmp2$[ebp], xmm0

; 319  : 		Row[1][2] = (float)(c*tmp1 - s*tmp2);

	movss	xmm0, DWORD PTR _c$[ebp]
	mulss	xmm0, DWORD PTR _tmp1$[ebp]
	movss	xmm1, DWORD PTR _s$[ebp]
	mulss	xmm1, DWORD PTR _tmp2$[ebp]
	subss	xmm0, xmm1
	push	2
	mov	ecx, 16					; 00000010H
	shl	ecx, 0
	add	ecx, DWORD PTR _this$[ebp]
	movss	DWORD PTR tv301[ebp], xmm0
	call	??AVector4@@QAEAAMH@Z			; Vector4::operator[]
	movss	xmm0, DWORD PTR tv301[ebp]
	movss	DWORD PTR [eax], xmm0

; 320  : 		Row[2][2] = (float)(s*tmp1 + c*tmp2);

	movss	xmm0, DWORD PTR _s$[ebp]
	mulss	xmm0, DWORD PTR _tmp1$[ebp]
	movss	xmm1, DWORD PTR _c$[ebp]
	mulss	xmm1, DWORD PTR _tmp2$[ebp]
	addss	xmm0, xmm1
	push	2
	mov	ecx, 16					; 00000010H
	shl	ecx, 1
	add	ecx, DWORD PTR _this$[ebp]
	movss	DWORD PTR tv303[ebp], xmm0
	call	??AVector4@@QAEAAMH@Z			; Vector4::operator[]
	movss	xmm0, DWORD PTR tv303[ebp]
	movss	DWORD PTR [eax], xmm0

; 321  : 		tmp1 = Row[1][3]; tmp2 = Row[2][3];

	push	3
	mov	ecx, 16					; 00000010H
	shl	ecx, 0
	add	ecx, DWORD PTR _this$[ebp]
	call	??AVector4@@QAEAAMH@Z			; Vector4::operator[]
	movss	xmm0, DWORD PTR [eax]
	movss	DWORD PTR _tmp1$[ebp], xmm0
	push	3
	mov	ecx, 16					; 00000010H
	shl	ecx, 1
	add	ecx, DWORD PTR _this$[ebp]
	call	??AVector4@@QAEAAMH@Z			; Vector4::operator[]
	movss	xmm0, DWORD PTR [eax]
	movss	DWORD PTR _tmp2$[ebp], xmm0

; 322  : 		Row[1][3] = (float)(c*tmp1 - s*tmp2);

	movss	xmm0, DWORD PTR _c$[ebp]
	mulss	xmm0, DWORD PTR _tmp1$[ebp]
	movss	xmm1, DWORD PTR _s$[ebp]
	mulss	xmm1, DWORD PTR _tmp2$[ebp]
	subss	xmm0, xmm1
	push	3
	mov	ecx, 16					; 00000010H
	shl	ecx, 0
	add	ecx, DWORD PTR _this$[ebp]
	movss	DWORD PTR tv305[ebp], xmm0
	call	??AVector4@@QAEAAMH@Z			; Vector4::operator[]
	movss	xmm0, DWORD PTR tv305[ebp]
	movss	DWORD PTR [eax], xmm0

; 323  : 		Row[2][3] = (float)(s*tmp1 + c*tmp2);

	movss	xmm0, DWORD PTR _s$[ebp]
	mulss	xmm0, DWORD PTR _tmp1$[ebp]
	movss	xmm1, DWORD PTR _c$[ebp]
	mulss	xmm1, DWORD PTR _tmp2$[ebp]
	addss	xmm0, xmm1
	push	3
	mov	ecx, 16					; 00000010H
	shl	ecx, 1
	add	ecx, DWORD PTR _this$[ebp]
	movss	DWORD PTR tv307[ebp], xmm0
	call	??AVector4@@QAEAAMH@Z			; Vector4::operator[]
	movss	xmm0, DWORD PTR tv307[ebp]
	movss	DWORD PTR [eax], xmm0

; 324  : 	}

	pop	edi
	pop	esi
	pop	ebx
	mov	esp, ebp
	pop	ebp
	ret	4
?Pre_Rotate_X@Matrix3D@@QAEXM@Z ENDP			; Matrix3D::Pre_Rotate_X
_TEXT	ENDS
; Function compile flags: /Odtp /ZI
; File x:\github\renegade\dragonade_rxd\scripts\matrix3d.h
;	COMDAT ?Scale@Matrix3D@@QAEXAAVVector3@@@Z
_TEXT	SEGMENT
_this$ = -4						; size = 4
_scale$ = 8						; size = 4
?Scale@Matrix3D@@QAEXAAVVector3@@@Z PROC		; Matrix3D::Scale, COMDAT
; _this$ = ecx

; 303  : 	{

	push	ebp
	mov	ebp, esp
	sub	esp, 68					; 00000044H
	push	ebx
	push	esi
	push	edi
	mov	DWORD PTR _this$[ebp], ecx

; 304  : 		Scale(scale.X, scale.Y, scale.Z);

	mov	eax, DWORD PTR _scale$[ebp]
	push	ecx
	movss	xmm0, DWORD PTR [eax+8]
	movss	DWORD PTR [esp], xmm0
	mov	ecx, DWORD PTR _scale$[ebp]
	push	ecx
	movss	xmm0, DWORD PTR [ecx+4]
	movss	DWORD PTR [esp], xmm0
	mov	edx, DWORD PTR _scale$[ebp]
	push	ecx
	movss	xmm0, DWORD PTR [edx]
	movss	DWORD PTR [esp], xmm0
	mov	ecx, DWORD PTR _this$[ebp]
	call	?Scale@Matrix3D@@QAEXMMM@Z		; Matrix3D::Scale

; 305  : 	}

	pop	edi
	pop	esi
	pop	ebx
	mov	esp, ebp
	pop	ebp
	ret	4
?Scale@Matrix3D@@QAEXAAVVector3@@@Z ENDP		; Matrix3D::Scale
_TEXT	ENDS
; Function compile flags: /Odtp /ZI
; File x:\github\renegade\dragonade_rxd\scripts\matrix3d.h
;	COMDAT ?Scale@Matrix3D@@QAEXMMM@Z
_TEXT	SEGMENT
tv166 = -72						; size = 4
tv158 = -72						; size = 4
tv150 = -72						; size = 4
tv142 = -72						; size = 4
tv134 = -72						; size = 4
tv94 = -72						; size = 4
tv86 = -72						; size = 4
tv78 = -72						; size = 4
tv70 = -72						; size = 4
_this$ = -4						; size = 4
_x$ = 8							; size = 4
_y$ = 12						; size = 4
_z$ = 16						; size = 4
?Scale@Matrix3D@@QAEXMMM@Z PROC				; Matrix3D::Scale, COMDAT
; _this$ = ecx

; 291  : 	{

	push	ebp
	mov	ebp, esp
	sub	esp, 72					; 00000048H
	push	ebx
	push	esi
	push	edi
	mov	DWORD PTR _this$[ebp], ecx

; 292  : 		Row[0][0] *= x;

	push	0
	mov	ecx, 16					; 00000010H
	imul	ecx, 0
	add	ecx, DWORD PTR _this$[ebp]
	call	??AVector4@@QAEAAMH@Z			; Vector4::operator[]
	mov	DWORD PTR tv70[ebp], eax
	mov	eax, DWORD PTR tv70[ebp]
	movss	xmm0, DWORD PTR [eax]
	mulss	xmm0, DWORD PTR _x$[ebp]
	mov	ecx, DWORD PTR tv70[ebp]
	movss	DWORD PTR [ecx], xmm0

; 293  : 		Row[1][0] *= x;

	push	0
	mov	ecx, 16					; 00000010H
	shl	ecx, 0
	add	ecx, DWORD PTR _this$[ebp]
	call	??AVector4@@QAEAAMH@Z			; Vector4::operator[]
	mov	DWORD PTR tv78[ebp], eax
	mov	eax, DWORD PTR tv78[ebp]
	movss	xmm0, DWORD PTR [eax]
	mulss	xmm0, DWORD PTR _x$[ebp]
	mov	ecx, DWORD PTR tv78[ebp]
	movss	DWORD PTR [ecx], xmm0

; 294  : 		Row[2][0] *= x;

	push	0
	mov	ecx, 16					; 00000010H
	shl	ecx, 1
	add	ecx, DWORD PTR _this$[ebp]
	call	??AVector4@@QAEAAMH@Z			; Vector4::operator[]
	mov	DWORD PTR tv86[ebp], eax
	mov	eax, DWORD PTR tv86[ebp]
	movss	xmm0, DWORD PTR [eax]
	mulss	xmm0, DWORD PTR _x$[ebp]
	mov	ecx, DWORD PTR tv86[ebp]
	movss	DWORD PTR [ecx], xmm0

; 295  : 		Row[0][1] *= y;

	push	1
	mov	ecx, 16					; 00000010H
	imul	ecx, 0
	add	ecx, DWORD PTR _this$[ebp]
	call	??AVector4@@QAEAAMH@Z			; Vector4::operator[]
	mov	DWORD PTR tv94[ebp], eax
	mov	eax, DWORD PTR tv94[ebp]
	movss	xmm0, DWORD PTR [eax]
	mulss	xmm0, DWORD PTR _y$[ebp]
	mov	ecx, DWORD PTR tv94[ebp]
	movss	DWORD PTR [ecx], xmm0

; 296  : 		Row[1][1] *= y;

	push	1
	mov	ecx, 16					; 00000010H
	shl	ecx, 0
	add	ecx, DWORD PTR _this$[ebp]
	call	??AVector4@@QAEAAMH@Z			; Vector4::operator[]
	mov	DWORD PTR tv134[ebp], eax
	mov	eax, DWORD PTR tv134[ebp]
	movss	xmm0, DWORD PTR [eax]
	mulss	xmm0, DWORD PTR _y$[ebp]
	mov	ecx, DWORD PTR tv134[ebp]
	movss	DWORD PTR [ecx], xmm0

; 297  : 		Row[2][1] *= y;

	push	1
	mov	ecx, 16					; 00000010H
	shl	ecx, 1
	add	ecx, DWORD PTR _this$[ebp]
	call	??AVector4@@QAEAAMH@Z			; Vector4::operator[]
	mov	DWORD PTR tv142[ebp], eax
	mov	eax, DWORD PTR tv142[ebp]
	movss	xmm0, DWORD PTR [eax]
	mulss	xmm0, DWORD PTR _y$[ebp]
	mov	ecx, DWORD PTR tv142[ebp]
	movss	DWORD PTR [ecx], xmm0

; 298  : 		Row[0][2] *= z;

	push	2
	mov	ecx, 16					; 00000010H
	imul	ecx, 0
	add	ecx, DWORD PTR _this$[ebp]
	call	??AVector4@@QAEAAMH@Z			; Vector4::operator[]
	mov	DWORD PTR tv150[ebp], eax
	mov	eax, DWORD PTR tv150[ebp]
	movss	xmm0, DWORD PTR [eax]
	mulss	xmm0, DWORD PTR _z$[ebp]
	mov	ecx, DWORD PTR tv150[ebp]
	movss	DWORD PTR [ecx], xmm0

; 299  : 		Row[1][2] *= z;

	push	2
	mov	ecx, 16					; 00000010H
	shl	ecx, 0
	add	ecx, DWORD PTR _this$[ebp]
	call	??AVector4@@QAEAAMH@Z			; Vector4::operator[]
	mov	DWORD PTR tv158[ebp], eax
	mov	eax, DWORD PTR tv158[ebp]
	movss	xmm0, DWORD PTR [eax]
	mulss	xmm0, DWORD PTR _z$[ebp]
	mov	ecx, DWORD PTR tv158[ebp]
	movss	DWORD PTR [ecx], xmm0

; 300  : 		Row[2][2] *= z;

	push	2
	mov	ecx, 16					; 00000010H
	shl	ecx, 1
	add	ecx, DWORD PTR _this$[ebp]
	call	??AVector4@@QAEAAMH@Z			; Vector4::operator[]
	mov	DWORD PTR tv166[ebp], eax
	mov	eax, DWORD PTR tv166[ebp]
	movss	xmm0, DWORD PTR [eax]
	mulss	xmm0, DWORD PTR _z$[ebp]
	mov	ecx, DWORD PTR tv166[ebp]
	movss	DWORD PTR [ecx], xmm0

; 301  : 	}

	pop	edi
	pop	esi
	pop	ebx
	mov	esp, ebp
	pop	ebp
	ret	12					; 0000000cH
?Scale@Matrix3D@@QAEXMMM@Z ENDP				; Matrix3D::Scale
_TEXT	ENDS
; Function compile flags: /Odtp /ZI
; File x:\github\renegade\dragonade_rxd\scripts\matrix3d.h
;	COMDAT ?Scale@Matrix3D@@QAEXM@Z
_TEXT	SEGMENT
tv166 = -72						; size = 4
tv158 = -72						; size = 4
tv150 = -72						; size = 4
tv142 = -72						; size = 4
tv134 = -72						; size = 4
tv94 = -72						; size = 4
tv86 = -72						; size = 4
tv78 = -72						; size = 4
tv70 = -72						; size = 4
_this$ = -4						; size = 4
_scale$ = 8						; size = 4
?Scale@Matrix3D@@QAEXM@Z PROC				; Matrix3D::Scale, COMDAT
; _this$ = ecx

; 279  : 	{

	push	ebp
	mov	ebp, esp
	sub	esp, 72					; 00000048H
	push	ebx
	push	esi
	push	edi
	mov	DWORD PTR _this$[ebp], ecx

; 280  : 		Row[0][0] *= scale;

	push	0
	mov	ecx, 16					; 00000010H
	imul	ecx, 0
	add	ecx, DWORD PTR _this$[ebp]
	call	??AVector4@@QAEAAMH@Z			; Vector4::operator[]
	mov	DWORD PTR tv70[ebp], eax
	mov	eax, DWORD PTR tv70[ebp]
	movss	xmm0, DWORD PTR [eax]
	mulss	xmm0, DWORD PTR _scale$[ebp]
	mov	ecx, DWORD PTR tv70[ebp]
	movss	DWORD PTR [ecx], xmm0

; 281  : 		Row[1][0] *= scale;

	push	0
	mov	ecx, 16					; 00000010H
	shl	ecx, 0
	add	ecx, DWORD PTR _this$[ebp]
	call	??AVector4@@QAEAAMH@Z			; Vector4::operator[]
	mov	DWORD PTR tv78[ebp], eax
	mov	eax, DWORD PTR tv78[ebp]
	movss	xmm0, DWORD PTR [eax]
	mulss	xmm0, DWORD PTR _scale$[ebp]
	mov	ecx, DWORD PTR tv78[ebp]
	movss	DWORD PTR [ecx], xmm0

; 282  : 		Row[2][0] *= scale;

	push	0
	mov	ecx, 16					; 00000010H
	shl	ecx, 1
	add	ecx, DWORD PTR _this$[ebp]
	call	??AVector4@@QAEAAMH@Z			; Vector4::operator[]
	mov	DWORD PTR tv86[ebp], eax
	mov	eax, DWORD PTR tv86[ebp]
	movss	xmm0, DWORD PTR [eax]
	mulss	xmm0, DWORD PTR _scale$[ebp]
	mov	ecx, DWORD PTR tv86[ebp]
	movss	DWORD PTR [ecx], xmm0

; 283  : 		Row[0][1] *= scale;

	push	1
	mov	ecx, 16					; 00000010H
	imul	ecx, 0
	add	ecx, DWORD PTR _this$[ebp]
	call	??AVector4@@QAEAAMH@Z			; Vector4::operator[]
	mov	DWORD PTR tv94[ebp], eax
	mov	eax, DWORD PTR tv94[ebp]
	movss	xmm0, DWORD PTR [eax]
	mulss	xmm0, DWORD PTR _scale$[ebp]
	mov	ecx, DWORD PTR tv94[ebp]
	movss	DWORD PTR [ecx], xmm0

; 284  : 		Row[1][1] *= scale;

	push	1
	mov	ecx, 16					; 00000010H
	shl	ecx, 0
	add	ecx, DWORD PTR _this$[ebp]
	call	??AVector4@@QAEAAMH@Z			; Vector4::operator[]
	mov	DWORD PTR tv134[ebp], eax
	mov	eax, DWORD PTR tv134[ebp]
	movss	xmm0, DWORD PTR [eax]
	mulss	xmm0, DWORD PTR _scale$[ebp]
	mov	ecx, DWORD PTR tv134[ebp]
	movss	DWORD PTR [ecx], xmm0

; 285  : 		Row[2][1] *= scale;

	push	1
	mov	ecx, 16					; 00000010H
	shl	ecx, 1
	add	ecx, DWORD PTR _this$[ebp]
	call	??AVector4@@QAEAAMH@Z			; Vector4::operator[]
	mov	DWORD PTR tv142[ebp], eax
	mov	eax, DWORD PTR tv142[ebp]
	movss	xmm0, DWORD PTR [eax]
	mulss	xmm0, DWORD PTR _scale$[ebp]
	mov	ecx, DWORD PTR tv142[ebp]
	movss	DWORD PTR [ecx], xmm0

; 286  : 		Row[0][2] *= scale;

	push	2
	mov	ecx, 16					; 00000010H
	imul	ecx, 0
	add	ecx, DWORD PTR _this$[ebp]
	call	??AVector4@@QAEAAMH@Z			; Vector4::operator[]
	mov	DWORD PTR tv150[ebp], eax
	mov	eax, DWORD PTR tv150[ebp]
	movss	xmm0, DWORD PTR [eax]
	mulss	xmm0, DWORD PTR _scale$[ebp]
	mov	ecx, DWORD PTR tv150[ebp]
	movss	DWORD PTR [ecx], xmm0

; 287  : 		Row[1][2] *= scale;

	push	2
	mov	ecx, 16					; 00000010H
	shl	ecx, 0
	add	ecx, DWORD PTR _this$[ebp]
	call	??AVector4@@QAEAAMH@Z			; Vector4::operator[]
	mov	DWORD PTR tv158[ebp], eax
	mov	eax, DWORD PTR tv158[ebp]
	movss	xmm0, DWORD PTR [eax]
	mulss	xmm0, DWORD PTR _scale$[ebp]
	mov	ecx, DWORD PTR tv158[ebp]
	movss	DWORD PTR [ecx], xmm0

; 288  : 		Row[2][2] *= scale;

	push	2
	mov	ecx, 16					; 00000010H
	shl	ecx, 1
	add	ecx, DWORD PTR _this$[ebp]
	call	??AVector4@@QAEAAMH@Z			; Vector4::operator[]
	mov	DWORD PTR tv166[ebp], eax
	mov	eax, DWORD PTR tv166[ebp]
	movss	xmm0, DWORD PTR [eax]
	mulss	xmm0, DWORD PTR _scale$[ebp]
	mov	ecx, DWORD PTR tv166[ebp]
	movss	DWORD PTR [ecx], xmm0

; 289  : 	}

	pop	edi
	pop	esi
	pop	ebx
	mov	esp, ebp
	pop	ebp
	ret	4
?Scale@Matrix3D@@QAEXM@Z ENDP				; Matrix3D::Scale
_TEXT	ENDS
; Function compile flags: /Odtp /ZI
; File x:\github\renegade\dragonade_rxd\scripts\matrix3d.h
;	COMDAT ?Rotate_Z@Matrix3D@@QAEXMM@Z
_TEXT	SEGMENT
tv248 = -80						; size = 4
tv246 = -80						; size = 4
tv244 = -80						; size = 4
tv242 = -80						; size = 4
tv240 = -80						; size = 4
tv238 = -80						; size = 4
_tmp2$ = -12						; size = 4
_tmp1$ = -8						; size = 4
_this$ = -4						; size = 4
_s$ = 8							; size = 4
_c$ = 12						; size = 4
?Rotate_Z@Matrix3D@@QAEXMM@Z PROC			; Matrix3D::Rotate_Z, COMDAT
; _this$ = ecx

; 266  : 	{

	push	ebp
	mov	ebp, esp
	sub	esp, 80					; 00000050H
	push	ebx
	push	esi
	push	edi
	mov	DWORD PTR _this$[ebp], ecx

; 267  : 		float tmp1,tmp2;
; 268  : 		tmp1 = Row[0][0]; tmp2 = Row[0][1];

	push	0
	mov	ecx, 16					; 00000010H
	imul	ecx, 0
	add	ecx, DWORD PTR _this$[ebp]
	call	??AVector4@@QAEAAMH@Z			; Vector4::operator[]
	movss	xmm0, DWORD PTR [eax]
	movss	DWORD PTR _tmp1$[ebp], xmm0
	push	1
	mov	ecx, 16					; 00000010H
	imul	ecx, 0
	add	ecx, DWORD PTR _this$[ebp]
	call	??AVector4@@QAEAAMH@Z			; Vector4::operator[]
	movss	xmm0, DWORD PTR [eax]
	movss	DWORD PTR _tmp2$[ebp], xmm0

; 269  : 		Row[0][0] = (float)( c*tmp1 + s*tmp2);

	movss	xmm0, DWORD PTR _c$[ebp]
	mulss	xmm0, DWORD PTR _tmp1$[ebp]
	movss	xmm1, DWORD PTR _s$[ebp]
	mulss	xmm1, DWORD PTR _tmp2$[ebp]
	addss	xmm0, xmm1
	push	0
	mov	ecx, 16					; 00000010H
	imul	ecx, 0
	add	ecx, DWORD PTR _this$[ebp]
	movss	DWORD PTR tv238[ebp], xmm0
	call	??AVector4@@QAEAAMH@Z			; Vector4::operator[]
	movss	xmm0, DWORD PTR tv238[ebp]
	movss	DWORD PTR [eax], xmm0

; 270  : 		Row[0][1] = (float)(-s*tmp1 + c*tmp2);

	movss	xmm0, DWORD PTR _s$[ebp]
	xorps	xmm0, DWORD PTR __xmm@80000000800000008000000080000000
	mulss	xmm0, DWORD PTR _tmp1$[ebp]
	movss	xmm1, DWORD PTR _c$[ebp]
	mulss	xmm1, DWORD PTR _tmp2$[ebp]
	addss	xmm0, xmm1
	push	1
	mov	ecx, 16					; 00000010H
	imul	ecx, 0
	add	ecx, DWORD PTR _this$[ebp]
	movss	DWORD PTR tv240[ebp], xmm0
	call	??AVector4@@QAEAAMH@Z			; Vector4::operator[]
	movss	xmm0, DWORD PTR tv240[ebp]
	movss	DWORD PTR [eax], xmm0

; 271  : 		tmp1 = Row[1][0]; tmp2 = Row[1][1];

	push	0
	mov	ecx, 16					; 00000010H
	shl	ecx, 0
	add	ecx, DWORD PTR _this$[ebp]
	call	??AVector4@@QAEAAMH@Z			; Vector4::operator[]
	movss	xmm0, DWORD PTR [eax]
	movss	DWORD PTR _tmp1$[ebp], xmm0
	push	1
	mov	ecx, 16					; 00000010H
	shl	ecx, 0
	add	ecx, DWORD PTR _this$[ebp]
	call	??AVector4@@QAEAAMH@Z			; Vector4::operator[]
	movss	xmm0, DWORD PTR [eax]
	movss	DWORD PTR _tmp2$[ebp], xmm0

; 272  : 		Row[1][0] = (float)( c*tmp1 + s*tmp2);

	movss	xmm0, DWORD PTR _c$[ebp]
	mulss	xmm0, DWORD PTR _tmp1$[ebp]
	movss	xmm1, DWORD PTR _s$[ebp]
	mulss	xmm1, DWORD PTR _tmp2$[ebp]
	addss	xmm0, xmm1
	push	0
	mov	ecx, 16					; 00000010H
	shl	ecx, 0
	add	ecx, DWORD PTR _this$[ebp]
	movss	DWORD PTR tv242[ebp], xmm0
	call	??AVector4@@QAEAAMH@Z			; Vector4::operator[]
	movss	xmm0, DWORD PTR tv242[ebp]
	movss	DWORD PTR [eax], xmm0

; 273  : 		Row[1][1] = (float)(-s*tmp1 + c*tmp2);

	movss	xmm0, DWORD PTR _s$[ebp]
	xorps	xmm0, DWORD PTR __xmm@80000000800000008000000080000000
	mulss	xmm0, DWORD PTR _tmp1$[ebp]
	movss	xmm1, DWORD PTR _c$[ebp]
	mulss	xmm1, DWORD PTR _tmp2$[ebp]
	addss	xmm0, xmm1
	push	1
	mov	ecx, 16					; 00000010H
	shl	ecx, 0
	add	ecx, DWORD PTR _this$[ebp]
	movss	DWORD PTR tv244[ebp], xmm0
	call	??AVector4@@QAEAAMH@Z			; Vector4::operator[]
	movss	xmm0, DWORD PTR tv244[ebp]
	movss	DWORD PTR [eax], xmm0

; 274  : 		tmp1 = Row[2][0]; tmp2 = Row[2][1];

	push	0
	mov	ecx, 16					; 00000010H
	shl	ecx, 1
	add	ecx, DWORD PTR _this$[ebp]
	call	??AVector4@@QAEAAMH@Z			; Vector4::operator[]
	movss	xmm0, DWORD PTR [eax]
	movss	DWORD PTR _tmp1$[ebp], xmm0
	push	1
	mov	ecx, 16					; 00000010H
	shl	ecx, 1
	add	ecx, DWORD PTR _this$[ebp]
	call	??AVector4@@QAEAAMH@Z			; Vector4::operator[]
	movss	xmm0, DWORD PTR [eax]
	movss	DWORD PTR _tmp2$[ebp], xmm0

; 275  : 		Row[2][0] = (float)( c*tmp1 + s*tmp2);

	movss	xmm0, DWORD PTR _c$[ebp]
	mulss	xmm0, DWORD PTR _tmp1$[ebp]
	movss	xmm1, DWORD PTR _s$[ebp]
	mulss	xmm1, DWORD PTR _tmp2$[ebp]
	addss	xmm0, xmm1
	push	0
	mov	ecx, 16					; 00000010H
	shl	ecx, 1
	add	ecx, DWORD PTR _this$[ebp]
	movss	DWORD PTR tv246[ebp], xmm0
	call	??AVector4@@QAEAAMH@Z			; Vector4::operator[]
	movss	xmm0, DWORD PTR tv246[ebp]
	movss	DWORD PTR [eax], xmm0

; 276  : 		Row[2][1] = (float)(-s*tmp1 + c*tmp2);

	movss	xmm0, DWORD PTR _s$[ebp]
	xorps	xmm0, DWORD PTR __xmm@80000000800000008000000080000000
	mulss	xmm0, DWORD PTR _tmp1$[ebp]
	movss	xmm1, DWORD PTR _c$[ebp]
	mulss	xmm1, DWORD PTR _tmp2$[ebp]
	addss	xmm0, xmm1
	push	1
	mov	ecx, 16					; 00000010H
	shl	ecx, 1
	add	ecx, DWORD PTR _this$[ebp]
	movss	DWORD PTR tv248[ebp], xmm0
	call	??AVector4@@QAEAAMH@Z			; Vector4::operator[]
	movss	xmm0, DWORD PTR tv248[ebp]
	movss	DWORD PTR [eax], xmm0

; 277  : 	}

	pop	edi
	pop	esi
	pop	ebx
	mov	esp, ebp
	pop	ebp
	ret	8
?Rotate_Z@Matrix3D@@QAEXMM@Z ENDP			; Matrix3D::Rotate_Z
_TEXT	ENDS
; Function compile flags: /Odtp /ZI
; File x:\github\renegade\dragonade_rxd\scripts\matrix3d.h
;	COMDAT ?Rotate_Y@Matrix3D@@QAEXMM@Z
_TEXT	SEGMENT
tv245 = -80						; size = 4
tv243 = -80						; size = 4
tv241 = -80						; size = 4
tv239 = -80						; size = 4
tv237 = -80						; size = 4
tv235 = -80						; size = 4
_tmp2$ = -12						; size = 4
_tmp1$ = -8						; size = 4
_this$ = -4						; size = 4
_s$ = 8							; size = 4
_c$ = 12						; size = 4
?Rotate_Y@Matrix3D@@QAEXMM@Z PROC			; Matrix3D::Rotate_Y, COMDAT
; _this$ = ecx

; 253  : 	{

	push	ebp
	mov	ebp, esp
	sub	esp, 80					; 00000050H
	push	ebx
	push	esi
	push	edi
	mov	DWORD PTR _this$[ebp], ecx

; 254  : 		float tmp1,tmp2;
; 255  : 		tmp1 = Row[0][0]; tmp2 = Row[0][2];

	push	0
	mov	ecx, 16					; 00000010H
	imul	ecx, 0
	add	ecx, DWORD PTR _this$[ebp]
	call	??AVector4@@QAEAAMH@Z			; Vector4::operator[]
	movss	xmm0, DWORD PTR [eax]
	movss	DWORD PTR _tmp1$[ebp], xmm0
	push	2
	mov	ecx, 16					; 00000010H
	imul	ecx, 0
	add	ecx, DWORD PTR _this$[ebp]
	call	??AVector4@@QAEAAMH@Z			; Vector4::operator[]
	movss	xmm0, DWORD PTR [eax]
	movss	DWORD PTR _tmp2$[ebp], xmm0

; 256  : 		Row[0][0] = (float)(c*tmp1 - s*tmp2);

	movss	xmm0, DWORD PTR _c$[ebp]
	mulss	xmm0, DWORD PTR _tmp1$[ebp]
	movss	xmm1, DWORD PTR _s$[ebp]
	mulss	xmm1, DWORD PTR _tmp2$[ebp]
	subss	xmm0, xmm1
	push	0
	mov	ecx, 16					; 00000010H
	imul	ecx, 0
	add	ecx, DWORD PTR _this$[ebp]
	movss	DWORD PTR tv235[ebp], xmm0
	call	??AVector4@@QAEAAMH@Z			; Vector4::operator[]
	movss	xmm0, DWORD PTR tv235[ebp]
	movss	DWORD PTR [eax], xmm0

; 257  : 		Row[0][2] = (float)(s*tmp1 + c*tmp2);

	movss	xmm0, DWORD PTR _s$[ebp]
	mulss	xmm0, DWORD PTR _tmp1$[ebp]
	movss	xmm1, DWORD PTR _c$[ebp]
	mulss	xmm1, DWORD PTR _tmp2$[ebp]
	addss	xmm0, xmm1
	push	2
	mov	ecx, 16					; 00000010H
	imul	ecx, 0
	add	ecx, DWORD PTR _this$[ebp]
	movss	DWORD PTR tv237[ebp], xmm0
	call	??AVector4@@QAEAAMH@Z			; Vector4::operator[]
	movss	xmm0, DWORD PTR tv237[ebp]
	movss	DWORD PTR [eax], xmm0

; 258  : 		tmp1 = Row[1][0]; tmp2 = Row[1][2];

	push	0
	mov	ecx, 16					; 00000010H
	shl	ecx, 0
	add	ecx, DWORD PTR _this$[ebp]
	call	??AVector4@@QAEAAMH@Z			; Vector4::operator[]
	movss	xmm0, DWORD PTR [eax]
	movss	DWORD PTR _tmp1$[ebp], xmm0
	push	2
	mov	ecx, 16					; 00000010H
	shl	ecx, 0
	add	ecx, DWORD PTR _this$[ebp]
	call	??AVector4@@QAEAAMH@Z			; Vector4::operator[]
	movss	xmm0, DWORD PTR [eax]
	movss	DWORD PTR _tmp2$[ebp], xmm0

; 259  : 		Row[1][0] = (float)(c*tmp1 - s*tmp2);

	movss	xmm0, DWORD PTR _c$[ebp]
	mulss	xmm0, DWORD PTR _tmp1$[ebp]
	movss	xmm1, DWORD PTR _s$[ebp]
	mulss	xmm1, DWORD PTR _tmp2$[ebp]
	subss	xmm0, xmm1
	push	0
	mov	ecx, 16					; 00000010H
	shl	ecx, 0
	add	ecx, DWORD PTR _this$[ebp]
	movss	DWORD PTR tv239[ebp], xmm0
	call	??AVector4@@QAEAAMH@Z			; Vector4::operator[]
	movss	xmm0, DWORD PTR tv239[ebp]
	movss	DWORD PTR [eax], xmm0

; 260  : 		Row[1][2] = (float)(s*tmp1 + c*tmp2);

	movss	xmm0, DWORD PTR _s$[ebp]
	mulss	xmm0, DWORD PTR _tmp1$[ebp]
	movss	xmm1, DWORD PTR _c$[ebp]
	mulss	xmm1, DWORD PTR _tmp2$[ebp]
	addss	xmm0, xmm1
	push	2
	mov	ecx, 16					; 00000010H
	shl	ecx, 0
	add	ecx, DWORD PTR _this$[ebp]
	movss	DWORD PTR tv241[ebp], xmm0
	call	??AVector4@@QAEAAMH@Z			; Vector4::operator[]
	movss	xmm0, DWORD PTR tv241[ebp]
	movss	DWORD PTR [eax], xmm0

; 261  : 		tmp1 = Row[2][0]; tmp2 = Row[2][2];

	push	0
	mov	ecx, 16					; 00000010H
	shl	ecx, 1
	add	ecx, DWORD PTR _this$[ebp]
	call	??AVector4@@QAEAAMH@Z			; Vector4::operator[]
	movss	xmm0, DWORD PTR [eax]
	movss	DWORD PTR _tmp1$[ebp], xmm0
	push	2
	mov	ecx, 16					; 00000010H
	shl	ecx, 1
	add	ecx, DWORD PTR _this$[ebp]
	call	??AVector4@@QAEAAMH@Z			; Vector4::operator[]
	movss	xmm0, DWORD PTR [eax]
	movss	DWORD PTR _tmp2$[ebp], xmm0

; 262  : 		Row[2][0] = (float)(c*tmp1 - s*tmp2);

	movss	xmm0, DWORD PTR _c$[ebp]
	mulss	xmm0, DWORD PTR _tmp1$[ebp]
	movss	xmm1, DWORD PTR _s$[ebp]
	mulss	xmm1, DWORD PTR _tmp2$[ebp]
	subss	xmm0, xmm1
	push	0
	mov	ecx, 16					; 00000010H
	shl	ecx, 1
	add	ecx, DWORD PTR _this$[ebp]
	movss	DWORD PTR tv243[ebp], xmm0
	call	??AVector4@@QAEAAMH@Z			; Vector4::operator[]
	movss	xmm0, DWORD PTR tv243[ebp]
	movss	DWORD PTR [eax], xmm0

; 263  : 		Row[2][2] = (float)(s*tmp1 + c*tmp2);

	movss	xmm0, DWORD PTR _s$[ebp]
	mulss	xmm0, DWORD PTR _tmp1$[ebp]
	movss	xmm1, DWORD PTR _c$[ebp]
	mulss	xmm1, DWORD PTR _tmp2$[ebp]
	addss	xmm0, xmm1
	push	2
	mov	ecx, 16					; 00000010H
	shl	ecx, 1
	add	ecx, DWORD PTR _this$[ebp]
	movss	DWORD PTR tv245[ebp], xmm0
	call	??AVector4@@QAEAAMH@Z			; Vector4::operator[]
	movss	xmm0, DWORD PTR tv245[ebp]
	movss	DWORD PTR [eax], xmm0

; 264  : 	}

	pop	edi
	pop	esi
	pop	ebx
	mov	esp, ebp
	pop	ebp
	ret	8
?Rotate_Y@Matrix3D@@QAEXMM@Z ENDP			; Matrix3D::Rotate_Y
_TEXT	ENDS
; Function compile flags: /Odtp /ZI
; File x:\github\renegade\dragonade_rxd\scripts\matrix3d.h
;	COMDAT ?Rotate_X@Matrix3D@@QAEXMM@Z
_TEXT	SEGMENT
tv248 = -80						; size = 4
tv246 = -80						; size = 4
tv244 = -80						; size = 4
tv242 = -80						; size = 4
tv240 = -80						; size = 4
tv238 = -80						; size = 4
_tmp2$ = -12						; size = 4
_tmp1$ = -8						; size = 4
_this$ = -4						; size = 4
_s$ = 8							; size = 4
_c$ = 12						; size = 4
?Rotate_X@Matrix3D@@QAEXMM@Z PROC			; Matrix3D::Rotate_X, COMDAT
; _this$ = ecx

; 240  : 	{

	push	ebp
	mov	ebp, esp
	sub	esp, 80					; 00000050H
	push	ebx
	push	esi
	push	edi
	mov	DWORD PTR _this$[ebp], ecx

; 241  : 		float tmp1,tmp2;
; 242  : 		tmp1 = Row[0][1]; tmp2 = Row[0][2];

	push	1
	mov	ecx, 16					; 00000010H
	imul	ecx, 0
	add	ecx, DWORD PTR _this$[ebp]
	call	??AVector4@@QAEAAMH@Z			; Vector4::operator[]
	movss	xmm0, DWORD PTR [eax]
	movss	DWORD PTR _tmp1$[ebp], xmm0
	push	2
	mov	ecx, 16					; 00000010H
	imul	ecx, 0
	add	ecx, DWORD PTR _this$[ebp]
	call	??AVector4@@QAEAAMH@Z			; Vector4::operator[]
	movss	xmm0, DWORD PTR [eax]
	movss	DWORD PTR _tmp2$[ebp], xmm0

; 243  : 		Row[0][1] = (float)( c*tmp1 + s*tmp2);

	movss	xmm0, DWORD PTR _c$[ebp]
	mulss	xmm0, DWORD PTR _tmp1$[ebp]
	movss	xmm1, DWORD PTR _s$[ebp]
	mulss	xmm1, DWORD PTR _tmp2$[ebp]
	addss	xmm0, xmm1
	push	1
	mov	ecx, 16					; 00000010H
	imul	ecx, 0
	add	ecx, DWORD PTR _this$[ebp]
	movss	DWORD PTR tv238[ebp], xmm0
	call	??AVector4@@QAEAAMH@Z			; Vector4::operator[]
	movss	xmm0, DWORD PTR tv238[ebp]
	movss	DWORD PTR [eax], xmm0

; 244  : 		Row[0][2] = (float)(-s*tmp1 + c*tmp2);

	movss	xmm0, DWORD PTR _s$[ebp]
	xorps	xmm0, DWORD PTR __xmm@80000000800000008000000080000000
	mulss	xmm0, DWORD PTR _tmp1$[ebp]
	movss	xmm1, DWORD PTR _c$[ebp]
	mulss	xmm1, DWORD PTR _tmp2$[ebp]
	addss	xmm0, xmm1
	push	2
	mov	ecx, 16					; 00000010H
	imul	ecx, 0
	add	ecx, DWORD PTR _this$[ebp]
	movss	DWORD PTR tv240[ebp], xmm0
	call	??AVector4@@QAEAAMH@Z			; Vector4::operator[]
	movss	xmm0, DWORD PTR tv240[ebp]
	movss	DWORD PTR [eax], xmm0

; 245  : 		tmp1 = Row[1][1]; tmp2 = Row[1][2];

	push	1
	mov	ecx, 16					; 00000010H
	shl	ecx, 0
	add	ecx, DWORD PTR _this$[ebp]
	call	??AVector4@@QAEAAMH@Z			; Vector4::operator[]
	movss	xmm0, DWORD PTR [eax]
	movss	DWORD PTR _tmp1$[ebp], xmm0
	push	2
	mov	ecx, 16					; 00000010H
	shl	ecx, 0
	add	ecx, DWORD PTR _this$[ebp]
	call	??AVector4@@QAEAAMH@Z			; Vector4::operator[]
	movss	xmm0, DWORD PTR [eax]
	movss	DWORD PTR _tmp2$[ebp], xmm0

; 246  : 		Row[1][1] = (float)( c*tmp1 + s*tmp2);

	movss	xmm0, DWORD PTR _c$[ebp]
	mulss	xmm0, DWORD PTR _tmp1$[ebp]
	movss	xmm1, DWORD PTR _s$[ebp]
	mulss	xmm1, DWORD PTR _tmp2$[ebp]
	addss	xmm0, xmm1
	push	1
	mov	ecx, 16					; 00000010H
	shl	ecx, 0
	add	ecx, DWORD PTR _this$[ebp]
	movss	DWORD PTR tv242[ebp], xmm0
	call	??AVector4@@QAEAAMH@Z			; Vector4::operator[]
	movss	xmm0, DWORD PTR tv242[ebp]
	movss	DWORD PTR [eax], xmm0

; 247  : 		Row[1][2] = (float)(-s*tmp1 + c*tmp2);

	movss	xmm0, DWORD PTR _s$[ebp]
	xorps	xmm0, DWORD PTR __xmm@80000000800000008000000080000000
	mulss	xmm0, DWORD PTR _tmp1$[ebp]
	movss	xmm1, DWORD PTR _c$[ebp]
	mulss	xmm1, DWORD PTR _tmp2$[ebp]
	addss	xmm0, xmm1
	push	2
	mov	ecx, 16					; 00000010H
	shl	ecx, 0
	add	ecx, DWORD PTR _this$[ebp]
	movss	DWORD PTR tv244[ebp], xmm0
	call	??AVector4@@QAEAAMH@Z			; Vector4::operator[]
	movss	xmm0, DWORD PTR tv244[ebp]
	movss	DWORD PTR [eax], xmm0

; 248  : 		tmp1 = Row[2][1]; tmp2 = Row[2][2];

	push	1
	mov	ecx, 16					; 00000010H
	shl	ecx, 1
	add	ecx, DWORD PTR _this$[ebp]
	call	??AVector4@@QAEAAMH@Z			; Vector4::operator[]
	movss	xmm0, DWORD PTR [eax]
	movss	DWORD PTR _tmp1$[ebp], xmm0
	push	2
	mov	ecx, 16					; 00000010H
	shl	ecx, 1
	add	ecx, DWORD PTR _this$[ebp]
	call	??AVector4@@QAEAAMH@Z			; Vector4::operator[]
	movss	xmm0, DWORD PTR [eax]
	movss	DWORD PTR _tmp2$[ebp], xmm0

; 249  : 		Row[2][1] = (float)( c*tmp1 + s*tmp2);

	movss	xmm0, DWORD PTR _c$[ebp]
	mulss	xmm0, DWORD PTR _tmp1$[ebp]
	movss	xmm1, DWORD PTR _s$[ebp]
	mulss	xmm1, DWORD PTR _tmp2$[ebp]
	addss	xmm0, xmm1
	push	1
	mov	ecx, 16					; 00000010H
	shl	ecx, 1
	add	ecx, DWORD PTR _this$[ebp]
	movss	DWORD PTR tv246[ebp], xmm0
	call	??AVector4@@QAEAAMH@Z			; Vector4::operator[]
	movss	xmm0, DWORD PTR tv246[ebp]
	movss	DWORD PTR [eax], xmm0

; 250  : 		Row[2][2] = (float)(-s*tmp1 + c*tmp2);

	movss	xmm0, DWORD PTR _s$[ebp]
	xorps	xmm0, DWORD PTR __xmm@80000000800000008000000080000000
	mulss	xmm0, DWORD PTR _tmp1$[ebp]
	movss	xmm1, DWORD PTR _c$[ebp]
	mulss	xmm1, DWORD PTR _tmp2$[ebp]
	addss	xmm0, xmm1
	push	2
	mov	ecx, 16					; 00000010H
	shl	ecx, 1
	add	ecx, DWORD PTR _this$[ebp]
	movss	DWORD PTR tv248[ebp], xmm0
	call	??AVector4@@QAEAAMH@Z			; Vector4::operator[]
	movss	xmm0, DWORD PTR tv248[ebp]
	movss	DWORD PTR [eax], xmm0

; 251  : 	}

	pop	edi
	pop	esi
	pop	ebx
	mov	esp, ebp
	pop	ebp
	ret	8
?Rotate_X@Matrix3D@@QAEXMM@Z ENDP			; Matrix3D::Rotate_X
_TEXT	ENDS
; Function compile flags: /Odtp /ZI
; File x:\github\renegade\dragonade_rxd\scripts\matrix3d.h
;	COMDAT ?Rotate_Z@Matrix3D@@QAEXM@Z
_TEXT	SEGMENT
tv260 = -88						; size = 4
tv258 = -88						; size = 4
tv256 = -88						; size = 4
tv254 = -88						; size = 4
tv252 = -88						; size = 4
tv250 = -88						; size = 4
_s$ = -20						; size = 4
_c$ = -16						; size = 4
_tmp2$ = -12						; size = 4
_tmp1$ = -8						; size = 4
_this$ = -4						; size = 4
_theta$ = 8						; size = 4
?Rotate_Z@Matrix3D@@QAEXM@Z PROC			; Matrix3D::Rotate_Z, COMDAT
; _this$ = ecx

; 224  : 	{

	push	ebp
	mov	ebp, esp
	sub	esp, 88					; 00000058H
	push	ebx
	push	esi
	push	edi
	mov	DWORD PTR _this$[ebp], ecx

; 225  : 		float tmp1,tmp2;
; 226  : 		float c,s;
; 227  : 		c = cosf(theta);

	push	ecx
	movss	xmm0, DWORD PTR _theta$[ebp]
	movss	DWORD PTR [esp], xmm0
	call	_cosf
	add	esp, 4
	fstp	DWORD PTR _c$[ebp]

; 228  : 		s = sinf(theta);

	push	ecx
	movss	xmm0, DWORD PTR _theta$[ebp]
	movss	DWORD PTR [esp], xmm0
	call	_sinf
	add	esp, 4
	fstp	DWORD PTR _s$[ebp]

; 229  : 		tmp1 = Row[0][0]; tmp2 = Row[0][1];

	push	0
	mov	ecx, 16					; 00000010H
	imul	ecx, 0
	add	ecx, DWORD PTR _this$[ebp]
	call	??AVector4@@QAEAAMH@Z			; Vector4::operator[]
	movss	xmm0, DWORD PTR [eax]
	movss	DWORD PTR _tmp1$[ebp], xmm0
	push	1
	mov	ecx, 16					; 00000010H
	imul	ecx, 0
	add	ecx, DWORD PTR _this$[ebp]
	call	??AVector4@@QAEAAMH@Z			; Vector4::operator[]
	movss	xmm0, DWORD PTR [eax]
	movss	DWORD PTR _tmp2$[ebp], xmm0

; 230  : 		Row[0][0] = (float)( c*tmp1 + s*tmp2);

	movss	xmm0, DWORD PTR _c$[ebp]
	mulss	xmm0, DWORD PTR _tmp1$[ebp]
	movss	xmm1, DWORD PTR _s$[ebp]
	mulss	xmm1, DWORD PTR _tmp2$[ebp]
	addss	xmm0, xmm1
	push	0
	mov	ecx, 16					; 00000010H
	imul	ecx, 0
	add	ecx, DWORD PTR _this$[ebp]
	movss	DWORD PTR tv250[ebp], xmm0
	call	??AVector4@@QAEAAMH@Z			; Vector4::operator[]
	movss	xmm0, DWORD PTR tv250[ebp]
	movss	DWORD PTR [eax], xmm0

; 231  : 		Row[0][1] = (float)(-s*tmp1 + c*tmp2);

	movss	xmm0, DWORD PTR _s$[ebp]
	xorps	xmm0, DWORD PTR __xmm@80000000800000008000000080000000
	mulss	xmm0, DWORD PTR _tmp1$[ebp]
	movss	xmm1, DWORD PTR _c$[ebp]
	mulss	xmm1, DWORD PTR _tmp2$[ebp]
	addss	xmm0, xmm1
	push	1
	mov	ecx, 16					; 00000010H
	imul	ecx, 0
	add	ecx, DWORD PTR _this$[ebp]
	movss	DWORD PTR tv252[ebp], xmm0
	call	??AVector4@@QAEAAMH@Z			; Vector4::operator[]
	movss	xmm0, DWORD PTR tv252[ebp]
	movss	DWORD PTR [eax], xmm0

; 232  : 		tmp1 = Row[1][0]; tmp2 = Row[1][1];

	push	0
	mov	ecx, 16					; 00000010H
	shl	ecx, 0
	add	ecx, DWORD PTR _this$[ebp]
	call	??AVector4@@QAEAAMH@Z			; Vector4::operator[]
	movss	xmm0, DWORD PTR [eax]
	movss	DWORD PTR _tmp1$[ebp], xmm0
	push	1
	mov	ecx, 16					; 00000010H
	shl	ecx, 0
	add	ecx, DWORD PTR _this$[ebp]
	call	??AVector4@@QAEAAMH@Z			; Vector4::operator[]
	movss	xmm0, DWORD PTR [eax]
	movss	DWORD PTR _tmp2$[ebp], xmm0

; 233  : 		Row[1][0] = (float)( c*tmp1 + s*tmp2);

	movss	xmm0, DWORD PTR _c$[ebp]
	mulss	xmm0, DWORD PTR _tmp1$[ebp]
	movss	xmm1, DWORD PTR _s$[ebp]
	mulss	xmm1, DWORD PTR _tmp2$[ebp]
	addss	xmm0, xmm1
	push	0
	mov	ecx, 16					; 00000010H
	shl	ecx, 0
	add	ecx, DWORD PTR _this$[ebp]
	movss	DWORD PTR tv254[ebp], xmm0
	call	??AVector4@@QAEAAMH@Z			; Vector4::operator[]
	movss	xmm0, DWORD PTR tv254[ebp]
	movss	DWORD PTR [eax], xmm0

; 234  : 		Row[1][1] = (float)(-s*tmp1 + c*tmp2);

	movss	xmm0, DWORD PTR _s$[ebp]
	xorps	xmm0, DWORD PTR __xmm@80000000800000008000000080000000
	mulss	xmm0, DWORD PTR _tmp1$[ebp]
	movss	xmm1, DWORD PTR _c$[ebp]
	mulss	xmm1, DWORD PTR _tmp2$[ebp]
	addss	xmm0, xmm1
	push	1
	mov	ecx, 16					; 00000010H
	shl	ecx, 0
	add	ecx, DWORD PTR _this$[ebp]
	movss	DWORD PTR tv256[ebp], xmm0
	call	??AVector4@@QAEAAMH@Z			; Vector4::operator[]
	movss	xmm0, DWORD PTR tv256[ebp]
	movss	DWORD PTR [eax], xmm0

; 235  : 		tmp1 = Row[2][0]; tmp2 = Row[2][1];

	push	0
	mov	ecx, 16					; 00000010H
	shl	ecx, 1
	add	ecx, DWORD PTR _this$[ebp]
	call	??AVector4@@QAEAAMH@Z			; Vector4::operator[]
	movss	xmm0, DWORD PTR [eax]
	movss	DWORD PTR _tmp1$[ebp], xmm0
	push	1
	mov	ecx, 16					; 00000010H
	shl	ecx, 1
	add	ecx, DWORD PTR _this$[ebp]
	call	??AVector4@@QAEAAMH@Z			; Vector4::operator[]
	movss	xmm0, DWORD PTR [eax]
	movss	DWORD PTR _tmp2$[ebp], xmm0

; 236  : 		Row[2][0] = (float)( c*tmp1 + s*tmp2);

	movss	xmm0, DWORD PTR _c$[ebp]
	mulss	xmm0, DWORD PTR _tmp1$[ebp]
	movss	xmm1, DWORD PTR _s$[ebp]
	mulss	xmm1, DWORD PTR _tmp2$[ebp]
	addss	xmm0, xmm1
	push	0
	mov	ecx, 16					; 00000010H
	shl	ecx, 1
	add	ecx, DWORD PTR _this$[ebp]
	movss	DWORD PTR tv258[ebp], xmm0
	call	??AVector4@@QAEAAMH@Z			; Vector4::operator[]
	movss	xmm0, DWORD PTR tv258[ebp]
	movss	DWORD PTR [eax], xmm0

; 237  : 		Row[2][1] = (float)(-s*tmp1 + c*tmp2);

	movss	xmm0, DWORD PTR _s$[ebp]
	xorps	xmm0, DWORD PTR __xmm@80000000800000008000000080000000
	mulss	xmm0, DWORD PTR _tmp1$[ebp]
	movss	xmm1, DWORD PTR _c$[ebp]
	mulss	xmm1, DWORD PTR _tmp2$[ebp]
	addss	xmm0, xmm1
	push	1
	mov	ecx, 16					; 00000010H
	shl	ecx, 1
	add	ecx, DWORD PTR _this$[ebp]
	movss	DWORD PTR tv260[ebp], xmm0
	call	??AVector4@@QAEAAMH@Z			; Vector4::operator[]
	movss	xmm0, DWORD PTR tv260[ebp]
	movss	DWORD PTR [eax], xmm0

; 238  : 	}

	pop	edi
	pop	esi
	pop	ebx
	mov	esp, ebp
	pop	ebp
	ret	4
?Rotate_Z@Matrix3D@@QAEXM@Z ENDP			; Matrix3D::Rotate_Z
_TEXT	ENDS
; Function compile flags: /Odtp /ZI
; File x:\github\renegade\dragonade_rxd\scripts\matrix3d.h
;	COMDAT ?Rotate_Y@Matrix3D@@QAEXM@Z
_TEXT	SEGMENT
tv257 = -88						; size = 4
tv255 = -88						; size = 4
tv253 = -88						; size = 4
tv251 = -88						; size = 4
tv249 = -88						; size = 4
tv247 = -88						; size = 4
_c$ = -20						; size = 4
_s$ = -16						; size = 4
_tmp2$ = -12						; size = 4
_tmp1$ = -8						; size = 4
_this$ = -4						; size = 4
_theta$ = 8						; size = 4
?Rotate_Y@Matrix3D@@QAEXM@Z PROC			; Matrix3D::Rotate_Y, COMDAT
; _this$ = ecx

; 208  : 	{

	push	ebp
	mov	ebp, esp
	sub	esp, 88					; 00000058H
	push	ebx
	push	esi
	push	edi
	mov	DWORD PTR _this$[ebp], ecx

; 209  : 		float tmp1,tmp2;
; 210  : 		float s,c;
; 211  : 		s = sinf(theta);

	push	ecx
	movss	xmm0, DWORD PTR _theta$[ebp]
	movss	DWORD PTR [esp], xmm0
	call	_sinf
	add	esp, 4
	fstp	DWORD PTR _s$[ebp]

; 212  : 		c = cosf(theta);

	push	ecx
	movss	xmm0, DWORD PTR _theta$[ebp]
	movss	DWORD PTR [esp], xmm0
	call	_cosf
	add	esp, 4
	fstp	DWORD PTR _c$[ebp]

; 213  : 		tmp1 = Row[0][0]; tmp2 = Row[0][2];

	push	0
	mov	ecx, 16					; 00000010H
	imul	ecx, 0
	add	ecx, DWORD PTR _this$[ebp]
	call	??AVector4@@QAEAAMH@Z			; Vector4::operator[]
	movss	xmm0, DWORD PTR [eax]
	movss	DWORD PTR _tmp1$[ebp], xmm0
	push	2
	mov	ecx, 16					; 00000010H
	imul	ecx, 0
	add	ecx, DWORD PTR _this$[ebp]
	call	??AVector4@@QAEAAMH@Z			; Vector4::operator[]
	movss	xmm0, DWORD PTR [eax]
	movss	DWORD PTR _tmp2$[ebp], xmm0

; 214  : 		Row[0][0] = (float)(c*tmp1 - s*tmp2);

	movss	xmm0, DWORD PTR _c$[ebp]
	mulss	xmm0, DWORD PTR _tmp1$[ebp]
	movss	xmm1, DWORD PTR _s$[ebp]
	mulss	xmm1, DWORD PTR _tmp2$[ebp]
	subss	xmm0, xmm1
	push	0
	mov	ecx, 16					; 00000010H
	imul	ecx, 0
	add	ecx, DWORD PTR _this$[ebp]
	movss	DWORD PTR tv247[ebp], xmm0
	call	??AVector4@@QAEAAMH@Z			; Vector4::operator[]
	movss	xmm0, DWORD PTR tv247[ebp]
	movss	DWORD PTR [eax], xmm0

; 215  : 		Row[0][2] = (float)(s*tmp1 + c*tmp2);

	movss	xmm0, DWORD PTR _s$[ebp]
	mulss	xmm0, DWORD PTR _tmp1$[ebp]
	movss	xmm1, DWORD PTR _c$[ebp]
	mulss	xmm1, DWORD PTR _tmp2$[ebp]
	addss	xmm0, xmm1
	push	2
	mov	ecx, 16					; 00000010H
	imul	ecx, 0
	add	ecx, DWORD PTR _this$[ebp]
	movss	DWORD PTR tv249[ebp], xmm0
	call	??AVector4@@QAEAAMH@Z			; Vector4::operator[]
	movss	xmm0, DWORD PTR tv249[ebp]
	movss	DWORD PTR [eax], xmm0

; 216  : 		tmp1 = Row[1][0]; tmp2 = Row[1][2];

	push	0
	mov	ecx, 16					; 00000010H
	shl	ecx, 0
	add	ecx, DWORD PTR _this$[ebp]
	call	??AVector4@@QAEAAMH@Z			; Vector4::operator[]
	movss	xmm0, DWORD PTR [eax]
	movss	DWORD PTR _tmp1$[ebp], xmm0
	push	2
	mov	ecx, 16					; 00000010H
	shl	ecx, 0
	add	ecx, DWORD PTR _this$[ebp]
	call	??AVector4@@QAEAAMH@Z			; Vector4::operator[]
	movss	xmm0, DWORD PTR [eax]
	movss	DWORD PTR _tmp2$[ebp], xmm0

; 217  : 		Row[1][0] = (float)(c*tmp1 - s*tmp2);

	movss	xmm0, DWORD PTR _c$[ebp]
	mulss	xmm0, DWORD PTR _tmp1$[ebp]
	movss	xmm1, DWORD PTR _s$[ebp]
	mulss	xmm1, DWORD PTR _tmp2$[ebp]
	subss	xmm0, xmm1
	push	0
	mov	ecx, 16					; 00000010H
	shl	ecx, 0
	add	ecx, DWORD PTR _this$[ebp]
	movss	DWORD PTR tv251[ebp], xmm0
	call	??AVector4@@QAEAAMH@Z			; Vector4::operator[]
	movss	xmm0, DWORD PTR tv251[ebp]
	movss	DWORD PTR [eax], xmm0

; 218  : 		Row[1][2] = (float)(s*tmp1 + c*tmp2);

	movss	xmm0, DWORD PTR _s$[ebp]
	mulss	xmm0, DWORD PTR _tmp1$[ebp]
	movss	xmm1, DWORD PTR _c$[ebp]
	mulss	xmm1, DWORD PTR _tmp2$[ebp]
	addss	xmm0, xmm1
	push	2
	mov	ecx, 16					; 00000010H
	shl	ecx, 0
	add	ecx, DWORD PTR _this$[ebp]
	movss	DWORD PTR tv253[ebp], xmm0
	call	??AVector4@@QAEAAMH@Z			; Vector4::operator[]
	movss	xmm0, DWORD PTR tv253[ebp]
	movss	DWORD PTR [eax], xmm0

; 219  : 		tmp1 = Row[2][0]; tmp2 = Row[2][2];

	push	0
	mov	ecx, 16					; 00000010H
	shl	ecx, 1
	add	ecx, DWORD PTR _this$[ebp]
	call	??AVector4@@QAEAAMH@Z			; Vector4::operator[]
	movss	xmm0, DWORD PTR [eax]
	movss	DWORD PTR _tmp1$[ebp], xmm0
	push	2
	mov	ecx, 16					; 00000010H
	shl	ecx, 1
	add	ecx, DWORD PTR _this$[ebp]
	call	??AVector4@@QAEAAMH@Z			; Vector4::operator[]
	movss	xmm0, DWORD PTR [eax]
	movss	DWORD PTR _tmp2$[ebp], xmm0

; 220  : 		Row[2][0] = (float)(c*tmp1 - s*tmp2);

	movss	xmm0, DWORD PTR _c$[ebp]
	mulss	xmm0, DWORD PTR _tmp1$[ebp]
	movss	xmm1, DWORD PTR _s$[ebp]
	mulss	xmm1, DWORD PTR _tmp2$[ebp]
	subss	xmm0, xmm1
	push	0
	mov	ecx, 16					; 00000010H
	shl	ecx, 1
	add	ecx, DWORD PTR _this$[ebp]
	movss	DWORD PTR tv255[ebp], xmm0
	call	??AVector4@@QAEAAMH@Z			; Vector4::operator[]
	movss	xmm0, DWORD PTR tv255[ebp]
	movss	DWORD PTR [eax], xmm0

; 221  : 		Row[2][2] = (float)(s*tmp1 + c*tmp2);

	movss	xmm0, DWORD PTR _s$[ebp]
	mulss	xmm0, DWORD PTR _tmp1$[ebp]
	movss	xmm1, DWORD PTR _c$[ebp]
	mulss	xmm1, DWORD PTR _tmp2$[ebp]
	addss	xmm0, xmm1
	push	2
	mov	ecx, 16					; 00000010H
	shl	ecx, 1
	add	ecx, DWORD PTR _this$[ebp]
	movss	DWORD PTR tv257[ebp], xmm0
	call	??AVector4@@QAEAAMH@Z			; Vector4::operator[]
	movss	xmm0, DWORD PTR tv257[ebp]
	movss	DWORD PTR [eax], xmm0

; 222  : 	}

	pop	edi
	pop	esi
	pop	ebx
	mov	esp, ebp
	pop	ebp
	ret	4
?Rotate_Y@Matrix3D@@QAEXM@Z ENDP			; Matrix3D::Rotate_Y
_TEXT	ENDS
; Function compile flags: /Odtp /ZI
; File x:\github\renegade\dragonade_rxd\scripts\matrix3d.h
;	COMDAT ?Rotate_X@Matrix3D@@QAEXM@Z
_TEXT	SEGMENT
tv260 = -88						; size = 4
tv258 = -88						; size = 4
tv256 = -88						; size = 4
tv254 = -88						; size = 4
tv252 = -88						; size = 4
tv250 = -88						; size = 4
_c$ = -20						; size = 4
_s$ = -16						; size = 4
_tmp2$ = -12						; size = 4
_tmp1$ = -8						; size = 4
_this$ = -4						; size = 4
_theta$ = 8						; size = 4
?Rotate_X@Matrix3D@@QAEXM@Z PROC			; Matrix3D::Rotate_X, COMDAT
; _this$ = ecx

; 192  : 	{

	push	ebp
	mov	ebp, esp
	sub	esp, 88					; 00000058H
	push	ebx
	push	esi
	push	edi
	mov	DWORD PTR _this$[ebp], ecx

; 193  : 		float tmp1,tmp2;
; 194  : 		float s,c;
; 195  : 		s = sinf(theta);

	push	ecx
	movss	xmm0, DWORD PTR _theta$[ebp]
	movss	DWORD PTR [esp], xmm0
	call	_sinf
	add	esp, 4
	fstp	DWORD PTR _s$[ebp]

; 196  : 		c = cosf(theta);

	push	ecx
	movss	xmm0, DWORD PTR _theta$[ebp]
	movss	DWORD PTR [esp], xmm0
	call	_cosf
	add	esp, 4
	fstp	DWORD PTR _c$[ebp]

; 197  : 		tmp1 = Row[0][1]; tmp2 = Row[0][2];

	push	1
	mov	ecx, 16					; 00000010H
	imul	ecx, 0
	add	ecx, DWORD PTR _this$[ebp]
	call	??AVector4@@QAEAAMH@Z			; Vector4::operator[]
	movss	xmm0, DWORD PTR [eax]
	movss	DWORD PTR _tmp1$[ebp], xmm0
	push	2
	mov	ecx, 16					; 00000010H
	imul	ecx, 0
	add	ecx, DWORD PTR _this$[ebp]
	call	??AVector4@@QAEAAMH@Z			; Vector4::operator[]
	movss	xmm0, DWORD PTR [eax]
	movss	DWORD PTR _tmp2$[ebp], xmm0

; 198  : 		Row[0][1] = (float)( c*tmp1 + s*tmp2);

	movss	xmm0, DWORD PTR _c$[ebp]
	mulss	xmm0, DWORD PTR _tmp1$[ebp]
	movss	xmm1, DWORD PTR _s$[ebp]
	mulss	xmm1, DWORD PTR _tmp2$[ebp]
	addss	xmm0, xmm1
	push	1
	mov	ecx, 16					; 00000010H
	imul	ecx, 0
	add	ecx, DWORD PTR _this$[ebp]
	movss	DWORD PTR tv250[ebp], xmm0
	call	??AVector4@@QAEAAMH@Z			; Vector4::operator[]
	movss	xmm0, DWORD PTR tv250[ebp]
	movss	DWORD PTR [eax], xmm0

; 199  : 		Row[0][2] = (float)(-s*tmp1 + c*tmp2);

	movss	xmm0, DWORD PTR _s$[ebp]
	xorps	xmm0, DWORD PTR __xmm@80000000800000008000000080000000
	mulss	xmm0, DWORD PTR _tmp1$[ebp]
	movss	xmm1, DWORD PTR _c$[ebp]
	mulss	xmm1, DWORD PTR _tmp2$[ebp]
	addss	xmm0, xmm1
	push	2
	mov	ecx, 16					; 00000010H
	imul	ecx, 0
	add	ecx, DWORD PTR _this$[ebp]
	movss	DWORD PTR tv252[ebp], xmm0
	call	??AVector4@@QAEAAMH@Z			; Vector4::operator[]
	movss	xmm0, DWORD PTR tv252[ebp]
	movss	DWORD PTR [eax], xmm0

; 200  : 		tmp1 = Row[1][1]; tmp2 = Row[1][2];

	push	1
	mov	ecx, 16					; 00000010H
	shl	ecx, 0
	add	ecx, DWORD PTR _this$[ebp]
	call	??AVector4@@QAEAAMH@Z			; Vector4::operator[]
	movss	xmm0, DWORD PTR [eax]
	movss	DWORD PTR _tmp1$[ebp], xmm0
	push	2
	mov	ecx, 16					; 00000010H
	shl	ecx, 0
	add	ecx, DWORD PTR _this$[ebp]
	call	??AVector4@@QAEAAMH@Z			; Vector4::operator[]
	movss	xmm0, DWORD PTR [eax]
	movss	DWORD PTR _tmp2$[ebp], xmm0

; 201  : 		Row[1][1] = (float)( c*tmp1 + s*tmp2);

	movss	xmm0, DWORD PTR _c$[ebp]
	mulss	xmm0, DWORD PTR _tmp1$[ebp]
	movss	xmm1, DWORD PTR _s$[ebp]
	mulss	xmm1, DWORD PTR _tmp2$[ebp]
	addss	xmm0, xmm1
	push	1
	mov	ecx, 16					; 00000010H
	shl	ecx, 0
	add	ecx, DWORD PTR _this$[ebp]
	movss	DWORD PTR tv254[ebp], xmm0
	call	??AVector4@@QAEAAMH@Z			; Vector4::operator[]
	movss	xmm0, DWORD PTR tv254[ebp]
	movss	DWORD PTR [eax], xmm0

; 202  : 		Row[1][2] = (float)(-s*tmp1 + c*tmp2);

	movss	xmm0, DWORD PTR _s$[ebp]
	xorps	xmm0, DWORD PTR __xmm@80000000800000008000000080000000
	mulss	xmm0, DWORD PTR _tmp1$[ebp]
	movss	xmm1, DWORD PTR _c$[ebp]
	mulss	xmm1, DWORD PTR _tmp2$[ebp]
	addss	xmm0, xmm1
	push	2
	mov	ecx, 16					; 00000010H
	shl	ecx, 0
	add	ecx, DWORD PTR _this$[ebp]
	movss	DWORD PTR tv256[ebp], xmm0
	call	??AVector4@@QAEAAMH@Z			; Vector4::operator[]
	movss	xmm0, DWORD PTR tv256[ebp]
	movss	DWORD PTR [eax], xmm0

; 203  : 		tmp1 = Row[2][1]; tmp2 = Row[2][2];

	push	1
	mov	ecx, 16					; 00000010H
	shl	ecx, 1
	add	ecx, DWORD PTR _this$[ebp]
	call	??AVector4@@QAEAAMH@Z			; Vector4::operator[]
	movss	xmm0, DWORD PTR [eax]
	movss	DWORD PTR _tmp1$[ebp], xmm0
	push	2
	mov	ecx, 16					; 00000010H
	shl	ecx, 1
	add	ecx, DWORD PTR _this$[ebp]
	call	??AVector4@@QAEAAMH@Z			; Vector4::operator[]
	movss	xmm0, DWORD PTR [eax]
	movss	DWORD PTR _tmp2$[ebp], xmm0

; 204  : 		Row[2][1] = (float)( c*tmp1 + s*tmp2);

	movss	xmm0, DWORD PTR _c$[ebp]
	mulss	xmm0, DWORD PTR _tmp1$[ebp]
	movss	xmm1, DWORD PTR _s$[ebp]
	mulss	xmm1, DWORD PTR _tmp2$[ebp]
	addss	xmm0, xmm1
	push	1
	mov	ecx, 16					; 00000010H
	shl	ecx, 1
	add	ecx, DWORD PTR _this$[ebp]
	movss	DWORD PTR tv258[ebp], xmm0
	call	??AVector4@@QAEAAMH@Z			; Vector4::operator[]
	movss	xmm0, DWORD PTR tv258[ebp]
	movss	DWORD PTR [eax], xmm0

; 205  : 		Row[2][2] = (float)(-s*tmp1 + c*tmp2);

	movss	xmm0, DWORD PTR _s$[ebp]
	xorps	xmm0, DWORD PTR __xmm@80000000800000008000000080000000
	mulss	xmm0, DWORD PTR _tmp1$[ebp]
	movss	xmm1, DWORD PTR _c$[ebp]
	mulss	xmm1, DWORD PTR _tmp2$[ebp]
	addss	xmm0, xmm1
	push	2
	mov	ecx, 16					; 00000010H
	shl	ecx, 1
	add	ecx, DWORD PTR _this$[ebp]
	movss	DWORD PTR tv260[ebp], xmm0
	call	??AVector4@@QAEAAMH@Z			; Vector4::operator[]
	movss	xmm0, DWORD PTR tv260[ebp]
	movss	DWORD PTR [eax], xmm0

; 206  : 	}

	pop	edi
	pop	esi
	pop	ebx
	mov	esp, ebp
	pop	ebp
	ret	4
?Rotate_X@Matrix3D@@QAEXM@Z ENDP			; Matrix3D::Rotate_X
_TEXT	ENDS
; Function compile flags: /Odtp /ZI
; File x:\github\renegade\dragonade_rxd\scripts\matrix3d.h
;	COMDAT ?Translate_Z@Matrix3D@@QAEXM@Z
_TEXT	SEGMENT
tv142 = -72						; size = 4
tv94 = -72						; size = 4
tv78 = -72						; size = 4
_this$ = -4						; size = 4
_z$ = 8							; size = 4
?Translate_Z@Matrix3D@@QAEXM@Z PROC			; Matrix3D::Translate_Z, COMDAT
; _this$ = ecx

; 186  : 	{

	push	ebp
	mov	ebp, esp
	sub	esp, 72					; 00000048H
	push	ebx
	push	esi
	push	edi
	mov	DWORD PTR _this$[ebp], ecx

; 187  : 		Row[0][3]  += (float)(Row[0][2]*z);

	push	3
	mov	ecx, 16					; 00000010H
	imul	ecx, 0
	add	ecx, DWORD PTR _this$[ebp]
	call	??AVector4@@QAEAAMH@Z			; Vector4::operator[]
	mov	DWORD PTR tv78[ebp], eax
	push	2
	mov	ecx, 16					; 00000010H
	imul	ecx, 0
	add	ecx, DWORD PTR _this$[ebp]
	call	??AVector4@@QAEAAMH@Z			; Vector4::operator[]
	movss	xmm0, DWORD PTR [eax]
	mulss	xmm0, DWORD PTR _z$[ebp]
	mov	eax, DWORD PTR tv78[ebp]
	addss	xmm0, DWORD PTR [eax]
	mov	ecx, DWORD PTR tv78[ebp]
	movss	DWORD PTR [ecx], xmm0

; 188  : 		Row[1][3]  += (float)(Row[1][2]*z);

	push	3
	mov	ecx, 16					; 00000010H
	shl	ecx, 0
	add	ecx, DWORD PTR _this$[ebp]
	call	??AVector4@@QAEAAMH@Z			; Vector4::operator[]
	mov	DWORD PTR tv94[ebp], eax
	push	2
	mov	ecx, 16					; 00000010H
	shl	ecx, 0
	add	ecx, DWORD PTR _this$[ebp]
	call	??AVector4@@QAEAAMH@Z			; Vector4::operator[]
	movss	xmm0, DWORD PTR [eax]
	mulss	xmm0, DWORD PTR _z$[ebp]
	mov	eax, DWORD PTR tv94[ebp]
	addss	xmm0, DWORD PTR [eax]
	mov	ecx, DWORD PTR tv94[ebp]
	movss	DWORD PTR [ecx], xmm0

; 189  : 		Row[2][3]  += (float)(Row[2][2]*z);

	push	3
	mov	ecx, 16					; 00000010H
	shl	ecx, 1
	add	ecx, DWORD PTR _this$[ebp]
	call	??AVector4@@QAEAAMH@Z			; Vector4::operator[]
	mov	DWORD PTR tv142[ebp], eax
	push	2
	mov	ecx, 16					; 00000010H
	shl	ecx, 1
	add	ecx, DWORD PTR _this$[ebp]
	call	??AVector4@@QAEAAMH@Z			; Vector4::operator[]
	movss	xmm0, DWORD PTR [eax]
	mulss	xmm0, DWORD PTR _z$[ebp]
	mov	eax, DWORD PTR tv142[ebp]
	addss	xmm0, DWORD PTR [eax]
	mov	ecx, DWORD PTR tv142[ebp]
	movss	DWORD PTR [ecx], xmm0

; 190  : 	}

	pop	edi
	pop	esi
	pop	ebx
	mov	esp, ebp
	pop	ebp
	ret	4
?Translate_Z@Matrix3D@@QAEXM@Z ENDP			; Matrix3D::Translate_Z
_TEXT	ENDS
; Function compile flags: /Odtp /ZI
; File x:\github\renegade\dragonade_rxd\scripts\matrix3d.h
;	COMDAT ?Translate_Y@Matrix3D@@QAEXM@Z
_TEXT	SEGMENT
tv142 = -72						; size = 4
tv94 = -72						; size = 4
tv78 = -72						; size = 4
_this$ = -4						; size = 4
_y$ = 8							; size = 4
?Translate_Y@Matrix3D@@QAEXM@Z PROC			; Matrix3D::Translate_Y, COMDAT
; _this$ = ecx

; 180  : 	{

	push	ebp
	mov	ebp, esp
	sub	esp, 72					; 00000048H
	push	ebx
	push	esi
	push	edi
	mov	DWORD PTR _this$[ebp], ecx

; 181  : 		Row[0][3]  += (float)(Row[0][1]*y);

	push	3
	mov	ecx, 16					; 00000010H
	imul	ecx, 0
	add	ecx, DWORD PTR _this$[ebp]
	call	??AVector4@@QAEAAMH@Z			; Vector4::operator[]
	mov	DWORD PTR tv78[ebp], eax
	push	1
	mov	ecx, 16					; 00000010H
	imul	ecx, 0
	add	ecx, DWORD PTR _this$[ebp]
	call	??AVector4@@QAEAAMH@Z			; Vector4::operator[]
	movss	xmm0, DWORD PTR [eax]
	mulss	xmm0, DWORD PTR _y$[ebp]
	mov	eax, DWORD PTR tv78[ebp]
	addss	xmm0, DWORD PTR [eax]
	mov	ecx, DWORD PTR tv78[ebp]
	movss	DWORD PTR [ecx], xmm0

; 182  : 		Row[1][3]  += (float)(Row[1][1]*y);

	push	3
	mov	ecx, 16					; 00000010H
	shl	ecx, 0
	add	ecx, DWORD PTR _this$[ebp]
	call	??AVector4@@QAEAAMH@Z			; Vector4::operator[]
	mov	DWORD PTR tv94[ebp], eax
	push	1
	mov	ecx, 16					; 00000010H
	shl	ecx, 0
	add	ecx, DWORD PTR _this$[ebp]
	call	??AVector4@@QAEAAMH@Z			; Vector4::operator[]
	movss	xmm0, DWORD PTR [eax]
	mulss	xmm0, DWORD PTR _y$[ebp]
	mov	eax, DWORD PTR tv94[ebp]
	addss	xmm0, DWORD PTR [eax]
	mov	ecx, DWORD PTR tv94[ebp]
	movss	DWORD PTR [ecx], xmm0

; 183  : 		Row[2][3]  += (float)(Row[2][1]*y);

	push	3
	mov	ecx, 16					; 00000010H
	shl	ecx, 1
	add	ecx, DWORD PTR _this$[ebp]
	call	??AVector4@@QAEAAMH@Z			; Vector4::operator[]
	mov	DWORD PTR tv142[ebp], eax
	push	1
	mov	ecx, 16					; 00000010H
	shl	ecx, 1
	add	ecx, DWORD PTR _this$[ebp]
	call	??AVector4@@QAEAAMH@Z			; Vector4::operator[]
	movss	xmm0, DWORD PTR [eax]
	mulss	xmm0, DWORD PTR _y$[ebp]
	mov	eax, DWORD PTR tv142[ebp]
	addss	xmm0, DWORD PTR [eax]
	mov	ecx, DWORD PTR tv142[ebp]
	movss	DWORD PTR [ecx], xmm0

; 184  : 	}

	pop	edi
	pop	esi
	pop	ebx
	mov	esp, ebp
	pop	ebp
	ret	4
?Translate_Y@Matrix3D@@QAEXM@Z ENDP			; Matrix3D::Translate_Y
_TEXT	ENDS
; Function compile flags: /Odtp /ZI
; File x:\github\renegade\dragonade_rxd\scripts\matrix3d.h
;	COMDAT ?Translate_X@Matrix3D@@QAEXM@Z
_TEXT	SEGMENT
tv142 = -72						; size = 4
tv94 = -72						; size = 4
tv78 = -72						; size = 4
_this$ = -4						; size = 4
_x$ = 8							; size = 4
?Translate_X@Matrix3D@@QAEXM@Z PROC			; Matrix3D::Translate_X, COMDAT
; _this$ = ecx

; 174  : 	{

	push	ebp
	mov	ebp, esp
	sub	esp, 72					; 00000048H
	push	ebx
	push	esi
	push	edi
	mov	DWORD PTR _this$[ebp], ecx

; 175  : 		Row[0][3]  += (float)(Row[0][0]*x);

	push	3
	mov	ecx, 16					; 00000010H
	imul	ecx, 0
	add	ecx, DWORD PTR _this$[ebp]
	call	??AVector4@@QAEAAMH@Z			; Vector4::operator[]
	mov	DWORD PTR tv78[ebp], eax
	push	0
	mov	ecx, 16					; 00000010H
	imul	ecx, 0
	add	ecx, DWORD PTR _this$[ebp]
	call	??AVector4@@QAEAAMH@Z			; Vector4::operator[]
	movss	xmm0, DWORD PTR [eax]
	mulss	xmm0, DWORD PTR _x$[ebp]
	mov	eax, DWORD PTR tv78[ebp]
	addss	xmm0, DWORD PTR [eax]
	mov	ecx, DWORD PTR tv78[ebp]
	movss	DWORD PTR [ecx], xmm0

; 176  : 		Row[1][3]  += (float)(Row[1][0]*x);

	push	3
	mov	ecx, 16					; 00000010H
	shl	ecx, 0
	add	ecx, DWORD PTR _this$[ebp]
	call	??AVector4@@QAEAAMH@Z			; Vector4::operator[]
	mov	DWORD PTR tv94[ebp], eax
	push	0
	mov	ecx, 16					; 00000010H
	shl	ecx, 0
	add	ecx, DWORD PTR _this$[ebp]
	call	??AVector4@@QAEAAMH@Z			; Vector4::operator[]
	movss	xmm0, DWORD PTR [eax]
	mulss	xmm0, DWORD PTR _x$[ebp]
	mov	eax, DWORD PTR tv94[ebp]
	addss	xmm0, DWORD PTR [eax]
	mov	ecx, DWORD PTR tv94[ebp]
	movss	DWORD PTR [ecx], xmm0

; 177  : 		Row[2][3]  += (float)(Row[2][0]*x);

	push	3
	mov	ecx, 16					; 00000010H
	shl	ecx, 1
	add	ecx, DWORD PTR _this$[ebp]
	call	??AVector4@@QAEAAMH@Z			; Vector4::operator[]
	mov	DWORD PTR tv142[ebp], eax
	push	0
	mov	ecx, 16					; 00000010H
	shl	ecx, 1
	add	ecx, DWORD PTR _this$[ebp]
	call	??AVector4@@QAEAAMH@Z			; Vector4::operator[]
	movss	xmm0, DWORD PTR [eax]
	mulss	xmm0, DWORD PTR _x$[ebp]
	mov	eax, DWORD PTR tv142[ebp]
	addss	xmm0, DWORD PTR [eax]
	mov	ecx, DWORD PTR tv142[ebp]
	movss	DWORD PTR [ecx], xmm0

; 178  : 	}

	pop	edi
	pop	esi
	pop	ebx
	mov	esp, ebp
	pop	ebp
	ret	4
?Translate_X@Matrix3D@@QAEXM@Z ENDP			; Matrix3D::Translate_X
_TEXT	ENDS
; Function compile flags: /Odtp /ZI
; File x:\github\renegade\dragonade_rxd\scripts\matrix3d.h
;	COMDAT ?Translate@Matrix3D@@QAEXABVVector3@@@Z
_TEXT	SEGMENT
tv278 = -80						; size = 4
tv274 = -80						; size = 4
tv270 = -80						; size = 4
tv276 = -76						; size = 4
tv272 = -76						; size = 4
tv268 = -76						; size = 4
tv214 = -72						; size = 4
tv174 = -72						; size = 4
tv134 = -72						; size = 4
_this$ = -4						; size = 4
_t$ = 8							; size = 4
?Translate@Matrix3D@@QAEXABVVector3@@@Z PROC		; Matrix3D::Translate, COMDAT
; _this$ = ecx

; 168  : 	{

	push	ebp
	mov	ebp, esp
	sub	esp, 80					; 00000050H
	push	ebx
	push	esi
	push	edi
	mov	DWORD PTR _this$[ebp], ecx

; 169  : 		Row[0][3]  += Row[0][0]*t[0] + Row[0][1]*t[1] + Row[0][2]*t[2];

	push	3
	mov	ecx, 16					; 00000010H
	imul	ecx, 0
	add	ecx, DWORD PTR _this$[ebp]
	call	??AVector4@@QAEAAMH@Z			; Vector4::operator[]
	mov	DWORD PTR tv134[ebp], eax
	push	0
	mov	ecx, 16					; 00000010H
	imul	ecx, 0
	add	ecx, DWORD PTR _this$[ebp]
	call	??AVector4@@QAEAAMH@Z			; Vector4::operator[]
	mov	esi, eax
	push	0
	mov	ecx, DWORD PTR _t$[ebp]
	call	??AVector3@@QBEABMH@Z			; Vector3::operator[]
	movss	xmm0, DWORD PTR [esi]
	mulss	xmm0, DWORD PTR [eax]
	push	1
	mov	ecx, 16					; 00000010H
	imul	ecx, 0
	add	ecx, DWORD PTR _this$[ebp]
	movss	DWORD PTR tv268[ebp], xmm0
	call	??AVector4@@QAEAAMH@Z			; Vector4::operator[]
	mov	esi, eax
	push	1
	mov	ecx, DWORD PTR _t$[ebp]
	call	??AVector3@@QBEABMH@Z			; Vector3::operator[]
	movss	xmm0, DWORD PTR [esi]
	mulss	xmm0, DWORD PTR [eax]
	movss	xmm1, DWORD PTR tv268[ebp]
	addss	xmm1, xmm0
	push	2
	mov	ecx, 16					; 00000010H
	imul	ecx, 0
	add	ecx, DWORD PTR _this$[ebp]
	movss	DWORD PTR tv270[ebp], xmm1
	call	??AVector4@@QAEAAMH@Z			; Vector4::operator[]
	mov	esi, eax
	push	2
	mov	ecx, DWORD PTR _t$[ebp]
	call	??AVector3@@QBEABMH@Z			; Vector3::operator[]
	movss	xmm0, DWORD PTR [esi]
	mulss	xmm0, DWORD PTR [eax]
	movss	xmm1, DWORD PTR tv270[ebp]
	addss	xmm1, xmm0
	mov	eax, DWORD PTR tv134[ebp]
	addss	xmm1, DWORD PTR [eax]
	mov	ecx, DWORD PTR tv134[ebp]
	movss	DWORD PTR [ecx], xmm1

; 170  : 		Row[1][3]  += Row[1][0]*t[0] + Row[1][1]*t[1] + Row[1][2]*t[2];

	push	3
	mov	ecx, 16					; 00000010H
	shl	ecx, 0
	add	ecx, DWORD PTR _this$[ebp]
	call	??AVector4@@QAEAAMH@Z			; Vector4::operator[]
	mov	DWORD PTR tv174[ebp], eax
	push	0
	mov	ecx, 16					; 00000010H
	shl	ecx, 0
	add	ecx, DWORD PTR _this$[ebp]
	call	??AVector4@@QAEAAMH@Z			; Vector4::operator[]
	mov	esi, eax
	push	0
	mov	ecx, DWORD PTR _t$[ebp]
	call	??AVector3@@QBEABMH@Z			; Vector3::operator[]
	movss	xmm0, DWORD PTR [esi]
	mulss	xmm0, DWORD PTR [eax]
	push	1
	mov	ecx, 16					; 00000010H
	shl	ecx, 0
	add	ecx, DWORD PTR _this$[ebp]
	movss	DWORD PTR tv272[ebp], xmm0
	call	??AVector4@@QAEAAMH@Z			; Vector4::operator[]
	mov	esi, eax
	push	1
	mov	ecx, DWORD PTR _t$[ebp]
	call	??AVector3@@QBEABMH@Z			; Vector3::operator[]
	movss	xmm0, DWORD PTR [esi]
	mulss	xmm0, DWORD PTR [eax]
	movss	xmm1, DWORD PTR tv272[ebp]
	addss	xmm1, xmm0
	push	2
	mov	ecx, 16					; 00000010H
	shl	ecx, 0
	add	ecx, DWORD PTR _this$[ebp]
	movss	DWORD PTR tv274[ebp], xmm1
	call	??AVector4@@QAEAAMH@Z			; Vector4::operator[]
	mov	esi, eax
	push	2
	mov	ecx, DWORD PTR _t$[ebp]
	call	??AVector3@@QBEABMH@Z			; Vector3::operator[]
	movss	xmm0, DWORD PTR [esi]
	mulss	xmm0, DWORD PTR [eax]
	movss	xmm1, DWORD PTR tv274[ebp]
	addss	xmm1, xmm0
	mov	eax, DWORD PTR tv174[ebp]
	addss	xmm1, DWORD PTR [eax]
	mov	ecx, DWORD PTR tv174[ebp]
	movss	DWORD PTR [ecx], xmm1

; 171  : 		Row[2][3]  += Row[2][0]*t[0] + Row[2][1]*t[1] + Row[2][2]*t[2];

	push	3
	mov	ecx, 16					; 00000010H
	shl	ecx, 1
	add	ecx, DWORD PTR _this$[ebp]
	call	??AVector4@@QAEAAMH@Z			; Vector4::operator[]
	mov	DWORD PTR tv214[ebp], eax
	push	0
	mov	ecx, 16					; 00000010H
	shl	ecx, 1
	add	ecx, DWORD PTR _this$[ebp]
	call	??AVector4@@QAEAAMH@Z			; Vector4::operator[]
	mov	esi, eax
	push	0
	mov	ecx, DWORD PTR _t$[ebp]
	call	??AVector3@@QBEABMH@Z			; Vector3::operator[]
	movss	xmm0, DWORD PTR [esi]
	mulss	xmm0, DWORD PTR [eax]
	push	1
	mov	ecx, 16					; 00000010H
	shl	ecx, 1
	add	ecx, DWORD PTR _this$[ebp]
	movss	DWORD PTR tv276[ebp], xmm0
	call	??AVector4@@QAEAAMH@Z			; Vector4::operator[]
	mov	esi, eax
	push	1
	mov	ecx, DWORD PTR _t$[ebp]
	call	??AVector3@@QBEABMH@Z			; Vector3::operator[]
	movss	xmm0, DWORD PTR [esi]
	mulss	xmm0, DWORD PTR [eax]
	movss	xmm1, DWORD PTR tv276[ebp]
	addss	xmm1, xmm0
	push	2
	mov	ecx, 16					; 00000010H
	shl	ecx, 1
	add	ecx, DWORD PTR _this$[ebp]
	movss	DWORD PTR tv278[ebp], xmm1
	call	??AVector4@@QAEAAMH@Z			; Vector4::operator[]
	mov	esi, eax
	push	2
	mov	ecx, DWORD PTR _t$[ebp]
	call	??AVector3@@QBEABMH@Z			; Vector3::operator[]
	movss	xmm0, DWORD PTR [esi]
	mulss	xmm0, DWORD PTR [eax]
	movss	xmm1, DWORD PTR tv278[ebp]
	addss	xmm1, xmm0
	mov	eax, DWORD PTR tv214[ebp]
	addss	xmm1, DWORD PTR [eax]
	mov	ecx, DWORD PTR tv214[ebp]
	movss	DWORD PTR [ecx], xmm1

; 172  : 	}

	pop	edi
	pop	esi
	pop	ebx
	mov	esp, ebp
	pop	ebp
	ret	4
?Translate@Matrix3D@@QAEXABVVector3@@@Z ENDP		; Matrix3D::Translate
_TEXT	ENDS
; Function compile flags: /Odtp /ZI
; File x:\github\renegade\dragonade_rxd\scripts\matrix3d.h
;	COMDAT ?Translate@Matrix3D@@QAEXMMM@Z
_TEXT	SEGMENT
tv245 = -80						; size = 4
tv241 = -80						; size = 4
tv237 = -80						; size = 4
tv243 = -76						; size = 4
tv239 = -76						; size = 4
tv235 = -76						; size = 4
tv190 = -72						; size = 4
tv158 = -72						; size = 4
tv94 = -72						; size = 4
_this$ = -4						; size = 4
_x$ = 8							; size = 4
_y$ = 12						; size = 4
_z$ = 16						; size = 4
?Translate@Matrix3D@@QAEXMMM@Z PROC			; Matrix3D::Translate, COMDAT
; _this$ = ecx

; 162  : 	{

	push	ebp
	mov	ebp, esp
	sub	esp, 80					; 00000050H
	push	ebx
	push	esi
	push	edi
	mov	DWORD PTR _this$[ebp], ecx

; 163  : 		Row[0][3]  += (float)(Row[0][0]*x + Row[0][1]*y + Row[0][2]*z);

	push	3
	mov	ecx, 16					; 00000010H
	imul	ecx, 0
	add	ecx, DWORD PTR _this$[ebp]
	call	??AVector4@@QAEAAMH@Z			; Vector4::operator[]
	mov	DWORD PTR tv94[ebp], eax
	push	0
	mov	ecx, 16					; 00000010H
	imul	ecx, 0
	add	ecx, DWORD PTR _this$[ebp]
	call	??AVector4@@QAEAAMH@Z			; Vector4::operator[]
	movss	xmm0, DWORD PTR [eax]
	mulss	xmm0, DWORD PTR _x$[ebp]
	push	1
	mov	ecx, 16					; 00000010H
	imul	ecx, 0
	add	ecx, DWORD PTR _this$[ebp]
	movss	DWORD PTR tv235[ebp], xmm0
	call	??AVector4@@QAEAAMH@Z			; Vector4::operator[]
	movss	xmm0, DWORD PTR [eax]
	mulss	xmm0, DWORD PTR _y$[ebp]
	movss	xmm1, DWORD PTR tv235[ebp]
	addss	xmm1, xmm0
	push	2
	mov	ecx, 16					; 00000010H
	imul	ecx, 0
	add	ecx, DWORD PTR _this$[ebp]
	movss	DWORD PTR tv237[ebp], xmm1
	call	??AVector4@@QAEAAMH@Z			; Vector4::operator[]
	movss	xmm0, DWORD PTR [eax]
	mulss	xmm0, DWORD PTR _z$[ebp]
	movss	xmm1, DWORD PTR tv237[ebp]
	addss	xmm1, xmm0
	mov	eax, DWORD PTR tv94[ebp]
	addss	xmm1, DWORD PTR [eax]
	mov	ecx, DWORD PTR tv94[ebp]
	movss	DWORD PTR [ecx], xmm1

; 164  : 		Row[1][3]  += (float)(Row[1][0]*x + Row[1][1]*y + Row[1][2]*z);

	push	3
	mov	ecx, 16					; 00000010H
	shl	ecx, 0
	add	ecx, DWORD PTR _this$[ebp]
	call	??AVector4@@QAEAAMH@Z			; Vector4::operator[]
	mov	DWORD PTR tv158[ebp], eax
	push	0
	mov	ecx, 16					; 00000010H
	shl	ecx, 0
	add	ecx, DWORD PTR _this$[ebp]
	call	??AVector4@@QAEAAMH@Z			; Vector4::operator[]
	movss	xmm0, DWORD PTR [eax]
	mulss	xmm0, DWORD PTR _x$[ebp]
	push	1
	mov	ecx, 16					; 00000010H
	shl	ecx, 0
	add	ecx, DWORD PTR _this$[ebp]
	movss	DWORD PTR tv239[ebp], xmm0
	call	??AVector4@@QAEAAMH@Z			; Vector4::operator[]
	movss	xmm0, DWORD PTR [eax]
	mulss	xmm0, DWORD PTR _y$[ebp]
	movss	xmm1, DWORD PTR tv239[ebp]
	addss	xmm1, xmm0
	push	2
	mov	ecx, 16					; 00000010H
	shl	ecx, 0
	add	ecx, DWORD PTR _this$[ebp]
	movss	DWORD PTR tv241[ebp], xmm1
	call	??AVector4@@QAEAAMH@Z			; Vector4::operator[]
	movss	xmm0, DWORD PTR [eax]
	mulss	xmm0, DWORD PTR _z$[ebp]
	movss	xmm1, DWORD PTR tv241[ebp]
	addss	xmm1, xmm0
	mov	eax, DWORD PTR tv158[ebp]
	addss	xmm1, DWORD PTR [eax]
	mov	ecx, DWORD PTR tv158[ebp]
	movss	DWORD PTR [ecx], xmm1

; 165  : 		Row[2][3]  += (float)(Row[2][0]*x + Row[2][1]*y + Row[2][2]*z);

	push	3
	mov	ecx, 16					; 00000010H
	shl	ecx, 1
	add	ecx, DWORD PTR _this$[ebp]
	call	??AVector4@@QAEAAMH@Z			; Vector4::operator[]
	mov	DWORD PTR tv190[ebp], eax
	push	0
	mov	ecx, 16					; 00000010H
	shl	ecx, 1
	add	ecx, DWORD PTR _this$[ebp]
	call	??AVector4@@QAEAAMH@Z			; Vector4::operator[]
	movss	xmm0, DWORD PTR [eax]
	mulss	xmm0, DWORD PTR _x$[ebp]
	push	1
	mov	ecx, 16					; 00000010H
	shl	ecx, 1
	add	ecx, DWORD PTR _this$[ebp]
	movss	DWORD PTR tv243[ebp], xmm0
	call	??AVector4@@QAEAAMH@Z			; Vector4::operator[]
	movss	xmm0, DWORD PTR [eax]
	mulss	xmm0, DWORD PTR _y$[ebp]
	movss	xmm1, DWORD PTR tv243[ebp]
	addss	xmm1, xmm0
	push	2
	mov	ecx, 16					; 00000010H
	shl	ecx, 1
	add	ecx, DWORD PTR _this$[ebp]
	movss	DWORD PTR tv245[ebp], xmm1
	call	??AVector4@@QAEAAMH@Z			; Vector4::operator[]
	movss	xmm0, DWORD PTR [eax]
	mulss	xmm0, DWORD PTR _z$[ebp]
	movss	xmm1, DWORD PTR tv245[ebp]
	addss	xmm1, xmm0
	mov	eax, DWORD PTR tv190[ebp]
	addss	xmm1, DWORD PTR [eax]
	mov	ecx, DWORD PTR tv190[ebp]
	movss	DWORD PTR [ecx], xmm1

; 166  : 	}

	pop	edi
	pop	esi
	pop	ebx
	mov	esp, ebp
	pop	ebp
	ret	12					; 0000000cH
?Translate@Matrix3D@@QAEXMMM@Z ENDP			; Matrix3D::Translate
_TEXT	ENDS
; Function compile flags: /Odtp /ZI
; File x:\github\renegade\dragonade_rxd\scripts\matrix3d.h
;	COMDAT ?Make_Identity@Matrix3D@@QAEXXZ
_TEXT	SEGMENT
_this$ = -4						; size = 4
?Make_Identity@Matrix3D@@QAEXXZ PROC			; Matrix3D::Make_Identity, COMDAT
; _this$ = ecx

; 156  : 	{

	push	ebp
	mov	ebp, esp
	sub	esp, 68					; 00000044H
	push	ebx
	push	esi
	push	edi
	mov	DWORD PTR _this$[ebp], ecx

; 157  : 		Row[0].Set(1.0f,0.0f,0.0f,0.0f);

	push	ecx
	movss	xmm0, DWORD PTR __real@00000000
	movss	DWORD PTR [esp], xmm0
	push	ecx
	movss	xmm0, DWORD PTR __real@00000000
	movss	DWORD PTR [esp], xmm0
	push	ecx
	movss	xmm0, DWORD PTR __real@00000000
	movss	DWORD PTR [esp], xmm0
	push	ecx
	movss	xmm0, DWORD PTR __real@3f800000
	movss	DWORD PTR [esp], xmm0
	mov	ecx, 16					; 00000010H
	imul	ecx, 0
	add	ecx, DWORD PTR _this$[ebp]
	call	?Set@Vector4@@QAEXMMMM@Z		; Vector4::Set

; 158  : 		Row[1].Set(0.0f,1.0f,0.0f,0.0f);

	push	ecx
	movss	xmm0, DWORD PTR __real@00000000
	movss	DWORD PTR [esp], xmm0
	push	ecx
	movss	xmm0, DWORD PTR __real@00000000
	movss	DWORD PTR [esp], xmm0
	push	ecx
	movss	xmm0, DWORD PTR __real@3f800000
	movss	DWORD PTR [esp], xmm0
	push	ecx
	movss	xmm0, DWORD PTR __real@00000000
	movss	DWORD PTR [esp], xmm0
	mov	ecx, 16					; 00000010H
	shl	ecx, 0
	add	ecx, DWORD PTR _this$[ebp]
	call	?Set@Vector4@@QAEXMMMM@Z		; Vector4::Set

; 159  : 		Row[2].Set(0.0f,0.0f,1.0f,0.0f);

	push	ecx
	movss	xmm0, DWORD PTR __real@00000000
	movss	DWORD PTR [esp], xmm0
	push	ecx
	movss	xmm0, DWORD PTR __real@3f800000
	movss	DWORD PTR [esp], xmm0
	push	ecx
	movss	xmm0, DWORD PTR __real@00000000
	movss	DWORD PTR [esp], xmm0
	push	ecx
	movss	xmm0, DWORD PTR __real@00000000
	movss	DWORD PTR [esp], xmm0
	mov	ecx, 16					; 00000010H
	shl	ecx, 1
	add	ecx, DWORD PTR _this$[ebp]
	call	?Set@Vector4@@QAEXMMMM@Z		; Vector4::Set

; 160  : 	}

	pop	edi
	pop	esi
	pop	ebx
	mov	esp, ebp
	pop	ebp
	ret	0
?Make_Identity@Matrix3D@@QAEXXZ ENDP			; Matrix3D::Make_Identity
_TEXT	ENDS
; Function compile flags: /Odtp /ZI
; File x:\github\renegade\dragonade_rxd\scripts\matrix3d.h
;	COMDAT ?Adjust_Z_Translation@Matrix3D@@QAEXM@Z
_TEXT	SEGMENT
tv70 = -72						; size = 4
_this$ = -4						; size = 4
_z$ = 8							; size = 4
?Adjust_Z_Translation@Matrix3D@@QAEXM@Z PROC		; Matrix3D::Adjust_Z_Translation, COMDAT
; _this$ = ecx

; 154  : 	TT_INLINE void Adjust_Z_Translation(float z) { Row[2][3] += z; };

	push	ebp
	mov	ebp, esp
	sub	esp, 72					; 00000048H
	push	ebx
	push	esi
	push	edi
	mov	DWORD PTR _this$[ebp], ecx
	push	3
	mov	ecx, 16					; 00000010H
	shl	ecx, 1
	add	ecx, DWORD PTR _this$[ebp]
	call	??AVector4@@QAEAAMH@Z			; Vector4::operator[]
	mov	DWORD PTR tv70[ebp], eax
	mov	eax, DWORD PTR tv70[ebp]
	movss	xmm0, DWORD PTR [eax]
	addss	xmm0, DWORD PTR _z$[ebp]
	mov	ecx, DWORD PTR tv70[ebp]
	movss	DWORD PTR [ecx], xmm0
	pop	edi
	pop	esi
	pop	ebx
	mov	esp, ebp
	pop	ebp
	ret	4
?Adjust_Z_Translation@Matrix3D@@QAEXM@Z ENDP		; Matrix3D::Adjust_Z_Translation
_TEXT	ENDS
; Function compile flags: /Odtp /ZI
; File x:\github\renegade\dragonade_rxd\scripts\matrix3d.h
;	COMDAT ?Adjust_Y_Translation@Matrix3D@@QAEXM@Z
_TEXT	SEGMENT
tv70 = -72						; size = 4
_this$ = -4						; size = 4
_y$ = 8							; size = 4
?Adjust_Y_Translation@Matrix3D@@QAEXM@Z PROC		; Matrix3D::Adjust_Y_Translation, COMDAT
; _this$ = ecx

; 153  : 	TT_INLINE void Adjust_Y_Translation(float y) { Row[1][3] += y; };

	push	ebp
	mov	ebp, esp
	sub	esp, 72					; 00000048H
	push	ebx
	push	esi
	push	edi
	mov	DWORD PTR _this$[ebp], ecx
	push	3
	mov	ecx, 16					; 00000010H
	shl	ecx, 0
	add	ecx, DWORD PTR _this$[ebp]
	call	??AVector4@@QAEAAMH@Z			; Vector4::operator[]
	mov	DWORD PTR tv70[ebp], eax
	mov	eax, DWORD PTR tv70[ebp]
	movss	xmm0, DWORD PTR [eax]
	addss	xmm0, DWORD PTR _y$[ebp]
	mov	ecx, DWORD PTR tv70[ebp]
	movss	DWORD PTR [ecx], xmm0
	pop	edi
	pop	esi
	pop	ebx
	mov	esp, ebp
	pop	ebp
	ret	4
?Adjust_Y_Translation@Matrix3D@@QAEXM@Z ENDP		; Matrix3D::Adjust_Y_Translation
_TEXT	ENDS
; Function compile flags: /Odtp /ZI
; File x:\github\renegade\dragonade_rxd\scripts\matrix3d.h
;	COMDAT ?Adjust_X_Translation@Matrix3D@@QAEXM@Z
_TEXT	SEGMENT
tv70 = -72						; size = 4
_this$ = -4						; size = 4
_x$ = 8							; size = 4
?Adjust_X_Translation@Matrix3D@@QAEXM@Z PROC		; Matrix3D::Adjust_X_Translation, COMDAT
; _this$ = ecx

; 152  : 	TT_INLINE void Adjust_X_Translation(float x) { Row[0][3] += x; };

	push	ebp
	mov	ebp, esp
	sub	esp, 72					; 00000048H
	push	ebx
	push	esi
	push	edi
	mov	DWORD PTR _this$[ebp], ecx
	push	3
	mov	ecx, 16					; 00000010H
	imul	ecx, 0
	add	ecx, DWORD PTR _this$[ebp]
	call	??AVector4@@QAEAAMH@Z			; Vector4::operator[]
	mov	DWORD PTR tv70[ebp], eax
	mov	eax, DWORD PTR tv70[ebp]
	movss	xmm0, DWORD PTR [eax]
	addss	xmm0, DWORD PTR _x$[ebp]
	mov	ecx, DWORD PTR tv70[ebp]
	movss	DWORD PTR [ecx], xmm0
	pop	edi
	pop	esi
	pop	ebx
	mov	esp, ebp
	pop	ebp
	ret	4
?Adjust_X_Translation@Matrix3D@@QAEXM@Z ENDP		; Matrix3D::Adjust_X_Translation
_TEXT	ENDS
; Function compile flags: /Odtp /ZI
; File x:\github\renegade\dragonade_rxd\scripts\matrix3d.h
;	COMDAT ?Adjust_Translation@Matrix3D@@QAEXABVVector3@@@Z
_TEXT	SEGMENT
tv95 = -72						; size = 4
tv84 = -72						; size = 4
tv73 = -72						; size = 4
_this$ = -4						; size = 4
_t$ = 8							; size = 4
?Adjust_Translation@Matrix3D@@QAEXABVVector3@@@Z PROC	; Matrix3D::Adjust_Translation, COMDAT
; _this$ = ecx

; 151  : 	TT_INLINE void Adjust_Translation(const Vector3 & t) { Row[0][3] += t[0]; Row[1][3] += t[1]; Row[2][3] += t[2]; };

	push	ebp
	mov	ebp, esp
	sub	esp, 72					; 00000048H
	push	ebx
	push	esi
	push	edi
	mov	DWORD PTR _this$[ebp], ecx
	push	3
	mov	ecx, 16					; 00000010H
	imul	ecx, 0
	add	ecx, DWORD PTR _this$[ebp]
	call	??AVector4@@QAEAAMH@Z			; Vector4::operator[]
	mov	DWORD PTR tv73[ebp], eax
	push	0
	mov	ecx, DWORD PTR _t$[ebp]
	call	??AVector3@@QBEABMH@Z			; Vector3::operator[]
	mov	ecx, DWORD PTR tv73[ebp]
	movss	xmm0, DWORD PTR [ecx]
	addss	xmm0, DWORD PTR [eax]
	mov	edx, DWORD PTR tv73[ebp]
	movss	DWORD PTR [edx], xmm0
	push	3
	mov	ecx, 16					; 00000010H
	shl	ecx, 0
	add	ecx, DWORD PTR _this$[ebp]
	call	??AVector4@@QAEAAMH@Z			; Vector4::operator[]
	mov	DWORD PTR tv84[ebp], eax
	push	1
	mov	ecx, DWORD PTR _t$[ebp]
	call	??AVector3@@QBEABMH@Z			; Vector3::operator[]
	mov	ecx, DWORD PTR tv84[ebp]
	movss	xmm0, DWORD PTR [ecx]
	addss	xmm0, DWORD PTR [eax]
	mov	edx, DWORD PTR tv84[ebp]
	movss	DWORD PTR [edx], xmm0
	push	3
	mov	ecx, 16					; 00000010H
	shl	ecx, 1
	add	ecx, DWORD PTR _this$[ebp]
	call	??AVector4@@QAEAAMH@Z			; Vector4::operator[]
	mov	DWORD PTR tv95[ebp], eax
	push	2
	mov	ecx, DWORD PTR _t$[ebp]
	call	??AVector3@@QBEABMH@Z			; Vector3::operator[]
	mov	ecx, DWORD PTR tv95[ebp]
	movss	xmm0, DWORD PTR [ecx]
	addss	xmm0, DWORD PTR [eax]
	mov	edx, DWORD PTR tv95[ebp]
	movss	DWORD PTR [edx], xmm0
	pop	edi
	pop	esi
	pop	ebx
	mov	esp, ebp
	pop	ebp
	ret	4
?Adjust_Translation@Matrix3D@@QAEXABVVector3@@@Z ENDP	; Matrix3D::Adjust_Translation
_TEXT	ENDS
; Function compile flags: /Odtp /ZI
; File x:\github\renegade\dragonade_rxd\scripts\matrix3d.h
;	COMDAT ?Set_Z_Translation@Matrix3D@@QAEXM@Z
_TEXT	SEGMENT
_this$ = -4						; size = 4
_z$ = 8							; size = 4
?Set_Z_Translation@Matrix3D@@QAEXM@Z PROC		; Matrix3D::Set_Z_Translation, COMDAT
; _this$ = ecx

; 150  : 	TT_INLINE void Set_Z_Translation(float z) { Row[2][3] = z; };

	push	ebp
	mov	ebp, esp
	sub	esp, 68					; 00000044H
	push	ebx
	push	esi
	push	edi
	mov	DWORD PTR _this$[ebp], ecx
	push	3
	mov	ecx, 16					; 00000010H
	shl	ecx, 1
	add	ecx, DWORD PTR _this$[ebp]
	call	??AVector4@@QAEAAMH@Z			; Vector4::operator[]
	movss	xmm0, DWORD PTR _z$[ebp]
	movss	DWORD PTR [eax], xmm0
	pop	edi
	pop	esi
	pop	ebx
	mov	esp, ebp
	pop	ebp
	ret	4
?Set_Z_Translation@Matrix3D@@QAEXM@Z ENDP		; Matrix3D::Set_Z_Translation
_TEXT	ENDS
; Function compile flags: /Odtp /ZI
; File x:\github\renegade\dragonade_rxd\scripts\matrix3d.h
;	COMDAT ?Set_Y_Translation@Matrix3D@@QAEXM@Z
_TEXT	SEGMENT
_this$ = -4						; size = 4
_y$ = 8							; size = 4
?Set_Y_Translation@Matrix3D@@QAEXM@Z PROC		; Matrix3D::Set_Y_Translation, COMDAT
; _this$ = ecx

; 149  : 	TT_INLINE void Set_Y_Translation(float y) { Row[1][3] = y; };

	push	ebp
	mov	ebp, esp
	sub	esp, 68					; 00000044H
	push	ebx
	push	esi
	push	edi
	mov	DWORD PTR _this$[ebp], ecx
	push	3
	mov	ecx, 16					; 00000010H
	shl	ecx, 0
	add	ecx, DWORD PTR _this$[ebp]
	call	??AVector4@@QAEAAMH@Z			; Vector4::operator[]
	movss	xmm0, DWORD PTR _y$[ebp]
	movss	DWORD PTR [eax], xmm0
	pop	edi
	pop	esi
	pop	ebx
	mov	esp, ebp
	pop	ebp
	ret	4
?Set_Y_Translation@Matrix3D@@QAEXM@Z ENDP		; Matrix3D::Set_Y_Translation
_TEXT	ENDS
; Function compile flags: /Odtp /ZI
; File x:\github\renegade\dragonade_rxd\scripts\matrix3d.h
;	COMDAT ?Set_X_Translation@Matrix3D@@QAEXM@Z
_TEXT	SEGMENT
_this$ = -4						; size = 4
_x$ = 8							; size = 4
?Set_X_Translation@Matrix3D@@QAEXM@Z PROC		; Matrix3D::Set_X_Translation, COMDAT
; _this$ = ecx

; 148  : 	TT_INLINE void Set_X_Translation(float x) { Row[0][3] = x; };

	push	ebp
	mov	ebp, esp
	sub	esp, 68					; 00000044H
	push	ebx
	push	esi
	push	edi
	mov	DWORD PTR _this$[ebp], ecx
	push	3
	mov	ecx, 16					; 00000010H
	imul	ecx, 0
	add	ecx, DWORD PTR _this$[ebp]
	call	??AVector4@@QAEAAMH@Z			; Vector4::operator[]
	movss	xmm0, DWORD PTR _x$[ebp]
	movss	DWORD PTR [eax], xmm0
	pop	edi
	pop	esi
	pop	ebx
	mov	esp, ebp
	pop	ebp
	ret	4
?Set_X_Translation@Matrix3D@@QAEXM@Z ENDP		; Matrix3D::Set_X_Translation
_TEXT	ENDS
; Function compile flags: /Odtp /ZI
; File x:\github\renegade\dragonade_rxd\scripts\matrix3d.h
;	COMDAT ?Get_Z_Translation@Matrix3D@@QBEMXZ
_TEXT	SEGMENT
_this$ = -4						; size = 4
?Get_Z_Translation@Matrix3D@@QBEMXZ PROC		; Matrix3D::Get_Z_Translation, COMDAT
; _this$ = ecx

; 147  : 	TT_INLINE float Get_Z_Translation(void) const { return Row[2][3]; };

	push	ebp
	mov	ebp, esp
	sub	esp, 68					; 00000044H
	push	ebx
	push	esi
	push	edi
	mov	DWORD PTR _this$[ebp], ecx
	push	3
	mov	ecx, 16					; 00000010H
	shl	ecx, 1
	add	ecx, DWORD PTR _this$[ebp]
	call	??AVector4@@QBEABMH@Z			; Vector4::operator[]
	fld	DWORD PTR [eax]
	pop	edi
	pop	esi
	pop	ebx
	mov	esp, ebp
	pop	ebp
	ret	0
?Get_Z_Translation@Matrix3D@@QBEMXZ ENDP		; Matrix3D::Get_Z_Translation
_TEXT	ENDS
; Function compile flags: /Odtp /ZI
; File x:\github\renegade\dragonade_rxd\scripts\matrix3d.h
;	COMDAT ?Get_Y_Translation@Matrix3D@@QBEMXZ
_TEXT	SEGMENT
_this$ = -4						; size = 4
?Get_Y_Translation@Matrix3D@@QBEMXZ PROC		; Matrix3D::Get_Y_Translation, COMDAT
; _this$ = ecx

; 146  : 	TT_INLINE float Get_Y_Translation(void) const { return Row[1][3]; };

	push	ebp
	mov	ebp, esp
	sub	esp, 68					; 00000044H
	push	ebx
	push	esi
	push	edi
	mov	DWORD PTR _this$[ebp], ecx
	push	3
	mov	ecx, 16					; 00000010H
	shl	ecx, 0
	add	ecx, DWORD PTR _this$[ebp]
	call	??AVector4@@QBEABMH@Z			; Vector4::operator[]
	fld	DWORD PTR [eax]
	pop	edi
	pop	esi
	pop	ebx
	mov	esp, ebp
	pop	ebp
	ret	0
?Get_Y_Translation@Matrix3D@@QBEMXZ ENDP		; Matrix3D::Get_Y_Translation
_TEXT	ENDS
; Function compile flags: /Odtp /ZI
; File x:\github\renegade\dragonade_rxd\scripts\matrix3d.h
;	COMDAT ?Get_X_Translation@Matrix3D@@QBEMXZ
_TEXT	SEGMENT
_this$ = -4						; size = 4
?Get_X_Translation@Matrix3D@@QBEMXZ PROC		; Matrix3D::Get_X_Translation, COMDAT
; _this$ = ecx

; 145  : 	TT_INLINE float Get_X_Translation(void) const { return Row[0][3]; };

	push	ebp
	mov	ebp, esp
	sub	esp, 68					; 00000044H
	push	ebx
	push	esi
	push	edi
	mov	DWORD PTR _this$[ebp], ecx
	push	3
	mov	ecx, 16					; 00000010H
	imul	ecx, 0
	add	ecx, DWORD PTR _this$[ebp]
	call	??AVector4@@QBEABMH@Z			; Vector4::operator[]
	fld	DWORD PTR [eax]
	pop	edi
	pop	esi
	pop	ebx
	mov	esp, ebp
	pop	ebp
	ret	0
?Get_X_Translation@Matrix3D@@QBEMXZ ENDP		; Matrix3D::Get_X_Translation
_TEXT	ENDS
; Function compile flags: /Odtp /ZI
; File x:\github\renegade\dragonade_rxd\scripts\matrix3d.h
;	COMDAT ?Set_Translation@Matrix3D@@QAEXABVVector3@@@Z
_TEXT	SEGMENT
_this$ = -4						; size = 4
_t$ = 8							; size = 4
?Set_Translation@Matrix3D@@QAEXABVVector3@@@Z PROC	; Matrix3D::Set_Translation, COMDAT
; _this$ = ecx

; 143  : 	TT_INLINE void Set_Translation(const Vector3 & t)  { Row[0][3] = t[0]; Row[1][3] = t[1];Row[2][3] = t[2]; }

	push	ebp
	mov	ebp, esp
	sub	esp, 68					; 00000044H
	push	ebx
	push	esi
	push	edi
	mov	DWORD PTR _this$[ebp], ecx
	push	0
	mov	ecx, DWORD PTR _t$[ebp]
	call	??AVector3@@QBEABMH@Z			; Vector3::operator[]
	mov	esi, eax
	push	3
	mov	ecx, 16					; 00000010H
	imul	ecx, 0
	add	ecx, DWORD PTR _this$[ebp]
	call	??AVector4@@QAEAAMH@Z			; Vector4::operator[]
	mov	ecx, DWORD PTR [esi]
	mov	DWORD PTR [eax], ecx
	push	1
	mov	ecx, DWORD PTR _t$[ebp]
	call	??AVector3@@QBEABMH@Z			; Vector3::operator[]
	mov	esi, eax
	push	3
	mov	ecx, 16					; 00000010H
	shl	ecx, 0
	add	ecx, DWORD PTR _this$[ebp]
	call	??AVector4@@QAEAAMH@Z			; Vector4::operator[]
	mov	ecx, DWORD PTR [esi]
	mov	DWORD PTR [eax], ecx
	push	2
	mov	ecx, DWORD PTR _t$[ebp]
	call	??AVector3@@QBEABMH@Z			; Vector3::operator[]
	mov	esi, eax
	push	3
	mov	ecx, 16					; 00000010H
	shl	ecx, 1
	add	ecx, DWORD PTR _this$[ebp]
	call	??AVector4@@QAEAAMH@Z			; Vector4::operator[]
	mov	ecx, DWORD PTR [esi]
	mov	DWORD PTR [eax], ecx
	pop	edi
	pop	esi
	pop	ebx
	mov	esp, ebp
	pop	ebp
	ret	4
?Set_Translation@Matrix3D@@QAEXABVVector3@@@Z ENDP	; Matrix3D::Set_Translation
_TEXT	ENDS
; Function compile flags: /Odtp /ZI
; File x:\github\renegade\dragonade_rxd\scripts\matrix3d.h
;	COMDAT ?Get_Translation@Matrix3D@@QBEXPAVVector3@@@Z
_TEXT	SEGMENT
_this$ = -4						; size = 4
_set$ = 8						; size = 4
?Get_Translation@Matrix3D@@QBEXPAVVector3@@@Z PROC	; Matrix3D::Get_Translation, COMDAT
; _this$ = ecx

; 142  : 	TT_INLINE void Get_Translation(Vector3 * set) const { set->X = Row[0][3]; set->Y = Row[1][3]; set->Z = Row[2][3]; }

	push	ebp
	mov	ebp, esp
	sub	esp, 68					; 00000044H
	push	ebx
	push	esi
	push	edi
	mov	DWORD PTR _this$[ebp], ecx
	push	3
	mov	ecx, 16					; 00000010H
	imul	ecx, 0
	add	ecx, DWORD PTR _this$[ebp]
	call	??AVector4@@QBEABMH@Z			; Vector4::operator[]
	mov	ecx, DWORD PTR _set$[ebp]
	mov	edx, DWORD PTR [eax]
	mov	DWORD PTR [ecx], edx
	push	3
	mov	ecx, 16					; 00000010H
	shl	ecx, 0
	add	ecx, DWORD PTR _this$[ebp]
	call	??AVector4@@QBEABMH@Z			; Vector4::operator[]
	mov	ecx, DWORD PTR _set$[ebp]
	mov	edx, DWORD PTR [eax]
	mov	DWORD PTR [ecx+4], edx
	push	3
	mov	ecx, 16					; 00000010H
	shl	ecx, 1
	add	ecx, DWORD PTR _this$[ebp]
	call	??AVector4@@QBEABMH@Z			; Vector4::operator[]
	mov	ecx, DWORD PTR _set$[ebp]
	mov	edx, DWORD PTR [eax]
	mov	DWORD PTR [ecx+8], edx
	pop	edi
	pop	esi
	pop	ebx
	mov	esp, ebp
	pop	ebp
	ret	4
?Get_Translation@Matrix3D@@QBEXPAVVector3@@@Z ENDP	; Matrix3D::Get_Translation
_TEXT	ENDS
; Function compile flags: /Odtp /ZI
; File x:\github\renegade\dragonade_rxd\scripts\matrix3d.h
;	COMDAT ?Get_Translation@Matrix3D@@QBE?AVVector3@@XZ
_TEXT	SEGMENT
_this$ = -4						; size = 4
___$ReturnUdt$ = 8					; size = 4
?Get_Translation@Matrix3D@@QBE?AVVector3@@XZ PROC	; Matrix3D::Get_Translation, COMDAT
; _this$ = ecx

; 141  : 	TT_INLINE Vector3 Get_Translation(void) const { return Vector3(Row[0][3],Row[1][3],Row[2][3]); }

	push	ebp
	mov	ebp, esp
	sub	esp, 68					; 00000044H
	push	ebx
	push	esi
	push	edi
	mov	DWORD PTR _this$[ebp], ecx
	push	3
	mov	ecx, 16					; 00000010H
	shl	ecx, 1
	add	ecx, DWORD PTR _this$[ebp]
	call	??AVector4@@QBEABMH@Z			; Vector4::operator[]
	push	ecx
	movss	xmm0, DWORD PTR [eax]
	movss	DWORD PTR [esp], xmm0
	push	3
	mov	ecx, 16					; 00000010H
	shl	ecx, 0
	add	ecx, DWORD PTR _this$[ebp]
	call	??AVector4@@QBEABMH@Z			; Vector4::operator[]
	push	ecx
	movss	xmm0, DWORD PTR [eax]
	movss	DWORD PTR [esp], xmm0
	push	3
	mov	ecx, 16					; 00000010H
	imul	ecx, 0
	add	ecx, DWORD PTR _this$[ebp]
	call	??AVector4@@QBEABMH@Z			; Vector4::operator[]
	push	ecx
	movss	xmm0, DWORD PTR [eax]
	movss	DWORD PTR [esp], xmm0
	mov	ecx, DWORD PTR ___$ReturnUdt$[ebp]
	call	??0Vector3@@QAE@MMM@Z			; Vector3::Vector3
	mov	eax, DWORD PTR ___$ReturnUdt$[ebp]
	pop	edi
	pop	esi
	pop	ebx
	mov	esp, ebp
	pop	ebp
	ret	4
?Get_Translation@Matrix3D@@QBE?AVVector3@@XZ ENDP	; Matrix3D::Get_Translation
_TEXT	ENDS
; Function compile flags: /Odtp /ZI
; File x:\github\renegade\dragonade_rxd\scripts\matrix3d.h
;	COMDAT ?Set@Matrix3D@@QAEXABVVector3@@@Z
_TEXT	SEGMENT
_this$ = -4						; size = 4
_position$ = 8						; size = 4
?Set@Matrix3D@@QAEXABVVector3@@@Z PROC			; Matrix3D::Set, COMDAT
; _this$ = ecx

; 133  : 	{

	push	ebp
	mov	ebp, esp
	sub	esp, 68					; 00000044H
	push	ebx
	push	esi
	push	edi
	mov	DWORD PTR _this$[ebp], ecx

; 134  : 		Row[0].Set(1.0f,0.0f,0.0f,position[0]);

	push	0
	mov	ecx, DWORD PTR _position$[ebp]
	call	??AVector3@@QBEABMH@Z			; Vector3::operator[]
	push	ecx
	movss	xmm0, DWORD PTR [eax]
	movss	DWORD PTR [esp], xmm0
	push	ecx
	movss	xmm0, DWORD PTR __real@00000000
	movss	DWORD PTR [esp], xmm0
	push	ecx
	movss	xmm0, DWORD PTR __real@00000000
	movss	DWORD PTR [esp], xmm0
	push	ecx
	movss	xmm0, DWORD PTR __real@3f800000
	movss	DWORD PTR [esp], xmm0
	mov	ecx, 16					; 00000010H
	imul	ecx, 0
	add	ecx, DWORD PTR _this$[ebp]
	call	?Set@Vector4@@QAEXMMMM@Z		; Vector4::Set

; 135  : 		Row[1].Set(0.0f,1.0f,0.0f,position[1]);

	push	1
	mov	ecx, DWORD PTR _position$[ebp]
	call	??AVector3@@QBEABMH@Z			; Vector3::operator[]
	push	ecx
	movss	xmm0, DWORD PTR [eax]
	movss	DWORD PTR [esp], xmm0
	push	ecx
	movss	xmm0, DWORD PTR __real@00000000
	movss	DWORD PTR [esp], xmm0
	push	ecx
	movss	xmm0, DWORD PTR __real@3f800000
	movss	DWORD PTR [esp], xmm0
	push	ecx
	movss	xmm0, DWORD PTR __real@00000000
	movss	DWORD PTR [esp], xmm0
	mov	ecx, 16					; 00000010H
	shl	ecx, 0
	add	ecx, DWORD PTR _this$[ebp]
	call	?Set@Vector4@@QAEXMMMM@Z		; Vector4::Set

; 136  : 		Row[2].Set(0.0f,0.0f,1.0f,position[2]);

	push	2
	mov	ecx, DWORD PTR _position$[ebp]
	call	??AVector3@@QBEABMH@Z			; Vector3::operator[]
	push	ecx
	movss	xmm0, DWORD PTR [eax]
	movss	DWORD PTR [esp], xmm0
	push	ecx
	movss	xmm0, DWORD PTR __real@3f800000
	movss	DWORD PTR [esp], xmm0
	push	ecx
	movss	xmm0, DWORD PTR __real@00000000
	movss	DWORD PTR [esp], xmm0
	push	ecx
	movss	xmm0, DWORD PTR __real@00000000
	movss	DWORD PTR [esp], xmm0
	mov	ecx, 16					; 00000010H
	shl	ecx, 1
	add	ecx, DWORD PTR _this$[ebp]
	call	?Set@Vector4@@QAEXMMMM@Z		; Vector4::Set

; 137  : 	}

	pop	edi
	pop	esi
	pop	ebx
	mov	esp, ebp
	pop	ebp
	ret	4
?Set@Matrix3D@@QAEXABVVector3@@@Z ENDP			; Matrix3D::Set
_TEXT	ENDS
; Function compile flags: /Odtp /ZI
; File x:\github\renegade\dragonade_rxd\scripts\matrix3d.h
;	COMDAT ?Set@Matrix3D@@QAEXABVVector3@@MM@Z
_TEXT	SEGMENT
tv368 = -80						; size = 4
tv362 = -80						; size = 4
tv356 = -80						; size = 4
tv366 = -76						; size = 4
tv360 = -76						; size = 4
tv354 = -76						; size = 4
tv364 = -72						; size = 4
tv358 = -72						; size = 4
tv352 = -72						; size = 4
_this$ = -4						; size = 4
_axis$ = 8						; size = 4
_s$ = 12						; size = 4
_c$ = 16						; size = 4
?Set@Matrix3D@@QAEXABVVector3@@MM@Z PROC		; Matrix3D::Set, COMDAT
; _this$ = ecx

; 112  : 	{

	push	ebp
	mov	ebp, esp
	sub	esp, 80					; 00000050H
	push	ebx
	push	esi
	push	edi
	mov	DWORD PTR _this$[ebp], ecx

; 113  : 		Row[0].Set(
; 114  : 			(float)(axis[0]*axis[0] + c*(1.0f - axis[0]*axis[0])),
; 115  : 			(float)(axis[0]*axis[1]*(1.0f - c) - axis[2]*s),
; 116  : 			(float)(axis[2]*axis[0]*(1.0f - c) + axis[1]*s),
; 117  : 			0.0f
; 118  : 		);

	push	ecx
	movss	xmm0, DWORD PTR __real@00000000
	movss	DWORD PTR [esp], xmm0
	push	2
	mov	ecx, DWORD PTR _axis$[ebp]
	call	??AVector3@@QBEABMH@Z			; Vector3::operator[]
	mov	esi, eax
	push	0
	mov	ecx, DWORD PTR _axis$[ebp]
	call	??AVector3@@QBEABMH@Z			; Vector3::operator[]
	movss	xmm0, DWORD PTR [esi]
	mulss	xmm0, DWORD PTR [eax]
	movss	xmm1, DWORD PTR __real@3f800000
	subss	xmm1, DWORD PTR _c$[ebp]
	mulss	xmm0, xmm1
	push	1
	mov	ecx, DWORD PTR _axis$[ebp]
	movss	DWORD PTR tv352[ebp], xmm0
	call	??AVector3@@QBEABMH@Z			; Vector3::operator[]
	movss	xmm0, DWORD PTR [eax]
	mulss	xmm0, DWORD PTR _s$[ebp]
	movss	xmm1, DWORD PTR tv352[ebp]
	addss	xmm1, xmm0
	push	ecx
	movss	DWORD PTR [esp], xmm1
	push	0
	mov	ecx, DWORD PTR _axis$[ebp]
	call	??AVector3@@QBEABMH@Z			; Vector3::operator[]
	mov	esi, eax
	push	1
	mov	ecx, DWORD PTR _axis$[ebp]
	call	??AVector3@@QBEABMH@Z			; Vector3::operator[]
	movss	xmm0, DWORD PTR [esi]
	mulss	xmm0, DWORD PTR [eax]
	movss	xmm1, DWORD PTR __real@3f800000
	subss	xmm1, DWORD PTR _c$[ebp]
	mulss	xmm0, xmm1
	push	2
	mov	ecx, DWORD PTR _axis$[ebp]
	movss	DWORD PTR tv354[ebp], xmm0
	call	??AVector3@@QBEABMH@Z			; Vector3::operator[]
	movss	xmm0, DWORD PTR [eax]
	mulss	xmm0, DWORD PTR _s$[ebp]
	movss	xmm1, DWORD PTR tv354[ebp]
	subss	xmm1, xmm0
	push	ecx
	movss	DWORD PTR [esp], xmm1
	push	0
	mov	ecx, DWORD PTR _axis$[ebp]
	call	??AVector3@@QBEABMH@Z			; Vector3::operator[]
	mov	esi, eax
	push	0
	mov	ecx, DWORD PTR _axis$[ebp]
	call	??AVector3@@QBEABMH@Z			; Vector3::operator[]
	movss	xmm0, DWORD PTR [esi]
	mulss	xmm0, DWORD PTR [eax]
	push	0
	mov	ecx, DWORD PTR _axis$[ebp]
	movss	DWORD PTR tv356[ebp], xmm0
	call	??AVector3@@QBEABMH@Z			; Vector3::operator[]
	mov	esi, eax
	push	0
	mov	ecx, DWORD PTR _axis$[ebp]
	call	??AVector3@@QBEABMH@Z			; Vector3::operator[]
	movss	xmm0, DWORD PTR [esi]
	mulss	xmm0, DWORD PTR [eax]
	movss	xmm1, DWORD PTR __real@3f800000
	subss	xmm1, xmm0
	mulss	xmm1, DWORD PTR _c$[ebp]
	movss	xmm0, DWORD PTR tv356[ebp]
	addss	xmm0, xmm1
	push	ecx
	movss	DWORD PTR [esp], xmm0
	mov	ecx, 16					; 00000010H
	imul	ecx, 0
	add	ecx, DWORD PTR _this$[ebp]
	call	?Set@Vector4@@QAEXMMMM@Z		; Vector4::Set

; 119  : 		Row[1].Set(
; 120  : 			(float)(axis[0]*axis[1]*(1.0f - c) + axis[2]*s),
; 121  : 			(float)(axis[1]*axis[1] + c*(1.0f - axis[1]*axis[1])),
; 122  : 			(float)(axis[1]*axis[2]*(1.0f - c) - axis[0]*s),
; 123  : 			0.0f
; 124  : 		);

	push	ecx
	movss	xmm0, DWORD PTR __real@00000000
	movss	DWORD PTR [esp], xmm0
	push	1
	mov	ecx, DWORD PTR _axis$[ebp]
	call	??AVector3@@QBEABMH@Z			; Vector3::operator[]
	mov	esi, eax
	push	2
	mov	ecx, DWORD PTR _axis$[ebp]
	call	??AVector3@@QBEABMH@Z			; Vector3::operator[]
	movss	xmm0, DWORD PTR [esi]
	mulss	xmm0, DWORD PTR [eax]
	movss	xmm1, DWORD PTR __real@3f800000
	subss	xmm1, DWORD PTR _c$[ebp]
	mulss	xmm0, xmm1
	push	0
	mov	ecx, DWORD PTR _axis$[ebp]
	movss	DWORD PTR tv358[ebp], xmm0
	call	??AVector3@@QBEABMH@Z			; Vector3::operator[]
	movss	xmm0, DWORD PTR [eax]
	mulss	xmm0, DWORD PTR _s$[ebp]
	movss	xmm1, DWORD PTR tv358[ebp]
	subss	xmm1, xmm0
	push	ecx
	movss	DWORD PTR [esp], xmm1
	push	1
	mov	ecx, DWORD PTR _axis$[ebp]
	call	??AVector3@@QBEABMH@Z			; Vector3::operator[]
	mov	esi, eax
	push	1
	mov	ecx, DWORD PTR _axis$[ebp]
	call	??AVector3@@QBEABMH@Z			; Vector3::operator[]
	movss	xmm0, DWORD PTR [esi]
	mulss	xmm0, DWORD PTR [eax]
	push	1
	mov	ecx, DWORD PTR _axis$[ebp]
	movss	DWORD PTR tv360[ebp], xmm0
	call	??AVector3@@QBEABMH@Z			; Vector3::operator[]
	mov	esi, eax
	push	1
	mov	ecx, DWORD PTR _axis$[ebp]
	call	??AVector3@@QBEABMH@Z			; Vector3::operator[]
	movss	xmm0, DWORD PTR [esi]
	mulss	xmm0, DWORD PTR [eax]
	movss	xmm1, DWORD PTR __real@3f800000
	subss	xmm1, xmm0
	mulss	xmm1, DWORD PTR _c$[ebp]
	movss	xmm0, DWORD PTR tv360[ebp]
	addss	xmm0, xmm1
	push	ecx
	movss	DWORD PTR [esp], xmm0
	push	0
	mov	ecx, DWORD PTR _axis$[ebp]
	call	??AVector3@@QBEABMH@Z			; Vector3::operator[]
	mov	esi, eax
	push	1
	mov	ecx, DWORD PTR _axis$[ebp]
	call	??AVector3@@QBEABMH@Z			; Vector3::operator[]
	movss	xmm0, DWORD PTR [esi]
	mulss	xmm0, DWORD PTR [eax]
	movss	xmm1, DWORD PTR __real@3f800000
	subss	xmm1, DWORD PTR _c$[ebp]
	mulss	xmm0, xmm1
	push	2
	mov	ecx, DWORD PTR _axis$[ebp]
	movss	DWORD PTR tv362[ebp], xmm0
	call	??AVector3@@QBEABMH@Z			; Vector3::operator[]
	movss	xmm0, DWORD PTR [eax]
	mulss	xmm0, DWORD PTR _s$[ebp]
	movss	xmm1, DWORD PTR tv362[ebp]
	addss	xmm1, xmm0
	push	ecx
	movss	DWORD PTR [esp], xmm1
	mov	ecx, 16					; 00000010H
	shl	ecx, 0
	add	ecx, DWORD PTR _this$[ebp]
	call	?Set@Vector4@@QAEXMMMM@Z		; Vector4::Set

; 125  : 		Row[2].Set(
; 126  : 			(float)(axis[2]*axis[0]*(1.0f - c) - axis[1]*s),
; 127  : 			(float)(axis[1]*axis[2]*(1.0f - c) + axis[0]*s),
; 128  : 			(float)(axis[2]*axis[2] + c*(1 - axis[2]*axis[2])),
; 129  : 			0.0f
; 130  : 		);

	push	ecx
	movss	xmm0, DWORD PTR __real@00000000
	movss	DWORD PTR [esp], xmm0
	push	2
	mov	ecx, DWORD PTR _axis$[ebp]
	call	??AVector3@@QBEABMH@Z			; Vector3::operator[]
	mov	esi, eax
	push	2
	mov	ecx, DWORD PTR _axis$[ebp]
	call	??AVector3@@QBEABMH@Z			; Vector3::operator[]
	movss	xmm0, DWORD PTR [esi]
	mulss	xmm0, DWORD PTR [eax]
	push	2
	mov	ecx, DWORD PTR _axis$[ebp]
	movss	DWORD PTR tv364[ebp], xmm0
	call	??AVector3@@QBEABMH@Z			; Vector3::operator[]
	mov	esi, eax
	push	2
	mov	ecx, DWORD PTR _axis$[ebp]
	call	??AVector3@@QBEABMH@Z			; Vector3::operator[]
	movss	xmm0, DWORD PTR [esi]
	mulss	xmm0, DWORD PTR [eax]
	movss	xmm1, DWORD PTR __real@3f800000
	subss	xmm1, xmm0
	mulss	xmm1, DWORD PTR _c$[ebp]
	movss	xmm0, DWORD PTR tv364[ebp]
	addss	xmm0, xmm1
	push	ecx
	movss	DWORD PTR [esp], xmm0
	push	1
	mov	ecx, DWORD PTR _axis$[ebp]
	call	??AVector3@@QBEABMH@Z			; Vector3::operator[]
	mov	esi, eax
	push	2
	mov	ecx, DWORD PTR _axis$[ebp]
	call	??AVector3@@QBEABMH@Z			; Vector3::operator[]
	movss	xmm0, DWORD PTR [esi]
	mulss	xmm0, DWORD PTR [eax]
	movss	xmm1, DWORD PTR __real@3f800000
	subss	xmm1, DWORD PTR _c$[ebp]
	mulss	xmm0, xmm1
	push	0
	mov	ecx, DWORD PTR _axis$[ebp]
	movss	DWORD PTR tv366[ebp], xmm0
	call	??AVector3@@QBEABMH@Z			; Vector3::operator[]
	movss	xmm0, DWORD PTR [eax]
	mulss	xmm0, DWORD PTR _s$[ebp]
	movss	xmm1, DWORD PTR tv366[ebp]
	addss	xmm1, xmm0
	push	ecx
	movss	DWORD PTR [esp], xmm1
	push	2
	mov	ecx, DWORD PTR _axis$[ebp]
	call	??AVector3@@QBEABMH@Z			; Vector3::operator[]
	mov	esi, eax
	push	0
	mov	ecx, DWORD PTR _axis$[ebp]
	call	??AVector3@@QBEABMH@Z			; Vector3::operator[]
	movss	xmm0, DWORD PTR [esi]
	mulss	xmm0, DWORD PTR [eax]
	movss	xmm1, DWORD PTR __real@3f800000
	subss	xmm1, DWORD PTR _c$[ebp]
	mulss	xmm0, xmm1
	push	1
	mov	ecx, DWORD PTR _axis$[ebp]
	movss	DWORD PTR tv368[ebp], xmm0
	call	??AVector3@@QBEABMH@Z			; Vector3::operator[]
	movss	xmm0, DWORD PTR [eax]
	mulss	xmm0, DWORD PTR _s$[ebp]
	movss	xmm1, DWORD PTR tv368[ebp]
	subss	xmm1, xmm0
	push	ecx
	movss	DWORD PTR [esp], xmm1
	mov	ecx, 16					; 00000010H
	shl	ecx, 1
	add	ecx, DWORD PTR _this$[ebp]
	call	?Set@Vector4@@QAEXMMMM@Z		; Vector4::Set

; 131  : 	}

	pop	edi
	pop	esi
	pop	ebx
	mov	esp, ebp
	pop	ebp
	ret	12					; 0000000cH
?Set@Matrix3D@@QAEXABVVector3@@MM@Z ENDP		; Matrix3D::Set
_TEXT	ENDS
; Function compile flags: /Odtp /ZI
; File x:\github\renegade\dragonade_rxd\scripts\matrix3d.h
;	COMDAT ?Set@Matrix3D@@QAEXABVVector3@@M@Z
_TEXT	SEGMENT
_s$ = -12						; size = 4
_c$ = -8						; size = 4
_this$ = -4						; size = 4
_axis$ = 8						; size = 4
_angle$ = 12						; size = 4
?Set@Matrix3D@@QAEXABVVector3@@M@Z PROC			; Matrix3D::Set, COMDAT
; _this$ = ecx

; 106  : 	{

	push	ebp
	mov	ebp, esp
	sub	esp, 76					; 0000004cH
	push	ebx
	push	esi
	push	edi
	mov	DWORD PTR _this$[ebp], ecx

; 107  : 		float c = cosf(angle);

	push	ecx
	movss	xmm0, DWORD PTR _angle$[ebp]
	movss	DWORD PTR [esp], xmm0
	call	_cosf
	add	esp, 4
	fstp	DWORD PTR _c$[ebp]

; 108  : 		float s = sinf(angle);

	push	ecx
	movss	xmm0, DWORD PTR _angle$[ebp]
	movss	DWORD PTR [esp], xmm0
	call	_sinf
	add	esp, 4
	fstp	DWORD PTR _s$[ebp]

; 109  : 		Set(axis,s,c);

	push	ecx
	movss	xmm0, DWORD PTR _c$[ebp]
	movss	DWORD PTR [esp], xmm0
	push	ecx
	movss	xmm0, DWORD PTR _s$[ebp]
	movss	DWORD PTR [esp], xmm0
	mov	eax, DWORD PTR _axis$[ebp]
	push	eax
	mov	ecx, DWORD PTR _this$[ebp]
	call	?Set@Matrix3D@@QAEXABVVector3@@MM@Z	; Matrix3D::Set

; 110  : 	}

	pop	edi
	pop	esi
	pop	ebx
	mov	esp, ebp
	pop	ebp
	ret	8
?Set@Matrix3D@@QAEXABVVector3@@M@Z ENDP			; Matrix3D::Set
_TEXT	ENDS
; Function compile flags: /Odtp /ZI
; File x:\github\renegade\dragonade_rxd\scripts\matrix3d.h
;	COMDAT ?Set@Matrix3D@@QAEXABVVector3@@000@Z
_TEXT	SEGMENT
_this$ = -4						; size = 4
_x$ = 8							; size = 4
_y$ = 12						; size = 4
_z$ = 16						; size = 4
_pos$ = 20						; size = 4
?Set@Matrix3D@@QAEXABVVector3@@000@Z PROC		; Matrix3D::Set, COMDAT
; _this$ = ecx

; 100  : 	{

	push	ebp
	mov	ebp, esp
	sub	esp, 68					; 00000044H
	push	ebx
	push	esi
	push	edi
	mov	DWORD PTR _this$[ebp], ecx

; 101  : 		Row[0].Set(x[0],y[0],z[0],pos[0]);

	push	0
	mov	ecx, DWORD PTR _pos$[ebp]
	call	??AVector3@@QBEABMH@Z			; Vector3::operator[]
	push	ecx
	movss	xmm0, DWORD PTR [eax]
	movss	DWORD PTR [esp], xmm0
	push	0
	mov	ecx, DWORD PTR _z$[ebp]
	call	??AVector3@@QBEABMH@Z			; Vector3::operator[]
	push	ecx
	movss	xmm0, DWORD PTR [eax]
	movss	DWORD PTR [esp], xmm0
	push	0
	mov	ecx, DWORD PTR _y$[ebp]
	call	??AVector3@@QBEABMH@Z			; Vector3::operator[]
	push	ecx
	movss	xmm0, DWORD PTR [eax]
	movss	DWORD PTR [esp], xmm0
	push	0
	mov	ecx, DWORD PTR _x$[ebp]
	call	??AVector3@@QBEABMH@Z			; Vector3::operator[]
	push	ecx
	movss	xmm0, DWORD PTR [eax]
	movss	DWORD PTR [esp], xmm0
	mov	ecx, 16					; 00000010H
	imul	ecx, 0
	add	ecx, DWORD PTR _this$[ebp]
	call	?Set@Vector4@@QAEXMMMM@Z		; Vector4::Set

; 102  : 		Row[1].Set(x[1],y[1],z[1],pos[1]);

	push	1
	mov	ecx, DWORD PTR _pos$[ebp]
	call	??AVector3@@QBEABMH@Z			; Vector3::operator[]
	push	ecx
	movss	xmm0, DWORD PTR [eax]
	movss	DWORD PTR [esp], xmm0
	push	1
	mov	ecx, DWORD PTR _z$[ebp]
	call	??AVector3@@QBEABMH@Z			; Vector3::operator[]
	push	ecx
	movss	xmm0, DWORD PTR [eax]
	movss	DWORD PTR [esp], xmm0
	push	1
	mov	ecx, DWORD PTR _y$[ebp]
	call	??AVector3@@QBEABMH@Z			; Vector3::operator[]
	push	ecx
	movss	xmm0, DWORD PTR [eax]
	movss	DWORD PTR [esp], xmm0
	push	1
	mov	ecx, DWORD PTR _x$[ebp]
	call	??AVector3@@QBEABMH@Z			; Vector3::operator[]
	push	ecx
	movss	xmm0, DWORD PTR [eax]
	movss	DWORD PTR [esp], xmm0
	mov	ecx, 16					; 00000010H
	shl	ecx, 0
	add	ecx, DWORD PTR _this$[ebp]
	call	?Set@Vector4@@QAEXMMMM@Z		; Vector4::Set

; 103  : 		Row[2].Set(x[2],y[2],z[2],pos[2]);

	push	2
	mov	ecx, DWORD PTR _pos$[ebp]
	call	??AVector3@@QBEABMH@Z			; Vector3::operator[]
	push	ecx
	movss	xmm0, DWORD PTR [eax]
	movss	DWORD PTR [esp], xmm0
	push	2
	mov	ecx, DWORD PTR _z$[ebp]
	call	??AVector3@@QBEABMH@Z			; Vector3::operator[]
	push	ecx
	movss	xmm0, DWORD PTR [eax]
	movss	DWORD PTR [esp], xmm0
	push	2
	mov	ecx, DWORD PTR _y$[ebp]
	call	??AVector3@@QBEABMH@Z			; Vector3::operator[]
	push	ecx
	movss	xmm0, DWORD PTR [eax]
	movss	DWORD PTR [esp], xmm0
	push	2
	mov	ecx, DWORD PTR _x$[ebp]
	call	??AVector3@@QBEABMH@Z			; Vector3::operator[]
	push	ecx
	movss	xmm0, DWORD PTR [eax]
	movss	DWORD PTR [esp], xmm0
	mov	ecx, 16					; 00000010H
	shl	ecx, 1
	add	ecx, DWORD PTR _this$[ebp]
	call	?Set@Vector4@@QAEXMMMM@Z		; Vector4::Set

; 104  : 	}

	pop	edi
	pop	esi
	pop	ebx
	mov	esp, ebp
	pop	ebp
	ret	16					; 00000010H
?Set@Matrix3D@@QAEXABVVector3@@000@Z ENDP		; Matrix3D::Set
_TEXT	ENDS
; Function compile flags: /Odtp /ZI
; File x:\github\renegade\dragonade_rxd\scripts\matrix3d.h
;	COMDAT ?Set@Matrix3D@@QAEXMMMMMMMMMMMM@Z
_TEXT	SEGMENT
_this$ = -4						; size = 4
_m11$ = 8						; size = 4
_m12$ = 12						; size = 4
_m13$ = 16						; size = 4
_m14$ = 20						; size = 4
_m21$ = 24						; size = 4
_m22$ = 28						; size = 4
_m23$ = 32						; size = 4
_m24$ = 36						; size = 4
_m31$ = 40						; size = 4
_m32$ = 44						; size = 4
_m33$ = 48						; size = 4
_m34$ = 52						; size = 4
?Set@Matrix3D@@QAEXMMMMMMMMMMMM@Z PROC			; Matrix3D::Set, COMDAT
; _this$ = ecx

; 94   : 	{

	push	ebp
	mov	ebp, esp
	sub	esp, 68					; 00000044H
	push	ebx
	push	esi
	push	edi
	mov	DWORD PTR _this$[ebp], ecx

; 95   : 		Row[0].Set(m11,m12,m13,m14);

	push	ecx
	movss	xmm0, DWORD PTR _m14$[ebp]
	movss	DWORD PTR [esp], xmm0
	push	ecx
	movss	xmm0, DWORD PTR _m13$[ebp]
	movss	DWORD PTR [esp], xmm0
	push	ecx
	movss	xmm0, DWORD PTR _m12$[ebp]
	movss	DWORD PTR [esp], xmm0
	push	ecx
	movss	xmm0, DWORD PTR _m11$[ebp]
	movss	DWORD PTR [esp], xmm0
	mov	ecx, 16					; 00000010H
	imul	ecx, 0
	add	ecx, DWORD PTR _this$[ebp]
	call	?Set@Vector4@@QAEXMMMM@Z		; Vector4::Set

; 96   : 		Row[1].Set(m21,m22,m23,m24);

	push	ecx
	movss	xmm0, DWORD PTR _m24$[ebp]
	movss	DWORD PTR [esp], xmm0
	push	ecx
	movss	xmm0, DWORD PTR _m23$[ebp]
	movss	DWORD PTR [esp], xmm0
	push	ecx
	movss	xmm0, DWORD PTR _m22$[ebp]
	movss	DWORD PTR [esp], xmm0
	push	ecx
	movss	xmm0, DWORD PTR _m21$[ebp]
	movss	DWORD PTR [esp], xmm0
	mov	ecx, 16					; 00000010H
	shl	ecx, 0
	add	ecx, DWORD PTR _this$[ebp]
	call	?Set@Vector4@@QAEXMMMM@Z		; Vector4::Set

; 97   : 		Row[2].Set(m31,m32,m33,m34);

	push	ecx
	movss	xmm0, DWORD PTR _m34$[ebp]
	movss	DWORD PTR [esp], xmm0
	push	ecx
	movss	xmm0, DWORD PTR _m33$[ebp]
	movss	DWORD PTR [esp], xmm0
	push	ecx
	movss	xmm0, DWORD PTR _m32$[ebp]
	movss	DWORD PTR [esp], xmm0
	push	ecx
	movss	xmm0, DWORD PTR _m31$[ebp]
	movss	DWORD PTR [esp], xmm0
	mov	ecx, 16					; 00000010H
	shl	ecx, 1
	add	ecx, DWORD PTR _this$[ebp]
	call	?Set@Vector4@@QAEXMMMM@Z		; Vector4::Set

; 98   : 	}

	pop	edi
	pop	esi
	pop	ebx
	mov	esp, ebp
	pop	ebp
	ret	48					; 00000030H
?Set@Matrix3D@@QAEXMMMMMMMMMMMM@Z ENDP			; Matrix3D::Set
_TEXT	ENDS
; Function compile flags: /Odtp /ZI
; File x:\github\renegade\dragonade_rxd\scripts\matrix3d.h
;	COMDAT ?Set@Matrix3D@@QAEXQAM@Z
_TEXT	SEGMENT
_this$ = -4						; size = 4
_m$ = 8							; size = 4
?Set@Matrix3D@@QAEXQAM@Z PROC				; Matrix3D::Set, COMDAT
; _this$ = ecx

; 88   : 	{

	push	ebp
	mov	ebp, esp
	sub	esp, 68					; 00000044H
	push	ebx
	push	esi
	push	edi
	mov	DWORD PTR _this$[ebp], ecx

; 89   : 		Row[0].Set(m[0],m[1],m[2],m[3]);

	mov	eax, 4
	imul	eax, 3
	mov	ecx, DWORD PTR _m$[ebp]
	push	ecx
	movss	xmm0, DWORD PTR [ecx+eax]
	movss	DWORD PTR [esp], xmm0
	mov	edx, 4
	shl	edx, 1
	mov	eax, DWORD PTR _m$[ebp]
	push	ecx
	movss	xmm0, DWORD PTR [eax+edx]
	movss	DWORD PTR [esp], xmm0
	mov	ecx, 4
	shl	ecx, 0
	mov	edx, DWORD PTR _m$[ebp]
	push	ecx
	movss	xmm0, DWORD PTR [edx+ecx]
	movss	DWORD PTR [esp], xmm0
	mov	eax, 4
	imul	eax, 0
	mov	ecx, DWORD PTR _m$[ebp]
	push	ecx
	movss	xmm0, DWORD PTR [ecx+eax]
	movss	DWORD PTR [esp], xmm0
	mov	ecx, 16					; 00000010H
	imul	ecx, 0
	add	ecx, DWORD PTR _this$[ebp]
	call	?Set@Vector4@@QAEXMMMM@Z		; Vector4::Set

; 90   : 		Row[1].Set(m[4],m[5],m[6],m[7]);

	mov	eax, 4
	imul	eax, 7
	mov	ecx, DWORD PTR _m$[ebp]
	push	ecx
	movss	xmm0, DWORD PTR [ecx+eax]
	movss	DWORD PTR [esp], xmm0
	mov	edx, 4
	imul	edx, 6
	mov	eax, DWORD PTR _m$[ebp]
	push	ecx
	movss	xmm0, DWORD PTR [eax+edx]
	movss	DWORD PTR [esp], xmm0
	mov	ecx, 4
	imul	ecx, 5
	mov	edx, DWORD PTR _m$[ebp]
	push	ecx
	movss	xmm0, DWORD PTR [edx+ecx]
	movss	DWORD PTR [esp], xmm0
	mov	eax, 4
	shl	eax, 2
	mov	ecx, DWORD PTR _m$[ebp]
	push	ecx
	movss	xmm0, DWORD PTR [ecx+eax]
	movss	DWORD PTR [esp], xmm0
	mov	ecx, 16					; 00000010H
	shl	ecx, 0
	add	ecx, DWORD PTR _this$[ebp]
	call	?Set@Vector4@@QAEXMMMM@Z		; Vector4::Set

; 91   : 		Row[2].Set(m[8],m[9],m[10],m[11]);

	mov	eax, 4
	imul	eax, 11					; 0000000bH
	mov	ecx, DWORD PTR _m$[ebp]
	push	ecx
	movss	xmm0, DWORD PTR [ecx+eax]
	movss	DWORD PTR [esp], xmm0
	mov	edx, 4
	imul	edx, 10					; 0000000aH
	mov	eax, DWORD PTR _m$[ebp]
	push	ecx
	movss	xmm0, DWORD PTR [eax+edx]
	movss	DWORD PTR [esp], xmm0
	mov	ecx, 4
	imul	ecx, 9
	mov	edx, DWORD PTR _m$[ebp]
	push	ecx
	movss	xmm0, DWORD PTR [edx+ecx]
	movss	DWORD PTR [esp], xmm0
	mov	eax, 4
	shl	eax, 3
	mov	ecx, DWORD PTR _m$[ebp]
	push	ecx
	movss	xmm0, DWORD PTR [ecx+eax]
	movss	DWORD PTR [esp], xmm0
	mov	ecx, 16					; 00000010H
	shl	ecx, 1
	add	ecx, DWORD PTR _this$[ebp]
	call	?Set@Vector4@@QAEXMMMM@Z		; Vector4::Set

; 92   : 	}

	pop	edi
	pop	esi
	pop	ebx
	mov	esp, ebp
	pop	ebp
	ret	4
?Set@Matrix3D@@QAEXQAM@Z ENDP				; Matrix3D::Set
_TEXT	ENDS
; Function compile flags: /Odtp /ZI
; File x:\github\renegade\dragonade_rxd\scripts\matrix3d.h
;	COMDAT ??4Matrix3D@@QAEAAV0@ABV0@@Z
_TEXT	SEGMENT
_this$ = -4						; size = 4
_m$ = 8							; size = 4
??4Matrix3D@@QAEAAV0@ABV0@@Z PROC			; Matrix3D::operator=, COMDAT
; _this$ = ecx

; 68   : 	{

	push	ebp
	mov	ebp, esp
	sub	esp, 68					; 00000044H
	push	ebx
	push	esi
	push	edi
	mov	DWORD PTR _this$[ebp], ecx

; 69   : 		Row[0] = m.Row[0];

	mov	eax, 16					; 00000010H
	imul	eax, 0
	add	eax, DWORD PTR _m$[ebp]
	push	eax
	mov	ecx, 16					; 00000010H
	imul	ecx, 0
	add	ecx, DWORD PTR _this$[ebp]
	call	??4Vector4@@QAEAAV0@ABV0@@Z		; Vector4::operator=

; 70   : 		Row[1] = m.Row[1];

	mov	eax, 16					; 00000010H
	shl	eax, 0
	add	eax, DWORD PTR _m$[ebp]
	push	eax
	mov	ecx, 16					; 00000010H
	shl	ecx, 0
	add	ecx, DWORD PTR _this$[ebp]
	call	??4Vector4@@QAEAAV0@ABV0@@Z		; Vector4::operator=

; 71   : 		Row[2] = m.Row[2];

	mov	eax, 16					; 00000010H
	shl	eax, 1
	add	eax, DWORD PTR _m$[ebp]
	push	eax
	mov	ecx, 16					; 00000010H
	shl	ecx, 1
	add	ecx, DWORD PTR _this$[ebp]
	call	??4Vector4@@QAEAAV0@ABV0@@Z		; Vector4::operator=

; 72   : 		return *this; 

	mov	eax, DWORD PTR _this$[ebp]

; 73   : 	}

	pop	edi
	pop	esi
	pop	ebx
	mov	esp, ebp
	pop	ebp
	ret	4
??4Matrix3D@@QAEAAV0@ABV0@@Z ENDP			; Matrix3D::operator=
_TEXT	ENDS
; Function compile flags: /Odtp /ZI
; File x:\github\renegade\dragonade_rxd\scripts\matrix3d.h
;	COMDAT ??0Matrix3D@@QAE@ABV0@@Z
_TEXT	SEGMENT
_this$ = -4						; size = 4
_m$ = 8							; size = 4
??0Matrix3D@@QAE@ABV0@@Z PROC				; Matrix3D::Matrix3D, COMDAT
; _this$ = ecx

; 61   : 	TT_INLINE Matrix3D(const Matrix3D & m)

	push	ebp
	mov	ebp, esp
	sub	esp, 68					; 00000044H
	push	ebx
	push	esi
	push	edi
	mov	DWORD PTR _this$[ebp], ecx
	push	OFFSET ??0Vector4@@QAE@XZ		; Vector4::Vector4
	push	3
	push	16					; 00000010H
	mov	eax, DWORD PTR _this$[ebp]
	push	eax
	call	??_H@YGXPAXIHP6EPAX0@Z@Z

; 62   : 	{
; 63   : 		Row[0] = m.Row[0];

	mov	eax, 16					; 00000010H
	imul	eax, 0
	add	eax, DWORD PTR _m$[ebp]
	push	eax
	mov	ecx, 16					; 00000010H
	imul	ecx, 0
	add	ecx, DWORD PTR _this$[ebp]
	call	??4Vector4@@QAEAAV0@ABV0@@Z		; Vector4::operator=

; 64   : 		Row[1] = m.Row[1];

	mov	eax, 16					; 00000010H
	shl	eax, 0
	add	eax, DWORD PTR _m$[ebp]
	push	eax
	mov	ecx, 16					; 00000010H
	shl	ecx, 0
	add	ecx, DWORD PTR _this$[ebp]
	call	??4Vector4@@QAEAAV0@ABV0@@Z		; Vector4::operator=

; 65   : 		Row[2] = m.Row[2];

	mov	eax, 16					; 00000010H
	shl	eax, 1
	add	eax, DWORD PTR _m$[ebp]
	push	eax
	mov	ecx, 16					; 00000010H
	shl	ecx, 1
	add	ecx, DWORD PTR _this$[ebp]
	call	??4Vector4@@QAEAAV0@ABV0@@Z		; Vector4::operator=

; 66   : 	}

	mov	eax, DWORD PTR _this$[ebp]
	pop	edi
	pop	esi
	pop	ebx
	mov	esp, ebp
	pop	ebp
	ret	4
??0Matrix3D@@QAE@ABV0@@Z ENDP				; Matrix3D::Matrix3D
_TEXT	ENDS
; Function compile flags: /Odtp /ZI
; File x:\github\renegade\dragonade_rxd\scripts\matrix3d.h
;	COMDAT ??0Matrix3D@@QAE@ABVVector3@@@Z
_TEXT	SEGMENT
_this$ = -4						; size = 4
_position$ = 8						; size = 4
??0Matrix3D@@QAE@ABVVector3@@@Z PROC			; Matrix3D::Matrix3D, COMDAT
; _this$ = ecx

; 57   : 	TT_INLINE explicit Matrix3D(const Vector3 & position)

	push	ebp
	mov	ebp, esp
	sub	esp, 68					; 00000044H
	push	ebx
	push	esi
	push	edi
	mov	DWORD PTR _this$[ebp], ecx
	push	OFFSET ??0Vector4@@QAE@XZ		; Vector4::Vector4
	push	3
	push	16					; 00000010H
	mov	eax, DWORD PTR _this$[ebp]
	push	eax
	call	??_H@YGXPAXIHP6EPAX0@Z@Z

; 58   : 	{
; 59   : 		Set(position);

	mov	eax, DWORD PTR _position$[ebp]
	push	eax
	mov	ecx, DWORD PTR _this$[ebp]
	call	?Set@Matrix3D@@QAEXABVVector3@@@Z	; Matrix3D::Set

; 60   : 	}

	mov	eax, DWORD PTR _this$[ebp]
	pop	edi
	pop	esi
	pop	ebx
	mov	esp, ebp
	pop	ebp
	ret	4
??0Matrix3D@@QAE@ABVVector3@@@Z ENDP			; Matrix3D::Matrix3D
_TEXT	ENDS
; Function compile flags: /Odtp /ZI
; File x:\github\renegade\dragonade_rxd\scripts\matrix3d.h
;	COMDAT ??0Matrix3D@@QAE@ABVQuaternion@@ABVVector3@@@Z
_TEXT	SEGMENT
_this$ = -4						; size = 4
_rotation$ = 8						; size = 4
_position$ = 12						; size = 4
??0Matrix3D@@QAE@ABVQuaternion@@ABVVector3@@@Z PROC	; Matrix3D::Matrix3D, COMDAT
; _this$ = ecx

; 53   : 	TT_INLINE explicit Matrix3D(const Quaternion & rotation,const Vector3 & position)

	push	ebp
	mov	ebp, esp
	sub	esp, 68					; 00000044H
	push	ebx
	push	esi
	push	edi
	mov	DWORD PTR _this$[ebp], ecx
	push	OFFSET ??0Vector4@@QAE@XZ		; Vector4::Vector4
	push	3
	push	16					; 00000010H
	mov	eax, DWORD PTR _this$[ebp]
	push	eax
	call	??_H@YGXPAXIHP6EPAX0@Z@Z

; 54   : 	{
; 55   : 		Set(rotation,position);

	mov	eax, DWORD PTR _position$[ebp]
	push	eax
	mov	ecx, DWORD PTR _rotation$[ebp]
	push	ecx
	mov	ecx, DWORD PTR _this$[ebp]
	call	?Set@Matrix3D@@QAEXABVQuaternion@@ABVVector3@@@Z ; Matrix3D::Set

; 56   : 	}

	mov	eax, DWORD PTR _this$[ebp]
	pop	edi
	pop	esi
	pop	ebx
	mov	esp, ebp
	pop	ebp
	ret	8
??0Matrix3D@@QAE@ABVQuaternion@@ABVVector3@@@Z ENDP	; Matrix3D::Matrix3D
_TEXT	ENDS
; Function compile flags: /Odtp /ZI
; File x:\github\renegade\dragonade_rxd\scripts\matrix3d.h
;	COMDAT ??0Matrix3D@@QAE@ABVMatrix3@@ABVVector3@@@Z
_TEXT	SEGMENT
_this$ = -4						; size = 4
_rotation$ = 8						; size = 4
_position$ = 12						; size = 4
??0Matrix3D@@QAE@ABVMatrix3@@ABVVector3@@@Z PROC	; Matrix3D::Matrix3D, COMDAT
; _this$ = ecx

; 49   : 	TT_INLINE explicit Matrix3D(const Matrix3 & rotation,const Vector3 & position)

	push	ebp
	mov	ebp, esp
	sub	esp, 68					; 00000044H
	push	ebx
	push	esi
	push	edi
	mov	DWORD PTR _this$[ebp], ecx
	push	OFFSET ??0Vector4@@QAE@XZ		; Vector4::Vector4
	push	3
	push	16					; 00000010H
	mov	eax, DWORD PTR _this$[ebp]
	push	eax
	call	??_H@YGXPAXIHP6EPAX0@Z@Z

; 50   : 	{
; 51   : 		Set(rotation,position);

	mov	eax, DWORD PTR _position$[ebp]
	push	eax
	mov	ecx, DWORD PTR _rotation$[ebp]
	push	ecx
	mov	ecx, DWORD PTR _this$[ebp]
	call	?Set@Matrix3D@@QAEXABVMatrix3@@ABVVector3@@@Z ; Matrix3D::Set

; 52   : 	}

	mov	eax, DWORD PTR _this$[ebp]
	pop	edi
	pop	esi
	pop	ebx
	mov	esp, ebp
	pop	ebp
	ret	8
??0Matrix3D@@QAE@ABVMatrix3@@ABVVector3@@@Z ENDP	; Matrix3D::Matrix3D
_TEXT	ENDS
; Function compile flags: /Odtp /ZI
; File x:\github\renegade\dragonade_rxd\scripts\matrix3d.h
;	COMDAT ??0Matrix3D@@QAE@ABVVector3@@MM@Z
_TEXT	SEGMENT
_this$ = -4						; size = 4
_axis$ = 8						; size = 4
_sine$ = 12						; size = 4
_cosine$ = 16						; size = 4
??0Matrix3D@@QAE@ABVVector3@@MM@Z PROC			; Matrix3D::Matrix3D, COMDAT
; _this$ = ecx

; 45   : 	TT_INLINE explicit Matrix3D(const Vector3	&axis,float sine,float cosine)

	push	ebp
	mov	ebp, esp
	sub	esp, 68					; 00000044H
	push	ebx
	push	esi
	push	edi
	mov	DWORD PTR _this$[ebp], ecx
	push	OFFSET ??0Vector4@@QAE@XZ		; Vector4::Vector4
	push	3
	push	16					; 00000010H
	mov	eax, DWORD PTR _this$[ebp]
	push	eax
	call	??_H@YGXPAXIHP6EPAX0@Z@Z

; 46   : 	{
; 47   : 		Set(axis,sine,cosine);

	push	ecx
	movss	xmm0, DWORD PTR _cosine$[ebp]
	movss	DWORD PTR [esp], xmm0
	push	ecx
	movss	xmm0, DWORD PTR _sine$[ebp]
	movss	DWORD PTR [esp], xmm0
	mov	eax, DWORD PTR _axis$[ebp]
	push	eax
	mov	ecx, DWORD PTR _this$[ebp]
	call	?Set@Matrix3D@@QAEXABVVector3@@MM@Z	; Matrix3D::Set

; 48   : 	}

	mov	eax, DWORD PTR _this$[ebp]
	pop	edi
	pop	esi
	pop	ebx
	mov	esp, ebp
	pop	ebp
	ret	12					; 0000000cH
??0Matrix3D@@QAE@ABVVector3@@MM@Z ENDP			; Matrix3D::Matrix3D
_TEXT	ENDS
; Function compile flags: /Odtp /ZI
; File x:\github\renegade\dragonade_rxd\scripts\matrix3d.h
;	COMDAT ??0Matrix3D@@QAE@ABVVector3@@M@Z
_TEXT	SEGMENT
_this$ = -4						; size = 4
_axis$ = 8						; size = 4
_angle$ = 12						; size = 4
??0Matrix3D@@QAE@ABVVector3@@M@Z PROC			; Matrix3D::Matrix3D, COMDAT
; _this$ = ecx

; 41   : 	TT_INLINE explicit Matrix3D(const Vector3	&axis,float angle)

	push	ebp
	mov	ebp, esp
	sub	esp, 68					; 00000044H
	push	ebx
	push	esi
	push	edi
	mov	DWORD PTR _this$[ebp], ecx
	push	OFFSET ??0Vector4@@QAE@XZ		; Vector4::Vector4
	push	3
	push	16					; 00000010H
	mov	eax, DWORD PTR _this$[ebp]
	push	eax
	call	??_H@YGXPAXIHP6EPAX0@Z@Z

; 42   : 	{
; 43   : 		Set(axis,angle);

	push	ecx
	movss	xmm0, DWORD PTR _angle$[ebp]
	movss	DWORD PTR [esp], xmm0
	mov	eax, DWORD PTR _axis$[ebp]
	push	eax
	mov	ecx, DWORD PTR _this$[ebp]
	call	?Set@Matrix3D@@QAEXABVVector3@@M@Z	; Matrix3D::Set

; 44   : 	}

	mov	eax, DWORD PTR _this$[ebp]
	pop	edi
	pop	esi
	pop	ebx
	mov	esp, ebp
	pop	ebp
	ret	8
??0Matrix3D@@QAE@ABVVector3@@M@Z ENDP			; Matrix3D::Matrix3D
_TEXT	ENDS
; Function compile flags: /Odtp /ZI
; File x:\github\renegade\dragonade_rxd\scripts\matrix3d.h
;	COMDAT ??0Matrix3D@@QAE@ABVVector3@@000@Z
_TEXT	SEGMENT
_this$ = -4						; size = 4
_x$ = 8							; size = 4
_y$ = 12						; size = 4
_z$ = 16						; size = 4
_pos$ = 20						; size = 4
??0Matrix3D@@QAE@ABVVector3@@000@Z PROC			; Matrix3D::Matrix3D, COMDAT
; _this$ = ecx

; 37   : 	TT_INLINE explicit Matrix3D(const Vector3	&x,const Vector3	&y,const Vector3	&z,const Vector3	&pos)

	push	ebp
	mov	ebp, esp
	sub	esp, 68					; 00000044H
	push	ebx
	push	esi
	push	edi
	mov	DWORD PTR _this$[ebp], ecx
	push	OFFSET ??0Vector4@@QAE@XZ		; Vector4::Vector4
	push	3
	push	16					; 00000010H
	mov	eax, DWORD PTR _this$[ebp]
	push	eax
	call	??_H@YGXPAXIHP6EPAX0@Z@Z

; 38   : 	{
; 39   : 		Set(x,y,z,pos);

	mov	eax, DWORD PTR _pos$[ebp]
	push	eax
	mov	ecx, DWORD PTR _z$[ebp]
	push	ecx
	mov	edx, DWORD PTR _y$[ebp]
	push	edx
	mov	eax, DWORD PTR _x$[ebp]
	push	eax
	mov	ecx, DWORD PTR _this$[ebp]
	call	?Set@Matrix3D@@QAEXABVVector3@@000@Z	; Matrix3D::Set

; 40   : 	}

	mov	eax, DWORD PTR _this$[ebp]
	pop	edi
	pop	esi
	pop	ebx
	mov	esp, ebp
	pop	ebp
	ret	16					; 00000010H
??0Matrix3D@@QAE@ABVVector3@@000@Z ENDP			; Matrix3D::Matrix3D
_TEXT	ENDS
; Function compile flags: /Odtp /ZI
; File x:\github\renegade\dragonade_rxd\scripts\matrix3d.h
;	COMDAT ??0Matrix3D@@QAE@QAM@Z
_TEXT	SEGMENT
_this$ = -4						; size = 4
_m$ = 8							; size = 4
??0Matrix3D@@QAE@QAM@Z PROC				; Matrix3D::Matrix3D, COMDAT
; _this$ = ecx

; 31   : 	TT_INLINE explicit Matrix3D(float m[12])

	push	ebp
	mov	ebp, esp
	sub	esp, 68					; 00000044H
	push	ebx
	push	esi
	push	edi
	mov	DWORD PTR _this$[ebp], ecx
	push	OFFSET ??0Vector4@@QAE@XZ		; Vector4::Vector4
	push	3
	push	16					; 00000010H
	mov	eax, DWORD PTR _this$[ebp]
	push	eax
	call	??_H@YGXPAXIHP6EPAX0@Z@Z

; 32   : 	{
; 33   : 		Row[0].Set(m[0],m[1],m[2],m[3]);

	mov	eax, 4
	imul	eax, 3
	mov	ecx, DWORD PTR _m$[ebp]
	push	ecx
	movss	xmm0, DWORD PTR [ecx+eax]
	movss	DWORD PTR [esp], xmm0
	mov	edx, 4
	shl	edx, 1
	mov	eax, DWORD PTR _m$[ebp]
	push	ecx
	movss	xmm0, DWORD PTR [eax+edx]
	movss	DWORD PTR [esp], xmm0
	mov	ecx, 4
	shl	ecx, 0
	mov	edx, DWORD PTR _m$[ebp]
	push	ecx
	movss	xmm0, DWORD PTR [edx+ecx]
	movss	DWORD PTR [esp], xmm0
	mov	eax, 4
	imul	eax, 0
	mov	ecx, DWORD PTR _m$[ebp]
	push	ecx
	movss	xmm0, DWORD PTR [ecx+eax]
	movss	DWORD PTR [esp], xmm0
	mov	ecx, 16					; 00000010H
	imul	ecx, 0
	add	ecx, DWORD PTR _this$[ebp]
	call	?Set@Vector4@@QAEXMMMM@Z		; Vector4::Set

; 34   : 		Row[1].Set(m[4],m[5],m[6],m[7]);

	mov	eax, 4
	imul	eax, 7
	mov	ecx, DWORD PTR _m$[ebp]
	push	ecx
	movss	xmm0, DWORD PTR [ecx+eax]
	movss	DWORD PTR [esp], xmm0
	mov	edx, 4
	imul	edx, 6
	mov	eax, DWORD PTR _m$[ebp]
	push	ecx
	movss	xmm0, DWORD PTR [eax+edx]
	movss	DWORD PTR [esp], xmm0
	mov	ecx, 4
	imul	ecx, 5
	mov	edx, DWORD PTR _m$[ebp]
	push	ecx
	movss	xmm0, DWORD PTR [edx+ecx]
	movss	DWORD PTR [esp], xmm0
	mov	eax, 4
	shl	eax, 2
	mov	ecx, DWORD PTR _m$[ebp]
	push	ecx
	movss	xmm0, DWORD PTR [ecx+eax]
	movss	DWORD PTR [esp], xmm0
	mov	ecx, 16					; 00000010H
	shl	ecx, 0
	add	ecx, DWORD PTR _this$[ebp]
	call	?Set@Vector4@@QAEXMMMM@Z		; Vector4::Set

; 35   : 		Row[2].Set(m[8],m[9],m[10],m[11]);

	mov	eax, 4
	imul	eax, 11					; 0000000bH
	mov	ecx, DWORD PTR _m$[ebp]
	push	ecx
	movss	xmm0, DWORD PTR [ecx+eax]
	movss	DWORD PTR [esp], xmm0
	mov	edx, 4
	imul	edx, 10					; 0000000aH
	mov	eax, DWORD PTR _m$[ebp]
	push	ecx
	movss	xmm0, DWORD PTR [eax+edx]
	movss	DWORD PTR [esp], xmm0
	mov	ecx, 4
	imul	ecx, 9
	mov	edx, DWORD PTR _m$[ebp]
	push	ecx
	movss	xmm0, DWORD PTR [edx+ecx]
	movss	DWORD PTR [esp], xmm0
	mov	eax, 4
	shl	eax, 3
	mov	ecx, DWORD PTR _m$[ebp]
	push	ecx
	movss	xmm0, DWORD PTR [ecx+eax]
	movss	DWORD PTR [esp], xmm0
	mov	ecx, 16					; 00000010H
	shl	ecx, 1
	add	ecx, DWORD PTR _this$[ebp]
	call	?Set@Vector4@@QAEXMMMM@Z		; Vector4::Set

; 36   : 	}

	mov	eax, DWORD PTR _this$[ebp]
	pop	edi
	pop	esi
	pop	ebx
	mov	esp, ebp
	pop	ebp
	ret	4
??0Matrix3D@@QAE@QAM@Z ENDP				; Matrix3D::Matrix3D
_TEXT	ENDS
; Function compile flags: /Odtp /ZI
; File x:\github\renegade\dragonade_rxd\scripts\matrix3d.h
;	COMDAT ??0Matrix3D@@QAE@_N@Z
_TEXT	SEGMENT
_this$ = -4						; size = 4
_init$ = 8						; size = 1
??0Matrix3D@@QAE@_N@Z PROC				; Matrix3D::Matrix3D, COMDAT
; _this$ = ecx

; 30   : 	TT_INLINE explicit Matrix3D(bool init) { if (init) Make_Identity(); }

	push	ebp
	mov	ebp, esp
	sub	esp, 68					; 00000044H
	push	ebx
	push	esi
	push	edi
	mov	DWORD PTR _this$[ebp], ecx
	push	OFFSET ??0Vector4@@QAE@XZ		; Vector4::Vector4
	push	3
	push	16					; 00000010H
	mov	eax, DWORD PTR _this$[ebp]
	push	eax
	call	??_H@YGXPAXIHP6EPAX0@Z@Z
	movzx	eax, BYTE PTR _init$[ebp]
	test	eax, eax
	je	SHORT $LN2@Matrix3D
	mov	ecx, DWORD PTR _this$[ebp]
	call	?Make_Identity@Matrix3D@@QAEXXZ		; Matrix3D::Make_Identity
$LN2@Matrix3D:
	mov	eax, DWORD PTR _this$[ebp]
	pop	edi
	pop	esi
	pop	ebx
	mov	esp, ebp
	pop	ebp
	ret	4
??0Matrix3D@@QAE@_N@Z ENDP				; Matrix3D::Matrix3D
_TEXT	ENDS
; Function compile flags: /Odtp /ZI
; File x:\github\renegade\dragonade_rxd\scripts\matrix3d.h
;	COMDAT ??AMatrix3D@@QBEABVVector4@@H@Z
_TEXT	SEGMENT
_this$ = -4						; size = 4
_i$ = 8							; size = 4
??AMatrix3D@@QBEABVVector4@@H@Z PROC			; Matrix3D::operator[], COMDAT
; _this$ = ecx

; 28   :    TT_INLINE const Vector4 & operator [] (int i) const { return Row[i]; }

	push	ebp
	mov	ebp, esp
	sub	esp, 68					; 00000044H
	push	ebx
	push	esi
	push	edi
	mov	DWORD PTR _this$[ebp], ecx
	mov	eax, DWORD PTR _i$[ebp]
	shl	eax, 4
	add	eax, DWORD PTR _this$[ebp]
	pop	edi
	pop	esi
	pop	ebx
	mov	esp, ebp
	pop	ebp
	ret	4
??AMatrix3D@@QBEABVVector4@@H@Z ENDP			; Matrix3D::operator[]
_TEXT	ENDS
; Function compile flags: /Odtp /ZI
; File x:\github\renegade\dragonade_rxd\scripts\matrix3d.h
;	COMDAT ??AMatrix3D@@QAEAAVVector4@@H@Z
_TEXT	SEGMENT
_this$ = -4						; size = 4
_i$ = 8							; size = 4
??AMatrix3D@@QAEAAVVector4@@H@Z PROC			; Matrix3D::operator[], COMDAT
; _this$ = ecx

; 27   :    TT_INLINE Vector4 & operator [] (int i) { return Row[i]; }

	push	ebp
	mov	ebp, esp
	sub	esp, 68					; 00000044H
	push	ebx
	push	esi
	push	edi
	mov	DWORD PTR _this$[ebp], ecx
	mov	eax, DWORD PTR _i$[ebp]
	shl	eax, 4
	add	eax, DWORD PTR _this$[ebp]
	pop	edi
	pop	esi
	pop	ebx
	mov	esp, ebp
	pop	ebp
	ret	4
??AMatrix3D@@QAEAAVVector4@@H@Z ENDP			; Matrix3D::operator[]
_TEXT	ENDS
; Function compile flags: /Odtp /ZI
; File x:\github\renegade\dragonade_rxd\scripts\vector4.h
;	COMDAT ??XVector4@@QAEAAV0@M@Z
_TEXT	SEGMENT
_this$ = -4						; size = 4
_f$ = 8							; size = 4
??XVector4@@QAEAAV0@M@Z PROC				; Vector4::operator*=, COMDAT
; _this$ = ecx

; 64   : 	TT_INLINE Vector4& operator*=(float f) { X *= f; Y *= f; Z *= f; W *= f; return *this;	};

	push	ebp
	mov	ebp, esp
	sub	esp, 68					; 00000044H
	push	ebx
	push	esi
	push	edi
	mov	DWORD PTR _this$[ebp], ecx
	mov	eax, DWORD PTR _this$[ebp]
	movss	xmm0, DWORD PTR [eax]
	mulss	xmm0, DWORD PTR _f$[ebp]
	mov	ecx, DWORD PTR _this$[ebp]
	movss	DWORD PTR [ecx], xmm0
	mov	eax, DWORD PTR _this$[ebp]
	movss	xmm0, DWORD PTR [eax+4]
	mulss	xmm0, DWORD PTR _f$[ebp]
	mov	ecx, DWORD PTR _this$[ebp]
	movss	DWORD PTR [ecx+4], xmm0
	mov	eax, DWORD PTR _this$[ebp]
	movss	xmm0, DWORD PTR [eax+8]
	mulss	xmm0, DWORD PTR _f$[ebp]
	mov	ecx, DWORD PTR _this$[ebp]
	movss	DWORD PTR [ecx+8], xmm0
	mov	eax, DWORD PTR _this$[ebp]
	movss	xmm0, DWORD PTR [eax+12]
	mulss	xmm0, DWORD PTR _f$[ebp]
	mov	ecx, DWORD PTR _this$[ebp]
	movss	DWORD PTR [ecx+12], xmm0
	mov	eax, DWORD PTR _this$[ebp]
	pop	edi
	pop	esi
	pop	ebx
	mov	esp, ebp
	pop	ebp
	ret	4
??XVector4@@QAEAAV0@M@Z ENDP				; Vector4::operator*=
_TEXT	ENDS
; Function compile flags: /Odtp /ZI
; File x:\github\renegade\dragonade_rxd\scripts\vector4.h
;	COMDAT ??ZVector4@@QAEAAV0@ABV0@@Z
_TEXT	SEGMENT
_this$ = -4						; size = 4
_v$ = 8							; size = 4
??ZVector4@@QAEAAV0@ABV0@@Z PROC			; Vector4::operator-=, COMDAT
; _this$ = ecx

; 63   : 	TT_INLINE Vector4& operator-=(const Vector4& v) { X -= v.X; Y -= v.Y; Z -= v.Z; W -= v.W; return *this;	};

	push	ebp
	mov	ebp, esp
	sub	esp, 68					; 00000044H
	push	ebx
	push	esi
	push	edi
	mov	DWORD PTR _this$[ebp], ecx
	mov	eax, DWORD PTR _this$[ebp]
	mov	ecx, DWORD PTR _v$[ebp]
	movss	xmm0, DWORD PTR [eax]
	subss	xmm0, DWORD PTR [ecx]
	mov	edx, DWORD PTR _this$[ebp]
	movss	DWORD PTR [edx], xmm0
	mov	eax, DWORD PTR _this$[ebp]
	mov	ecx, DWORD PTR _v$[ebp]
	movss	xmm0, DWORD PTR [eax+4]
	subss	xmm0, DWORD PTR [ecx+4]
	mov	edx, DWORD PTR _this$[ebp]
	movss	DWORD PTR [edx+4], xmm0
	mov	eax, DWORD PTR _this$[ebp]
	mov	ecx, DWORD PTR _v$[ebp]
	movss	xmm0, DWORD PTR [eax+8]
	subss	xmm0, DWORD PTR [ecx+8]
	mov	edx, DWORD PTR _this$[ebp]
	movss	DWORD PTR [edx+8], xmm0
	mov	eax, DWORD PTR _this$[ebp]
	mov	ecx, DWORD PTR _v$[ebp]
	movss	xmm0, DWORD PTR [eax+12]
	subss	xmm0, DWORD PTR [ecx+12]
	mov	edx, DWORD PTR _this$[ebp]
	movss	DWORD PTR [edx+12], xmm0
	mov	eax, DWORD PTR _this$[ebp]
	pop	edi
	pop	esi
	pop	ebx
	mov	esp, ebp
	pop	ebp
	ret	4
??ZVector4@@QAEAAV0@ABV0@@Z ENDP			; Vector4::operator-=
_TEXT	ENDS
; Function compile flags: /Odtp /ZI
; File x:\github\renegade\dragonade_rxd\scripts\vector4.h
;	COMDAT ??YVector4@@QAEAAV0@ABV0@@Z
_TEXT	SEGMENT
_this$ = -4						; size = 4
_v$ = 8							; size = 4
??YVector4@@QAEAAV0@ABV0@@Z PROC			; Vector4::operator+=, COMDAT
; _this$ = ecx

; 62   : 	TT_INLINE Vector4& operator+=(const Vector4& v) { X += v.X; Y += v.Y; Z += v.Z; W += v.W; return *this;	};

	push	ebp
	mov	ebp, esp
	sub	esp, 68					; 00000044H
	push	ebx
	push	esi
	push	edi
	mov	DWORD PTR _this$[ebp], ecx
	mov	eax, DWORD PTR _this$[ebp]
	mov	ecx, DWORD PTR _v$[ebp]
	movss	xmm0, DWORD PTR [eax]
	addss	xmm0, DWORD PTR [ecx]
	mov	edx, DWORD PTR _this$[ebp]
	movss	DWORD PTR [edx], xmm0
	mov	eax, DWORD PTR _this$[ebp]
	mov	ecx, DWORD PTR _v$[ebp]
	movss	xmm0, DWORD PTR [eax+4]
	addss	xmm0, DWORD PTR [ecx+4]
	mov	edx, DWORD PTR _this$[ebp]
	movss	DWORD PTR [edx+4], xmm0
	mov	eax, DWORD PTR _this$[ebp]
	mov	ecx, DWORD PTR _v$[ebp]
	movss	xmm0, DWORD PTR [eax+8]
	addss	xmm0, DWORD PTR [ecx+8]
	mov	edx, DWORD PTR _this$[ebp]
	movss	DWORD PTR [edx+8], xmm0
	mov	eax, DWORD PTR _this$[ebp]
	mov	ecx, DWORD PTR _v$[ebp]
	movss	xmm0, DWORD PTR [eax+12]
	addss	xmm0, DWORD PTR [ecx+12]
	mov	edx, DWORD PTR _this$[ebp]
	movss	DWORD PTR [edx+12], xmm0
	mov	eax, DWORD PTR _this$[ebp]
	pop	edi
	pop	esi
	pop	ebx
	mov	esp, ebp
	pop	ebp
	ret	4
??YVector4@@QAEAAV0@ABV0@@Z ENDP			; Vector4::operator+=
_TEXT	ENDS
; Function compile flags: /Odtp /ZI
; File x:\github\renegade\dragonade_rxd\scripts\vector4.h
;	COMDAT ??AVector4@@QBEABMH@Z
_TEXT	SEGMENT
_this$ = -4						; size = 4
_i$ = 8							; size = 4
??AVector4@@QBEABMH@Z PROC				; Vector4::operator[], COMDAT
; _this$ = ecx

; 39   : 	TT_INLINE const float& operator[](int i) const { return (&X)[i]; };

	push	ebp
	mov	ebp, esp
	sub	esp, 68					; 00000044H
	push	ebx
	push	esi
	push	edi
	mov	DWORD PTR _this$[ebp], ecx
	mov	eax, DWORD PTR _i$[ebp]
	mov	ecx, DWORD PTR _this$[ebp]
	lea	eax, DWORD PTR [ecx+eax*4]
	pop	edi
	pop	esi
	pop	ebx
	mov	esp, ebp
	pop	ebp
	ret	4
??AVector4@@QBEABMH@Z ENDP				; Vector4::operator[]
_TEXT	ENDS
; Function compile flags: /Odtp /ZI
; File x:\github\renegade\dragonade_rxd\scripts\vector4.h
;	COMDAT ??AVector4@@QAEAAMH@Z
_TEXT	SEGMENT
_this$ = -4						; size = 4
_i$ = 8							; size = 4
??AVector4@@QAEAAMH@Z PROC				; Vector4::operator[], COMDAT
; _this$ = ecx

; 38   : 	TT_INLINE float& operator[](int i) { return (&X)[i]; };

	push	ebp
	mov	ebp, esp
	sub	esp, 68					; 00000044H
	push	ebx
	push	esi
	push	edi
	mov	DWORD PTR _this$[ebp], ecx
	mov	eax, DWORD PTR _i$[ebp]
	mov	ecx, DWORD PTR _this$[ebp]
	lea	eax, DWORD PTR [ecx+eax*4]
	pop	edi
	pop	esi
	pop	ebx
	mov	esp, ebp
	pop	ebp
	ret	4
??AVector4@@QAEAAMH@Z ENDP				; Vector4::operator[]
_TEXT	ENDS
; Function compile flags: /Odtp /ZI
; File x:\github\renegade\dragonade_rxd\scripts\vector4.h
;	COMDAT ?Set@Vector4@@QAEXMMMM@Z
_TEXT	SEGMENT
_this$ = -4						; size = 4
_x$ = 8							; size = 4
_y$ = 12						; size = 4
_z$ = 16						; size = 4
_w$ = 20						; size = 4
?Set@Vector4@@QAEXMMMM@Z PROC				; Vector4::Set, COMDAT
; _this$ = ecx

; 35   : 	TT_INLINE void Set(float x, float y, float z, float w) { X = x; Y = y; Z = z; W = w; };

	push	ebp
	mov	ebp, esp
	sub	esp, 68					; 00000044H
	push	ebx
	push	esi
	push	edi
	mov	DWORD PTR _this$[ebp], ecx
	mov	eax, DWORD PTR _this$[ebp]
	movss	xmm0, DWORD PTR _x$[ebp]
	movss	DWORD PTR [eax], xmm0
	mov	eax, DWORD PTR _this$[ebp]
	movss	xmm0, DWORD PTR _y$[ebp]
	movss	DWORD PTR [eax+4], xmm0
	mov	eax, DWORD PTR _this$[ebp]
	movss	xmm0, DWORD PTR _z$[ebp]
	movss	DWORD PTR [eax+8], xmm0
	mov	eax, DWORD PTR _this$[ebp]
	movss	xmm0, DWORD PTR _w$[ebp]
	movss	DWORD PTR [eax+12], xmm0
	pop	edi
	pop	esi
	pop	ebx
	mov	esp, ebp
	pop	ebp
	ret	16					; 00000010H
?Set@Vector4@@QAEXMMMM@Z ENDP				; Vector4::Set
_TEXT	ENDS
; Function compile flags: /Odtp /ZI
; File x:\github\renegade\dragonade_rxd\scripts\vector4.h
;	COMDAT ??4Vector4@@QAEAAV0@ABV0@@Z
_TEXT	SEGMENT
_this$ = -4						; size = 4
_v$ = 8							; size = 4
??4Vector4@@QAEAAV0@ABV0@@Z PROC			; Vector4::operator=, COMDAT
; _this$ = ecx

; 34   : 	TT_INLINE Vector4& operator=(const Vector4& v) { X = v.X; Y = v.Y; Z = v.Z; W = v.W; return *this; };	

	push	ebp
	mov	ebp, esp
	sub	esp, 68					; 00000044H
	push	ebx
	push	esi
	push	edi
	mov	DWORD PTR _this$[ebp], ecx
	mov	eax, DWORD PTR _this$[ebp]
	mov	ecx, DWORD PTR _v$[ebp]
	mov	edx, DWORD PTR [ecx]
	mov	DWORD PTR [eax], edx
	mov	eax, DWORD PTR _this$[ebp]
	mov	ecx, DWORD PTR _v$[ebp]
	mov	edx, DWORD PTR [ecx+4]
	mov	DWORD PTR [eax+4], edx
	mov	eax, DWORD PTR _this$[ebp]
	mov	ecx, DWORD PTR _v$[ebp]
	mov	edx, DWORD PTR [ecx+8]
	mov	DWORD PTR [eax+8], edx
	mov	eax, DWORD PTR _this$[ebp]
	mov	ecx, DWORD PTR _v$[ebp]
	mov	edx, DWORD PTR [ecx+12]
	mov	DWORD PTR [eax+12], edx
	mov	eax, DWORD PTR _this$[ebp]
	pop	edi
	pop	esi
	pop	ebx
	mov	esp, ebp
	pop	ebp
	ret	4
??4Vector4@@QAEAAV0@ABV0@@Z ENDP			; Vector4::operator=
_TEXT	ENDS
; Function compile flags: /Odtp /ZI
; File x:\github\renegade\dragonade_rxd\scripts\vector4.h
;	COMDAT ??0Vector4@@QAE@MMMM@Z
_TEXT	SEGMENT
_this$ = -4						; size = 4
_x$ = 8							; size = 4
_y$ = 12						; size = 4
_z$ = 16						; size = 4
_w$ = 20						; size = 4
??0Vector4@@QAE@MMMM@Z PROC				; Vector4::Vector4, COMDAT
; _this$ = ecx

; 26   : 	TT_INLINE Vector4(float x, float y, float z, float w) {	X = x; Y = y; Z = z; W = w;	};

	push	ebp
	mov	ebp, esp
	sub	esp, 68					; 00000044H
	push	ebx
	push	esi
	push	edi
	mov	DWORD PTR _this$[ebp], ecx
	mov	eax, DWORD PTR _this$[ebp]
	movss	xmm0, DWORD PTR _x$[ebp]
	movss	DWORD PTR [eax], xmm0
	mov	eax, DWORD PTR _this$[ebp]
	movss	xmm0, DWORD PTR _y$[ebp]
	movss	DWORD PTR [eax+4], xmm0
	mov	eax, DWORD PTR _this$[ebp]
	movss	xmm0, DWORD PTR _z$[ebp]
	movss	DWORD PTR [eax+8], xmm0
	mov	eax, DWORD PTR _this$[ebp]
	movss	xmm0, DWORD PTR _w$[ebp]
	movss	DWORD PTR [eax+12], xmm0
	mov	eax, DWORD PTR _this$[ebp]
	pop	edi
	pop	esi
	pop	ebx
	mov	esp, ebp
	pop	ebp
	ret	16					; 00000010H
??0Vector4@@QAE@MMMM@Z ENDP				; Vector4::Vector4
_TEXT	ENDS
; Function compile flags: /Odtp /ZI
; File x:\github\renegade\dragonade_rxd\scripts\vector4.h
;	COMDAT ??0Vector4@@QAE@XZ
_TEXT	SEGMENT
_this$ = -4						; size = 4
??0Vector4@@QAE@XZ PROC					; Vector4::Vector4, COMDAT
; _this$ = ecx

; 24   : 	TT_INLINE Vector4() {};

	push	ebp
	mov	ebp, esp
	sub	esp, 68					; 00000044H
	push	ebx
	push	esi
	push	edi
	mov	DWORD PTR _this$[ebp], ecx
	mov	eax, DWORD PTR _this$[ebp]
	pop	edi
	pop	esi
	pop	ebx
	mov	esp, ebp
	pop	ebp
	ret	0
??0Vector4@@QAE@XZ ENDP					; Vector4::Vector4
_TEXT	ENDS
; Function compile flags: /Odtp /ZI
; File x:\github\renegade\dragonade_rxd\scripts\datasafe.h
;	COMDAT ??B?$SafeDataClass@M@@QBEMXZ
_TEXT	SEGMENT
_this$ = -4						; size = 4
??B?$SafeDataClass@M@@QBEMXZ PROC			; SafeDataClass<float>::operator float, COMDAT
; _this$ = ecx

; 1236 : {

	push	ebp
	mov	ebp, esp
	sub	esp, 68					; 00000044H
	push	ebx
	push	esi
	push	edi
	mov	DWORD PTR _this$[ebp], ecx

; 1237 : 	return (*this)();

	mov	ecx, DWORD PTR _this$[ebp]
	call	??R?$SafeDataClass@M@@QBEAAMXZ		; SafeDataClass<float>::operator()
	fld	DWORD PTR [eax]

; 1238 : }

	pop	edi
	pop	esi
	pop	ebx
	mov	esp, ebp
	pop	ebp
	ret	0
??B?$SafeDataClass@M@@QBEMXZ ENDP			; SafeDataClass<float>::operator float
_TEXT	ENDS
; Function compile flags: /Odtp /ZI
; File x:\github\renegade\dragonade_rxd\scripts\datasafe.h
;	COMDAT ??R?$SafeDataClass@M@@QBEAAMXZ
_TEXT	SEGMENT
_data_ptr$ = -8						; size = 4
_this$ = -4						; size = 4
??R?$SafeDataClass@M@@QBEAAMXZ PROC			; SafeDataClass<float>::operator(), COMDAT
; _this$ = ecx

; 1221 : {

	push	ebp
	mov	ebp, esp
	sub	esp, 72					; 00000048H
	push	ebx
	push	esi
	push	edi
	mov	DWORD PTR _this$[ebp], ecx

; 1222 : 	T *data_ptr = NULL;

	mov	DWORD PTR _data_ptr$[ebp], 0

; 1223 : 	if (Handle.Is_Valid())

	mov	ecx, DWORD PTR _this$[ebp]
	call	?Is_Valid@DataSafeHandleClass@@QBE_NXZ	; DataSafeHandleClass::Is_Valid
	movzx	eax, al
	test	eax, eax
	je	SHORT $LN2@operator

; 1224 : 	{
; 1225 : 		DataSafeClass<T>::Get(Handle, data_ptr);

	lea	eax, DWORD PTR _data_ptr$[ebp]
	push	eax
	mov	ecx, DWORD PTR _this$[ebp]
	mov	edx, DWORD PTR [ecx]
	push	edx
	call	?Get@?$DataSafeClass@M@@SA_NVDataSafeHandleClass@@AAPAM@Z ; DataSafeClass<float>::Get
	add	esp, 8

; 1226 : 		if (data_ptr)

	cmp	DWORD PTR _data_ptr$[ebp], 0
	je	SHORT $LN2@operator

; 1227 : 		{
; 1228 : 			return *data_ptr;

	mov	eax, DWORD PTR _data_ptr$[ebp]
	jmp	SHORT $LN3@operator
$LN2@operator:

; 1229 : 		}
; 1230 : 	}
; 1231 : 	static T oh_dear;
; 1232 : 	return oh_dear;

	mov	eax, OFFSET ?oh_dear@?7???R?$SafeDataClass@M@@QBEAAMXZ@4MA ; `SafeDataClass<float>::operator()'::`8'::oh_dear
$LN3@operator:

; 1233 : }

	pop	edi
	pop	esi
	pop	ebx
	mov	esp, ebp
	pop	ebp
	ret	0
??R?$SafeDataClass@M@@QBEAAMXZ ENDP			; SafeDataClass<float>::operator()
_TEXT	ENDS
; Function compile flags: /Odtp /ZI
; File x:\github\renegade\dragonade_rxd\scripts\datasafe.h
;	COMDAT ??1?$SafeDataClass@M@@QAE@XZ
_TEXT	SEGMENT
_this$ = -4						; size = 4
??1?$SafeDataClass@M@@QAE@XZ PROC			; SafeDataClass<float>::~SafeDataClass<float>, COMDAT
; _this$ = ecx

; 615  : {

	push	ebp
	mov	ebp, esp
	sub	esp, 68					; 00000044H
	push	ebx
	push	esi
	push	edi
	mov	DWORD PTR _this$[ebp], ecx

; 616  : 	if (Handle.Is_Valid())

	mov	ecx, DWORD PTR _this$[ebp]
	call	?Is_Valid@DataSafeHandleClass@@QBE_NXZ	; DataSafeHandleClass::Is_Valid
	movzx	eax, al
	test	eax, eax
	je	SHORT $LN2@SafeDataCl

; 617  : 	{
; 618  : 		DataSafeClass<T>::Delete_Entry(Handle);

	mov	eax, DWORD PTR _this$[ebp]
	mov	ecx, DWORD PTR [eax]
	push	ecx
	call	?Delete_Entry@?$DataSafeClass@M@@SAXVDataSafeHandleClass@@@Z ; DataSafeClass<float>::Delete_Entry
	add	esp, 4
$LN2@SafeDataCl:

; 619  : 	}
; 620  : }

	pop	edi
	pop	esi
	pop	ebx
	mov	esp, ebp
	pop	ebp
	ret	0
??1?$SafeDataClass@M@@QAE@XZ ENDP			; SafeDataClass<float>::~SafeDataClass<float>
_TEXT	ENDS
; Function compile flags: /Odtp /ZI
; File x:\github\renegade\dragonade_rxd\scripts\datasafe.h
;	COMDAT ??0?$SafeDataClass@M@@QAE@M@Z
_TEXT	SEGMENT
$T1 = -72						; size = 4
_this$ = -4						; size = 4
_data$ = 8						; size = 4
??0?$SafeDataClass@M@@QAE@M@Z PROC			; SafeDataClass<float>::SafeDataClass<float>, COMDAT
; _this$ = ecx

; 598  : {

	push	ebp
	mov	ebp, esp
	sub	esp, 72					; 00000048H
	push	ebx
	push	esi
	push	edi
	mov	DWORD PTR _this$[ebp], ecx
	push	0
	mov	ecx, DWORD PTR _this$[ebp]
	call	??0DataSafeHandleClass@@QAE@H@Z		; DataSafeHandleClass::DataSafeHandleClass

; 599  : 	Handle = DataSafeClass<T>::Add_Entry(data);

	push	0
	lea	eax, DWORD PTR _data$[ebp]
	push	eax
	lea	ecx, DWORD PTR $T1[ebp]
	push	ecx
	call	?Add_Entry@?$DataSafeClass@M@@SA?AVDataSafeHandleClass@@AAM_N@Z ; DataSafeClass<float>::Add_Entry
	add	esp, 12					; 0000000cH
	mov	edx, DWORD PTR [eax]
	mov	eax, DWORD PTR _this$[ebp]
	mov	DWORD PTR [eax], edx

; 600  : }

	mov	eax, DWORD PTR _this$[ebp]
	pop	edi
	pop	esi
	pop	ebx
	mov	esp, ebp
	pop	ebp
	ret	4
??0?$SafeDataClass@M@@QAE@M@Z ENDP			; SafeDataClass<float>::SafeDataClass<float>
_TEXT	ENDS
; Function compile flags: /Odtp /ZI
; File x:\github\renegade\dragonade_rxd\scripts\datasafe.h
;	COMDAT ?Get@?$DataSafeClass@H@@SA_NVDataSafeHandleClass@@AAPAH@Z
_TEXT	SEGMENT
_data_entry_ptr$ = -8					; size = 4
_entry_ptr$ = -4					; size = 4
_handle$ = 8						; size = 4
_item$ = 12						; size = 4
?Get@?$DataSafeClass@H@@SA_NVDataSafeHandleClass@@AAPAH@Z PROC ; DataSafeClass<int>::Get, COMDAT

; 561  : {

	push	ebp
	mov	ebp, esp
	sub	esp, 72					; 00000048H
	push	ebx
	push	esi
	push	edi

; 562  : 	DataSafeEntryClass *entry_ptr = Get_Entry(handle);

	mov	eax, DWORD PTR _handle$[ebp]
	push	eax
	call	?Get_Entry@GenericDataSafeClass@@SAPAVDataSafeEntryClass@@VDataSafeHandleClass@@@Z ; GenericDataSafeClass::Get_Entry
	add	esp, 4
	mov	DWORD PTR _entry_ptr$[ebp], eax

; 563  : 	if (entry_ptr == NULL)

	cmp	DWORD PTR _entry_ptr$[ebp], 0
	jne	SHORT $LN2@Get

; 564  : 	{
; 565  : 		return(false);

	xor	al, al
	jmp	$LN3@Get
$LN2@Get:

; 566  : 	}
; 567  : 	DataSafeEntryDataClass<T> *data_entry_ptr = (DataSafeEntryDataClass<T>*) entry_ptr;

	mov	eax, DWORD PTR _entry_ptr$[ebp]
	mov	DWORD PTR _data_entry_ptr$[ebp], eax

; 568  : 	Mem_Copy_Decrypt(&(ReturnList[ReturnIndex][0]), &data_entry_ptr->Data, sizeof(T), false);

	push	0
	push	4
	mov	eax, DWORD PTR _data_entry_ptr$[ebp]
	add	eax, 20					; 00000014H
	push	eax
	mov	ecx, DWORD PTR ?ReturnList@?$DataSafeClass@H@@0AAV?$RefArray@V?$RefArray@D$03@@$07@@A ; DataSafeClass<int>::ReturnList
	call	??B?$RefArray@V?$RefArray@D$03@@$07@@QAEPAV?$RefArray@D$03@@XZ ; RefArray<RefArray<char,4>,8>::operator RefArray<char,4> *
	mov	ecx, DWORD PTR ?ReturnIndex@?$DataSafeClass@H@@0AAHA ; DataSafeClass<int>::ReturnIndex
	mov	edx, DWORD PTR [ecx]
	lea	ecx, DWORD PTR [eax+edx*4]
	call	??B?$RefArray@D$03@@QAEPADXZ		; RefArray<char,4>::operator char *
	mov	ecx, 1
	imul	ecx, 0
	add	eax, ecx
	push	eax
	call	?Mem_Copy_Decrypt@GenericDataSafeClass@@KAXPAX0H_N@Z ; GenericDataSafeClass::Mem_Copy_Decrypt
	add	esp, 16					; 00000010H

; 569  : 	item = (T*)(&(ReturnList[ReturnIndex][0]));

	mov	ecx, DWORD PTR ?ReturnList@?$DataSafeClass@H@@0AAV?$RefArray@V?$RefArray@D$03@@$07@@A ; DataSafeClass<int>::ReturnList
	call	??B?$RefArray@V?$RefArray@D$03@@$07@@QAEPAV?$RefArray@D$03@@XZ ; RefArray<RefArray<char,4>,8>::operator RefArray<char,4> *
	mov	ecx, DWORD PTR ?ReturnIndex@?$DataSafeClass@H@@0AAHA ; DataSafeClass<int>::ReturnIndex
	mov	edx, DWORD PTR [ecx]
	lea	ecx, DWORD PTR [eax+edx*4]
	call	??B?$RefArray@D$03@@QAEPADXZ		; RefArray<char,4>::operator char *
	mov	ecx, 1
	imul	ecx, 0
	add	eax, ecx
	mov	edx, DWORD PTR _item$[ebp]
	mov	DWORD PTR [edx], eax

; 570  : 	ReturnIndex++;

	mov	eax, DWORD PTR ?ReturnIndex@?$DataSafeClass@H@@0AAHA ; DataSafeClass<int>::ReturnIndex
	mov	ecx, DWORD PTR [eax]
	add	ecx, 1
	mov	edx, DWORD PTR ?ReturnIndex@?$DataSafeClass@H@@0AAHA ; DataSafeClass<int>::ReturnIndex
	mov	DWORD PTR [edx], ecx

; 571  : 	if (ReturnIndex >= MAX_OBJECT_COPIES)

	mov	eax, DWORD PTR ?ReturnIndex@?$DataSafeClass@H@@0AAHA ; DataSafeClass<int>::ReturnIndex
	cmp	DWORD PTR [eax], 8
	jl	SHORT $LN1@Get

; 572  : 	{
; 573  : 		ReturnIndex = 0;

	mov	eax, DWORD PTR ?ReturnIndex@?$DataSafeClass@H@@0AAHA ; DataSafeClass<int>::ReturnIndex
	mov	DWORD PTR [eax], 0
$LN1@Get:

; 574  : 	}
; 575  : 	Shuffle();

	push	0
	call	?Shuffle@GenericDataSafeClass@@KAX_N@Z	; GenericDataSafeClass::Shuffle
	add	esp, 4

; 576  : 	Security_Check();

	call	?Security_Check@GenericDataSafeClass@@KAXXZ ; GenericDataSafeClass::Security_Check

; 577  : 	return(true);

	mov	al, 1
$LN3@Get:

; 578  : }

	pop	edi
	pop	esi
	pop	ebx
	mov	esp, ebp
	pop	ebp
	ret	0
?Get@?$DataSafeClass@H@@SA_NVDataSafeHandleClass@@AAPAH@Z ENDP ; DataSafeClass<int>::Get
_TEXT	ENDS
; Function compile flags: /Odtp /ZI
; File x:\github\renegade\dragonade_rxd\scripts\datasafe.h
;	COMDAT ??B?$RefArray@PAVDataSafeEntryListClass@@$0CAAA@@@QAEPAPAVDataSafeEntryListClass@@XZ
_TEXT	SEGMENT
_this$ = -4						; size = 4
??B?$RefArray@PAVDataSafeEntryListClass@@$0CAAA@@@QAEPAPAVDataSafeEntryListClass@@XZ PROC ; RefArray<DataSafeEntryListClass *,8192>::operator DataSafeEntryListClass * *, COMDAT
; _this$ = ecx

; 44   : 	{

	push	ebp
	mov	ebp, esp
	sub	esp, 68					; 00000044H
	push	ebx
	push	esi
	push	edi
	mov	DWORD PTR _this$[ebp], ecx

; 45   : 		return (T*) this;

	mov	eax, DWORD PTR _this$[ebp]

; 46   : 	};

	pop	edi
	pop	esi
	pop	ebx
	mov	esp, ebp
	pop	ebp
	ret	0
??B?$RefArray@PAVDataSafeEntryListClass@@$0CAAA@@@QAEPAPAVDataSafeEntryListClass@@XZ ENDP ; RefArray<DataSafeEntryListClass *,8192>::operator DataSafeEntryListClass * *
_TEXT	ENDS
; Function compile flags: /Odtp /ZI
; File x:\github\renegade\dragonade_rxd\scripts\datasafe.h
;	COMDAT ??B?$RefArray@VDataSafeEntryTypeClass@@$0IA@@@QAEPAVDataSafeEntryTypeClass@@XZ
_TEXT	SEGMENT
_this$ = -4						; size = 4
??B?$RefArray@VDataSafeEntryTypeClass@@$0IA@@@QAEPAVDataSafeEntryTypeClass@@XZ PROC ; RefArray<DataSafeEntryTypeClass,128>::operator DataSafeEntryTypeClass *, COMDAT
; _this$ = ecx

; 44   : 	{

	push	ebp
	mov	ebp, esp
	sub	esp, 68					; 00000044H
	push	ebx
	push	esi
	push	edi
	mov	DWORD PTR _this$[ebp], ecx

; 45   : 		return (T*) this;

	mov	eax, DWORD PTR _this$[ebp]

; 46   : 	};

	pop	edi
	pop	esi
	pop	ebx
	mov	esp, ebp
	pop	ebp
	ret	0
??B?$RefArray@VDataSafeEntryTypeClass@@$0IA@@@QAEPAVDataSafeEntryTypeClass@@XZ ENDP ; RefArray<DataSafeEntryTypeClass,128>::operator DataSafeEntryTypeClass *
_TEXT	ENDS
; Function compile flags: /Odtp /ZI
; File x:\github\renegade\dragonade_rxd\scripts\datasafe.h
;	COMDAT ?Get_Type_Size@GenericDataSafeClass@@KAHH@Z
_TEXT	SEGMENT
_type$ = 8						; size = 4
?Get_Type_Size@GenericDataSafeClass@@KAHH@Z PROC	; GenericDataSafeClass::Get_Type_Size, COMDAT

; 294  : {

	push	ebp
	mov	ebp, esp
	sub	esp, 64					; 00000040H
	push	ebx
	push	esi
	push	edi

; 295  : 	return TypeList[type].Size;

	mov	ecx, DWORD PTR ?TypeList@GenericDataSafeClass@@1AAV?$RefArray@VDataSafeEntryTypeClass@@$0IA@@@A ; GenericDataSafeClass::TypeList
	call	??B?$RefArray@VDataSafeEntryTypeClass@@$0IA@@@QAEPAVDataSafeEntryTypeClass@@XZ ; RefArray<DataSafeEntryTypeClass,128>::operator DataSafeEntryTypeClass *
	mov	ecx, DWORD PTR _type$[ebp]
	imul	ecx, 12					; 0000000cH
	mov	eax, DWORD PTR [eax+ecx+8]

; 296  : }

	pop	edi
	pop	esi
	pop	ebx
	mov	esp, ebp
	pop	ebp
	ret	0
?Get_Type_Size@GenericDataSafeClass@@KAHH@Z ENDP	; GenericDataSafeClass::Get_Type_Size
_TEXT	ENDS
; Function compile flags: /Odtp /ZI
; File x:\github\renegade\dragonade_rxd\scripts\datasafe.h
;	COMDAT ?Security_Fault@GenericDataSafeClass@@KAXXZ
_TEXT	SEGMENT
?Security_Fault@GenericDataSafeClass@@KAXXZ PROC	; GenericDataSafeClass::Security_Fault, COMDAT

; 299  : {

	push	ebp
	mov	ebp, esp
	sub	esp, 64					; 00000040H
	push	ebx
	push	esi
	push	edi

; 300  : 	CRCErrors++;

	mov	eax, DWORD PTR ?CRCErrors@GenericDataSafeClass@@1AAHA ; GenericDataSafeClass::CRCErrors
	mov	ecx, DWORD PTR [eax]
	add	ecx, 1
	mov	edx, DWORD PTR ?CRCErrors@GenericDataSafeClass@@1AAHA ; GenericDataSafeClass::CRCErrors
	mov	DWORD PTR [edx], ecx

; 301  : 	Say_Security_Fault();

	call	?Say_Security_Fault@GenericDataSafeClass@@KAXXZ ; GenericDataSafeClass::Say_Security_Fault

; 302  : }

	pop	edi
	pop	esi
	pop	ebx
	mov	esp, ebp
	pop	ebp
	ret	0
?Security_Fault@GenericDataSafeClass@@KAXXZ ENDP	; GenericDataSafeClass::Security_Fault
_TEXT	ENDS
; Function compile flags: /Odtp /ZI
; File x:\github\renegade\dragonade_rxd\scripts\datasafe.h
;	COMDAT ?Security_Check@GenericDataSafeClass@@KAXXZ
_TEXT	SEGMENT
_got$1 = -38						; size = 1
_got$2 = -37						; size = 1
_val$3 = -36						; size = 4
_z$4 = -32						; size = 4
_j$5 = -28						; size = 4
_data_size$6 = -24					; size = 4
_data$7 = -20						; size = 4
_entry_ptr$8 = -16					; size = 4
_i$9 = -12						; size = 4
_checkey$10 = -8					; size = 4
_time$ = -4						; size = 4
?Security_Check@GenericDataSafeClass@@KAXXZ PROC	; GenericDataSafeClass::Security_Check, COMDAT

; 305  : {

	push	ebp
	mov	ebp, esp
	sub	esp, 104				; 00000068H
	push	ebx
	push	esi
	push	edi

; 306  : 	static bool _checking = false;
; 307  : 	static unsigned long _calls = 0;
; 308  : 	_calls++;

	mov	eax, DWORD PTR ?_calls@?1??Security_Check@GenericDataSafeClass@@KAXXZ@4KA ; `GenericDataSafeClass::Security_Check'::`2'::_calls
	add	eax, 1
	mov	DWORD PTR ?_calls@?1??Security_Check@GenericDataSafeClass@@KAXXZ@4KA, eax ; `GenericDataSafeClass::Security_Check'::`2'::_calls

; 309  : 	if (_calls < DATASAFE_TIME_CHECK_CALLS)

	cmp	DWORD PTR ?_calls@?1??Security_Check@GenericDataSafeClass@@KAXXZ@4KA, 100000 ; `GenericDataSafeClass::Security_Check'::`2'::_calls, 000186a0H
	jae	SHORT $LN25@Security_C

; 310  : 	{
; 311  : 		return;

	jmp	$LN26@Security_C
$LN25@Security_C:

; 312  : 	}
; 313  : 	_calls = 0;

	mov	DWORD PTR ?_calls@?1??Security_Check@GenericDataSafeClass@@KAXXZ@4KA, 0 ; `GenericDataSafeClass::Security_Check'::`2'::_calls

; 314  : 	if (HandleKey - SimpleKey == HandleKey)

	mov	eax, DWORD PTR ?HandleKey@GenericDataSafeClass@@1AAKA ; GenericDataSafeClass::HandleKey
	mov	ecx, DWORD PTR ?SimpleKey@GenericDataSafeClass@@1AAKA ; GenericDataSafeClass::SimpleKey
	mov	edx, DWORD PTR [eax]
	sub	edx, DWORD PTR [ecx]
	mov	eax, DWORD PTR ?HandleKey@GenericDataSafeClass@@1AAKA ; GenericDataSafeClass::HandleKey
	cmp	edx, DWORD PTR [eax]
	jne	SHORT $LN24@Security_C

; 315  : 	{
; 316  : 		Security_Fault();

	call	?Security_Fault@GenericDataSafeClass@@KAXXZ ; GenericDataSafeClass::Security_Fault
$LN24@Security_C:

; 317  : 	}
; 318  : 	if (SimpleKey - HandleKey == SimpleKey)

	mov	eax, DWORD PTR ?SimpleKey@GenericDataSafeClass@@1AAKA ; GenericDataSafeClass::SimpleKey
	mov	ecx, DWORD PTR ?HandleKey@GenericDataSafeClass@@1AAKA ; GenericDataSafeClass::HandleKey
	mov	edx, DWORD PTR [eax]
	sub	edx, DWORD PTR [ecx]
	mov	eax, DWORD PTR ?SimpleKey@GenericDataSafeClass@@1AAKA ; GenericDataSafeClass::SimpleKey
	cmp	edx, DWORD PTR [eax]
	jne	SHORT $LN23@Security_C

; 319  : 	{
; 320  : 		Security_Fault();

	call	?Security_Fault@GenericDataSafeClass@@KAXXZ ; GenericDataSafeClass::Security_Fault
$LN23@Security_C:

; 321  : 	}
; 322  : 	unsigned long time = TIMEGETTIME();

	mov	ecx, DWORD PTR ?SystemTime@SysTimeClass@@2AAV1@A ; SysTimeClass::SystemTime
	call	?Get@SysTimeClass@@QAEIXZ		; SysTimeClass::Get
	mov	DWORD PTR _time$[ebp], eax

; 323  : 	if (time < SecurityCheckDelay || (time | SecurityCheckDelay) == 0 || (time - SecurityCheckDelay) > SECURITY_CHECK_TIME)

	mov	eax, DWORD PTR ?SecurityCheckDelay@GenericDataSafeClass@@1AAKA ; GenericDataSafeClass::SecurityCheckDelay
	mov	ecx, DWORD PTR _time$[ebp]
	cmp	ecx, DWORD PTR [eax]
	jb	SHORT $LN21@Security_C
	mov	eax, DWORD PTR ?SecurityCheckDelay@GenericDataSafeClass@@1AAKA ; GenericDataSafeClass::SecurityCheckDelay
	mov	ecx, DWORD PTR _time$[ebp]
	or	ecx, DWORD PTR [eax]
	je	SHORT $LN21@Security_C
	mov	eax, DWORD PTR ?SecurityCheckDelay@GenericDataSafeClass@@1AAKA ; GenericDataSafeClass::SecurityCheckDelay
	mov	ecx, DWORD PTR _time$[ebp]
	sub	ecx, DWORD PTR [eax]
	cmp	ecx, 15000				; 00003a98H
	jbe	$LN26@Security_C
$LN21@Security_C:

; 324  : 	{
; 325  : 		if (!_checking)

	movzx	eax, BYTE PTR ?_checking@?1??Security_Check@GenericDataSafeClass@@KAXXZ@4_NA ; `GenericDataSafeClass::Security_Check'::`2'::_checking
	test	eax, eax
	jne	$LN26@Security_C

; 326  : 		{
; 327  : 			_checking = true;

	mov	BYTE PTR ?_checking@?1??Security_Check@GenericDataSafeClass@@KAXXZ@4_NA, 1 ; `GenericDataSafeClass::Security_Check'::`2'::_checking

; 328  : 			SecurityCheckDelay = time;

	mov	eax, DWORD PTR ?SecurityCheckDelay@GenericDataSafeClass@@1AAKA ; GenericDataSafeClass::SecurityCheckDelay
	mov	ecx, DWORD PTR _time$[ebp]
	mov	DWORD PTR [eax], ecx

; 329  : 			unsigned long checkey = ~SimpleKey;

	mov	eax, DWORD PTR ?SimpleKey@GenericDataSafeClass@@1AAKA ; GenericDataSafeClass::SimpleKey
	mov	ecx, DWORD PTR [eax]
	not	ecx
	mov	DWORD PTR _checkey$10[ebp], ecx

; 330  : 			for (int i=0 ; i<NumLists ; i++)

	mov	DWORD PTR _i$9[ebp], 0
	jmp	SHORT $LN19@Security_C
$LN18@Security_C:
	mov	eax, DWORD PTR _i$9[ebp]
	add	eax, 1
	mov	DWORD PTR _i$9[ebp], eax
$LN19@Security_C:
	mov	eax, DWORD PTR ?NumLists@GenericDataSafeClass@@1AAHA ; GenericDataSafeClass::NumLists
	mov	ecx, DWORD PTR _i$9[ebp]
	cmp	ecx, DWORD PTR [eax]
	jge	$LN17@Security_C

; 331  : 			{
; 332  : 				if (Safe[i] != NULL && Safe[i]->EntryCount > 0)

	mov	ecx, DWORD PTR ?Safe@GenericDataSafeClass@@1AAV?$RefArray@PAVDataSafeEntryListClass@@$0CAAA@@@A ; GenericDataSafeClass::Safe
	call	??B?$RefArray@PAVDataSafeEntryListClass@@$0CAAA@@@QAEPAPAVDataSafeEntryListClass@@XZ ; RefArray<DataSafeEntryListClass *,8192>::operator DataSafeEntryListClass * *
	mov	ecx, DWORD PTR _i$9[ebp]
	cmp	DWORD PTR [eax+ecx*4], 0
	je	$LN16@Security_C
	mov	ecx, DWORD PTR ?Safe@GenericDataSafeClass@@1AAV?$RefArray@PAVDataSafeEntryListClass@@$0CAAA@@@A ; GenericDataSafeClass::Safe
	call	??B?$RefArray@PAVDataSafeEntryListClass@@$0CAAA@@@QAEPAPAVDataSafeEntryListClass@@XZ ; RefArray<DataSafeEntryListClass *,8192>::operator DataSafeEntryListClass * *
	mov	ecx, DWORD PTR _i$9[ebp]
	mov	edx, DWORD PTR [eax+ecx*4]
	cmp	DWORD PTR [edx+4], 0
	jle	$LN16@Security_C

; 333  : 				{
; 334  : 					DataSafeEntryClass *entry_ptr = Safe[i]->SafeList;

	mov	ecx, DWORD PTR ?Safe@GenericDataSafeClass@@1AAV?$RefArray@PAVDataSafeEntryListClass@@$0CAAA@@@A ; GenericDataSafeClass::Safe
	call	??B?$RefArray@PAVDataSafeEntryListClass@@$0CAAA@@@QAEPAPAVDataSafeEntryListClass@@XZ ; RefArray<DataSafeEntryListClass *,8192>::operator DataSafeEntryListClass * *
	mov	ecx, DWORD PTR _i$9[ebp]
	mov	edx, DWORD PTR [eax+ecx*4]
	mov	eax, DWORD PTR [edx]
	mov	DWORD PTR _entry_ptr$8[ebp], eax

; 335  : 					unsigned long *data = NULL;

	mov	DWORD PTR _data$7[ebp], 0

; 336  : 					int data_size = entry_ptr->Size;

	mov	eax, DWORD PTR _entry_ptr$8[ebp]
	mov	ecx, DWORD PTR [eax+12]
	mov	DWORD PTR _data_size$6[ebp], ecx

; 337  : 					data_size = data_size >> 2;

	mov	eax, DWORD PTR _data_size$6[ebp]
	sar	eax, 2
	mov	DWORD PTR _data_size$6[ebp], eax

; 338  : 					if (entry_ptr)

	cmp	DWORD PTR _entry_ptr$8[ebp], 0
	je	SHORT $LN16@Security_C

; 339  : 					{
; 340  : 						for (int j=0 ; j<Safe[i]->EntryCount ; j++)

	mov	DWORD PTR _j$5[ebp], 0
	jmp	SHORT $LN14@Security_C
$LN13@Security_C:
	mov	eax, DWORD PTR _j$5[ebp]
	add	eax, 1
	mov	DWORD PTR _j$5[ebp], eax
$LN14@Security_C:
	mov	ecx, DWORD PTR ?Safe@GenericDataSafeClass@@1AAV?$RefArray@PAVDataSafeEntryListClass@@$0CAAA@@@A ; GenericDataSafeClass::Safe
	call	??B?$RefArray@PAVDataSafeEntryListClass@@$0CAAA@@@QAEPAPAVDataSafeEntryListClass@@XZ ; RefArray<DataSafeEntryListClass *,8192>::operator DataSafeEntryListClass * *
	mov	ecx, DWORD PTR _i$9[ebp]
	mov	edx, DWORD PTR [eax+ecx*4]
	mov	eax, DWORD PTR _j$5[ebp]
	cmp	eax, DWORD PTR [edx+4]
	jge	SHORT $LN16@Security_C

; 341  : 						{
; 342  : 							checkey ^= entry_ptr->Handle;

	mov	ecx, DWORD PTR _entry_ptr$8[ebp]
	call	??BDataSafeHandleClass@@QAEHXZ		; DataSafeHandleClass::operator int
	xor	eax, DWORD PTR _checkey$10[ebp]
	mov	DWORD PTR _checkey$10[ebp], eax

; 343  : 							data = (unsigned long *) (((char*)entry_ptr) + sizeof(*entry_ptr));

	mov	eax, DWORD PTR _entry_ptr$8[ebp]
	add	eax, 20					; 00000014H
	mov	DWORD PTR _data$7[ebp], eax

; 344  : 							for (int z=0 ; z<data_size ; z++)

	mov	DWORD PTR _z$4[ebp], 0
	jmp	SHORT $LN11@Security_C
$LN10@Security_C:
	mov	eax, DWORD PTR _z$4[ebp]
	add	eax, 1
	mov	DWORD PTR _z$4[ebp], eax
$LN11@Security_C:
	mov	eax, DWORD PTR _z$4[ebp]
	cmp	eax, DWORD PTR _data_size$6[ebp]
	jge	SHORT $LN9@Security_C

; 345  : 							{
; 346  : 								checkey ^= *data++;

	mov	eax, DWORD PTR _data$7[ebp]
	mov	ecx, DWORD PTR _checkey$10[ebp]
	xor	ecx, DWORD PTR [eax]
	mov	DWORD PTR _checkey$10[ebp], ecx
	mov	edx, DWORD PTR _data$7[ebp]
	add	edx, 4
	mov	DWORD PTR _data$7[ebp], edx

; 347  : 							}

	jmp	SHORT $LN10@Security_C
$LN9@Security_C:

; 348  : 							entry_ptr = entry_ptr->Next;

	mov	eax, DWORD PTR _entry_ptr$8[ebp]
	mov	ecx, DWORD PTR [eax+4]
	mov	DWORD PTR _entry_ptr$8[ebp], ecx

; 349  : 						}

	jmp	SHORT $LN13@Security_C
$LN16@Security_C:

; 350  : 					}
; 351  : 				}
; 352  : 			}

	jmp	$LN18@Security_C
$LN17@Security_C:

; 353  : 			if (checkey != Checksum)

	mov	eax, DWORD PTR ?Checksum@GenericDataSafeClass@@1AAKA ; GenericDataSafeClass::Checksum
	mov	ecx, DWORD PTR _checkey$10[ebp]
	cmp	ecx, DWORD PTR [eax]
	je	SHORT $LN8@Security_C

; 354  : 			{
; 355  : 				Security_Fault();

	call	?Security_Fault@GenericDataSafeClass@@KAXXZ ; GenericDataSafeClass::Security_Fault
$LN8@Security_C:

; 356  : 			}
; 357  : 			if (NumLists)

	mov	eax, DWORD PTR ?NumLists@GenericDataSafeClass@@1AAHA ; GenericDataSafeClass::NumLists
	cmp	DWORD PTR [eax], 0
	je	$LN7@Security_C

; 358  : 			{
; 359  : 				int *val = NULL;

	mov	DWORD PTR _val$3[ebp], 0

; 360  : 				if ((int)SentinelOne != 0)

	mov	ecx, DWORD PTR ?SentinelOne@GenericDataSafeClass@@1AAVDataSafeHandleClass@@A ; GenericDataSafeClass::SentinelOne
	call	??BDataSafeHandleClass@@QAEHXZ		; DataSafeHandleClass::operator int
	test	eax, eax
	je	SHORT $LN6@Security_C

; 361  : 				{
; 362  : 					bool got = DataSafeClass<int>::Get(SentinelOne, val);

	lea	eax, DWORD PTR _val$3[ebp]
	push	eax
	mov	ecx, DWORD PTR ?SentinelOne@GenericDataSafeClass@@1AAVDataSafeHandleClass@@A ; GenericDataSafeClass::SentinelOne
	mov	edx, DWORD PTR [ecx]
	push	edx
	call	?Get@?$DataSafeClass@H@@SA_NVDataSafeHandleClass@@AAPAH@Z ; DataSafeClass<int>::Get
	add	esp, 8
	mov	BYTE PTR _got$2[ebp], al

; 363  : 					if (!got || val == NULL || *val != SENTINEL_ONE)

	movzx	eax, BYTE PTR _got$2[ebp]
	test	eax, eax
	je	SHORT $LN4@Security_C
	cmp	DWORD PTR _val$3[ebp], 0
	je	SHORT $LN4@Security_C
	mov	eax, DWORD PTR _val$3[ebp]
	cmp	DWORD PTR [eax], 696730466		; 29874362H
	je	SHORT $LN6@Security_C
$LN4@Security_C:

; 364  : 					{
; 365  : 						Security_Fault();

	call	?Security_Fault@GenericDataSafeClass@@KAXXZ ; GenericDataSafeClass::Security_Fault
$LN6@Security_C:

; 366  : 					}
; 367  : 				}
; 368  : 				val = NULL;

	mov	DWORD PTR _val$3[ebp], 0

; 369  : 				if ((int)SentinelTwo != 0)

	mov	ecx, DWORD PTR ?SentinelTwo@GenericDataSafeClass@@1AAVDataSafeHandleClass@@A ; GenericDataSafeClass::SentinelTwo
	call	??BDataSafeHandleClass@@QAEHXZ		; DataSafeHandleClass::operator int
	test	eax, eax
	je	SHORT $LN7@Security_C

; 370  : 				{
; 371  : 					bool got = DataSafeClass<int>::Get(SentinelTwo, val);

	lea	eax, DWORD PTR _val$3[ebp]
	push	eax
	mov	ecx, DWORD PTR ?SentinelTwo@GenericDataSafeClass@@1AAVDataSafeHandleClass@@A ; GenericDataSafeClass::SentinelTwo
	mov	edx, DWORD PTR [ecx]
	push	edx
	call	?Get@?$DataSafeClass@H@@SA_NVDataSafeHandleClass@@AAPAH@Z ; DataSafeClass<int>::Get
	add	esp, 8
	mov	BYTE PTR _got$1[ebp], al

; 372  : 					if (!got || val == NULL || *val != SENTINEL_TWO)

	movzx	eax, BYTE PTR _got$1[ebp]
	test	eax, eax
	je	SHORT $LN1@Security_C
	cmp	DWORD PTR _val$3[ebp], 0
	je	SHORT $LN1@Security_C
	mov	eax, DWORD PTR _val$3[ebp]
	cmp	DWORD PTR [eax], 195890093		; 0bad0badH
	je	SHORT $LN7@Security_C
$LN1@Security_C:

; 373  : 					{
; 374  : 						Security_Fault();

	call	?Security_Fault@GenericDataSafeClass@@KAXXZ ; GenericDataSafeClass::Security_Fault
$LN7@Security_C:

; 375  : 					}
; 376  : 				}
; 377  : 			}
; 378  : 			_checking = false;

	mov	BYTE PTR ?_checking@?1??Security_Check@GenericDataSafeClass@@KAXXZ@4_NA, 0 ; `GenericDataSafeClass::Security_Check'::`2'::_checking
$LN26@Security_C:

; 379  : 		}
; 380  : 	}
; 381  : }

	pop	edi
	pop	esi
	pop	ebx
	mov	esp, ebp
	pop	ebp
	ret	0
?Security_Check@GenericDataSafeClass@@KAXXZ ENDP	; GenericDataSafeClass::Security_Check
_TEXT	ENDS
; Function compile flags: /Odtp /ZI
;	COMDAT ??_FDataSafeHandleClass@@QAEXXZ
_TEXT	SEGMENT
_this$ = -4						; size = 4
??_FDataSafeHandleClass@@QAEXXZ PROC			; DataSafeHandleClass::`default constructor closure', COMDAT
; _this$ = ecx
	push	ebp
	mov	ebp, esp
	sub	esp, 68					; 00000044H
	push	ebx
	push	esi
	push	edi
	mov	DWORD PTR _this$[ebp], ecx
	push	0
	mov	ecx, DWORD PTR _this$[ebp]
	call	??0DataSafeHandleClass@@QAE@H@Z		; DataSafeHandleClass::DataSafeHandleClass
	pop	edi
	pop	esi
	pop	ebx
	mov	esp, ebp
	pop	ebp
	ret	0
??_FDataSafeHandleClass@@QAEXXZ ENDP			; DataSafeHandleClass::`default constructor closure'
_TEXT	ENDS
; Function compile flags: /Odtp /ZI
; File x:\github\renegade\dragonade_rxd\scripts\datasafe.h
;	COMDAT ??BDataSafeHandleClass@@QAEHXZ
_TEXT	SEGMENT
_this$ = -4						; size = 4
??BDataSafeHandleClass@@QAEHXZ PROC			; DataSafeHandleClass::operator int, COMDAT
; _this$ = ecx

; 77   : 	{

	push	ebp
	mov	ebp, esp
	sub	esp, 68					; 00000044H
	push	ebx
	push	esi
	push	edi
	mov	DWORD PTR _this$[ebp], ecx

; 78   : 		return Handle.Whole.WholeHandle;

	mov	eax, DWORD PTR _this$[ebp]
	mov	eax, DWORD PTR [eax]

; 79   : 	}

	pop	edi
	pop	esi
	pop	ebx
	mov	esp, ebp
	pop	ebp
	ret	0
??BDataSafeHandleClass@@QAEHXZ ENDP			; DataSafeHandleClass::operator int
_TEXT	ENDS
; Function compile flags: /Odtp /ZI
; File x:\github\renegade\dragonade_rxd\scripts\datasafe.h
;	COMDAT ??4DataSafeHandleClass@@QAEHABH@Z
_TEXT	SEGMENT
_this$ = -4						; size = 4
_val$ = 8						; size = 4
??4DataSafeHandleClass@@QAEHABH@Z PROC			; DataSafeHandleClass::operator=, COMDAT
; _this$ = ecx

; 72   : 	{

	push	ebp
	mov	ebp, esp
	sub	esp, 68					; 00000044H
	push	ebx
	push	esi
	push	edi
	mov	DWORD PTR _this$[ebp], ecx

; 73   : 		Handle.Whole.WholeHandle = val;

	mov	eax, DWORD PTR _this$[ebp]
	mov	ecx, DWORD PTR _val$[ebp]
	mov	edx, DWORD PTR [ecx]
	mov	DWORD PTR [eax], edx

; 74   : 		return val;

	mov	eax, DWORD PTR _val$[ebp]
	mov	eax, DWORD PTR [eax]

; 75   : 	}

	pop	edi
	pop	esi
	pop	ebx
	mov	esp, ebp
	pop	ebp
	ret	4
??4DataSafeHandleClass@@QAEHABH@Z ENDP			; DataSafeHandleClass::operator=
_TEXT	ENDS
; Function compile flags: /Odtp /ZI
; File x:\github\renegade\dragonade_rxd\scripts\datasafe.h
;	COMDAT ?Is_Valid@DataSafeHandleClass@@QBE_NXZ
_TEXT	SEGMENT
tv68 = -72						; size = 4
_this$ = -4						; size = 4
?Is_Valid@DataSafeHandleClass@@QBE_NXZ PROC		; DataSafeHandleClass::Is_Valid, COMDAT
; _this$ = ecx

; 68   : 	{

	push	ebp
	mov	ebp, esp
	sub	esp, 72					; 00000048H
	push	ebx
	push	esi
	push	edi
	mov	DWORD PTR _this$[ebp], ecx

; 69   : 		return Handle.Whole.WholeHandle != -1;

	mov	eax, DWORD PTR _this$[ebp]
	cmp	DWORD PTR [eax], -1
	je	SHORT $LN3@Is_Valid
	mov	DWORD PTR tv68[ebp], 1
	jmp	SHORT $LN4@Is_Valid
$LN3@Is_Valid:
	mov	DWORD PTR tv68[ebp], 0
$LN4@Is_Valid:
	mov	al, BYTE PTR tv68[ebp]

; 70   : 	}

	pop	edi
	pop	esi
	pop	ebx
	mov	esp, ebp
	pop	ebp
	ret	0
?Is_Valid@DataSafeHandleClass@@QBE_NXZ ENDP		; DataSafeHandleClass::Is_Valid
_TEXT	ENDS
; Function compile flags: /Odtp /ZI
; File x:\github\renegade\dragonade_rxd\scripts\datasafe.h
;	COMDAT ??0DataSafeHandleClass@@QAE@H@Z
_TEXT	SEGMENT
_this$ = -4						; size = 4
_val$ = 8						; size = 4
??0DataSafeHandleClass@@QAE@H@Z PROC			; DataSafeHandleClass::DataSafeHandleClass, COMDAT
; _this$ = ecx

; 63   : 	DataSafeHandleClass(int val = 0)

	push	ebp
	mov	ebp, esp
	sub	esp, 68					; 00000044H
	push	ebx
	push	esi
	push	edi
	mov	DWORD PTR _this$[ebp], ecx

; 64   : 	{
; 65   : 		Handle.Whole.WholeHandle = val;

	mov	eax, DWORD PTR _this$[ebp]
	mov	ecx, DWORD PTR _val$[ebp]
	mov	DWORD PTR [eax], ecx

; 66   : 	}

	mov	eax, DWORD PTR _this$[ebp]
	pop	edi
	pop	esi
	pop	ebx
	mov	esp, ebp
	pop	ebp
	ret	4
??0DataSafeHandleClass@@QAE@H@Z ENDP			; DataSafeHandleClass::DataSafeHandleClass
_TEXT	ENDS
; Function compile flags: /Odtp /ZI
;	COMDAT ??4SysTimeClass@@QAEAAV0@ABV0@@Z
_TEXT	SEGMENT
_this$ = -4						; size = 4
___that$ = 8						; size = 4
??4SysTimeClass@@QAEAAV0@ABV0@@Z PROC			; SysTimeClass::operator=, COMDAT
; _this$ = ecx
	push	ebp
	mov	ebp, esp
	sub	esp, 68					; 00000044H
	push	ebx
	push	esi
	push	edi
	mov	DWORD PTR _this$[ebp], ecx
	mov	eax, DWORD PTR ___that$[ebp]
	mov	ecx, DWORD PTR [eax]
	mov	edx, DWORD PTR [eax+4]
	mov	eax, DWORD PTR _this$[ebp]
	mov	DWORD PTR [eax], ecx
	mov	DWORD PTR [eax+4], edx
	mov	eax, DWORD PTR _this$[ebp]
	pop	edi
	pop	esi
	pop	ebx
	mov	esp, ebp
	pop	ebp
	ret	4
??4SysTimeClass@@QAEAAV0@ABV0@@Z ENDP			; SysTimeClass::operator=
_TEXT	ENDS
; Function compile flags: /Odtp /ZI
; File x:\github\renegade\dragonade_rxd\scripts\referenceableclass.h
;	COMDAT ?Get_Data@?$ReferenceableClass@VScriptableGameObj@@@@IBEPAVScriptableGameObj@@XZ
_TEXT	SEGMENT
_this$ = -4						; size = 4
?Get_Data@?$ReferenceableClass@VScriptableGameObj@@@@IBEPAVScriptableGameObj@@XZ PROC ; ReferenceableClass<ScriptableGameObj>::Get_Data, COMDAT
; _this$ = ecx

; 30   : 	T * Get_Data( void ) const	{ return ReferenceData; }

	push	ebp
	mov	ebp, esp
	sub	esp, 68					; 00000044H
	push	ebx
	push	esi
	push	edi
	mov	DWORD PTR _this$[ebp], ecx
	mov	eax, DWORD PTR _this$[ebp]
	mov	eax, DWORD PTR [eax+4]
	pop	edi
	pop	esi
	pop	ebx
	mov	esp, ebp
	pop	ebp
	ret	0
?Get_Data@?$ReferenceableClass@VScriptableGameObj@@@@IBEPAVScriptableGameObj@@XZ ENDP ; ReferenceableClass<ScriptableGameObj>::Get_Data
_TEXT	ENDS
; Function compile flags: /Odtp /ZI
;	COMDAT ??_EReferencerClass@@UAEPAXI@Z
_TEXT	SEGMENT
_this$ = -4						; size = 4
___flags$ = 8						; size = 4
??_EReferencerClass@@UAEPAXI@Z PROC			; ReferencerClass::`vector deleting destructor', COMDAT
; _this$ = ecx
	push	ebp
	mov	ebp, esp
	sub	esp, 68					; 00000044H
	push	ebx
	push	esi
	push	edi
	mov	DWORD PTR _this$[ebp], ecx
	mov	eax, DWORD PTR ___flags$[ebp]
	and	eax, 2
	je	SHORT $LN3@vector
	push	OFFSET ??1ReferencerClass@@UAE@XZ	; ReferencerClass::~ReferencerClass
	mov	eax, DWORD PTR _this$[ebp]
	mov	ecx, DWORD PTR [eax-4]
	push	ecx
	push	16					; 00000010H
	mov	edx, DWORD PTR _this$[ebp]
	push	edx
	call	??_I@YGXPAXIHP6EX0@Z@Z
	mov	eax, DWORD PTR ___flags$[ebp]
	and	eax, 1
	je	SHORT $LN2@vector
	mov	eax, DWORD PTR _this$[ebp]
	sub	eax, 4
	push	eax
	call	??_V@YAXPAX@Z				; operator delete[]
	add	esp, 4
$LN2@vector:
	mov	eax, DWORD PTR _this$[ebp]
	sub	eax, 4
	jmp	SHORT $LN4@vector
$LN3@vector:
	mov	ecx, DWORD PTR _this$[ebp]
	call	??1ReferencerClass@@UAE@XZ		; ReferencerClass::~ReferencerClass
	mov	eax, DWORD PTR ___flags$[ebp]
	and	eax, 1
	je	SHORT $LN1@vector
	mov	eax, DWORD PTR _this$[ebp]
	push	eax
	call	??3@YAXPAX@Z				; operator delete
	add	esp, 4
$LN1@vector:
	mov	eax, DWORD PTR _this$[ebp]
$LN4@vector:
	pop	edi
	pop	esi
	pop	ebx
	mov	esp, ebp
	pop	ebp
	ret	4
??_EReferencerClass@@UAEPAXI@Z ENDP			; ReferencerClass::`vector deleting destructor'
_TEXT	ENDS
; Function compile flags: /Odtp /ZI
;	COMDAT ??_GReferencerClass@@UAEPAXI@Z
_TEXT	SEGMENT
_this$ = -4						; size = 4
___flags$ = 8						; size = 4
??_GReferencerClass@@UAEPAXI@Z PROC			; ReferencerClass::`scalar deleting destructor', COMDAT
; _this$ = ecx
	push	ebp
	mov	ebp, esp
	sub	esp, 68					; 00000044H
	push	ebx
	push	esi
	push	edi
	mov	DWORD PTR _this$[ebp], ecx
	mov	ecx, DWORD PTR _this$[ebp]
	call	??1ReferencerClass@@UAE@XZ		; ReferencerClass::~ReferencerClass
	mov	eax, DWORD PTR ___flags$[ebp]
	and	eax, 1
	je	SHORT $LN1@scalar
	mov	eax, DWORD PTR _this$[ebp]
	push	eax
	call	??3@YAXPAX@Z				; operator delete
	add	esp, 4
$LN1@scalar:
	mov	eax, DWORD PTR _this$[ebp]
	pop	edi
	pop	esi
	pop	ebx
	mov	esp, ebp
	pop	ebp
	ret	4
??_GReferencerClass@@UAEPAXI@Z ENDP			; ReferencerClass::`scalar deleting destructor'
_TEXT	ENDS
; Function compile flags: /Odtp /ZI
;	COMDAT ??0ReferencerClass@@QAE@ABV0@@Z
_TEXT	SEGMENT
_this$ = -4						; size = 4
___that$ = 8						; size = 4
??0ReferencerClass@@QAE@ABV0@@Z PROC			; ReferencerClass::ReferencerClass, COMDAT
; _this$ = ecx
	push	ebp
	mov	ebp, esp
	sub	esp, 68					; 00000044H
	push	ebx
	push	esi
	push	edi
	mov	DWORD PTR _this$[ebp], ecx
	mov	eax, DWORD PTR ___that$[ebp]
	push	eax
	mov	ecx, DWORD PTR _this$[ebp]
	call	??0PostLoadableClass@@QAE@ABV0@@Z
	mov	eax, DWORD PTR _this$[ebp]
	mov	DWORD PTR [eax], OFFSET ??_7ReferencerClass@@6B@
	mov	eax, DWORD PTR _this$[ebp]
	mov	ecx, DWORD PTR ___that$[ebp]
	mov	edx, DWORD PTR [ecx+8]
	mov	DWORD PTR [eax+8], edx
	mov	eax, DWORD PTR _this$[ebp]
	mov	ecx, DWORD PTR ___that$[ebp]
	mov	edx, DWORD PTR [ecx+12]
	mov	DWORD PTR [eax+12], edx
	mov	eax, DWORD PTR _this$[ebp]
	pop	edi
	pop	esi
	pop	ebx
	mov	esp, ebp
	pop	ebp
	ret	4
??0ReferencerClass@@QAE@ABV0@@Z ENDP			; ReferencerClass::ReferencerClass
_TEXT	ENDS
; Function compile flags: /Odtp /ZI
; File x:\github\renegade\dragonade_rxd\scripts\referencerclass.h
;	COMDAT ?Set_Ptr@ReferencerClass@@QAEXPAVScriptableGameObj@@@Z
_TEXT	SEGMENT
_this$ = -4						; size = 4
_object$ = 8						; size = 4
?Set_Ptr@ReferencerClass@@QAEXPAVScriptableGameObj@@@Z PROC ; ReferencerClass::Set_Ptr, COMDAT
; _this$ = ecx

; 61   : 	{

	push	ebp
	mov	ebp, esp
	sub	esp, 68					; 00000044H
	push	ebx
	push	esi
	push	edi
	mov	DWORD PTR _this$[ebp], ecx

; 62   : 		*this = object;

	mov	eax, DWORD PTR _object$[ebp]
	push	eax
	mov	ecx, DWORD PTR _this$[ebp]
	call	??4ReferencerClass@@QAEAAV0@PAVScriptableGameObj@@@Z ; ReferencerClass::operator=

; 63   : 	}

	pop	edi
	pop	esi
	pop	ebx
	mov	esp, ebp
	pop	ebp
	ret	4
?Set_Ptr@ReferencerClass@@QAEXPAVScriptableGameObj@@@Z ENDP ; ReferencerClass::Set_Ptr
_TEXT	ENDS
; Function compile flags: /Odtp /ZI
; File x:\github\renegade\dragonade_rxd\scripts\referencerclass.h
;	COMDAT ?Get_Ptr@ReferencerClass@@QBEPAVScriptableGameObj@@XZ
_TEXT	SEGMENT
tv69 = -72						; size = 4
_this$ = -4						; size = 4
?Get_Ptr@ReferencerClass@@QBEPAVScriptableGameObj@@XZ PROC ; ReferencerClass::Get_Ptr, COMDAT
; _this$ = ecx

; 54   : 	{

	push	ebp
	mov	ebp, esp
	sub	esp, 72					; 00000048H
	push	ebx
	push	esi
	push	edi
	mov	DWORD PTR _this$[ebp], ecx

; 55   : 		return ReferenceTarget ? ReferenceTarget->Get_Data() : NULL;

	mov	eax, DWORD PTR _this$[ebp]
	cmp	DWORD PTR [eax+8], 0
	je	SHORT $LN3@Get_Ptr
	mov	ecx, DWORD PTR _this$[ebp]
	mov	ecx, DWORD PTR [ecx+8]
	call	?Get_Data@?$ReferenceableClass@VScriptableGameObj@@@@IBEPAVScriptableGameObj@@XZ ; ReferenceableClass<ScriptableGameObj>::Get_Data
	mov	DWORD PTR tv69[ebp], eax
	jmp	SHORT $LN4@Get_Ptr
$LN3@Get_Ptr:
	mov	DWORD PTR tv69[ebp], 0
$LN4@Get_Ptr:
	mov	eax, DWORD PTR tv69[ebp]

; 56   : 	}

	pop	edi
	pop	esi
	pop	ebx
	mov	esp, ebp
	pop	ebp
	ret	0
?Get_Ptr@ReferencerClass@@QBEPAVScriptableGameObj@@XZ ENDP ; ReferencerClass::Get_Ptr
_TEXT	ENDS
; Function compile flags: /Odtp /ZI
; File x:\github\renegade\dragonade_rxd\scripts\referencerclass.h
;	COMDAT ??0ReferencerClass@@QAE@PAVScriptableGameObj@@@Z
_TEXT	SEGMENT
_this$ = -4						; size = 4
_object$ = 8						; size = 4
??0ReferencerClass@@QAE@PAVScriptableGameObj@@@Z PROC	; ReferencerClass::ReferencerClass, COMDAT
; _this$ = ecx

; 48   : 	{

	push	ebp
	mov	ebp, esp
	sub	esp, 68					; 00000044H
	push	ebx
	push	esi
	push	edi
	mov	DWORD PTR _this$[ebp], ecx
	mov	ecx, DWORD PTR _this$[ebp]
	call	??0PostLoadableClass@@QAE@XZ		; PostLoadableClass::PostLoadableClass
	mov	eax, DWORD PTR _this$[ebp]
	mov	DWORD PTR [eax], OFFSET ??_7ReferencerClass@@6B@
	mov	eax, DWORD PTR _this$[ebp]
	mov	DWORD PTR [eax+8], 0
	mov	eax, DWORD PTR _this$[ebp]
	mov	DWORD PTR [eax+12], 0

; 49   : 		*this = object;

	mov	eax, DWORD PTR _object$[ebp]
	push	eax
	mov	ecx, DWORD PTR _this$[ebp]
	call	??4ReferencerClass@@QAEAAV0@PAVScriptableGameObj@@@Z ; ReferencerClass::operator=

; 50   : 	}

	mov	eax, DWORD PTR _this$[ebp]
	pop	edi
	pop	esi
	pop	ebx
	mov	esp, ebp
	pop	ebp
	ret	4
??0ReferencerClass@@QAE@PAVScriptableGameObj@@@Z ENDP	; ReferencerClass::ReferencerClass
_TEXT	ENDS
; Function compile flags: /Odtp /ZI
; File x:\github\renegade\dragonade_rxd\scripts\referencerclass.h
;	COMDAT ??0ReferencerClass@@QAE@XZ
_TEXT	SEGMENT
_this$ = -4						; size = 4
??0ReferencerClass@@QAE@XZ PROC				; ReferencerClass::ReferencerClass, COMDAT
; _this$ = ecx

; 41   : 	{

	push	ebp
	mov	ebp, esp
	sub	esp, 68					; 00000044H
	push	ebx
	push	esi
	push	edi
	mov	DWORD PTR _this$[ebp], ecx
	mov	ecx, DWORD PTR _this$[ebp]
	call	??0PostLoadableClass@@QAE@XZ		; PostLoadableClass::PostLoadableClass
	mov	eax, DWORD PTR _this$[ebp]
	mov	DWORD PTR [eax], OFFSET ??_7ReferencerClass@@6B@
	mov	eax, DWORD PTR _this$[ebp]
	mov	DWORD PTR [eax+8], 0
	mov	eax, DWORD PTR _this$[ebp]
	mov	DWORD PTR [eax+12], 0

; 42   : 	}

	mov	eax, DWORD PTR _this$[ebp]
	pop	edi
	pop	esi
	pop	ebx
	mov	esp, ebp
	pop	ebp
	ret	0
??0ReferencerClass@@QAE@XZ ENDP				; ReferencerClass::ReferencerClass
_TEXT	ENDS
; Function compile flags: /Odtp /ZI
; File x:\github\renegade\dragonade_rxd\scripts\referencerclass.h
;	COMDAT ??CReferencerClass@@QAEPAVScriptableGameObj@@XZ
_TEXT	SEGMENT
_this$ = -4						; size = 4
??CReferencerClass@@QAEPAVScriptableGameObj@@XZ PROC	; ReferencerClass::operator->, COMDAT
; _this$ = ecx

; 37   : 	inline ScriptableGameObj* operator ->() { return Get_Ptr(); }

	push	ebp
	mov	ebp, esp
	sub	esp, 68					; 00000044H
	push	ebx
	push	esi
	push	edi
	mov	DWORD PTR _this$[ebp], ecx
	mov	ecx, DWORD PTR _this$[ebp]
	call	?Get_Ptr@ReferencerClass@@QBEPAVScriptableGameObj@@XZ ; ReferencerClass::Get_Ptr
	pop	edi
	pop	esi
	pop	ebx
	mov	esp, ebp
	pop	ebp
	ret	0
??CReferencerClass@@QAEPAVScriptableGameObj@@XZ ENDP	; ReferencerClass::operator->
_TEXT	ENDS
; Function compile flags: /Odtp /ZI
;	COMDAT ??4file_auto_ptr@@QAEAAV0@ABV0@@Z
_TEXT	SEGMENT
_this$ = -4						; size = 4
___that$ = 8						; size = 4
??4file_auto_ptr@@QAEAAV0@ABV0@@Z PROC			; file_auto_ptr::operator=, COMDAT
; _this$ = ecx
	push	ebp
	mov	ebp, esp
	sub	esp, 68					; 00000044H
	push	ebx
	push	esi
	push	edi
	mov	DWORD PTR _this$[ebp], ecx
	mov	eax, DWORD PTR ___that$[ebp]
	mov	ecx, DWORD PTR [eax]
	mov	edx, DWORD PTR [eax+4]
	mov	eax, DWORD PTR _this$[ebp]
	mov	DWORD PTR [eax], ecx
	mov	DWORD PTR [eax+4], edx
	mov	eax, DWORD PTR _this$[ebp]
	pop	edi
	pop	esi
	pop	ebx
	mov	esp, ebp
	pop	ebp
	ret	4
??4file_auto_ptr@@QAEAAV0@ABV0@@Z ENDP			; file_auto_ptr::operator=
_TEXT	ENDS
; Function compile flags: /Odtp /ZI
; File x:\github\renegade\dragonade_rxd\scripts\engine_io.h
;	COMDAT ?get@file_auto_ptr@@QAEPAVFileClass@@XZ
_TEXT	SEGMENT
_this$ = -4						; size = 4
?get@file_auto_ptr@@QAEPAVFileClass@@XZ PROC		; file_auto_ptr::get, COMDAT
; _this$ = ecx

; 202  : 	FileClass* get() { return _Ptr; }

	push	ebp
	mov	ebp, esp
	sub	esp, 68					; 00000044H
	push	ebx
	push	esi
	push	edi
	mov	DWORD PTR _this$[ebp], ecx
	mov	eax, DWORD PTR _this$[ebp]
	mov	eax, DWORD PTR [eax]
	pop	edi
	pop	esi
	pop	ebx
	mov	esp, ebp
	pop	ebp
	ret	0
?get@file_auto_ptr@@QAEPAVFileClass@@XZ ENDP		; file_auto_ptr::get
_TEXT	ENDS
; Function compile flags: /Odtp /ZI
; File x:\github\renegade\dragonade_rxd\scripts\engine_io.h
;	COMDAT ??Dfile_auto_ptr@@QAEAAVFileClass@@XZ
_TEXT	SEGMENT
_this$ = -4						; size = 4
??Dfile_auto_ptr@@QAEAAVFileClass@@XZ PROC		; file_auto_ptr::operator*, COMDAT
; _this$ = ecx

; 201  : 	FileClass& operator*() { return *_Ptr; }

	push	ebp
	mov	ebp, esp
	sub	esp, 68					; 00000044H
	push	ebx
	push	esi
	push	edi
	mov	DWORD PTR _this$[ebp], ecx
	mov	eax, DWORD PTR _this$[ebp]
	mov	eax, DWORD PTR [eax]
	pop	edi
	pop	esi
	pop	ebx
	mov	esp, ebp
	pop	ebp
	ret	0
??Dfile_auto_ptr@@QAEAAVFileClass@@XZ ENDP		; file_auto_ptr::operator*
_TEXT	ENDS
; Function compile flags: /Odtp /ZI
; File x:\github\renegade\dragonade_rxd\scripts\engine_io.h
;	COMDAT ??Bfile_auto_ptr@@QAEPAVFileClass@@XZ
_TEXT	SEGMENT
_this$ = -4						; size = 4
??Bfile_auto_ptr@@QAEPAVFileClass@@XZ PROC		; file_auto_ptr::operator FileClass *, COMDAT
; _this$ = ecx

; 200  : 	operator FileClass *() { return _Ptr; }

	push	ebp
	mov	ebp, esp
	sub	esp, 68					; 00000044H
	push	ebx
	push	esi
	push	edi
	mov	DWORD PTR _this$[ebp], ecx
	mov	eax, DWORD PTR _this$[ebp]
	mov	eax, DWORD PTR [eax]
	pop	edi
	pop	esi
	pop	ebx
	mov	esp, ebp
	pop	ebp
	ret	0
??Bfile_auto_ptr@@QAEPAVFileClass@@XZ ENDP		; file_auto_ptr::operator FileClass *
_TEXT	ENDS
; Function compile flags: /Odtp /ZI
; File x:\github\renegade\dragonade_rxd\scripts\engine_io.h
;	COMDAT ??Cfile_auto_ptr@@QAEPAVFileClass@@XZ
_TEXT	SEGMENT
_this$ = -4						; size = 4
??Cfile_auto_ptr@@QAEPAVFileClass@@XZ PROC		; file_auto_ptr::operator->, COMDAT
; _this$ = ecx

; 199  : 	FileClass* operator ->() { return _Ptr; }

	push	ebp
	mov	ebp, esp
	sub	esp, 68					; 00000044H
	push	ebx
	push	esi
	push	edi
	mov	DWORD PTR _this$[ebp], ecx
	mov	eax, DWORD PTR _this$[ebp]
	mov	eax, DWORD PTR [eax]
	pop	edi
	pop	esi
	pop	ebx
	mov	esp, ebp
	pop	ebp
	ret	0
??Cfile_auto_ptr@@QAEPAVFileClass@@XZ ENDP		; file_auto_ptr::operator->
_TEXT	ENDS
; Function compile flags: /Odtp /ZI
;	COMDAT ??_EINIClass@@UAEPAXI@Z
_TEXT	SEGMENT
_this$ = -4						; size = 4
___flags$ = 8						; size = 4
??_EINIClass@@UAEPAXI@Z PROC				; INIClass::`vector deleting destructor', COMDAT
; _this$ = ecx
	push	ebp
	mov	ebp, esp
	sub	esp, 68					; 00000044H
	push	ebx
	push	esi
	push	edi
	mov	DWORD PTR _this$[ebp], ecx
	mov	eax, DWORD PTR ___flags$[ebp]
	and	eax, 2
	je	SHORT $LN3@vector
	push	OFFSET ??1INIClass@@UAE@XZ		; INIClass::~INIClass
	mov	eax, DWORD PTR _this$[ebp]
	mov	ecx, DWORD PTR [eax-4]
	push	ecx
	push	16					; 00000010H
	mov	edx, DWORD PTR _this$[ebp]
	push	edx
	call	??_I@YGXPAXIHP6EX0@Z@Z
	mov	eax, DWORD PTR ___flags$[ebp]
	and	eax, 1
	je	SHORT $LN2@vector
	mov	eax, DWORD PTR _this$[ebp]
	sub	eax, 4
	push	eax
	call	??_V@YAXPAX@Z				; operator delete[]
	add	esp, 4
$LN2@vector:
	mov	eax, DWORD PTR _this$[ebp]
	sub	eax, 4
	jmp	SHORT $LN4@vector
$LN3@vector:
	mov	ecx, DWORD PTR _this$[ebp]
	call	??1INIClass@@UAE@XZ			; INIClass::~INIClass
	mov	eax, DWORD PTR ___flags$[ebp]
	and	eax, 1
	je	SHORT $LN1@vector
	mov	eax, DWORD PTR _this$[ebp]
	push	eax
	call	??3@YAXPAX@Z				; operator delete
	add	esp, 4
$LN1@vector:
	mov	eax, DWORD PTR _this$[ebp]
$LN4@vector:
	pop	edi
	pop	esi
	pop	ebx
	mov	esp, ebp
	pop	ebp
	ret	4
??_EINIClass@@UAEPAXI@Z ENDP				; INIClass::`vector deleting destructor'
_TEXT	ENDS
; Function compile flags: /Odtp /ZI
;	COMDAT ??_GINIClass@@UAEPAXI@Z
_TEXT	SEGMENT
_this$ = -4						; size = 4
___flags$ = 8						; size = 4
??_GINIClass@@UAEPAXI@Z PROC				; INIClass::`scalar deleting destructor', COMDAT
; _this$ = ecx
	push	ebp
	mov	ebp, esp
	sub	esp, 68					; 00000044H
	push	ebx
	push	esi
	push	edi
	mov	DWORD PTR _this$[ebp], ecx
	mov	ecx, DWORD PTR _this$[ebp]
	call	??1INIClass@@UAE@XZ			; INIClass::~INIClass
	mov	eax, DWORD PTR ___flags$[ebp]
	and	eax, 1
	je	SHORT $LN1@scalar
	mov	eax, DWORD PTR _this$[ebp]
	push	eax
	call	??3@YAXPAX@Z				; operator delete
	add	esp, 4
$LN1@scalar:
	mov	eax, DWORD PTR _this$[ebp]
	pop	edi
	pop	esi
	pop	ebx
	mov	esp, ebp
	pop	ebp
	ret	4
??_GINIClass@@UAEPAXI@Z ENDP				; INIClass::`scalar deleting destructor'
_TEXT	ENDS
; Function compile flags: /Odtp /ZI
;	COMDAT ??4INIClass@@QAEAAV0@ABV0@@Z
_TEXT	SEGMENT
_this$ = -4						; size = 4
___that$ = 8						; size = 4
??4INIClass@@QAEAAV0@ABV0@@Z PROC			; INIClass::operator=, COMDAT
; _this$ = ecx
	push	ebp
	mov	ebp, esp
	sub	esp, 68					; 00000044H
	push	ebx
	push	esi
	push	edi
	mov	DWORD PTR _this$[ebp], ecx
	mov	eax, DWORD PTR _this$[ebp]
	mov	ecx, DWORD PTR ___that$[ebp]
	mov	edx, DWORD PTR [ecx+4]
	mov	DWORD PTR [eax+4], edx
	mov	eax, DWORD PTR _this$[ebp]
	mov	ecx, DWORD PTR ___that$[ebp]
	mov	edx, DWORD PTR [ecx+8]
	mov	DWORD PTR [eax+8], edx
	mov	eax, DWORD PTR _this$[ebp]
	mov	ecx, DWORD PTR ___that$[ebp]
	mov	edx, DWORD PTR [ecx+12]
	mov	DWORD PTR [eax+12], edx
	mov	eax, DWORD PTR _this$[ebp]
	pop	edi
	pop	esi
	pop	ebx
	mov	esp, ebp
	pop	ebp
	ret	4
??4INIClass@@QAEAAV0@ABV0@@Z ENDP			; INIClass::operator=
_TEXT	ENDS
; Function compile flags: /Odtp /ZI
;	COMDAT ??0INIClass@@QAE@ABV0@@Z
_TEXT	SEGMENT
_this$ = -4						; size = 4
___that$ = 8						; size = 4
??0INIClass@@QAE@ABV0@@Z PROC				; INIClass::INIClass, COMDAT
; _this$ = ecx
	push	ebp
	mov	ebp, esp
	sub	esp, 68					; 00000044H
	push	ebx
	push	esi
	push	edi
	mov	DWORD PTR _this$[ebp], ecx
	mov	eax, DWORD PTR _this$[ebp]
	mov	DWORD PTR [eax], OFFSET ??_7INIClass@@6B@
	mov	eax, DWORD PTR _this$[ebp]
	mov	ecx, DWORD PTR ___that$[ebp]
	mov	edx, DWORD PTR [ecx+4]
	mov	DWORD PTR [eax+4], edx
	mov	eax, DWORD PTR _this$[ebp]
	mov	ecx, DWORD PTR ___that$[ebp]
	mov	edx, DWORD PTR [ecx+8]
	mov	DWORD PTR [eax+8], edx
	mov	eax, DWORD PTR _this$[ebp]
	mov	ecx, DWORD PTR ___that$[ebp]
	mov	edx, DWORD PTR [ecx+12]
	mov	DWORD PTR [eax+12], edx
	mov	eax, DWORD PTR _this$[ebp]
	pop	edi
	pop	esi
	pop	ebx
	mov	esp, ebp
	pop	ebp
	ret	4
??0INIClass@@QAE@ABV0@@Z ENDP				; INIClass::INIClass
_TEXT	ENDS
; Function compile flags: /Odtp /ZI
; File x:\github\renegade\dragonade_rxd\scripts\engine_io.h
;	COMDAT ?Get_File_Name@INIClass@@QAEPBDXZ
_TEXT	SEGMENT
_this$ = -4						; size = 4
?Get_File_Name@INIClass@@QAEPBDXZ PROC			; INIClass::Get_File_Name, COMDAT
; _this$ = ecx

; 183  : 	const char *Get_File_Name() { //DA

	push	ebp
	mov	ebp, esp
	sub	esp, 68					; 00000044H
	push	ebx
	push	esi
	push	edi
	mov	DWORD PTR _this$[ebp], ecx

; 184  : 		return Filename;

	mov	eax, DWORD PTR _this$[ebp]
	mov	eax, DWORD PTR [eax+12]

; 185  : 	}

	pop	edi
	pop	esi
	pop	ebx
	mov	esp, ebp
	pop	ebp
	ret	0
?Get_File_Name@INIClass@@QAEPBDXZ ENDP			; INIClass::Get_File_Name
_TEXT	ENDS
; Function compile flags: /Odtp /ZI
; File x:\github\renegade\dragonade_rxd\scripts\engine_io.h
;	COMDAT ?Get_Section_Index@INIClass@@QAEAAV?$IndexClass@HPAUINISection@@@@XZ
_TEXT	SEGMENT
_this$ = -4						; size = 4
?Get_Section_Index@INIClass@@QAEAAV?$IndexClass@HPAUINISection@@@@XZ PROC ; INIClass::Get_Section_Index, COMDAT
; _this$ = ecx

; 180  : 	{

	push	ebp
	mov	ebp, esp
	sub	esp, 68					; 00000044H
	push	ebx
	push	esi
	push	edi
	mov	DWORD PTR _this$[ebp], ecx

; 181  : 		return *SectionIndex;

	mov	eax, DWORD PTR _this$[ebp]
	mov	eax, DWORD PTR [eax+8]

; 182  : 	}

	pop	edi
	pop	esi
	pop	ebx
	mov	esp, ebp
	pop	ebp
	ret	0
?Get_Section_Index@INIClass@@QAEAAV?$IndexClass@HPAUINISection@@@@XZ ENDP ; INIClass::Get_Section_Index
_TEXT	ENDS
; Function compile flags: /Odtp /ZI
; File x:\github\renegade\dragonade_rxd\scripts\engine_io.h
;	COMDAT ?Get_Section_List@INIClass@@QAEAAV?$List@PAUINISection@@@@XZ
_TEXT	SEGMENT
_this$ = -4						; size = 4
?Get_Section_List@INIClass@@QAEAAV?$List@PAUINISection@@@@XZ PROC ; INIClass::Get_Section_List, COMDAT
; _this$ = ecx

; 176  : 	{

	push	ebp
	mov	ebp, esp
	sub	esp, 68					; 00000044H
	push	ebx
	push	esi
	push	edi
	mov	DWORD PTR _this$[ebp], ecx

; 177  : 		return *SectionList;

	mov	eax, DWORD PTR _this$[ebp]
	mov	eax, DWORD PTR [eax+4]

; 178  : 	}

	pop	edi
	pop	esi
	pop	ebx
	mov	esp, ebp
	pop	ebp
	ret	0
?Get_Section_List@INIClass@@QAEAAV?$List@PAUINISection@@@@XZ ENDP ; INIClass::Get_Section_List
_TEXT	ENDS
; Function compile flags: /Odtp /ZI
; File x:\github\renegade\dragonade_rxd\scripts\engine_io.h
;	COMDAT ?Section_Present@INIClass@@QBE_NPBD@Z
_TEXT	SEGMENT
tv68 = -72						; size = 4
_this$ = -4						; size = 4
_section$ = 8						; size = 4
?Section_Present@INIClass@@QBE_NPBD@Z PROC		; INIClass::Section_Present, COMDAT
; _this$ = ecx

; 172  : 	{

	push	ebp
	mov	ebp, esp
	sub	esp, 72					; 00000048H
	push	ebx
	push	esi
	push	edi
	mov	DWORD PTR _this$[ebp], ecx

; 173  : 		return Find_Section(section) != 0;

	mov	eax, DWORD PTR _section$[ebp]
	push	eax
	mov	ecx, DWORD PTR _this$[ebp]
	call	?Find_Section@INIClass@@QBEPAUINISection@@PBD@Z ; INIClass::Find_Section
	test	eax, eax
	je	SHORT $LN3@Section_Pr
	mov	DWORD PTR tv68[ebp], 1
	jmp	SHORT $LN4@Section_Pr
$LN3@Section_Pr:
	mov	DWORD PTR tv68[ebp], 0
$LN4@Section_Pr:
	mov	al, BYTE PTR tv68[ebp]

; 174  : 	}

	pop	edi
	pop	esi
	pop	ebx
	mov	esp, ebp
	pop	ebp
	ret	4
?Section_Present@INIClass@@QBE_NPBD@Z ENDP		; INIClass::Section_Present
_TEXT	ENDS
; Function compile flags: /Odtp /ZI
; File x:\github\renegade\dragonade_rxd\scripts\engine_io.h
;	COMDAT ?Is_Present@INIClass@@QBE_NPBD0@Z
_TEXT	SEGMENT
tv76 = -72						; size = 4
tv70 = -72						; size = 4
_this$ = -4						; size = 4
_section$ = 8						; size = 4
_entry$ = 12						; size = 4
?Is_Present@INIClass@@QBE_NPBD0@Z PROC			; INIClass::Is_Present, COMDAT
; _this$ = ecx

; 161  : 	{

	push	ebp
	mov	ebp, esp
	sub	esp, 72					; 00000048H
	push	ebx
	push	esi
	push	edi
	mov	DWORD PTR _this$[ebp], ecx

; 162  : 		if (entry)

	cmp	DWORD PTR _entry$[ebp], 0
	je	SHORT $LN2@Is_Present

; 163  : 		{
; 164  : 			return Find_Entry(section,entry) != 0;

	mov	eax, DWORD PTR _entry$[ebp]
	push	eax
	mov	ecx, DWORD PTR _section$[ebp]
	push	ecx
	mov	ecx, DWORD PTR _this$[ebp]
	call	?Find_Entry@INIClass@@QBEPAUINIEntry@@PBD0@Z ; INIClass::Find_Entry
	test	eax, eax
	je	SHORT $LN5@Is_Present
	mov	DWORD PTR tv70[ebp], 1
	jmp	SHORT $LN6@Is_Present
$LN5@Is_Present:
	mov	DWORD PTR tv70[ebp], 0
$LN6@Is_Present:
	mov	al, BYTE PTR tv70[ebp]
	jmp	SHORT $LN3@Is_Present

; 165  : 		}
; 166  : 		else

	jmp	SHORT $LN3@Is_Present
$LN2@Is_Present:

; 167  : 		{
; 168  : 			return Find_Section(section) != 0;

	mov	eax, DWORD PTR _section$[ebp]
	push	eax
	mov	ecx, DWORD PTR _this$[ebp]
	call	?Find_Section@INIClass@@QBEPAUINISection@@PBD@Z ; INIClass::Find_Section
	test	eax, eax
	je	SHORT $LN7@Is_Present
	mov	DWORD PTR tv76[ebp], 1
	jmp	SHORT $LN8@Is_Present
$LN7@Is_Present:
	mov	DWORD PTR tv76[ebp], 0
$LN8@Is_Present:
	mov	al, BYTE PTR tv76[ebp]
$LN3@Is_Present:

; 169  : 		}
; 170  : 	}

	pop	edi
	pop	esi
	pop	ebx
	mov	esp, ebp
	pop	ebp
	ret	8
?Is_Present@INIClass@@QBE_NPBD0@Z ENDP			; INIClass::Is_Present
_TEXT	ENDS
; Function compile flags: /Odtp /ZI
;	COMDAT ??4ChunkSaveClass@@QAEAAV0@ABV0@@Z
_TEXT	SEGMENT
_this$ = -4						; size = 4
___that$ = 8						; size = 4
??4ChunkSaveClass@@QAEAAV0@ABV0@@Z PROC			; ChunkSaveClass::operator=, COMDAT
; _this$ = ecx
	push	ebp
	mov	ebp, esp
	sub	esp, 68					; 00000044H
	push	ebx
	push	esi
	push	edi
	mov	DWORD PTR _this$[ebp], ecx
	mov	ecx, 773				; 00000305H
	mov	esi, DWORD PTR ___that$[ebp]
	mov	edi, DWORD PTR _this$[ebp]
	rep movsd
	mov	eax, DWORD PTR _this$[ebp]
	pop	edi
	pop	esi
	pop	ebx
	mov	esp, ebp
	pop	ebp
	ret	4
??4ChunkSaveClass@@QAEAAV0@ABV0@@Z ENDP			; ChunkSaveClass::operator=
_TEXT	ENDS
; Function compile flags: /Odtp /ZI
; File x:\github\renegade\dragonade_rxd\scripts\chunkclass.h
;	COMDAT ?Set_Contains_Chunks@ChunkSaveClass@@QAEXXZ
_TEXT	SEGMENT
_this$ = -4						; size = 4
?Set_Contains_Chunks@ChunkSaveClass@@QAEXXZ PROC	; ChunkSaveClass::Set_Contains_Chunks, COMDAT
; _this$ = ecx

; 102  : 	{

	push	ebp
	mov	ebp, esp
	sub	esp, 68					; 00000044H
	push	ebx
	push	esi
	push	edi
	mov	DWORD PTR _this$[ebp], ecx

; 103  : 		HeaderStack[StackIndex-1].ChunkSize |= 0x80000000;

	mov	eax, DWORD PTR _this$[ebp]
	mov	ecx, DWORD PTR [eax+4]
	mov	edx, DWORD PTR _this$[ebp]
	mov	eax, DWORD PTR [edx+ecx*8+1028]
	or	eax, -2147483648			; 80000000H
	mov	ecx, DWORD PTR _this$[ebp]
	mov	edx, DWORD PTR [ecx+4]
	mov	ecx, DWORD PTR _this$[ebp]
	mov	DWORD PTR [ecx+edx*8+1028], eax

; 104  : 	}

	pop	edi
	pop	esi
	pop	ebx
	mov	esp, ebp
	pop	ebp
	ret	0
?Set_Contains_Chunks@ChunkSaveClass@@QAEXXZ ENDP	; ChunkSaveClass::Set_Contains_Chunks
_TEXT	ENDS
; Function compile flags: /Odtp /ZI
;	COMDAT ??4ChunkLoadClass@@QAEAAV0@ABV0@@Z
_TEXT	SEGMENT
_this$ = -4						; size = 4
___that$ = 8						; size = 4
??4ChunkLoadClass@@QAEAAV0@ABV0@@Z PROC			; ChunkLoadClass::operator=, COMDAT
; _this$ = ecx
	push	ebp
	mov	ebp, esp
	sub	esp, 68					; 00000044H
	push	ebx
	push	esi
	push	edi
	mov	DWORD PTR _this$[ebp], ecx
	mov	ecx, 773				; 00000305H
	mov	esi, DWORD PTR ___that$[ebp]
	mov	edi, DWORD PTR _this$[ebp]
	rep movsd
	mov	eax, DWORD PTR _this$[ebp]
	pop	edi
	pop	esi
	pop	ebx
	mov	esp, ebp
	pop	ebp
	ret	4
??4ChunkLoadClass@@QAEAAV0@ABV0@@Z ENDP			; ChunkLoadClass::operator=
_TEXT	ENDS
; Function compile flags: /Odtp /ZI
;	COMDAT ??_EStringClass@@QAEPAXI@Z
_TEXT	SEGMENT
_this$ = -4						; size = 4
___flags$ = 8						; size = 4
??_EStringClass@@QAEPAXI@Z PROC				; StringClass::`vector deleting destructor', COMDAT
; _this$ = ecx
	push	ebp
	mov	ebp, esp
	sub	esp, 68					; 00000044H
	push	ebx
	push	esi
	push	edi
	mov	DWORD PTR _this$[ebp], ecx
	mov	eax, DWORD PTR ___flags$[ebp]
	and	eax, 2
	je	SHORT $LN3@vector
	push	OFFSET ??1StringClass@@QAE@XZ		; StringClass::~StringClass
	mov	eax, DWORD PTR _this$[ebp]
	mov	ecx, DWORD PTR [eax-4]
	push	ecx
	push	4
	mov	edx, DWORD PTR _this$[ebp]
	push	edx
	call	??_I@YGXPAXIHP6EX0@Z@Z
	mov	eax, DWORD PTR ___flags$[ebp]
	and	eax, 1
	je	SHORT $LN2@vector
	mov	eax, DWORD PTR _this$[ebp]
	sub	eax, 4
	push	eax
	call	??_V@YAXPAX@Z				; operator delete[]
	add	esp, 4
$LN2@vector:
	mov	eax, DWORD PTR _this$[ebp]
	sub	eax, 4
	jmp	SHORT $LN4@vector
$LN3@vector:
	mov	ecx, DWORD PTR _this$[ebp]
	call	??1StringClass@@QAE@XZ			; StringClass::~StringClass
	mov	eax, DWORD PTR ___flags$[ebp]
	and	eax, 1
	je	SHORT $LN1@vector
	mov	eax, DWORD PTR _this$[ebp]
	push	eax
	call	??3@YAXPAX@Z				; operator delete
	add	esp, 4
$LN1@vector:
	mov	eax, DWORD PTR _this$[ebp]
$LN4@vector:
	pop	edi
	pop	esi
	pop	ebx
	mov	esp, ebp
	pop	ebp
	ret	4
??_EStringClass@@QAEPAXI@Z ENDP				; StringClass::`vector deleting destructor'
_TEXT	ENDS
; Function compile flags: /Odtp /ZI
; File x:\github\renegade\dragonade_rxd\scripts\engine_string.h
;	COMDAT ??1StringClass@@QAE@XZ
_TEXT	SEGMENT
_this$ = -4						; size = 4
??1StringClass@@QAE@XZ PROC				; StringClass::~StringClass, COMDAT
; _this$ = ecx

; 366  : {

	push	ebp
	mov	ebp, esp
	sub	esp, 68					; 00000044H
	push	ebx
	push	esi
	push	edi
	mov	DWORD PTR _this$[ebp], ecx

; 367  : 	Free_String ();

	mov	ecx, DWORD PTR _this$[ebp]
	call	DWORD PTR __imp_?Free_String@StringClass@@AAEXXZ

; 368  : }

	pop	edi
	pop	esi
	pop	ebx
	mov	esp, ebp
	pop	ebp
	ret	0
??1StringClass@@QAE@XZ ENDP				; StringClass::~StringClass
_TEXT	ENDS
; Function compile flags: /Odtp /ZI
;	COMDAT ??_EPostLoadableClass@@UAEPAXI@Z
_TEXT	SEGMENT
_this$ = -4						; size = 4
___flags$ = 8						; size = 4
??_EPostLoadableClass@@UAEPAXI@Z PROC			; PostLoadableClass::`vector deleting destructor', COMDAT
; _this$ = ecx
	push	ebp
	mov	ebp, esp
	sub	esp, 68					; 00000044H
	push	ebx
	push	esi
	push	edi
	mov	DWORD PTR _this$[ebp], ecx
	mov	eax, DWORD PTR ___flags$[ebp]
	and	eax, 2
	je	SHORT $LN3@vector
	push	OFFSET ??1PostLoadableClass@@UAE@XZ	; PostLoadableClass::~PostLoadableClass
	mov	eax, DWORD PTR _this$[ebp]
	mov	ecx, DWORD PTR [eax-4]
	push	ecx
	push	8
	mov	edx, DWORD PTR _this$[ebp]
	push	edx
	call	??_I@YGXPAXIHP6EX0@Z@Z
	mov	eax, DWORD PTR ___flags$[ebp]
	and	eax, 1
	je	SHORT $LN2@vector
	mov	eax, DWORD PTR _this$[ebp]
	sub	eax, 4
	push	eax
	call	??_V@YAXPAX@Z				; operator delete[]
	add	esp, 4
$LN2@vector:
	mov	eax, DWORD PTR _this$[ebp]
	sub	eax, 4
	jmp	SHORT $LN4@vector
$LN3@vector:
	mov	ecx, DWORD PTR _this$[ebp]
	call	??1PostLoadableClass@@UAE@XZ		; PostLoadableClass::~PostLoadableClass
	mov	eax, DWORD PTR ___flags$[ebp]
	and	eax, 1
	je	SHORT $LN1@vector
	mov	eax, DWORD PTR _this$[ebp]
	push	eax
	call	??3@YAXPAX@Z				; operator delete
	add	esp, 4
$LN1@vector:
	mov	eax, DWORD PTR _this$[ebp]
$LN4@vector:
	pop	edi
	pop	esi
	pop	ebx
	mov	esp, ebp
	pop	ebp
	ret	4
??_EPostLoadableClass@@UAEPAXI@Z ENDP			; PostLoadableClass::`vector deleting destructor'
_TEXT	ENDS
; Function compile flags: /Odtp /ZI
;	COMDAT ??_GPostLoadableClass@@UAEPAXI@Z
_TEXT	SEGMENT
_this$ = -4						; size = 4
___flags$ = 8						; size = 4
??_GPostLoadableClass@@UAEPAXI@Z PROC			; PostLoadableClass::`scalar deleting destructor', COMDAT
; _this$ = ecx
	push	ebp
	mov	ebp, esp
	sub	esp, 68					; 00000044H
	push	ebx
	push	esi
	push	edi
	mov	DWORD PTR _this$[ebp], ecx
	mov	ecx, DWORD PTR _this$[ebp]
	call	??1PostLoadableClass@@UAE@XZ		; PostLoadableClass::~PostLoadableClass
	mov	eax, DWORD PTR ___flags$[ebp]
	and	eax, 1
	je	SHORT $LN1@scalar
	mov	eax, DWORD PTR _this$[ebp]
	push	eax
	call	??3@YAXPAX@Z				; operator delete
	add	esp, 4
$LN1@scalar:
	mov	eax, DWORD PTR _this$[ebp]
	pop	edi
	pop	esi
	pop	ebx
	mov	esp, ebp
	pop	ebp
	ret	4
??_GPostLoadableClass@@UAEPAXI@Z ENDP			; PostLoadableClass::`scalar deleting destructor'
_TEXT	ENDS
; Function compile flags: /Odtp /ZI
;	COMDAT ??4PostLoadableClass@@QAEAAV0@ABV0@@Z
_TEXT	SEGMENT
_this$ = -4						; size = 4
___that$ = 8						; size = 4
??4PostLoadableClass@@QAEAAV0@ABV0@@Z PROC		; PostLoadableClass::operator=, COMDAT
; _this$ = ecx
	push	ebp
	mov	ebp, esp
	sub	esp, 68					; 00000044H
	push	ebx
	push	esi
	push	edi
	mov	DWORD PTR _this$[ebp], ecx
	mov	eax, DWORD PTR _this$[ebp]
	mov	ecx, DWORD PTR ___that$[ebp]
	mov	dl, BYTE PTR [ecx+4]
	mov	BYTE PTR [eax+4], dl
	mov	eax, DWORD PTR _this$[ebp]
	pop	edi
	pop	esi
	pop	ebx
	mov	esp, ebp
	pop	ebp
	ret	4
??4PostLoadableClass@@QAEAAV0@ABV0@@Z ENDP		; PostLoadableClass::operator=
_TEXT	ENDS
; Function compile flags: /Odtp /ZI
;	COMDAT ??0PostLoadableClass@@QAE@ABV0@@Z
_TEXT	SEGMENT
_this$ = -4						; size = 4
___that$ = 8						; size = 4
??0PostLoadableClass@@QAE@ABV0@@Z PROC			; PostLoadableClass::PostLoadableClass, COMDAT
; _this$ = ecx
	push	ebp
	mov	ebp, esp
	sub	esp, 68					; 00000044H
	push	ebx
	push	esi
	push	edi
	mov	DWORD PTR _this$[ebp], ecx
	mov	eax, DWORD PTR _this$[ebp]
	mov	DWORD PTR [eax], OFFSET ??_7PostLoadableClass@@6B@
	mov	eax, DWORD PTR _this$[ebp]
	mov	ecx, DWORD PTR ___that$[ebp]
	mov	dl, BYTE PTR [ecx+4]
	mov	BYTE PTR [eax+4], dl
	mov	eax, DWORD PTR _this$[ebp]
	pop	edi
	pop	esi
	pop	ebx
	mov	esp, ebp
	pop	ebp
	ret	4
??0PostLoadableClass@@QAE@ABV0@@Z ENDP			; PostLoadableClass::PostLoadableClass
_TEXT	ENDS
; Function compile flags: /Odtp /ZI
; File x:\github\renegade\dragonade_rxd\scripts\postloadableclass.h
;	COMDAT ?Set_Post_Load_Registered@PostLoadableClass@@QAEX_N@Z
_TEXT	SEGMENT
_this$ = -4						; size = 4
_onoff$ = 8						; size = 1
?Set_Post_Load_Registered@PostLoadableClass@@QAEX_N@Z PROC ; PostLoadableClass::Set_Post_Load_Registered, COMDAT
; _this$ = ecx

; 22   : 	void									Set_Post_Load_Registered(bool onoff)	{ IsPostLoadRegistered = onoff; }

	push	ebp
	mov	ebp, esp
	sub	esp, 68					; 00000044H
	push	ebx
	push	esi
	push	edi
	mov	DWORD PTR _this$[ebp], ecx
	mov	eax, DWORD PTR _this$[ebp]
	mov	cl, BYTE PTR _onoff$[ebp]
	mov	BYTE PTR [eax+4], cl
	pop	edi
	pop	esi
	pop	ebx
	mov	esp, ebp
	pop	ebp
	ret	4
?Set_Post_Load_Registered@PostLoadableClass@@QAEX_N@Z ENDP ; PostLoadableClass::Set_Post_Load_Registered
_TEXT	ENDS
; Function compile flags: /Odtp /ZI
; File x:\github\renegade\dragonade_rxd\scripts\postloadableclass.h
;	COMDAT ?Is_Post_Load_Registered@PostLoadableClass@@QBE_NXZ
_TEXT	SEGMENT
_this$ = -4						; size = 4
?Is_Post_Load_Registered@PostLoadableClass@@QBE_NXZ PROC ; PostLoadableClass::Is_Post_Load_Registered, COMDAT
; _this$ = ecx

; 21   : 	bool									Is_Post_Load_Registered(void) const				{ return IsPostLoadRegistered; }

	push	ebp
	mov	ebp, esp
	sub	esp, 68					; 00000044H
	push	ebx
	push	esi
	push	edi
	mov	DWORD PTR _this$[ebp], ecx
	mov	eax, DWORD PTR _this$[ebp]
	mov	al, BYTE PTR [eax+4]
	pop	edi
	pop	esi
	pop	ebx
	mov	esp, ebp
	pop	ebp
	ret	0
?Is_Post_Load_Registered@PostLoadableClass@@QBE_NXZ ENDP ; PostLoadableClass::Is_Post_Load_Registered
_TEXT	ENDS
; Function compile flags: /Odtp /ZI
; File x:\github\renegade\dragonade_rxd\scripts\postloadableclass.h
;	COMDAT ?On_Post_Load@PostLoadableClass@@UAEXXZ
_TEXT	SEGMENT
_this$ = -4						; size = 4
?On_Post_Load@PostLoadableClass@@UAEXXZ PROC		; PostLoadableClass::On_Post_Load, COMDAT
; _this$ = ecx

; 20   : 	virtual void						On_Post_Load (void)							{ }

	push	ebp
	mov	ebp, esp
	sub	esp, 68					; 00000044H
	push	ebx
	push	esi
	push	edi
	mov	DWORD PTR _this$[ebp], ecx
	pop	edi
	pop	esi
	pop	ebx
	mov	esp, ebp
	pop	ebp
	ret	0
?On_Post_Load@PostLoadableClass@@UAEXXZ ENDP		; PostLoadableClass::On_Post_Load
_TEXT	ENDS
; Function compile flags: /Odtp /ZI
; File x:\github\renegade\dragonade_rxd\scripts\postloadableclass.h
;	COMDAT ??1PostLoadableClass@@UAE@XZ
_TEXT	SEGMENT
_this$ = -4						; size = 4
??1PostLoadableClass@@UAE@XZ PROC			; PostLoadableClass::~PostLoadableClass, COMDAT
; _this$ = ecx

; 19   : 	virtual ~PostLoadableClass(void)													{ }

	push	ebp
	mov	ebp, esp
	sub	esp, 68					; 00000044H
	push	ebx
	push	esi
	push	edi
	mov	DWORD PTR _this$[ebp], ecx
	mov	eax, DWORD PTR _this$[ebp]
	mov	DWORD PTR [eax], OFFSET ??_7PostLoadableClass@@6B@
	pop	edi
	pop	esi
	pop	ebx
	mov	esp, ebp
	pop	ebp
	ret	0
??1PostLoadableClass@@UAE@XZ ENDP			; PostLoadableClass::~PostLoadableClass
_TEXT	ENDS
; Function compile flags: /Odtp /ZI
; File x:\github\renegade\dragonade_rxd\scripts\postloadableclass.h
;	COMDAT ??0PostLoadableClass@@QAE@XZ
_TEXT	SEGMENT
_this$ = -4						; size = 4
??0PostLoadableClass@@QAE@XZ PROC			; PostLoadableClass::PostLoadableClass, COMDAT
; _this$ = ecx

; 18   : 	PostLoadableClass(void) : IsPostLoadRegistered(false)						{ }

	push	ebp
	mov	ebp, esp
	sub	esp, 68					; 00000044H
	push	ebx
	push	esi
	push	edi
	mov	DWORD PTR _this$[ebp], ecx
	mov	eax, DWORD PTR _this$[ebp]
	mov	DWORD PTR [eax], OFFSET ??_7PostLoadableClass@@6B@
	mov	eax, DWORD PTR _this$[ebp]
	mov	BYTE PTR [eax+4], 0
	mov	eax, DWORD PTR _this$[ebp]
	pop	edi
	pop	esi
	pop	ebx
	mov	esp, ebp
	pop	ebp
	ret	0
??0PostLoadableClass@@QAE@XZ ENDP			; PostLoadableClass::PostLoadableClass
_TEXT	ENDS
; Function compile flags: /Odtp /ZI
;	COMDAT ??4CriticalSectionClass@@QAEAAV0@ABV0@@Z
_TEXT	SEGMENT
_this$ = -4						; size = 4
___that$ = 8						; size = 4
??4CriticalSectionClass@@QAEAAV0@ABV0@@Z PROC		; CriticalSectionClass::operator=, COMDAT
; _this$ = ecx
	push	ebp
	mov	ebp, esp
	sub	esp, 68					; 00000044H
	push	ebx
	push	esi
	push	edi
	mov	DWORD PTR _this$[ebp], ecx
	mov	eax, DWORD PTR ___that$[ebp]
	mov	ecx, DWORD PTR [eax]
	mov	edx, DWORD PTR [eax+4]
	mov	eax, DWORD PTR _this$[ebp]
	mov	DWORD PTR [eax], ecx
	mov	DWORD PTR [eax+4], edx
	mov	eax, DWORD PTR _this$[ebp]
	pop	edi
	pop	esi
	pop	ebx
	mov	esp, ebp
	pop	ebp
	ret	4
??4CriticalSectionClass@@QAEAAV0@ABV0@@Z ENDP		; CriticalSectionClass::operator=
_TEXT	ENDS
; Function compile flags: /Odtp /ZI
;	COMDAT ??_EThreadClass@@UAEPAXI@Z
_TEXT	SEGMENT
_this$ = -4						; size = 4
___flags$ = 8						; size = 4
??_EThreadClass@@UAEPAXI@Z PROC				; ThreadClass::`vector deleting destructor', COMDAT
; _this$ = ecx
	push	ebp
	mov	ebp, esp
	sub	esp, 68					; 00000044H
	push	ebx
	push	esi
	push	edi
	mov	DWORD PTR _this$[ebp], ecx
	mov	eax, DWORD PTR ___flags$[ebp]
	and	eax, 2
	je	SHORT $LN3@vector
	push	OFFSET ??1ThreadClass@@UAE@XZ		; ThreadClass::~ThreadClass
	mov	eax, DWORD PTR _this$[ebp]
	mov	ecx, DWORD PTR [eax-4]
	push	ecx
	push	88					; 00000058H
	mov	edx, DWORD PTR _this$[ebp]
	push	edx
	call	??_I@YGXPAXIHP6EX0@Z@Z
	mov	eax, DWORD PTR ___flags$[ebp]
	and	eax, 1
	je	SHORT $LN2@vector
	mov	eax, DWORD PTR _this$[ebp]
	sub	eax, 4
	push	eax
	call	??_V@YAXPAX@Z				; operator delete[]
	add	esp, 4
$LN2@vector:
	mov	eax, DWORD PTR _this$[ebp]
	sub	eax, 4
	jmp	SHORT $LN4@vector
$LN3@vector:
	mov	ecx, DWORD PTR _this$[ebp]
	call	??1ThreadClass@@UAE@XZ			; ThreadClass::~ThreadClass
	mov	eax, DWORD PTR ___flags$[ebp]
	and	eax, 1
	je	SHORT $LN1@vector
	mov	eax, DWORD PTR _this$[ebp]
	push	eax
	call	??3@YAXPAX@Z				; operator delete
	add	esp, 4
$LN1@vector:
	mov	eax, DWORD PTR _this$[ebp]
$LN4@vector:
	pop	edi
	pop	esi
	pop	ebx
	mov	esp, ebp
	pop	ebp
	ret	4
??_EThreadClass@@UAEPAXI@Z ENDP				; ThreadClass::`vector deleting destructor'
_TEXT	ENDS
; Function compile flags: /Odtp /ZI
;	COMDAT ??_GThreadClass@@UAEPAXI@Z
_TEXT	SEGMENT
_this$ = -4						; size = 4
___flags$ = 8						; size = 4
??_GThreadClass@@UAEPAXI@Z PROC				; ThreadClass::`scalar deleting destructor', COMDAT
; _this$ = ecx
	push	ebp
	mov	ebp, esp
	sub	esp, 68					; 00000044H
	push	ebx
	push	esi
	push	edi
	mov	DWORD PTR _this$[ebp], ecx
	mov	ecx, DWORD PTR _this$[ebp]
	call	??1ThreadClass@@UAE@XZ			; ThreadClass::~ThreadClass
	mov	eax, DWORD PTR ___flags$[ebp]
	and	eax, 1
	je	SHORT $LN1@scalar
	mov	eax, DWORD PTR _this$[ebp]
	push	eax
	call	??3@YAXPAX@Z				; operator delete
	add	esp, 4
$LN1@scalar:
	mov	eax, DWORD PTR _this$[ebp]
	pop	edi
	pop	esi
	pop	ebx
	mov	esp, ebp
	pop	ebp
	ret	4
??_GThreadClass@@UAEPAXI@Z ENDP				; ThreadClass::`scalar deleting destructor'
_TEXT	ENDS
; Function compile flags: /Odtp /ZI
;	COMDAT ??4ThreadClass@@QAEAAV0@ABV0@@Z
_TEXT	SEGMENT
_$S1$1 = -8						; size = 4
_this$ = -4						; size = 4
___that$ = 8						; size = 4
??4ThreadClass@@QAEAAV0@ABV0@@Z PROC			; ThreadClass::operator=, COMDAT
; _this$ = ecx
	push	ebp
	mov	ebp, esp
	sub	esp, 72					; 00000048H
	push	ebx
	push	esi
	push	edi
	mov	DWORD PTR _this$[ebp], ecx
	mov	eax, DWORD PTR _this$[ebp]
	mov	ecx, DWORD PTR ___that$[ebp]
	mov	dl, BYTE PTR [ecx+4]
	mov	BYTE PTR [eax+4], dl
	mov	DWORD PTR _$S1$1[ebp], 0
	jmp	SHORT $LN3@operator
$LN2@operator:
	mov	eax, DWORD PTR _$S1$1[ebp]
	add	eax, 1
	mov	DWORD PTR _$S1$1[ebp], eax
$LN3@operator:
	cmp	DWORD PTR _$S1$1[ebp], 67		; 00000043H
	jae	SHORT $LN1@operator
	mov	eax, DWORD PTR _this$[ebp]
	add	eax, DWORD PTR _$S1$1[ebp]
	mov	ecx, DWORD PTR ___that$[ebp]
	add	ecx, DWORD PTR _$S1$1[ebp]
	mov	dl, BYTE PTR [ecx+5]
	mov	BYTE PTR [eax+5], dl
	jmp	SHORT $LN2@operator
$LN1@operator:
	mov	eax, DWORD PTR _this$[ebp]
	mov	ecx, DWORD PTR ___that$[ebp]
	mov	edx, DWORD PTR [ecx+72]
	mov	DWORD PTR [eax+72], edx
	mov	eax, DWORD PTR _this$[ebp]
	mov	ecx, DWORD PTR ___that$[ebp]
	mov	edx, DWORD PTR [ecx+76]
	mov	DWORD PTR [eax+76], edx
	mov	eax, DWORD PTR _this$[ebp]
	mov	ecx, DWORD PTR ___that$[ebp]
	mov	edx, DWORD PTR [ecx+80]
	mov	DWORD PTR [eax+80], edx
	mov	eax, DWORD PTR _this$[ebp]
	mov	ecx, DWORD PTR ___that$[ebp]
	mov	edx, DWORD PTR [ecx+84]
	mov	DWORD PTR [eax+84], edx
	mov	eax, DWORD PTR _this$[ebp]
	pop	edi
	pop	esi
	pop	ebx
	mov	esp, ebp
	pop	ebp
	ret	4
??4ThreadClass@@QAEAAV0@ABV0@@Z ENDP			; ThreadClass::operator=
_TEXT	ENDS
; Function compile flags: /Odtp /ZI
;	COMDAT ??0ThreadClass@@QAE@ABV0@@Z
_TEXT	SEGMENT
_this$ = -4						; size = 4
___that$ = 8						; size = 4
??0ThreadClass@@QAE@ABV0@@Z PROC			; ThreadClass::ThreadClass, COMDAT
; _this$ = ecx
	push	ebp
	mov	ebp, esp
	sub	esp, 68					; 00000044H
	push	ebx
	push	esi
	push	edi
	mov	DWORD PTR _this$[ebp], ecx
	mov	eax, DWORD PTR _this$[ebp]
	mov	DWORD PTR [eax], OFFSET ??_7ThreadClass@@6B@
	mov	eax, DWORD PTR _this$[ebp]
	mov	ecx, DWORD PTR ___that$[ebp]
	mov	dl, BYTE PTR [ecx+4]
	mov	BYTE PTR [eax+4], dl
	mov	esi, DWORD PTR ___that$[ebp]
	add	esi, 5
	mov	edi, DWORD PTR _this$[ebp]
	add	edi, 5
	mov	ecx, 16					; 00000010H
	rep movsd
	movsw
	movsb
	mov	eax, DWORD PTR _this$[ebp]
	mov	ecx, DWORD PTR ___that$[ebp]
	mov	edx, DWORD PTR [ecx+72]
	mov	DWORD PTR [eax+72], edx
	mov	eax, DWORD PTR _this$[ebp]
	mov	ecx, DWORD PTR ___that$[ebp]
	mov	edx, DWORD PTR [ecx+76]
	mov	DWORD PTR [eax+76], edx
	mov	eax, DWORD PTR _this$[ebp]
	mov	ecx, DWORD PTR ___that$[ebp]
	mov	edx, DWORD PTR [ecx+80]
	mov	DWORD PTR [eax+80], edx
	mov	eax, DWORD PTR _this$[ebp]
	mov	ecx, DWORD PTR ___that$[ebp]
	mov	edx, DWORD PTR [ecx+84]
	mov	DWORD PTR [eax+84], edx
	mov	eax, DWORD PTR _this$[ebp]
	pop	edi
	pop	esi
	pop	ebx
	mov	esp, ebp
	pop	ebp
	ret	4
??0ThreadClass@@QAE@ABV0@@Z ENDP			; ThreadClass::ThreadClass
_TEXT	ENDS
; Function compile flags: /Odtp /ZI
; File x:\github\renegade\dragonade_rxd\scripts\threadclass.h
;	COMDAT ?Get_Name@ThreadClass@@QAEPBDXZ
_TEXT	SEGMENT
_this$ = -4						; size = 4
?Get_Name@ThreadClass@@QAEPBDXZ PROC			; ThreadClass::Get_Name, COMDAT
; _this$ = ecx

; 45   : 	{

	push	ebp
	mov	ebp, esp
	sub	esp, 68					; 00000044H
	push	ebx
	push	esi
	push	edi
	mov	DWORD PTR _this$[ebp], ecx

; 46   : 		return name;

	mov	eax, DWORD PTR _this$[ebp]
	add	eax, 5

; 47   : 	}

	pop	edi
	pop	esi
	pop	ebx
	mov	esp, ebp
	pop	ebp
	ret	0
?Get_Name@ThreadClass@@QAEPBDXZ ENDP			; ThreadClass::Get_Name
_TEXT	ENDS
; Function compile flags: /Odtp /ZI
; File x:\github\renegade\dragonade_rxd\scripts\threadclass.h
;	COMDAT ?Get_Current_Thread_ID@ThreadClass@@SAHXZ
_TEXT	SEGMENT
?Get_Current_Thread_ID@ThreadClass@@SAHXZ PROC		; ThreadClass::Get_Current_Thread_ID, COMDAT

; 41   : 	{

	push	ebp
	mov	ebp, esp
	sub	esp, 64					; 00000040H
	push	ebx
	push	esi
	push	edi

; 42   : 		return GetCurrentThreadId();

	call	DWORD PTR __imp__GetCurrentThreadId@0

; 43   : 	}

	pop	edi
	pop	esi
	pop	ebx
	mov	esp, ebp
	pop	ebp
	ret	0
?Get_Current_Thread_ID@ThreadClass@@SAHXZ ENDP		; ThreadClass::Get_Current_Thread_ID
_TEXT	ENDS
; Function compile flags: /Odtp /ZI
; File x:\github\renegade\dragonade_rxd\scripts\threadclass.h
;	COMDAT ?Is_Running@ThreadClass@@QAE_NXZ
_TEXT	SEGMENT
tv66 = -72						; size = 4
_this$ = -4						; size = 4
?Is_Running@ThreadClass@@QAE_NXZ PROC			; ThreadClass::Is_Running, COMDAT
; _this$ = ecx

; 37   : 	{

	push	ebp
	mov	ebp, esp
	sub	esp, 72					; 00000048H
	push	ebx
	push	esi
	push	edi
	mov	DWORD PTR _this$[ebp], ecx

; 38   : 		return handle != 0;

	mov	eax, DWORD PTR _this$[ebp]
	cmp	DWORD PTR [eax+80], 0
	je	SHORT $LN3@Is_Running
	mov	DWORD PTR tv66[ebp], 1
	jmp	SHORT $LN4@Is_Running
$LN3@Is_Running:
	mov	DWORD PTR tv66[ebp], 0
$LN4@Is_Running:
	mov	al, BYTE PTR tv66[ebp]

; 39   : 	}

	pop	edi
	pop	esi
	pop	ebx
	mov	esp, ebp
	pop	ebp
	ret	0
?Is_Running@ThreadClass@@QAE_NXZ ENDP			; ThreadClass::Is_Running
_TEXT	ENDS
; Function compile flags: /Odtp /ZI
;	COMDAT ??4ScriptRegistrar@@QAEAAV0@ABV0@@Z
_TEXT	SEGMENT
_this$ = -4						; size = 4
___that$ = 8						; size = 4
??4ScriptRegistrar@@QAEAAV0@ABV0@@Z PROC		; ScriptRegistrar::operator=, COMDAT
; _this$ = ecx
	push	ebp
	mov	ebp, esp
	sub	esp, 68					; 00000044H
	push	ebx
	push	esi
	push	edi
	mov	DWORD PTR _this$[ebp], ecx
	mov	eax, DWORD PTR _this$[ebp]
	pop	edi
	pop	esi
	pop	ebx
	mov	esp, ebp
	pop	ebp
	ret	4
??4ScriptRegistrar@@QAEAAV0@ABV0@@Z ENDP		; ScriptRegistrar::operator=
_TEXT	ENDS
; Function compile flags: /Odtp /ZI
;	COMDAT ??_EScriptFactory@@UAEPAXI@Z
_TEXT	SEGMENT
_this$ = -4						; size = 4
___flags$ = 8						; size = 4
??_EScriptFactory@@UAEPAXI@Z PROC			; ScriptFactory::`vector deleting destructor', COMDAT
; _this$ = ecx
	push	ebp
	mov	ebp, esp
	sub	esp, 68					; 00000044H
	push	ebx
	push	esi
	push	edi
	mov	DWORD PTR _this$[ebp], ecx
	mov	eax, DWORD PTR ___flags$[ebp]
	and	eax, 2
	je	SHORT $LN3@vector
	push	OFFSET ??1ScriptFactory@@UAE@XZ		; ScriptFactory::~ScriptFactory
	mov	eax, DWORD PTR _this$[ebp]
	mov	ecx, DWORD PTR [eax-4]
	push	ecx
	push	16					; 00000010H
	mov	edx, DWORD PTR _this$[ebp]
	push	edx
	call	??_I@YGXPAXIHP6EX0@Z@Z
	mov	eax, DWORD PTR ___flags$[ebp]
	and	eax, 1
	je	SHORT $LN2@vector
	mov	eax, DWORD PTR _this$[ebp]
	sub	eax, 4
	push	eax
	call	??_V@YAXPAX@Z				; operator delete[]
	add	esp, 4
$LN2@vector:
	mov	eax, DWORD PTR _this$[ebp]
	sub	eax, 4
	jmp	SHORT $LN4@vector
$LN3@vector:
	mov	ecx, DWORD PTR _this$[ebp]
	call	??1ScriptFactory@@UAE@XZ		; ScriptFactory::~ScriptFactory
	mov	eax, DWORD PTR ___flags$[ebp]
	and	eax, 1
	je	SHORT $LN1@vector
	mov	eax, DWORD PTR _this$[ebp]
	push	eax
	call	??3@YAXPAX@Z				; operator delete
	add	esp, 4
$LN1@vector:
	mov	eax, DWORD PTR _this$[ebp]
$LN4@vector:
	pop	edi
	pop	esi
	pop	ebx
	mov	esp, ebp
	pop	ebp
	ret	4
??_EScriptFactory@@UAEPAXI@Z ENDP			; ScriptFactory::`vector deleting destructor'
_TEXT	ENDS
; Function compile flags: /Odtp /ZI
;	COMDAT ??_GScriptFactory@@UAEPAXI@Z
_TEXT	SEGMENT
_this$ = -4						; size = 4
___flags$ = 8						; size = 4
??_GScriptFactory@@UAEPAXI@Z PROC			; ScriptFactory::`scalar deleting destructor', COMDAT
; _this$ = ecx
	push	ebp
	mov	ebp, esp
	sub	esp, 68					; 00000044H
	push	ebx
	push	esi
	push	edi
	mov	DWORD PTR _this$[ebp], ecx
	mov	ecx, DWORD PTR _this$[ebp]
	call	??1ScriptFactory@@UAE@XZ		; ScriptFactory::~ScriptFactory
	mov	eax, DWORD PTR ___flags$[ebp]
	and	eax, 1
	je	SHORT $LN1@scalar
	mov	eax, DWORD PTR _this$[ebp]
	push	eax
	call	??3@YAXPAX@Z				; operator delete
	add	esp, 4
$LN1@scalar:
	mov	eax, DWORD PTR _this$[ebp]
	pop	edi
	pop	esi
	pop	ebx
	mov	esp, ebp
	pop	ebp
	ret	4
??_GScriptFactory@@UAEPAXI@Z ENDP			; ScriptFactory::`scalar deleting destructor'
_TEXT	ENDS
; Function compile flags: /Odtp /ZI
;	COMDAT ??4ScriptFactory@@QAEAAV0@ABV0@@Z
_TEXT	SEGMENT
_this$ = -4						; size = 4
___that$ = 8						; size = 4
??4ScriptFactory@@QAEAAV0@ABV0@@Z PROC			; ScriptFactory::operator=, COMDAT
; _this$ = ecx
	push	ebp
	mov	ebp, esp
	sub	esp, 68					; 00000044H
	push	ebx
	push	esi
	push	edi
	mov	DWORD PTR _this$[ebp], ecx
	mov	eax, DWORD PTR _this$[ebp]
	mov	ecx, DWORD PTR ___that$[ebp]
	mov	edx, DWORD PTR [ecx+4]
	mov	DWORD PTR [eax+4], edx
	mov	eax, DWORD PTR _this$[ebp]
	mov	ecx, DWORD PTR ___that$[ebp]
	mov	edx, DWORD PTR [ecx+8]
	mov	DWORD PTR [eax+8], edx
	mov	eax, DWORD PTR _this$[ebp]
	mov	ecx, DWORD PTR ___that$[ebp]
	mov	edx, DWORD PTR [ecx+12]
	mov	DWORD PTR [eax+12], edx
	mov	eax, DWORD PTR _this$[ebp]
	pop	edi
	pop	esi
	pop	ebx
	mov	esp, ebp
	pop	ebp
	ret	4
??4ScriptFactory@@QAEAAV0@ABV0@@Z ENDP			; ScriptFactory::operator=
_TEXT	ENDS
; Function compile flags: /Odtp /ZI
;	COMDAT ??0ScriptFactory@@QAE@ABV0@@Z
_TEXT	SEGMENT
_this$ = -4						; size = 4
___that$ = 8						; size = 4
??0ScriptFactory@@QAE@ABV0@@Z PROC			; ScriptFactory::ScriptFactory, COMDAT
; _this$ = ecx
	push	ebp
	mov	ebp, esp
	sub	esp, 68					; 00000044H
	push	ebx
	push	esi
	push	edi
	mov	DWORD PTR _this$[ebp], ecx
	mov	eax, DWORD PTR _this$[ebp]
	mov	DWORD PTR [eax], OFFSET ??_7ScriptFactory@@6B@
	mov	eax, DWORD PTR _this$[ebp]
	mov	ecx, DWORD PTR ___that$[ebp]
	mov	edx, DWORD PTR [ecx+4]
	mov	DWORD PTR [eax+4], edx
	mov	eax, DWORD PTR _this$[ebp]
	mov	ecx, DWORD PTR ___that$[ebp]
	mov	edx, DWORD PTR [ecx+8]
	mov	DWORD PTR [eax+8], edx
	mov	eax, DWORD PTR _this$[ebp]
	mov	ecx, DWORD PTR ___that$[ebp]
	mov	edx, DWORD PTR [ecx+12]
	mov	DWORD PTR [eax+12], edx
	mov	eax, DWORD PTR _this$[ebp]
	pop	edi
	pop	esi
	pop	ebx
	mov	esp, ebp
	pop	ebp
	ret	4
??0ScriptFactory@@QAE@ABV0@@Z ENDP			; ScriptFactory::ScriptFactory
_TEXT	ENDS
; Function compile flags: /Odtp /ZI
;	COMDAT ??_EScriptImpClass@@UAEPAXI@Z
_TEXT	SEGMENT
_this$ = -4						; size = 4
___flags$ = 8						; size = 4
??_EScriptImpClass@@UAEPAXI@Z PROC			; ScriptImpClass::`vector deleting destructor', COMDAT
; _this$ = ecx
	push	ebp
	mov	ebp, esp
	sub	esp, 68					; 00000044H
	push	ebx
	push	esi
	push	edi
	mov	DWORD PTR _this$[ebp], ecx
	mov	eax, DWORD PTR ___flags$[ebp]
	and	eax, 2
	je	SHORT $LN3@vector
	push	OFFSET ??1ScriptImpClass@@UAE@XZ	; ScriptImpClass::~ScriptImpClass
	mov	eax, DWORD PTR _this$[ebp]
	mov	ecx, DWORD PTR [eax-4]
	push	ecx
	push	28					; 0000001cH
	mov	edx, DWORD PTR _this$[ebp]
	push	edx
	call	??_I@YGXPAXIHP6EX0@Z@Z
	mov	eax, DWORD PTR ___flags$[ebp]
	and	eax, 1
	je	SHORT $LN2@vector
	mov	eax, DWORD PTR _this$[ebp]
	sub	eax, 4
	push	eax
	call	??_V@YAXPAX@Z				; operator delete[]
	add	esp, 4
$LN2@vector:
	mov	eax, DWORD PTR _this$[ebp]
	sub	eax, 4
	jmp	SHORT $LN4@vector
$LN3@vector:
	mov	ecx, DWORD PTR _this$[ebp]
	call	??1ScriptImpClass@@UAE@XZ		; ScriptImpClass::~ScriptImpClass
	mov	eax, DWORD PTR ___flags$[ebp]
	and	eax, 1
	je	SHORT $LN1@vector
	mov	eax, DWORD PTR _this$[ebp]
	push	eax
	call	??3@YAXPAX@Z				; operator delete
	add	esp, 4
$LN1@vector:
	mov	eax, DWORD PTR _this$[ebp]
$LN4@vector:
	pop	edi
	pop	esi
	pop	ebx
	mov	esp, ebp
	pop	ebp
	ret	4
??_EScriptImpClass@@UAEPAXI@Z ENDP			; ScriptImpClass::`vector deleting destructor'
_TEXT	ENDS
; Function compile flags: /Odtp /ZI
;	COMDAT ??_GScriptImpClass@@UAEPAXI@Z
_TEXT	SEGMENT
_this$ = -4						; size = 4
___flags$ = 8						; size = 4
??_GScriptImpClass@@UAEPAXI@Z PROC			; ScriptImpClass::`scalar deleting destructor', COMDAT
; _this$ = ecx
	push	ebp
	mov	ebp, esp
	sub	esp, 68					; 00000044H
	push	ebx
	push	esi
	push	edi
	mov	DWORD PTR _this$[ebp], ecx
	mov	ecx, DWORD PTR _this$[ebp]
	call	??1ScriptImpClass@@UAE@XZ		; ScriptImpClass::~ScriptImpClass
	mov	eax, DWORD PTR ___flags$[ebp]
	and	eax, 1
	je	SHORT $LN1@scalar
	mov	eax, DWORD PTR _this$[ebp]
	push	eax
	call	??3@YAXPAX@Z				; operator delete
	add	esp, 4
$LN1@scalar:
	mov	eax, DWORD PTR _this$[ebp]
	pop	edi
	pop	esi
	pop	ebx
	mov	esp, ebp
	pop	ebp
	ret	4
??_GScriptImpClass@@UAEPAXI@Z ENDP			; ScriptImpClass::`scalar deleting destructor'
_TEXT	ENDS
; Function compile flags: /Odtp /ZI
;	COMDAT ??4ScriptImpClass@@QAEAAV0@ABV0@@Z
_TEXT	SEGMENT
_this$ = -4						; size = 4
___that$ = 8						; size = 4
??4ScriptImpClass@@QAEAAV0@ABV0@@Z PROC			; ScriptImpClass::operator=, COMDAT
; _this$ = ecx
	push	ebp
	mov	ebp, esp
	sub	esp, 68					; 00000044H
	push	ebx
	push	esi
	push	edi
	mov	DWORD PTR _this$[ebp], ecx
	mov	eax, DWORD PTR ___that$[ebp]
	push	eax
	mov	ecx, DWORD PTR _this$[ebp]
	call	??4ScriptClass@@QAEAAV0@ABV0@@Z
	mov	eax, DWORD PTR _this$[ebp]
	mov	ecx, DWORD PTR ___that$[ebp]
	mov	edx, DWORD PTR [ecx+8]
	mov	DWORD PTR [eax+8], edx
	mov	eax, DWORD PTR _this$[ebp]
	mov	ecx, DWORD PTR ___that$[ebp]
	mov	edx, DWORD PTR [ecx+12]
	mov	DWORD PTR [eax+12], edx
	mov	eax, DWORD PTR _this$[ebp]
	mov	ecx, DWORD PTR ___that$[ebp]
	mov	edx, DWORD PTR [ecx+16]
	mov	DWORD PTR [eax+16], edx
	mov	eax, DWORD PTR _this$[ebp]
	mov	ecx, DWORD PTR ___that$[ebp]
	mov	edx, DWORD PTR [ecx+20]
	mov	DWORD PTR [eax+20], edx
	mov	eax, DWORD PTR _this$[ebp]
	mov	ecx, DWORD PTR ___that$[ebp]
	mov	edx, DWORD PTR [ecx+24]
	mov	DWORD PTR [eax+24], edx
	mov	eax, DWORD PTR _this$[ebp]
	pop	edi
	pop	esi
	pop	ebx
	mov	esp, ebp
	pop	ebp
	ret	4
??4ScriptImpClass@@QAEAAV0@ABV0@@Z ENDP			; ScriptImpClass::operator=
_TEXT	ENDS
; Function compile flags: /Odtp /ZI
;	COMDAT ??0ScriptImpClass@@QAE@ABV0@@Z
_TEXT	SEGMENT
_this$ = -4						; size = 4
___that$ = 8						; size = 4
??0ScriptImpClass@@QAE@ABV0@@Z PROC			; ScriptImpClass::ScriptImpClass, COMDAT
; _this$ = ecx
	push	ebp
	mov	ebp, esp
	sub	esp, 68					; 00000044H
	push	ebx
	push	esi
	push	edi
	mov	DWORD PTR _this$[ebp], ecx
	mov	eax, DWORD PTR ___that$[ebp]
	push	eax
	mov	ecx, DWORD PTR _this$[ebp]
	call	??0ScriptClass@@QAE@ABV0@@Z
	mov	eax, DWORD PTR _this$[ebp]
	mov	DWORD PTR [eax], OFFSET ??_7ScriptImpClass@@6B@
	mov	eax, DWORD PTR _this$[ebp]
	mov	ecx, DWORD PTR ___that$[ebp]
	mov	edx, DWORD PTR [ecx+8]
	mov	DWORD PTR [eax+8], edx
	mov	eax, DWORD PTR _this$[ebp]
	mov	ecx, DWORD PTR ___that$[ebp]
	mov	edx, DWORD PTR [ecx+12]
	mov	DWORD PTR [eax+12], edx
	mov	eax, DWORD PTR _this$[ebp]
	mov	ecx, DWORD PTR ___that$[ebp]
	mov	edx, DWORD PTR [ecx+16]
	mov	DWORD PTR [eax+16], edx
	mov	eax, DWORD PTR _this$[ebp]
	mov	ecx, DWORD PTR ___that$[ebp]
	mov	edx, DWORD PTR [ecx+20]
	mov	DWORD PTR [eax+20], edx
	mov	eax, DWORD PTR _this$[ebp]
	mov	ecx, DWORD PTR ___that$[ebp]
	mov	edx, DWORD PTR [ecx+24]
	mov	DWORD PTR [eax+24], edx
	mov	eax, DWORD PTR _this$[ebp]
	pop	edi
	pop	esi
	pop	ebx
	mov	esp, ebp
	pop	ebp
	ret	4
??0ScriptImpClass@@QAE@ABV0@@Z ENDP			; ScriptImpClass::ScriptImpClass
_TEXT	ENDS
; Function compile flags: /Odtp /ZI
; File x:\github\renegade\dragonade_rxd\scripts\scripts.h
;	COMDAT ?Get_Bool_Parameter@ScriptImpClass@@QAE_NH@Z
_TEXT	SEGMENT
tv68 = -72						; size = 4
_this$ = -4						; size = 4
_index$ = 8						; size = 4
?Get_Bool_Parameter@ScriptImpClass@@QAE_NH@Z PROC	; ScriptImpClass::Get_Bool_Parameter, COMDAT
; _this$ = ecx

; 290  :     {

	push	ebp
	mov	ebp, esp
	sub	esp, 72					; 00000048H
	push	ebx
	push	esi
	push	edi
	mov	DWORD PTR _this$[ebp], ecx

; 291  :         return Get_Int_Parameter(index) != 0;

	mov	eax, DWORD PTR _index$[ebp]
	push	eax
	mov	ecx, DWORD PTR _this$[ebp]
	call	?Get_Int_Parameter@ScriptImpClass@@QAEHH@Z ; ScriptImpClass::Get_Int_Parameter
	test	eax, eax
	je	SHORT $LN3@Get_Bool_P
	mov	DWORD PTR tv68[ebp], 1
	jmp	SHORT $LN4@Get_Bool_P
$LN3@Get_Bool_P:
	mov	DWORD PTR tv68[ebp], 0
$LN4@Get_Bool_P:
	mov	al, BYTE PTR tv68[ebp]

; 292  :     }

	pop	edi
	pop	esi
	pop	ebx
	mov	esp, ebp
	pop	ebp
	ret	4
?Get_Bool_Parameter@ScriptImpClass@@QAE_NH@Z ENDP	; ScriptImpClass::Get_Bool_Parameter
_TEXT	ENDS
; Function compile flags: /Odtp /ZI
; File x:\github\renegade\dragonade_rxd\scripts\scripts.h
;	COMDAT ?Get_Bool_Parameter@ScriptImpClass@@QAE_NPBD@Z
_TEXT	SEGMENT
tv68 = -72						; size = 4
_this$ = -4						; size = 4
_name$ = 8						; size = 4
?Get_Bool_Parameter@ScriptImpClass@@QAE_NPBD@Z PROC	; ScriptImpClass::Get_Bool_Parameter, COMDAT
; _this$ = ecx

; 286  :     {

	push	ebp
	mov	ebp, esp
	sub	esp, 72					; 00000048H
	push	ebx
	push	esi
	push	edi
	mov	DWORD PTR _this$[ebp], ecx

; 287  :         return Get_Int_Parameter(name) != 0;

	mov	eax, DWORD PTR _name$[ebp]
	push	eax
	mov	ecx, DWORD PTR _this$[ebp]
	call	?Get_Int_Parameter@ScriptImpClass@@QAEHPBD@Z ; ScriptImpClass::Get_Int_Parameter
	test	eax, eax
	je	SHORT $LN3@Get_Bool_P
	mov	DWORD PTR tv68[ebp], 1
	jmp	SHORT $LN4@Get_Bool_P
$LN3@Get_Bool_P:
	mov	DWORD PTR tv68[ebp], 0
$LN4@Get_Bool_P:
	mov	al, BYTE PTR tv68[ebp]

; 288  :     }

	pop	edi
	pop	esi
	pop	ebx
	mov	esp, ebp
	pop	ebp
	ret	4
?Get_Bool_Parameter@ScriptImpClass@@QAE_NPBD@Z ENDP	; ScriptImpClass::Get_Bool_Parameter
_TEXT	ENDS
; Function compile flags: /Odtp /ZI
; File x:\github\renegade\dragonade_rxd\scripts\scripts.h
;	COMDAT ?Get_Float_Parameter@ScriptImpClass@@QAEMH@Z
_TEXT	SEGMENT
tv74 = -72						; size = 4
_this$ = -4						; size = 4
_index$ = 8						; size = 4
?Get_Float_Parameter@ScriptImpClass@@QAEMH@Z PROC	; ScriptImpClass::Get_Float_Parameter, COMDAT
; _this$ = ecx

; 282  : 	{

	push	ebp
	mov	ebp, esp
	sub	esp, 72					; 00000048H
	push	ebx
	push	esi
	push	edi
	mov	DWORD PTR _this$[ebp], ecx

; 283  : 		return (float)atof(Get_Parameter(index));

	mov	eax, DWORD PTR _index$[ebp]
	push	eax
	mov	ecx, DWORD PTR _this$[ebp]
	call	?Get_Parameter@ScriptImpClass@@QAEPBDH@Z ; ScriptImpClass::Get_Parameter
	push	eax
	call	DWORD PTR __imp__atof
	add	esp, 4
	fstp	DWORD PTR tv74[ebp]
	fld	DWORD PTR tv74[ebp]

; 284  : 	}

	pop	edi
	pop	esi
	pop	ebx
	mov	esp, ebp
	pop	ebp
	ret	4
?Get_Float_Parameter@ScriptImpClass@@QAEMH@Z ENDP	; ScriptImpClass::Get_Float_Parameter
_TEXT	ENDS
; Function compile flags: /Odtp /ZI
; File x:\github\renegade\dragonade_rxd\scripts\scripts.h
;	COMDAT ?Get_Int_Parameter@ScriptImpClass@@QAEHH@Z
_TEXT	SEGMENT
_this$ = -4						; size = 4
_index$ = 8						; size = 4
?Get_Int_Parameter@ScriptImpClass@@QAEHH@Z PROC		; ScriptImpClass::Get_Int_Parameter, COMDAT
; _this$ = ecx

; 278  : 	{

	push	ebp
	mov	ebp, esp
	sub	esp, 68					; 00000044H
	push	ebx
	push	esi
	push	edi
	mov	DWORD PTR _this$[ebp], ecx

; 279  : 		return atoi(Get_Parameter(index));

	mov	eax, DWORD PTR _index$[ebp]
	push	eax
	mov	ecx, DWORD PTR _this$[ebp]
	call	?Get_Parameter@ScriptImpClass@@QAEPBDH@Z ; ScriptImpClass::Get_Parameter
	push	eax
	call	DWORD PTR __imp__atoi
	add	esp, 4

; 280  : 	}

	pop	edi
	pop	esi
	pop	ebx
	mov	esp, ebp
	pop	ebp
	ret	4
?Get_Int_Parameter@ScriptImpClass@@QAEHH@Z ENDP		; ScriptImpClass::Get_Int_Parameter
_TEXT	ENDS
; Function compile flags: /Odtp /ZI
; File x:\github\renegade\dragonade_rxd\scripts\scripts.h
;	COMDAT ?Get_Parameter_Count@ScriptImpClass@@QAEHXZ
_TEXT	SEGMENT
_this$ = -4						; size = 4
?Get_Parameter_Count@ScriptImpClass@@QAEHXZ PROC	; ScriptImpClass::Get_Parameter_Count, COMDAT
; _this$ = ecx

; 274  : 	{

	push	ebp
	mov	ebp, esp
	sub	esp, 68					; 00000044H
	push	ebx
	push	esi
	push	edi
	mov	DWORD PTR _this$[ebp], ecx

; 275  : 		return mArgC;

	mov	eax, DWORD PTR _this$[ebp]
	mov	eax, DWORD PTR [eax+12]

; 276  : 	}

	pop	edi
	pop	esi
	pop	ebx
	mov	esp, ebp
	pop	ebp
	ret	0
?Get_Parameter_Count@ScriptImpClass@@QAEHXZ ENDP	; ScriptImpClass::Get_Parameter_Count
_TEXT	ENDS
; Function compile flags: /Odtp /ZI
; File x:\github\renegade\dragonade_rxd\scripts\scripts.h
;	COMDAT ?Register_Auto_Save_Variables@ScriptImpClass@@UAEXXZ
_TEXT	SEGMENT
_this$ = -4						; size = 4
?Register_Auto_Save_Variables@ScriptImpClass@@UAEXXZ PROC ; ScriptImpClass::Register_Auto_Save_Variables, COMDAT
; _this$ = ecx

; 265  : 	virtual	void Register_Auto_Save_Variables()	{}

	push	ebp
	mov	ebp, esp
	sub	esp, 68					; 00000044H
	push	ebx
	push	esi
	push	edi
	mov	DWORD PTR _this$[ebp], ecx
	pop	edi
	pop	esi
	pop	ebx
	mov	esp, ebp
	pop	ebp
	ret	0
?Register_Auto_Save_Variables@ScriptImpClass@@UAEXXZ ENDP ; ScriptImpClass::Register_Auto_Save_Variables
_TEXT	ENDS
; Function compile flags: /Odtp /ZI
; File x:\github\renegade\dragonade_rxd\scripts\scripts.h
;	COMDAT ?Load_Data@ScriptImpClass@@UAEXAAVScriptLoader@@@Z
_TEXT	SEGMENT
_this$ = -4						; size = 4
_loader$ = 8						; size = 4
?Load_Data@ScriptImpClass@@UAEXAAVScriptLoader@@@Z PROC	; ScriptImpClass::Load_Data, COMDAT
; _this$ = ecx

; 264  : 	virtual void Load_Data(ScriptLoader& loader) {}

	push	ebp
	mov	ebp, esp
	sub	esp, 68					; 00000044H
	push	ebx
	push	esi
	push	edi
	mov	DWORD PTR _this$[ebp], ecx
	pop	edi
	pop	esi
	pop	ebx
	mov	esp, ebp
	pop	ebp
	ret	4
?Load_Data@ScriptImpClass@@UAEXAAVScriptLoader@@@Z ENDP	; ScriptImpClass::Load_Data
_TEXT	ENDS
; Function compile flags: /Odtp /ZI
; File x:\github\renegade\dragonade_rxd\scripts\scripts.h
;	COMDAT ?Save_Data@ScriptImpClass@@UAEXAAVScriptSaver@@@Z
_TEXT	SEGMENT
_this$ = -4						; size = 4
_saver$ = 8						; size = 4
?Save_Data@ScriptImpClass@@UAEXAAVScriptSaver@@@Z PROC	; ScriptImpClass::Save_Data, COMDAT
; _this$ = ecx

; 263  : 	virtual void Save_Data(ScriptSaver& saver) {}

	push	ebp
	mov	ebp, esp
	sub	esp, 68					; 00000044H
	push	ebx
	push	esi
	push	edi
	mov	DWORD PTR _this$[ebp], ecx
	pop	edi
	pop	esi
	pop	ebx
	mov	esp, ebp
	pop	ebp
	ret	4
?Save_Data@ScriptImpClass@@UAEXAAVScriptSaver@@@Z ENDP	; ScriptImpClass::Save_Data
_TEXT	ENDS
; Function compile flags: /Odtp /ZI
; File x:\github\renegade\dragonade_rxd\scripts\scripts.h
;	COMDAT ?Get_Owner_Ptr@ScriptImpClass@@UAEPAPAVScriptableGameObj@@XZ
_TEXT	SEGMENT
_this$ = -4						; size = 4
?Get_Owner_Ptr@ScriptImpClass@@UAEPAPAVScriptableGameObj@@XZ PROC ; ScriptImpClass::Get_Owner_Ptr, COMDAT
; _this$ = ecx

; 258  : 	{

	push	ebp
	mov	ebp, esp
	sub	esp, 68					; 00000044H
	push	ebx
	push	esi
	push	edi
	mov	DWORD PTR _this$[ebp], ecx

; 259  : 		return &mOwner;

	mov	eax, DWORD PTR _this$[ebp]
	add	eax, 8

; 260  : 	}

	pop	edi
	pop	esi
	pop	ebx
	mov	esp, ebp
	pop	ebp
	ret	0
?Get_Owner_Ptr@ScriptImpClass@@UAEPAPAVScriptableGameObj@@XZ ENDP ; ScriptImpClass::Get_Owner_Ptr
_TEXT	ENDS
; Function compile flags: /Odtp /ZI
; File x:\github\renegade\dragonade_rxd\scripts\scripts.h
;	COMDAT ?Owner@ScriptImpClass@@UAEPAVScriptableGameObj@@XZ
_TEXT	SEGMENT
_this$ = -4						; size = 4
?Owner@ScriptImpClass@@UAEPAVScriptableGameObj@@XZ PROC	; ScriptImpClass::Owner, COMDAT
; _this$ = ecx

; 254  : 	{

	push	ebp
	mov	ebp, esp
	sub	esp, 68					; 00000044H
	push	ebx
	push	esi
	push	edi
	mov	DWORD PTR _this$[ebp], ecx

; 255  : 		return mOwner;

	mov	eax, DWORD PTR _this$[ebp]
	mov	eax, DWORD PTR [eax+8]

; 256  : 	}

	pop	edi
	pop	esi
	pop	ebx
	mov	esp, ebp
	pop	ebp
	ret	0
?Owner@ScriptImpClass@@UAEPAVScriptableGameObj@@XZ ENDP	; ScriptImpClass::Owner
_TEXT	ENDS
; Function compile flags: /Odtp /ZI
; File x:\github\renegade\dragonade_rxd\scripts\scripts.h
;	COMDAT ?Exited@ScriptImpClass@@UAEXPAVScriptableGameObj@@0@Z
_TEXT	SEGMENT
_this$ = -4						; size = 4
_obj$ = 8						; size = 4
_exiter$ = 12						; size = 4
?Exited@ScriptImpClass@@UAEXPAVScriptableGameObj@@0@Z PROC ; ScriptImpClass::Exited, COMDAT
; _this$ = ecx

; 251  :   void Exited(GameObject *obj,GameObject *exiter) {}

	push	ebp
	mov	ebp, esp
	sub	esp, 68					; 00000044H
	push	ebx
	push	esi
	push	edi
	mov	DWORD PTR _this$[ebp], ecx
	pop	edi
	pop	esi
	pop	ebx
	mov	esp, ebp
	pop	ebp
	ret	8
?Exited@ScriptImpClass@@UAEXPAVScriptableGameObj@@0@Z ENDP ; ScriptImpClass::Exited
_TEXT	ENDS
; Function compile flags: /Odtp /ZI
; File x:\github\renegade\dragonade_rxd\scripts\scripts.h
;	COMDAT ?Entered@ScriptImpClass@@UAEXPAVScriptableGameObj@@0@Z
_TEXT	SEGMENT
_this$ = -4						; size = 4
_obj$ = 8						; size = 4
_enterer$ = 12						; size = 4
?Entered@ScriptImpClass@@UAEXPAVScriptableGameObj@@0@Z PROC ; ScriptImpClass::Entered, COMDAT
; _this$ = ecx

; 244  :   void Entered(GameObject *obj,GameObject *enterer) {}

	push	ebp
	mov	ebp, esp
	sub	esp, 68					; 00000044H
	push	ebx
	push	esi
	push	edi
	mov	DWORD PTR _this$[ebp], ecx
	pop	edi
	pop	esi
	pop	ebx
	mov	esp, ebp
	pop	ebp
	ret	8
?Entered@ScriptImpClass@@UAEXPAVScriptableGameObj@@0@Z ENDP ; ScriptImpClass::Entered
_TEXT	ENDS
; Function compile flags: /Odtp /ZI
; File x:\github\renegade\dragonade_rxd\scripts\scripts.h
;	COMDAT ?Poked@ScriptImpClass@@UAEXPAVScriptableGameObj@@0@Z
_TEXT	SEGMENT
_this$ = -4						; size = 4
_obj$ = 8						; size = 4
_poker$ = 12						; size = 4
?Poked@ScriptImpClass@@UAEXPAVScriptableGameObj@@0@Z PROC ; ScriptImpClass::Poked, COMDAT
; _this$ = ecx

; 237  :   void Poked(GameObject *obj,GameObject *poker) {}

	push	ebp
	mov	ebp, esp
	sub	esp, 68					; 00000044H
	push	ebx
	push	esi
	push	edi
	mov	DWORD PTR _this$[ebp], ecx
	pop	edi
	pop	esi
	pop	ebx
	mov	esp, ebp
	pop	ebp
	ret	8
?Poked@ScriptImpClass@@UAEXPAVScriptableGameObj@@0@Z ENDP ; ScriptImpClass::Poked
_TEXT	ENDS
; Function compile flags: /Odtp /ZI
; File x:\github\renegade\dragonade_rxd\scripts\scripts.h
;	COMDAT ?Animation_Complete@ScriptImpClass@@UAEXPAVScriptableGameObj@@PBD@Z
_TEXT	SEGMENT
_this$ = -4						; size = 4
_obj$ = 8						; size = 4
_animation_name$ = 12					; size = 4
?Animation_Complete@ScriptImpClass@@UAEXPAVScriptableGameObj@@PBD@Z PROC ; ScriptImpClass::Animation_Complete, COMDAT
; _this$ = ecx

; 229  :   void Animation_Complete(GameObject *obj,const char *animation_name) {}

	push	ebp
	mov	ebp, esp
	sub	esp, 68					; 00000044H
	push	ebx
	push	esi
	push	edi
	mov	DWORD PTR _this$[ebp], ecx
	pop	edi
	pop	esi
	pop	ebx
	mov	esp, ebp
	pop	ebp
	ret	8
?Animation_Complete@ScriptImpClass@@UAEXPAVScriptableGameObj@@PBD@Z ENDP ; ScriptImpClass::Animation_Complete
_TEXT	ENDS
; Function compile flags: /Odtp /ZI
; File x:\github\renegade\dragonade_rxd\scripts\scripts.h
;	COMDAT ?Timer_Expired@ScriptImpClass@@UAEXPAVScriptableGameObj@@H@Z
_TEXT	SEGMENT
_this$ = -4						; size = 4
_obj$ = 8						; size = 4
_number$ = 12						; size = 4
?Timer_Expired@ScriptImpClass@@UAEXPAVScriptableGameObj@@H@Z PROC ; ScriptImpClass::Timer_Expired, COMDAT
; _this$ = ecx

; 221  :   void Timer_Expired(GameObject *obj,int number) {}

	push	ebp
	mov	ebp, esp
	sub	esp, 68					; 00000044H
	push	ebx
	push	esi
	push	edi
	mov	DWORD PTR _this$[ebp], ecx
	pop	edi
	pop	esi
	pop	ebx
	mov	esp, ebp
	pop	ebp
	ret	8
?Timer_Expired@ScriptImpClass@@UAEXPAVScriptableGameObj@@H@Z ENDP ; ScriptImpClass::Timer_Expired
_TEXT	ENDS
; Function compile flags: /Odtp /ZI
; File x:\github\renegade\dragonade_rxd\scripts\scripts.h
;	COMDAT ?Action_Complete@ScriptImpClass@@UAEXPAVScriptableGameObj@@HW4ActionCompleteReason@@@Z
_TEXT	SEGMENT
_this$ = -4						; size = 4
_obj$ = 8						; size = 4
_action_id$ = 12					; size = 4
_complete_reason$ = 16					; size = 4
?Action_Complete@ScriptImpClass@@UAEXPAVScriptableGameObj@@HW4ActionCompleteReason@@@Z PROC ; ScriptImpClass::Action_Complete, COMDAT
; _this$ = ecx

; 212  :   void Action_Complete(GameObject *obj,int action_id,ActionCompleteReason complete_reason) {}

	push	ebp
	mov	ebp, esp
	sub	esp, 68					; 00000044H
	push	ebx
	push	esi
	push	edi
	mov	DWORD PTR _this$[ebp], ecx
	pop	edi
	pop	esi
	pop	ebx
	mov	esp, ebp
	pop	ebp
	ret	12					; 0000000cH
?Action_Complete@ScriptImpClass@@UAEXPAVScriptableGameObj@@HW4ActionCompleteReason@@@Z ENDP ; ScriptImpClass::Action_Complete
_TEXT	ENDS
; Function compile flags: /Odtp /ZI
; File x:\github\renegade\dragonade_rxd\scripts\scripts.h
;	COMDAT ?Enemy_Seen@ScriptImpClass@@UAEXPAVScriptableGameObj@@0@Z
_TEXT	SEGMENT
_this$ = -4						; size = 4
_obj$ = 8						; size = 4
_enemy$ = 12						; size = 4
?Enemy_Seen@ScriptImpClass@@UAEXPAVScriptableGameObj@@0@Z PROC ; ScriptImpClass::Enemy_Seen, COMDAT
; _this$ = ecx

; 201  :   void Enemy_Seen(GameObject *obj,GameObject *enemy) {}

	push	ebp
	mov	ebp, esp
	sub	esp, 68					; 00000044H
	push	ebx
	push	esi
	push	edi
	mov	DWORD PTR _this$[ebp], ecx
	pop	edi
	pop	esi
	pop	ebx
	mov	esp, ebp
	pop	ebp
	ret	8
?Enemy_Seen@ScriptImpClass@@UAEXPAVScriptableGameObj@@0@Z ENDP ; ScriptImpClass::Enemy_Seen
_TEXT	ENDS
; Function compile flags: /Odtp /ZI
; File x:\github\renegade\dragonade_rxd\scripts\scripts.h
;	COMDAT ?Sound_Heard@ScriptImpClass@@UAEXPAVScriptableGameObj@@ABUCombatSound@@@Z
_TEXT	SEGMENT
_this$ = -4						; size = 4
_obj$ = 8						; size = 4
_sound$ = 12						; size = 4
?Sound_Heard@ScriptImpClass@@UAEXPAVScriptableGameObj@@ABUCombatSound@@@Z PROC ; ScriptImpClass::Sound_Heard, COMDAT
; _this$ = ecx

; 193  :   void Sound_Heard(GameObject *obj,const CombatSound & sound) {}

	push	ebp
	mov	ebp, esp
	sub	esp, 68					; 00000044H
	push	ebx
	push	esi
	push	edi
	mov	DWORD PTR _this$[ebp], ecx
	pop	edi
	pop	esi
	pop	ebx
	mov	esp, ebp
	pop	ebp
	ret	8
?Sound_Heard@ScriptImpClass@@UAEXPAVScriptableGameObj@@ABUCombatSound@@@Z ENDP ; ScriptImpClass::Sound_Heard
_TEXT	ENDS
; Function compile flags: /Odtp /ZI
; File x:\github\renegade\dragonade_rxd\scripts\scripts.h
;	COMDAT ?Custom@ScriptImpClass@@UAEXPAVScriptableGameObj@@HH0@Z
_TEXT	SEGMENT
_this$ = -4						; size = 4
_obj$ = 8						; size = 4
_type$ = 12						; size = 4
_param$ = 16						; size = 4
_sender$ = 20						; size = 4
?Custom@ScriptImpClass@@UAEXPAVScriptableGameObj@@HH0@Z PROC ; ScriptImpClass::Custom, COMDAT
; _this$ = ecx

; 184  :   void Custom(GameObject *obj,int type,int param,GameObject *sender) {}

	push	ebp
	mov	ebp, esp
	sub	esp, 68					; 00000044H
	push	ebx
	push	esi
	push	edi
	mov	DWORD PTR _this$[ebp], ecx
	pop	edi
	pop	esi
	pop	ebx
	mov	esp, ebp
	pop	ebp
	ret	16					; 00000010H
?Custom@ScriptImpClass@@UAEXPAVScriptableGameObj@@HH0@Z ENDP ; ScriptImpClass::Custom
_TEXT	ENDS
; Function compile flags: /Odtp /ZI
; File x:\github\renegade\dragonade_rxd\scripts\scripts.h
;	COMDAT ?Damaged@ScriptImpClass@@UAEXPAVScriptableGameObj@@0M@Z
_TEXT	SEGMENT
_this$ = -4						; size = 4
_obj$ = 8						; size = 4
_damager$ = 12						; size = 4
_amount$ = 16						; size = 4
?Damaged@ScriptImpClass@@UAEXPAVScriptableGameObj@@0M@Z PROC ; ScriptImpClass::Damaged, COMDAT
; _this$ = ecx

; 174  :   void Damaged(GameObject *obj,GameObject *damager,float amount) {}

	push	ebp
	mov	ebp, esp
	sub	esp, 68					; 00000044H
	push	ebx
	push	esi
	push	edi
	mov	DWORD PTR _this$[ebp], ecx
	pop	edi
	pop	esi
	pop	ebx
	mov	esp, ebp
	pop	ebp
	ret	12					; 0000000cH
?Damaged@ScriptImpClass@@UAEXPAVScriptableGameObj@@0M@Z ENDP ; ScriptImpClass::Damaged
_TEXT	ENDS
; Function compile flags: /Odtp /ZI
; File x:\github\renegade\dragonade_rxd\scripts\scripts.h
;	COMDAT ?Killed@ScriptImpClass@@UAEXPAVScriptableGameObj@@0@Z
_TEXT	SEGMENT
_this$ = -4						; size = 4
_obj$ = 8						; size = 4
_killer$ = 12						; size = 4
?Killed@ScriptImpClass@@UAEXPAVScriptableGameObj@@0@Z PROC ; ScriptImpClass::Killed, COMDAT
; _this$ = ecx

; 164  :   void Killed(GameObject *obj,GameObject *killer) {}

	push	ebp
	mov	ebp, esp
	sub	esp, 68					; 00000044H
	push	ebx
	push	esi
	push	edi
	mov	DWORD PTR _this$[ebp], ecx
	pop	edi
	pop	esi
	pop	ebx
	mov	esp, ebp
	pop	ebp
	ret	8
?Killed@ScriptImpClass@@UAEXPAVScriptableGameObj@@0@Z ENDP ; ScriptImpClass::Killed
_TEXT	ENDS
; Function compile flags: /Odtp /ZI
; File x:\github\renegade\dragonade_rxd\scripts\scripts.h
;	COMDAT ?Destroyed@ScriptImpClass@@UAEXPAVScriptableGameObj@@@Z
_TEXT	SEGMENT
_this$ = -4						; size = 4
_obj$ = 8						; size = 4
?Destroyed@ScriptImpClass@@UAEXPAVScriptableGameObj@@@Z PROC ; ScriptImpClass::Destroyed, COMDAT
; _this$ = ecx

; 155  :   void Destroyed(GameObject *obj) {}

	push	ebp
	mov	ebp, esp
	sub	esp, 68					; 00000044H
	push	ebx
	push	esi
	push	edi
	mov	DWORD PTR _this$[ebp], ecx
	pop	edi
	pop	esi
	pop	ebx
	mov	esp, ebp
	pop	ebp
	ret	4
?Destroyed@ScriptImpClass@@UAEXPAVScriptableGameObj@@@Z ENDP ; ScriptImpClass::Destroyed
_TEXT	ENDS
; Function compile flags: /Odtp /ZI
; File x:\github\renegade\dragonade_rxd\scripts\scripts.h
;	COMDAT ?Created@ScriptImpClass@@UAEXPAVScriptableGameObj@@@Z
_TEXT	SEGMENT
_this$ = -4						; size = 4
_obj$ = 8						; size = 4
?Created@ScriptImpClass@@UAEXPAVScriptableGameObj@@@Z PROC ; ScriptImpClass::Created, COMDAT
; _this$ = ecx

; 149  :   void Created(GameObject *obj) {}

	push	ebp
	mov	ebp, esp
	sub	esp, 68					; 00000044H
	push	ebx
	push	esi
	push	edi
	mov	DWORD PTR _this$[ebp], ecx
	pop	edi
	pop	esi
	pop	ebx
	mov	esp, ebp
	pop	ebp
	ret	4
?Created@ScriptImpClass@@UAEXPAVScriptableGameObj@@@Z ENDP ; ScriptImpClass::Created
_TEXT	ENDS
; Function compile flags: /Odtp /ZI
; File x:\github\renegade\dragonade_rxd\scripts\scripts.h
;	COMDAT ?SetFactory@ScriptImpClass@@QAEXPAVScriptFactory@@@Z
_TEXT	SEGMENT
_this$ = -4						; size = 4
_factory$ = 8						; size = 4
?SetFactory@ScriptImpClass@@QAEXPAVScriptFactory@@@Z PROC ; ScriptImpClass::SetFactory, COMDAT
; _this$ = ecx

; 136  : 	{

	push	ebp
	mov	ebp, esp
	sub	esp, 68					; 00000044H
	push	ebx
	push	esi
	push	edi
	mov	DWORD PTR _this$[ebp], ecx

; 137  : 		mFactory = factory;

	mov	eax, DWORD PTR _this$[ebp]
	mov	ecx, DWORD PTR _factory$[ebp]
	mov	DWORD PTR [eax+20], ecx

; 138  : 	}

	pop	edi
	pop	esi
	pop	ebx
	mov	esp, ebp
	pop	ebp
	ret	4
?SetFactory@ScriptImpClass@@QAEXPAVScriptFactory@@@Z ENDP ; ScriptImpClass::SetFactory
_TEXT	ENDS
; Function compile flags: /Odtp /ZI
;	COMDAT ??_EScriptClass@@UAEPAXI@Z
_TEXT	SEGMENT
_this$ = -4						; size = 4
___flags$ = 8						; size = 4
??_EScriptClass@@UAEPAXI@Z PROC				; ScriptClass::`vector deleting destructor', COMDAT
; _this$ = ecx
	push	ebp
	mov	ebp, esp
	sub	esp, 68					; 00000044H
	push	ebx
	push	esi
	push	edi
	mov	DWORD PTR _this$[ebp], ecx
	mov	eax, DWORD PTR ___flags$[ebp]
	and	eax, 2
	je	SHORT $LN3@vector
	push	OFFSET ??1ScriptClass@@UAE@XZ		; ScriptClass::~ScriptClass
	mov	eax, DWORD PTR _this$[ebp]
	mov	ecx, DWORD PTR [eax-4]
	push	ecx
	push	8
	mov	edx, DWORD PTR _this$[ebp]
	push	edx
	call	??_I@YGXPAXIHP6EX0@Z@Z
	mov	eax, DWORD PTR ___flags$[ebp]
	and	eax, 1
	je	SHORT $LN2@vector
	mov	eax, DWORD PTR _this$[ebp]
	sub	eax, 4
	push	eax
	call	??_V@YAXPAX@Z				; operator delete[]
	add	esp, 4
$LN2@vector:
	mov	eax, DWORD PTR _this$[ebp]
	sub	eax, 4
	jmp	SHORT $LN4@vector
$LN3@vector:
	mov	ecx, DWORD PTR _this$[ebp]
	call	??1ScriptClass@@UAE@XZ			; ScriptClass::~ScriptClass
	mov	eax, DWORD PTR ___flags$[ebp]
	and	eax, 1
	je	SHORT $LN1@vector
	mov	eax, DWORD PTR _this$[ebp]
	push	eax
	call	??3@YAXPAX@Z				; operator delete
	add	esp, 4
$LN1@vector:
	mov	eax, DWORD PTR _this$[ebp]
$LN4@vector:
	pop	edi
	pop	esi
	pop	ebx
	mov	esp, ebp
	pop	ebp
	ret	4
??_EScriptClass@@UAEPAXI@Z ENDP				; ScriptClass::`vector deleting destructor'
_TEXT	ENDS
; Function compile flags: /Odtp /ZI
;	COMDAT ??_GScriptClass@@UAEPAXI@Z
_TEXT	SEGMENT
_this$ = -4						; size = 4
___flags$ = 8						; size = 4
??_GScriptClass@@UAEPAXI@Z PROC				; ScriptClass::`scalar deleting destructor', COMDAT
; _this$ = ecx
	push	ebp
	mov	ebp, esp
	sub	esp, 68					; 00000044H
	push	ebx
	push	esi
	push	edi
	mov	DWORD PTR _this$[ebp], ecx
	mov	ecx, DWORD PTR _this$[ebp]
	call	??1ScriptClass@@UAE@XZ			; ScriptClass::~ScriptClass
	mov	eax, DWORD PTR ___flags$[ebp]
	and	eax, 1
	je	SHORT $LN1@scalar
	mov	eax, DWORD PTR _this$[ebp]
	push	eax
	call	??3@YAXPAX@Z				; operator delete
	add	esp, 4
$LN1@scalar:
	mov	eax, DWORD PTR _this$[ebp]
	pop	edi
	pop	esi
	pop	ebx
	mov	esp, ebp
	pop	ebp
	ret	4
??_GScriptClass@@UAEPAXI@Z ENDP				; ScriptClass::`scalar deleting destructor'
_TEXT	ENDS
; Function compile flags: /Odtp /ZI
;	COMDAT ??4ScriptClass@@QAEAAV0@ABV0@@Z
_TEXT	SEGMENT
_this$ = -4						; size = 4
___that$ = 8						; size = 4
??4ScriptClass@@QAEAAV0@ABV0@@Z PROC			; ScriptClass::operator=, COMDAT
; _this$ = ecx
	push	ebp
	mov	ebp, esp
	sub	esp, 68					; 00000044H
	push	ebx
	push	esi
	push	edi
	mov	DWORD PTR _this$[ebp], ecx
	mov	eax, DWORD PTR ___that$[ebp]
	push	eax
	mov	ecx, DWORD PTR _this$[ebp]
	call	??4GameObjObserverClass@@QAEAAV0@ABV0@@Z
	mov	eax, DWORD PTR _this$[ebp]
	pop	edi
	pop	esi
	pop	ebx
	mov	esp, ebp
	pop	ebp
	ret	4
??4ScriptClass@@QAEAAV0@ABV0@@Z ENDP			; ScriptClass::operator=
_TEXT	ENDS
; Function compile flags: /Odtp /ZI
;	COMDAT ??0ScriptClass@@QAE@ABV0@@Z
_TEXT	SEGMENT
_this$ = -4						; size = 4
___that$ = 8						; size = 4
??0ScriptClass@@QAE@ABV0@@Z PROC			; ScriptClass::ScriptClass, COMDAT
; _this$ = ecx
	push	ebp
	mov	ebp, esp
	sub	esp, 68					; 00000044H
	push	ebx
	push	esi
	push	edi
	mov	DWORD PTR _this$[ebp], ecx
	mov	eax, DWORD PTR ___that$[ebp]
	push	eax
	mov	ecx, DWORD PTR _this$[ebp]
	call	??0GameObjObserverClass@@QAE@ABV0@@Z
	mov	eax, DWORD PTR _this$[ebp]
	mov	DWORD PTR [eax], OFFSET ??_7ScriptClass@@6B@
	mov	eax, DWORD PTR _this$[ebp]
	pop	edi
	pop	esi
	pop	ebx
	mov	esp, ebp
	pop	ebp
	ret	4
??0ScriptClass@@QAE@ABV0@@Z ENDP			; ScriptClass::ScriptClass
_TEXT	ENDS
; Function compile flags: /Odtp /ZI
;	COMDAT ??0ScriptClass@@QAE@XZ
_TEXT	SEGMENT
_this$ = -4						; size = 4
??0ScriptClass@@QAE@XZ PROC				; ScriptClass::ScriptClass, COMDAT
; _this$ = ecx
	push	ebp
	mov	ebp, esp
	sub	esp, 68					; 00000044H
	push	ebx
	push	esi
	push	edi
	mov	DWORD PTR _this$[ebp], ecx
	mov	ecx, DWORD PTR _this$[ebp]
	call	??0GameObjObserverClass@@QAE@XZ		; GameObjObserverClass::GameObjObserverClass
	mov	eax, DWORD PTR _this$[ebp]
	mov	DWORD PTR [eax], OFFSET ??_7ScriptClass@@6B@
	mov	eax, DWORD PTR _this$[ebp]
	pop	edi
	pop	esi
	pop	ebx
	mov	esp, ebp
	pop	ebp
	ret	0
??0ScriptClass@@QAE@XZ ENDP				; ScriptClass::ScriptClass
_TEXT	ENDS
; Function compile flags: /Odtp /ZI
; File x:\github\renegade\dragonade_rxd\scripts\scripts.h
;	COMDAT ??1ScriptClass@@UAE@XZ
_TEXT	SEGMENT
_this$ = -4						; size = 4
??1ScriptClass@@UAE@XZ PROC				; ScriptClass::~ScriptClass, COMDAT
; _this$ = ecx

; 124  : 	virtual ~ScriptClass() {}

	push	ebp
	mov	ebp, esp
	sub	esp, 68					; 00000044H
	push	ebx
	push	esi
	push	edi
	mov	DWORD PTR _this$[ebp], ecx
	mov	eax, DWORD PTR _this$[ebp]
	mov	DWORD PTR [eax], OFFSET ??_7ScriptClass@@6B@
	mov	ecx, DWORD PTR _this$[ebp]
	call	??1GameObjObserverClass@@UAE@XZ		; GameObjObserverClass::~GameObjObserverClass
	pop	edi
	pop	esi
	pop	ebx
	mov	esp, ebp
	pop	ebp
	ret	0
??1ScriptClass@@UAE@XZ ENDP				; ScriptClass::~ScriptClass
_TEXT	ENDS
; Function compile flags: /Odtp /ZI
;	COMDAT ??_EGameObjObserverClass@@UAEPAXI@Z
_TEXT	SEGMENT
_this$ = -4						; size = 4
___flags$ = 8						; size = 4
??_EGameObjObserverClass@@UAEPAXI@Z PROC		; GameObjObserverClass::`vector deleting destructor', COMDAT
; _this$ = ecx
	push	ebp
	mov	ebp, esp
	sub	esp, 68					; 00000044H
	push	ebx
	push	esi
	push	edi
	mov	DWORD PTR _this$[ebp], ecx
	mov	eax, DWORD PTR ___flags$[ebp]
	and	eax, 2
	je	SHORT $LN3@vector
	push	OFFSET ??1GameObjObserverClass@@UAE@XZ	; GameObjObserverClass::~GameObjObserverClass
	mov	eax, DWORD PTR _this$[ebp]
	mov	ecx, DWORD PTR [eax-4]
	push	ecx
	push	8
	mov	edx, DWORD PTR _this$[ebp]
	push	edx
	call	??_I@YGXPAXIHP6EX0@Z@Z
	mov	eax, DWORD PTR ___flags$[ebp]
	and	eax, 1
	je	SHORT $LN2@vector
	mov	eax, DWORD PTR _this$[ebp]
	sub	eax, 4
	push	eax
	call	??_V@YAXPAX@Z				; operator delete[]
	add	esp, 4
$LN2@vector:
	mov	eax, DWORD PTR _this$[ebp]
	sub	eax, 4
	jmp	SHORT $LN4@vector
$LN3@vector:
	mov	ecx, DWORD PTR _this$[ebp]
	call	??1GameObjObserverClass@@UAE@XZ		; GameObjObserverClass::~GameObjObserverClass
	mov	eax, DWORD PTR ___flags$[ebp]
	and	eax, 1
	je	SHORT $LN1@vector
	mov	eax, DWORD PTR _this$[ebp]
	push	eax
	call	??3@YAXPAX@Z				; operator delete
	add	esp, 4
$LN1@vector:
	mov	eax, DWORD PTR _this$[ebp]
$LN4@vector:
	pop	edi
	pop	esi
	pop	ebx
	mov	esp, ebp
	pop	ebp
	ret	4
??_EGameObjObserverClass@@UAEPAXI@Z ENDP		; GameObjObserverClass::`vector deleting destructor'
_TEXT	ENDS
; Function compile flags: /Odtp /ZI
;	COMDAT ??_GGameObjObserverClass@@UAEPAXI@Z
_TEXT	SEGMENT
_this$ = -4						; size = 4
___flags$ = 8						; size = 4
??_GGameObjObserverClass@@UAEPAXI@Z PROC		; GameObjObserverClass::`scalar deleting destructor', COMDAT
; _this$ = ecx
	push	ebp
	mov	ebp, esp
	sub	esp, 68					; 00000044H
	push	ebx
	push	esi
	push	edi
	mov	DWORD PTR _this$[ebp], ecx
	mov	ecx, DWORD PTR _this$[ebp]
	call	??1GameObjObserverClass@@UAE@XZ		; GameObjObserverClass::~GameObjObserverClass
	mov	eax, DWORD PTR ___flags$[ebp]
	and	eax, 1
	je	SHORT $LN1@scalar
	mov	eax, DWORD PTR _this$[ebp]
	push	eax
	call	??3@YAXPAX@Z				; operator delete
	add	esp, 4
$LN1@scalar:
	mov	eax, DWORD PTR _this$[ebp]
	pop	edi
	pop	esi
	pop	ebx
	mov	esp, ebp
	pop	ebp
	ret	4
??_GGameObjObserverClass@@UAEPAXI@Z ENDP		; GameObjObserverClass::`scalar deleting destructor'
_TEXT	ENDS
; Function compile flags: /Odtp /ZI
;	COMDAT ??4GameObjObserverClass@@QAEAAV0@ABV0@@Z
_TEXT	SEGMENT
_this$ = -4						; size = 4
___that$ = 8						; size = 4
??4GameObjObserverClass@@QAEAAV0@ABV0@@Z PROC		; GameObjObserverClass::operator=, COMDAT
; _this$ = ecx
	push	ebp
	mov	ebp, esp
	sub	esp, 68					; 00000044H
	push	ebx
	push	esi
	push	edi
	mov	DWORD PTR _this$[ebp], ecx
	mov	eax, DWORD PTR _this$[ebp]
	mov	ecx, DWORD PTR ___that$[ebp]
	mov	edx, DWORD PTR [ecx+4]
	mov	DWORD PTR [eax+4], edx
	mov	eax, DWORD PTR _this$[ebp]
	pop	edi
	pop	esi
	pop	ebx
	mov	esp, ebp
	pop	ebp
	ret	4
??4GameObjObserverClass@@QAEAAV0@ABV0@@Z ENDP		; GameObjObserverClass::operator=
_TEXT	ENDS
; Function compile flags: /Odtp /ZI
;	COMDAT ??0GameObjObserverClass@@QAE@ABV0@@Z
_TEXT	SEGMENT
_this$ = -4						; size = 4
___that$ = 8						; size = 4
??0GameObjObserverClass@@QAE@ABV0@@Z PROC		; GameObjObserverClass::GameObjObserverClass, COMDAT
; _this$ = ecx
	push	ebp
	mov	ebp, esp
	sub	esp, 68					; 00000044H
	push	ebx
	push	esi
	push	edi
	mov	DWORD PTR _this$[ebp], ecx
	mov	eax, DWORD PTR _this$[ebp]
	mov	DWORD PTR [eax], OFFSET ??_7GameObjObserverClass@@6B@
	mov	eax, DWORD PTR _this$[ebp]
	mov	ecx, DWORD PTR ___that$[ebp]
	mov	edx, DWORD PTR [ecx+4]
	mov	DWORD PTR [eax+4], edx
	mov	eax, DWORD PTR _this$[ebp]
	pop	edi
	pop	esi
	pop	ebx
	mov	esp, ebp
	pop	ebp
	ret	4
??0GameObjObserverClass@@QAE@ABV0@@Z ENDP		; GameObjObserverClass::GameObjObserverClass
_TEXT	ENDS
; Function compile flags: /Odtp /ZI
; File x:\github\renegade\dragonade_rxd\scripts\scripts.h
;	COMDAT ?Owner@GameObjObserverClass@@UAEPAVScriptableGameObj@@XZ
_TEXT	SEGMENT
_this$ = -4						; size = 4
?Owner@GameObjObserverClass@@UAEPAVScriptableGameObj@@XZ PROC ; GameObjObserverClass::Owner, COMDAT
; _this$ = ecx

; 117  : 	virtual GameObject* Owner() {return 0;}

	push	ebp
	mov	ebp, esp
	sub	esp, 68					; 00000044H
	push	ebx
	push	esi
	push	edi
	mov	DWORD PTR _this$[ebp], ecx
	xor	eax, eax
	pop	edi
	pop	esi
	pop	ebx
	mov	esp, ebp
	pop	ebp
	ret	0
?Owner@GameObjObserverClass@@UAEPAVScriptableGameObj@@XZ ENDP ; GameObjObserverClass::Owner
_TEXT	ENDS
; Function compile flags: /Odtp /ZI
; File x:\github\renegade\dragonade_rxd\scripts\scripts.h
;	COMDAT ?Get_ID@GameObjObserverClass@@QAEHXZ
_TEXT	SEGMENT
_this$ = -4						; size = 4
?Get_ID@GameObjObserverClass@@QAEHXZ PROC		; GameObjObserverClass::Get_ID, COMDAT
; _this$ = ecx

; 99   : 	{

	push	ebp
	mov	ebp, esp
	sub	esp, 68					; 00000044H
	push	ebx
	push	esi
	push	edi
	mov	DWORD PTR _this$[ebp], ecx

; 100  : 		return ID;

	mov	eax, DWORD PTR _this$[ebp]
	mov	eax, DWORD PTR [eax+4]

; 101  : 	}

	pop	edi
	pop	esi
	pop	ebx
	mov	esp, ebp
	pop	ebp
	ret	0
?Get_ID@GameObjObserverClass@@QAEHXZ ENDP		; GameObjObserverClass::Get_ID
_TEXT	ENDS
; Function compile flags: /Odtp /ZI
; File x:\github\renegade\dragonade_rxd\scripts\scripts.h
;	COMDAT ?Set_ID@GameObjObserverClass@@QAEXH@Z
_TEXT	SEGMENT
_this$ = -4						; size = 4
_id$ = 8						; size = 4
?Set_ID@GameObjObserverClass@@QAEXH@Z PROC		; GameObjObserverClass::Set_ID, COMDAT
; _this$ = ecx

; 95   : 	{

	push	ebp
	mov	ebp, esp
	sub	esp, 68					; 00000044H
	push	ebx
	push	esi
	push	edi
	mov	DWORD PTR _this$[ebp], ecx

; 96   : 		ID = id;

	mov	eax, DWORD PTR _this$[ebp]
	mov	ecx, DWORD PTR _id$[ebp]
	mov	DWORD PTR [eax+4], ecx

; 97   : 	}

	pop	edi
	pop	esi
	pop	ebx
	mov	esp, ebp
	pop	ebp
	ret	4
?Set_ID@GameObjObserverClass@@QAEXH@Z ENDP		; GameObjObserverClass::Set_ID
_TEXT	ENDS
; Function compile flags: /Odtp /ZI
; File x:\github\renegade\dragonade_rxd\scripts\scripts.h
;	COMDAT ??1GameObjObserverClass@@UAE@XZ
_TEXT	SEGMENT
_this$ = -4						; size = 4
??1GameObjObserverClass@@UAE@XZ PROC			; GameObjObserverClass::~GameObjObserverClass, COMDAT
; _this$ = ecx

; 92   : 	virtual	~GameObjObserverClass() {}

	push	ebp
	mov	ebp, esp
	sub	esp, 68					; 00000044H
	push	ebx
	push	esi
	push	edi
	mov	DWORD PTR _this$[ebp], ecx
	mov	eax, DWORD PTR _this$[ebp]
	mov	DWORD PTR [eax], OFFSET ??_7GameObjObserverClass@@6B@
	pop	edi
	pop	esi
	pop	ebx
	mov	esp, ebp
	pop	ebp
	ret	0
??1GameObjObserverClass@@UAE@XZ ENDP			; GameObjObserverClass::~GameObjObserverClass
_TEXT	ENDS
; Function compile flags: /Odtp /ZI
; File x:\github\renegade\dragonade_rxd\scripts\scripts.h
;	COMDAT ??0GameObjObserverClass@@QAE@XZ
_TEXT	SEGMENT
_this$ = -4						; size = 4
??0GameObjObserverClass@@QAE@XZ PROC			; GameObjObserverClass::GameObjObserverClass, COMDAT
; _this$ = ecx

; 91   : 	GameObjObserverClass() : ID( 0 ) {}

	push	ebp
	mov	ebp, esp
	sub	esp, 68					; 00000044H
	push	ebx
	push	esi
	push	edi
	mov	DWORD PTR _this$[ebp], ecx
	mov	eax, DWORD PTR _this$[ebp]
	mov	DWORD PTR [eax], OFFSET ??_7GameObjObserverClass@@6B@
	mov	eax, DWORD PTR _this$[ebp]
	mov	DWORD PTR [eax+4], 0
	mov	eax, DWORD PTR _this$[ebp]
	pop	edi
	pop	esi
	pop	ebx
	mov	esp, ebp
	pop	ebp
	ret	0
??0GameObjObserverClass@@QAE@XZ ENDP			; GameObjObserverClass::GameObjObserverClass
_TEXT	ENDS
; Function compile flags: /Odtp /ZI
; File x:\github\renegade\dragonade_rxd\scripts\vector3.h
;	COMDAT ?Swap@@YAXAAVVector3@@0@Z
_TEXT	SEGMENT
_tmp$ = -12						; size = 12
_a$ = 8							; size = 4
_b$ = 12						; size = 4
?Swap@@YAXAAVVector3@@0@Z PROC				; Swap, COMDAT

; 398  : {

	push	ebp
	mov	ebp, esp
	sub	esp, 76					; 0000004cH
	push	ebx
	push	esi
	push	edi

; 399  : 	Vector3 tmp(a);

	mov	eax, DWORD PTR _a$[ebp]
	push	eax
	lea	ecx, DWORD PTR _tmp$[ebp]
	call	??0Vector3@@QAE@ABV0@@Z			; Vector3::Vector3

; 400  : 	a = b;

	mov	eax, DWORD PTR _b$[ebp]
	push	eax
	mov	ecx, DWORD PTR _a$[ebp]
	call	??4Vector3@@QAEAAV0@ABV0@@Z		; Vector3::operator=

; 401  : 	b = tmp;

	lea	eax, DWORD PTR _tmp$[ebp]
	push	eax
	mov	ecx, DWORD PTR _b$[ebp]
	call	??4Vector3@@QAEAAV0@ABV0@@Z		; Vector3::operator=

; 402  : }

	pop	edi
	pop	esi
	pop	ebx
	mov	esp, ebp
	pop	ebp
	ret	0
?Swap@@YAXAAVVector3@@0@Z ENDP				; Swap
_TEXT	ENDS
; Function compile flags: /Odtp /ZI
; File x:\github\renegade\dragonade_rxd\scripts\vector3.h
;	COMDAT ?Subtract@Vector3@@SAXABV1@0PAV1@@Z
_TEXT	SEGMENT
_a$ = 8							; size = 4
_b$ = 12						; size = 4
_set_result$ = 16					; size = 4
?Subtract@Vector3@@SAXABV1@0PAV1@@Z PROC		; Vector3::Subtract, COMDAT

; 218  : 	{

	push	ebp
	mov	ebp, esp
	sub	esp, 64					; 00000040H
	push	ebx
	push	esi
	push	edi

; 219  : 		set_result->X = a.X - b.X;

	mov	eax, DWORD PTR _a$[ebp]
	mov	ecx, DWORD PTR _b$[ebp]
	movss	xmm0, DWORD PTR [eax]
	subss	xmm0, DWORD PTR [ecx]
	mov	edx, DWORD PTR _set_result$[ebp]
	movss	DWORD PTR [edx], xmm0

; 220  : 		set_result->Y = a.Y - b.Y;

	mov	eax, DWORD PTR _a$[ebp]
	mov	ecx, DWORD PTR _b$[ebp]
	movss	xmm0, DWORD PTR [eax+4]
	subss	xmm0, DWORD PTR [ecx+4]
	mov	edx, DWORD PTR _set_result$[ebp]
	movss	DWORD PTR [edx+4], xmm0

; 221  : 		set_result->Z = a.Z - b.Z;

	mov	eax, DWORD PTR _a$[ebp]
	mov	ecx, DWORD PTR _b$[ebp]
	movss	xmm0, DWORD PTR [eax+8]
	subss	xmm0, DWORD PTR [ecx+8]
	mov	edx, DWORD PTR _set_result$[ebp]
	movss	DWORD PTR [edx+8], xmm0

; 222  : 	}

	pop	edi
	pop	esi
	pop	ebx
	mov	esp, ebp
	pop	ebp
	ret	0
?Subtract@Vector3@@SAXABV1@0PAV1@@Z ENDP		; Vector3::Subtract
_TEXT	ENDS
; Function compile flags: /Odtp /ZI
; File x:\github\renegade\dragonade_rxd\scripts\vector3.h
;	COMDAT ?Add@Vector3@@SAXABV1@0PAV1@@Z
_TEXT	SEGMENT
_a$ = 8							; size = 4
_b$ = 12						; size = 4
_set_result$ = 16					; size = 4
?Add@Vector3@@SAXABV1@0PAV1@@Z PROC			; Vector3::Add, COMDAT

; 212  : 	{

	push	ebp
	mov	ebp, esp
	sub	esp, 64					; 00000040H
	push	ebx
	push	esi
	push	edi

; 213  : 		set_result->X = a.X + b.X;

	mov	eax, DWORD PTR _a$[ebp]
	mov	ecx, DWORD PTR _b$[ebp]
	movss	xmm0, DWORD PTR [eax]
	addss	xmm0, DWORD PTR [ecx]
	mov	edx, DWORD PTR _set_result$[ebp]
	movss	DWORD PTR [edx], xmm0

; 214  : 		set_result->Y = a.Y + b.Y;

	mov	eax, DWORD PTR _a$[ebp]
	mov	ecx, DWORD PTR _b$[ebp]
	movss	xmm0, DWORD PTR [eax+4]
	addss	xmm0, DWORD PTR [ecx+4]
	mov	edx, DWORD PTR _set_result$[ebp]
	movss	DWORD PTR [edx+4], xmm0

; 215  : 		set_result->Z = a.Z + b.Z;

	mov	eax, DWORD PTR _a$[ebp]
	mov	ecx, DWORD PTR _b$[ebp]
	movss	xmm0, DWORD PTR [eax+8]
	addss	xmm0, DWORD PTR [ecx+8]
	mov	edx, DWORD PTR _set_result$[ebp]
	movss	DWORD PTR [edx+8], xmm0

; 216  : 	}

	pop	edi
	pop	esi
	pop	ebx
	mov	esp, ebp
	pop	ebp
	ret	0
?Add@Vector3@@SAXABV1@0PAV1@@Z ENDP			; Vector3::Add
_TEXT	ENDS
; Function compile flags: /Odtp /ZI
; File x:\github\renegade\dragonade_rxd\scripts\vector3.h
;	COMDAT ??G@YA?AVVector3@@ABV0@0@Z
_TEXT	SEGMENT
___$ReturnUdt$ = 8					; size = 4
_a$ = 12						; size = 4
_b$ = 16						; size = 4
??G@YA?AVVector3@@ABV0@0@Z PROC				; operator-, COMDAT

; 377  : {

	push	ebp
	mov	ebp, esp
	sub	esp, 64					; 00000040H
	push	ebx
	push	esi
	push	edi

; 378  : 	return Vector3(a.X - b.X,a.Y - b.Y,a.Z - b.Z);

	mov	eax, DWORD PTR _a$[ebp]
	mov	ecx, DWORD PTR _b$[ebp]
	movss	xmm0, DWORD PTR [eax+8]
	subss	xmm0, DWORD PTR [ecx+8]
	push	ecx
	movss	DWORD PTR [esp], xmm0
	mov	edx, DWORD PTR _a$[ebp]
	mov	eax, DWORD PTR _b$[ebp]
	movss	xmm0, DWORD PTR [edx+4]
	subss	xmm0, DWORD PTR [eax+4]
	push	ecx
	movss	DWORD PTR [esp], xmm0
	mov	ecx, DWORD PTR _a$[ebp]
	mov	edx, DWORD PTR _b$[ebp]
	movss	xmm0, DWORD PTR [ecx]
	subss	xmm0, DWORD PTR [edx]
	push	ecx
	movss	DWORD PTR [esp], xmm0
	mov	ecx, DWORD PTR ___$ReturnUdt$[ebp]
	call	??0Vector3@@QAE@MMM@Z			; Vector3::Vector3
	mov	eax, DWORD PTR ___$ReturnUdt$[ebp]

; 379  : }

	pop	edi
	pop	esi
	pop	ebx
	mov	esp, ebp
	pop	ebp
	ret	0
??G@YA?AVVector3@@ABV0@0@Z ENDP				; operator-
_TEXT	ENDS
; Function compile flags: /Odtp /ZI
; File x:\github\renegade\dragonade_rxd\scripts\vector3.h
;	COMDAT ??H@YA?AVVector3@@ABV0@0@Z
_TEXT	SEGMENT
___$ReturnUdt$ = 8					; size = 4
_a$ = 12						; size = 4
_b$ = 16						; size = 4
??H@YA?AVVector3@@ABV0@0@Z PROC				; operator+, COMDAT

; 373  : {

	push	ebp
	mov	ebp, esp
	sub	esp, 64					; 00000040H
	push	ebx
	push	esi
	push	edi

; 374  : 	return Vector3(a.X + b.X,a.Y + b.Y,a.Z + b.Z);

	mov	eax, DWORD PTR _a$[ebp]
	mov	ecx, DWORD PTR _b$[ebp]
	movss	xmm0, DWORD PTR [eax+8]
	addss	xmm0, DWORD PTR [ecx+8]
	push	ecx
	movss	DWORD PTR [esp], xmm0
	mov	edx, DWORD PTR _a$[ebp]
	mov	eax, DWORD PTR _b$[ebp]
	movss	xmm0, DWORD PTR [edx+4]
	addss	xmm0, DWORD PTR [eax+4]
	push	ecx
	movss	DWORD PTR [esp], xmm0
	mov	ecx, DWORD PTR _a$[ebp]
	mov	edx, DWORD PTR _b$[ebp]
	movss	xmm0, DWORD PTR [ecx]
	addss	xmm0, DWORD PTR [edx]
	push	ecx
	movss	DWORD PTR [esp], xmm0
	mov	ecx, DWORD PTR ___$ReturnUdt$[ebp]
	call	??0Vector3@@QAE@MMM@Z			; Vector3::Vector3
	mov	eax, DWORD PTR ___$ReturnUdt$[ebp]

; 375  : }

	pop	edi
	pop	esi
	pop	ebx
	mov	esp, ebp
	pop	ebp
	ret	0
??H@YA?AVVector3@@ABV0@0@Z ENDP				; operator+
_TEXT	ENDS
; Function compile flags: /Odtp /ZI
; File x:\github\renegade\dragonade_rxd\scripts\vector3.h
;	COMDAT ??D@YA?AVVector3@@MABV0@@Z
_TEXT	SEGMENT
___$ReturnUdt$ = 8					; size = 4
_k$ = 12						; size = 4
_a$ = 16						; size = 4
??D@YA?AVVector3@@MABV0@@Z PROC				; operator*, COMDAT

; 365  : {

	push	ebp
	mov	ebp, esp
	sub	esp, 64					; 00000040H
	push	ebx
	push	esi
	push	edi

; 366  : 	return Vector3((a.X * k),(a.Y * k),(a.Z * k));

	mov	eax, DWORD PTR _a$[ebp]
	movss	xmm0, DWORD PTR [eax+8]
	mulss	xmm0, DWORD PTR _k$[ebp]
	push	ecx
	movss	DWORD PTR [esp], xmm0
	mov	ecx, DWORD PTR _a$[ebp]
	movss	xmm0, DWORD PTR [ecx+4]
	mulss	xmm0, DWORD PTR _k$[ebp]
	push	ecx
	movss	DWORD PTR [esp], xmm0
	mov	edx, DWORD PTR _a$[ebp]
	movss	xmm0, DWORD PTR [edx]
	mulss	xmm0, DWORD PTR _k$[ebp]
	push	ecx
	movss	DWORD PTR [esp], xmm0
	mov	ecx, DWORD PTR ___$ReturnUdt$[ebp]
	call	??0Vector3@@QAE@MMM@Z			; Vector3::Vector3
	mov	eax, DWORD PTR ___$ReturnUdt$[ebp]

; 367  : }

	pop	edi
	pop	esi
	pop	ebx
	mov	esp, ebp
	pop	ebp
	ret	0
??D@YA?AVVector3@@MABV0@@Z ENDP				; operator*
_TEXT	ENDS
; Function compile flags: /Odtp /ZI
; File x:\github\renegade\dragonade_rxd\scripts\vector3.h
;	COMDAT ??D@YA?AVVector3@@ABV0@M@Z
_TEXT	SEGMENT
___$ReturnUdt$ = 8					; size = 4
_a$ = 12						; size = 4
_k$ = 16						; size = 4
??D@YA?AVVector3@@ABV0@M@Z PROC				; operator*, COMDAT

; 361  : {

	push	ebp
	mov	ebp, esp
	sub	esp, 64					; 00000040H
	push	ebx
	push	esi
	push	edi

; 362  : 	return Vector3((a.X * k),(a.Y * k),(a.Z * k));

	mov	eax, DWORD PTR _a$[ebp]
	movss	xmm0, DWORD PTR [eax+8]
	mulss	xmm0, DWORD PTR _k$[ebp]
	push	ecx
	movss	DWORD PTR [esp], xmm0
	mov	ecx, DWORD PTR _a$[ebp]
	movss	xmm0, DWORD PTR [ecx+4]
	mulss	xmm0, DWORD PTR _k$[ebp]
	push	ecx
	movss	DWORD PTR [esp], xmm0
	mov	edx, DWORD PTR _a$[ebp]
	movss	xmm0, DWORD PTR [edx]
	mulss	xmm0, DWORD PTR _k$[ebp]
	push	ecx
	movss	DWORD PTR [esp], xmm0
	mov	ecx, DWORD PTR ___$ReturnUdt$[ebp]
	call	??0Vector3@@QAE@MMM@Z			; Vector3::Vector3
	mov	eax, DWORD PTR ___$ReturnUdt$[ebp]

; 363  : }

	pop	edi
	pop	esi
	pop	ebx
	mov	esp, ebp
	pop	ebp
	ret	0
??D@YA?AVVector3@@ABV0@M@Z ENDP				; operator*
_TEXT	ENDS
; Function compile flags: /Odtp /ZI
; File x:\github\renegade\dragonade_rxd\scripts\vector3.h
;	COMDAT ??_0Vector3@@QAEAAV0@M@Z
_TEXT	SEGMENT
_this$ = -4						; size = 4
_k$ = 8							; size = 4
??_0Vector3@@QAEAAV0@M@Z PROC				; Vector3::operator/=, COMDAT
; _this$ = ecx

; 164  : 	{

	push	ebp
	mov	ebp, esp
	sub	esp, 68					; 00000044H
	push	ebx
	push	esi
	push	edi
	mov	DWORD PTR _this$[ebp], ecx

; 165  : 		X = X * 1.0f / k;

	mov	eax, DWORD PTR _this$[ebp]
	movss	xmm0, DWORD PTR [eax]
	mulss	xmm0, DWORD PTR __real@3f800000
	divss	xmm0, DWORD PTR _k$[ebp]
	mov	ecx, DWORD PTR _this$[ebp]
	movss	DWORD PTR [ecx], xmm0

; 166  : 		Y = Y * 1.0f / k;

	mov	eax, DWORD PTR _this$[ebp]
	movss	xmm0, DWORD PTR [eax+4]
	mulss	xmm0, DWORD PTR __real@3f800000
	divss	xmm0, DWORD PTR _k$[ebp]
	mov	ecx, DWORD PTR _this$[ebp]
	movss	DWORD PTR [ecx+4], xmm0

; 167  : 		Z = Z * 1.0f / k;

	mov	eax, DWORD PTR _this$[ebp]
	movss	xmm0, DWORD PTR [eax+8]
	mulss	xmm0, DWORD PTR __real@3f800000
	divss	xmm0, DWORD PTR _k$[ebp]
	mov	ecx, DWORD PTR _this$[ebp]
	movss	DWORD PTR [ecx+8], xmm0

; 168  : 		return *this;

	mov	eax, DWORD PTR _this$[ebp]

; 169  : 	}

	pop	edi
	pop	esi
	pop	ebx
	mov	esp, ebp
	pop	ebp
	ret	4
??_0Vector3@@QAEAAV0@M@Z ENDP				; Vector3::operator/=
_TEXT	ENDS
; Function compile flags: /Odtp /ZI
; File x:\github\renegade\dragonade_rxd\scripts\vector3.h
;	COMDAT ??XVector3@@QAEAAV0@M@Z
_TEXT	SEGMENT
_this$ = -4						; size = 4
_k$ = 8							; size = 4
??XVector3@@QAEAAV0@M@Z PROC				; Vector3::operator*=, COMDAT
; _this$ = ecx

; 157  : 	{

	push	ebp
	mov	ebp, esp
	sub	esp, 68					; 00000044H
	push	ebx
	push	esi
	push	edi
	mov	DWORD PTR _this$[ebp], ecx

; 158  : 		X = X * k;

	mov	eax, DWORD PTR _this$[ebp]
	movss	xmm0, DWORD PTR [eax]
	mulss	xmm0, DWORD PTR _k$[ebp]
	mov	ecx, DWORD PTR _this$[ebp]
	movss	DWORD PTR [ecx], xmm0

; 159  : 		Y = Y * k;

	mov	eax, DWORD PTR _this$[ebp]
	movss	xmm0, DWORD PTR [eax+4]
	mulss	xmm0, DWORD PTR _k$[ebp]
	mov	ecx, DWORD PTR _this$[ebp]
	movss	DWORD PTR [ecx+4], xmm0

; 160  : 		Z = Z * k;

	mov	eax, DWORD PTR _this$[ebp]
	movss	xmm0, DWORD PTR [eax+8]
	mulss	xmm0, DWORD PTR _k$[ebp]
	mov	ecx, DWORD PTR _this$[ebp]
	movss	DWORD PTR [ecx+8], xmm0

; 161  : 		return *this;

	mov	eax, DWORD PTR _this$[ebp]

; 162  : 	}

	pop	edi
	pop	esi
	pop	ebx
	mov	esp, ebp
	pop	ebp
	ret	4
??XVector3@@QAEAAV0@M@Z ENDP				; Vector3::operator*=
_TEXT	ENDS
; Function compile flags: /Odtp /ZI
; File x:\github\renegade\dragonade_rxd\scripts\vector3.h
;	COMDAT ??ZVector3@@QAEAAV0@ABV0@@Z
_TEXT	SEGMENT
_this$ = -4						; size = 4
_v$ = 8							; size = 4
??ZVector3@@QAEAAV0@ABV0@@Z PROC			; Vector3::operator-=, COMDAT
; _this$ = ecx

; 150  : 	{

	push	ebp
	mov	ebp, esp
	sub	esp, 68					; 00000044H
	push	ebx
	push	esi
	push	edi
	mov	DWORD PTR _this$[ebp], ecx

; 151  : 		X -= v.X;

	mov	eax, DWORD PTR _this$[ebp]
	mov	ecx, DWORD PTR _v$[ebp]
	movss	xmm0, DWORD PTR [eax]
	subss	xmm0, DWORD PTR [ecx]
	mov	edx, DWORD PTR _this$[ebp]
	movss	DWORD PTR [edx], xmm0

; 152  : 		Y -= v.Y;

	mov	eax, DWORD PTR _this$[ebp]
	mov	ecx, DWORD PTR _v$[ebp]
	movss	xmm0, DWORD PTR [eax+4]
	subss	xmm0, DWORD PTR [ecx+4]
	mov	edx, DWORD PTR _this$[ebp]
	movss	DWORD PTR [edx+4], xmm0

; 153  : 		Z -= v.Z;

	mov	eax, DWORD PTR _this$[ebp]
	mov	ecx, DWORD PTR _v$[ebp]
	movss	xmm0, DWORD PTR [eax+8]
	subss	xmm0, DWORD PTR [ecx+8]
	mov	edx, DWORD PTR _this$[ebp]
	movss	DWORD PTR [edx+8], xmm0

; 154  : 		return *this;

	mov	eax, DWORD PTR _this$[ebp]

; 155  : 	}

	pop	edi
	pop	esi
	pop	ebx
	mov	esp, ebp
	pop	ebp
	ret	4
??ZVector3@@QAEAAV0@ABV0@@Z ENDP			; Vector3::operator-=
_TEXT	ENDS
; Function compile flags: /Odtp /ZI
; File x:\github\renegade\dragonade_rxd\scripts\vector3.h
;	COMDAT ??YVector3@@QAEAAV0@ABV0@@Z
_TEXT	SEGMENT
_this$ = -4						; size = 4
_v$ = 8							; size = 4
??YVector3@@QAEAAV0@ABV0@@Z PROC			; Vector3::operator+=, COMDAT
; _this$ = ecx

; 143  : 	{

	push	ebp
	mov	ebp, esp
	sub	esp, 68					; 00000044H
	push	ebx
	push	esi
	push	edi
	mov	DWORD PTR _this$[ebp], ecx

; 144  : 		X += v.X;

	mov	eax, DWORD PTR _this$[ebp]
	mov	ecx, DWORD PTR _v$[ebp]
	movss	xmm0, DWORD PTR [eax]
	addss	xmm0, DWORD PTR [ecx]
	mov	edx, DWORD PTR _this$[ebp]
	movss	DWORD PTR [edx], xmm0

; 145  : 		Y += v.Y;

	mov	eax, DWORD PTR _this$[ebp]
	mov	ecx, DWORD PTR _v$[ebp]
	movss	xmm0, DWORD PTR [eax+4]
	addss	xmm0, DWORD PTR [ecx+4]
	mov	edx, DWORD PTR _this$[ebp]
	movss	DWORD PTR [edx+4], xmm0

; 146  : 		Z += v.Z;

	mov	eax, DWORD PTR _this$[ebp]
	mov	ecx, DWORD PTR _v$[ebp]
	movss	xmm0, DWORD PTR [eax+8]
	addss	xmm0, DWORD PTR [ecx+8]
	mov	edx, DWORD PTR _this$[ebp]
	movss	DWORD PTR [edx+8], xmm0

; 147  : 		return *this;

	mov	eax, DWORD PTR _this$[ebp]

; 148  : 	}

	pop	edi
	pop	esi
	pop	ebx
	mov	esp, ebp
	pop	ebp
	ret	4
??YVector3@@QAEAAV0@ABV0@@Z ENDP			; Vector3::operator+=
_TEXT	ENDS
; Function compile flags: /Odtp /ZI
; File x:\github\renegade\dragonade_rxd\scripts\vector3.h
;	COMDAT ?Length2@Vector3@@QBEMXZ
_TEXT	SEGMENT
tv85 = -72						; size = 4
_this$ = -4						; size = 4
?Length2@Vector3@@QBEMXZ PROC				; Vector3::Length2, COMDAT
; _this$ = ecx

; 92   : 	{

	push	ebp
	mov	ebp, esp
	sub	esp, 72					; 00000048H
	push	ebx
	push	esi
	push	edi
	mov	DWORD PTR _this$[ebp], ecx

; 93   : 		return X * X + Y * Y + Z * Z;

	mov	eax, DWORD PTR _this$[ebp]
	mov	ecx, DWORD PTR _this$[ebp]
	movss	xmm0, DWORD PTR [eax]
	mulss	xmm0, DWORD PTR [ecx]
	mov	edx, DWORD PTR _this$[ebp]
	mov	eax, DWORD PTR _this$[ebp]
	movss	xmm1, DWORD PTR [edx+4]
	mulss	xmm1, DWORD PTR [eax+4]
	addss	xmm0, xmm1
	mov	ecx, DWORD PTR _this$[ebp]
	mov	edx, DWORD PTR _this$[ebp]
	movss	xmm1, DWORD PTR [ecx+8]
	mulss	xmm1, DWORD PTR [edx+8]
	addss	xmm0, xmm1
	movss	DWORD PTR tv85[ebp], xmm0
	fld	DWORD PTR tv85[ebp]

; 94   : 	}

	pop	edi
	pop	esi
	pop	ebx
	mov	esp, ebp
	pop	ebp
	ret	0
?Length2@Vector3@@QBEMXZ ENDP				; Vector3::Length2
_TEXT	ENDS
; Function compile flags: /Odtp /ZI
; File x:\github\renegade\dragonade_rxd\scripts\vector3.h
;	COMDAT ?Length@Vector3@@QBEMXZ
_TEXT	SEGMENT
_this$ = -4						; size = 4
?Length@Vector3@@QBEMXZ PROC				; Vector3::Length, COMDAT
; _this$ = ecx

; 88   : 	{

	push	ebp
	mov	ebp, esp
	sub	esp, 68					; 00000044H
	push	ebx
	push	esi
	push	edi
	mov	DWORD PTR _this$[ebp], ecx

; 89   : 		return WWMath::Sqrt(Length2());

	mov	ecx, DWORD PTR _this$[ebp]
	call	?Length2@Vector3@@QBEMXZ		; Vector3::Length2
	push	ecx
	fstp	DWORD PTR [esp]
	call	?Sqrt@WWMath@@SAMM@Z			; WWMath::Sqrt
	add	esp, 4

; 90   : 	}

	pop	edi
	pop	esi
	pop	ebx
	mov	esp, ebp
	pop	ebp
	ret	0
?Length@Vector3@@QBEMXZ ENDP				; Vector3::Length
_TEXT	ENDS
; Function compile flags: /Odtp /ZI
; File x:\github\renegade\dragonade_rxd\scripts\vector3.h
;	COMDAT ?Normalize@Vector3@@QAEXXZ
_TEXT	SEGMENT
tv81 = -80						; size = 4
_oolen$ = -12						; size = 4
_len2$ = -8						; size = 4
_this$ = -4						; size = 4
?Normalize@Vector3@@QAEXXZ PROC				; Vector3::Normalize, COMDAT
; _this$ = ecx

; 74   : 	{

	push	ebp
	mov	ebp, esp
	sub	esp, 80					; 00000050H
	push	ebx
	push	esi
	push	edi
	mov	DWORD PTR _this$[ebp], ecx

; 75   : 		float len2 = WWMATH_FLOAT_TINY + Length2();

	mov	ecx, DWORD PTR _this$[ebp]
	call	?Length2@Vector3@@QBEMXZ		; Vector3::Length2
	fstp	DWORD PTR tv81[ebp]
	movss	xmm0, DWORD PTR tv81[ebp]
	addss	xmm0, DWORD PTR __real@02081cea
	movss	DWORD PTR _len2$[ebp], xmm0

; 76   : 		float oolen = WWMath::Inv_Sqrt(len2);

	push	ecx
	movss	xmm0, DWORD PTR _len2$[ebp]
	movss	DWORD PTR [esp], xmm0
	call	?Inv_Sqrt@WWMath@@SIMM@Z		; WWMath::Inv_Sqrt
	fstp	DWORD PTR _oolen$[ebp]

; 77   : 		X *= oolen;

	mov	eax, DWORD PTR _this$[ebp]
	movss	xmm0, DWORD PTR [eax]
	mulss	xmm0, DWORD PTR _oolen$[ebp]
	mov	ecx, DWORD PTR _this$[ebp]
	movss	DWORD PTR [ecx], xmm0

; 78   : 		Y *= oolen;

	mov	eax, DWORD PTR _this$[ebp]
	movss	xmm0, DWORD PTR [eax+4]
	mulss	xmm0, DWORD PTR _oolen$[ebp]
	mov	ecx, DWORD PTR _this$[ebp]
	movss	DWORD PTR [ecx+4], xmm0

; 79   : 		Z *= oolen;

	mov	eax, DWORD PTR _this$[ebp]
	movss	xmm0, DWORD PTR [eax+8]
	mulss	xmm0, DWORD PTR _oolen$[ebp]
	mov	ecx, DWORD PTR _this$[ebp]
	movss	DWORD PTR [ecx+8], xmm0

; 80   : 	}

	pop	edi
	pop	esi
	pop	ebx
	mov	esp, ebp
	pop	ebp
	ret	0
?Normalize@Vector3@@QAEXXZ ENDP				; Vector3::Normalize
_TEXT	ENDS
; Function compile flags: /Odtp /ZI
; File x:\github\renegade\dragonade_rxd\scripts\vector3.h
;	COMDAT ??AVector3@@QBEABMH@Z
_TEXT	SEGMENT
_this$ = -4						; size = 4
_i$ = 8							; size = 4
??AVector3@@QBEABMH@Z PROC				; Vector3::operator[], COMDAT
; _this$ = ecx

; 70   : 	{

	push	ebp
	mov	ebp, esp
	sub	esp, 68					; 00000044H
	push	ebx
	push	esi
	push	edi
	mov	DWORD PTR _this$[ebp], ecx

; 71   : 		return (&X)[i];

	mov	eax, DWORD PTR _i$[ebp]
	mov	ecx, DWORD PTR _this$[ebp]
	lea	eax, DWORD PTR [ecx+eax*4]

; 72   : 	}

	pop	edi
	pop	esi
	pop	ebx
	mov	esp, ebp
	pop	ebp
	ret	4
??AVector3@@QBEABMH@Z ENDP				; Vector3::operator[]
_TEXT	ENDS
; Function compile flags: /Odtp /ZI
; File x:\github\renegade\dragonade_rxd\scripts\vector3.h
;	COMDAT ??AVector3@@QAEAAMH@Z
_TEXT	SEGMENT
_this$ = -4						; size = 4
_i$ = 8							; size = 4
??AVector3@@QAEAAMH@Z PROC				; Vector3::operator[], COMDAT
; _this$ = ecx

; 66   : 	{

	push	ebp
	mov	ebp, esp
	sub	esp, 68					; 00000044H
	push	ebx
	push	esi
	push	edi
	mov	DWORD PTR _this$[ebp], ecx

; 67   : 		return (&X)[i];

	mov	eax, DWORD PTR _i$[ebp]
	mov	ecx, DWORD PTR _this$[ebp]
	lea	eax, DWORD PTR [ecx+eax*4]

; 68   : 	}

	pop	edi
	pop	esi
	pop	ebx
	mov	esp, ebp
	pop	ebp
	ret	4
??AVector3@@QAEAAMH@Z ENDP				; Vector3::operator[]
_TEXT	ENDS
; Function compile flags: /Odtp /ZI
; File x:\github\renegade\dragonade_rxd\scripts\vector3.h
;	COMDAT ?Set@Vector3@@QAEXMMM@Z
_TEXT	SEGMENT
_this$ = -4						; size = 4
_x$ = 8							; size = 4
_y$ = 12						; size = 4
_z$ = 16						; size = 4
?Set@Vector3@@QAEXMMM@Z PROC				; Vector3::Set, COMDAT
; _this$ = ecx

; 54   : 	{

	push	ebp
	mov	ebp, esp
	sub	esp, 68					; 00000044H
	push	ebx
	push	esi
	push	edi
	mov	DWORD PTR _this$[ebp], ecx

; 55   : 		X = x;

	mov	eax, DWORD PTR _this$[ebp]
	movss	xmm0, DWORD PTR _x$[ebp]
	movss	DWORD PTR [eax], xmm0

; 56   : 		Y = y;

	mov	eax, DWORD PTR _this$[ebp]
	movss	xmm0, DWORD PTR _y$[ebp]
	movss	DWORD PTR [eax+4], xmm0

; 57   : 		Z = z;

	mov	eax, DWORD PTR _this$[ebp]
	movss	xmm0, DWORD PTR _z$[ebp]
	movss	DWORD PTR [eax+8], xmm0

; 58   : 	}

	pop	edi
	pop	esi
	pop	ebx
	mov	esp, ebp
	pop	ebp
	ret	12					; 0000000cH
?Set@Vector3@@QAEXMMM@Z ENDP				; Vector3::Set
_TEXT	ENDS
; Function compile flags: /Odtp /ZI
; File x:\github\renegade\dragonade_rxd\scripts\vector3.h
;	COMDAT ??4Vector3@@QAEAAV0@ABV0@@Z
_TEXT	SEGMENT
_this$ = -4						; size = 4
_v$ = 8							; size = 4
??4Vector3@@QAEAAV0@ABV0@@Z PROC			; Vector3::operator=, COMDAT
; _this$ = ecx

; 47   : 	{

	push	ebp
	mov	ebp, esp
	sub	esp, 68					; 00000044H
	push	ebx
	push	esi
	push	edi
	mov	DWORD PTR _this$[ebp], ecx

; 48   : 		X = v.X;

	mov	eax, DWORD PTR _this$[ebp]
	mov	ecx, DWORD PTR _v$[ebp]
	mov	edx, DWORD PTR [ecx]
	mov	DWORD PTR [eax], edx

; 49   : 		Y = v.Y;

	mov	eax, DWORD PTR _this$[ebp]
	mov	ecx, DWORD PTR _v$[ebp]
	mov	edx, DWORD PTR [ecx+4]
	mov	DWORD PTR [eax+4], edx

; 50   : 		Z = v.Z;

	mov	eax, DWORD PTR _this$[ebp]
	mov	ecx, DWORD PTR _v$[ebp]
	mov	edx, DWORD PTR [ecx+8]
	mov	DWORD PTR [eax+8], edx

; 51   : 		return *this;

	mov	eax, DWORD PTR _this$[ebp]

; 52   : 	}

	pop	edi
	pop	esi
	pop	ebx
	mov	esp, ebp
	pop	ebp
	ret	4
??4Vector3@@QAEAAV0@ABV0@@Z ENDP			; Vector3::operator=
_TEXT	ENDS
; Function compile flags: /Odtp /ZI
; File x:\github\renegade\dragonade_rxd\scripts\vector3.h
;	COMDAT ??0Vector3@@QAE@MMM@Z
_TEXT	SEGMENT
_this$ = -4						; size = 4
_x$ = 8							; size = 4
_y$ = 12						; size = 4
_z$ = 16						; size = 4
??0Vector3@@QAE@MMM@Z PROC				; Vector3::Vector3, COMDAT
; _this$ = ecx

; 33   : 	TT_INLINE Vector3(float x, float y, float z)

	push	ebp
	mov	ebp, esp
	sub	esp, 68					; 00000044H
	push	ebx
	push	esi
	push	edi
	mov	DWORD PTR _this$[ebp], ecx

; 34   : 	{
; 35   : 		X = x;

	mov	eax, DWORD PTR _this$[ebp]
	movss	xmm0, DWORD PTR _x$[ebp]
	movss	DWORD PTR [eax], xmm0

; 36   : 		Y = y;

	mov	eax, DWORD PTR _this$[ebp]
	movss	xmm0, DWORD PTR _y$[ebp]
	movss	DWORD PTR [eax+4], xmm0

; 37   : 		Z = z;

	mov	eax, DWORD PTR _this$[ebp]
	movss	xmm0, DWORD PTR _z$[ebp]
	movss	DWORD PTR [eax+8], xmm0

; 38   : 	}

	mov	eax, DWORD PTR _this$[ebp]
	pop	edi
	pop	esi
	pop	ebx
	mov	esp, ebp
	pop	ebp
	ret	12					; 0000000cH
??0Vector3@@QAE@MMM@Z ENDP				; Vector3::Vector3
_TEXT	ENDS
; Function compile flags: /Odtp /ZI
; File x:\github\renegade\dragonade_rxd\scripts\vector3.h
;	COMDAT ??0Vector3@@QAE@ABV0@@Z
_TEXT	SEGMENT
_this$ = -4						; size = 4
_v$ = 8							; size = 4
??0Vector3@@QAE@ABV0@@Z PROC				; Vector3::Vector3, COMDAT
; _this$ = ecx

; 27   : 	TT_INLINE Vector3(const Vector3 &v)

	push	ebp
	mov	ebp, esp
	sub	esp, 68					; 00000044H
	push	ebx
	push	esi
	push	edi
	mov	DWORD PTR _this$[ebp], ecx

; 28   : 	{
; 29   : 		X = v.X;

	mov	eax, DWORD PTR _this$[ebp]
	mov	ecx, DWORD PTR _v$[ebp]
	mov	edx, DWORD PTR [ecx]
	mov	DWORD PTR [eax], edx

; 30   : 		Y = v.Y;

	mov	eax, DWORD PTR _this$[ebp]
	mov	ecx, DWORD PTR _v$[ebp]
	mov	edx, DWORD PTR [ecx+4]
	mov	DWORD PTR [eax+4], edx

; 31   : 		Z = v.Z;

	mov	eax, DWORD PTR _this$[ebp]
	mov	ecx, DWORD PTR _v$[ebp]
	mov	edx, DWORD PTR [ecx+8]
	mov	DWORD PTR [eax+8], edx

; 32   : 	}

	mov	eax, DWORD PTR _this$[ebp]
	pop	edi
	pop	esi
	pop	ebx
	mov	esp, ebp
	pop	ebp
	ret	4
??0Vector3@@QAE@ABV0@@Z ENDP				; Vector3::Vector3
_TEXT	ENDS
; Function compile flags: /Odtp /ZI
; File x:\github\renegade\dragonade_rxd\scripts\vector3.h
;	COMDAT ??0Vector3@@QAE@XZ
_TEXT	SEGMENT
_this$ = -4						; size = 4
??0Vector3@@QAE@XZ PROC					; Vector3::Vector3, COMDAT
; _this$ = ecx

; 23   : 	TT_INLINE Vector3()

	push	ebp
	mov	ebp, esp
	sub	esp, 68					; 00000044H
	push	ebx
	push	esi
	push	edi
	mov	DWORD PTR _this$[ebp], ecx

; 24   : 	{
; 25   : 		X = Y = Z = 0.0f;

	mov	eax, DWORD PTR _this$[ebp]
	movss	xmm0, DWORD PTR __real@00000000
	movss	DWORD PTR [eax+8], xmm0
	mov	ecx, DWORD PTR _this$[ebp]
	movss	xmm0, DWORD PTR __real@00000000
	movss	DWORD PTR [ecx+4], xmm0
	mov	edx, DWORD PTR _this$[ebp]
	movss	xmm0, DWORD PTR __real@00000000
	movss	DWORD PTR [edx], xmm0

; 26   : 	}

	mov	eax, DWORD PTR _this$[ebp]
	pop	edi
	pop	esi
	pop	ebx
	mov	esp, ebp
	pop	ebp
	ret	0
??0Vector3@@QAE@XZ ENDP					; Vector3::Vector3
_TEXT	ENDS
; Function compile flags: /Odtp /ZI
; File x:\github\renegade\dragonade_rxd\scripts\defines.h
;	COMDAT ??B?$RefArrayHelper@M$0EAA@@@QAEPAMXZ
_TEXT	SEGMENT
_this$ = -4						; size = 4
??B?$RefArrayHelper@M$0EAA@@@QAEPAMXZ PROC		; RefArrayHelper<float,1024>::operator float *, COMDAT
; _this$ = ecx

; 161  : 	{

	push	ebp
	mov	ebp, esp
	sub	esp, 68					; 00000044H
	push	ebx
	push	esi
	push	edi
	mov	DWORD PTR _this$[ebp], ecx

; 162  : 		return (T*) this;

	mov	eax, DWORD PTR _this$[ebp]

; 163  : 	};

	pop	edi
	pop	esi
	pop	ebx
	mov	esp, ebp
	pop	ebp
	ret	0
??B?$RefArrayHelper@M$0EAA@@@QAEPAMXZ ENDP		; RefArrayHelper<float,1024>::operator float *
_TEXT	ENDS
; Function compile flags: /Odtp /ZI
;	COMDAT ??4WWMath@@QAEAAV0@ABV0@@Z
_TEXT	SEGMENT
_this$ = -4						; size = 4
___that$ = 8						; size = 4
??4WWMath@@QAEAAV0@ABV0@@Z PROC				; WWMath::operator=, COMDAT
; _this$ = ecx
	push	ebp
	mov	ebp, esp
	sub	esp, 68					; 00000044H
	push	ebx
	push	esi
	push	edi
	mov	DWORD PTR _this$[ebp], ecx
	mov	eax, DWORD PTR _this$[ebp]
	pop	edi
	pop	esi
	pop	ebx
	mov	esp, ebp
	pop	ebp
	ret	4
??4WWMath@@QAEAAV0@ABV0@@Z ENDP				; WWMath::operator=
_TEXT	ENDS
; Function compile flags: /Odtp /ZI
; File x:\github\renegade\dragonade_rxd\scripts\wwmath.h
;	COMDAT ?Is_Valid_Double@WWMath@@SA_NN@Z
_TEXT	SEGMENT
_exponent$ = -8						; size = 4
_plong$ = -4						; size = 4
_x$ = 8							; size = 8
?Is_Valid_Double@WWMath@@SA_NN@Z PROC			; WWMath::Is_Valid_Double, COMDAT

; 207  : {

	push	ebp
	mov	ebp, esp
	sub	esp, 72					; 00000048H
	push	ebx
	push	esi
	push	edi

; 208  : 	unsigned long * plong = (unsigned long *)(&x) + 1;

	lea	eax, DWORD PTR _x$[ebp+4]
	mov	DWORD PTR _plong$[ebp], eax

; 209  : 	unsigned long exponent = ((*plong) & 0x7FF00000) >> (32-12);

	mov	eax, DWORD PTR _plong$[ebp]
	mov	ecx, DWORD PTR [eax]
	and	ecx, 2146435072				; 7ff00000H
	shr	ecx, 20					; 00000014H
	mov	DWORD PTR _exponent$[ebp], ecx

; 210  : 	if (exponent == 0x7FF) {

	cmp	DWORD PTR _exponent$[ebp], 2047		; 000007ffH
	jne	SHORT $LN1@Is_Valid_D

; 211  : 		return false;

	xor	al, al
	jmp	SHORT $LN2@Is_Valid_D
$LN1@Is_Valid_D:

; 212  : 	}
; 213  : 	return true;

	mov	al, 1
$LN2@Is_Valid_D:

; 214  : }

	pop	edi
	pop	esi
	pop	ebx
	mov	esp, ebp
	pop	ebp
	ret	0
?Is_Valid_Double@WWMath@@SA_NN@Z ENDP			; WWMath::Is_Valid_Double
_TEXT	ENDS
; Function compile flags: /Odtp /ZI
; File x:\github\renegade\dragonade_rxd\scripts\wwmath.h
;	COMDAT ?Is_Valid_Float@WWMath@@SA_NM@Z
_TEXT	SEGMENT
_exponent$ = -8						; size = 4
_plong$ = -4						; size = 4
_x$ = 8							; size = 4
?Is_Valid_Float@WWMath@@SA_NM@Z PROC			; WWMath::Is_Valid_Float, COMDAT

; 197  : {

	push	ebp
	mov	ebp, esp
	sub	esp, 72					; 00000048H
	push	ebx
	push	esi
	push	edi

; 198  : 	unsigned long * plong = (unsigned long *)(&x);

	lea	eax, DWORD PTR _x$[ebp]
	mov	DWORD PTR _plong$[ebp], eax

; 199  : 	unsigned long exponent = ((*plong) & 0x7F800000) >> (32-9);

	mov	eax, DWORD PTR _plong$[ebp]
	mov	ecx, DWORD PTR [eax]
	and	ecx, 2139095040				; 7f800000H
	shr	ecx, 23					; 00000017H
	mov	DWORD PTR _exponent$[ebp], ecx

; 200  : 	if (exponent == 0xFF) {

	cmp	DWORD PTR _exponent$[ebp], 255		; 000000ffH
	jne	SHORT $LN1@Is_Valid_F

; 201  : 		return false;

	xor	al, al
	jmp	SHORT $LN2@Is_Valid_F
$LN1@Is_Valid_F:

; 202  : 	}
; 203  : 	return true;

	mov	al, 1
$LN2@Is_Valid_F:

; 204  : }

	pop	edi
	pop	esi
	pop	ebx
	mov	esp, ebp
	pop	ebp
	ret	0
?Is_Valid_Float@WWMath@@SA_NM@Z ENDP			; WWMath::Is_Valid_Float
_TEXT	ENDS
; Function compile flags: /Odtp /ZI
; File x:\github\renegade\dragonade_rxd\scripts\wwmath.h
;	COMDAT ?Byte_To_Unit_Float@WWMath@@SAME@Z
_TEXT	SEGMENT
tv69 = -68						; size = 4
_byte$ = 8						; size = 1
?Byte_To_Unit_Float@WWMath@@SAME@Z PROC			; WWMath::Byte_To_Unit_Float, COMDAT

; 97   : 	static float Byte_To_Unit_Float(unsigned char byte) { return ((float)byte) / 255.0f; }

	push	ebp
	mov	ebp, esp
	sub	esp, 68					; 00000044H
	push	ebx
	push	esi
	push	edi
	movzx	eax, BYTE PTR _byte$[ebp]
	cvtsi2ss xmm0, eax
	divss	xmm0, DWORD PTR __real@437f0000
	movss	DWORD PTR tv69[ebp], xmm0
	fld	DWORD PTR tv69[ebp]
	pop	edi
	pop	esi
	pop	ebx
	mov	esp, ebp
	pop	ebp
	ret	0
?Byte_To_Unit_Float@WWMath@@SAME@Z ENDP			; WWMath::Byte_To_Unit_Float
_TEXT	ENDS
; Function compile flags: /Odtp /ZI
; File x:\github\renegade\dragonade_rxd\scripts\wwmath.h
;	COMDAT ?Unit_Float_To_Byte@WWMath@@SAEM@Z
_TEXT	SEGMENT
_f$ = 8							; size = 4
?Unit_Float_To_Byte@WWMath@@SAEM@Z PROC			; WWMath::Unit_Float_To_Byte, COMDAT

; 96   : 	static unsigned char Unit_Float_To_Byte(float f) { return (unsigned char)(f*255.0f); }

	push	ebp
	mov	ebp, esp
	sub	esp, 64					; 00000040H
	push	ebx
	push	esi
	push	edi
	movss	xmm0, DWORD PTR _f$[ebp]
	mulss	xmm0, DWORD PTR __real@437f0000
	cvttss2si eax, xmm0
	pop	edi
	pop	esi
	pop	ebx
	mov	esp, ebp
	pop	ebp
	ret	0
?Unit_Float_To_Byte@WWMath@@SAEM@Z ENDP			; WWMath::Unit_Float_To_Byte
_TEXT	ENDS
; Function compile flags: /Odtp /ZI
; File x:\github\renegade\dragonade_rxd\scripts\wwmath.h
;	COMDAT ?Float_To_Long@WWMath@@SAJN@Z
_TEXT	SEGMENT
$T1 = -80						; size = 16
_f$ = 8							; size = 8
?Float_To_Long@WWMath@@SAJN@Z PROC			; WWMath::Float_To_Long, COMDAT

; 222  : {

	push	ebx
	mov	ebx, esp
	sub	esp, 8
	and	esp, -16				; fffffff0H
	add	esp, 4
	push	ebp
	mov	ebp, DWORD PTR [ebx+4]
	mov	DWORD PTR [esp+4], ebp
	mov	ebp, esp
	sub	esp, 88					; 00000058H
	push	esi
	push	edi

; 223  :     return _mm_cvttsd_si32(_mm_load_pd(&f));

	movupd	xmm0, XMMWORD PTR _f$[ebx]
	movapd	XMMWORD PTR $T1[ebp], xmm0
	movapd	xmm0, XMMWORD PTR $T1[ebp]
	cvttsd2si eax, xmm0

; 224  : }

	pop	edi
	pop	esi
	mov	esp, ebp
	pop	ebp
	mov	esp, ebx
	pop	ebx
	ret	0
?Float_To_Long@WWMath@@SAJN@Z ENDP			; WWMath::Float_To_Long
_TEXT	ENDS
; Function compile flags: /Odtp /ZI
; File x:\github\renegade\dragonade_rxd\scripts\wwmath.h
;	COMDAT ?Lerp@WWMath@@SAHHHM@Z
_TEXT	SEGMENT
_a$ = 8							; size = 4
_b$ = 12						; size = 4
_lerp$ = 16						; size = 4
?Lerp@WWMath@@SAHHHM@Z PROC				; WWMath::Lerp, COMDAT

; 192  : {

	push	ebp
	mov	ebp, esp
	sub	esp, 64					; 00000040H
	push	ebx
	push	esi
	push	edi

; 193  : 	return (a + (int)((b - a)*lerp));

	mov	eax, DWORD PTR _b$[ebp]
	sub	eax, DWORD PTR _a$[ebp]
	cvtsi2ss xmm0, eax
	mulss	xmm0, DWORD PTR _lerp$[ebp]
	cvttss2si eax, xmm0
	add	eax, DWORD PTR _a$[ebp]

; 194  : }

	pop	edi
	pop	esi
	pop	ebx
	mov	esp, ebp
	pop	ebp
	ret	0
?Lerp@WWMath@@SAHHHM@Z ENDP				; WWMath::Lerp
_TEXT	ENDS
; Function compile flags: /Odtp /ZI
; File x:\github\renegade\dragonade_rxd\scripts\wwmath.h
;	COMDAT ?Lerp@WWMath@@SANNNM@Z
_TEXT	SEGMENT
tv73 = -72						; size = 8
_a$ = 8							; size = 8
_b$ = 16						; size = 8
_lerp$ = 24						; size = 4
?Lerp@WWMath@@SANNNM@Z PROC				; WWMath::Lerp, COMDAT

; 187  : {

	push	ebp
	mov	ebp, esp
	sub	esp, 72					; 00000048H
	push	ebx
	push	esi
	push	edi

; 188  : 	return (a + (b - a)*lerp);

	movsd	xmm0, QWORD PTR _b$[ebp]
	subsd	xmm0, QWORD PTR _a$[ebp]
	cvtss2sd xmm1, DWORD PTR _lerp$[ebp]
	mulsd	xmm0, xmm1
	addsd	xmm0, QWORD PTR _a$[ebp]
	movsd	QWORD PTR tv73[ebp], xmm0
	fld	QWORD PTR tv73[ebp]

; 189  : }

	pop	edi
	pop	esi
	pop	ebx
	mov	esp, ebp
	pop	ebp
	ret	0
?Lerp@WWMath@@SANNNM@Z ENDP				; WWMath::Lerp
_TEXT	ENDS
; Function compile flags: /Odtp /ZI
; File x:\github\renegade\dragonade_rxd\scripts\wwmath.h
;	COMDAT ?Lerp@WWMath@@SAMMMM@Z
_TEXT	SEGMENT
tv72 = -68						; size = 4
_a$ = 8							; size = 4
_b$ = 12						; size = 4
_lerp$ = 16						; size = 4
?Lerp@WWMath@@SAMMMM@Z PROC				; WWMath::Lerp, COMDAT

; 182  : {

	push	ebp
	mov	ebp, esp
	sub	esp, 68					; 00000044H
	push	ebx
	push	esi
	push	edi

; 183  : 	return (a + (b - a)*lerp);

	movss	xmm0, DWORD PTR _b$[ebp]
	subss	xmm0, DWORD PTR _a$[ebp]
	mulss	xmm0, DWORD PTR _lerp$[ebp]
	addss	xmm0, DWORD PTR _a$[ebp]
	movss	DWORD PTR tv72[ebp], xmm0
	fld	DWORD PTR tv72[ebp]

; 184  : }

	pop	edi
	pop	esi
	pop	ebx
	mov	esp, ebp
	pop	ebp
	ret	0
?Lerp@WWMath@@SAMMMM@Z ENDP				; WWMath::Lerp
_TEXT	ENDS
; Function compile flags: /Odtp /ZI
; File x:\github\renegade\dragonade_rxd\scripts\wwmath.h
;	COMDAT ?Max@WWMath@@SAMMM@Z
_TEXT	SEGMENT
_a$ = 8							; size = 4
_b$ = 12						; size = 4
?Max@WWMath@@SAMMM@Z PROC				; WWMath::Max, COMDAT

; 176  : {

	push	ebp
	mov	ebp, esp
	sub	esp, 64					; 00000040H
	push	ebx
	push	esi
	push	edi

; 177  : 	if (a>b) return a;

	movss	xmm0, DWORD PTR _a$[ebp]
	comiss	xmm0, DWORD PTR _b$[ebp]
	jbe	SHORT $LN1@Max
	fld	DWORD PTR _a$[ebp]
	jmp	SHORT $LN2@Max
$LN1@Max:

; 178  : 	return b;

	fld	DWORD PTR _b$[ebp]
$LN2@Max:

; 179  : }

	pop	edi
	pop	esi
	pop	ebx
	mov	esp, ebp
	pop	ebp
	ret	0
?Max@WWMath@@SAMMM@Z ENDP				; WWMath::Max
_TEXT	ENDS
; Function compile flags: /Odtp /ZI
; File x:\github\renegade\dragonade_rxd\scripts\wwmath.h
;	COMDAT ?Min@WWMath@@SAMMM@Z
_TEXT	SEGMENT
_a$ = 8							; size = 4
_b$ = 12						; size = 4
?Min@WWMath@@SAMMM@Z PROC				; WWMath::Min, COMDAT

; 170  : {

	push	ebp
	mov	ebp, esp
	sub	esp, 64					; 00000040H
	push	ebx
	push	esi
	push	edi

; 171  : 	if (a<b) return a;

	movss	xmm0, DWORD PTR _b$[ebp]
	comiss	xmm0, DWORD PTR _a$[ebp]
	jbe	SHORT $LN1@Min
	fld	DWORD PTR _a$[ebp]
	jmp	SHORT $LN2@Min
$LN1@Min:

; 172  : 	return b;

	fld	DWORD PTR _b$[ebp]
$LN2@Min:

; 173  : }

	pop	edi
	pop	esi
	pop	ebx
	mov	esp, ebp
	pop	ebp
	ret	0
?Min@WWMath@@SAMMM@Z ENDP				; WWMath::Min
_TEXT	ENDS
; Function compile flags: /Odtp /ZI
; File x:\github\renegade\dragonade_rxd\scripts\wwmath.h
;	COMDAT ?Wrap@WWMath@@SANNNN@Z
_TEXT	SEGMENT
_val$ = 8						; size = 8
_min$ = 16						; size = 8
_max$ = 24						; size = 8
?Wrap@WWMath@@SANNNN@Z PROC				; WWMath::Wrap, COMDAT

; 157  : {

	push	ebp
	mov	ebp, esp
	sub	esp, 64					; 00000040H
	push	ebx
	push	esi
	push	edi

; 158  : 	if ( val >= max )	val -= (max-min);

	movsd	xmm0, QWORD PTR _val$[ebp]
	comisd	xmm0, QWORD PTR _max$[ebp]
	jb	SHORT $LN4@Wrap
	movsd	xmm0, QWORD PTR _max$[ebp]
	subsd	xmm0, QWORD PTR _min$[ebp]
	movsd	xmm1, QWORD PTR _val$[ebp]
	subsd	xmm1, xmm0
	movsd	QWORD PTR _val$[ebp], xmm1
$LN4@Wrap:

; 159  : 	if ( val < min )	val += (max-min);

	movsd	xmm0, QWORD PTR _min$[ebp]
	comisd	xmm0, QWORD PTR _val$[ebp]
	jbe	SHORT $LN3@Wrap
	movsd	xmm0, QWORD PTR _max$[ebp]
	subsd	xmm0, QWORD PTR _min$[ebp]
	addsd	xmm0, QWORD PTR _val$[ebp]
	movsd	QWORD PTR _val$[ebp], xmm0
$LN3@Wrap:

; 160  : 	if ( val < min ) {

	movsd	xmm0, QWORD PTR _min$[ebp]
	comisd	xmm0, QWORD PTR _val$[ebp]
	jbe	SHORT $LN2@Wrap

; 161  : 		val = min;

	movsd	xmm0, QWORD PTR _min$[ebp]
	movsd	QWORD PTR _val$[ebp], xmm0
$LN2@Wrap:

; 162  : 	}
; 163  : 	if ( val > max ) {

	movsd	xmm0, QWORD PTR _val$[ebp]
	comisd	xmm0, QWORD PTR _max$[ebp]
	jbe	SHORT $LN1@Wrap

; 164  : 		val = max;

	movsd	xmm0, QWORD PTR _max$[ebp]
	movsd	QWORD PTR _val$[ebp], xmm0
$LN1@Wrap:

; 165  : 	}
; 166  : 	return val;

	fld	QWORD PTR _val$[ebp]

; 167  : }

	pop	edi
	pop	esi
	pop	ebx
	mov	esp, ebp
	pop	ebp
	ret	0
?Wrap@WWMath@@SANNNN@Z ENDP				; WWMath::Wrap
_TEXT	ENDS
; Function compile flags: /Odtp /ZI
; File x:\github\renegade\dragonade_rxd\scripts\wwmath.h
;	COMDAT ?Wrap@WWMath@@SAMMMM@Z
_TEXT	SEGMENT
_val$ = 8						; size = 4
_min$ = 12						; size = 4
_max$ = 16						; size = 4
?Wrap@WWMath@@SAMMMM@Z PROC				; WWMath::Wrap, COMDAT

; 144  : {

	push	ebp
	mov	ebp, esp
	sub	esp, 64					; 00000040H
	push	ebx
	push	esi
	push	edi

; 145  : 	if ( val >= max )	val -= (max-min);

	movss	xmm0, DWORD PTR _val$[ebp]
	comiss	xmm0, DWORD PTR _max$[ebp]
	jb	SHORT $LN4@Wrap
	movss	xmm0, DWORD PTR _max$[ebp]
	subss	xmm0, DWORD PTR _min$[ebp]
	movss	xmm1, DWORD PTR _val$[ebp]
	subss	xmm1, xmm0
	movss	DWORD PTR _val$[ebp], xmm1
$LN4@Wrap:

; 146  : 	if ( val < min )	val += (max-min);

	movss	xmm0, DWORD PTR _min$[ebp]
	comiss	xmm0, DWORD PTR _val$[ebp]
	jbe	SHORT $LN3@Wrap
	movss	xmm0, DWORD PTR _max$[ebp]
	subss	xmm0, DWORD PTR _min$[ebp]
	addss	xmm0, DWORD PTR _val$[ebp]
	movss	DWORD PTR _val$[ebp], xmm0
$LN3@Wrap:

; 147  : 	if ( val < min ) {

	movss	xmm0, DWORD PTR _min$[ebp]
	comiss	xmm0, DWORD PTR _val$[ebp]
	jbe	SHORT $LN2@Wrap

; 148  : 		val = min;

	movss	xmm0, DWORD PTR _min$[ebp]
	movss	DWORD PTR _val$[ebp], xmm0
$LN2@Wrap:

; 149  : 	}
; 150  : 	if ( val > max ) {

	movss	xmm0, DWORD PTR _val$[ebp]
	comiss	xmm0, DWORD PTR _max$[ebp]
	jbe	SHORT $LN1@Wrap

; 151  : 		val = max;

	movss	xmm0, DWORD PTR _max$[ebp]
	movss	DWORD PTR _val$[ebp], xmm0
$LN1@Wrap:

; 152  : 	}
; 153  : 	return val;

	fld	DWORD PTR _val$[ebp]

; 154  : }

	pop	edi
	pop	esi
	pop	ebx
	mov	esp, ebp
	pop	ebp
	ret	0
?Wrap@WWMath@@SAMMMM@Z ENDP				; WWMath::Wrap
_TEXT	ENDS
; Function compile flags: /Odtp /ZI
; File x:\github\renegade\dragonade_rxd\scripts\wwmath.h
;	COMDAT ?Clamp_Int@WWMath@@SAHHHH@Z
_TEXT	SEGMENT
_val$ = 8						; size = 4
_min_val$ = 12						; size = 4
_max_val$ = 16						; size = 4
?Clamp_Int@WWMath@@SAHHHH@Z PROC			; WWMath::Clamp_Int, COMDAT

; 137  : {

	push	ebp
	mov	ebp, esp
	sub	esp, 64					; 00000040H
	push	ebx
	push	esi
	push	edi

; 138  : 	if(val < min_val) return min_val;

	mov	eax, DWORD PTR _val$[ebp]
	cmp	eax, DWORD PTR _min_val$[ebp]
	jge	SHORT $LN2@Clamp_Int
	mov	eax, DWORD PTR _min_val$[ebp]
	jmp	SHORT $LN3@Clamp_Int
$LN2@Clamp_Int:

; 139  : 	if(val > max_val) return max_val;

	mov	eax, DWORD PTR _val$[ebp]
	cmp	eax, DWORD PTR _max_val$[ebp]
	jle	SHORT $LN1@Clamp_Int
	mov	eax, DWORD PTR _max_val$[ebp]
	jmp	SHORT $LN3@Clamp_Int
$LN1@Clamp_Int:

; 140  : 	return val;

	mov	eax, DWORD PTR _val$[ebp]
$LN3@Clamp_Int:

; 141  : }

	pop	edi
	pop	esi
	pop	ebx
	mov	esp, ebp
	pop	ebp
	ret	0
?Clamp_Int@WWMath@@SAHHHH@Z ENDP			; WWMath::Clamp_Int
_TEXT	ENDS
; Function compile flags: /Odtp /ZI
; File x:\github\renegade\dragonade_rxd\scripts\wwmath.h
;	COMDAT ?Clamp@WWMath@@SANNNN@Z
_TEXT	SEGMENT
_val$ = 8						; size = 8
_min$ = 16						; size = 8
_max$ = 24						; size = 8
?Clamp@WWMath@@SANNNN@Z PROC				; WWMath::Clamp, COMDAT

; 130  : {

	push	ebp
	mov	ebp, esp
	sub	esp, 64					; 00000040H
	push	ebx
	push	esi
	push	edi

; 131  : 	if(val < min) return min;

	movsd	xmm0, QWORD PTR _min$[ebp]
	comisd	xmm0, QWORD PTR _val$[ebp]
	jbe	SHORT $LN2@Clamp
	fld	QWORD PTR _min$[ebp]
	jmp	SHORT $LN3@Clamp
$LN2@Clamp:

; 132  : 	if(val > max) return max;

	movsd	xmm0, QWORD PTR _val$[ebp]
	comisd	xmm0, QWORD PTR _max$[ebp]
	jbe	SHORT $LN1@Clamp
	fld	QWORD PTR _max$[ebp]
	jmp	SHORT $LN3@Clamp
$LN1@Clamp:

; 133  : 	return val;

	fld	QWORD PTR _val$[ebp]
$LN3@Clamp:

; 134  : }

	pop	edi
	pop	esi
	pop	ebx
	mov	esp, ebp
	pop	ebp
	ret	0
?Clamp@WWMath@@SANNNN@Z ENDP				; WWMath::Clamp
_TEXT	ENDS
; Function compile flags: /Odtp /ZI
; File x:\github\renegade\dragonade_rxd\scripts\wwmath.h
;	COMDAT ?Clamp@WWMath@@SAMMMM@Z
_TEXT	SEGMENT
_val$ = 8						; size = 4
_min$ = 12						; size = 4
_max$ = 16						; size = 4
?Clamp@WWMath@@SAMMMM@Z PROC				; WWMath::Clamp, COMDAT

; 123  : {

	push	ebp
	mov	ebp, esp
	sub	esp, 64					; 00000040H
	push	ebx
	push	esi
	push	edi

; 124  : 	if(val < min) return min;

	movss	xmm0, DWORD PTR _min$[ebp]
	comiss	xmm0, DWORD PTR _val$[ebp]
	jbe	SHORT $LN2@Clamp
	fld	DWORD PTR _min$[ebp]
	jmp	SHORT $LN3@Clamp
$LN2@Clamp:

; 125  : 	if(val > max) return max;

	movss	xmm0, DWORD PTR _val$[ebp]
	comiss	xmm0, DWORD PTR _max$[ebp]
	jbe	SHORT $LN1@Clamp
	fld	DWORD PTR _max$[ebp]
	jmp	SHORT $LN3@Clamp
$LN1@Clamp:

; 126  : 	return val;

	fld	DWORD PTR _val$[ebp]
$LN3@Clamp:

; 127  : }

	pop	edi
	pop	esi
	pop	ebx
	mov	esp, ebp
	pop	ebp
	ret	0
?Clamp@WWMath@@SAMMMM@Z ENDP				; WWMath::Clamp
_TEXT	ENDS
; Function compile flags: /Odtp /ZI
; File x:\github\renegade\dragonade_rxd\scripts\wwmath.h
;	COMDAT ?Random_Float@WWMath@@SAMMM@Z
_TEXT	SEGMENT
tv76 = -72						; size = 4
tv73 = -68						; size = 4
_min$ = 8						; size = 4
_max$ = 12						; size = 4
?Random_Float@WWMath@@SAMMM@Z PROC			; WWMath::Random_Float, COMDAT

; 118  : { 

	push	ebp
	mov	ebp, esp
	sub	esp, 72					; 00000048H
	push	ebx
	push	esi
	push	edi

; 119  : 	return Random_Float() * (max-min) + min; 

	call	?Random_Float@WWMath@@SAMXZ		; WWMath::Random_Float
	fstp	DWORD PTR tv73[ebp]
	movss	xmm0, DWORD PTR tv73[ebp]
	movss	xmm1, DWORD PTR _max$[ebp]
	subss	xmm1, DWORD PTR _min$[ebp]
	mulss	xmm0, xmm1
	addss	xmm0, DWORD PTR _min$[ebp]
	movss	DWORD PTR tv76[ebp], xmm0
	fld	DWORD PTR tv76[ebp]

; 120  : }

	pop	edi
	pop	esi
	pop	ebx
	mov	esp, ebp
	pop	ebp
	ret	0
?Random_Float@WWMath@@SAMMM@Z ENDP			; WWMath::Random_Float
_TEXT	ENDS
; Function compile flags: /Odtp /ZI
; File x:\github\renegade\dragonade_rxd\scripts\wwmath.h
;	COMDAT ?Fast_Is_Float_Positive@WWMath@@SA_NABM@Z
_TEXT	SEGMENT
tv66 = -68						; size = 4
_val$ = 8						; size = 4
?Fast_Is_Float_Positive@WWMath@@SA_NABM@Z PROC		; WWMath::Fast_Is_Float_Positive, COMDAT

; 113  : {

	push	ebp
	mov	ebp, esp
	sub	esp, 68					; 00000044H
	push	ebx
	push	esi
	push	edi

; 114  : 	return !((*(int *)(&val)) & 0x80000000);

	mov	eax, DWORD PTR _val$[ebp]
	mov	ecx, DWORD PTR [eax]
	and	ecx, -2147483648			; 80000000H
	jne	SHORT $LN3@Fast_Is_Fl
	mov	DWORD PTR tv66[ebp], 1
	jmp	SHORT $LN4@Fast_Is_Fl
$LN3@Fast_Is_Fl:
	mov	DWORD PTR tv66[ebp], 0
$LN4@Fast_Is_Fl:
	mov	al, BYTE PTR tv66[ebp]

; 115  : }

	pop	edi
	pop	esi
	pop	ebx
	mov	esp, ebp
	pop	ebp
	ret	0
?Fast_Is_Float_Positive@WWMath@@SA_NABM@Z ENDP		; WWMath::Fast_Is_Float_Positive
_TEXT	ENDS
; Function compile flags: /Odtp /ZI
; File x:\github\renegade\dragonade_rxd\scripts\wwmath.h
;	COMDAT ?Floor@WWMath@@SAMM@Z
_TEXT	SEGMENT
_val$ = 8						; size = 4
?Floor@WWMath@@SAMM@Z PROC				; WWMath::Floor, COMDAT

; 81   : 	static float Floor(float val) { return floorf(val); }

	push	ebp
	mov	ebp, esp
	sub	esp, 64					; 00000040H
	push	ebx
	push	esi
	push	edi
	push	ecx
	movss	xmm0, DWORD PTR _val$[ebp]
	movss	DWORD PTR [esp], xmm0
	call	_floorf
	add	esp, 4
	pop	edi
	pop	esi
	pop	ebx
	mov	esp, ebp
	pop	ebp
	ret	0
?Floor@WWMath@@SAMM@Z ENDP				; WWMath::Floor
_TEXT	ENDS
; Function compile flags: /Odtp /ZI
; File x:\github\renegade\dragonade_rxd\scripts\wwmath.h
;	COMDAT ?Ceil@WWMath@@SAMM@Z
_TEXT	SEGMENT
_val$ = 8						; size = 4
?Ceil@WWMath@@SAMM@Z PROC				; WWMath::Ceil, COMDAT

; 80   : 	static float Ceil(float val) { return ceilf(val); }

	push	ebp
	mov	ebp, esp
	sub	esp, 64					; 00000040H
	push	ebx
	push	esi
	push	edi
	push	ecx
	movss	xmm0, DWORD PTR _val$[ebp]
	movss	DWORD PTR [esp], xmm0
	call	_ceilf
	add	esp, 4
	pop	edi
	pop	esi
	pop	ebx
	mov	esp, ebp
	pop	ebp
	ret	0
?Ceil@WWMath@@SAMM@Z ENDP				; WWMath::Ceil
_TEXT	ENDS
; Function compile flags: /Odtp /ZI
; File x:\github\renegade\dragonade_rxd\scripts\wwmath.h
;	COMDAT ?Sign@WWMath@@SAMM@Z
_TEXT	SEGMENT
_val$ = 8						; size = 4
?Sign@WWMath@@SAMM@Z PROC				; WWMath::Sign, COMDAT

; 102  : { 

	push	ebp
	mov	ebp, esp
	sub	esp, 64					; 00000040H
	push	ebx
	push	esi
	push	edi

; 103  : 	if (val > 0.0f) { 

	movss	xmm0, DWORD PTR _val$[ebp]
	comiss	xmm0, DWORD PTR __real@00000000
	jbe	SHORT $LN2@Sign

; 104  : 		return +1.0f; 

	fld1
	jmp	SHORT $LN3@Sign
$LN2@Sign:

; 105  : 	} 
; 106  : 	if (val < 0.0f) { 

	movss	xmm0, DWORD PTR __real@00000000
	comiss	xmm0, DWORD PTR _val$[ebp]
	jbe	SHORT $LN1@Sign

; 107  : 		return -1.0f; 

	fld	DWORD PTR __real@bf800000
	jmp	SHORT $LN3@Sign
$LN1@Sign:

; 108  : 	} 
; 109  : 	return 0.0f; 

	fldz
$LN3@Sign:

; 110  : }

	pop	edi
	pop	esi
	pop	ebx
	mov	esp, ebp
	pop	ebp
	ret	0
?Sign@WWMath@@SAMM@Z ENDP				; WWMath::Sign
_TEXT	ENDS
; Function compile flags: /Odtp /ZI
; File x:\github\renegade\dragonade_rxd\scripts\wwmath.h
;	COMDAT ?Atan2@WWMath@@SAMMM@Z
_TEXT	SEGMENT
_y$ = 8							; size = 4
_x$ = 12						; size = 4
?Atan2@WWMath@@SAMMM@Z PROC				; WWMath::Atan2, COMDAT

; 78   : 	static float Atan2(float y,float x) { return static_cast<float>(atan2(y,x)); }

	push	ebp
	mov	ebp, esp
	sub	esp, 64					; 00000040H
	push	ebx
	push	esi
	push	edi
	push	ecx
	movss	xmm0, DWORD PTR _x$[ebp]
	movss	DWORD PTR [esp], xmm0
	push	ecx
	movss	xmm0, DWORD PTR _y$[ebp]
	movss	DWORD PTR [esp], xmm0
	call	?atan2@@YAMMM@Z				; atan2
	add	esp, 8
	pop	edi
	pop	esi
	pop	ebx
	mov	esp, ebp
	pop	ebp
	ret	0
?Atan2@WWMath@@SAMMM@Z ENDP				; WWMath::Atan2
_TEXT	ENDS
; Function compile flags: /Odtp /ZI
; File x:\github\renegade\dragonade_rxd\scripts\wwmath.h
;	COMDAT ?Atan@WWMath@@SAMM@Z
_TEXT	SEGMENT
_x$ = 8							; size = 4
?Atan@WWMath@@SAMM@Z PROC				; WWMath::Atan, COMDAT

; 77   : 	static float Atan(float x) { return static_cast<float>(atan(x)); }

	push	ebp
	mov	ebp, esp
	sub	esp, 64					; 00000040H
	push	ebx
	push	esi
	push	edi
	push	ecx
	movss	xmm0, DWORD PTR _x$[ebp]
	movss	DWORD PTR [esp], xmm0
	call	?atan@@YAMM@Z				; atan
	add	esp, 4
	pop	edi
	pop	esi
	pop	ebx
	mov	esp, ebp
	pop	ebp
	ret	0
?Atan@WWMath@@SAMM@Z ENDP				; WWMath::Atan
_TEXT	ENDS
; Function compile flags: /Odtp /ZI
; File x:\github\renegade\dragonade_rxd\scripts\wwmath.h
;	COMDAT ?Asin@WWMath@@SAMM@Z
_TEXT	SEGMENT
_val$ = 8						; size = 4
?Asin@WWMath@@SAMM@Z PROC				; WWMath::Asin, COMDAT

; 306  : {

	push	ebp
	mov	ebp, esp
	sub	esp, 64					; 00000040H
	push	ebx
	push	esi
	push	edi

; 307  : 	return (float)asin(val);

	push	ecx
	movss	xmm0, DWORD PTR _val$[ebp]
	movss	DWORD PTR [esp], xmm0
	call	?asin@@YAMM@Z				; asin
	add	esp, 4

; 308  : }

	pop	edi
	pop	esi
	pop	ebx
	mov	esp, ebp
	pop	ebp
	ret	0
?Asin@WWMath@@SAMM@Z ENDP				; WWMath::Asin
_TEXT	ENDS
; Function compile flags: /Odtp /ZI
; File x:\github\renegade\dragonade_rxd\scripts\wwmath.h
;	COMDAT ?Acos@WWMath@@SAMM@Z
_TEXT	SEGMENT
_val$ = 8						; size = 4
?Acos@WWMath@@SAMM@Z PROC				; WWMath::Acos, COMDAT

; 286  : {

	push	ebp
	mov	ebp, esp
	sub	esp, 64					; 00000040H
	push	ebx
	push	esi
	push	edi

; 287  : 	return (float)acos(val);

	push	ecx
	movss	xmm0, DWORD PTR _val$[ebp]
	movss	DWORD PTR [esp], xmm0
	call	?acos@@YAMM@Z				; acos
	add	esp, 4

; 288  : }

	pop	edi
	pop	esi
	pop	ebx
	mov	esp, ebp
	pop	ebp
	ret	0
?Acos@WWMath@@SAMM@Z ENDP				; WWMath::Acos
_TEXT	ENDS
; Function compile flags: /Odtp /ZI
; File x:\github\renegade\dragonade_rxd\scripts\wwmath.h
;	COMDAT ?Fast_Asin@WWMath@@SAMM@Z
_TEXT	SEGMENT
tv156 = -88						; size = 4
tv161 = -84						; size = 4
tv159 = -80						; size = 4
tv134 = -80						; size = 4
_frac$ = -12						; size = 4
_idx1$ = -8						; size = 4
_idx0$ = -4						; size = 4
_val$ = 8						; size = 4
?Fast_Asin@WWMath@@SAMM@Z PROC				; WWMath::Fast_Asin, COMDAT

; 291  : {

	push	ebp
	mov	ebp, esp
	sub	esp, 88					; 00000058H
	push	ebx
	push	esi
	push	edi

; 292  : 	if (WWMath::Fabs(val) > 0.975f) {

	push	ecx
	movss	xmm0, DWORD PTR _val$[ebp]
	movss	DWORD PTR [esp], xmm0
	call	?Fabs@WWMath@@SAMM@Z			; WWMath::Fabs
	add	esp, 4
	fstp	DWORD PTR tv134[ebp]
	movss	xmm0, DWORD PTR tv134[ebp]
	comiss	xmm0, DWORD PTR __real@3f79999a
	jbe	SHORT $LN11@Fast_Asin

; 293  : 		return WWMath::Asin(val);

	push	ecx
	movss	xmm0, DWORD PTR _val$[ebp]
	movss	DWORD PTR [esp], xmm0
	call	?Asin@WWMath@@SAMM@Z			; WWMath::Asin
	add	esp, 4
	jmp	$LN12@Fast_Asin
$LN11@Fast_Asin:

; 294  : 	}
; 295  : 	val*=float(ARC_TABLE_SIZE/2);

	movss	xmm0, DWORD PTR _val$[ebp]
	mulss	xmm0, DWORD PTR __real@44000000
	movss	DWORD PTR _val$[ebp], xmm0

; 296  : 	int idx0=Float_To_Int_Floor(val); 

	lea	eax, DWORD PTR _val$[ebp]
	push	eax
	call	?Float_To_Int_Floor@WWMath@@SAHABM@Z	; WWMath::Float_To_Int_Floor
	add	esp, 4
	mov	DWORD PTR _idx0$[ebp], eax

; 297  : 	int idx1=idx0+1;

	mov	eax, DWORD PTR _idx0$[ebp]
	add	eax, 1
	mov	DWORD PTR _idx1$[ebp], eax

; 298  : 	float frac=val-(float)idx0;

	cvtsi2ss xmm0, DWORD PTR _idx0$[ebp]
	movss	xmm1, DWORD PTR _val$[ebp]
	subss	xmm1, xmm0
	movss	DWORD PTR _frac$[ebp], xmm1

; 299  : 	idx0+=ARC_TABLE_SIZE/2;

	mov	eax, DWORD PTR _idx0$[ebp]
	add	eax, 512				; 00000200H
	mov	DWORD PTR _idx0$[ebp], eax

; 300  : 	idx1+=ARC_TABLE_SIZE/2;

	mov	eax, DWORD PTR _idx1$[ebp]
	add	eax, 512				; 00000200H
	mov	DWORD PTR _idx1$[ebp], eax
$LN10@Fast_Asin:

; 301  : 	TT_ASSERT((idx0 >= 0) && (idx0 < ARC_TABLE_SIZE));

	xor	eax, eax
	jne	SHORT $LN10@Fast_Asin
	cmp	DWORD PTR _idx0$[ebp], 0
	jl	SHORT $LN6@Fast_Asin
	cmp	DWORD PTR _idx0$[ebp], 1024		; 00000400H
	jl	SHORT $LN7@Fast_Asin
$LN6@Fast_Asin:
	int	3
$LN7@Fast_Asin:

; 302  : 	TT_ASSERT((idx1 >= 0) && (idx1 < ARC_TABLE_SIZE));

	xor	eax, eax
	jne	SHORT $LN7@Fast_Asin
	cmp	DWORD PTR _idx1$[ebp], 0
	jl	SHORT $LN1@Fast_Asin
	cmp	DWORD PTR _idx1$[ebp], 1024		; 00000400H
	jl	SHORT $LN2@Fast_Asin
$LN1@Fast_Asin:
	int	3
$LN2@Fast_Asin:

; 303  : 	return (1.0f - frac) * _FastAsinTable[idx0] + frac * _FastAsinTable[idx1];

	movss	xmm0, DWORD PTR __real@3f800000
	subss	xmm0, DWORD PTR _frac$[ebp]
	mov	ecx, DWORD PTR ?_FastAsinTable@@3AAV?$RefArrayHelper@M$0EAA@@@A ; _FastAsinTable
	movss	DWORD PTR tv159[ebp], xmm0
	call	??B?$RefArrayHelper@M$0EAA@@@QAEPAMXZ	; RefArrayHelper<float,1024>::operator float *
	mov	ecx, DWORD PTR _idx0$[ebp]
	movss	xmm0, DWORD PTR tv159[ebp]
	mulss	xmm0, DWORD PTR [eax+ecx*4]
	mov	ecx, DWORD PTR ?_FastAsinTable@@3AAV?$RefArrayHelper@M$0EAA@@@A ; _FastAsinTable
	movss	DWORD PTR tv161[ebp], xmm0
	call	??B?$RefArrayHelper@M$0EAA@@@QAEPAMXZ	; RefArrayHelper<float,1024>::operator float *
	mov	edx, DWORD PTR _idx1$[ebp]
	movss	xmm0, DWORD PTR _frac$[ebp]
	mulss	xmm0, DWORD PTR [eax+edx*4]
	movss	xmm1, DWORD PTR tv161[ebp]
	addss	xmm1, xmm0
	movss	DWORD PTR tv156[ebp], xmm1
	fld	DWORD PTR tv156[ebp]
$LN12@Fast_Asin:

; 304  : }

	pop	edi
	pop	esi
	pop	ebx
	mov	esp, ebp
	pop	ebp
	ret	0
?Fast_Asin@WWMath@@SAMM@Z ENDP				; WWMath::Fast_Asin
_TEXT	ENDS
; Function compile flags: /Odtp /ZI
; File x:\github\renegade\dragonade_rxd\scripts\wwmath.h
;	COMDAT ?Fast_Acos@WWMath@@SAMM@Z
_TEXT	SEGMENT
tv156 = -88						; size = 4
tv161 = -84						; size = 4
tv159 = -80						; size = 4
tv134 = -80						; size = 4
_frac$ = -12						; size = 4
_idx1$ = -8						; size = 4
_idx0$ = -4						; size = 4
_val$ = 8						; size = 4
?Fast_Acos@WWMath@@SAMM@Z PROC				; WWMath::Fast_Acos, COMDAT

; 270  : {

	push	ebp
	mov	ebp, esp
	sub	esp, 88					; 00000058H
	push	ebx
	push	esi
	push	edi

; 271  : 	if (WWMath::Fabs(val) > 0.975f) {

	push	ecx
	movss	xmm0, DWORD PTR _val$[ebp]
	movss	DWORD PTR [esp], xmm0
	call	?Fabs@WWMath@@SAMM@Z			; WWMath::Fabs
	add	esp, 4
	fstp	DWORD PTR tv134[ebp]
	movss	xmm0, DWORD PTR tv134[ebp]
	comiss	xmm0, DWORD PTR __real@3f79999a
	jbe	SHORT $LN11@Fast_Acos

; 272  : 		return WWMath::Acos(val);

	push	ecx
	movss	xmm0, DWORD PTR _val$[ebp]
	movss	DWORD PTR [esp], xmm0
	call	?Acos@WWMath@@SAMM@Z			; WWMath::Acos
	add	esp, 4
	jmp	$LN12@Fast_Acos
$LN11@Fast_Acos:

; 273  : 	}
; 274  : 	val*=float(ARC_TABLE_SIZE/2);

	movss	xmm0, DWORD PTR _val$[ebp]
	mulss	xmm0, DWORD PTR __real@44000000
	movss	DWORD PTR _val$[ebp], xmm0

; 275  : 	int idx0=Float_To_Int_Floor(val);

	lea	eax, DWORD PTR _val$[ebp]
	push	eax
	call	?Float_To_Int_Floor@WWMath@@SAHABM@Z	; WWMath::Float_To_Int_Floor
	add	esp, 4
	mov	DWORD PTR _idx0$[ebp], eax

; 276  : 	int idx1=idx0+1;

	mov	eax, DWORD PTR _idx0$[ebp]
	add	eax, 1
	mov	DWORD PTR _idx1$[ebp], eax

; 277  : 	float frac=val-(float)idx0;

	cvtsi2ss xmm0, DWORD PTR _idx0$[ebp]
	movss	xmm1, DWORD PTR _val$[ebp]
	subss	xmm1, xmm0
	movss	DWORD PTR _frac$[ebp], xmm1

; 278  : 	idx0+=ARC_TABLE_SIZE/2;

	mov	eax, DWORD PTR _idx0$[ebp]
	add	eax, 512				; 00000200H
	mov	DWORD PTR _idx0$[ebp], eax

; 279  : 	idx1+=ARC_TABLE_SIZE/2;

	mov	eax, DWORD PTR _idx1$[ebp]
	add	eax, 512				; 00000200H
	mov	DWORD PTR _idx1$[ebp], eax
$LN10@Fast_Acos:

; 280  : 	TT_ASSERT((idx0 >= 0) && (idx0 < ARC_TABLE_SIZE));

	xor	eax, eax
	jne	SHORT $LN10@Fast_Acos
	cmp	DWORD PTR _idx0$[ebp], 0
	jl	SHORT $LN6@Fast_Acos
	cmp	DWORD PTR _idx0$[ebp], 1024		; 00000400H
	jl	SHORT $LN7@Fast_Acos
$LN6@Fast_Acos:
	int	3
$LN7@Fast_Acos:

; 281  : 	TT_ASSERT((idx1 >= 0) && (idx1 < ARC_TABLE_SIZE));

	xor	eax, eax
	jne	SHORT $LN7@Fast_Acos
	cmp	DWORD PTR _idx1$[ebp], 0
	jl	SHORT $LN1@Fast_Acos
	cmp	DWORD PTR _idx1$[ebp], 1024		; 00000400H
	jl	SHORT $LN2@Fast_Acos
$LN1@Fast_Acos:
	int	3
$LN2@Fast_Acos:

; 282  : 	return (1.0f - frac) * _FastAcosTable[idx0] + frac * _FastAcosTable[idx1];

	movss	xmm0, DWORD PTR __real@3f800000
	subss	xmm0, DWORD PTR _frac$[ebp]
	mov	ecx, DWORD PTR ?_FastAcosTable@@3AAV?$RefArrayHelper@M$0EAA@@@A ; _FastAcosTable
	movss	DWORD PTR tv159[ebp], xmm0
	call	??B?$RefArrayHelper@M$0EAA@@@QAEPAMXZ	; RefArrayHelper<float,1024>::operator float *
	mov	ecx, DWORD PTR _idx0$[ebp]
	movss	xmm0, DWORD PTR tv159[ebp]
	mulss	xmm0, DWORD PTR [eax+ecx*4]
	mov	ecx, DWORD PTR ?_FastAcosTable@@3AAV?$RefArrayHelper@M$0EAA@@@A ; _FastAcosTable
	movss	DWORD PTR tv161[ebp], xmm0
	call	??B?$RefArrayHelper@M$0EAA@@@QAEPAMXZ	; RefArrayHelper<float,1024>::operator float *
	mov	edx, DWORD PTR _idx1$[ebp]
	movss	xmm0, DWORD PTR _frac$[ebp]
	mulss	xmm0, DWORD PTR [eax+edx*4]
	movss	xmm1, DWORD PTR tv161[ebp]
	addss	xmm1, xmm0
	movss	DWORD PTR tv156[ebp], xmm1
	fld	DWORD PTR tv156[ebp]
$LN12@Fast_Acos:

; 283  : }

	pop	edi
	pop	esi
	pop	ebx
	mov	esp, ebp
	pop	ebp
	ret	0
?Fast_Acos@WWMath@@SAMM@Z ENDP				; WWMath::Fast_Acos
_TEXT	ENDS
; Function compile flags: /Odtp /ZI
; File x:\github\renegade\dragonade_rxd\scripts\wwmath.h
;	COMDAT ?Fast_Inv_Cos@WWMath@@SAMM@Z
_TEXT	SEGMENT
tv76 = -72						; size = 4
tv73 = -68						; size = 4
_val$ = 8						; size = 4
?Fast_Inv_Cos@WWMath@@SAMM@Z PROC			; WWMath::Fast_Inv_Cos, COMDAT

; 265  : {

	push	ebp
	mov	ebp, esp
	sub	esp, 72					; 00000048H
	push	ebx
	push	esi
	push	edi

; 266  : 	return 1.0f / WWMath::Fast_Cos(val);

	push	ecx
	movss	xmm0, DWORD PTR _val$[ebp]
	movss	DWORD PTR [esp], xmm0
	call	?Fast_Cos@WWMath@@SAMM@Z		; WWMath::Fast_Cos
	add	esp, 4
	fstp	DWORD PTR tv73[ebp]
	movss	xmm0, DWORD PTR __real@3f800000
	divss	xmm0, DWORD PTR tv73[ebp]
	movss	DWORD PTR tv76[ebp], xmm0
	fld	DWORD PTR tv76[ebp]

; 267  : }

	pop	edi
	pop	esi
	pop	ebx
	mov	esp, ebp
	pop	ebp
	ret	0
?Fast_Inv_Cos@WWMath@@SAMM@Z ENDP			; WWMath::Fast_Inv_Cos
_TEXT	ENDS
; Function compile flags: /Odtp /ZI
; File x:\github\renegade\dragonade_rxd\scripts\wwmath.h
;	COMDAT ?Fast_Cos@WWMath@@SAMM@Z
_TEXT	SEGMENT
tv135 = -88						; size = 4
tv140 = -84						; size = 4
tv138 = -80						; size = 4
_frac$ = -12						; size = 4
_idx1$ = -8						; size = 4
_idx0$ = -4						; size = 4
_val$ = 8						; size = 4
?Fast_Cos@WWMath@@SAMM@Z PROC				; WWMath::Fast_Cos, COMDAT

; 253  : {

	push	ebp
	mov	ebp, esp
	sub	esp, 88					; 00000058H
	push	ebx
	push	esi
	push	edi

; 254  : 	val+=(WWMATH_PI * 0.5f);

	movss	xmm0, DWORD PTR _val$[ebp]
	addss	xmm0, DWORD PTR __real@3fc90fdb
	movss	DWORD PTR _val$[ebp], xmm0

; 255  : 	val*=float(SIN_TABLE_SIZE) / (2.0f * WWMATH_PI);

	movss	xmm0, DWORD PTR __real@44800000
	divss	xmm0, DWORD PTR __real@40c90fdb
	mulss	xmm0, DWORD PTR _val$[ebp]
	movss	DWORD PTR _val$[ebp], xmm0

; 256  : 	int idx0=Float_To_Int_Floor(val);

	lea	eax, DWORD PTR _val$[ebp]
	push	eax
	call	?Float_To_Int_Floor@WWMath@@SAHABM@Z	; WWMath::Float_To_Int_Floor
	add	esp, 4
	mov	DWORD PTR _idx0$[ebp], eax

; 257  : 	int idx1=idx0+1;

	mov	eax, DWORD PTR _idx0$[ebp]
	add	eax, 1
	mov	DWORD PTR _idx1$[ebp], eax

; 258  : 	float frac=val-(float)idx0;

	cvtsi2ss xmm0, DWORD PTR _idx0$[ebp]
	movss	xmm1, DWORD PTR _val$[ebp]
	subss	xmm1, xmm0
	movss	DWORD PTR _frac$[ebp], xmm1

; 259  : 	idx0 = ((unsigned)idx0) & (SIN_TABLE_SIZE-1);

	mov	eax, DWORD PTR _idx0$[ebp]
	and	eax, 1023				; 000003ffH
	mov	DWORD PTR _idx0$[ebp], eax

; 260  : 	idx1 = ((unsigned)idx1) & (SIN_TABLE_SIZE-1);

	mov	eax, DWORD PTR _idx1$[ebp]
	and	eax, 1023				; 000003ffH
	mov	DWORD PTR _idx1$[ebp], eax

; 261  : 	return (1.0f - frac) * _FastSinTable[idx0] + frac * _FastSinTable[idx1];

	movss	xmm0, DWORD PTR __real@3f800000
	subss	xmm0, DWORD PTR _frac$[ebp]
	mov	ecx, DWORD PTR ?_FastSinTable@@3AAV?$RefArrayHelper@M$0EAA@@@A ; _FastSinTable
	movss	DWORD PTR tv138[ebp], xmm0
	call	??B?$RefArrayHelper@M$0EAA@@@QAEPAMXZ	; RefArrayHelper<float,1024>::operator float *
	mov	ecx, DWORD PTR _idx0$[ebp]
	movss	xmm0, DWORD PTR tv138[ebp]
	mulss	xmm0, DWORD PTR [eax+ecx*4]
	mov	ecx, DWORD PTR ?_FastSinTable@@3AAV?$RefArrayHelper@M$0EAA@@@A ; _FastSinTable
	movss	DWORD PTR tv140[ebp], xmm0
	call	??B?$RefArrayHelper@M$0EAA@@@QAEPAMXZ	; RefArrayHelper<float,1024>::operator float *
	mov	edx, DWORD PTR _idx1$[ebp]
	movss	xmm0, DWORD PTR _frac$[ebp]
	mulss	xmm0, DWORD PTR [eax+edx*4]
	movss	xmm1, DWORD PTR tv140[ebp]
	addss	xmm1, xmm0
	movss	DWORD PTR tv135[ebp], xmm1
	fld	DWORD PTR tv135[ebp]

; 262  : }

	pop	edi
	pop	esi
	pop	ebx
	mov	esp, ebp
	pop	ebp
	ret	0
?Fast_Cos@WWMath@@SAMM@Z ENDP				; WWMath::Fast_Cos
_TEXT	ENDS
; Function compile flags: /Odtp /ZI
; File x:\github\renegade\dragonade_rxd\scripts\wwmath.h
;	COMDAT ?Fast_Inv_Sin@WWMath@@SAMM@Z
_TEXT	SEGMENT
tv76 = -72						; size = 4
tv73 = -68						; size = 4
_val$ = 8						; size = 4
?Fast_Inv_Sin@WWMath@@SAMM@Z PROC			; WWMath::Fast_Inv_Sin, COMDAT

; 248  : {

	push	ebp
	mov	ebp, esp
	sub	esp, 72					; 00000048H
	push	ebx
	push	esi
	push	edi

; 249  : 	return 1.0f / WWMath::Fast_Sin(val);

	push	ecx
	movss	xmm0, DWORD PTR _val$[ebp]
	movss	DWORD PTR [esp], xmm0
	call	?Fast_Sin@WWMath@@SAMM@Z		; WWMath::Fast_Sin
	add	esp, 4
	fstp	DWORD PTR tv73[ebp]
	movss	xmm0, DWORD PTR __real@3f800000
	divss	xmm0, DWORD PTR tv73[ebp]
	movss	DWORD PTR tv76[ebp], xmm0
	fld	DWORD PTR tv76[ebp]

; 250  : }

	pop	edi
	pop	esi
	pop	ebx
	mov	esp, ebp
	pop	ebp
	ret	0
?Fast_Inv_Sin@WWMath@@SAMM@Z ENDP			; WWMath::Fast_Inv_Sin
_TEXT	ENDS
; Function compile flags: /Odtp /ZI
; File x:\github\renegade\dragonade_rxd\scripts\wwmath.h
;	COMDAT ?Fast_Sin@WWMath@@SAMM@Z
_TEXT	SEGMENT
tv133 = -88						; size = 4
tv138 = -84						; size = 4
tv136 = -80						; size = 4
_frac$ = -12						; size = 4
_idx1$ = -8						; size = 4
_idx0$ = -4						; size = 4
_val$ = 8						; size = 4
?Fast_Sin@WWMath@@SAMM@Z PROC				; WWMath::Fast_Sin, COMDAT

; 237  : {

	push	ebp
	mov	ebp, esp
	sub	esp, 88					; 00000058H
	push	ebx
	push	esi
	push	edi

; 238  : 	val*=float(SIN_TABLE_SIZE) / (2.0f * WWMATH_PI);

	movss	xmm0, DWORD PTR __real@44800000
	divss	xmm0, DWORD PTR __real@40c90fdb
	mulss	xmm0, DWORD PTR _val$[ebp]
	movss	DWORD PTR _val$[ebp], xmm0

; 239  : 	int idx0=Float_To_Int_Floor(val);

	lea	eax, DWORD PTR _val$[ebp]
	push	eax
	call	?Float_To_Int_Floor@WWMath@@SAHABM@Z	; WWMath::Float_To_Int_Floor
	add	esp, 4
	mov	DWORD PTR _idx0$[ebp], eax

; 240  : 	int idx1=idx0+1;

	mov	eax, DWORD PTR _idx0$[ebp]
	add	eax, 1
	mov	DWORD PTR _idx1$[ebp], eax

; 241  : 	float frac=val-(float)idx0;

	cvtsi2ss xmm0, DWORD PTR _idx0$[ebp]
	movss	xmm1, DWORD PTR _val$[ebp]
	subss	xmm1, xmm0
	movss	DWORD PTR _frac$[ebp], xmm1

; 242  : 	idx0 = ((unsigned)idx0) & (SIN_TABLE_SIZE-1);

	mov	eax, DWORD PTR _idx0$[ebp]
	and	eax, 1023				; 000003ffH
	mov	DWORD PTR _idx0$[ebp], eax

; 243  : 	idx1 = ((unsigned)idx1) & (SIN_TABLE_SIZE-1);

	mov	eax, DWORD PTR _idx1$[ebp]
	and	eax, 1023				; 000003ffH
	mov	DWORD PTR _idx1$[ebp], eax

; 244  : 	return (1.0f - frac) * _FastSinTable[idx0] + frac * _FastSinTable[idx1];

	movss	xmm0, DWORD PTR __real@3f800000
	subss	xmm0, DWORD PTR _frac$[ebp]
	mov	ecx, DWORD PTR ?_FastSinTable@@3AAV?$RefArrayHelper@M$0EAA@@@A ; _FastSinTable
	movss	DWORD PTR tv136[ebp], xmm0
	call	??B?$RefArrayHelper@M$0EAA@@@QAEPAMXZ	; RefArrayHelper<float,1024>::operator float *
	mov	ecx, DWORD PTR _idx0$[ebp]
	movss	xmm0, DWORD PTR tv136[ebp]
	mulss	xmm0, DWORD PTR [eax+ecx*4]
	mov	ecx, DWORD PTR ?_FastSinTable@@3AAV?$RefArrayHelper@M$0EAA@@@A ; _FastSinTable
	movss	DWORD PTR tv138[ebp], xmm0
	call	??B?$RefArrayHelper@M$0EAA@@@QAEPAMXZ	; RefArrayHelper<float,1024>::operator float *
	mov	edx, DWORD PTR _idx1$[ebp]
	movss	xmm0, DWORD PTR _frac$[ebp]
	mulss	xmm0, DWORD PTR [eax+edx*4]
	movss	xmm1, DWORD PTR tv138[ebp]
	addss	xmm1, xmm0
	movss	DWORD PTR tv133[ebp], xmm1
	fld	DWORD PTR tv133[ebp]

; 245  : }

	pop	edi
	pop	esi
	pop	ebx
	mov	esp, ebp
	pop	ebp
	ret	0
?Fast_Sin@WWMath@@SAMM@Z ENDP				; WWMath::Fast_Sin
_TEXT	ENDS
; Function compile flags: /Odtp /ZI
; File x:\github\renegade\dragonade_rxd\scripts\wwmath.h
;	COMDAT ?Float_To_Long@WWMath@@SAJM@Z
_TEXT	SEGMENT
$T1 = -80						; size = 16
_f$ = 8							; size = 4
?Float_To_Long@WWMath@@SAJM@Z PROC			; WWMath::Float_To_Long, COMDAT

; 217  : {

	push	ebx
	mov	ebx, esp
	sub	esp, 8
	and	esp, -16				; fffffff0H
	add	esp, 4
	push	ebp
	mov	ebp, DWORD PTR [ebx+4]
	mov	DWORD PTR [esp+4], ebp
	mov	ebp, esp
	sub	esp, 88					; 00000058H
	push	esi
	push	edi

; 218  :     return _mm_cvtt_ss2si(_mm_load_ss(&f));

	movss	xmm0, DWORD PTR _f$[ebx]
	movaps	XMMWORD PTR $T1[ebp], xmm0
	movaps	xmm0, XMMWORD PTR $T1[ebp]
	cvttss2si eax, xmm0

; 219  : }

	pop	edi
	pop	esi
	mov	esp, ebp
	pop	ebp
	mov	esp, ebx
	pop	ebx
	ret	0
?Float_To_Long@WWMath@@SAJM@Z ENDP			; WWMath::Float_To_Long
_TEXT	ENDS
; Function compile flags: /Odtp /ZI
; File x:\github\renegade\dragonade_rxd\scripts\wwmath.h
;	COMDAT ?Inv_Sqrt@WWMath@@SIMM@Z
_TEXT	SEGMENT
tv76 = -72						; size = 4
tv73 = -68						; size = 4
_number$ = 8						; size = 4
?Inv_Sqrt@WWMath@@SIMM@Z PROC				; WWMath::Inv_Sqrt, COMDAT

; 341  : {

	push	ebp
	mov	ebp, esp
	sub	esp, 72					; 00000048H
	push	ebx
	push	esi
	push	edi

; 342  : 	return 1.f / sqrt(number);

	push	ecx
	movss	xmm0, DWORD PTR _number$[ebp]
	movss	DWORD PTR [esp], xmm0
	call	?sqrt@@YAMM@Z				; sqrt
	add	esp, 4
	fstp	DWORD PTR tv73[ebp]
	movss	xmm0, DWORD PTR __real@3f800000
	divss	xmm0, DWORD PTR tv73[ebp]
	movss	DWORD PTR tv76[ebp], xmm0
	fld	DWORD PTR tv76[ebp]

; 343  : }

	pop	edi
	pop	esi
	pop	ebx
	mov	esp, ebp
	pop	ebp
	ret	4
?Inv_Sqrt@WWMath@@SIMM@Z ENDP				; WWMath::Inv_Sqrt
_TEXT	ENDS
; Function compile flags: /Odtp /ZI
; File x:\github\renegade\dragonade_rxd\scripts\wwmath.h
;	COMDAT ?Sqrt@WWMath@@SAMM@Z
_TEXT	SEGMENT
_val$ = 8						; size = 4
?Sqrt@WWMath@@SAMM@Z PROC				; WWMath::Sqrt, COMDAT

; 311  : {

	push	ebp
	mov	ebp, esp
	sub	esp, 64					; 00000040H
	push	ebx
	push	esi
	push	edi

; 312  :     return ::sqrtf(val);

	push	ecx
	movss	xmm0, DWORD PTR _val$[ebp]
	movss	DWORD PTR [esp], xmm0
	call	_sqrtf
	add	esp, 4

; 313  : }

	pop	edi
	pop	esi
	pop	ebx
	mov	esp, ebp
	pop	ebp
	ret	0
?Sqrt@WWMath@@SAMM@Z ENDP				; WWMath::Sqrt
_TEXT	ENDS
; Function compile flags: /Odtp /ZI
; File x:\github\renegade\dragonade_rxd\scripts\wwmath.h
;	COMDAT ?Sin@WWMath@@SAMM@Z
_TEXT	SEGMENT
_val$ = 8						; size = 4
?Sin@WWMath@@SAMM@Z PROC				; WWMath::Sin, COMDAT

; 232  : {

	push	ebp
	mov	ebp, esp
	sub	esp, 64					; 00000040H
	push	ebx
	push	esi
	push	edi

; 233  :     return ::sin(val);

	push	ecx
	movss	xmm0, DWORD PTR _val$[ebp]
	movss	DWORD PTR [esp], xmm0
	call	?sin@@YAMM@Z				; sin
	add	esp, 4

; 234  : }

	pop	edi
	pop	esi
	pop	ebx
	mov	esp, ebp
	pop	ebp
	ret	0
?Sin@WWMath@@SAMM@Z ENDP				; WWMath::Sin
_TEXT	ENDS
; Function compile flags: /Odtp /ZI
; File x:\github\renegade\dragonade_rxd\scripts\wwmath.h
;	COMDAT ?Cos@WWMath@@SAMM@Z
_TEXT	SEGMENT
_val$ = 8						; size = 4
?Cos@WWMath@@SAMM@Z PROC				; WWMath::Cos, COMDAT

; 227  : {

	push	ebp
	mov	ebp, esp
	sub	esp, 64					; 00000040H
	push	ebx
	push	esi
	push	edi

; 228  :     return ::cos(val);

	push	ecx
	movss	xmm0, DWORD PTR _val$[ebp]
	movss	DWORD PTR [esp], xmm0
	call	?cos@@YAMM@Z				; cos
	add	esp, 4

; 229  : }

	pop	edi
	pop	esi
	pop	ebx
	mov	esp, ebp
	pop	ebp
	ret	0
?Cos@WWMath@@SAMM@Z ENDP				; WWMath::Cos
_TEXT	ENDS
; Function compile flags: /Odtp /ZI
; File x:\github\renegade\dragonade_rxd\scripts\wwmath.h
;	COMDAT ?Float_To_Int_Floor@WWMath@@SAHABM@Z
_TEXT	SEGMENT
tv83 = -96						; size = 4
_r$ = -28						; size = 4
_mantissa$ = -24					; size = 4
_imask$ = -20						; size = 4
_expsign$ = -16						; size = 4
_exponent$ = -12					; size = 4
_sign$ = -8						; size = 4
_a$ = -4						; size = 4
_f$ = 8							; size = 4
?Float_To_Int_Floor@WWMath@@SAHABM@Z PROC		; WWMath::Float_To_Int_Floor, COMDAT

; 326  : {

	push	ebp
	mov	ebp, esp
	sub	esp, 96					; 00000060H
	push	ebx
	push	esi
	push	edi

; 327  : 	int a = *reinterpret_cast<const int*>(&f);

	mov	eax, DWORD PTR _f$[ebp]
	mov	ecx, DWORD PTR [eax]
	mov	DWORD PTR _a$[ebp], ecx

; 328  : 	int sign = (a>>31);

	mov	eax, DWORD PTR _a$[ebp]
	sar	eax, 31					; 0000001fH
	mov	DWORD PTR _sign$[ebp], eax

; 329  : 	a&=0x7fffffff;

	mov	eax, DWORD PTR _a$[ebp]
	and	eax, 2147483647				; 7fffffffH
	mov	DWORD PTR _a$[ebp], eax

; 330  : 	int exponent = (a>>23)-127;

	mov	eax, DWORD PTR _a$[ebp]
	sar	eax, 23					; 00000017H
	sub	eax, 127				; 0000007fH
	mov	DWORD PTR _exponent$[ebp], eax

; 331  : 	int expsign	= ~(exponent>>31);

	mov	eax, DWORD PTR _exponent$[ebp]
	sar	eax, 31					; 0000001fH
	not	eax
	mov	DWORD PTR _expsign$[ebp], eax

; 332  : 	int imask = ( (1<<(31-(exponent))))-1;

	mov	ecx, 31					; 0000001fH
	sub	ecx, DWORD PTR _exponent$[ebp]
	mov	eax, 1
	shl	eax, cl
	sub	eax, 1
	mov	DWORD PTR _imask$[ebp], eax

; 333  : 	int mantissa = (a&((1<<23)-1));

	mov	eax, DWORD PTR _a$[ebp]
	and	eax, 8388607				; 007fffffH
	mov	DWORD PTR _mantissa$[ebp], eax

; 334  : 	int r = ((unsigned int)(mantissa|(1<<23))<<8)>>(31-exponent);

	mov	eax, DWORD PTR _mantissa$[ebp]
	or	eax, 8388608				; 00800000H
	shl	eax, 8
	mov	ecx, 31					; 0000001fH
	sub	ecx, DWORD PTR _exponent$[ebp]
	shr	eax, cl
	mov	DWORD PTR _r$[ebp], eax

; 335  : #pragma warning(suppress: 6290) //warning C6290: Bitwise operation on logical result: ! has higher precedence than &. Use && or (!(x & y)) instead
; 336  : 	r = ((r & expsign) ^ (sign)) + ((!((mantissa<<8)&imask)&(expsign^((a-1)>>31)))&sign);

	mov	eax, DWORD PTR _mantissa$[ebp]
	shl	eax, 8
	and	eax, DWORD PTR _imask$[ebp]
	jne	SHORT $LN3@Float_To_I
	mov	DWORD PTR tv83[ebp], 1
	jmp	SHORT $LN4@Float_To_I
$LN3@Float_To_I:
	mov	DWORD PTR tv83[ebp], 0
$LN4@Float_To_I:
	mov	ecx, DWORD PTR _r$[ebp]
	and	ecx, DWORD PTR _expsign$[ebp]
	xor	ecx, DWORD PTR _sign$[ebp]
	mov	edx, DWORD PTR _a$[ebp]
	sub	edx, 1
	sar	edx, 31					; 0000001fH
	xor	edx, DWORD PTR _expsign$[ebp]
	and	edx, DWORD PTR tv83[ebp]
	and	edx, DWORD PTR _sign$[ebp]
	add	ecx, edx
	mov	DWORD PTR _r$[ebp], ecx

; 337  : 	return r;

	mov	eax, DWORD PTR _r$[ebp]

; 338  : }

	pop	edi
	pop	esi
	pop	ebx
	mov	esp, ebp
	pop	ebp
	ret	0
?Float_To_Int_Floor@WWMath@@SAHABM@Z ENDP		; WWMath::Float_To_Int_Floor
_TEXT	ENDS
; Function compile flags: /Odtp /ZI
; File x:\github\renegade\dragonade_rxd\scripts\wwmath.h
;	COMDAT ?Float_To_Int_Chop@WWMath@@SAHABM@Z
_TEXT	SEGMENT
_r$ = -20						; size = 4
_exponent$ = -16					; size = 4
_mantissa$ = -12					; size = 4
_sign$ = -8						; size = 4
_a$ = -4						; size = 4
_f$ = 8							; size = 4
?Float_To_Int_Chop@WWMath@@SAHABM@Z PROC		; WWMath::Float_To_Int_Chop, COMDAT

; 316  : {

	push	ebp
	mov	ebp, esp
	sub	esp, 84					; 00000054H
	push	ebx
	push	esi
	push	edi

; 317  :     int a = *reinterpret_cast<const int*>(&f);

	mov	eax, DWORD PTR _f$[ebp]
	mov	ecx, DWORD PTR [eax]
	mov	DWORD PTR _a$[ebp], ecx

; 318  :     int sign = (a>>31);

	mov	eax, DWORD PTR _a$[ebp]
	sar	eax, 31					; 0000001fH
	mov	DWORD PTR _sign$[ebp], eax

; 319  :     int mantissa = (a&((1<<23)-1))|(1<<23);

	mov	eax, DWORD PTR _a$[ebp]
	and	eax, 8388607				; 007fffffH
	or	eax, 8388608				; 00800000H
	mov	DWORD PTR _mantissa$[ebp], eax

; 320  :     int exponent = ((a&0x7fffffff)>>23)-127;

	mov	eax, DWORD PTR _a$[ebp]
	and	eax, 2147483647				; 7fffffffH
	sar	eax, 23					; 00000017H
	sub	eax, 127				; 0000007fH
	mov	DWORD PTR _exponent$[ebp], eax

; 321  :     int r = ((unsigned int)(mantissa)<<8)>>(31-exponent);

	mov	eax, DWORD PTR _mantissa$[ebp]
	shl	eax, 8
	mov	ecx, 31					; 0000001fH
	sub	ecx, DWORD PTR _exponent$[ebp]
	shr	eax, cl
	mov	DWORD PTR _r$[ebp], eax

; 322  :     return ((r ^ (sign)) - sign ) &~ (exponent>>31);

	mov	eax, DWORD PTR _r$[ebp]
	xor	eax, DWORD PTR _sign$[ebp]
	sub	eax, DWORD PTR _sign$[ebp]
	mov	ecx, DWORD PTR _exponent$[ebp]
	sar	ecx, 31					; 0000001fH
	not	ecx
	and	eax, ecx

; 323  : }

	pop	edi
	pop	esi
	pop	ebx
	mov	esp, ebp
	pop	ebp
	ret	0
?Float_To_Int_Chop@WWMath@@SAHABM@Z ENDP		; WWMath::Float_To_Int_Chop
_TEXT	ENDS
; Function compile flags: /Odtp /ZI
; File x:\github\renegade\dragonade_rxd\scripts\wwmath.h
;	COMDAT ?Fabs@WWMath@@SAMM@Z
_TEXT	SEGMENT
_value$ = -4						; size = 4
_val$ = 8						; size = 4
?Fabs@WWMath@@SAMM@Z PROC				; WWMath::Fabs, COMDAT

; 57   : 	{

	push	ebp
	mov	ebp, esp
	sub	esp, 68					; 00000044H
	push	ebx
	push	esi
	push	edi

; 58   : 		int value=*(int*)&val;

	mov	eax, DWORD PTR _val$[ebp]
	mov	DWORD PTR _value$[ebp], eax

; 59   : 		value&=0x7fffffff;

	mov	eax, DWORD PTR _value$[ebp]
	and	eax, 2147483647				; 7fffffffH
	mov	DWORD PTR _value$[ebp], eax

; 60   : 		return *(float*)&value;

	fld	DWORD PTR _value$[ebp]

; 61   : 	}

	pop	edi
	pop	esi
	pop	ebx
	mov	esp, ebp
	pop	ebp
	ret	0
?Fabs@WWMath@@SAMM@Z ENDP				; WWMath::Fabs
_TEXT	ENDS
; Function compile flags: /Odtp /ZI
; File c:\program files (x86)\microsoft visual studio 11.0\vc\include\limits
;	COMDAT ?infinity@?$numeric_limits@M@std@@SAMXZ
_TEXT	SEGMENT
tv68 = -68						; size = 4
?infinity@?$numeric_limits@M@std@@SAMXZ PROC		; std::numeric_limits<float>::infinity, COMDAT

; 1128 : 		{	// return positive infinity

	push	ebp
	mov	ebp, esp
	sub	esp, 68					; 00000044H
	push	ebx
	push	esi
	push	edi

; 1129 : 		return (_CSTD _FInf._Float);

	mov	eax, DWORD PTR __imp___FInf
	movss	xmm0, DWORD PTR [eax]
	movss	DWORD PTR tv68[ebp], xmm0
	fld	DWORD PTR tv68[ebp]

; 1130 : 		}

	pop	edi
	pop	esi
	pop	ebx
	mov	esp, ebp
	pop	ebp
	ret	0
?infinity@?$numeric_limits@M@std@@SAMXZ ENDP		; std::numeric_limits<float>::infinity
_TEXT	ENDS
; Function compile flags: /Odtp /ZI
; File c:\program files (x86)\microsoft visual studio 11.0\vc\include\math.h
;	COMDAT ?sqrt@@YAMM@Z
_TEXT	SEGMENT
__X$ = 8						; size = 4
?sqrt@@YAMM@Z PROC					; sqrt, COMDAT

; 541  :         {return (sqrtf(_X)); }

	push	ebp
	mov	ebp, esp
	sub	esp, 64					; 00000040H
	push	ebx
	push	esi
	push	edi
	push	ecx
	movss	xmm0, DWORD PTR __X$[ebp]
	movss	DWORD PTR [esp], xmm0
	call	_sqrtf
	add	esp, 4
	pop	edi
	pop	esi
	pop	ebx
	mov	esp, ebp
	pop	ebp
	ret	0
?sqrt@@YAMM@Z ENDP					; sqrt
_TEXT	ENDS
; Function compile flags: /Odtp /ZI
; File c:\program files (x86)\microsoft visual studio 11.0\vc\include\math.h
;	COMDAT ?sin@@YAMM@Z
_TEXT	SEGMENT
__X$ = 8						; size = 4
?sin@@YAMM@Z PROC					; sin, COMDAT

; 537  :         {return (sinf(_X)); }

	push	ebp
	mov	ebp, esp
	sub	esp, 64					; 00000040H
	push	ebx
	push	esi
	push	edi
	push	ecx
	movss	xmm0, DWORD PTR __X$[ebp]
	movss	DWORD PTR [esp], xmm0
	call	_sinf
	add	esp, 4
	pop	edi
	pop	esi
	pop	ebx
	mov	esp, ebp
	pop	ebp
	ret	0
?sin@@YAMM@Z ENDP					; sin
_TEXT	ENDS
; Function compile flags: /Odtp /ZI
; File c:\program files (x86)\microsoft visual studio 11.0\vc\include\math.h
;	COMDAT ?cos@@YAMM@Z
_TEXT	SEGMENT
__X$ = 8						; size = 4
?cos@@YAMM@Z PROC					; cos, COMDAT

; 511  :         {return (cosf(_X)); }

	push	ebp
	mov	ebp, esp
	sub	esp, 64					; 00000040H
	push	ebx
	push	esi
	push	edi
	push	ecx
	movss	xmm0, DWORD PTR __X$[ebp]
	movss	DWORD PTR [esp], xmm0
	call	_cosf
	add	esp, 4
	pop	edi
	pop	esi
	pop	ebx
	mov	esp, ebp
	pop	ebp
	ret	0
?cos@@YAMM@Z ENDP					; cos
_TEXT	ENDS
; Function compile flags: /Odtp /ZI
; File c:\program files (x86)\microsoft visual studio 11.0\vc\include\math.h
;	COMDAT ?atan2@@YAMMM@Z
_TEXT	SEGMENT
__Y$ = 8						; size = 4
__X$ = 12						; size = 4
?atan2@@YAMMM@Z PROC					; atan2, COMDAT

; 507  :         {return (atan2f(_Y, _X)); }

	push	ebp
	mov	ebp, esp
	sub	esp, 64					; 00000040H
	push	ebx
	push	esi
	push	edi
	push	ecx
	movss	xmm0, DWORD PTR __X$[ebp]
	movss	DWORD PTR [esp], xmm0
	push	ecx
	movss	xmm0, DWORD PTR __Y$[ebp]
	movss	DWORD PTR [esp], xmm0
	call	_atan2f
	add	esp, 8
	pop	edi
	pop	esi
	pop	ebx
	mov	esp, ebp
	pop	ebp
	ret	0
?atan2@@YAMMM@Z ENDP					; atan2
_TEXT	ENDS
; Function compile flags: /Odtp /ZI
; File c:\program files (x86)\microsoft visual studio 11.0\vc\include\math.h
;	COMDAT ?atan@@YAMM@Z
_TEXT	SEGMENT
__X$ = 8						; size = 4
?atan@@YAMM@Z PROC					; atan, COMDAT

; 505  :         {return (atanf(_X)); }

	push	ebp
	mov	ebp, esp
	sub	esp, 64					; 00000040H
	push	ebx
	push	esi
	push	edi
	push	ecx
	movss	xmm0, DWORD PTR __X$[ebp]
	movss	DWORD PTR [esp], xmm0
	call	_atanf
	add	esp, 4
	pop	edi
	pop	esi
	pop	ebx
	mov	esp, ebp
	pop	ebp
	ret	0
?atan@@YAMM@Z ENDP					; atan
_TEXT	ENDS
; Function compile flags: /Odtp /ZI
; File c:\program files (x86)\microsoft visual studio 11.0\vc\include\math.h
;	COMDAT ?asin@@YAMM@Z
_TEXT	SEGMENT
__X$ = 8						; size = 4
?asin@@YAMM@Z PROC					; asin, COMDAT

; 503  :         {return (asinf(_X)); }

	push	ebp
	mov	ebp, esp
	sub	esp, 64					; 00000040H
	push	ebx
	push	esi
	push	edi
	push	ecx
	movss	xmm0, DWORD PTR __X$[ebp]
	movss	DWORD PTR [esp], xmm0
	call	_asinf
	add	esp, 4
	pop	edi
	pop	esi
	pop	ebx
	mov	esp, ebp
	pop	ebp
	ret	0
?asin@@YAMM@Z ENDP					; asin
_TEXT	ENDS
; Function compile flags: /Odtp /ZI
; File c:\program files (x86)\microsoft visual studio 11.0\vc\include\math.h
;	COMDAT ?acos@@YAMM@Z
_TEXT	SEGMENT
__X$ = 8						; size = 4
?acos@@YAMM@Z PROC					; acos, COMDAT

; 501  :         {return (acosf(_X)); }

	push	ebp
	mov	ebp, esp
	sub	esp, 64					; 00000040H
	push	ebx
	push	esi
	push	edi
	push	ecx
	movss	xmm0, DWORD PTR __X$[ebp]
	movss	DWORD PTR [esp], xmm0
	call	_acosf
	add	esp, 4
	pop	edi
	pop	esi
	pop	ebx
	mov	esp, ebp
	pop	ebp
	ret	0
?acos@@YAMM@Z ENDP					; acos
_TEXT	ENDS
; Function compile flags: /Odtp /ZI
; File c:\program files (x86)\microsoft visual studio 11.0\vc\include\math.h
;	COMDAT _sqrtf
_TEXT	SEGMENT
tv71 = -68						; size = 4
__X$ = 8						; size = 4
_sqrtf	PROC						; COMDAT

; 434  :         {return ((float)sqrt((double)_X)); }

	push	ebp
	mov	ebp, esp
	sub	esp, 68					; 00000044H
	push	ebx
	push	esi
	push	edi
	cvtss2sd xmm0, DWORD PTR __X$[ebp]
	call	__libm_sse2_sqrt_precise
	cvtsd2ss xmm0, xmm0
	movss	DWORD PTR tv71[ebp], xmm0
	fld	DWORD PTR tv71[ebp]
	pop	edi
	pop	esi
	pop	ebx
	mov	esp, ebp
	pop	ebp
	ret	0
_sqrtf	ENDP
_TEXT	ENDS
; Function compile flags: /Odtp /ZI
; File c:\program files (x86)\microsoft visual studio 11.0\vc\include\math.h
;	COMDAT _sinf
_TEXT	SEGMENT
tv71 = -68						; size = 4
__X$ = 8						; size = 4
_sinf	PROC						; COMDAT

; 430  :         {return ((float)sin((double)_X)); }

	push	ebp
	mov	ebp, esp
	sub	esp, 68					; 00000044H
	push	ebx
	push	esi
	push	edi
	cvtss2sd xmm0, DWORD PTR __X$[ebp]
	call	__libm_sse2_sin_precise
	cvtsd2ss xmm0, xmm0
	movss	DWORD PTR tv71[ebp], xmm0
	fld	DWORD PTR tv71[ebp]
	pop	edi
	pop	esi
	pop	ebx
	mov	esp, ebp
	pop	ebp
	ret	0
_sinf	ENDP
_TEXT	ENDS
; Function compile flags: /Odtp /ZI
; File c:\program files (x86)\microsoft visual studio 11.0\vc\include\math.h
;	COMDAT _floorf
_TEXT	SEGMENT
tv80 = -84						; size = 4
tv78 = -80						; size = 8
tv72 = -72						; size = 8
__X$ = 8						; size = 4
_floorf	PROC						; COMDAT

; 416  :         {return ((float)floor((double)_X)); }

	push	ebp
	mov	ebp, esp
	sub	esp, 84					; 00000054H
	push	ebx
	push	esi
	push	edi
	cvtss2sd xmm0, DWORD PTR __X$[ebp]
	movsd	QWORD PTR tv72[ebp], xmm0
	fld	QWORD PTR tv72[ebp]
	sub	esp, 8
	fstp	QWORD PTR [esp]
	call	_floor
	add	esp, 8
	fstp	QWORD PTR tv78[ebp]
	movsd	xmm0, QWORD PTR tv78[ebp]
	cvtsd2ss xmm0, xmm0
	movss	DWORD PTR tv80[ebp], xmm0
	fld	DWORD PTR tv80[ebp]
	pop	edi
	pop	esi
	pop	ebx
	mov	esp, ebp
	pop	ebp
	ret	0
_floorf	ENDP
_TEXT	ENDS
; Function compile flags: /Odtp /ZI
; File c:\program files (x86)\microsoft visual studio 11.0\vc\include\math.h
;	COMDAT _cosf
_TEXT	SEGMENT
tv71 = -68						; size = 4
__X$ = 8						; size = 4
_cosf	PROC						; COMDAT

; 410  :         {return ((float)cos((double)_X)); }

	push	ebp
	mov	ebp, esp
	sub	esp, 68					; 00000044H
	push	ebx
	push	esi
	push	edi
	cvtss2sd xmm0, DWORD PTR __X$[ebp]
	call	__libm_sse2_cos_precise
	cvtsd2ss xmm0, xmm0
	movss	DWORD PTR tv71[ebp], xmm0
	fld	DWORD PTR tv71[ebp]
	pop	edi
	pop	esi
	pop	ebx
	mov	esp, ebp
	pop	ebp
	ret	0
_cosf	ENDP
_TEXT	ENDS
; Function compile flags: /Odtp /ZI
; File c:\program files (x86)\microsoft visual studio 11.0\vc\include\math.h
;	COMDAT _ceilf
_TEXT	SEGMENT
tv76 = -76						; size = 4
tv74 = -72						; size = 8
__X$ = 8						; size = 4
_ceilf	PROC						; COMDAT

; 408  :         {return ((float)ceil((double)_X)); }

	push	ebp
	mov	ebp, esp
	sub	esp, 76					; 0000004cH
	push	ebx
	push	esi
	push	edi
	cvtss2sd xmm0, DWORD PTR __X$[ebp]
	sub	esp, 8
	movsd	QWORD PTR [esp], xmm0
	call	DWORD PTR __imp__ceil
	add	esp, 8
	fstp	QWORD PTR tv74[ebp]
	movsd	xmm0, QWORD PTR tv74[ebp]
	cvtsd2ss xmm0, xmm0
	movss	DWORD PTR tv76[ebp], xmm0
	fld	DWORD PTR tv76[ebp]
	pop	edi
	pop	esi
	pop	ebx
	mov	esp, ebp
	pop	ebp
	ret	0
_ceilf	ENDP
_TEXT	ENDS
; Function compile flags: /Odtp /ZI
; File c:\program files (x86)\microsoft visual studio 11.0\vc\include\math.h
;	COMDAT _atan2f
_TEXT	SEGMENT
tv85 = -92						; size = 4
tv83 = -88						; size = 8
tv77 = -80						; size = 8
tv75 = -72						; size = 8
__Y$ = 8						; size = 4
__X$ = 12						; size = 4
_atan2f	PROC						; COMDAT

; 406  :         {return ((float)atan2((double)_Y, (double)_X)); }

	push	ebp
	mov	ebp, esp
	sub	esp, 92					; 0000005cH
	push	ebx
	push	esi
	push	edi
	cvtss2sd xmm0, DWORD PTR __Y$[ebp]
	movsd	QWORD PTR tv75[ebp], xmm0
	fld	QWORD PTR tv75[ebp]
	cvtss2sd xmm0, DWORD PTR __X$[ebp]
	movsd	QWORD PTR tv77[ebp], xmm0
	fld	QWORD PTR tv77[ebp]
	call	__CIatan2
	fstp	QWORD PTR tv83[ebp]
	movsd	xmm0, QWORD PTR tv83[ebp]
	cvtsd2ss xmm0, xmm0
	movss	DWORD PTR tv85[ebp], xmm0
	fld	DWORD PTR tv85[ebp]
	pop	edi
	pop	esi
	pop	ebx
	mov	esp, ebp
	pop	ebp
	ret	0
_atan2f	ENDP
_TEXT	ENDS
; Function compile flags: /Odtp /ZI
; File c:\program files (x86)\microsoft visual studio 11.0\vc\include\math.h
;	COMDAT _atanf
_TEXT	SEGMENT
tv71 = -68						; size = 4
__X$ = 8						; size = 4
_atanf	PROC						; COMDAT

; 404  :         {return ((float)atan((double)_X)); }

	push	ebp
	mov	ebp, esp
	sub	esp, 68					; 00000044H
	push	ebx
	push	esi
	push	edi
	cvtss2sd xmm0, DWORD PTR __X$[ebp]
	call	__libm_sse2_atan_precise
	cvtsd2ss xmm0, xmm0
	movss	DWORD PTR tv71[ebp], xmm0
	fld	DWORD PTR tv71[ebp]
	pop	edi
	pop	esi
	pop	ebx
	mov	esp, ebp
	pop	ebp
	ret	0
_atanf	ENDP
_TEXT	ENDS
; Function compile flags: /Odtp /ZI
; File c:\program files (x86)\microsoft visual studio 11.0\vc\include\math.h
;	COMDAT _asinf
_TEXT	SEGMENT
tv71 = -68						; size = 4
__X$ = 8						; size = 4
_asinf	PROC						; COMDAT

; 402  :         {return ((float)asin((double)_X)); }

	push	ebp
	mov	ebp, esp
	sub	esp, 68					; 00000044H
	push	ebx
	push	esi
	push	edi
	cvtss2sd xmm0, DWORD PTR __X$[ebp]
	call	__libm_sse2_asin_precise
	cvtsd2ss xmm0, xmm0
	movss	DWORD PTR tv71[ebp], xmm0
	fld	DWORD PTR tv71[ebp]
	pop	edi
	pop	esi
	pop	ebx
	mov	esp, ebp
	pop	ebp
	ret	0
_asinf	ENDP
_TEXT	ENDS
; Function compile flags: /Odtp /ZI
; File c:\program files (x86)\microsoft visual studio 11.0\vc\include\math.h
;	COMDAT _acosf
_TEXT	SEGMENT
tv71 = -68						; size = 4
__X$ = 8						; size = 4
_acosf	PROC						; COMDAT

; 400  :         {return ((float)acos((double)_X)); }

	push	ebp
	mov	ebp, esp
	sub	esp, 68					; 00000044H
	push	ebx
	push	esi
	push	edi
	cvtss2sd xmm0, DWORD PTR __X$[ebp]
	call	__libm_sse2_acos_precise
	cvtsd2ss xmm0, xmm0
	movss	DWORD PTR tv71[ebp], xmm0
	fld	DWORD PTR tv71[ebp]
	pop	edi
	pop	esi
	pop	ebx
	mov	esp, ebp
	pop	ebp
	ret	0
_acosf	ENDP
_TEXT	ENDS
; Function compile flags: /Odtp /ZI
;	COMDAT ??_I@YGXPAXIHP6EX0@Z@Z
_TEXT	SEGMENT
___t$ = 8						; size = 4
___s$ = 12						; size = 4
___n$ = 16						; size = 4
___f$ = 20						; size = 4
??_I@YGXPAXIHP6EX0@Z@Z PROC				; `vector destructor iterator', COMDAT
	push	ebp
	mov	ebp, esp
	sub	esp, 64					; 00000040H
	push	ebx
	push	esi
	push	edi
	mov	eax, DWORD PTR ___s$[ebp]
	imul	eax, DWORD PTR ___n$[ebp]
	add	eax, DWORD PTR ___t$[ebp]
	mov	DWORD PTR ___t$[ebp], eax
$LN2@vector:
	mov	eax, DWORD PTR ___n$[ebp]
	sub	eax, 1
	mov	DWORD PTR ___n$[ebp], eax
	js	SHORT $LN3@vector
	mov	eax, DWORD PTR ___t$[ebp]
	sub	eax, DWORD PTR ___s$[ebp]
	mov	DWORD PTR ___t$[ebp], eax
	mov	ecx, DWORD PTR ___t$[ebp]
	call	DWORD PTR ___f$[ebp]
	jmp	SHORT $LN2@vector
$LN3@vector:
	pop	edi
	pop	esi
	pop	ebx
	mov	esp, ebp
	pop	ebp
	ret	16					; 00000010H
??_I@YGXPAXIHP6EX0@Z@Z ENDP				; `vector destructor iterator'
_TEXT	ENDS
; Function compile flags: /Odtp /ZI
;	COMDAT ??_H@YGXPAXIHP6EPAX0@Z@Z
_TEXT	SEGMENT
___t$ = 8						; size = 4
___s$ = 12						; size = 4
___n$ = 16						; size = 4
___f$ = 20						; size = 4
??_H@YGXPAXIHP6EPAX0@Z@Z PROC				; `vector constructor iterator', COMDAT
	push	ebp
	mov	ebp, esp
	sub	esp, 64					; 00000040H
	push	ebx
	push	esi
	push	edi
$LN2@vector:
	mov	eax, DWORD PTR ___n$[ebp]
	sub	eax, 1
	mov	DWORD PTR ___n$[ebp], eax
	js	SHORT $LN3@vector
	mov	ecx, DWORD PTR ___t$[ebp]
	call	DWORD PTR ___f$[ebp]
	mov	eax, DWORD PTR ___t$[ebp]
	add	eax, DWORD PTR ___s$[ebp]
	mov	DWORD PTR ___t$[ebp], eax
	jmp	SHORT $LN2@vector
$LN3@vector:
	pop	edi
	pop	esi
	pop	ebx
	mov	esp, ebp
	pop	ebp
	ret	16					; 00000010H
??_H@YGXPAXIHP6EPAX0@Z@Z ENDP				; `vector constructor iterator'
_TEXT	ENDS
END
