; Listing generated by Microsoft (R) Optimizing Compiler Version 17.00.61219.0 

	TITLE	X:\GitHub\Renegade\Dragonade_RxD\scripts\jfwcust.cpp
	.686P
	.XMM
	include listing.inc
	.model	flat

INCLUDELIB MSVCRTD
INCLUDELIB OLDNAMES

CONST	SEGMENT
_DONT_MOVE_ARRIVED_DIST DD 0447a0000r		; 1000
CONST	ENDS
PUBLIC	??_H@YGXPAXIHP6EPAX0@Z@Z			; `vector constructor iterator'
PUBLIC	??_I@YGXPAXIHP6EX0@Z@Z				; `vector destructor iterator'
PUBLIC	_acosf
PUBLIC	_asinf
PUBLIC	_atanf
PUBLIC	_atan2f
PUBLIC	_ceilf
PUBLIC	_cosf
PUBLIC	_floorf
PUBLIC	_sinf
PUBLIC	_sqrtf
PUBLIC	?acos@@YAMM@Z					; acos
PUBLIC	?asin@@YAMM@Z					; asin
PUBLIC	?atan@@YAMM@Z					; atan
PUBLIC	?atan2@@YAMMM@Z					; atan2
PUBLIC	?cos@@YAMM@Z					; cos
PUBLIC	?sin@@YAMM@Z					; sin
PUBLIC	?sqrt@@YAMM@Z					; sqrt
PUBLIC	?Fabs@WWMath@@SAMM@Z				; WWMath::Fabs
PUBLIC	?Float_To_Int_Chop@WWMath@@SAHABM@Z		; WWMath::Float_To_Int_Chop
PUBLIC	?Float_To_Int_Floor@WWMath@@SAHABM@Z		; WWMath::Float_To_Int_Floor
PUBLIC	?Cos@WWMath@@SAMM@Z				; WWMath::Cos
PUBLIC	?Sin@WWMath@@SAMM@Z				; WWMath::Sin
PUBLIC	?Sqrt@WWMath@@SAMM@Z				; WWMath::Sqrt
PUBLIC	?Inv_Sqrt@WWMath@@SIMM@Z			; WWMath::Inv_Sqrt
PUBLIC	?Float_To_Long@WWMath@@SAJM@Z			; WWMath::Float_To_Long
PUBLIC	?Fast_Sin@WWMath@@SAMM@Z			; WWMath::Fast_Sin
PUBLIC	?Fast_Inv_Sin@WWMath@@SAMM@Z			; WWMath::Fast_Inv_Sin
PUBLIC	?Fast_Cos@WWMath@@SAMM@Z			; WWMath::Fast_Cos
PUBLIC	?Fast_Inv_Cos@WWMath@@SAMM@Z			; WWMath::Fast_Inv_Cos
PUBLIC	?Fast_Acos@WWMath@@SAMM@Z			; WWMath::Fast_Acos
PUBLIC	?Fast_Asin@WWMath@@SAMM@Z			; WWMath::Fast_Asin
PUBLIC	?Acos@WWMath@@SAMM@Z				; WWMath::Acos
PUBLIC	?Asin@WWMath@@SAMM@Z				; WWMath::Asin
PUBLIC	?Atan@WWMath@@SAMM@Z				; WWMath::Atan
PUBLIC	?Atan2@WWMath@@SAMMM@Z				; WWMath::Atan2
PUBLIC	?Sign@WWMath@@SAMM@Z				; WWMath::Sign
PUBLIC	?Ceil@WWMath@@SAMM@Z				; WWMath::Ceil
PUBLIC	?Floor@WWMath@@SAMM@Z				; WWMath::Floor
PUBLIC	?Fast_Is_Float_Positive@WWMath@@SA_NABM@Z	; WWMath::Fast_Is_Float_Positive
PUBLIC	?Random_Float@WWMath@@SAMMM@Z			; WWMath::Random_Float
PUBLIC	?Clamp@WWMath@@SAMMMM@Z				; WWMath::Clamp
PUBLIC	?Clamp@WWMath@@SANNNN@Z				; WWMath::Clamp
PUBLIC	?Clamp_Int@WWMath@@SAHHHH@Z			; WWMath::Clamp_Int
PUBLIC	?Wrap@WWMath@@SAMMMM@Z				; WWMath::Wrap
PUBLIC	?Wrap@WWMath@@SANNNN@Z				; WWMath::Wrap
PUBLIC	?Min@WWMath@@SAMMM@Z				; WWMath::Min
PUBLIC	?Max@WWMath@@SAMMM@Z				; WWMath::Max
PUBLIC	?Lerp@WWMath@@SAMMMM@Z				; WWMath::Lerp
PUBLIC	?Lerp@WWMath@@SANNNM@Z				; WWMath::Lerp
PUBLIC	?Lerp@WWMath@@SAHHHM@Z				; WWMath::Lerp
PUBLIC	?Float_To_Long@WWMath@@SAJN@Z			; WWMath::Float_To_Long
PUBLIC	?Unit_Float_To_Byte@WWMath@@SAEM@Z		; WWMath::Unit_Float_To_Byte
PUBLIC	?Byte_To_Unit_Float@WWMath@@SAME@Z		; WWMath::Byte_To_Unit_Float
PUBLIC	?Is_Valid_Float@WWMath@@SA_NM@Z			; WWMath::Is_Valid_Float
PUBLIC	?Is_Valid_Double@WWMath@@SA_NN@Z		; WWMath::Is_Valid_Double
PUBLIC	??4WWMath@@QAEAAV0@ABV0@@Z			; WWMath::operator=
PUBLIC	??B?$RefArrayHelper@M$0EAA@@@QAEPAMXZ		; RefArrayHelper<float,1024>::operator float *
PUBLIC	??0Vector3@@QAE@XZ				; Vector3::Vector3
PUBLIC	??0Vector3@@QAE@ABV0@@Z				; Vector3::Vector3
PUBLIC	??0Vector3@@QAE@MMM@Z				; Vector3::Vector3
PUBLIC	??4Vector3@@QAEAAV0@ABV0@@Z			; Vector3::operator=
PUBLIC	?Set@Vector3@@QAEXMMM@Z				; Vector3::Set
PUBLIC	??AVector3@@QAEAAMH@Z				; Vector3::operator[]
PUBLIC	??AVector3@@QBEABMH@Z				; Vector3::operator[]
PUBLIC	?Normalize@Vector3@@QAEXXZ			; Vector3::Normalize
PUBLIC	?Length@Vector3@@QBEMXZ				; Vector3::Length
PUBLIC	?Length2@Vector3@@QBEMXZ			; Vector3::Length2
PUBLIC	??YVector3@@QAEAAV0@ABV0@@Z			; Vector3::operator+=
PUBLIC	??ZVector3@@QAEAAV0@ABV0@@Z			; Vector3::operator-=
PUBLIC	??XVector3@@QAEAAV0@M@Z				; Vector3::operator*=
PUBLIC	??_0Vector3@@QAEAAV0@M@Z			; Vector3::operator/=
PUBLIC	??D@YA?AVVector3@@ABV0@M@Z			; operator*
PUBLIC	??D@YA?AVVector3@@MABV0@@Z			; operator*
PUBLIC	??H@YA?AVVector3@@ABV0@0@Z			; operator+
PUBLIC	??G@YA?AVVector3@@ABV0@0@Z			; operator-
PUBLIC	?Add@Vector3@@SAXABV1@0PAV1@@Z			; Vector3::Add
PUBLIC	?Subtract@Vector3@@SAXABV1@0PAV1@@Z		; Vector3::Subtract
PUBLIC	?Swap@@YAXAAVVector3@@0@Z			; Swap
PUBLIC	??0GameObjObserverClass@@QAE@XZ			; GameObjObserverClass::GameObjObserverClass
PUBLIC	??1GameObjObserverClass@@UAE@XZ			; GameObjObserverClass::~GameObjObserverClass
PUBLIC	?Set_ID@GameObjObserverClass@@QAEXH@Z		; GameObjObserverClass::Set_ID
PUBLIC	?Get_ID@GameObjObserverClass@@QAEHXZ		; GameObjObserverClass::Get_ID
PUBLIC	?Owner@GameObjObserverClass@@UAEPAVScriptableGameObj@@XZ ; GameObjObserverClass::Owner
PUBLIC	??0GameObjObserverClass@@QAE@ABV0@@Z		; GameObjObserverClass::GameObjObserverClass
PUBLIC	??4GameObjObserverClass@@QAEAAV0@ABV0@@Z	; GameObjObserverClass::operator=
PUBLIC	??_GGameObjObserverClass@@UAEPAXI@Z		; GameObjObserverClass::`scalar deleting destructor'
PUBLIC	??_EGameObjObserverClass@@UAEPAXI@Z		; GameObjObserverClass::`vector deleting destructor'
PUBLIC	??1ScriptClass@@UAE@XZ				; ScriptClass::~ScriptClass
PUBLIC	??0ScriptClass@@QAE@XZ				; ScriptClass::ScriptClass
PUBLIC	??0ScriptClass@@QAE@ABV0@@Z			; ScriptClass::ScriptClass
PUBLIC	??4ScriptClass@@QAEAAV0@ABV0@@Z			; ScriptClass::operator=
PUBLIC	??_GScriptClass@@UAEPAXI@Z			; ScriptClass::`scalar deleting destructor'
PUBLIC	??_EScriptClass@@UAEPAXI@Z			; ScriptClass::`vector deleting destructor'
PUBLIC	?SetFactory@ScriptImpClass@@QAEXPAVScriptFactory@@@Z ; ScriptImpClass::SetFactory
PUBLIC	?Created@ScriptImpClass@@UAEXPAVScriptableGameObj@@@Z ; ScriptImpClass::Created
PUBLIC	?Destroyed@ScriptImpClass@@UAEXPAVScriptableGameObj@@@Z ; ScriptImpClass::Destroyed
PUBLIC	?Killed@ScriptImpClass@@UAEXPAVScriptableGameObj@@0@Z ; ScriptImpClass::Killed
PUBLIC	?Damaged@ScriptImpClass@@UAEXPAVScriptableGameObj@@0M@Z ; ScriptImpClass::Damaged
PUBLIC	?Custom@ScriptImpClass@@UAEXPAVScriptableGameObj@@HH0@Z ; ScriptImpClass::Custom
PUBLIC	?Sound_Heard@ScriptImpClass@@UAEXPAVScriptableGameObj@@ABUCombatSound@@@Z ; ScriptImpClass::Sound_Heard
PUBLIC	?Enemy_Seen@ScriptImpClass@@UAEXPAVScriptableGameObj@@0@Z ; ScriptImpClass::Enemy_Seen
PUBLIC	?Action_Complete@ScriptImpClass@@UAEXPAVScriptableGameObj@@HW4ActionCompleteReason@@@Z ; ScriptImpClass::Action_Complete
PUBLIC	?Timer_Expired@ScriptImpClass@@UAEXPAVScriptableGameObj@@H@Z ; ScriptImpClass::Timer_Expired
PUBLIC	?Animation_Complete@ScriptImpClass@@UAEXPAVScriptableGameObj@@PBD@Z ; ScriptImpClass::Animation_Complete
PUBLIC	?Poked@ScriptImpClass@@UAEXPAVScriptableGameObj@@0@Z ; ScriptImpClass::Poked
PUBLIC	?Entered@ScriptImpClass@@UAEXPAVScriptableGameObj@@0@Z ; ScriptImpClass::Entered
PUBLIC	?Exited@ScriptImpClass@@UAEXPAVScriptableGameObj@@0@Z ; ScriptImpClass::Exited
PUBLIC	?Owner@ScriptImpClass@@UAEPAVScriptableGameObj@@XZ ; ScriptImpClass::Owner
PUBLIC	?Get_Owner_Ptr@ScriptImpClass@@UAEPAPAVScriptableGameObj@@XZ ; ScriptImpClass::Get_Owner_Ptr
PUBLIC	?Save_Data@ScriptImpClass@@UAEXAAVScriptSaver@@@Z ; ScriptImpClass::Save_Data
PUBLIC	?Load_Data@ScriptImpClass@@UAEXAAVScriptLoader@@@Z ; ScriptImpClass::Load_Data
PUBLIC	?Register_Auto_Save_Variables@ScriptImpClass@@UAEXXZ ; ScriptImpClass::Register_Auto_Save_Variables
PUBLIC	?Get_Parameter_Count@ScriptImpClass@@QAEHXZ	; ScriptImpClass::Get_Parameter_Count
PUBLIC	?Get_Int_Parameter@ScriptImpClass@@QAEHH@Z	; ScriptImpClass::Get_Int_Parameter
PUBLIC	?Get_Float_Parameter@ScriptImpClass@@QAEMH@Z	; ScriptImpClass::Get_Float_Parameter
PUBLIC	?Get_Bool_Parameter@ScriptImpClass@@QAE_NPBD@Z	; ScriptImpClass::Get_Bool_Parameter
PUBLIC	?Get_Bool_Parameter@ScriptImpClass@@QAE_NH@Z	; ScriptImpClass::Get_Bool_Parameter
PUBLIC	??0ScriptImpClass@@QAE@ABV0@@Z			; ScriptImpClass::ScriptImpClass
PUBLIC	??4ScriptImpClass@@QAEAAV0@ABV0@@Z		; ScriptImpClass::operator=
PUBLIC	??_GScriptImpClass@@UAEPAXI@Z			; ScriptImpClass::`scalar deleting destructor'
PUBLIC	??_EScriptImpClass@@UAEPAXI@Z			; ScriptImpClass::`vector deleting destructor'
PUBLIC	??0ScriptFactory@@QAE@ABV0@@Z			; ScriptFactory::ScriptFactory
PUBLIC	??4ScriptFactory@@QAEAAV0@ABV0@@Z		; ScriptFactory::operator=
PUBLIC	??_GScriptFactory@@UAEPAXI@Z			; ScriptFactory::`scalar deleting destructor'
PUBLIC	??_EScriptFactory@@UAEPAXI@Z			; ScriptFactory::`vector deleting destructor'
PUBLIC	??4ScriptRegistrar@@QAEAAV0@ABV0@@Z		; ScriptRegistrar::operator=
PUBLIC	?Is_Running@ThreadClass@@QAE_NXZ		; ThreadClass::Is_Running
PUBLIC	?Get_Current_Thread_ID@ThreadClass@@SAHXZ	; ThreadClass::Get_Current_Thread_ID
PUBLIC	?Get_Name@ThreadClass@@QAEPBDXZ			; ThreadClass::Get_Name
PUBLIC	??0ThreadClass@@QAE@ABV0@@Z			; ThreadClass::ThreadClass
PUBLIC	??4ThreadClass@@QAEAAV0@ABV0@@Z			; ThreadClass::operator=
PUBLIC	??_GThreadClass@@UAEPAXI@Z			; ThreadClass::`scalar deleting destructor'
PUBLIC	??_EThreadClass@@UAEPAXI@Z			; ThreadClass::`vector deleting destructor'
PUBLIC	??4CriticalSectionClass@@QAEAAV0@ABV0@@Z	; CriticalSectionClass::operator=
PUBLIC	?Enter@FastCriticalSectionClass@@AAEXXZ		; FastCriticalSectionClass::Enter
PUBLIC	?Leave@FastCriticalSectionClass@@AAEXXZ		; FastCriticalSectionClass::Leave
PUBLIC	??0LockClass@FastCriticalSectionClass@@QAE@AAV1@@Z ; FastCriticalSectionClass::LockClass::LockClass
PUBLIC	??1LockClass@FastCriticalSectionClass@@QAE@XZ	; FastCriticalSectionClass::LockClass::~LockClass
PUBLIC	??0FastCriticalSectionClass@@QAE@XZ		; FastCriticalSectionClass::FastCriticalSectionClass
PUBLIC	??1StringClass@@QAE@XZ				; StringClass::~StringClass
PUBLIC	??_EStringClass@@QAEPAXI@Z			; StringClass::`vector deleting destructor'
PUBLIC	??1WideStringClass@@QAE@XZ			; WideStringClass::~WideStringClass
PUBLIC	??_EWideStringClass@@QAEPAXI@Z			; WideStringClass::`vector deleting destructor'
PUBLIC	??4ChunkLoadClass@@QAEAAV0@ABV0@@Z		; ChunkLoadClass::operator=
PUBLIC	?Set_Contains_Chunks@ChunkSaveClass@@QAEXXZ	; ChunkSaveClass::Set_Contains_Chunks
PUBLIC	??4ChunkSaveClass@@QAEAAV0@ABV0@@Z		; ChunkSaveClass::operator=
PUBLIC	?Is_Present@INIClass@@QBE_NPBD0@Z		; INIClass::Is_Present
PUBLIC	?Section_Present@INIClass@@QBE_NPBD@Z		; INIClass::Section_Present
PUBLIC	?Get_Section_List@INIClass@@QAEAAV?$List@PAUINISection@@@@XZ ; INIClass::Get_Section_List
PUBLIC	?Get_Section_Index@INIClass@@QAEAAV?$IndexClass@HPAUINISection@@@@XZ ; INIClass::Get_Section_Index
PUBLIC	?Get_File_Name@INIClass@@QAEPBDXZ		; INIClass::Get_File_Name
PUBLIC	??0INIClass@@QAE@ABV0@@Z			; INIClass::INIClass
PUBLIC	??4INIClass@@QAEAAV0@ABV0@@Z			; INIClass::operator=
PUBLIC	??_GINIClass@@UAEPAXI@Z				; INIClass::`scalar deleting destructor'
PUBLIC	??_EINIClass@@UAEPAXI@Z				; INIClass::`vector deleting destructor'
PUBLIC	??Cfile_auto_ptr@@QAEPAVFileClass@@XZ		; file_auto_ptr::operator->
PUBLIC	??Bfile_auto_ptr@@QAEPAVFileClass@@XZ		; file_auto_ptr::operator FileClass *
PUBLIC	??Dfile_auto_ptr@@QAEAAVFileClass@@XZ		; file_auto_ptr::operator*
PUBLIC	?get@file_auto_ptr@@QAEPAVFileClass@@XZ		; file_auto_ptr::get
PUBLIC	??4file_auto_ptr@@QAEAAV0@ABV0@@Z		; file_auto_ptr::operator=
PUBLIC	??0Vector4@@QAE@XZ				; Vector4::Vector4
PUBLIC	??0Vector4@@QAE@MMMM@Z				; Vector4::Vector4
PUBLIC	??4Vector4@@QAEAAV0@ABV0@@Z			; Vector4::operator=
PUBLIC	?Set@Vector4@@QAEXMMMM@Z			; Vector4::Set
PUBLIC	??AVector4@@QAEAAMH@Z				; Vector4::operator[]
PUBLIC	??AVector4@@QBEABMH@Z				; Vector4::operator[]
PUBLIC	??YVector4@@QAEAAV0@ABV0@@Z			; Vector4::operator+=
PUBLIC	??ZVector4@@QAEAAV0@ABV0@@Z			; Vector4::operator-=
PUBLIC	??XVector4@@QAEAAV0@M@Z				; Vector4::operator*=
PUBLIC	??AMatrix3D@@QAEAAVVector4@@H@Z			; Matrix3D::operator[]
PUBLIC	??AMatrix3D@@QBEABVVector4@@H@Z			; Matrix3D::operator[]
PUBLIC	??0Matrix3D@@QAE@_N@Z				; Matrix3D::Matrix3D
PUBLIC	??0Matrix3D@@QAE@QAM@Z				; Matrix3D::Matrix3D
PUBLIC	??0Matrix3D@@QAE@ABVVector3@@000@Z		; Matrix3D::Matrix3D
PUBLIC	??0Matrix3D@@QAE@ABVVector3@@M@Z		; Matrix3D::Matrix3D
PUBLIC	??0Matrix3D@@QAE@ABVVector3@@MM@Z		; Matrix3D::Matrix3D
PUBLIC	??0Matrix3D@@QAE@ABVMatrix3@@ABVVector3@@@Z	; Matrix3D::Matrix3D
PUBLIC	??0Matrix3D@@QAE@ABVQuaternion@@ABVVector3@@@Z	; Matrix3D::Matrix3D
PUBLIC	??0Matrix3D@@QAE@ABVVector3@@@Z			; Matrix3D::Matrix3D
PUBLIC	??0Matrix3D@@QAE@ABV0@@Z			; Matrix3D::Matrix3D
PUBLIC	??4Matrix3D@@QAEAAV0@ABV0@@Z			; Matrix3D::operator=
PUBLIC	?Set@Matrix3D@@QAEXQAM@Z			; Matrix3D::Set
PUBLIC	?Set@Matrix3D@@QAEXMMMMMMMMMMMM@Z		; Matrix3D::Set
PUBLIC	?Set@Matrix3D@@QAEXABVVector3@@000@Z		; Matrix3D::Set
PUBLIC	?Set@Matrix3D@@QAEXABVVector3@@M@Z		; Matrix3D::Set
PUBLIC	?Set@Matrix3D@@QAEXABVVector3@@MM@Z		; Matrix3D::Set
PUBLIC	?Set@Matrix3D@@QAEXABVVector3@@@Z		; Matrix3D::Set
PUBLIC	?Get_Translation@Matrix3D@@QBE?AVVector3@@XZ	; Matrix3D::Get_Translation
PUBLIC	?Get_Translation@Matrix3D@@QBEXPAVVector3@@@Z	; Matrix3D::Get_Translation
PUBLIC	?Set_Translation@Matrix3D@@QAEXABVVector3@@@Z	; Matrix3D::Set_Translation
PUBLIC	?Get_X_Translation@Matrix3D@@QBEMXZ		; Matrix3D::Get_X_Translation
PUBLIC	?Get_Y_Translation@Matrix3D@@QBEMXZ		; Matrix3D::Get_Y_Translation
PUBLIC	?Get_Z_Translation@Matrix3D@@QBEMXZ		; Matrix3D::Get_Z_Translation
PUBLIC	?Set_X_Translation@Matrix3D@@QAEXM@Z		; Matrix3D::Set_X_Translation
PUBLIC	?Set_Y_Translation@Matrix3D@@QAEXM@Z		; Matrix3D::Set_Y_Translation
PUBLIC	?Set_Z_Translation@Matrix3D@@QAEXM@Z		; Matrix3D::Set_Z_Translation
PUBLIC	?Adjust_Translation@Matrix3D@@QAEXABVVector3@@@Z ; Matrix3D::Adjust_Translation
PUBLIC	?Adjust_X_Translation@Matrix3D@@QAEXM@Z		; Matrix3D::Adjust_X_Translation
PUBLIC	?Adjust_Y_Translation@Matrix3D@@QAEXM@Z		; Matrix3D::Adjust_Y_Translation
PUBLIC	?Adjust_Z_Translation@Matrix3D@@QAEXM@Z		; Matrix3D::Adjust_Z_Translation
PUBLIC	?Make_Identity@Matrix3D@@QAEXXZ			; Matrix3D::Make_Identity
PUBLIC	?Translate@Matrix3D@@QAEXMMM@Z			; Matrix3D::Translate
PUBLIC	?Translate@Matrix3D@@QAEXABVVector3@@@Z		; Matrix3D::Translate
PUBLIC	?Translate_X@Matrix3D@@QAEXM@Z			; Matrix3D::Translate_X
PUBLIC	?Translate_Y@Matrix3D@@QAEXM@Z			; Matrix3D::Translate_Y
PUBLIC	?Translate_Z@Matrix3D@@QAEXM@Z			; Matrix3D::Translate_Z
PUBLIC	?Rotate_X@Matrix3D@@QAEXM@Z			; Matrix3D::Rotate_X
PUBLIC	?Rotate_Y@Matrix3D@@QAEXM@Z			; Matrix3D::Rotate_Y
PUBLIC	?Rotate_Z@Matrix3D@@QAEXM@Z			; Matrix3D::Rotate_Z
PUBLIC	?Rotate_X@Matrix3D@@QAEXMM@Z			; Matrix3D::Rotate_X
PUBLIC	?Rotate_Y@Matrix3D@@QAEXMM@Z			; Matrix3D::Rotate_Y
PUBLIC	?Rotate_Z@Matrix3D@@QAEXMM@Z			; Matrix3D::Rotate_Z
PUBLIC	?Scale@Matrix3D@@QAEXM@Z			; Matrix3D::Scale
PUBLIC	?Scale@Matrix3D@@QAEXMMM@Z			; Matrix3D::Scale
PUBLIC	?Scale@Matrix3D@@QAEXAAVVector3@@@Z		; Matrix3D::Scale
PUBLIC	?Pre_Rotate_X@Matrix3D@@QAEXM@Z			; Matrix3D::Pre_Rotate_X
PUBLIC	?Pre_Rotate_Y@Matrix3D@@QAEXM@Z			; Matrix3D::Pre_Rotate_Y
PUBLIC	?Pre_Rotate_Z@Matrix3D@@QAEXM@Z			; Matrix3D::Pre_Rotate_Z
PUBLIC	?Pre_Rotate_X@Matrix3D@@QAEXMM@Z		; Matrix3D::Pre_Rotate_X
PUBLIC	?Pre_Rotate_Y@Matrix3D@@QAEXMM@Z		; Matrix3D::Pre_Rotate_Y
PUBLIC	?Pre_Rotate_Z@Matrix3D@@QAEXMM@Z		; Matrix3D::Pre_Rotate_Z
PUBLIC	?In_Place_Pre_Rotate_X@Matrix3D@@QAEXM@Z	; Matrix3D::In_Place_Pre_Rotate_X
PUBLIC	?In_Place_Pre_Rotate_Y@Matrix3D@@QAEXM@Z	; Matrix3D::In_Place_Pre_Rotate_Y
PUBLIC	?In_Place_Pre_Rotate_Z@Matrix3D@@QAEXM@Z	; Matrix3D::In_Place_Pre_Rotate_Z
PUBLIC	?In_Place_Pre_Rotate_X@Matrix3D@@QAEXMM@Z	; Matrix3D::In_Place_Pre_Rotate_X
PUBLIC	?In_Place_Pre_Rotate_Y@Matrix3D@@QAEXMM@Z	; Matrix3D::In_Place_Pre_Rotate_Y
PUBLIC	?In_Place_Pre_Rotate_Z@Matrix3D@@QAEXMM@Z	; Matrix3D::In_Place_Pre_Rotate_Z
PUBLIC	?Transform_Vector@Matrix3D@@SAXABV1@ABVVector3@@PAV2@@Z ; Matrix3D::Transform_Vector
PUBLIC	?Get_X_Vector@Matrix3D@@QBE?AVVector3@@XZ	; Matrix3D::Get_X_Vector
PUBLIC	?Get_Y_Vector@Matrix3D@@QBE?AVVector3@@XZ	; Matrix3D::Get_Y_Vector
PUBLIC	?Get_Z_Vector@Matrix3D@@QBE?AVVector3@@XZ	; Matrix3D::Get_Z_Vector
PUBLIC	?Get_X_Vector@Matrix3D@@QBEXPAVVector3@@@Z	; Matrix3D::Get_X_Vector
PUBLIC	?Get_Y_Vector@Matrix3D@@QBEXPAVVector3@@@Z	; Matrix3D::Get_Y_Vector
PUBLIC	?Get_Z_Vector@Matrix3D@@QBEXPAVVector3@@@Z	; Matrix3D::Get_Z_Vector
PUBLIC	?Rotate_Vector@Matrix3D@@SAXABV1@ABVVector3@@PAV2@@Z ; Matrix3D::Rotate_Vector
PUBLIC	?Inverse_Transform_Vector@Matrix3D@@SAXABV1@ABVVector3@@PAV2@@Z ; Matrix3D::Inverse_Transform_Vector
PUBLIC	?Inverse_Rotate_Vector@Matrix3D@@SAXABV1@ABVVector3@@PAV2@@Z ; Matrix3D::Inverse_Rotate_Vector
PUBLIC	??0Matrix4@@QAE@XZ				; Matrix4::Matrix4
PUBLIC	??0Matrix4@@QAE@ABV0@@Z				; Matrix4::Matrix4
PUBLIC	??0Matrix4@@QAE@_N@Z				; Matrix4::Matrix4
PUBLIC	??0Matrix4@@QAE@ABVMatrix3D@@@Z			; Matrix4::Matrix4
PUBLIC	??0Matrix4@@QAE@ABVVector4@@000@Z		; Matrix4::Matrix4
PUBLIC	?Make_Identity@Matrix4@@QAEXXZ			; Matrix4::Make_Identity
PUBLIC	?Init@Matrix4@@QAEXABVMatrix3D@@@Z		; Matrix4::Init
PUBLIC	?Init@Matrix4@@QAEXABVVector4@@000@Z		; Matrix4::Init
PUBLIC	?Init_Ortho_OGL@Matrix4@@QAEXMMMMMM@Z		; Matrix4::Init_Ortho_OGL
PUBLIC	?Init_Perspective_OGL@Matrix4@@QAEXMMMM@Z	; Matrix4::Init_Perspective_OGL
PUBLIC	?Init_Perspective_OGL@Matrix4@@QAEXMMMMMM@Z	; Matrix4::Init_Perspective_OGL
PUBLIC	?Init_Ortho@Matrix4@@QAEXMMMMMM@Z		; Matrix4::Init_Ortho
PUBLIC	?Init_Perspective@Matrix4@@QAEXMMMMMM@Z		; Matrix4::Init_Perspective
PUBLIC	??AMatrix4@@QAEAAVVector4@@H@Z			; Matrix4::operator[]
PUBLIC	??AMatrix4@@QBEABVVector4@@H@Z			; Matrix4::operator[]
PUBLIC	?Transpose@Matrix4@@QBE?AV1@XZ			; Matrix4::Transpose
PUBLIC	?Determinant@Matrix4@@QBEMXZ			; Matrix4::Determinant
PUBLIC	?Inverse@Matrix4@@QBE?AV1@XZ			; Matrix4::Inverse
PUBLIC	??4Matrix4@@QAEAAV0@ABV0@@Z			; Matrix4::operator=
PUBLIC	??YMatrix4@@QAEAAV0@ABV0@@Z			; Matrix4::operator+=
PUBLIC	??ZMatrix4@@QAEAAV0@ABV0@@Z			; Matrix4::operator-=
PUBLIC	??XMatrix4@@QAEAAV0@M@Z				; Matrix4::operator*=
PUBLIC	??_0Matrix4@@QAEAAV0@M@Z			; Matrix4::operator/=
PUBLIC	?Transform_Vector@Matrix4@@SAXABV1@ABVVector3@@PAV2@@Z ; Matrix4::Transform_Vector
PUBLIC	?Transform_Vector@Matrix4@@SAXABV1@ABVVector3@@PAVVector4@@@Z ; Matrix4::Transform_Vector
PUBLIC	?Transform_Vector@Matrix4@@SAXABV1@ABVVector4@@PAV2@@Z ; Matrix4::Transform_Vector
PUBLIC	??0Matrix3@@QAE@XZ				; Matrix3::Matrix3
PUBLIC	??0Matrix3@@QAE@ABV0@@Z				; Matrix3::Matrix3
PUBLIC	??0Matrix3@@QAE@_N@Z				; Matrix3::Matrix3
PUBLIC	??0Matrix3@@QAE@ABVVector3@@00@Z		; Matrix3::Matrix3
PUBLIC	??0Matrix3@@QAE@MMMMMMMMM@Z			; Matrix3::Matrix3
PUBLIC	??0Matrix3@@QAE@ABVVector3@@M@Z			; Matrix3::Matrix3
PUBLIC	??0Matrix3@@QAE@ABVVector3@@MM@Z		; Matrix3::Matrix3
PUBLIC	??0Matrix3@@QAE@ABVQuaternion@@@Z		; Matrix3::Matrix3
PUBLIC	?Set@Matrix3@@QAEXABVVector3@@00@Z		; Matrix3::Set
PUBLIC	?Set@Matrix3@@QAEXMMMMMMMMM@Z			; Matrix3::Set
PUBLIC	?Set@Matrix3@@QAEXABVVector3@@M@Z		; Matrix3::Set
PUBLIC	?Set@Matrix3@@QAEXABVVector3@@MM@Z		; Matrix3::Set
PUBLIC	??AMatrix3@@QAEAAVVector3@@H@Z			; Matrix3::operator[]
PUBLIC	??AMatrix3@@QBEABVVector3@@H@Z			; Matrix3::operator[]
PUBLIC	?Transpose@Matrix3@@QBE?AV1@XZ			; Matrix3::Transpose
PUBLIC	?Determinant@Matrix3@@QBEMXZ			; Matrix3::Determinant
PUBLIC	??4Matrix3@@QAEAAV0@ABV0@@Z			; Matrix3::operator=
PUBLIC	??YMatrix3@@QAEAAV0@ABV0@@Z			; Matrix3::operator+=
PUBLIC	??ZMatrix3@@QAEAAV0@ABV0@@Z			; Matrix3::operator-=
PUBLIC	??XMatrix3@@QAEAAV0@M@Z				; Matrix3::operator*=
PUBLIC	??_0Matrix3@@QAEAAV0@M@Z			; Matrix3::operator/=
PUBLIC	?Make_Identity@Matrix3@@QAEXXZ			; Matrix3::Make_Identity
PUBLIC	?Rotate_X@Matrix3@@QAEXM@Z			; Matrix3::Rotate_X
PUBLIC	?Rotate_X@Matrix3@@QAEXMM@Z			; Matrix3::Rotate_X
PUBLIC	?Rotate_Y@Matrix3@@QAEXM@Z			; Matrix3::Rotate_Y
PUBLIC	?Rotate_Y@Matrix3@@QAEXMM@Z			; Matrix3::Rotate_Y
PUBLIC	?Rotate_Z@Matrix3@@QAEXM@Z			; Matrix3::Rotate_Z
PUBLIC	?Rotate_Z@Matrix3@@QAEXMM@Z			; Matrix3::Rotate_Z
PUBLIC	?Get_X_Rotation@Matrix3@@QBEMXZ			; Matrix3::Get_X_Rotation
PUBLIC	?Get_Y_Rotation@Matrix3@@QBEMXZ			; Matrix3::Get_Y_Rotation
PUBLIC	?Get_Z_Rotation@Matrix3@@QBEMXZ			; Matrix3::Get_Z_Rotation
PUBLIC	?Get_X_Vector@Matrix3@@QBE?AVVector3@@XZ	; Matrix3::Get_X_Vector
PUBLIC	?Get_Y_Vector@Matrix3@@QBE?AVVector3@@XZ	; Matrix3::Get_Y_Vector
PUBLIC	?Get_Z_Vector@Matrix3@@QBE?AVVector3@@XZ	; Matrix3::Get_Z_Vector
PUBLIC	?Get_X_Vector@Matrix3@@QBEXPAVVector3@@@Z	; Matrix3::Get_X_Vector
PUBLIC	?Get_Y_Vector@Matrix3@@QBEXPAVVector3@@@Z	; Matrix3::Get_Y_Vector
PUBLIC	?Get_Z_Vector@Matrix3@@QBEXPAVVector3@@@Z	; Matrix3::Get_Z_Vector
PUBLIC	??D@YA?AVVector3@@ABVMatrix3@@ABV0@@Z		; operator*
PUBLIC	?Add@Matrix3@@SAXABV1@0PAV1@@Z			; Matrix3::Add
PUBLIC	?Subtract@Matrix3@@SAXABV1@0PAV1@@Z		; Matrix3::Subtract
PUBLIC	?Rotate_Vector@Matrix3@@SAXABV1@ABVVector3@@PAV2@@Z ; Matrix3::Rotate_Vector
PUBLIC	?Transpose_Rotate_Vector@Matrix3@@SAXABV1@ABVVector3@@PAV2@@Z ; Matrix3::Transpose_Rotate_Vector
PUBLIC	?Rotate_AABox_Extent@Matrix3@@QAEXABVVector3@@PAV2@@Z ; Matrix3::Rotate_AABox_Extent
PUBLIC	?Inverse@Matrix3@@QBE?AV1@XZ			; Matrix3::Inverse
PUBLIC	??4SysTimeClass@@QAEAAV0@ABV0@@Z		; SysTimeClass::operator=
PUBLIC	??0PostLoadableClass@@QAE@XZ			; PostLoadableClass::PostLoadableClass
PUBLIC	??1PostLoadableClass@@UAE@XZ			; PostLoadableClass::~PostLoadableClass
PUBLIC	?On_Post_Load@PostLoadableClass@@UAEXXZ		; PostLoadableClass::On_Post_Load
PUBLIC	?Is_Post_Load_Registered@PostLoadableClass@@QBE_NXZ ; PostLoadableClass::Is_Post_Load_Registered
PUBLIC	?Set_Post_Load_Registered@PostLoadableClass@@QAEX_N@Z ; PostLoadableClass::Set_Post_Load_Registered
PUBLIC	??0PostLoadableClass@@QAE@ABV0@@Z		; PostLoadableClass::PostLoadableClass
PUBLIC	??4PostLoadableClass@@QAEAAV0@ABV0@@Z		; PostLoadableClass::operator=
PUBLIC	??_GPostLoadableClass@@UAEPAXI@Z		; PostLoadableClass::`scalar deleting destructor'
PUBLIC	??_EPostLoadableClass@@UAEPAXI@Z		; PostLoadableClass::`vector deleting destructor'
PUBLIC	??CReferencerClass@@QAEPAVScriptableGameObj@@XZ	; ReferencerClass::operator->
PUBLIC	??0ReferencerClass@@QAE@XZ			; ReferencerClass::ReferencerClass
PUBLIC	??0ReferencerClass@@QAE@PAVScriptableGameObj@@@Z ; ReferencerClass::ReferencerClass
PUBLIC	?Get_Ptr@ReferencerClass@@QBEPAVScriptableGameObj@@XZ ; ReferencerClass::Get_Ptr
PUBLIC	?Set_Ptr@ReferencerClass@@QAEXPAVScriptableGameObj@@@Z ; ReferencerClass::Set_Ptr
PUBLIC	??0ReferencerClass@@QAE@ABV0@@Z			; ReferencerClass::ReferencerClass
PUBLIC	??_GReferencerClass@@UAEPAXI@Z			; ReferencerClass::`scalar deleting destructor'
PUBLIC	??_EReferencerClass@@UAEPAXI@Z			; ReferencerClass::`vector deleting destructor'
PUBLIC	?Get_Data@?$ReferenceableClass@VScriptableGameObj@@@@IBEPAVScriptableGameObj@@XZ ; ReferenceableClass<ScriptableGameObj>::Get_Data
PUBLIC	??0LineSegClass@@QAE@XZ				; LineSegClass::LineSegClass
PUBLIC	??0LineSegClass@@QAE@ABVVector3@@0@Z		; LineSegClass::LineSegClass
PUBLIC	??0LineSegClass@@QAE@ABVVector3@@0M@Z		; LineSegClass::LineSegClass
PUBLIC	??0LineSegClass@@QAE@ABV0@ABVMatrix3D@@@Z	; LineSegClass::LineSegClass
PUBLIC	?Set@LineSegClass@@QAEXABVVector3@@0@Z		; LineSegClass::Set
PUBLIC	?Set@LineSegClass@@QAEXABVVector3@@0M@Z		; LineSegClass::Set
PUBLIC	?Get_P0@LineSegClass@@QBEABVVector3@@XZ		; LineSegClass::Get_P0
PUBLIC	?Get_P1@LineSegClass@@QBEABVVector3@@XZ		; LineSegClass::Get_P1
PUBLIC	?Get_DP@LineSegClass@@QBEABVVector3@@XZ		; LineSegClass::Get_DP
PUBLIC	?Get_Dir@LineSegClass@@QBEABVVector3@@XZ	; LineSegClass::Get_Dir
PUBLIC	?Get_Length@LineSegClass@@QBEMXZ		; LineSegClass::Get_Length
PUBLIC	?Compute_Point@LineSegClass@@QBEXMPAVVector3@@@Z ; LineSegClass::Compute_Point
PUBLIC	?recalculate@LineSegClass@@IAEXXZ		; LineSegClass::recalculate
PUBLIC	??0LineSegClass@@QAE@ABV0@@Z			; LineSegClass::LineSegClass
PUBLIC	??4LineSegClass@@QAEAAV0@ABV0@@Z		; LineSegClass::operator=
PUBLIC	?Get_Position@PhysClass@@QBEXPAVVector3@@@Z	; PhysClass::Get_Position
PUBLIC	?Peek_Physical_Object@PhysicalGameObj@@QBEPAVPhysClass@@XZ ; PhysicalGameObj::Peek_Physical_Object
PUBLIC	?Get_Position@PhysicalGameObj@@QAE?AVVector3@@XZ ; PhysicalGameObj::Get_Position
PUBLIC	?Clear_Animation@PhysicalGameObj@@QAEXXZ	; PhysicalGameObj::Clear_Animation
PUBLIC	??2?$AutoPoolClass@VGenericSLNode@@$0BAA@@@SAPAXIPBDI0@Z ; AutoPoolClass<GenericSLNode,256>::operator new
PUBLIC	??3?$AutoPoolClass@VGenericSLNode@@$0BAA@@@SAXPAX@Z ; AutoPoolClass<GenericSLNode,256>::operator delete
PUBLIC	??0GenericSLNode@@IAE@PAX@Z			; GenericSLNode::GenericSLNode
PUBLIC	??0JFW_Key_Hook_Base@@QAE@XZ			; JFW_Key_Hook_Base::JFW_Key_Hook_Base
PUBLIC	??0JFW_Key_Hook_Base@@QAE@ABV0@@Z		; JFW_Key_Hook_Base::JFW_Key_Hook_Base
PUBLIC	??4JFW_Key_Hook_Base@@QAEAAV0@ABV0@@Z		; JFW_Key_Hook_Base::operator=
PUBLIC	??_GJFW_Key_Hook_Base@@UAEPAXI@Z		; JFW_Key_Hook_Base::`scalar deleting destructor'
PUBLIC	??_EJFW_Key_Hook_Base@@UAEPAXI@Z		; JFW_Key_Hook_Base::`vector deleting destructor'
PUBLIC	??0?$SList@UKeyHookWrapperStruct@MultiKeyHookScriptImpClass@@@@QAE@XZ ; SList<MultiKeyHookScriptImpClass::KeyHookWrapperStruct>::SList<MultiKeyHookScriptImpClass::KeyHookWrapperStruct>
PUBLIC	??1?$SList@UKeyHookWrapperStruct@MultiKeyHookScriptImpClass@@@@UAE@XZ ; SList<MultiKeyHookScriptImpClass::KeyHookWrapperStruct>::~SList<MultiKeyHookScriptImpClass::KeyHookWrapperStruct>
PUBLIC	?Add_Head@?$SList@UKeyHookWrapperStruct@MultiKeyHookScriptImpClass@@@@UAE_NPAUKeyHookWrapperStruct@MultiKeyHookScriptImpClass@@@Z ; SList<MultiKeyHookScriptImpClass::KeyHookWrapperStruct>::Add_Head
PUBLIC	?Add_Head@?$SList@UKeyHookWrapperStruct@MultiKeyHookScriptImpClass@@@@UAE_NAAV1@@Z ; SList<MultiKeyHookScriptImpClass::KeyHookWrapperStruct>::Add_Head
PUBLIC	?Add_Tail@?$SList@UKeyHookWrapperStruct@MultiKeyHookScriptImpClass@@@@UAE_NPAUKeyHookWrapperStruct@MultiKeyHookScriptImpClass@@@Z ; SList<MultiKeyHookScriptImpClass::KeyHookWrapperStruct>::Add_Tail
PUBLIC	?Add_Tail@?$SList@UKeyHookWrapperStruct@MultiKeyHookScriptImpClass@@@@UAE_NAAV1@@Z ; SList<MultiKeyHookScriptImpClass::KeyHookWrapperStruct>::Add_Tail
PUBLIC	?Remove_Head@?$SList@UKeyHookWrapperStruct@MultiKeyHookScriptImpClass@@@@UAEPAUKeyHookWrapperStruct@MultiKeyHookScriptImpClass@@XZ ; SList<MultiKeyHookScriptImpClass::KeyHookWrapperStruct>::Remove_Head
PUBLIC	?Remove_Tail@?$SList@UKeyHookWrapperStruct@MultiKeyHookScriptImpClass@@@@UAEPAUKeyHookWrapperStruct@MultiKeyHookScriptImpClass@@XZ ; SList<MultiKeyHookScriptImpClass::KeyHookWrapperStruct>::Remove_Tail
PUBLIC	?Remove@?$SList@UKeyHookWrapperStruct@MultiKeyHookScriptImpClass@@@@UAE_NPBUKeyHookWrapperStruct@MultiKeyHookScriptImpClass@@@Z ; SList<MultiKeyHookScriptImpClass::KeyHookWrapperStruct>::Remove
PUBLIC	?Remove_All@?$SList@UKeyHookWrapperStruct@MultiKeyHookScriptImpClass@@@@UAEXXZ ; SList<MultiKeyHookScriptImpClass::KeyHookWrapperStruct>::Remove_All
PUBLIC	?Insert_Before@?$SList@UKeyHookWrapperStruct@MultiKeyHookScriptImpClass@@@@UAE_NPAUKeyHookWrapperStruct@MultiKeyHookScriptImpClass@@PBU23@@Z ; SList<MultiKeyHookScriptImpClass::KeyHookWrapperStruct>::Insert_Before
PUBLIC	?Insert_After@?$SList@UKeyHookWrapperStruct@MultiKeyHookScriptImpClass@@@@UAE_NPAUKeyHookWrapperStruct@MultiKeyHookScriptImpClass@@PBU23@@Z ; SList<MultiKeyHookScriptImpClass::KeyHookWrapperStruct>::Insert_After
PUBLIC	?Is_Empty@?$SList@UKeyHookWrapperStruct@MultiKeyHookScriptImpClass@@@@UBE_NXZ ; SList<MultiKeyHookScriptImpClass::KeyHookWrapperStruct>::Is_Empty
PUBLIC	?Get_Count@?$SList@UKeyHookWrapperStruct@MultiKeyHookScriptImpClass@@@@UBEIXZ ; SList<MultiKeyHookScriptImpClass::KeyHookWrapperStruct>::Get_Count
PUBLIC	??0?$SList@UKeyHookWrapperStruct@MultiKeyHookScriptImpClass@@@@QAE@ABV0@@Z ; SList<MultiKeyHookScriptImpClass::KeyHookWrapperStruct>::SList<MultiKeyHookScriptImpClass::KeyHookWrapperStruct>
PUBLIC	??4?$SList@UKeyHookWrapperStruct@MultiKeyHookScriptImpClass@@@@QAEAAV0@ABV0@@Z ; SList<MultiKeyHookScriptImpClass::KeyHookWrapperStruct>::operator=
PUBLIC	??_G?$SList@UKeyHookWrapperStruct@MultiKeyHookScriptImpClass@@@@UAEPAXI@Z ; SList<MultiKeyHookScriptImpClass::KeyHookWrapperStruct>::`scalar deleting destructor'
PUBLIC	??0MultiKeyHookScriptImpClass@@QAE@XZ		; MultiKeyHookScriptImpClass::MultiKeyHookScriptImpClass
PUBLIC	??1MultiKeyHookScriptImpClass@@UAE@XZ		; MultiKeyHookScriptImpClass::~MultiKeyHookScriptImpClass
PUBLIC	??0MultiKeyHookScriptImpClass@@QAE@ABV0@@Z	; MultiKeyHookScriptImpClass::MultiKeyHookScriptImpClass
PUBLIC	??4MultiKeyHookScriptImpClass@@QAEAAV0@ABV0@@Z	; MultiKeyHookScriptImpClass::operator=
PUBLIC	??_GMultiKeyHookScriptImpClass@@UAEPAXI@Z	; MultiKeyHookScriptImpClass::`scalar deleting destructor'
PUBLIC	??_EMultiKeyHookScriptImpClass@@UAEPAXI@Z	; MultiKeyHookScriptImpClass::`vector deleting destructor'
PUBLIC	??0JFW_Object_Created_Hook_Base@@QAE@XZ		; JFW_Object_Created_Hook_Base::JFW_Object_Created_Hook_Base
PUBLIC	??0JFW_Object_Created_Hook_Base@@QAE@ABV0@@Z	; JFW_Object_Created_Hook_Base::JFW_Object_Created_Hook_Base
PUBLIC	??4JFW_Object_Created_Hook_Base@@QAEAAV0@ABV0@@Z ; JFW_Object_Created_Hook_Base::operator=
PUBLIC	??_GJFW_Object_Created_Hook_Base@@UAEPAXI@Z	; JFW_Object_Created_Hook_Base::`scalar deleting destructor'
PUBLIC	??_EJFW_Object_Created_Hook_Base@@UAEPAXI@Z	; JFW_Object_Created_Hook_Base::`vector deleting destructor'
PUBLIC	?Custom@JFW_Custom_Toggle_Radar@@EAEXPAVScriptableGameObj@@HH0@Z ; JFW_Custom_Toggle_Radar::Custom
PUBLIC	??0JFW_Custom_Toggle_Radar@@QAE@XZ		; JFW_Custom_Toggle_Radar::JFW_Custom_Toggle_Radar
PUBLIC	??1JFW_Custom_Toggle_Radar@@UAE@XZ		; JFW_Custom_Toggle_Radar::~JFW_Custom_Toggle_Radar
PUBLIC	??_GJFW_Custom_Toggle_Radar@@UAEPAXI@Z		; JFW_Custom_Toggle_Radar::`scalar deleting destructor'
PUBLIC	?Custom@JFW_Reflect_Custom@@EAEXPAVScriptableGameObj@@HH0@Z ; JFW_Reflect_Custom::Custom
PUBLIC	??0JFW_Reflect_Custom@@QAE@XZ			; JFW_Reflect_Custom::JFW_Reflect_Custom
PUBLIC	??1JFW_Reflect_Custom@@UAE@XZ			; JFW_Reflect_Custom::~JFW_Reflect_Custom
PUBLIC	??_GJFW_Reflect_Custom@@UAEPAXI@Z		; JFW_Reflect_Custom::`scalar deleting destructor'
PUBLIC	?Custom@JFW_Reflect_Custom_Delay@@EAEXPAVScriptableGameObj@@HH0@Z ; JFW_Reflect_Custom_Delay::Custom
PUBLIC	??0JFW_Reflect_Custom_Delay@@QAE@XZ		; JFW_Reflect_Custom_Delay::JFW_Reflect_Custom_Delay
PUBLIC	??1JFW_Reflect_Custom_Delay@@UAE@XZ		; JFW_Reflect_Custom_Delay::~JFW_Reflect_Custom_Delay
PUBLIC	??_GJFW_Reflect_Custom_Delay@@UAEPAXI@Z		; JFW_Reflect_Custom_Delay::`scalar deleting destructor'
PUBLIC	?Custom@JFW_Custom_Destroy_Object@@EAEXPAVScriptableGameObj@@HH0@Z ; JFW_Custom_Destroy_Object::Custom
PUBLIC	??0JFW_Custom_Destroy_Object@@QAE@XZ		; JFW_Custom_Destroy_Object::JFW_Custom_Destroy_Object
PUBLIC	??1JFW_Custom_Destroy_Object@@UAE@XZ		; JFW_Custom_Destroy_Object::~JFW_Custom_Destroy_Object
PUBLIC	??_GJFW_Custom_Destroy_Object@@UAEPAXI@Z	; JFW_Custom_Destroy_Object::`scalar deleting destructor'
PUBLIC	?Custom@JFW_Custom_Objectives_Dlg@@EAEXPAVScriptableGameObj@@HH0@Z ; JFW_Custom_Objectives_Dlg::Custom
PUBLIC	??0JFW_Custom_Objectives_Dlg@@QAE@XZ		; JFW_Custom_Objectives_Dlg::JFW_Custom_Objectives_Dlg
PUBLIC	??1JFW_Custom_Objectives_Dlg@@UAE@XZ		; JFW_Custom_Objectives_Dlg::~JFW_Custom_Objectives_Dlg
PUBLIC	??_GJFW_Custom_Objectives_Dlg@@UAEPAXI@Z	; JFW_Custom_Objectives_Dlg::`scalar deleting destructor'
PUBLIC	?Killed@JFW_Death_Send_Custom@@EAEXPAVScriptableGameObj@@0@Z ; JFW_Death_Send_Custom::Killed
PUBLIC	??0JFW_Death_Send_Custom@@QAE@XZ		; JFW_Death_Send_Custom::JFW_Death_Send_Custom
PUBLIC	??1JFW_Death_Send_Custom@@UAE@XZ		; JFW_Death_Send_Custom::~JFW_Death_Send_Custom
PUBLIC	??_GJFW_Death_Send_Custom@@UAEPAXI@Z		; JFW_Death_Send_Custom::`scalar deleting destructor'
PUBLIC	?Custom@JFW_Custom_Destroy_Building@@EAEXPAVScriptableGameObj@@HH0@Z ; JFW_Custom_Destroy_Building::Custom
PUBLIC	??0JFW_Custom_Destroy_Building@@QAE@XZ		; JFW_Custom_Destroy_Building::JFW_Custom_Destroy_Building
PUBLIC	??1JFW_Custom_Destroy_Building@@UAE@XZ		; JFW_Custom_Destroy_Building::~JFW_Custom_Destroy_Building
PUBLIC	??_GJFW_Custom_Destroy_Building@@UAEPAXI@Z	; JFW_Custom_Destroy_Building::`scalar deleting destructor'
PUBLIC	?Created@JFW_Timer_Custom@@EAEXPAVScriptableGameObj@@@Z ; JFW_Timer_Custom::Created
PUBLIC	?Timer_Expired@JFW_Timer_Custom@@EAEXPAVScriptableGameObj@@H@Z ; JFW_Timer_Custom::Timer_Expired
PUBLIC	??0JFW_Timer_Custom@@QAE@XZ			; JFW_Timer_Custom::JFW_Timer_Custom
PUBLIC	??1JFW_Timer_Custom@@UAE@XZ			; JFW_Timer_Custom::~JFW_Timer_Custom
PUBLIC	??_GJFW_Timer_Custom@@UAEPAXI@Z			; JFW_Timer_Custom::`scalar deleting destructor'
PUBLIC	?Custom@JFW_2D_Sound_Custom@@EAEXPAVScriptableGameObj@@HH0@Z ; JFW_2D_Sound_Custom::Custom
PUBLIC	??0JFW_2D_Sound_Custom@@QAE@XZ			; JFW_2D_Sound_Custom::JFW_2D_Sound_Custom
PUBLIC	??1JFW_2D_Sound_Custom@@UAE@XZ			; JFW_2D_Sound_Custom::~JFW_2D_Sound_Custom
PUBLIC	??_GJFW_2D_Sound_Custom@@UAEPAXI@Z		; JFW_2D_Sound_Custom::`scalar deleting destructor'
PUBLIC	?Custom@JFW_3D_Sound_Custom_2@@EAEXPAVScriptableGameObj@@HH0@Z ; JFW_3D_Sound_Custom_2::Custom
PUBLIC	??0JFW_3D_Sound_Custom_2@@QAE@XZ		; JFW_3D_Sound_Custom_2::JFW_3D_Sound_Custom_2
PUBLIC	??1JFW_3D_Sound_Custom_2@@UAE@XZ		; JFW_3D_Sound_Custom_2::~JFW_3D_Sound_Custom_2
PUBLIC	??_GJFW_3D_Sound_Custom_2@@UAEPAXI@Z		; JFW_3D_Sound_Custom_2::`scalar deleting destructor'
PUBLIC	?Custom@JFW_3D_Sound_Custom_Bone@@EAEXPAVScriptableGameObj@@HH0@Z ; JFW_3D_Sound_Custom_Bone::Custom
PUBLIC	??0JFW_3D_Sound_Custom_Bone@@QAE@XZ		; JFW_3D_Sound_Custom_Bone::JFW_3D_Sound_Custom_Bone
PUBLIC	??1JFW_3D_Sound_Custom_Bone@@UAE@XZ		; JFW_3D_Sound_Custom_Bone::~JFW_3D_Sound_Custom_Bone
PUBLIC	??_GJFW_3D_Sound_Custom_Bone@@UAEPAXI@Z		; JFW_3D_Sound_Custom_Bone::`scalar deleting destructor'
PUBLIC	?Created@JFW_Random_Custom@@EAEXPAVScriptableGameObj@@@Z ; JFW_Random_Custom::Created
PUBLIC	?Timer_Expired@JFW_Random_Custom@@EAEXPAVScriptableGameObj@@H@Z ; JFW_Random_Custom::Timer_Expired
PUBLIC	??0JFW_Random_Custom@@QAE@XZ			; JFW_Random_Custom::JFW_Random_Custom
PUBLIC	??1JFW_Random_Custom@@UAE@XZ			; JFW_Random_Custom::~JFW_Random_Custom
PUBLIC	??_GJFW_Random_Custom@@UAEPAXI@Z		; JFW_Random_Custom::`scalar deleting destructor'
PUBLIC	?Custom@JFW_Custom_Damage_Object@@EAEXPAVScriptableGameObj@@HH0@Z ; JFW_Custom_Damage_Object::Custom
PUBLIC	??0JFW_Custom_Damage_Object@@QAE@XZ		; JFW_Custom_Damage_Object::JFW_Custom_Damage_Object
PUBLIC	??1JFW_Custom_Damage_Object@@UAE@XZ		; JFW_Custom_Damage_Object::~JFW_Custom_Damage_Object
PUBLIC	??_GJFW_Custom_Damage_Object@@UAEPAXI@Z		; JFW_Custom_Damage_Object::`scalar deleting destructor'
PUBLIC	?Custom@JFW_Blow_Up_On_Custom@@EAEXPAVScriptableGameObj@@HH0@Z ; JFW_Blow_Up_On_Custom::Custom
PUBLIC	??0JFW_Blow_Up_On_Custom@@QAE@XZ		; JFW_Blow_Up_On_Custom::JFW_Blow_Up_On_Custom
PUBLIC	??1JFW_Blow_Up_On_Custom@@UAE@XZ		; JFW_Blow_Up_On_Custom::~JFW_Blow_Up_On_Custom
PUBLIC	??_GJFW_Blow_Up_On_Custom@@UAEPAXI@Z		; JFW_Blow_Up_On_Custom::`scalar deleting destructor'
PUBLIC	?Custom@JFW_Blow_Up_Obj_On_Custom@@EAEXPAVScriptableGameObj@@HH0@Z ; JFW_Blow_Up_Obj_On_Custom::Custom
PUBLIC	??0JFW_Blow_Up_Obj_On_Custom@@QAE@XZ		; JFW_Blow_Up_Obj_On_Custom::JFW_Blow_Up_Obj_On_Custom
PUBLIC	??1JFW_Blow_Up_Obj_On_Custom@@UAE@XZ		; JFW_Blow_Up_Obj_On_Custom::~JFW_Blow_Up_Obj_On_Custom
PUBLIC	??_GJFW_Blow_Up_Obj_On_Custom@@UAEPAXI@Z	; JFW_Blow_Up_Obj_On_Custom::`scalar deleting destructor'
PUBLIC	?Custom@JFW_Delay_Custom@@EAEXPAVScriptableGameObj@@HH0@Z ; JFW_Delay_Custom::Custom
PUBLIC	??0JFW_Delay_Custom@@QAE@XZ			; JFW_Delay_Custom::JFW_Delay_Custom
PUBLIC	??1JFW_Delay_Custom@@UAE@XZ			; JFW_Delay_Custom::~JFW_Delay_Custom
PUBLIC	??_GJFW_Delay_Custom@@UAEPAXI@Z			; JFW_Delay_Custom::`scalar deleting destructor'
PUBLIC	?Created@JFW_Startup_Custom@@EAEXPAVScriptableGameObj@@@Z ; JFW_Startup_Custom::Created
PUBLIC	??0JFW_Startup_Custom@@QAE@XZ			; JFW_Startup_Custom::JFW_Startup_Custom
PUBLIC	??1JFW_Startup_Custom@@UAE@XZ			; JFW_Startup_Custom::~JFW_Startup_Custom
PUBLIC	??_GJFW_Startup_Custom@@UAEPAXI@Z		; JFW_Startup_Custom::`scalar deleting destructor'
PUBLIC	?Custom@JFW_Teleport_Custom@@EAEXPAVScriptableGameObj@@HH0@Z ; JFW_Teleport_Custom::Custom
PUBLIC	??0JFW_Teleport_Custom@@QAE@XZ			; JFW_Teleport_Custom::JFW_Teleport_Custom
PUBLIC	??1JFW_Teleport_Custom@@UAE@XZ			; JFW_Teleport_Custom::~JFW_Teleport_Custom
PUBLIC	??_GJFW_Teleport_Custom@@UAEPAXI@Z		; JFW_Teleport_Custom::`scalar deleting destructor'
PUBLIC	?Custom@JFW_Teleport_Custom_Random@@EAEXPAVScriptableGameObj@@HH0@Z ; JFW_Teleport_Custom_Random::Custom
PUBLIC	??0JFW_Teleport_Custom_Random@@QAE@XZ		; JFW_Teleport_Custom_Random::JFW_Teleport_Custom_Random
PUBLIC	??1JFW_Teleport_Custom_Random@@UAE@XZ		; JFW_Teleport_Custom_Random::~JFW_Teleport_Custom_Random
PUBLIC	??_GJFW_Teleport_Custom_Random@@UAEPAXI@Z	; JFW_Teleport_Custom_Random::`scalar deleting destructor'
PUBLIC	?Created@JFW_Teleport_Custom_Timer@@EAEXPAVScriptableGameObj@@@Z ; JFW_Teleport_Custom_Timer::Created
PUBLIC	?Custom@JFW_Teleport_Custom_Timer@@EAEXPAVScriptableGameObj@@HH0@Z ; JFW_Teleport_Custom_Timer::Custom
PUBLIC	?Timer_Expired@JFW_Teleport_Custom_Timer@@EAEXPAVScriptableGameObj@@H@Z ; JFW_Teleport_Custom_Timer::Timer_Expired
PUBLIC	?Register_Auto_Save_Variables@JFW_Teleport_Custom_Timer@@UAEXXZ ; JFW_Teleport_Custom_Timer::Register_Auto_Save_Variables
PUBLIC	??0JFW_Teleport_Custom_Timer@@QAE@XZ		; JFW_Teleport_Custom_Timer::JFW_Teleport_Custom_Timer
PUBLIC	??1JFW_Teleport_Custom_Timer@@UAE@XZ		; JFW_Teleport_Custom_Timer::~JFW_Teleport_Custom_Timer
PUBLIC	??_GJFW_Teleport_Custom_Timer@@UAEPAXI@Z	; JFW_Teleport_Custom_Timer::`scalar deleting destructor'
PUBLIC	?Custom@JFW_Blow_Up_Location_On_Custom@@EAEXPAVScriptableGameObj@@HH0@Z ; JFW_Blow_Up_Location_On_Custom::Custom
PUBLIC	??0JFW_Blow_Up_Location_On_Custom@@QAE@XZ	; JFW_Blow_Up_Location_On_Custom::JFW_Blow_Up_Location_On_Custom
PUBLIC	??1JFW_Blow_Up_Location_On_Custom@@UAE@XZ	; JFW_Blow_Up_Location_On_Custom::~JFW_Blow_Up_Location_On_Custom
PUBLIC	??_GJFW_Blow_Up_Location_On_Custom@@UAEPAXI@Z	; JFW_Blow_Up_Location_On_Custom::`scalar deleting destructor'
PUBLIC	?Custom@JFW_3D_Sound_Custom@@EAEXPAVScriptableGameObj@@HH0@Z ; JFW_3D_Sound_Custom::Custom
PUBLIC	??0JFW_3D_Sound_Custom@@QAE@XZ			; JFW_3D_Sound_Custom::JFW_3D_Sound_Custom
PUBLIC	??1JFW_3D_Sound_Custom@@UAE@XZ			; JFW_3D_Sound_Custom::~JFW_3D_Sound_Custom
PUBLIC	??_GJFW_3D_Sound_Custom@@UAEPAXI@Z		; JFW_3D_Sound_Custom::`scalar deleting destructor'
PUBLIC	?Created@JFW_Created_Send_Custom@@EAEXPAVScriptableGameObj@@@Z ; JFW_Created_Send_Custom::Created
PUBLIC	??0JFW_Created_Send_Custom@@QAE@XZ		; JFW_Created_Send_Custom::JFW_Created_Send_Custom
PUBLIC	??1JFW_Created_Send_Custom@@UAE@XZ		; JFW_Created_Send_Custom::~JFW_Created_Send_Custom
PUBLIC	??_GJFW_Created_Send_Custom@@UAEPAXI@Z		; JFW_Created_Send_Custom::`scalar deleting destructor'
PUBLIC	?Damaged@JFW_Damaged_Send_Custom@@EAEXPAVScriptableGameObj@@0M@Z ; JFW_Damaged_Send_Custom::Damaged
PUBLIC	??0JFW_Damaged_Send_Custom@@QAE@XZ		; JFW_Damaged_Send_Custom::JFW_Damaged_Send_Custom
PUBLIC	??1JFW_Damaged_Send_Custom@@UAE@XZ		; JFW_Damaged_Send_Custom::~JFW_Damaged_Send_Custom
PUBLIC	??_GJFW_Damaged_Send_Custom@@UAEPAXI@Z		; JFW_Damaged_Send_Custom::`scalar deleting destructor'
PUBLIC	?Created@JFW_Enemy_Seen_Send_Custom@@EAEXPAVScriptableGameObj@@@Z ; JFW_Enemy_Seen_Send_Custom::Created
PUBLIC	?Enemy_Seen@JFW_Enemy_Seen_Send_Custom@@EAEXPAVScriptableGameObj@@0@Z ; JFW_Enemy_Seen_Send_Custom::Enemy_Seen
PUBLIC	??0JFW_Enemy_Seen_Send_Custom@@QAE@XZ		; JFW_Enemy_Seen_Send_Custom::JFW_Enemy_Seen_Send_Custom
PUBLIC	??1JFW_Enemy_Seen_Send_Custom@@UAE@XZ		; JFW_Enemy_Seen_Send_Custom::~JFW_Enemy_Seen_Send_Custom
PUBLIC	??_GJFW_Enemy_Seen_Send_Custom@@UAEPAXI@Z	; JFW_Enemy_Seen_Send_Custom::`scalar deleting destructor'
PUBLIC	?Custom@JFW_Create_Object_Custom@@EAEXPAVScriptableGameObj@@HH0@Z ; JFW_Create_Object_Custom::Custom
PUBLIC	??0JFW_Create_Object_Custom@@QAE@XZ		; JFW_Create_Object_Custom::JFW_Create_Object_Custom
PUBLIC	??1JFW_Create_Object_Custom@@UAE@XZ		; JFW_Create_Object_Custom::~JFW_Create_Object_Custom
PUBLIC	??_GJFW_Create_Object_Custom@@UAEPAXI@Z		; JFW_Create_Object_Custom::`scalar deleting destructor'
PUBLIC	?Custom@JFW_Enable_Spawner_On_Custom@@EAEXPAVScriptableGameObj@@HH0@Z ; JFW_Enable_Spawner_On_Custom::Custom
PUBLIC	??0JFW_Enable_Spawner_On_Custom@@QAE@XZ		; JFW_Enable_Spawner_On_Custom::JFW_Enable_Spawner_On_Custom
PUBLIC	??1JFW_Enable_Spawner_On_Custom@@UAE@XZ		; JFW_Enable_Spawner_On_Custom::~JFW_Enable_Spawner_On_Custom
PUBLIC	??_GJFW_Enable_Spawner_On_Custom@@UAEPAXI@Z	; JFW_Enable_Spawner_On_Custom::`scalar deleting destructor'
PUBLIC	?Custom@JFW_Set_Animation_On_Custom@@EAEXPAVScriptableGameObj@@HH0@Z ; JFW_Set_Animation_On_Custom::Custom
PUBLIC	??0JFW_Set_Animation_On_Custom@@QAE@XZ		; JFW_Set_Animation_On_Custom::JFW_Set_Animation_On_Custom
PUBLIC	??1JFW_Set_Animation_On_Custom@@UAE@XZ		; JFW_Set_Animation_On_Custom::~JFW_Set_Animation_On_Custom
PUBLIC	??_GJFW_Set_Animation_On_Custom@@UAEPAXI@Z	; JFW_Set_Animation_On_Custom::`scalar deleting destructor'
PUBLIC	?Custom@JFW_Set_Model_Animation_On_Custom@@EAEXPAVScriptableGameObj@@HH0@Z ; JFW_Set_Model_Animation_On_Custom::Custom
PUBLIC	??0JFW_Set_Model_Animation_On_Custom@@QAE@XZ	; JFW_Set_Model_Animation_On_Custom::JFW_Set_Model_Animation_On_Custom
PUBLIC	??1JFW_Set_Model_Animation_On_Custom@@UAE@XZ	; JFW_Set_Model_Animation_On_Custom::~JFW_Set_Model_Animation_On_Custom
PUBLIC	??_GJFW_Set_Model_Animation_On_Custom@@UAEPAXI@Z ; JFW_Set_Model_Animation_On_Custom::`scalar deleting destructor'
PUBLIC	?Custom@JFW_Set_Model_On_Custom@@EAEXPAVScriptableGameObj@@HH0@Z ; JFW_Set_Model_On_Custom::Custom
PUBLIC	??0JFW_Set_Model_On_Custom@@QAE@XZ		; JFW_Set_Model_On_Custom::JFW_Set_Model_On_Custom
PUBLIC	??1JFW_Set_Model_On_Custom@@UAE@XZ		; JFW_Set_Model_On_Custom::~JFW_Set_Model_On_Custom
PUBLIC	??_GJFW_Set_Model_On_Custom@@UAEPAXI@Z		; JFW_Set_Model_On_Custom::`scalar deleting destructor'
PUBLIC	?Custom@JFW_Enable_Disable_Animation_On_Custom@@EAEXPAVScriptableGameObj@@HH0@Z ; JFW_Enable_Disable_Animation_On_Custom::Custom
PUBLIC	?Created@JFW_Enable_Disable_Animation_On_Custom@@EAEXPAVScriptableGameObj@@@Z ; JFW_Enable_Disable_Animation_On_Custom::Created
PUBLIC	?Register_Auto_Save_Variables@JFW_Enable_Disable_Animation_On_Custom@@UAEXXZ ; JFW_Enable_Disable_Animation_On_Custom::Register_Auto_Save_Variables
PUBLIC	??0JFW_Enable_Disable_Animation_On_Custom@@QAE@XZ ; JFW_Enable_Disable_Animation_On_Custom::JFW_Enable_Disable_Animation_On_Custom
PUBLIC	??1JFW_Enable_Disable_Animation_On_Custom@@UAE@XZ ; JFW_Enable_Disable_Animation_On_Custom::~JFW_Enable_Disable_Animation_On_Custom
PUBLIC	??_GJFW_Enable_Disable_Animation_On_Custom@@UAEPAXI@Z ; JFW_Enable_Disable_Animation_On_Custom::`scalar deleting destructor'
PUBLIC	?Custom@JFW_Custom_Toggle_Visible@@EAEXPAVScriptableGameObj@@HH0@Z ; JFW_Custom_Toggle_Visible::Custom
PUBLIC	??0JFW_Custom_Toggle_Visible@@QAE@XZ		; JFW_Custom_Toggle_Visible::JFW_Custom_Toggle_Visible
PUBLIC	??1JFW_Custom_Toggle_Visible@@UAE@XZ		; JFW_Custom_Toggle_Visible::~JFW_Custom_Toggle_Visible
PUBLIC	??_GJFW_Custom_Toggle_Visible@@UAEPAXI@Z	; JFW_Custom_Toggle_Visible::`scalar deleting destructor'
PUBLIC	?Created@JFW_Customs_Send_Custom@@EAEXPAVScriptableGameObj@@@Z ; JFW_Customs_Send_Custom::Created
PUBLIC	?Custom@JFW_Customs_Send_Custom@@EAEXPAVScriptableGameObj@@HH0@Z ; JFW_Customs_Send_Custom::Custom
PUBLIC	?Register_Auto_Save_Variables@JFW_Customs_Send_Custom@@UAEXXZ ; JFW_Customs_Send_Custom::Register_Auto_Save_Variables
PUBLIC	??0JFW_Customs_Send_Custom@@QAE@XZ		; JFW_Customs_Send_Custom::JFW_Customs_Send_Custom
PUBLIC	??1JFW_Customs_Send_Custom@@UAE@XZ		; JFW_Customs_Send_Custom::~JFW_Customs_Send_Custom
PUBLIC	??_GJFW_Customs_Send_Custom@@UAEPAXI@Z		; JFW_Customs_Send_Custom::`scalar deleting destructor'
PUBLIC	?Created@JFW_Custom_Multiple_Send_Custom@@EAEXPAVScriptableGameObj@@@Z ; JFW_Custom_Multiple_Send_Custom::Created
PUBLIC	?Custom@JFW_Custom_Multiple_Send_Custom@@EAEXPAVScriptableGameObj@@HH0@Z ; JFW_Custom_Multiple_Send_Custom::Custom
PUBLIC	?Register_Auto_Save_Variables@JFW_Custom_Multiple_Send_Custom@@UAEXXZ ; JFW_Custom_Multiple_Send_Custom::Register_Auto_Save_Variables
PUBLIC	??0JFW_Custom_Multiple_Send_Custom@@QAE@XZ	; JFW_Custom_Multiple_Send_Custom::JFW_Custom_Multiple_Send_Custom
PUBLIC	??1JFW_Custom_Multiple_Send_Custom@@UAE@XZ	; JFW_Custom_Multiple_Send_Custom::~JFW_Custom_Multiple_Send_Custom
PUBLIC	??_GJFW_Custom_Multiple_Send_Custom@@UAEPAXI@Z	; JFW_Custom_Multiple_Send_Custom::`scalar deleting destructor'
PUBLIC	?Created@JFW_Custom_Multiple_Send_Custom_2@@EAEXPAVScriptableGameObj@@@Z ; JFW_Custom_Multiple_Send_Custom_2::Created
PUBLIC	?Custom@JFW_Custom_Multiple_Send_Custom_2@@EAEXPAVScriptableGameObj@@HH0@Z ; JFW_Custom_Multiple_Send_Custom_2::Custom
PUBLIC	?Register_Auto_Save_Variables@JFW_Custom_Multiple_Send_Custom_2@@UAEXXZ ; JFW_Custom_Multiple_Send_Custom_2::Register_Auto_Save_Variables
PUBLIC	??0JFW_Custom_Multiple_Send_Custom_2@@QAE@XZ	; JFW_Custom_Multiple_Send_Custom_2::JFW_Custom_Multiple_Send_Custom_2
PUBLIC	??1JFW_Custom_Multiple_Send_Custom_2@@UAE@XZ	; JFW_Custom_Multiple_Send_Custom_2::~JFW_Custom_Multiple_Send_Custom_2
PUBLIC	??_GJFW_Custom_Multiple_Send_Custom_2@@UAEPAXI@Z ; JFW_Custom_Multiple_Send_Custom_2::`scalar deleting destructor'
PUBLIC	?Custom@JFW_Custom_Send_Custom@@EAEXPAVScriptableGameObj@@HH0@Z ; JFW_Custom_Send_Custom::Custom
PUBLIC	??0JFW_Custom_Send_Custom@@QAE@XZ		; JFW_Custom_Send_Custom::JFW_Custom_Send_Custom
PUBLIC	??1JFW_Custom_Send_Custom@@UAE@XZ		; JFW_Custom_Send_Custom::~JFW_Custom_Send_Custom
PUBLIC	??_GJFW_Custom_Send_Custom@@UAEPAXI@Z		; JFW_Custom_Send_Custom::`scalar deleting destructor'
PUBLIC	?Custom@JFW_Custom_Send_Random_Custom@@EAEXPAVScriptableGameObj@@HH0@Z ; JFW_Custom_Send_Random_Custom::Custom
PUBLIC	??0JFW_Custom_Send_Random_Custom@@QAE@XZ	; JFW_Custom_Send_Random_Custom::JFW_Custom_Send_Random_Custom
PUBLIC	??1JFW_Custom_Send_Random_Custom@@UAE@XZ	; JFW_Custom_Send_Random_Custom::~JFW_Custom_Send_Random_Custom
PUBLIC	??_GJFW_Custom_Send_Random_Custom@@UAEPAXI@Z	; JFW_Custom_Send_Random_Custom::`scalar deleting destructor'
PUBLIC	?Created@JFW_Create_Destroy_Object_On_Custom@@EAEXPAVScriptableGameObj@@@Z ; JFW_Create_Destroy_Object_On_Custom::Created
PUBLIC	?Custom@JFW_Create_Destroy_Object_On_Custom@@EAEXPAVScriptableGameObj@@HH0@Z ; JFW_Create_Destroy_Object_On_Custom::Custom
PUBLIC	?Register_Auto_Save_Variables@JFW_Create_Destroy_Object_On_Custom@@UAEXXZ ; JFW_Create_Destroy_Object_On_Custom::Register_Auto_Save_Variables
PUBLIC	??0JFW_Create_Destroy_Object_On_Custom@@QAE@XZ	; JFW_Create_Destroy_Object_On_Custom::JFW_Create_Destroy_Object_On_Custom
PUBLIC	??1JFW_Create_Destroy_Object_On_Custom@@UAE@XZ	; JFW_Create_Destroy_Object_On_Custom::~JFW_Create_Destroy_Object_On_Custom
PUBLIC	??_GJFW_Create_Destroy_Object_On_Custom@@UAEPAXI@Z ; JFW_Create_Destroy_Object_On_Custom::`scalar deleting destructor'
PUBLIC	?Created@JFW_Create_Destroy_Object_On_Custom_Animate@@EAEXPAVScriptableGameObj@@@Z ; JFW_Create_Destroy_Object_On_Custom_Animate::Created
PUBLIC	?Custom@JFW_Create_Destroy_Object_On_Custom_Animate@@EAEXPAVScriptableGameObj@@HH0@Z ; JFW_Create_Destroy_Object_On_Custom_Animate::Custom
PUBLIC	?Register_Auto_Save_Variables@JFW_Create_Destroy_Object_On_Custom_Animate@@UAEXXZ ; JFW_Create_Destroy_Object_On_Custom_Animate::Register_Auto_Save_Variables
PUBLIC	??0JFW_Create_Destroy_Object_On_Custom_Animate@@QAE@XZ ; JFW_Create_Destroy_Object_On_Custom_Animate::JFW_Create_Destroy_Object_On_Custom_Animate
PUBLIC	??1JFW_Create_Destroy_Object_On_Custom_Animate@@UAE@XZ ; JFW_Create_Destroy_Object_On_Custom_Animate::~JFW_Create_Destroy_Object_On_Custom_Animate
PUBLIC	??_GJFW_Create_Destroy_Object_On_Custom_Animate@@UAEPAXI@Z ; JFW_Create_Destroy_Object_On_Custom_Animate::`scalar deleting destructor'
PUBLIC	?Created@JFW_Create_Destroy_Object_On_Custom_Animate_2@@EAEXPAVScriptableGameObj@@@Z ; JFW_Create_Destroy_Object_On_Custom_Animate_2::Created
PUBLIC	?Custom@JFW_Create_Destroy_Object_On_Custom_Animate_2@@EAEXPAVScriptableGameObj@@HH0@Z ; JFW_Create_Destroy_Object_On_Custom_Animate_2::Custom
PUBLIC	?Timer_Expired@JFW_Create_Destroy_Object_On_Custom_Animate_2@@EAEXPAVScriptableGameObj@@H@Z ; JFW_Create_Destroy_Object_On_Custom_Animate_2::Timer_Expired
PUBLIC	?Register_Auto_Save_Variables@JFW_Create_Destroy_Object_On_Custom_Animate_2@@UAEXXZ ; JFW_Create_Destroy_Object_On_Custom_Animate_2::Register_Auto_Save_Variables
PUBLIC	??0JFW_Create_Destroy_Object_On_Custom_Animate_2@@QAE@XZ ; JFW_Create_Destroy_Object_On_Custom_Animate_2::JFW_Create_Destroy_Object_On_Custom_Animate_2
PUBLIC	??1JFW_Create_Destroy_Object_On_Custom_Animate_2@@UAE@XZ ; JFW_Create_Destroy_Object_On_Custom_Animate_2::~JFW_Create_Destroy_Object_On_Custom_Animate_2
PUBLIC	??_GJFW_Create_Destroy_Object_On_Custom_Animate_2@@UAEPAXI@Z ; JFW_Create_Destroy_Object_On_Custom_Animate_2::`scalar deleting destructor'
PUBLIC	?Damaged@JFW_Damaged_Send_Custom_Amount@@EAEXPAVScriptableGameObj@@0M@Z ; JFW_Damaged_Send_Custom_Amount::Damaged
PUBLIC	??0JFW_Damaged_Send_Custom_Amount@@QAE@XZ	; JFW_Damaged_Send_Custom_Amount::JFW_Damaged_Send_Custom_Amount
PUBLIC	??1JFW_Damaged_Send_Custom_Amount@@UAE@XZ	; JFW_Damaged_Send_Custom_Amount::~JFW_Damaged_Send_Custom_Amount
PUBLIC	??_GJFW_Damaged_Send_Custom_Amount@@UAEPAXI@Z	; JFW_Damaged_Send_Custom_Amount::`scalar deleting destructor'
PUBLIC	?Created@JFW_Invulnerable_On_Custom@@EAEXPAVScriptableGameObj@@@Z ; JFW_Invulnerable_On_Custom::Created
PUBLIC	?Custom@JFW_Invulnerable_On_Custom@@EAEXPAVScriptableGameObj@@HH0@Z ; JFW_Invulnerable_On_Custom::Custom
PUBLIC	?Damaged@JFW_Invulnerable_On_Custom@@EAEXPAVScriptableGameObj@@0M@Z ; JFW_Invulnerable_On_Custom::Damaged
PUBLIC	?Register_Auto_Save_Variables@JFW_Invulnerable_On_Custom@@UAEXXZ ; JFW_Invulnerable_On_Custom::Register_Auto_Save_Variables
PUBLIC	??0JFW_Invulnerable_On_Custom@@QAE@XZ		; JFW_Invulnerable_On_Custom::JFW_Invulnerable_On_Custom
PUBLIC	??1JFW_Invulnerable_On_Custom@@UAE@XZ		; JFW_Invulnerable_On_Custom::~JFW_Invulnerable_On_Custom
PUBLIC	??_GJFW_Invulnerable_On_Custom@@UAEPAXI@Z	; JFW_Invulnerable_On_Custom::`scalar deleting destructor'
PUBLIC	?Custom@JFW_Invulnerable_On_Custom_2@@EAEXPAVScriptableGameObj@@HH0@Z ; JFW_Invulnerable_On_Custom_2::Custom
PUBLIC	??0JFW_Invulnerable_On_Custom_2@@QAE@XZ		; JFW_Invulnerable_On_Custom_2::JFW_Invulnerable_On_Custom_2
PUBLIC	??1JFW_Invulnerable_On_Custom_2@@UAE@XZ		; JFW_Invulnerable_On_Custom_2::~JFW_Invulnerable_On_Custom_2
PUBLIC	??_GJFW_Invulnerable_On_Custom_2@@UAEPAXI@Z	; JFW_Invulnerable_On_Custom_2::`scalar deleting destructor'
PUBLIC	?Custom@JFW_Custom_Send_Custom_Parameter@@EAEXPAVScriptableGameObj@@HH0@Z ; JFW_Custom_Send_Custom_Parameter::Custom
PUBLIC	??0JFW_Custom_Send_Custom_Parameter@@QAE@XZ	; JFW_Custom_Send_Custom_Parameter::JFW_Custom_Send_Custom_Parameter
PUBLIC	??1JFW_Custom_Send_Custom_Parameter@@UAE@XZ	; JFW_Custom_Send_Custom_Parameter::~JFW_Custom_Send_Custom_Parameter
PUBLIC	??_GJFW_Custom_Send_Custom_Parameter@@UAEPAXI@Z	; JFW_Custom_Send_Custom_Parameter::`scalar deleting destructor'
PUBLIC	?Created@JFW_Create_Destroy_Object_On_Custom_Bone@@EAEXPAVScriptableGameObj@@@Z ; JFW_Create_Destroy_Object_On_Custom_Bone::Created
PUBLIC	?Custom@JFW_Create_Destroy_Object_On_Custom_Bone@@EAEXPAVScriptableGameObj@@HH0@Z ; JFW_Create_Destroy_Object_On_Custom_Bone::Custom
PUBLIC	?Register_Auto_Save_Variables@JFW_Create_Destroy_Object_On_Custom_Bone@@UAEXXZ ; JFW_Create_Destroy_Object_On_Custom_Bone::Register_Auto_Save_Variables
PUBLIC	??0JFW_Create_Destroy_Object_On_Custom_Bone@@QAE@XZ ; JFW_Create_Destroy_Object_On_Custom_Bone::JFW_Create_Destroy_Object_On_Custom_Bone
PUBLIC	??1JFW_Create_Destroy_Object_On_Custom_Bone@@UAE@XZ ; JFW_Create_Destroy_Object_On_Custom_Bone::~JFW_Create_Destroy_Object_On_Custom_Bone
PUBLIC	??_GJFW_Create_Destroy_Object_On_Custom_Bone@@UAEPAXI@Z ; JFW_Create_Destroy_Object_On_Custom_Bone::`scalar deleting destructor'
PUBLIC	?Created@JFW_Custom_Send_Ordered_Customs@@EAEXPAVScriptableGameObj@@@Z ; JFW_Custom_Send_Ordered_Customs::Created
PUBLIC	?Custom@JFW_Custom_Send_Ordered_Customs@@EAEXPAVScriptableGameObj@@HH0@Z ; JFW_Custom_Send_Ordered_Customs::Custom
PUBLIC	?Register_Auto_Save_Variables@JFW_Custom_Send_Ordered_Customs@@UAEXXZ ; JFW_Custom_Send_Ordered_Customs::Register_Auto_Save_Variables
PUBLIC	??0JFW_Custom_Send_Ordered_Customs@@QAE@XZ	; JFW_Custom_Send_Ordered_Customs::JFW_Custom_Send_Ordered_Customs
PUBLIC	??1JFW_Custom_Send_Ordered_Customs@@UAE@XZ	; JFW_Custom_Send_Ordered_Customs::~JFW_Custom_Send_Ordered_Customs
PUBLIC	??_GJFW_Custom_Send_Ordered_Customs@@UAEPAXI@Z	; JFW_Custom_Send_Ordered_Customs::`scalar deleting destructor'
PUBLIC	?Custom@JFW_Custom_Send_Customs@@EAEXPAVScriptableGameObj@@HH0@Z ; JFW_Custom_Send_Customs::Custom
PUBLIC	??0JFW_Custom_Send_Customs@@QAE@XZ		; JFW_Custom_Send_Customs::JFW_Custom_Send_Customs
PUBLIC	??1JFW_Custom_Send_Customs@@UAE@XZ		; JFW_Custom_Send_Customs::~JFW_Custom_Send_Customs
PUBLIC	??_GJFW_Custom_Send_Customs@@UAEPAXI@Z		; JFW_Custom_Send_Customs::`scalar deleting destructor'
PUBLIC	?Custom@JFW_Custom_Send_Custom_Multiple_IDs@@EAEXPAVScriptableGameObj@@HH0@Z ; JFW_Custom_Send_Custom_Multiple_IDs::Custom
PUBLIC	??0JFW_Custom_Send_Custom_Multiple_IDs@@QAE@XZ	; JFW_Custom_Send_Custom_Multiple_IDs::JFW_Custom_Send_Custom_Multiple_IDs
PUBLIC	??1JFW_Custom_Send_Custom_Multiple_IDs@@UAE@XZ	; JFW_Custom_Send_Custom_Multiple_IDs::~JFW_Custom_Send_Custom_Multiple_IDs
PUBLIC	??_GJFW_Custom_Send_Custom_Multiple_IDs@@UAEPAXI@Z ; JFW_Custom_Send_Custom_Multiple_IDs::`scalar deleting destructor'
PUBLIC	?Created@JFW_Create_Destroy_Object_On_Custom_Death@@EAEXPAVScriptableGameObj@@@Z ; JFW_Create_Destroy_Object_On_Custom_Death::Created
PUBLIC	?Killed@JFW_Create_Destroy_Object_On_Custom_Death@@EAEXPAVScriptableGameObj@@0@Z ; JFW_Create_Destroy_Object_On_Custom_Death::Killed
PUBLIC	?Custom@JFW_Create_Destroy_Object_On_Custom_Death@@EAEXPAVScriptableGameObj@@HH0@Z ; JFW_Create_Destroy_Object_On_Custom_Death::Custom
PUBLIC	?Register_Auto_Save_Variables@JFW_Create_Destroy_Object_On_Custom_Death@@UAEXXZ ; JFW_Create_Destroy_Object_On_Custom_Death::Register_Auto_Save_Variables
PUBLIC	??0JFW_Create_Destroy_Object_On_Custom_Death@@QAE@XZ ; JFW_Create_Destroy_Object_On_Custom_Death::JFW_Create_Destroy_Object_On_Custom_Death
PUBLIC	??1JFW_Create_Destroy_Object_On_Custom_Death@@UAE@XZ ; JFW_Create_Destroy_Object_On_Custom_Death::~JFW_Create_Destroy_Object_On_Custom_Death
PUBLIC	??_GJFW_Create_Destroy_Object_On_Custom_Death@@UAEPAXI@Z ; JFW_Create_Destroy_Object_On_Custom_Death::`scalar deleting destructor'
PUBLIC	?Created@JFW_Create_Destroy_Object_On_Custom_Death_Bone@@EAEXPAVScriptableGameObj@@@Z ; JFW_Create_Destroy_Object_On_Custom_Death_Bone::Created
PUBLIC	?Killed@JFW_Create_Destroy_Object_On_Custom_Death_Bone@@EAEXPAVScriptableGameObj@@0@Z ; JFW_Create_Destroy_Object_On_Custom_Death_Bone::Killed
PUBLIC	?Custom@JFW_Create_Destroy_Object_On_Custom_Death_Bone@@EAEXPAVScriptableGameObj@@HH0@Z ; JFW_Create_Destroy_Object_On_Custom_Death_Bone::Custom
PUBLIC	?Register_Auto_Save_Variables@JFW_Create_Destroy_Object_On_Custom_Death_Bone@@UAEXXZ ; JFW_Create_Destroy_Object_On_Custom_Death_Bone::Register_Auto_Save_Variables
PUBLIC	??0JFW_Create_Destroy_Object_On_Custom_Death_Bone@@QAE@XZ ; JFW_Create_Destroy_Object_On_Custom_Death_Bone::JFW_Create_Destroy_Object_On_Custom_Death_Bone
PUBLIC	??1JFW_Create_Destroy_Object_On_Custom_Death_Bone@@UAE@XZ ; JFW_Create_Destroy_Object_On_Custom_Death_Bone::~JFW_Create_Destroy_Object_On_Custom_Death_Bone
PUBLIC	??_GJFW_Create_Destroy_Object_On_Custom_Death_Bone@@UAEPAXI@Z ; JFW_Create_Destroy_Object_On_Custom_Death_Bone::`scalar deleting destructor'
PUBLIC	?Custom@JFW_Custom_Destroy_All_Buildings@@EAEXPAVScriptableGameObj@@HH0@Z ; JFW_Custom_Destroy_All_Buildings::Custom
PUBLIC	??0JFW_Custom_Destroy_All_Buildings@@QAE@XZ	; JFW_Custom_Destroy_All_Buildings::JFW_Custom_Destroy_All_Buildings
PUBLIC	??1JFW_Custom_Destroy_All_Buildings@@UAE@XZ	; JFW_Custom_Destroy_All_Buildings::~JFW_Custom_Destroy_All_Buildings
PUBLIC	??_GJFW_Custom_Destroy_All_Buildings@@UAEPAXI@Z	; JFW_Custom_Destroy_All_Buildings::`scalar deleting destructor'
PUBLIC	?Created@JFW_Timer_Custom_On_Off@@EAEXPAVScriptableGameObj@@@Z ; JFW_Timer_Custom_On_Off::Created
PUBLIC	?Timer_Expired@JFW_Timer_Custom_On_Off@@EAEXPAVScriptableGameObj@@H@Z ; JFW_Timer_Custom_On_Off::Timer_Expired
PUBLIC	?Custom@JFW_Timer_Custom_On_Off@@EAEXPAVScriptableGameObj@@HH0@Z ; JFW_Timer_Custom_On_Off::Custom
PUBLIC	?Register_Auto_Save_Variables@JFW_Timer_Custom_On_Off@@UAEXXZ ; JFW_Timer_Custom_On_Off::Register_Auto_Save_Variables
PUBLIC	??0JFW_Timer_Custom_On_Off@@QAE@XZ		; JFW_Timer_Custom_On_Off::JFW_Timer_Custom_On_Off
PUBLIC	??1JFW_Timer_Custom_On_Off@@UAE@XZ		; JFW_Timer_Custom_On_Off::~JFW_Timer_Custom_On_Off
PUBLIC	??_GJFW_Timer_Custom_On_Off@@UAEPAXI@Z		; JFW_Timer_Custom_On_Off::`scalar deleting destructor'
PUBLIC	?Custom@JFW_Create_Vehicle_On_Custom@@EAEXPAVScriptableGameObj@@HH0@Z ; JFW_Create_Vehicle_On_Custom::Custom
PUBLIC	??0JFW_Create_Vehicle_On_Custom@@QAE@XZ		; JFW_Create_Vehicle_On_Custom::JFW_Create_Vehicle_On_Custom
PUBLIC	??1JFW_Create_Vehicle_On_Custom@@UAE@XZ		; JFW_Create_Vehicle_On_Custom::~JFW_Create_Vehicle_On_Custom
PUBLIC	??_GJFW_Create_Vehicle_On_Custom@@UAEPAXI@Z	; JFW_Create_Vehicle_On_Custom::`scalar deleting destructor'
PUBLIC	?Custom@JFW_Set_Model_On_Custom_Sender@@EAEXPAVScriptableGameObj@@HH0@Z ; JFW_Set_Model_On_Custom_Sender::Custom
PUBLIC	??0JFW_Set_Model_On_Custom_Sender@@QAE@XZ	; JFW_Set_Model_On_Custom_Sender::JFW_Set_Model_On_Custom_Sender
PUBLIC	??1JFW_Set_Model_On_Custom_Sender@@UAE@XZ	; JFW_Set_Model_On_Custom_Sender::~JFW_Set_Model_On_Custom_Sender
PUBLIC	??_GJFW_Set_Model_On_Custom_Sender@@UAEPAXI@Z	; JFW_Set_Model_On_Custom_Sender::`scalar deleting destructor'
PUBLIC	?Killed@JFW_Death_Send_Custom_ID@@EAEXPAVScriptableGameObj@@0@Z ; JFW_Death_Send_Custom_ID::Killed
PUBLIC	??0JFW_Death_Send_Custom_ID@@QAE@XZ		; JFW_Death_Send_Custom_ID::JFW_Death_Send_Custom_ID
PUBLIC	??1JFW_Death_Send_Custom_ID@@UAE@XZ		; JFW_Death_Send_Custom_ID::~JFW_Death_Send_Custom_ID
PUBLIC	??_GJFW_Death_Send_Custom_ID@@UAEPAXI@Z		; JFW_Death_Send_Custom_ID::`scalar deleting destructor'
PUBLIC	?Created@JFW_Death_Send_Custom_Driver_ID@@EAEXPAVScriptableGameObj@@@Z ; JFW_Death_Send_Custom_Driver_ID::Created
PUBLIC	?Killed@JFW_Death_Send_Custom_Driver_ID@@EAEXPAVScriptableGameObj@@0@Z ; JFW_Death_Send_Custom_Driver_ID::Killed
PUBLIC	?Custom@JFW_Death_Send_Custom_Driver_ID@@EAEXPAVScriptableGameObj@@HH0@Z ; JFW_Death_Send_Custom_Driver_ID::Custom
PUBLIC	?Register_Auto_Save_Variables@JFW_Death_Send_Custom_Driver_ID@@UAEXXZ ; JFW_Death_Send_Custom_Driver_ID::Register_Auto_Save_Variables
PUBLIC	??0JFW_Death_Send_Custom_Driver_ID@@QAE@XZ	; JFW_Death_Send_Custom_Driver_ID::JFW_Death_Send_Custom_Driver_ID
PUBLIC	??1JFW_Death_Send_Custom_Driver_ID@@UAE@XZ	; JFW_Death_Send_Custom_Driver_ID::~JFW_Death_Send_Custom_Driver_ID
PUBLIC	??_GJFW_Death_Send_Custom_Driver_ID@@UAEPAXI@Z	; JFW_Death_Send_Custom_Driver_ID::`scalar deleting destructor'
PUBLIC	?Custom@JFW_Repair_On_Custom@@EAEXPAVScriptableGameObj@@HH0@Z ; JFW_Repair_On_Custom::Custom
PUBLIC	??0JFW_Repair_On_Custom@@QAE@XZ			; JFW_Repair_On_Custom::JFW_Repair_On_Custom
PUBLIC	??1JFW_Repair_On_Custom@@UAE@XZ			; JFW_Repair_On_Custom::~JFW_Repair_On_Custom
PUBLIC	??_GJFW_Repair_On_Custom@@UAEPAXI@Z		; JFW_Repair_On_Custom::`scalar deleting destructor'
PUBLIC	?Custom@JFW_Wind_Custom@@EAEXPAVScriptableGameObj@@HH0@Z ; JFW_Wind_Custom::Custom
PUBLIC	?Timer_Expired@JFW_Wind_Custom@@EAEXPAVScriptableGameObj@@H@Z ; JFW_Wind_Custom::Timer_Expired
PUBLIC	??0JFW_Wind_Custom@@QAE@XZ			; JFW_Wind_Custom::JFW_Wind_Custom
PUBLIC	??1JFW_Wind_Custom@@UAE@XZ			; JFW_Wind_Custom::~JFW_Wind_Custom
PUBLIC	??_GJFW_Wind_Custom@@UAEPAXI@Z			; JFW_Wind_Custom::`scalar deleting destructor'
PUBLIC	?Custom@JFW_War_Blitz_Custom@@EAEXPAVScriptableGameObj@@HH0@Z ; JFW_War_Blitz_Custom::Custom
PUBLIC	?Timer_Expired@JFW_War_Blitz_Custom@@EAEXPAVScriptableGameObj@@H@Z ; JFW_War_Blitz_Custom::Timer_Expired
PUBLIC	??0JFW_War_Blitz_Custom@@QAE@XZ			; JFW_War_Blitz_Custom::JFW_War_Blitz_Custom
PUBLIC	??1JFW_War_Blitz_Custom@@UAE@XZ			; JFW_War_Blitz_Custom::~JFW_War_Blitz_Custom
PUBLIC	??_GJFW_War_Blitz_Custom@@UAEPAXI@Z		; JFW_War_Blitz_Custom::`scalar deleting destructor'
PUBLIC	?Custom@JFW_Fog_Custom@@EAEXPAVScriptableGameObj@@HH0@Z ; JFW_Fog_Custom::Custom
PUBLIC	?Timer_Expired@JFW_Fog_Custom@@EAEXPAVScriptableGameObj@@H@Z ; JFW_Fog_Custom::Timer_Expired
PUBLIC	??0JFW_Fog_Custom@@QAE@XZ			; JFW_Fog_Custom::JFW_Fog_Custom
PUBLIC	??1JFW_Fog_Custom@@UAE@XZ			; JFW_Fog_Custom::~JFW_Fog_Custom
PUBLIC	??_GJFW_Fog_Custom@@UAEPAXI@Z			; JFW_Fog_Custom::`scalar deleting destructor'
PUBLIC	?Custom@JFW_Lightning_Custom@@EAEXPAVScriptableGameObj@@HH0@Z ; JFW_Lightning_Custom::Custom
PUBLIC	?Timer_Expired@JFW_Lightning_Custom@@EAEXPAVScriptableGameObj@@H@Z ; JFW_Lightning_Custom::Timer_Expired
PUBLIC	??0JFW_Lightning_Custom@@QAE@XZ			; JFW_Lightning_Custom::JFW_Lightning_Custom
PUBLIC	??1JFW_Lightning_Custom@@UAE@XZ			; JFW_Lightning_Custom::~JFW_Lightning_Custom
PUBLIC	??_GJFW_Lightning_Custom@@UAEPAXI@Z		; JFW_Lightning_Custom::`scalar deleting destructor'
PUBLIC	?Custom@JFW_Precipitation_Custom@@EAEXPAVScriptableGameObj@@HH0@Z ; JFW_Precipitation_Custom::Custom
PUBLIC	?Timer_Expired@JFW_Precipitation_Custom@@EAEXPAVScriptableGameObj@@H@Z ; JFW_Precipitation_Custom::Timer_Expired
PUBLIC	??0JFW_Precipitation_Custom@@QAE@XZ		; JFW_Precipitation_Custom::JFW_Precipitation_Custom
PUBLIC	??1JFW_Precipitation_Custom@@UAE@XZ		; JFW_Precipitation_Custom::~JFW_Precipitation_Custom
PUBLIC	??_GJFW_Precipitation_Custom@@UAEPAXI@Z		; JFW_Precipitation_Custom::`scalar deleting destructor'
PUBLIC	?Custom@JFW_Clouds_Custom@@EAEXPAVScriptableGameObj@@HH0@Z ; JFW_Clouds_Custom::Custom
PUBLIC	?Timer_Expired@JFW_Clouds_Custom@@EAEXPAVScriptableGameObj@@H@Z ; JFW_Clouds_Custom::Timer_Expired
PUBLIC	??0JFW_Clouds_Custom@@QAE@XZ			; JFW_Clouds_Custom::JFW_Clouds_Custom
PUBLIC	??1JFW_Clouds_Custom@@UAE@XZ			; JFW_Clouds_Custom::~JFW_Clouds_Custom
PUBLIC	??_GJFW_Clouds_Custom@@UAEPAXI@Z		; JFW_Clouds_Custom::`scalar deleting destructor'
PUBLIC	?Custom@JFW_Enable_Stealth_On_Custom@@EAEXPAVScriptableGameObj@@HH0@Z ; JFW_Enable_Stealth_On_Custom::Custom
PUBLIC	??0JFW_Enable_Stealth_On_Custom@@QAE@XZ		; JFW_Enable_Stealth_On_Custom::JFW_Enable_Stealth_On_Custom
PUBLIC	??1JFW_Enable_Stealth_On_Custom@@UAE@XZ		; JFW_Enable_Stealth_On_Custom::~JFW_Enable_Stealth_On_Custom
PUBLIC	??_GJFW_Enable_Stealth_On_Custom@@UAEPAXI@Z	; JFW_Enable_Stealth_On_Custom::`scalar deleting destructor'
PUBLIC	?Custom@JFW_Console_Message_On_Custom@@EAEXPAVScriptableGameObj@@HH0@Z ; JFW_Console_Message_On_Custom::Custom
PUBLIC	??0JFW_Console_Message_On_Custom@@QAE@XZ	; JFW_Console_Message_On_Custom::JFW_Console_Message_On_Custom
PUBLIC	??1JFW_Console_Message_On_Custom@@UAE@XZ	; JFW_Console_Message_On_Custom::~JFW_Console_Message_On_Custom
PUBLIC	??_GJFW_Console_Message_On_Custom@@UAEPAXI@Z	; JFW_Console_Message_On_Custom::`scalar deleting destructor'
PUBLIC	?Custom@JFW_Console_Input_On_Custom@@EAEXPAVScriptableGameObj@@HH0@Z ; JFW_Console_Input_On_Custom::Custom
PUBLIC	??0JFW_Console_Input_On_Custom@@QAE@XZ		; JFW_Console_Input_On_Custom::JFW_Console_Input_On_Custom
PUBLIC	??1JFW_Console_Input_On_Custom@@UAE@XZ		; JFW_Console_Input_On_Custom::~JFW_Console_Input_On_Custom
PUBLIC	??_GJFW_Console_Input_On_Custom@@UAEPAXI@Z	; JFW_Console_Input_On_Custom::`scalar deleting destructor'
PUBLIC	?Custom@JFW_Invulnerable_On_Custom_3@@EAEXPAVScriptableGameObj@@HH0@Z ; JFW_Invulnerable_On_Custom_3::Custom
PUBLIC	??0JFW_Invulnerable_On_Custom_3@@QAE@XZ		; JFW_Invulnerable_On_Custom_3::JFW_Invulnerable_On_Custom_3
PUBLIC	??1JFW_Invulnerable_On_Custom_3@@UAE@XZ		; JFW_Invulnerable_On_Custom_3::~JFW_Invulnerable_On_Custom_3
PUBLIC	??_GJFW_Invulnerable_On_Custom_3@@UAEPAXI@Z	; JFW_Invulnerable_On_Custom_3::`scalar deleting destructor'
PUBLIC	?Custom@JFW_Set_Skin_Custom@@EAEXPAVScriptableGameObj@@HH0@Z ; JFW_Set_Skin_Custom::Custom
PUBLIC	??0JFW_Set_Skin_Custom@@QAE@XZ			; JFW_Set_Skin_Custom::JFW_Set_Skin_Custom
PUBLIC	??1JFW_Set_Skin_Custom@@UAE@XZ			; JFW_Set_Skin_Custom::~JFW_Set_Skin_Custom
PUBLIC	??_GJFW_Set_Skin_Custom@@UAEPAXI@Z		; JFW_Set_Skin_Custom::`scalar deleting destructor'
PUBLIC	?Custom@JFW_Set_Armor_Custom@@EAEXPAVScriptableGameObj@@HH0@Z ; JFW_Set_Armor_Custom::Custom
PUBLIC	??0JFW_Set_Armor_Custom@@QAE@XZ			; JFW_Set_Armor_Custom::JFW_Set_Armor_Custom
PUBLIC	??1JFW_Set_Armor_Custom@@UAE@XZ			; JFW_Set_Armor_Custom::~JFW_Set_Armor_Custom
PUBLIC	??_GJFW_Set_Armor_Custom@@UAEPAXI@Z		; JFW_Set_Armor_Custom::`scalar deleting destructor'
PUBLIC	?Custom@JFW_Change_Team_On_Custom@@EAEXPAVScriptableGameObj@@HH0@Z ; JFW_Change_Team_On_Custom::Custom
PUBLIC	??0JFW_Change_Team_On_Custom@@QAE@XZ		; JFW_Change_Team_On_Custom::JFW_Change_Team_On_Custom
PUBLIC	??1JFW_Change_Team_On_Custom@@UAE@XZ		; JFW_Change_Team_On_Custom::~JFW_Change_Team_On_Custom
PUBLIC	??_GJFW_Change_Team_On_Custom@@UAEPAXI@Z	; JFW_Change_Team_On_Custom::`scalar deleting destructor'
PUBLIC	?Custom@JFW_Enable_Team_Radar_On_Custom@@EAEXPAVScriptableGameObj@@HH0@Z ; JFW_Enable_Team_Radar_On_Custom::Custom
PUBLIC	??0JFW_Enable_Team_Radar_On_Custom@@QAE@XZ	; JFW_Enable_Team_Radar_On_Custom::JFW_Enable_Team_Radar_On_Custom
PUBLIC	??1JFW_Enable_Team_Radar_On_Custom@@UAE@XZ	; JFW_Enable_Team_Radar_On_Custom::~JFW_Enable_Team_Radar_On_Custom
PUBLIC	??_GJFW_Enable_Team_Radar_On_Custom@@UAEPAXI@Z	; JFW_Enable_Team_Radar_On_Custom::`scalar deleting destructor'
PUBLIC	?Custom@JFW_2D_Sound_Team_Custom@@EAEXPAVScriptableGameObj@@HH0@Z ; JFW_2D_Sound_Team_Custom::Custom
PUBLIC	??0JFW_2D_Sound_Team_Custom@@QAE@XZ		; JFW_2D_Sound_Team_Custom::JFW_2D_Sound_Team_Custom
PUBLIC	??1JFW_2D_Sound_Team_Custom@@UAE@XZ		; JFW_2D_Sound_Team_Custom::~JFW_2D_Sound_Team_Custom
PUBLIC	??_GJFW_2D_Sound_Team_Custom@@UAEPAXI@Z		; JFW_2D_Sound_Team_Custom::`scalar deleting destructor'
PUBLIC	?Custom@JFW_3D_Sound_Team_Custom@@EAEXPAVScriptableGameObj@@HH0@Z ; JFW_3D_Sound_Team_Custom::Custom
PUBLIC	??0JFW_3D_Sound_Team_Custom@@QAE@XZ		; JFW_3D_Sound_Team_Custom::JFW_3D_Sound_Team_Custom
PUBLIC	??1JFW_3D_Sound_Team_Custom@@UAE@XZ		; JFW_3D_Sound_Team_Custom::~JFW_3D_Sound_Team_Custom
PUBLIC	??_GJFW_3D_Sound_Team_Custom@@UAEPAXI@Z		; JFW_3D_Sound_Team_Custom::`scalar deleting destructor'
PUBLIC	?Created@JFW_Send_Custom_Distance_Objects_Timer@@EAEXPAVScriptableGameObj@@@Z ; JFW_Send_Custom_Distance_Objects_Timer::Created
PUBLIC	?Timer_Expired@JFW_Send_Custom_Distance_Objects_Timer@@EAEXPAVScriptableGameObj@@H@Z ; JFW_Send_Custom_Distance_Objects_Timer::Timer_Expired
PUBLIC	??0JFW_Send_Custom_Distance_Objects_Timer@@QAE@XZ ; JFW_Send_Custom_Distance_Objects_Timer::JFW_Send_Custom_Distance_Objects_Timer
PUBLIC	??1JFW_Send_Custom_Distance_Objects_Timer@@UAE@XZ ; JFW_Send_Custom_Distance_Objects_Timer::~JFW_Send_Custom_Distance_Objects_Timer
PUBLIC	??_GJFW_Send_Custom_Distance_Objects_Timer@@UAEPAXI@Z ; JFW_Send_Custom_Distance_Objects_Timer::`scalar deleting destructor'
PUBLIC	?Custom@JFW_Send_Custom_Distance_Objects_Custom@@EAEXPAVScriptableGameObj@@HH0@Z ; JFW_Send_Custom_Distance_Objects_Custom::Custom
PUBLIC	??0JFW_Send_Custom_Distance_Objects_Custom@@QAE@XZ ; JFW_Send_Custom_Distance_Objects_Custom::JFW_Send_Custom_Distance_Objects_Custom
PUBLIC	??1JFW_Send_Custom_Distance_Objects_Custom@@UAE@XZ ; JFW_Send_Custom_Distance_Objects_Custom::~JFW_Send_Custom_Distance_Objects_Custom
PUBLIC	??_GJFW_Send_Custom_Distance_Objects_Custom@@UAEPAXI@Z ; JFW_Send_Custom_Distance_Objects_Custom::`scalar deleting destructor'
PUBLIC	?Created@JFW_Send_Custom_All_Objects_Timer@@EAEXPAVScriptableGameObj@@@Z ; JFW_Send_Custom_All_Objects_Timer::Created
PUBLIC	?Timer_Expired@JFW_Send_Custom_All_Objects_Timer@@EAEXPAVScriptableGameObj@@H@Z ; JFW_Send_Custom_All_Objects_Timer::Timer_Expired
PUBLIC	??0JFW_Send_Custom_All_Objects_Timer@@QAE@XZ	; JFW_Send_Custom_All_Objects_Timer::JFW_Send_Custom_All_Objects_Timer
PUBLIC	??1JFW_Send_Custom_All_Objects_Timer@@UAE@XZ	; JFW_Send_Custom_All_Objects_Timer::~JFW_Send_Custom_All_Objects_Timer
PUBLIC	??_GJFW_Send_Custom_All_Objects_Timer@@UAEPAXI@Z ; JFW_Send_Custom_All_Objects_Timer::`scalar deleting destructor'
PUBLIC	?Custom@JFW_Send_Custom_All_Objects_Custom@@EAEXPAVScriptableGameObj@@HH0@Z ; JFW_Send_Custom_All_Objects_Custom::Custom
PUBLIC	??0JFW_Send_Custom_All_Objects_Custom@@QAE@XZ	; JFW_Send_Custom_All_Objects_Custom::JFW_Send_Custom_All_Objects_Custom
PUBLIC	??1JFW_Send_Custom_All_Objects_Custom@@UAE@XZ	; JFW_Send_Custom_All_Objects_Custom::~JFW_Send_Custom_All_Objects_Custom
PUBLIC	??_GJFW_Send_Custom_All_Objects_Custom@@UAEPAXI@Z ; JFW_Send_Custom_All_Objects_Custom::`scalar deleting destructor'
PUBLIC	?Custom@JFW_Destroy_Create_Object_On_Custom@@EAEXPAVScriptableGameObj@@HH0@Z ; JFW_Destroy_Create_Object_On_Custom::Custom
PUBLIC	??0JFW_Destroy_Create_Object_On_Custom@@QAE@XZ	; JFW_Destroy_Create_Object_On_Custom::JFW_Destroy_Create_Object_On_Custom
PUBLIC	??1JFW_Destroy_Create_Object_On_Custom@@UAE@XZ	; JFW_Destroy_Create_Object_On_Custom::~JFW_Destroy_Create_Object_On_Custom
PUBLIC	??_GJFW_Destroy_Create_Object_On_Custom@@UAEPAXI@Z ; JFW_Destroy_Create_Object_On_Custom::`scalar deleting destructor'
PUBLIC	?Created@JFW_Send_Message_Preset@@EAEXPAVScriptableGameObj@@@Z ; JFW_Send_Message_Preset::Created
PUBLIC	?Destroyed@JFW_Send_Message_Preset@@EAEXPAVScriptableGameObj@@@Z ; JFW_Send_Message_Preset::Destroyed
PUBLIC	??0JFW_Send_Message_Preset@@QAE@XZ		; JFW_Send_Message_Preset::JFW_Send_Message_Preset
PUBLIC	??1JFW_Send_Message_Preset@@UAE@XZ		; JFW_Send_Message_Preset::~JFW_Send_Message_Preset
PUBLIC	??_GJFW_Send_Message_Preset@@UAEPAXI@Z		; JFW_Send_Message_Preset::`scalar deleting destructor'
PUBLIC	??0JFW_Shader_Custom_Zone_Entry@@QAE@XZ		; JFW_Shader_Custom_Zone_Entry::JFW_Shader_Custom_Zone_Entry
PUBLIC	??1JFW_Shader_Custom_Zone_Entry@@UAE@XZ		; JFW_Shader_Custom_Zone_Entry::~JFW_Shader_Custom_Zone_Entry
PUBLIC	??_GJFW_Shader_Custom_Zone_Entry@@UAEPAXI@Z	; JFW_Shader_Custom_Zone_Entry::`scalar deleting destructor'
PUBLIC	??0JFW_Shader_Custom_Zone_Exit@@QAE@XZ		; JFW_Shader_Custom_Zone_Exit::JFW_Shader_Custom_Zone_Exit
PUBLIC	??1JFW_Shader_Custom_Zone_Exit@@UAE@XZ		; JFW_Shader_Custom_Zone_Exit::~JFW_Shader_Custom_Zone_Exit
PUBLIC	??_GJFW_Shader_Custom_Zone_Exit@@UAEPAXI@Z	; JFW_Shader_Custom_Zone_Exit::`scalar deleting destructor'
PUBLIC	??0JFW_Shader_Custom_Vehicle_Entry@@QAE@XZ	; JFW_Shader_Custom_Vehicle_Entry::JFW_Shader_Custom_Vehicle_Entry
PUBLIC	??1JFW_Shader_Custom_Vehicle_Entry@@UAE@XZ	; JFW_Shader_Custom_Vehicle_Entry::~JFW_Shader_Custom_Vehicle_Entry
PUBLIC	??_GJFW_Shader_Custom_Vehicle_Entry@@UAEPAXI@Z	; JFW_Shader_Custom_Vehicle_Entry::`scalar deleting destructor'
PUBLIC	??0JFW_Shader_Custom_Vehicle_Exit@@QAE@XZ	; JFW_Shader_Custom_Vehicle_Exit::JFW_Shader_Custom_Vehicle_Exit
PUBLIC	??1JFW_Shader_Custom_Vehicle_Exit@@UAE@XZ	; JFW_Shader_Custom_Vehicle_Exit::~JFW_Shader_Custom_Vehicle_Exit
PUBLIC	??_GJFW_Shader_Custom_Vehicle_Exit@@UAEPAXI@Z	; JFW_Shader_Custom_Vehicle_Exit::`scalar deleting destructor'
PUBLIC	??0JFW_Shader_Custom_Create@@QAE@XZ		; JFW_Shader_Custom_Create::JFW_Shader_Custom_Create
PUBLIC	??1JFW_Shader_Custom_Create@@UAE@XZ		; JFW_Shader_Custom_Create::~JFW_Shader_Custom_Create
PUBLIC	??_GJFW_Shader_Custom_Create@@UAEPAXI@Z		; JFW_Shader_Custom_Create::`scalar deleting destructor'
PUBLIC	??0JFW_Shader_Custom_Poke@@QAE@XZ		; JFW_Shader_Custom_Poke::JFW_Shader_Custom_Poke
PUBLIC	??1JFW_Shader_Custom_Poke@@UAE@XZ		; JFW_Shader_Custom_Poke::~JFW_Shader_Custom_Poke
PUBLIC	??_GJFW_Shader_Custom_Poke@@UAEPAXI@Z		; JFW_Shader_Custom_Poke::`scalar deleting destructor'
PUBLIC	?Created@JFW_Kill_All_Buildings_Customs@@EAEXPAVScriptableGameObj@@@Z ; JFW_Kill_All_Buildings_Customs::Created
PUBLIC	?Custom@JFW_Kill_All_Buildings_Customs@@EAEXPAVScriptableGameObj@@HH0@Z ; JFW_Kill_All_Buildings_Customs::Custom
PUBLIC	??0JFW_Kill_All_Buildings_Customs@@QAE@XZ	; JFW_Kill_All_Buildings_Customs::JFW_Kill_All_Buildings_Customs
PUBLIC	??1JFW_Kill_All_Buildings_Customs@@UAE@XZ	; JFW_Kill_All_Buildings_Customs::~JFW_Kill_All_Buildings_Customs
PUBLIC	??_GJFW_Kill_All_Buildings_Customs@@UAEPAXI@Z	; JFW_Kill_All_Buildings_Customs::`scalar deleting destructor'
PUBLIC	?Created@JFW_Send_Self_Custom_On_Key@@EAEXPAVScriptableGameObj@@@Z ; JFW_Send_Self_Custom_On_Key::Created
PUBLIC	?KeyHook@JFW_Send_Self_Custom_On_Key@@EAEXXZ	; JFW_Send_Self_Custom_On_Key::KeyHook
PUBLIC	??0JFW_Send_Self_Custom_On_Key@@QAE@XZ		; JFW_Send_Self_Custom_On_Key::JFW_Send_Self_Custom_On_Key
PUBLIC	??1JFW_Send_Self_Custom_On_Key@@UAE@XZ		; JFW_Send_Self_Custom_On_Key::~JFW_Send_Self_Custom_On_Key
PUBLIC	??_GJFW_Send_Self_Custom_On_Key@@UAEPAXI@Z	; JFW_Send_Self_Custom_On_Key::`scalar deleting destructor'
PUBLIC	?Created@JFW_Send_Message_On_Key@@EAEXPAVScriptableGameObj@@@Z ; JFW_Send_Message_On_Key::Created
PUBLIC	?KeyHook@JFW_Send_Message_On_Key@@EAEXXZ	; JFW_Send_Message_On_Key::KeyHook
PUBLIC	??0JFW_Send_Message_On_Key@@QAE@XZ		; JFW_Send_Message_On_Key::JFW_Send_Message_On_Key
PUBLIC	??1JFW_Send_Message_On_Key@@UAE@XZ		; JFW_Send_Message_On_Key::~JFW_Send_Message_On_Key
PUBLIC	??_GJFW_Send_Message_On_Key@@UAEPAXI@Z		; JFW_Send_Message_On_Key::`scalar deleting destructor'
PUBLIC	?Created@JFW_Startup_Custom_Self@@EAEXPAVScriptableGameObj@@@Z ; JFW_Startup_Custom_Self::Created
PUBLIC	??0JFW_Startup_Custom_Self@@QAE@XZ		; JFW_Startup_Custom_Self::JFW_Startup_Custom_Self
PUBLIC	??1JFW_Startup_Custom_Self@@UAE@XZ		; JFW_Startup_Custom_Self::~JFW_Startup_Custom_Self
PUBLIC	??_GJFW_Startup_Custom_Self@@UAEPAXI@Z		; JFW_Startup_Custom_Self::`scalar deleting destructor'
PUBLIC	?Created@JFW_Send_Custom_On_Damage@@EAEXPAVScriptableGameObj@@@Z ; JFW_Send_Custom_On_Damage::Created
PUBLIC	?Damaged@JFW_Send_Custom_On_Damage@@EAEXPAVScriptableGameObj@@0M@Z ; JFW_Send_Custom_On_Damage::Damaged
PUBLIC	??0JFW_Send_Custom_On_Damage@@QAE@XZ		; JFW_Send_Custom_On_Damage::JFW_Send_Custom_On_Damage
PUBLIC	??1JFW_Send_Custom_On_Damage@@UAE@XZ		; JFW_Send_Custom_On_Damage::~JFW_Send_Custom_On_Damage
PUBLIC	??_GJFW_Send_Custom_On_Damage@@UAEPAXI@Z	; JFW_Send_Custom_On_Damage::`scalar deleting destructor'
PUBLIC	??0?$ScriptRegistrant@VJFW_Send_Custom_Distance_Objects_Timer@@@@QAE@PBD0@Z ; ScriptRegistrant<JFW_Send_Custom_Distance_Objects_Timer>::ScriptRegistrant<JFW_Send_Custom_Distance_Objects_Timer>
PUBLIC	?Create@?$ScriptRegistrant@VJFW_Send_Custom_Distance_Objects_Timer@@@@UAEPAVScriptImpClass@@XZ ; ScriptRegistrant<JFW_Send_Custom_Distance_Objects_Timer>::Create
PUBLIC	??1?$ScriptRegistrant@VJFW_Send_Custom_Distance_Objects_Timer@@@@UAE@XZ ; ScriptRegistrant<JFW_Send_Custom_Distance_Objects_Timer>::~ScriptRegistrant<JFW_Send_Custom_Distance_Objects_Timer>
PUBLIC	??_G?$ScriptRegistrant@VJFW_Send_Custom_Distance_Objects_Timer@@@@UAEPAXI@Z ; ScriptRegistrant<JFW_Send_Custom_Distance_Objects_Timer>::`scalar deleting destructor'
PUBLIC	??0?$ScriptRegistrant@VJFW_Send_Custom_Distance_Objects_Custom@@@@QAE@PBD0@Z ; ScriptRegistrant<JFW_Send_Custom_Distance_Objects_Custom>::ScriptRegistrant<JFW_Send_Custom_Distance_Objects_Custom>
PUBLIC	?Create@?$ScriptRegistrant@VJFW_Send_Custom_Distance_Objects_Custom@@@@UAEPAVScriptImpClass@@XZ ; ScriptRegistrant<JFW_Send_Custom_Distance_Objects_Custom>::Create
PUBLIC	??1?$ScriptRegistrant@VJFW_Send_Custom_Distance_Objects_Custom@@@@UAE@XZ ; ScriptRegistrant<JFW_Send_Custom_Distance_Objects_Custom>::~ScriptRegistrant<JFW_Send_Custom_Distance_Objects_Custom>
PUBLIC	??_G?$ScriptRegistrant@VJFW_Send_Custom_Distance_Objects_Custom@@@@UAEPAXI@Z ; ScriptRegistrant<JFW_Send_Custom_Distance_Objects_Custom>::`scalar deleting destructor'
PUBLIC	??0?$ScriptRegistrant@VJFW_Send_Custom_All_Objects_Timer@@@@QAE@PBD0@Z ; ScriptRegistrant<JFW_Send_Custom_All_Objects_Timer>::ScriptRegistrant<JFW_Send_Custom_All_Objects_Timer>
PUBLIC	?Create@?$ScriptRegistrant@VJFW_Send_Custom_All_Objects_Timer@@@@UAEPAVScriptImpClass@@XZ ; ScriptRegistrant<JFW_Send_Custom_All_Objects_Timer>::Create
PUBLIC	??1?$ScriptRegistrant@VJFW_Send_Custom_All_Objects_Timer@@@@UAE@XZ ; ScriptRegistrant<JFW_Send_Custom_All_Objects_Timer>::~ScriptRegistrant<JFW_Send_Custom_All_Objects_Timer>
PUBLIC	??_G?$ScriptRegistrant@VJFW_Send_Custom_All_Objects_Timer@@@@UAEPAXI@Z ; ScriptRegistrant<JFW_Send_Custom_All_Objects_Timer>::`scalar deleting destructor'
PUBLIC	??0?$ScriptRegistrant@VJFW_Send_Custom_All_Objects_Custom@@@@QAE@PBD0@Z ; ScriptRegistrant<JFW_Send_Custom_All_Objects_Custom>::ScriptRegistrant<JFW_Send_Custom_All_Objects_Custom>
PUBLIC	?Create@?$ScriptRegistrant@VJFW_Send_Custom_All_Objects_Custom@@@@UAEPAVScriptImpClass@@XZ ; ScriptRegistrant<JFW_Send_Custom_All_Objects_Custom>::Create
PUBLIC	??1?$ScriptRegistrant@VJFW_Send_Custom_All_Objects_Custom@@@@UAE@XZ ; ScriptRegistrant<JFW_Send_Custom_All_Objects_Custom>::~ScriptRegistrant<JFW_Send_Custom_All_Objects_Custom>
PUBLIC	??_G?$ScriptRegistrant@VJFW_Send_Custom_All_Objects_Custom@@@@UAEPAXI@Z ; ScriptRegistrant<JFW_Send_Custom_All_Objects_Custom>::`scalar deleting destructor'
PUBLIC	??0?$ScriptRegistrant@VJFW_Send_Message_Preset@@@@QAE@PBD0@Z ; ScriptRegistrant<JFW_Send_Message_Preset>::ScriptRegistrant<JFW_Send_Message_Preset>
PUBLIC	?Create@?$ScriptRegistrant@VJFW_Send_Message_Preset@@@@UAEPAVScriptImpClass@@XZ ; ScriptRegistrant<JFW_Send_Message_Preset>::Create
PUBLIC	??1?$ScriptRegistrant@VJFW_Send_Message_Preset@@@@UAE@XZ ; ScriptRegistrant<JFW_Send_Message_Preset>::~ScriptRegistrant<JFW_Send_Message_Preset>
PUBLIC	??_G?$ScriptRegistrant@VJFW_Send_Message_Preset@@@@UAEPAXI@Z ; ScriptRegistrant<JFW_Send_Message_Preset>::`scalar deleting destructor'
PUBLIC	??0?$ScriptRegistrant@VJFW_Destroy_Create_Object_On_Custom@@@@QAE@PBD0@Z ; ScriptRegistrant<JFW_Destroy_Create_Object_On_Custom>::ScriptRegistrant<JFW_Destroy_Create_Object_On_Custom>
PUBLIC	?Create@?$ScriptRegistrant@VJFW_Destroy_Create_Object_On_Custom@@@@UAEPAVScriptImpClass@@XZ ; ScriptRegistrant<JFW_Destroy_Create_Object_On_Custom>::Create
PUBLIC	??1?$ScriptRegistrant@VJFW_Destroy_Create_Object_On_Custom@@@@UAE@XZ ; ScriptRegistrant<JFW_Destroy_Create_Object_On_Custom>::~ScriptRegistrant<JFW_Destroy_Create_Object_On_Custom>
PUBLIC	??_G?$ScriptRegistrant@VJFW_Destroy_Create_Object_On_Custom@@@@UAEPAXI@Z ; ScriptRegistrant<JFW_Destroy_Create_Object_On_Custom>::`scalar deleting destructor'
PUBLIC	??0?$ScriptRegistrant@VJFW_Fog_Custom@@@@QAE@PBD0@Z ; ScriptRegistrant<JFW_Fog_Custom>::ScriptRegistrant<JFW_Fog_Custom>
PUBLIC	?Create@?$ScriptRegistrant@VJFW_Fog_Custom@@@@UAEPAVScriptImpClass@@XZ ; ScriptRegistrant<JFW_Fog_Custom>::Create
PUBLIC	??1?$ScriptRegistrant@VJFW_Fog_Custom@@@@UAE@XZ	; ScriptRegistrant<JFW_Fog_Custom>::~ScriptRegistrant<JFW_Fog_Custom>
PUBLIC	??_G?$ScriptRegistrant@VJFW_Fog_Custom@@@@UAEPAXI@Z ; ScriptRegistrant<JFW_Fog_Custom>::`scalar deleting destructor'
PUBLIC	??0?$ScriptRegistrant@VJFW_War_Blitz_Custom@@@@QAE@PBD0@Z ; ScriptRegistrant<JFW_War_Blitz_Custom>::ScriptRegistrant<JFW_War_Blitz_Custom>
PUBLIC	?Create@?$ScriptRegistrant@VJFW_War_Blitz_Custom@@@@UAEPAVScriptImpClass@@XZ ; ScriptRegistrant<JFW_War_Blitz_Custom>::Create
PUBLIC	??1?$ScriptRegistrant@VJFW_War_Blitz_Custom@@@@UAE@XZ ; ScriptRegistrant<JFW_War_Blitz_Custom>::~ScriptRegistrant<JFW_War_Blitz_Custom>
PUBLIC	??_G?$ScriptRegistrant@VJFW_War_Blitz_Custom@@@@UAEPAXI@Z ; ScriptRegistrant<JFW_War_Blitz_Custom>::`scalar deleting destructor'
PUBLIC	??0?$ScriptRegistrant@VJFW_Lightning_Custom@@@@QAE@PBD0@Z ; ScriptRegistrant<JFW_Lightning_Custom>::ScriptRegistrant<JFW_Lightning_Custom>
PUBLIC	?Create@?$ScriptRegistrant@VJFW_Lightning_Custom@@@@UAEPAVScriptImpClass@@XZ ; ScriptRegistrant<JFW_Lightning_Custom>::Create
PUBLIC	??1?$ScriptRegistrant@VJFW_Lightning_Custom@@@@UAE@XZ ; ScriptRegistrant<JFW_Lightning_Custom>::~ScriptRegistrant<JFW_Lightning_Custom>
PUBLIC	??_G?$ScriptRegistrant@VJFW_Lightning_Custom@@@@UAEPAXI@Z ; ScriptRegistrant<JFW_Lightning_Custom>::`scalar deleting destructor'
PUBLIC	??0?$ScriptRegistrant@VJFW_Wind_Custom@@@@QAE@PBD0@Z ; ScriptRegistrant<JFW_Wind_Custom>::ScriptRegistrant<JFW_Wind_Custom>
PUBLIC	?Create@?$ScriptRegistrant@VJFW_Wind_Custom@@@@UAEPAVScriptImpClass@@XZ ; ScriptRegistrant<JFW_Wind_Custom>::Create
PUBLIC	??1?$ScriptRegistrant@VJFW_Wind_Custom@@@@UAE@XZ ; ScriptRegistrant<JFW_Wind_Custom>::~ScriptRegistrant<JFW_Wind_Custom>
PUBLIC	??_G?$ScriptRegistrant@VJFW_Wind_Custom@@@@UAEPAXI@Z ; ScriptRegistrant<JFW_Wind_Custom>::`scalar deleting destructor'
PUBLIC	??0?$ScriptRegistrant@VJFW_Precipitation_Custom@@@@QAE@PBD0@Z ; ScriptRegistrant<JFW_Precipitation_Custom>::ScriptRegistrant<JFW_Precipitation_Custom>
PUBLIC	?Create@?$ScriptRegistrant@VJFW_Precipitation_Custom@@@@UAEPAVScriptImpClass@@XZ ; ScriptRegistrant<JFW_Precipitation_Custom>::Create
PUBLIC	??1?$ScriptRegistrant@VJFW_Precipitation_Custom@@@@UAE@XZ ; ScriptRegistrant<JFW_Precipitation_Custom>::~ScriptRegistrant<JFW_Precipitation_Custom>
PUBLIC	??_G?$ScriptRegistrant@VJFW_Precipitation_Custom@@@@UAEPAXI@Z ; ScriptRegistrant<JFW_Precipitation_Custom>::`scalar deleting destructor'
PUBLIC	??0?$ScriptRegistrant@VJFW_Clouds_Custom@@@@QAE@PBD0@Z ; ScriptRegistrant<JFW_Clouds_Custom>::ScriptRegistrant<JFW_Clouds_Custom>
PUBLIC	?Create@?$ScriptRegistrant@VJFW_Clouds_Custom@@@@UAEPAVScriptImpClass@@XZ ; ScriptRegistrant<JFW_Clouds_Custom>::Create
PUBLIC	??1?$ScriptRegistrant@VJFW_Clouds_Custom@@@@UAE@XZ ; ScriptRegistrant<JFW_Clouds_Custom>::~ScriptRegistrant<JFW_Clouds_Custom>
PUBLIC	??_G?$ScriptRegistrant@VJFW_Clouds_Custom@@@@UAEPAXI@Z ; ScriptRegistrant<JFW_Clouds_Custom>::`scalar deleting destructor'
PUBLIC	??0?$ScriptRegistrant@VJFW_Enable_Stealth_On_Custom@@@@QAE@PBD0@Z ; ScriptRegistrant<JFW_Enable_Stealth_On_Custom>::ScriptRegistrant<JFW_Enable_Stealth_On_Custom>
PUBLIC	?Create@?$ScriptRegistrant@VJFW_Enable_Stealth_On_Custom@@@@UAEPAVScriptImpClass@@XZ ; ScriptRegistrant<JFW_Enable_Stealth_On_Custom>::Create
PUBLIC	??1?$ScriptRegistrant@VJFW_Enable_Stealth_On_Custom@@@@UAE@XZ ; ScriptRegistrant<JFW_Enable_Stealth_On_Custom>::~ScriptRegistrant<JFW_Enable_Stealth_On_Custom>
PUBLIC	??_G?$ScriptRegistrant@VJFW_Enable_Stealth_On_Custom@@@@UAEPAXI@Z ; ScriptRegistrant<JFW_Enable_Stealth_On_Custom>::`scalar deleting destructor'
PUBLIC	??0?$ScriptRegistrant@VJFW_Console_Message_On_Custom@@@@QAE@PBD0@Z ; ScriptRegistrant<JFW_Console_Message_On_Custom>::ScriptRegistrant<JFW_Console_Message_On_Custom>
PUBLIC	?Create@?$ScriptRegistrant@VJFW_Console_Message_On_Custom@@@@UAEPAVScriptImpClass@@XZ ; ScriptRegistrant<JFW_Console_Message_On_Custom>::Create
PUBLIC	??1?$ScriptRegistrant@VJFW_Console_Message_On_Custom@@@@UAE@XZ ; ScriptRegistrant<JFW_Console_Message_On_Custom>::~ScriptRegistrant<JFW_Console_Message_On_Custom>
PUBLIC	??_G?$ScriptRegistrant@VJFW_Console_Message_On_Custom@@@@UAEPAXI@Z ; ScriptRegistrant<JFW_Console_Message_On_Custom>::`scalar deleting destructor'
PUBLIC	??0?$ScriptRegistrant@VJFW_Console_Input_On_Custom@@@@QAE@PBD0@Z ; ScriptRegistrant<JFW_Console_Input_On_Custom>::ScriptRegistrant<JFW_Console_Input_On_Custom>
PUBLIC	?Create@?$ScriptRegistrant@VJFW_Console_Input_On_Custom@@@@UAEPAVScriptImpClass@@XZ ; ScriptRegistrant<JFW_Console_Input_On_Custom>::Create
PUBLIC	??1?$ScriptRegistrant@VJFW_Console_Input_On_Custom@@@@UAE@XZ ; ScriptRegistrant<JFW_Console_Input_On_Custom>::~ScriptRegistrant<JFW_Console_Input_On_Custom>
PUBLIC	??_G?$ScriptRegistrant@VJFW_Console_Input_On_Custom@@@@UAEPAXI@Z ; ScriptRegistrant<JFW_Console_Input_On_Custom>::`scalar deleting destructor'
PUBLIC	??0?$ScriptRegistrant@VJFW_Invulnerable_On_Custom_3@@@@QAE@PBD0@Z ; ScriptRegistrant<JFW_Invulnerable_On_Custom_3>::ScriptRegistrant<JFW_Invulnerable_On_Custom_3>
PUBLIC	?Create@?$ScriptRegistrant@VJFW_Invulnerable_On_Custom_3@@@@UAEPAVScriptImpClass@@XZ ; ScriptRegistrant<JFW_Invulnerable_On_Custom_3>::Create
PUBLIC	??1?$ScriptRegistrant@VJFW_Invulnerable_On_Custom_3@@@@UAE@XZ ; ScriptRegistrant<JFW_Invulnerable_On_Custom_3>::~ScriptRegistrant<JFW_Invulnerable_On_Custom_3>
PUBLIC	??_G?$ScriptRegistrant@VJFW_Invulnerable_On_Custom_3@@@@UAEPAXI@Z ; ScriptRegistrant<JFW_Invulnerable_On_Custom_3>::`scalar deleting destructor'
PUBLIC	??0?$ScriptRegistrant@VJFW_Change_Team_On_Custom@@@@QAE@PBD0@Z ; ScriptRegistrant<JFW_Change_Team_On_Custom>::ScriptRegistrant<JFW_Change_Team_On_Custom>
PUBLIC	?Create@?$ScriptRegistrant@VJFW_Change_Team_On_Custom@@@@UAEPAVScriptImpClass@@XZ ; ScriptRegistrant<JFW_Change_Team_On_Custom>::Create
PUBLIC	??1?$ScriptRegistrant@VJFW_Change_Team_On_Custom@@@@UAE@XZ ; ScriptRegistrant<JFW_Change_Team_On_Custom>::~ScriptRegistrant<JFW_Change_Team_On_Custom>
PUBLIC	??_G?$ScriptRegistrant@VJFW_Change_Team_On_Custom@@@@UAEPAXI@Z ; ScriptRegistrant<JFW_Change_Team_On_Custom>::`scalar deleting destructor'
PUBLIC	??0?$ScriptRegistrant@VJFW_Enable_Team_Radar_On_Custom@@@@QAE@PBD0@Z ; ScriptRegistrant<JFW_Enable_Team_Radar_On_Custom>::ScriptRegistrant<JFW_Enable_Team_Radar_On_Custom>
PUBLIC	?Create@?$ScriptRegistrant@VJFW_Enable_Team_Radar_On_Custom@@@@UAEPAVScriptImpClass@@XZ ; ScriptRegistrant<JFW_Enable_Team_Radar_On_Custom>::Create
PUBLIC	??1?$ScriptRegistrant@VJFW_Enable_Team_Radar_On_Custom@@@@UAE@XZ ; ScriptRegistrant<JFW_Enable_Team_Radar_On_Custom>::~ScriptRegistrant<JFW_Enable_Team_Radar_On_Custom>
PUBLIC	??_G?$ScriptRegistrant@VJFW_Enable_Team_Radar_On_Custom@@@@UAEPAXI@Z ; ScriptRegistrant<JFW_Enable_Team_Radar_On_Custom>::`scalar deleting destructor'
PUBLIC	??0?$ScriptRegistrant@VJFW_2D_Sound_Team_Custom@@@@QAE@PBD0@Z ; ScriptRegistrant<JFW_2D_Sound_Team_Custom>::ScriptRegistrant<JFW_2D_Sound_Team_Custom>
PUBLIC	?Create@?$ScriptRegistrant@VJFW_2D_Sound_Team_Custom@@@@UAEPAVScriptImpClass@@XZ ; ScriptRegistrant<JFW_2D_Sound_Team_Custom>::Create
PUBLIC	??1?$ScriptRegistrant@VJFW_2D_Sound_Team_Custom@@@@UAE@XZ ; ScriptRegistrant<JFW_2D_Sound_Team_Custom>::~ScriptRegistrant<JFW_2D_Sound_Team_Custom>
PUBLIC	??_G?$ScriptRegistrant@VJFW_2D_Sound_Team_Custom@@@@UAEPAXI@Z ; ScriptRegistrant<JFW_2D_Sound_Team_Custom>::`scalar deleting destructor'
PUBLIC	??0?$ScriptRegistrant@VJFW_3D_Sound_Team_Custom@@@@QAE@PBD0@Z ; ScriptRegistrant<JFW_3D_Sound_Team_Custom>::ScriptRegistrant<JFW_3D_Sound_Team_Custom>
PUBLIC	?Create@?$ScriptRegistrant@VJFW_3D_Sound_Team_Custom@@@@UAEPAVScriptImpClass@@XZ ; ScriptRegistrant<JFW_3D_Sound_Team_Custom>::Create
PUBLIC	??1?$ScriptRegistrant@VJFW_3D_Sound_Team_Custom@@@@UAE@XZ ; ScriptRegistrant<JFW_3D_Sound_Team_Custom>::~ScriptRegistrant<JFW_3D_Sound_Team_Custom>
PUBLIC	??_G?$ScriptRegistrant@VJFW_3D_Sound_Team_Custom@@@@UAEPAXI@Z ; ScriptRegistrant<JFW_3D_Sound_Team_Custom>::`scalar deleting destructor'
PUBLIC	??0?$ScriptRegistrant@VJFW_Custom_Send_Ordered_Customs@@@@QAE@PBD0@Z ; ScriptRegistrant<JFW_Custom_Send_Ordered_Customs>::ScriptRegistrant<JFW_Custom_Send_Ordered_Customs>
PUBLIC	?Create@?$ScriptRegistrant@VJFW_Custom_Send_Ordered_Customs@@@@UAEPAVScriptImpClass@@XZ ; ScriptRegistrant<JFW_Custom_Send_Ordered_Customs>::Create
PUBLIC	??1?$ScriptRegistrant@VJFW_Custom_Send_Ordered_Customs@@@@UAE@XZ ; ScriptRegistrant<JFW_Custom_Send_Ordered_Customs>::~ScriptRegistrant<JFW_Custom_Send_Ordered_Customs>
PUBLIC	??_G?$ScriptRegistrant@VJFW_Custom_Send_Ordered_Customs@@@@UAEPAXI@Z ; ScriptRegistrant<JFW_Custom_Send_Ordered_Customs>::`scalar deleting destructor'
PUBLIC	??0?$ScriptRegistrant@VJFW_Custom_Send_Customs@@@@QAE@PBD0@Z ; ScriptRegistrant<JFW_Custom_Send_Customs>::ScriptRegistrant<JFW_Custom_Send_Customs>
PUBLIC	?Create@?$ScriptRegistrant@VJFW_Custom_Send_Customs@@@@UAEPAVScriptImpClass@@XZ ; ScriptRegistrant<JFW_Custom_Send_Customs>::Create
PUBLIC	??1?$ScriptRegistrant@VJFW_Custom_Send_Customs@@@@UAE@XZ ; ScriptRegistrant<JFW_Custom_Send_Customs>::~ScriptRegistrant<JFW_Custom_Send_Customs>
PUBLIC	??_G?$ScriptRegistrant@VJFW_Custom_Send_Customs@@@@UAEPAXI@Z ; ScriptRegistrant<JFW_Custom_Send_Customs>::`scalar deleting destructor'
PUBLIC	??0?$ScriptRegistrant@VJFW_Custom_Send_Custom_Multiple_IDs@@@@QAE@PBD0@Z ; ScriptRegistrant<JFW_Custom_Send_Custom_Multiple_IDs>::ScriptRegistrant<JFW_Custom_Send_Custom_Multiple_IDs>
PUBLIC	?Create@?$ScriptRegistrant@VJFW_Custom_Send_Custom_Multiple_IDs@@@@UAEPAVScriptImpClass@@XZ ; ScriptRegistrant<JFW_Custom_Send_Custom_Multiple_IDs>::Create
PUBLIC	??1?$ScriptRegistrant@VJFW_Custom_Send_Custom_Multiple_IDs@@@@UAE@XZ ; ScriptRegistrant<JFW_Custom_Send_Custom_Multiple_IDs>::~ScriptRegistrant<JFW_Custom_Send_Custom_Multiple_IDs>
PUBLIC	??_G?$ScriptRegistrant@VJFW_Custom_Send_Custom_Multiple_IDs@@@@UAEPAXI@Z ; ScriptRegistrant<JFW_Custom_Send_Custom_Multiple_IDs>::`scalar deleting destructor'
PUBLIC	??0?$ScriptRegistrant@VJFW_Create_Destroy_Object_On_Custom_Death@@@@QAE@PBD0@Z ; ScriptRegistrant<JFW_Create_Destroy_Object_On_Custom_Death>::ScriptRegistrant<JFW_Create_Destroy_Object_On_Custom_Death>
PUBLIC	?Create@?$ScriptRegistrant@VJFW_Create_Destroy_Object_On_Custom_Death@@@@UAEPAVScriptImpClass@@XZ ; ScriptRegistrant<JFW_Create_Destroy_Object_On_Custom_Death>::Create
PUBLIC	??1?$ScriptRegistrant@VJFW_Create_Destroy_Object_On_Custom_Death@@@@UAE@XZ ; ScriptRegistrant<JFW_Create_Destroy_Object_On_Custom_Death>::~ScriptRegistrant<JFW_Create_Destroy_Object_On_Custom_Death>
PUBLIC	??_G?$ScriptRegistrant@VJFW_Create_Destroy_Object_On_Custom_Death@@@@UAEPAXI@Z ; ScriptRegistrant<JFW_Create_Destroy_Object_On_Custom_Death>::`scalar deleting destructor'
PUBLIC	??0?$ScriptRegistrant@VJFW_Create_Destroy_Object_On_Custom_Death_Bone@@@@QAE@PBD0@Z ; ScriptRegistrant<JFW_Create_Destroy_Object_On_Custom_Death_Bone>::ScriptRegistrant<JFW_Create_Destroy_Object_On_Custom_Death_Bone>
PUBLIC	?Create@?$ScriptRegistrant@VJFW_Create_Destroy_Object_On_Custom_Death_Bone@@@@UAEPAVScriptImpClass@@XZ ; ScriptRegistrant<JFW_Create_Destroy_Object_On_Custom_Death_Bone>::Create
PUBLIC	??1?$ScriptRegistrant@VJFW_Create_Destroy_Object_On_Custom_Death_Bone@@@@UAE@XZ ; ScriptRegistrant<JFW_Create_Destroy_Object_On_Custom_Death_Bone>::~ScriptRegistrant<JFW_Create_Destroy_Object_On_Custom_Death_Bone>
PUBLIC	??_G?$ScriptRegistrant@VJFW_Create_Destroy_Object_On_Custom_Death_Bone@@@@UAEPAXI@Z ; ScriptRegistrant<JFW_Create_Destroy_Object_On_Custom_Death_Bone>::`scalar deleting destructor'
PUBLIC	??0?$ScriptRegistrant@VJFW_Custom_Destroy_All_Buildings@@@@QAE@PBD0@Z ; ScriptRegistrant<JFW_Custom_Destroy_All_Buildings>::ScriptRegistrant<JFW_Custom_Destroy_All_Buildings>
PUBLIC	?Create@?$ScriptRegistrant@VJFW_Custom_Destroy_All_Buildings@@@@UAEPAVScriptImpClass@@XZ ; ScriptRegistrant<JFW_Custom_Destroy_All_Buildings>::Create
PUBLIC	??1?$ScriptRegistrant@VJFW_Custom_Destroy_All_Buildings@@@@UAE@XZ ; ScriptRegistrant<JFW_Custom_Destroy_All_Buildings>::~ScriptRegistrant<JFW_Custom_Destroy_All_Buildings>
PUBLIC	??_G?$ScriptRegistrant@VJFW_Custom_Destroy_All_Buildings@@@@UAEPAXI@Z ; ScriptRegistrant<JFW_Custom_Destroy_All_Buildings>::`scalar deleting destructor'
PUBLIC	??0?$ScriptRegistrant@VJFW_Timer_Custom_On_Off@@@@QAE@PBD0@Z ; ScriptRegistrant<JFW_Timer_Custom_On_Off>::ScriptRegistrant<JFW_Timer_Custom_On_Off>
PUBLIC	?Create@?$ScriptRegistrant@VJFW_Timer_Custom_On_Off@@@@UAEPAVScriptImpClass@@XZ ; ScriptRegistrant<JFW_Timer_Custom_On_Off>::Create
PUBLIC	??1?$ScriptRegistrant@VJFW_Timer_Custom_On_Off@@@@UAE@XZ ; ScriptRegistrant<JFW_Timer_Custom_On_Off>::~ScriptRegistrant<JFW_Timer_Custom_On_Off>
PUBLIC	??_G?$ScriptRegistrant@VJFW_Timer_Custom_On_Off@@@@UAEPAXI@Z ; ScriptRegistrant<JFW_Timer_Custom_On_Off>::`scalar deleting destructor'
PUBLIC	??0?$ScriptRegistrant@VJFW_Create_Vehicle_On_Custom@@@@QAE@PBD0@Z ; ScriptRegistrant<JFW_Create_Vehicle_On_Custom>::ScriptRegistrant<JFW_Create_Vehicle_On_Custom>
PUBLIC	?Create@?$ScriptRegistrant@VJFW_Create_Vehicle_On_Custom@@@@UAEPAVScriptImpClass@@XZ ; ScriptRegistrant<JFW_Create_Vehicle_On_Custom>::Create
PUBLIC	??1?$ScriptRegistrant@VJFW_Create_Vehicle_On_Custom@@@@UAE@XZ ; ScriptRegistrant<JFW_Create_Vehicle_On_Custom>::~ScriptRegistrant<JFW_Create_Vehicle_On_Custom>
PUBLIC	??_G?$ScriptRegistrant@VJFW_Create_Vehicle_On_Custom@@@@UAEPAXI@Z ; ScriptRegistrant<JFW_Create_Vehicle_On_Custom>::`scalar deleting destructor'
PUBLIC	??0?$ScriptRegistrant@VJFW_Set_Model_On_Custom_Sender@@@@QAE@PBD0@Z ; ScriptRegistrant<JFW_Set_Model_On_Custom_Sender>::ScriptRegistrant<JFW_Set_Model_On_Custom_Sender>
PUBLIC	?Create@?$ScriptRegistrant@VJFW_Set_Model_On_Custom_Sender@@@@UAEPAVScriptImpClass@@XZ ; ScriptRegistrant<JFW_Set_Model_On_Custom_Sender>::Create
PUBLIC	??1?$ScriptRegistrant@VJFW_Set_Model_On_Custom_Sender@@@@UAE@XZ ; ScriptRegistrant<JFW_Set_Model_On_Custom_Sender>::~ScriptRegistrant<JFW_Set_Model_On_Custom_Sender>
PUBLIC	??_G?$ScriptRegistrant@VJFW_Set_Model_On_Custom_Sender@@@@UAEPAXI@Z ; ScriptRegistrant<JFW_Set_Model_On_Custom_Sender>::`scalar deleting destructor'
PUBLIC	??0?$ScriptRegistrant@VJFW_Death_Send_Custom_ID@@@@QAE@PBD0@Z ; ScriptRegistrant<JFW_Death_Send_Custom_ID>::ScriptRegistrant<JFW_Death_Send_Custom_ID>
PUBLIC	?Create@?$ScriptRegistrant@VJFW_Death_Send_Custom_ID@@@@UAEPAVScriptImpClass@@XZ ; ScriptRegistrant<JFW_Death_Send_Custom_ID>::Create
PUBLIC	??1?$ScriptRegistrant@VJFW_Death_Send_Custom_ID@@@@UAE@XZ ; ScriptRegistrant<JFW_Death_Send_Custom_ID>::~ScriptRegistrant<JFW_Death_Send_Custom_ID>
PUBLIC	??_G?$ScriptRegistrant@VJFW_Death_Send_Custom_ID@@@@UAEPAXI@Z ; ScriptRegistrant<JFW_Death_Send_Custom_ID>::`scalar deleting destructor'
PUBLIC	??0?$ScriptRegistrant@VJFW_Death_Send_Custom_Driver_ID@@@@QAE@PBD0@Z ; ScriptRegistrant<JFW_Death_Send_Custom_Driver_ID>::ScriptRegistrant<JFW_Death_Send_Custom_Driver_ID>
PUBLIC	?Create@?$ScriptRegistrant@VJFW_Death_Send_Custom_Driver_ID@@@@UAEPAVScriptImpClass@@XZ ; ScriptRegistrant<JFW_Death_Send_Custom_Driver_ID>::Create
PUBLIC	??1?$ScriptRegistrant@VJFW_Death_Send_Custom_Driver_ID@@@@UAE@XZ ; ScriptRegistrant<JFW_Death_Send_Custom_Driver_ID>::~ScriptRegistrant<JFW_Death_Send_Custom_Driver_ID>
PUBLIC	??_G?$ScriptRegistrant@VJFW_Death_Send_Custom_Driver_ID@@@@UAEPAXI@Z ; ScriptRegistrant<JFW_Death_Send_Custom_Driver_ID>::`scalar deleting destructor'
PUBLIC	??0?$ScriptRegistrant@VJFW_Repair_On_Custom@@@@QAE@PBD0@Z ; ScriptRegistrant<JFW_Repair_On_Custom>::ScriptRegistrant<JFW_Repair_On_Custom>
PUBLIC	?Create@?$ScriptRegistrant@VJFW_Repair_On_Custom@@@@UAEPAVScriptImpClass@@XZ ; ScriptRegistrant<JFW_Repair_On_Custom>::Create
PUBLIC	??1?$ScriptRegistrant@VJFW_Repair_On_Custom@@@@UAE@XZ ; ScriptRegistrant<JFW_Repair_On_Custom>::~ScriptRegistrant<JFW_Repair_On_Custom>
PUBLIC	??_G?$ScriptRegistrant@VJFW_Repair_On_Custom@@@@UAEPAXI@Z ; ScriptRegistrant<JFW_Repair_On_Custom>::`scalar deleting destructor'
PUBLIC	??0?$ScriptRegistrant@VJFW_Teleport_Custom@@@@QAE@PBD0@Z ; ScriptRegistrant<JFW_Teleport_Custom>::ScriptRegistrant<JFW_Teleport_Custom>
PUBLIC	?Create@?$ScriptRegistrant@VJFW_Teleport_Custom@@@@UAEPAVScriptImpClass@@XZ ; ScriptRegistrant<JFW_Teleport_Custom>::Create
PUBLIC	??1?$ScriptRegistrant@VJFW_Teleport_Custom@@@@UAE@XZ ; ScriptRegistrant<JFW_Teleport_Custom>::~ScriptRegistrant<JFW_Teleport_Custom>
PUBLIC	??_G?$ScriptRegistrant@VJFW_Teleport_Custom@@@@UAEPAXI@Z ; ScriptRegistrant<JFW_Teleport_Custom>::`scalar deleting destructor'
PUBLIC	??0?$ScriptRegistrant@VJFW_Teleport_Custom_Random@@@@QAE@PBD0@Z ; ScriptRegistrant<JFW_Teleport_Custom_Random>::ScriptRegistrant<JFW_Teleport_Custom_Random>
PUBLIC	?Create@?$ScriptRegistrant@VJFW_Teleport_Custom_Random@@@@UAEPAVScriptImpClass@@XZ ; ScriptRegistrant<JFW_Teleport_Custom_Random>::Create
PUBLIC	??1?$ScriptRegistrant@VJFW_Teleport_Custom_Random@@@@UAE@XZ ; ScriptRegistrant<JFW_Teleport_Custom_Random>::~ScriptRegistrant<JFW_Teleport_Custom_Random>
PUBLIC	??_G?$ScriptRegistrant@VJFW_Teleport_Custom_Random@@@@UAEPAXI@Z ; ScriptRegistrant<JFW_Teleport_Custom_Random>::`scalar deleting destructor'
PUBLIC	??0?$ScriptRegistrant@VJFW_Teleport_Custom_Timer@@@@QAE@PBD0@Z ; ScriptRegistrant<JFW_Teleport_Custom_Timer>::ScriptRegistrant<JFW_Teleport_Custom_Timer>
PUBLIC	?Create@?$ScriptRegistrant@VJFW_Teleport_Custom_Timer@@@@UAEPAVScriptImpClass@@XZ ; ScriptRegistrant<JFW_Teleport_Custom_Timer>::Create
PUBLIC	??1?$ScriptRegistrant@VJFW_Teleport_Custom_Timer@@@@UAE@XZ ; ScriptRegistrant<JFW_Teleport_Custom_Timer>::~ScriptRegistrant<JFW_Teleport_Custom_Timer>
PUBLIC	??_G?$ScriptRegistrant@VJFW_Teleport_Custom_Timer@@@@UAEPAXI@Z ; ScriptRegistrant<JFW_Teleport_Custom_Timer>::`scalar deleting destructor'
PUBLIC	??0?$ScriptRegistrant@VJFW_Blow_Up_Location_On_Custom@@@@QAE@PBD0@Z ; ScriptRegistrant<JFW_Blow_Up_Location_On_Custom>::ScriptRegistrant<JFW_Blow_Up_Location_On_Custom>
PUBLIC	?Create@?$ScriptRegistrant@VJFW_Blow_Up_Location_On_Custom@@@@UAEPAVScriptImpClass@@XZ ; ScriptRegistrant<JFW_Blow_Up_Location_On_Custom>::Create
PUBLIC	??1?$ScriptRegistrant@VJFW_Blow_Up_Location_On_Custom@@@@UAE@XZ ; ScriptRegistrant<JFW_Blow_Up_Location_On_Custom>::~ScriptRegistrant<JFW_Blow_Up_Location_On_Custom>
PUBLIC	??_G?$ScriptRegistrant@VJFW_Blow_Up_Location_On_Custom@@@@UAEPAXI@Z ; ScriptRegistrant<JFW_Blow_Up_Location_On_Custom>::`scalar deleting destructor'
PUBLIC	??0?$ScriptRegistrant@VJFW_3D_Sound_Custom@@@@QAE@PBD0@Z ; ScriptRegistrant<JFW_3D_Sound_Custom>::ScriptRegistrant<JFW_3D_Sound_Custom>
PUBLIC	?Create@?$ScriptRegistrant@VJFW_3D_Sound_Custom@@@@UAEPAVScriptImpClass@@XZ ; ScriptRegistrant<JFW_3D_Sound_Custom>::Create
PUBLIC	??1?$ScriptRegistrant@VJFW_3D_Sound_Custom@@@@UAE@XZ ; ScriptRegistrant<JFW_3D_Sound_Custom>::~ScriptRegistrant<JFW_3D_Sound_Custom>
PUBLIC	??_G?$ScriptRegistrant@VJFW_3D_Sound_Custom@@@@UAEPAXI@Z ; ScriptRegistrant<JFW_3D_Sound_Custom>::`scalar deleting destructor'
PUBLIC	??0?$ScriptRegistrant@VJFW_Created_Send_Custom@@@@QAE@PBD0@Z ; ScriptRegistrant<JFW_Created_Send_Custom>::ScriptRegistrant<JFW_Created_Send_Custom>
PUBLIC	?Create@?$ScriptRegistrant@VJFW_Created_Send_Custom@@@@UAEPAVScriptImpClass@@XZ ; ScriptRegistrant<JFW_Created_Send_Custom>::Create
PUBLIC	??1?$ScriptRegistrant@VJFW_Created_Send_Custom@@@@UAE@XZ ; ScriptRegistrant<JFW_Created_Send_Custom>::~ScriptRegistrant<JFW_Created_Send_Custom>
PUBLIC	??_G?$ScriptRegistrant@VJFW_Created_Send_Custom@@@@UAEPAXI@Z ; ScriptRegistrant<JFW_Created_Send_Custom>::`scalar deleting destructor'
PUBLIC	??0?$ScriptRegistrant@VJFW_Damaged_Send_Custom@@@@QAE@PBD0@Z ; ScriptRegistrant<JFW_Damaged_Send_Custom>::ScriptRegistrant<JFW_Damaged_Send_Custom>
PUBLIC	?Create@?$ScriptRegistrant@VJFW_Damaged_Send_Custom@@@@UAEPAVScriptImpClass@@XZ ; ScriptRegistrant<JFW_Damaged_Send_Custom>::Create
PUBLIC	??1?$ScriptRegistrant@VJFW_Damaged_Send_Custom@@@@UAE@XZ ; ScriptRegistrant<JFW_Damaged_Send_Custom>::~ScriptRegistrant<JFW_Damaged_Send_Custom>
PUBLIC	??_G?$ScriptRegistrant@VJFW_Damaged_Send_Custom@@@@UAEPAXI@Z ; ScriptRegistrant<JFW_Damaged_Send_Custom>::`scalar deleting destructor'
PUBLIC	??0?$ScriptRegistrant@VJFW_Enemy_Seen_Send_Custom@@@@QAE@PBD0@Z ; ScriptRegistrant<JFW_Enemy_Seen_Send_Custom>::ScriptRegistrant<JFW_Enemy_Seen_Send_Custom>
PUBLIC	?Create@?$ScriptRegistrant@VJFW_Enemy_Seen_Send_Custom@@@@UAEPAVScriptImpClass@@XZ ; ScriptRegistrant<JFW_Enemy_Seen_Send_Custom>::Create
PUBLIC	??1?$ScriptRegistrant@VJFW_Enemy_Seen_Send_Custom@@@@UAE@XZ ; ScriptRegistrant<JFW_Enemy_Seen_Send_Custom>::~ScriptRegistrant<JFW_Enemy_Seen_Send_Custom>
PUBLIC	??_G?$ScriptRegistrant@VJFW_Enemy_Seen_Send_Custom@@@@UAEPAXI@Z ; ScriptRegistrant<JFW_Enemy_Seen_Send_Custom>::`scalar deleting destructor'
PUBLIC	??0?$ScriptRegistrant@VJFW_Create_Object_Custom@@@@QAE@PBD0@Z ; ScriptRegistrant<JFW_Create_Object_Custom>::ScriptRegistrant<JFW_Create_Object_Custom>
PUBLIC	?Create@?$ScriptRegistrant@VJFW_Create_Object_Custom@@@@UAEPAVScriptImpClass@@XZ ; ScriptRegistrant<JFW_Create_Object_Custom>::Create
PUBLIC	??1?$ScriptRegistrant@VJFW_Create_Object_Custom@@@@UAE@XZ ; ScriptRegistrant<JFW_Create_Object_Custom>::~ScriptRegistrant<JFW_Create_Object_Custom>
PUBLIC	??_G?$ScriptRegistrant@VJFW_Create_Object_Custom@@@@UAEPAXI@Z ; ScriptRegistrant<JFW_Create_Object_Custom>::`scalar deleting destructor'
PUBLIC	??0?$ScriptRegistrant@VJFW_Enable_Spawner_On_Custom@@@@QAE@PBD0@Z ; ScriptRegistrant<JFW_Enable_Spawner_On_Custom>::ScriptRegistrant<JFW_Enable_Spawner_On_Custom>
PUBLIC	?Create@?$ScriptRegistrant@VJFW_Enable_Spawner_On_Custom@@@@UAEPAVScriptImpClass@@XZ ; ScriptRegistrant<JFW_Enable_Spawner_On_Custom>::Create
PUBLIC	??1?$ScriptRegistrant@VJFW_Enable_Spawner_On_Custom@@@@UAE@XZ ; ScriptRegistrant<JFW_Enable_Spawner_On_Custom>::~ScriptRegistrant<JFW_Enable_Spawner_On_Custom>
PUBLIC	??_G?$ScriptRegistrant@VJFW_Enable_Spawner_On_Custom@@@@UAEPAXI@Z ; ScriptRegistrant<JFW_Enable_Spawner_On_Custom>::`scalar deleting destructor'
PUBLIC	??0?$ScriptRegistrant@VJFW_Set_Animation_On_Custom@@@@QAE@PBD0@Z ; ScriptRegistrant<JFW_Set_Animation_On_Custom>::ScriptRegistrant<JFW_Set_Animation_On_Custom>
PUBLIC	?Create@?$ScriptRegistrant@VJFW_Set_Animation_On_Custom@@@@UAEPAVScriptImpClass@@XZ ; ScriptRegistrant<JFW_Set_Animation_On_Custom>::Create
PUBLIC	??1?$ScriptRegistrant@VJFW_Set_Animation_On_Custom@@@@UAE@XZ ; ScriptRegistrant<JFW_Set_Animation_On_Custom>::~ScriptRegistrant<JFW_Set_Animation_On_Custom>
PUBLIC	??_G?$ScriptRegistrant@VJFW_Set_Animation_On_Custom@@@@UAEPAXI@Z ; ScriptRegistrant<JFW_Set_Animation_On_Custom>::`scalar deleting destructor'
PUBLIC	??0?$ScriptRegistrant@VJFW_Set_Model_Animation_On_Custom@@@@QAE@PBD0@Z ; ScriptRegistrant<JFW_Set_Model_Animation_On_Custom>::ScriptRegistrant<JFW_Set_Model_Animation_On_Custom>
PUBLIC	?Create@?$ScriptRegistrant@VJFW_Set_Model_Animation_On_Custom@@@@UAEPAVScriptImpClass@@XZ ; ScriptRegistrant<JFW_Set_Model_Animation_On_Custom>::Create
PUBLIC	??1?$ScriptRegistrant@VJFW_Set_Model_Animation_On_Custom@@@@UAE@XZ ; ScriptRegistrant<JFW_Set_Model_Animation_On_Custom>::~ScriptRegistrant<JFW_Set_Model_Animation_On_Custom>
PUBLIC	??_G?$ScriptRegistrant@VJFW_Set_Model_Animation_On_Custom@@@@UAEPAXI@Z ; ScriptRegistrant<JFW_Set_Model_Animation_On_Custom>::`scalar deleting destructor'
PUBLIC	??0?$ScriptRegistrant@VJFW_Set_Model_On_Custom@@@@QAE@PBD0@Z ; ScriptRegistrant<JFW_Set_Model_On_Custom>::ScriptRegistrant<JFW_Set_Model_On_Custom>
PUBLIC	?Create@?$ScriptRegistrant@VJFW_Set_Model_On_Custom@@@@UAEPAVScriptImpClass@@XZ ; ScriptRegistrant<JFW_Set_Model_On_Custom>::Create
PUBLIC	??1?$ScriptRegistrant@VJFW_Set_Model_On_Custom@@@@UAE@XZ ; ScriptRegistrant<JFW_Set_Model_On_Custom>::~ScriptRegistrant<JFW_Set_Model_On_Custom>
PUBLIC	??_G?$ScriptRegistrant@VJFW_Set_Model_On_Custom@@@@UAEPAXI@Z ; ScriptRegistrant<JFW_Set_Model_On_Custom>::`scalar deleting destructor'
PUBLIC	??0?$ScriptRegistrant@VJFW_Enable_Disable_Animation_On_Custom@@@@QAE@PBD0@Z ; ScriptRegistrant<JFW_Enable_Disable_Animation_On_Custom>::ScriptRegistrant<JFW_Enable_Disable_Animation_On_Custom>
PUBLIC	?Create@?$ScriptRegistrant@VJFW_Enable_Disable_Animation_On_Custom@@@@UAEPAVScriptImpClass@@XZ ; ScriptRegistrant<JFW_Enable_Disable_Animation_On_Custom>::Create
PUBLIC	??1?$ScriptRegistrant@VJFW_Enable_Disable_Animation_On_Custom@@@@UAE@XZ ; ScriptRegistrant<JFW_Enable_Disable_Animation_On_Custom>::~ScriptRegistrant<JFW_Enable_Disable_Animation_On_Custom>
PUBLIC	??_G?$ScriptRegistrant@VJFW_Enable_Disable_Animation_On_Custom@@@@UAEPAXI@Z ; ScriptRegistrant<JFW_Enable_Disable_Animation_On_Custom>::`scalar deleting destructor'
PUBLIC	??0?$ScriptRegistrant@VJFW_Custom_Toggle_Visible@@@@QAE@PBD0@Z ; ScriptRegistrant<JFW_Custom_Toggle_Visible>::ScriptRegistrant<JFW_Custom_Toggle_Visible>
PUBLIC	?Create@?$ScriptRegistrant@VJFW_Custom_Toggle_Visible@@@@UAEPAVScriptImpClass@@XZ ; ScriptRegistrant<JFW_Custom_Toggle_Visible>::Create
PUBLIC	??1?$ScriptRegistrant@VJFW_Custom_Toggle_Visible@@@@UAE@XZ ; ScriptRegistrant<JFW_Custom_Toggle_Visible>::~ScriptRegistrant<JFW_Custom_Toggle_Visible>
PUBLIC	??_G?$ScriptRegistrant@VJFW_Custom_Toggle_Visible@@@@UAEPAXI@Z ; ScriptRegistrant<JFW_Custom_Toggle_Visible>::`scalar deleting destructor'
PUBLIC	??0?$ScriptRegistrant@VJFW_Customs_Send_Custom@@@@QAE@PBD0@Z ; ScriptRegistrant<JFW_Customs_Send_Custom>::ScriptRegistrant<JFW_Customs_Send_Custom>
PUBLIC	?Create@?$ScriptRegistrant@VJFW_Customs_Send_Custom@@@@UAEPAVScriptImpClass@@XZ ; ScriptRegistrant<JFW_Customs_Send_Custom>::Create
PUBLIC	??1?$ScriptRegistrant@VJFW_Customs_Send_Custom@@@@UAE@XZ ; ScriptRegistrant<JFW_Customs_Send_Custom>::~ScriptRegistrant<JFW_Customs_Send_Custom>
PUBLIC	??_G?$ScriptRegistrant@VJFW_Customs_Send_Custom@@@@UAEPAXI@Z ; ScriptRegistrant<JFW_Customs_Send_Custom>::`scalar deleting destructor'
PUBLIC	??0?$ScriptRegistrant@VJFW_Custom_Send_Custom@@@@QAE@PBD0@Z ; ScriptRegistrant<JFW_Custom_Send_Custom>::ScriptRegistrant<JFW_Custom_Send_Custom>
PUBLIC	?Create@?$ScriptRegistrant@VJFW_Custom_Send_Custom@@@@UAEPAVScriptImpClass@@XZ ; ScriptRegistrant<JFW_Custom_Send_Custom>::Create
PUBLIC	??1?$ScriptRegistrant@VJFW_Custom_Send_Custom@@@@UAE@XZ ; ScriptRegistrant<JFW_Custom_Send_Custom>::~ScriptRegistrant<JFW_Custom_Send_Custom>
PUBLIC	??_G?$ScriptRegistrant@VJFW_Custom_Send_Custom@@@@UAEPAXI@Z ; ScriptRegistrant<JFW_Custom_Send_Custom>::`scalar deleting destructor'
PUBLIC	??0?$ScriptRegistrant@VJFW_Custom_Multiple_Send_Custom@@@@QAE@PBD0@Z ; ScriptRegistrant<JFW_Custom_Multiple_Send_Custom>::ScriptRegistrant<JFW_Custom_Multiple_Send_Custom>
PUBLIC	?Create@?$ScriptRegistrant@VJFW_Custom_Multiple_Send_Custom@@@@UAEPAVScriptImpClass@@XZ ; ScriptRegistrant<JFW_Custom_Multiple_Send_Custom>::Create
PUBLIC	??1?$ScriptRegistrant@VJFW_Custom_Multiple_Send_Custom@@@@UAE@XZ ; ScriptRegistrant<JFW_Custom_Multiple_Send_Custom>::~ScriptRegistrant<JFW_Custom_Multiple_Send_Custom>
PUBLIC	??_G?$ScriptRegistrant@VJFW_Custom_Multiple_Send_Custom@@@@UAEPAXI@Z ; ScriptRegistrant<JFW_Custom_Multiple_Send_Custom>::`scalar deleting destructor'
PUBLIC	??0?$ScriptRegistrant@VJFW_Custom_Multiple_Send_Custom_2@@@@QAE@PBD0@Z ; ScriptRegistrant<JFW_Custom_Multiple_Send_Custom_2>::ScriptRegistrant<JFW_Custom_Multiple_Send_Custom_2>
PUBLIC	?Create@?$ScriptRegistrant@VJFW_Custom_Multiple_Send_Custom_2@@@@UAEPAVScriptImpClass@@XZ ; ScriptRegistrant<JFW_Custom_Multiple_Send_Custom_2>::Create
PUBLIC	??1?$ScriptRegistrant@VJFW_Custom_Multiple_Send_Custom_2@@@@UAE@XZ ; ScriptRegistrant<JFW_Custom_Multiple_Send_Custom_2>::~ScriptRegistrant<JFW_Custom_Multiple_Send_Custom_2>
PUBLIC	??_G?$ScriptRegistrant@VJFW_Custom_Multiple_Send_Custom_2@@@@UAEPAXI@Z ; ScriptRegistrant<JFW_Custom_Multiple_Send_Custom_2>::`scalar deleting destructor'
PUBLIC	??0?$ScriptRegistrant@VJFW_Create_Destroy_Object_On_Custom@@@@QAE@PBD0@Z ; ScriptRegistrant<JFW_Create_Destroy_Object_On_Custom>::ScriptRegistrant<JFW_Create_Destroy_Object_On_Custom>
PUBLIC	?Create@?$ScriptRegistrant@VJFW_Create_Destroy_Object_On_Custom@@@@UAEPAVScriptImpClass@@XZ ; ScriptRegistrant<JFW_Create_Destroy_Object_On_Custom>::Create
PUBLIC	??1?$ScriptRegistrant@VJFW_Create_Destroy_Object_On_Custom@@@@UAE@XZ ; ScriptRegistrant<JFW_Create_Destroy_Object_On_Custom>::~ScriptRegistrant<JFW_Create_Destroy_Object_On_Custom>
PUBLIC	??_G?$ScriptRegistrant@VJFW_Create_Destroy_Object_On_Custom@@@@UAEPAXI@Z ; ScriptRegistrant<JFW_Create_Destroy_Object_On_Custom>::`scalar deleting destructor'
PUBLIC	??0?$ScriptRegistrant@VJFW_Create_Destroy_Object_On_Custom_Animate@@@@QAE@PBD0@Z ; ScriptRegistrant<JFW_Create_Destroy_Object_On_Custom_Animate>::ScriptRegistrant<JFW_Create_Destroy_Object_On_Custom_Animate>
PUBLIC	?Create@?$ScriptRegistrant@VJFW_Create_Destroy_Object_On_Custom_Animate@@@@UAEPAVScriptImpClass@@XZ ; ScriptRegistrant<JFW_Create_Destroy_Object_On_Custom_Animate>::Create
PUBLIC	??1?$ScriptRegistrant@VJFW_Create_Destroy_Object_On_Custom_Animate@@@@UAE@XZ ; ScriptRegistrant<JFW_Create_Destroy_Object_On_Custom_Animate>::~ScriptRegistrant<JFW_Create_Destroy_Object_On_Custom_Animate>
PUBLIC	??_G?$ScriptRegistrant@VJFW_Create_Destroy_Object_On_Custom_Animate@@@@UAEPAXI@Z ; ScriptRegistrant<JFW_Create_Destroy_Object_On_Custom_Animate>::`scalar deleting destructor'
PUBLIC	??0?$ScriptRegistrant@VJFW_Create_Destroy_Object_On_Custom_Animate_2@@@@QAE@PBD0@Z ; ScriptRegistrant<JFW_Create_Destroy_Object_On_Custom_Animate_2>::ScriptRegistrant<JFW_Create_Destroy_Object_On_Custom_Animate_2>
PUBLIC	?Create@?$ScriptRegistrant@VJFW_Create_Destroy_Object_On_Custom_Animate_2@@@@UAEPAVScriptImpClass@@XZ ; ScriptRegistrant<JFW_Create_Destroy_Object_On_Custom_Animate_2>::Create
PUBLIC	??1?$ScriptRegistrant@VJFW_Create_Destroy_Object_On_Custom_Animate_2@@@@UAE@XZ ; ScriptRegistrant<JFW_Create_Destroy_Object_On_Custom_Animate_2>::~ScriptRegistrant<JFW_Create_Destroy_Object_On_Custom_Animate_2>
PUBLIC	??_G?$ScriptRegistrant@VJFW_Create_Destroy_Object_On_Custom_Animate_2@@@@UAEPAXI@Z ; ScriptRegistrant<JFW_Create_Destroy_Object_On_Custom_Animate_2>::`scalar deleting destructor'
PUBLIC	??0?$ScriptRegistrant@VJFW_Damaged_Send_Custom_Amount@@@@QAE@PBD0@Z ; ScriptRegistrant<JFW_Damaged_Send_Custom_Amount>::ScriptRegistrant<JFW_Damaged_Send_Custom_Amount>
PUBLIC	?Create@?$ScriptRegistrant@VJFW_Damaged_Send_Custom_Amount@@@@UAEPAVScriptImpClass@@XZ ; ScriptRegistrant<JFW_Damaged_Send_Custom_Amount>::Create
PUBLIC	??1?$ScriptRegistrant@VJFW_Damaged_Send_Custom_Amount@@@@UAE@XZ ; ScriptRegistrant<JFW_Damaged_Send_Custom_Amount>::~ScriptRegistrant<JFW_Damaged_Send_Custom_Amount>
PUBLIC	??_G?$ScriptRegistrant@VJFW_Damaged_Send_Custom_Amount@@@@UAEPAXI@Z ; ScriptRegistrant<JFW_Damaged_Send_Custom_Amount>::`scalar deleting destructor'
PUBLIC	??0?$ScriptRegistrant@VJFW_Invulnerable_On_Custom@@@@QAE@PBD0@Z ; ScriptRegistrant<JFW_Invulnerable_On_Custom>::ScriptRegistrant<JFW_Invulnerable_On_Custom>
PUBLIC	?Create@?$ScriptRegistrant@VJFW_Invulnerable_On_Custom@@@@UAEPAVScriptImpClass@@XZ ; ScriptRegistrant<JFW_Invulnerable_On_Custom>::Create
PUBLIC	??1?$ScriptRegistrant@VJFW_Invulnerable_On_Custom@@@@UAE@XZ ; ScriptRegistrant<JFW_Invulnerable_On_Custom>::~ScriptRegistrant<JFW_Invulnerable_On_Custom>
PUBLIC	??_G?$ScriptRegistrant@VJFW_Invulnerable_On_Custom@@@@UAEPAXI@Z ; ScriptRegistrant<JFW_Invulnerable_On_Custom>::`scalar deleting destructor'
PUBLIC	??0?$ScriptRegistrant@VJFW_Invulnerable_On_Custom_2@@@@QAE@PBD0@Z ; ScriptRegistrant<JFW_Invulnerable_On_Custom_2>::ScriptRegistrant<JFW_Invulnerable_On_Custom_2>
PUBLIC	?Create@?$ScriptRegistrant@VJFW_Invulnerable_On_Custom_2@@@@UAEPAVScriptImpClass@@XZ ; ScriptRegistrant<JFW_Invulnerable_On_Custom_2>::Create
PUBLIC	??1?$ScriptRegistrant@VJFW_Invulnerable_On_Custom_2@@@@UAE@XZ ; ScriptRegistrant<JFW_Invulnerable_On_Custom_2>::~ScriptRegistrant<JFW_Invulnerable_On_Custom_2>
PUBLIC	??_G?$ScriptRegistrant@VJFW_Invulnerable_On_Custom_2@@@@UAEPAXI@Z ; ScriptRegistrant<JFW_Invulnerable_On_Custom_2>::`scalar deleting destructor'
PUBLIC	??0?$ScriptRegistrant@VJFW_Custom_Send_Custom_Parameter@@@@QAE@PBD0@Z ; ScriptRegistrant<JFW_Custom_Send_Custom_Parameter>::ScriptRegistrant<JFW_Custom_Send_Custom_Parameter>
PUBLIC	?Create@?$ScriptRegistrant@VJFW_Custom_Send_Custom_Parameter@@@@UAEPAVScriptImpClass@@XZ ; ScriptRegistrant<JFW_Custom_Send_Custom_Parameter>::Create
PUBLIC	??1?$ScriptRegistrant@VJFW_Custom_Send_Custom_Parameter@@@@UAE@XZ ; ScriptRegistrant<JFW_Custom_Send_Custom_Parameter>::~ScriptRegistrant<JFW_Custom_Send_Custom_Parameter>
PUBLIC	??_G?$ScriptRegistrant@VJFW_Custom_Send_Custom_Parameter@@@@UAEPAXI@Z ; ScriptRegistrant<JFW_Custom_Send_Custom_Parameter>::`scalar deleting destructor'
PUBLIC	??0?$ScriptRegistrant@VJFW_Create_Destroy_Object_On_Custom_Bone@@@@QAE@PBD0@Z ; ScriptRegistrant<JFW_Create_Destroy_Object_On_Custom_Bone>::ScriptRegistrant<JFW_Create_Destroy_Object_On_Custom_Bone>
PUBLIC	?Create@?$ScriptRegistrant@VJFW_Create_Destroy_Object_On_Custom_Bone@@@@UAEPAVScriptImpClass@@XZ ; ScriptRegistrant<JFW_Create_Destroy_Object_On_Custom_Bone>::Create
PUBLIC	??1?$ScriptRegistrant@VJFW_Create_Destroy_Object_On_Custom_Bone@@@@UAE@XZ ; ScriptRegistrant<JFW_Create_Destroy_Object_On_Custom_Bone>::~ScriptRegistrant<JFW_Create_Destroy_Object_On_Custom_Bone>
PUBLIC	??_G?$ScriptRegistrant@VJFW_Create_Destroy_Object_On_Custom_Bone@@@@UAEPAXI@Z ; ScriptRegistrant<JFW_Create_Destroy_Object_On_Custom_Bone>::`scalar deleting destructor'
PUBLIC	??0?$ScriptRegistrant@VJFW_Timer_Custom@@@@QAE@PBD0@Z ; ScriptRegistrant<JFW_Timer_Custom>::ScriptRegistrant<JFW_Timer_Custom>
PUBLIC	?Create@?$ScriptRegistrant@VJFW_Timer_Custom@@@@UAEPAVScriptImpClass@@XZ ; ScriptRegistrant<JFW_Timer_Custom>::Create
PUBLIC	??1?$ScriptRegistrant@VJFW_Timer_Custom@@@@UAE@XZ ; ScriptRegistrant<JFW_Timer_Custom>::~ScriptRegistrant<JFW_Timer_Custom>
PUBLIC	??_G?$ScriptRegistrant@VJFW_Timer_Custom@@@@UAEPAXI@Z ; ScriptRegistrant<JFW_Timer_Custom>::`scalar deleting destructor'
PUBLIC	??0?$ScriptRegistrant@VJFW_2D_Sound_Custom@@@@QAE@PBD0@Z ; ScriptRegistrant<JFW_2D_Sound_Custom>::ScriptRegistrant<JFW_2D_Sound_Custom>
PUBLIC	?Create@?$ScriptRegistrant@VJFW_2D_Sound_Custom@@@@UAEPAVScriptImpClass@@XZ ; ScriptRegistrant<JFW_2D_Sound_Custom>::Create
PUBLIC	??1?$ScriptRegistrant@VJFW_2D_Sound_Custom@@@@UAE@XZ ; ScriptRegistrant<JFW_2D_Sound_Custom>::~ScriptRegistrant<JFW_2D_Sound_Custom>
PUBLIC	??_G?$ScriptRegistrant@VJFW_2D_Sound_Custom@@@@UAEPAXI@Z ; ScriptRegistrant<JFW_2D_Sound_Custom>::`scalar deleting destructor'
PUBLIC	??0?$ScriptRegistrant@VJFW_3D_Sound_Custom_2@@@@QAE@PBD0@Z ; ScriptRegistrant<JFW_3D_Sound_Custom_2>::ScriptRegistrant<JFW_3D_Sound_Custom_2>
PUBLIC	?Create@?$ScriptRegistrant@VJFW_3D_Sound_Custom_2@@@@UAEPAVScriptImpClass@@XZ ; ScriptRegistrant<JFW_3D_Sound_Custom_2>::Create
PUBLIC	??1?$ScriptRegistrant@VJFW_3D_Sound_Custom_2@@@@UAE@XZ ; ScriptRegistrant<JFW_3D_Sound_Custom_2>::~ScriptRegistrant<JFW_3D_Sound_Custom_2>
PUBLIC	??_G?$ScriptRegistrant@VJFW_3D_Sound_Custom_2@@@@UAEPAXI@Z ; ScriptRegistrant<JFW_3D_Sound_Custom_2>::`scalar deleting destructor'
PUBLIC	??0?$ScriptRegistrant@VJFW_3D_Sound_Custom_Bone@@@@QAE@PBD0@Z ; ScriptRegistrant<JFW_3D_Sound_Custom_Bone>::ScriptRegistrant<JFW_3D_Sound_Custom_Bone>
PUBLIC	?Create@?$ScriptRegistrant@VJFW_3D_Sound_Custom_Bone@@@@UAEPAVScriptImpClass@@XZ ; ScriptRegistrant<JFW_3D_Sound_Custom_Bone>::Create
PUBLIC	??1?$ScriptRegistrant@VJFW_3D_Sound_Custom_Bone@@@@UAE@XZ ; ScriptRegistrant<JFW_3D_Sound_Custom_Bone>::~ScriptRegistrant<JFW_3D_Sound_Custom_Bone>
PUBLIC	??_G?$ScriptRegistrant@VJFW_3D_Sound_Custom_Bone@@@@UAEPAXI@Z ; ScriptRegistrant<JFW_3D_Sound_Custom_Bone>::`scalar deleting destructor'
PUBLIC	??0?$ScriptRegistrant@VJFW_Random_Custom@@@@QAE@PBD0@Z ; ScriptRegistrant<JFW_Random_Custom>::ScriptRegistrant<JFW_Random_Custom>
PUBLIC	?Create@?$ScriptRegistrant@VJFW_Random_Custom@@@@UAEPAVScriptImpClass@@XZ ; ScriptRegistrant<JFW_Random_Custom>::Create
PUBLIC	??1?$ScriptRegistrant@VJFW_Random_Custom@@@@UAE@XZ ; ScriptRegistrant<JFW_Random_Custom>::~ScriptRegistrant<JFW_Random_Custom>
PUBLIC	??_G?$ScriptRegistrant@VJFW_Random_Custom@@@@UAEPAXI@Z ; ScriptRegistrant<JFW_Random_Custom>::`scalar deleting destructor'
PUBLIC	??0?$ScriptRegistrant@VJFW_Custom_Damage_Object@@@@QAE@PBD0@Z ; ScriptRegistrant<JFW_Custom_Damage_Object>::ScriptRegistrant<JFW_Custom_Damage_Object>
PUBLIC	?Create@?$ScriptRegistrant@VJFW_Custom_Damage_Object@@@@UAEPAVScriptImpClass@@XZ ; ScriptRegistrant<JFW_Custom_Damage_Object>::Create
PUBLIC	??1?$ScriptRegistrant@VJFW_Custom_Damage_Object@@@@UAE@XZ ; ScriptRegistrant<JFW_Custom_Damage_Object>::~ScriptRegistrant<JFW_Custom_Damage_Object>
PUBLIC	??_G?$ScriptRegistrant@VJFW_Custom_Damage_Object@@@@UAEPAXI@Z ; ScriptRegistrant<JFW_Custom_Damage_Object>::`scalar deleting destructor'
PUBLIC	??0?$ScriptRegistrant@VJFW_Blow_Up_On_Custom@@@@QAE@PBD0@Z ; ScriptRegistrant<JFW_Blow_Up_On_Custom>::ScriptRegistrant<JFW_Blow_Up_On_Custom>
PUBLIC	?Create@?$ScriptRegistrant@VJFW_Blow_Up_On_Custom@@@@UAEPAVScriptImpClass@@XZ ; ScriptRegistrant<JFW_Blow_Up_On_Custom>::Create
PUBLIC	??1?$ScriptRegistrant@VJFW_Blow_Up_On_Custom@@@@UAE@XZ ; ScriptRegistrant<JFW_Blow_Up_On_Custom>::~ScriptRegistrant<JFW_Blow_Up_On_Custom>
PUBLIC	??_G?$ScriptRegistrant@VJFW_Blow_Up_On_Custom@@@@UAEPAXI@Z ; ScriptRegistrant<JFW_Blow_Up_On_Custom>::`scalar deleting destructor'
PUBLIC	??0?$ScriptRegistrant@VJFW_Blow_Up_Obj_On_Custom@@@@QAE@PBD0@Z ; ScriptRegistrant<JFW_Blow_Up_Obj_On_Custom>::ScriptRegistrant<JFW_Blow_Up_Obj_On_Custom>
PUBLIC	?Create@?$ScriptRegistrant@VJFW_Blow_Up_Obj_On_Custom@@@@UAEPAVScriptImpClass@@XZ ; ScriptRegistrant<JFW_Blow_Up_Obj_On_Custom>::Create
PUBLIC	??1?$ScriptRegistrant@VJFW_Blow_Up_Obj_On_Custom@@@@UAE@XZ ; ScriptRegistrant<JFW_Blow_Up_Obj_On_Custom>::~ScriptRegistrant<JFW_Blow_Up_Obj_On_Custom>
PUBLIC	??_G?$ScriptRegistrant@VJFW_Blow_Up_Obj_On_Custom@@@@UAEPAXI@Z ; ScriptRegistrant<JFW_Blow_Up_Obj_On_Custom>::`scalar deleting destructor'
PUBLIC	??0?$ScriptRegistrant@VJFW_Delay_Custom@@@@QAE@PBD0@Z ; ScriptRegistrant<JFW_Delay_Custom>::ScriptRegistrant<JFW_Delay_Custom>
PUBLIC	?Create@?$ScriptRegistrant@VJFW_Delay_Custom@@@@UAEPAVScriptImpClass@@XZ ; ScriptRegistrant<JFW_Delay_Custom>::Create
PUBLIC	??1?$ScriptRegistrant@VJFW_Delay_Custom@@@@UAE@XZ ; ScriptRegistrant<JFW_Delay_Custom>::~ScriptRegistrant<JFW_Delay_Custom>
PUBLIC	??_G?$ScriptRegistrant@VJFW_Delay_Custom@@@@UAEPAXI@Z ; ScriptRegistrant<JFW_Delay_Custom>::`scalar deleting destructor'
PUBLIC	??0?$ScriptRegistrant@VJFW_Startup_Custom@@@@QAE@PBD0@Z ; ScriptRegistrant<JFW_Startup_Custom>::ScriptRegistrant<JFW_Startup_Custom>
PUBLIC	?Create@?$ScriptRegistrant@VJFW_Startup_Custom@@@@UAEPAVScriptImpClass@@XZ ; ScriptRegistrant<JFW_Startup_Custom>::Create
PUBLIC	??1?$ScriptRegistrant@VJFW_Startup_Custom@@@@UAE@XZ ; ScriptRegistrant<JFW_Startup_Custom>::~ScriptRegistrant<JFW_Startup_Custom>
PUBLIC	??_G?$ScriptRegistrant@VJFW_Startup_Custom@@@@UAEPAXI@Z ; ScriptRegistrant<JFW_Startup_Custom>::`scalar deleting destructor'
PUBLIC	??0?$ScriptRegistrant@VJFW_Custom_Toggle_Radar@@@@QAE@PBD0@Z ; ScriptRegistrant<JFW_Custom_Toggle_Radar>::ScriptRegistrant<JFW_Custom_Toggle_Radar>
PUBLIC	?Create@?$ScriptRegistrant@VJFW_Custom_Toggle_Radar@@@@UAEPAVScriptImpClass@@XZ ; ScriptRegistrant<JFW_Custom_Toggle_Radar>::Create
PUBLIC	??1?$ScriptRegistrant@VJFW_Custom_Toggle_Radar@@@@UAE@XZ ; ScriptRegistrant<JFW_Custom_Toggle_Radar>::~ScriptRegistrant<JFW_Custom_Toggle_Radar>
PUBLIC	??_G?$ScriptRegistrant@VJFW_Custom_Toggle_Radar@@@@UAEPAXI@Z ; ScriptRegistrant<JFW_Custom_Toggle_Radar>::`scalar deleting destructor'
PUBLIC	??0?$ScriptRegistrant@VJFW_Custom_Destroy_Object@@@@QAE@PBD0@Z ; ScriptRegistrant<JFW_Custom_Destroy_Object>::ScriptRegistrant<JFW_Custom_Destroy_Object>
PUBLIC	?Create@?$ScriptRegistrant@VJFW_Custom_Destroy_Object@@@@UAEPAVScriptImpClass@@XZ ; ScriptRegistrant<JFW_Custom_Destroy_Object>::Create
PUBLIC	??1?$ScriptRegistrant@VJFW_Custom_Destroy_Object@@@@UAE@XZ ; ScriptRegistrant<JFW_Custom_Destroy_Object>::~ScriptRegistrant<JFW_Custom_Destroy_Object>
PUBLIC	??_G?$ScriptRegistrant@VJFW_Custom_Destroy_Object@@@@UAEPAXI@Z ; ScriptRegistrant<JFW_Custom_Destroy_Object>::`scalar deleting destructor'
PUBLIC	??0?$ScriptRegistrant@VJFW_Custom_Objectives_Dlg@@@@QAE@PBD0@Z ; ScriptRegistrant<JFW_Custom_Objectives_Dlg>::ScriptRegistrant<JFW_Custom_Objectives_Dlg>
PUBLIC	?Create@?$ScriptRegistrant@VJFW_Custom_Objectives_Dlg@@@@UAEPAVScriptImpClass@@XZ ; ScriptRegistrant<JFW_Custom_Objectives_Dlg>::Create
PUBLIC	??1?$ScriptRegistrant@VJFW_Custom_Objectives_Dlg@@@@UAE@XZ ; ScriptRegistrant<JFW_Custom_Objectives_Dlg>::~ScriptRegistrant<JFW_Custom_Objectives_Dlg>
PUBLIC	??_G?$ScriptRegistrant@VJFW_Custom_Objectives_Dlg@@@@UAEPAXI@Z ; ScriptRegistrant<JFW_Custom_Objectives_Dlg>::`scalar deleting destructor'
PUBLIC	??0?$ScriptRegistrant@VJFW_Reflect_Custom@@@@QAE@PBD0@Z ; ScriptRegistrant<JFW_Reflect_Custom>::ScriptRegistrant<JFW_Reflect_Custom>
PUBLIC	?Create@?$ScriptRegistrant@VJFW_Reflect_Custom@@@@UAEPAVScriptImpClass@@XZ ; ScriptRegistrant<JFW_Reflect_Custom>::Create
PUBLIC	??1?$ScriptRegistrant@VJFW_Reflect_Custom@@@@UAE@XZ ; ScriptRegistrant<JFW_Reflect_Custom>::~ScriptRegistrant<JFW_Reflect_Custom>
PUBLIC	??_G?$ScriptRegistrant@VJFW_Reflect_Custom@@@@UAEPAXI@Z ; ScriptRegistrant<JFW_Reflect_Custom>::`scalar deleting destructor'
PUBLIC	??0?$ScriptRegistrant@VJFW_Reflect_Custom_Delay@@@@QAE@PBD0@Z ; ScriptRegistrant<JFW_Reflect_Custom_Delay>::ScriptRegistrant<JFW_Reflect_Custom_Delay>
PUBLIC	?Create@?$ScriptRegistrant@VJFW_Reflect_Custom_Delay@@@@UAEPAVScriptImpClass@@XZ ; ScriptRegistrant<JFW_Reflect_Custom_Delay>::Create
PUBLIC	??1?$ScriptRegistrant@VJFW_Reflect_Custom_Delay@@@@UAE@XZ ; ScriptRegistrant<JFW_Reflect_Custom_Delay>::~ScriptRegistrant<JFW_Reflect_Custom_Delay>
PUBLIC	??_G?$ScriptRegistrant@VJFW_Reflect_Custom_Delay@@@@UAEPAXI@Z ; ScriptRegistrant<JFW_Reflect_Custom_Delay>::`scalar deleting destructor'
PUBLIC	??0?$ScriptRegistrant@VJFW_Death_Send_Custom@@@@QAE@PBD0@Z ; ScriptRegistrant<JFW_Death_Send_Custom>::ScriptRegistrant<JFW_Death_Send_Custom>
PUBLIC	?Create@?$ScriptRegistrant@VJFW_Death_Send_Custom@@@@UAEPAVScriptImpClass@@XZ ; ScriptRegistrant<JFW_Death_Send_Custom>::Create
PUBLIC	??1?$ScriptRegistrant@VJFW_Death_Send_Custom@@@@UAE@XZ ; ScriptRegistrant<JFW_Death_Send_Custom>::~ScriptRegistrant<JFW_Death_Send_Custom>
PUBLIC	??_G?$ScriptRegistrant@VJFW_Death_Send_Custom@@@@UAEPAXI@Z ; ScriptRegistrant<JFW_Death_Send_Custom>::`scalar deleting destructor'
PUBLIC	??0?$ScriptRegistrant@VJFW_Custom_Destroy_Building@@@@QAE@PBD0@Z ; ScriptRegistrant<JFW_Custom_Destroy_Building>::ScriptRegistrant<JFW_Custom_Destroy_Building>
PUBLIC	?Create@?$ScriptRegistrant@VJFW_Custom_Destroy_Building@@@@UAEPAVScriptImpClass@@XZ ; ScriptRegistrant<JFW_Custom_Destroy_Building>::Create
PUBLIC	??1?$ScriptRegistrant@VJFW_Custom_Destroy_Building@@@@UAE@XZ ; ScriptRegistrant<JFW_Custom_Destroy_Building>::~ScriptRegistrant<JFW_Custom_Destroy_Building>
PUBLIC	??_G?$ScriptRegistrant@VJFW_Custom_Destroy_Building@@@@UAEPAXI@Z ; ScriptRegistrant<JFW_Custom_Destroy_Building>::`scalar deleting destructor'
PUBLIC	??0?$ScriptRegistrant@VJFW_Shader_Custom_Zone_Entry@@@@QAE@PBD0@Z ; ScriptRegistrant<JFW_Shader_Custom_Zone_Entry>::ScriptRegistrant<JFW_Shader_Custom_Zone_Entry>
PUBLIC	?Create@?$ScriptRegistrant@VJFW_Shader_Custom_Zone_Entry@@@@UAEPAVScriptImpClass@@XZ ; ScriptRegistrant<JFW_Shader_Custom_Zone_Entry>::Create
PUBLIC	??1?$ScriptRegistrant@VJFW_Shader_Custom_Zone_Entry@@@@UAE@XZ ; ScriptRegistrant<JFW_Shader_Custom_Zone_Entry>::~ScriptRegistrant<JFW_Shader_Custom_Zone_Entry>
PUBLIC	??_G?$ScriptRegistrant@VJFW_Shader_Custom_Zone_Entry@@@@UAEPAXI@Z ; ScriptRegistrant<JFW_Shader_Custom_Zone_Entry>::`scalar deleting destructor'
PUBLIC	??0?$ScriptRegistrant@VJFW_Shader_Custom_Zone_Exit@@@@QAE@PBD0@Z ; ScriptRegistrant<JFW_Shader_Custom_Zone_Exit>::ScriptRegistrant<JFW_Shader_Custom_Zone_Exit>
PUBLIC	?Create@?$ScriptRegistrant@VJFW_Shader_Custom_Zone_Exit@@@@UAEPAVScriptImpClass@@XZ ; ScriptRegistrant<JFW_Shader_Custom_Zone_Exit>::Create
PUBLIC	??1?$ScriptRegistrant@VJFW_Shader_Custom_Zone_Exit@@@@UAE@XZ ; ScriptRegistrant<JFW_Shader_Custom_Zone_Exit>::~ScriptRegistrant<JFW_Shader_Custom_Zone_Exit>
PUBLIC	??_G?$ScriptRegistrant@VJFW_Shader_Custom_Zone_Exit@@@@UAEPAXI@Z ; ScriptRegistrant<JFW_Shader_Custom_Zone_Exit>::`scalar deleting destructor'
PUBLIC	??0?$ScriptRegistrant@VJFW_Shader_Custom_Vehicle_Entry@@@@QAE@PBD0@Z ; ScriptRegistrant<JFW_Shader_Custom_Vehicle_Entry>::ScriptRegistrant<JFW_Shader_Custom_Vehicle_Entry>
PUBLIC	?Create@?$ScriptRegistrant@VJFW_Shader_Custom_Vehicle_Entry@@@@UAEPAVScriptImpClass@@XZ ; ScriptRegistrant<JFW_Shader_Custom_Vehicle_Entry>::Create
PUBLIC	??1?$ScriptRegistrant@VJFW_Shader_Custom_Vehicle_Entry@@@@UAE@XZ ; ScriptRegistrant<JFW_Shader_Custom_Vehicle_Entry>::~ScriptRegistrant<JFW_Shader_Custom_Vehicle_Entry>
PUBLIC	??_G?$ScriptRegistrant@VJFW_Shader_Custom_Vehicle_Entry@@@@UAEPAXI@Z ; ScriptRegistrant<JFW_Shader_Custom_Vehicle_Entry>::`scalar deleting destructor'
PUBLIC	??0?$ScriptRegistrant@VJFW_Shader_Custom_Vehicle_Exit@@@@QAE@PBD0@Z ; ScriptRegistrant<JFW_Shader_Custom_Vehicle_Exit>::ScriptRegistrant<JFW_Shader_Custom_Vehicle_Exit>
PUBLIC	?Create@?$ScriptRegistrant@VJFW_Shader_Custom_Vehicle_Exit@@@@UAEPAVScriptImpClass@@XZ ; ScriptRegistrant<JFW_Shader_Custom_Vehicle_Exit>::Create
PUBLIC	??1?$ScriptRegistrant@VJFW_Shader_Custom_Vehicle_Exit@@@@UAE@XZ ; ScriptRegistrant<JFW_Shader_Custom_Vehicle_Exit>::~ScriptRegistrant<JFW_Shader_Custom_Vehicle_Exit>
PUBLIC	??_G?$ScriptRegistrant@VJFW_Shader_Custom_Vehicle_Exit@@@@UAEPAXI@Z ; ScriptRegistrant<JFW_Shader_Custom_Vehicle_Exit>::`scalar deleting destructor'
PUBLIC	??0?$ScriptRegistrant@VJFW_Shader_Custom_Create@@@@QAE@PBD0@Z ; ScriptRegistrant<JFW_Shader_Custom_Create>::ScriptRegistrant<JFW_Shader_Custom_Create>
PUBLIC	?Create@?$ScriptRegistrant@VJFW_Shader_Custom_Create@@@@UAEPAVScriptImpClass@@XZ ; ScriptRegistrant<JFW_Shader_Custom_Create>::Create
PUBLIC	??1?$ScriptRegistrant@VJFW_Shader_Custom_Create@@@@UAE@XZ ; ScriptRegistrant<JFW_Shader_Custom_Create>::~ScriptRegistrant<JFW_Shader_Custom_Create>
PUBLIC	??_G?$ScriptRegistrant@VJFW_Shader_Custom_Create@@@@UAEPAXI@Z ; ScriptRegistrant<JFW_Shader_Custom_Create>::`scalar deleting destructor'
PUBLIC	??0?$ScriptRegistrant@VJFW_Shader_Custom_Poke@@@@QAE@PBD0@Z ; ScriptRegistrant<JFW_Shader_Custom_Poke>::ScriptRegistrant<JFW_Shader_Custom_Poke>
PUBLIC	?Create@?$ScriptRegistrant@VJFW_Shader_Custom_Poke@@@@UAEPAVScriptImpClass@@XZ ; ScriptRegistrant<JFW_Shader_Custom_Poke>::Create
PUBLIC	??1?$ScriptRegistrant@VJFW_Shader_Custom_Poke@@@@UAE@XZ ; ScriptRegistrant<JFW_Shader_Custom_Poke>::~ScriptRegistrant<JFW_Shader_Custom_Poke>
PUBLIC	??_G?$ScriptRegistrant@VJFW_Shader_Custom_Poke@@@@UAEPAXI@Z ; ScriptRegistrant<JFW_Shader_Custom_Poke>::`scalar deleting destructor'
PUBLIC	??0?$ScriptRegistrant@VJFW_Kill_All_Buildings_Customs@@@@QAE@PBD0@Z ; ScriptRegistrant<JFW_Kill_All_Buildings_Customs>::ScriptRegistrant<JFW_Kill_All_Buildings_Customs>
PUBLIC	?Create@?$ScriptRegistrant@VJFW_Kill_All_Buildings_Customs@@@@UAEPAVScriptImpClass@@XZ ; ScriptRegistrant<JFW_Kill_All_Buildings_Customs>::Create
PUBLIC	??1?$ScriptRegistrant@VJFW_Kill_All_Buildings_Customs@@@@UAE@XZ ; ScriptRegistrant<JFW_Kill_All_Buildings_Customs>::~ScriptRegistrant<JFW_Kill_All_Buildings_Customs>
PUBLIC	??_G?$ScriptRegistrant@VJFW_Kill_All_Buildings_Customs@@@@UAEPAXI@Z ; ScriptRegistrant<JFW_Kill_All_Buildings_Customs>::`scalar deleting destructor'
PUBLIC	??0?$ScriptRegistrant@VJFW_Send_Self_Custom_On_Key@@@@QAE@PBD0@Z ; ScriptRegistrant<JFW_Send_Self_Custom_On_Key>::ScriptRegistrant<JFW_Send_Self_Custom_On_Key>
PUBLIC	?Create@?$ScriptRegistrant@VJFW_Send_Self_Custom_On_Key@@@@UAEPAVScriptImpClass@@XZ ; ScriptRegistrant<JFW_Send_Self_Custom_On_Key>::Create
PUBLIC	??1?$ScriptRegistrant@VJFW_Send_Self_Custom_On_Key@@@@UAE@XZ ; ScriptRegistrant<JFW_Send_Self_Custom_On_Key>::~ScriptRegistrant<JFW_Send_Self_Custom_On_Key>
PUBLIC	??_G?$ScriptRegistrant@VJFW_Send_Self_Custom_On_Key@@@@UAEPAXI@Z ; ScriptRegistrant<JFW_Send_Self_Custom_On_Key>::`scalar deleting destructor'
PUBLIC	??0?$ScriptRegistrant@VJFW_Send_Message_On_Key@@@@QAE@PBD0@Z ; ScriptRegistrant<JFW_Send_Message_On_Key>::ScriptRegistrant<JFW_Send_Message_On_Key>
PUBLIC	?Create@?$ScriptRegistrant@VJFW_Send_Message_On_Key@@@@UAEPAVScriptImpClass@@XZ ; ScriptRegistrant<JFW_Send_Message_On_Key>::Create
PUBLIC	??1?$ScriptRegistrant@VJFW_Send_Message_On_Key@@@@UAE@XZ ; ScriptRegistrant<JFW_Send_Message_On_Key>::~ScriptRegistrant<JFW_Send_Message_On_Key>
PUBLIC	??_G?$ScriptRegistrant@VJFW_Send_Message_On_Key@@@@UAEPAXI@Z ; ScriptRegistrant<JFW_Send_Message_On_Key>::`scalar deleting destructor'
PUBLIC	??0?$ScriptRegistrant@VJFW_Custom_Send_Random_Custom@@@@QAE@PBD0@Z ; ScriptRegistrant<JFW_Custom_Send_Random_Custom>::ScriptRegistrant<JFW_Custom_Send_Random_Custom>
PUBLIC	?Create@?$ScriptRegistrant@VJFW_Custom_Send_Random_Custom@@@@UAEPAVScriptImpClass@@XZ ; ScriptRegistrant<JFW_Custom_Send_Random_Custom>::Create
PUBLIC	??1?$ScriptRegistrant@VJFW_Custom_Send_Random_Custom@@@@UAE@XZ ; ScriptRegistrant<JFW_Custom_Send_Random_Custom>::~ScriptRegistrant<JFW_Custom_Send_Random_Custom>
PUBLIC	??_G?$ScriptRegistrant@VJFW_Custom_Send_Random_Custom@@@@UAEPAXI@Z ; ScriptRegistrant<JFW_Custom_Send_Random_Custom>::`scalar deleting destructor'
PUBLIC	??0?$ScriptRegistrant@VJFW_Startup_Custom_Self@@@@QAE@PBD0@Z ; ScriptRegistrant<JFW_Startup_Custom_Self>::ScriptRegistrant<JFW_Startup_Custom_Self>
PUBLIC	?Create@?$ScriptRegistrant@VJFW_Startup_Custom_Self@@@@UAEPAVScriptImpClass@@XZ ; ScriptRegistrant<JFW_Startup_Custom_Self>::Create
PUBLIC	??1?$ScriptRegistrant@VJFW_Startup_Custom_Self@@@@UAE@XZ ; ScriptRegistrant<JFW_Startup_Custom_Self>::~ScriptRegistrant<JFW_Startup_Custom_Self>
PUBLIC	??_G?$ScriptRegistrant@VJFW_Startup_Custom_Self@@@@UAEPAXI@Z ; ScriptRegistrant<JFW_Startup_Custom_Self>::`scalar deleting destructor'
PUBLIC	??0?$ScriptRegistrant@VJFW_Set_Skin_Custom@@@@QAE@PBD0@Z ; ScriptRegistrant<JFW_Set_Skin_Custom>::ScriptRegistrant<JFW_Set_Skin_Custom>
PUBLIC	?Create@?$ScriptRegistrant@VJFW_Set_Skin_Custom@@@@UAEPAVScriptImpClass@@XZ ; ScriptRegistrant<JFW_Set_Skin_Custom>::Create
PUBLIC	??1?$ScriptRegistrant@VJFW_Set_Skin_Custom@@@@UAE@XZ ; ScriptRegistrant<JFW_Set_Skin_Custom>::~ScriptRegistrant<JFW_Set_Skin_Custom>
PUBLIC	??_G?$ScriptRegistrant@VJFW_Set_Skin_Custom@@@@UAEPAXI@Z ; ScriptRegistrant<JFW_Set_Skin_Custom>::`scalar deleting destructor'
PUBLIC	??0?$ScriptRegistrant@VJFW_Set_Armor_Custom@@@@QAE@PBD0@Z ; ScriptRegistrant<JFW_Set_Armor_Custom>::ScriptRegistrant<JFW_Set_Armor_Custom>
PUBLIC	?Create@?$ScriptRegistrant@VJFW_Set_Armor_Custom@@@@UAEPAVScriptImpClass@@XZ ; ScriptRegistrant<JFW_Set_Armor_Custom>::Create
PUBLIC	??1?$ScriptRegistrant@VJFW_Set_Armor_Custom@@@@UAE@XZ ; ScriptRegistrant<JFW_Set_Armor_Custom>::~ScriptRegistrant<JFW_Set_Armor_Custom>
PUBLIC	??_G?$ScriptRegistrant@VJFW_Set_Armor_Custom@@@@UAEPAXI@Z ; ScriptRegistrant<JFW_Set_Armor_Custom>::`scalar deleting destructor'
PUBLIC	??0?$ScriptRegistrant@VJFW_Send_Custom_On_Damage@@@@QAE@PBD0@Z ; ScriptRegistrant<JFW_Send_Custom_On_Damage>::ScriptRegistrant<JFW_Send_Custom_On_Damage>
PUBLIC	?Create@?$ScriptRegistrant@VJFW_Send_Custom_On_Damage@@@@UAEPAVScriptImpClass@@XZ ; ScriptRegistrant<JFW_Send_Custom_On_Damage>::Create
PUBLIC	??1?$ScriptRegistrant@VJFW_Send_Custom_On_Damage@@@@UAE@XZ ; ScriptRegistrant<JFW_Send_Custom_On_Damage>::~ScriptRegistrant<JFW_Send_Custom_On_Damage>
PUBLIC	??_G?$ScriptRegistrant@VJFW_Send_Custom_On_Damage@@@@UAEPAXI@Z ; ScriptRegistrant<JFW_Send_Custom_On_Damage>::`scalar deleting destructor'
PUBLIC	?Set_Next@?$SLNode@UKeyHookWrapperStruct@MultiKeyHookScriptImpClass@@@@QAEXPAV1@@Z ; SLNode<MultiKeyHookScriptImpClass::KeyHookWrapperStruct>::Set_Next
PUBLIC	?Next@?$SLNode@UKeyHookWrapperStruct@MultiKeyHookScriptImpClass@@@@QBEPAV1@XZ ; SLNode<MultiKeyHookScriptImpClass::KeyHookWrapperStruct>::Next
PUBLIC	?Data@?$SLNode@UKeyHookWrapperStruct@MultiKeyHookScriptImpClass@@@@QBEPAUKeyHookWrapperStruct@MultiKeyHookScriptImpClass@@XZ ; SLNode<MultiKeyHookScriptImpClass::KeyHookWrapperStruct>::Data
PUBLIC	??0?$SLNode@UKeyHookWrapperStruct@MultiKeyHookScriptImpClass@@@@IAE@PAUKeyHookWrapperStruct@MultiKeyHookScriptImpClass@@@Z ; SLNode<MultiKeyHookScriptImpClass::KeyHookWrapperStruct>::SLNode<MultiKeyHookScriptImpClass::KeyHookWrapperStruct>
PUBLIC	?getInstance@?$Singleton@V?$ObjectPoolClass@VGenericSLNode@@$0BAA@@@@@SAAAV?$ObjectPoolClass@VGenericSLNode@@$0BAA@@@XZ ; Singleton<ObjectPoolClass<GenericSLNode,256> >::getInstance
PUBLIC	??0?$ObjectPoolClass@VGenericSLNode@@$0BAA@@@QAE@XZ ; ObjectPoolClass<GenericSLNode,256>::ObjectPoolClass<GenericSLNode,256>
PUBLIC	??1?$ObjectPoolClass@VGenericSLNode@@$0BAA@@@QAE@XZ ; ObjectPoolClass<GenericSLNode,256>::~ObjectPoolClass<GenericSLNode,256>
PUBLIC	?Allocate_Object_Memory@?$ObjectPoolClass@VGenericSLNode@@$0BAA@@@QAEPAVGenericSLNode@@XZ ; ObjectPoolClass<GenericSLNode,256>::Allocate_Object_Memory
PUBLIC	?Free_Object_Memory@?$ObjectPoolClass@VGenericSLNode@@$0BAA@@@QAEXAAVGenericSLNode@@@Z ; ObjectPoolClass<GenericSLNode,256>::Free_Object_Memory
PUBLIC	?writeDummyPattern@?$ObjectPoolClass@VGenericSLNode@@$0BAA@@@QAEXAAVGenericSLNode@@K@Z ; ObjectPoolClass<GenericSLNode,256>::writeDummyPattern
PUBLIC	??__Finstancex@?1??getInstance@?$Singleton@V?$ObjectPoolClass@VGenericSLNode@@$0BAA@@@@@SAAAV?$ObjectPoolClass@VGenericSLNode@@$0BAA@@@XZ@YAXXZ ; `Singleton<ObjectPoolClass<GenericSLNode,256> >::getInstance'::`2'::`dynamic atexit destructor for 'instancex''
PUBLIC	??_7GameObjObserverClass@@6B@			; GameObjObserverClass::`vftable'
PUBLIC	??_7ScriptClass@@6B@				; ScriptClass::`vftable'
PUBLIC	??_7ScriptImpClass@@6B@				; ScriptImpClass::`vftable'
PUBLIC	??_7ScriptFactory@@6B@				; ScriptFactory::`vftable'
PUBLIC	??_7ThreadClass@@6B@				; ThreadClass::`vftable'
PUBLIC	??_C@_0DJ@NKJHEMPA@x?3?2github?2renegade?2dragonade_rxd@ ; `string'
PUBLIC	??_C@_1HC@JEIHKHFK@?$AAx?$AA?3?$AA?2?$AAg?$AAi?$AAt?$AAh?$AAu?$AAb?$AA?2?$AAr?$AAe?$AAn?$AAe?$AAg?$AAa?$AAd?$AAe?$AA?2?$AAd?$AAr?$AAa?$AAg?$AAo?$AAn?$AAa?$AAd?$AAe?$AA_?$AAr?$AAx?$AAd@ ; `string'
PUBLIC	??_C@_1M@HLGKFCJM@?$AAf?$AAa?$AAl?$AAs?$AAe?$AA?$AA@ ; `string'
PUBLIC	??_7INIClass@@6B@				; INIClass::`vftable'
PUBLIC	??_7PostLoadableClass@@6B@			; PostLoadableClass::`vftable'
PUBLIC	??_7ReferencerClass@@6B@			; ReferencerClass::`vftable'
PUBLIC	??_C@_02OLOABKKD@ID?$AA@			; `string'
PUBLIC	??_7JFW_Key_Hook_Base@@6B@			; JFW_Key_Hook_Base::`vftable'
PUBLIC	??_7?$SList@UKeyHookWrapperStruct@MultiKeyHookScriptImpClass@@@@6B@ ; SList<MultiKeyHookScriptImpClass::KeyHookWrapperStruct>::`vftable'
PUBLIC	??_7MultiKeyHookScriptImpClass@@6B@		; MultiKeyHookScriptImpClass::`vftable'
PUBLIC	??_7JFW_Object_Created_Hook_Base@@6B@		; JFW_Object_Created_Hook_Base::`vftable'
PUBLIC	??_7JFW_Custom_Toggle_Radar@@6B@		; JFW_Custom_Toggle_Radar::`vftable'
PUBLIC	??_7JFW_Reflect_Custom@@6B@			; JFW_Reflect_Custom::`vftable'
PUBLIC	??_7JFW_Reflect_Custom_Delay@@6B@		; JFW_Reflect_Custom_Delay::`vftable'
PUBLIC	??_7JFW_Custom_Destroy_Object@@6B@		; JFW_Custom_Destroy_Object::`vftable'
PUBLIC	??_7JFW_Custom_Objectives_Dlg@@6B@		; JFW_Custom_Objectives_Dlg::`vftable'
PUBLIC	??_7JFW_Death_Send_Custom@@6B@			; JFW_Death_Send_Custom::`vftable'
PUBLIC	??_7JFW_Custom_Destroy_Building@@6B@		; JFW_Custom_Destroy_Building::`vftable'
PUBLIC	??_7JFW_Timer_Custom@@6B@			; JFW_Timer_Custom::`vftable'
PUBLIC	??_7JFW_2D_Sound_Custom@@6B@			; JFW_2D_Sound_Custom::`vftable'
PUBLIC	??_7JFW_3D_Sound_Custom_2@@6B@			; JFW_3D_Sound_Custom_2::`vftable'
PUBLIC	??_7JFW_3D_Sound_Custom_Bone@@6B@		; JFW_3D_Sound_Custom_Bone::`vftable'
PUBLIC	??_7JFW_Random_Custom@@6B@			; JFW_Random_Custom::`vftable'
PUBLIC	??_7JFW_Custom_Damage_Object@@6B@		; JFW_Custom_Damage_Object::`vftable'
PUBLIC	??_7JFW_Blow_Up_On_Custom@@6B@			; JFW_Blow_Up_On_Custom::`vftable'
PUBLIC	??_7JFW_Blow_Up_Obj_On_Custom@@6B@		; JFW_Blow_Up_Obj_On_Custom::`vftable'
PUBLIC	??_7JFW_Delay_Custom@@6B@			; JFW_Delay_Custom::`vftable'
PUBLIC	??_7JFW_Startup_Custom@@6B@			; JFW_Startup_Custom::`vftable'
PUBLIC	??_7JFW_Teleport_Custom@@6B@			; JFW_Teleport_Custom::`vftable'
PUBLIC	??_7JFW_Teleport_Custom_Random@@6B@		; JFW_Teleport_Custom_Random::`vftable'
PUBLIC	??_7JFW_Teleport_Custom_Timer@@6B@		; JFW_Teleport_Custom_Timer::`vftable'
PUBLIC	??_7JFW_Blow_Up_Location_On_Custom@@6B@		; JFW_Blow_Up_Location_On_Custom::`vftable'
PUBLIC	??_7JFW_3D_Sound_Custom@@6B@			; JFW_3D_Sound_Custom::`vftable'
PUBLIC	??_7JFW_Created_Send_Custom@@6B@		; JFW_Created_Send_Custom::`vftable'
PUBLIC	??_7JFW_Damaged_Send_Custom@@6B@		; JFW_Damaged_Send_Custom::`vftable'
PUBLIC	??_7JFW_Enemy_Seen_Send_Custom@@6B@		; JFW_Enemy_Seen_Send_Custom::`vftable'
PUBLIC	??_7JFW_Create_Object_Custom@@6B@		; JFW_Create_Object_Custom::`vftable'
PUBLIC	??_7JFW_Enable_Spawner_On_Custom@@6B@		; JFW_Enable_Spawner_On_Custom::`vftable'
PUBLIC	??_7JFW_Set_Animation_On_Custom@@6B@		; JFW_Set_Animation_On_Custom::`vftable'
PUBLIC	??_7JFW_Set_Model_Animation_On_Custom@@6B@	; JFW_Set_Model_Animation_On_Custom::`vftable'
PUBLIC	??_7JFW_Set_Model_On_Custom@@6B@		; JFW_Set_Model_On_Custom::`vftable'
PUBLIC	??_7JFW_Enable_Disable_Animation_On_Custom@@6B@	; JFW_Enable_Disable_Animation_On_Custom::`vftable'
PUBLIC	??_7JFW_Custom_Toggle_Visible@@6B@		; JFW_Custom_Toggle_Visible::`vftable'
PUBLIC	??_7JFW_Customs_Send_Custom@@6B@		; JFW_Customs_Send_Custom::`vftable'
PUBLIC	??_7JFW_Custom_Multiple_Send_Custom@@6B@	; JFW_Custom_Multiple_Send_Custom::`vftable'
PUBLIC	??_7JFW_Custom_Multiple_Send_Custom_2@@6B@	; JFW_Custom_Multiple_Send_Custom_2::`vftable'
PUBLIC	??_7JFW_Custom_Send_Custom@@6B@			; JFW_Custom_Send_Custom::`vftable'
PUBLIC	??_7JFW_Custom_Send_Random_Custom@@6B@		; JFW_Custom_Send_Random_Custom::`vftable'
PUBLIC	??_7JFW_Create_Destroy_Object_On_Custom@@6B@	; JFW_Create_Destroy_Object_On_Custom::`vftable'
PUBLIC	??_7JFW_Create_Destroy_Object_On_Custom_Animate@@6B@ ; JFW_Create_Destroy_Object_On_Custom_Animate::`vftable'
PUBLIC	??_7JFW_Create_Destroy_Object_On_Custom_Animate_2@@6B@ ; JFW_Create_Destroy_Object_On_Custom_Animate_2::`vftable'
PUBLIC	??_7JFW_Damaged_Send_Custom_Amount@@6B@		; JFW_Damaged_Send_Custom_Amount::`vftable'
PUBLIC	??_7JFW_Invulnerable_On_Custom@@6B@		; JFW_Invulnerable_On_Custom::`vftable'
PUBLIC	??_7JFW_Invulnerable_On_Custom_2@@6B@		; JFW_Invulnerable_On_Custom_2::`vftable'
PUBLIC	??_7JFW_Custom_Send_Custom_Parameter@@6B@	; JFW_Custom_Send_Custom_Parameter::`vftable'
PUBLIC	??_7JFW_Create_Destroy_Object_On_Custom_Bone@@6B@ ; JFW_Create_Destroy_Object_On_Custom_Bone::`vftable'
PUBLIC	??_7JFW_Custom_Send_Ordered_Customs@@6B@	; JFW_Custom_Send_Ordered_Customs::`vftable'
PUBLIC	??_7JFW_Custom_Send_Customs@@6B@		; JFW_Custom_Send_Customs::`vftable'
PUBLIC	??_7JFW_Custom_Send_Custom_Multiple_IDs@@6B@	; JFW_Custom_Send_Custom_Multiple_IDs::`vftable'
PUBLIC	??_7JFW_Create_Destroy_Object_On_Custom_Death@@6B@ ; JFW_Create_Destroy_Object_On_Custom_Death::`vftable'
PUBLIC	??_7JFW_Create_Destroy_Object_On_Custom_Death_Bone@@6B@ ; JFW_Create_Destroy_Object_On_Custom_Death_Bone::`vftable'
PUBLIC	??_7JFW_Custom_Destroy_All_Buildings@@6B@	; JFW_Custom_Destroy_All_Buildings::`vftable'
PUBLIC	??_7JFW_Timer_Custom_On_Off@@6B@		; JFW_Timer_Custom_On_Off::`vftable'
PUBLIC	??_7JFW_Create_Vehicle_On_Custom@@6B@		; JFW_Create_Vehicle_On_Custom::`vftable'
PUBLIC	??_7JFW_Set_Model_On_Custom_Sender@@6B@		; JFW_Set_Model_On_Custom_Sender::`vftable'
PUBLIC	??_7JFW_Death_Send_Custom_ID@@6B@		; JFW_Death_Send_Custom_ID::`vftable'
PUBLIC	??_7JFW_Death_Send_Custom_Driver_ID@@6B@	; JFW_Death_Send_Custom_Driver_ID::`vftable'
PUBLIC	??_7JFW_Repair_On_Custom@@6B@			; JFW_Repair_On_Custom::`vftable'
PUBLIC	??_7JFW_Wind_Custom@@6B@			; JFW_Wind_Custom::`vftable'
PUBLIC	??_7JFW_War_Blitz_Custom@@6B@			; JFW_War_Blitz_Custom::`vftable'
PUBLIC	??_7JFW_Fog_Custom@@6B@				; JFW_Fog_Custom::`vftable'
PUBLIC	??_7JFW_Lightning_Custom@@6B@			; JFW_Lightning_Custom::`vftable'
PUBLIC	??_7JFW_Precipitation_Custom@@6B@		; JFW_Precipitation_Custom::`vftable'
PUBLIC	??_7JFW_Clouds_Custom@@6B@			; JFW_Clouds_Custom::`vftable'
PUBLIC	??_7JFW_Enable_Stealth_On_Custom@@6B@		; JFW_Enable_Stealth_On_Custom::`vftable'
PUBLIC	??_7JFW_Console_Message_On_Custom@@6B@		; JFW_Console_Message_On_Custom::`vftable'
PUBLIC	??_7JFW_Console_Input_On_Custom@@6B@		; JFW_Console_Input_On_Custom::`vftable'
PUBLIC	??_7JFW_Invulnerable_On_Custom_3@@6B@		; JFW_Invulnerable_On_Custom_3::`vftable'
PUBLIC	??_7JFW_Set_Skin_Custom@@6B@			; JFW_Set_Skin_Custom::`vftable'
PUBLIC	??_7JFW_Set_Armor_Custom@@6B@			; JFW_Set_Armor_Custom::`vftable'
PUBLIC	??_7JFW_Change_Team_On_Custom@@6B@		; JFW_Change_Team_On_Custom::`vftable'
PUBLIC	??_7JFW_Enable_Team_Radar_On_Custom@@6B@	; JFW_Enable_Team_Radar_On_Custom::`vftable'
PUBLIC	??_7JFW_2D_Sound_Team_Custom@@6B@		; JFW_2D_Sound_Team_Custom::`vftable'
PUBLIC	??_7JFW_3D_Sound_Team_Custom@@6B@		; JFW_3D_Sound_Team_Custom::`vftable'
PUBLIC	??_7JFW_Send_Custom_Distance_Objects_Timer@@6B@	; JFW_Send_Custom_Distance_Objects_Timer::`vftable'
PUBLIC	??_7JFW_Send_Custom_Distance_Objects_Custom@@6B@ ; JFW_Send_Custom_Distance_Objects_Custom::`vftable'
PUBLIC	??_7JFW_Send_Custom_All_Objects_Timer@@6B@	; JFW_Send_Custom_All_Objects_Timer::`vftable'
PUBLIC	??_7JFW_Send_Custom_All_Objects_Custom@@6B@	; JFW_Send_Custom_All_Objects_Custom::`vftable'
PUBLIC	??_7JFW_Destroy_Create_Object_On_Custom@@6B@	; JFW_Destroy_Create_Object_On_Custom::`vftable'
PUBLIC	??_7JFW_Send_Message_Preset@@6B@		; JFW_Send_Message_Preset::`vftable'
PUBLIC	??_7JFW_Shader_Custom_Zone_Entry@@6B@		; JFW_Shader_Custom_Zone_Entry::`vftable'
PUBLIC	??_7JFW_Shader_Custom_Zone_Exit@@6B@		; JFW_Shader_Custom_Zone_Exit::`vftable'
PUBLIC	??_7JFW_Shader_Custom_Vehicle_Entry@@6B@	; JFW_Shader_Custom_Vehicle_Entry::`vftable'
PUBLIC	??_7JFW_Shader_Custom_Vehicle_Exit@@6B@		; JFW_Shader_Custom_Vehicle_Exit::`vftable'
PUBLIC	??_7JFW_Shader_Custom_Create@@6B@		; JFW_Shader_Custom_Create::`vftable'
PUBLIC	??_7JFW_Shader_Custom_Poke@@6B@			; JFW_Shader_Custom_Poke::`vftable'
PUBLIC	??_7JFW_Kill_All_Buildings_Customs@@6B@		; JFW_Kill_All_Buildings_Customs::`vftable'
PUBLIC	??_7JFW_Send_Self_Custom_On_Key@@6B@		; JFW_Send_Self_Custom_On_Key::`vftable'
PUBLIC	??_7JFW_Send_Message_On_Key@@6B@		; JFW_Send_Message_On_Key::`vftable'
PUBLIC	??_7JFW_Startup_Custom_Self@@6B@		; JFW_Startup_Custom_Self::`vftable'
PUBLIC	??_7JFW_Send_Custom_On_Damage@@6B@		; JFW_Send_Custom_On_Damage::`vftable'
PUBLIC	??_C@_07BEIHKDLJ@Message?$AA@			; `string'
PUBLIC	??_C@_05ENDOMFAI@Delay?$AA@			; `string'
PUBLIC	??_C@_04PBAHLACE@File?$AA@			; `string'
PUBLIC	??_C@_05LOJBNELM@Param?$AA@			; `string'
PUBLIC	??_C@_09IGNDJJLI@Explosive?$AA@			; `string'
PUBLIC	??_C@_04OKOFBOPB@Time?$AA@			; `string'
PUBLIC	??_C@_08DBAENAIH@TimerNum?$AA@			; `string'
PUBLIC	??_C@_06HJIMLMON@Repeat?$AA@			; `string'
PUBLIC	??_C@_06CKLLCHIK@Preset?$AA@			; `string'
PUBLIC	??_C@_04CCGIJNFG@Bone?$AA@			; `string'
PUBLIC	??_C@_08CEPBJNAL@Time_Min?$AA@			; `string'
PUBLIC	??_C@_08DGHKHJGE@Time_Max?$AA@			; `string'
PUBLIC	??_C@_06KGFFMMMJ@Damage?$AA@			; `string'
PUBLIC	??_C@_09HGNANIIM@Explosion?$AA@			; `string'
PUBLIC	??_C@_08KDOEBHGA@Location?$AA@			; `string'
PUBLIC	??_C@_09GDPGKFPG@Object_ID?$AA@			; `string'
PUBLIC	??_C@_09ILEMICPN@Location1?$AA@			; `string'
PUBLIC	??_C@_0L@JCOAKGDO@Object_ID1?$AA@		; `string'
PUBLIC	??_C@_09KAGBNBDO@Location2?$AA@			; `string'
PUBLIC	??_C@_0L@LJMNPFPN@Object_ID2?$AA@		; `string'
PUBLIC	??_C@_09LJHKOAHP@Location3?$AA@			; `string'
PUBLIC	??_C@_0L@KANGMELM@Object_ID3?$AA@		; `string'
PUBLIC	??_C@_09PGDLHGLI@Location4?$AA@			; `string'
PUBLIC	??_C@_0L@OPJHFCHL@Object_ID4?$AA@		; `string'
PUBLIC	??_C@_09OPCAEHPJ@Location5?$AA@			; `string'
PUBLIC	??_C@_0L@PGIMGDDK@Object_ID5?$AA@		; `string'
PUBLIC	??_C@_08GCJNLIKG@Position?$AA@			; `string'
PUBLIC	??_C@_06ELFECKBG@Object?$AA@			; `string'
PUBLIC	??_C@_06HGKJBCGD@Facing?$AA@			; `string'
PUBLIC	??_C@_06CKGENIKG@Enable?$AA@			; `string'
PUBLIC	??_C@_09IANGLIJF@Subobject?$AA@			; `string'
PUBLIC	??_C@_01GBGANLPD@0?$AA@				; `string'
PUBLIC	??_C@_0L@OCNGDGDE@FirstFrame?$AA@		; `string'
PUBLIC	??_C@_07DIIBFDGO@Blended?$AA@			; `string'
PUBLIC	??_C@_09GIBPIKCC@LastFrame?$AA@			; `string'
PUBLIC	??_C@_04KLCPKPBE@Loop?$AA@			; `string'
PUBLIC	??_C@_09ONEINPNJ@Animation?$AA@			; `string'
PUBLIC	??_C@_05NFIJOKEG@Model?$AA@			; `string'
PUBLIC	??_C@_07MIKIFGAL@Disable?$AA@			; `string'
PUBLIC	??_C@_07MGEGCLJM@Visible?$AA@			; `string'
PUBLIC	??_C@_08HEPEILDJ@Message1?$AA@			; `string'
PUBLIC	??_C@_08FPNJNIPK@Message2?$AA@			; `string'
PUBLIC	??_C@_08EGMCOJLL@Message3?$AA@			; `string'
PUBLIC	??_C@_08JIDHPHM@Message4?$AA@			; `string'
PUBLIC	??_C@_08BAJIEODN@Message5?$AA@			; `string'
PUBLIC	??_C@_08DLLFBNPO@Message6?$AA@			; `string'
PUBLIC	??_C@_08CCKOCMLP@Message7?$AA@			; `string'
PUBLIC	??_C@_08KFDGDAHA@Message8?$AA@			; `string'
PUBLIC	??_C@_0P@ECPFCAJH@RecieveMessage?$AA@		; `string'
PUBLIC	??_C@_0N@KPHIFCEK@RecieveCount?$AA@		; `string'
PUBLIC	??_C@_09BCJGDOLG@SendParam?$AA@			; `string'
PUBLIC	??_C@_0M@KOLHOMFC@SendMessage?$AA@		; `string'
PUBLIC	??_C@_06FBIPNIHE@SendID?$AA@			; `string'
PUBLIC	??_C@_0L@GKJDIJEO@Percentage?$AA@		; `string'
PUBLIC	??_C@_0O@IPJDKNBL@CreateMessage?$AA@		; `string'
PUBLIC	??_C@_0P@BEFPOLON@DestroyMessage?$AA@		; `string'
PUBLIC	??_C@_0BA@PLFPNAON@CreateSubobject?$AA@		; `string'
PUBLIC	??_C@_0BB@LMHDEGFC@CreateFirstFrame?$AA@	; `string'
PUBLIC	??_C@_0O@KDJFFNMM@CreateBlended?$AA@		; `string'
PUBLIC	??_C@_0BA@BDJGOCFK@CreateLastFrame?$AA@		; `string'
PUBLIC	??_C@_0L@PBDHMNLB@CreateLoop?$AA@		; `string'
PUBLIC	??_C@_0BA@JGMBLHKB@CreateAnimation?$AA@		; `string'
PUBLIC	??_C@_0BB@CGAGOJLP@DestroySubobject?$AA@	; `string'
PUBLIC	??_C@_0BC@DJMLCPLD@DestroyFirstFrame?$AA@	; `string'
PUBLIC	??_C@_0P@DIFJBLDK@DestroyBlended?$AA@		; `string'
PUBLIC	??_C@_0BB@MOMPNLAI@DestroyLastFrame?$AA@	; `string'
PUBLIC	??_C@_0BB@ELJIIOPD@DestroyAnimation?$AA@	; `string'
PUBLIC	??_C@_0BD@DKJDLMPL@InvulnerableArmour?$AA@	; `string'
PUBLIC	??_C@_0N@EKGPKEJP@NormalArmour?$AA@		; `string'
PUBLIC	??_C@_0M@EMPICAFI@BaseMessage?$AA@		; `string'
PUBLIC	??_C@_05GHJMOCPE@Limit?$AA@			; `string'
PUBLIC	??_C@_08FPDFGKEJ@BoneName?$AA@			; `string'
PUBLIC	??_C@_0L@MEPJIGNK@WaitCustom?$AA@		; `string'
PUBLIC	??_C@_0L@GFBBAJMA@SendCustom?$AA@		; `string'
PUBLIC	??_C@_0M@JEBNJPD@Player_Type?$AA@		; `string'
PUBLIC	??_C@_0O@PHHBGFOO@EnableMessage?$AA@		; `string'
PUBLIC	??_C@_0P@KFCECOIB@DisableMessage?$AA@		; `string'
PUBLIC	??_C@_0M@KBNHOJJA@Preset_Name?$AA@		; `string'
PUBLIC	??_C@_06GGDALCBD@Health?$AA@			; `string'
PUBLIC	??_C@_0L@HGJKDHGC@Fog_Enable?$AA@		; `string'
PUBLIC	??_C@_0BB@DGODPOOM@Fog_End_Distance?$AA@	; `string'
PUBLIC	??_C@_0BD@KMNNDDDF@Fog_Start_Distance?$AA@	; `string'
PUBLIC	??_C@_0BH@PAFKLPGD@War_Blitz_Distribution?$AA@	; `string'
PUBLIC	??_C@_0BC@LKFJJDHK@War_Blitz_Heading?$AA@	; `string'
PUBLIC	??_C@_0N@BFABEEAA@End_Distance?$AA@		; `string'
PUBLIC	??_C@_0P@HFKCPGKF@Start_Distance?$AA@		; `string'
PUBLIC	??_C@_0BE@ILMCDOEI@War_Blitz_Intensity?$AA@	; `string'
PUBLIC	??_C@_0BB@HEHDOFPK@Wind_Variability?$AA@	; `string'
PUBLIC	??_C@_0L@MNCPPOOI@Wind_Speed?$AA@		; `string'
PUBLIC	??_C@_0N@OEPLFNPF@Wind_Heading?$AA@		; `string'
PUBLIC	??_C@_0BH@OELIOJDP@Lightning_Distribution?$AA@	; `string'
PUBLIC	??_C@_0BC@OJKEJCIP@Lightning_Heading?$AA@	; `string'
PUBLIC	??_C@_0BE@JFAOEINL@Lightning_Intensity?$AA@	; `string'
PUBLIC	??_C@_0BB@FNAMBFPI@Cloud_Gloominess?$AA@	; `string'
PUBLIC	??_C@_0M@NBCMDLG@Cloud_Cover?$AA@		; `string'
PUBLIC	??_C@_0BE@HAKIIGCL@Reset_Precipitation?$AA@	; `string'
PUBLIC	??_C@_04LOGCFOOF@Snow?$AA@			; `string'
PUBLIC	??_C@_04KOACHJEN@Type?$AA@			; `string'
PUBLIC	??_C@_07IJCDMBEM@Density?$AA@			; `string'
PUBLIC	??_C@_03GIACIBN@Ash?$AA@			; `string'
PUBLIC	??_C@_04EEOMLCKJ@Rain?$AA@			; `string'
PUBLIC	??_C@_06PFDLEJLJ@Output?$AA@			; `string'
PUBLIC	??_C@_05DCDOHKAB@Input?$AA@			; `string'
PUBLIC	??_C@_06ILNBBHOA@Armour?$AA@			; `string'
PUBLIC	??_C@_04GBPANCCF@Team?$AA@			; `string'
PUBLIC	??_C@_05MAHMNMLO@Sound?$AA@			; `string'
PUBLIC	??_C@_08DFKPLDPN@Distance?$AA@			; `string'
PUBLIC	??_C@_0O@PMHEFEAK@ListenMessage?$AA@		; `string'
PUBLIC	??_C@_05IJGIMMHE@Count?$AA@			; `string'
PUBLIC	??_C@_03CCEPDEKL@Key?$AA@			; `string'
PUBLIC	??_C@_04GKJMKNNB@Once?$AA@			; `string'
PUBLIC	??_C@_04CAKOHOCJ@Blue?$AA@			; `string'
PUBLIC	??_C@_05GGOIJPPE@Green?$AA@			; `string'
PUBLIC	??_C@_03PADCEAKC@Red?$AA@			; `string'
PUBLIC	??_C@_03IJGJBFPK@ID1?$AA@			; `string'
PUBLIC	??_C@_03KCEEEGDJ@ID2?$AA@			; `string'
PUBLIC	??_7?$ScriptRegistrant@VJFW_Send_Custom_Distance_Objects_Timer@@@@6B@ ; ScriptRegistrant<JFW_Send_Custom_Distance_Objects_Timer>::`vftable'
PUBLIC	?JFW_Send_Custom_Distance_Objects_Timer_Registrant@@3V?$ScriptRegistrant@VJFW_Send_Custom_Distance_Objects_Timer@@@@A ; JFW_Send_Custom_Distance_Objects_Timer_Registrant
PUBLIC	??_C@_0ED@CKDCJILD@Distance?3float?0Message?3int?0Time?3@ ; `string'
PUBLIC	??_C@_0CH@MNFEONNH@JFW_Send_Custom_Distance_Objects@ ; `string'
PUBLIC	??_7?$ScriptRegistrant@VJFW_Send_Custom_Distance_Objects_Custom@@@@6B@ ; ScriptRegistrant<JFW_Send_Custom_Distance_Objects_Custom>::`vftable'
PUBLIC	?JFW_Send_Custom_Distance_Objects_Custom_Registrant@@3V?$ScriptRegistrant@VJFW_Send_Custom_Distance_Objects_Custom@@@@A ; JFW_Send_Custom_Distance_Objects_Custom_Registrant
PUBLIC	??_C@_0DN@BMAAPNCB@Distance?3float?0Message?3int?0Playe@ ; `string'
PUBLIC	??_C@_0CI@DNMPEPOK@JFW_Send_Custom_Distance_Objects@ ; `string'
PUBLIC	??_7?$ScriptRegistrant@VJFW_Send_Custom_All_Objects_Timer@@@@6B@ ; ScriptRegistrant<JFW_Send_Custom_All_Objects_Timer>::`vftable'
PUBLIC	?JFW_Send_Custom_All_Objects_Timer_Registrant@@3V?$ScriptRegistrant@VJFW_Send_Custom_All_Objects_Timer@@@@A ; JFW_Send_Custom_All_Objects_Timer_Registrant
PUBLIC	??_C@_0DE@KFBBFLMO@Message?3int?0Time?3float?0TimerNum?3@ ; `string'
PUBLIC	??_C@_0CC@NJBFPDLF@JFW_Send_Custom_All_Objects_Time@ ; `string'
PUBLIC	??_7?$ScriptRegistrant@VJFW_Send_Custom_All_Objects_Custom@@@@6B@ ; ScriptRegistrant<JFW_Send_Custom_All_Objects_Custom>::`vftable'
PUBLIC	?JFW_Send_Custom_All_Objects_Custom_Registrant@@3V?$ScriptRegistrant@VJFW_Send_Custom_All_Objects_Custom@@@@A ; JFW_Send_Custom_All_Objects_Custom_Registrant
PUBLIC	??_C@_0CO@MPGEMDFL@Message?3int?0Player_Type?3int?0List@ ; `string'
PUBLIC	??_C@_0CD@JOGHAOIA@JFW_Send_Custom_All_Objects_Cust@ ; `string'
PUBLIC	??_7?$ScriptRegistrant@VJFW_Send_Message_Preset@@@@6B@ ; ScriptRegistrant<JFW_Send_Message_Preset>::`vftable'
PUBLIC	?JFW_Send_Message_Preset_Registrant@@3V?$ScriptRegistrant@VJFW_Send_Message_Preset@@@@A ; JFW_Send_Message_Preset_Registrant
PUBLIC	??_C@_0DD@FENKIDCN@Preset?3string?0CreateMessage?3int?0@ ; `string'
PUBLIC	??_C@_0BI@OBFHFIFN@JFW_Send_Message_Preset?$AA@	; `string'
PUBLIC	??_7?$ScriptRegistrant@VJFW_Destroy_Create_Object_On_Custom@@@@6B@ ; ScriptRegistrant<JFW_Destroy_Create_Object_On_Custom>::`vftable'
PUBLIC	?JFW_Destroy_Create_Object_On_Custom_Registrant@@3V?$ScriptRegistrant@VJFW_Destroy_Create_Object_On_Custom@@@@A ; JFW_Destroy_Create_Object_On_Custom_Registrant
PUBLIC	??_C@_0CB@ELDNMJAM@Message?3int?0ID?3int?0Preset?3string@ ; `string'
PUBLIC	??_C@_0CE@MCCFANM@JFW_Destroy_Create_Object_On_Cus@ ; `string'
PUBLIC	??_7?$ScriptRegistrant@VJFW_Fog_Custom@@@@6B@	; ScriptRegistrant<JFW_Fog_Custom>::`vftable'
PUBLIC	?JFW_Fog_Custom_Registrant@@3V?$ScriptRegistrant@VJFW_Fog_Custom@@@@A ; JFW_Fog_Custom_Registrant
PUBLIC	??_C@_0GJ@BEKAOBOP@Fog_Enable?3int?0Fog_Start_Distanc@ ; `string'
PUBLIC	??_C@_0P@ELFLPEID@JFW_Fog_Custom?$AA@		; `string'
PUBLIC	??_7?$ScriptRegistrant@VJFW_War_Blitz_Custom@@@@6B@ ; ScriptRegistrant<JFW_War_Blitz_Custom>::`vftable'
PUBLIC	?JFW_War_Blitz_Custom_Registrant@@3V?$ScriptRegistrant@VJFW_War_Blitz_Custom@@@@A ; JFW_War_Blitz_Custom_Registrant
PUBLIC	??_C@_0LD@CACMGNNF@War_Blitz_Intensity?$DN0?4000?3float?0@ ; `string'
PUBLIC	??_C@_0BF@EEPJPJBE@JFW_War_Blitz_Custom?$AA@	; `string'
PUBLIC	??_7?$ScriptRegistrant@VJFW_Lightning_Custom@@@@6B@ ; ScriptRegistrant<JFW_Lightning_Custom>::`vftable'
PUBLIC	?JFW_Lightning_Custom_Registrant@@3V?$ScriptRegistrant@VJFW_Lightning_Custom@@@@A ; JFW_Lightning_Custom_Registrant
PUBLIC	??_C@_0LD@GMAPMPN@Lightning_Intensity?$DN0?4000?3float?0@ ; `string'
PUBLIC	??_C@_0BF@KGLDMOG@JFW_Lightning_Custom?$AA@	; `string'
PUBLIC	??_7?$ScriptRegistrant@VJFW_Wind_Custom@@@@6B@	; ScriptRegistrant<JFW_Wind_Custom>::`vftable'
PUBLIC	?JFW_Wind_Custom_Registrant@@3V?$ScriptRegistrant@VJFW_Wind_Custom@@@@A ; JFW_Wind_Custom_Registrant
PUBLIC	??_C@_0GL@DFNBMCBI@Wind_Heading?$DN0?4000?3float?0Wind_Sp@ ; `string'
PUBLIC	??_C@_0BA@ILJCANGA@JFW_Wind_Custom?$AA@		; `string'
PUBLIC	??_7?$ScriptRegistrant@VJFW_Precipitation_Custom@@@@6B@ ; ScriptRegistrant<JFW_Precipitation_Custom>::`vftable'
PUBLIC	?JFW_Precipitation_Custom_Registrant@@3V?$ScriptRegistrant@VJFW_Precipitation_Custom@@@@A ; JFW_Precipitation_Custom_Registrant
PUBLIC	??_C@_0FN@HGAIJKLK@Type?$DNRain?3string?0Density?$DN0?4000?3f@ ; `string'
PUBLIC	??_C@_0BJ@KCELENGO@JFW_Precipitation_Custom?$AA@ ; `string'
PUBLIC	??_7?$ScriptRegistrant@VJFW_Clouds_Custom@@@@6B@ ; ScriptRegistrant<JFW_Clouds_Custom>::`vftable'
PUBLIC	?JFW_Clouds_Custom_Registrant@@3V?$ScriptRegistrant@VJFW_Clouds_Custom@@@@A ; JFW_Clouds_Custom_Registrant
PUBLIC	??_C@_0FD@FBEFHGFN@Cloud_Cover?$DN0?4000?3float?0Cloud_Gl@ ; `string'
PUBLIC	??_C@_0BC@CDNCIBJN@JFW_Clouds_Custom?$AA@	; `string'
PUBLIC	??_7?$ScriptRegistrant@VJFW_Enable_Stealth_On_Custom@@@@6B@ ; ScriptRegistrant<JFW_Enable_Stealth_On_Custom>::`vftable'
PUBLIC	?JFW_Enable_Stealth_On_Custom_Registrant@@3V?$ScriptRegistrant@VJFW_Enable_Stealth_On_Custom@@@@A ; JFW_Enable_Stealth_On_Custom_Registrant
PUBLIC	??_C@_0BH@EJJLPOI@Message?3int?0Enable?3int?$AA@ ; `string'
PUBLIC	??_C@_0BN@PFLGHDMI@JFW_Enable_Stealth_On_Custom?$AA@ ; `string'
PUBLIC	??_7?$ScriptRegistrant@VJFW_Console_Message_On_Custom@@@@6B@ ; ScriptRegistrant<JFW_Console_Message_On_Custom>::`vftable'
PUBLIC	?JFW_Console_Message_On_Custom_Registrant@@3V?$ScriptRegistrant@VJFW_Console_Message_On_Custom@@@@A ; JFW_Console_Message_On_Custom_Registrant
PUBLIC	??_C@_0BK@ONPHEIB@Message?3int?0Output?3string?$AA@ ; `string'
PUBLIC	??_C@_0BO@JOHLLKNE@JFW_Console_Message_On_Custom?$AA@ ; `string'
PUBLIC	??_7?$ScriptRegistrant@VJFW_Console_Input_On_Custom@@@@6B@ ; ScriptRegistrant<JFW_Console_Input_On_Custom>::`vftable'
PUBLIC	?JFW_Console_Input_On_Custom_Registrant@@3V?$ScriptRegistrant@VJFW_Console_Input_On_Custom@@@@A ; JFW_Console_Input_On_Custom_Registrant
PUBLIC	??_C@_0BJ@GHJKCFGG@Message?3int?0Input?3string?$AA@ ; `string'
PUBLIC	??_C@_0BM@HKNIBBPN@JFW_Console_Input_On_Custom?$AA@ ; `string'
PUBLIC	??_7?$ScriptRegistrant@VJFW_Invulnerable_On_Custom_3@@@@6B@ ; ScriptRegistrant<JFW_Invulnerable_On_Custom_3>::`vftable'
PUBLIC	?JFW_Invulnerable_On_Custom_3_Registrant@@3V?$ScriptRegistrant@VJFW_Invulnerable_On_Custom_3@@@@A ; JFW_Invulnerable_On_Custom_3_Registrant
PUBLIC	??_C@_0DK@EBJENCHA@Message?3int?0InvulnerableArmour?3s@ ; `string'
PUBLIC	??_C@_0BN@BLDPEKDI@JFW_Invulnerable_On_Custom_3?$AA@ ; `string'
PUBLIC	??_7?$ScriptRegistrant@VJFW_Change_Team_On_Custom@@@@6B@ ; ScriptRegistrant<JFW_Change_Team_On_Custom>::`vftable'
PUBLIC	?JFW_Change_Team_On_Custom_Registrant@@3V?$ScriptRegistrant@VJFW_Change_Team_On_Custom@@@@A ; JFW_Change_Team_On_Custom_Registrant
PUBLIC	??_C@_0M@HBPJHKKO@Message?3int?$AA@		; `string'
PUBLIC	??_C@_0BK@MLIBDIKG@JFW_Change_Team_On_Custom?$AA@ ; `string'
PUBLIC	??_7?$ScriptRegistrant@VJFW_Enable_Team_Radar_On_Custom@@@@6B@ ; ScriptRegistrant<JFW_Enable_Team_Radar_On_Custom>::`vftable'
PUBLIC	?JFW_Enable_Team_Radar_On_Custom_Registrant@@3V?$ScriptRegistrant@VJFW_Enable_Team_Radar_On_Custom@@@@A ; JFW_Enable_Team_Radar_On_Custom_Registrant
PUBLIC	??_C@_0CH@HKEBPBGK@Player_Type?3int?0Message?3int?0Enab@ ; `string'
PUBLIC	??_C@_0CA@KBAHICAD@JFW_Enable_Team_Radar_On_Custom?$AA@ ; `string'
PUBLIC	??_7?$ScriptRegistrant@VJFW_2D_Sound_Team_Custom@@@@6B@ ; ScriptRegistrant<JFW_2D_Sound_Team_Custom>::`vftable'
PUBLIC	?JFW_2D_Sound_Team_Custom_Registrant@@3V?$ScriptRegistrant@VJFW_2D_Sound_Team_Custom@@@@A ; JFW_2D_Sound_Team_Custom_Registrant
PUBLIC	??_C@_0CC@CNOMMKK@Message?3int?0Sound?3string?0Team?3in@ ; `string'
PUBLIC	??_C@_0BJ@IIKHANDN@JFW_2D_Sound_Team_Custom?$AA@ ; `string'
PUBLIC	??_7?$ScriptRegistrant@VJFW_3D_Sound_Team_Custom@@@@6B@ ; ScriptRegistrant<JFW_3D_Sound_Team_Custom>::`vftable'
PUBLIC	?JFW_3D_Sound_Team_Custom_Registrant@@3V?$ScriptRegistrant@VJFW_3D_Sound_Team_Custom@@@@A ; JFW_3D_Sound_Team_Custom_Registrant
PUBLIC	??_C@_0DD@ELEADBPK@Message?3int?0Sound?3string?0Positio@ ; `string'
PUBLIC	??_C@_0BJ@BHHNIOKD@JFW_3D_Sound_Team_Custom?$AA@ ; `string'
PUBLIC	??_7?$ScriptRegistrant@VJFW_Custom_Send_Ordered_Customs@@@@6B@ ; ScriptRegistrant<JFW_Custom_Send_Ordered_Customs>::`vftable'
PUBLIC	?JFW_Custom_Send_Ordered_Customs_Registrant@@3V?$ScriptRegistrant@VJFW_Custom_Send_Ordered_Customs@@@@A ; JFW_Custom_Send_Ordered_Customs_Registrant
PUBLIC	??_C@_0KP@DPEDCNNA@ID1?3int?0ID2?3int?0ID3?3int?0ID4?3int?0@ ; `string'
PUBLIC	??_C@_0CA@GHCLAJJM@JFW_Custom_Send_Ordered_Customs?$AA@ ; `string'
PUBLIC	??_7?$ScriptRegistrant@VJFW_Custom_Send_Customs@@@@6B@ ; ScriptRegistrant<JFW_Custom_Send_Customs>::`vftable'
PUBLIC	?JFW_Custom_Send_Customs_Registrant@@3V?$ScriptRegistrant@VJFW_Custom_Send_Customs@@@@A ; JFW_Custom_Send_Customs_Registrant
PUBLIC	??_C@_0BI@DAONFBFO@JFW_Custom_Send_Customs?$AA@	; `string'
PUBLIC	??_7?$ScriptRegistrant@VJFW_Custom_Send_Custom_Multiple_IDs@@@@6B@ ; ScriptRegistrant<JFW_Custom_Send_Custom_Multiple_IDs>::`vftable'
PUBLIC	?JFW_Custom_Send_Custom_Multiple_IDs_Registrant@@3V?$ScriptRegistrant@VJFW_Custom_Send_Custom_Multiple_IDs@@@@A ; JFW_Custom_Send_Custom_Multiple_IDs_Registrant
PUBLIC	??_C@_0FO@JLOJLNIA@ID1?3int?0ID2?3int?0ID3?3int?0ID4?3int?0@ ; `string'
PUBLIC	??_C@_0CE@ODIDFMKP@JFW_Custom_Send_Custom_Multiple_@ ; `string'
PUBLIC	??_7?$ScriptRegistrant@VJFW_Create_Destroy_Object_On_Custom_Death@@@@6B@ ; ScriptRegistrant<JFW_Create_Destroy_Object_On_Custom_Death>::`vftable'
PUBLIC	?JFW_Create_Destroy_Object_On_Custom_Death_Registrant@@3V?$ScriptRegistrant@VJFW_Create_Destroy_Object_On_Custom_Death@@@@A ; JFW_Create_Destroy_Object_On_Custom_Death_Registrant
PUBLIC	??_C@_0FB@FOGGDGBJ@Location?3vector3?0Facing?3float?0Pr@ ; `string'
PUBLIC	??_C@_0CK@OKEBCAF@JFW_Create_Destroy_Object_On_Cus@ ; `string'
PUBLIC	??_7?$ScriptRegistrant@VJFW_Create_Destroy_Object_On_Custom_Death_Bone@@@@6B@ ; ScriptRegistrant<JFW_Create_Destroy_Object_On_Custom_Death_Bone>::`vftable'
PUBLIC	?JFW_Create_Destroy_Object_On_Custom_Death_Bone_Registrant@@3V?$ScriptRegistrant@VJFW_Create_Destroy_Object_On_Custom_Death_Bone@@@@A ; JFW_Create_Destroy_Object_On_Custom_Death_Bone_Registrant
PUBLIC	??_C@_0GB@IMCJLKBA@Location?3vector3?0Facing?3float?0Pr@ ; `string'
PUBLIC	??_C@_0CP@JEGPOHMA@JFW_Create_Destroy_Object_On_Cus@ ; `string'
PUBLIC	??_7?$ScriptRegistrant@VJFW_Custom_Destroy_All_Buildings@@@@6B@ ; ScriptRegistrant<JFW_Custom_Destroy_All_Buildings>::`vftable'
PUBLIC	?JFW_Custom_Destroy_All_Buildings_Registrant@@3V?$ScriptRegistrant@VJFW_Custom_Destroy_All_Buildings@@@@A ; JFW_Custom_Destroy_All_Buildings_Registrant
PUBLIC	??_C@_0BA@CCJADDGA@Player_Type?3int?$AA@	; `string'
PUBLIC	??_C@_0CB@MPNGDJ@JFW_Custom_Destroy_All_Buildings@ ; `string'
PUBLIC	??_7?$ScriptRegistrant@VJFW_Timer_Custom_On_Off@@@@6B@ ; ScriptRegistrant<JFW_Timer_Custom_On_Off>::`vftable'
PUBLIC	?JFW_Timer_Custom_On_Off_Registrant@@3V?$ScriptRegistrant@VJFW_Timer_Custom_On_Off@@@@A ; JFW_Timer_Custom_On_Off_Registrant
PUBLIC	??_C@_0GF@KFPPCHHO@Time?3float?0TimerNum?3int?0Repeat?3i@ ; `string'
PUBLIC	??_C@_0BI@FDNKIONH@JFW_Timer_Custom_On_Off?$AA@	; `string'
PUBLIC	??_7?$ScriptRegistrant@VJFW_Create_Vehicle_On_Custom@@@@6B@ ; ScriptRegistrant<JFW_Create_Vehicle_On_Custom>::`vftable'
PUBLIC	?JFW_Create_Vehicle_On_Custom_Registrant@@3V?$ScriptRegistrant@VJFW_Create_Vehicle_On_Custom@@@@A ; JFW_Create_Vehicle_On_Custom_Registrant
PUBLIC	??_C@_0CP@IDEFHOLI@Preset_Name?3string?0Delay?3float?0P@ ; `string'
PUBLIC	??_C@_0BN@JJMOKIFD@JFW_Create_Vehicle_On_Custom?$AA@ ; `string'
PUBLIC	??_7?$ScriptRegistrant@VJFW_Set_Model_On_Custom_Sender@@@@6B@ ; ScriptRegistrant<JFW_Set_Model_On_Custom_Sender>::`vftable'
PUBLIC	?JFW_Set_Model_On_Custom_Sender_Registrant@@3V?$ScriptRegistrant@VJFW_Set_Model_On_Custom_Sender@@@@A ; JFW_Set_Model_On_Custom_Sender_Registrant
PUBLIC	??_C@_0BJ@BCBPNFFH@Message?3int?0Model?3string?$AA@ ; `string'
PUBLIC	??_C@_0BP@NDMBGPH@JFW_Set_Model_On_Custom_Sender?$AA@ ; `string'
PUBLIC	??_7?$ScriptRegistrant@VJFW_Death_Send_Custom_ID@@@@6B@ ; ScriptRegistrant<JFW_Death_Send_Custom_ID>::`vftable'
PUBLIC	?JFW_Death_Send_Custom_ID_Registrant@@3V?$ScriptRegistrant@VJFW_Death_Send_Custom_ID@@@@A ; JFW_Death_Send_Custom_ID_Registrant
PUBLIC	??_C@_0BD@GIOEMHHM@ID?3int?0Message?3int?$AA@	; `string'
PUBLIC	??_C@_0BJ@LDCBDEPB@JFW_Death_Send_Custom_ID?$AA@ ; `string'
PUBLIC	??_7?$ScriptRegistrant@VJFW_Death_Send_Custom_Driver_ID@@@@6B@ ; ScriptRegistrant<JFW_Death_Send_Custom_Driver_ID>::`vftable'
PUBLIC	?JFW_Death_Send_Custom_Driver_ID_Registrant@@3V?$ScriptRegistrant@VJFW_Death_Send_Custom_Driver_ID@@@@A ; JFW_Death_Send_Custom_Driver_ID_Registrant
PUBLIC	??_C@_0CA@OFFGPBID@JFW_Death_Send_Custom_Driver_ID?$AA@ ; `string'
PUBLIC	??_7?$ScriptRegistrant@VJFW_Repair_On_Custom@@@@6B@ ; ScriptRegistrant<JFW_Repair_On_Custom>::`vftable'
PUBLIC	?JFW_Repair_On_Custom_Registrant@@3V?$ScriptRegistrant@VJFW_Repair_On_Custom@@@@A ; JFW_Repair_On_Custom_Registrant
PUBLIC	??_C@_0BJ@GHNLPONF@Message?3int?0Health?3float?$AA@ ; `string'
PUBLIC	??_C@_0BF@LMNDNIOD@JFW_Repair_On_Custom?$AA@	; `string'
PUBLIC	??_7?$ScriptRegistrant@VJFW_Teleport_Custom@@@@6B@ ; ScriptRegistrant<JFW_Teleport_Custom>::`vftable'
PUBLIC	?JFW_Teleport_Custom_Registrant@@3V?$ScriptRegistrant@VJFW_Teleport_Custom@@@@A ; JFW_Teleport_Custom_Registrant
PUBLIC	??_C@_0CN@PPKLDNIJ@Location?3vector3?0Object_ID?$DN0?3int@ ; `string'
PUBLIC	??_C@_0BE@LAMLGAEK@JFW_Teleport_Custom?$AA@	; `string'
PUBLIC	??_7?$ScriptRegistrant@VJFW_Teleport_Custom_Random@@@@6B@ ; ScriptRegistrant<JFW_Teleport_Custom_Random>::`vftable'
PUBLIC	?JFW_Teleport_Custom_Random_Registrant@@3V?$ScriptRegistrant@VJFW_Teleport_Custom_Random@@@@A ; JFW_Teleport_Custom_Random_Registrant
PUBLIC	??_C@_0LL@BFKAMIE@Location1?3vector3?0Object_ID1?$DN0?3i@ ; `string'
PUBLIC	??_C@_0BL@JBECEHLJ@JFW_Teleport_Custom_Random?$AA@ ; `string'
PUBLIC	??_7?$ScriptRegistrant@VJFW_Teleport_Custom_Timer@@@@6B@ ; ScriptRegistrant<JFW_Teleport_Custom_Timer>::`vftable'
PUBLIC	?JFW_Teleport_Custom_Timer_Registrant@@3V?$ScriptRegistrant@VJFW_Teleport_Custom_Timer@@@@A ; JFW_Teleport_Custom_Timer_Registrant
PUBLIC	??_C@_0EF@HHEGHBIC@Location?3vector3?0Object_ID?$DN0?3int@ ; `string'
PUBLIC	??_C@_0BK@BPBKDCLC@JFW_Teleport_Custom_Timer?$AA@ ; `string'
PUBLIC	??_7?$ScriptRegistrant@VJFW_Blow_Up_Location_On_Custom@@@@6B@ ; ScriptRegistrant<JFW_Blow_Up_Location_On_Custom>::`vftable'
PUBLIC	?JFW_Blow_Location_Up_On_Custom_Registrant@@3V?$ScriptRegistrant@VJFW_Blow_Up_Location_On_Custom@@@@A ; JFW_Blow_Location_Up_On_Custom_Registrant
PUBLIC	??_C@_0CO@HFFPCNDO@Explosion?3string?0Message?3int?0Loc@ ; `string'
PUBLIC	??_C@_0BP@JHGJLGKI@JFW_Blow_Location_Up_On_Custom?$AA@ ; `string'
PUBLIC	??_7?$ScriptRegistrant@VJFW_3D_Sound_Custom@@@@6B@ ; ScriptRegistrant<JFW_3D_Sound_Custom>::`vftable'
PUBLIC	?JFW_3D_Sound_Custom_Registrant@@3V?$ScriptRegistrant@VJFW_3D_Sound_Custom@@@@A ; JFW_3D_Sound_Custom_Registrant
PUBLIC	??_C@_0CL@NEBLMINI@Message?3int?0Preset?3string?0Positi@ ; `string'
PUBLIC	??_C@_0BE@JGOBGOIG@JFW_3D_Sound_Custom?$AA@	; `string'
PUBLIC	??_7?$ScriptRegistrant@VJFW_Created_Send_Custom@@@@6B@ ; ScriptRegistrant<JFW_Created_Send_Custom>::`vftable'
PUBLIC	?JFW_Created_Send_Custom_Registrant@@3V?$ScriptRegistrant@VJFW_Created_Send_Custom@@@@A ; JFW_Created_Send_Custom_Registrant
PUBLIC	??_C@_0BI@DKCDKDH@JFW_Created_Send_Custom?$AA@	; `string'
PUBLIC	??_7?$ScriptRegistrant@VJFW_Damaged_Send_Custom@@@@6B@ ; ScriptRegistrant<JFW_Damaged_Send_Custom>::`vftable'
PUBLIC	?JFW_Damaged_Send_Custom_Registrant@@3V?$ScriptRegistrant@VJFW_Damaged_Send_Custom@@@@A ; JFW_Damaged_Send_Custom_Registrant
PUBLIC	??_C@_0BI@IKEMAFGH@JFW_Damaged_Send_Custom?$AA@	; `string'
PUBLIC	??_7?$ScriptRegistrant@VJFW_Enemy_Seen_Send_Custom@@@@6B@ ; ScriptRegistrant<JFW_Enemy_Seen_Send_Custom>::`vftable'
PUBLIC	?JFW_Enemy_Seen_Send_Custom_Registrant@@3V?$ScriptRegistrant@VJFW_Enemy_Seen_Send_Custom@@@@A ; JFW_Enemy_Seen_Send_Custom_Registrant
PUBLIC	??_C@_0BL@BNNPOECC@JFW_Enemy_Seen_Send_Custom?$AA@ ; `string'
PUBLIC	??_7?$ScriptRegistrant@VJFW_Create_Object_Custom@@@@6B@ ; ScriptRegistrant<JFW_Create_Object_Custom>::`vftable'
PUBLIC	?JFW_Create_Object_Custom_Registrant@@3V?$ScriptRegistrant@VJFW_Create_Object_Custom@@@@A ; JFW_Create_Object_Custom_Registrant
PUBLIC	??_C@_0DI@IMAJHKIE@Object?3string?0Location?3vector3?0F@ ; `string'
PUBLIC	??_C@_0BJ@HFGMINPF@JFW_Create_Object_Custom?$AA@ ; `string'
PUBLIC	??_7?$ScriptRegistrant@VJFW_Enable_Spawner_On_Custom@@@@6B@ ; ScriptRegistrant<JFW_Enable_Spawner_On_Custom>::`vftable'
PUBLIC	?JFW_Enable_Spawner_On_Custom_Registrant@@3V?$ScriptRegistrant@VJFW_Enable_Spawner_On_Custom@@@@A ; JFW_Enable_Spawner_On_Custom_Registrant
PUBLIC	??_C@_0BO@HGKJPDCI@ID?3int?0Enable?3int?0Message?3int?$AA@ ; `string'
PUBLIC	??_C@_0BN@FKMHONFC@JFW_Enable_Spawner_On_Custom?$AA@ ; `string'
PUBLIC	??_7?$ScriptRegistrant@VJFW_Set_Animation_On_Custom@@@@6B@ ; ScriptRegistrant<JFW_Set_Animation_On_Custom>::`vftable'
PUBLIC	?JFW_Set_Animation_On_Custom_Registrant@@3V?$ScriptRegistrant@VJFW_Set_Animation_On_Custom@@@@A ; JFW_Set_Animation_On_Custom_Registrant
PUBLIC	??_C@_0GE@DBALBGLD@Animation?3string?0Loop?3int?0Subobj@ ; `string'
PUBLIC	??_C@_0BM@BHOOCMCK@JFW_Set_Animation_On_Custom?$AA@ ; `string'
PUBLIC	??_7?$ScriptRegistrant@VJFW_Set_Model_Animation_On_Custom@@@@6B@ ; ScriptRegistrant<JFW_Set_Model_Animation_On_Custom>::`vftable'
PUBLIC	?JFW_Set_Model_Animation_On_Custom_Registrant@@3V?$ScriptRegistrant@VJFW_Set_Model_Animation_On_Custom@@@@A ; JFW_Set_Model_Animation_On_Custom_Registrant
PUBLIC	??_C@_0HB@FFNPKOJF@Animation?3string?0Loop?3int?0Subobj@ ; `string'
PUBLIC	??_C@_0CC@DCNCLIDH@JFW_Set_Model_Animation_On_Custo@ ; `string'
PUBLIC	??_7?$ScriptRegistrant@VJFW_Set_Model_On_Custom@@@@6B@ ; ScriptRegistrant<JFW_Set_Model_On_Custom>::`vftable'
PUBLIC	?JFW_Set_Model_On_Custom_Registrant@@3V?$ScriptRegistrant@VJFW_Set_Model_On_Custom@@@@A ; JFW_Set_Model_On_Custom_Registrant
PUBLIC	??_C@_0BJ@MELJJALF@Model?3string?0Message?3int?$AA@ ; `string'
PUBLIC	??_C@_0BI@OMLMHNAE@JFW_Set_Model_On_Custom?$AA@	; `string'
PUBLIC	??_7?$ScriptRegistrant@VJFW_Enable_Disable_Animation_On_Custom@@@@6B@ ; ScriptRegistrant<JFW_Enable_Disable_Animation_On_Custom>::`vftable'
PUBLIC	?JFW_Enable_Disable_Animation_On_Custom_Registrant@@3V?$ScriptRegistrant@VJFW_Enable_Disable_Animation_On_Custom@@@@A ; JFW_Enable_Disable_Animation_On_Custom_Registrant
PUBLIC	??_C@_0GG@GMOICACP@Animation?3string?0Subobject?3strin@ ; `string'
PUBLIC	??_C@_0CH@HDMFJLIK@JFW_Enable_Disable_Animation_On_@ ; `string'
PUBLIC	??_7?$ScriptRegistrant@VJFW_Custom_Toggle_Visible@@@@6B@ ; ScriptRegistrant<JFW_Custom_Toggle_Visible>::`vftable'
PUBLIC	?JFW_Custom_Toggle_Visible_Registrant@@3V?$ScriptRegistrant@VJFW_Custom_Toggle_Visible@@@@A ; JFW_Custom_Toggle_Visible_Registrant
PUBLIC	??_C@_0BI@JICKOMEH@Message?3int?0Visible?3int?$AA@ ; `string'
PUBLIC	??_C@_0BK@OCJEBCDL@JFW_Custom_Toggle_Visible?$AA@ ; `string'
PUBLIC	??_7?$ScriptRegistrant@VJFW_Customs_Send_Custom@@@@6B@ ; ScriptRegistrant<JFW_Customs_Send_Custom>::`vftable'
PUBLIC	?JFW_Customs_Send_Custom_Registrant@@3V?$ScriptRegistrant@VJFW_Customs_Send_Custom@@@@A ; JFW_Customs_Send_Custom_Registrant
PUBLIC	??_C@_0IF@BHOLBJFP@Message1?3int?0Message2?3int?0Messag@ ; `string'
PUBLIC	??_C@_0BI@PKLGGLBI@JFW_Customs_Send_Custom?$AA@	; `string'
PUBLIC	??_7?$ScriptRegistrant@VJFW_Custom_Send_Custom@@@@6B@ ; ScriptRegistrant<JFW_Custom_Send_Custom>::`vftable'
PUBLIC	?JFW_Custom_Send_Custom_Registrant@@3V?$ScriptRegistrant@VJFW_Custom_Send_Custom@@@@A ; JFW_Custom_Send_Custom_Registrant
PUBLIC	??_C@_0DM@JCLPCJJO@RecieveMessage?3int?0SendMessage?3i@ ; `string'
PUBLIC	??_C@_0BH@JBKCJHGJ@JFW_Custom_Send_Custom?$AA@	; `string'
PUBLIC	??_7?$ScriptRegistrant@VJFW_Custom_Multiple_Send_Custom@@@@6B@ ; ScriptRegistrant<JFW_Custom_Multiple_Send_Custom>::`vftable'
PUBLIC	?JFW_Custom_Multiple_Send_Custom_Registrant@@3V?$ScriptRegistrant@VJFW_Custom_Multiple_Send_Custom@@@@A ; JFW_Custom_Multiple_Send_Custom_Registrant
PUBLIC	??_C@_0EN@FDFJNNMJ@RecieveMessage?3int?0RecieveCount?3@ ; `string'
PUBLIC	??_C@_0CA@EBAMNMGA@JFW_Custom_Multiple_Send_Custom?$AA@ ; `string'
PUBLIC	??_7?$ScriptRegistrant@VJFW_Custom_Multiple_Send_Custom_2@@@@6B@ ; ScriptRegistrant<JFW_Custom_Multiple_Send_Custom_2>::`vftable'
PUBLIC	?JFW_Custom_Multiple_Send_Custom_2_Registrant@@3V?$ScriptRegistrant@VJFW_Custom_Multiple_Send_Custom_2@@@@A ; JFW_Custom_Multiple_Send_Custom_2_Registrant
PUBLIC	??_C@_0CC@GAAIIJKI@JFW_Custom_Multiple_Send_Custom_@ ; `string'
PUBLIC	??_7?$ScriptRegistrant@VJFW_Create_Destroy_Object_On_Custom@@@@6B@ ; ScriptRegistrant<JFW_Create_Destroy_Object_On_Custom>::`vftable'
PUBLIC	?JFW_Create_Destroy_Object_On_Custom_Registrant@@3V?$ScriptRegistrant@VJFW_Create_Destroy_Object_On_Custom@@@@A ; JFW_Create_Destroy_Object_On_Custom_Registrant
PUBLIC	??_C@_0CE@KICPHHCA@JFW_Create_Destroy_Object_On_Cus@ ; `string'
PUBLIC	??_7?$ScriptRegistrant@VJFW_Create_Destroy_Object_On_Custom_Animate@@@@6B@ ; ScriptRegistrant<JFW_Create_Destroy_Object_On_Custom_Animate>::`vftable'
PUBLIC	?JFW_Create_Destroy_Object_On_Custom_Animate_Registrant@@3V?$ScriptRegistrant@VJFW_Create_Destroy_Object_On_Custom_Animate@@@@A ; JFW_Create_Destroy_Object_On_Custom_Animate_Registrant
PUBLIC	??_C@_0KJ@CHEBKMPF@Location?3vector3?0Facing?3float?0Pr@ ; `string'
PUBLIC	??_C@_0CM@HDPALGEN@JFW_Create_Destroy_Object_On_Cus@ ; `string'
PUBLIC	??_7?$ScriptRegistrant@VJFW_Create_Destroy_Object_On_Custom_Animate_2@@@@6B@ ; ScriptRegistrant<JFW_Create_Destroy_Object_On_Custom_Animate_2>::`vftable'
PUBLIC	?JFW_Create_Destroy_Object_On_Custom_Animate_2_Registrant@@3V?$ScriptRegistrant@VJFW_Create_Destroy_Object_On_Custom_Animate_2@@@@A ; JFW_Create_Destroy_Object_On_Custom_Animate_2_Registrant
PUBLIC	??_C@_0BFH@NGPJDEME@Location?3vector3?0Facing?3float?0Pr@ ; `string'
PUBLIC	??_C@_0CO@ONEFGJPN@JFW_Create_Destroy_Object_On_Cus@ ; `string'
PUBLIC	??_7?$ScriptRegistrant@VJFW_Damaged_Send_Custom_Amount@@@@6B@ ; ScriptRegistrant<JFW_Damaged_Send_Custom_Amount>::`vftable'
PUBLIC	?JFW_Damaged_Send_Custom_Amount_Registrant@@3V?$ScriptRegistrant@VJFW_Damaged_Send_Custom_Amount@@@@A ; JFW_Damaged_Send_Custom_Amount_Registrant
PUBLIC	??_C@_0CO@JJHOLJIG@ID?3int?0Message1?3int?0Message2?3int@ ; `string'
PUBLIC	??_C@_0BP@JFLCGJAG@JFW_Damaged_Send_Custom_Amount?$AA@ ; `string'
PUBLIC	??_7?$ScriptRegistrant@VJFW_Invulnerable_On_Custom@@@@6B@ ; ScriptRegistrant<JFW_Invulnerable_On_Custom>::`vftable'
PUBLIC	?JFW_Invulnerable_On_Custom_Registrant@@3V?$ScriptRegistrant@VJFW_Invulnerable_On_Custom@@@@A ; JFW_Invulnerable_On_Custom_Registrant
PUBLIC	??_C@_0BL@HKOAMCLB@JFW_Invulnerable_On_Custom?$AA@ ; `string'
PUBLIC	??_7?$ScriptRegistrant@VJFW_Invulnerable_On_Custom_2@@@@6B@ ; ScriptRegistrant<JFW_Invulnerable_On_Custom_2>::`vftable'
PUBLIC	?JFW_Invulnerable_On_Custom_2_Registrant@@3V?$ScriptRegistrant@VJFW_Invulnerable_On_Custom_2@@@@A ; JFW_Invulnerable_On_Custom_2_Registrant
PUBLIC	??_C@_0BN@CCEHLHJ@JFW_Invulnerable_On_Custom_2?$AA@ ; `string'
PUBLIC	??_7?$ScriptRegistrant@VJFW_Custom_Send_Custom_Parameter@@@@6B@ ; ScriptRegistrant<JFW_Custom_Send_Custom_Parameter>::`vftable'
PUBLIC	?JFW_Custom_Send_Custom_Parameter_Registrant@@3V?$ScriptRegistrant@VJFW_Custom_Send_Custom_Parameter@@@@A ; JFW_Custom_Send_Custom_Parameter_Registrant
PUBLIC	??_C@_0CB@BILGGPKD@ID?3int?0BaseMessage?3int?0Limit?3int@ ; `string'
PUBLIC	??_C@_0CB@KKNPLHAI@JFW_Custom_Send_Custom_Parameter@ ; `string'
PUBLIC	??_7?$ScriptRegistrant@VJFW_Create_Destroy_Object_On_Custom_Bone@@@@6B@ ; ScriptRegistrant<JFW_Create_Destroy_Object_On_Custom_Bone>::`vftable'
PUBLIC	?JFW_Create_Destroy_Object_On_Custom_Bone_Registrant@@3V?$ScriptRegistrant@VJFW_Create_Destroy_Object_On_Custom_Bone@@@@A ; JFW_Create_Destroy_Object_On_Custom_Bone_Registrant
PUBLIC	??_C@_0CJ@IEILKPIL@JFW_Create_Destroy_Object_On_Cus@ ; `string'
PUBLIC	??_7?$ScriptRegistrant@VJFW_Timer_Custom@@@@6B@	; ScriptRegistrant<JFW_Timer_Custom>::`vftable'
PUBLIC	?JFW_Timer_Custom_Registrant@@3V?$ScriptRegistrant@VJFW_Timer_Custom@@@@A ; JFW_Timer_Custom_Registrant
PUBLIC	??_C@_0EA@PKGHDKO@Time?3float?0TimerNum?3int?0Repeat?3i@ ; `string'
PUBLIC	??_C@_0BB@CFHMGNEL@JFW_Timer_Custom?$AA@	; `string'
PUBLIC	??_7?$ScriptRegistrant@VJFW_2D_Sound_Custom@@@@6B@ ; ScriptRegistrant<JFW_2D_Sound_Custom>::`vftable'
PUBLIC	?JFW_2D_Sound_Custom_Registrant@@3V?$ScriptRegistrant@VJFW_2D_Sound_Custom@@@@A ; JFW_2D_Sound_Custom_Registrant
PUBLIC	??_C@_0BK@GKHLLMDJ@Message?3int?0Preset?3string?$AA@ ; `string'
PUBLIC	??_C@_0BE@DIIJPPBH@JFW_2D_Sound_Custom?$AA@	; `string'
PUBLIC	??_7?$ScriptRegistrant@VJFW_3D_Sound_Custom_2@@@@6B@ ; ScriptRegistrant<JFW_3D_Sound_Custom_2>::`vftable'
PUBLIC	?JFW_3D_Sound_Custom_2_Registrant@@3V?$ScriptRegistrant@VJFW_3D_Sound_Custom_2@@@@A ; JFW_3D_Sound_Custom_2_Registrant
PUBLIC	??_C@_0BG@ENEDNIIP@JFW_3D_Sound_Custom_2?$AA@	; `string'
PUBLIC	??_7?$ScriptRegistrant@VJFW_3D_Sound_Custom_Bone@@@@6B@ ; ScriptRegistrant<JFW_3D_Sound_Custom_Bone>::`vftable'
PUBLIC	?JFW_3D_Sound_Custom_Bone_Registrant@@3V?$ScriptRegistrant@VJFW_3D_Sound_Custom_Bone@@@@A ; JFW_3D_Sound_Custom_Bone_Registrant
PUBLIC	??_C@_0CG@GIAGIL@Message?3int?0Preset?3string?0Bone?3s@ ; `string'
PUBLIC	??_C@_0BJ@IMAJHNJP@JFW_3D_Sound_Custom_Bone?$AA@ ; `string'
PUBLIC	??_7?$ScriptRegistrant@VJFW_Random_Custom@@@@6B@ ; ScriptRegistrant<JFW_Random_Custom>::`vftable'
PUBLIC	?JFW_Random_Custom_Registrant@@3V?$ScriptRegistrant@VJFW_Random_Custom@@@@A ; JFW_Random_Custom_Registrant
PUBLIC	??_C@_0EJ@BDNBDOCP@Message?3int?0ID?3int?0TimerNum?3int?0@ ; `string'
PUBLIC	??_C@_0BC@PHHMAJIJ@JFW_Random_Custom?$AA@	; `string'
PUBLIC	??_7?$ScriptRegistrant@VJFW_Custom_Damage_Object@@@@6B@ ; ScriptRegistrant<JFW_Custom_Damage_Object>::`vftable'
PUBLIC	?JFW_Custom_Damage_Object_Registrant@@3V?$ScriptRegistrant@VJFW_Custom_Damage_Object@@@@A ; JFW_Custom_Damage_Object_Registrant
PUBLIC	??_C@_0CA@JCOPNCIK@ID?3int?0Message?3int?0Damage?3float?$AA@ ; `string'
PUBLIC	??_C@_0BJ@ELPIMCOM@JFW_Custom_Damage_Object?$AA@ ; `string'
PUBLIC	??_7?$ScriptRegistrant@VJFW_Blow_Up_On_Custom@@@@6B@ ; ScriptRegistrant<JFW_Blow_Up_On_Custom>::`vftable'
PUBLIC	?JFW_Blow_Up_On_Custom_Registrant@@3V?$ScriptRegistrant@VJFW_Blow_Up_On_Custom@@@@A ; JFW_Blow_Up_On_Custom_Registrant
PUBLIC	??_C@_0BN@FBCPGKDN@Explosion?3string?0Message?3int?$AA@ ; `string'
PUBLIC	??_C@_0BG@GIHBEOEP@JFW_Blow_Up_On_Custom?$AA@	; `string'
PUBLIC	??_7?$ScriptRegistrant@VJFW_Blow_Up_Obj_On_Custom@@@@6B@ ; ScriptRegistrant<JFW_Blow_Up_Obj_On_Custom>::`vftable'
PUBLIC	?JFW_Blow_Obj_Up_On_Custom_Registrant@@3V?$ScriptRegistrant@VJFW_Blow_Up_Obj_On_Custom@@@@A ; JFW_Blow_Obj_Up_On_Custom_Registrant
PUBLIC	??_C@_0BK@JHICFJHA@JFW_Blow_Obj_Up_On_Custom?$AA@ ; `string'
PUBLIC	??_7?$ScriptRegistrant@VJFW_Delay_Custom@@@@6B@	; ScriptRegistrant<JFW_Delay_Custom>::`vftable'
PUBLIC	?JFW_Delay_Custom_Registrant@@3V?$ScriptRegistrant@VJFW_Delay_Custom@@@@A ; JFW_Delay_Custom_Registrant
PUBLIC	??_C@_0BP@LHCLOJDP@Message?3int?0Delay?3float?0ID?3int?$AA@ ; `string'
PUBLIC	??_C@_0BB@NOEBGHHH@JFW_Delay_Custom?$AA@	; `string'
PUBLIC	??_7?$ScriptRegistrant@VJFW_Startup_Custom@@@@6B@ ; ScriptRegistrant<JFW_Startup_Custom>::`vftable'
PUBLIC	?JFW_Startup_Custom_Registrant@@3V?$ScriptRegistrant@VJFW_Startup_Custom@@@@A ; JFW_Startup_Custom_Registrant
PUBLIC	??_C@_0BD@GEKMDOPO@Message?3int?0ID?3int?$AA@	; `string'
PUBLIC	??_C@_0BD@DPNLAGLH@JFW_Startup_Custom?$AA@	; `string'
PUBLIC	??_7?$ScriptRegistrant@VJFW_Custom_Toggle_Radar@@@@6B@ ; ScriptRegistrant<JFW_Custom_Toggle_Radar>::`vftable'
PUBLIC	?JFW_Custom_Toggle_Radar_Registrant@@3V?$ScriptRegistrant@VJFW_Custom_Toggle_Radar@@@@A ; JFW_Custom_Toggle_Radar_Registrant
PUBLIC	??_C@_0BI@NHELEKLA@JFW_Custom_Toggle_Radar?$AA@	; `string'
PUBLIC	??_7?$ScriptRegistrant@VJFW_Custom_Destroy_Object@@@@6B@ ; ScriptRegistrant<JFW_Custom_Destroy_Object>::`vftable'
PUBLIC	?JFW_Custom_Destroy_Object_Registrant@@3V?$ScriptRegistrant@VJFW_Custom_Destroy_Object@@@@A ; JFW_Custom_Destroy_Object_Registrant
PUBLIC	??_C@_0BK@JIOKMAHF@JFW_Custom_Destroy_Object?$AA@ ; `string'
PUBLIC	??_7?$ScriptRegistrant@VJFW_Custom_Objectives_Dlg@@@@6B@ ; ScriptRegistrant<JFW_Custom_Objectives_Dlg>::`vftable'
PUBLIC	?JFW_Custom_Objectives_Dlg_Registrant@@3V?$ScriptRegistrant@VJFW_Custom_Objectives_Dlg@@@@A ; JFW_Custom_Objectives_Dlg_Registrant
PUBLIC	??_C@_0BI@HCBAKPLK@Message?3int?0File?3string?$AA@ ; `string'
PUBLIC	??_C@_0BK@MFIINFBM@JFW_Custom_Objectives_Dlg?$AA@ ; `string'
PUBLIC	??_7?$ScriptRegistrant@VJFW_Reflect_Custom@@@@6B@ ; ScriptRegistrant<JFW_Reflect_Custom>::`vftable'
PUBLIC	?JFW_Reflect_Custom_Registrant@@3V?$ScriptRegistrant@VJFW_Reflect_Custom@@@@A ; JFW_Reflect_Custom_Registrant
PUBLIC	??_C@_00CNPNBAHC@?$AA@				; `string'
PUBLIC	??_C@_0BD@PNODIDFH@JFW_Reflect_Custom?$AA@	; `string'
PUBLIC	??_7?$ScriptRegistrant@VJFW_Reflect_Custom_Delay@@@@6B@ ; ScriptRegistrant<JFW_Reflect_Custom_Delay>::`vftable'
PUBLIC	?JFW_Reflect_Custom_Delay_Registrant@@3V?$ScriptRegistrant@VJFW_Reflect_Custom_Delay@@@@A ; JFW_Reflect_Custom_Delay_Registrant
PUBLIC	??_C@_0M@EKGPACGA@Delay?3float?$AA@		; `string'
PUBLIC	??_C@_0BJ@EIIFPOFC@JFW_Reflect_Custom_Delay?$AA@ ; `string'
PUBLIC	??_7?$ScriptRegistrant@VJFW_Death_Send_Custom@@@@6B@ ; ScriptRegistrant<JFW_Death_Send_Custom>::`vftable'
PUBLIC	?JFW_Death_Send_Custom_Registrant@@3V?$ScriptRegistrant@VJFW_Death_Send_Custom@@@@A ; JFW_Death_Send_Custom_Registrant
PUBLIC	??_C@_0BN@CCOBKDHP@ID?3int?0Message?3int?0Param?3int?$AA@ ; `string'
PUBLIC	??_C@_0BG@FCNLJKHH@JFW_Death_Send_Custom?$AA@	; `string'
PUBLIC	??_7?$ScriptRegistrant@VJFW_Custom_Destroy_Building@@@@6B@ ; ScriptRegistrant<JFW_Custom_Destroy_Building>::`vftable'
PUBLIC	?JFW_Custom_Destroy_Building_Registrant@@3V?$ScriptRegistrant@VJFW_Custom_Destroy_Building@@@@A ; JFW_Custom_Destroy_Building_Registrant
PUBLIC	??_C@_0BM@CAFMALMB@JFW_Custom_Destroy_Building?$AA@ ; `string'
PUBLIC	??_7?$ScriptRegistrant@VJFW_Shader_Custom_Zone_Entry@@@@6B@ ; ScriptRegistrant<JFW_Shader_Custom_Zone_Entry>::`vftable'
PUBLIC	?JFW_Shader_Custom_Zone_Entry_Registrant@@3V?$ScriptRegistrant@VJFW_Shader_Custom_Zone_Entry@@@@A ; JFW_Shader_Custom_Zone_Entry_Registrant
PUBLIC	??_C@_0CJ@NHGNDCPD@Player_Type?3int?0Number?3int?0Numbe@ ; `string'
PUBLIC	??_C@_0BN@NHCLKFHM@JFW_Shader_Custom_Zone_Entry?$AA@ ; `string'
PUBLIC	??_7?$ScriptRegistrant@VJFW_Shader_Custom_Zone_Exit@@@@6B@ ; ScriptRegistrant<JFW_Shader_Custom_Zone_Exit>::`vftable'
PUBLIC	?JFW_Shader_Custom_Zone_Exit_Registrant@@3V?$ScriptRegistrant@VJFW_Shader_Custom_Zone_Exit@@@@A ; JFW_Shader_Custom_Zone_Exit_Registrant
PUBLIC	??_C@_0BM@DIHIMEJP@JFW_Shader_Custom_Zone_Exit?$AA@ ; `string'
PUBLIC	??_7?$ScriptRegistrant@VJFW_Shader_Custom_Vehicle_Entry@@@@6B@ ; ScriptRegistrant<JFW_Shader_Custom_Vehicle_Entry>::`vftable'
PUBLIC	?JFW_Shader_Custom_Vehicle_Entry_Registrant@@3V?$ScriptRegistrant@VJFW_Shader_Custom_Vehicle_Entry@@@@A ; JFW_Shader_Custom_Vehicle_Entry_Registrant
PUBLIC	??_C@_0BJ@EPLMNKHF@Number?3int?0Number2?3float?$AA@ ; `string'
PUBLIC	??_C@_0CA@JNINPCJA@JFW_Shader_Custom_Vehicle_Entry?$AA@ ; `string'
PUBLIC	??_7?$ScriptRegistrant@VJFW_Shader_Custom_Vehicle_Exit@@@@6B@ ; ScriptRegistrant<JFW_Shader_Custom_Vehicle_Exit>::`vftable'
PUBLIC	?JFW_Shader_Custom_Vehicle_Exit_Registrant@@3V?$ScriptRegistrant@VJFW_Shader_Custom_Vehicle_Exit@@@@A ; JFW_Shader_Custom_Vehicle_Exit_Registrant
PUBLIC	??_C@_0BP@EBIKGJPL@JFW_Shader_Custom_Vehicle_Exit?$AA@ ; `string'
PUBLIC	??_7?$ScriptRegistrant@VJFW_Shader_Custom_Create@@@@6B@ ; ScriptRegistrant<JFW_Shader_Custom_Create>::`vftable'
PUBLIC	?JFW_Shader_Custom_Create_Registrant@@3V?$ScriptRegistrant@VJFW_Shader_Custom_Create@@@@A ; JFW_Shader_Custom_Create_Registrant
PUBLIC	??_C@_0BJ@EFDPLGBB@JFW_Shader_Custom_Create?$AA@ ; `string'
PUBLIC	??_7?$ScriptRegistrant@VJFW_Shader_Custom_Poke@@@@6B@ ; ScriptRegistrant<JFW_Shader_Custom_Poke>::`vftable'
PUBLIC	?JFW_Shader_Custom_Poke_Registrant@@3V?$ScriptRegistrant@VJFW_Shader_Custom_Poke@@@@A ; JFW_Shader_Custom_Poke_Registrant
PUBLIC	??_C@_0BH@IDCEAMFE@JFW_Shader_Custom_Poke?$AA@	; `string'
PUBLIC	??_7?$ScriptRegistrant@VJFW_Kill_All_Buildings_Customs@@@@6B@ ; ScriptRegistrant<JFW_Kill_All_Buildings_Customs>::`vftable'
PUBLIC	?JFW_Kill_All_Buildings_Customs_Registrant@@3V?$ScriptRegistrant@VJFW_Kill_All_Buildings_Customs@@@@A ; JFW_Kill_All_Buildings_Customs_Registrant
PUBLIC	??_C@_0CG@NDNKEGMH@Message?3int?0Count?3int?0Player_Typ@ ; `string'
PUBLIC	??_C@_0BP@PHGHKHJD@JFW_Kill_All_Buildings_Customs?$AA@ ; `string'
PUBLIC	??_7?$ScriptRegistrant@VJFW_Send_Self_Custom_On_Key@@@@6B@ ; ScriptRegistrant<JFW_Send_Self_Custom_On_Key>::`vftable'
PUBLIC	?JFW_Send_Self_Custom_On_Key_Registrant@@3V?$ScriptRegistrant@VJFW_Send_Self_Custom_On_Key@@@@A ; JFW_Send_Self_Custom_On_Key_Registrant
PUBLIC	??_C@_0CI@EJKMCJAO@Key?$DNKey?3string?0Message?$DN0?3int?0Onc@ ; `string'
PUBLIC	??_C@_0BM@JBKOIDAD@JFW_Send_Self_Custom_On_Key?$AA@ ; `string'
PUBLIC	??_7?$ScriptRegistrant@VJFW_Send_Message_On_Key@@@@6B@ ; ScriptRegistrant<JFW_Send_Message_On_Key>::`vftable'
PUBLIC	?JFW_Send_Message_On_Key_Registrant@@3V?$ScriptRegistrant@VJFW_Send_Message_On_Key@@@@A ; JFW_Send_Message_On_Key_Registrant
PUBLIC	??_C@_0DF@NJCHJFAG@Key?3string?0Message?3string?0Red?3in@ ; `string'
PUBLIC	??_C@_0BI@GPHFHILO@JFW_Send_Message_On_Key?$AA@	; `string'
PUBLIC	??_7?$ScriptRegistrant@VJFW_Custom_Send_Random_Custom@@@@6B@ ; ScriptRegistrant<JFW_Custom_Send_Random_Custom>::`vftable'
PUBLIC	?JFW_Custom_Send_Random_Custom_Registrant@@3V?$ScriptRegistrant@VJFW_Custom_Send_Random_Custom@@@@A ; JFW_Custom_Send_Random_Custom_Registrant
PUBLIC	??_C@_0EL@NKJDLJNC@RecieveMessage?3int?0SendMessage?3i@ ; `string'
PUBLIC	??_C@_0BO@MJOJHKKK@JFW_Custom_Send_Random_Custom?$AA@ ; `string'
PUBLIC	??_7?$ScriptRegistrant@VJFW_Startup_Custom_Self@@@@6B@ ; ScriptRegistrant<JFW_Startup_Custom_Self>::`vftable'
PUBLIC	?JFW_Startup_Custom_Self_Registrant@@3V?$ScriptRegistrant@VJFW_Startup_Custom_Self@@@@A ; JFW_Startup_Custom_Self_Registrant
PUBLIC	??_C@_0CE@CGMODEDE@Message?3int?0Param?$DN0?3int?0Delay?$DN0?3@ ; `string'
PUBLIC	??_C@_0BI@KCHHINFI@JFW_Startup_Custom_Self?$AA@	; `string'
PUBLIC	??_7?$ScriptRegistrant@VJFW_Set_Skin_Custom@@@@6B@ ; ScriptRegistrant<JFW_Set_Skin_Custom>::`vftable'
PUBLIC	?JFW_Set_Skin_Custom_Registrant@@3V?$ScriptRegistrant@VJFW_Set_Skin_Custom@@@@A ; JFW_Set_Skin_Custom_Registrant
PUBLIC	??_C@_0BK@GHJCLJLD@Message?3int?0Armour?3string?$AA@ ; `string'
PUBLIC	??_C@_0BE@BMCJPJBG@JFW_Set_Skin_Custom?$AA@	; `string'
PUBLIC	??_7?$ScriptRegistrant@VJFW_Set_Armor_Custom@@@@6B@ ; ScriptRegistrant<JFW_Set_Armor_Custom>::`vftable'
PUBLIC	?JFW_Set_Armor_Custom_Registrant@@3V?$ScriptRegistrant@VJFW_Set_Armor_Custom@@@@A ; JFW_Set_Armor_Custom_Registrant
PUBLIC	??_C@_0BF@ENJGLPAH@JFW_Set_Armor_Custom?$AA@	; `string'
PUBLIC	??_7?$ScriptRegistrant@VJFW_Send_Custom_On_Damage@@@@6B@ ; ScriptRegistrant<JFW_Send_Custom_On_Damage>::`vftable'
PUBLIC	?JFW_Send_Custom_On_Damage_Registrant@@3V?$ScriptRegistrant@VJFW_Send_Custom_On_Damage@@@@A ; JFW_Send_Custom_On_Damage_Registrant
PUBLIC	??_C@_0DH@MFEAHHND@Message1?3int?0ID1?3int?0Message2?3in@ ; `string'
PUBLIC	??_C@_0BK@PECAFCLF@JFW_Send_Custom_On_Damage?$AA@ ; `string'
PUBLIC	??_C@_0EJ@ENMBJFB@SList?$DMstruct?5MultiKeyHookScriptI@ ; `string'
PUBLIC	??_C@_0DB@DFBFLIIO@x?3?2github?2renegade?2dragonade_rxd@ ; `string'
PUBLIC	??_C@_1GC@LJHGOLFN@?$AAx?$AA?3?$AA?2?$AAg?$AAi?$AAt?$AAh?$AAu?$AAb?$AA?2?$AAr?$AAe?$AAn?$AAe?$AAg?$AAa?$AAd?$AAe?$AA?2?$AAd?$AAr?$AAa?$AAg?$AAo?$AAn?$AAa?$AAd?$AAe?$AA_?$AAr?$AAx?$AAd@ ; `string'
PUBLIC	??_C@_0EJ@OIGECPDF@SList?$DMstruct?5MultiKeyHookScriptI@ ; `string'
PUBLIC	??_C@_0EM@PPENJFKC@SList?$DMstruct?5MultiKeyHookScriptI@ ; `string'
PUBLIC	??_C@_0EH@CGJBMJBC@SList?$DMstruct?5MultiKeyHookScriptI@ ; `string'
PUBLIC	??_C@_0EL@MPFHHNNA@SList?$DMstruct?5MultiKeyHookScriptI@ ; `string'
PUBLIC	??_C@_0EO@OJGPEJGC@SList?$DMstruct?5MultiKeyHookScriptI@ ; `string'
PUBLIC	??_C@_0EN@HIHNAGN@SList?$DMstruct?5MultiKeyHookScriptI@ ; `string'
PUBLIC	??_C@_0EH@PFBFPAAD@ScriptRegistrant?$DMclass?5JFW_Send_@ ; `string'
PUBLIC	??_C@_0DD@KMKBFFOF@x?3?2github?2renegade?2dragonade_rxd@ ; `string'
PUBLIC	??_C@_1GG@OGNLNBPD@?$AAx?$AA?3?$AA?2?$AAg?$AAi?$AAt?$AAh?$AAu?$AAb?$AA?2?$AAr?$AAe?$AAn?$AAe?$AAg?$AAa?$AAd?$AAe?$AA?2?$AAd?$AAr?$AAa?$AAg?$AAo?$AAn?$AAa?$AAd?$AAe?$AA_?$AAr?$AAx?$AAd@ ; `string'
PUBLIC	??_C@_0EI@JPMBEEC@ScriptRegistrant?$DMclass?5JFW_Send_@ ; `string'
PUBLIC	??_C@_0EC@FBAPBGJC@ScriptRegistrant?$DMclass?5JFW_Send_@ ; `string'
PUBLIC	??_C@_0ED@IOFAKNHG@ScriptRegistrant?$DMclass?5JFW_Send_@ ; `string'
PUBLIC	??_C@_0DI@CPLLGMGN@ScriptRegistrant?$DMclass?5JFW_Send_@ ; `string'
PUBLIC	??_C@_0EE@DNAFNKAH@ScriptRegistrant?$DMclass?5JFW_Destr@ ; `string'
PUBLIC	??_C@_0CP@IJOIKBJB@ScriptRegistrant?$DMclass?5JFW_Fog_C@ ; `string'
PUBLIC	??_C@_0DF@JBPKND@ScriptRegistrant?$DMclass?5JFW_War_B@ ; `string'
PUBLIC	??_C@_0DF@MHNCFEJF@ScriptRegistrant?$DMclass?5JFW_Light@ ; `string'
PUBLIC	??_C@_0DA@IDKJDDFJ@ScriptRegistrant?$DMclass?5JFW_Wind_@ ; `string'
PUBLIC	??_C@_0DJ@DPJPICNJ@ScriptRegistrant?$DMclass?5JFW_Preci@ ; `string'
PUBLIC	??_C@_0DC@KKGPFPHB@ScriptRegistrant?$DMclass?5JFW_Cloud@ ; `string'
PUBLIC	??_C@_0DN@PLKGEANE@ScriptRegistrant?$DMclass?5JFW_Enabl@ ; `string'
PUBLIC	??_C@_0DO@IFAEGDPI@ScriptRegistrant?$DMclass?5JFW_Conso@ ; `string'
PUBLIC	??_C@_0DM@BLPLNHDN@ScriptRegistrant?$DMclass?5JFW_Conso@ ; `string'
PUBLIC	??_C@_0DN@MGBCBOML@ScriptRegistrant?$DMclass?5JFW_Invul@ ; `string'
PUBLIC	??_C@_0DK@GINOAENE@ScriptRegistrant?$DMclass?5JFW_Chang@ ; `string'
PUBLIC	??_C@_0EA@HBPFBHEA@ScriptRegistrant?$DMclass?5JFW_Enabl@ ; `string'
PUBLIC	??_C@_0DJ@DPOKNHLE@ScriptRegistrant?$DMclass?5JFW_2D_So@ ; `string'
PUBLIC	??_C@_0DJ@DIKDELM@ScriptRegistrant?$DMclass?5JFW_3D_So@ ; `string'
PUBLIC	??_C@_0EA@KFCEKNGC@ScriptRegistrant?$DMclass?5JFW_Custo@ ; `string'
PUBLIC	??_C@_0DI@FEBOJEOH@ScriptRegistrant?$DMclass?5JFW_Custo@ ; `string'
PUBLIC	??_C@_0EE@KFEKEBNF@ScriptRegistrant?$DMclass?5JFW_Custo@ ; `string'
PUBLIC	??_C@_0EK@NOBOMIJP@ScriptRegistrant?$DMclass?5JFW_Creat@ ; `string'
PUBLIC	??_C@_0EP@CAPAEJBF@ScriptRegistrant?$DMclass?5JFW_Creat@ ; `string'
PUBLIC	??_C@_0EB@BJDJBCI@ScriptRegistrant?$DMclass?5JFW_Custo@ ; `string'
PUBLIC	??_C@_0DI@KCHBKAGL@ScriptRegistrant?$DMclass?5JFW_Timer@ ; `string'
PUBLIC	??_C@_0DN@EIKAKHBA@ScriptRegistrant?$DMclass?5JFW_Creat@ ; `string'
PUBLIC	??_C@_0DP@KKIGFAAL@ScriptRegistrant?$DMclass?5JFW_Set_M@ ; `string'
PUBLIC	??_C@_0DJ@HOOAEHBI@ScriptRegistrant?$DMclass?5JFW_Death@ ; `string'
PUBLIC	??_C@_0EA@CEBECLAF@ScriptRegistrant?$DMclass?5JFW_Death@ ; `string'
PUBLIC	??_C@_0DF@FFNGMLOO@ScriptRegistrant?$DMclass?5JFW_Repai@ ; `string'
PUBLIC	??_C@_0DE@PMMKHNEL@ScriptRegistrant?$DMclass?5JFW_Telep@ ; `string'
PUBLIC	??_C@_0DL@GEMFADPC@ScriptRegistrant?$DMclass?5JFW_Telep@ ; `string'
PUBLIC	??_C@_0DK@GMFCHHJO@ScriptRegistrant?$DMclass?5JFW_Telep@ ; `string'
PUBLIC	??_C@_0DP@DEHIBNJ@ScriptRegistrant?$DMclass?5JFW_Blow_@ ; `string'
PUBLIC	??_C@_0DE@NILBPNM@ScriptRegistrant?$DMclass?5JFW_3D_So@ ; `string'
PUBLIC	??_C@_0DI@BJPCGPGG@ScriptRegistrant?$DMclass?5JFW_Creat@ ; `string'
PUBLIC	??_C@_0DI@FNGNPHJL@ScriptRegistrant?$DMclass?5JFW_Damag@ ; `string'
PUBLIC	??_C@_0DL@OPKKPMCB@ScriptRegistrant?$DMclass?5JFW_Enemy@ ; `string'
PUBLIC	??_C@_0DJ@INIDCII@ScriptRegistrant?$DMclass?5JFW_Creat@ ; `string'
PUBLIC	??_C@_0DN@DMECFGBD@ScriptRegistrant?$DMclass?5JFW_Enabl@ ; `string'
PUBLIC	??_C@_0DM@KIMDBIN@ScriptRegistrant?$DMclass?5JFW_Set_A@ ; `string'
PUBLIC	??_C@_0EC@BIGCKKKE@ScriptRegistrant?$DMclass?5JFW_Set_M@ ; `string'
PUBLIC	??_C@_0DI@PNOFBGEB@ScriptRegistrant?$DMclass?5JFW_Set_M@ ; `string'
PUBLIC	??_C@_0EH@HFEIMBLI@ScriptRegistrant?$DMclass?5JFW_Enabl@ ; `string'
PUBLIC	??_C@_0DK@COPHDILE@ScriptRegistrant?$DMclass?5JFW_Custo@ ; `string'
PUBLIC	??_C@_0DI@HMDKCBEA@ScriptRegistrant?$DMclass?5JFW_Custo@ ; `string'
PUBLIC	??_C@_0DH@GJPDFJID@ScriptRegistrant?$DMclass?5JFW_Custo@ ; `string'
PUBLIC	??_C@_0EA@EAPEAEKN@ScriptRegistrant?$DMclass?5JFW_Custo@ ; `string'
PUBLIC	??_C@_0EC@KNMIBFP@ScriptRegistrant?$DMclass?5JFW_Custo@ ; `string'
PUBLIC	??_C@_0EE@FNCOLDPO@ScriptRegistrant?$DMclass?5JFW_Creat@ ; `string'
PUBLIC	??_C@_0EM@GDNFLAHM@ScriptRegistrant?$DMclass?5JFW_Creat@ ; `string'
PUBLIC	??_C@_0EO@FOPDCBLF@ScriptRegistrant?$DMclass?5JFW_Creat@ ; `string'
PUBLIC	??_C@_0DP@HHGHABGP@ScriptRegistrant?$DMclass?5JFW_Damag@ ; `string'
PUBLIC	??_C@_0DL@GIHBADFC@ScriptRegistrant?$DMclass?5JFW_Invul@ ; `string'
PUBLIC	??_C@_0DN@HJMMBAL@ScriptRegistrant?$DMclass?5JFW_Invul@ ; `string'
PUBLIC	??_C@_0EB@PLMBELNK@ScriptRegistrant?$DMclass?5JFW_Custo@ ; `string'
PUBLIC	??_C@_0EJ@MFJBOGN@ScriptRegistrant?$DMclass?5JFW_Creat@ ; `string'
PUBLIC	??_C@_0DB@PJKOCJHM@ScriptRegistrant?$DMclass?5JFW_Timer@ ; `string'
PUBLIC	??_C@_0DE@KIAAIPNC@ScriptRegistrant?$DMclass?5JFW_2D_So@ ; `string'
PUBLIC	??_C@_0DG@LGJNENHL@ScriptRegistrant?$DMclass?5JFW_3D_So@ ; `string'
PUBLIC	??_C@_0DJ@NFONAGGL@ScriptRegistrant?$DMclass?5JFW_3D_So@ ; `string'
PUBLIC	??_C@_0DC@EFKGCEGJ@ScriptRegistrant?$DMclass?5JFW_Rando@ ; `string'
PUBLIC	??_C@_0DJ@NNPBCCBB@ScriptRegistrant?$DMclass?5JFW_Custo@ ; `string'
PUBLIC	??_C@_0DG@IPCINDLL@ScriptRegistrant?$DMclass?5JFW_Blow_@ ; `string'
PUBLIC	??_C@_0DK@NNOJHCJN@ScriptRegistrant?$DMclass?5JFW_Blow_@ ; `string'
PUBLIC	??_C@_0DB@BGIKCLDK@ScriptRegistrant?$DMclass?5JFW_Delay@ ; `string'
PUBLIC	??_C@_0DD@CJDKKMAC@ScriptRegistrant?$DMclass?5JFW_Start@ ; `string'
PUBLIC	??_C@_0DI@KIABCOIN@ScriptRegistrant?$DMclass?5JFW_Custo@ ; `string'
PUBLIC	??_C@_0DK@GKHBBEJB@ScriptRegistrant?$DMclass?5JFW_Custo@ ; `string'
PUBLIC	??_C@_0DK@CNDFKME@ScriptRegistrant?$DMclass?5JFW_Custo@ ; `string'
PUBLIC	??_C@_0DD@MPHLPCNN@ScriptRegistrant?$DMclass?5JFW_Refle@ ; `string'
PUBLIC	??_C@_0DJ@IEBOLMGJ@ScriptRegistrant?$DMclass?5JFW_Refle@ ; `string'
PUBLIC	??_C@_0DG@NOKMGBHM@ScriptRegistrant?$DMclass?5JFW_Death@ ; `string'
PUBLIC	??_C@_0DM@OPMJCMGI@ScriptRegistrant?$DMclass?5JFW_Custo@ ; `string'
PUBLIC	??_C@_0DN@OKCHBNBP@ScriptRegistrant?$DMclass?5JFW_Shade@ ; `string'
PUBLIC	??_C@_0DM@CCKIHOGO@ScriptRegistrant?$DMclass?5JFW_Shade@ ; `string'
PUBLIC	??_C@_0EA@HBGDIKEB@ScriptRegistrant?$DMclass?5JFW_Shade@ ; `string'
PUBLIC	??_C@_0DP@CPNJAKO@ScriptRegistrant?$DMclass?5JFW_Shade@ ; `string'
PUBLIC	??_C@_0DJ@KBOCFJMD@ScriptRegistrant?$DMclass?5JFW_Shade@ ; `string'
PUBLIC	??_C@_0DH@GBLPKKPJ@ScriptRegistrant?$DMclass?5JFW_Shade@ ; `string'
PUBLIC	??_C@_0DP@CEIONBKI@ScriptRegistrant?$DMclass?5JFW_Kill_@ ; `string'
PUBLIC	??_C@_0DM@NLFBHCOJ@ScriptRegistrant?$DMclass?5JFW_Send_@ ; `string'
PUBLIC	??_C@_0DI@KJOOOOAI@ScriptRegistrant?$DMclass?5JFW_Send_@ ; `string'
PUBLIC	??_C@_0DO@KOBPGDNC@ScriptRegistrant?$DMclass?5JFW_Custo@ ; `string'
PUBLIC	??_C@_0DI@GNKABAAE@ScriptRegistrant?$DMclass?5JFW_Start@ ; `string'
PUBLIC	??_C@_0DE@KCICAGFI@ScriptRegistrant?$DMclass?5JFW_Set_S@ ; `string'
PUBLIC	??_C@_0DF@CANPCCMJ@ScriptRegistrant?$DMclass?5JFW_Set_A@ ; `string'
PUBLIC	??_C@_0DK@KIEIKLLB@ScriptRegistrant?$DMclass?5JFW_Send_@ ; `string'
PUBLIC	?instancex@?1??getInstance@?$Singleton@V?$ObjectPoolClass@VGenericSLNode@@$0BAA@@@@@SAAAV?$ObjectPoolClass@VGenericSLNode@@$0BAA@@@XZ@4V3@A ; `Singleton<ObjectPoolClass<GenericSLNode,256> >::getInstance'::`2'::instancex
PUBLIC	??_B?1??getInstance@?$Singleton@V?$ObjectPoolClass@VGenericSLNode@@$0BAA@@@@@SAAAV?$ObjectPoolClass@VGenericSLNode@@$0BAA@@@XZ@51 ; `Singleton<ObjectPoolClass<GenericSLNode,256> >::getInstance'::`2'::`local static guard'
PUBLIC	??_C@_0EB@IOGKEECK@ObjectPoolClass?$DMclass?5GenericSLN@ ; `string'
PUBLIC	??_C@_0FF@NOANHENP@?$CFd?5memory?5leaks?5found?5in?5ObjectP@ ; `string'
PUBLIC	??_C@_0DL@BOENBDGI@ObjectPoolClass?$DMclass?5GenericSLN@ ; `string'
PUBLIC	??_R4ScriptFactory@@6B@				; ScriptFactory::`RTTI Complete Object Locator'
PUBLIC	??_R0?AVScriptFactory@@@8			; ScriptFactory `RTTI Type Descriptor'
PUBLIC	??_R3ScriptFactory@@8				; ScriptFactory::`RTTI Class Hierarchy Descriptor'
PUBLIC	??_R2ScriptFactory@@8				; ScriptFactory::`RTTI Base Class Array'
PUBLIC	??_R1A@?0A@EA@ScriptFactory@@8			; ScriptFactory::`RTTI Base Class Descriptor at (0,-1,0,64)'
PUBLIC	??_R4ScriptClass@@6B@				; ScriptClass::`RTTI Complete Object Locator'
PUBLIC	??_R0?AVScriptClass@@@8				; ScriptClass `RTTI Type Descriptor'
PUBLIC	??_R3ScriptClass@@8				; ScriptClass::`RTTI Class Hierarchy Descriptor'
PUBLIC	??_R2ScriptClass@@8				; ScriptClass::`RTTI Base Class Array'
PUBLIC	??_R1A@?0A@EA@ScriptClass@@8			; ScriptClass::`RTTI Base Class Descriptor at (0,-1,0,64)'
PUBLIC	??_R1A@?0A@EA@GameObjObserverClass@@8		; GameObjObserverClass::`RTTI Base Class Descriptor at (0,-1,0,64)'
PUBLIC	??_R0?AVGameObjObserverClass@@@8		; GameObjObserverClass `RTTI Type Descriptor'
PUBLIC	??_R3GameObjObserverClass@@8			; GameObjObserverClass::`RTTI Class Hierarchy Descriptor'
PUBLIC	??_R2GameObjObserverClass@@8			; GameObjObserverClass::`RTTI Base Class Array'
PUBLIC	??_R4GameObjObserverClass@@6B@			; GameObjObserverClass::`RTTI Complete Object Locator'
PUBLIC	??_R4ScriptImpClass@@6B@			; ScriptImpClass::`RTTI Complete Object Locator'
PUBLIC	??_R0?AVScriptImpClass@@@8			; ScriptImpClass `RTTI Type Descriptor'
PUBLIC	??_R3ScriptImpClass@@8				; ScriptImpClass::`RTTI Class Hierarchy Descriptor'
PUBLIC	??_R2ScriptImpClass@@8				; ScriptImpClass::`RTTI Base Class Array'
PUBLIC	??_R1A@?0A@EA@ScriptImpClass@@8			; ScriptImpClass::`RTTI Base Class Descriptor at (0,-1,0,64)'
PUBLIC	??_R4ThreadClass@@6B@				; ThreadClass::`RTTI Complete Object Locator'
PUBLIC	??_R0?AVThreadClass@@@8				; ThreadClass `RTTI Type Descriptor'
PUBLIC	??_R3ThreadClass@@8				; ThreadClass::`RTTI Class Hierarchy Descriptor'
PUBLIC	??_R2ThreadClass@@8				; ThreadClass::`RTTI Base Class Array'
PUBLIC	??_R1A@?0A@EA@ThreadClass@@8			; ThreadClass::`RTTI Base Class Descriptor at (0,-1,0,64)'
PUBLIC	??_R4INIClass@@6B@				; INIClass::`RTTI Complete Object Locator'
PUBLIC	??_R0?AVINIClass@@@8				; INIClass `RTTI Type Descriptor'
PUBLIC	??_R3INIClass@@8				; INIClass::`RTTI Class Hierarchy Descriptor'
PUBLIC	??_R2INIClass@@8				; INIClass::`RTTI Base Class Array'
PUBLIC	??_R1A@?0A@EA@INIClass@@8			; INIClass::`RTTI Base Class Descriptor at (0,-1,0,64)'
PUBLIC	??_R1A@?0A@EA@PostLoadableClass@@8		; PostLoadableClass::`RTTI Base Class Descriptor at (0,-1,0,64)'
PUBLIC	??_R0?AVPostLoadableClass@@@8			; PostLoadableClass `RTTI Type Descriptor'
PUBLIC	??_R3PostLoadableClass@@8			; PostLoadableClass::`RTTI Class Hierarchy Descriptor'
PUBLIC	??_R2PostLoadableClass@@8			; PostLoadableClass::`RTTI Base Class Array'
PUBLIC	??_R4PostLoadableClass@@6B@			; PostLoadableClass::`RTTI Complete Object Locator'
PUBLIC	??_R4ReferencerClass@@6B@			; ReferencerClass::`RTTI Complete Object Locator'
PUBLIC	??_R0?AVReferencerClass@@@8			; ReferencerClass `RTTI Type Descriptor'
PUBLIC	??_R3ReferencerClass@@8				; ReferencerClass::`RTTI Class Hierarchy Descriptor'
PUBLIC	??_R2ReferencerClass@@8				; ReferencerClass::`RTTI Base Class Array'
PUBLIC	??_R1A@?0A@EA@ReferencerClass@@8		; ReferencerClass::`RTTI Base Class Descriptor at (0,-1,0,64)'
PUBLIC	??_R4JFW_Key_Hook_Base@@6B@			; JFW_Key_Hook_Base::`RTTI Complete Object Locator'
PUBLIC	??_R0?AVJFW_Key_Hook_Base@@@8			; JFW_Key_Hook_Base `RTTI Type Descriptor'
PUBLIC	??_R3JFW_Key_Hook_Base@@8			; JFW_Key_Hook_Base::`RTTI Class Hierarchy Descriptor'
PUBLIC	??_R2JFW_Key_Hook_Base@@8			; JFW_Key_Hook_Base::`RTTI Base Class Array'
PUBLIC	??_R1A@?0A@EA@JFW_Key_Hook_Base@@8		; JFW_Key_Hook_Base::`RTTI Base Class Descriptor at (0,-1,0,64)'
PUBLIC	??_R4MultiKeyHookScriptImpClass@@6B@		; MultiKeyHookScriptImpClass::`RTTI Complete Object Locator'
PUBLIC	??_R0?AVMultiKeyHookScriptImpClass@@@8		; MultiKeyHookScriptImpClass `RTTI Type Descriptor'
PUBLIC	??_R3MultiKeyHookScriptImpClass@@8		; MultiKeyHookScriptImpClass::`RTTI Class Hierarchy Descriptor'
PUBLIC	??_R2MultiKeyHookScriptImpClass@@8		; MultiKeyHookScriptImpClass::`RTTI Base Class Array'
PUBLIC	??_R1A@?0A@EA@MultiKeyHookScriptImpClass@@8	; MultiKeyHookScriptImpClass::`RTTI Base Class Descriptor at (0,-1,0,64)'
PUBLIC	??_R4?$SList@UKeyHookWrapperStruct@MultiKeyHookScriptImpClass@@@@6B@ ; SList<MultiKeyHookScriptImpClass::KeyHookWrapperStruct>::`RTTI Complete Object Locator'
PUBLIC	??_R0?AV?$SList@UKeyHookWrapperStruct@MultiKeyHookScriptImpClass@@@@@8 ; SList<MultiKeyHookScriptImpClass::KeyHookWrapperStruct> `RTTI Type Descriptor'
PUBLIC	??_R3?$SList@UKeyHookWrapperStruct@MultiKeyHookScriptImpClass@@@@8 ; SList<MultiKeyHookScriptImpClass::KeyHookWrapperStruct>::`RTTI Class Hierarchy Descriptor'
PUBLIC	??_R2?$SList@UKeyHookWrapperStruct@MultiKeyHookScriptImpClass@@@@8 ; SList<MultiKeyHookScriptImpClass::KeyHookWrapperStruct>::`RTTI Base Class Array'
PUBLIC	??_R1A@?0A@EA@?$SList@UKeyHookWrapperStruct@MultiKeyHookScriptImpClass@@@@8 ; SList<MultiKeyHookScriptImpClass::KeyHookWrapperStruct>::`RTTI Base Class Descriptor at (0,-1,0,64)'
PUBLIC	??_R4JFW_Object_Created_Hook_Base@@6B@		; JFW_Object_Created_Hook_Base::`RTTI Complete Object Locator'
PUBLIC	??_R0?AVJFW_Object_Created_Hook_Base@@@8	; JFW_Object_Created_Hook_Base `RTTI Type Descriptor'
PUBLIC	??_R3JFW_Object_Created_Hook_Base@@8		; JFW_Object_Created_Hook_Base::`RTTI Class Hierarchy Descriptor'
PUBLIC	??_R2JFW_Object_Created_Hook_Base@@8		; JFW_Object_Created_Hook_Base::`RTTI Base Class Array'
PUBLIC	??_R1A@?0A@EA@JFW_Object_Created_Hook_Base@@8	; JFW_Object_Created_Hook_Base::`RTTI Base Class Descriptor at (0,-1,0,64)'
PUBLIC	??_R4JFW_Custom_Toggle_Radar@@6B@		; JFW_Custom_Toggle_Radar::`RTTI Complete Object Locator'
PUBLIC	??_R0?AVJFW_Custom_Toggle_Radar@@@8		; JFW_Custom_Toggle_Radar `RTTI Type Descriptor'
PUBLIC	??_R3JFW_Custom_Toggle_Radar@@8			; JFW_Custom_Toggle_Radar::`RTTI Class Hierarchy Descriptor'
PUBLIC	??_R2JFW_Custom_Toggle_Radar@@8			; JFW_Custom_Toggle_Radar::`RTTI Base Class Array'
PUBLIC	??_R1A@?0A@EA@JFW_Custom_Toggle_Radar@@8	; JFW_Custom_Toggle_Radar::`RTTI Base Class Descriptor at (0,-1,0,64)'
PUBLIC	??_R4JFW_Reflect_Custom@@6B@			; JFW_Reflect_Custom::`RTTI Complete Object Locator'
PUBLIC	??_R0?AVJFW_Reflect_Custom@@@8			; JFW_Reflect_Custom `RTTI Type Descriptor'
PUBLIC	??_R3JFW_Reflect_Custom@@8			; JFW_Reflect_Custom::`RTTI Class Hierarchy Descriptor'
PUBLIC	??_R2JFW_Reflect_Custom@@8			; JFW_Reflect_Custom::`RTTI Base Class Array'
PUBLIC	??_R1A@?0A@EA@JFW_Reflect_Custom@@8		; JFW_Reflect_Custom::`RTTI Base Class Descriptor at (0,-1,0,64)'
PUBLIC	??_R4JFW_Reflect_Custom_Delay@@6B@		; JFW_Reflect_Custom_Delay::`RTTI Complete Object Locator'
PUBLIC	??_R0?AVJFW_Reflect_Custom_Delay@@@8		; JFW_Reflect_Custom_Delay `RTTI Type Descriptor'
PUBLIC	??_R3JFW_Reflect_Custom_Delay@@8		; JFW_Reflect_Custom_Delay::`RTTI Class Hierarchy Descriptor'
PUBLIC	??_R2JFW_Reflect_Custom_Delay@@8		; JFW_Reflect_Custom_Delay::`RTTI Base Class Array'
PUBLIC	??_R1A@?0A@EA@JFW_Reflect_Custom_Delay@@8	; JFW_Reflect_Custom_Delay::`RTTI Base Class Descriptor at (0,-1,0,64)'
PUBLIC	??_R4JFW_Custom_Destroy_Object@@6B@		; JFW_Custom_Destroy_Object::`RTTI Complete Object Locator'
PUBLIC	??_R0?AVJFW_Custom_Destroy_Object@@@8		; JFW_Custom_Destroy_Object `RTTI Type Descriptor'
PUBLIC	??_R3JFW_Custom_Destroy_Object@@8		; JFW_Custom_Destroy_Object::`RTTI Class Hierarchy Descriptor'
PUBLIC	??_R2JFW_Custom_Destroy_Object@@8		; JFW_Custom_Destroy_Object::`RTTI Base Class Array'
PUBLIC	??_R1A@?0A@EA@JFW_Custom_Destroy_Object@@8	; JFW_Custom_Destroy_Object::`RTTI Base Class Descriptor at (0,-1,0,64)'
PUBLIC	??_R4JFW_Custom_Objectives_Dlg@@6B@		; JFW_Custom_Objectives_Dlg::`RTTI Complete Object Locator'
PUBLIC	??_R0?AVJFW_Custom_Objectives_Dlg@@@8		; JFW_Custom_Objectives_Dlg `RTTI Type Descriptor'
PUBLIC	??_R3JFW_Custom_Objectives_Dlg@@8		; JFW_Custom_Objectives_Dlg::`RTTI Class Hierarchy Descriptor'
PUBLIC	??_R2JFW_Custom_Objectives_Dlg@@8		; JFW_Custom_Objectives_Dlg::`RTTI Base Class Array'
PUBLIC	??_R1A@?0A@EA@JFW_Custom_Objectives_Dlg@@8	; JFW_Custom_Objectives_Dlg::`RTTI Base Class Descriptor at (0,-1,0,64)'
PUBLIC	??_R4JFW_Death_Send_Custom@@6B@			; JFW_Death_Send_Custom::`RTTI Complete Object Locator'
PUBLIC	??_R0?AVJFW_Death_Send_Custom@@@8		; JFW_Death_Send_Custom `RTTI Type Descriptor'
PUBLIC	??_R3JFW_Death_Send_Custom@@8			; JFW_Death_Send_Custom::`RTTI Class Hierarchy Descriptor'
PUBLIC	??_R2JFW_Death_Send_Custom@@8			; JFW_Death_Send_Custom::`RTTI Base Class Array'
PUBLIC	??_R1A@?0A@EA@JFW_Death_Send_Custom@@8		; JFW_Death_Send_Custom::`RTTI Base Class Descriptor at (0,-1,0,64)'
PUBLIC	??_R4JFW_Custom_Destroy_Building@@6B@		; JFW_Custom_Destroy_Building::`RTTI Complete Object Locator'
PUBLIC	??_R0?AVJFW_Custom_Destroy_Building@@@8		; JFW_Custom_Destroy_Building `RTTI Type Descriptor'
PUBLIC	??_R3JFW_Custom_Destroy_Building@@8		; JFW_Custom_Destroy_Building::`RTTI Class Hierarchy Descriptor'
PUBLIC	??_R2JFW_Custom_Destroy_Building@@8		; JFW_Custom_Destroy_Building::`RTTI Base Class Array'
PUBLIC	??_R1A@?0A@EA@JFW_Custom_Destroy_Building@@8	; JFW_Custom_Destroy_Building::`RTTI Base Class Descriptor at (0,-1,0,64)'
PUBLIC	??_R4JFW_Timer_Custom@@6B@			; JFW_Timer_Custom::`RTTI Complete Object Locator'
PUBLIC	??_R0?AVJFW_Timer_Custom@@@8			; JFW_Timer_Custom `RTTI Type Descriptor'
PUBLIC	??_R3JFW_Timer_Custom@@8			; JFW_Timer_Custom::`RTTI Class Hierarchy Descriptor'
PUBLIC	??_R2JFW_Timer_Custom@@8			; JFW_Timer_Custom::`RTTI Base Class Array'
PUBLIC	??_R1A@?0A@EA@JFW_Timer_Custom@@8		; JFW_Timer_Custom::`RTTI Base Class Descriptor at (0,-1,0,64)'
PUBLIC	??_R4JFW_2D_Sound_Custom@@6B@			; JFW_2D_Sound_Custom::`RTTI Complete Object Locator'
PUBLIC	??_R0?AVJFW_2D_Sound_Custom@@@8			; JFW_2D_Sound_Custom `RTTI Type Descriptor'
PUBLIC	??_R3JFW_2D_Sound_Custom@@8			; JFW_2D_Sound_Custom::`RTTI Class Hierarchy Descriptor'
PUBLIC	??_R2JFW_2D_Sound_Custom@@8			; JFW_2D_Sound_Custom::`RTTI Base Class Array'
PUBLIC	??_R1A@?0A@EA@JFW_2D_Sound_Custom@@8		; JFW_2D_Sound_Custom::`RTTI Base Class Descriptor at (0,-1,0,64)'
PUBLIC	??_R4JFW_3D_Sound_Custom_2@@6B@			; JFW_3D_Sound_Custom_2::`RTTI Complete Object Locator'
PUBLIC	??_R0?AVJFW_3D_Sound_Custom_2@@@8		; JFW_3D_Sound_Custom_2 `RTTI Type Descriptor'
PUBLIC	??_R3JFW_3D_Sound_Custom_2@@8			; JFW_3D_Sound_Custom_2::`RTTI Class Hierarchy Descriptor'
PUBLIC	??_R2JFW_3D_Sound_Custom_2@@8			; JFW_3D_Sound_Custom_2::`RTTI Base Class Array'
PUBLIC	??_R1A@?0A@EA@JFW_3D_Sound_Custom_2@@8		; JFW_3D_Sound_Custom_2::`RTTI Base Class Descriptor at (0,-1,0,64)'
PUBLIC	??_R4JFW_3D_Sound_Custom_Bone@@6B@		; JFW_3D_Sound_Custom_Bone::`RTTI Complete Object Locator'
PUBLIC	??_R0?AVJFW_3D_Sound_Custom_Bone@@@8		; JFW_3D_Sound_Custom_Bone `RTTI Type Descriptor'
PUBLIC	??_R3JFW_3D_Sound_Custom_Bone@@8		; JFW_3D_Sound_Custom_Bone::`RTTI Class Hierarchy Descriptor'
PUBLIC	??_R2JFW_3D_Sound_Custom_Bone@@8		; JFW_3D_Sound_Custom_Bone::`RTTI Base Class Array'
PUBLIC	??_R1A@?0A@EA@JFW_3D_Sound_Custom_Bone@@8	; JFW_3D_Sound_Custom_Bone::`RTTI Base Class Descriptor at (0,-1,0,64)'
PUBLIC	??_R4JFW_Random_Custom@@6B@			; JFW_Random_Custom::`RTTI Complete Object Locator'
PUBLIC	??_R0?AVJFW_Random_Custom@@@8			; JFW_Random_Custom `RTTI Type Descriptor'
PUBLIC	??_R3JFW_Random_Custom@@8			; JFW_Random_Custom::`RTTI Class Hierarchy Descriptor'
PUBLIC	??_R2JFW_Random_Custom@@8			; JFW_Random_Custom::`RTTI Base Class Array'
PUBLIC	??_R1A@?0A@EA@JFW_Random_Custom@@8		; JFW_Random_Custom::`RTTI Base Class Descriptor at (0,-1,0,64)'
PUBLIC	??_R4JFW_Custom_Damage_Object@@6B@		; JFW_Custom_Damage_Object::`RTTI Complete Object Locator'
PUBLIC	??_R0?AVJFW_Custom_Damage_Object@@@8		; JFW_Custom_Damage_Object `RTTI Type Descriptor'
PUBLIC	??_R3JFW_Custom_Damage_Object@@8		; JFW_Custom_Damage_Object::`RTTI Class Hierarchy Descriptor'
PUBLIC	??_R2JFW_Custom_Damage_Object@@8		; JFW_Custom_Damage_Object::`RTTI Base Class Array'
PUBLIC	??_R1A@?0A@EA@JFW_Custom_Damage_Object@@8	; JFW_Custom_Damage_Object::`RTTI Base Class Descriptor at (0,-1,0,64)'
PUBLIC	??_R4JFW_Blow_Up_On_Custom@@6B@			; JFW_Blow_Up_On_Custom::`RTTI Complete Object Locator'
PUBLIC	??_R0?AVJFW_Blow_Up_On_Custom@@@8		; JFW_Blow_Up_On_Custom `RTTI Type Descriptor'
PUBLIC	??_R3JFW_Blow_Up_On_Custom@@8			; JFW_Blow_Up_On_Custom::`RTTI Class Hierarchy Descriptor'
PUBLIC	??_R2JFW_Blow_Up_On_Custom@@8			; JFW_Blow_Up_On_Custom::`RTTI Base Class Array'
PUBLIC	??_R1A@?0A@EA@JFW_Blow_Up_On_Custom@@8		; JFW_Blow_Up_On_Custom::`RTTI Base Class Descriptor at (0,-1,0,64)'
PUBLIC	??_R4JFW_Blow_Up_Obj_On_Custom@@6B@		; JFW_Blow_Up_Obj_On_Custom::`RTTI Complete Object Locator'
PUBLIC	??_R0?AVJFW_Blow_Up_Obj_On_Custom@@@8		; JFW_Blow_Up_Obj_On_Custom `RTTI Type Descriptor'
PUBLIC	??_R3JFW_Blow_Up_Obj_On_Custom@@8		; JFW_Blow_Up_Obj_On_Custom::`RTTI Class Hierarchy Descriptor'
PUBLIC	??_R2JFW_Blow_Up_Obj_On_Custom@@8		; JFW_Blow_Up_Obj_On_Custom::`RTTI Base Class Array'
PUBLIC	??_R1A@?0A@EA@JFW_Blow_Up_Obj_On_Custom@@8	; JFW_Blow_Up_Obj_On_Custom::`RTTI Base Class Descriptor at (0,-1,0,64)'
PUBLIC	??_R4JFW_Delay_Custom@@6B@			; JFW_Delay_Custom::`RTTI Complete Object Locator'
PUBLIC	??_R0?AVJFW_Delay_Custom@@@8			; JFW_Delay_Custom `RTTI Type Descriptor'
PUBLIC	??_R3JFW_Delay_Custom@@8			; JFW_Delay_Custom::`RTTI Class Hierarchy Descriptor'
PUBLIC	??_R2JFW_Delay_Custom@@8			; JFW_Delay_Custom::`RTTI Base Class Array'
PUBLIC	??_R1A@?0A@EA@JFW_Delay_Custom@@8		; JFW_Delay_Custom::`RTTI Base Class Descriptor at (0,-1,0,64)'
PUBLIC	??_R4JFW_Startup_Custom@@6B@			; JFW_Startup_Custom::`RTTI Complete Object Locator'
PUBLIC	??_R0?AVJFW_Startup_Custom@@@8			; JFW_Startup_Custom `RTTI Type Descriptor'
PUBLIC	??_R3JFW_Startup_Custom@@8			; JFW_Startup_Custom::`RTTI Class Hierarchy Descriptor'
PUBLIC	??_R2JFW_Startup_Custom@@8			; JFW_Startup_Custom::`RTTI Base Class Array'
PUBLIC	??_R1A@?0A@EA@JFW_Startup_Custom@@8		; JFW_Startup_Custom::`RTTI Base Class Descriptor at (0,-1,0,64)'
PUBLIC	??_R4JFW_Teleport_Custom@@6B@			; JFW_Teleport_Custom::`RTTI Complete Object Locator'
PUBLIC	??_R0?AVJFW_Teleport_Custom@@@8			; JFW_Teleport_Custom `RTTI Type Descriptor'
PUBLIC	??_R3JFW_Teleport_Custom@@8			; JFW_Teleport_Custom::`RTTI Class Hierarchy Descriptor'
PUBLIC	??_R2JFW_Teleport_Custom@@8			; JFW_Teleport_Custom::`RTTI Base Class Array'
PUBLIC	??_R1A@?0A@EA@JFW_Teleport_Custom@@8		; JFW_Teleport_Custom::`RTTI Base Class Descriptor at (0,-1,0,64)'
PUBLIC	??_R4JFW_Teleport_Custom_Random@@6B@		; JFW_Teleport_Custom_Random::`RTTI Complete Object Locator'
PUBLIC	??_R0?AVJFW_Teleport_Custom_Random@@@8		; JFW_Teleport_Custom_Random `RTTI Type Descriptor'
PUBLIC	??_R3JFW_Teleport_Custom_Random@@8		; JFW_Teleport_Custom_Random::`RTTI Class Hierarchy Descriptor'
PUBLIC	??_R2JFW_Teleport_Custom_Random@@8		; JFW_Teleport_Custom_Random::`RTTI Base Class Array'
PUBLIC	??_R1A@?0A@EA@JFW_Teleport_Custom_Random@@8	; JFW_Teleport_Custom_Random::`RTTI Base Class Descriptor at (0,-1,0,64)'
PUBLIC	??_R4JFW_Teleport_Custom_Timer@@6B@		; JFW_Teleport_Custom_Timer::`RTTI Complete Object Locator'
PUBLIC	??_R0?AVJFW_Teleport_Custom_Timer@@@8		; JFW_Teleport_Custom_Timer `RTTI Type Descriptor'
PUBLIC	??_R3JFW_Teleport_Custom_Timer@@8		; JFW_Teleport_Custom_Timer::`RTTI Class Hierarchy Descriptor'
PUBLIC	??_R2JFW_Teleport_Custom_Timer@@8		; JFW_Teleport_Custom_Timer::`RTTI Base Class Array'
PUBLIC	??_R1A@?0A@EA@JFW_Teleport_Custom_Timer@@8	; JFW_Teleport_Custom_Timer::`RTTI Base Class Descriptor at (0,-1,0,64)'
PUBLIC	??_R4JFW_Blow_Up_Location_On_Custom@@6B@	; JFW_Blow_Up_Location_On_Custom::`RTTI Complete Object Locator'
PUBLIC	??_R0?AVJFW_Blow_Up_Location_On_Custom@@@8	; JFW_Blow_Up_Location_On_Custom `RTTI Type Descriptor'
PUBLIC	??_R3JFW_Blow_Up_Location_On_Custom@@8		; JFW_Blow_Up_Location_On_Custom::`RTTI Class Hierarchy Descriptor'
PUBLIC	??_R2JFW_Blow_Up_Location_On_Custom@@8		; JFW_Blow_Up_Location_On_Custom::`RTTI Base Class Array'
PUBLIC	??_R1A@?0A@EA@JFW_Blow_Up_Location_On_Custom@@8	; JFW_Blow_Up_Location_On_Custom::`RTTI Base Class Descriptor at (0,-1,0,64)'
PUBLIC	??_R4JFW_3D_Sound_Custom@@6B@			; JFW_3D_Sound_Custom::`RTTI Complete Object Locator'
PUBLIC	??_R0?AVJFW_3D_Sound_Custom@@@8			; JFW_3D_Sound_Custom `RTTI Type Descriptor'
PUBLIC	??_R3JFW_3D_Sound_Custom@@8			; JFW_3D_Sound_Custom::`RTTI Class Hierarchy Descriptor'
PUBLIC	??_R2JFW_3D_Sound_Custom@@8			; JFW_3D_Sound_Custom::`RTTI Base Class Array'
PUBLIC	??_R1A@?0A@EA@JFW_3D_Sound_Custom@@8		; JFW_3D_Sound_Custom::`RTTI Base Class Descriptor at (0,-1,0,64)'
PUBLIC	??_R4JFW_Created_Send_Custom@@6B@		; JFW_Created_Send_Custom::`RTTI Complete Object Locator'
PUBLIC	??_R0?AVJFW_Created_Send_Custom@@@8		; JFW_Created_Send_Custom `RTTI Type Descriptor'
PUBLIC	??_R3JFW_Created_Send_Custom@@8			; JFW_Created_Send_Custom::`RTTI Class Hierarchy Descriptor'
PUBLIC	??_R2JFW_Created_Send_Custom@@8			; JFW_Created_Send_Custom::`RTTI Base Class Array'
PUBLIC	??_R1A@?0A@EA@JFW_Created_Send_Custom@@8	; JFW_Created_Send_Custom::`RTTI Base Class Descriptor at (0,-1,0,64)'
PUBLIC	??_R4JFW_Damaged_Send_Custom@@6B@		; JFW_Damaged_Send_Custom::`RTTI Complete Object Locator'
PUBLIC	??_R0?AVJFW_Damaged_Send_Custom@@@8		; JFW_Damaged_Send_Custom `RTTI Type Descriptor'
PUBLIC	??_R3JFW_Damaged_Send_Custom@@8			; JFW_Damaged_Send_Custom::`RTTI Class Hierarchy Descriptor'
PUBLIC	??_R2JFW_Damaged_Send_Custom@@8			; JFW_Damaged_Send_Custom::`RTTI Base Class Array'
PUBLIC	??_R1A@?0A@EA@JFW_Damaged_Send_Custom@@8	; JFW_Damaged_Send_Custom::`RTTI Base Class Descriptor at (0,-1,0,64)'
PUBLIC	??_R4JFW_Enemy_Seen_Send_Custom@@6B@		; JFW_Enemy_Seen_Send_Custom::`RTTI Complete Object Locator'
PUBLIC	??_R0?AVJFW_Enemy_Seen_Send_Custom@@@8		; JFW_Enemy_Seen_Send_Custom `RTTI Type Descriptor'
PUBLIC	??_R3JFW_Enemy_Seen_Send_Custom@@8		; JFW_Enemy_Seen_Send_Custom::`RTTI Class Hierarchy Descriptor'
PUBLIC	??_R2JFW_Enemy_Seen_Send_Custom@@8		; JFW_Enemy_Seen_Send_Custom::`RTTI Base Class Array'
PUBLIC	??_R1A@?0A@EA@JFW_Enemy_Seen_Send_Custom@@8	; JFW_Enemy_Seen_Send_Custom::`RTTI Base Class Descriptor at (0,-1,0,64)'
PUBLIC	??_R4JFW_Create_Object_Custom@@6B@		; JFW_Create_Object_Custom::`RTTI Complete Object Locator'
PUBLIC	??_R0?AVJFW_Create_Object_Custom@@@8		; JFW_Create_Object_Custom `RTTI Type Descriptor'
PUBLIC	??_R3JFW_Create_Object_Custom@@8		; JFW_Create_Object_Custom::`RTTI Class Hierarchy Descriptor'
PUBLIC	??_R2JFW_Create_Object_Custom@@8		; JFW_Create_Object_Custom::`RTTI Base Class Array'
PUBLIC	??_R1A@?0A@EA@JFW_Create_Object_Custom@@8	; JFW_Create_Object_Custom::`RTTI Base Class Descriptor at (0,-1,0,64)'
PUBLIC	??_R4JFW_Enable_Spawner_On_Custom@@6B@		; JFW_Enable_Spawner_On_Custom::`RTTI Complete Object Locator'
PUBLIC	??_R0?AVJFW_Enable_Spawner_On_Custom@@@8	; JFW_Enable_Spawner_On_Custom `RTTI Type Descriptor'
PUBLIC	??_R3JFW_Enable_Spawner_On_Custom@@8		; JFW_Enable_Spawner_On_Custom::`RTTI Class Hierarchy Descriptor'
PUBLIC	??_R2JFW_Enable_Spawner_On_Custom@@8		; JFW_Enable_Spawner_On_Custom::`RTTI Base Class Array'
PUBLIC	??_R1A@?0A@EA@JFW_Enable_Spawner_On_Custom@@8	; JFW_Enable_Spawner_On_Custom::`RTTI Base Class Descriptor at (0,-1,0,64)'
PUBLIC	??_R4JFW_Set_Animation_On_Custom@@6B@		; JFW_Set_Animation_On_Custom::`RTTI Complete Object Locator'
PUBLIC	??_R0?AVJFW_Set_Animation_On_Custom@@@8		; JFW_Set_Animation_On_Custom `RTTI Type Descriptor'
PUBLIC	??_R3JFW_Set_Animation_On_Custom@@8		; JFW_Set_Animation_On_Custom::`RTTI Class Hierarchy Descriptor'
PUBLIC	??_R2JFW_Set_Animation_On_Custom@@8		; JFW_Set_Animation_On_Custom::`RTTI Base Class Array'
PUBLIC	??_R1A@?0A@EA@JFW_Set_Animation_On_Custom@@8	; JFW_Set_Animation_On_Custom::`RTTI Base Class Descriptor at (0,-1,0,64)'
PUBLIC	??_R4JFW_Set_Model_Animation_On_Custom@@6B@	; JFW_Set_Model_Animation_On_Custom::`RTTI Complete Object Locator'
PUBLIC	??_R0?AVJFW_Set_Model_Animation_On_Custom@@@8	; JFW_Set_Model_Animation_On_Custom `RTTI Type Descriptor'
PUBLIC	??_R3JFW_Set_Model_Animation_On_Custom@@8	; JFW_Set_Model_Animation_On_Custom::`RTTI Class Hierarchy Descriptor'
PUBLIC	??_R2JFW_Set_Model_Animation_On_Custom@@8	; JFW_Set_Model_Animation_On_Custom::`RTTI Base Class Array'
PUBLIC	??_R1A@?0A@EA@JFW_Set_Model_Animation_On_Custom@@8 ; JFW_Set_Model_Animation_On_Custom::`RTTI Base Class Descriptor at (0,-1,0,64)'
PUBLIC	??_R4JFW_Set_Model_On_Custom@@6B@		; JFW_Set_Model_On_Custom::`RTTI Complete Object Locator'
PUBLIC	??_R0?AVJFW_Set_Model_On_Custom@@@8		; JFW_Set_Model_On_Custom `RTTI Type Descriptor'
PUBLIC	??_R3JFW_Set_Model_On_Custom@@8			; JFW_Set_Model_On_Custom::`RTTI Class Hierarchy Descriptor'
PUBLIC	??_R2JFW_Set_Model_On_Custom@@8			; JFW_Set_Model_On_Custom::`RTTI Base Class Array'
PUBLIC	??_R1A@?0A@EA@JFW_Set_Model_On_Custom@@8	; JFW_Set_Model_On_Custom::`RTTI Base Class Descriptor at (0,-1,0,64)'
PUBLIC	??_R4JFW_Enable_Disable_Animation_On_Custom@@6B@ ; JFW_Enable_Disable_Animation_On_Custom::`RTTI Complete Object Locator'
PUBLIC	??_R0?AVJFW_Enable_Disable_Animation_On_Custom@@@8 ; JFW_Enable_Disable_Animation_On_Custom `RTTI Type Descriptor'
PUBLIC	??_R3JFW_Enable_Disable_Animation_On_Custom@@8	; JFW_Enable_Disable_Animation_On_Custom::`RTTI Class Hierarchy Descriptor'
PUBLIC	??_R2JFW_Enable_Disable_Animation_On_Custom@@8	; JFW_Enable_Disable_Animation_On_Custom::`RTTI Base Class Array'
PUBLIC	??_R1A@?0A@EA@JFW_Enable_Disable_Animation_On_Custom@@8 ; JFW_Enable_Disable_Animation_On_Custom::`RTTI Base Class Descriptor at (0,-1,0,64)'
PUBLIC	??_R4JFW_Custom_Toggle_Visible@@6B@		; JFW_Custom_Toggle_Visible::`RTTI Complete Object Locator'
PUBLIC	??_R0?AVJFW_Custom_Toggle_Visible@@@8		; JFW_Custom_Toggle_Visible `RTTI Type Descriptor'
PUBLIC	??_R3JFW_Custom_Toggle_Visible@@8		; JFW_Custom_Toggle_Visible::`RTTI Class Hierarchy Descriptor'
PUBLIC	??_R2JFW_Custom_Toggle_Visible@@8		; JFW_Custom_Toggle_Visible::`RTTI Base Class Array'
PUBLIC	??_R1A@?0A@EA@JFW_Custom_Toggle_Visible@@8	; JFW_Custom_Toggle_Visible::`RTTI Base Class Descriptor at (0,-1,0,64)'
PUBLIC	??_R4JFW_Customs_Send_Custom@@6B@		; JFW_Customs_Send_Custom::`RTTI Complete Object Locator'
PUBLIC	??_R0?AVJFW_Customs_Send_Custom@@@8		; JFW_Customs_Send_Custom `RTTI Type Descriptor'
PUBLIC	??_R3JFW_Customs_Send_Custom@@8			; JFW_Customs_Send_Custom::`RTTI Class Hierarchy Descriptor'
PUBLIC	??_R2JFW_Customs_Send_Custom@@8			; JFW_Customs_Send_Custom::`RTTI Base Class Array'
PUBLIC	??_R1A@?0A@EA@JFW_Customs_Send_Custom@@8	; JFW_Customs_Send_Custom::`RTTI Base Class Descriptor at (0,-1,0,64)'
PUBLIC	??_R4JFW_Custom_Multiple_Send_Custom@@6B@	; JFW_Custom_Multiple_Send_Custom::`RTTI Complete Object Locator'
PUBLIC	??_R0?AVJFW_Custom_Multiple_Send_Custom@@@8	; JFW_Custom_Multiple_Send_Custom `RTTI Type Descriptor'
PUBLIC	??_R3JFW_Custom_Multiple_Send_Custom@@8		; JFW_Custom_Multiple_Send_Custom::`RTTI Class Hierarchy Descriptor'
PUBLIC	??_R2JFW_Custom_Multiple_Send_Custom@@8		; JFW_Custom_Multiple_Send_Custom::`RTTI Base Class Array'
PUBLIC	??_R1A@?0A@EA@JFW_Custom_Multiple_Send_Custom@@8 ; JFW_Custom_Multiple_Send_Custom::`RTTI Base Class Descriptor at (0,-1,0,64)'
PUBLIC	??_R4JFW_Custom_Multiple_Send_Custom_2@@6B@	; JFW_Custom_Multiple_Send_Custom_2::`RTTI Complete Object Locator'
PUBLIC	??_R0?AVJFW_Custom_Multiple_Send_Custom_2@@@8	; JFW_Custom_Multiple_Send_Custom_2 `RTTI Type Descriptor'
PUBLIC	??_R3JFW_Custom_Multiple_Send_Custom_2@@8	; JFW_Custom_Multiple_Send_Custom_2::`RTTI Class Hierarchy Descriptor'
PUBLIC	??_R2JFW_Custom_Multiple_Send_Custom_2@@8	; JFW_Custom_Multiple_Send_Custom_2::`RTTI Base Class Array'
PUBLIC	??_R1A@?0A@EA@JFW_Custom_Multiple_Send_Custom_2@@8 ; JFW_Custom_Multiple_Send_Custom_2::`RTTI Base Class Descriptor at (0,-1,0,64)'
PUBLIC	??_R4JFW_Custom_Send_Custom@@6B@		; JFW_Custom_Send_Custom::`RTTI Complete Object Locator'
PUBLIC	??_R0?AVJFW_Custom_Send_Custom@@@8		; JFW_Custom_Send_Custom `RTTI Type Descriptor'
PUBLIC	??_R3JFW_Custom_Send_Custom@@8			; JFW_Custom_Send_Custom::`RTTI Class Hierarchy Descriptor'
PUBLIC	??_R2JFW_Custom_Send_Custom@@8			; JFW_Custom_Send_Custom::`RTTI Base Class Array'
PUBLIC	??_R1A@?0A@EA@JFW_Custom_Send_Custom@@8		; JFW_Custom_Send_Custom::`RTTI Base Class Descriptor at (0,-1,0,64)'
PUBLIC	??_R4JFW_Custom_Send_Random_Custom@@6B@		; JFW_Custom_Send_Random_Custom::`RTTI Complete Object Locator'
PUBLIC	??_R0?AVJFW_Custom_Send_Random_Custom@@@8	; JFW_Custom_Send_Random_Custom `RTTI Type Descriptor'
PUBLIC	??_R3JFW_Custom_Send_Random_Custom@@8		; JFW_Custom_Send_Random_Custom::`RTTI Class Hierarchy Descriptor'
PUBLIC	??_R2JFW_Custom_Send_Random_Custom@@8		; JFW_Custom_Send_Random_Custom::`RTTI Base Class Array'
PUBLIC	??_R1A@?0A@EA@JFW_Custom_Send_Random_Custom@@8	; JFW_Custom_Send_Random_Custom::`RTTI Base Class Descriptor at (0,-1,0,64)'
PUBLIC	??_R4JFW_Create_Destroy_Object_On_Custom@@6B@	; JFW_Create_Destroy_Object_On_Custom::`RTTI Complete Object Locator'
PUBLIC	??_R0?AVJFW_Create_Destroy_Object_On_Custom@@@8	; JFW_Create_Destroy_Object_On_Custom `RTTI Type Descriptor'
PUBLIC	??_R3JFW_Create_Destroy_Object_On_Custom@@8	; JFW_Create_Destroy_Object_On_Custom::`RTTI Class Hierarchy Descriptor'
PUBLIC	??_R2JFW_Create_Destroy_Object_On_Custom@@8	; JFW_Create_Destroy_Object_On_Custom::`RTTI Base Class Array'
PUBLIC	??_R1A@?0A@EA@JFW_Create_Destroy_Object_On_Custom@@8 ; JFW_Create_Destroy_Object_On_Custom::`RTTI Base Class Descriptor at (0,-1,0,64)'
PUBLIC	??_R4JFW_Create_Destroy_Object_On_Custom_Animate@@6B@ ; JFW_Create_Destroy_Object_On_Custom_Animate::`RTTI Complete Object Locator'
PUBLIC	??_R0?AVJFW_Create_Destroy_Object_On_Custom_Animate@@@8 ; JFW_Create_Destroy_Object_On_Custom_Animate `RTTI Type Descriptor'
PUBLIC	??_R3JFW_Create_Destroy_Object_On_Custom_Animate@@8 ; JFW_Create_Destroy_Object_On_Custom_Animate::`RTTI Class Hierarchy Descriptor'
PUBLIC	??_R2JFW_Create_Destroy_Object_On_Custom_Animate@@8 ; JFW_Create_Destroy_Object_On_Custom_Animate::`RTTI Base Class Array'
PUBLIC	??_R1A@?0A@EA@JFW_Create_Destroy_Object_On_Custom_Animate@@8 ; JFW_Create_Destroy_Object_On_Custom_Animate::`RTTI Base Class Descriptor at (0,-1,0,64)'
PUBLIC	??_R4JFW_Create_Destroy_Object_On_Custom_Animate_2@@6B@ ; JFW_Create_Destroy_Object_On_Custom_Animate_2::`RTTI Complete Object Locator'
PUBLIC	??_R0?AVJFW_Create_Destroy_Object_On_Custom_Animate_2@@@8 ; JFW_Create_Destroy_Object_On_Custom_Animate_2 `RTTI Type Descriptor'
PUBLIC	??_R3JFW_Create_Destroy_Object_On_Custom_Animate_2@@8 ; JFW_Create_Destroy_Object_On_Custom_Animate_2::`RTTI Class Hierarchy Descriptor'
PUBLIC	??_R2JFW_Create_Destroy_Object_On_Custom_Animate_2@@8 ; JFW_Create_Destroy_Object_On_Custom_Animate_2::`RTTI Base Class Array'
PUBLIC	??_R1A@?0A@EA@JFW_Create_Destroy_Object_On_Custom_Animate_2@@8 ; JFW_Create_Destroy_Object_On_Custom_Animate_2::`RTTI Base Class Descriptor at (0,-1,0,64)'
PUBLIC	??_R4JFW_Damaged_Send_Custom_Amount@@6B@	; JFW_Damaged_Send_Custom_Amount::`RTTI Complete Object Locator'
PUBLIC	??_R0?AVJFW_Damaged_Send_Custom_Amount@@@8	; JFW_Damaged_Send_Custom_Amount `RTTI Type Descriptor'
PUBLIC	??_R3JFW_Damaged_Send_Custom_Amount@@8		; JFW_Damaged_Send_Custom_Amount::`RTTI Class Hierarchy Descriptor'
PUBLIC	??_R2JFW_Damaged_Send_Custom_Amount@@8		; JFW_Damaged_Send_Custom_Amount::`RTTI Base Class Array'
PUBLIC	??_R1A@?0A@EA@JFW_Damaged_Send_Custom_Amount@@8	; JFW_Damaged_Send_Custom_Amount::`RTTI Base Class Descriptor at (0,-1,0,64)'
PUBLIC	??_R4JFW_Invulnerable_On_Custom@@6B@		; JFW_Invulnerable_On_Custom::`RTTI Complete Object Locator'
PUBLIC	??_R0?AVJFW_Invulnerable_On_Custom@@@8		; JFW_Invulnerable_On_Custom `RTTI Type Descriptor'
PUBLIC	??_R3JFW_Invulnerable_On_Custom@@8		; JFW_Invulnerable_On_Custom::`RTTI Class Hierarchy Descriptor'
PUBLIC	??_R2JFW_Invulnerable_On_Custom@@8		; JFW_Invulnerable_On_Custom::`RTTI Base Class Array'
PUBLIC	??_R1A@?0A@EA@JFW_Invulnerable_On_Custom@@8	; JFW_Invulnerable_On_Custom::`RTTI Base Class Descriptor at (0,-1,0,64)'
PUBLIC	??_R4JFW_Invulnerable_On_Custom_2@@6B@		; JFW_Invulnerable_On_Custom_2::`RTTI Complete Object Locator'
PUBLIC	??_R0?AVJFW_Invulnerable_On_Custom_2@@@8	; JFW_Invulnerable_On_Custom_2 `RTTI Type Descriptor'
PUBLIC	??_R3JFW_Invulnerable_On_Custom_2@@8		; JFW_Invulnerable_On_Custom_2::`RTTI Class Hierarchy Descriptor'
PUBLIC	??_R2JFW_Invulnerable_On_Custom_2@@8		; JFW_Invulnerable_On_Custom_2::`RTTI Base Class Array'
PUBLIC	??_R1A@?0A@EA@JFW_Invulnerable_On_Custom_2@@8	; JFW_Invulnerable_On_Custom_2::`RTTI Base Class Descriptor at (0,-1,0,64)'
PUBLIC	??_R4JFW_Custom_Send_Custom_Parameter@@6B@	; JFW_Custom_Send_Custom_Parameter::`RTTI Complete Object Locator'
PUBLIC	??_R0?AVJFW_Custom_Send_Custom_Parameter@@@8	; JFW_Custom_Send_Custom_Parameter `RTTI Type Descriptor'
PUBLIC	??_R3JFW_Custom_Send_Custom_Parameter@@8	; JFW_Custom_Send_Custom_Parameter::`RTTI Class Hierarchy Descriptor'
PUBLIC	??_R2JFW_Custom_Send_Custom_Parameter@@8	; JFW_Custom_Send_Custom_Parameter::`RTTI Base Class Array'
PUBLIC	??_R1A@?0A@EA@JFW_Custom_Send_Custom_Parameter@@8 ; JFW_Custom_Send_Custom_Parameter::`RTTI Base Class Descriptor at (0,-1,0,64)'
PUBLIC	??_R4JFW_Create_Destroy_Object_On_Custom_Bone@@6B@ ; JFW_Create_Destroy_Object_On_Custom_Bone::`RTTI Complete Object Locator'
PUBLIC	??_R0?AVJFW_Create_Destroy_Object_On_Custom_Bone@@@8 ; JFW_Create_Destroy_Object_On_Custom_Bone `RTTI Type Descriptor'
PUBLIC	??_R3JFW_Create_Destroy_Object_On_Custom_Bone@@8 ; JFW_Create_Destroy_Object_On_Custom_Bone::`RTTI Class Hierarchy Descriptor'
PUBLIC	??_R2JFW_Create_Destroy_Object_On_Custom_Bone@@8 ; JFW_Create_Destroy_Object_On_Custom_Bone::`RTTI Base Class Array'
PUBLIC	??_R1A@?0A@EA@JFW_Create_Destroy_Object_On_Custom_Bone@@8 ; JFW_Create_Destroy_Object_On_Custom_Bone::`RTTI Base Class Descriptor at (0,-1,0,64)'
PUBLIC	??_R4JFW_Custom_Send_Ordered_Customs@@6B@	; JFW_Custom_Send_Ordered_Customs::`RTTI Complete Object Locator'
PUBLIC	??_R0?AVJFW_Custom_Send_Ordered_Customs@@@8	; JFW_Custom_Send_Ordered_Customs `RTTI Type Descriptor'
PUBLIC	??_R3JFW_Custom_Send_Ordered_Customs@@8		; JFW_Custom_Send_Ordered_Customs::`RTTI Class Hierarchy Descriptor'
PUBLIC	??_R2JFW_Custom_Send_Ordered_Customs@@8		; JFW_Custom_Send_Ordered_Customs::`RTTI Base Class Array'
PUBLIC	??_R1A@?0A@EA@JFW_Custom_Send_Ordered_Customs@@8 ; JFW_Custom_Send_Ordered_Customs::`RTTI Base Class Descriptor at (0,-1,0,64)'
PUBLIC	??_R4JFW_Custom_Send_Customs@@6B@		; JFW_Custom_Send_Customs::`RTTI Complete Object Locator'
PUBLIC	??_R0?AVJFW_Custom_Send_Customs@@@8		; JFW_Custom_Send_Customs `RTTI Type Descriptor'
PUBLIC	??_R3JFW_Custom_Send_Customs@@8			; JFW_Custom_Send_Customs::`RTTI Class Hierarchy Descriptor'
PUBLIC	??_R2JFW_Custom_Send_Customs@@8			; JFW_Custom_Send_Customs::`RTTI Base Class Array'
PUBLIC	??_R1A@?0A@EA@JFW_Custom_Send_Customs@@8	; JFW_Custom_Send_Customs::`RTTI Base Class Descriptor at (0,-1,0,64)'
PUBLIC	??_R4JFW_Custom_Send_Custom_Multiple_IDs@@6B@	; JFW_Custom_Send_Custom_Multiple_IDs::`RTTI Complete Object Locator'
PUBLIC	??_R0?AVJFW_Custom_Send_Custom_Multiple_IDs@@@8	; JFW_Custom_Send_Custom_Multiple_IDs `RTTI Type Descriptor'
PUBLIC	??_R3JFW_Custom_Send_Custom_Multiple_IDs@@8	; JFW_Custom_Send_Custom_Multiple_IDs::`RTTI Class Hierarchy Descriptor'
PUBLIC	??_R2JFW_Custom_Send_Custom_Multiple_IDs@@8	; JFW_Custom_Send_Custom_Multiple_IDs::`RTTI Base Class Array'
PUBLIC	??_R1A@?0A@EA@JFW_Custom_Send_Custom_Multiple_IDs@@8 ; JFW_Custom_Send_Custom_Multiple_IDs::`RTTI Base Class Descriptor at (0,-1,0,64)'
PUBLIC	??_R4JFW_Create_Destroy_Object_On_Custom_Death@@6B@ ; JFW_Create_Destroy_Object_On_Custom_Death::`RTTI Complete Object Locator'
PUBLIC	??_R0?AVJFW_Create_Destroy_Object_On_Custom_Death@@@8 ; JFW_Create_Destroy_Object_On_Custom_Death `RTTI Type Descriptor'
PUBLIC	??_R3JFW_Create_Destroy_Object_On_Custom_Death@@8 ; JFW_Create_Destroy_Object_On_Custom_Death::`RTTI Class Hierarchy Descriptor'
PUBLIC	??_R2JFW_Create_Destroy_Object_On_Custom_Death@@8 ; JFW_Create_Destroy_Object_On_Custom_Death::`RTTI Base Class Array'
PUBLIC	??_R1A@?0A@EA@JFW_Create_Destroy_Object_On_Custom_Death@@8 ; JFW_Create_Destroy_Object_On_Custom_Death::`RTTI Base Class Descriptor at (0,-1,0,64)'
PUBLIC	??_R4JFW_Create_Destroy_Object_On_Custom_Death_Bone@@6B@ ; JFW_Create_Destroy_Object_On_Custom_Death_Bone::`RTTI Complete Object Locator'
PUBLIC	??_R0?AVJFW_Create_Destroy_Object_On_Custom_Death_Bone@@@8 ; JFW_Create_Destroy_Object_On_Custom_Death_Bone `RTTI Type Descriptor'
PUBLIC	??_R3JFW_Create_Destroy_Object_On_Custom_Death_Bone@@8 ; JFW_Create_Destroy_Object_On_Custom_Death_Bone::`RTTI Class Hierarchy Descriptor'
PUBLIC	??_R2JFW_Create_Destroy_Object_On_Custom_Death_Bone@@8 ; JFW_Create_Destroy_Object_On_Custom_Death_Bone::`RTTI Base Class Array'
PUBLIC	??_R1A@?0A@EA@JFW_Create_Destroy_Object_On_Custom_Death_Bone@@8 ; JFW_Create_Destroy_Object_On_Custom_Death_Bone::`RTTI Base Class Descriptor at (0,-1,0,64)'
PUBLIC	??_R4JFW_Custom_Destroy_All_Buildings@@6B@	; JFW_Custom_Destroy_All_Buildings::`RTTI Complete Object Locator'
PUBLIC	??_R0?AVJFW_Custom_Destroy_All_Buildings@@@8	; JFW_Custom_Destroy_All_Buildings `RTTI Type Descriptor'
PUBLIC	??_R3JFW_Custom_Destroy_All_Buildings@@8	; JFW_Custom_Destroy_All_Buildings::`RTTI Class Hierarchy Descriptor'
PUBLIC	??_R2JFW_Custom_Destroy_All_Buildings@@8	; JFW_Custom_Destroy_All_Buildings::`RTTI Base Class Array'
PUBLIC	??_R1A@?0A@EA@JFW_Custom_Destroy_All_Buildings@@8 ; JFW_Custom_Destroy_All_Buildings::`RTTI Base Class Descriptor at (0,-1,0,64)'
PUBLIC	??_R4JFW_Timer_Custom_On_Off@@6B@		; JFW_Timer_Custom_On_Off::`RTTI Complete Object Locator'
PUBLIC	??_R0?AVJFW_Timer_Custom_On_Off@@@8		; JFW_Timer_Custom_On_Off `RTTI Type Descriptor'
PUBLIC	??_R3JFW_Timer_Custom_On_Off@@8			; JFW_Timer_Custom_On_Off::`RTTI Class Hierarchy Descriptor'
PUBLIC	??_R2JFW_Timer_Custom_On_Off@@8			; JFW_Timer_Custom_On_Off::`RTTI Base Class Array'
PUBLIC	??_R1A@?0A@EA@JFW_Timer_Custom_On_Off@@8	; JFW_Timer_Custom_On_Off::`RTTI Base Class Descriptor at (0,-1,0,64)'
PUBLIC	??_R4JFW_Create_Vehicle_On_Custom@@6B@		; JFW_Create_Vehicle_On_Custom::`RTTI Complete Object Locator'
PUBLIC	??_R0?AVJFW_Create_Vehicle_On_Custom@@@8	; JFW_Create_Vehicle_On_Custom `RTTI Type Descriptor'
PUBLIC	??_R3JFW_Create_Vehicle_On_Custom@@8		; JFW_Create_Vehicle_On_Custom::`RTTI Class Hierarchy Descriptor'
PUBLIC	??_R2JFW_Create_Vehicle_On_Custom@@8		; JFW_Create_Vehicle_On_Custom::`RTTI Base Class Array'
PUBLIC	??_R1A@?0A@EA@JFW_Create_Vehicle_On_Custom@@8	; JFW_Create_Vehicle_On_Custom::`RTTI Base Class Descriptor at (0,-1,0,64)'
PUBLIC	??_R4JFW_Set_Model_On_Custom_Sender@@6B@	; JFW_Set_Model_On_Custom_Sender::`RTTI Complete Object Locator'
PUBLIC	??_R0?AVJFW_Set_Model_On_Custom_Sender@@@8	; JFW_Set_Model_On_Custom_Sender `RTTI Type Descriptor'
PUBLIC	??_R3JFW_Set_Model_On_Custom_Sender@@8		; JFW_Set_Model_On_Custom_Sender::`RTTI Class Hierarchy Descriptor'
PUBLIC	??_R2JFW_Set_Model_On_Custom_Sender@@8		; JFW_Set_Model_On_Custom_Sender::`RTTI Base Class Array'
PUBLIC	??_R1A@?0A@EA@JFW_Set_Model_On_Custom_Sender@@8	; JFW_Set_Model_On_Custom_Sender::`RTTI Base Class Descriptor at (0,-1,0,64)'
PUBLIC	??_R4JFW_Death_Send_Custom_ID@@6B@		; JFW_Death_Send_Custom_ID::`RTTI Complete Object Locator'
PUBLIC	??_R0?AVJFW_Death_Send_Custom_ID@@@8		; JFW_Death_Send_Custom_ID `RTTI Type Descriptor'
PUBLIC	??_R3JFW_Death_Send_Custom_ID@@8		; JFW_Death_Send_Custom_ID::`RTTI Class Hierarchy Descriptor'
PUBLIC	??_R2JFW_Death_Send_Custom_ID@@8		; JFW_Death_Send_Custom_ID::`RTTI Base Class Array'
PUBLIC	??_R1A@?0A@EA@JFW_Death_Send_Custom_ID@@8	; JFW_Death_Send_Custom_ID::`RTTI Base Class Descriptor at (0,-1,0,64)'
PUBLIC	??_R4JFW_Death_Send_Custom_Driver_ID@@6B@	; JFW_Death_Send_Custom_Driver_ID::`RTTI Complete Object Locator'
PUBLIC	??_R0?AVJFW_Death_Send_Custom_Driver_ID@@@8	; JFW_Death_Send_Custom_Driver_ID `RTTI Type Descriptor'
PUBLIC	??_R3JFW_Death_Send_Custom_Driver_ID@@8		; JFW_Death_Send_Custom_Driver_ID::`RTTI Class Hierarchy Descriptor'
PUBLIC	??_R2JFW_Death_Send_Custom_Driver_ID@@8		; JFW_Death_Send_Custom_Driver_ID::`RTTI Base Class Array'
PUBLIC	??_R1A@?0A@EA@JFW_Death_Send_Custom_Driver_ID@@8 ; JFW_Death_Send_Custom_Driver_ID::`RTTI Base Class Descriptor at (0,-1,0,64)'
PUBLIC	??_R4JFW_Repair_On_Custom@@6B@			; JFW_Repair_On_Custom::`RTTI Complete Object Locator'
PUBLIC	??_R0?AVJFW_Repair_On_Custom@@@8		; JFW_Repair_On_Custom `RTTI Type Descriptor'
PUBLIC	??_R3JFW_Repair_On_Custom@@8			; JFW_Repair_On_Custom::`RTTI Class Hierarchy Descriptor'
PUBLIC	??_R2JFW_Repair_On_Custom@@8			; JFW_Repair_On_Custom::`RTTI Base Class Array'
PUBLIC	??_R1A@?0A@EA@JFW_Repair_On_Custom@@8		; JFW_Repair_On_Custom::`RTTI Base Class Descriptor at (0,-1,0,64)'
PUBLIC	??_R4JFW_Wind_Custom@@6B@			; JFW_Wind_Custom::`RTTI Complete Object Locator'
PUBLIC	??_R0?AVJFW_Wind_Custom@@@8			; JFW_Wind_Custom `RTTI Type Descriptor'
PUBLIC	??_R3JFW_Wind_Custom@@8				; JFW_Wind_Custom::`RTTI Class Hierarchy Descriptor'
PUBLIC	??_R2JFW_Wind_Custom@@8				; JFW_Wind_Custom::`RTTI Base Class Array'
PUBLIC	??_R1A@?0A@EA@JFW_Wind_Custom@@8		; JFW_Wind_Custom::`RTTI Base Class Descriptor at (0,-1,0,64)'
PUBLIC	??_R4JFW_War_Blitz_Custom@@6B@			; JFW_War_Blitz_Custom::`RTTI Complete Object Locator'
PUBLIC	??_R0?AVJFW_War_Blitz_Custom@@@8		; JFW_War_Blitz_Custom `RTTI Type Descriptor'
PUBLIC	??_R3JFW_War_Blitz_Custom@@8			; JFW_War_Blitz_Custom::`RTTI Class Hierarchy Descriptor'
PUBLIC	??_R2JFW_War_Blitz_Custom@@8			; JFW_War_Blitz_Custom::`RTTI Base Class Array'
PUBLIC	??_R1A@?0A@EA@JFW_War_Blitz_Custom@@8		; JFW_War_Blitz_Custom::`RTTI Base Class Descriptor at (0,-1,0,64)'
PUBLIC	??_R4JFW_Fog_Custom@@6B@			; JFW_Fog_Custom::`RTTI Complete Object Locator'
PUBLIC	??_R0?AVJFW_Fog_Custom@@@8			; JFW_Fog_Custom `RTTI Type Descriptor'
PUBLIC	??_R3JFW_Fog_Custom@@8				; JFW_Fog_Custom::`RTTI Class Hierarchy Descriptor'
PUBLIC	??_R2JFW_Fog_Custom@@8				; JFW_Fog_Custom::`RTTI Base Class Array'
PUBLIC	??_R1A@?0A@EA@JFW_Fog_Custom@@8			; JFW_Fog_Custom::`RTTI Base Class Descriptor at (0,-1,0,64)'
PUBLIC	??_R4JFW_Lightning_Custom@@6B@			; JFW_Lightning_Custom::`RTTI Complete Object Locator'
PUBLIC	??_R0?AVJFW_Lightning_Custom@@@8		; JFW_Lightning_Custom `RTTI Type Descriptor'
PUBLIC	??_R3JFW_Lightning_Custom@@8			; JFW_Lightning_Custom::`RTTI Class Hierarchy Descriptor'
PUBLIC	??_R2JFW_Lightning_Custom@@8			; JFW_Lightning_Custom::`RTTI Base Class Array'
PUBLIC	??_R1A@?0A@EA@JFW_Lightning_Custom@@8		; JFW_Lightning_Custom::`RTTI Base Class Descriptor at (0,-1,0,64)'
PUBLIC	??_R4JFW_Precipitation_Custom@@6B@		; JFW_Precipitation_Custom::`RTTI Complete Object Locator'
PUBLIC	??_R0?AVJFW_Precipitation_Custom@@@8		; JFW_Precipitation_Custom `RTTI Type Descriptor'
PUBLIC	??_R3JFW_Precipitation_Custom@@8		; JFW_Precipitation_Custom::`RTTI Class Hierarchy Descriptor'
PUBLIC	??_R2JFW_Precipitation_Custom@@8		; JFW_Precipitation_Custom::`RTTI Base Class Array'
PUBLIC	??_R1A@?0A@EA@JFW_Precipitation_Custom@@8	; JFW_Precipitation_Custom::`RTTI Base Class Descriptor at (0,-1,0,64)'
PUBLIC	??_R4JFW_Clouds_Custom@@6B@			; JFW_Clouds_Custom::`RTTI Complete Object Locator'
PUBLIC	??_R0?AVJFW_Clouds_Custom@@@8			; JFW_Clouds_Custom `RTTI Type Descriptor'
PUBLIC	??_R3JFW_Clouds_Custom@@8			; JFW_Clouds_Custom::`RTTI Class Hierarchy Descriptor'
PUBLIC	??_R2JFW_Clouds_Custom@@8			; JFW_Clouds_Custom::`RTTI Base Class Array'
PUBLIC	??_R1A@?0A@EA@JFW_Clouds_Custom@@8		; JFW_Clouds_Custom::`RTTI Base Class Descriptor at (0,-1,0,64)'
PUBLIC	??_R4JFW_Enable_Stealth_On_Custom@@6B@		; JFW_Enable_Stealth_On_Custom::`RTTI Complete Object Locator'
PUBLIC	??_R0?AVJFW_Enable_Stealth_On_Custom@@@8	; JFW_Enable_Stealth_On_Custom `RTTI Type Descriptor'
PUBLIC	??_R3JFW_Enable_Stealth_On_Custom@@8		; JFW_Enable_Stealth_On_Custom::`RTTI Class Hierarchy Descriptor'
PUBLIC	??_R2JFW_Enable_Stealth_On_Custom@@8		; JFW_Enable_Stealth_On_Custom::`RTTI Base Class Array'
PUBLIC	??_R1A@?0A@EA@JFW_Enable_Stealth_On_Custom@@8	; JFW_Enable_Stealth_On_Custom::`RTTI Base Class Descriptor at (0,-1,0,64)'
PUBLIC	??_R4JFW_Console_Message_On_Custom@@6B@		; JFW_Console_Message_On_Custom::`RTTI Complete Object Locator'
PUBLIC	??_R0?AVJFW_Console_Message_On_Custom@@@8	; JFW_Console_Message_On_Custom `RTTI Type Descriptor'
PUBLIC	??_R3JFW_Console_Message_On_Custom@@8		; JFW_Console_Message_On_Custom::`RTTI Class Hierarchy Descriptor'
PUBLIC	??_R2JFW_Console_Message_On_Custom@@8		; JFW_Console_Message_On_Custom::`RTTI Base Class Array'
PUBLIC	??_R1A@?0A@EA@JFW_Console_Message_On_Custom@@8	; JFW_Console_Message_On_Custom::`RTTI Base Class Descriptor at (0,-1,0,64)'
PUBLIC	??_R4JFW_Console_Input_On_Custom@@6B@		; JFW_Console_Input_On_Custom::`RTTI Complete Object Locator'
PUBLIC	??_R0?AVJFW_Console_Input_On_Custom@@@8		; JFW_Console_Input_On_Custom `RTTI Type Descriptor'
PUBLIC	??_R3JFW_Console_Input_On_Custom@@8		; JFW_Console_Input_On_Custom::`RTTI Class Hierarchy Descriptor'
PUBLIC	??_R2JFW_Console_Input_On_Custom@@8		; JFW_Console_Input_On_Custom::`RTTI Base Class Array'
PUBLIC	??_R1A@?0A@EA@JFW_Console_Input_On_Custom@@8	; JFW_Console_Input_On_Custom::`RTTI Base Class Descriptor at (0,-1,0,64)'
PUBLIC	??_R4JFW_Invulnerable_On_Custom_3@@6B@		; JFW_Invulnerable_On_Custom_3::`RTTI Complete Object Locator'
PUBLIC	??_R0?AVJFW_Invulnerable_On_Custom_3@@@8	; JFW_Invulnerable_On_Custom_3 `RTTI Type Descriptor'
PUBLIC	??_R3JFW_Invulnerable_On_Custom_3@@8		; JFW_Invulnerable_On_Custom_3::`RTTI Class Hierarchy Descriptor'
PUBLIC	??_R2JFW_Invulnerable_On_Custom_3@@8		; JFW_Invulnerable_On_Custom_3::`RTTI Base Class Array'
PUBLIC	??_R1A@?0A@EA@JFW_Invulnerable_On_Custom_3@@8	; JFW_Invulnerable_On_Custom_3::`RTTI Base Class Descriptor at (0,-1,0,64)'
PUBLIC	??_R4JFW_Set_Skin_Custom@@6B@			; JFW_Set_Skin_Custom::`RTTI Complete Object Locator'
PUBLIC	??_R0?AVJFW_Set_Skin_Custom@@@8			; JFW_Set_Skin_Custom `RTTI Type Descriptor'
PUBLIC	??_R3JFW_Set_Skin_Custom@@8			; JFW_Set_Skin_Custom::`RTTI Class Hierarchy Descriptor'
PUBLIC	??_R2JFW_Set_Skin_Custom@@8			; JFW_Set_Skin_Custom::`RTTI Base Class Array'
PUBLIC	??_R1A@?0A@EA@JFW_Set_Skin_Custom@@8		; JFW_Set_Skin_Custom::`RTTI Base Class Descriptor at (0,-1,0,64)'
PUBLIC	??_R4JFW_Set_Armor_Custom@@6B@			; JFW_Set_Armor_Custom::`RTTI Complete Object Locator'
PUBLIC	??_R0?AVJFW_Set_Armor_Custom@@@8		; JFW_Set_Armor_Custom `RTTI Type Descriptor'
PUBLIC	??_R3JFW_Set_Armor_Custom@@8			; JFW_Set_Armor_Custom::`RTTI Class Hierarchy Descriptor'
PUBLIC	??_R2JFW_Set_Armor_Custom@@8			; JFW_Set_Armor_Custom::`RTTI Base Class Array'
PUBLIC	??_R1A@?0A@EA@JFW_Set_Armor_Custom@@8		; JFW_Set_Armor_Custom::`RTTI Base Class Descriptor at (0,-1,0,64)'
PUBLIC	??_R4JFW_Change_Team_On_Custom@@6B@		; JFW_Change_Team_On_Custom::`RTTI Complete Object Locator'
PUBLIC	??_R0?AVJFW_Change_Team_On_Custom@@@8		; JFW_Change_Team_On_Custom `RTTI Type Descriptor'
PUBLIC	??_R3JFW_Change_Team_On_Custom@@8		; JFW_Change_Team_On_Custom::`RTTI Class Hierarchy Descriptor'
PUBLIC	??_R2JFW_Change_Team_On_Custom@@8		; JFW_Change_Team_On_Custom::`RTTI Base Class Array'
PUBLIC	??_R1A@?0A@EA@JFW_Change_Team_On_Custom@@8	; JFW_Change_Team_On_Custom::`RTTI Base Class Descriptor at (0,-1,0,64)'
PUBLIC	??_R4JFW_Enable_Team_Radar_On_Custom@@6B@	; JFW_Enable_Team_Radar_On_Custom::`RTTI Complete Object Locator'
PUBLIC	??_R0?AVJFW_Enable_Team_Radar_On_Custom@@@8	; JFW_Enable_Team_Radar_On_Custom `RTTI Type Descriptor'
PUBLIC	??_R3JFW_Enable_Team_Radar_On_Custom@@8		; JFW_Enable_Team_Radar_On_Custom::`RTTI Class Hierarchy Descriptor'
PUBLIC	??_R2JFW_Enable_Team_Radar_On_Custom@@8		; JFW_Enable_Team_Radar_On_Custom::`RTTI Base Class Array'
PUBLIC	??_R1A@?0A@EA@JFW_Enable_Team_Radar_On_Custom@@8 ; JFW_Enable_Team_Radar_On_Custom::`RTTI Base Class Descriptor at (0,-1,0,64)'
PUBLIC	??_R4JFW_2D_Sound_Team_Custom@@6B@		; JFW_2D_Sound_Team_Custom::`RTTI Complete Object Locator'
PUBLIC	??_R0?AVJFW_2D_Sound_Team_Custom@@@8		; JFW_2D_Sound_Team_Custom `RTTI Type Descriptor'
PUBLIC	??_R3JFW_2D_Sound_Team_Custom@@8		; JFW_2D_Sound_Team_Custom::`RTTI Class Hierarchy Descriptor'
PUBLIC	??_R2JFW_2D_Sound_Team_Custom@@8		; JFW_2D_Sound_Team_Custom::`RTTI Base Class Array'
PUBLIC	??_R1A@?0A@EA@JFW_2D_Sound_Team_Custom@@8	; JFW_2D_Sound_Team_Custom::`RTTI Base Class Descriptor at (0,-1,0,64)'
PUBLIC	??_R4JFW_3D_Sound_Team_Custom@@6B@		; JFW_3D_Sound_Team_Custom::`RTTI Complete Object Locator'
PUBLIC	??_R0?AVJFW_3D_Sound_Team_Custom@@@8		; JFW_3D_Sound_Team_Custom `RTTI Type Descriptor'
PUBLIC	??_R3JFW_3D_Sound_Team_Custom@@8		; JFW_3D_Sound_Team_Custom::`RTTI Class Hierarchy Descriptor'
PUBLIC	??_R2JFW_3D_Sound_Team_Custom@@8		; JFW_3D_Sound_Team_Custom::`RTTI Base Class Array'
PUBLIC	??_R1A@?0A@EA@JFW_3D_Sound_Team_Custom@@8	; JFW_3D_Sound_Team_Custom::`RTTI Base Class Descriptor at (0,-1,0,64)'
PUBLIC	??_R4JFW_Send_Custom_Distance_Objects_Timer@@6B@ ; JFW_Send_Custom_Distance_Objects_Timer::`RTTI Complete Object Locator'
PUBLIC	??_R0?AVJFW_Send_Custom_Distance_Objects_Timer@@@8 ; JFW_Send_Custom_Distance_Objects_Timer `RTTI Type Descriptor'
PUBLIC	??_R3JFW_Send_Custom_Distance_Objects_Timer@@8	; JFW_Send_Custom_Distance_Objects_Timer::`RTTI Class Hierarchy Descriptor'
PUBLIC	??_R2JFW_Send_Custom_Distance_Objects_Timer@@8	; JFW_Send_Custom_Distance_Objects_Timer::`RTTI Base Class Array'
PUBLIC	??_R1A@?0A@EA@JFW_Send_Custom_Distance_Objects_Timer@@8 ; JFW_Send_Custom_Distance_Objects_Timer::`RTTI Base Class Descriptor at (0,-1,0,64)'
PUBLIC	??_R4JFW_Send_Custom_Distance_Objects_Custom@@6B@ ; JFW_Send_Custom_Distance_Objects_Custom::`RTTI Complete Object Locator'
PUBLIC	??_R0?AVJFW_Send_Custom_Distance_Objects_Custom@@@8 ; JFW_Send_Custom_Distance_Objects_Custom `RTTI Type Descriptor'
PUBLIC	??_R3JFW_Send_Custom_Distance_Objects_Custom@@8	; JFW_Send_Custom_Distance_Objects_Custom::`RTTI Class Hierarchy Descriptor'
PUBLIC	??_R2JFW_Send_Custom_Distance_Objects_Custom@@8	; JFW_Send_Custom_Distance_Objects_Custom::`RTTI Base Class Array'
PUBLIC	??_R1A@?0A@EA@JFW_Send_Custom_Distance_Objects_Custom@@8 ; JFW_Send_Custom_Distance_Objects_Custom::`RTTI Base Class Descriptor at (0,-1,0,64)'
PUBLIC	??_R4JFW_Send_Custom_All_Objects_Timer@@6B@	; JFW_Send_Custom_All_Objects_Timer::`RTTI Complete Object Locator'
PUBLIC	??_R0?AVJFW_Send_Custom_All_Objects_Timer@@@8	; JFW_Send_Custom_All_Objects_Timer `RTTI Type Descriptor'
PUBLIC	??_R3JFW_Send_Custom_All_Objects_Timer@@8	; JFW_Send_Custom_All_Objects_Timer::`RTTI Class Hierarchy Descriptor'
PUBLIC	??_R2JFW_Send_Custom_All_Objects_Timer@@8	; JFW_Send_Custom_All_Objects_Timer::`RTTI Base Class Array'
PUBLIC	??_R1A@?0A@EA@JFW_Send_Custom_All_Objects_Timer@@8 ; JFW_Send_Custom_All_Objects_Timer::`RTTI Base Class Descriptor at (0,-1,0,64)'
PUBLIC	??_R4JFW_Send_Custom_All_Objects_Custom@@6B@	; JFW_Send_Custom_All_Objects_Custom::`RTTI Complete Object Locator'
PUBLIC	??_R0?AVJFW_Send_Custom_All_Objects_Custom@@@8	; JFW_Send_Custom_All_Objects_Custom `RTTI Type Descriptor'
PUBLIC	??_R3JFW_Send_Custom_All_Objects_Custom@@8	; JFW_Send_Custom_All_Objects_Custom::`RTTI Class Hierarchy Descriptor'
PUBLIC	??_R2JFW_Send_Custom_All_Objects_Custom@@8	; JFW_Send_Custom_All_Objects_Custom::`RTTI Base Class Array'
PUBLIC	??_R1A@?0A@EA@JFW_Send_Custom_All_Objects_Custom@@8 ; JFW_Send_Custom_All_Objects_Custom::`RTTI Base Class Descriptor at (0,-1,0,64)'
PUBLIC	??_R4JFW_Destroy_Create_Object_On_Custom@@6B@	; JFW_Destroy_Create_Object_On_Custom::`RTTI Complete Object Locator'
PUBLIC	??_R0?AVJFW_Destroy_Create_Object_On_Custom@@@8	; JFW_Destroy_Create_Object_On_Custom `RTTI Type Descriptor'
PUBLIC	??_R3JFW_Destroy_Create_Object_On_Custom@@8	; JFW_Destroy_Create_Object_On_Custom::`RTTI Class Hierarchy Descriptor'
PUBLIC	??_R2JFW_Destroy_Create_Object_On_Custom@@8	; JFW_Destroy_Create_Object_On_Custom::`RTTI Base Class Array'
PUBLIC	??_R1A@?0A@EA@JFW_Destroy_Create_Object_On_Custom@@8 ; JFW_Destroy_Create_Object_On_Custom::`RTTI Base Class Descriptor at (0,-1,0,64)'
PUBLIC	??_R4JFW_Send_Message_Preset@@6B@		; JFW_Send_Message_Preset::`RTTI Complete Object Locator'
PUBLIC	??_R0?AVJFW_Send_Message_Preset@@@8		; JFW_Send_Message_Preset `RTTI Type Descriptor'
PUBLIC	??_R3JFW_Send_Message_Preset@@8			; JFW_Send_Message_Preset::`RTTI Class Hierarchy Descriptor'
PUBLIC	??_R2JFW_Send_Message_Preset@@8			; JFW_Send_Message_Preset::`RTTI Base Class Array'
PUBLIC	??_R1A@?0A@EA@JFW_Send_Message_Preset@@8	; JFW_Send_Message_Preset::`RTTI Base Class Descriptor at (0,-1,0,64)'
PUBLIC	??_R4JFW_Shader_Custom_Zone_Entry@@6B@		; JFW_Shader_Custom_Zone_Entry::`RTTI Complete Object Locator'
PUBLIC	??_R0?AVJFW_Shader_Custom_Zone_Entry@@@8	; JFW_Shader_Custom_Zone_Entry `RTTI Type Descriptor'
PUBLIC	??_R3JFW_Shader_Custom_Zone_Entry@@8		; JFW_Shader_Custom_Zone_Entry::`RTTI Class Hierarchy Descriptor'
PUBLIC	??_R2JFW_Shader_Custom_Zone_Entry@@8		; JFW_Shader_Custom_Zone_Entry::`RTTI Base Class Array'
PUBLIC	??_R1A@?0A@EA@JFW_Shader_Custom_Zone_Entry@@8	; JFW_Shader_Custom_Zone_Entry::`RTTI Base Class Descriptor at (0,-1,0,64)'
PUBLIC	??_R4JFW_Shader_Custom_Zone_Exit@@6B@		; JFW_Shader_Custom_Zone_Exit::`RTTI Complete Object Locator'
PUBLIC	??_R0?AVJFW_Shader_Custom_Zone_Exit@@@8		; JFW_Shader_Custom_Zone_Exit `RTTI Type Descriptor'
PUBLIC	??_R3JFW_Shader_Custom_Zone_Exit@@8		; JFW_Shader_Custom_Zone_Exit::`RTTI Class Hierarchy Descriptor'
PUBLIC	??_R2JFW_Shader_Custom_Zone_Exit@@8		; JFW_Shader_Custom_Zone_Exit::`RTTI Base Class Array'
PUBLIC	??_R1A@?0A@EA@JFW_Shader_Custom_Zone_Exit@@8	; JFW_Shader_Custom_Zone_Exit::`RTTI Base Class Descriptor at (0,-1,0,64)'
PUBLIC	??_R4JFW_Shader_Custom_Vehicle_Entry@@6B@	; JFW_Shader_Custom_Vehicle_Entry::`RTTI Complete Object Locator'
PUBLIC	??_R0?AVJFW_Shader_Custom_Vehicle_Entry@@@8	; JFW_Shader_Custom_Vehicle_Entry `RTTI Type Descriptor'
PUBLIC	??_R3JFW_Shader_Custom_Vehicle_Entry@@8		; JFW_Shader_Custom_Vehicle_Entry::`RTTI Class Hierarchy Descriptor'
PUBLIC	??_R2JFW_Shader_Custom_Vehicle_Entry@@8		; JFW_Shader_Custom_Vehicle_Entry::`RTTI Base Class Array'
PUBLIC	??_R1A@?0A@EA@JFW_Shader_Custom_Vehicle_Entry@@8 ; JFW_Shader_Custom_Vehicle_Entry::`RTTI Base Class Descriptor at (0,-1,0,64)'
PUBLIC	??_R4JFW_Shader_Custom_Vehicle_Exit@@6B@	; JFW_Shader_Custom_Vehicle_Exit::`RTTI Complete Object Locator'
PUBLIC	??_R0?AVJFW_Shader_Custom_Vehicle_Exit@@@8	; JFW_Shader_Custom_Vehicle_Exit `RTTI Type Descriptor'
PUBLIC	??_R3JFW_Shader_Custom_Vehicle_Exit@@8		; JFW_Shader_Custom_Vehicle_Exit::`RTTI Class Hierarchy Descriptor'
PUBLIC	??_R2JFW_Shader_Custom_Vehicle_Exit@@8		; JFW_Shader_Custom_Vehicle_Exit::`RTTI Base Class Array'
PUBLIC	??_R1A@?0A@EA@JFW_Shader_Custom_Vehicle_Exit@@8	; JFW_Shader_Custom_Vehicle_Exit::`RTTI Base Class Descriptor at (0,-1,0,64)'
PUBLIC	??_R4JFW_Shader_Custom_Create@@6B@		; JFW_Shader_Custom_Create::`RTTI Complete Object Locator'
PUBLIC	??_R0?AVJFW_Shader_Custom_Create@@@8		; JFW_Shader_Custom_Create `RTTI Type Descriptor'
PUBLIC	??_R3JFW_Shader_Custom_Create@@8		; JFW_Shader_Custom_Create::`RTTI Class Hierarchy Descriptor'
PUBLIC	??_R2JFW_Shader_Custom_Create@@8		; JFW_Shader_Custom_Create::`RTTI Base Class Array'
PUBLIC	??_R1A@?0A@EA@JFW_Shader_Custom_Create@@8	; JFW_Shader_Custom_Create::`RTTI Base Class Descriptor at (0,-1,0,64)'
PUBLIC	??_R4JFW_Shader_Custom_Poke@@6B@		; JFW_Shader_Custom_Poke::`RTTI Complete Object Locator'
PUBLIC	??_R0?AVJFW_Shader_Custom_Poke@@@8		; JFW_Shader_Custom_Poke `RTTI Type Descriptor'
PUBLIC	??_R3JFW_Shader_Custom_Poke@@8			; JFW_Shader_Custom_Poke::`RTTI Class Hierarchy Descriptor'
PUBLIC	??_R2JFW_Shader_Custom_Poke@@8			; JFW_Shader_Custom_Poke::`RTTI Base Class Array'
PUBLIC	??_R1A@?0A@EA@JFW_Shader_Custom_Poke@@8		; JFW_Shader_Custom_Poke::`RTTI Base Class Descriptor at (0,-1,0,64)'
PUBLIC	??_R4JFW_Kill_All_Buildings_Customs@@6B@	; JFW_Kill_All_Buildings_Customs::`RTTI Complete Object Locator'
PUBLIC	??_R0?AVJFW_Kill_All_Buildings_Customs@@@8	; JFW_Kill_All_Buildings_Customs `RTTI Type Descriptor'
PUBLIC	??_R3JFW_Kill_All_Buildings_Customs@@8		; JFW_Kill_All_Buildings_Customs::`RTTI Class Hierarchy Descriptor'
PUBLIC	??_R2JFW_Kill_All_Buildings_Customs@@8		; JFW_Kill_All_Buildings_Customs::`RTTI Base Class Array'
PUBLIC	??_R1A@?0A@EA@JFW_Kill_All_Buildings_Customs@@8	; JFW_Kill_All_Buildings_Customs::`RTTI Base Class Descriptor at (0,-1,0,64)'
PUBLIC	??_R4JFW_Send_Self_Custom_On_Key@@6B@		; JFW_Send_Self_Custom_On_Key::`RTTI Complete Object Locator'
PUBLIC	??_R0?AVJFW_Send_Self_Custom_On_Key@@@8		; JFW_Send_Self_Custom_On_Key `RTTI Type Descriptor'
PUBLIC	??_R3JFW_Send_Self_Custom_On_Key@@8		; JFW_Send_Self_Custom_On_Key::`RTTI Class Hierarchy Descriptor'
PUBLIC	??_R2JFW_Send_Self_Custom_On_Key@@8		; JFW_Send_Self_Custom_On_Key::`RTTI Base Class Array'
PUBLIC	??_R1A@?0A@EA@JFW_Send_Self_Custom_On_Key@@8	; JFW_Send_Self_Custom_On_Key::`RTTI Base Class Descriptor at (0,-1,0,64)'
PUBLIC	??_R4JFW_Send_Message_On_Key@@6B@		; JFW_Send_Message_On_Key::`RTTI Complete Object Locator'
PUBLIC	??_R0?AVJFW_Send_Message_On_Key@@@8		; JFW_Send_Message_On_Key `RTTI Type Descriptor'
PUBLIC	??_R3JFW_Send_Message_On_Key@@8			; JFW_Send_Message_On_Key::`RTTI Class Hierarchy Descriptor'
PUBLIC	??_R2JFW_Send_Message_On_Key@@8			; JFW_Send_Message_On_Key::`RTTI Base Class Array'
PUBLIC	??_R1A@?0A@EA@JFW_Send_Message_On_Key@@8	; JFW_Send_Message_On_Key::`RTTI Base Class Descriptor at (0,-1,0,64)'
PUBLIC	??_R4JFW_Startup_Custom_Self@@6B@		; JFW_Startup_Custom_Self::`RTTI Complete Object Locator'
PUBLIC	??_R0?AVJFW_Startup_Custom_Self@@@8		; JFW_Startup_Custom_Self `RTTI Type Descriptor'
PUBLIC	??_R3JFW_Startup_Custom_Self@@8			; JFW_Startup_Custom_Self::`RTTI Class Hierarchy Descriptor'
PUBLIC	??_R2JFW_Startup_Custom_Self@@8			; JFW_Startup_Custom_Self::`RTTI Base Class Array'
PUBLIC	??_R1A@?0A@EA@JFW_Startup_Custom_Self@@8	; JFW_Startup_Custom_Self::`RTTI Base Class Descriptor at (0,-1,0,64)'
PUBLIC	??_R4JFW_Send_Custom_On_Damage@@6B@		; JFW_Send_Custom_On_Damage::`RTTI Complete Object Locator'
PUBLIC	??_R0?AVJFW_Send_Custom_On_Damage@@@8		; JFW_Send_Custom_On_Damage `RTTI Type Descriptor'
PUBLIC	??_R3JFW_Send_Custom_On_Damage@@8		; JFW_Send_Custom_On_Damage::`RTTI Class Hierarchy Descriptor'
PUBLIC	??_R2JFW_Send_Custom_On_Damage@@8		; JFW_Send_Custom_On_Damage::`RTTI Base Class Array'
PUBLIC	??_R1A@?0A@EA@JFW_Send_Custom_On_Damage@@8	; JFW_Send_Custom_On_Damage::`RTTI Base Class Descriptor at (0,-1,0,64)'
PUBLIC	??_R4?$ScriptRegistrant@VJFW_Send_Custom_Distance_Objects_Timer@@@@6B@ ; ScriptRegistrant<JFW_Send_Custom_Distance_Objects_Timer>::`RTTI Complete Object Locator'
PUBLIC	??_R0?AV?$ScriptRegistrant@VJFW_Send_Custom_Distance_Objects_Timer@@@@@8 ; ScriptRegistrant<JFW_Send_Custom_Distance_Objects_Timer> `RTTI Type Descriptor'
PUBLIC	??_R3?$ScriptRegistrant@VJFW_Send_Custom_Distance_Objects_Timer@@@@8 ; ScriptRegistrant<JFW_Send_Custom_Distance_Objects_Timer>::`RTTI Class Hierarchy Descriptor'
PUBLIC	??_R2?$ScriptRegistrant@VJFW_Send_Custom_Distance_Objects_Timer@@@@8 ; ScriptRegistrant<JFW_Send_Custom_Distance_Objects_Timer>::`RTTI Base Class Array'
PUBLIC	??_R1A@?0A@EA@?$ScriptRegistrant@VJFW_Send_Custom_Distance_Objects_Timer@@@@8 ; ScriptRegistrant<JFW_Send_Custom_Distance_Objects_Timer>::`RTTI Base Class Descriptor at (0,-1,0,64)'
PUBLIC	??_R4?$ScriptRegistrant@VJFW_Send_Custom_Distance_Objects_Custom@@@@6B@ ; ScriptRegistrant<JFW_Send_Custom_Distance_Objects_Custom>::`RTTI Complete Object Locator'
PUBLIC	??_R0?AV?$ScriptRegistrant@VJFW_Send_Custom_Distance_Objects_Custom@@@@@8 ; ScriptRegistrant<JFW_Send_Custom_Distance_Objects_Custom> `RTTI Type Descriptor'
PUBLIC	??_R3?$ScriptRegistrant@VJFW_Send_Custom_Distance_Objects_Custom@@@@8 ; ScriptRegistrant<JFW_Send_Custom_Distance_Objects_Custom>::`RTTI Class Hierarchy Descriptor'
PUBLIC	??_R2?$ScriptRegistrant@VJFW_Send_Custom_Distance_Objects_Custom@@@@8 ; ScriptRegistrant<JFW_Send_Custom_Distance_Objects_Custom>::`RTTI Base Class Array'
PUBLIC	??_R1A@?0A@EA@?$ScriptRegistrant@VJFW_Send_Custom_Distance_Objects_Custom@@@@8 ; ScriptRegistrant<JFW_Send_Custom_Distance_Objects_Custom>::`RTTI Base Class Descriptor at (0,-1,0,64)'
PUBLIC	??_R4?$ScriptRegistrant@VJFW_Send_Custom_All_Objects_Timer@@@@6B@ ; ScriptRegistrant<JFW_Send_Custom_All_Objects_Timer>::`RTTI Complete Object Locator'
PUBLIC	??_R0?AV?$ScriptRegistrant@VJFW_Send_Custom_All_Objects_Timer@@@@@8 ; ScriptRegistrant<JFW_Send_Custom_All_Objects_Timer> `RTTI Type Descriptor'
PUBLIC	??_R3?$ScriptRegistrant@VJFW_Send_Custom_All_Objects_Timer@@@@8 ; ScriptRegistrant<JFW_Send_Custom_All_Objects_Timer>::`RTTI Class Hierarchy Descriptor'
PUBLIC	??_R2?$ScriptRegistrant@VJFW_Send_Custom_All_Objects_Timer@@@@8 ; ScriptRegistrant<JFW_Send_Custom_All_Objects_Timer>::`RTTI Base Class Array'
PUBLIC	??_R1A@?0A@EA@?$ScriptRegistrant@VJFW_Send_Custom_All_Objects_Timer@@@@8 ; ScriptRegistrant<JFW_Send_Custom_All_Objects_Timer>::`RTTI Base Class Descriptor at (0,-1,0,64)'
PUBLIC	??_R4?$ScriptRegistrant@VJFW_Send_Custom_All_Objects_Custom@@@@6B@ ; ScriptRegistrant<JFW_Send_Custom_All_Objects_Custom>::`RTTI Complete Object Locator'
PUBLIC	??_R0?AV?$ScriptRegistrant@VJFW_Send_Custom_All_Objects_Custom@@@@@8 ; ScriptRegistrant<JFW_Send_Custom_All_Objects_Custom> `RTTI Type Descriptor'
PUBLIC	??_R3?$ScriptRegistrant@VJFW_Send_Custom_All_Objects_Custom@@@@8 ; ScriptRegistrant<JFW_Send_Custom_All_Objects_Custom>::`RTTI Class Hierarchy Descriptor'
PUBLIC	??_R2?$ScriptRegistrant@VJFW_Send_Custom_All_Objects_Custom@@@@8 ; ScriptRegistrant<JFW_Send_Custom_All_Objects_Custom>::`RTTI Base Class Array'
PUBLIC	??_R1A@?0A@EA@?$ScriptRegistrant@VJFW_Send_Custom_All_Objects_Custom@@@@8 ; ScriptRegistrant<JFW_Send_Custom_All_Objects_Custom>::`RTTI Base Class Descriptor at (0,-1,0,64)'
PUBLIC	??_R4?$ScriptRegistrant@VJFW_Send_Message_Preset@@@@6B@ ; ScriptRegistrant<JFW_Send_Message_Preset>::`RTTI Complete Object Locator'
PUBLIC	??_R0?AV?$ScriptRegistrant@VJFW_Send_Message_Preset@@@@@8 ; ScriptRegistrant<JFW_Send_Message_Preset> `RTTI Type Descriptor'
PUBLIC	??_R3?$ScriptRegistrant@VJFW_Send_Message_Preset@@@@8 ; ScriptRegistrant<JFW_Send_Message_Preset>::`RTTI Class Hierarchy Descriptor'
PUBLIC	??_R2?$ScriptRegistrant@VJFW_Send_Message_Preset@@@@8 ; ScriptRegistrant<JFW_Send_Message_Preset>::`RTTI Base Class Array'
PUBLIC	??_R1A@?0A@EA@?$ScriptRegistrant@VJFW_Send_Message_Preset@@@@8 ; ScriptRegistrant<JFW_Send_Message_Preset>::`RTTI Base Class Descriptor at (0,-1,0,64)'
PUBLIC	??_R4?$ScriptRegistrant@VJFW_Destroy_Create_Object_On_Custom@@@@6B@ ; ScriptRegistrant<JFW_Destroy_Create_Object_On_Custom>::`RTTI Complete Object Locator'
PUBLIC	??_R0?AV?$ScriptRegistrant@VJFW_Destroy_Create_Object_On_Custom@@@@@8 ; ScriptRegistrant<JFW_Destroy_Create_Object_On_Custom> `RTTI Type Descriptor'
PUBLIC	??_R3?$ScriptRegistrant@VJFW_Destroy_Create_Object_On_Custom@@@@8 ; ScriptRegistrant<JFW_Destroy_Create_Object_On_Custom>::`RTTI Class Hierarchy Descriptor'
PUBLIC	??_R2?$ScriptRegistrant@VJFW_Destroy_Create_Object_On_Custom@@@@8 ; ScriptRegistrant<JFW_Destroy_Create_Object_On_Custom>::`RTTI Base Class Array'
PUBLIC	??_R1A@?0A@EA@?$ScriptRegistrant@VJFW_Destroy_Create_Object_On_Custom@@@@8 ; ScriptRegistrant<JFW_Destroy_Create_Object_On_Custom>::`RTTI Base Class Descriptor at (0,-1,0,64)'
PUBLIC	??_R4?$ScriptRegistrant@VJFW_Fog_Custom@@@@6B@	; ScriptRegistrant<JFW_Fog_Custom>::`RTTI Complete Object Locator'
