; Listing generated by Microsoft (R) Optimizing Compiler Version 17.00.61219.0 

	TITLE	X:\GitHub\Renegade\Dragonade_RxD\scripts\jfwgame.cpp
	.686P
	.XMM
	include listing.inc
	.model	flat

INCLUDELIB MSVCRTD
INCLUDELIB OLDNAMES

CONST	SEGMENT
_DONT_MOVE_ARRIVED_DIST DD 0447a0000r		; 1000
CONST	ENDS
PUBLIC	??_H@YGXPAXIHP6EPAX0@Z@Z			; `vector constructor iterator'
PUBLIC	??_I@YGXPAXIHP6EX0@Z@Z				; `vector destructor iterator'
PUBLIC	_acosf
PUBLIC	_asinf
PUBLIC	_atanf
PUBLIC	_atan2f
PUBLIC	_ceilf
PUBLIC	_cosf
PUBLIC	_floorf
PUBLIC	_sinf
PUBLIC	_sqrtf
PUBLIC	?acos@@YAMM@Z					; acos
PUBLIC	?asin@@YAMM@Z					; asin
PUBLIC	?atan@@YAMM@Z					; atan
PUBLIC	?atan2@@YAMMM@Z					; atan2
PUBLIC	?cos@@YAMM@Z					; cos
PUBLIC	?sin@@YAMM@Z					; sin
PUBLIC	?sqrt@@YAMM@Z					; sqrt
PUBLIC	?Fabs@WWMath@@SAMM@Z				; WWMath::Fabs
PUBLIC	?Float_To_Int_Chop@WWMath@@SAHABM@Z		; WWMath::Float_To_Int_Chop
PUBLIC	?Float_To_Int_Floor@WWMath@@SAHABM@Z		; WWMath::Float_To_Int_Floor
PUBLIC	?Cos@WWMath@@SAMM@Z				; WWMath::Cos
PUBLIC	?Sin@WWMath@@SAMM@Z				; WWMath::Sin
PUBLIC	?Sqrt@WWMath@@SAMM@Z				; WWMath::Sqrt
PUBLIC	?Inv_Sqrt@WWMath@@SIMM@Z			; WWMath::Inv_Sqrt
PUBLIC	?Float_To_Long@WWMath@@SAJM@Z			; WWMath::Float_To_Long
PUBLIC	?Fast_Sin@WWMath@@SAMM@Z			; WWMath::Fast_Sin
PUBLIC	?Fast_Inv_Sin@WWMath@@SAMM@Z			; WWMath::Fast_Inv_Sin
PUBLIC	?Fast_Cos@WWMath@@SAMM@Z			; WWMath::Fast_Cos
PUBLIC	?Fast_Inv_Cos@WWMath@@SAMM@Z			; WWMath::Fast_Inv_Cos
PUBLIC	?Fast_Acos@WWMath@@SAMM@Z			; WWMath::Fast_Acos
PUBLIC	?Fast_Asin@WWMath@@SAMM@Z			; WWMath::Fast_Asin
PUBLIC	?Acos@WWMath@@SAMM@Z				; WWMath::Acos
PUBLIC	?Asin@WWMath@@SAMM@Z				; WWMath::Asin
PUBLIC	?Atan@WWMath@@SAMM@Z				; WWMath::Atan
PUBLIC	?Atan2@WWMath@@SAMMM@Z				; WWMath::Atan2
PUBLIC	?Sign@WWMath@@SAMM@Z				; WWMath::Sign
PUBLIC	?Ceil@WWMath@@SAMM@Z				; WWMath::Ceil
PUBLIC	?Floor@WWMath@@SAMM@Z				; WWMath::Floor
PUBLIC	?Fast_Is_Float_Positive@WWMath@@SA_NABM@Z	; WWMath::Fast_Is_Float_Positive
PUBLIC	?Random_Float@WWMath@@SAMMM@Z			; WWMath::Random_Float
PUBLIC	?Clamp@WWMath@@SAMMMM@Z				; WWMath::Clamp
PUBLIC	?Clamp@WWMath@@SANNNN@Z				; WWMath::Clamp
PUBLIC	?Clamp_Int@WWMath@@SAHHHH@Z			; WWMath::Clamp_Int
PUBLIC	?Wrap@WWMath@@SAMMMM@Z				; WWMath::Wrap
PUBLIC	?Wrap@WWMath@@SANNNN@Z				; WWMath::Wrap
PUBLIC	?Min@WWMath@@SAMMM@Z				; WWMath::Min
PUBLIC	?Max@WWMath@@SAMMM@Z				; WWMath::Max
PUBLIC	?Lerp@WWMath@@SAMMMM@Z				; WWMath::Lerp
PUBLIC	?Lerp@WWMath@@SANNNM@Z				; WWMath::Lerp
PUBLIC	?Lerp@WWMath@@SAHHHM@Z				; WWMath::Lerp
PUBLIC	?Float_To_Long@WWMath@@SAJN@Z			; WWMath::Float_To_Long
PUBLIC	?Unit_Float_To_Byte@WWMath@@SAEM@Z		; WWMath::Unit_Float_To_Byte
PUBLIC	?Byte_To_Unit_Float@WWMath@@SAME@Z		; WWMath::Byte_To_Unit_Float
PUBLIC	?Is_Valid_Float@WWMath@@SA_NM@Z			; WWMath::Is_Valid_Float
PUBLIC	?Is_Valid_Double@WWMath@@SA_NN@Z		; WWMath::Is_Valid_Double
PUBLIC	??4WWMath@@QAEAAV0@ABV0@@Z			; WWMath::operator=
PUBLIC	??B?$RefArrayHelper@M$0EAA@@@QAEPAMXZ		; RefArrayHelper<float,1024>::operator float *
PUBLIC	??0Vector3@@QAE@XZ				; Vector3::Vector3
PUBLIC	??0Vector3@@QAE@ABV0@@Z				; Vector3::Vector3
PUBLIC	??0Vector3@@QAE@MMM@Z				; Vector3::Vector3
PUBLIC	??4Vector3@@QAEAAV0@ABV0@@Z			; Vector3::operator=
PUBLIC	?Set@Vector3@@QAEXMMM@Z				; Vector3::Set
PUBLIC	??AVector3@@QAEAAMH@Z				; Vector3::operator[]
PUBLIC	??AVector3@@QBEABMH@Z				; Vector3::operator[]
PUBLIC	?Normalize@Vector3@@QAEXXZ			; Vector3::Normalize
PUBLIC	?Length@Vector3@@QBEMXZ				; Vector3::Length
PUBLIC	?Length2@Vector3@@QBEMXZ			; Vector3::Length2
PUBLIC	??YVector3@@QAEAAV0@ABV0@@Z			; Vector3::operator+=
PUBLIC	??ZVector3@@QAEAAV0@ABV0@@Z			; Vector3::operator-=
PUBLIC	??XVector3@@QAEAAV0@M@Z				; Vector3::operator*=
PUBLIC	??_0Vector3@@QAEAAV0@M@Z			; Vector3::operator/=
PUBLIC	??D@YA?AVVector3@@ABV0@M@Z			; operator*
PUBLIC	??D@YA?AVVector3@@MABV0@@Z			; operator*
PUBLIC	??H@YA?AVVector3@@ABV0@0@Z			; operator+
PUBLIC	??G@YA?AVVector3@@ABV0@0@Z			; operator-
PUBLIC	?Add@Vector3@@SAXABV1@0PAV1@@Z			; Vector3::Add
PUBLIC	?Subtract@Vector3@@SAXABV1@0PAV1@@Z		; Vector3::Subtract
PUBLIC	?Swap@@YAXAAVVector3@@0@Z			; Swap
PUBLIC	??0GameObjObserverClass@@QAE@XZ			; GameObjObserverClass::GameObjObserverClass
PUBLIC	??1GameObjObserverClass@@UAE@XZ			; GameObjObserverClass::~GameObjObserverClass
PUBLIC	?Set_ID@GameObjObserverClass@@QAEXH@Z		; GameObjObserverClass::Set_ID
PUBLIC	?Get_ID@GameObjObserverClass@@QAEHXZ		; GameObjObserverClass::Get_ID
PUBLIC	?Owner@GameObjObserverClass@@UAEPAVScriptableGameObj@@XZ ; GameObjObserverClass::Owner
PUBLIC	??0GameObjObserverClass@@QAE@ABV0@@Z		; GameObjObserverClass::GameObjObserverClass
PUBLIC	??4GameObjObserverClass@@QAEAAV0@ABV0@@Z	; GameObjObserverClass::operator=
PUBLIC	??_GGameObjObserverClass@@UAEPAXI@Z		; GameObjObserverClass::`scalar deleting destructor'
PUBLIC	??_EGameObjObserverClass@@UAEPAXI@Z		; GameObjObserverClass::`vector deleting destructor'
PUBLIC	??1ScriptClass@@UAE@XZ				; ScriptClass::~ScriptClass
PUBLIC	??0ScriptClass@@QAE@XZ				; ScriptClass::ScriptClass
PUBLIC	??0ScriptClass@@QAE@ABV0@@Z			; ScriptClass::ScriptClass
PUBLIC	??4ScriptClass@@QAEAAV0@ABV0@@Z			; ScriptClass::operator=
PUBLIC	??_GScriptClass@@UAEPAXI@Z			; ScriptClass::`scalar deleting destructor'
PUBLIC	??_EScriptClass@@UAEPAXI@Z			; ScriptClass::`vector deleting destructor'
PUBLIC	?SetFactory@ScriptImpClass@@QAEXPAVScriptFactory@@@Z ; ScriptImpClass::SetFactory
PUBLIC	?Created@ScriptImpClass@@UAEXPAVScriptableGameObj@@@Z ; ScriptImpClass::Created
PUBLIC	?Destroyed@ScriptImpClass@@UAEXPAVScriptableGameObj@@@Z ; ScriptImpClass::Destroyed
PUBLIC	?Killed@ScriptImpClass@@UAEXPAVScriptableGameObj@@0@Z ; ScriptImpClass::Killed
PUBLIC	?Damaged@ScriptImpClass@@UAEXPAVScriptableGameObj@@0M@Z ; ScriptImpClass::Damaged
PUBLIC	?Custom@ScriptImpClass@@UAEXPAVScriptableGameObj@@HH0@Z ; ScriptImpClass::Custom
PUBLIC	?Sound_Heard@ScriptImpClass@@UAEXPAVScriptableGameObj@@ABUCombatSound@@@Z ; ScriptImpClass::Sound_Heard
PUBLIC	?Enemy_Seen@ScriptImpClass@@UAEXPAVScriptableGameObj@@0@Z ; ScriptImpClass::Enemy_Seen
PUBLIC	?Action_Complete@ScriptImpClass@@UAEXPAVScriptableGameObj@@HW4ActionCompleteReason@@@Z ; ScriptImpClass::Action_Complete
PUBLIC	?Timer_Expired@ScriptImpClass@@UAEXPAVScriptableGameObj@@H@Z ; ScriptImpClass::Timer_Expired
PUBLIC	?Animation_Complete@ScriptImpClass@@UAEXPAVScriptableGameObj@@PBD@Z ; ScriptImpClass::Animation_Complete
PUBLIC	?Poked@ScriptImpClass@@UAEXPAVScriptableGameObj@@0@Z ; ScriptImpClass::Poked
PUBLIC	?Entered@ScriptImpClass@@UAEXPAVScriptableGameObj@@0@Z ; ScriptImpClass::Entered
PUBLIC	?Exited@ScriptImpClass@@UAEXPAVScriptableGameObj@@0@Z ; ScriptImpClass::Exited
PUBLIC	?Owner@ScriptImpClass@@UAEPAVScriptableGameObj@@XZ ; ScriptImpClass::Owner
PUBLIC	?Get_Owner_Ptr@ScriptImpClass@@UAEPAPAVScriptableGameObj@@XZ ; ScriptImpClass::Get_Owner_Ptr
PUBLIC	?Save_Data@ScriptImpClass@@UAEXAAVScriptSaver@@@Z ; ScriptImpClass::Save_Data
PUBLIC	?Load_Data@ScriptImpClass@@UAEXAAVScriptLoader@@@Z ; ScriptImpClass::Load_Data
PUBLIC	?Register_Auto_Save_Variables@ScriptImpClass@@UAEXXZ ; ScriptImpClass::Register_Auto_Save_Variables
PUBLIC	?Get_Parameter_Count@ScriptImpClass@@QAEHXZ	; ScriptImpClass::Get_Parameter_Count
PUBLIC	?Get_Int_Parameter@ScriptImpClass@@QAEHH@Z	; ScriptImpClass::Get_Int_Parameter
PUBLIC	?Get_Float_Parameter@ScriptImpClass@@QAEMH@Z	; ScriptImpClass::Get_Float_Parameter
PUBLIC	?Get_Bool_Parameter@ScriptImpClass@@QAE_NPBD@Z	; ScriptImpClass::Get_Bool_Parameter
PUBLIC	?Get_Bool_Parameter@ScriptImpClass@@QAE_NH@Z	; ScriptImpClass::Get_Bool_Parameter
PUBLIC	??0ScriptImpClass@@QAE@ABV0@@Z			; ScriptImpClass::ScriptImpClass
PUBLIC	??4ScriptImpClass@@QAEAAV0@ABV0@@Z		; ScriptImpClass::operator=
PUBLIC	??_GScriptImpClass@@UAEPAXI@Z			; ScriptImpClass::`scalar deleting destructor'
PUBLIC	??_EScriptImpClass@@UAEPAXI@Z			; ScriptImpClass::`vector deleting destructor'
PUBLIC	??0ActionParamsStruct@@QAE@XZ			; ActionParamsStruct::ActionParamsStruct
PUBLIC	?Set_Basic@ActionParamsStruct@@QAEXPAVGameObjObserverClass@@MHW4SoldierAIState@@@Z ; ActionParamsStruct::Set_Basic
PUBLIC	?Set_Movement@ActionParamsStruct@@QAEXABVVector3@@MM_N@Z ; ActionParamsStruct::Set_Movement
PUBLIC	?Set_Movement@ActionParamsStruct@@QAEXPAVScriptableGameObj@@MM_N@Z ; ActionParamsStruct::Set_Movement
PUBLIC	?Dock_Vehicle@ActionParamsStruct@@QAEXABVVector3@@0@Z ; ActionParamsStruct::Dock_Vehicle
PUBLIC	??0ScriptFactory@@QAE@ABV0@@Z			; ScriptFactory::ScriptFactory
PUBLIC	??4ScriptFactory@@QAEAAV0@ABV0@@Z		; ScriptFactory::operator=
PUBLIC	??_GScriptFactory@@UAEPAXI@Z			; ScriptFactory::`scalar deleting destructor'
PUBLIC	??_EScriptFactory@@UAEPAXI@Z			; ScriptFactory::`vector deleting destructor'
PUBLIC	??4ScriptRegistrar@@QAEAAV0@ABV0@@Z		; ScriptRegistrar::operator=
PUBLIC	?Is_Running@ThreadClass@@QAE_NXZ		; ThreadClass::Is_Running
PUBLIC	?Get_Current_Thread_ID@ThreadClass@@SAHXZ	; ThreadClass::Get_Current_Thread_ID
PUBLIC	?Get_Name@ThreadClass@@QAEPBDXZ			; ThreadClass::Get_Name
PUBLIC	??0ThreadClass@@QAE@ABV0@@Z			; ThreadClass::ThreadClass
PUBLIC	??4ThreadClass@@QAEAAV0@ABV0@@Z			; ThreadClass::operator=
PUBLIC	??_GThreadClass@@UAEPAXI@Z			; ThreadClass::`scalar deleting destructor'
PUBLIC	??_EThreadClass@@UAEPAXI@Z			; ThreadClass::`vector deleting destructor'
PUBLIC	??4CriticalSectionClass@@QAEAAV0@ABV0@@Z	; CriticalSectionClass::operator=
PUBLIC	?Enter@FastCriticalSectionClass@@AAEXXZ		; FastCriticalSectionClass::Enter
PUBLIC	?Leave@FastCriticalSectionClass@@AAEXXZ		; FastCriticalSectionClass::Leave
PUBLIC	??0LockClass@FastCriticalSectionClass@@QAE@AAV1@@Z ; FastCriticalSectionClass::LockClass::LockClass
PUBLIC	??1LockClass@FastCriticalSectionClass@@QAE@XZ	; FastCriticalSectionClass::LockClass::~LockClass
PUBLIC	??0FastCriticalSectionClass@@QAE@XZ		; FastCriticalSectionClass::FastCriticalSectionClass
PUBLIC	?Release_Ref@RefCountClass@@QAEXXZ		; RefCountClass::Release_Ref
PUBLIC	??0StringClass@@QAE@H_N@Z			; StringClass::StringClass
PUBLIC	??1StringClass@@QAE@XZ				; StringClass::~StringClass
PUBLIC	??BStringClass@@QBEPBDXZ			; StringClass::operator char const *
PUBLIC	??_EStringClass@@QAEPAXI@Z			; StringClass::`vector deleting destructor'
PUBLIC	??1WideStringClass@@QAE@XZ			; WideStringClass::~WideStringClass
PUBLIC	??_EWideStringClass@@QAEPAXI@Z			; WideStringClass::`vector deleting destructor'
PUBLIC	??4ChunkLoadClass@@QAEAAV0@ABV0@@Z		; ChunkLoadClass::operator=
PUBLIC	?Set_Contains_Chunks@ChunkSaveClass@@QAEXXZ	; ChunkSaveClass::Set_Contains_Chunks
PUBLIC	??4ChunkSaveClass@@QAEAAV0@ABV0@@Z		; ChunkSaveClass::operator=
PUBLIC	?Is_Present@INIClass@@QBE_NPBD0@Z		; INIClass::Is_Present
PUBLIC	?Section_Present@INIClass@@QBE_NPBD@Z		; INIClass::Section_Present
PUBLIC	?Get_Section_List@INIClass@@QAEAAV?$List@PAUINISection@@@@XZ ; INIClass::Get_Section_List
PUBLIC	?Get_Section_Index@INIClass@@QAEAAV?$IndexClass@HPAUINISection@@@@XZ ; INIClass::Get_Section_Index
PUBLIC	?Get_File_Name@INIClass@@QAEPBDXZ		; INIClass::Get_File_Name
PUBLIC	??0INIClass@@QAE@ABV0@@Z			; INIClass::INIClass
PUBLIC	??4INIClass@@QAEAAV0@ABV0@@Z			; INIClass::operator=
PUBLIC	??_GINIClass@@UAEPAXI@Z				; INIClass::`scalar deleting destructor'
PUBLIC	??_EINIClass@@UAEPAXI@Z				; INIClass::`vector deleting destructor'
PUBLIC	??Cfile_auto_ptr@@QAEPAVFileClass@@XZ		; file_auto_ptr::operator->
PUBLIC	??Bfile_auto_ptr@@QAEPAVFileClass@@XZ		; file_auto_ptr::operator FileClass *
PUBLIC	??Dfile_auto_ptr@@QAEAAVFileClass@@XZ		; file_auto_ptr::operator*
PUBLIC	?get@file_auto_ptr@@QAEPAVFileClass@@XZ		; file_auto_ptr::get
PUBLIC	??4file_auto_ptr@@QAEAAV0@ABV0@@Z		; file_auto_ptr::operator=
PUBLIC	??0Vector4@@QAE@XZ				; Vector4::Vector4
PUBLIC	??0Vector4@@QAE@MMMM@Z				; Vector4::Vector4
PUBLIC	??4Vector4@@QAEAAV0@ABV0@@Z			; Vector4::operator=
PUBLIC	?Set@Vector4@@QAEXMMMM@Z			; Vector4::Set
PUBLIC	??AVector4@@QAEAAMH@Z				; Vector4::operator[]
PUBLIC	??AVector4@@QBEABMH@Z				; Vector4::operator[]
PUBLIC	??YVector4@@QAEAAV0@ABV0@@Z			; Vector4::operator+=
PUBLIC	??ZVector4@@QAEAAV0@ABV0@@Z			; Vector4::operator-=
PUBLIC	??XVector4@@QAEAAV0@M@Z				; Vector4::operator*=
PUBLIC	??AMatrix3D@@QAEAAVVector4@@H@Z			; Matrix3D::operator[]
PUBLIC	??AMatrix3D@@QBEABVVector4@@H@Z			; Matrix3D::operator[]
PUBLIC	??0Matrix3D@@QAE@_N@Z				; Matrix3D::Matrix3D
PUBLIC	??0Matrix3D@@QAE@QAM@Z				; Matrix3D::Matrix3D
PUBLIC	??0Matrix3D@@QAE@ABVVector3@@000@Z		; Matrix3D::Matrix3D
PUBLIC	??0Matrix3D@@QAE@ABVVector3@@M@Z		; Matrix3D::Matrix3D
PUBLIC	??0Matrix3D@@QAE@ABVVector3@@MM@Z		; Matrix3D::Matrix3D
PUBLIC	??0Matrix3D@@QAE@ABVMatrix3@@ABVVector3@@@Z	; Matrix3D::Matrix3D
PUBLIC	??0Matrix3D@@QAE@ABVQuaternion@@ABVVector3@@@Z	; Matrix3D::Matrix3D
PUBLIC	??0Matrix3D@@QAE@ABVVector3@@@Z			; Matrix3D::Matrix3D
PUBLIC	??0Matrix3D@@QAE@ABV0@@Z			; Matrix3D::Matrix3D
PUBLIC	??4Matrix3D@@QAEAAV0@ABV0@@Z			; Matrix3D::operator=
PUBLIC	?Set@Matrix3D@@QAEXQAM@Z			; Matrix3D::Set
PUBLIC	?Set@Matrix3D@@QAEXMMMMMMMMMMMM@Z		; Matrix3D::Set
PUBLIC	?Set@Matrix3D@@QAEXABVVector3@@000@Z		; Matrix3D::Set
PUBLIC	?Set@Matrix3D@@QAEXABVVector3@@M@Z		; Matrix3D::Set
PUBLIC	?Set@Matrix3D@@QAEXABVVector3@@MM@Z		; Matrix3D::Set
PUBLIC	?Set@Matrix3D@@QAEXABVVector3@@@Z		; Matrix3D::Set
PUBLIC	?Get_Translation@Matrix3D@@QBE?AVVector3@@XZ	; Matrix3D::Get_Translation
PUBLIC	?Get_Translation@Matrix3D@@QBEXPAVVector3@@@Z	; Matrix3D::Get_Translation
PUBLIC	?Set_Translation@Matrix3D@@QAEXABVVector3@@@Z	; Matrix3D::Set_Translation
PUBLIC	?Get_X_Translation@Matrix3D@@QBEMXZ		; Matrix3D::Get_X_Translation
PUBLIC	?Get_Y_Translation@Matrix3D@@QBEMXZ		; Matrix3D::Get_Y_Translation
PUBLIC	?Get_Z_Translation@Matrix3D@@QBEMXZ		; Matrix3D::Get_Z_Translation
PUBLIC	?Set_X_Translation@Matrix3D@@QAEXM@Z		; Matrix3D::Set_X_Translation
PUBLIC	?Set_Y_Translation@Matrix3D@@QAEXM@Z		; Matrix3D::Set_Y_Translation
PUBLIC	?Set_Z_Translation@Matrix3D@@QAEXM@Z		; Matrix3D::Set_Z_Translation
PUBLIC	?Adjust_Translation@Matrix3D@@QAEXABVVector3@@@Z ; Matrix3D::Adjust_Translation
PUBLIC	?Adjust_X_Translation@Matrix3D@@QAEXM@Z		; Matrix3D::Adjust_X_Translation
PUBLIC	?Adjust_Y_Translation@Matrix3D@@QAEXM@Z		; Matrix3D::Adjust_Y_Translation
PUBLIC	?Adjust_Z_Translation@Matrix3D@@QAEXM@Z		; Matrix3D::Adjust_Z_Translation
PUBLIC	?Make_Identity@Matrix3D@@QAEXXZ			; Matrix3D::Make_Identity
PUBLIC	?Translate@Matrix3D@@QAEXMMM@Z			; Matrix3D::Translate
PUBLIC	?Translate@Matrix3D@@QAEXABVVector3@@@Z		; Matrix3D::Translate
PUBLIC	?Translate_X@Matrix3D@@QAEXM@Z			; Matrix3D::Translate_X
PUBLIC	?Translate_Y@Matrix3D@@QAEXM@Z			; Matrix3D::Translate_Y
PUBLIC	?Translate_Z@Matrix3D@@QAEXM@Z			; Matrix3D::Translate_Z
PUBLIC	?Rotate_X@Matrix3D@@QAEXM@Z			; Matrix3D::Rotate_X
PUBLIC	?Rotate_Y@Matrix3D@@QAEXM@Z			; Matrix3D::Rotate_Y
PUBLIC	?Rotate_Z@Matrix3D@@QAEXM@Z			; Matrix3D::Rotate_Z
PUBLIC	?Rotate_X@Matrix3D@@QAEXMM@Z			; Matrix3D::Rotate_X
PUBLIC	?Rotate_Y@Matrix3D@@QAEXMM@Z			; Matrix3D::Rotate_Y
PUBLIC	?Rotate_Z@Matrix3D@@QAEXMM@Z			; Matrix3D::Rotate_Z
PUBLIC	?Scale@Matrix3D@@QAEXM@Z			; Matrix3D::Scale
PUBLIC	?Scale@Matrix3D@@QAEXMMM@Z			; Matrix3D::Scale
PUBLIC	?Scale@Matrix3D@@QAEXAAVVector3@@@Z		; Matrix3D::Scale
PUBLIC	?Pre_Rotate_X@Matrix3D@@QAEXM@Z			; Matrix3D::Pre_Rotate_X
PUBLIC	?Pre_Rotate_Y@Matrix3D@@QAEXM@Z			; Matrix3D::Pre_Rotate_Y
PUBLIC	?Pre_Rotate_Z@Matrix3D@@QAEXM@Z			; Matrix3D::Pre_Rotate_Z
PUBLIC	?Pre_Rotate_X@Matrix3D@@QAEXMM@Z		; Matrix3D::Pre_Rotate_X
PUBLIC	?Pre_Rotate_Y@Matrix3D@@QAEXMM@Z		; Matrix3D::Pre_Rotate_Y
PUBLIC	?Pre_Rotate_Z@Matrix3D@@QAEXMM@Z		; Matrix3D::Pre_Rotate_Z
PUBLIC	?In_Place_Pre_Rotate_X@Matrix3D@@QAEXM@Z	; Matrix3D::In_Place_Pre_Rotate_X
PUBLIC	?In_Place_Pre_Rotate_Y@Matrix3D@@QAEXM@Z	; Matrix3D::In_Place_Pre_Rotate_Y
PUBLIC	?In_Place_Pre_Rotate_Z@Matrix3D@@QAEXM@Z	; Matrix3D::In_Place_Pre_Rotate_Z
PUBLIC	?In_Place_Pre_Rotate_X@Matrix3D@@QAEXMM@Z	; Matrix3D::In_Place_Pre_Rotate_X
PUBLIC	?In_Place_Pre_Rotate_Y@Matrix3D@@QAEXMM@Z	; Matrix3D::In_Place_Pre_Rotate_Y
PUBLIC	?In_Place_Pre_Rotate_Z@Matrix3D@@QAEXMM@Z	; Matrix3D::In_Place_Pre_Rotate_Z
PUBLIC	?Transform_Vector@Matrix3D@@SAXABV1@ABVVector3@@PAV2@@Z ; Matrix3D::Transform_Vector
PUBLIC	?Get_X_Vector@Matrix3D@@QBE?AVVector3@@XZ	; Matrix3D::Get_X_Vector
PUBLIC	?Get_Y_Vector@Matrix3D@@QBE?AVVector3@@XZ	; Matrix3D::Get_Y_Vector
PUBLIC	?Get_Z_Vector@Matrix3D@@QBE?AVVector3@@XZ	; Matrix3D::Get_Z_Vector
PUBLIC	?Get_X_Vector@Matrix3D@@QBEXPAVVector3@@@Z	; Matrix3D::Get_X_Vector
PUBLIC	?Get_Y_Vector@Matrix3D@@QBEXPAVVector3@@@Z	; Matrix3D::Get_Y_Vector
PUBLIC	?Get_Z_Vector@Matrix3D@@QBEXPAVVector3@@@Z	; Matrix3D::Get_Z_Vector
PUBLIC	?Rotate_Vector@Matrix3D@@SAXABV1@ABVVector3@@PAV2@@Z ; Matrix3D::Rotate_Vector
PUBLIC	?Inverse_Transform_Vector@Matrix3D@@SAXABV1@ABVVector3@@PAV2@@Z ; Matrix3D::Inverse_Transform_Vector
PUBLIC	?Inverse_Rotate_Vector@Matrix3D@@SAXABV1@ABVVector3@@PAV2@@Z ; Matrix3D::Inverse_Rotate_Vector
PUBLIC	??0Matrix4@@QAE@XZ				; Matrix4::Matrix4
PUBLIC	??0Matrix4@@QAE@ABV0@@Z				; Matrix4::Matrix4
PUBLIC	??0Matrix4@@QAE@_N@Z				; Matrix4::Matrix4
PUBLIC	??0Matrix4@@QAE@ABVMatrix3D@@@Z			; Matrix4::Matrix4
PUBLIC	??0Matrix4@@QAE@ABVVector4@@000@Z		; Matrix4::Matrix4
PUBLIC	?Make_Identity@Matrix4@@QAEXXZ			; Matrix4::Make_Identity
PUBLIC	?Init@Matrix4@@QAEXABVMatrix3D@@@Z		; Matrix4::Init
PUBLIC	?Init@Matrix4@@QAEXABVVector4@@000@Z		; Matrix4::Init
PUBLIC	?Init_Ortho_OGL@Matrix4@@QAEXMMMMMM@Z		; Matrix4::Init_Ortho_OGL
PUBLIC	?Init_Perspective_OGL@Matrix4@@QAEXMMMM@Z	; Matrix4::Init_Perspective_OGL
PUBLIC	?Init_Perspective_OGL@Matrix4@@QAEXMMMMMM@Z	; Matrix4::Init_Perspective_OGL
PUBLIC	?Init_Ortho@Matrix4@@QAEXMMMMMM@Z		; Matrix4::Init_Ortho
PUBLIC	?Init_Perspective@Matrix4@@QAEXMMMMMM@Z		; Matrix4::Init_Perspective
PUBLIC	??AMatrix4@@QAEAAVVector4@@H@Z			; Matrix4::operator[]
PUBLIC	??AMatrix4@@QBEABVVector4@@H@Z			; Matrix4::operator[]
PUBLIC	?Transpose@Matrix4@@QBE?AV1@XZ			; Matrix4::Transpose
PUBLIC	?Determinant@Matrix4@@QBEMXZ			; Matrix4::Determinant
PUBLIC	?Inverse@Matrix4@@QBE?AV1@XZ			; Matrix4::Inverse
PUBLIC	??4Matrix4@@QAEAAV0@ABV0@@Z			; Matrix4::operator=
PUBLIC	??YMatrix4@@QAEAAV0@ABV0@@Z			; Matrix4::operator+=
PUBLIC	??ZMatrix4@@QAEAAV0@ABV0@@Z			; Matrix4::operator-=
PUBLIC	??XMatrix4@@QAEAAV0@M@Z				; Matrix4::operator*=
PUBLIC	??_0Matrix4@@QAEAAV0@M@Z			; Matrix4::operator/=
PUBLIC	?Transform_Vector@Matrix4@@SAXABV1@ABVVector3@@PAV2@@Z ; Matrix4::Transform_Vector
PUBLIC	?Transform_Vector@Matrix4@@SAXABV1@ABVVector3@@PAVVector4@@@Z ; Matrix4::Transform_Vector
PUBLIC	?Transform_Vector@Matrix4@@SAXABV1@ABVVector4@@PAV2@@Z ; Matrix4::Transform_Vector
PUBLIC	??0Matrix3@@QAE@XZ				; Matrix3::Matrix3
PUBLIC	??0Matrix3@@QAE@ABV0@@Z				; Matrix3::Matrix3
PUBLIC	??0Matrix3@@QAE@_N@Z				; Matrix3::Matrix3
PUBLIC	??0Matrix3@@QAE@ABVVector3@@00@Z		; Matrix3::Matrix3
PUBLIC	??0Matrix3@@QAE@MMMMMMMMM@Z			; Matrix3::Matrix3
PUBLIC	??0Matrix3@@QAE@ABVVector3@@M@Z			; Matrix3::Matrix3
PUBLIC	??0Matrix3@@QAE@ABVVector3@@MM@Z		; Matrix3::Matrix3
PUBLIC	??0Matrix3@@QAE@ABVQuaternion@@@Z		; Matrix3::Matrix3
PUBLIC	?Set@Matrix3@@QAEXABVVector3@@00@Z		; Matrix3::Set
PUBLIC	?Set@Matrix3@@QAEXMMMMMMMMM@Z			; Matrix3::Set
PUBLIC	?Set@Matrix3@@QAEXABVVector3@@M@Z		; Matrix3::Set
PUBLIC	?Set@Matrix3@@QAEXABVVector3@@MM@Z		; Matrix3::Set
PUBLIC	??AMatrix3@@QAEAAVVector3@@H@Z			; Matrix3::operator[]
PUBLIC	??AMatrix3@@QBEABVVector3@@H@Z			; Matrix3::operator[]
PUBLIC	?Transpose@Matrix3@@QBE?AV1@XZ			; Matrix3::Transpose
PUBLIC	?Determinant@Matrix3@@QBEMXZ			; Matrix3::Determinant
PUBLIC	??4Matrix3@@QAEAAV0@ABV0@@Z			; Matrix3::operator=
PUBLIC	??YMatrix3@@QAEAAV0@ABV0@@Z			; Matrix3::operator+=
PUBLIC	??ZMatrix3@@QAEAAV0@ABV0@@Z			; Matrix3::operator-=
PUBLIC	??XMatrix3@@QAEAAV0@M@Z				; Matrix3::operator*=
PUBLIC	??_0Matrix3@@QAEAAV0@M@Z			; Matrix3::operator/=
PUBLIC	?Make_Identity@Matrix3@@QAEXXZ			; Matrix3::Make_Identity
PUBLIC	?Rotate_X@Matrix3@@QAEXM@Z			; Matrix3::Rotate_X
PUBLIC	?Rotate_X@Matrix3@@QAEXMM@Z			; Matrix3::Rotate_X
PUBLIC	?Rotate_Y@Matrix3@@QAEXM@Z			; Matrix3::Rotate_Y
PUBLIC	?Rotate_Y@Matrix3@@QAEXMM@Z			; Matrix3::Rotate_Y
PUBLIC	?Rotate_Z@Matrix3@@QAEXM@Z			; Matrix3::Rotate_Z
PUBLIC	?Rotate_Z@Matrix3@@QAEXMM@Z			; Matrix3::Rotate_Z
PUBLIC	?Get_X_Rotation@Matrix3@@QBEMXZ			; Matrix3::Get_X_Rotation
PUBLIC	?Get_Y_Rotation@Matrix3@@QBEMXZ			; Matrix3::Get_Y_Rotation
PUBLIC	?Get_Z_Rotation@Matrix3@@QBEMXZ			; Matrix3::Get_Z_Rotation
PUBLIC	?Get_X_Vector@Matrix3@@QBE?AVVector3@@XZ	; Matrix3::Get_X_Vector
PUBLIC	?Get_Y_Vector@Matrix3@@QBE?AVVector3@@XZ	; Matrix3::Get_Y_Vector
PUBLIC	?Get_Z_Vector@Matrix3@@QBE?AVVector3@@XZ	; Matrix3::Get_Z_Vector
PUBLIC	?Get_X_Vector@Matrix3@@QBEXPAVVector3@@@Z	; Matrix3::Get_X_Vector
PUBLIC	?Get_Y_Vector@Matrix3@@QBEXPAVVector3@@@Z	; Matrix3::Get_Y_Vector
PUBLIC	?Get_Z_Vector@Matrix3@@QBEXPAVVector3@@@Z	; Matrix3::Get_Z_Vector
PUBLIC	??D@YA?AVVector3@@ABVMatrix3@@ABV0@@Z		; operator*
PUBLIC	?Add@Matrix3@@SAXABV1@0PAV1@@Z			; Matrix3::Add
PUBLIC	?Subtract@Matrix3@@SAXABV1@0PAV1@@Z		; Matrix3::Subtract
PUBLIC	?Rotate_Vector@Matrix3@@SAXABV1@ABVVector3@@PAV2@@Z ; Matrix3::Rotate_Vector
PUBLIC	?Transpose_Rotate_Vector@Matrix3@@SAXABV1@ABVVector3@@PAV2@@Z ; Matrix3::Transpose_Rotate_Vector
PUBLIC	?Rotate_AABox_Extent@Matrix3@@QAEXABVVector3@@PAV2@@Z ; Matrix3::Rotate_AABox_Extent
PUBLIC	?Inverse@Matrix3@@QBE?AV1@XZ			; Matrix3::Inverse
PUBLIC	??4SysTimeClass@@QAEAAV0@ABV0@@Z		; SysTimeClass::operator=
PUBLIC	??0PostLoadableClass@@QAE@XZ			; PostLoadableClass::PostLoadableClass
PUBLIC	??1PostLoadableClass@@UAE@XZ			; PostLoadableClass::~PostLoadableClass
PUBLIC	?On_Post_Load@PostLoadableClass@@UAEXXZ		; PostLoadableClass::On_Post_Load
PUBLIC	?Is_Post_Load_Registered@PostLoadableClass@@QBE_NXZ ; PostLoadableClass::Is_Post_Load_Registered
PUBLIC	?Set_Post_Load_Registered@PostLoadableClass@@QAEX_N@Z ; PostLoadableClass::Set_Post_Load_Registered
PUBLIC	??0PostLoadableClass@@QAE@ABV0@@Z		; PostLoadableClass::PostLoadableClass
PUBLIC	??4PostLoadableClass@@QAEAAV0@ABV0@@Z		; PostLoadableClass::operator=
PUBLIC	??_GPostLoadableClass@@UAEPAXI@Z		; PostLoadableClass::`scalar deleting destructor'
PUBLIC	??_EPostLoadableClass@@UAEPAXI@Z		; PostLoadableClass::`vector deleting destructor'
PUBLIC	??CReferencerClass@@QAEPAVScriptableGameObj@@XZ	; ReferencerClass::operator->
PUBLIC	??0ReferencerClass@@QAE@XZ			; ReferencerClass::ReferencerClass
PUBLIC	??0ReferencerClass@@QAE@PAVScriptableGameObj@@@Z ; ReferencerClass::ReferencerClass
PUBLIC	?Get_Ptr@ReferencerClass@@QBEPAVScriptableGameObj@@XZ ; ReferencerClass::Get_Ptr
PUBLIC	?Set_Ptr@ReferencerClass@@QAEXPAVScriptableGameObj@@@Z ; ReferencerClass::Set_Ptr
PUBLIC	??0ReferencerClass@@QAE@ABV0@@Z			; ReferencerClass::ReferencerClass
PUBLIC	??_GReferencerClass@@UAEPAXI@Z			; ReferencerClass::`scalar deleting destructor'
PUBLIC	??_EReferencerClass@@UAEPAXI@Z			; ReferencerClass::`vector deleting destructor'
PUBLIC	?Get_Data@?$ReferenceableClass@VScriptableGameObj@@@@IBEPAVScriptableGameObj@@XZ ; ReferenceableClass<ScriptableGameObj>::Get_Data
PUBLIC	??0LineSegClass@@QAE@XZ				; LineSegClass::LineSegClass
PUBLIC	??0LineSegClass@@QAE@ABVVector3@@0@Z		; LineSegClass::LineSegClass
PUBLIC	??0LineSegClass@@QAE@ABVVector3@@0M@Z		; LineSegClass::LineSegClass
PUBLIC	??0LineSegClass@@QAE@ABV0@ABVMatrix3D@@@Z	; LineSegClass::LineSegClass
PUBLIC	?Set@LineSegClass@@QAEXABVVector3@@0@Z		; LineSegClass::Set
PUBLIC	?Set@LineSegClass@@QAEXABVVector3@@0M@Z		; LineSegClass::Set
PUBLIC	?Get_P0@LineSegClass@@QBEABVVector3@@XZ		; LineSegClass::Get_P0
PUBLIC	?Get_P1@LineSegClass@@QBEABVVector3@@XZ		; LineSegClass::Get_P1
PUBLIC	?Get_DP@LineSegClass@@QBEABVVector3@@XZ		; LineSegClass::Get_DP
PUBLIC	?Get_Dir@LineSegClass@@QBEABVVector3@@XZ	; LineSegClass::Get_Dir
PUBLIC	?Get_Length@LineSegClass@@QBEMXZ		; LineSegClass::Get_Length
PUBLIC	?Compute_Point@LineSegClass@@QBEXMPAVVector3@@@Z ; LineSegClass::Compute_Point
PUBLIC	?recalculate@LineSegClass@@IAEXXZ		; LineSegClass::recalculate
PUBLIC	??0LineSegClass@@QAE@ABV0@@Z			; LineSegClass::LineSegClass
PUBLIC	??4LineSegClass@@QAEAAV0@ABV0@@Z		; LineSegClass::operator=
PUBLIC	?Get_Position@PhysClass@@QBEXPAVVector3@@@Z	; PhysClass::Get_Position
PUBLIC	?Is_Immovable@PhysClass@@QBE_NXZ		; PhysClass::Is_Immovable
PUBLIC	?Get_Flag@PhysClass@@IBE_NI@Z			; PhysClass::Get_Flag
PUBLIC	?Peek_Physical_Object@PhysicalGameObj@@QBEPAVPhysClass@@XZ ; PhysicalGameObj::Peek_Physical_Object
PUBLIC	?Get_Position@PhysicalGameObj@@QAE?AVVector3@@XZ ; PhysicalGameObj::Get_Position
PUBLIC	?Is_Control_Enabled@SmartGameObj@@QAE_NXZ	; SmartGameObj::Is_Control_Enabled
PUBLIC	?Get_Type@BuildingGameObjDef@@QBE?AW4BuildingType@BuildingConstants@@XZ ; BuildingGameObjDef::Get_Type
PUBLIC	??2?$AutoPoolClass@VGenericSLNode@@$0BAA@@@SAPAXIPBDI0@Z ; AutoPoolClass<GenericSLNode,256>::operator new
PUBLIC	??3?$AutoPoolClass@VGenericSLNode@@$0BAA@@@SAXPAX@Z ; AutoPoolClass<GenericSLNode,256>::operator delete
PUBLIC	??0GenericSLNode@@IAE@PAX@Z			; GenericSLNode::GenericSLNode
PUBLIC	??0JFW_Key_Hook_Base@@QAE@XZ			; JFW_Key_Hook_Base::JFW_Key_Hook_Base
PUBLIC	??0JFW_Key_Hook_Base@@QAE@ABV0@@Z		; JFW_Key_Hook_Base::JFW_Key_Hook_Base
PUBLIC	??4JFW_Key_Hook_Base@@QAEAAV0@ABV0@@Z		; JFW_Key_Hook_Base::operator=
PUBLIC	??_GJFW_Key_Hook_Base@@UAEPAXI@Z		; JFW_Key_Hook_Base::`scalar deleting destructor'
PUBLIC	??_EJFW_Key_Hook_Base@@UAEPAXI@Z		; JFW_Key_Hook_Base::`vector deleting destructor'
PUBLIC	??0?$SList@UKeyHookWrapperStruct@MultiKeyHookScriptImpClass@@@@QAE@XZ ; SList<MultiKeyHookScriptImpClass::KeyHookWrapperStruct>::SList<MultiKeyHookScriptImpClass::KeyHookWrapperStruct>
PUBLIC	??1?$SList@UKeyHookWrapperStruct@MultiKeyHookScriptImpClass@@@@UAE@XZ ; SList<MultiKeyHookScriptImpClass::KeyHookWrapperStruct>::~SList<MultiKeyHookScriptImpClass::KeyHookWrapperStruct>
PUBLIC	?Add_Head@?$SList@UKeyHookWrapperStruct@MultiKeyHookScriptImpClass@@@@UAE_NPAUKeyHookWrapperStruct@MultiKeyHookScriptImpClass@@@Z ; SList<MultiKeyHookScriptImpClass::KeyHookWrapperStruct>::Add_Head
PUBLIC	?Add_Head@?$SList@UKeyHookWrapperStruct@MultiKeyHookScriptImpClass@@@@UAE_NAAV1@@Z ; SList<MultiKeyHookScriptImpClass::KeyHookWrapperStruct>::Add_Head
PUBLIC	?Add_Tail@?$SList@UKeyHookWrapperStruct@MultiKeyHookScriptImpClass@@@@UAE_NPAUKeyHookWrapperStruct@MultiKeyHookScriptImpClass@@@Z ; SList<MultiKeyHookScriptImpClass::KeyHookWrapperStruct>::Add_Tail
PUBLIC	?Add_Tail@?$SList@UKeyHookWrapperStruct@MultiKeyHookScriptImpClass@@@@UAE_NAAV1@@Z ; SList<MultiKeyHookScriptImpClass::KeyHookWrapperStruct>::Add_Tail
PUBLIC	?Remove_Head@?$SList@UKeyHookWrapperStruct@MultiKeyHookScriptImpClass@@@@UAEPAUKeyHookWrapperStruct@MultiKeyHookScriptImpClass@@XZ ; SList<MultiKeyHookScriptImpClass::KeyHookWrapperStruct>::Remove_Head
PUBLIC	?Remove_Tail@?$SList@UKeyHookWrapperStruct@MultiKeyHookScriptImpClass@@@@UAEPAUKeyHookWrapperStruct@MultiKeyHookScriptImpClass@@XZ ; SList<MultiKeyHookScriptImpClass::KeyHookWrapperStruct>::Remove_Tail
PUBLIC	?Remove@?$SList@UKeyHookWrapperStruct@MultiKeyHookScriptImpClass@@@@UAE_NPBUKeyHookWrapperStruct@MultiKeyHookScriptImpClass@@@Z ; SList<MultiKeyHookScriptImpClass::KeyHookWrapperStruct>::Remove
PUBLIC	?Remove_All@?$SList@UKeyHookWrapperStruct@MultiKeyHookScriptImpClass@@@@UAEXXZ ; SList<MultiKeyHookScriptImpClass::KeyHookWrapperStruct>::Remove_All
PUBLIC	?Insert_Before@?$SList@UKeyHookWrapperStruct@MultiKeyHookScriptImpClass@@@@UAE_NPAUKeyHookWrapperStruct@MultiKeyHookScriptImpClass@@PBU23@@Z ; SList<MultiKeyHookScriptImpClass::KeyHookWrapperStruct>::Insert_Before
PUBLIC	?Insert_After@?$SList@UKeyHookWrapperStruct@MultiKeyHookScriptImpClass@@@@UAE_NPAUKeyHookWrapperStruct@MultiKeyHookScriptImpClass@@PBU23@@Z ; SList<MultiKeyHookScriptImpClass::KeyHookWrapperStruct>::Insert_After
PUBLIC	?Is_Empty@?$SList@UKeyHookWrapperStruct@MultiKeyHookScriptImpClass@@@@UBE_NXZ ; SList<MultiKeyHookScriptImpClass::KeyHookWrapperStruct>::Is_Empty
PUBLIC	?Get_Count@?$SList@UKeyHookWrapperStruct@MultiKeyHookScriptImpClass@@@@UBEIXZ ; SList<MultiKeyHookScriptImpClass::KeyHookWrapperStruct>::Get_Count
PUBLIC	??0?$SList@UKeyHookWrapperStruct@MultiKeyHookScriptImpClass@@@@QAE@ABV0@@Z ; SList<MultiKeyHookScriptImpClass::KeyHookWrapperStruct>::SList<MultiKeyHookScriptImpClass::KeyHookWrapperStruct>
PUBLIC	??4?$SList@UKeyHookWrapperStruct@MultiKeyHookScriptImpClass@@@@QAEAAV0@ABV0@@Z ; SList<MultiKeyHookScriptImpClass::KeyHookWrapperStruct>::operator=
PUBLIC	??_G?$SList@UKeyHookWrapperStruct@MultiKeyHookScriptImpClass@@@@UAEPAXI@Z ; SList<MultiKeyHookScriptImpClass::KeyHookWrapperStruct>::`scalar deleting destructor'
PUBLIC	??0MultiKeyHookScriptImpClass@@QAE@XZ		; MultiKeyHookScriptImpClass::MultiKeyHookScriptImpClass
PUBLIC	??1MultiKeyHookScriptImpClass@@UAE@XZ		; MultiKeyHookScriptImpClass::~MultiKeyHookScriptImpClass
PUBLIC	??0MultiKeyHookScriptImpClass@@QAE@ABV0@@Z	; MultiKeyHookScriptImpClass::MultiKeyHookScriptImpClass
PUBLIC	??4MultiKeyHookScriptImpClass@@QAEAAV0@ABV0@@Z	; MultiKeyHookScriptImpClass::operator=
PUBLIC	??_GMultiKeyHookScriptImpClass@@UAEPAXI@Z	; MultiKeyHookScriptImpClass::`scalar deleting destructor'
PUBLIC	??_EMultiKeyHookScriptImpClass@@UAEPAXI@Z	; MultiKeyHookScriptImpClass::`vector deleting destructor'
PUBLIC	??0JFW_Object_Created_Hook_Base@@QAE@XZ		; JFW_Object_Created_Hook_Base::JFW_Object_Created_Hook_Base
PUBLIC	??0JFW_Object_Created_Hook_Base@@QAE@ABV0@@Z	; JFW_Object_Created_Hook_Base::JFW_Object_Created_Hook_Base
PUBLIC	??4JFW_Object_Created_Hook_Base@@QAEAAV0@ABV0@@Z ; JFW_Object_Created_Hook_Base::operator=
PUBLIC	??_GJFW_Object_Created_Hook_Base@@UAEPAXI@Z	; JFW_Object_Created_Hook_Base::`scalar deleting destructor'
PUBLIC	??_EJFW_Object_Created_Hook_Base@@UAEPAXI@Z	; JFW_Object_Created_Hook_Base::`vector deleting destructor'
PUBLIC	?Custom@JFW_Team_DM_Zone@@EAEXPAVScriptableGameObj@@HH0@Z ; JFW_Team_DM_Zone::Custom
PUBLIC	?Exited@JFW_Team_DM_Zone@@EAEXPAVScriptableGameObj@@0@Z ; JFW_Team_DM_Zone::Exited
PUBLIC	?Register_Auto_Save_Variables@JFW_Team_DM_Zone@@UAEXXZ ; JFW_Team_DM_Zone::Register_Auto_Save_Variables
PUBLIC	??0JFW_Team_DM_Zone@@QAE@XZ			; JFW_Team_DM_Zone::JFW_Team_DM_Zone
PUBLIC	??1JFW_Team_DM_Zone@@UAE@XZ			; JFW_Team_DM_Zone::~JFW_Team_DM_Zone
PUBLIC	??_GJFW_Team_DM_Zone@@UAEPAXI@Z			; JFW_Team_DM_Zone::`scalar deleting destructor'
PUBLIC	?Created@JFW_Team_DM_Controller@@EAEXPAVScriptableGameObj@@@Z ; JFW_Team_DM_Controller::Created
PUBLIC	?Custom@JFW_Team_DM_Controller@@EAEXPAVScriptableGameObj@@HH0@Z ; JFW_Team_DM_Controller::Custom
PUBLIC	?Register_Auto_Save_Variables@JFW_Team_DM_Controller@@UAEXXZ ; JFW_Team_DM_Controller::Register_Auto_Save_Variables
PUBLIC	??0JFW_Team_DM_Controller@@QAE@XZ		; JFW_Team_DM_Controller::JFW_Team_DM_Controller
PUBLIC	??1JFW_Team_DM_Controller@@UAE@XZ		; JFW_Team_DM_Controller::~JFW_Team_DM_Controller
PUBLIC	??_GJFW_Team_DM_Controller@@UAEPAXI@Z		; JFW_Team_DM_Controller::`scalar deleting destructor'
PUBLIC	?Killed@JFW_Team_DM_Attatched@@EAEXPAVScriptableGameObj@@0@Z ; JFW_Team_DM_Attatched::Killed
PUBLIC	?Custom@JFW_Team_DM_Attatched@@EAEXPAVScriptableGameObj@@HH0@Z ; JFW_Team_DM_Attatched::Custom
PUBLIC	??0JFW_Team_DM_Attatched@@QAE@XZ		; JFW_Team_DM_Attatched::JFW_Team_DM_Attatched
PUBLIC	??1JFW_Team_DM_Attatched@@UAE@XZ		; JFW_Team_DM_Attatched::~JFW_Team_DM_Attatched
PUBLIC	??_GJFW_Team_DM_Attatched@@UAEPAXI@Z		; JFW_Team_DM_Attatched::`scalar deleting destructor'
PUBLIC	?Created@JFW_Assault_Powerplant_Controller@@EAEXPAVScriptableGameObj@@@Z ; JFW_Assault_Powerplant_Controller::Created
PUBLIC	?Timer_Expired@JFW_Assault_Powerplant_Controller@@EAEXPAVScriptableGameObj@@H@Z ; JFW_Assault_Powerplant_Controller::Timer_Expired
PUBLIC	?Entered@JFW_Assault_Powerplant_Controller@@EAEXPAVScriptableGameObj@@0@Z ; JFW_Assault_Powerplant_Controller::Entered
PUBLIC	?Exited@JFW_Assault_Powerplant_Controller@@EAEXPAVScriptableGameObj@@0@Z ; JFW_Assault_Powerplant_Controller::Exited
PUBLIC	?Register_Auto_Save_Variables@JFW_Assault_Powerplant_Controller@@UAEXXZ ; JFW_Assault_Powerplant_Controller::Register_Auto_Save_Variables
PUBLIC	??0JFW_Assault_Powerplant_Controller@@QAE@XZ	; JFW_Assault_Powerplant_Controller::JFW_Assault_Powerplant_Controller
PUBLIC	??1JFW_Assault_Powerplant_Controller@@UAE@XZ	; JFW_Assault_Powerplant_Controller::~JFW_Assault_Powerplant_Controller
PUBLIC	??_GJFW_Assault_Powerplant_Controller@@UAEPAXI@Z ; JFW_Assault_Powerplant_Controller::`scalar deleting destructor'
PUBLIC	?Created@JFW_Resource_Collector@@EAEXPAVScriptableGameObj@@@Z ; JFW_Resource_Collector::Created
PUBLIC	?Custom@JFW_Resource_Collector@@EAEXPAVScriptableGameObj@@HH0@Z ; JFW_Resource_Collector::Custom
PUBLIC	?Register_Auto_Save_Variables@JFW_Resource_Collector@@UAEXXZ ; JFW_Resource_Collector::Register_Auto_Save_Variables
PUBLIC	??0JFW_Resource_Collector@@QAE@XZ		; JFW_Resource_Collector::JFW_Resource_Collector
PUBLIC	??1JFW_Resource_Collector@@UAE@XZ		; JFW_Resource_Collector::~JFW_Resource_Collector
PUBLIC	??_GJFW_Resource_Collector@@UAEPAXI@Z		; JFW_Resource_Collector::`scalar deleting destructor'
PUBLIC	?Entered@JFW_Resource_Refinery@@EAEXPAVScriptableGameObj@@0@Z ; JFW_Resource_Refinery::Entered
PUBLIC	??0JFW_Resource_Refinery@@QAE@XZ		; JFW_Resource_Refinery::JFW_Resource_Refinery
PUBLIC	??1JFW_Resource_Refinery@@UAE@XZ		; JFW_Resource_Refinery::~JFW_Resource_Refinery
PUBLIC	??_GJFW_Resource_Refinery@@UAEPAXI@Z		; JFW_Resource_Refinery::`scalar deleting destructor'
PUBLIC	?Created@JFW_Resource_Field@@EAEXPAVScriptableGameObj@@@Z ; JFW_Resource_Field::Created
PUBLIC	?Entered@JFW_Resource_Field@@EAEXPAVScriptableGameObj@@0@Z ; JFW_Resource_Field::Entered
PUBLIC	?Exited@JFW_Resource_Field@@EAEXPAVScriptableGameObj@@0@Z ; JFW_Resource_Field::Exited
PUBLIC	?Timer_Expired@JFW_Resource_Field@@EAEXPAVScriptableGameObj@@H@Z ; JFW_Resource_Field::Timer_Expired
PUBLIC	?Register_Auto_Save_Variables@JFW_Resource_Field@@UAEXXZ ; JFW_Resource_Field::Register_Auto_Save_Variables
PUBLIC	??0JFW_Resource_Field@@QAE@XZ			; JFW_Resource_Field::JFW_Resource_Field
PUBLIC	??1JFW_Resource_Field@@UAE@XZ			; JFW_Resource_Field::~JFW_Resource_Field
PUBLIC	??_GJFW_Resource_Field@@UAEPAXI@Z		; JFW_Resource_Field::`scalar deleting destructor'
PUBLIC	?Created@JFW_Domination_Zone@@EAEXPAVScriptableGameObj@@@Z ; JFW_Domination_Zone::Created
PUBLIC	?Entered@JFW_Domination_Zone@@EAEXPAVScriptableGameObj@@0@Z ; JFW_Domination_Zone::Entered
PUBLIC	?Timer_Expired@JFW_Domination_Zone@@EAEXPAVScriptableGameObj@@H@Z ; JFW_Domination_Zone::Timer_Expired
PUBLIC	?Register_Auto_Save_Variables@JFW_Domination_Zone@@UAEXXZ ; JFW_Domination_Zone::Register_Auto_Save_Variables
PUBLIC	??0JFW_Domination_Zone@@QAE@XZ			; JFW_Domination_Zone::JFW_Domination_Zone
PUBLIC	??1JFW_Domination_Zone@@UAE@XZ			; JFW_Domination_Zone::~JFW_Domination_Zone
PUBLIC	??_GJFW_Domination_Zone@@UAEPAXI@Z		; JFW_Domination_Zone::`scalar deleting destructor'
PUBLIC	?Created@JFW_Domination_Controler@@EAEXPAVScriptableGameObj@@@Z ; JFW_Domination_Controler::Created
PUBLIC	?Custom@JFW_Domination_Controler@@EAEXPAVScriptableGameObj@@HH0@Z ; JFW_Domination_Controler::Custom
PUBLIC	?Timer_Expired@JFW_Domination_Controler@@EAEXPAVScriptableGameObj@@H@Z ; JFW_Domination_Controler::Timer_Expired
PUBLIC	?Register_Auto_Save_Variables@JFW_Domination_Controler@@UAEXXZ ; JFW_Domination_Controler::Register_Auto_Save_Variables
PUBLIC	??0JFW_Domination_Controler@@QAE@XZ		; JFW_Domination_Controler::JFW_Domination_Controler
PUBLIC	??1JFW_Domination_Controler@@UAE@XZ		; JFW_Domination_Controler::~JFW_Domination_Controler
PUBLIC	??_GJFW_Domination_Controler@@UAEPAXI@Z		; JFW_Domination_Controler::`scalar deleting destructor'
PUBLIC	?Created@JFW_Iron_Curtain_Zone@@EAEXPAVScriptableGameObj@@@Z ; JFW_Iron_Curtain_Zone::Created
PUBLIC	?Killed@JFW_Iron_Curtain_Zone@@EAEXPAVScriptableGameObj@@0@Z ; JFW_Iron_Curtain_Zone::Killed
PUBLIC	?Entered@JFW_Iron_Curtain_Zone@@EAEXPAVScriptableGameObj@@0@Z ; JFW_Iron_Curtain_Zone::Entered
PUBLIC	?Timer_Expired@JFW_Iron_Curtain_Zone@@EAEXPAVScriptableGameObj@@H@Z ; JFW_Iron_Curtain_Zone::Timer_Expired
PUBLIC	?Custom@JFW_Iron_Curtain_Zone@@EAEXPAVScriptableGameObj@@HH0@Z ; JFW_Iron_Curtain_Zone::Custom
PUBLIC	?Register_Auto_Save_Variables@JFW_Iron_Curtain_Zone@@UAEXXZ ; JFW_Iron_Curtain_Zone::Register_Auto_Save_Variables
PUBLIC	??0JFW_Iron_Curtain_Zone@@QAE@XZ		; JFW_Iron_Curtain_Zone::JFW_Iron_Curtain_Zone
PUBLIC	??1JFW_Iron_Curtain_Zone@@UAE@XZ		; JFW_Iron_Curtain_Zone::~JFW_Iron_Curtain_Zone
PUBLIC	??_GJFW_Iron_Curtain_Zone@@UAEPAXI@Z		; JFW_Iron_Curtain_Zone::`scalar deleting destructor'
PUBLIC	?Created@JFW_Chrono_Controler_Zone@@EAEXPAVScriptableGameObj@@@Z ; JFW_Chrono_Controler_Zone::Created
PUBLIC	?Custom@JFW_Chrono_Controler_Zone@@EAEXPAVScriptableGameObj@@HH0@Z ; JFW_Chrono_Controler_Zone::Custom
PUBLIC	?Killed@JFW_Chrono_Controler_Zone@@EAEXPAVScriptableGameObj@@0@Z ; JFW_Chrono_Controler_Zone::Killed
PUBLIC	?Entered@JFW_Chrono_Controler_Zone@@EAEXPAVScriptableGameObj@@0@Z ; JFW_Chrono_Controler_Zone::Entered
PUBLIC	?Timer_Expired@JFW_Chrono_Controler_Zone@@EAEXPAVScriptableGameObj@@H@Z ; JFW_Chrono_Controler_Zone::Timer_Expired
PUBLIC	?Register_Auto_Save_Variables@JFW_Chrono_Controler_Zone@@UAEXXZ ; JFW_Chrono_Controler_Zone::Register_Auto_Save_Variables
PUBLIC	??0JFW_Chrono_Controler_Zone@@QAE@XZ		; JFW_Chrono_Controler_Zone::JFW_Chrono_Controler_Zone
PUBLIC	??1JFW_Chrono_Controler_Zone@@UAE@XZ		; JFW_Chrono_Controler_Zone::~JFW_Chrono_Controler_Zone
PUBLIC	??_GJFW_Chrono_Controler_Zone@@UAEPAXI@Z	; JFW_Chrono_Controler_Zone::`scalar deleting destructor'
PUBLIC	?Created@JFW_Drone_Damage@@EAEXPAVScriptableGameObj@@@Z ; JFW_Drone_Damage::Created
PUBLIC	?Damaged@JFW_Drone_Damage@@EAEXPAVScriptableGameObj@@0M@Z ; JFW_Drone_Damage::Damaged
PUBLIC	?Custom@JFW_Drone_Damage@@EAEXPAVScriptableGameObj@@HH0@Z ; JFW_Drone_Damage::Custom
PUBLIC	?Register_Auto_Save_Variables@JFW_Drone_Damage@@UAEXXZ ; JFW_Drone_Damage::Register_Auto_Save_Variables
PUBLIC	??0JFW_Drone_Damage@@QAE@XZ			; JFW_Drone_Damage::JFW_Drone_Damage
PUBLIC	??1JFW_Drone_Damage@@UAE@XZ			; JFW_Drone_Damage::~JFW_Drone_Damage
PUBLIC	??_GJFW_Drone_Damage@@UAEPAXI@Z			; JFW_Drone_Damage::`scalar deleting destructor'
PUBLIC	?Created@JFW_Conyard@@EAEXPAVScriptableGameObj@@@Z ; JFW_Conyard::Created
PUBLIC	?Killed@JFW_Conyard@@EAEXPAVScriptableGameObj@@0@Z ; JFW_Conyard::Killed
PUBLIC	?Custom@JFW_Conyard@@EAEXPAVScriptableGameObj@@HH0@Z ; JFW_Conyard::Custom
PUBLIC	?Timer_Expired@JFW_Conyard@@EAEXPAVScriptableGameObj@@H@Z ; JFW_Conyard::Timer_Expired
PUBLIC	?Register_Auto_Save_Variables@JFW_Conyard@@UAEXXZ ; JFW_Conyard::Register_Auto_Save_Variables
PUBLIC	??0JFW_Conyard@@QAE@XZ				; JFW_Conyard::JFW_Conyard
PUBLIC	??1JFW_Conyard@@UAE@XZ				; JFW_Conyard::~JFW_Conyard
PUBLIC	??_GJFW_Conyard@@UAEPAXI@Z			; JFW_Conyard::`scalar deleting destructor'
PUBLIC	?Created@JFW_Conyard_Vehicle_Buildings@@EAEXPAVScriptableGameObj@@@Z ; JFW_Conyard_Vehicle_Buildings::Created
PUBLIC	?Killed@JFW_Conyard_Vehicle_Buildings@@EAEXPAVScriptableGameObj@@0@Z ; JFW_Conyard_Vehicle_Buildings::Killed
PUBLIC	?Custom@JFW_Conyard_Vehicle_Buildings@@EAEXPAVScriptableGameObj@@HH0@Z ; JFW_Conyard_Vehicle_Buildings::Custom
PUBLIC	?Timer_Expired@JFW_Conyard_Vehicle_Buildings@@EAEXPAVScriptableGameObj@@H@Z ; JFW_Conyard_Vehicle_Buildings::Timer_Expired
PUBLIC	?Register_Auto_Save_Variables@JFW_Conyard_Vehicle_Buildings@@UAEXXZ ; JFW_Conyard_Vehicle_Buildings::Register_Auto_Save_Variables
PUBLIC	??0JFW_Conyard_Vehicle_Buildings@@QAE@XZ	; JFW_Conyard_Vehicle_Buildings::JFW_Conyard_Vehicle_Buildings
PUBLIC	??1JFW_Conyard_Vehicle_Buildings@@UAE@XZ	; JFW_Conyard_Vehicle_Buildings::~JFW_Conyard_Vehicle_Buildings
PUBLIC	??_GJFW_Conyard_Vehicle_Buildings@@UAEPAXI@Z	; JFW_Conyard_Vehicle_Buildings::`scalar deleting destructor'
PUBLIC	?Created@JFW_Flying_Infantry@@EAEXPAVScriptableGameObj@@@Z ; JFW_Flying_Infantry::Created
PUBLIC	??0JFW_Flying_Infantry@@QAE@XZ			; JFW_Flying_Infantry::JFW_Flying_Infantry
PUBLIC	??1JFW_Flying_Infantry@@UAE@XZ			; JFW_Flying_Infantry::~JFW_Flying_Infantry
PUBLIC	??_GJFW_Flying_Infantry@@UAEPAXI@Z		; JFW_Flying_Infantry::`scalar deleting destructor'
PUBLIC	?Custom@JFW_Flying_Infantry_Custom@@EAEXPAVScriptableGameObj@@HH0@Z ; JFW_Flying_Infantry_Custom::Custom
PUBLIC	??0JFW_Flying_Infantry_Custom@@QAE@XZ		; JFW_Flying_Infantry_Custom::JFW_Flying_Infantry_Custom
PUBLIC	??1JFW_Flying_Infantry_Custom@@UAE@XZ		; JFW_Flying_Infantry_Custom::~JFW_Flying_Infantry_Custom
PUBLIC	??_GJFW_Flying_Infantry_Custom@@UAEPAXI@Z	; JFW_Flying_Infantry_Custom::`scalar deleting destructor'
PUBLIC	?Custom@JFW_Flying_Infantry_Powerup@@EAEXPAVScriptableGameObj@@HH0@Z ; JFW_Flying_Infantry_Powerup::Custom
PUBLIC	??0JFW_Flying_Infantry_Powerup@@QAE@XZ		; JFW_Flying_Infantry_Powerup::JFW_Flying_Infantry_Powerup
PUBLIC	??1JFW_Flying_Infantry_Powerup@@UAE@XZ		; JFW_Flying_Infantry_Powerup::~JFW_Flying_Infantry_Powerup
PUBLIC	??_GJFW_Flying_Infantry_Powerup@@UAEPAXI@Z	; JFW_Flying_Infantry_Powerup::`scalar deleting destructor'
PUBLIC	?Entered@JFW_Flying_Infantry_Enter@@EAEXPAVScriptableGameObj@@0@Z ; JFW_Flying_Infantry_Enter::Entered
PUBLIC	??0JFW_Flying_Infantry_Enter@@QAE@XZ		; JFW_Flying_Infantry_Enter::JFW_Flying_Infantry_Enter
PUBLIC	??1JFW_Flying_Infantry_Enter@@UAE@XZ		; JFW_Flying_Infantry_Enter::~JFW_Flying_Infantry_Enter
PUBLIC	??_GJFW_Flying_Infantry_Enter@@UAEPAXI@Z	; JFW_Flying_Infantry_Enter::`scalar deleting destructor'
PUBLIC	?Exited@JFW_Flying_Infantry_Exit@@EAEXPAVScriptableGameObj@@0@Z ; JFW_Flying_Infantry_Exit::Exited
PUBLIC	??0JFW_Flying_Infantry_Exit@@QAE@XZ		; JFW_Flying_Infantry_Exit::JFW_Flying_Infantry_Exit
PUBLIC	??1JFW_Flying_Infantry_Exit@@UAE@XZ		; JFW_Flying_Infantry_Exit::~JFW_Flying_Infantry_Exit
PUBLIC	??_GJFW_Flying_Infantry_Exit@@UAEPAXI@Z		; JFW_Flying_Infantry_Exit::`scalar deleting destructor'
PUBLIC	?Created@JFW_Team_DM_Controller_2@@EAEXPAVScriptableGameObj@@@Z ; JFW_Team_DM_Controller_2::Created
PUBLIC	?Custom@JFW_Team_DM_Controller_2@@EAEXPAVScriptableGameObj@@HH0@Z ; JFW_Team_DM_Controller_2::Custom
PUBLIC	?Register_Auto_Save_Variables@JFW_Team_DM_Controller_2@@UAEXXZ ; JFW_Team_DM_Controller_2::Register_Auto_Save_Variables
PUBLIC	??0JFW_Team_DM_Controller_2@@QAE@XZ		; JFW_Team_DM_Controller_2::JFW_Team_DM_Controller_2
PUBLIC	??1JFW_Team_DM_Controller_2@@UAE@XZ		; JFW_Team_DM_Controller_2::~JFW_Team_DM_Controller_2
PUBLIC	??_GJFW_Team_DM_Controller_2@@UAEPAXI@Z		; JFW_Team_DM_Controller_2::`scalar deleting destructor'
PUBLIC	?Damaged@JFW_Vehicle_Thief@@EAEXPAVScriptableGameObj@@0M@Z ; JFW_Vehicle_Thief::Damaged
PUBLIC	??0JFW_Vehicle_Thief@@QAE@XZ			; JFW_Vehicle_Thief::JFW_Vehicle_Thief
PUBLIC	??1JFW_Vehicle_Thief@@UAE@XZ			; JFW_Vehicle_Thief::~JFW_Vehicle_Thief
PUBLIC	??_GJFW_Vehicle_Thief@@UAEPAXI@Z		; JFW_Vehicle_Thief::`scalar deleting destructor'
PUBLIC	?Damaged@JFW_Vehicle_Thief_2@@EAEXPAVScriptableGameObj@@0M@Z ; JFW_Vehicle_Thief_2::Damaged
PUBLIC	??0JFW_Vehicle_Thief_2@@QAE@XZ			; JFW_Vehicle_Thief_2::JFW_Vehicle_Thief_2
PUBLIC	??1JFW_Vehicle_Thief_2@@UAE@XZ			; JFW_Vehicle_Thief_2::~JFW_Vehicle_Thief_2
PUBLIC	??_GJFW_Vehicle_Thief_2@@UAEPAXI@Z		; JFW_Vehicle_Thief_2::`scalar deleting destructor'
PUBLIC	?Created@JFW_Domination_Controler_End_Game@@EAEXPAVScriptableGameObj@@@Z ; JFW_Domination_Controler_End_Game::Created
PUBLIC	?Custom@JFW_Domination_Controler_End_Game@@EAEXPAVScriptableGameObj@@HH0@Z ; JFW_Domination_Controler_End_Game::Custom
PUBLIC	?Timer_Expired@JFW_Domination_Controler_End_Game@@EAEXPAVScriptableGameObj@@H@Z ; JFW_Domination_Controler_End_Game::Timer_Expired
PUBLIC	?Register_Auto_Save_Variables@JFW_Domination_Controler_End_Game@@UAEXXZ ; JFW_Domination_Controler_End_Game::Register_Auto_Save_Variables
PUBLIC	??0JFW_Domination_Controler_End_Game@@QAE@XZ	; JFW_Domination_Controler_End_Game::JFW_Domination_Controler_End_Game
PUBLIC	??1JFW_Domination_Controler_End_Game@@UAE@XZ	; JFW_Domination_Controler_End_Game::~JFW_Domination_Controler_End_Game
PUBLIC	??_GJFW_Domination_Controler_End_Game@@UAEPAXI@Z ; JFW_Domination_Controler_End_Game::`scalar deleting destructor'
PUBLIC	?Damaged@JFW_Carryable_Vehicle@@EAEXPAVScriptableGameObj@@0M@Z ; JFW_Carryable_Vehicle::Damaged
PUBLIC	?Killed@JFW_Carryable_Vehicle@@EAEXPAVScriptableGameObj@@0@Z ; JFW_Carryable_Vehicle::Killed
PUBLIC	??0JFW_Carryable_Vehicle@@QAE@XZ		; JFW_Carryable_Vehicle::JFW_Carryable_Vehicle
PUBLIC	??1JFW_Carryable_Vehicle@@UAE@XZ		; JFW_Carryable_Vehicle::~JFW_Carryable_Vehicle
PUBLIC	??_GJFW_Carryable_Vehicle@@UAEPAXI@Z		; JFW_Carryable_Vehicle::`scalar deleting destructor'
PUBLIC	?Created@JFW_Carry_Control@@EAEXPAVScriptableGameObj@@@Z ; JFW_Carry_Control::Created
PUBLIC	?Custom@JFW_Carry_Control@@EAEXPAVScriptableGameObj@@HH0@Z ; JFW_Carry_Control::Custom
PUBLIC	?Register_Auto_Save_Variables@JFW_Carry_Control@@UAEXXZ ; JFW_Carry_Control::Register_Auto_Save_Variables
PUBLIC	??0JFW_Carry_Control@@QAE@XZ			; JFW_Carry_Control::JFW_Carry_Control
PUBLIC	??1JFW_Carry_Control@@UAE@XZ			; JFW_Carry_Control::~JFW_Carry_Control
PUBLIC	??_GJFW_Carry_Control@@UAEPAXI@Z		; JFW_Carry_Control::`scalar deleting destructor'
PUBLIC	?Created@JFW_CarryAll@@EAEXPAVScriptableGameObj@@@Z ; JFW_CarryAll::Created
PUBLIC	?Custom@JFW_CarryAll@@EAEXPAVScriptableGameObj@@HH0@Z ; JFW_CarryAll::Custom
PUBLIC	?Damaged@JFW_CarryAll@@EAEXPAVScriptableGameObj@@0M@Z ; JFW_CarryAll::Damaged
PUBLIC	?Killed@JFW_CarryAll@@EAEXPAVScriptableGameObj@@0@Z ; JFW_CarryAll::Killed
PUBLIC	?Register_Auto_Save_Variables@JFW_CarryAll@@UAEXXZ ; JFW_CarryAll::Register_Auto_Save_Variables
PUBLIC	??0JFW_CarryAll@@QAE@XZ				; JFW_CarryAll::JFW_CarryAll
PUBLIC	??1JFW_CarryAll@@UAE@XZ				; JFW_CarryAll::~JFW_CarryAll
PUBLIC	??_GJFW_CarryAll@@UAEPAXI@Z			; JFW_CarryAll::`scalar deleting destructor'
PUBLIC	?Created@JFW_Sensor_Array@@EAEXPAVScriptableGameObj@@@Z ; JFW_Sensor_Array::Created
PUBLIC	?Timer_Expired@JFW_Sensor_Array@@EAEXPAVScriptableGameObj@@H@Z ; JFW_Sensor_Array::Timer_Expired
PUBLIC	??0JFW_Sensor_Array@@QAE@XZ			; JFW_Sensor_Array::JFW_Sensor_Array
PUBLIC	??1JFW_Sensor_Array@@UAE@XZ			; JFW_Sensor_Array::~JFW_Sensor_Array
PUBLIC	??_GJFW_Sensor_Array@@UAEPAXI@Z			; JFW_Sensor_Array::`scalar deleting destructor'
PUBLIC	?Created@JFW_Conyard_Radius@@EAEXPAVScriptableGameObj@@@Z ; JFW_Conyard_Radius::Created
PUBLIC	?Killed@JFW_Conyard_Radius@@EAEXPAVScriptableGameObj@@0@Z ; JFW_Conyard_Radius::Killed
PUBLIC	?Custom@JFW_Conyard_Radius@@EAEXPAVScriptableGameObj@@HH0@Z ; JFW_Conyard_Radius::Custom
PUBLIC	?Timer_Expired@JFW_Conyard_Radius@@EAEXPAVScriptableGameObj@@H@Z ; JFW_Conyard_Radius::Timer_Expired
PUBLIC	?Register_Auto_Save_Variables@JFW_Conyard_Radius@@UAEXXZ ; JFW_Conyard_Radius::Register_Auto_Save_Variables
PUBLIC	??0JFW_Conyard_Radius@@QAE@XZ			; JFW_Conyard_Radius::JFW_Conyard_Radius
PUBLIC	??1JFW_Conyard_Radius@@UAE@XZ			; JFW_Conyard_Radius::~JFW_Conyard_Radius
PUBLIC	??_GJFW_Conyard_Radius@@UAEPAXI@Z		; JFW_Conyard_Radius::`scalar deleting destructor'
PUBLIC	?Created@JFW_Chrono_Harvester_Logic@@EAEXPAVScriptableGameObj@@@Z ; JFW_Chrono_Harvester_Logic::Created
PUBLIC	?Custom@JFW_Chrono_Harvester_Logic@@EAEXPAVScriptableGameObj@@HH0@Z ; JFW_Chrono_Harvester_Logic::Custom
PUBLIC	?Register_Auto_Save_Variables@JFW_Chrono_Harvester_Logic@@UAEXXZ ; JFW_Chrono_Harvester_Logic::Register_Auto_Save_Variables
PUBLIC	??0JFW_Chrono_Harvester_Logic@@QAE@XZ		; JFW_Chrono_Harvester_Logic::JFW_Chrono_Harvester_Logic
PUBLIC	??1JFW_Chrono_Harvester_Logic@@UAE@XZ		; JFW_Chrono_Harvester_Logic::~JFW_Chrono_Harvester_Logic
PUBLIC	??_GJFW_Chrono_Harvester_Logic@@UAEPAXI@Z	; JFW_Chrono_Harvester_Logic::`scalar deleting destructor'
PUBLIC	?Killed@JFW_Chrono_Harvester_Kill@@EAEXPAVScriptableGameObj@@0@Z ; JFW_Chrono_Harvester_Kill::Killed
PUBLIC	??0JFW_Chrono_Harvester_Kill@@QAE@XZ		; JFW_Chrono_Harvester_Kill::JFW_Chrono_Harvester_Kill
PUBLIC	??1JFW_Chrono_Harvester_Kill@@UAE@XZ		; JFW_Chrono_Harvester_Kill::~JFW_Chrono_Harvester_Kill
PUBLIC	??_GJFW_Chrono_Harvester_Kill@@UAEPAXI@Z	; JFW_Chrono_Harvester_Kill::`scalar deleting destructor'
PUBLIC	?Killed@JFW_Chrono_Harvester_Spawn_Kill@@EAEXPAVScriptableGameObj@@0@Z ; JFW_Chrono_Harvester_Spawn_Kill::Killed
PUBLIC	??0JFW_Chrono_Harvester_Spawn_Kill@@QAE@XZ	; JFW_Chrono_Harvester_Spawn_Kill::JFW_Chrono_Harvester_Spawn_Kill
PUBLIC	??1JFW_Chrono_Harvester_Spawn_Kill@@UAE@XZ	; JFW_Chrono_Harvester_Spawn_Kill::~JFW_Chrono_Harvester_Spawn_Kill
PUBLIC	??_GJFW_Chrono_Harvester_Spawn_Kill@@UAEPAXI@Z	; JFW_Chrono_Harvester_Spawn_Kill::`scalar deleting destructor'
PUBLIC	?Custom@JFW_Chrono_Harvester_Attached@@EAEXPAVScriptableGameObj@@HH0@Z ; JFW_Chrono_Harvester_Attached::Custom
PUBLIC	?Created@JFW_Chrono_Harvester_Attached@@EAEXPAVScriptableGameObj@@@Z ; JFW_Chrono_Harvester_Attached::Created
PUBLIC	?Killed@JFW_Chrono_Harvester_Attached@@EAEXPAVScriptableGameObj@@0@Z ; JFW_Chrono_Harvester_Attached::Killed
PUBLIC	?Action_Complete@JFW_Chrono_Harvester_Attached@@EAEXPAVScriptableGameObj@@HW4ActionCompleteReason@@@Z ; JFW_Chrono_Harvester_Attached::Action_Complete
PUBLIC	?Timer_Expired@JFW_Chrono_Harvester_Attached@@EAEXPAVScriptableGameObj@@H@Z ; JFW_Chrono_Harvester_Attached::Timer_Expired
PUBLIC	?Register_Auto_Save_Variables@JFW_Chrono_Harvester_Attached@@UAEXXZ ; JFW_Chrono_Harvester_Attached::Register_Auto_Save_Variables
PUBLIC	??0JFW_Chrono_Harvester_Attached@@QAE@XZ	; JFW_Chrono_Harvester_Attached::JFW_Chrono_Harvester_Attached
PUBLIC	??1JFW_Chrono_Harvester_Attached@@UAE@XZ	; JFW_Chrono_Harvester_Attached::~JFW_Chrono_Harvester_Attached
PUBLIC	??_GJFW_Chrono_Harvester_Attached@@UAEPAXI@Z	; JFW_Chrono_Harvester_Attached::`scalar deleting destructor'
PUBLIC	?Created@JFW_Conyard_Turrets@@EAEXPAVScriptableGameObj@@@Z ; JFW_Conyard_Turrets::Created
PUBLIC	?Killed@JFW_Conyard_Turrets@@EAEXPAVScriptableGameObj@@0@Z ; JFW_Conyard_Turrets::Killed
PUBLIC	?Custom@JFW_Conyard_Turrets@@EAEXPAVScriptableGameObj@@HH0@Z ; JFW_Conyard_Turrets::Custom
PUBLIC	?Timer_Expired@JFW_Conyard_Turrets@@EAEXPAVScriptableGameObj@@H@Z ; JFW_Conyard_Turrets::Timer_Expired
PUBLIC	?Register_Auto_Save_Variables@JFW_Conyard_Turrets@@UAEXXZ ; JFW_Conyard_Turrets::Register_Auto_Save_Variables
PUBLIC	??0JFW_Conyard_Turrets@@QAE@XZ			; JFW_Conyard_Turrets::JFW_Conyard_Turrets
PUBLIC	??1JFW_Conyard_Turrets@@UAE@XZ			; JFW_Conyard_Turrets::~JFW_Conyard_Turrets
PUBLIC	??_GJFW_Conyard_Turrets@@UAEPAXI@Z		; JFW_Conyard_Turrets::`scalar deleting destructor'
PUBLIC	?Created@JFW_Radar_Jammer@@EAEXPAVScriptableGameObj@@@Z ; JFW_Radar_Jammer::Created
PUBLIC	?Killed@JFW_Radar_Jammer@@EAEXPAVScriptableGameObj@@0@Z ; JFW_Radar_Jammer::Killed
PUBLIC	?Custom@JFW_Radar_Jammer@@EAEXPAVScriptableGameObj@@HH0@Z ; JFW_Radar_Jammer::Custom
PUBLIC	?Timer_Expired@JFW_Radar_Jammer@@EAEXPAVScriptableGameObj@@H@Z ; JFW_Radar_Jammer::Timer_Expired
PUBLIC	??0JFW_Radar_Jammer@@QAE@XZ			; JFW_Radar_Jammer::JFW_Radar_Jammer
PUBLIC	??1JFW_Radar_Jammer@@UAE@XZ			; JFW_Radar_Jammer::~JFW_Radar_Jammer
PUBLIC	??_GJFW_Radar_Jammer@@UAEPAXI@Z			; JFW_Radar_Jammer::`scalar deleting destructor'
PUBLIC	?Created@JFW_Radar_Jammer_Sound@@EAEXPAVScriptableGameObj@@@Z ; JFW_Radar_Jammer_Sound::Created
PUBLIC	?Killed@JFW_Radar_Jammer_Sound@@EAEXPAVScriptableGameObj@@0@Z ; JFW_Radar_Jammer_Sound::Killed
PUBLIC	?Custom@JFW_Radar_Jammer_Sound@@EAEXPAVScriptableGameObj@@HH0@Z ; JFW_Radar_Jammer_Sound::Custom
PUBLIC	?Timer_Expired@JFW_Radar_Jammer_Sound@@EAEXPAVScriptableGameObj@@H@Z ; JFW_Radar_Jammer_Sound::Timer_Expired
PUBLIC	??0JFW_Radar_Jammer_Sound@@QAE@XZ		; JFW_Radar_Jammer_Sound::JFW_Radar_Jammer_Sound
PUBLIC	??1JFW_Radar_Jammer_Sound@@UAE@XZ		; JFW_Radar_Jammer_Sound::~JFW_Radar_Jammer_Sound
PUBLIC	??_GJFW_Radar_Jammer_Sound@@UAEPAXI@Z		; JFW_Radar_Jammer_Sound::`scalar deleting destructor'
PUBLIC	?Created@JFW_Sonar_Pulse@@EAEXPAVScriptableGameObj@@@Z ; JFW_Sonar_Pulse::Created
PUBLIC	?Entered@JFW_Sonar_Pulse@@EAEXPAVScriptableGameObj@@0@Z ; JFW_Sonar_Pulse::Entered
PUBLIC	?Timer_Expired@JFW_Sonar_Pulse@@EAEXPAVScriptableGameObj@@H@Z ; JFW_Sonar_Pulse::Timer_Expired
PUBLIC	??0JFW_Sonar_Pulse@@QAE@XZ			; JFW_Sonar_Pulse::JFW_Sonar_Pulse
PUBLIC	??1JFW_Sonar_Pulse@@UAE@XZ			; JFW_Sonar_Pulse::~JFW_Sonar_Pulse
PUBLIC	??_GJFW_Sonar_Pulse@@UAEPAXI@Z			; JFW_Sonar_Pulse::`scalar deleting destructor'
PUBLIC	?Created@JFW_Global_Stealth_Controller@@EAEXPAVScriptableGameObj@@@Z ; JFW_Global_Stealth_Controller::Created
PUBLIC	?Custom@JFW_Global_Stealth_Controller@@EAEXPAVScriptableGameObj@@HH0@Z ; JFW_Global_Stealth_Controller::Custom
PUBLIC	?Timer_Expired@JFW_Global_Stealth_Controller@@EAEXPAVScriptableGameObj@@H@Z ; JFW_Global_Stealth_Controller::Timer_Expired
PUBLIC	?Destroyed@JFW_Global_Stealth_Controller@@EAEXPAVScriptableGameObj@@@Z ; JFW_Global_Stealth_Controller::Destroyed
PUBLIC	?Add_Generator@JFW_Global_Stealth_Controller@@AAEXKMH@Z ; JFW_Global_Stealth_Controller::Add_Generator
PUBLIC	?Remove_Generator@JFW_Global_Stealth_Controller@@AAEXK@Z ; JFW_Global_Stealth_Controller::Remove_Generator
PUBLIC	?Update_Generator@JFW_Global_Stealth_Controller@@AAEXK_NH@Z ; JFW_Global_Stealth_Controller::Update_Generator
PUBLIC	?Update_Generator@JFW_Global_Stealth_Controller@@AAEXK_N@Z ; JFW_Global_Stealth_Controller::Update_Generator
PUBLIC	??0JFW_Global_Stealth_Controller@@QAE@XZ	; JFW_Global_Stealth_Controller::JFW_Global_Stealth_Controller
PUBLIC	??1JFW_Global_Stealth_Controller@@UAE@XZ	; JFW_Global_Stealth_Controller::~JFW_Global_Stealth_Controller
PUBLIC	??_GJFW_Global_Stealth_Controller@@UAEPAXI@Z	; JFW_Global_Stealth_Controller::`scalar deleting destructor'
PUBLIC	?Created@JFW_Stealth_Generator_Building@@EAEXPAVScriptableGameObj@@@Z ; JFW_Stealth_Generator_Building::Created
PUBLIC	?Timer_Expired@JFW_Stealth_Generator_Building@@EAEXPAVScriptableGameObj@@H@Z ; JFW_Stealth_Generator_Building::Timer_Expired
PUBLIC	?Killed@JFW_Stealth_Generator_Building@@EAEXPAVScriptableGameObj@@0@Z ; JFW_Stealth_Generator_Building::Killed
PUBLIC	??0JFW_Stealth_Generator_Building@@QAE@XZ	; JFW_Stealth_Generator_Building::JFW_Stealth_Generator_Building
PUBLIC	??1JFW_Stealth_Generator_Building@@UAE@XZ	; JFW_Stealth_Generator_Building::~JFW_Stealth_Generator_Building
PUBLIC	??_GJFW_Stealth_Generator_Building@@UAEPAXI@Z	; JFW_Stealth_Generator_Building::`scalar deleting destructor'
PUBLIC	?Created@JFW_Stealth_Generator_Vehicle@@EAEXPAVScriptableGameObj@@@Z ; JFW_Stealth_Generator_Vehicle::Created
PUBLIC	?Custom@JFW_Stealth_Generator_Vehicle@@EAEXPAVScriptableGameObj@@HH0@Z ; JFW_Stealth_Generator_Vehicle::Custom
PUBLIC	?Destroyed@JFW_Stealth_Generator_Vehicle@@EAEXPAVScriptableGameObj@@@Z ; JFW_Stealth_Generator_Vehicle::Destroyed
PUBLIC	??0JFW_Stealth_Generator_Vehicle@@QAE@XZ	; JFW_Stealth_Generator_Vehicle::JFW_Stealth_Generator_Vehicle
PUBLIC	??1JFW_Stealth_Generator_Vehicle@@UAE@XZ	; JFW_Stealth_Generator_Vehicle::~JFW_Stealth_Generator_Vehicle
PUBLIC	??_GJFW_Stealth_Generator_Vehicle@@UAEPAXI@Z	; JFW_Stealth_Generator_Vehicle::`scalar deleting destructor'
PUBLIC	?Created@JFW_Stealth_Generator_Vehicle_Deploy@@EAEXPAVScriptableGameObj@@@Z ; JFW_Stealth_Generator_Vehicle_Deploy::Created
PUBLIC	?Custom@JFW_Stealth_Generator_Vehicle_Deploy@@EAEXPAVScriptableGameObj@@HH0@Z ; JFW_Stealth_Generator_Vehicle_Deploy::Custom
PUBLIC	?Timer_Expired@JFW_Stealth_Generator_Vehicle_Deploy@@EAEXPAVScriptableGameObj@@H@Z ; JFW_Stealth_Generator_Vehicle_Deploy::Timer_Expired
PUBLIC	?Destroyed@JFW_Stealth_Generator_Vehicle_Deploy@@EAEXPAVScriptableGameObj@@@Z ; JFW_Stealth_Generator_Vehicle_Deploy::Destroyed
PUBLIC	??0JFW_Stealth_Generator_Vehicle_Deploy@@QAE@XZ	; JFW_Stealth_Generator_Vehicle_Deploy::JFW_Stealth_Generator_Vehicle_Deploy
PUBLIC	??1JFW_Stealth_Generator_Vehicle_Deploy@@UAE@XZ	; JFW_Stealth_Generator_Vehicle_Deploy::~JFW_Stealth_Generator_Vehicle_Deploy
PUBLIC	??_GJFW_Stealth_Generator_Vehicle_Deploy@@UAEPAXI@Z ; JFW_Stealth_Generator_Vehicle_Deploy::`scalar deleting destructor'
PUBLIC	??0JFW_Stealth_Generator_Ignored@@QAE@XZ	; JFW_Stealth_Generator_Ignored::JFW_Stealth_Generator_Ignored
PUBLIC	??1JFW_Stealth_Generator_Ignored@@UAE@XZ	; JFW_Stealth_Generator_Ignored::~JFW_Stealth_Generator_Ignored
PUBLIC	??_GJFW_Stealth_Generator_Ignored@@UAEPAXI@Z	; JFW_Stealth_Generator_Ignored::`scalar deleting destructor'
PUBLIC	?Created@JFW_Resource_Collector_2@@EAEXPAVScriptableGameObj@@@Z ; JFW_Resource_Collector_2::Created
PUBLIC	?Custom@JFW_Resource_Collector_2@@EAEXPAVScriptableGameObj@@HH0@Z ; JFW_Resource_Collector_2::Custom
PUBLIC	?Register_Auto_Save_Variables@JFW_Resource_Collector_2@@UAEXXZ ; JFW_Resource_Collector_2::Register_Auto_Save_Variables
PUBLIC	??0JFW_Resource_Collector_2@@QAE@XZ		; JFW_Resource_Collector_2::JFW_Resource_Collector_2
PUBLIC	??1JFW_Resource_Collector_2@@UAE@XZ		; JFW_Resource_Collector_2::~JFW_Resource_Collector_2
PUBLIC	??_GJFW_Resource_Collector_2@@UAEPAXI@Z		; JFW_Resource_Collector_2::`scalar deleting destructor'
PUBLIC	?Created@JFW_Resource_Collector_3@@EAEXPAVScriptableGameObj@@@Z ; JFW_Resource_Collector_3::Created
PUBLIC	?Custom@JFW_Resource_Collector_3@@EAEXPAVScriptableGameObj@@HH0@Z ; JFW_Resource_Collector_3::Custom
PUBLIC	?Register_Auto_Save_Variables@JFW_Resource_Collector_3@@UAEXXZ ; JFW_Resource_Collector_3::Register_Auto_Save_Variables
PUBLIC	??0JFW_Resource_Collector_3@@QAE@XZ		; JFW_Resource_Collector_3::JFW_Resource_Collector_3
PUBLIC	??1JFW_Resource_Collector_3@@UAE@XZ		; JFW_Resource_Collector_3::~JFW_Resource_Collector_3
PUBLIC	??_GJFW_Resource_Collector_3@@UAEPAXI@Z		; JFW_Resource_Collector_3::`scalar deleting destructor'
PUBLIC	?Created@JFW_Low_Power_Message@@EAEXPAVScriptableGameObj@@@Z ; JFW_Low_Power_Message::Created
PUBLIC	?Timer_Expired@JFW_Low_Power_Message@@EAEXPAVScriptableGameObj@@H@Z ; JFW_Low_Power_Message::Timer_Expired
PUBLIC	??0JFW_Low_Power_Message@@QAE@XZ		; JFW_Low_Power_Message::JFW_Low_Power_Message
PUBLIC	??1JFW_Low_Power_Message@@UAE@XZ		; JFW_Low_Power_Message::~JFW_Low_Power_Message
PUBLIC	??_GJFW_Low_Power_Message@@UAEPAXI@Z		; JFW_Low_Power_Message::`scalar deleting destructor'
PUBLIC	?Created@JFW_Low_Power_Sound@@EAEXPAVScriptableGameObj@@@Z ; JFW_Low_Power_Sound::Created
PUBLIC	?Timer_Expired@JFW_Low_Power_Sound@@EAEXPAVScriptableGameObj@@H@Z ; JFW_Low_Power_Sound::Timer_Expired
PUBLIC	??0JFW_Low_Power_Sound@@QAE@XZ			; JFW_Low_Power_Sound::JFW_Low_Power_Sound
PUBLIC	??1JFW_Low_Power_Sound@@UAE@XZ			; JFW_Low_Power_Sound::~JFW_Low_Power_Sound
PUBLIC	??_GJFW_Low_Power_Sound@@UAEPAXI@Z		; JFW_Low_Power_Sound::`scalar deleting destructor'
PUBLIC	?Entered@JFW_Message_Send_Zone@@EAEXPAVScriptableGameObj@@0@Z ; JFW_Message_Send_Zone::Entered
PUBLIC	??0JFW_Message_Send_Zone@@QAE@XZ		; JFW_Message_Send_Zone::JFW_Message_Send_Zone
PUBLIC	??1JFW_Message_Send_Zone@@UAE@XZ		; JFW_Message_Send_Zone::~JFW_Message_Send_Zone
PUBLIC	??_GJFW_Message_Send_Zone@@UAEPAXI@Z		; JFW_Message_Send_Zone::`scalar deleting destructor'
PUBLIC	?Entered@JFW_Message_Send_Zone_Team@@EAEXPAVScriptableGameObj@@0@Z ; JFW_Message_Send_Zone_Team::Entered
PUBLIC	??0JFW_Message_Send_Zone_Team@@QAE@XZ		; JFW_Message_Send_Zone_Team::JFW_Message_Send_Zone_Team
PUBLIC	??1JFW_Message_Send_Zone_Team@@UAE@XZ		; JFW_Message_Send_Zone_Team::~JFW_Message_Send_Zone_Team
PUBLIC	??_GJFW_Message_Send_Zone_Team@@UAEPAXI@Z	; JFW_Message_Send_Zone_Team::`scalar deleting destructor'
PUBLIC	?Entered@JFW_Message_Send_Zone_Player@@EAEXPAVScriptableGameObj@@0@Z ; JFW_Message_Send_Zone_Player::Entered
PUBLIC	??0JFW_Message_Send_Zone_Player@@QAE@XZ		; JFW_Message_Send_Zone_Player::JFW_Message_Send_Zone_Player
PUBLIC	??1JFW_Message_Send_Zone_Player@@UAE@XZ		; JFW_Message_Send_Zone_Player::~JFW_Message_Send_Zone_Player
PUBLIC	??_GJFW_Message_Send_Zone_Player@@UAEPAXI@Z	; JFW_Message_Send_Zone_Player::`scalar deleting destructor'
PUBLIC	?Killed@JFW_Message_Send_Death@@EAEXPAVScriptableGameObj@@0@Z ; JFW_Message_Send_Death::Killed
PUBLIC	??0JFW_Message_Send_Death@@QAE@XZ		; JFW_Message_Send_Death::JFW_Message_Send_Death
PUBLIC	??1JFW_Message_Send_Death@@UAE@XZ		; JFW_Message_Send_Death::~JFW_Message_Send_Death
PUBLIC	??_GJFW_Message_Send_Death@@UAEPAXI@Z		; JFW_Message_Send_Death::`scalar deleting destructor'
PUBLIC	?Killed@JFW_Message_Send_Death_Team@@EAEXPAVScriptableGameObj@@0@Z ; JFW_Message_Send_Death_Team::Killed
PUBLIC	??0JFW_Message_Send_Death_Team@@QAE@XZ		; JFW_Message_Send_Death_Team::JFW_Message_Send_Death_Team
PUBLIC	??1JFW_Message_Send_Death_Team@@UAE@XZ		; JFW_Message_Send_Death_Team::~JFW_Message_Send_Death_Team
PUBLIC	??_GJFW_Message_Send_Death_Team@@UAEPAXI@Z	; JFW_Message_Send_Death_Team::`scalar deleting destructor'
PUBLIC	?Custom@JFW_Message_Send_Custom@@EAEXPAVScriptableGameObj@@HH0@Z ; JFW_Message_Send_Custom::Custom
PUBLIC	??0JFW_Message_Send_Custom@@QAE@XZ		; JFW_Message_Send_Custom::JFW_Message_Send_Custom
PUBLIC	??1JFW_Message_Send_Custom@@UAE@XZ		; JFW_Message_Send_Custom::~JFW_Message_Send_Custom
PUBLIC	??_GJFW_Message_Send_Custom@@UAEPAXI@Z		; JFW_Message_Send_Custom::`scalar deleting destructor'
PUBLIC	?Custom@JFW_Message_Send_Powerup@@EAEXPAVScriptableGameObj@@HH0@Z ; JFW_Message_Send_Powerup::Custom
PUBLIC	??0JFW_Message_Send_Powerup@@QAE@XZ		; JFW_Message_Send_Powerup::JFW_Message_Send_Powerup
PUBLIC	??1JFW_Message_Send_Powerup@@UAE@XZ		; JFW_Message_Send_Powerup::~JFW_Message_Send_Powerup
PUBLIC	??_GJFW_Message_Send_Powerup@@UAEPAXI@Z		; JFW_Message_Send_Powerup::`scalar deleting destructor'
PUBLIC	?Custom@JFW_Message_Send_Custom_Team@@EAEXPAVScriptableGameObj@@HH0@Z ; JFW_Message_Send_Custom_Team::Custom
PUBLIC	??0JFW_Message_Send_Custom_Team@@QAE@XZ		; JFW_Message_Send_Custom_Team::JFW_Message_Send_Custom_Team
PUBLIC	??1JFW_Message_Send_Custom_Team@@UAE@XZ		; JFW_Message_Send_Custom_Team::~JFW_Message_Send_Custom_Team
PUBLIC	??_GJFW_Message_Send_Custom_Team@@UAEPAXI@Z	; JFW_Message_Send_Custom_Team::`scalar deleting destructor'
PUBLIC	?Created@JFW_Spy_Switch_Team@@EAEXPAVScriptableGameObj@@@Z ; JFW_Spy_Switch_Team::Created
PUBLIC	?Killed@JFW_Spy_Switch_Team@@EAEXPAVScriptableGameObj@@0@Z ; JFW_Spy_Switch_Team::Killed
PUBLIC	?Destroyed@JFW_Spy_Switch_Team@@EAEXPAVScriptableGameObj@@@Z ; JFW_Spy_Switch_Team::Destroyed
PUBLIC	?Detach@JFW_Spy_Switch_Team@@EAEXPAVScriptableGameObj@@@Z ; JFW_Spy_Switch_Team::Detach
PUBLIC	??0JFW_Spy_Switch_Team@@QAE@XZ			; JFW_Spy_Switch_Team::JFW_Spy_Switch_Team
PUBLIC	??1JFW_Spy_Switch_Team@@UAE@XZ			; JFW_Spy_Switch_Team::~JFW_Spy_Switch_Team
PUBLIC	??_GJFW_Spy_Switch_Team@@UAEPAXI@Z		; JFW_Spy_Switch_Team::`scalar deleting destructor'
PUBLIC	?Created@JFW_Spy_Vehicle_Ignore@@EAEXPAVScriptableGameObj@@@Z ; JFW_Spy_Vehicle_Ignore::Created
PUBLIC	?Custom@JFW_Spy_Vehicle_Ignore@@EAEXPAVScriptableGameObj@@HH0@Z ; JFW_Spy_Vehicle_Ignore::Custom
PUBLIC	??0JFW_Spy_Vehicle_Ignore@@QAE@XZ		; JFW_Spy_Vehicle_Ignore::JFW_Spy_Vehicle_Ignore
PUBLIC	??1JFW_Spy_Vehicle_Ignore@@UAE@XZ		; JFW_Spy_Vehicle_Ignore::~JFW_Spy_Vehicle_Ignore
PUBLIC	??_GJFW_Spy_Vehicle_Ignore@@UAEPAXI@Z		; JFW_Spy_Vehicle_Ignore::`scalar deleting destructor'
PUBLIC	?Created@JFW_Spy_Vehicle_Ignore_New@@EAEXPAVScriptableGameObj@@@Z ; JFW_Spy_Vehicle_Ignore_New::Created
PUBLIC	?Custom@JFW_Spy_Vehicle_Ignore_New@@EAEXPAVScriptableGameObj@@HH0@Z ; JFW_Spy_Vehicle_Ignore_New::Custom
PUBLIC	??0JFW_Spy_Vehicle_Ignore_New@@QAE@XZ		; JFW_Spy_Vehicle_Ignore_New::JFW_Spy_Vehicle_Ignore_New
PUBLIC	??1JFW_Spy_Vehicle_Ignore_New@@UAE@XZ		; JFW_Spy_Vehicle_Ignore_New::~JFW_Spy_Vehicle_Ignore_New
PUBLIC	??_GJFW_Spy_Vehicle_Ignore_New@@UAEPAXI@Z	; JFW_Spy_Vehicle_Ignore_New::`scalar deleting destructor'
PUBLIC	?Entered@JFW_Message_Send_Zone_Player_Vehicle@@EAEXPAVScriptableGameObj@@0@Z ; JFW_Message_Send_Zone_Player_Vehicle::Entered
PUBLIC	??0JFW_Message_Send_Zone_Player_Vehicle@@QAE@XZ	; JFW_Message_Send_Zone_Player_Vehicle::JFW_Message_Send_Zone_Player_Vehicle
PUBLIC	??1JFW_Message_Send_Zone_Player_Vehicle@@UAE@XZ	; JFW_Message_Send_Zone_Player_Vehicle::~JFW_Message_Send_Zone_Player_Vehicle
PUBLIC	??_GJFW_Message_Send_Zone_Player_Vehicle@@UAEPAXI@Z ; JFW_Message_Send_Zone_Player_Vehicle::`scalar deleting destructor'
PUBLIC	?Custom@JFW_Water_Level@@EAEXPAVScriptableGameObj@@HH0@Z ; JFW_Water_Level::Custom
PUBLIC	??0JFW_Water_Level@@QAE@XZ			; JFW_Water_Level::JFW_Water_Level
PUBLIC	??1JFW_Water_Level@@UAE@XZ			; JFW_Water_Level::~JFW_Water_Level
PUBLIC	??_GJFW_Water_Level@@UAEPAXI@Z			; JFW_Water_Level::`scalar deleting destructor'
PUBLIC	?Created@JFW_Submarine@@EAEXPAVScriptableGameObj@@@Z ; JFW_Submarine::Created
PUBLIC	?Timer_Expired@JFW_Submarine@@EAEXPAVScriptableGameObj@@H@Z ; JFW_Submarine::Timer_Expired
PUBLIC	?Custom@JFW_Submarine@@EAEXPAVScriptableGameObj@@HH0@Z ; JFW_Submarine::Custom
PUBLIC	?Killed@JFW_Submarine@@EAEXPAVScriptableGameObj@@0@Z ; JFW_Submarine::Killed
PUBLIC	??0JFW_Submarine@@QAE@XZ			; JFW_Submarine::JFW_Submarine
PUBLIC	??1JFW_Submarine@@UAE@XZ			; JFW_Submarine::~JFW_Submarine
PUBLIC	??_GJFW_Submarine@@UAEPAXI@Z			; JFW_Submarine::`scalar deleting destructor'
PUBLIC	?Created@JFW_Reaper_Web@@EAEXPAVScriptableGameObj@@@Z ; JFW_Reaper_Web::Created
PUBLIC	?Damaged@JFW_Reaper_Web@@EAEXPAVScriptableGameObj@@0M@Z ; JFW_Reaper_Web::Damaged
PUBLIC	?Killed@JFW_Reaper_Web@@EAEXPAVScriptableGameObj@@0@Z ; JFW_Reaper_Web::Killed
PUBLIC	?Timer_Expired@JFW_Reaper_Web@@EAEXPAVScriptableGameObj@@H@Z ; JFW_Reaper_Web::Timer_Expired
PUBLIC	??0JFW_Reaper_Web@@QAE@XZ			; JFW_Reaper_Web::JFW_Reaper_Web
PUBLIC	??1JFW_Reaper_Web@@UAE@XZ			; JFW_Reaper_Web::~JFW_Reaper_Web
PUBLIC	??_GJFW_Reaper_Web@@UAEPAXI@Z			; JFW_Reaper_Web::`scalar deleting destructor'
PUBLIC	?Created@JFW_Toxic_Grenade@@EAEXPAVScriptableGameObj@@@Z ; JFW_Toxic_Grenade::Created
PUBLIC	?Damaged@JFW_Toxic_Grenade@@EAEXPAVScriptableGameObj@@0M@Z ; JFW_Toxic_Grenade::Damaged
PUBLIC	?Custom@JFW_Toxic_Grenade@@EAEXPAVScriptableGameObj@@HH0@Z ; JFW_Toxic_Grenade::Custom
PUBLIC	?Timer_Expired@JFW_Toxic_Grenade@@EAEXPAVScriptableGameObj@@H@Z ; JFW_Toxic_Grenade::Timer_Expired
PUBLIC	??0JFW_Toxic_Grenade@@QAE@XZ			; JFW_Toxic_Grenade::JFW_Toxic_Grenade
PUBLIC	??1JFW_Toxic_Grenade@@UAE@XZ			; JFW_Toxic_Grenade::~JFW_Toxic_Grenade
PUBLIC	??_GJFW_Toxic_Grenade@@UAEPAXI@Z		; JFW_Toxic_Grenade::`scalar deleting destructor'
PUBLIC	?Created@JFW_Hijacker_Vehicle@@EAEXPAVScriptableGameObj@@@Z ; JFW_Hijacker_Vehicle::Created
PUBLIC	?Damaged@JFW_Hijacker_Vehicle@@EAEXPAVScriptableGameObj@@0M@Z ; JFW_Hijacker_Vehicle::Damaged
PUBLIC	?Timer_Expired@JFW_Hijacker_Vehicle@@EAEXPAVScriptableGameObj@@H@Z ; JFW_Hijacker_Vehicle::Timer_Expired
PUBLIC	?Killed@JFW_Hijacker_Vehicle@@EAEXPAVScriptableGameObj@@0@Z ; JFW_Hijacker_Vehicle::Killed
PUBLIC	??0JFW_Hijacker_Vehicle@@QAE@XZ			; JFW_Hijacker_Vehicle::JFW_Hijacker_Vehicle
PUBLIC	??1JFW_Hijacker_Vehicle@@UAE@XZ			; JFW_Hijacker_Vehicle::~JFW_Hijacker_Vehicle
PUBLIC	??_GJFW_Hijacker_Vehicle@@UAEPAXI@Z		; JFW_Hijacker_Vehicle::`scalar deleting destructor'
PUBLIC	?Created@JFW_Hijacker_Vehicle_2@@EAEXPAVScriptableGameObj@@@Z ; JFW_Hijacker_Vehicle_2::Created
PUBLIC	?Damaged@JFW_Hijacker_Vehicle_2@@EAEXPAVScriptableGameObj@@0M@Z ; JFW_Hijacker_Vehicle_2::Damaged
PUBLIC	?Custom@JFW_Hijacker_Vehicle_2@@EAEXPAVScriptableGameObj@@HH0@Z ; JFW_Hijacker_Vehicle_2::Custom
PUBLIC	?Timer_Expired@JFW_Hijacker_Vehicle_2@@EAEXPAVScriptableGameObj@@H@Z ; JFW_Hijacker_Vehicle_2::Timer_Expired
PUBLIC	?Killed@JFW_Hijacker_Vehicle_2@@EAEXPAVScriptableGameObj@@0@Z ; JFW_Hijacker_Vehicle_2::Killed
PUBLIC	??0JFW_Hijacker_Vehicle_2@@QAE@XZ		; JFW_Hijacker_Vehicle_2::JFW_Hijacker_Vehicle_2
PUBLIC	??1JFW_Hijacker_Vehicle_2@@UAE@XZ		; JFW_Hijacker_Vehicle_2::~JFW_Hijacker_Vehicle_2
PUBLIC	??_GJFW_Hijacker_Vehicle_2@@UAEPAXI@Z		; JFW_Hijacker_Vehicle_2::`scalar deleting destructor'
PUBLIC	?Created@JFW_Building_Preset_Disable@@EAEXPAVScriptableGameObj@@@Z ; JFW_Building_Preset_Disable::Created
PUBLIC	?Custom@JFW_Building_Preset_Disable@@EAEXPAVScriptableGameObj@@HH0@Z ; JFW_Building_Preset_Disable::Custom
PUBLIC	?Killed@JFW_Building_Preset_Disable@@EAEXPAVScriptableGameObj@@0@Z ; JFW_Building_Preset_Disable::Killed
PUBLIC	??0JFW_Building_Preset_Disable@@QAE@XZ		; JFW_Building_Preset_Disable::JFW_Building_Preset_Disable
PUBLIC	??1JFW_Building_Preset_Disable@@UAE@XZ		; JFW_Building_Preset_Disable::~JFW_Building_Preset_Disable
PUBLIC	??_GJFW_Building_Preset_Disable@@UAEPAXI@Z	; JFW_Building_Preset_Disable::`scalar deleting destructor'
PUBLIC	??4ArmorWarheadManager@@QAEAAV0@ABV0@@Z		; ArmorWarheadManager::operator=
PUBLIC	?Set_Can_Drive_Vehicles@SoldierGameObj@@QAEX_N@Z ; SoldierGameObj::Set_Can_Drive_Vehicles
PUBLIC	?Set_Freeze@SoldierGameObj@@QAEX_N@Z		; SoldierGameObj::Set_Freeze
PUBLIC	?Set_Scripts_Can_Fire@VehicleGameObj@@QAEX_N@Z	; VehicleGameObj::Set_Scripts_Can_Fire
PUBLIC	?Is_Immovable@VehicleGameObj@@QAE_NXZ		; VehicleGameObj::Is_Immovable
PUBLIC	?Set_Lock_Team@VehicleGameObj@@QAEXH@Z		; VehicleGameObj::Set_Lock_Team
PUBLIC	??1CollideableObjClass@AnimCollisionManagerClass@@QAE@XZ ; AnimCollisionManagerClass::CollideableObjClass::~CollideableObjClass
PUBLIC	??_ECollideableObjClass@AnimCollisionManagerClass@@QAEPAXI@Z ; AnimCollisionManagerClass::CollideableObjClass::`vector deleting destructor'
PUBLIC	??0CollisionTestClass@@QAE@PAUCastResultStruct@@W4Collision_Type@@@Z ; CollisionTestClass::CollisionTestClass
PUBLIC	??0CollisionTestClass@@QAE@ABV0@@Z		; CollisionTestClass::CollisionTestClass
PUBLIC	??4CollisionTestClass@@QAEAAV0@ABV0@@Z		; CollisionTestClass::operator=
PUBLIC	?Cull@AABoxCollisionTestClass@@QAE_NABVVector3@@0@Z ; AABoxCollisionTestClass::Cull
PUBLIC	?Translate@AABoxCollisionTestClass@@QAEXABVVector3@@@Z ; AABoxCollisionTestClass::Translate
PUBLIC	?Cull@OBBoxCollisionTestClass@@QAE_NABVVector3@@0@Z ; OBBoxCollisionTestClass::Cull
PUBLIC	??0?$ScriptRegistrant@VJFW_Domination_Controler_End_Game@@@@QAE@PBD0@Z ; ScriptRegistrant<JFW_Domination_Controler_End_Game>::ScriptRegistrant<JFW_Domination_Controler_End_Game>
PUBLIC	?Create@?$ScriptRegistrant@VJFW_Domination_Controler_End_Game@@@@UAEPAVScriptImpClass@@XZ ; ScriptRegistrant<JFW_Domination_Controler_End_Game>::Create
PUBLIC	??1?$ScriptRegistrant@VJFW_Domination_Controler_End_Game@@@@UAE@XZ ; ScriptRegistrant<JFW_Domination_Controler_End_Game>::~ScriptRegistrant<JFW_Domination_Controler_End_Game>
PUBLIC	??_G?$ScriptRegistrant@VJFW_Domination_Controler_End_Game@@@@UAEPAXI@Z ; ScriptRegistrant<JFW_Domination_Controler_End_Game>::`scalar deleting destructor'
PUBLIC	??0?$ScriptRegistrant@VJFW_Carryable_Vehicle@@@@QAE@PBD0@Z ; ScriptRegistrant<JFW_Carryable_Vehicle>::ScriptRegistrant<JFW_Carryable_Vehicle>
PUBLIC	?Create@?$ScriptRegistrant@VJFW_Carryable_Vehicle@@@@UAEPAVScriptImpClass@@XZ ; ScriptRegistrant<JFW_Carryable_Vehicle>::Create
PUBLIC	??1?$ScriptRegistrant@VJFW_Carryable_Vehicle@@@@UAE@XZ ; ScriptRegistrant<JFW_Carryable_Vehicle>::~ScriptRegistrant<JFW_Carryable_Vehicle>
PUBLIC	??_G?$ScriptRegistrant@VJFW_Carryable_Vehicle@@@@UAEPAXI@Z ; ScriptRegistrant<JFW_Carryable_Vehicle>::`scalar deleting destructor'
PUBLIC	??0?$ScriptRegistrant@VJFW_CarryAll@@@@QAE@PBD0@Z ; ScriptRegistrant<JFW_CarryAll>::ScriptRegistrant<JFW_CarryAll>
PUBLIC	?Create@?$ScriptRegistrant@VJFW_CarryAll@@@@UAEPAVScriptImpClass@@XZ ; ScriptRegistrant<JFW_CarryAll>::Create
PUBLIC	??1?$ScriptRegistrant@VJFW_CarryAll@@@@UAE@XZ	; ScriptRegistrant<JFW_CarryAll>::~ScriptRegistrant<JFW_CarryAll>
PUBLIC	??_G?$ScriptRegistrant@VJFW_CarryAll@@@@UAEPAXI@Z ; ScriptRegistrant<JFW_CarryAll>::`scalar deleting destructor'
PUBLIC	??0?$ScriptRegistrant@VJFW_Carry_Control@@@@QAE@PBD0@Z ; ScriptRegistrant<JFW_Carry_Control>::ScriptRegistrant<JFW_Carry_Control>
PUBLIC	?Create@?$ScriptRegistrant@VJFW_Carry_Control@@@@UAEPAVScriptImpClass@@XZ ; ScriptRegistrant<JFW_Carry_Control>::Create
PUBLIC	??1?$ScriptRegistrant@VJFW_Carry_Control@@@@UAE@XZ ; ScriptRegistrant<JFW_Carry_Control>::~ScriptRegistrant<JFW_Carry_Control>
PUBLIC	??_G?$ScriptRegistrant@VJFW_Carry_Control@@@@UAEPAXI@Z ; ScriptRegistrant<JFW_Carry_Control>::`scalar deleting destructor'
PUBLIC	??0?$ScriptRegistrant@VJFW_Sensor_Array@@@@QAE@PBD0@Z ; ScriptRegistrant<JFW_Sensor_Array>::ScriptRegistrant<JFW_Sensor_Array>
PUBLIC	?Create@?$ScriptRegistrant@VJFW_Sensor_Array@@@@UAEPAVScriptImpClass@@XZ ; ScriptRegistrant<JFW_Sensor_Array>::Create
PUBLIC	??1?$ScriptRegistrant@VJFW_Sensor_Array@@@@UAE@XZ ; ScriptRegistrant<JFW_Sensor_Array>::~ScriptRegistrant<JFW_Sensor_Array>
PUBLIC	??_G?$ScriptRegistrant@VJFW_Sensor_Array@@@@UAEPAXI@Z ; ScriptRegistrant<JFW_Sensor_Array>::`scalar deleting destructor'
PUBLIC	??0?$ScriptRegistrant@VJFW_Team_DM_Controller_2@@@@QAE@PBD0@Z ; ScriptRegistrant<JFW_Team_DM_Controller_2>::ScriptRegistrant<JFW_Team_DM_Controller_2>
PUBLIC	?Create@?$ScriptRegistrant@VJFW_Team_DM_Controller_2@@@@UAEPAVScriptImpClass@@XZ ; ScriptRegistrant<JFW_Team_DM_Controller_2>::Create
PUBLIC	??1?$ScriptRegistrant@VJFW_Team_DM_Controller_2@@@@UAE@XZ ; ScriptRegistrant<JFW_Team_DM_Controller_2>::~ScriptRegistrant<JFW_Team_DM_Controller_2>
PUBLIC	??_G?$ScriptRegistrant@VJFW_Team_DM_Controller_2@@@@UAEPAXI@Z ; ScriptRegistrant<JFW_Team_DM_Controller_2>::`scalar deleting destructor'
PUBLIC	??0?$ScriptRegistrant@VJFW_Vehicle_Thief@@@@QAE@PBD0@Z ; ScriptRegistrant<JFW_Vehicle_Thief>::ScriptRegistrant<JFW_Vehicle_Thief>
PUBLIC	?Create@?$ScriptRegistrant@VJFW_Vehicle_Thief@@@@UAEPAVScriptImpClass@@XZ ; ScriptRegistrant<JFW_Vehicle_Thief>::Create
PUBLIC	??1?$ScriptRegistrant@VJFW_Vehicle_Thief@@@@UAE@XZ ; ScriptRegistrant<JFW_Vehicle_Thief>::~ScriptRegistrant<JFW_Vehicle_Thief>
PUBLIC	??_G?$ScriptRegistrant@VJFW_Vehicle_Thief@@@@UAEPAXI@Z ; ScriptRegistrant<JFW_Vehicle_Thief>::`scalar deleting destructor'
PUBLIC	??0?$ScriptRegistrant@VJFW_Vehicle_Thief_2@@@@QAE@PBD0@Z ; ScriptRegistrant<JFW_Vehicle_Thief_2>::ScriptRegistrant<JFW_Vehicle_Thief_2>
PUBLIC	?Create@?$ScriptRegistrant@VJFW_Vehicle_Thief_2@@@@UAEPAVScriptImpClass@@XZ ; ScriptRegistrant<JFW_Vehicle_Thief_2>::Create
PUBLIC	??1?$ScriptRegistrant@VJFW_Vehicle_Thief_2@@@@UAE@XZ ; ScriptRegistrant<JFW_Vehicle_Thief_2>::~ScriptRegistrant<JFW_Vehicle_Thief_2>
PUBLIC	??_G?$ScriptRegistrant@VJFW_Vehicle_Thief_2@@@@UAEPAXI@Z ; ScriptRegistrant<JFW_Vehicle_Thief_2>::`scalar deleting destructor'
PUBLIC	??0?$ScriptRegistrant@VJFW_Conyard@@@@QAE@PBD0@Z ; ScriptRegistrant<JFW_Conyard>::ScriptRegistrant<JFW_Conyard>
PUBLIC	?Create@?$ScriptRegistrant@VJFW_Conyard@@@@UAEPAVScriptImpClass@@XZ ; ScriptRegistrant<JFW_Conyard>::Create
PUBLIC	??1?$ScriptRegistrant@VJFW_Conyard@@@@UAE@XZ	; ScriptRegistrant<JFW_Conyard>::~ScriptRegistrant<JFW_Conyard>
PUBLIC	??_G?$ScriptRegistrant@VJFW_Conyard@@@@UAEPAXI@Z ; ScriptRegistrant<JFW_Conyard>::`scalar deleting destructor'
PUBLIC	??0?$ScriptRegistrant@VJFW_Flying_Infantry@@@@QAE@PBD0@Z ; ScriptRegistrant<JFW_Flying_Infantry>::ScriptRegistrant<JFW_Flying_Infantry>
PUBLIC	?Create@?$ScriptRegistrant@VJFW_Flying_Infantry@@@@UAEPAVScriptImpClass@@XZ ; ScriptRegistrant<JFW_Flying_Infantry>::Create
PUBLIC	??1?$ScriptRegistrant@VJFW_Flying_Infantry@@@@UAE@XZ ; ScriptRegistrant<JFW_Flying_Infantry>::~ScriptRegistrant<JFW_Flying_Infantry>
PUBLIC	??_G?$ScriptRegistrant@VJFW_Flying_Infantry@@@@UAEPAXI@Z ; ScriptRegistrant<JFW_Flying_Infantry>::`scalar deleting destructor'
PUBLIC	??0?$ScriptRegistrant@VJFW_Flying_Infantry_Custom@@@@QAE@PBD0@Z ; ScriptRegistrant<JFW_Flying_Infantry_Custom>::ScriptRegistrant<JFW_Flying_Infantry_Custom>
PUBLIC	?Create@?$ScriptRegistrant@VJFW_Flying_Infantry_Custom@@@@UAEPAVScriptImpClass@@XZ ; ScriptRegistrant<JFW_Flying_Infantry_Custom>::Create
PUBLIC	??1?$ScriptRegistrant@VJFW_Flying_Infantry_Custom@@@@UAE@XZ ; ScriptRegistrant<JFW_Flying_Infantry_Custom>::~ScriptRegistrant<JFW_Flying_Infantry_Custom>
PUBLIC	??_G?$ScriptRegistrant@VJFW_Flying_Infantry_Custom@@@@UAEPAXI@Z ; ScriptRegistrant<JFW_Flying_Infantry_Custom>::`scalar deleting destructor'
PUBLIC	??0?$ScriptRegistrant@VJFW_Flying_Infantry_Powerup@@@@QAE@PBD0@Z ; ScriptRegistrant<JFW_Flying_Infantry_Powerup>::ScriptRegistrant<JFW_Flying_Infantry_Powerup>
PUBLIC	?Create@?$ScriptRegistrant@VJFW_Flying_Infantry_Powerup@@@@UAEPAVScriptImpClass@@XZ ; ScriptRegistrant<JFW_Flying_Infantry_Powerup>::Create
PUBLIC	??1?$ScriptRegistrant@VJFW_Flying_Infantry_Powerup@@@@UAE@XZ ; ScriptRegistrant<JFW_Flying_Infantry_Powerup>::~ScriptRegistrant<JFW_Flying_Infantry_Powerup>
PUBLIC	??_G?$ScriptRegistrant@VJFW_Flying_Infantry_Powerup@@@@UAEPAXI@Z ; ScriptRegistrant<JFW_Flying_Infantry_Powerup>::`scalar deleting destructor'
PUBLIC	??0?$ScriptRegistrant@VJFW_Flying_Infantry_Enter@@@@QAE@PBD0@Z ; ScriptRegistrant<JFW_Flying_Infantry_Enter>::ScriptRegistrant<JFW_Flying_Infantry_Enter>
PUBLIC	?Create@?$ScriptRegistrant@VJFW_Flying_Infantry_Enter@@@@UAEPAVScriptImpClass@@XZ ; ScriptRegistrant<JFW_Flying_Infantry_Enter>::Create
PUBLIC	??1?$ScriptRegistrant@VJFW_Flying_Infantry_Enter@@@@UAE@XZ ; ScriptRegistrant<JFW_Flying_Infantry_Enter>::~ScriptRegistrant<JFW_Flying_Infantry_Enter>
PUBLIC	??_G?$ScriptRegistrant@VJFW_Flying_Infantry_Enter@@@@UAEPAXI@Z ; ScriptRegistrant<JFW_Flying_Infantry_Enter>::`scalar deleting destructor'
PUBLIC	??0?$ScriptRegistrant@VJFW_Flying_Infantry_Exit@@@@QAE@PBD0@Z ; ScriptRegistrant<JFW_Flying_Infantry_Exit>::ScriptRegistrant<JFW_Flying_Infantry_Exit>
PUBLIC	?Create@?$ScriptRegistrant@VJFW_Flying_Infantry_Exit@@@@UAEPAVScriptImpClass@@XZ ; ScriptRegistrant<JFW_Flying_Infantry_Exit>::Create
PUBLIC	??1?$ScriptRegistrant@VJFW_Flying_Infantry_Exit@@@@UAE@XZ ; ScriptRegistrant<JFW_Flying_Infantry_Exit>::~ScriptRegistrant<JFW_Flying_Infantry_Exit>
PUBLIC	??_G?$ScriptRegistrant@VJFW_Flying_Infantry_Exit@@@@UAEPAXI@Z ; ScriptRegistrant<JFW_Flying_Infantry_Exit>::`scalar deleting destructor'
PUBLIC	??0?$ScriptRegistrant@VJFW_Drone_Damage@@@@QAE@PBD0@Z ; ScriptRegistrant<JFW_Drone_Damage>::ScriptRegistrant<JFW_Drone_Damage>
PUBLIC	?Create@?$ScriptRegistrant@VJFW_Drone_Damage@@@@UAEPAVScriptImpClass@@XZ ; ScriptRegistrant<JFW_Drone_Damage>::Create
PUBLIC	??1?$ScriptRegistrant@VJFW_Drone_Damage@@@@UAE@XZ ; ScriptRegistrant<JFW_Drone_Damage>::~ScriptRegistrant<JFW_Drone_Damage>
PUBLIC	??_G?$ScriptRegistrant@VJFW_Drone_Damage@@@@UAEPAXI@Z ; ScriptRegistrant<JFW_Drone_Damage>::`scalar deleting destructor'
PUBLIC	??0?$ScriptRegistrant@VJFW_Conyard_Vehicle_Buildings@@@@QAE@PBD0@Z ; ScriptRegistrant<JFW_Conyard_Vehicle_Buildings>::ScriptRegistrant<JFW_Conyard_Vehicle_Buildings>
PUBLIC	?Create@?$ScriptRegistrant@VJFW_Conyard_Vehicle_Buildings@@@@UAEPAVScriptImpClass@@XZ ; ScriptRegistrant<JFW_Conyard_Vehicle_Buildings>::Create
PUBLIC	??1?$ScriptRegistrant@VJFW_Conyard_Vehicle_Buildings@@@@UAE@XZ ; ScriptRegistrant<JFW_Conyard_Vehicle_Buildings>::~ScriptRegistrant<JFW_Conyard_Vehicle_Buildings>
PUBLIC	??_G?$ScriptRegistrant@VJFW_Conyard_Vehicle_Buildings@@@@UAEPAXI@Z ; ScriptRegistrant<JFW_Conyard_Vehicle_Buildings>::`scalar deleting destructor'
PUBLIC	??0?$ScriptRegistrant@VJFW_Domination_Zone@@@@QAE@PBD0@Z ; ScriptRegistrant<JFW_Domination_Zone>::ScriptRegistrant<JFW_Domination_Zone>
PUBLIC	?Create@?$ScriptRegistrant@VJFW_Domination_Zone@@@@UAEPAVScriptImpClass@@XZ ; ScriptRegistrant<JFW_Domination_Zone>::Create
PUBLIC	??1?$ScriptRegistrant@VJFW_Domination_Zone@@@@UAE@XZ ; ScriptRegistrant<JFW_Domination_Zone>::~ScriptRegistrant<JFW_Domination_Zone>
PUBLIC	??_G?$ScriptRegistrant@VJFW_Domination_Zone@@@@UAEPAXI@Z ; ScriptRegistrant<JFW_Domination_Zone>::`scalar deleting destructor'
PUBLIC	??0?$ScriptRegistrant@VJFW_Domination_Controler@@@@QAE@PBD0@Z ; ScriptRegistrant<JFW_Domination_Controler>::ScriptRegistrant<JFW_Domination_Controler>
PUBLIC	?Create@?$ScriptRegistrant@VJFW_Domination_Controler@@@@UAEPAVScriptImpClass@@XZ ; ScriptRegistrant<JFW_Domination_Controler>::Create
PUBLIC	??1?$ScriptRegistrant@VJFW_Domination_Controler@@@@UAE@XZ ; ScriptRegistrant<JFW_Domination_Controler>::~ScriptRegistrant<JFW_Domination_Controler>
PUBLIC	??_G?$ScriptRegistrant@VJFW_Domination_Controler@@@@UAEPAXI@Z ; ScriptRegistrant<JFW_Domination_Controler>::`scalar deleting destructor'
PUBLIC	??0?$ScriptRegistrant@VJFW_Iron_Curtain_Zone@@@@QAE@PBD0@Z ; ScriptRegistrant<JFW_Iron_Curtain_Zone>::ScriptRegistrant<JFW_Iron_Curtain_Zone>
PUBLIC	?Create@?$ScriptRegistrant@VJFW_Iron_Curtain_Zone@@@@UAEPAVScriptImpClass@@XZ ; ScriptRegistrant<JFW_Iron_Curtain_Zone>::Create
PUBLIC	??1?$ScriptRegistrant@VJFW_Iron_Curtain_Zone@@@@UAE@XZ ; ScriptRegistrant<JFW_Iron_Curtain_Zone>::~ScriptRegistrant<JFW_Iron_Curtain_Zone>
PUBLIC	??_G?$ScriptRegistrant@VJFW_Iron_Curtain_Zone@@@@UAEPAXI@Z ; ScriptRegistrant<JFW_Iron_Curtain_Zone>::`scalar deleting destructor'
PUBLIC	??0?$ScriptRegistrant@VJFW_Chrono_Controler_Zone@@@@QAE@PBD0@Z ; ScriptRegistrant<JFW_Chrono_Controler_Zone>::ScriptRegistrant<JFW_Chrono_Controler_Zone>
PUBLIC	?Create@?$ScriptRegistrant@VJFW_Chrono_Controler_Zone@@@@UAEPAVScriptImpClass@@XZ ; ScriptRegistrant<JFW_Chrono_Controler_Zone>::Create
PUBLIC	??1?$ScriptRegistrant@VJFW_Chrono_Controler_Zone@@@@UAE@XZ ; ScriptRegistrant<JFW_Chrono_Controler_Zone>::~ScriptRegistrant<JFW_Chrono_Controler_Zone>
PUBLIC	??_G?$ScriptRegistrant@VJFW_Chrono_Controler_Zone@@@@UAEPAXI@Z ; ScriptRegistrant<JFW_Chrono_Controler_Zone>::`scalar deleting destructor'
PUBLIC	??0?$ScriptRegistrant@VJFW_Assault_Powerplant_Controller@@@@QAE@PBD0@Z ; ScriptRegistrant<JFW_Assault_Powerplant_Controller>::ScriptRegistrant<JFW_Assault_Powerplant_Controller>
PUBLIC	?Create@?$ScriptRegistrant@VJFW_Assault_Powerplant_Controller@@@@UAEPAVScriptImpClass@@XZ ; ScriptRegistrant<JFW_Assault_Powerplant_Controller>::Create
PUBLIC	??1?$ScriptRegistrant@VJFW_Assault_Powerplant_Controller@@@@UAE@XZ ; ScriptRegistrant<JFW_Assault_Powerplant_Controller>::~ScriptRegistrant<JFW_Assault_Powerplant_Controller>
PUBLIC	??_G?$ScriptRegistrant@VJFW_Assault_Powerplant_Controller@@@@UAEPAXI@Z ; ScriptRegistrant<JFW_Assault_Powerplant_Controller>::`scalar deleting destructor'
PUBLIC	??0?$ScriptRegistrant@VJFW_Resource_Collector@@@@QAE@PBD0@Z ; ScriptRegistrant<JFW_Resource_Collector>::ScriptRegistrant<JFW_Resource_Collector>
PUBLIC	?Create@?$ScriptRegistrant@VJFW_Resource_Collector@@@@UAEPAVScriptImpClass@@XZ ; ScriptRegistrant<JFW_Resource_Collector>::Create
PUBLIC	??1?$ScriptRegistrant@VJFW_Resource_Collector@@@@UAE@XZ ; ScriptRegistrant<JFW_Resource_Collector>::~ScriptRegistrant<JFW_Resource_Collector>
PUBLIC	??_G?$ScriptRegistrant@VJFW_Resource_Collector@@@@UAEPAXI@Z ; ScriptRegistrant<JFW_Resource_Collector>::`scalar deleting destructor'
PUBLIC	??0?$ScriptRegistrant@VJFW_Resource_Collector_2@@@@QAE@PBD0@Z ; ScriptRegistrant<JFW_Resource_Collector_2>::ScriptRegistrant<JFW_Resource_Collector_2>
PUBLIC	?Create@?$ScriptRegistrant@VJFW_Resource_Collector_2@@@@UAEPAVScriptImpClass@@XZ ; ScriptRegistrant<JFW_Resource_Collector_2>::Create
PUBLIC	??1?$ScriptRegistrant@VJFW_Resource_Collector_2@@@@UAE@XZ ; ScriptRegistrant<JFW_Resource_Collector_2>::~ScriptRegistrant<JFW_Resource_Collector_2>
PUBLIC	??_G?$ScriptRegistrant@VJFW_Resource_Collector_2@@@@UAEPAXI@Z ; ScriptRegistrant<JFW_Resource_Collector_2>::`scalar deleting destructor'
PUBLIC	??0?$ScriptRegistrant@VJFW_Resource_Collector_3@@@@QAE@PBD0@Z ; ScriptRegistrant<JFW_Resource_Collector_3>::ScriptRegistrant<JFW_Resource_Collector_3>
PUBLIC	?Create@?$ScriptRegistrant@VJFW_Resource_Collector_3@@@@UAEPAVScriptImpClass@@XZ ; ScriptRegistrant<JFW_Resource_Collector_3>::Create
PUBLIC	??1?$ScriptRegistrant@VJFW_Resource_Collector_3@@@@UAE@XZ ; ScriptRegistrant<JFW_Resource_Collector_3>::~ScriptRegistrant<JFW_Resource_Collector_3>
PUBLIC	??_G?$ScriptRegistrant@VJFW_Resource_Collector_3@@@@UAEPAXI@Z ; ScriptRegistrant<JFW_Resource_Collector_3>::`scalar deleting destructor'
PUBLIC	??0?$ScriptRegistrant@VJFW_Resource_Refinery@@@@QAE@PBD0@Z ; ScriptRegistrant<JFW_Resource_Refinery>::ScriptRegistrant<JFW_Resource_Refinery>
PUBLIC	?Create@?$ScriptRegistrant@VJFW_Resource_Refinery@@@@UAEPAVScriptImpClass@@XZ ; ScriptRegistrant<JFW_Resource_Refinery>::Create
PUBLIC	??1?$ScriptRegistrant@VJFW_Resource_Refinery@@@@UAE@XZ ; ScriptRegistrant<JFW_Resource_Refinery>::~ScriptRegistrant<JFW_Resource_Refinery>
PUBLIC	??_G?$ScriptRegistrant@VJFW_Resource_Refinery@@@@UAEPAXI@Z ; ScriptRegistrant<JFW_Resource_Refinery>::`scalar deleting destructor'
PUBLIC	??0?$ScriptRegistrant@VJFW_Resource_Field@@@@QAE@PBD0@Z ; ScriptRegistrant<JFW_Resource_Field>::ScriptRegistrant<JFW_Resource_Field>
PUBLIC	?Create@?$ScriptRegistrant@VJFW_Resource_Field@@@@UAEPAVScriptImpClass@@XZ ; ScriptRegistrant<JFW_Resource_Field>::Create
PUBLIC	??1?$ScriptRegistrant@VJFW_Resource_Field@@@@UAE@XZ ; ScriptRegistrant<JFW_Resource_Field>::~ScriptRegistrant<JFW_Resource_Field>
PUBLIC	??_G?$ScriptRegistrant@VJFW_Resource_Field@@@@UAEPAXI@Z ; ScriptRegistrant<JFW_Resource_Field>::`scalar deleting destructor'
PUBLIC	??0?$ScriptRegistrant@VJFW_Team_DM_Controller@@@@QAE@PBD0@Z ; ScriptRegistrant<JFW_Team_DM_Controller>::ScriptRegistrant<JFW_Team_DM_Controller>
PUBLIC	?Create@?$ScriptRegistrant@VJFW_Team_DM_Controller@@@@UAEPAVScriptImpClass@@XZ ; ScriptRegistrant<JFW_Team_DM_Controller>::Create
PUBLIC	??1?$ScriptRegistrant@VJFW_Team_DM_Controller@@@@UAE@XZ ; ScriptRegistrant<JFW_Team_DM_Controller>::~ScriptRegistrant<JFW_Team_DM_Controller>
PUBLIC	??_G?$ScriptRegistrant@VJFW_Team_DM_Controller@@@@UAEPAXI@Z ; ScriptRegistrant<JFW_Team_DM_Controller>::`scalar deleting destructor'
PUBLIC	??0?$ScriptRegistrant@VJFW_Team_DM_Zone@@@@QAE@PBD0@Z ; ScriptRegistrant<JFW_Team_DM_Zone>::ScriptRegistrant<JFW_Team_DM_Zone>
PUBLIC	?Create@?$ScriptRegistrant@VJFW_Team_DM_Zone@@@@UAEPAVScriptImpClass@@XZ ; ScriptRegistrant<JFW_Team_DM_Zone>::Create
PUBLIC	??1?$ScriptRegistrant@VJFW_Team_DM_Zone@@@@UAE@XZ ; ScriptRegistrant<JFW_Team_DM_Zone>::~ScriptRegistrant<JFW_Team_DM_Zone>
PUBLIC	??_G?$ScriptRegistrant@VJFW_Team_DM_Zone@@@@UAEPAXI@Z ; ScriptRegistrant<JFW_Team_DM_Zone>::`scalar deleting destructor'
PUBLIC	??0?$ScriptRegistrant@VJFW_Team_DM_Attatched@@@@QAE@PBD0@Z ; ScriptRegistrant<JFW_Team_DM_Attatched>::ScriptRegistrant<JFW_Team_DM_Attatched>
PUBLIC	?Create@?$ScriptRegistrant@VJFW_Team_DM_Attatched@@@@UAEPAVScriptImpClass@@XZ ; ScriptRegistrant<JFW_Team_DM_Attatched>::Create
PUBLIC	??1?$ScriptRegistrant@VJFW_Team_DM_Attatched@@@@UAE@XZ ; ScriptRegistrant<JFW_Team_DM_Attatched>::~ScriptRegistrant<JFW_Team_DM_Attatched>
PUBLIC	??_G?$ScriptRegistrant@VJFW_Team_DM_Attatched@@@@UAEPAXI@Z ; ScriptRegistrant<JFW_Team_DM_Attatched>::`scalar deleting destructor'
PUBLIC	??0?$ScriptRegistrant@VJFW_Conyard_Radius@@@@QAE@PBD0@Z ; ScriptRegistrant<JFW_Conyard_Radius>::ScriptRegistrant<JFW_Conyard_Radius>
PUBLIC	?Create@?$ScriptRegistrant@VJFW_Conyard_Radius@@@@UAEPAVScriptImpClass@@XZ ; ScriptRegistrant<JFW_Conyard_Radius>::Create
PUBLIC	??1?$ScriptRegistrant@VJFW_Conyard_Radius@@@@UAE@XZ ; ScriptRegistrant<JFW_Conyard_Radius>::~ScriptRegistrant<JFW_Conyard_Radius>
PUBLIC	??_G?$ScriptRegistrant@VJFW_Conyard_Radius@@@@UAEPAXI@Z ; ScriptRegistrant<JFW_Conyard_Radius>::`scalar deleting destructor'
PUBLIC	??0?$ScriptRegistrant@VJFW_Chrono_Harvester_Logic@@@@QAE@PBD0@Z ; ScriptRegistrant<JFW_Chrono_Harvester_Logic>::ScriptRegistrant<JFW_Chrono_Harvester_Logic>
PUBLIC	?Create@?$ScriptRegistrant@VJFW_Chrono_Harvester_Logic@@@@UAEPAVScriptImpClass@@XZ ; ScriptRegistrant<JFW_Chrono_Harvester_Logic>::Create
PUBLIC	??1?$ScriptRegistrant@VJFW_Chrono_Harvester_Logic@@@@UAE@XZ ; ScriptRegistrant<JFW_Chrono_Harvester_Logic>::~ScriptRegistrant<JFW_Chrono_Harvester_Logic>
PUBLIC	??_G?$ScriptRegistrant@VJFW_Chrono_Harvester_Logic@@@@UAEPAXI@Z ; ScriptRegistrant<JFW_Chrono_Harvester_Logic>::`scalar deleting destructor'
PUBLIC	??0?$ScriptRegistrant@VJFW_Chrono_Harvester_Attached@@@@QAE@PBD0@Z ; ScriptRegistrant<JFW_Chrono_Harvester_Attached>::ScriptRegistrant<JFW_Chrono_Harvester_Attached>
PUBLIC	?Create@?$ScriptRegistrant@VJFW_Chrono_Harvester_Attached@@@@UAEPAVScriptImpClass@@XZ ; ScriptRegistrant<JFW_Chrono_Harvester_Attached>::Create
PUBLIC	??1?$ScriptRegistrant@VJFW_Chrono_Harvester_Attached@@@@UAE@XZ ; ScriptRegistrant<JFW_Chrono_Harvester_Attached>::~ScriptRegistrant<JFW_Chrono_Harvester_Attached>
PUBLIC	??_G?$ScriptRegistrant@VJFW_Chrono_Harvester_Attached@@@@UAEPAXI@Z ; ScriptRegistrant<JFW_Chrono_Harvester_Attached>::`scalar deleting destructor'
PUBLIC	??0?$ScriptRegistrant@VJFW_Chrono_Harvester_Kill@@@@QAE@PBD0@Z ; ScriptRegistrant<JFW_Chrono_Harvester_Kill>::ScriptRegistrant<JFW_Chrono_Harvester_Kill>
PUBLIC	?Create@?$ScriptRegistrant@VJFW_Chrono_Harvester_Kill@@@@UAEPAVScriptImpClass@@XZ ; ScriptRegistrant<JFW_Chrono_Harvester_Kill>::Create
PUBLIC	??1?$ScriptRegistrant@VJFW_Chrono_Harvester_Kill@@@@UAE@XZ ; ScriptRegistrant<JFW_Chrono_Harvester_Kill>::~ScriptRegistrant<JFW_Chrono_Harvester_Kill>
PUBLIC	??_G?$ScriptRegistrant@VJFW_Chrono_Harvester_Kill@@@@UAEPAXI@Z ; ScriptRegistrant<JFW_Chrono_Harvester_Kill>::`scalar deleting destructor'
PUBLIC	??0?$ScriptRegistrant@VJFW_Chrono_Harvester_Spawn_Kill@@@@QAE@PBD0@Z ; ScriptRegistrant<JFW_Chrono_Harvester_Spawn_Kill>::ScriptRegistrant<JFW_Chrono_Harvester_Spawn_Kill>
PUBLIC	?Create@?$ScriptRegistrant@VJFW_Chrono_Harvester_Spawn_Kill@@@@UAEPAVScriptImpClass@@XZ ; ScriptRegistrant<JFW_Chrono_Harvester_Spawn_Kill>::Create
PUBLIC	??1?$ScriptRegistrant@VJFW_Chrono_Harvester_Spawn_Kill@@@@UAE@XZ ; ScriptRegistrant<JFW_Chrono_Harvester_Spawn_Kill>::~ScriptRegistrant<JFW_Chrono_Harvester_Spawn_Kill>
PUBLIC	??_G?$ScriptRegistrant@VJFW_Chrono_Harvester_Spawn_Kill@@@@UAEPAXI@Z ; ScriptRegistrant<JFW_Chrono_Harvester_Spawn_Kill>::`scalar deleting destructor'
PUBLIC	??0?$ScriptRegistrant@VJFW_Conyard_Turrets@@@@QAE@PBD0@Z ; ScriptRegistrant<JFW_Conyard_Turrets>::ScriptRegistrant<JFW_Conyard_Turrets>
PUBLIC	?Create@?$ScriptRegistrant@VJFW_Conyard_Turrets@@@@UAEPAVScriptImpClass@@XZ ; ScriptRegistrant<JFW_Conyard_Turrets>::Create
PUBLIC	??1?$ScriptRegistrant@VJFW_Conyard_Turrets@@@@UAE@XZ ; ScriptRegistrant<JFW_Conyard_Turrets>::~ScriptRegistrant<JFW_Conyard_Turrets>
PUBLIC	??_G?$ScriptRegistrant@VJFW_Conyard_Turrets@@@@UAEPAXI@Z ; ScriptRegistrant<JFW_Conyard_Turrets>::`scalar deleting destructor'
PUBLIC	??0?$ScriptRegistrant@VJFW_Radar_Jammer@@@@QAE@PBD0@Z ; ScriptRegistrant<JFW_Radar_Jammer>::ScriptRegistrant<JFW_Radar_Jammer>
PUBLIC	?Create@?$ScriptRegistrant@VJFW_Radar_Jammer@@@@UAEPAVScriptImpClass@@XZ ; ScriptRegistrant<JFW_Radar_Jammer>::Create
PUBLIC	??1?$ScriptRegistrant@VJFW_Radar_Jammer@@@@UAE@XZ ; ScriptRegistrant<JFW_Radar_Jammer>::~ScriptRegistrant<JFW_Radar_Jammer>
PUBLIC	??_G?$ScriptRegistrant@VJFW_Radar_Jammer@@@@UAEPAXI@Z ; ScriptRegistrant<JFW_Radar_Jammer>::`scalar deleting destructor'
PUBLIC	??0?$ScriptRegistrant@VJFW_Radar_Jammer_Sound@@@@QAE@PBD0@Z ; ScriptRegistrant<JFW_Radar_Jammer_Sound>::ScriptRegistrant<JFW_Radar_Jammer_Sound>
PUBLIC	?Create@?$ScriptRegistrant@VJFW_Radar_Jammer_Sound@@@@UAEPAVScriptImpClass@@XZ ; ScriptRegistrant<JFW_Radar_Jammer_Sound>::Create
PUBLIC	??1?$ScriptRegistrant@VJFW_Radar_Jammer_Sound@@@@UAE@XZ ; ScriptRegistrant<JFW_Radar_Jammer_Sound>::~ScriptRegistrant<JFW_Radar_Jammer_Sound>
PUBLIC	??_G?$ScriptRegistrant@VJFW_Radar_Jammer_Sound@@@@UAEPAXI@Z ; ScriptRegistrant<JFW_Radar_Jammer_Sound>::`scalar deleting destructor'
PUBLIC	??0?$ScriptRegistrant@VJFW_Sonar_Pulse@@@@QAE@PBD0@Z ; ScriptRegistrant<JFW_Sonar_Pulse>::ScriptRegistrant<JFW_Sonar_Pulse>
PUBLIC	?Create@?$ScriptRegistrant@VJFW_Sonar_Pulse@@@@UAEPAVScriptImpClass@@XZ ; ScriptRegistrant<JFW_Sonar_Pulse>::Create
PUBLIC	??1?$ScriptRegistrant@VJFW_Sonar_Pulse@@@@UAE@XZ ; ScriptRegistrant<JFW_Sonar_Pulse>::~ScriptRegistrant<JFW_Sonar_Pulse>
PUBLIC	??_G?$ScriptRegistrant@VJFW_Sonar_Pulse@@@@UAEPAXI@Z ; ScriptRegistrant<JFW_Sonar_Pulse>::`scalar deleting destructor'
PUBLIC	??0?$ScriptRegistrant@VJFW_Global_Stealth_Controller@@@@QAE@PBD0@Z ; ScriptRegistrant<JFW_Global_Stealth_Controller>::ScriptRegistrant<JFW_Global_Stealth_Controller>
PUBLIC	?Create@?$ScriptRegistrant@VJFW_Global_Stealth_Controller@@@@UAEPAVScriptImpClass@@XZ ; ScriptRegistrant<JFW_Global_Stealth_Controller>::Create
PUBLIC	??1?$ScriptRegistrant@VJFW_Global_Stealth_Controller@@@@UAE@XZ ; ScriptRegistrant<JFW_Global_Stealth_Controller>::~ScriptRegistrant<JFW_Global_Stealth_Controller>
PUBLIC	??_G?$ScriptRegistrant@VJFW_Global_Stealth_Controller@@@@UAEPAXI@Z ; ScriptRegistrant<JFW_Global_Stealth_Controller>::`scalar deleting destructor'
PUBLIC	??0?$ScriptRegistrant@VJFW_Stealth_Generator_Building@@@@QAE@PBD0@Z ; ScriptRegistrant<JFW_Stealth_Generator_Building>::ScriptRegistrant<JFW_Stealth_Generator_Building>
PUBLIC	?Create@?$ScriptRegistrant@VJFW_Stealth_Generator_Building@@@@UAEPAVScriptImpClass@@XZ ; ScriptRegistrant<JFW_Stealth_Generator_Building>::Create
PUBLIC	??1?$ScriptRegistrant@VJFW_Stealth_Generator_Building@@@@UAE@XZ ; ScriptRegistrant<JFW_Stealth_Generator_Building>::~ScriptRegistrant<JFW_Stealth_Generator_Building>
PUBLIC	??_G?$ScriptRegistrant@VJFW_Stealth_Generator_Building@@@@UAEPAXI@Z ; ScriptRegistrant<JFW_Stealth_Generator_Building>::`scalar deleting destructor'
PUBLIC	??0?$ScriptRegistrant@VJFW_Stealth_Generator_Vehicle@@@@QAE@PBD0@Z ; ScriptRegistrant<JFW_Stealth_Generator_Vehicle>::ScriptRegistrant<JFW_Stealth_Generator_Vehicle>
PUBLIC	?Create@?$ScriptRegistrant@VJFW_Stealth_Generator_Vehicle@@@@UAEPAVScriptImpClass@@XZ ; ScriptRegistrant<JFW_Stealth_Generator_Vehicle>::Create
PUBLIC	??1?$ScriptRegistrant@VJFW_Stealth_Generator_Vehicle@@@@UAE@XZ ; ScriptRegistrant<JFW_Stealth_Generator_Vehicle>::~ScriptRegistrant<JFW_Stealth_Generator_Vehicle>
PUBLIC	??_G?$ScriptRegistrant@VJFW_Stealth_Generator_Vehicle@@@@UAEPAXI@Z ; ScriptRegistrant<JFW_Stealth_Generator_Vehicle>::`scalar deleting destructor'
PUBLIC	??0?$ScriptRegistrant@VJFW_Stealth_Generator_Vehicle_Deploy@@@@QAE@PBD0@Z ; ScriptRegistrant<JFW_Stealth_Generator_Vehicle_Deploy>::ScriptRegistrant<JFW_Stealth_Generator_Vehicle_Deploy>
PUBLIC	?Create@?$ScriptRegistrant@VJFW_Stealth_Generator_Vehicle_Deploy@@@@UAEPAVScriptImpClass@@XZ ; ScriptRegistrant<JFW_Stealth_Generator_Vehicle_Deploy>::Create
PUBLIC	??1?$ScriptRegistrant@VJFW_Stealth_Generator_Vehicle_Deploy@@@@UAE@XZ ; ScriptRegistrant<JFW_Stealth_Generator_Vehicle_Deploy>::~ScriptRegistrant<JFW_Stealth_Generator_Vehicle_Deploy>
PUBLIC	??_G?$ScriptRegistrant@VJFW_Stealth_Generator_Vehicle_Deploy@@@@UAEPAXI@Z ; ScriptRegistrant<JFW_Stealth_Generator_Vehicle_Deploy>::`scalar deleting destructor'
PUBLIC	??0?$ScriptRegistrant@VJFW_Stealth_Generator_Ignored@@@@QAE@PBD0@Z ; ScriptRegistrant<JFW_Stealth_Generator_Ignored>::ScriptRegistrant<JFW_Stealth_Generator_Ignored>
PUBLIC	?Create@?$ScriptRegistrant@VJFW_Stealth_Generator_Ignored@@@@UAEPAVScriptImpClass@@XZ ; ScriptRegistrant<JFW_Stealth_Generator_Ignored>::Create
PUBLIC	??1?$ScriptRegistrant@VJFW_Stealth_Generator_Ignored@@@@UAE@XZ ; ScriptRegistrant<JFW_Stealth_Generator_Ignored>::~ScriptRegistrant<JFW_Stealth_Generator_Ignored>
PUBLIC	??_G?$ScriptRegistrant@VJFW_Stealth_Generator_Ignored@@@@UAEPAXI@Z ; ScriptRegistrant<JFW_Stealth_Generator_Ignored>::`scalar deleting destructor'
PUBLIC	??0?$ScriptRegistrant@VJFW_Low_Power_Message@@@@QAE@PBD0@Z ; ScriptRegistrant<JFW_Low_Power_Message>::ScriptRegistrant<JFW_Low_Power_Message>
PUBLIC	?Create@?$ScriptRegistrant@VJFW_Low_Power_Message@@@@UAEPAVScriptImpClass@@XZ ; ScriptRegistrant<JFW_Low_Power_Message>::Create
PUBLIC	??1?$ScriptRegistrant@VJFW_Low_Power_Message@@@@UAE@XZ ; ScriptRegistrant<JFW_Low_Power_Message>::~ScriptRegistrant<JFW_Low_Power_Message>
PUBLIC	??_G?$ScriptRegistrant@VJFW_Low_Power_Message@@@@UAEPAXI@Z ; ScriptRegistrant<JFW_Low_Power_Message>::`scalar deleting destructor'
PUBLIC	??0?$ScriptRegistrant@VJFW_Low_Power_Sound@@@@QAE@PBD0@Z ; ScriptRegistrant<JFW_Low_Power_Sound>::ScriptRegistrant<JFW_Low_Power_Sound>
PUBLIC	?Create@?$ScriptRegistrant@VJFW_Low_Power_Sound@@@@UAEPAVScriptImpClass@@XZ ; ScriptRegistrant<JFW_Low_Power_Sound>::Create
PUBLIC	??1?$ScriptRegistrant@VJFW_Low_Power_Sound@@@@UAE@XZ ; ScriptRegistrant<JFW_Low_Power_Sound>::~ScriptRegistrant<JFW_Low_Power_Sound>
PUBLIC	??_G?$ScriptRegistrant@VJFW_Low_Power_Sound@@@@UAEPAXI@Z ; ScriptRegistrant<JFW_Low_Power_Sound>::`scalar deleting destructor'
PUBLIC	??0?$ScriptRegistrant@VJFW_Message_Send_Zone@@@@QAE@PBD0@Z ; ScriptRegistrant<JFW_Message_Send_Zone>::ScriptRegistrant<JFW_Message_Send_Zone>
PUBLIC	?Create@?$ScriptRegistrant@VJFW_Message_Send_Zone@@@@UAEPAVScriptImpClass@@XZ ; ScriptRegistrant<JFW_Message_Send_Zone>::Create
PUBLIC	??1?$ScriptRegistrant@VJFW_Message_Send_Zone@@@@UAE@XZ ; ScriptRegistrant<JFW_Message_Send_Zone>::~ScriptRegistrant<JFW_Message_Send_Zone>
PUBLIC	??_G?$ScriptRegistrant@VJFW_Message_Send_Zone@@@@UAEPAXI@Z ; ScriptRegistrant<JFW_Message_Send_Zone>::`scalar deleting destructor'
PUBLIC	??0?$ScriptRegistrant@VJFW_Message_Send_Zone_Team@@@@QAE@PBD0@Z ; ScriptRegistrant<JFW_Message_Send_Zone_Team>::ScriptRegistrant<JFW_Message_Send_Zone_Team>
PUBLIC	?Create@?$ScriptRegistrant@VJFW_Message_Send_Zone_Team@@@@UAEPAVScriptImpClass@@XZ ; ScriptRegistrant<JFW_Message_Send_Zone_Team>::Create
PUBLIC	??1?$ScriptRegistrant@VJFW_Message_Send_Zone_Team@@@@UAE@XZ ; ScriptRegistrant<JFW_Message_Send_Zone_Team>::~ScriptRegistrant<JFW_Message_Send_Zone_Team>
PUBLIC	??_G?$ScriptRegistrant@VJFW_Message_Send_Zone_Team@@@@UAEPAXI@Z ; ScriptRegistrant<JFW_Message_Send_Zone_Team>::`scalar deleting destructor'
PUBLIC	??0?$ScriptRegistrant@VJFW_Message_Send_Zone_Player@@@@QAE@PBD0@Z ; ScriptRegistrant<JFW_Message_Send_Zone_Player>::ScriptRegistrant<JFW_Message_Send_Zone_Player>
PUBLIC	?Create@?$ScriptRegistrant@VJFW_Message_Send_Zone_Player@@@@UAEPAVScriptImpClass@@XZ ; ScriptRegistrant<JFW_Message_Send_Zone_Player>::Create
PUBLIC	??1?$ScriptRegistrant@VJFW_Message_Send_Zone_Player@@@@UAE@XZ ; ScriptRegistrant<JFW_Message_Send_Zone_Player>::~ScriptRegistrant<JFW_Message_Send_Zone_Player>
PUBLIC	??_G?$ScriptRegistrant@VJFW_Message_Send_Zone_Player@@@@UAEPAXI@Z ; ScriptRegistrant<JFW_Message_Send_Zone_Player>::`scalar deleting destructor'
PUBLIC	??0?$ScriptRegistrant@VJFW_Message_Send_Death@@@@QAE@PBD0@Z ; ScriptRegistrant<JFW_Message_Send_Death>::ScriptRegistrant<JFW_Message_Send_Death>
PUBLIC	?Create@?$ScriptRegistrant@VJFW_Message_Send_Death@@@@UAEPAVScriptImpClass@@XZ ; ScriptRegistrant<JFW_Message_Send_Death>::Create
PUBLIC	??1?$ScriptRegistrant@VJFW_Message_Send_Death@@@@UAE@XZ ; ScriptRegistrant<JFW_Message_Send_Death>::~ScriptRegistrant<JFW_Message_Send_Death>
PUBLIC	??_G?$ScriptRegistrant@VJFW_Message_Send_Death@@@@UAEPAXI@Z ; ScriptRegistrant<JFW_Message_Send_Death>::`scalar deleting destructor'
PUBLIC	??0?$ScriptRegistrant@VJFW_Message_Send_Death_Team@@@@QAE@PBD0@Z ; ScriptRegistrant<JFW_Message_Send_Death_Team>::ScriptRegistrant<JFW_Message_Send_Death_Team>
PUBLIC	?Create@?$ScriptRegistrant@VJFW_Message_Send_Death_Team@@@@UAEPAVScriptImpClass@@XZ ; ScriptRegistrant<JFW_Message_Send_Death_Team>::Create
PUBLIC	??1?$ScriptRegistrant@VJFW_Message_Send_Death_Team@@@@UAE@XZ ; ScriptRegistrant<JFW_Message_Send_Death_Team>::~ScriptRegistrant<JFW_Message_Send_Death_Team>
PUBLIC	??_G?$ScriptRegistrant@VJFW_Message_Send_Death_Team@@@@UAEPAXI@Z ; ScriptRegistrant<JFW_Message_Send_Death_Team>::`scalar deleting destructor'
PUBLIC	??0?$ScriptRegistrant@VJFW_Message_Send_Custom@@@@QAE@PBD0@Z ; ScriptRegistrant<JFW_Message_Send_Custom>::ScriptRegistrant<JFW_Message_Send_Custom>
PUBLIC	?Create@?$ScriptRegistrant@VJFW_Message_Send_Custom@@@@UAEPAVScriptImpClass@@XZ ; ScriptRegistrant<JFW_Message_Send_Custom>::Create
PUBLIC	??1?$ScriptRegistrant@VJFW_Message_Send_Custom@@@@UAE@XZ ; ScriptRegistrant<JFW_Message_Send_Custom>::~ScriptRegistrant<JFW_Message_Send_Custom>
PUBLIC	??_G?$ScriptRegistrant@VJFW_Message_Send_Custom@@@@UAEPAXI@Z ; ScriptRegistrant<JFW_Message_Send_Custom>::`scalar deleting destructor'
PUBLIC	??0?$ScriptRegistrant@VJFW_Message_Send_Powerup@@@@QAE@PBD0@Z ; ScriptRegistrant<JFW_Message_Send_Powerup>::ScriptRegistrant<JFW_Message_Send_Powerup>
PUBLIC	?Create@?$ScriptRegistrant@VJFW_Message_Send_Powerup@@@@UAEPAVScriptImpClass@@XZ ; ScriptRegistrant<JFW_Message_Send_Powerup>::Create
PUBLIC	??1?$ScriptRegistrant@VJFW_Message_Send_Powerup@@@@UAE@XZ ; ScriptRegistrant<JFW_Message_Send_Powerup>::~ScriptRegistrant<JFW_Message_Send_Powerup>
PUBLIC	??_G?$ScriptRegistrant@VJFW_Message_Send_Powerup@@@@UAEPAXI@Z ; ScriptRegistrant<JFW_Message_Send_Powerup>::`scalar deleting destructor'
PUBLIC	??0?$ScriptRegistrant@VJFW_Message_Send_Custom_Team@@@@QAE@PBD0@Z ; ScriptRegistrant<JFW_Message_Send_Custom_Team>::ScriptRegistrant<JFW_Message_Send_Custom_Team>
PUBLIC	?Create@?$ScriptRegistrant@VJFW_Message_Send_Custom_Team@@@@UAEPAVScriptImpClass@@XZ ; ScriptRegistrant<JFW_Message_Send_Custom_Team>::Create
PUBLIC	??1?$ScriptRegistrant@VJFW_Message_Send_Custom_Team@@@@UAE@XZ ; ScriptRegistrant<JFW_Message_Send_Custom_Team>::~ScriptRegistrant<JFW_Message_Send_Custom_Team>
PUBLIC	??_G?$ScriptRegistrant@VJFW_Message_Send_Custom_Team@@@@UAEPAXI@Z ; ScriptRegistrant<JFW_Message_Send_Custom_Team>::`scalar deleting destructor'
PUBLIC	??0?$ScriptRegistrant@VJFW_Spy_Switch_Team@@@@QAE@PBD0@Z ; ScriptRegistrant<JFW_Spy_Switch_Team>::ScriptRegistrant<JFW_Spy_Switch_Team>
PUBLIC	?Create@?$ScriptRegistrant@VJFW_Spy_Switch_Team@@@@UAEPAVScriptImpClass@@XZ ; ScriptRegistrant<JFW_Spy_Switch_Team>::Create
PUBLIC	??1?$ScriptRegistrant@VJFW_Spy_Switch_Team@@@@UAE@XZ ; ScriptRegistrant<JFW_Spy_Switch_Team>::~ScriptRegistrant<JFW_Spy_Switch_Team>
PUBLIC	??_G?$ScriptRegistrant@VJFW_Spy_Switch_Team@@@@UAEPAXI@Z ; ScriptRegistrant<JFW_Spy_Switch_Team>::`scalar deleting destructor'
PUBLIC	??0?$ScriptRegistrant@VJFW_Spy_Vehicle_Ignore@@@@QAE@PBD0@Z ; ScriptRegistrant<JFW_Spy_Vehicle_Ignore>::ScriptRegistrant<JFW_Spy_Vehicle_Ignore>
PUBLIC	?Create@?$ScriptRegistrant@VJFW_Spy_Vehicle_Ignore@@@@UAEPAVScriptImpClass@@XZ ; ScriptRegistrant<JFW_Spy_Vehicle_Ignore>::Create
PUBLIC	??1?$ScriptRegistrant@VJFW_Spy_Vehicle_Ignore@@@@UAE@XZ ; ScriptRegistrant<JFW_Spy_Vehicle_Ignore>::~ScriptRegistrant<JFW_Spy_Vehicle_Ignore>
PUBLIC	??_G?$ScriptRegistrant@VJFW_Spy_Vehicle_Ignore@@@@UAEPAXI@Z ; ScriptRegistrant<JFW_Spy_Vehicle_Ignore>::`scalar deleting destructor'
PUBLIC	??0?$ScriptRegistrant@VJFW_Spy_Vehicle_Ignore_New@@@@QAE@PBD0@Z ; ScriptRegistrant<JFW_Spy_Vehicle_Ignore_New>::ScriptRegistrant<JFW_Spy_Vehicle_Ignore_New>
PUBLIC	?Create@?$ScriptRegistrant@VJFW_Spy_Vehicle_Ignore_New@@@@UAEPAVScriptImpClass@@XZ ; ScriptRegistrant<JFW_Spy_Vehicle_Ignore_New>::Create
PUBLIC	??1?$ScriptRegistrant@VJFW_Spy_Vehicle_Ignore_New@@@@UAE@XZ ; ScriptRegistrant<JFW_Spy_Vehicle_Ignore_New>::~ScriptRegistrant<JFW_Spy_Vehicle_Ignore_New>
PUBLIC	??_G?$ScriptRegistrant@VJFW_Spy_Vehicle_Ignore_New@@@@UAEPAXI@Z ; ScriptRegistrant<JFW_Spy_Vehicle_Ignore_New>::`scalar deleting destructor'
PUBLIC	??0?$ScriptRegistrant@VJFW_Message_Send_Zone_Player_Vehicle@@@@QAE@PBD0@Z ; ScriptRegistrant<JFW_Message_Send_Zone_Player_Vehicle>::ScriptRegistrant<JFW_Message_Send_Zone_Player_Vehicle>
PUBLIC	?Create@?$ScriptRegistrant@VJFW_Message_Send_Zone_Player_Vehicle@@@@UAEPAVScriptImpClass@@XZ ; ScriptRegistrant<JFW_Message_Send_Zone_Player_Vehicle>::Create
PUBLIC	??1?$ScriptRegistrant@VJFW_Message_Send_Zone_Player_Vehicle@@@@UAE@XZ ; ScriptRegistrant<JFW_Message_Send_Zone_Player_Vehicle>::~ScriptRegistrant<JFW_Message_Send_Zone_Player_Vehicle>
PUBLIC	??_G?$ScriptRegistrant@VJFW_Message_Send_Zone_Player_Vehicle@@@@UAEPAXI@Z ; ScriptRegistrant<JFW_Message_Send_Zone_Player_Vehicle>::`scalar deleting destructor'
PUBLIC	??0?$ScriptRegistrant@VJFW_Water_Level@@@@QAE@PBD0@Z ; ScriptRegistrant<JFW_Water_Level>::ScriptRegistrant<JFW_Water_Level>
PUBLIC	?Create@?$ScriptRegistrant@VJFW_Water_Level@@@@UAEPAVScriptImpClass@@XZ ; ScriptRegistrant<JFW_Water_Level>::Create
PUBLIC	??1?$ScriptRegistrant@VJFW_Water_Level@@@@UAE@XZ ; ScriptRegistrant<JFW_Water_Level>::~ScriptRegistrant<JFW_Water_Level>
PUBLIC	??_G?$ScriptRegistrant@VJFW_Water_Level@@@@UAEPAXI@Z ; ScriptRegistrant<JFW_Water_Level>::`scalar deleting destructor'
PUBLIC	??0?$ScriptRegistrant@VJFW_Submarine@@@@QAE@PBD0@Z ; ScriptRegistrant<JFW_Submarine>::ScriptRegistrant<JFW_Submarine>
PUBLIC	?Create@?$ScriptRegistrant@VJFW_Submarine@@@@UAEPAVScriptImpClass@@XZ ; ScriptRegistrant<JFW_Submarine>::Create
PUBLIC	??1?$ScriptRegistrant@VJFW_Submarine@@@@UAE@XZ	; ScriptRegistrant<JFW_Submarine>::~ScriptRegistrant<JFW_Submarine>
PUBLIC	??_G?$ScriptRegistrant@VJFW_Submarine@@@@UAEPAXI@Z ; ScriptRegistrant<JFW_Submarine>::`scalar deleting destructor'
PUBLIC	??0?$ScriptRegistrant@VJFW_Reaper_Web@@@@QAE@PBD0@Z ; ScriptRegistrant<JFW_Reaper_Web>::ScriptRegistrant<JFW_Reaper_Web>
PUBLIC	?Create@?$ScriptRegistrant@VJFW_Reaper_Web@@@@UAEPAVScriptImpClass@@XZ ; ScriptRegistrant<JFW_Reaper_Web>::Create
PUBLIC	??1?$ScriptRegistrant@VJFW_Reaper_Web@@@@UAE@XZ	; ScriptRegistrant<JFW_Reaper_Web>::~ScriptRegistrant<JFW_Reaper_Web>
PUBLIC	??_G?$ScriptRegistrant@VJFW_Reaper_Web@@@@UAEPAXI@Z ; ScriptRegistrant<JFW_Reaper_Web>::`scalar deleting destructor'
PUBLIC	??0?$ScriptRegistrant@VJFW_Toxic_Grenade@@@@QAE@PBD0@Z ; ScriptRegistrant<JFW_Toxic_Grenade>::ScriptRegistrant<JFW_Toxic_Grenade>
PUBLIC	?Create@?$ScriptRegistrant@VJFW_Toxic_Grenade@@@@UAEPAVScriptImpClass@@XZ ; ScriptRegistrant<JFW_Toxic_Grenade>::Create
PUBLIC	??1?$ScriptRegistrant@VJFW_Toxic_Grenade@@@@UAE@XZ ; ScriptRegistrant<JFW_Toxic_Grenade>::~ScriptRegistrant<JFW_Toxic_Grenade>
PUBLIC	??_G?$ScriptRegistrant@VJFW_Toxic_Grenade@@@@UAEPAXI@Z ; ScriptRegistrant<JFW_Toxic_Grenade>::`scalar deleting destructor'
PUBLIC	??0?$ScriptRegistrant@VJFW_Hijacker_Vehicle@@@@QAE@PBD0@Z ; ScriptRegistrant<JFW_Hijacker_Vehicle>::ScriptRegistrant<JFW_Hijacker_Vehicle>
PUBLIC	?Create@?$ScriptRegistrant@VJFW_Hijacker_Vehicle@@@@UAEPAVScriptImpClass@@XZ ; ScriptRegistrant<JFW_Hijacker_Vehicle>::Create
PUBLIC	??1?$ScriptRegistrant@VJFW_Hijacker_Vehicle@@@@UAE@XZ ; ScriptRegistrant<JFW_Hijacker_Vehicle>::~ScriptRegistrant<JFW_Hijacker_Vehicle>
PUBLIC	??_G?$ScriptRegistrant@VJFW_Hijacker_Vehicle@@@@UAEPAXI@Z ; ScriptRegistrant<JFW_Hijacker_Vehicle>::`scalar deleting destructor'
PUBLIC	??0?$ScriptRegistrant@VJFW_Hijacker_Vehicle_2@@@@QAE@PBD0@Z ; ScriptRegistrant<JFW_Hijacker_Vehicle_2>::ScriptRegistrant<JFW_Hijacker_Vehicle_2>
PUBLIC	?Create@?$ScriptRegistrant@VJFW_Hijacker_Vehicle_2@@@@UAEPAVScriptImpClass@@XZ ; ScriptRegistrant<JFW_Hijacker_Vehicle_2>::Create
PUBLIC	??1?$ScriptRegistrant@VJFW_Hijacker_Vehicle_2@@@@UAE@XZ ; ScriptRegistrant<JFW_Hijacker_Vehicle_2>::~ScriptRegistrant<JFW_Hijacker_Vehicle_2>
PUBLIC	??_G?$ScriptRegistrant@VJFW_Hijacker_Vehicle_2@@@@UAEPAXI@Z ; ScriptRegistrant<JFW_Hijacker_Vehicle_2>::`scalar deleting destructor'
PUBLIC	??0?$ScriptRegistrant@VJFW_Building_Preset_Disable@@@@QAE@PBD0@Z ; ScriptRegistrant<JFW_Building_Preset_Disable>::ScriptRegistrant<JFW_Building_Preset_Disable>
PUBLIC	?Create@?$ScriptRegistrant@VJFW_Building_Preset_Disable@@@@UAEPAVScriptImpClass@@XZ ; ScriptRegistrant<JFW_Building_Preset_Disable>::Create
PUBLIC	??1?$ScriptRegistrant@VJFW_Building_Preset_Disable@@@@UAE@XZ ; ScriptRegistrant<JFW_Building_Preset_Disable>::~ScriptRegistrant<JFW_Building_Preset_Disable>
PUBLIC	??_G?$ScriptRegistrant@VJFW_Building_Preset_Disable@@@@UAEPAXI@Z ; ScriptRegistrant<JFW_Building_Preset_Disable>::`scalar deleting destructor'
PUBLIC	?Set_Next@?$SLNode@UKeyHookWrapperStruct@MultiKeyHookScriptImpClass@@@@QAEXPAV1@@Z ; SLNode<MultiKeyHookScriptImpClass::KeyHookWrapperStruct>::Set_Next
PUBLIC	?Next@?$SLNode@UKeyHookWrapperStruct@MultiKeyHookScriptImpClass@@@@QBEPAV1@XZ ; SLNode<MultiKeyHookScriptImpClass::KeyHookWrapperStruct>::Next
PUBLIC	?Data@?$SLNode@UKeyHookWrapperStruct@MultiKeyHookScriptImpClass@@@@QBEPAUKeyHookWrapperStruct@MultiKeyHookScriptImpClass@@XZ ; SLNode<MultiKeyHookScriptImpClass::KeyHookWrapperStruct>::Data
PUBLIC	??0?$SLNode@UKeyHookWrapperStruct@MultiKeyHookScriptImpClass@@@@IAE@PAUKeyHookWrapperStruct@MultiKeyHookScriptImpClass@@@Z ; SLNode<MultiKeyHookScriptImpClass::KeyHookWrapperStruct>::SLNode<MultiKeyHookScriptImpClass::KeyHookWrapperStruct>
PUBLIC	?getInstance@?$Singleton@V?$ObjectPoolClass@VGenericSLNode@@$0BAA@@@@@SAAAV?$ObjectPoolClass@VGenericSLNode@@$0BAA@@@XZ ; Singleton<ObjectPoolClass<GenericSLNode,256> >::getInstance
PUBLIC	??0?$ObjectPoolClass@VGenericSLNode@@$0BAA@@@QAE@XZ ; ObjectPoolClass<GenericSLNode,256>::ObjectPoolClass<GenericSLNode,256>
PUBLIC	??1?$ObjectPoolClass@VGenericSLNode@@$0BAA@@@QAE@XZ ; ObjectPoolClass<GenericSLNode,256>::~ObjectPoolClass<GenericSLNode,256>
PUBLIC	?Allocate_Object_Memory@?$ObjectPoolClass@VGenericSLNode@@$0BAA@@@QAEPAVGenericSLNode@@XZ ; ObjectPoolClass<GenericSLNode,256>::Allocate_Object_Memory
PUBLIC	?Free_Object_Memory@?$ObjectPoolClass@VGenericSLNode@@$0BAA@@@QAEXAAVGenericSLNode@@@Z ; ObjectPoolClass<GenericSLNode,256>::Free_Object_Memory
PUBLIC	?writeDummyPattern@?$ObjectPoolClass@VGenericSLNode@@$0BAA@@@QAEXAAVGenericSLNode@@K@Z ; ObjectPoolClass<GenericSLNode,256>::writeDummyPattern
PUBLIC	??__Finstancex@?1??getInstance@?$Singleton@V?$ObjectPoolClass@VGenericSLNode@@$0BAA@@@@@SAAAV?$ObjectPoolClass@VGenericSLNode@@$0BAA@@@XZ@YAXXZ ; `Singleton<ObjectPoolClass<GenericSLNode,256> >::getInstance'::`2'::`dynamic atexit destructor for 'instancex''
PUBLIC	??_7GameObjObserverClass@@6B@			; GameObjObserverClass::`vftable'
PUBLIC	??_7ScriptClass@@6B@				; ScriptClass::`vftable'
PUBLIC	??_7ScriptImpClass@@6B@				; ScriptImpClass::`vftable'
PUBLIC	??_7ScriptFactory@@6B@				; ScriptFactory::`vftable'
PUBLIC	??_7ThreadClass@@6B@				; ThreadClass::`vftable'
PUBLIC	??_C@_0DJ@NKJHEMPA@x?3?2github?2renegade?2dragonade_rxd@ ; `string'
PUBLIC	??_C@_1HC@JEIHKHFK@?$AAx?$AA?3?$AA?2?$AAg?$AAi?$AAt?$AAh?$AAu?$AAb?$AA?2?$AAr?$AAe?$AAn?$AAe?$AAg?$AAa?$AAd?$AAe?$AA?2?$AAd?$AAr?$AAa?$AAg?$AAo?$AAn?$AAa?$AAd?$AAe?$AA_?$AAr?$AAx?$AAd@ ; `string'
PUBLIC	??_C@_1M@HLGKFCJM@?$AAf?$AAa?$AAl?$AAs?$AAe?$AA?$AA@ ; `string'
PUBLIC	??_7INIClass@@6B@				; INIClass::`vftable'
PUBLIC	??_7PostLoadableClass@@6B@			; PostLoadableClass::`vftable'
PUBLIC	??_7ReferencerClass@@6B@			; ReferencerClass::`vftable'
PUBLIC	??_7JFW_Key_Hook_Base@@6B@			; JFW_Key_Hook_Base::`vftable'
PUBLIC	??_7?$SList@UKeyHookWrapperStruct@MultiKeyHookScriptImpClass@@@@6B@ ; SList<MultiKeyHookScriptImpClass::KeyHookWrapperStruct>::`vftable'
PUBLIC	??_7MultiKeyHookScriptImpClass@@6B@		; MultiKeyHookScriptImpClass::`vftable'
PUBLIC	??_7JFW_Object_Created_Hook_Base@@6B@		; JFW_Object_Created_Hook_Base::`vftable'
PUBLIC	??_7JFW_Team_DM_Zone@@6B@			; JFW_Team_DM_Zone::`vftable'
PUBLIC	??_7JFW_Team_DM_Controller@@6B@			; JFW_Team_DM_Controller::`vftable'
PUBLIC	??_7JFW_Team_DM_Attatched@@6B@			; JFW_Team_DM_Attatched::`vftable'
PUBLIC	??_7JFW_Assault_Powerplant_Controller@@6B@	; JFW_Assault_Powerplant_Controller::`vftable'
PUBLIC	??_7JFW_Resource_Collector@@6B@			; JFW_Resource_Collector::`vftable'
PUBLIC	??_7JFW_Resource_Refinery@@6B@			; JFW_Resource_Refinery::`vftable'
PUBLIC	??_7JFW_Resource_Field@@6B@			; JFW_Resource_Field::`vftable'
PUBLIC	??_7JFW_Domination_Zone@@6B@			; JFW_Domination_Zone::`vftable'
PUBLIC	??_7JFW_Domination_Controler@@6B@		; JFW_Domination_Controler::`vftable'
PUBLIC	??_7JFW_Iron_Curtain_Zone@@6B@			; JFW_Iron_Curtain_Zone::`vftable'
PUBLIC	??_7JFW_Chrono_Controler_Zone@@6B@		; JFW_Chrono_Controler_Zone::`vftable'
PUBLIC	??_7JFW_Drone_Damage@@6B@			; JFW_Drone_Damage::`vftable'
PUBLIC	??_7JFW_Conyard@@6B@				; JFW_Conyard::`vftable'
PUBLIC	??_7JFW_Conyard_Vehicle_Buildings@@6B@		; JFW_Conyard_Vehicle_Buildings::`vftable'
PUBLIC	??_7JFW_Flying_Infantry@@6B@			; JFW_Flying_Infantry::`vftable'
PUBLIC	??_7JFW_Flying_Infantry_Custom@@6B@		; JFW_Flying_Infantry_Custom::`vftable'
PUBLIC	??_7JFW_Flying_Infantry_Powerup@@6B@		; JFW_Flying_Infantry_Powerup::`vftable'
PUBLIC	??_7JFW_Flying_Infantry_Enter@@6B@		; JFW_Flying_Infantry_Enter::`vftable'
PUBLIC	??_7JFW_Flying_Infantry_Exit@@6B@		; JFW_Flying_Infantry_Exit::`vftable'
PUBLIC	??_7JFW_Team_DM_Controller_2@@6B@		; JFW_Team_DM_Controller_2::`vftable'
PUBLIC	??_7JFW_Vehicle_Thief@@6B@			; JFW_Vehicle_Thief::`vftable'
PUBLIC	??_7JFW_Vehicle_Thief_2@@6B@			; JFW_Vehicle_Thief_2::`vftable'
PUBLIC	??_7JFW_Domination_Controler_End_Game@@6B@	; JFW_Domination_Controler_End_Game::`vftable'
PUBLIC	??_7JFW_Carryable_Vehicle@@6B@			; JFW_Carryable_Vehicle::`vftable'
PUBLIC	??_7JFW_Carry_Control@@6B@			; JFW_Carry_Control::`vftable'
PUBLIC	??_7JFW_CarryAll@@6B@				; JFW_CarryAll::`vftable'
PUBLIC	??_7JFW_Sensor_Array@@6B@			; JFW_Sensor_Array::`vftable'
PUBLIC	??_7JFW_Conyard_Radius@@6B@			; JFW_Conyard_Radius::`vftable'
PUBLIC	??_7JFW_Chrono_Harvester_Logic@@6B@		; JFW_Chrono_Harvester_Logic::`vftable'
PUBLIC	??_7JFW_Chrono_Harvester_Kill@@6B@		; JFW_Chrono_Harvester_Kill::`vftable'
PUBLIC	??_7JFW_Chrono_Harvester_Spawn_Kill@@6B@	; JFW_Chrono_Harvester_Spawn_Kill::`vftable'
PUBLIC	??_7JFW_Chrono_Harvester_Attached@@6B@		; JFW_Chrono_Harvester_Attached::`vftable'
PUBLIC	??_7JFW_Conyard_Turrets@@6B@			; JFW_Conyard_Turrets::`vftable'
PUBLIC	??_7JFW_Radar_Jammer@@6B@			; JFW_Radar_Jammer::`vftable'
PUBLIC	??_7JFW_Radar_Jammer_Sound@@6B@			; JFW_Radar_Jammer_Sound::`vftable'
PUBLIC	??_7JFW_Sonar_Pulse@@6B@			; JFW_Sonar_Pulse::`vftable'
PUBLIC	??_7JFW_Global_Stealth_Controller@@6B@		; JFW_Global_Stealth_Controller::`vftable'
PUBLIC	??_7JFW_Stealth_Generator_Building@@6B@		; JFW_Stealth_Generator_Building::`vftable'
PUBLIC	??_7JFW_Stealth_Generator_Vehicle@@6B@		; JFW_Stealth_Generator_Vehicle::`vftable'
PUBLIC	??_7JFW_Stealth_Generator_Vehicle_Deploy@@6B@	; JFW_Stealth_Generator_Vehicle_Deploy::`vftable'
PUBLIC	??_7JFW_Stealth_Generator_Ignored@@6B@		; JFW_Stealth_Generator_Ignored::`vftable'
PUBLIC	??_7JFW_Resource_Collector_2@@6B@		; JFW_Resource_Collector_2::`vftable'
PUBLIC	??_7JFW_Resource_Collector_3@@6B@		; JFW_Resource_Collector_3::`vftable'
PUBLIC	??_7JFW_Low_Power_Message@@6B@			; JFW_Low_Power_Message::`vftable'
PUBLIC	??_7JFW_Low_Power_Sound@@6B@			; JFW_Low_Power_Sound::`vftable'
PUBLIC	??_7JFW_Message_Send_Zone@@6B@			; JFW_Message_Send_Zone::`vftable'
PUBLIC	??_7JFW_Message_Send_Zone_Team@@6B@		; JFW_Message_Send_Zone_Team::`vftable'
PUBLIC	??_7JFW_Message_Send_Zone_Player@@6B@		; JFW_Message_Send_Zone_Player::`vftable'
PUBLIC	??_7JFW_Message_Send_Death@@6B@			; JFW_Message_Send_Death::`vftable'
PUBLIC	??_7JFW_Message_Send_Death_Team@@6B@		; JFW_Message_Send_Death_Team::`vftable'
PUBLIC	??_7JFW_Message_Send_Custom@@6B@		; JFW_Message_Send_Custom::`vftable'
PUBLIC	??_7JFW_Message_Send_Powerup@@6B@		; JFW_Message_Send_Powerup::`vftable'
PUBLIC	??_7JFW_Message_Send_Custom_Team@@6B@		; JFW_Message_Send_Custom_Team::`vftable'
PUBLIC	??_7JFW_Spy_Switch_Team@@6B@			; JFW_Spy_Switch_Team::`vftable'
PUBLIC	??_7JFW_Spy_Vehicle_Ignore@@6B@			; JFW_Spy_Vehicle_Ignore::`vftable'
PUBLIC	??_7JFW_Spy_Vehicle_Ignore_New@@6B@		; JFW_Spy_Vehicle_Ignore_New::`vftable'
PUBLIC	??_7JFW_Message_Send_Zone_Player_Vehicle@@6B@	; JFW_Message_Send_Zone_Player_Vehicle::`vftable'
PUBLIC	??_7JFW_Water_Level@@6B@			; JFW_Water_Level::`vftable'
PUBLIC	??_7JFW_Submarine@@6B@				; JFW_Submarine::`vftable'
PUBLIC	??_7JFW_Reaper_Web@@6B@				; JFW_Reaper_Web::`vftable'
PUBLIC	??_7JFW_Toxic_Grenade@@6B@			; JFW_Toxic_Grenade::`vftable'
PUBLIC	??_7JFW_Hijacker_Vehicle@@6B@			; JFW_Hijacker_Vehicle::`vftable'
PUBLIC	??_7JFW_Hijacker_Vehicle_2@@6B@			; JFW_Hijacker_Vehicle_2::`vftable'
PUBLIC	??_7JFW_Building_Preset_Disable@@6B@		; JFW_Building_Preset_Disable::`vftable'
PUBLIC	??_C@_0M@JEBNJPD@Player_Type?$AA@		; `string'
PUBLIC	??_C@_0BD@DLKFHEIA@Deactivate_Message?$AA@	; `string'
PUBLIC	??_C@_0O@HJAANPIF@Death_Message?$AA@		; `string'
PUBLIC	??_C@_0O@KMKIEDFH@Controller_ID?$AA@		; `string'
PUBLIC	??_C@_08GDAMKODC@?$CFd?0?$CFd?0?$CFd?$AA@	; `string'
PUBLIC	??_C@_0BG@HPNPEKDO@JFW_Team_DM_Attatched?$AA@	; `string'
PUBLIC	??_C@_0BA@EPMEMBDF@Deaths_To_Loose?$AA@		; `string'
PUBLIC	??_C@_0BF@BHDJIFKN@Building_To_Destroy1?$AA@	; `string'
PUBLIC	??_C@_09IGNDJJLI@Explosive?$AA@			; `string'
PUBLIC	??_C@_0BF@DMBENGGO@Building_To_Destroy2?$AA@	; `string'
PUBLIC	??_C@_0BF@CFAPOHCP@Building_To_Destroy3?$AA@	; `string'
PUBLIC	??_C@_0BF@GKEOHBOI@Building_To_Destroy4?$AA@	; `string'
PUBLIC	??_C@_0BF@HDFFEAKJ@Building_To_Destroy5?$AA@	; `string'
PUBLIC	??_C@_04OKOFBOPB@Time?$AA@			; `string'
PUBLIC	??_C@_08DBAENAIH@TimerNum?$AA@			; `string'
PUBLIC	??_C@_09BJIDGDHH@Power_Off?$AA@			; `string'
PUBLIC	??_C@_09OIMHFJNI@Building1?$AA@			; `string'
PUBLIC	??_C@_09MDOKAKBL@Building2?$AA@			; `string'
PUBLIC	??_C@_09NKPBDLFK@Building3?$AA@			; `string'
PUBLIC	??_C@_09JFLAKNJN@Building4?$AA@			; `string'
PUBLIC	??_C@_09IMKLJMNM@Building5?$AA@			; `string'
PUBLIC	??_C@_09KHIGMPBP@Building6?$AA@			; `string'
PUBLIC	??_C@_09LOJNPOFO@Building7?$AA@			; `string'
PUBLIC	??_C@_09DJAFOCJB@Building8?$AA@			; `string'
PUBLIC	??_C@_09CABONDNA@Building9?$AA@			; `string'
PUBLIC	??_C@_0L@FHKGKLEM@Building10?$AA@		; `string'
PUBLIC	??_C@_0L@EOLNJKAN@Building11?$AA@		; `string'
PUBLIC	??_C@_0L@GFJAMJMO@Building12?$AA@		; `string'
PUBLIC	??_C@_0L@HMILPIIP@Building13?$AA@		; `string'
PUBLIC	??_C@_0L@DDMKGOEI@Building14?$AA@		; `string'
PUBLIC	??_C@_0L@CKNBFPAJ@Building15?$AA@		; `string'
PUBLIC	??_C@_0BC@ECCFGOHC@Collected_Mesasge?$AA@	; `string'
PUBLIC	??_C@_0BB@GCCLFGPL@Refinery_Message?$AA@	; `string'
PUBLIC	??_C@_0L@NDOLDPFL@Cash_Limit?$AA@		; `string'
PUBLIC	??_C@_09NCGBOBLB@Cash_Type?$AA@			; `string'
PUBLIC	??_C@_0M@LDCEMDBJ@Entire_Team?$AA@		; `string'
PUBLIC	??_C@_0FL@EOCGHCDN@cmsgt?50?59?0193?018?5?$CFs?5dumped?5Ore?0?5@ ; `string'
PUBLIC	?__LINE__Var@?1??Custom@JFW_Resource_Collector_2@@EAEXPAVScriptableGameObj@@HH0@Z@4JA ; `JFW_Resource_Collector_2::Custom'::`2'::__LINE__Var
PUBLIC	??_C@_0CB@IAOACPMN@JFW_Resource_Collector_2?3?3Custom@ ; `string'
PUBLIC	??_C@_0DF@MNBCPKAD@x?3?2github?2renegade?2dragonade_rxd@ ; `string'
PUBLIC	??_C@_1GK@DIKJDLBB@?$AAx?$AA?3?$AA?2?$AAg?$AAi?$AAt?$AAh?$AAu?$AAb?$AA?2?$AAr?$AAe?$AAn?$AAe?$AAg?$AAa?$AAd?$AAe?$AA?2?$AAd?$AAr?$AAa?$AAg?$AAo?$AAn?$AAa?$AAd?$AAe?$AA_?$AAr?$AAx?$AAd@ ; `string'
PUBLIC	??_C@_0GH@GGOBJHFJ@cmsgt?50?59?0193?018?5?$CFs?5dumped?5Mixed@ ; `string'
PUBLIC	??_C@_0FN@KKABJCLN@cmsgt?50?59?0193?018?5?$CFs?5dumped?5Gems?0@ ; `string'
PUBLIC	??_C@_0BC@DICKEDIH@sndt?50?5gsweep?4wav?$AA@	; `string'
PUBLIC	??_C@_0FH@IKPJOKGJ@cmsgt?51?59?0193?018?5?$CFs?5dumped?5Ore?0?5@ ; `string'
PUBLIC	??_C@_0GD@LHKKLPCJ@cmsgt?51?59?0193?018?5?$CFs?5dumped?5Mixed@ ; `string'
PUBLIC	??_C@_0FJ@PDDMNIGD@cmsgt?51?59?0193?018?5?$CFs?5dumped?5Gems?0@ ; `string'
PUBLIC	??_C@_0BC@OFLMJKAC@sndt?51?5gsweep?4wav?$AA@	; `string'
PUBLIC	??_C@_0FN@PKEFLCLK@cmsgt?50?59?0193?018?5?$CFs?5dumped?5Tiber@ ; `string'
PUBLIC	?__LINE__Var@?1??Custom@JFW_Resource_Collector_3@@EAEXPAVScriptableGameObj@@HH0@Z@4JA ; `JFW_Resource_Collector_3::Custom'::`2'::__LINE__Var
PUBLIC	??_C@_0CB@GPCCEEPD@JFW_Resource_Collector_3?3?3Custom@ ; `string'
PUBLIC	??_C@_0HC@MAKAOBGA@cmsgt?50?59?0193?018?5?$CFs?5dumped?5Mixed@ ; `string'
PUBLIC	??_C@_0GD@JPLCBKEP@cmsgt?50?59?0193?018?5?$CFs?5dumped?5Blue?5@ ; `string'
PUBLIC	??_C@_0FJ@EJLHPJFO@cmsgt?51?59?0193?018?5?$CFs?5dumped?5Tiber@ ; `string'
PUBLIC	??_C@_0GO@CJFGJOFO@cmsgt?51?59?0193?018?5?$CFs?5dumped?5Mixed@ ; `string'
PUBLIC	??_C@_0FP@JBBCBABN@cmsgt?51?59?0193?018?5?$CFs?5dumped?5Blue?5@ ; `string'
PUBLIC	??_C@_0L@PFALBFMO@Nod_Preset?$AA@		; `string'
PUBLIC	??_C@_0L@EKEFLGJI@GDI_Preset?$AA@		; `string'
PUBLIC	??_C@_0N@FLPDJMKL@StartHarvest?$AA@		; `string'
PUBLIC	??_C@_0M@KHKGEGFD@StopHarvest?$AA@		; `string'
PUBLIC	??_C@_04FOIHINLL@Cash?$AA@			; `string'
PUBLIC	??_C@_0BC@KCBFDFIE@Collected_Message?$AA@	; `string'
PUBLIC	??_C@_0BB@NOAACHLF@Collected_Preset?$AA@	; `string'
PUBLIC	??_C@_0BK@LNDCBGKL@Collected_Preset_Distance?$AA@ ; `string'
PUBLIC	??_C@_0BC@HOIKKGNK@Generic_Cinematic?$AA@	; `string'
PUBLIC	??_C@_0O@DFGBMCGD@Neutral_Model?$AA@		; `string'
PUBLIC	??_C@_0P@CLCLHOKL@NeutralMessage?$AA@		; `string'
PUBLIC	??_C@_0N@IABNLEBF@OwnedMessage?$AA@		; `string'
PUBLIC	??_C@_09FFEGNOK@Nod_Model?$AA@			; `string'
PUBLIC	??_C@_09JLJGCNNJ@GDI_Model?$AA@			; `string'
PUBLIC	??_C@_0N@GPJJFOJE@Controler_ID?$AA@		; `string'
PUBLIC	??_C@_0BD@GPGDOCLH@Capture_Delay_Time?$AA@	; `string'
PUBLIC	??_C@_0M@PBGEMBKC@GDIObjectID?$AA@		; `string'
PUBLIC	??_C@_0M@HDNDHLMA@NodObjectID?$AA@		; `string'
PUBLIC	??_C@_0N@CNDCCFK@PointsToGive?$AA@		; `string'
PUBLIC	??_C@_0N@PENJNHME@PointsToTake?$AA@		; `string'
PUBLIC	??_C@_05FDFCPAJJ@OffID?$AA@			; `string'
PUBLIC	??_C@_04NDNJHLAE@OnID?$AA@			; `string'
PUBLIC	??_C@_0BC@FJHGJMJB@CinematicPowerOff?$AA@	; `string'
PUBLIC	??_C@_0L@BCJCHGNO@Animation2?$AA@		; `string'
PUBLIC	??_C@_0O@DMOKGHMM@Animation2Loc?$AA@		; `string'
PUBLIC	??_C@_0BB@ECHHAEOD@Animation2Facing?$AA@	; `string'
PUBLIC	??_C@_0BB@NHJNEILC@Invisible_Object?$AA@	; `string'
PUBLIC	??_C@_0P@ILJCPIMA@Test_Cinematic?$AA@		; `string'
PUBLIC	??_C@_0L@EGBHCOFG@BuildingID?$AA@		; `string'
PUBLIC	??_C@_0P@CAKCIONH@Animation2Slot?$AA@		; `string'
PUBLIC	??_C@_0BJ@JDJPDHFB@Invunlerability_TimerNum?$AA@ ; `string'
PUBLIC	??_C@_0BF@KANAEIJJ@Invunlerability_Time?$AA@	; `string'
PUBLIC	??_C@_05HHFOOOHO@?$CFs?0?$CFs?$AA@		; `string'
PUBLIC	??_C@_0BK@MAPBEOO@JFW_Invulnerability_Timer?$AA@ ; `string'
PUBLIC	??_C@_0L@LIJEHJP@Animation3?$AA@		; `string'
PUBLIC	??_C@_0O@BIKEOHM@Animation3Loc?$AA@		; `string'
PUBLIC	??_C@_0BB@IONNAEHN@Animation3Facing?$AA@	; `string'
PUBLIC	??_C@_0P@OLPOFNHC@Animation3Slot?$AA@		; `string'
PUBLIC	??_C@_0L@DJLPCFBN@Animation1?$AA@		; `string'
PUBLIC	??_C@_0O@HLEKBNBM@Animation1Loc?$AA@		; `string'
PUBLIC	??_C@_0BB@MMPIADAA@Animation1Facing?$AA@	; `string'
PUBLIC	??_C@_0P@KGDGPMHJ@Animation1Slot?$AA@		; `string'
PUBLIC	??_C@_0O@LCKGOFGJ@Animation1Msg?$AA@		; `string'
PUBLIC	??_C@_0O@PFAGJPLJ@Animation2Msg?$AA@		; `string'
PUBLIC	??_C@_0O@MIGGLGAJ@Animation3Msg?$AA@		; `string'
PUBLIC	??_C@_0N@LMPDCNPF@Spawner_Time?$AA@		; `string'
PUBLIC	??_C@_0BB@GNLFNAP@Spawner_TimerNum?$AA@		; `string'
PUBLIC	??_C@_07BEIHKDLJ@Message?$AA@			; `string'
PUBLIC	??_C@_0O@CCCFAEDI@Activate_Time?$AA@		; `string'
PUBLIC	??_C@_0BC@HFLFMKGB@Activate_TimerNum?$AA@	; `string'
PUBLIC	??_C@_0N@DKFHJFNB@DeathMessage?$AA@		; `string'
PUBLIC	??_C@_07LNKFKJKA@ZAdjust?$AA@			; `string'
PUBLIC	??_C@_0M@MONJBCIJ@Chrono_Time?$AA@		; `string'
PUBLIC	??_C@_0BA@NJGFDMLO@Chrono_TimerNum?$AA@		; `string'
PUBLIC	??_C@_0BB@JEDLJKOI@Spawner_Location?$AA@	; `string'
PUBLIC	??_C@_0P@PBAHNFIO@Spawner_Preset?$AA@		; `string'
PUBLIC	??_C@_0O@CNAMPLAP@DisableCustom?$AA@		; `string'
PUBLIC	??_C@_06GGDALCBD@Health?$AA@			; `string'
PUBLIC	??_C@_06HKBMKICC@Amount?$AA@			; `string'
PUBLIC	??_C@_0L@MABIFEPF@RepairStop?$AA@		; `string'
PUBLIC	??_C@_06CKLLCHIK@Preset?$AA@			; `string'
PUBLIC	??_C@_06IFGIOHDE@Custom?$AA@			; `string'
PUBLIC	??_C@_04GBPANCCF@Team?$AA@			; `string'
PUBLIC	??_C@_06KLEAFNAE@Weapon?$AA@			; `string'
PUBLIC	??_C@_05MAHMNMLO@Sound?$AA@			; `string'
PUBLIC	??_C@_09OKCDIMJO@ZoneCount?$AA@			; `string'
PUBLIC	??_C@_0L@DKDOHMCA@Only_Empty?$AA@		; `string'
PUBLIC	??_C@_0L@OBCCGOCH@Control_ID?$AA@		; `string'
PUBLIC	??_C@_09NIALNEFH@Bone_Name?$AA@			; `string'
PUBLIC	??_C@_04FICPKHNF@Cost?$AA@			; `string'
PUBLIC	??_C@_0O@NFCFPADE@Max_Carryalls?$AA@		; `string'
PUBLIC	??_C@_0BB@ILNJPJPJ@IndicatorZOffset?$AA@	; `string'
PUBLIC	??_C@_09DABJMFAJ@Indicator?$AA@			; `string'
PUBLIC	??_C@_08DFKPLDPN@Distance?$AA@			; `string'
PUBLIC	??_C@_06GJMFONGK@Radius?$AA@			; `string'
PUBLIC	??_C@_0BB@LCFEHILM@Explosion_Preset?$AA@	; `string'
PUBLIC	??_C@_0BB@IFFOHCMO@Harvester_Preset?$AA@	; `string'
PUBLIC	??_C@_07NKAPIFEF@LogicID?$AA@			; `string'
PUBLIC	??_C@_0BA@OPCOEAIM@Number_Of_Paths?$AA@		; `string'
PUBLIC	??_C@_0BE@INAFLFIN@Waypath1_Dock2Field?$AA@	; `string'
PUBLIC	??_C@_0BC@LDBCMDNJ@Waypath1_Tib_Zone?$AA@	; `string'
PUBLIC	??_C@_0BE@DAMPNJED@Waypath2_Dock2Field?$AA@	; `string'
PUBLIC	??_C@_0BC@CKPAKFNI@Waypath2_Tib_Zone?$AA@	; `string'
PUBLIC	??_C@_0BE@ONFJAAMG@Waypath3_Dock2Field?$AA@	; `string'
PUBLIC	??_C@_0BC@OLHOHKBI@Waypath3_Tib_Zone?$AA@	; `string'
PUBLIC	??_C@_01GBGANLPD@0?$AA@				; `string'
PUBLIC	??_C@_0P@JILJGFHC@Crystal_Preset?$AA@		; `string'
PUBLIC	??_C@_0BC@IPGMMAIA@Harvest_Animation?$AA@	; `string'
PUBLIC	??_C@_0BD@MOHLNDH@Tiberium_Idle_Time?$AA@	; `string'
PUBLIC	??_C@_0O@IBOGHPMJ@Dock_Location?$AA@		; `string'
PUBLIC	??_C@_0P@ECGAMGPN@Dock_Animation?$AA@		; `string'
PUBLIC	??_C@_0P@KAFHAIOI@Dock_Idle_Time?$AA@		; `string'
PUBLIC	??_C@_0BA@ELIFPLFJ@Chrono_Location?$AA@		; `string'
PUBLIC	??_C@_0BE@KLDGMPOB@Waypath1_Field2Dock?$AA@	; `string'
PUBLIC	??_C@_0BE@BGPMKDCP@Waypath2_Field2Dock?$AA@	; `string'
PUBLIC	??_C@_0BE@MLGKHKKK@Waypath3_Field2Dock?$AA@	; `string'
PUBLIC	??_C@_0N@GDAJCJHI@Dock_Credits?$AA@		; `string'
PUBLIC	??_C@_0BL@OHNGLKLD@Harvester_Create_Idle_Time?$AA@ ; `string'
PUBLIC	??_C@_08FGGCKOEH@CenterID?$AA@			; `string'
PUBLIC	??_C@_05CFMCGLCK@Range?$AA@			; `string'
PUBLIC	??_C@_0M@MBIJEOAO@StartSound1?$AA@		; `string'
PUBLIC	??_C@_0M@OKKEBNMN@StartSound2?$AA@		; `string'
PUBLIC	??_C@_0L@CNNLMKFF@StopSound1?$AA@		; `string'
PUBLIC	??_C@_0L@GPGJJJG@StopSound2?$AA@		; `string'
PUBLIC	??_C@_0L@BFKILFBA@Spy_Script?$AA@		; `string'
PUBLIC	??_C@_0N@GEKIIMGF@Sub_Preset_1?$AA@		; `string'
PUBLIC	??_C@_0N@EPIFNPKG@Sub_Preset_2?$AA@		; `string'
PUBLIC	??_C@_06FAMCGDJJ@WaterZ?$AA@			; `string'
PUBLIC	??_C@_0P@GMPIMNNH@WaterIndicator?$AA@		; `string'
PUBLIC	??_C@_09PLKKJOC@ResetTime?$AA@			; `string'
PUBLIC	??_C@_0N@JONNKAKM@Timer_Number?$AA@		; `string'
PUBLIC	??_C@_0N@PNJGAIBD@Update_Delay?$AA@		; `string'
PUBLIC	?__LINE__Var@?1??Destroyed@JFW_Global_Stealth_Controller@@EAEXPAVScriptableGameObj@@@Z@4JA ; `JFW_Global_Stealth_Controller::Destroyed'::`2'::__LINE__Var
PUBLIC	??_C@_0CJ@MPJHMHNI@JFW_Global_Stealth_Controller?3?3D@ ; `string'
PUBLIC	?__LINE__Var@?1??Add_Generator@JFW_Global_Stealth_Controller@@AAEXKMH@Z@4JA ; `JFW_Global_Stealth_Controller::Add_Generator'::`2'::__LINE__Var
PUBLIC	??_C@_0CN@GAFLINEO@JFW_Global_Stealth_Controller?3?3A@ ; `string'
PUBLIC	?__LINE__Var@?1??Remove_Generator@JFW_Global_Stealth_Controller@@AAEXK@Z@4JA ; `JFW_Global_Stealth_Controller::Remove_Generator'::`2'::__LINE__Var
PUBLIC	??_C@_0DA@LFMLELCD@JFW_Global_Stealth_Controller?3?3R@ ; `string'
PUBLIC	??_C@_0BD@MLNBMGFM@Stealth_Controller?$AA@	; `string'
PUBLIC	??_C@_0O@PFDAENIN@Stealth_Range?$AA@		; `string'
PUBLIC	??_C@_0L@ONHIDKBD@SizePreset?$AA@		; `string'
PUBLIC	??_C@_0O@FBCFJMGJ@ROOTTRANSFORM?$AA@		; `string'
PUBLIC	??_C@_07OFDCIPPN@UpSound?$AA@			; `string'
PUBLIC	??_C@_09PLKDFDPF@DownSound?$AA@			; `string'
PUBLIC	??_C@_04CAKOHOCJ@Blue?$AA@			; `string'
PUBLIC	??_C@_05GGOIJPPE@Green?$AA@			; `string'
PUBLIC	??_C@_03PADCEAKC@Red?$AA@			; `string'
PUBLIC	??_C@_06JBKGCNBB@Delete?$AA@			; `string'
PUBLIC	??_C@_0BA@GEFCHNOK@Display_Message?$AA@		; `string'
PUBLIC	??_C@_0BA@KGPLCACB@JFW_Water_Level?$AA@		; `string'
PUBLIC	??_C@_09PADBEKON@Ping_Time?$AA@			; `string'
PUBLIC	??_C@_05PGGAFPFO@Death?$AA@			; `string'
PUBLIC	??_C@_0BB@NIHBMJIN@Surface_Z_Offset?$AA@	; `string'
PUBLIC	??_C@_0L@NEGHFEKF@Ping_Sound?$AA@		; `string'
PUBLIC	??_C@_0O@DKPJIDLF@Surface_Sound?$AA@		; `string'
PUBLIC	??_C@_0O@GEGANDIG@Surface_Armor?$AA@		; `string'
PUBLIC	??_C@_0N@GCBNOCAP@Block_Weapon?$AA@		; `string'
PUBLIC	??_C@_0O@DAPPBGDM@Dive_Z_Offset?$AA@		; `string'
PUBLIC	??_C@_0P@HHCFMLGK@Submerge_Armor?$AA@		; `string'
PUBLIC	??_C@_0P@JMLOMBPP@RA_DriverDeath?$AA@		; `string'
PUBLIC	??_C@_07EDCLAFNL@Warhead?$AA@			; `string'
PUBLIC	??_C@_0P@EKCFPJOD@HumanAnimation?$AA@		; `string'
PUBLIC	??_C@_08BAFDIAOH@WebModel?$AA@			; `string'
PUBLIC	??_C@_05NNFHCGPF@?$CFs?4?$CFs?$AA@		; `string'
PUBLIC	??_C@_04CLCEDBPF@time?$AA@			; `string'
PUBLIC	??_C@_06KGFFMMMJ@Damage?$AA@			; `string'
PUBLIC	??_C@_0BE@FIDKOLIF@Disable_Transitions?$AA@	; `string'
PUBLIC	??_C@_0O@NBHCBIAJ@Single_Hijack?$AA@		; `string'
PUBLIC	??_C@_0P@EAIDILHB@Disable_Custom?$AA@		; `string'
PUBLIC	??_C@_0O@BCNGMABO@Enable_Custom?$AA@		; `string'
PUBLIC	??_7?$ScriptRegistrant@VJFW_Domination_Controler_End_Game@@@@6B@ ; ScriptRegistrant<JFW_Domination_Controler_End_Game>::`vftable'
PUBLIC	?JFW_Domination_Controler_End_Game_Registrant@@3V?$ScriptRegistrant@VJFW_Domination_Controler_End_Game@@@@A ; JFW_Domination_Controler_End_Game_Registrant
PUBLIC	??_C@_0JA@NCMILCNA@NeutralMessage?3int?0OwnedMessage?3@ ; `string'
PUBLIC	??_C@_0CC@KBAGIHMO@JFW_Domination_Controler_End_Gam@ ; `string'
PUBLIC	??_7?$ScriptRegistrant@VJFW_Carryable_Vehicle@@@@6B@ ; ScriptRegistrant<JFW_Carryable_Vehicle>::`vftable'
PUBLIC	?JFW_Carryable_Vehicle_Registrant@@3V?$ScriptRegistrant@VJFW_Carryable_Vehicle@@@@A ; JFW_Carryable_Vehicle_Registrant
PUBLIC	??_C@_0BO@EMFFKLKE@Only_Empty?3int?0Control_ID?3int?$AA@ ; `string'
PUBLIC	??_C@_0BG@KKOEOGEN@JFW_Carryable_Vehicle?$AA@	; `string'
PUBLIC	??_7?$ScriptRegistrant@VJFW_CarryAll@@@@6B@	; ScriptRegistrant<JFW_CarryAll>::`vftable'
PUBLIC	?JFW_CarryAll_Registrant@@3V?$ScriptRegistrant@VJFW_CarryAll@@@@A ; JFW_CarryAll_Registrant
PUBLIC	??_C@_0CJ@LMOEHHAH@Bone_Name?3string?0Cost?3int?0Contro@ ; `string'
PUBLIC	??_C@_0N@CIDBBAKE@JFW_CarryAll?$AA@		; `string'
PUBLIC	??_7?$ScriptRegistrant@VJFW_Carry_Control@@@@6B@ ; ScriptRegistrant<JFW_Carry_Control>::`vftable'
PUBLIC	?JFW_Carry_Control_Registrant@@3V?$ScriptRegistrant@VJFW_Carry_Control@@@@A ; JFW_Carry_Control_Registrant
PUBLIC	??_C@_0BC@HAGCKIOM@Max_Carryalls?3int?$AA@	; `string'
PUBLIC	??_C@_0BC@KNKPFEME@JFW_Carry_Control?$AA@	; `string'
PUBLIC	??_7?$ScriptRegistrant@VJFW_Sensor_Array@@@@6B@	; ScriptRegistrant<JFW_Sensor_Array>::`vftable'
PUBLIC	?JFW_Sensor_Array_Registrant@@3V?$ScriptRegistrant@VJFW_Sensor_Array@@@@A ; JFW_Sensor_Array_Registrant
PUBLIC	??_C@_0FP@OCMNOADO@Distance?3float?0Indicator?3string?0@ ; `string'
PUBLIC	??_C@_0BB@NCAFFMKP@JFW_Sensor_Array?$AA@	; `string'
PUBLIC	??_7?$ScriptRegistrant@VJFW_Team_DM_Controller_2@@@@6B@ ; ScriptRegistrant<JFW_Team_DM_Controller_2>::`vftable'
PUBLIC	?JFW_Team_DM_Controller_2_Registrant@@3V?$ScriptRegistrant@VJFW_Team_DM_Controller_2@@@@A ; JFW_Team_DM_Controller_2_Registrant
PUBLIC	??_C@_0CP@DENGFNMN@Deaths_To_Loose?3int?0Death_Messag@ ; `string'
PUBLIC	??_C@_0BJ@CDDEOPDA@JFW_Team_DM_Controller_2?$AA@ ; `string'
PUBLIC	??_7?$ScriptRegistrant@VJFW_Vehicle_Thief@@@@6B@ ; ScriptRegistrant<JFW_Vehicle_Thief>::`vftable'
PUBLIC	?JFW_Vehicle_Thief_Registrant@@3V?$ScriptRegistrant@VJFW_Vehicle_Thief@@@@A ; JFW_Vehicle_Thief_Registrant
PUBLIC	??_C@_0BO@DMPJJLP@Weapon?3string?0Player_Type?3int?$AA@ ; `string'
PUBLIC	??_C@_0BC@CECEOKHO@JFW_Vehicle_Thief?$AA@	; `string'
PUBLIC	??_7?$ScriptRegistrant@VJFW_Vehicle_Thief_2@@@@6B@ ; ScriptRegistrant<JFW_Vehicle_Thief_2>::`vftable'
PUBLIC	?JFW_Vehicle_Thief_2_Registrant@@3V?$ScriptRegistrant@VJFW_Vehicle_Thief_2@@@@A ; JFW_Vehicle_Thief_2_Registrant
PUBLIC	??_C@_0CL@BEEHEHGE@Weapon?3string?0Player_Type?3int?0So@ ; `string'
PUBLIC	??_C@_0BE@HLPDEGMG@JFW_Vehicle_Thief_2?$AA@	; `string'
PUBLIC	??_7?$ScriptRegistrant@VJFW_Conyard@@@@6B@	; ScriptRegistrant<JFW_Conyard>::`vftable'
PUBLIC	?JFW_Conyard_Registrant@@3V?$ScriptRegistrant@VJFW_Conyard@@@@A ; JFW_Conyard_Registrant
PUBLIC	??_C@_0DH@FLEEADEH@Time?3float?0TimerNum?3int?0DisableC@ ; `string'
PUBLIC	??_C@_0M@FPAODBFG@JFW_Conyard?$AA@		; `string'
PUBLIC	??_7?$ScriptRegistrant@VJFW_Flying_Infantry@@@@6B@ ; ScriptRegistrant<JFW_Flying_Infantry>::`vftable'
PUBLIC	?JFW_Flying_Infantry_Registrant@@3V?$ScriptRegistrant@VJFW_Flying_Infantry@@@@A ; JFW_Flying_Infantry_Registrant
PUBLIC	??_C@_00CNPNBAHC@?$AA@				; `string'
PUBLIC	??_C@_0BE@LCHEGHA@JFW_Flying_Infantry?$AA@	; `string'
PUBLIC	??_7?$ScriptRegistrant@VJFW_Flying_Infantry_Custom@@@@6B@ ; ScriptRegistrant<JFW_Flying_Infantry_Custom>::`vftable'
PUBLIC	?JFW_Flying_Infantry_Custom_Registrant@@3V?$ScriptRegistrant@VJFW_Flying_Infantry_Custom@@@@A ; JFW_Flying_Infantry_Custom_Registrant
PUBLIC	??_C@_0M@HBPJHKKO@Message?3int?$AA@		; `string'
PUBLIC	??_C@_0BL@PKHEGLJA@JFW_Flying_Infantry_Custom?$AA@ ; `string'
PUBLIC	??_7?$ScriptRegistrant@VJFW_Flying_Infantry_Powerup@@@@6B@ ; ScriptRegistrant<JFW_Flying_Infantry_Powerup>::`vftable'
PUBLIC	?JFW_Flying_Infantry_Powerup_Registrant@@3V?$ScriptRegistrant@VJFW_Flying_Infantry_Powerup@@@@A ; JFW_Flying_Infantry_Powerup_Registrant
PUBLIC	??_C@_0BM@JIAHOKDP@JFW_Flying_Infantry_Powerup?$AA@ ; `string'
PUBLIC	??_7?$ScriptRegistrant@VJFW_Flying_Infantry_Enter@@@@6B@ ; ScriptRegistrant<JFW_Flying_Infantry_Enter>::`vftable'
PUBLIC	?JFW_Flying_Infantry_Enter_Registrant@@3V?$ScriptRegistrant@VJFW_Flying_Infantry_Enter@@@@A ; JFW_Flying_Infantry_Enter_Registrant
PUBLIC	??_C@_0BA@CCJADDGA@Player_Type?3int?$AA@	; `string'
PUBLIC	??_C@_0BK@PGGDDGJH@JFW_Flying_Infantry_Enter?$AA@ ; `string'
PUBLIC	??_7?$ScriptRegistrant@VJFW_Flying_Infantry_Exit@@@@6B@ ; ScriptRegistrant<JFW_Flying_Infantry_Exit>::`vftable'
PUBLIC	?JFW_Flying_Infantry_Exit_Registrant@@3V?$ScriptRegistrant@VJFW_Flying_Infantry_Exit@@@@A ; JFW_Flying_Infantry_Exit_Registrant
PUBLIC	??_C@_0BJ@FGEOMHLF@JFW_Flying_Infantry_Exit?$AA@ ; `string'
PUBLIC	??_7?$ScriptRegistrant@VJFW_Drone_Damage@@@@6B@	; ScriptRegistrant<JFW_Drone_Damage>::`vftable'
PUBLIC	?JFW_Drone_Damage_Registrant@@3V?$ScriptRegistrant@VJFW_Drone_Damage@@@@A ; JFW_Drone_Damage_Registrant
PUBLIC	??_C@_0DD@PHJOEFNA@RepairStop?3int?0Preset?3string?0Amo@ ; `string'
PUBLIC	??_C@_0BB@KHOBMEBA@JFW_Drone_Damage?$AA@	; `string'
PUBLIC	??_7?$ScriptRegistrant@VJFW_Conyard_Vehicle_Buildings@@@@6B@ ; ScriptRegistrant<JFW_Conyard_Vehicle_Buildings>::`vftable'
PUBLIC	?JFW_Conyard_Vehicle_Buildings_Registrant@@3V?$ScriptRegistrant@VJFW_Conyard_Vehicle_Buildings@@@@A ; JFW_Conyard_Vehicle_Buildings_Registrant
PUBLIC	??_C@_0ED@GGFIPBDP@Time?3float?0TimerNum?3int?0DisableC@ ; `string'
PUBLIC	??_C@_0BO@KJPIBDJB@JFW_Conyard_Vehicle_Buildings?$AA@ ; `string'
PUBLIC	??_7?$ScriptRegistrant@VJFW_Domination_Zone@@@@6B@ ; ScriptRegistrant<JFW_Domination_Zone>::`vftable'
PUBLIC	?JFW_Domination_Zone_Registrant@@3V?$ScriptRegistrant@VJFW_Domination_Zone@@@@A ; JFW_Domination_Zone_Registrant
PUBLIC	??_C@_0JC@JOGELDNA@Controler_ID?3int?0NeutralMessage?3@ ; `string'
PUBLIC	??_C@_0BE@NONKOLGP@JFW_Domination_Zone?$AA@	; `string'
PUBLIC	??_7?$ScriptRegistrant@VJFW_Domination_Controler@@@@6B@ ; ScriptRegistrant<JFW_Domination_Controler>::`vftable'
PUBLIC	?JFW_Domination_Controler_Registrant@@3V?$ScriptRegistrant@VJFW_Domination_Controler@@@@A ; JFW_Domination_Controler_Registrant
PUBLIC	??_C@_0IC@HIBIFAJD@NeutralMessage?3int?0OwnedMessage?3@ ; `string'
PUBLIC	??_C@_0BJ@OAMGFFNI@JFW_Domination_Controler?$AA@ ; `string'
PUBLIC	??_7?$ScriptRegistrant@VJFW_Iron_Curtain_Zone@@@@6B@ ; ScriptRegistrant<JFW_Iron_Curtain_Zone>::`vftable'
PUBLIC	?JFW_Iron_Curtain_Zone_Registrant@@3V?$ScriptRegistrant@VJFW_Iron_Curtain_Zone@@@@A ; JFW_Iron_Curtain_Zone_Registrant
PUBLIC	??_C@_0BME@HIKMHILP@Time?3float?0TimerNum?3int?0Animatio@ ; `string'
PUBLIC	??_C@_0BG@LGANPHBB@JFW_Iron_Curtain_Zone?$AA@	; `string'
PUBLIC	??_7?$ScriptRegistrant@VJFW_Chrono_Controler_Zone@@@@6B@ ; ScriptRegistrant<JFW_Chrono_Controler_Zone>::`vftable'
PUBLIC	?JFW_Chrono_Controler_Zone_Registrant@@3V?$ScriptRegistrant@VJFW_Chrono_Controler_Zone@@@@A ; JFW_Chrono_Controler_Zone_Registrant
PUBLIC	??_C@_0CDG@CPCIBIGP@Spawner_Time?3float?0Spawner_Timer@ ; `string'
PUBLIC	??_C@_0BK@DAOJICGC@JFW_Chrono_Controler_Zone?$AA@ ; `string'
PUBLIC	??_7?$ScriptRegistrant@VJFW_Assault_Powerplant_Controller@@@@6B@ ; ScriptRegistrant<JFW_Assault_Powerplant_Controller>::`vftable'
PUBLIC	?JFW_Assault_Powerplant_Controller_Registrant@@3V?$ScriptRegistrant@VJFW_Assault_Powerplant_Controller@@@@A ; JFW_Assault_Powerplant_Controller_Registrant
PUBLIC	??_C@_0BBL@NNHANDIC@Time?3float?0TimerNum?3int?0Player_T@ ; `string'
PUBLIC	??_C@_0CC@OIFOMHMD@JFW_Assault_Powerplant_Controlle@ ; `string'
PUBLIC	??_7?$ScriptRegistrant@VJFW_Resource_Collector@@@@6B@ ; ScriptRegistrant<JFW_Resource_Collector>::`vftable'
PUBLIC	?JFW_Resource_Collector_Registrant@@3V?$ScriptRegistrant@VJFW_Resource_Collector@@@@A ; JFW_Resource_Collector_Registrant
PUBLIC	??_C@_0FI@DPOBEPMP@Collected_Mesasge?3int?0Refinery_M@ ; `string'
PUBLIC	??_C@_0BH@NMCJELLK@JFW_Resource_Collector?$AA@	; `string'
PUBLIC	??_7?$ScriptRegistrant@VJFW_Resource_Collector_2@@@@6B@ ; ScriptRegistrant<JFW_Resource_Collector_2>::`vftable'
PUBLIC	?JFW_Resource_Collector_2_Registrant@@3V?$ScriptRegistrant@VJFW_Resource_Collector_2@@@@A ; JFW_Resource_Collector_2_Registrant
PUBLIC	??_C@_0BJ@HFLEDPPP@JFW_Resource_Collector_2?$AA@ ; `string'
PUBLIC	??_7?$ScriptRegistrant@VJFW_Resource_Collector_3@@@@6B@ ; ScriptRegistrant<JFW_Resource_Collector_3>::`vftable'
PUBLIC	?JFW_Resource_Collector_3_Registrant@@3V?$ScriptRegistrant@VJFW_Resource_Collector_3@@@@A ; JFW_Resource_Collector_3_Registrant
PUBLIC	??_C@_0BJ@GMKPAOLO@JFW_Resource_Collector_3?$AA@ ; `string'
PUBLIC	??_7?$ScriptRegistrant@VJFW_Resource_Refinery@@@@6B@ ; ScriptRegistrant<JFW_Resource_Refinery>::`vftable'
PUBLIC	?JFW_Resource_Refinery_Registrant@@3V?$ScriptRegistrant@VJFW_Resource_Refinery@@@@A ; JFW_Resource_Refinery_Registrant
PUBLIC	??_C@_0BF@EIDPHMMP@Refinery_Message?3int?$AA@	; `string'
PUBLIC	??_C@_0BG@NFCFEGJB@JFW_Resource_Refinery?$AA@	; `string'
PUBLIC	??_7?$ScriptRegistrant@VJFW_Resource_Field@@@@6B@ ; ScriptRegistrant<JFW_Resource_Field>::`vftable'
PUBLIC	?JFW_Resource_Field_Registrant@@3V?$ScriptRegistrant@VJFW_Resource_Field@@@@A ; JFW_Resource_Field_Registrant
PUBLIC	??_C@_0LE@NIHKNBMM@Cash?3int?0Time?3float?0TimerNum?3int@ ; `string'
PUBLIC	??_C@_0BD@KKICDDAO@JFW_Resource_Field?$AA@	; `string'
PUBLIC	??_7?$ScriptRegistrant@VJFW_Team_DM_Controller@@@@6B@ ; ScriptRegistrant<JFW_Team_DM_Controller>::`vftable'
PUBLIC	?JFW_Team_DM_Controller_Registrant@@3V?$ScriptRegistrant@VJFW_Team_DM_Controller@@@@A ; JFW_Team_DM_Controller_Registrant
PUBLIC	??_C@_0KD@JIAFPKAB@Deaths_To_Loose?3int?0Death_Messag@ ; `string'
PUBLIC	??_C@_0BH@MLNIJLNH@JFW_Team_DM_Controller?$AA@	; `string'
PUBLIC	??_7?$ScriptRegistrant@VJFW_Team_DM_Zone@@@@6B@	; ScriptRegistrant<JFW_Team_DM_Zone>::`vftable'
PUBLIC	?JFW_Team_DM_Zone_Registrant@@3V?$ScriptRegistrant@VJFW_Team_DM_Zone@@@@A ; JFW_Team_DM_Zone_Registrant
PUBLIC	??_C@_0EL@GGHFAIAB@Player_Type?3int?0Controller_ID?3in@ ; `string'
PUBLIC	??_C@_0BB@BPAOJKKJ@JFW_Team_DM_Zone?$AA@	; `string'
PUBLIC	??_7?$ScriptRegistrant@VJFW_Team_DM_Attatched@@@@6B@ ; ScriptRegistrant<JFW_Team_DM_Attatched>::`vftable'
PUBLIC	?JFW_Team_DM_Attatched_Registrant@@3V?$ScriptRegistrant@VJFW_Team_DM_Attatched@@@@A ; JFW_Team_DM_Attatched_Registrant
PUBLIC	??_C@_0DL@BCMELIDM@Controller_ID?3int?0Deactivate_Mes@ ; `string'
PUBLIC	??_7?$ScriptRegistrant@VJFW_Conyard_Radius@@@@6B@ ; ScriptRegistrant<JFW_Conyard_Radius>::`vftable'
PUBLIC	?JFW_Conyard_Radius_Registrant@@3V?$ScriptRegistrant@VJFW_Conyard_Radius@@@@A ; JFW_Conyard_Radius_Registrant
PUBLIC	??_C@_0EE@BHNOLFDH@Time?3float?0TimerNum?3int?0DisableC@ ; `string'
PUBLIC	??_C@_0BD@CECNIFJB@JFW_Conyard_Radius?$AA@	; `string'
PUBLIC	??_7?$ScriptRegistrant@VJFW_Chrono_Harvester_Logic@@@@6B@ ; ScriptRegistrant<JFW_Chrono_Harvester_Logic>::`vftable'
PUBLIC	?JFW_Chrono_Harvester_Logic_Registrant@@3V?$ScriptRegistrant@VJFW_Chrono_Harvester_Logic@@@@A ; JFW_Chrono_Harvester_Logic_Registrant
PUBLIC	??_C@_0DA@CDKJAHLF@Harvester_Preset?3string?0Explosio@ ; `string'
PUBLIC	??_C@_0BL@DPGHDOFL@JFW_Chrono_Harvester_Logic?$AA@ ; `string'
PUBLIC	??_7?$ScriptRegistrant@VJFW_Chrono_Harvester_Attached@@@@6B@ ; ScriptRegistrant<JFW_Chrono_Harvester_Attached>::`vftable'
PUBLIC	?JFW_Chrono_Harvester_Attached_Registrant@@3V?$ScriptRegistrant@VJFW_Chrono_Harvester_Attached@@@@A ; JFW_Chrono_Harvester_Attached_Registrant
PUBLIC	??_C@_0BPL@LALDEDND@LogicID?$DN0?3int?0Number_Of_Paths?$DN0?3@ ; `string'
PUBLIC	??_C@_0BO@CJBOJIHI@JFW_Chrono_Harvester_Attached?$AA@ ; `string'
PUBLIC	??_7?$ScriptRegistrant@VJFW_Chrono_Harvester_Kill@@@@6B@ ; ScriptRegistrant<JFW_Chrono_Harvester_Kill>::`vftable'
PUBLIC	?JFW_Chrono_Harvester_Kill_Registrant@@3V?$ScriptRegistrant@VJFW_Chrono_Harvester_Kill@@@@A ; JFW_Chrono_Harvester_Kill_Registrant
PUBLIC	??_C@_0O@JHIFIFME@LogicID?$DN0?3int?$AA@	; `string'
PUBLIC	??_C@_0BK@OAOKCOCM@JFW_Chrono_Harvester_Kill?$AA@ ; `string'
PUBLIC	??_7?$ScriptRegistrant@VJFW_Chrono_Harvester_Spawn_Kill@@@@6B@ ; ScriptRegistrant<JFW_Chrono_Harvester_Spawn_Kill>::`vftable'
PUBLIC	?JFW_Chrono_Harvester_Spawn_Kill_Registrant@@3V?$ScriptRegistrant@VJFW_Chrono_Harvester_Spawn_Kill@@@@A ; JFW_Chrono_Harvester_Spawn_Kill_Registrant
PUBLIC	??_C@_0CA@MGHGCKPG@JFW_Chrono_Harvester_Spawn_Kill?$AA@ ; `string'
PUBLIC	??_7?$ScriptRegistrant@VJFW_Conyard_Turrets@@@@6B@ ; ScriptRegistrant<JFW_Conyard_Turrets>::`vftable'
PUBLIC	?JFW_Conyard_Turrets_Registrant@@3V?$ScriptRegistrant@VJFW_Conyard_Turrets@@@@A ; JFW_Conyard_Turrets_Registrant
PUBLIC	??_C@_0BE@EBCJBDDH@JFW_Conyard_Turrets?$AA@	; `string'
PUBLIC	??_7?$ScriptRegistrant@VJFW_Radar_Jammer@@@@6B@	; ScriptRegistrant<JFW_Radar_Jammer>::`vftable'
PUBLIC	?JFW_Radar_Jammer_Registrant@@3V?$ScriptRegistrant@VJFW_Radar_Jammer@@@@A ; JFW_Radar_Jammer_Registrant
PUBLIC	??_C@_0JL@IDAFGBLK@Time?3float?0TimerNum?3int?0DisableC@ ; `string'
PUBLIC	??_C@_0BB@MOOAOFHH@JFW_Radar_Jammer?$AA@	; `string'
PUBLIC	??_7?$ScriptRegistrant@VJFW_Radar_Jammer_Sound@@@@6B@ ; ScriptRegistrant<JFW_Radar_Jammer_Sound>::`vftable'
PUBLIC	?JFW_Radar_Jammer_Sound_Registrant@@3V?$ScriptRegistrant@VJFW_Radar_Jammer_Sound@@@@A ; JFW_Radar_Jammer_Sound_Registrant
PUBLIC	??_C@_0FO@COPBMECC@Time?3float?0TimerNum?3int?0DisableC@ ; `string'
PUBLIC	??_C@_0BH@OAIBJEBI@JFW_Radar_Jammer_Sound?$AA@	; `string'
PUBLIC	??_7?$ScriptRegistrant@VJFW_Sonar_Pulse@@@@6B@	; ScriptRegistrant<JFW_Sonar_Pulse>::`vftable'
PUBLIC	?JFW_Sonar_Pulse_Registrant@@3V?$ScriptRegistrant@VJFW_Sonar_Pulse@@@@A ; JFW_Sonar_Pulse_Registrant
PUBLIC	??_C@_0KE@JCLNFHPH@Spy_Script?3string?0Sub_Preset_1?3s@ ; `string'
PUBLIC	??_C@_0BA@HINCPGGH@JFW_Sonar_Pulse?$AA@		; `string'
PUBLIC	??_7?$ScriptRegistrant@VJFW_Global_Stealth_Controller@@@@6B@ ; ScriptRegistrant<JFW_Global_Stealth_Controller>::`vftable'
PUBLIC	?JFW_Global_Stealth_Controller_Registrant@@3V?$ScriptRegistrant@VJFW_Global_Stealth_Controller@@@@A ; JFW_Global_Stealth_Controller_Registrant
PUBLIC	??_C@_0CM@PDBLJBK@Update_Delay?$DN2?40?3float?0Timer_Num@ ; `string'
PUBLIC	??_C@_0BO@IJKCBGAG@JFW_Global_Stealth_Controller?$AA@ ; `string'
PUBLIC	??_7?$ScriptRegistrant@VJFW_Stealth_Generator_Building@@@@6B@ ; ScriptRegistrant<JFW_Stealth_Generator_Building>::`vftable'
PUBLIC	?JFW_Stealth_Generator_Building_Registrant@@3V?$ScriptRegistrant@VJFW_Stealth_Generator_Building@@@@A ; JFW_Stealth_Generator_Building_Registrant
PUBLIC	??_C@_0GB@INNNKMDH@Timer_Number?$DN876?3int?0Stealth_Ran@ ; `string'
PUBLIC	??_C@_0BP@PLAKEMAP@JFW_Stealth_Generator_Building?$AA@ ; `string'
PUBLIC	??_7?$ScriptRegistrant@VJFW_Stealth_Generator_Vehicle@@@@6B@ ; ScriptRegistrant<JFW_Stealth_Generator_Vehicle>::`vftable'
PUBLIC	?JFW_Stealth_Generator_Vehicle_Registrant@@3V?$ScriptRegistrant@VJFW_Stealth_Generator_Vehicle@@@@A ; JFW_Stealth_Generator_Vehicle_Registrant
PUBLIC	??_C@_0EB@EBMIACHK@Stealth_Range?$DN50?3int?0Stealth_Con@ ; `string'
PUBLIC	??_C@_0BO@OJKNECPH@JFW_Stealth_Generator_Vehicle?$AA@ ; `string'
PUBLIC	??_7?$ScriptRegistrant@VJFW_Stealth_Generator_Vehicle_Deploy@@@@6B@ ; ScriptRegistrant<JFW_Stealth_Generator_Vehicle_Deploy>::`vftable'
PUBLIC	?JFW_Stealth_Generator_Vehicle_Deploy_Registrant@@3V?$ScriptRegistrant@VJFW_Stealth_Generator_Vehicle_Deploy@@@@A ; JFW_Stealth_Generator_Vehicle_Deploy_Registrant
PUBLIC	??_C@_0CF@JBKGDCJK@JFW_Stealth_Generator_Vehicle_De@ ; `string'
PUBLIC	??_7?$ScriptRegistrant@VJFW_Stealth_Generator_Ignored@@@@6B@ ; ScriptRegistrant<JFW_Stealth_Generator_Ignored>::`vftable'
PUBLIC	?JFW_Stealth_Generator_Ignored_Registrant@@3V?$ScriptRegistrant@VJFW_Stealth_Generator_Ignored@@@@A ; JFW_Stealth_Generator_Ignored_Registrant
PUBLIC	??_C@_0BO@HMNPFMNA@JFW_Stealth_Generator_Ignored?$AA@ ; `string'
PUBLIC	??_7?$ScriptRegistrant@VJFW_Low_Power_Message@@@@6B@ ; ScriptRegistrant<JFW_Low_Power_Message>::`vftable'
PUBLIC	?JFW_Low_Power_Message_Registrant@@3V?$ScriptRegistrant@VJFW_Low_Power_Message@@@@A ; JFW_Low_Power_Message_Registrant
PUBLIC	??_C@_0P@CCPBPMB@Message?3string?$AA@		; `string'
PUBLIC	??_C@_0BG@GELBOJIL@JFW_Low_Power_Message?$AA@	; `string'
PUBLIC	??_7?$ScriptRegistrant@VJFW_Low_Power_Sound@@@@6B@ ; ScriptRegistrant<JFW_Low_Power_Sound>::`vftable'
PUBLIC	?JFW_Low_Power_Sound_Registrant@@3V?$ScriptRegistrant@VJFW_Low_Power_Sound@@@@A ; JFW_Low_Power_Sound_Registrant
PUBLIC	??_C@_0CA@BKJMOPFH@DownSound?3string?0UpSound?3string?$AA@ ; `string'
PUBLIC	??_C@_0BE@MNKLNNAF@JFW_Low_Power_Sound?$AA@	; `string'
PUBLIC	??_7?$ScriptRegistrant@VJFW_Message_Send_Zone@@@@6B@ ; ScriptRegistrant<JFW_Message_Send_Zone>::`vftable'
PUBLIC	?JFW_Message_Send_Zone_Registrant@@3V?$ScriptRegistrant@VJFW_Message_Send_Zone@@@@A ; JFW_Message_Send_Zone_Registrant
PUBLIC	??_C@_0FC@OBPNBHKH@Player_Type?3int?0Message?3string?0R@ ; `string'
PUBLIC	??_C@_0BG@HPENMFLN@JFW_Message_Send_Zone?$AA@	; `string'
PUBLIC	??_7?$ScriptRegistrant@VJFW_Message_Send_Zone_Team@@@@6B@ ; ScriptRegistrant<JFW_Message_Send_Zone_Team>::`vftable'
PUBLIC	?JFW_Message_Send_Zone_Team_Registrant@@3V?$ScriptRegistrant@VJFW_Message_Send_Zone_Team@@@@A ; JFW_Message_Send_Zone_Team_Registrant
PUBLIC	??_C@_0BL@NMNEMJNO@JFW_Message_Send_Zone_Team?$AA@ ; `string'
PUBLIC	??_7?$ScriptRegistrant@VJFW_Message_Send_Zone_Player@@@@6B@ ; ScriptRegistrant<JFW_Message_Send_Zone_Player>::`vftable'
PUBLIC	?JFW_Message_Send_Zone_Player_Registrant@@3V?$ScriptRegistrant@VJFW_Message_Send_Zone_Player@@@@A ; JFW_Message_Send_Zone_Player_Registrant
PUBLIC	??_C@_0BN@KCCNOJPN@JFW_Message_Send_Zone_Player?$AA@ ; `string'
PUBLIC	??_7?$ScriptRegistrant@VJFW_Message_Send_Death@@@@6B@ ; ScriptRegistrant<JFW_Message_Send_Death>::`vftable'
PUBLIC	?JFW_Message_Send_Death_Registrant@@3V?$ScriptRegistrant@VJFW_Message_Send_Death@@@@A ; JFW_Message_Send_Death_Registrant
PUBLIC	??_C@_0DH@MFEBCFAL@Message?3string?0Red?3int?0Blue?3int?0@ ; `string'
PUBLIC	??_C@_0BH@COGAMBAA@JFW_Message_Send_Death?$AA@	; `string'
PUBLIC	??_7?$ScriptRegistrant@VJFW_Message_Send_Death_Team@@@@6B@ ; ScriptRegistrant<JFW_Message_Send_Death_Team>::`vftable'
PUBLIC	?JFW_Message_Send_Death_Team_Registrant@@3V?$ScriptRegistrant@VJFW_Message_Send_Death_Team@@@@A ; JFW_Message_Send_Death_Team_Registrant
PUBLIC	??_C@_0EH@DBMENBIA@Player_Type?3int?0Message?3string?0R@ ; `string'
PUBLIC	??_C@_0BM@CINECLIK@JFW_Message_Send_Death_Team?$AA@ ; `string'
PUBLIC	??_7?$ScriptRegistrant@VJFW_Message_Send_Custom@@@@6B@ ; ScriptRegistrant<JFW_Message_Send_Custom>::`vftable'
PUBLIC	?JFW_Message_Send_Custom_Registrant@@3V?$ScriptRegistrant@VJFW_Message_Send_Custom@@@@A ; JFW_Message_Send_Custom_Registrant
PUBLIC	??_C@_0FG@PMIJJCNH@Display_Message?3string?0Red?3int?0B@ ; `string'
PUBLIC	??_C@_0BI@JGDJLFJ@JFW_Message_Send_Custom?$AA@	; `string'
PUBLIC	??_7?$ScriptRegistrant@VJFW_Message_Send_Powerup@@@@6B@ ; ScriptRegistrant<JFW_Message_Send_Powerup>::`vftable'
PUBLIC	?JFW_Message_Send_Powerup_Registrant@@3V?$ScriptRegistrant@VJFW_Message_Send_Powerup@@@@A ; JFW_Message_Send_Powerup_Registrant
PUBLIC	??_C@_0DP@CLDHJJEH@Display_Message?3string?0Red?3int?0B@ ; `string'
PUBLIC	??_C@_0BJ@HKEMIHNL@JFW_Message_Send_Powerup?$AA@ ; `string'
PUBLIC	??_7?$ScriptRegistrant@VJFW_Message_Send_Custom_Team@@@@6B@ ; ScriptRegistrant<JFW_Message_Send_Custom_Team>::`vftable'
PUBLIC	?JFW_Message_Send_Custom_Team_Registrant@@3V?$ScriptRegistrant@VJFW_Message_Send_Custom_Team@@@@A ; JFW_Message_Send_Custom_Team_Registrant
PUBLIC	??_C@_0GG@IKOGMHMK@Player_Type?3int?0Display_Message?3@ ; `string'
PUBLIC	??_C@_0BN@GBOEGFMK@JFW_Message_Send_Custom_Team?$AA@ ; `string'
PUBLIC	??_7?$ScriptRegistrant@VJFW_Spy_Switch_Team@@@@6B@ ; ScriptRegistrant<JFW_Spy_Switch_Team>::`vftable'
PUBLIC	?JFW_Spy_Switch_Team_Registrant@@3V?$ScriptRegistrant@VJFW_Spy_Switch_Team@@@@A ; JFW_Spy_Switch_Team_Registrant
PUBLIC	??_C@_0BE@GJABNFIK@JFW_Spy_Switch_Team?$AA@	; `string'
PUBLIC	??_7?$ScriptRegistrant@VJFW_Spy_Vehicle_Ignore@@@@6B@ ; ScriptRegistrant<JFW_Spy_Vehicle_Ignore>::`vftable'
PUBLIC	?JFW_Spy_Vehicle_Ignore_Registrant@@3V?$ScriptRegistrant@VJFW_Spy_Vehicle_Ignore@@@@A ; JFW_Spy_Vehicle_Ignore_Registrant
PUBLIC	??_C@_0BC@POLOLHEK@Spy_Script?3string?$AA@	; `string'
PUBLIC	??_C@_0BH@MGFABEOC@JFW_Spy_Vehicle_Ignore?$AA@	; `string'
PUBLIC	??_7?$ScriptRegistrant@VJFW_Spy_Vehicle_Ignore_New@@@@6B@ ; ScriptRegistrant<JFW_Spy_Vehicle_Ignore_New>::`vftable'
PUBLIC	?JFW_Spy_Vehicle_Ignore_New_Registrant@@3V?$ScriptRegistrant@VJFW_Spy_Vehicle_Ignore_New@@@@A ; JFW_Spy_Vehicle_Ignore_New_Registrant
PUBLIC	??_C@_0BL@EAAPCJCA@JFW_Spy_Vehicle_Ignore_New?$AA@ ; `string'
PUBLIC	??_7?$ScriptRegistrant@VJFW_Message_Send_Zone_Player_Vehicle@@@@6B@ ; ScriptRegistrant<JFW_Message_Send_Zone_Player_Vehicle>::`vftable'
PUBLIC	?JFW_Message_Send_Zone_Player_Vehicle_Registrant@@3V?$ScriptRegistrant@VJFW_Message_Send_Zone_Player_Vehicle@@@@A ; JFW_Message_Send_Zone_Player_Vehicle_Registrant
PUBLIC	??_C@_0CF@KEPOECKF@JFW_Message_Send_Zone_Player_Veh@ ; `string'
PUBLIC	??_7?$ScriptRegistrant@VJFW_Water_Level@@@@6B@	; ScriptRegistrant<JFW_Water_Level>::`vftable'
PUBLIC	?JFW_Water_Level_Registrant@@3V?$ScriptRegistrant@VJFW_Water_Level@@@@A ; JFW_Water_Level_Registrant
PUBLIC	??_7?$ScriptRegistrant@VJFW_Submarine@@@@6B@	; ScriptRegistrant<JFW_Submarine>::`vftable'
PUBLIC	?JFW_Submarine_Registrant@@3V?$ScriptRegistrant@VJFW_Submarine@@@@A ; JFW_Submarine_Registrant
PUBLIC	??_C@_0MH@FEPEDHL@Message?3int?0Submerge_Armor?3strin@ ; `string'
PUBLIC	??_C@_0O@MPOIOAGG@JFW_Submarine?$AA@		; `string'
PUBLIC	??_7?$ScriptRegistrant@VJFW_Reaper_Web@@@@6B@	; ScriptRegistrant<JFW_Reaper_Web>::`vftable'
PUBLIC	?JFW_Reaper_Web_Registrant@@3V?$ScriptRegistrant@VJFW_Reaper_Web@@@@A ; JFW_Reaper_Web_Registrant
PUBLIC	??_C@_0EA@MIGDEBGC@Warhead?3string?0Time?3float?0WebMod@ ; `string'
PUBLIC	??_C@_0P@JMMLLNKB@JFW_Reaper_Web?$AA@		; `string'
PUBLIC	??_7?$ScriptRegistrant@VJFW_Toxic_Grenade@@@@6B@ ; ScriptRegistrant<JFW_Toxic_Grenade>::`vftable'
PUBLIC	?JFW_Toxic_Grenade_Registrant@@3V?$ScriptRegistrant@VJFW_Toxic_Grenade@@@@A ; JFW_Toxic_Grenade_Registrant
PUBLIC	??_C@_0DF@JEFGDOPH@Weapon?3string?0Time?3float?0Warhead@ ; `string'
PUBLIC	??_C@_0BC@FOLFFENK@JFW_Toxic_Grenade?$AA@	; `string'
PUBLIC	??_7?$ScriptRegistrant@VJFW_Hijacker_Vehicle@@@@6B@ ; ScriptRegistrant<JFW_Hijacker_Vehicle>::`vftable'
PUBLIC	?JFW_Hijacker_Vehicle_Registrant@@3V?$ScriptRegistrant@VJFW_Hijacker_Vehicle@@@@A ; JFW_Hijacker_Vehicle_Registrant
PUBLIC	??_C@_0DH@FNGOIGDL@Weapon?3string?0Warhead?3string?0Dam@ ; `string'
PUBLIC	??_C@_0BF@PJOGACAA@JFW_Hijacker_Vehicle?$AA@	; `string'
PUBLIC	??_7?$ScriptRegistrant@VJFW_Hijacker_Vehicle_2@@@@6B@ ; ScriptRegistrant<JFW_Hijacker_Vehicle_2>::`vftable'
PUBLIC	?JFW_Hijacker_Vehicle_2_Registrant@@3V?$ScriptRegistrant@VJFW_Hijacker_Vehicle_2@@@@A ; JFW_Hijacker_Vehicle_2_Registrant
PUBLIC	??_C@_0GD@OLEEGBAH@Warhead?3string?0Sound?3string?0Disa@ ; `string'
PUBLIC	??_C@_0BH@GEJOKFDG@JFW_Hijacker_Vehicle_2?$AA@	; `string'
PUBLIC	??_7?$ScriptRegistrant@VJFW_Building_Preset_Disable@@@@6B@ ; ScriptRegistrant<JFW_Building_Preset_Disable>::`vftable'
PUBLIC	?JFW_Building_Preset_Disable_Registrant@@3V?$ScriptRegistrant@VJFW_Building_Preset_Disable@@@@A ; JFW_Building_Preset_Disable_Registrant
PUBLIC	??_C@_0CF@NFHEOENA@Disable_Custom?3int?0Enable_Custom@ ; `string'
PUBLIC	??_C@_0BM@LEMCMLMM@JFW_Building_Preset_Disable?$AA@ ; `string'
PUBLIC	??_C@_0EJ@ENMBJFB@SList?$DMstruct?5MultiKeyHookScriptI@ ; `string'
PUBLIC	??_C@_0DB@DFBFLIIO@x?3?2github?2renegade?2dragonade_rxd@ ; `string'
PUBLIC	??_C@_1GC@LJHGOLFN@?$AAx?$AA?3?$AA?2?$AAg?$AAi?$AAt?$AAh?$AAu?$AAb?$AA?2?$AAr?$AAe?$AAn?$AAe?$AAg?$AAa?$AAd?$AAe?$AA?2?$AAd?$AAr?$AAa?$AAg?$AAo?$AAn?$AAa?$AAd?$AAe?$AA_?$AAr?$AAx?$AAd@ ; `string'
PUBLIC	??_C@_0EJ@OIGECPDF@SList?$DMstruct?5MultiKeyHookScriptI@ ; `string'
PUBLIC	??_C@_0EM@PPENJFKC@SList?$DMstruct?5MultiKeyHookScriptI@ ; `string'
PUBLIC	??_C@_0EH@CGJBMJBC@SList?$DMstruct?5MultiKeyHookScriptI@ ; `string'
PUBLIC	??_C@_0EL@MPFHHNNA@SList?$DMstruct?5MultiKeyHookScriptI@ ; `string'
PUBLIC	??_C@_0EO@OJGPEJGC@SList?$DMstruct?5MultiKeyHookScriptI@ ; `string'
PUBLIC	??_C@_0EN@HIHNAGN@SList?$DMstruct?5MultiKeyHookScriptI@ ; `string'
PUBLIC	??_C@_0EC@LKKENNAP@ScriptRegistrant?$DMclass?5JFW_Domin@ ; `string'
PUBLIC	??_C@_0DD@KMKBFFOF@x?3?2github?2renegade?2dragonade_rxd@ ; `string'
PUBLIC	??_C@_1GG@OGNLNBPD@?$AAx?$AA?3?$AA?2?$AAg?$AAi?$AAt?$AAh?$AAu?$AAb?$AA?2?$AAr?$AAe?$AAn?$AAe?$AAg?$AAa?$AAd?$AAe?$AA?2?$AAd?$AAr?$AAa?$AAg?$AAo?$AAn?$AAa?$AAd?$AAe?$AA_?$AAr?$AAx?$AAd@ ; `string'
PUBLIC	??_C@_0DG@DJKGOBCA@ScriptRegistrant?$DMclass?5JFW_Carry@ ; `string'
PUBLIC	??_C@_0CN@BDLGAMC@ScriptRegistrant?$DMclass?5JFW_Carry@ ; `string'
PUBLIC	??_C@_0DC@JDGGBEGH@ScriptRegistrant?$DMclass?5JFW_Carry@ ; `string'
PUBLIC	??_C@_0DB@KGHEBGCB@ScriptRegistrant?$DMclass?5JFW_Senso@ ; `string'
PUBLIC	??_C@_0DJ@KCKLJPHD@ScriptRegistrant?$DMclass?5JFW_Team_@ ; `string'
PUBLIC	??_C@_0DC@DOPOGBOJ@ScriptRegistrant?$DMclass?5JFW_Vehic@ ; `string'
PUBLIC	??_C@_0DE@KDBBOAID@ScriptRegistrant?$DMclass?5JFW_Vehic@ ; `string'
PUBLIC	??_C@_0CM@MGNJACLK@ScriptRegistrant?$DMclass?5JFW_Conya@ ; `string'
PUBLIC	??_C@_0DE@MMMBHDAD@ScriptRegistrant?$DMclass?5JFW_Flyin@ ; `string'
PUBLIC	??_C@_0DL@ENMOCPOC@ScriptRegistrant?$DMclass?5JFW_Flyin@ ; `string'
PUBLIC	??_C@_0DM@CJMMDNMK@ScriptRegistrant?$DMclass?5JFW_Flyin@ ; `string'
PUBLIC	??_C@_0DK@GIMFGBDK@ScriptRegistrant?$DMclass?5JFW_Flyin@ ; `string'
PUBLIC	??_C@_0DJ@LHANLAIH@ScriptRegistrant?$DMclass?5JFW_Flyin@ ; `string'
PUBLIC	??_C@_0DB@GBMMKIFP@ScriptRegistrant?$DMclass?5JFW_Drone@ ; `string'
PUBLIC	??_C@_0DO@EICBOGN@ScriptRegistrant?$DMclass?5JFW_Conya@ ; `string'
PUBLIC	??_C@_0DE@MJKKNKHL@ScriptRegistrant?$DMclass?5JFW_Domin@ ; `string'
PUBLIC	??_C@_0DJ@OODBAF@ScriptRegistrant?$DMclass?5JFW_Domin@ ; `string'
PUBLIC	??_C@_0DG@PPPNEDND@ScriptRegistrant?$DMclass?5JFW_Iron_@ ; `string'
PUBLIC	??_C@_0DK@NMPHHKH@ScriptRegistrant?$DMclass?5JFW_Chron@ ; `string'
PUBLIC	??_C@_0EC@FKBLAEMB@ScriptRegistrant?$DMclass?5JFW_Assau@ ; `string'
PUBLIC	??_C@_0DH@CMBMOAJG@ScriptRegistrant?$DMclass?5JFW_Resou@ ; `string'
PUBLIC	??_C@_0DJ@JBAJCEOO@ScriptRegistrant?$DMclass?5JFW_Resou@ ; `string'
PUBLIC	??_C@_0DJ@FAIHPLCO@ScriptRegistrant?$DMclass?5JFW_Resou@ ; `string'
PUBLIC	??_C@_0DG@PBMGJPKK@ScriptRegistrant?$DMclass?5JFW_Resou@ ; `string'
PUBLIC	??_C@_0DD@PLDGKMEJ@ScriptRegistrant?$DMclass?5JFW_Resou@ ; `string'
PUBLIC	??_C@_0DH@FLPHPDDH@ScriptRegistrant?$DMclass?5JFW_Team_@ ; `string'
PUBLIC	??_C@_0DB@MGNGHIIL@ScriptRegistrant?$DMclass?5JFW_Team_@ ; `string'
PUBLIC	??_C@_0DG@OFPNJAMH@ScriptRegistrant?$DMclass?5JFW_Team_@ ; `string'
PUBLIC	??_C@_0DD@GLNKCIKJ@ScriptRegistrant?$DMclass?5JFW_Conya@ ; `string'
PUBLIC	??_C@_0DL@HNIJEGIB@ScriptRegistrant?$DMclass?5JFW_Chron@ ; `string'
PUBLIC	??_C@_0DO@OCIGDHKE@ScriptRegistrant?$DMclass?5JFW_Chron@ ; `string'
PUBLIC	??_C@_0DK@MFKLFLED@ScriptRegistrant?$DMclass?5JFW_Chron@ ; `string'
PUBLIC	??_C@_0EA@ILNCIJNB@ScriptRegistrant?$DMclass?5JFW_Chron@ ; `string'
PUBLIC	??_C@_0DE@JFAILCDI@ScriptRegistrant?$DMclass?5JFW_Conya@ ; `string'
PUBLIC	??_C@_0DB@OFJOHDNM@ScriptRegistrant?$DMclass?5JFW_Radar@ ; `string'
PUBLIC	??_C@_0DH@DOIPHEJD@ScriptRegistrant?$DMclass?5JFW_Radar@ ; `string'
PUBLIC	??_C@_0DA@JCMEEIEC@ScriptRegistrant?$DMclass?5JFW_Sonar@ ; `string'
PUBLIC	??_C@_0DO@GCJPIMDB@ScriptRegistrant?$DMclass?5JFW_Globa@ ; `string'
PUBLIC	??_C@_0DP@ELDGLEOL@ScriptRegistrant?$DMclass?5JFW_Steal@ ; `string'
PUBLIC	??_C@_0DO@MMMCNJGH@ScriptRegistrant?$DMclass?5JFW_Steal@ ; `string'
PUBLIC	??_C@_0EF@PIMBIPFD@ScriptRegistrant?$DMclass?5JFW_Steal@ ; `string'
PUBLIC	??_C@_0DO@HFDPFDOG@ScriptRegistrant?$DMclass?5JFW_Steal@ ; `string'
PUBLIC	??_C@_0DG@HBFEDAJK@ScriptRegistrant?$DMclass?5JFW_Low_P@ ; `string'
PUBLIC	??_C@_0DE@IMBICABB@ScriptRegistrant?$DMclass?5JFW_Low_P@ ; `string'
PUBLIC	??_C@_0DG@EIGJFMCO@ScriptRegistrant?$DMclass?5JFW_Messa@ ; `string'
PUBLIC	??_C@_0DL@CFKICCMD@ScriptRegistrant?$DMclass?5JFW_Messa@ ; `string'
PUBLIC	??_C@_0DN@NNAEHHPJ@ScriptRegistrant?$DMclass?5JFW_Messa@ ; `string'
PUBLIC	??_C@_0DH@LKGELLDP@ScriptRegistrant?$DMclass?5JFW_Messa@ ; `string'
PUBLIC	??_C@_0DM@BNNCPFBM@ScriptRegistrant?$DMclass?5JFW_Messa@ ; `string'
PUBLIC	??_C@_0DI@CAEFGFBL@ScriptRegistrant?$DMclass?5JFW_Messa@ ; `string'
PUBLIC	??_C@_0DJ@ONMAPMDI@ScriptRegistrant?$DMclass?5JFW_Messa@ ; `string'
PUBLIC	??_C@_0DN@FNDJPMDF@ScriptRegistrant?$DMclass?5JFW_Messa@ ; `string'
PUBLIC	??_C@_0DE@IHEHCLOC@ScriptRegistrant?$DMclass?5JFW_Spy_S@ ; `string'
PUBLIC	??_C@_0DH@LCCNFGJH@ScriptRegistrant?$DMclass?5JFW_Spy_V@ ; `string'
PUBLIC	??_C@_0DL@DLCMJOCN@ScriptRegistrant?$DMclass?5JFW_Spy_V@ ; `string'
PUBLIC	??_C@_0EF@OBJECAAO@ScriptRegistrant?$DMclass?5JFW_Messa@ ; `string'
PUBLIC	??_C@_0DA@INCPEMEE@ScriptRegistrant?$DMclass?5JFW_Water@ ; `string'
PUBLIC	??_C@_0CO@PHHDEMLG@ScriptRegistrant?$DMclass?5JFW_Subma@ ; `string'
PUBLIC	??_C@_0CP@PDMOIINJ@ScriptRegistrant?$DMclass?5JFW_Reape@ ; `string'
PUBLIC	??_C@_0DC@KHMMCFLD@ScriptRegistrant?$DMclass?5JFW_Toxic@ ; `string'
PUBLIC	??_C@_0DF@GEHOANDO@ScriptRegistrant?$DMclass?5JFW_Hijac@ ; `string'
PUBLIC	??_C@_0DH@CJGMMEKI@ScriptRegistrant?$DMclass?5JFW_Hijac@ ; `string'
PUBLIC	??_C@_0DM@FNCANFDM@ScriptRegistrant?$DMclass?5JFW_Build@ ; `string'
PUBLIC	?instancex@?1??getInstance@?$Singleton@V?$ObjectPoolClass@VGenericSLNode@@$0BAA@@@@@SAAAV?$ObjectPoolClass@VGenericSLNode@@$0BAA@@@XZ@4V3@A ; `Singleton<ObjectPoolClass<GenericSLNode,256> >::getInstance'::`2'::instancex
PUBLIC	??_B?1??getInstance@?$Singleton@V?$ObjectPoolClass@VGenericSLNode@@$0BAA@@@@@SAAAV?$ObjectPoolClass@VGenericSLNode@@$0BAA@@@XZ@51 ; `Singleton<ObjectPoolClass<GenericSLNode,256> >::getInstance'::`2'::`local static guard'
PUBLIC	??_C@_0EB@IOGKEECK@ObjectPoolClass?$DMclass?5GenericSLN@ ; `string'
PUBLIC	??_C@_0FF@NOANHENP@?$CFd?5memory?5leaks?5found?5in?5ObjectP@ ; `string'
PUBLIC	??_C@_0DL@BOENBDGI@ObjectPoolClass?$DMclass?5GenericSLN@ ; `string'
PUBLIC	??_R4ScriptFactory@@6B@				; ScriptFactory::`RTTI Complete Object Locator'
PUBLIC	??_R0?AVScriptFactory@@@8			; ScriptFactory `RTTI Type Descriptor'
PUBLIC	??_R3ScriptFactory@@8				; ScriptFactory::`RTTI Class Hierarchy Descriptor'
PUBLIC	??_R2ScriptFactory@@8				; ScriptFactory::`RTTI Base Class Array'
PUBLIC	??_R1A@?0A@EA@ScriptFactory@@8			; ScriptFactory::`RTTI Base Class Descriptor at (0,-1,0,64)'
PUBLIC	??_R4ScriptClass@@6B@				; ScriptClass::`RTTI Complete Object Locator'
PUBLIC	??_R0?AVScriptClass@@@8				; ScriptClass `RTTI Type Descriptor'
PUBLIC	??_R3ScriptClass@@8				; ScriptClass::`RTTI Class Hierarchy Descriptor'
PUBLIC	??_R2ScriptClass@@8				; ScriptClass::`RTTI Base Class Array'
PUBLIC	??_R1A@?0A@EA@ScriptClass@@8			; ScriptClass::`RTTI Base Class Descriptor at (0,-1,0,64)'
PUBLIC	??_R1A@?0A@EA@GameObjObserverClass@@8		; GameObjObserverClass::`RTTI Base Class Descriptor at (0,-1,0,64)'
PUBLIC	??_R0?AVGameObjObserverClass@@@8		; GameObjObserverClass `RTTI Type Descriptor'
PUBLIC	??_R3GameObjObserverClass@@8			; GameObjObserverClass::`RTTI Class Hierarchy Descriptor'
PUBLIC	??_R2GameObjObserverClass@@8			; GameObjObserverClass::`RTTI Base Class Array'
PUBLIC	??_R4GameObjObserverClass@@6B@			; GameObjObserverClass::`RTTI Complete Object Locator'
PUBLIC	??_R4ScriptImpClass@@6B@			; ScriptImpClass::`RTTI Complete Object Locator'
PUBLIC	??_R0?AVScriptImpClass@@@8			; ScriptImpClass `RTTI Type Descriptor'
PUBLIC	??_R3ScriptImpClass@@8				; ScriptImpClass::`RTTI Class Hierarchy Descriptor'
PUBLIC	??_R2ScriptImpClass@@8				; ScriptImpClass::`RTTI Base Class Array'
PUBLIC	??_R1A@?0A@EA@ScriptImpClass@@8			; ScriptImpClass::`RTTI Base Class Descriptor at (0,-1,0,64)'
PUBLIC	??_R4ThreadClass@@6B@				; ThreadClass::`RTTI Complete Object Locator'
PUBLIC	??_R0?AVThreadClass@@@8				; ThreadClass `RTTI Type Descriptor'
PUBLIC	??_R3ThreadClass@@8				; ThreadClass::`RTTI Class Hierarchy Descriptor'
PUBLIC	??_R2ThreadClass@@8				; ThreadClass::`RTTI Base Class Array'
PUBLIC	??_R1A@?0A@EA@ThreadClass@@8			; ThreadClass::`RTTI Base Class Descriptor at (0,-1,0,64)'
PUBLIC	??_R4INIClass@@6B@				; INIClass::`RTTI Complete Object Locator'
PUBLIC	??_R0?AVINIClass@@@8				; INIClass `RTTI Type Descriptor'
PUBLIC	??_R3INIClass@@8				; INIClass::`RTTI Class Hierarchy Descriptor'
PUBLIC	??_R2INIClass@@8				; INIClass::`RTTI Base Class Array'
PUBLIC	??_R1A@?0A@EA@INIClass@@8			; INIClass::`RTTI Base Class Descriptor at (0,-1,0,64)'
PUBLIC	??_R1A@?0A@EA@PostLoadableClass@@8		; PostLoadableClass::`RTTI Base Class Descriptor at (0,-1,0,64)'
PUBLIC	??_R0?AVPostLoadableClass@@@8			; PostLoadableClass `RTTI Type Descriptor'
PUBLIC	??_R3PostLoadableClass@@8			; PostLoadableClass::`RTTI Class Hierarchy Descriptor'
PUBLIC	??_R2PostLoadableClass@@8			; PostLoadableClass::`RTTI Base Class Array'
PUBLIC	??_R4PostLoadableClass@@6B@			; PostLoadableClass::`RTTI Complete Object Locator'
PUBLIC	??_R4ReferencerClass@@6B@			; ReferencerClass::`RTTI Complete Object Locator'
PUBLIC	??_R0?AVReferencerClass@@@8			; ReferencerClass `RTTI Type Descriptor'
PUBLIC	??_R3ReferencerClass@@8				; ReferencerClass::`RTTI Class Hierarchy Descriptor'
PUBLIC	??_R2ReferencerClass@@8				; ReferencerClass::`RTTI Base Class Array'
PUBLIC	??_R1A@?0A@EA@ReferencerClass@@8		; ReferencerClass::`RTTI Base Class Descriptor at (0,-1,0,64)'
PUBLIC	??_R4JFW_Key_Hook_Base@@6B@			; JFW_Key_Hook_Base::`RTTI Complete Object Locator'
PUBLIC	??_R0?AVJFW_Key_Hook_Base@@@8			; JFW_Key_Hook_Base `RTTI Type Descriptor'
PUBLIC	??_R3JFW_Key_Hook_Base@@8			; JFW_Key_Hook_Base::`RTTI Class Hierarchy Descriptor'
PUBLIC	??_R2JFW_Key_Hook_Base@@8			; JFW_Key_Hook_Base::`RTTI Base Class Array'
PUBLIC	??_R1A@?0A@EA@JFW_Key_Hook_Base@@8		; JFW_Key_Hook_Base::`RTTI Base Class Descriptor at (0,-1,0,64)'
PUBLIC	??_R4MultiKeyHookScriptImpClass@@6B@		; MultiKeyHookScriptImpClass::`RTTI Complete Object Locator'
PUBLIC	??_R0?AVMultiKeyHookScriptImpClass@@@8		; MultiKeyHookScriptImpClass `RTTI Type Descriptor'
PUBLIC	??_R3MultiKeyHookScriptImpClass@@8		; MultiKeyHookScriptImpClass::`RTTI Class Hierarchy Descriptor'
PUBLIC	??_R2MultiKeyHookScriptImpClass@@8		; MultiKeyHookScriptImpClass::`RTTI Base Class Array'
PUBLIC	??_R1A@?0A@EA@MultiKeyHookScriptImpClass@@8	; MultiKeyHookScriptImpClass::`RTTI Base Class Descriptor at (0,-1,0,64)'
PUBLIC	??_R4?$SList@UKeyHookWrapperStruct@MultiKeyHookScriptImpClass@@@@6B@ ; SList<MultiKeyHookScriptImpClass::KeyHookWrapperStruct>::`RTTI Complete Object Locator'
PUBLIC	??_R0?AV?$SList@UKeyHookWrapperStruct@MultiKeyHookScriptImpClass@@@@@8 ; SList<MultiKeyHookScriptImpClass::KeyHookWrapperStruct> `RTTI Type Descriptor'
PUBLIC	??_R3?$SList@UKeyHookWrapperStruct@MultiKeyHookScriptImpClass@@@@8 ; SList<MultiKeyHookScriptImpClass::KeyHookWrapperStruct>::`RTTI Class Hierarchy Descriptor'
PUBLIC	??_R2?$SList@UKeyHookWrapperStruct@MultiKeyHookScriptImpClass@@@@8 ; SList<MultiKeyHookScriptImpClass::KeyHookWrapperStruct>::`RTTI Base Class Array'
PUBLIC	??_R1A@?0A@EA@?$SList@UKeyHookWrapperStruct@MultiKeyHookScriptImpClass@@@@8 ; SList<MultiKeyHookScriptImpClass::KeyHookWrapperStruct>::`RTTI Base Class Descriptor at (0,-1,0,64)'
PUBLIC	??_R4JFW_Object_Created_Hook_Base@@6B@		; JFW_Object_Created_Hook_Base::`RTTI Complete Object Locator'
PUBLIC	??_R0?AVJFW_Object_Created_Hook_Base@@@8	; JFW_Object_Created_Hook_Base `RTTI Type Descriptor'
PUBLIC	??_R3JFW_Object_Created_Hook_Base@@8		; JFW_Object_Created_Hook_Base::`RTTI Class Hierarchy Descriptor'
PUBLIC	??_R2JFW_Object_Created_Hook_Base@@8		; JFW_Object_Created_Hook_Base::`RTTI Base Class Array'
PUBLIC	??_R1A@?0A@EA@JFW_Object_Created_Hook_Base@@8	; JFW_Object_Created_Hook_Base::`RTTI Base Class Descriptor at (0,-1,0,64)'
PUBLIC	??_R4JFW_Team_DM_Zone@@6B@			; JFW_Team_DM_Zone::`RTTI Complete Object Locator'
PUBLIC	??_R0?AVJFW_Team_DM_Zone@@@8			; JFW_Team_DM_Zone `RTTI Type Descriptor'
PUBLIC	??_R3JFW_Team_DM_Zone@@8			; JFW_Team_DM_Zone::`RTTI Class Hierarchy Descriptor'
PUBLIC	??_R2JFW_Team_DM_Zone@@8			; JFW_Team_DM_Zone::`RTTI Base Class Array'
PUBLIC	??_R1A@?0A@EA@JFW_Team_DM_Zone@@8		; JFW_Team_DM_Zone::`RTTI Base Class Descriptor at (0,-1,0,64)'
PUBLIC	??_R4JFW_Team_DM_Controller@@6B@		; JFW_Team_DM_Controller::`RTTI Complete Object Locator'
PUBLIC	??_R0?AVJFW_Team_DM_Controller@@@8		; JFW_Team_DM_Controller `RTTI Type Descriptor'
PUBLIC	??_R3JFW_Team_DM_Controller@@8			; JFW_Team_DM_Controller::`RTTI Class Hierarchy Descriptor'
PUBLIC	??_R2JFW_Team_DM_Controller@@8			; JFW_Team_DM_Controller::`RTTI Base Class Array'
PUBLIC	??_R1A@?0A@EA@JFW_Team_DM_Controller@@8		; JFW_Team_DM_Controller::`RTTI Base Class Descriptor at (0,-1,0,64)'
PUBLIC	??_R4JFW_Team_DM_Attatched@@6B@			; JFW_Team_DM_Attatched::`RTTI Complete Object Locator'
PUBLIC	??_R0?AVJFW_Team_DM_Attatched@@@8		; JFW_Team_DM_Attatched `RTTI Type Descriptor'
PUBLIC	??_R3JFW_Team_DM_Attatched@@8			; JFW_Team_DM_Attatched::`RTTI Class Hierarchy Descriptor'
PUBLIC	??_R2JFW_Team_DM_Attatched@@8			; JFW_Team_DM_Attatched::`RTTI Base Class Array'
PUBLIC	??_R1A@?0A@EA@JFW_Team_DM_Attatched@@8		; JFW_Team_DM_Attatched::`RTTI Base Class Descriptor at (0,-1,0,64)'
PUBLIC	??_R4JFW_Assault_Powerplant_Controller@@6B@	; JFW_Assault_Powerplant_Controller::`RTTI Complete Object Locator'
PUBLIC	??_R0?AVJFW_Assault_Powerplant_Controller@@@8	; JFW_Assault_Powerplant_Controller `RTTI Type Descriptor'
PUBLIC	??_R3JFW_Assault_Powerplant_Controller@@8	; JFW_Assault_Powerplant_Controller::`RTTI Class Hierarchy Descriptor'
PUBLIC	??_R2JFW_Assault_Powerplant_Controller@@8	; JFW_Assault_Powerplant_Controller::`RTTI Base Class Array'
PUBLIC	??_R1A@?0A@EA@JFW_Assault_Powerplant_Controller@@8 ; JFW_Assault_Powerplant_Controller::`RTTI Base Class Descriptor at (0,-1,0,64)'
PUBLIC	??_R4JFW_Resource_Collector@@6B@		; JFW_Resource_Collector::`RTTI Complete Object Locator'
PUBLIC	??_R0?AVJFW_Resource_Collector@@@8		; JFW_Resource_Collector `RTTI Type Descriptor'
PUBLIC	??_R3JFW_Resource_Collector@@8			; JFW_Resource_Collector::`RTTI Class Hierarchy Descriptor'
PUBLIC	??_R2JFW_Resource_Collector@@8			; JFW_Resource_Collector::`RTTI Base Class Array'
PUBLIC	??_R1A@?0A@EA@JFW_Resource_Collector@@8		; JFW_Resource_Collector::`RTTI Base Class Descriptor at (0,-1,0,64)'
PUBLIC	??_R4JFW_Resource_Refinery@@6B@			; JFW_Resource_Refinery::`RTTI Complete Object Locator'
PUBLIC	??_R0?AVJFW_Resource_Refinery@@@8		; JFW_Resource_Refinery `RTTI Type Descriptor'
PUBLIC	??_R3JFW_Resource_Refinery@@8			; JFW_Resource_Refinery::`RTTI Class Hierarchy Descriptor'
PUBLIC	??_R2JFW_Resource_Refinery@@8			; JFW_Resource_Refinery::`RTTI Base Class Array'
PUBLIC	??_R1A@?0A@EA@JFW_Resource_Refinery@@8		; JFW_Resource_Refinery::`RTTI Base Class Descriptor at (0,-1,0,64)'
PUBLIC	??_R4JFW_Resource_Field@@6B@			; JFW_Resource_Field::`RTTI Complete Object Locator'
PUBLIC	??_R0?AVJFW_Resource_Field@@@8			; JFW_Resource_Field `RTTI Type Descriptor'
PUBLIC	??_R3JFW_Resource_Field@@8			; JFW_Resource_Field::`RTTI Class Hierarchy Descriptor'
PUBLIC	??_R2JFW_Resource_Field@@8			; JFW_Resource_Field::`RTTI Base Class Array'
PUBLIC	??_R1A@?0A@EA@JFW_Resource_Field@@8		; JFW_Resource_Field::`RTTI Base Class Descriptor at (0,-1,0,64)'
PUBLIC	??_R4JFW_Domination_Zone@@6B@			; JFW_Domination_Zone::`RTTI Complete Object Locator'
PUBLIC	??_R0?AVJFW_Domination_Zone@@@8			; JFW_Domination_Zone `RTTI Type Descriptor'
PUBLIC	??_R3JFW_Domination_Zone@@8			; JFW_Domination_Zone::`RTTI Class Hierarchy Descriptor'
PUBLIC	??_R2JFW_Domination_Zone@@8			; JFW_Domination_Zone::`RTTI Base Class Array'
PUBLIC	??_R1A@?0A@EA@JFW_Domination_Zone@@8		; JFW_Domination_Zone::`RTTI Base Class Descriptor at (0,-1,0,64)'
PUBLIC	??_R4JFW_Domination_Controler@@6B@		; JFW_Domination_Controler::`RTTI Complete Object Locator'
PUBLIC	??_R0?AVJFW_Domination_Controler@@@8		; JFW_Domination_Controler `RTTI Type Descriptor'
PUBLIC	??_R3JFW_Domination_Controler@@8		; JFW_Domination_Controler::`RTTI Class Hierarchy Descriptor'
PUBLIC	??_R2JFW_Domination_Controler@@8		; JFW_Domination_Controler::`RTTI Base Class Array'
PUBLIC	??_R1A@?0A@EA@JFW_Domination_Controler@@8	; JFW_Domination_Controler::`RTTI Base Class Descriptor at (0,-1,0,64)'
PUBLIC	??_R4JFW_Iron_Curtain_Zone@@6B@			; JFW_Iron_Curtain_Zone::`RTTI Complete Object Locator'
PUBLIC	??_R0?AVJFW_Iron_Curtain_Zone@@@8		; JFW_Iron_Curtain_Zone `RTTI Type Descriptor'
PUBLIC	??_R3JFW_Iron_Curtain_Zone@@8			; JFW_Iron_Curtain_Zone::`RTTI Class Hierarchy Descriptor'
PUBLIC	??_R2JFW_Iron_Curtain_Zone@@8			; JFW_Iron_Curtain_Zone::`RTTI Base Class Array'
PUBLIC	??_R1A@?0A@EA@JFW_Iron_Curtain_Zone@@8		; JFW_Iron_Curtain_Zone::`RTTI Base Class Descriptor at (0,-1,0,64)'
PUBLIC	??_R4JFW_Chrono_Controler_Zone@@6B@		; JFW_Chrono_Controler_Zone::`RTTI Complete Object Locator'
PUBLIC	??_R0?AVJFW_Chrono_Controler_Zone@@@8		; JFW_Chrono_Controler_Zone `RTTI Type Descriptor'
PUBLIC	??_R3JFW_Chrono_Controler_Zone@@8		; JFW_Chrono_Controler_Zone::`RTTI Class Hierarchy Descriptor'
PUBLIC	??_R2JFW_Chrono_Controler_Zone@@8		; JFW_Chrono_Controler_Zone::`RTTI Base Class Array'
PUBLIC	??_R1A@?0A@EA@JFW_Chrono_Controler_Zone@@8	; JFW_Chrono_Controler_Zone::`RTTI Base Class Descriptor at (0,-1,0,64)'
PUBLIC	??_R4JFW_Drone_Damage@@6B@			; JFW_Drone_Damage::`RTTI Complete Object Locator'
PUBLIC	??_R0?AVJFW_Drone_Damage@@@8			; JFW_Drone_Damage `RTTI Type Descriptor'
PUBLIC	??_R3JFW_Drone_Damage@@8			; JFW_Drone_Damage::`RTTI Class Hierarchy Descriptor'
PUBLIC	??_R2JFW_Drone_Damage@@8			; JFW_Drone_Damage::`RTTI Base Class Array'
PUBLIC	??_R1A@?0A@EA@JFW_Drone_Damage@@8		; JFW_Drone_Damage::`RTTI Base Class Descriptor at (0,-1,0,64)'
PUBLIC	??_R4JFW_Conyard@@6B@				; JFW_Conyard::`RTTI Complete Object Locator'
PUBLIC	??_R0?AVJFW_Conyard@@@8				; JFW_Conyard `RTTI Type Descriptor'
PUBLIC	??_R3JFW_Conyard@@8				; JFW_Conyard::`RTTI Class Hierarchy Descriptor'
PUBLIC	??_R2JFW_Conyard@@8				; JFW_Conyard::`RTTI Base Class Array'
PUBLIC	??_R1A@?0A@EA@JFW_Conyard@@8			; JFW_Conyard::`RTTI Base Class Descriptor at (0,-1,0,64)'
PUBLIC	??_R4JFW_Conyard_Vehicle_Buildings@@6B@		; JFW_Conyard_Vehicle_Buildings::`RTTI Complete Object Locator'
PUBLIC	??_R0?AVJFW_Conyard_Vehicle_Buildings@@@8	; JFW_Conyard_Vehicle_Buildings `RTTI Type Descriptor'
PUBLIC	??_R3JFW_Conyard_Vehicle_Buildings@@8		; JFW_Conyard_Vehicle_Buildings::`RTTI Class Hierarchy Descriptor'
PUBLIC	??_R2JFW_Conyard_Vehicle_Buildings@@8		; JFW_Conyard_Vehicle_Buildings::`RTTI Base Class Array'
PUBLIC	??_R1A@?0A@EA@JFW_Conyard_Vehicle_Buildings@@8	; JFW_Conyard_Vehicle_Buildings::`RTTI Base Class Descriptor at (0,-1,0,64)'
PUBLIC	??_R4JFW_Flying_Infantry@@6B@			; JFW_Flying_Infantry::`RTTI Complete Object Locator'
PUBLIC	??_R0?AVJFW_Flying_Infantry@@@8			; JFW_Flying_Infantry `RTTI Type Descriptor'
PUBLIC	??_R3JFW_Flying_Infantry@@8			; JFW_Flying_Infantry::`RTTI Class Hierarchy Descriptor'
PUBLIC	??_R2JFW_Flying_Infantry@@8			; JFW_Flying_Infantry::`RTTI Base Class Array'
PUBLIC	??_R1A@?0A@EA@JFW_Flying_Infantry@@8		; JFW_Flying_Infantry::`RTTI Base Class Descriptor at (0,-1,0,64)'
PUBLIC	??_R4JFW_Flying_Infantry_Custom@@6B@		; JFW_Flying_Infantry_Custom::`RTTI Complete Object Locator'
PUBLIC	??_R0?AVJFW_Flying_Infantry_Custom@@@8		; JFW_Flying_Infantry_Custom `RTTI Type Descriptor'
PUBLIC	??_R3JFW_Flying_Infantry_Custom@@8		; JFW_Flying_Infantry_Custom::`RTTI Class Hierarchy Descriptor'
PUBLIC	??_R2JFW_Flying_Infantry_Custom@@8		; JFW_Flying_Infantry_Custom::`RTTI Base Class Array'
PUBLIC	??_R1A@?0A@EA@JFW_Flying_Infantry_Custom@@8	; JFW_Flying_Infantry_Custom::`RTTI Base Class Descriptor at (0,-1,0,64)'
PUBLIC	??_R4JFW_Flying_Infantry_Powerup@@6B@		; JFW_Flying_Infantry_Powerup::`RTTI Complete Object Locator'
PUBLIC	??_R0?AVJFW_Flying_Infantry_Powerup@@@8		; JFW_Flying_Infantry_Powerup `RTTI Type Descriptor'
PUBLIC	??_R3JFW_Flying_Infantry_Powerup@@8		; JFW_Flying_Infantry_Powerup::`RTTI Class Hierarchy Descriptor'
PUBLIC	??_R2JFW_Flying_Infantry_Powerup@@8		; JFW_Flying_Infantry_Powerup::`RTTI Base Class Array'
PUBLIC	??_R1A@?0A@EA@JFW_Flying_Infantry_Powerup@@8	; JFW_Flying_Infantry_Powerup::`RTTI Base Class Descriptor at (0,-1,0,64)'
PUBLIC	??_R4JFW_Flying_Infantry_Enter@@6B@		; JFW_Flying_Infantry_Enter::`RTTI Complete Object Locator'
PUBLIC	??_R0?AVJFW_Flying_Infantry_Enter@@@8		; JFW_Flying_Infantry_Enter `RTTI Type Descriptor'
PUBLIC	??_R3JFW_Flying_Infantry_Enter@@8		; JFW_Flying_Infantry_Enter::`RTTI Class Hierarchy Descriptor'
PUBLIC	??_R2JFW_Flying_Infantry_Enter@@8		; JFW_Flying_Infantry_Enter::`RTTI Base Class Array'
PUBLIC	??_R1A@?0A@EA@JFW_Flying_Infantry_Enter@@8	; JFW_Flying_Infantry_Enter::`RTTI Base Class Descriptor at (0,-1,0,64)'
PUBLIC	??_R4JFW_Flying_Infantry_Exit@@6B@		; JFW_Flying_Infantry_Exit::`RTTI Complete Object Locator'
PUBLIC	??_R0?AVJFW_Flying_Infantry_Exit@@@8		; JFW_Flying_Infantry_Exit `RTTI Type Descriptor'
PUBLIC	??_R3JFW_Flying_Infantry_Exit@@8		; JFW_Flying_Infantry_Exit::`RTTI Class Hierarchy Descriptor'
PUBLIC	??_R2JFW_Flying_Infantry_Exit@@8		; JFW_Flying_Infantry_Exit::`RTTI Base Class Array'
PUBLIC	??_R1A@?0A@EA@JFW_Flying_Infantry_Exit@@8	; JFW_Flying_Infantry_Exit::`RTTI Base Class Descriptor at (0,-1,0,64)'
PUBLIC	??_R4JFW_Team_DM_Controller_2@@6B@		; JFW_Team_DM_Controller_2::`RTTI Complete Object Locator'
PUBLIC	??_R0?AVJFW_Team_DM_Controller_2@@@8		; JFW_Team_DM_Controller_2 `RTTI Type Descriptor'
PUBLIC	??_R3JFW_Team_DM_Controller_2@@8		; JFW_Team_DM_Controller_2::`RTTI Class Hierarchy Descriptor'
PUBLIC	??_R2JFW_Team_DM_Controller_2@@8		; JFW_Team_DM_Controller_2::`RTTI Base Class Array'
PUBLIC	??_R1A@?0A@EA@JFW_Team_DM_Controller_2@@8	; JFW_Team_DM_Controller_2::`RTTI Base Class Descriptor at (0,-1,0,64)'
PUBLIC	??_R4JFW_Vehicle_Thief@@6B@			; JFW_Vehicle_Thief::`RTTI Complete Object Locator'
PUBLIC	??_R0?AVJFW_Vehicle_Thief@@@8			; JFW_Vehicle_Thief `RTTI Type Descriptor'
PUBLIC	??_R3JFW_Vehicle_Thief@@8			; JFW_Vehicle_Thief::`RTTI Class Hierarchy Descriptor'
PUBLIC	??_R2JFW_Vehicle_Thief@@8			; JFW_Vehicle_Thief::`RTTI Base Class Array'
PUBLIC	??_R1A@?0A@EA@JFW_Vehicle_Thief@@8		; JFW_Vehicle_Thief::`RTTI Base Class Descriptor at (0,-1,0,64)'
PUBLIC	??_R4JFW_Vehicle_Thief_2@@6B@			; JFW_Vehicle_Thief_2::`RTTI Complete Object Locator'
PUBLIC	??_R0?AVJFW_Vehicle_Thief_2@@@8			; JFW_Vehicle_Thief_2 `RTTI Type Descriptor'
PUBLIC	??_R3JFW_Vehicle_Thief_2@@8			; JFW_Vehicle_Thief_2::`RTTI Class Hierarchy Descriptor'
PUBLIC	??_R2JFW_Vehicle_Thief_2@@8			; JFW_Vehicle_Thief_2::`RTTI Base Class Array'
PUBLIC	??_R1A@?0A@EA@JFW_Vehicle_Thief_2@@8		; JFW_Vehicle_Thief_2::`RTTI Base Class Descriptor at (0,-1,0,64)'
PUBLIC	??_R4JFW_Domination_Controler_End_Game@@6B@	; JFW_Domination_Controler_End_Game::`RTTI Complete Object Locator'
PUBLIC	??_R0?AVJFW_Domination_Controler_End_Game@@@8	; JFW_Domination_Controler_End_Game `RTTI Type Descriptor'
PUBLIC	??_R3JFW_Domination_Controler_End_Game@@8	; JFW_Domination_Controler_End_Game::`RTTI Class Hierarchy Descriptor'
PUBLIC	??_R2JFW_Domination_Controler_End_Game@@8	; JFW_Domination_Controler_End_Game::`RTTI Base Class Array'
PUBLIC	??_R1A@?0A@EA@JFW_Domination_Controler_End_Game@@8 ; JFW_Domination_Controler_End_Game::`RTTI Base Class Descriptor at (0,-1,0,64)'
PUBLIC	??_R4JFW_Carryable_Vehicle@@6B@			; JFW_Carryable_Vehicle::`RTTI Complete Object Locator'
PUBLIC	??_R0?AVJFW_Carryable_Vehicle@@@8		; JFW_Carryable_Vehicle `RTTI Type Descriptor'
PUBLIC	??_R3JFW_Carryable_Vehicle@@8			; JFW_Carryable_Vehicle::`RTTI Class Hierarchy Descriptor'
PUBLIC	??_R2JFW_Carryable_Vehicle@@8			; JFW_Carryable_Vehicle::`RTTI Base Class Array'
PUBLIC	??_R1A@?0A@EA@JFW_Carryable_Vehicle@@8		; JFW_Carryable_Vehicle::`RTTI Base Class Descriptor at (0,-1,0,64)'
PUBLIC	??_R4JFW_Carry_Control@@6B@			; JFW_Carry_Control::`RTTI Complete Object Locator'
PUBLIC	??_R0?AVJFW_Carry_Control@@@8			; JFW_Carry_Control `RTTI Type Descriptor'
PUBLIC	??_R3JFW_Carry_Control@@8			; JFW_Carry_Control::`RTTI Class Hierarchy Descriptor'
PUBLIC	??_R2JFW_Carry_Control@@8			; JFW_Carry_Control::`RTTI Base Class Array'
PUBLIC	??_R1A@?0A@EA@JFW_Carry_Control@@8		; JFW_Carry_Control::`RTTI Base Class Descriptor at (0,-1,0,64)'
PUBLIC	??_R4JFW_CarryAll@@6B@				; JFW_CarryAll::`RTTI Complete Object Locator'
PUBLIC	??_R0?AVJFW_CarryAll@@@8			; JFW_CarryAll `RTTI Type Descriptor'
PUBLIC	??_R3JFW_CarryAll@@8				; JFW_CarryAll::`RTTI Class Hierarchy Descriptor'
PUBLIC	??_R2JFW_CarryAll@@8				; JFW_CarryAll::`RTTI Base Class Array'
PUBLIC	??_R1A@?0A@EA@JFW_CarryAll@@8			; JFW_CarryAll::`RTTI Base Class Descriptor at (0,-1,0,64)'
PUBLIC	??_R4JFW_Sensor_Array@@6B@			; JFW_Sensor_Array::`RTTI Complete Object Locator'
PUBLIC	??_R0?AVJFW_Sensor_Array@@@8			; JFW_Sensor_Array `RTTI Type Descriptor'
PUBLIC	??_R3JFW_Sensor_Array@@8			; JFW_Sensor_Array::`RTTI Class Hierarchy Descriptor'
PUBLIC	??_R2JFW_Sensor_Array@@8			; JFW_Sensor_Array::`RTTI Base Class Array'
PUBLIC	??_R1A@?0A@EA@JFW_Sensor_Array@@8		; JFW_Sensor_Array::`RTTI Base Class Descriptor at (0,-1,0,64)'
PUBLIC	??_R4JFW_Conyard_Radius@@6B@			; JFW_Conyard_Radius::`RTTI Complete Object Locator'
PUBLIC	??_R0?AVJFW_Conyard_Radius@@@8			; JFW_Conyard_Radius `RTTI Type Descriptor'
PUBLIC	??_R3JFW_Conyard_Radius@@8			; JFW_Conyard_Radius::`RTTI Class Hierarchy Descriptor'
PUBLIC	??_R2JFW_Conyard_Radius@@8			; JFW_Conyard_Radius::`RTTI Base Class Array'
PUBLIC	??_R1A@?0A@EA@JFW_Conyard_Radius@@8		; JFW_Conyard_Radius::`RTTI Base Class Descriptor at (0,-1,0,64)'
PUBLIC	??_R4JFW_Chrono_Harvester_Logic@@6B@		; JFW_Chrono_Harvester_Logic::`RTTI Complete Object Locator'
PUBLIC	??_R0?AVJFW_Chrono_Harvester_Logic@@@8		; JFW_Chrono_Harvester_Logic `RTTI Type Descriptor'
PUBLIC	??_R3JFW_Chrono_Harvester_Logic@@8		; JFW_Chrono_Harvester_Logic::`RTTI Class Hierarchy Descriptor'
PUBLIC	??_R2JFW_Chrono_Harvester_Logic@@8		; JFW_Chrono_Harvester_Logic::`RTTI Base Class Array'
PUBLIC	??_R1A@?0A@EA@JFW_Chrono_Harvester_Logic@@8	; JFW_Chrono_Harvester_Logic::`RTTI Base Class Descriptor at (0,-1,0,64)'
PUBLIC	??_R4JFW_Chrono_Harvester_Kill@@6B@		; JFW_Chrono_Harvester_Kill::`RTTI Complete Object Locator'
PUBLIC	??_R0?AVJFW_Chrono_Harvester_Kill@@@8		; JFW_Chrono_Harvester_Kill `RTTI Type Descriptor'
PUBLIC	??_R3JFW_Chrono_Harvester_Kill@@8		; JFW_Chrono_Harvester_Kill::`RTTI Class Hierarchy Descriptor'
PUBLIC	??_R2JFW_Chrono_Harvester_Kill@@8		; JFW_Chrono_Harvester_Kill::`RTTI Base Class Array'
PUBLIC	??_R1A@?0A@EA@JFW_Chrono_Harvester_Kill@@8	; JFW_Chrono_Harvester_Kill::`RTTI Base Class Descriptor at (0,-1,0,64)'
PUBLIC	??_R4JFW_Chrono_Harvester_Spawn_Kill@@6B@	; JFW_Chrono_Harvester_Spawn_Kill::`RTTI Complete Object Locator'
PUBLIC	??_R0?AVJFW_Chrono_Harvester_Spawn_Kill@@@8	; JFW_Chrono_Harvester_Spawn_Kill `RTTI Type Descriptor'
PUBLIC	??_R3JFW_Chrono_Harvester_Spawn_Kill@@8		; JFW_Chrono_Harvester_Spawn_Kill::`RTTI Class Hierarchy Descriptor'
PUBLIC	??_R2JFW_Chrono_Harvester_Spawn_Kill@@8		; JFW_Chrono_Harvester_Spawn_Kill::`RTTI Base Class Array'
PUBLIC	??_R1A@?0A@EA@JFW_Chrono_Harvester_Spawn_Kill@@8 ; JFW_Chrono_Harvester_Spawn_Kill::`RTTI Base Class Descriptor at (0,-1,0,64)'
PUBLIC	??_R4JFW_Chrono_Harvester_Attached@@6B@		; JFW_Chrono_Harvester_Attached::`RTTI Complete Object Locator'
PUBLIC	??_R0?AVJFW_Chrono_Harvester_Attached@@@8	; JFW_Chrono_Harvester_Attached `RTTI Type Descriptor'
PUBLIC	??_R3JFW_Chrono_Harvester_Attached@@8		; JFW_Chrono_Harvester_Attached::`RTTI Class Hierarchy Descriptor'
PUBLIC	??_R2JFW_Chrono_Harvester_Attached@@8		; JFW_Chrono_Harvester_Attached::`RTTI Base Class Array'
PUBLIC	??_R1A@?0A@EA@JFW_Chrono_Harvester_Attached@@8	; JFW_Chrono_Harvester_Attached::`RTTI Base Class Descriptor at (0,-1,0,64)'
PUBLIC	??_R4JFW_Conyard_Turrets@@6B@			; JFW_Conyard_Turrets::`RTTI Complete Object Locator'
PUBLIC	??_R0?AVJFW_Conyard_Turrets@@@8			; JFW_Conyard_Turrets `RTTI Type Descriptor'
PUBLIC	??_R3JFW_Conyard_Turrets@@8			; JFW_Conyard_Turrets::`RTTI Class Hierarchy Descriptor'
PUBLIC	??_R2JFW_Conyard_Turrets@@8			; JFW_Conyard_Turrets::`RTTI Base Class Array'
PUBLIC	??_R1A@?0A@EA@JFW_Conyard_Turrets@@8		; JFW_Conyard_Turrets::`RTTI Base Class Descriptor at (0,-1,0,64)'
PUBLIC	??_R4JFW_Radar_Jammer@@6B@			; JFW_Radar_Jammer::`RTTI Complete Object Locator'
PUBLIC	??_R0?AVJFW_Radar_Jammer@@@8			; JFW_Radar_Jammer `RTTI Type Descriptor'
PUBLIC	??_R3JFW_Radar_Jammer@@8			; JFW_Radar_Jammer::`RTTI Class Hierarchy Descriptor'
PUBLIC	??_R2JFW_Radar_Jammer@@8			; JFW_Radar_Jammer::`RTTI Base Class Array'
PUBLIC	??_R1A@?0A@EA@JFW_Radar_Jammer@@8		; JFW_Radar_Jammer::`RTTI Base Class Descriptor at (0,-1,0,64)'
PUBLIC	??_R4JFW_Radar_Jammer_Sound@@6B@		; JFW_Radar_Jammer_Sound::`RTTI Complete Object Locator'
PUBLIC	??_R0?AVJFW_Radar_Jammer_Sound@@@8		; JFW_Radar_Jammer_Sound `RTTI Type Descriptor'
PUBLIC	??_R3JFW_Radar_Jammer_Sound@@8			; JFW_Radar_Jammer_Sound::`RTTI Class Hierarchy Descriptor'
PUBLIC	??_R2JFW_Radar_Jammer_Sound@@8			; JFW_Radar_Jammer_Sound::`RTTI Base Class Array'
PUBLIC	??_R1A@?0A@EA@JFW_Radar_Jammer_Sound@@8		; JFW_Radar_Jammer_Sound::`RTTI Base Class Descriptor at (0,-1,0,64)'
PUBLIC	??_R4JFW_Sonar_Pulse@@6B@			; JFW_Sonar_Pulse::`RTTI Complete Object Locator'
PUBLIC	??_R0?AVJFW_Sonar_Pulse@@@8			; JFW_Sonar_Pulse `RTTI Type Descriptor'
PUBLIC	??_R3JFW_Sonar_Pulse@@8				; JFW_Sonar_Pulse::`RTTI Class Hierarchy Descriptor'
PUBLIC	??_R2JFW_Sonar_Pulse@@8				; JFW_Sonar_Pulse::`RTTI Base Class Array'
PUBLIC	??_R1A@?0A@EA@JFW_Sonar_Pulse@@8		; JFW_Sonar_Pulse::`RTTI Base Class Descriptor at (0,-1,0,64)'
PUBLIC	??_R4JFW_Global_Stealth_Controller@@6B@		; JFW_Global_Stealth_Controller::`RTTI Complete Object Locator'
PUBLIC	??_R0?AVJFW_Global_Stealth_Controller@@@8	; JFW_Global_Stealth_Controller `RTTI Type Descriptor'
PUBLIC	??_R3JFW_Global_Stealth_Controller@@8		; JFW_Global_Stealth_Controller::`RTTI Class Hierarchy Descriptor'
PUBLIC	??_R2JFW_Global_Stealth_Controller@@8		; JFW_Global_Stealth_Controller::`RTTI Base Class Array'
PUBLIC	??_R1A@?0A@EA@JFW_Global_Stealth_Controller@@8	; JFW_Global_Stealth_Controller::`RTTI Base Class Descriptor at (0,-1,0,64)'
PUBLIC	??_R4JFW_Stealth_Generator_Building@@6B@	; JFW_Stealth_Generator_Building::`RTTI Complete Object Locator'
PUBLIC	??_R0?AVJFW_Stealth_Generator_Building@@@8	; JFW_Stealth_Generator_Building `RTTI Type Descriptor'
PUBLIC	??_R3JFW_Stealth_Generator_Building@@8		; JFW_Stealth_Generator_Building::`RTTI Class Hierarchy Descriptor'
PUBLIC	??_R2JFW_Stealth_Generator_Building@@8		; JFW_Stealth_Generator_Building::`RTTI Base Class Array'
PUBLIC	??_R1A@?0A@EA@JFW_Stealth_Generator_Building@@8	; JFW_Stealth_Generator_Building::`RTTI Base Class Descriptor at (0,-1,0,64)'
PUBLIC	??_R4JFW_Stealth_Generator_Vehicle@@6B@		; JFW_Stealth_Generator_Vehicle::`RTTI Complete Object Locator'
PUBLIC	??_R0?AVJFW_Stealth_Generator_Vehicle@@@8	; JFW_Stealth_Generator_Vehicle `RTTI Type Descriptor'
PUBLIC	??_R3JFW_Stealth_Generator_Vehicle@@8		; JFW_Stealth_Generator_Vehicle::`RTTI Class Hierarchy Descriptor'
PUBLIC	??_R2JFW_Stealth_Generator_Vehicle@@8		; JFW_Stealth_Generator_Vehicle::`RTTI Base Class Array'
PUBLIC	??_R1A@?0A@EA@JFW_Stealth_Generator_Vehicle@@8	; JFW_Stealth_Generator_Vehicle::`RTTI Base Class Descriptor at (0,-1,0,64)'
PUBLIC	??_R4JFW_Stealth_Generator_Vehicle_Deploy@@6B@	; JFW_Stealth_Generator_Vehicle_Deploy::`RTTI Complete Object Locator'
PUBLIC	??_R0?AVJFW_Stealth_Generator_Vehicle_Deploy@@@8 ; JFW_Stealth_Generator_Vehicle_Deploy `RTTI Type Descriptor'
PUBLIC	??_R3JFW_Stealth_Generator_Vehicle_Deploy@@8	; JFW_Stealth_Generator_Vehicle_Deploy::`RTTI Class Hierarchy Descriptor'
PUBLIC	??_R2JFW_Stealth_Generator_Vehicle_Deploy@@8	; JFW_Stealth_Generator_Vehicle_Deploy::`RTTI Base Class Array'
PUBLIC	??_R1A@?0A@EA@JFW_Stealth_Generator_Vehicle_Deploy@@8 ; JFW_Stealth_Generator_Vehicle_Deploy::`RTTI Base Class Descriptor at (0,-1,0,64)'
PUBLIC	??_R4JFW_Stealth_Generator_Ignored@@6B@		; JFW_Stealth_Generator_Ignored::`RTTI Complete Object Locator'
PUBLIC	??_R0?AVJFW_Stealth_Generator_Ignored@@@8	; JFW_Stealth_Generator_Ignored `RTTI Type Descriptor'
PUBLIC	??_R3JFW_Stealth_Generator_Ignored@@8		; JFW_Stealth_Generator_Ignored::`RTTI Class Hierarchy Descriptor'
PUBLIC	??_R2JFW_Stealth_Generator_Ignored@@8		; JFW_Stealth_Generator_Ignored::`RTTI Base Class Array'
PUBLIC	??_R1A@?0A@EA@JFW_Stealth_Generator_Ignored@@8	; JFW_Stealth_Generator_Ignored::`RTTI Base Class Descriptor at (0,-1,0,64)'
PUBLIC	??_R4JFW_Resource_Collector_2@@6B@		; JFW_Resource_Collector_2::`RTTI Complete Object Locator'
PUBLIC	??_R0?AVJFW_Resource_Collector_2@@@8		; JFW_Resource_Collector_2 `RTTI Type Descriptor'
PUBLIC	??_R3JFW_Resource_Collector_2@@8		; JFW_Resource_Collector_2::`RTTI Class Hierarchy Descriptor'
PUBLIC	??_R2JFW_Resource_Collector_2@@8		; JFW_Resource_Collector_2::`RTTI Base Class Array'
PUBLIC	??_R1A@?0A@EA@JFW_Resource_Collector_2@@8	; JFW_Resource_Collector_2::`RTTI Base Class Descriptor at (0,-1,0,64)'
PUBLIC	??_R4JFW_Resource_Collector_3@@6B@		; JFW_Resource_Collector_3::`RTTI Complete Object Locator'
PUBLIC	??_R0?AVJFW_Resource_Collector_3@@@8		; JFW_Resource_Collector_3 `RTTI Type Descriptor'
PUBLIC	??_R3JFW_Resource_Collector_3@@8		; JFW_Resource_Collector_3::`RTTI Class Hierarchy Descriptor'
PUBLIC	??_R2JFW_Resource_Collector_3@@8		; JFW_Resource_Collector_3::`RTTI Base Class Array'
PUBLIC	??_R1A@?0A@EA@JFW_Resource_Collector_3@@8	; JFW_Resource_Collector_3::`RTTI Base Class Descriptor at (0,-1,0,64)'
PUBLIC	??_R4JFW_Low_Power_Message@@6B@			; JFW_Low_Power_Message::`RTTI Complete Object Locator'
PUBLIC	??_R0?AVJFW_Low_Power_Message@@@8		; JFW_Low_Power_Message `RTTI Type Descriptor'
PUBLIC	??_R3JFW_Low_Power_Message@@8			; JFW_Low_Power_Message::`RTTI Class Hierarchy Descriptor'
PUBLIC	??_R2JFW_Low_Power_Message@@8			; JFW_Low_Power_Message::`RTTI Base Class Array'
PUBLIC	??_R1A@?0A@EA@JFW_Low_Power_Message@@8		; JFW_Low_Power_Message::`RTTI Base Class Descriptor at (0,-1,0,64)'
PUBLIC	??_R4JFW_Low_Power_Sound@@6B@			; JFW_Low_Power_Sound::`RTTI Complete Object Locator'
PUBLIC	??_R0?AVJFW_Low_Power_Sound@@@8			; JFW_Low_Power_Sound `RTTI Type Descriptor'
PUBLIC	??_R3JFW_Low_Power_Sound@@8			; JFW_Low_Power_Sound::`RTTI Class Hierarchy Descriptor'
PUBLIC	??_R2JFW_Low_Power_Sound@@8			; JFW_Low_Power_Sound::`RTTI Base Class Array'
PUBLIC	??_R1A@?0A@EA@JFW_Low_Power_Sound@@8		; JFW_Low_Power_Sound::`RTTI Base Class Descriptor at (0,-1,0,64)'
PUBLIC	??_R4JFW_Message_Send_Zone@@6B@			; JFW_Message_Send_Zone::`RTTI Complete Object Locator'
PUBLIC	??_R0?AVJFW_Message_Send_Zone@@@8		; JFW_Message_Send_Zone `RTTI Type Descriptor'
PUBLIC	??_R3JFW_Message_Send_Zone@@8			; JFW_Message_Send_Zone::`RTTI Class Hierarchy Descriptor'
PUBLIC	??_R2JFW_Message_Send_Zone@@8			; JFW_Message_Send_Zone::`RTTI Base Class Array'
PUBLIC	??_R1A@?0A@EA@JFW_Message_Send_Zone@@8		; JFW_Message_Send_Zone::`RTTI Base Class Descriptor at (0,-1,0,64)'
PUBLIC	??_R4JFW_Message_Send_Zone_Team@@6B@		; JFW_Message_Send_Zone_Team::`RTTI Complete Object Locator'
PUBLIC	??_R0?AVJFW_Message_Send_Zone_Team@@@8		; JFW_Message_Send_Zone_Team `RTTI Type Descriptor'
PUBLIC	??_R3JFW_Message_Send_Zone_Team@@8		; JFW_Message_Send_Zone_Team::`RTTI Class Hierarchy Descriptor'
PUBLIC	??_R2JFW_Message_Send_Zone_Team@@8		; JFW_Message_Send_Zone_Team::`RTTI Base Class Array'
PUBLIC	??_R1A@?0A@EA@JFW_Message_Send_Zone_Team@@8	; JFW_Message_Send_Zone_Team::`RTTI Base Class Descriptor at (0,-1,0,64)'
PUBLIC	??_R4JFW_Message_Send_Zone_Player@@6B@		; JFW_Message_Send_Zone_Player::`RTTI Complete Object Locator'
PUBLIC	??_R0?AVJFW_Message_Send_Zone_Player@@@8	; JFW_Message_Send_Zone_Player `RTTI Type Descriptor'
PUBLIC	??_R3JFW_Message_Send_Zone_Player@@8		; JFW_Message_Send_Zone_Player::`RTTI Class Hierarchy Descriptor'
PUBLIC	??_R2JFW_Message_Send_Zone_Player@@8		; JFW_Message_Send_Zone_Player::`RTTI Base Class Array'
PUBLIC	??_R1A@?0A@EA@JFW_Message_Send_Zone_Player@@8	; JFW_Message_Send_Zone_Player::`RTTI Base Class Descriptor at (0,-1,0,64)'
PUBLIC	??_R4JFW_Message_Send_Death@@6B@		; JFW_Message_Send_Death::`RTTI Complete Object Locator'
PUBLIC	??_R0?AVJFW_Message_Send_Death@@@8		; JFW_Message_Send_Death `RTTI Type Descriptor'
PUBLIC	??_R3JFW_Message_Send_Death@@8			; JFW_Message_Send_Death::`RTTI Class Hierarchy Descriptor'
PUBLIC	??_R2JFW_Message_Send_Death@@8			; JFW_Message_Send_Death::`RTTI Base Class Array'
PUBLIC	??_R1A@?0A@EA@JFW_Message_Send_Death@@8		; JFW_Message_Send_Death::`RTTI Base Class Descriptor at (0,-1,0,64)'
PUBLIC	??_R4JFW_Message_Send_Death_Team@@6B@		; JFW_Message_Send_Death_Team::`RTTI Complete Object Locator'
PUBLIC	??_R0?AVJFW_Message_Send_Death_Team@@@8		; JFW_Message_Send_Death_Team `RTTI Type Descriptor'
PUBLIC	??_R3JFW_Message_Send_Death_Team@@8		; JFW_Message_Send_Death_Team::`RTTI Class Hierarchy Descriptor'
PUBLIC	??_R2JFW_Message_Send_Death_Team@@8		; JFW_Message_Send_Death_Team::`RTTI Base Class Array'
PUBLIC	??_R1A@?0A@EA@JFW_Message_Send_Death_Team@@8	; JFW_Message_Send_Death_Team::`RTTI Base Class Descriptor at (0,-1,0,64)'
PUBLIC	??_R4JFW_Message_Send_Custom@@6B@		; JFW_Message_Send_Custom::`RTTI Complete Object Locator'
PUBLIC	??_R0?AVJFW_Message_Send_Custom@@@8		; JFW_Message_Send_Custom `RTTI Type Descriptor'
PUBLIC	??_R3JFW_Message_Send_Custom@@8			; JFW_Message_Send_Custom::`RTTI Class Hierarchy Descriptor'
PUBLIC	??_R2JFW_Message_Send_Custom@@8			; JFW_Message_Send_Custom::`RTTI Base Class Array'
PUBLIC	??_R1A@?0A@EA@JFW_Message_Send_Custom@@8	; JFW_Message_Send_Custom::`RTTI Base Class Descriptor at (0,-1,0,64)'
PUBLIC	??_R4JFW_Message_Send_Powerup@@6B@		; JFW_Message_Send_Powerup::`RTTI Complete Object Locator'
PUBLIC	??_R0?AVJFW_Message_Send_Powerup@@@8		; JFW_Message_Send_Powerup `RTTI Type Descriptor'
PUBLIC	??_R3JFW_Message_Send_Powerup@@8		; JFW_Message_Send_Powerup::`RTTI Class Hierarchy Descriptor'
PUBLIC	??_R2JFW_Message_Send_Powerup@@8		; JFW_Message_Send_Powerup::`RTTI Base Class Array'
PUBLIC	??_R1A@?0A@EA@JFW_Message_Send_Powerup@@8	; JFW_Message_Send_Powerup::`RTTI Base Class Descriptor at (0,-1,0,64)'
PUBLIC	??_R4JFW_Message_Send_Custom_Team@@6B@		; JFW_Message_Send_Custom_Team::`RTTI Complete Object Locator'
PUBLIC	??_R0?AVJFW_Message_Send_Custom_Team@@@8	; JFW_Message_Send_Custom_Team `RTTI Type Descriptor'
PUBLIC	??_R3JFW_Message_Send_Custom_Team@@8		; JFW_Message_Send_Custom_Team::`RTTI Class Hierarchy Descriptor'
PUBLIC	??_R2JFW_Message_Send_Custom_Team@@8		; JFW_Message_Send_Custom_Team::`RTTI Base Class Array'
PUBLIC	??_R1A@?0A@EA@JFW_Message_Send_Custom_Team@@8	; JFW_Message_Send_Custom_Team::`RTTI Base Class Descriptor at (0,-1,0,64)'
PUBLIC	??_R4JFW_Spy_Switch_Team@@6B@			; JFW_Spy_Switch_Team::`RTTI Complete Object Locator'
PUBLIC	??_R0?AVJFW_Spy_Switch_Team@@@8			; JFW_Spy_Switch_Team `RTTI Type Descriptor'
PUBLIC	??_R3JFW_Spy_Switch_Team@@8			; JFW_Spy_Switch_Team::`RTTI Class Hierarchy Descriptor'
PUBLIC	??_R2JFW_Spy_Switch_Team@@8			; JFW_Spy_Switch_Team::`RTTI Base Class Array'
PUBLIC	??_R1A@?0A@EA@JFW_Spy_Switch_Team@@8		; JFW_Spy_Switch_Team::`RTTI Base Class Descriptor at (0,-1,0,64)'
PUBLIC	??_R4JFW_Spy_Vehicle_Ignore@@6B@		; JFW_Spy_Vehicle_Ignore::`RTTI Complete Object Locator'
PUBLIC	??_R0?AVJFW_Spy_Vehicle_Ignore@@@8		; JFW_Spy_Vehicle_Ignore `RTTI Type Descriptor'
PUBLIC	??_R3JFW_Spy_Vehicle_Ignore@@8			; JFW_Spy_Vehicle_Ignore::`RTTI Class Hierarchy Descriptor'
PUBLIC	??_R2JFW_Spy_Vehicle_Ignore@@8			; JFW_Spy_Vehicle_Ignore::`RTTI Base Class Array'
PUBLIC	??_R1A@?0A@EA@JFW_Spy_Vehicle_Ignore@@8		; JFW_Spy_Vehicle_Ignore::`RTTI Base Class Descriptor at (0,-1,0,64)'
PUBLIC	??_R4JFW_Spy_Vehicle_Ignore_New@@6B@		; JFW_Spy_Vehicle_Ignore_New::`RTTI Complete Object Locator'
PUBLIC	??_R0?AVJFW_Spy_Vehicle_Ignore_New@@@8		; JFW_Spy_Vehicle_Ignore_New `RTTI Type Descriptor'
PUBLIC	??_R3JFW_Spy_Vehicle_Ignore_New@@8		; JFW_Spy_Vehicle_Ignore_New::`RTTI Class Hierarchy Descriptor'
PUBLIC	??_R2JFW_Spy_Vehicle_Ignore_New@@8		; JFW_Spy_Vehicle_Ignore_New::`RTTI Base Class Array'
PUBLIC	??_R1A@?0A@EA@JFW_Spy_Vehicle_Ignore_New@@8	; JFW_Spy_Vehicle_Ignore_New::`RTTI Base Class Descriptor at (0,-1,0,64)'
PUBLIC	??_R4JFW_Message_Send_Zone_Player_Vehicle@@6B@	; JFW_Message_Send_Zone_Player_Vehicle::`RTTI Complete Object Locator'
PUBLIC	??_R0?AVJFW_Message_Send_Zone_Player_Vehicle@@@8 ; JFW_Message_Send_Zone_Player_Vehicle `RTTI Type Descriptor'
PUBLIC	??_R3JFW_Message_Send_Zone_Player_Vehicle@@8	; JFW_Message_Send_Zone_Player_Vehicle::`RTTI Class Hierarchy Descriptor'
PUBLIC	??_R2JFW_Message_Send_Zone_Player_Vehicle@@8	; JFW_Message_Send_Zone_Player_Vehicle::`RTTI Base Class Array'
PUBLIC	??_R1A@?0A@EA@JFW_Message_Send_Zone_Player_Vehicle@@8 ; JFW_Message_Send_Zone_Player_Vehicle::`RTTI Base Class Descriptor at (0,-1,0,64)'
PUBLIC	??_R4JFW_Water_Level@@6B@			; JFW_Water_Level::`RTTI Complete Object Locator'
PUBLIC	??_R0?AVJFW_Water_Level@@@8			; JFW_Water_Level `RTTI Type Descriptor'
PUBLIC	??_R3JFW_Water_Level@@8				; JFW_Water_Level::`RTTI Class Hierarchy Descriptor'
PUBLIC	??_R2JFW_Water_Level@@8				; JFW_Water_Level::`RTTI Base Class Array'
PUBLIC	??_R1A@?0A@EA@JFW_Water_Level@@8		; JFW_Water_Level::`RTTI Base Class Descriptor at (0,-1,0,64)'
PUBLIC	??_R4JFW_Submarine@@6B@				; JFW_Submarine::`RTTI Complete Object Locator'
PUBLIC	??_R0?AVJFW_Submarine@@@8			; JFW_Submarine `RTTI Type Descriptor'
PUBLIC	??_R3JFW_Submarine@@8				; JFW_Submarine::`RTTI Class Hierarchy Descriptor'
PUBLIC	??_R2JFW_Submarine@@8				; JFW_Submarine::`RTTI Base Class Array'
PUBLIC	??_R1A@?0A@EA@JFW_Submarine@@8			; JFW_Submarine::`RTTI Base Class Descriptor at (0,-1,0,64)'
PUBLIC	??_R4JFW_Reaper_Web@@6B@			; JFW_Reaper_Web::`RTTI Complete Object Locator'
PUBLIC	??_R0?AVJFW_Reaper_Web@@@8			; JFW_Reaper_Web `RTTI Type Descriptor'
PUBLIC	??_R3JFW_Reaper_Web@@8				; JFW_Reaper_Web::`RTTI Class Hierarchy Descriptor'
PUBLIC	??_R2JFW_Reaper_Web@@8				; JFW_Reaper_Web::`RTTI Base Class Array'
PUBLIC	??_R1A@?0A@EA@JFW_Reaper_Web@@8			; JFW_Reaper_Web::`RTTI Base Class Descriptor at (0,-1,0,64)'
PUBLIC	??_R4JFW_Toxic_Grenade@@6B@			; JFW_Toxic_Grenade::`RTTI Complete Object Locator'
PUBLIC	??_R0?AVJFW_Toxic_Grenade@@@8			; JFW_Toxic_Grenade `RTTI Type Descriptor'
PUBLIC	??_R3JFW_Toxic_Grenade@@8			; JFW_Toxic_Grenade::`RTTI Class Hierarchy Descriptor'
PUBLIC	??_R2JFW_Toxic_Grenade@@8			; JFW_Toxic_Grenade::`RTTI Base Class Array'
PUBLIC	??_R1A@?0A@EA@JFW_Toxic_Grenade@@8		; JFW_Toxic_Grenade::`RTTI Base Class Descriptor at (0,-1,0,64)'
PUBLIC	??_R4JFW_Hijacker_Vehicle@@6B@			; JFW_Hijacker_Vehicle::`RTTI Complete Object Locator'
PUBLIC	??_R0?AVJFW_Hijacker_Vehicle@@@8		; JFW_Hijacker_Vehicle `RTTI Type Descriptor'
PUBLIC	??_R3JFW_Hijacker_Vehicle@@8			; JFW_Hijacker_Vehicle::`RTTI Class Hierarchy Descriptor'
PUBLIC	??_R2JFW_Hijacker_Vehicle@@8			; JFW_Hijacker_Vehicle::`RTTI Base Class Array'
PUBLIC	??_R1A@?0A@EA@JFW_Hijacker_Vehicle@@8		; JFW_Hijacker_Vehicle::`RTTI Base Class Descriptor at (0,-1,0,64)'
PUBLIC	??_R4JFW_Hijacker_Vehicle_2@@6B@		; JFW_Hijacker_Vehicle_2::`RTTI Complete Object Locator'
PUBLIC	??_R0?AVJFW_Hijacker_Vehicle_2@@@8		; JFW_Hijacker_Vehicle_2 `RTTI Type Descriptor'
PUBLIC	??_R3JFW_Hijacker_Vehicle_2@@8			; JFW_Hijacker_Vehicle_2::`RTTI Class Hierarchy Descriptor'
PUBLIC	??_R2JFW_Hijacker_Vehicle_2@@8			; JFW_Hijacker_Vehicle_2::`RTTI Base Class Array'
PUBLIC	??_R1A@?0A@EA@JFW_Hijacker_Vehicle_2@@8		; JFW_Hijacker_Vehicle_2::`RTTI Base Class Descriptor at (0,-1,0,64)'
PUBLIC	??_R4JFW_Building_Preset_Disable@@6B@		; JFW_Building_Preset_Disable::`RTTI Complete Object Locator'
PUBLIC	??_R0?AVJFW_Building_Preset_Disable@@@8		; JFW_Building_Preset_Disable `RTTI Type Descriptor'
PUBLIC	??_R3JFW_Building_Preset_Disable@@8		; JFW_Building_Preset_Disable::`RTTI Class Hierarchy Descriptor'
PUBLIC	??_R2JFW_Building_Preset_Disable@@8		; JFW_Building_Preset_Disable::`RTTI Base Class Array'
PUBLIC	??_R1A@?0A@EA@JFW_Building_Preset_Disable@@8	; JFW_Building_Preset_Disable::`RTTI Base Class Descriptor at (0,-1,0,64)'
PUBLIC	??_R4?$ScriptRegistrant@VJFW_Domination_Controler_End_Game@@@@6B@ ; ScriptRegistrant<JFW_Domination_Controler_End_Game>::`RTTI Complete Object Locator'
PUBLIC	??_R0?AV?$ScriptRegistrant@VJFW_Domination_Controler_End_Game@@@@@8 ; ScriptRegistrant<JFW_Domination_Controler_End_Game> `RTTI Type Descriptor'
PUBLIC	??_R3?$ScriptRegistrant@VJFW_Domination_Controler_End_Game@@@@8 ; ScriptRegistrant<JFW_Domination_Controler_End_Game>::`RTTI Class Hierarchy Descriptor'
PUBLIC	??_R2?$ScriptRegistrant@VJFW_Domination_Controler_End_Game@@@@8 ; ScriptRegistrant<JFW_Domination_Controler_End_Game>::`RTTI Base Class Array'
PUBLIC	??_R1A@?0A@EA@?$ScriptRegistrant@VJFW_Domination_Controler_End_Game@@@@8 ; ScriptRegistrant<JFW_Domination_Controler_End_Game>::`RTTI Base Class Descriptor at (0,-1,0,64)'
PUBLIC	??_R4?$ScriptRegistrant@VJFW_Carryable_Vehicle@@@@6B@ ; ScriptRegistrant<JFW_Carryable_Vehicle>::`RTTI Complete Object Locator'
PUBLIC	??_R0?AV?$ScriptRegistrant@VJFW_Carryable_Vehicle@@@@@8 ; ScriptRegistrant<JFW_Carryable_Vehicle> `RTTI Type Descriptor'
PUBLIC	??_R3?$ScriptRegistrant@VJFW_Carryable_Vehicle@@@@8 ; ScriptRegistrant<JFW_Carryable_Vehicle>::`RTTI Class Hierarchy Descriptor'
PUBLIC	??_R2?$ScriptRegistrant@VJFW_Carryable_Vehicle@@@@8 ; ScriptRegistrant<JFW_Carryable_Vehicle>::`RTTI Base Class Array'
PUBLIC	??_R1A@?0A@EA@?$ScriptRegistrant@VJFW_Carryable_Vehicle@@@@8 ; ScriptRegistrant<JFW_Carryable_Vehicle>::`RTTI Base Class Descriptor at (0,-1,0,64)'
PUBLIC	??_R4?$ScriptRegistrant@VJFW_CarryAll@@@@6B@	; ScriptRegistrant<JFW_CarryAll>::`RTTI Complete Object Locator'
PUBLIC	??_R0?AV?$ScriptRegistrant@VJFW_CarryAll@@@@@8	; ScriptRegistrant<JFW_CarryAll> `RTTI Type Descriptor'
PUBLIC	??_R3?$ScriptRegistrant@VJFW_CarryAll@@@@8	; ScriptRegistrant<JFW_CarryAll>::`RTTI Class Hierarchy Descriptor'
PUBLIC	??_R2?$ScriptRegistrant@VJFW_CarryAll@@@@8	; ScriptRegistrant<JFW_CarryAll>::`RTTI Base Class Array'
PUBLIC	??_R1A@?0A@EA@?$ScriptRegistrant@VJFW_CarryAll@@@@8 ; ScriptRegistrant<JFW_CarryAll>::`RTTI Base Class Descriptor at (0,-1,0,64)'
PUBLIC	??_R4?$ScriptRegistrant@VJFW_Carry_Control@@@@6B@ ; ScriptRegistrant<JFW_Carry_Control>::`RTTI Complete Object Locator'
PUBLIC	??_R0?AV?$ScriptRegistrant@VJFW_Carry_Control@@@@@8 ; ScriptRegistrant<JFW_Carry_Control> `RTTI Type Descriptor'
PUBLIC	??_R3?$ScriptRegistrant@VJFW_Carry_Control@@@@8	; ScriptRegistrant<JFW_Carry_Control>::`RTTI Class Hierarchy Descriptor'
PUBLIC	??_R2?$ScriptRegistrant@VJFW_Carry_Control@@@@8	; ScriptRegistrant<JFW_Carry_Control>::`RTTI Base Class Array'
PUBLIC	??_R1A@?0A@EA@?$ScriptRegistrant@VJFW_Carry_Control@@@@8 ; ScriptRegistrant<JFW_Carry_Control>::`RTTI Base Class Descriptor at (0,-1,0,64)'
PUBLIC	??_R4?$ScriptRegistrant@VJFW_Sensor_Array@@@@6B@ ; ScriptRegistrant<JFW_Sensor_Array>::`RTTI Complete Object Locator'
PUBLIC	??_R0?AV?$ScriptRegistrant@VJFW_Sensor_Array@@@@@8 ; ScriptRegistrant<JFW_Sensor_Array> `RTTI Type Descriptor'
PUBLIC	??_R3?$ScriptRegistrant@VJFW_Sensor_Array@@@@8	; ScriptRegistrant<JFW_Sensor_Array>::`RTTI Class Hierarchy Descriptor'
PUBLIC	??_R2?$ScriptRegistrant@VJFW_Sensor_Array@@@@8	; ScriptRegistrant<JFW_Sensor_Array>::`RTTI Base Class Array'
PUBLIC	??_R1A@?0A@EA@?$ScriptRegistrant@VJFW_Sensor_Array@@@@8 ; ScriptRegistrant<JFW_Sensor_Array>::`RTTI Base Class Descriptor at (0,-1,0,64)'
PUBLIC	??_R4?$ScriptRegistrant@VJFW_Team_DM_Controller_2@@@@6B@ ; ScriptRegistrant<JFW_Team_DM_Controller_2>::`RTTI Complete Object Locator'
PUBLIC	??_R0?AV?$ScriptRegistrant@VJFW_Team_DM_Controller_2@@@@@8 ; ScriptRegistrant<JFW_Team_DM_Controller_2> `RTTI Type Descriptor'
PUBLIC	??_R3?$ScriptRegistrant@VJFW_Team_DM_Controller_2@@@@8 ; ScriptRegistrant<JFW_Team_DM_Controller_2>::`RTTI Class Hierarchy Descriptor'
PUBLIC	??_R2?$ScriptRegistrant@VJFW_Team_DM_Controller_2@@@@8 ; ScriptRegistrant<JFW_Team_DM_Controller_2>::`RTTI Base Class Array'
PUBLIC	??_R1A@?0A@EA@?$ScriptRegistrant@VJFW_Team_DM_Controller_2@@@@8 ; ScriptRegistrant<JFW_Team_DM_Controller_2>::`RTTI Base Class Descriptor at (0,-1,0,64)'
PUBLIC	??_R4?$ScriptRegistrant@VJFW_Vehicle_Thief@@@@6B@ ; ScriptRegistrant<JFW_Vehicle_Thief>::`RTTI Complete Object Locator'
PUBLIC	??_R0?AV?$ScriptRegistrant@VJFW_Vehicle_Thief@@@@@8 ; ScriptRegistrant<JFW_Vehicle_Thief> `RTTI Type Descriptor'
PUBLIC	??_R3?$ScriptRegistrant@VJFW_Vehicle_Thief@@@@8	; ScriptRegistrant<JFW_Vehicle_Thief>::`RTTI Class Hierarchy Descriptor'
PUBLIC	??_R2?$ScriptRegistrant@VJFW_Vehicle_Thief@@@@8	; ScriptRegistrant<JFW_Vehicle_Thief>::`RTTI Base Class Array'
PUBLIC	??_R1A@?0A@EA@?$ScriptRegistrant@VJFW_Vehicle_Thief@@@@8 ; ScriptRegistrant<JFW_Vehicle_Thief>::`RTTI Base Class Descriptor at (0,-1,0,64)'
PUBLIC	??_R4?$ScriptRegistrant@VJFW_Vehicle_Thief_2@@@@6B@ ; ScriptRegistrant<JFW_Vehicle_Thief_2>::`RTTI Complete Object Locator'
PUBLIC	??_R0?AV?$ScriptRegistrant@VJFW_Vehicle_Thief_2@@@@@8 ; ScriptRegistrant<JFW_Vehicle_Thief_2> `RTTI Type Descriptor'
PUBLIC	??_R3?$ScriptRegistrant@VJFW_Vehicle_Thief_2@@@@8 ; ScriptRegistrant<JFW_Vehicle_Thief_2>::`RTTI Class Hierarchy Descriptor'
PUBLIC	??_R2?$ScriptRegistrant@VJFW_Vehicle_Thief_2@@@@8 ; ScriptRegistrant<JFW_Vehicle_Thief_2>::`RTTI Base Class Array'
PUBLIC	??_R1A@?0A@EA@?$ScriptRegistrant@VJFW_Vehicle_Thief_2@@@@8 ; ScriptRegistrant<JFW_Vehicle_Thief_2>::`RTTI Base Class Descriptor at (0,-1,0,64)'
PUBLIC	??_R4?$ScriptRegistrant@VJFW_Conyard@@@@6B@	; ScriptRegistrant<JFW_Conyard>::`RTTI Complete Object Locator'
PUBLIC	??_R0?AV?$ScriptRegistrant@VJFW_Conyard@@@@@8	; ScriptRegistrant<JFW_Conyard> `RTTI Type Descriptor'
PUBLIC	??_R3?$ScriptRegistrant@VJFW_Conyard@@@@8	; ScriptRegistrant<JFW_Conyard>::`RTTI Class Hierarchy Descriptor'
PUBLIC	??_R2?$ScriptRegistrant@VJFW_Conyard@@@@8	; ScriptRegistrant<JFW_Conyard>::`RTTI Base Class Array'
PUBLIC	??_R1A@?0A@EA@?$ScriptRegistrant@VJFW_Conyard@@@@8 ; ScriptRegistrant<JFW_Conyard>::`RTTI Base Class Descriptor at (0,-1,0,64)'
PUBLIC	??_R4?$ScriptRegistrant@VJFW_Flying_Infantry@@@@6B@ ; ScriptRegistrant<JFW_Flying_Infantry>::`RTTI Complete Object Locator'
PUBLIC	??_R0?AV?$ScriptRegistrant@VJFW_Flying_Infantry@@@@@8 ; ScriptRegistrant<JFW_Flying_Infantry> `RTTI Type Descriptor'
PUBLIC	??_R3?$ScriptRegistrant@VJFW_Flying_Infantry@@@@8 ; ScriptRegistrant<JFW_Flying_Infantry>::`RTTI Class Hierarchy Descriptor'
PUBLIC	??_R2?$ScriptRegistrant@VJFW_Flying_Infantry@@@@8 ; ScriptRegistrant<JFW_Flying_Infantry>::`RTTI Base Class Array'
PUBLIC	??_R1A@?0A@EA@?$ScriptRegistrant@VJFW_Flying_Infantry@@@@8 ; ScriptRegistrant<JFW_Flying_Infantry>::`RTTI Base Class Descriptor at (0,-1,0,64)'
PUBLIC	??_R4?$ScriptRegistrant@VJFW_Flying_Infantry_Custom@@@@6B@ ; ScriptRegistrant<JFW_Flying_Infantry_Custom>::`RTTI Complete Object Locator'
PUBLIC	??_R0?AV?$ScriptRegistrant@VJFW_Flying_Infantry_Custom@@@@@8 ; ScriptRegistrant<JFW_Flying_Infantry_Custom> `RTTI Type Descriptor'
PUBLIC	??_R3?$ScriptRegistrant@VJFW_Flying_Infantry_Custom@@@@8 ; ScriptRegistrant<JFW_Flying_Infantry_Custom>::`RTTI Class Hierarchy Descriptor'
PUBLIC	??_R2?$ScriptRegistrant@VJFW_Flying_Infantry_Custom@@@@8 ; ScriptRegistrant<JFW_Flying_Infantry_Custom>::`RTTI Base Class Array'
PUBLIC	??_R1A@?0A@EA@?$ScriptRegistrant@VJFW_Flying_Infantry_Custom@@@@8 ; ScriptRegistrant<JFW_Flying_Infantry_Custom>::`RTTI Base Class Descriptor at (0,-1,0,64)'
PUBLIC	??_R4?$ScriptRegistrant@VJFW_Flying_Infantry_Powerup@@@@6B@ ; ScriptRegistrant<JFW_Flying_Infantry_Powerup>::`RTTI Complete Object Locator'
PUBLIC	??_R0?AV?$ScriptRegistrant@VJFW_Flying_Infantry_Powerup@@@@@8 ; ScriptRegistrant<JFW_Flying_Infantry_Powerup> `RTTI Type Descriptor'
PUBLIC	??_R3?$ScriptRegistrant@VJFW_Flying_Infantry_Powerup@@@@8 ; ScriptRegistrant<JFW_Flying_Infantry_Powerup>::`RTTI Class Hierarchy Descriptor'
PUBLIC	??_R2?$ScriptRegistrant@VJFW_Flying_Infantry_Powerup@@@@8 ; ScriptRegistrant<JFW_Flying_Infantry_Powerup>::`RTTI Base Class Array'
PUBLIC	??_R1A@?0A@EA@?$ScriptRegistrant@VJFW_Flying_Infantry_Powerup@@@@8 ; ScriptRegistrant<JFW_Flying_Infantry_Powerup>::`RTTI Base Class Descriptor at (0,-1,0,64)'
PUBLIC	??_R4?$ScriptRegistrant@VJFW_Flying_Infantry_Enter@@@@6B@ ; ScriptRegistrant<JFW_Flying_Infantry_Enter>::`RTTI Complete Object Locator'
PUBLIC	??_R0?AV?$ScriptRegistrant@VJFW_Flying_Infantry_Enter@@@@@8 ; ScriptRegistrant<JFW_Flying_Infantry_Enter> `RTTI Type Descriptor'
PUBLIC	??_R3?$ScriptRegistrant@VJFW_Flying_Infantry_Enter@@@@8 ; ScriptRegistrant<JFW_Flying_Infantry_Enter>::`RTTI Class Hierarchy Descriptor'
PUBLIC	??_R2?$ScriptRegistrant@VJFW_Flying_Infantry_Enter@@@@8 ; ScriptRegistrant<JFW_Flying_Infantry_Enter>::`RTTI Base Class Array'
PUBLIC	??_R1A@?0A@EA@?$ScriptRegistrant@VJFW_Flying_Infantry_Enter@@@@8 ; ScriptRegistrant<JFW_Flying_Infantry_Enter>::`RTTI Base Class Descriptor at (0,-1,0,64)'
PUBLIC	??_R4?$ScriptRegistrant@VJFW_Flying_Infantry_Exit@@@@6B@ ; ScriptRegistrant<JFW_Flying_Infantry_Exit>::`RTTI Complete Object Locator'
PUBLIC	??_R0?AV?$ScriptRegistrant@VJFW_Flying_Infantry_Exit@@@@@8 ; ScriptRegistrant<JFW_Flying_Infantry_Exit> `RTTI Type Descriptor'
PUBLIC	??_R3?$ScriptRegistrant@VJFW_Flying_Infantry_Exit@@@@8 ; ScriptRegistrant<JFW_Flying_Infantry_Exit>::`RTTI Class Hierarchy Descriptor'
PUBLIC	??_R2?$ScriptRegistrant@VJFW_Flying_Infantry_Exit@@@@8 ; ScriptRegistrant<JFW_Flying_Infantry_Exit>::`RTTI Base Class Array'
PUBLIC	??_R1A@?0A@EA@?$ScriptRegistrant@VJFW_Flying_Infantry_Exit@@@@8 ; ScriptRegistrant<JFW_Flying_Infantry_Exit>::`RTTI Base Class Descriptor at (0,-1,0,64)'
PUBLIC	??_R4?$ScriptRegistrant@VJFW_Drone_Damage@@@@6B@ ; ScriptRegistrant<JFW_Drone_Damage>::`RTTI Complete Object Locator'
PUBLIC	??_R0?AV?$ScriptRegistrant@VJFW_Drone_Damage@@@@@8 ; ScriptRegistrant<JFW_Drone_Damage> `RTTI Type Descriptor'
PUBLIC	??_R3?$ScriptRegistrant@VJFW_Drone_Damage@@@@8	; ScriptRegistrant<JFW_Drone_Damage>::`RTTI Class Hierarchy Descriptor'
PUBLIC	??_R2?$ScriptRegistrant@VJFW_Drone_Damage@@@@8	; ScriptRegistrant<JFW_Drone_Damage>::`RTTI Base Class Array'
PUBLIC	??_R1A@?0A@EA@?$ScriptRegistrant@VJFW_Drone_Damage@@@@8 ; ScriptRegistrant<JFW_Drone_Damage>::`RTTI Base Class Descriptor at (0,-1,0,64)'
PUBLIC	??_R4?$ScriptRegistrant@VJFW_Conyard_Vehicle_Buildings@@@@6B@ ; ScriptRegistrant<JFW_Conyard_Vehicle_Buildings>::`RTTI Complete Object Locator'
PUBLIC	??_R0?AV?$ScriptRegistrant@VJFW_Conyard_Vehicle_Buildings@@@@@8 ; ScriptRegistrant<JFW_Conyard_Vehicle_Buildings> `RTTI Type Descriptor'
PUBLIC	??_R3?$ScriptRegistrant@VJFW_Conyard_Vehicle_Buildings@@@@8 ; ScriptRegistrant<JFW_Conyard_Vehicle_Buildings>::`RTTI Class Hierarchy Descriptor'
PUBLIC	??_R2?$ScriptRegistrant@VJFW_Conyard_Vehicle_Buildings@@@@8 ; ScriptRegistrant<JFW_Conyard_Vehicle_Buildings>::`RTTI Base Class Array'
PUBLIC	??_R1A@?0A@EA@?$ScriptRegistrant@VJFW_Conyard_Vehicle_Buildings@@@@8 ; ScriptRegistrant<JFW_Conyard_Vehicle_Buildings>::`RTTI Base Class Descriptor at (0,-1,0,64)'
PUBLIC	??_R4?$ScriptRegistrant@VJFW_Domination_Zone@@@@6B@ ; ScriptRegistrant<JFW_Domination_Zone>::`RTTI Complete Object Locator'
PUBLIC	??_R0?AV?$ScriptRegistrant@VJFW_Domination_Zone@@@@@8 ; ScriptRegistrant<JFW_Domination_Zone> `RTTI Type Descriptor'
PUBLIC	??_R3?$ScriptRegistrant@VJFW_Domination_Zone@@@@8 ; ScriptRegistrant<JFW_Domination_Zone>::`RTTI Class Hierarchy Descriptor'
PUBLIC	??_R2?$ScriptRegistrant@VJFW_Domination_Zone@@@@8 ; ScriptRegistrant<JFW_Domination_Zone>::`RTTI Base Class Array'
PUBLIC	??_R1A@?0A@EA@?$ScriptRegistrant@VJFW_Domination_Zone@@@@8 ; ScriptRegistrant<JFW_Domination_Zone>::`RTTI Base Class Descriptor at (0,-1,0,64)'
PUBLIC	??_R4?$ScriptRegistrant@VJFW_Domination_Controler@@@@6B@ ; ScriptRegistrant<JFW_Domination_Controler>::`RTTI Complete Object Locator'
PUBLIC	??_R0?AV?$ScriptRegistrant@VJFW_Domination_Controler@@@@@8 ; ScriptRegistrant<JFW_Domination_Controler> `RTTI Type Descriptor'
PUBLIC	??_R3?$ScriptRegistrant@VJFW_Domination_Controler@@@@8 ; ScriptRegistrant<JFW_Domination_Controler>::`RTTI Class Hierarchy Descriptor'
PUBLIC	??_R2?$ScriptRegistrant@VJFW_Domination_Controler@@@@8 ; ScriptRegistrant<JFW_Domination_Controler>::`RTTI Base Class Array'
PUBLIC	??_R1A@?0A@EA@?$ScriptRegistrant@VJFW_Domination_Controler@@@@8 ; ScriptRegistrant<JFW_Domination_Controler>::`RTTI Base Class Descriptor at (0,-1,0,64)'
PUBLIC	??_R4?$ScriptRegistrant@VJFW_Iron_Curtain_Zone@@@@6B@ ; ScriptRegistrant<JFW_Iron_Curtain_Zone>::`RTTI Complete Object Locator'
PUBLIC	??_R0?AV?$ScriptRegistrant@VJFW_Iron_Curtain_Zone@@@@@8 ; ScriptRegistrant<JFW_Iron_Curtain_Zone> `RTTI Type Descriptor'
PUBLIC	??_R3?$ScriptRegistrant@VJFW_Iron_Curtain_Zone@@@@8 ; ScriptRegistrant<JFW_Iron_Curtain_Zone>::`RTTI Class Hierarchy Descriptor'
PUBLIC	??_R2?$ScriptRegistrant@VJFW_Iron_Curtain_Zone@@@@8 ; ScriptRegistrant<JFW_Iron_Curtain_Zone>::`RTTI Base Class Array'
PUBLIC	??_R1A@?0A@EA@?$ScriptRegistrant@VJFW_Iron_Curtain_Zone@@@@8 ; ScriptRegistrant<JFW_Iron_Curtain_Zone>::`RTTI Base Class Descriptor at (0,-1,0,64)'
PUBLIC	??_R4?$ScriptRegistrant@VJFW_Chrono_Controler_Zone@@@@6B@ ; ScriptRegistrant<JFW_Chrono_Controler_Zone>::`RTTI Complete Object Locator'
PUBLIC	??_R0?AV?$ScriptRegistrant@VJFW_Chrono_Controler_Zone@@@@@8 ; ScriptRegistrant<JFW_Chrono_Controler_Zone> `RTTI Type Descriptor'
PUBLIC	??_R3?$ScriptRegistrant@VJFW_Chrono_Controler_Zone@@@@8 ; ScriptRegistrant<JFW_Chrono_Controler_Zone>::`RTTI Class Hierarchy Descriptor'
PUBLIC	??_R2?$ScriptRegistrant@VJFW_Chrono_Controler_Zone@@@@8 ; ScriptRegistrant<JFW_Chrono_Controler_Zone>::`RTTI Base Class Array'
PUBLIC	??_R1A@?0A@EA@?$ScriptRegistrant@VJFW_Chrono_Controler_Zone@@@@8 ; ScriptRegistrant<JFW_Chrono_Controler_Zone>::`RTTI Base Class Descriptor at (0,-1,0,64)'
PUBLIC	??_R4?$ScriptRegistrant@VJFW_Assault_Powerplant_Controller@@@@6B@ ; ScriptRegistrant<JFW_Assault_Powerplant_Controller>::`RTTI Complete Object Locator'
PUBLIC	??_R0?AV?$ScriptRegistrant@VJFW_Assault_Powerplant_Controller@@@@@8 ; ScriptRegistrant<JFW_Assault_Powerplant_Controller> `RTTI Type Descriptor'
PUBLIC	??_R3?$ScriptRegistrant@VJFW_Assault_Powerplant_Controller@@@@8 ; ScriptRegistrant<JFW_Assault_Powerplant_Controller>::`RTTI Class Hierarchy Descriptor'
PUBLIC	??_R2?$ScriptRegistrant@VJFW_Assault_Powerplant_Controller@@@@8 ; ScriptRegistrant<JFW_Assault_Powerplant_Controller>::`RTTI Base Class Array'
PUBLIC	??_R1A@?0A@EA@?$ScriptRegistrant@VJFW_Assault_Powerplant_Controller@@@@8 ; ScriptRegistrant<JFW_Assault_Powerplant_Controller>::`RTTI Base Class Descriptor at (0,-1,0,64)'
PUBLIC	??_R4?$ScriptRegistrant@VJFW_Resource_Collector@@@@6B@ ; ScriptRegistrant<JFW_Resource_Collector>::`RTTI Complete Object Locator'
PUBLIC	??_R0?AV?$ScriptRegistrant@VJFW_Resource_Collector@@@@@8 ; ScriptRegistrant<JFW_Resource_Collector> `RTTI Type Descriptor'
PUBLIC	??_R3?$ScriptRegistrant@VJFW_Resource_Collector@@@@8 ; ScriptRegistrant<JFW_Resource_Collector>::`RTTI Class Hierarchy Descriptor'
PUBLIC	??_R2?$ScriptRegistrant@VJFW_Resource_Collector@@@@8 ; ScriptRegistrant<JFW_Resource_Collector>::`RTTI Base Class Array'
PUBLIC	??_R1A@?0A@EA@?$ScriptRegistrant@VJFW_Resource_Collector@@@@8 ; ScriptRegistrant<JFW_Resource_Collector>::`RTTI Base Class Descriptor at (0,-1,0,64)'
PUBLIC	??_R4?$ScriptRegistrant@VJFW_Resource_Collector_2@@@@6B@ ; ScriptRegistrant<JFW_Resource_Collector_2>::`RTTI Complete Object Locator'
PUBLIC	??_R0?AV?$ScriptRegistrant@VJFW_Resource_Collector_2@@@@@8 ; ScriptRegistrant<JFW_Resource_Collector_2> `RTTI Type Descriptor'
PUBLIC	??_R3?$ScriptRegistrant@VJFW_Resource_Collector_2@@@@8 ; ScriptRegistrant<JFW_Resource_Collector_2>::`RTTI Class Hierarchy Descriptor'
PUBLIC	??_R2?$ScriptRegistrant@VJFW_Resource_Collector_2@@@@8 ; ScriptRegistrant<JFW_Resource_Collector_2>::`RTTI Base Class Array'
PUBLIC	??_R1A@?0A@EA@?$ScriptRegistrant@VJFW_Resource_Collector_2@@@@8 ; ScriptRegistrant<JFW_Resource_Collector_2>::`RTTI Base Class Descriptor at (0,-1,0,64)'
PUBLIC	??_R4?$ScriptRegistrant@VJFW_Resource_Collector_3@@@@6B@ ; ScriptRegistrant<JFW_Resource_Collector_3>::`RTTI Complete Object Locator'
PUBLIC	??_R0?AV?$ScriptRegistrant@VJFW_Resource_Collector_3@@@@@8 ; ScriptRegistrant<JFW_Resource_Collector_3> `RTTI Type Descriptor'
PUBLIC	??_R3?$ScriptRegistrant@VJFW_Resource_Collector_3@@@@8 ; ScriptRegistrant<JFW_Resource_Collector_3>::`RTTI Class Hierarchy Descriptor'
PUBLIC	??_R2?$ScriptRegistrant@VJFW_Resource_Collector_3@@@@8 ; ScriptRegistrant<JFW_Resource_Collector_3>::`RTTI Base Class Array'
PUBLIC	??_R1A@?0A@EA@?$ScriptRegistrant@VJFW_Resource_Collector_3@@@@8 ; ScriptRegistrant<JFW_Resource_Collector_3>::`RTTI Base Class Descriptor at (0,-1,0,64)'
PUBLIC	??_R4?$ScriptRegistrant@VJFW_Resource_Refinery@@@@6B@ ; ScriptRegistrant<JFW_Resource_Refinery>::`RTTI Complete Object Locator'
PUBLIC	??_R0?AV?$ScriptRegistrant@VJFW_Resource_Refinery@@@@@8 ; ScriptRegistrant<JFW_Resource_Refinery> `RTTI Type Descriptor'
PUBLIC	??_R3?$ScriptRegistrant@VJFW_Resource_Refinery@@@@8 ; ScriptRegistrant<JFW_Resource_Refinery>::`RTTI Class Hierarchy Descriptor'
PUBLIC	??_R2?$ScriptRegistrant@VJFW_Resource_Refinery@@@@8 ; ScriptRegistrant<JFW_Resource_Refinery>::`RTTI Base Class Array'
PUBLIC	??_R1A@?0A@EA@?$ScriptRegistrant@VJFW_Resource_Refinery@@@@8 ; ScriptRegistrant<JFW_Resource_Refinery>::`RTTI Base Class Descriptor at (0,-1,0,64)'
PUBLIC	??_R4?$ScriptRegistrant@VJFW_Resource_Field@@@@6B@ ; ScriptRegistrant<JFW_Resource_Field>::`RTTI Complete Object Locator'
PUBLIC	??_R0?AV?$ScriptRegistrant@VJFW_Resource_Field@@@@@8 ; ScriptRegistrant<JFW_Resource_Field> `RTTI Type Descriptor'
PUBLIC	??_R3?$ScriptRegistrant@VJFW_Resource_Field@@@@8 ; ScriptRegistrant<JFW_Resource_Field>::`RTTI Class Hierarchy Descriptor'
PUBLIC	??_R2?$ScriptRegistrant@VJFW_Resource_Field@@@@8 ; ScriptRegistrant<JFW_Resource_Field>::`RTTI Base Class Array'
PUBLIC	??_R1A@?0A@EA@?$ScriptRegistrant@VJFW_Resource_Field@@@@8 ; ScriptRegistrant<JFW_Resource_Field>::`RTTI Base Class Descriptor at (0,-1,0,64)'
PUBLIC	??_R4?$ScriptRegistrant@VJFW_Team_DM_Controller@@@@6B@ ; ScriptRegistrant<JFW_Team_DM_Controller>::`RTTI Complete Object Locator'
PUBLIC	??_R0?AV?$ScriptRegistrant@VJFW_Team_DM_Controller@@@@@8 ; ScriptRegistrant<JFW_Team_DM_Controller> `RTTI Type Descriptor'
PUBLIC	??_R3?$ScriptRegistrant@VJFW_Team_DM_Controller@@@@8 ; ScriptRegistrant<JFW_Team_DM_Controller>::`RTTI Class Hierarchy Descriptor'
PUBLIC	??_R2?$ScriptRegistrant@VJFW_Team_DM_Controller@@@@8 ; ScriptRegistrant<JFW_Team_DM_Controller>::`RTTI Base Class Array'
PUBLIC	??_R1A@?0A@EA@?$ScriptRegistrant@VJFW_Team_DM_Controller@@@@8 ; ScriptRegistrant<JFW_Team_DM_Controller>::`RTTI Base Class Descriptor at (0,-1,0,64)'
PUBLIC	??_R4?$ScriptRegistrant@VJFW_Team_DM_Zone@@@@6B@ ; ScriptRegistrant<JFW_Team_DM_Zone>::`RTTI Complete Object Locator'
PUBLIC	??_R0?AV?$ScriptRegistrant@VJFW_Team_DM_Zone@@@@@8 ; ScriptRegistrant<JFW_Team_DM_Zone> `RTTI Type Descriptor'
PUBLIC	??_R3?$ScriptRegistrant@VJFW_Team_DM_Zone@@@@8	; ScriptRegistrant<JFW_Team_DM_Zone>::`RTTI Class Hierarchy Descriptor'
PUBLIC	??_R2?$ScriptRegistrant@VJFW_Team_DM_Zone@@@@8	; ScriptRegistrant<JFW_Team_DM_Zone>::`RTTI Base Class Array'
PUBLIC	??_R1A@?0A@EA@?$ScriptRegistrant@VJFW_Team_DM_Zone@@@@8 ; ScriptRegistrant<JFW_Team_DM_Zone>::`RTTI Base Class Descriptor at (0,-1,0,64)'
PUBLIC	??_R4?$ScriptRegistrant@VJFW_Team_DM_Attatched@@@@6B@ ; ScriptRegistrant<JFW_Team_DM_Attatched>::`RTTI Complete Object Locator'
PUBLIC	??_R0?AV?$ScriptRegistrant@VJFW_Team_DM_Attatched@@@@@8 ; ScriptRegistrant<JFW_Team_DM_Attatched> `RTTI Type Descriptor'
PUBLIC	??_R3?$ScriptRegistrant@VJFW_Team_DM_Attatched@@@@8 ; ScriptRegistrant<JFW_Team_DM_Attatched>::`RTTI Class Hierarchy Descriptor'
PUBLIC	??_R2?$ScriptRegistrant@VJFW_Team_DM_Attatched@@@@8 ; ScriptRegistrant<JFW_Team_DM_Attatched>::`RTTI Base Class Array'
PUBLIC	??_R1A@?0A@EA@?$ScriptRegistrant@VJFW_Team_DM_Attatched@@@@8 ; ScriptRegistrant<JFW_Team_DM_Attatched>::`RTTI Base Class Descriptor at (0,-1,0,64)'
PUBLIC	??_R4?$ScriptRegistrant@VJFW_Conyard_Radius@@@@6B@ ; ScriptRegistrant<JFW_Conyard_Radius>::`RTTI Complete Object Locator'
PUBLIC	??_R0?AV?$ScriptRegistrant@VJFW_Conyard_Radius@@@@@8 ; ScriptRegistrant<JFW_Conyard_Radius> `RTTI Type Descriptor'
PUBLIC	??_R3?$ScriptRegistrant@VJFW_Conyard_Radius@@@@8 ; ScriptRegistrant<JFW_Conyard_Radius>::`RTTI Class Hierarchy Descriptor'
PUBLIC	??_R2?$ScriptRegistrant@VJFW_Conyard_Radius@@@@8 ; ScriptRegistrant<JFW_Conyard_Radius>::`RTTI Base Class Array'
PUBLIC	??_R1A@?0A@EA@?$ScriptRegistrant@VJFW_Conyard_Radius@@@@8 ; ScriptRegistrant<JFW_Conyard_Radius>::`RTTI Base Class Descriptor at (0,-1,0,64)'
PUBLIC	??_R4?$ScriptRegistrant@VJFW_Chrono_Harvester_Logic@@@@6B@ ; ScriptRegistrant<JFW_Chrono_Harvester_Logic>::`RTTI Complete Object Locator'
PUBLIC	??_R0?AV?$ScriptRegistrant@VJFW_Chrono_Harvester_Logic@@@@@8 ; ScriptRegistrant<JFW_Chrono_Harvester_Logic> `RTTI Type Descriptor'
PUBLIC	??_R3?$ScriptRegistrant@VJFW_Chrono_Harvester_Logic@@@@8 ; ScriptRegistrant<JFW_Chrono_Harvester_Logic>::`RTTI Class Hierarchy Descriptor'
PUBLIC	??_R2?$ScriptRegistrant@VJFW_Chrono_Harvester_Logic@@@@8 ; ScriptRegistrant<JFW_Chrono_Harvester_Logic>::`RTTI Base Class Array'
PUBLIC	??_R1A@?0A@EA@?$ScriptRegistrant@VJFW_Chrono_Harvester_Logic@@@@8 ; ScriptRegistrant<JFW_Chrono_Harvester_Logic>::`RTTI Base Class Descriptor at (0,-1,0,64)'
PUBLIC	??_R4?$ScriptRegistrant@VJFW_Chrono_Harvester_Attached@@@@6B@ ; ScriptRegistrant<JFW_Chrono_Harvester_Attached>::`RTTI Complete Object Locator'
PUBLIC	??_R0?AV?$ScriptRegistrant@VJFW_Chrono_Harvester_Attached@@@@@8 ; ScriptRegistrant<JFW_Chrono_Harvester_Attached> `RTTI Type Descriptor'
PUBLIC	??_R3?$ScriptRegistrant@VJFW_Chrono_Harvester_Attached@@@@8 ; ScriptRegistrant<JFW_Chrono_Harvester_Attached>::`RTTI Class Hierarchy Descriptor'
PUBLIC	??_R2?$ScriptRegistrant@VJFW_Chrono_Harvester_Attached@@@@8 ; ScriptRegistrant<JFW_Chrono_Harvester_Attached>::`RTTI Base Class Array'
PUBLIC	??_R1A@?0A@EA@?$ScriptRegistrant@VJFW_Chrono_Harvester_Attached@@@@8 ; ScriptRegistrant<JFW_Chrono_Harvester_Attached>::`RTTI Base Class Descriptor at (0,-1,0,64)'
PUBLIC	??_R4?$ScriptRegistrant@VJFW_Chrono_Harvester_Kill@@@@6B@ ; ScriptRegistrant<JFW_Chrono_Harvester_Kill>::`RTTI Complete Object Locator'
PUBLIC	??_R0?AV?$ScriptRegistrant@VJFW_Chrono_Harvester_Kill@@@@@8 ; ScriptRegistrant<JFW_Chrono_Harvester_Kill> `RTTI Type Descriptor'
PUBLIC	??_R3?$ScriptRegistrant@VJFW_Chrono_Harvester_Kill@@@@8 ; ScriptRegistrant<JFW_Chrono_Harvester_Kill>::`RTTI Class Hierarchy Descriptor'
PUBLIC	??_R2?$ScriptRegistrant@VJFW_Chrono_Harvester_Kill@@@@8 ; ScriptRegistrant<JFW_Chrono_Harvester_Kill>::`RTTI Base Class Array'
PUBLIC	??_R1A@?0A@EA@?$ScriptRegistrant@VJFW_Chrono_Harvester_Kill@@@@8 ; ScriptRegistrant<JFW_Chrono_Harvester_Kill>::`RTTI Base Class Descriptor at (0,-1,0,64)'
PUBLIC	??_R4?$ScriptRegistrant@VJFW_Chrono_Harvester_Spawn_Kill@@@@6B@ ; ScriptRegistrant<JFW_Chrono_Harvester_Spawn_Kill>::`RTTI Complete Object Locator'
PUBLIC	??_R0?AV?$ScriptRegistrant@VJFW_Chrono_Harvester_Spawn_Kill@@@@@8 ; ScriptRegistrant<JFW_Chrono_Harvester_Spawn_Kill> `RTTI Type Descriptor'
PUBLIC	??_R3?$ScriptRegistrant@VJFW_Chrono_Harvester_Spawn_Kill@@@@8 ; ScriptRegistrant<JFW_Chrono_Harvester_Spawn_Kill>::`RTTI Class Hierarchy Descriptor'
PUBLIC	??_R2?$ScriptRegistrant@VJFW_Chrono_Harvester_Spawn_Kill@@@@8 ; ScriptRegistrant<JFW_Chrono_Harvester_Spawn_Kill>::`RTTI Base Class Array'
PUBLIC	??_R1A@?0A@EA@?$ScriptRegistrant@VJFW_Chrono_Harvester_Spawn_Kill@@@@8 ; ScriptRegistrant<JFW_Chrono_Harvester_Spawn_Kill>::`RTTI Base Class Descriptor at (0,-1,0,64)'
PUBLIC	??_R4?$ScriptRegistrant@VJFW_Conyard_Turrets@@@@6B@ ; ScriptRegistrant<JFW_Conyard_Turrets>::`RTTI Complete Object Locator'
PUBLIC	??_R0?AV?$ScriptRegistrant@VJFW_Conyard_Turrets@@@@@8 ; ScriptRegistrant<JFW_Conyard_Turrets> `RTTI Type Descriptor'
PUBLIC	??_R3?$ScriptRegistrant@VJFW_Conyard_Turrets@@@@8 ; ScriptRegistrant<JFW_Conyard_Turrets>::`RTTI Class Hierarchy Descriptor'
PUBLIC	??_R2?$ScriptRegistrant@VJFW_Conyard_Turrets@@@@8 ; ScriptRegistrant<JFW_Conyard_Turrets>::`RTTI Base Class Array'
PUBLIC	??_R1A@?0A@EA@?$ScriptRegistrant@VJFW_Conyard_Turrets@@@@8 ; ScriptRegistrant<JFW_Conyard_Turrets>::`RTTI Base Class Descriptor at (0,-1,0,64)'
PUBLIC	??_R4?$ScriptRegistrant@VJFW_Radar_Jammer@@@@6B@ ; ScriptRegistrant<JFW_Radar_Jammer>::`RTTI Complete Object Locator'
PUBLIC	??_R0?AV?$ScriptRegistrant@VJFW_Radar_Jammer@@@@@8 ; ScriptRegistrant<JFW_Radar_Jammer> `RTTI Type Descriptor'
PUBLIC	??_R3?$ScriptRegistrant@VJFW_Radar_Jammer@@@@8	; ScriptRegistrant<JFW_Radar_Jammer>::`RTTI Class Hierarchy Descriptor'
PUBLIC	??_R2?$ScriptRegistrant@VJFW_Radar_Jammer@@@@8	; ScriptRegistrant<JFW_Radar_Jammer>::`RTTI Base Class Array'
PUBLIC	??_R1A@?0A@EA@?$ScriptRegistrant@VJFW_Radar_Jammer@@@@8 ; ScriptRegistrant<JFW_Radar_Jammer>::`RTTI Base Class Descriptor at (0,-1,0,64)'
PUBLIC	??_R4?$ScriptRegistrant@VJFW_Radar_Jammer_Sound@@@@6B@ ; ScriptRegistrant<JFW_Radar_Jammer_Sound>::`RTTI Complete Object Locator'
PUBLIC	??_R0?AV?$ScriptRegistrant@VJFW_Radar_Jammer_Sound@@@@@8 ; ScriptRegistrant<JFW_Radar_Jammer_Sound> `RTTI Type Descriptor'
PUBLIC	??_R3?$ScriptRegistrant@VJFW_Radar_Jammer_Sound@@@@8 ; ScriptRegistrant<JFW_Radar_Jammer_Sound>::`RTTI Class Hierarchy Descriptor'
PUBLIC	??_R2?$ScriptRegistrant@VJFW_Radar_Jammer_Sound@@@@8 ; ScriptRegistrant<JFW_Radar_Jammer_Sound>::`RTTI Base Class Array'
PUBLIC	??_R1A@?0A@EA@?$ScriptRegistrant@VJFW_Radar_Jammer_Sound@@@@8 ; ScriptRegistrant<JFW_Radar_Jammer_Sound>::`RTTI Base Class Descriptor at (0,-1,0,64)'
PUBLIC	??_R4?$ScriptRegistrant@VJFW_Sonar_Pulse@@@@6B@	; ScriptRegistrant<JFW_Sonar_Pulse>::`RTTI Complete Object Locator'
PUBLIC	??_R0?AV?$ScriptRegistrant@VJFW_Sonar_Pulse@@@@@8 ; ScriptRegistrant<JFW_Sonar_Pulse> `RTTI Type Descriptor'
PUBLIC	??_R3?$ScriptRegistrant@VJFW_Sonar_Pulse@@@@8	; ScriptRegistrant<JFW_Sonar_Pulse>::`RTTI Class Hierarchy Descriptor'
PUBLIC	??_R2?$ScriptRegistrant@VJFW_Sonar_Pulse@@@@8	; ScriptRegistrant<JFW_Sonar_Pulse>::`RTTI Base Class Array'
PUBLIC	??_R1A@?0A@EA@?$ScriptRegistrant@VJFW_Sonar_Pulse@@@@8 ; ScriptRegistrant<JFW_Sonar_Pulse>::`RTTI Base Class Descriptor at (0,-1,0,64)'
PUBLIC	??_R4?$ScriptRegistrant@VJFW_Global_Stealth_Controller@@@@6B@ ; ScriptRegistrant<JFW_Global_Stealth_Controller>::`RTTI Complete Object Locator'
PUBLIC	??_R0?AV?$ScriptRegistrant@VJFW_Global_Stealth_Controller@@@@@8 ; ScriptRegistrant<JFW_Global_Stealth_Controller> `RTTI Type Descriptor'
PUBLIC	??_R3?$ScriptRegistrant@VJFW_Global_Stealth_Controller@@@@8 ; ScriptRegistrant<JFW_Global_Stealth_Controller>::`RTTI Class Hierarchy Descriptor'
PUBLIC	??_R2?$ScriptRegistrant@VJFW_Global_Stealth_Controller@@@@8 ; ScriptRegistrant<JFW_Global_Stealth_Controller>::`RTTI Base Class Array'
PUBLIC	??_R1A@?0A@EA@?$ScriptRegistrant@VJFW_Global_Stealth_Controller@@@@8 ; ScriptRegistrant<JFW_Global_Stealth_Controller>::`RTTI Base Class Descriptor at (0,-1,0,64)'
PUBLIC	??_R4?$ScriptRegistrant@VJFW_Stealth_Generator_Building@@@@6B@ ; ScriptRegistrant<JFW_Stealth_Generator_Building>::`RTTI Complete Object Locator'
PUBLIC	??_R0?AV?$ScriptRegistrant@VJFW_Stealth_Generator_Building@@@@@8 ; ScriptRegistrant<JFW_Stealth_Generator_Building> `RTTI Type Descriptor'
PUBLIC	??_R3?$ScriptRegistrant@VJFW_Stealth_Generator_Building@@@@8 ; ScriptRegistrant<JFW_Stealth_Generator_Building>::`RTTI Class Hierarchy Descriptor'
PUBLIC	??_R2?$ScriptRegistrant@VJFW_Stealth_Generator_Building@@@@8 ; ScriptRegistrant<JFW_Stealth_Generator_Building>::`RTTI Base Class Array'
PUBLIC	??_R1A@?0A@EA@?$ScriptRegistrant@VJFW_Stealth_Generator_Building@@@@8 ; ScriptRegistrant<JFW_Stealth_Generator_Building>::`RTTI Base Class Descriptor at (0,-1,0,64)'
PUBLIC	??_R4?$ScriptRegistrant@VJFW_Stealth_Generator_Vehicle@@@@6B@ ; ScriptRegistrant<JFW_Stealth_Generator_Vehicle>::`RTTI Complete Object Locator'
PUBLIC	??_R0?AV?$ScriptRegistrant@VJFW_Stealth_Generator_Vehicle@@@@@8 ; ScriptRegistrant<JFW_Stealth_Generator_Vehicle> `RTTI Type Descriptor'
PUBLIC	??_R3?$ScriptRegistrant@VJFW_Stealth_Generator_Vehicle@@@@8 ; ScriptRegistrant<JFW_Stealth_Generator_Vehicle>::`RTTI Class Hierarchy Descriptor'
PUBLIC	??_R2?$ScriptRegistrant@VJFW_Stealth_Generator_Vehicle@@@@8 ; ScriptRegistrant<JFW_Stealth_Generator_Vehicle>::`RTTI Base Class Array'
PUBLIC	??_R1A@?0A@EA@?$ScriptRegistrant@VJFW_Stealth_Generator_Vehicle@@@@8 ; ScriptRegistrant<JFW_Stealth_Generator_Vehicle>::`RTTI Base Class Descriptor at (0,-1,0,64)'
PUBLIC	??_R4?$ScriptRegistrant@VJFW_Stealth_Generator_Vehicle_Deploy@@@@6B@ ; ScriptRegistrant<JFW_Stealth_Generator_Vehicle_Deploy>::`RTTI Complete Object Locator'
PUBLIC	??_R0?AV?$ScriptRegistrant@VJFW_Stealth_Generator_Vehicle_Deploy@@@@@8 ; ScriptRegistrant<JFW_Stealth_Generator_Vehicle_Deploy> `RTTI Type Descriptor'
PUBLIC	??_R3?$ScriptRegistrant@VJFW_Stealth_Generator_Vehicle_Deploy@@@@8 ; ScriptRegistrant<JFW_Stealth_Generator_Vehicle_Deploy>::`RTTI Class Hierarchy Descriptor'
PUBLIC	??_R2?$ScriptRegistrant@VJFW_Stealth_Generator_Vehicle_Deploy@@@@8 ; ScriptRegistrant<JFW_Stealth_Generator_Vehicle_Deploy>::`RTTI Base Class Array'
PUBLIC	??_R1A@?0A@EA@?$ScriptRegistrant@VJFW_Stealth_Generator_Vehicle_Deploy@@@@8 ; ScriptRegistrant<JFW_Stealth_Generator_Vehicle_Deploy>::`RTTI Base Class Descriptor at (0,-1,0,64)'
PUBLIC	??_R4?$ScriptRegistrant@VJFW_Stealth_Generator_Ignored@@@@6B@ ; ScriptRegistrant<JFW_Stealth_Generator_Ignored>::`RTTI Complete Object Locator'
PUBLIC	??_R0?AV?$ScriptRegistrant@VJFW_Stealth_Generator_Ignored@@@@@8 ; ScriptRegistrant<JFW_Stealth_Generator_Ignored> `RTTI Type Descriptor'
PUBLIC	??_R3?$ScriptRegistrant@VJFW_Stealth_Generator_Ignored@@@@8 ; ScriptRegistrant<JFW_Stealth_Generator_Ignored>::`RTTI Class Hierarchy Descriptor'
PUBLIC	??_R2?$ScriptRegistrant@VJFW_Stealth_Generator_Ignored@@@@8 ; ScriptRegistrant<JFW_Stealth_Generator_Ignored>::`RTTI Base Class Array'
PUBLIC	??_R1A@?0A@EA@?$ScriptRegistrant@VJFW_Stealth_Generator_Ignored@@@@8 ; ScriptRegistrant<JFW_Stealth_Generator_Ignored>::`RTTI Base Class Descriptor at (0,-1,0,64)'
PUBLIC	??_R4?$ScriptRegistrant@VJFW_Low_Power_Message@@@@6B@ ; ScriptRegistrant<JFW_Low_Power_Message>::`RTTI Complete Object Locator'
PUBLIC	??_R0?AV?$ScriptRegistrant@VJFW_Low_Power_Message@@@@@8 ; ScriptRegistrant<JFW_Low_Power_Message> `RTTI Type Descriptor'
PUBLIC	??_R3?$ScriptRegistrant@VJFW_Low_Power_Message@@@@8 ; ScriptRegistrant<JFW_Low_Power_Message>::`RTTI Class Hierarchy Descriptor'
PUBLIC	??_R2?$ScriptRegistrant@VJFW_Low_Power_Message@@@@8 ; ScriptRegistrant<JFW_Low_Power_Message>::`RTTI Base Class Array'
PUBLIC	??_R1A@?0A@EA@?$ScriptRegistrant@VJFW_Low_Power_Message@@@@8 ; ScriptRegistrant<JFW_Low_Power_Message>::`RTTI Base Class Descriptor at (0,-1,0,64)'
PUBLIC	??_R4?$ScriptRegistrant@VJFW_Low_Power_Sound@@@@6B@ ; ScriptRegistrant<JFW_Low_Power_Sound>::`RTTI Complete Object Locator'
PUBLIC	??_R0?AV?$ScriptRegistrant@VJFW_Low_Power_Sound@@@@@8 ; ScriptRegistrant<JFW_Low_Power_Sound> `RTTI Type Descriptor'
PUBLIC	??_R3?$ScriptRegistrant@VJFW_Low_Power_Sound@@@@8 ; ScriptRegistrant<JFW_Low_Power_Sound>::`RTTI Class Hierarchy Descriptor'
PUBLIC	??_R2?$ScriptRegistrant@VJFW_Low_Power_Sound@@@@8 ; ScriptRegistrant<JFW_Low_Power_Sound>::`RTTI Base Class Array'
PUBLIC	??_R1A@?0A@EA@?$ScriptRegistrant@VJFW_Low_Power_Sound@@@@8 ; ScriptRegistrant<JFW_Low_Power_Sound>::`RTTI Base Class Descriptor at (0,-1,0,64)'
PUBLIC	??_R4?$ScriptRegistrant@VJFW_Message_Send_Zone@@@@6B@ ; ScriptRegistrant<JFW_Message_Send_Zone>::`RTTI Complete Object Locator'
PUBLIC	??_R0?AV?$ScriptRegistrant@VJFW_Message_Send_Zone@@@@@8 ; ScriptRegistrant<JFW_Message_Send_Zone> `RTTI Type Descriptor'
PUBLIC	??_R3?$ScriptRegistrant@VJFW_Message_Send_Zone@@@@8 ; ScriptRegistrant<JFW_Message_Send_Zone>::`RTTI Class Hierarchy Descriptor'
PUBLIC	??_R2?$ScriptRegistrant@VJFW_Message_Send_Zone@@@@8 ; ScriptRegistrant<JFW_Message_Send_Zone>::`RTTI Base Class Array'
PUBLIC	??_R1A@?0A@EA@?$ScriptRegistrant@VJFW_Message_Send_Zone@@@@8 ; ScriptRegistrant<JFW_Message_Send_Zone>::`RTTI Base Class Descriptor at (0,-1,0,64)'
PUBLIC	??_R4?$ScriptRegistrant@VJFW_Message_Send_Zone_Team@@@@6B@ ; ScriptRegistrant<JFW_Message_Send_Zone_Team>::`RTTI Complete Object Locator'
PUBLIC	??_R0?AV?$ScriptRegistrant@VJFW_Message_Send_Zone_Team@@@@@8 ; ScriptRegistrant<JFW_Message_Send_Zone_Team> `RTTI Type Descriptor'
PUBLIC	??_R3?$ScriptRegistrant@VJFW_Message_Send_Zone_Team@@@@8 ; ScriptRegistrant<JFW_Message_Send_Zone_Team>::`RTTI Class Hierarchy Descriptor'
PUBLIC	??_R2?$ScriptRegistrant@VJFW_Message_Send_Zone_Team@@@@8 ; ScriptRegistrant<JFW_Message_Send_Zone_Team>::`RTTI Base Class Array'
PUBLIC	??_R1A@?0A@EA@?$ScriptRegistrant@VJFW_Message_Send_Zone_Team@@@@8 ; ScriptRegistrant<JFW_Message_Send_Zone_Team>::`RTTI Base Class Descriptor at (0,-1,0,64)'
PUBLIC	??_R4?$ScriptRegistrant@VJFW_Message_Send_Zone_Player@@@@6B@ ; ScriptRegistrant<JFW_Message_Send_Zone_Player>::`RTTI Complete Object Locator'
PUBLIC	??_R0?AV?$ScriptRegistrant@VJFW_Message_Send_Zone_Player@@@@@8 ; ScriptRegistrant<JFW_Message_Send_Zone_Player> `RTTI Type Descriptor'
PUBLIC	??_R3?$ScriptRegistrant@VJFW_Message_Send_Zone_Player@@@@8 ; ScriptRegistrant<JFW_Message_Send_Zone_Player>::`RTTI Class Hierarchy Descriptor'
PUBLIC	??_R2?$ScriptRegistrant@VJFW_Message_Send_Zone_Player@@@@8 ; ScriptRegistrant<JFW_Message_Send_Zone_Player>::`RTTI Base Class Array'
PUBLIC	??_R1A@?0A@EA@?$ScriptRegistrant@VJFW_Message_Send_Zone_Player@@@@8 ; ScriptRegistrant<JFW_Message_Send_Zone_Player>::`RTTI Base Class Descriptor at (0,-1,0,64)'
PUBLIC	??_R4?$ScriptRegistrant@VJFW_Message_Send_Death@@@@6B@ ; ScriptRegistrant<JFW_Message_Send_Death>::`RTTI Complete Object Locator'
PUBLIC	??_R0?AV?$ScriptRegistrant@VJFW_Message_Send_Death@@@@@8 ; ScriptRegistrant<JFW_Message_Send_Death> `RTTI Type Descriptor'
PUBLIC	??_R3?$ScriptRegistrant@VJFW_Message_Send_Death@@@@8 ; ScriptRegistrant<JFW_Message_Send_Death>::`RTTI Class Hierarchy Descriptor'
PUBLIC	??_R2?$ScriptRegistrant@VJFW_Message_Send_Death@@@@8 ; ScriptRegistrant<JFW_Message_Send_Death>::`RTTI Base Class Array'
PUBLIC	??_R1A@?0A@EA@?$ScriptRegistrant@VJFW_Message_Send_Death@@@@8 ; ScriptRegistrant<JFW_Message_Send_Death>::`RTTI Base Class Descriptor at (0,-1,0,64)'
PUBLIC	??_R4?$ScriptRegistrant@VJFW_Message_Send_Death_Team@@@@6B@ ; ScriptRegistrant<JFW_Message_Send_Death_Team>::`RTTI Complete Object Locator'
PUBLIC	??_R0?AV?$ScriptRegistrant@VJFW_Message_Send_Death_Team@@@@@8 ; ScriptRegistrant<JFW_Message_Send_Death_Team> `RTTI Type Descriptor'
PUBLIC	??_R3?$ScriptRegistrant@VJFW_Message_Send_Death_Team@@@@8 ; ScriptRegistrant<JFW_Message_Send_Death_Team>::`RTTI Class Hierarchy Descriptor'
PUBLIC	??_R2?$ScriptRegistrant@VJFW_Message_Send_Death_Team@@@@8 ; ScriptRegistrant<JFW_Message_Send_Death_Team>::`RTTI Base Class Array'
PUBLIC	??_R1A@?0A@EA@?$ScriptRegistrant@VJFW_Message_Send_Death_Team@@@@8 ; ScriptRegistrant<JFW_Message_Send_Death_Team>::`RTTI Base Class Descriptor at (0,-1,0,64)'
PUBLIC	??_R4?$ScriptRegistrant@VJFW_Message_Send_Custom@@@@6B@ ; ScriptRegistrant<JFW_Message_Send_Custom>::`RTTI Complete Object Locator'
PUBLIC	??_R0?AV?$ScriptRegistrant@VJFW_Message_Send_Custom@@@@@8 ; ScriptRegistrant<JFW_Message_Send_Custom> `RTTI Type Descriptor'
PUBLIC	??_R3?$ScriptRegistrant@VJFW_Message_Send_Custom@@@@8 ; ScriptRegistrant<JFW_Message_Send_Custom>::`RTTI Class Hierarchy Descriptor'
PUBLIC	??_R2?$ScriptRegistrant@VJFW_Message_Send_Custom@@@@8 ; ScriptRegistrant<JFW_Message_Send_Custom>::`RTTI Base Class Array'
PUBLIC	??_R1A@?0A@EA@?$ScriptRegistrant@VJFW_Message_Send_Custom@@@@8 ; ScriptRegistrant<JFW_Message_Send_Custom>::`RTTI Base Class Descriptor at (0,-1,0,64)'
PUBLIC	??_R4?$ScriptRegistrant@VJFW_Message_Send_Powerup@@@@6B@ ; ScriptRegistrant<JFW_Message_Send_Powerup>::`RTTI Complete Object Locator'
PUBLIC	??_R0?AV?$ScriptRegistrant@VJFW_Message_Send_Powerup@@@@@8 ; ScriptRegistrant<JFW_Message_Send_Powerup> `RTTI Type Descriptor'
PUBLIC	??_R3?$ScriptRegistrant@VJFW_Message_Send_Powerup@@@@8 ; ScriptRegistrant<JFW_Message_Send_Powerup>::`RTTI Class Hierarchy Descriptor'
PUBLIC	??_R2?$ScriptRegistrant@VJFW_Message_Send_Powerup@@@@8 ; ScriptRegistrant<JFW_Message_Send_Powerup>::`RTTI Base Class Array'
PUBLIC	??_R1A@?0A@EA@?$ScriptRegistrant@VJFW_Message_Send_Powerup@@@@8 ; ScriptRegistrant<JFW_Message_Send_Powerup>::`RTTI Base Class Descriptor at (0,-1,0,64)'
PUBLIC	??_R4?$ScriptRegistrant@VJFW_Message_Send_Custom_Team@@@@6B@ ; ScriptRegistrant<JFW_Message_Send_Custom_Team>::`RTTI Complete Object Locator'
PUBLIC	??_R0?AV?$ScriptRegistrant@VJFW_Message_Send_Custom_Team@@@@@8 ; ScriptRegistrant<JFW_Message_Send_Custom_Team> `RTTI Type Descriptor'
PUBLIC	??_R3?$ScriptRegistrant@VJFW_Message_Send_Custom_Team@@@@8 ; ScriptRegistrant<JFW_Message_Send_Custom_Team>::`RTTI Class Hierarchy Descriptor'
PUBLIC	??_R2?$ScriptRegistrant@VJFW_Message_Send_Custom_Team@@@@8 ; ScriptRegistrant<JFW_Message_Send_Custom_Team>::`RTTI Base Class Array'
PUBLIC	??_R1A@?0A@EA@?$ScriptRegistrant@VJFW_Message_Send_Custom_Team@@@@8 ; ScriptRegistrant<JFW_Message_Send_Custom_Team>::`RTTI Base Class Descriptor at (0,-1,0,64)'
PUBLIC	??_R4?$ScriptRegistrant@VJFW_Spy_Switch_Team@@@@6B@ ; ScriptRegistrant<JFW_Spy_Switch_Team>::`RTTI Complete Object Locator'
PUBLIC	??_R0?AV?$ScriptRegistrant@VJFW_Spy_Switch_Team@@@@@8 ; ScriptRegistrant<JFW_Spy_Switch_Team> `RTTI Type Descriptor'
PUBLIC	??_R3?$ScriptRegistrant@VJFW_Spy_Switch_Team@@@@8 ; ScriptRegistrant<JFW_Spy_Switch_Team>::`RTTI Class Hierarchy Descriptor'
PUBLIC	??_R2?$ScriptRegistrant@VJFW_Spy_Switch_Team@@@@8 ; ScriptRegistrant<JFW_Spy_Switch_Team>::`RTTI Base Class Array'
PUBLIC	??_R1A@?0A@EA@?$ScriptRegistrant@VJFW_Spy_Switch_Team@@@@8 ; ScriptRegistrant<JFW_Spy_Switch_Team>::`RTTI Base Class Descriptor at (0,-1,0,64)'
PUBLIC	??_R4?$ScriptRegistrant@VJFW_Spy_Vehicle_Ignore@@@@6B@ ; ScriptRegistrant<JFW_Spy_Vehicle_Ignore>::`RTTI Complete Object Locator'
PUBLIC	??_R0?AV?$ScriptRegistrant@VJFW_Spy_Vehicle_Ignore@@@@@8 ; ScriptRegistrant<JFW_Spy_Vehicle_Ignore> `RTTI Type Descriptor'
PUBLIC	??_R3?$ScriptRegistrant@VJFW_Spy_Vehicle_Ignore@@@@8 ; ScriptRegistrant<JFW_Spy_Vehicle_Ignore>::`RTTI Class Hierarchy Descriptor'
PUBLIC	??_R2?$ScriptRegistrant@VJFW_Spy_Vehicle_Ignore@@@@8 ; ScriptRegistrant<JFW_Spy_Vehicle_Ignore>::`RTTI Base Class Array'
PUBLIC	??_R1A@?0A@EA@?$ScriptRegistrant@VJFW_Spy_Vehicle_Ignore@@@@8 ; ScriptRegistrant<JFW_Spy_Vehicle_Ignore>::`RTTI Base Class Descriptor at (0,-1,0,64)'
PUBLIC	??_R4?$ScriptRegistrant@VJFW_Spy_Vehicle_Ignore_New@@@@6B@ ; ScriptRegistrant<JFW_Spy_Vehicle_Ignore_New>::`RTTI Complete Object Locator'
PUBLIC	??_R0?AV?$ScriptRegistrant@VJFW_Spy_Vehicle_Ignore_New@@@@@8 ; ScriptRegistrant<JFW_Spy_Vehicle_Ignore_New> `RTTI Type Descriptor'
PUBLIC	??_R3?$ScriptRegistrant@VJFW_Spy_Vehicle_Ignore_New@@@@8 ; ScriptRegistrant<JFW_Spy_Vehicle_Ignore_New>::`RTTI Class Hierarchy Descriptor'
PUBLIC	??_R2?$ScriptRegistrant@VJFW_Spy_Vehicle_Ignore_New@@@@8 ; ScriptRegistrant<JFW_Spy_Vehicle_Ignore_New>::`RTTI Base Class Array'
PUBLIC	??_R1A@?0A@EA@?$ScriptRegistrant@VJFW_Spy_Vehicle_Ignore_New@@@@8 ; ScriptRegistrant<JFW_Spy_Vehicle_Ignore_New>::`RTTI Base Class Descriptor at (0,-1,0,64)'
PUBLIC	??_R4?$ScriptRegistrant@VJFW_Message_Send_Zone_Player_Vehicle@@@@6B@ ; ScriptRegistrant<JFW_Message_Send_Zone_Player_Vehicle>::`RTTI Complete Object Locator'
PUBLIC	??_R0?AV?$ScriptRegistrant@VJFW_Message_Send_Zone_Player_Vehicle@@@@@8 ; ScriptRegistrant<JFW_Message_Send_Zone_Player_Vehicle> `RTTI Type Descriptor'
PUBLIC	??_R3?$ScriptRegistrant@VJFW_Message_Send_Zone_Player_Vehicle@@@@8 ; ScriptRegistrant<JFW_Message_Send_Zone_Player_Vehicle>::`RTTI Class Hierarchy Descriptor'
PUBLIC	??_R2?$ScriptRegistrant@VJFW_Message_Send_Zone_Player_Vehicle@@@@8 ; ScriptRegistrant<JFW_Message_Send_Zone_Player_Vehicle>::`RTTI Base Class Array'
PUBLIC	??_R1A@?0A@EA@?$ScriptRegistrant@VJFW_Message_Send_Zone_Player_Vehicle@@@@8 ; ScriptRegistrant<JFW_Message_Send_Zone_Player_Vehicle>::`RTTI Base Class Descriptor at (0,-1,0,64)'
PUBLIC	??_R4?$ScriptRegistrant@VJFW_Water_Level@@@@6B@	; ScriptRegistrant<JFW_Water_Level>::`RTTI Complete Object Locator'
PUBLIC	??_R0?AV?$ScriptRegistrant@VJFW_Water_Level@@@@@8 ; ScriptRegistrant<JFW_Water_Level> `RTTI Type Descriptor'
PUBLIC	??_R3?$ScriptRegistrant@VJFW_Water_Level@@@@8	; ScriptRegistrant<JFW_Water_Level>::`RTTI Class Hierarchy Descriptor'
PUBLIC	??_R2?$ScriptRegistrant@VJFW_Water_Level@@@@8	; ScriptRegistrant<JFW_Water_Level>::`RTTI Base Class Array'
PUBLIC	??_R1A@?0A@EA@?$ScriptRegistrant@VJFW_Water_Level@@@@8 ; ScriptRegistrant<JFW_Water_Level>::`RTTI Base Class Descriptor at (0,-1,0,64)'
PUBLIC	??_R4?$ScriptRegistrant@VJFW_Submarine@@@@6B@	; ScriptRegistrant<JFW_Submarine>::`RTTI Complete Object Locator'
PUBLIC	??_R0?AV?$ScriptRegistrant@VJFW_Submarine@@@@@8	; ScriptRegistrant<JFW_Submarine> `RTTI Type Descriptor'
PUBLIC	??_R3?$ScriptRegistrant@VJFW_Submarine@@@@8	; ScriptRegistrant<JFW_Submarine>::`RTTI Class Hierarchy Descriptor'
PUBLIC	??_R2?$ScriptRegistrant@VJFW_Submarine@@@@8	; ScriptRegistrant<JFW_Submarine>::`RTTI Base Class Array'
PUBLIC	??_R1A@?0A@EA@?$ScriptRegistrant@VJFW_Submarine@@@@8 ; ScriptRegistrant<JFW_Submarine>::`RTTI Base Class Descriptor at (0,-1,0,64)'
PUBLIC	??_R4?$ScriptRegistrant@VJFW_Reaper_Web@@@@6B@	; ScriptRegistrant<JFW_Reaper_Web>::`RTTI Complete Object Locator'
PUBLIC	??_R0?AV?$ScriptRegistrant@VJFW_Reaper_Web@@@@@8 ; ScriptRegistrant<JFW_Reaper_Web> `RTTI Type Descriptor'
PUBLIC	??_R3?$ScriptRegistrant@VJFW_Reaper_Web@@@@8	; ScriptRegistrant<JFW_Reaper_Web>::`RTTI Class Hierarchy Descriptor'
PUBLIC	??_R2?$ScriptRegistrant@VJFW_Reaper_Web@@@@8	; ScriptRegistrant<JFW_Reaper_Web>::`RTTI Base Class Array'
PUBLIC	??_R1A@?0A@EA@?$ScriptRegistrant@VJFW_Reaper_Web@@@@8 ; ScriptRegistrant<JFW_Reaper_Web>::`RTTI Base Class Descriptor at (0,-1,0,64)'
PUBLIC	??_R4?$ScriptRegistrant@VJFW_Toxic_Grenade@@@@6B@ ; ScriptRegistrant<JFW_Toxic_Grenade>::`RTTI Complete Object Locator'
PUBLIC	??_R0?AV?$ScriptRegistrant@VJFW_Toxic_Grenade@@@@@8 ; ScriptRegistrant<JFW_Toxic_Grenade> `RTTI Type Descriptor'
PUBLIC	??_R3?$ScriptRegistrant@VJFW_Toxic_Grenade@@@@8	; ScriptRegistrant<JFW_Toxic_Grenade>::`RTTI Class Hierarchy Descriptor'
PUBLIC	??_R2?$ScriptRegistrant@VJFW_Toxic_Grenade@@@@8	; ScriptRegistrant<JFW_Toxic_Grenade>::`RTTI Base Class Array'
PUBLIC	??_R1A@?0A@EA@?$ScriptRegistrant@VJFW_Toxic_Grenade@@@@8 ; ScriptRegistrant<JFW_Toxic_Grenade>::`RTTI Base Class Descriptor at (0,-1,0,64)'
PUBLIC	??_R4?$ScriptRegistrant@VJFW_Hijacker_Vehicle@@@@6B@ ; ScriptRegistrant<JFW_Hijacker_Vehicle>::`RTTI Complete Object Locator'
PUBLIC	??_R0?AV?$ScriptRegistrant@VJFW_Hijacker_Vehicle@@@@@8 ; ScriptRegistrant<JFW_Hijacker_Vehicle> `RTTI Type Descriptor'
PUBLIC	??_R3?$ScriptRegistrant@VJFW_Hijacker_Vehicle@@@@8 ; ScriptRegistrant<JFW_Hijacker_Vehicle>::`RTTI Class Hierarchy Descriptor'
PUBLIC	??_R2?$ScriptRegistrant@VJFW_Hijacker_Vehicle@@@@8 ; ScriptRegistrant<JFW_Hijacker_Vehicle>::`RTTI Base Class Array'
PUBLIC	??_R1A@?0A@EA@?$ScriptRegistrant@VJFW_Hijacker_Vehicle@@@@8 ; ScriptRegistrant<JFW_Hijacker_Vehicle>::`RTTI Base Class Descriptor at (0,-1,0,64)'
PUBLIC	??_R4?$ScriptRegistrant@VJFW_Hijacker_Vehicle_2@@@@6B@ ; ScriptRegistrant<JFW_Hijacker_Vehicle_2>::`RTTI Complete Object Locator'
PUBLIC	??_R0?AV?$ScriptRegistrant@VJFW_Hijacker_Vehicle_2@@@@@8 ; ScriptRegistrant<JFW_Hijacker_Vehicle_2> `RTTI Type Descriptor'
PUBLIC	??_R3?$ScriptRegistrant@VJFW_Hijacker_Vehicle_2@@@@8 ; ScriptRegistrant<JFW_Hijacker_Vehicle_2>::`RTTI Class Hierarchy Descriptor'
PUBLIC	??_R2?$ScriptRegistrant@VJFW_Hijacker_Vehicle_2@@@@8 ; ScriptRegistrant<JFW_Hijacker_Vehicle_2>::`RTTI Base Class Array'
PUBLIC	??_R1A@?0A@EA@?$ScriptRegistrant@VJFW_Hijacker_Vehicle_2@@@@8 ; ScriptRegistrant<JFW_Hijacker_Vehicle_2>::`RTTI Base Class Descriptor at (0,-1,0,64)'
PUBLIC	??_R4?$ScriptRegistrant@VJFW_Building_Preset_Disable@@@@6B@ ; ScriptRegistrant<JFW_Building_Preset_Disable>::`RTTI Complete Object Locator'
PUBLIC	??_R0?AV?$ScriptRegistrant@VJFW_Building_Preset_Disable@@@@@8 ; ScriptRegistrant<JFW_Building_Preset_Disable> `RTTI Type Descriptor'
PUBLIC	??_R3?$ScriptRegistrant@VJFW_Building_Preset_Disable@@@@8 ; ScriptRegistrant<JFW_Building_Preset_Disable>::`RTTI Class Hierarchy Descriptor'
PUBLIC	??_R2?$ScriptRegistrant@VJFW_Building_Preset_Disable@@@@8 ; ScriptRegistrant<JFW_Building_Preset_Disable>::`RTTI Base Class Array'
PUBLIC	??_R1A@?0A@EA@?$ScriptRegistrant@VJFW_Building_Preset_Disable@@@@8 ; ScriptRegistrant<JFW_Building_Preset_Disable>::`RTTI Base Class Descriptor at (0,-1,0,64)'
PUBLIC	__real@00000000
PUBLIC	__real@0000000000000000
PUBLIC	__real@02081cea
PUBLIC	__real@3dcccccd
PUBLIC	__real@3f000000
PUBLIC	__real@3f79999a
PUBLIC	__real@3f800000
PUBLIC	__real@3fc90fdb
PUBLIC	__real@3fe0000000000000
PUBLIC	__real@3ff0000000000000
PUBLIC	__real@40000000
PUBLIC	__real@4000000000000000
PUBLIC	__real@40001062
PUBLIC	__real@40400000
PUBLIC	__real@40490fdb
PUBLIC	__real@40a00000
PUBLIC	__real@40a00831
PUBLIC	__real@40c90fdb
PUBLIC	__real@41200000
PUBLIC	__real@41a00000
PUBLIC	__real@42c80000
PUBLIC	__real@43340000
PUBLIC	__real@437f0000
PUBLIC	__real@44000000
PUBLIC	__real@44800000
PUBLIC	__real@461c4000
PUBLIC	__real@47c34f80
PUBLIC	__real@bf800000
PUBLIC	__real@c0000000
PUBLIC	__xmm@80000000000000008000000000000000
PUBLIC	__xmm@80000000800000008000000080000000
EXTRN	__purecall:PROC
EXTRN	??2@YAPAXI@Z:PROC				; operator new
EXTRN	??3@YAXPAX@Z:PROC				; operator delete
EXTRN	_atexit:PROC
EXTRN	__imp___wassert:PROC
EXTRN	__imp__atof:PROC
EXTRN	__imp__ceil:PROC
EXTRN	__imp__atoi:PROC
EXTRN	??_V@YAXPAX@Z:PROC				; operator delete[]
EXTRN	??_U@YAPAXI@Z:PROC				; operator new[]
EXTRN	__imp__sprintf:PROC
EXTRN	__imp___stricmp:PROC
EXTRN	__imp__GetCurrentThreadId@0:PROC
EXTRN	__imp__OutputDebugStringA@4:PROC
EXTRN	?SetThreadTrackingInformation@@YAXPBDI0@Z:PROC	; SetThreadTrackingInformation
EXTRN	?Random_Float@WWMath@@SAMXZ:PROC		; WWMath::Random_Float
EXTRN	??0ScriptImpClass@@QAE@XZ:PROC			; ScriptImpClass::ScriptImpClass
EXTRN	?CheckPlayerType@ScriptImpClass@@QAEHPAVScriptableGameObj@@H@Z:PROC ; ScriptImpClass::CheckPlayerType
EXTRN	?Auto_Save_Variable@ScriptImpClass@@QAEXPAXHH@Z:PROC ; ScriptImpClass::Auto_Save_Variable
EXTRN	??1ScriptImpClass@@UAE@XZ:PROC			; ScriptImpClass::~ScriptImpClass
EXTRN	?Get_Name@ScriptImpClass@@UAEPBDXZ:PROC		; ScriptImpClass::Get_Name
EXTRN	?Set_Parameters_String@ScriptImpClass@@UAEXPBD@Z:PROC ; ScriptImpClass::Set_Parameters_String
EXTRN	?Get_Parameters_String@ScriptImpClass@@UAEXPADI@Z:PROC ; ScriptImpClass::Get_Parameters_String
EXTRN	?Get_Parameter@ScriptImpClass@@QAEPBDPBD@Z:PROC	; ScriptImpClass::Get_Parameter
EXTRN	?Get_Parameter@ScriptImpClass@@QAEPBDH@Z:PROC	; ScriptImpClass::Get_Parameter
EXTRN	?Get_Int_Parameter@ScriptImpClass@@QAEHPBD@Z:PROC ; ScriptImpClass::Get_Int_Parameter
EXTRN	?Get_Float_Parameter@ScriptImpClass@@QAEMPBD@Z:PROC ; ScriptImpClass::Get_Float_Parameter
EXTRN	?Get_Vector3_Parameter@ScriptImpClass@@QAE?AVVector3@@PBD@Z:PROC ; ScriptImpClass::Get_Vector3_Parameter
EXTRN	?Destroy_Script@ScriptImpClass@@QAEXXZ:PROC	; ScriptImpClass::Destroy_Script
EXTRN	?Attach@ScriptImpClass@@MAEXPAVScriptableGameObj@@@Z:PROC ; ScriptImpClass::Attach
EXTRN	?Detach@ScriptImpClass@@MAEXPAVScriptableGameObj@@@Z:PROC ; ScriptImpClass::Detach
EXTRN	?Save@ScriptImpClass@@MAEXAAVScriptSaver@@@Z:PROC ; ScriptImpClass::Save
EXTRN	?Load@ScriptImpClass@@MAEXAAVScriptLoader@@@Z:PROC ; ScriptImpClass::Load
EXTRN	??1ScriptFactory@@UAE@XZ:PROC			; ScriptFactory::~ScriptFactory
EXTRN	??0ScriptFactory@@IAE@PBD0@Z:PROC		; ScriptFactory::ScriptFactory
EXTRN	?Console_Input@@YAXPBD@Z:PROC			; Console_Input
EXTRN	??1ThreadClass@@UAE@XZ:PROC			; ThreadClass::~ThreadClass
EXTRN	__imp_?Format@StringClass@@QAAHPBDZZ:PROC
EXTRN	__imp_?Get_String@StringClass@@AAEXH_N@Z:PROC
EXTRN	__imp_?Free_String@StringClass@@AAEXXZ:PROC
EXTRN	__imp_?Free_String@WideStringClass@@AAEXXZ:PROC
EXTRN	?Find_Entry@INIClass@@QBEPAUINIEntry@@PBD0@Z:PROC ; INIClass::Find_Entry
EXTRN	?Find_Section@INIClass@@QBEPAUINISection@@PBD@Z:PROC ; INIClass::Find_Section
EXTRN	??1INIClass@@UAE@XZ:PROC			; INIClass::~INIClass
EXTRN	?Get_Definition_Name@@YAPBDK@Z:PROC		; Get_Definition_Name
EXTRN	?Set@Matrix3D@@QAEXABVMatrix3@@ABVVector3@@@Z:PROC ; Matrix3D::Set
EXTRN	?Set@Matrix3D@@QAEXABVQuaternion@@ABVVector3@@@Z:PROC ; Matrix3D::Set
EXTRN	?Get_Object_Type@@YAHPAVScriptableGameObj@@@Z:PROC ; Get_Object_Type
EXTRN	?Find_Object_By_Preset@@YAPAVScriptableGameObj@@HPBD@Z:PROC ; Find_Object_By_Preset
EXTRN	?Is_Unit_In_Range@@YA_NPBDMVVector3@@H_N@Z:PROC	; Is_Unit_In_Range
EXTRN	?Get_Player_ID@@YAJPAVScriptableGameObj@@@Z:PROC ; Get_Player_ID
EXTRN	?Get_Player_Name_By_ID@@YAPBDH@Z:PROC		; Get_Player_Name_By_ID
EXTRN	?Change_Team_2@@YAXPAVScriptableGameObj@@H@Z:PROC ; Change_Team_2
EXTRN	?Get_Current_Weapon@@YAPBDPAVScriptableGameObj@@@Z:PROC ; Get_Current_Weapon
EXTRN	?Get_Vehicle@@YAPAVScriptableGameObj@@PAV1@@Z:PROC ; Get_Vehicle
EXTRN	?Toggle_Fly_Mode@@YAXPAVScriptableGameObj@@@Z:PROC ; Toggle_Fly_Mode
EXTRN	?Get_Vehicle_Occupant_Count@@YAHPAVScriptableGameObj@@@Z:PROC ; Get_Vehicle_Occupant_Count
EXTRN	?Get_Vehicle_Driver@@YAPAVScriptableGameObj@@PAV1@@Z:PROC ; Get_Vehicle_Driver
EXTRN	?Force_Occupants_Exit@@YAXPAVScriptableGameObj@@@Z:PROC ; Force_Occupants_Exit
EXTRN	?Get_Vehicle_Return@@YAPAVScriptableGameObj@@PAV1@@Z:PROC ; Get_Vehicle_Return
EXTRN	?Soldier_Transition_Vehicle@@YAXPAVScriptableGameObj@@@Z:PROC ; Soldier_Transition_Vehicle
EXTRN	?Is_Spy@@YA_NPAVScriptableGameObj@@@Z:PROC	; Is_Spy
EXTRN	?Set@Matrix3@@QAEXABVQuaternion@@@Z:PROC	; Matrix3::Set
EXTRN	??1ReferencerClass@@UAE@XZ:PROC			; ReferencerClass::~ReferencerClass
EXTRN	?On_Post_Load@ReferencerClass@@UAEXXZ:PROC	; ReferencerClass::On_Post_Load
EXTRN	??4ReferencerClass@@QAEAAV0@PAVScriptableGameObj@@@Z:PROC ; ReferencerClass::operator=
EXTRN	?Is_Teammate@DamageableGameObj@@QAE_NPAV1@@Z:PROC ; DamageableGameObj::Is_Teammate
EXTRN	?Set@LineSegClass@@QAEXABV1@ABVMatrix3D@@@Z:PROC ; LineSegClass::Set
EXTRN	?Enable_Base_Radar@@YAXH_N@Z:PROC		; Enable_Base_Radar
EXTRN	?Is_Base_Powered@@YA_NH@Z:PROC			; Is_Base_Powered
EXTRN	?Disable_All_Presets_By_Factory_Tech@@YAXW4BuildingType@BuildingConstants@@I_N@Z:PROC ; Disable_All_Presets_By_Factory_Tech
EXTRN	?Repair_All_Buildings_By_Team@@YAXHHM@Z:PROC	; Repair_All_Buildings_By_Team
EXTRN	?Repair_All_Static_Vehicles_By_Team@@YAXHH@Z:PROC ; Repair_All_Static_Vehicles_By_Team
EXTRN	?Repair_All_Buildings_By_Team_Radius@@YAXHHMM@Z:PROC ; Repair_All_Buildings_By_Team_Radius
EXTRN	?Repair_All_Turrets_By_Team@@YAXHM@Z:PROC	; Repair_All_Turrets_By_Team
EXTRN	?Create_Effect_All_Stealthed_Objects_Area@@YAXABVVector3@@MPBD0H@Z:PROC ; Create_Effect_All_Stealthed_Objects_Area
EXTRN	?Create_Effect_All_Of_Preset@@YAXPBD0M_N@Z:PROC	; Create_Effect_All_Of_Preset
EXTRN	?Is_Script_Attached@@YA_NPAVScriptableGameObj@@PBD@Z:PROC ; Is_Script_Attached
EXTRN	?Find_Object_With_Script@@YAPAVScriptableGameObj@@PBD@Z:PROC ; Find_Object_With_Script
EXTRN	?Detach@JFW_Key_Hook_Base@@UAEXPAVScriptableGameObj@@@Z:PROC ; JFW_Key_Hook_Base::Detach
EXTRN	?Destroyed@JFW_Key_Hook_Base@@UAEXPAVScriptableGameObj@@@Z:PROC ; JFW_Key_Hook_Base::Destroyed
EXTRN	??1JFW_Key_Hook_Base@@UAE@XZ:PROC		; JFW_Key_Hook_Base::~JFW_Key_Hook_Base
EXTRN	?Detach@MultiKeyHookScriptImpClass@@UAEXPAVScriptableGameObj@@@Z:PROC ; MultiKeyHookScriptImpClass::Detach
EXTRN	?Destroyed@MultiKeyHookScriptImpClass@@UAEXPAVScriptableGameObj@@@Z:PROC ; MultiKeyHookScriptImpClass::Destroyed
EXTRN	??_E?$SList@UKeyHookWrapperStruct@MultiKeyHookScriptImpClass@@@@UAEPAXI@Z:PROC ; SList<MultiKeyHookScriptImpClass::KeyHookWrapperStruct>::`vector deleting destructor'
EXTRN	?Detach@JFW_Object_Created_Hook_Base@@UAEXPAVScriptableGameObj@@@Z:PROC ; JFW_Object_Created_Hook_Base::Detach
EXTRN	?Created@JFW_Object_Created_Hook_Base@@UAEXPAVScriptableGameObj@@@Z:PROC ; JFW_Object_Created_Hook_Base::Created
EXTRN	??1JFW_Object_Created_Hook_Base@@UAE@XZ:PROC	; JFW_Object_Created_Hook_Base::~JFW_Object_Created_Hook_Base
EXTRN	?Kill_All_Buildings_By_Team@@YAXH@Z:PROC	; Kill_All_Buildings_By_Team
EXTRN	?Send_Message_Team@@YAXHIIIPBD@Z:PROC		; Send_Message_Team
EXTRN	?Ranged_Stealth_On_Team@@YAXPAUGap_ListNode@@@Z:PROC ; Ranged_Stealth_On_Team
EXTRN	?Force_Vehicle_Entry@@YAXPAVScriptableGameObj@@0@Z:PROC ; Force_Vehicle_Entry
EXTRN	??_EJFW_Team_DM_Zone@@UAEPAXI@Z:PROC		; JFW_Team_DM_Zone::`vector deleting destructor'
EXTRN	??_EJFW_Team_DM_Controller@@UAEPAXI@Z:PROC	; JFW_Team_DM_Controller::`vector deleting destructor'
EXTRN	??_EJFW_Team_DM_Attatched@@UAEPAXI@Z:PROC	; JFW_Team_DM_Attatched::`vector deleting destructor'
EXTRN	??_EJFW_Assault_Powerplant_Controller@@UAEPAXI@Z:PROC ; JFW_Assault_Powerplant_Controller::`vector deleting destructor'
EXTRN	??_EJFW_Resource_Collector@@UAEPAXI@Z:PROC	; JFW_Resource_Collector::`vector deleting destructor'
EXTRN	??_EJFW_Resource_Refinery@@UAEPAXI@Z:PROC	; JFW_Resource_Refinery::`vector deleting destructor'
EXTRN	??_EJFW_Resource_Field@@UAEPAXI@Z:PROC		; JFW_Resource_Field::`vector deleting destructor'
EXTRN	??_EJFW_Domination_Zone@@UAEPAXI@Z:PROC		; JFW_Domination_Zone::`vector deleting destructor'
EXTRN	??_EJFW_Domination_Controler@@UAEPAXI@Z:PROC	; JFW_Domination_Controler::`vector deleting destructor'
EXTRN	??_EJFW_Iron_Curtain_Zone@@UAEPAXI@Z:PROC	; JFW_Iron_Curtain_Zone::`vector deleting destructor'
EXTRN	??_EJFW_Chrono_Controler_Zone@@UAEPAXI@Z:PROC	; JFW_Chrono_Controler_Zone::`vector deleting destructor'
EXTRN	??_EJFW_Drone_Damage@@UAEPAXI@Z:PROC		; JFW_Drone_Damage::`vector deleting destructor'
EXTRN	??_EJFW_Conyard@@UAEPAXI@Z:PROC			; JFW_Conyard::`vector deleting destructor'
EXTRN	??_EJFW_Conyard_Vehicle_Buildings@@UAEPAXI@Z:PROC ; JFW_Conyard_Vehicle_Buildings::`vector deleting destructor'
EXTRN	??_EJFW_Flying_Infantry@@UAEPAXI@Z:PROC		; JFW_Flying_Infantry::`vector deleting destructor'
EXTRN	??_EJFW_Flying_Infantry_Custom@@UAEPAXI@Z:PROC	; JFW_Flying_Infantry_Custom::`vector deleting destructor'
EXTRN	??_EJFW_Flying_Infantry_Powerup@@UAEPAXI@Z:PROC	; JFW_Flying_Infantry_Powerup::`vector deleting destructor'
EXTRN	??_EJFW_Flying_Infantry_Enter@@UAEPAXI@Z:PROC	; JFW_Flying_Infantry_Enter::`vector deleting destructor'
EXTRN	??_EJFW_Flying_Infantry_Exit@@UAEPAXI@Z:PROC	; JFW_Flying_Infantry_Exit::`vector deleting destructor'
EXTRN	??_EJFW_Team_DM_Controller_2@@UAEPAXI@Z:PROC	; JFW_Team_DM_Controller_2::`vector deleting destructor'
EXTRN	??_EJFW_Vehicle_Thief@@UAEPAXI@Z:PROC		; JFW_Vehicle_Thief::`vector deleting destructor'
EXTRN	??_EJFW_Vehicle_Thief_2@@UAEPAXI@Z:PROC		; JFW_Vehicle_Thief_2::`vector deleting destructor'
