; Listing generated by Microsoft (R) Optimizing Compiler Version 17.00.61219.0 

	TITLE	X:\GitHub\Renegade\Dragonade_RxD\scripts\jfwzone.cpp
	.686P
	.XMM
	include listing.inc
	.model	flat

INCLUDELIB MSVCRTD
INCLUDELIB OLDNAMES

CONST	SEGMENT
_DONT_MOVE_ARRIVED_DIST DD 0447a0000r		; 1000
CONST	ENDS
PUBLIC	??_H@YGXPAXIHP6EPAX0@Z@Z			; `vector constructor iterator'
PUBLIC	??_I@YGXPAXIHP6EX0@Z@Z				; `vector destructor iterator'
PUBLIC	_acosf
PUBLIC	_asinf
PUBLIC	_atanf
PUBLIC	_atan2f
PUBLIC	_ceilf
PUBLIC	_cosf
PUBLIC	_floorf
PUBLIC	_sinf
PUBLIC	_sqrtf
PUBLIC	?acos@@YAMM@Z					; acos
PUBLIC	?asin@@YAMM@Z					; asin
PUBLIC	?atan@@YAMM@Z					; atan
PUBLIC	?atan2@@YAMMM@Z					; atan2
PUBLIC	?cos@@YAMM@Z					; cos
PUBLIC	?sin@@YAMM@Z					; sin
PUBLIC	?sqrt@@YAMM@Z					; sqrt
PUBLIC	?Fabs@WWMath@@SAMM@Z				; WWMath::Fabs
PUBLIC	?Float_To_Int_Chop@WWMath@@SAHABM@Z		; WWMath::Float_To_Int_Chop
PUBLIC	?Float_To_Int_Floor@WWMath@@SAHABM@Z		; WWMath::Float_To_Int_Floor
PUBLIC	?Cos@WWMath@@SAMM@Z				; WWMath::Cos
PUBLIC	?Sin@WWMath@@SAMM@Z				; WWMath::Sin
PUBLIC	?Sqrt@WWMath@@SAMM@Z				; WWMath::Sqrt
PUBLIC	?Inv_Sqrt@WWMath@@SIMM@Z			; WWMath::Inv_Sqrt
PUBLIC	?Float_To_Long@WWMath@@SAJM@Z			; WWMath::Float_To_Long
PUBLIC	?Fast_Sin@WWMath@@SAMM@Z			; WWMath::Fast_Sin
PUBLIC	?Fast_Inv_Sin@WWMath@@SAMM@Z			; WWMath::Fast_Inv_Sin
PUBLIC	?Fast_Cos@WWMath@@SAMM@Z			; WWMath::Fast_Cos
PUBLIC	?Fast_Inv_Cos@WWMath@@SAMM@Z			; WWMath::Fast_Inv_Cos
PUBLIC	?Fast_Acos@WWMath@@SAMM@Z			; WWMath::Fast_Acos
PUBLIC	?Fast_Asin@WWMath@@SAMM@Z			; WWMath::Fast_Asin
PUBLIC	?Acos@WWMath@@SAMM@Z				; WWMath::Acos
PUBLIC	?Asin@WWMath@@SAMM@Z				; WWMath::Asin
PUBLIC	?Atan@WWMath@@SAMM@Z				; WWMath::Atan
PUBLIC	?Atan2@WWMath@@SAMMM@Z				; WWMath::Atan2
PUBLIC	?Sign@WWMath@@SAMM@Z				; WWMath::Sign
PUBLIC	?Ceil@WWMath@@SAMM@Z				; WWMath::Ceil
PUBLIC	?Floor@WWMath@@SAMM@Z				; WWMath::Floor
PUBLIC	?Fast_Is_Float_Positive@WWMath@@SA_NABM@Z	; WWMath::Fast_Is_Float_Positive
PUBLIC	?Random_Float@WWMath@@SAMMM@Z			; WWMath::Random_Float
PUBLIC	?Clamp@WWMath@@SAMMMM@Z				; WWMath::Clamp
PUBLIC	?Clamp@WWMath@@SANNNN@Z				; WWMath::Clamp
PUBLIC	?Clamp_Int@WWMath@@SAHHHH@Z			; WWMath::Clamp_Int
PUBLIC	?Wrap@WWMath@@SAMMMM@Z				; WWMath::Wrap
PUBLIC	?Wrap@WWMath@@SANNNN@Z				; WWMath::Wrap
PUBLIC	?Min@WWMath@@SAMMM@Z				; WWMath::Min
PUBLIC	?Max@WWMath@@SAMMM@Z				; WWMath::Max
PUBLIC	?Lerp@WWMath@@SAMMMM@Z				; WWMath::Lerp
PUBLIC	?Lerp@WWMath@@SANNNM@Z				; WWMath::Lerp
PUBLIC	?Lerp@WWMath@@SAHHHM@Z				; WWMath::Lerp
PUBLIC	?Float_To_Long@WWMath@@SAJN@Z			; WWMath::Float_To_Long
PUBLIC	?Unit_Float_To_Byte@WWMath@@SAEM@Z		; WWMath::Unit_Float_To_Byte
PUBLIC	?Byte_To_Unit_Float@WWMath@@SAME@Z		; WWMath::Byte_To_Unit_Float
PUBLIC	?Is_Valid_Float@WWMath@@SA_NM@Z			; WWMath::Is_Valid_Float
PUBLIC	?Is_Valid_Double@WWMath@@SA_NN@Z		; WWMath::Is_Valid_Double
PUBLIC	??4WWMath@@QAEAAV0@ABV0@@Z			; WWMath::operator=
PUBLIC	??B?$RefArrayHelper@M$0EAA@@@QAEPAMXZ		; RefArrayHelper<float,1024>::operator float *
PUBLIC	??0Vector3@@QAE@XZ				; Vector3::Vector3
PUBLIC	??0Vector3@@QAE@ABV0@@Z				; Vector3::Vector3
PUBLIC	??0Vector3@@QAE@MMM@Z				; Vector3::Vector3
PUBLIC	??4Vector3@@QAEAAV0@ABV0@@Z			; Vector3::operator=
PUBLIC	?Set@Vector3@@QAEXMMM@Z				; Vector3::Set
PUBLIC	??AVector3@@QAEAAMH@Z				; Vector3::operator[]
PUBLIC	??AVector3@@QBEABMH@Z				; Vector3::operator[]
PUBLIC	?Normalize@Vector3@@QAEXXZ			; Vector3::Normalize
PUBLIC	?Length@Vector3@@QBEMXZ				; Vector3::Length
PUBLIC	?Length2@Vector3@@QBEMXZ			; Vector3::Length2
PUBLIC	??YVector3@@QAEAAV0@ABV0@@Z			; Vector3::operator+=
PUBLIC	??ZVector3@@QAEAAV0@ABV0@@Z			; Vector3::operator-=
PUBLIC	??XVector3@@QAEAAV0@M@Z				; Vector3::operator*=
PUBLIC	??_0Vector3@@QAEAAV0@M@Z			; Vector3::operator/=
PUBLIC	??D@YA?AVVector3@@ABV0@M@Z			; operator*
PUBLIC	??D@YA?AVVector3@@MABV0@@Z			; operator*
PUBLIC	??H@YA?AVVector3@@ABV0@0@Z			; operator+
PUBLIC	??G@YA?AVVector3@@ABV0@0@Z			; operator-
PUBLIC	?Add@Vector3@@SAXABV1@0PAV1@@Z			; Vector3::Add
PUBLIC	?Subtract@Vector3@@SAXABV1@0PAV1@@Z		; Vector3::Subtract
PUBLIC	?Swap@@YAXAAVVector3@@0@Z			; Swap
PUBLIC	??0GameObjObserverClass@@QAE@XZ			; GameObjObserverClass::GameObjObserverClass
PUBLIC	??1GameObjObserverClass@@UAE@XZ			; GameObjObserverClass::~GameObjObserverClass
PUBLIC	?Set_ID@GameObjObserverClass@@QAEXH@Z		; GameObjObserverClass::Set_ID
PUBLIC	?Get_ID@GameObjObserverClass@@QAEHXZ		; GameObjObserverClass::Get_ID
PUBLIC	?Owner@GameObjObserverClass@@UAEPAVScriptableGameObj@@XZ ; GameObjObserverClass::Owner
PUBLIC	??0GameObjObserverClass@@QAE@ABV0@@Z		; GameObjObserverClass::GameObjObserverClass
PUBLIC	??4GameObjObserverClass@@QAEAAV0@ABV0@@Z	; GameObjObserverClass::operator=
PUBLIC	??_GGameObjObserverClass@@UAEPAXI@Z		; GameObjObserverClass::`scalar deleting destructor'
PUBLIC	??_EGameObjObserverClass@@UAEPAXI@Z		; GameObjObserverClass::`vector deleting destructor'
PUBLIC	??1ScriptClass@@UAE@XZ				; ScriptClass::~ScriptClass
PUBLIC	??0ScriptClass@@QAE@XZ				; ScriptClass::ScriptClass
PUBLIC	??0ScriptClass@@QAE@ABV0@@Z			; ScriptClass::ScriptClass
PUBLIC	??4ScriptClass@@QAEAAV0@ABV0@@Z			; ScriptClass::operator=
PUBLIC	??_GScriptClass@@UAEPAXI@Z			; ScriptClass::`scalar deleting destructor'
PUBLIC	??_EScriptClass@@UAEPAXI@Z			; ScriptClass::`vector deleting destructor'
PUBLIC	?SetFactory@ScriptImpClass@@QAEXPAVScriptFactory@@@Z ; ScriptImpClass::SetFactory
PUBLIC	?Created@ScriptImpClass@@UAEXPAVScriptableGameObj@@@Z ; ScriptImpClass::Created
PUBLIC	?Destroyed@ScriptImpClass@@UAEXPAVScriptableGameObj@@@Z ; ScriptImpClass::Destroyed
PUBLIC	?Killed@ScriptImpClass@@UAEXPAVScriptableGameObj@@0@Z ; ScriptImpClass::Killed
PUBLIC	?Damaged@ScriptImpClass@@UAEXPAVScriptableGameObj@@0M@Z ; ScriptImpClass::Damaged
PUBLIC	?Custom@ScriptImpClass@@UAEXPAVScriptableGameObj@@HH0@Z ; ScriptImpClass::Custom
PUBLIC	?Sound_Heard@ScriptImpClass@@UAEXPAVScriptableGameObj@@ABUCombatSound@@@Z ; ScriptImpClass::Sound_Heard
PUBLIC	?Enemy_Seen@ScriptImpClass@@UAEXPAVScriptableGameObj@@0@Z ; ScriptImpClass::Enemy_Seen
PUBLIC	?Action_Complete@ScriptImpClass@@UAEXPAVScriptableGameObj@@HW4ActionCompleteReason@@@Z ; ScriptImpClass::Action_Complete
PUBLIC	?Timer_Expired@ScriptImpClass@@UAEXPAVScriptableGameObj@@H@Z ; ScriptImpClass::Timer_Expired
PUBLIC	?Animation_Complete@ScriptImpClass@@UAEXPAVScriptableGameObj@@PBD@Z ; ScriptImpClass::Animation_Complete
PUBLIC	?Poked@ScriptImpClass@@UAEXPAVScriptableGameObj@@0@Z ; ScriptImpClass::Poked
PUBLIC	?Entered@ScriptImpClass@@UAEXPAVScriptableGameObj@@0@Z ; ScriptImpClass::Entered
PUBLIC	?Exited@ScriptImpClass@@UAEXPAVScriptableGameObj@@0@Z ; ScriptImpClass::Exited
PUBLIC	?Owner@ScriptImpClass@@UAEPAVScriptableGameObj@@XZ ; ScriptImpClass::Owner
PUBLIC	?Get_Owner_Ptr@ScriptImpClass@@UAEPAPAVScriptableGameObj@@XZ ; ScriptImpClass::Get_Owner_Ptr
PUBLIC	?Save_Data@ScriptImpClass@@UAEXAAVScriptSaver@@@Z ; ScriptImpClass::Save_Data
PUBLIC	?Load_Data@ScriptImpClass@@UAEXAAVScriptLoader@@@Z ; ScriptImpClass::Load_Data
PUBLIC	?Register_Auto_Save_Variables@ScriptImpClass@@UAEXXZ ; ScriptImpClass::Register_Auto_Save_Variables
PUBLIC	?Get_Parameter_Count@ScriptImpClass@@QAEHXZ	; ScriptImpClass::Get_Parameter_Count
PUBLIC	?Get_Int_Parameter@ScriptImpClass@@QAEHH@Z	; ScriptImpClass::Get_Int_Parameter
PUBLIC	?Get_Float_Parameter@ScriptImpClass@@QAEMH@Z	; ScriptImpClass::Get_Float_Parameter
PUBLIC	?Get_Bool_Parameter@ScriptImpClass@@QAE_NPBD@Z	; ScriptImpClass::Get_Bool_Parameter
PUBLIC	?Get_Bool_Parameter@ScriptImpClass@@QAE_NH@Z	; ScriptImpClass::Get_Bool_Parameter
PUBLIC	??0ScriptImpClass@@QAE@ABV0@@Z			; ScriptImpClass::ScriptImpClass
PUBLIC	??4ScriptImpClass@@QAEAAV0@ABV0@@Z		; ScriptImpClass::operator=
PUBLIC	??_GScriptImpClass@@UAEPAXI@Z			; ScriptImpClass::`scalar deleting destructor'
PUBLIC	??_EScriptImpClass@@UAEPAXI@Z			; ScriptImpClass::`vector deleting destructor'
PUBLIC	??0ScriptFactory@@QAE@ABV0@@Z			; ScriptFactory::ScriptFactory
PUBLIC	??4ScriptFactory@@QAEAAV0@ABV0@@Z		; ScriptFactory::operator=
PUBLIC	??_GScriptFactory@@UAEPAXI@Z			; ScriptFactory::`scalar deleting destructor'
PUBLIC	??_EScriptFactory@@UAEPAXI@Z			; ScriptFactory::`vector deleting destructor'
PUBLIC	??4ScriptRegistrar@@QAEAAV0@ABV0@@Z		; ScriptRegistrar::operator=
PUBLIC	?Is_Running@ThreadClass@@QAE_NXZ		; ThreadClass::Is_Running
PUBLIC	?Get_Current_Thread_ID@ThreadClass@@SAHXZ	; ThreadClass::Get_Current_Thread_ID
PUBLIC	?Get_Name@ThreadClass@@QAEPBDXZ			; ThreadClass::Get_Name
PUBLIC	??0ThreadClass@@QAE@ABV0@@Z			; ThreadClass::ThreadClass
PUBLIC	??4ThreadClass@@QAEAAV0@ABV0@@Z			; ThreadClass::operator=
PUBLIC	??_GThreadClass@@UAEPAXI@Z			; ThreadClass::`scalar deleting destructor'
PUBLIC	??_EThreadClass@@UAEPAXI@Z			; ThreadClass::`vector deleting destructor'
PUBLIC	??4CriticalSectionClass@@QAEAAV0@ABV0@@Z	; CriticalSectionClass::operator=
PUBLIC	?Enter@FastCriticalSectionClass@@AAEXXZ		; FastCriticalSectionClass::Enter
PUBLIC	?Leave@FastCriticalSectionClass@@AAEXXZ		; FastCriticalSectionClass::Leave
PUBLIC	??0LockClass@FastCriticalSectionClass@@QAE@AAV1@@Z ; FastCriticalSectionClass::LockClass::LockClass
PUBLIC	??1LockClass@FastCriticalSectionClass@@QAE@XZ	; FastCriticalSectionClass::LockClass::~LockClass
PUBLIC	??0FastCriticalSectionClass@@QAE@XZ		; FastCriticalSectionClass::FastCriticalSectionClass
PUBLIC	?Release_Ref@RefCountClass@@QAEXXZ		; RefCountClass::Release_Ref
PUBLIC	??1StringClass@@QAE@XZ				; StringClass::~StringClass
PUBLIC	??_EStringClass@@QAEPAXI@Z			; StringClass::`vector deleting destructor'
PUBLIC	??1WideStringClass@@QAE@XZ			; WideStringClass::~WideStringClass
PUBLIC	??_EWideStringClass@@QAEPAXI@Z			; WideStringClass::`vector deleting destructor'
PUBLIC	??4ChunkLoadClass@@QAEAAV0@ABV0@@Z		; ChunkLoadClass::operator=
PUBLIC	?Set_Contains_Chunks@ChunkSaveClass@@QAEXXZ	; ChunkSaveClass::Set_Contains_Chunks
PUBLIC	??4ChunkSaveClass@@QAEAAV0@ABV0@@Z		; ChunkSaveClass::operator=
PUBLIC	?Is_Present@INIClass@@QBE_NPBD0@Z		; INIClass::Is_Present
PUBLIC	?Section_Present@INIClass@@QBE_NPBD@Z		; INIClass::Section_Present
PUBLIC	?Get_Section_List@INIClass@@QAEAAV?$List@PAUINISection@@@@XZ ; INIClass::Get_Section_List
PUBLIC	?Get_Section_Index@INIClass@@QAEAAV?$IndexClass@HPAUINISection@@@@XZ ; INIClass::Get_Section_Index
PUBLIC	?Get_File_Name@INIClass@@QAEPBDXZ		; INIClass::Get_File_Name
PUBLIC	??0INIClass@@QAE@ABV0@@Z			; INIClass::INIClass
PUBLIC	??4INIClass@@QAEAAV0@ABV0@@Z			; INIClass::operator=
PUBLIC	??_GINIClass@@UAEPAXI@Z				; INIClass::`scalar deleting destructor'
PUBLIC	??_EINIClass@@UAEPAXI@Z				; INIClass::`vector deleting destructor'
PUBLIC	??Cfile_auto_ptr@@QAEPAVFileClass@@XZ		; file_auto_ptr::operator->
PUBLIC	??Bfile_auto_ptr@@QAEPAVFileClass@@XZ		; file_auto_ptr::operator FileClass *
PUBLIC	??Dfile_auto_ptr@@QAEAAVFileClass@@XZ		; file_auto_ptr::operator*
PUBLIC	?get@file_auto_ptr@@QAEPAVFileClass@@XZ		; file_auto_ptr::get
PUBLIC	??4file_auto_ptr@@QAEAAV0@ABV0@@Z		; file_auto_ptr::operator=
PUBLIC	??0Vector4@@QAE@XZ				; Vector4::Vector4
PUBLIC	??0Vector4@@QAE@MMMM@Z				; Vector4::Vector4
PUBLIC	??4Vector4@@QAEAAV0@ABV0@@Z			; Vector4::operator=
PUBLIC	?Set@Vector4@@QAEXMMMM@Z			; Vector4::Set
PUBLIC	??AVector4@@QAEAAMH@Z				; Vector4::operator[]
PUBLIC	??AVector4@@QBEABMH@Z				; Vector4::operator[]
PUBLIC	??YVector4@@QAEAAV0@ABV0@@Z			; Vector4::operator+=
PUBLIC	??ZVector4@@QAEAAV0@ABV0@@Z			; Vector4::operator-=
PUBLIC	??XVector4@@QAEAAV0@M@Z				; Vector4::operator*=
PUBLIC	??AMatrix3D@@QAEAAVVector4@@H@Z			; Matrix3D::operator[]
PUBLIC	??AMatrix3D@@QBEABVVector4@@H@Z			; Matrix3D::operator[]
PUBLIC	??0Matrix3D@@QAE@_N@Z				; Matrix3D::Matrix3D
PUBLIC	??0Matrix3D@@QAE@QAM@Z				; Matrix3D::Matrix3D
PUBLIC	??0Matrix3D@@QAE@ABVVector3@@000@Z		; Matrix3D::Matrix3D
PUBLIC	??0Matrix3D@@QAE@ABVVector3@@M@Z		; Matrix3D::Matrix3D
PUBLIC	??0Matrix3D@@QAE@ABVVector3@@MM@Z		; Matrix3D::Matrix3D
PUBLIC	??0Matrix3D@@QAE@ABVMatrix3@@ABVVector3@@@Z	; Matrix3D::Matrix3D
PUBLIC	??0Matrix3D@@QAE@ABVQuaternion@@ABVVector3@@@Z	; Matrix3D::Matrix3D
PUBLIC	??0Matrix3D@@QAE@ABVVector3@@@Z			; Matrix3D::Matrix3D
PUBLIC	??0Matrix3D@@QAE@ABV0@@Z			; Matrix3D::Matrix3D
PUBLIC	??4Matrix3D@@QAEAAV0@ABV0@@Z			; Matrix3D::operator=
PUBLIC	?Set@Matrix3D@@QAEXQAM@Z			; Matrix3D::Set
PUBLIC	?Set@Matrix3D@@QAEXMMMMMMMMMMMM@Z		; Matrix3D::Set
PUBLIC	?Set@Matrix3D@@QAEXABVVector3@@000@Z		; Matrix3D::Set
PUBLIC	?Set@Matrix3D@@QAEXABVVector3@@M@Z		; Matrix3D::Set
PUBLIC	?Set@Matrix3D@@QAEXABVVector3@@MM@Z		; Matrix3D::Set
PUBLIC	?Set@Matrix3D@@QAEXABVVector3@@@Z		; Matrix3D::Set
PUBLIC	?Get_Translation@Matrix3D@@QBE?AVVector3@@XZ	; Matrix3D::Get_Translation
PUBLIC	?Get_Translation@Matrix3D@@QBEXPAVVector3@@@Z	; Matrix3D::Get_Translation
PUBLIC	?Set_Translation@Matrix3D@@QAEXABVVector3@@@Z	; Matrix3D::Set_Translation
PUBLIC	?Get_X_Translation@Matrix3D@@QBEMXZ		; Matrix3D::Get_X_Translation
PUBLIC	?Get_Y_Translation@Matrix3D@@QBEMXZ		; Matrix3D::Get_Y_Translation
PUBLIC	?Get_Z_Translation@Matrix3D@@QBEMXZ		; Matrix3D::Get_Z_Translation
PUBLIC	?Set_X_Translation@Matrix3D@@QAEXM@Z		; Matrix3D::Set_X_Translation
PUBLIC	?Set_Y_Translation@Matrix3D@@QAEXM@Z		; Matrix3D::Set_Y_Translation
PUBLIC	?Set_Z_Translation@Matrix3D@@QAEXM@Z		; Matrix3D::Set_Z_Translation
PUBLIC	?Adjust_Translation@Matrix3D@@QAEXABVVector3@@@Z ; Matrix3D::Adjust_Translation
PUBLIC	?Adjust_X_Translation@Matrix3D@@QAEXM@Z		; Matrix3D::Adjust_X_Translation
PUBLIC	?Adjust_Y_Translation@Matrix3D@@QAEXM@Z		; Matrix3D::Adjust_Y_Translation
PUBLIC	?Adjust_Z_Translation@Matrix3D@@QAEXM@Z		; Matrix3D::Adjust_Z_Translation
PUBLIC	?Make_Identity@Matrix3D@@QAEXXZ			; Matrix3D::Make_Identity
PUBLIC	?Translate@Matrix3D@@QAEXMMM@Z			; Matrix3D::Translate
PUBLIC	?Translate@Matrix3D@@QAEXABVVector3@@@Z		; Matrix3D::Translate
PUBLIC	?Translate_X@Matrix3D@@QAEXM@Z			; Matrix3D::Translate_X
PUBLIC	?Translate_Y@Matrix3D@@QAEXM@Z			; Matrix3D::Translate_Y
PUBLIC	?Translate_Z@Matrix3D@@QAEXM@Z			; Matrix3D::Translate_Z
PUBLIC	?Rotate_X@Matrix3D@@QAEXM@Z			; Matrix3D::Rotate_X
PUBLIC	?Rotate_Y@Matrix3D@@QAEXM@Z			; Matrix3D::Rotate_Y
PUBLIC	?Rotate_Z@Matrix3D@@QAEXM@Z			; Matrix3D::Rotate_Z
PUBLIC	?Rotate_X@Matrix3D@@QAEXMM@Z			; Matrix3D::Rotate_X
PUBLIC	?Rotate_Y@Matrix3D@@QAEXMM@Z			; Matrix3D::Rotate_Y
PUBLIC	?Rotate_Z@Matrix3D@@QAEXMM@Z			; Matrix3D::Rotate_Z
PUBLIC	?Scale@Matrix3D@@QAEXM@Z			; Matrix3D::Scale
PUBLIC	?Scale@Matrix3D@@QAEXMMM@Z			; Matrix3D::Scale
PUBLIC	?Scale@Matrix3D@@QAEXAAVVector3@@@Z		; Matrix3D::Scale
PUBLIC	?Pre_Rotate_X@Matrix3D@@QAEXM@Z			; Matrix3D::Pre_Rotate_X
PUBLIC	?Pre_Rotate_Y@Matrix3D@@QAEXM@Z			; Matrix3D::Pre_Rotate_Y
PUBLIC	?Pre_Rotate_Z@Matrix3D@@QAEXM@Z			; Matrix3D::Pre_Rotate_Z
PUBLIC	?Pre_Rotate_X@Matrix3D@@QAEXMM@Z		; Matrix3D::Pre_Rotate_X
PUBLIC	?Pre_Rotate_Y@Matrix3D@@QAEXMM@Z		; Matrix3D::Pre_Rotate_Y
PUBLIC	?Pre_Rotate_Z@Matrix3D@@QAEXMM@Z		; Matrix3D::Pre_Rotate_Z
PUBLIC	?In_Place_Pre_Rotate_X@Matrix3D@@QAEXM@Z	; Matrix3D::In_Place_Pre_Rotate_X
PUBLIC	?In_Place_Pre_Rotate_Y@Matrix3D@@QAEXM@Z	; Matrix3D::In_Place_Pre_Rotate_Y
PUBLIC	?In_Place_Pre_Rotate_Z@Matrix3D@@QAEXM@Z	; Matrix3D::In_Place_Pre_Rotate_Z
PUBLIC	?In_Place_Pre_Rotate_X@Matrix3D@@QAEXMM@Z	; Matrix3D::In_Place_Pre_Rotate_X
PUBLIC	?In_Place_Pre_Rotate_Y@Matrix3D@@QAEXMM@Z	; Matrix3D::In_Place_Pre_Rotate_Y
PUBLIC	?In_Place_Pre_Rotate_Z@Matrix3D@@QAEXMM@Z	; Matrix3D::In_Place_Pre_Rotate_Z
PUBLIC	?Transform_Vector@Matrix3D@@SAXABV1@ABVVector3@@PAV2@@Z ; Matrix3D::Transform_Vector
PUBLIC	?Get_X_Vector@Matrix3D@@QBE?AVVector3@@XZ	; Matrix3D::Get_X_Vector
PUBLIC	?Get_Y_Vector@Matrix3D@@QBE?AVVector3@@XZ	; Matrix3D::Get_Y_Vector
PUBLIC	?Get_Z_Vector@Matrix3D@@QBE?AVVector3@@XZ	; Matrix3D::Get_Z_Vector
PUBLIC	?Get_X_Vector@Matrix3D@@QBEXPAVVector3@@@Z	; Matrix3D::Get_X_Vector
PUBLIC	?Get_Y_Vector@Matrix3D@@QBEXPAVVector3@@@Z	; Matrix3D::Get_Y_Vector
PUBLIC	?Get_Z_Vector@Matrix3D@@QBEXPAVVector3@@@Z	; Matrix3D::Get_Z_Vector
PUBLIC	?Rotate_Vector@Matrix3D@@SAXABV1@ABVVector3@@PAV2@@Z ; Matrix3D::Rotate_Vector
PUBLIC	?Inverse_Transform_Vector@Matrix3D@@SAXABV1@ABVVector3@@PAV2@@Z ; Matrix3D::Inverse_Transform_Vector
PUBLIC	?Inverse_Rotate_Vector@Matrix3D@@SAXABV1@ABVVector3@@PAV2@@Z ; Matrix3D::Inverse_Rotate_Vector
PUBLIC	??0Matrix4@@QAE@XZ				; Matrix4::Matrix4
PUBLIC	??0Matrix4@@QAE@ABV0@@Z				; Matrix4::Matrix4
PUBLIC	??0Matrix4@@QAE@_N@Z				; Matrix4::Matrix4
PUBLIC	??0Matrix4@@QAE@ABVMatrix3D@@@Z			; Matrix4::Matrix4
PUBLIC	??0Matrix4@@QAE@ABVVector4@@000@Z		; Matrix4::Matrix4
PUBLIC	?Make_Identity@Matrix4@@QAEXXZ			; Matrix4::Make_Identity
PUBLIC	?Init@Matrix4@@QAEXABVMatrix3D@@@Z		; Matrix4::Init
PUBLIC	?Init@Matrix4@@QAEXABVVector4@@000@Z		; Matrix4::Init
PUBLIC	?Init_Ortho_OGL@Matrix4@@QAEXMMMMMM@Z		; Matrix4::Init_Ortho_OGL
PUBLIC	?Init_Perspective_OGL@Matrix4@@QAEXMMMM@Z	; Matrix4::Init_Perspective_OGL
PUBLIC	?Init_Perspective_OGL@Matrix4@@QAEXMMMMMM@Z	; Matrix4::Init_Perspective_OGL
PUBLIC	?Init_Ortho@Matrix4@@QAEXMMMMMM@Z		; Matrix4::Init_Ortho
PUBLIC	?Init_Perspective@Matrix4@@QAEXMMMMMM@Z		; Matrix4::Init_Perspective
PUBLIC	??AMatrix4@@QAEAAVVector4@@H@Z			; Matrix4::operator[]
PUBLIC	??AMatrix4@@QBEABVVector4@@H@Z			; Matrix4::operator[]
PUBLIC	?Transpose@Matrix4@@QBE?AV1@XZ			; Matrix4::Transpose
PUBLIC	?Determinant@Matrix4@@QBEMXZ			; Matrix4::Determinant
PUBLIC	?Inverse@Matrix4@@QBE?AV1@XZ			; Matrix4::Inverse
PUBLIC	??4Matrix4@@QAEAAV0@ABV0@@Z			; Matrix4::operator=
PUBLIC	??YMatrix4@@QAEAAV0@ABV0@@Z			; Matrix4::operator+=
PUBLIC	??ZMatrix4@@QAEAAV0@ABV0@@Z			; Matrix4::operator-=
PUBLIC	??XMatrix4@@QAEAAV0@M@Z				; Matrix4::operator*=
PUBLIC	??_0Matrix4@@QAEAAV0@M@Z			; Matrix4::operator/=
PUBLIC	?Transform_Vector@Matrix4@@SAXABV1@ABVVector3@@PAV2@@Z ; Matrix4::Transform_Vector
PUBLIC	?Transform_Vector@Matrix4@@SAXABV1@ABVVector3@@PAVVector4@@@Z ; Matrix4::Transform_Vector
PUBLIC	?Transform_Vector@Matrix4@@SAXABV1@ABVVector4@@PAV2@@Z ; Matrix4::Transform_Vector
PUBLIC	??0Matrix3@@QAE@XZ				; Matrix3::Matrix3
PUBLIC	??0Matrix3@@QAE@ABV0@@Z				; Matrix3::Matrix3
PUBLIC	??0Matrix3@@QAE@_N@Z				; Matrix3::Matrix3
PUBLIC	??0Matrix3@@QAE@ABVVector3@@00@Z		; Matrix3::Matrix3
PUBLIC	??0Matrix3@@QAE@MMMMMMMMM@Z			; Matrix3::Matrix3
PUBLIC	??0Matrix3@@QAE@ABVVector3@@M@Z			; Matrix3::Matrix3
PUBLIC	??0Matrix3@@QAE@ABVVector3@@MM@Z		; Matrix3::Matrix3
PUBLIC	??0Matrix3@@QAE@ABVQuaternion@@@Z		; Matrix3::Matrix3
PUBLIC	?Set@Matrix3@@QAEXABVVector3@@00@Z		; Matrix3::Set
PUBLIC	?Set@Matrix3@@QAEXMMMMMMMMM@Z			; Matrix3::Set
PUBLIC	?Set@Matrix3@@QAEXABVVector3@@M@Z		; Matrix3::Set
PUBLIC	?Set@Matrix3@@QAEXABVVector3@@MM@Z		; Matrix3::Set
PUBLIC	??AMatrix3@@QAEAAVVector3@@H@Z			; Matrix3::operator[]
PUBLIC	??AMatrix3@@QBEABVVector3@@H@Z			; Matrix3::operator[]
PUBLIC	?Transpose@Matrix3@@QBE?AV1@XZ			; Matrix3::Transpose
PUBLIC	?Determinant@Matrix3@@QBEMXZ			; Matrix3::Determinant
PUBLIC	??4Matrix3@@QAEAAV0@ABV0@@Z			; Matrix3::operator=
PUBLIC	??YMatrix3@@QAEAAV0@ABV0@@Z			; Matrix3::operator+=
PUBLIC	??ZMatrix3@@QAEAAV0@ABV0@@Z			; Matrix3::operator-=
PUBLIC	??XMatrix3@@QAEAAV0@M@Z				; Matrix3::operator*=
PUBLIC	??_0Matrix3@@QAEAAV0@M@Z			; Matrix3::operator/=
PUBLIC	?Make_Identity@Matrix3@@QAEXXZ			; Matrix3::Make_Identity
PUBLIC	?Rotate_X@Matrix3@@QAEXM@Z			; Matrix3::Rotate_X
PUBLIC	?Rotate_X@Matrix3@@QAEXMM@Z			; Matrix3::Rotate_X
PUBLIC	?Rotate_Y@Matrix3@@QAEXM@Z			; Matrix3::Rotate_Y
PUBLIC	?Rotate_Y@Matrix3@@QAEXMM@Z			; Matrix3::Rotate_Y
PUBLIC	?Rotate_Z@Matrix3@@QAEXM@Z			; Matrix3::Rotate_Z
PUBLIC	?Rotate_Z@Matrix3@@QAEXMM@Z			; Matrix3::Rotate_Z
PUBLIC	?Get_X_Rotation@Matrix3@@QBEMXZ			; Matrix3::Get_X_Rotation
PUBLIC	?Get_Y_Rotation@Matrix3@@QBEMXZ			; Matrix3::Get_Y_Rotation
PUBLIC	?Get_Z_Rotation@Matrix3@@QBEMXZ			; Matrix3::Get_Z_Rotation
PUBLIC	?Get_X_Vector@Matrix3@@QBE?AVVector3@@XZ	; Matrix3::Get_X_Vector
PUBLIC	?Get_Y_Vector@Matrix3@@QBE?AVVector3@@XZ	; Matrix3::Get_Y_Vector
PUBLIC	?Get_Z_Vector@Matrix3@@QBE?AVVector3@@XZ	; Matrix3::Get_Z_Vector
PUBLIC	?Get_X_Vector@Matrix3@@QBEXPAVVector3@@@Z	; Matrix3::Get_X_Vector
PUBLIC	?Get_Y_Vector@Matrix3@@QBEXPAVVector3@@@Z	; Matrix3::Get_Y_Vector
PUBLIC	?Get_Z_Vector@Matrix3@@QBEXPAVVector3@@@Z	; Matrix3::Get_Z_Vector
PUBLIC	??D@YA?AVVector3@@ABVMatrix3@@ABV0@@Z		; operator*
PUBLIC	?Add@Matrix3@@SAXABV1@0PAV1@@Z			; Matrix3::Add
PUBLIC	?Subtract@Matrix3@@SAXABV1@0PAV1@@Z		; Matrix3::Subtract
PUBLIC	?Rotate_Vector@Matrix3@@SAXABV1@ABVVector3@@PAV2@@Z ; Matrix3::Rotate_Vector
PUBLIC	?Transpose_Rotate_Vector@Matrix3@@SAXABV1@ABVVector3@@PAV2@@Z ; Matrix3::Transpose_Rotate_Vector
PUBLIC	?Rotate_AABox_Extent@Matrix3@@QAEXABVVector3@@PAV2@@Z ; Matrix3::Rotate_AABox_Extent
PUBLIC	?Inverse@Matrix3@@QBE?AV1@XZ			; Matrix3::Inverse
PUBLIC	??0OBBoxClass@@QAE@ABVVector3@@0ABVMatrix3@@@Z	; OBBoxClass::OBBoxClass
PUBLIC	??4SysTimeClass@@QAEAAV0@ABV0@@Z		; SysTimeClass::operator=
PUBLIC	??0PostLoadableClass@@QAE@XZ			; PostLoadableClass::PostLoadableClass
PUBLIC	??1PostLoadableClass@@UAE@XZ			; PostLoadableClass::~PostLoadableClass
PUBLIC	?On_Post_Load@PostLoadableClass@@UAEXXZ		; PostLoadableClass::On_Post_Load
PUBLIC	?Is_Post_Load_Registered@PostLoadableClass@@QBE_NXZ ; PostLoadableClass::Is_Post_Load_Registered
PUBLIC	?Set_Post_Load_Registered@PostLoadableClass@@QAEX_N@Z ; PostLoadableClass::Set_Post_Load_Registered
PUBLIC	??0PostLoadableClass@@QAE@ABV0@@Z		; PostLoadableClass::PostLoadableClass
PUBLIC	??4PostLoadableClass@@QAEAAV0@ABV0@@Z		; PostLoadableClass::operator=
PUBLIC	??_GPostLoadableClass@@UAEPAXI@Z		; PostLoadableClass::`scalar deleting destructor'
PUBLIC	??_EPostLoadableClass@@UAEPAXI@Z		; PostLoadableClass::`vector deleting destructor'
PUBLIC	??CReferencerClass@@QAEPAVScriptableGameObj@@XZ	; ReferencerClass::operator->
PUBLIC	??0ReferencerClass@@QAE@XZ			; ReferencerClass::ReferencerClass
PUBLIC	??0ReferencerClass@@QAE@PAVScriptableGameObj@@@Z ; ReferencerClass::ReferencerClass
PUBLIC	?Get_Ptr@ReferencerClass@@QBEPAVScriptableGameObj@@XZ ; ReferencerClass::Get_Ptr
PUBLIC	?Set_Ptr@ReferencerClass@@QAEXPAVScriptableGameObj@@@Z ; ReferencerClass::Set_Ptr
PUBLIC	??0ReferencerClass@@QAE@ABV0@@Z			; ReferencerClass::ReferencerClass
PUBLIC	??_GReferencerClass@@UAEPAXI@Z			; ReferencerClass::`scalar deleting destructor'
PUBLIC	??_EReferencerClass@@UAEPAXI@Z			; ReferencerClass::`vector deleting destructor'
PUBLIC	?Get_Data@?$ReferenceableClass@VScriptableGameObj@@@@IBEPAVScriptableGameObj@@XZ ; ReferenceableClass<ScriptableGameObj>::Get_Data
PUBLIC	??0LineSegClass@@QAE@XZ				; LineSegClass::LineSegClass
PUBLIC	??0LineSegClass@@QAE@ABVVector3@@0@Z		; LineSegClass::LineSegClass
PUBLIC	??0LineSegClass@@QAE@ABVVector3@@0M@Z		; LineSegClass::LineSegClass
PUBLIC	??0LineSegClass@@QAE@ABV0@ABVMatrix3D@@@Z	; LineSegClass::LineSegClass
PUBLIC	?Set@LineSegClass@@QAEXABVVector3@@0@Z		; LineSegClass::Set
PUBLIC	?Set@LineSegClass@@QAEXABVVector3@@0M@Z		; LineSegClass::Set
PUBLIC	?Get_P0@LineSegClass@@QBEABVVector3@@XZ		; LineSegClass::Get_P0
PUBLIC	?Get_P1@LineSegClass@@QBEABVVector3@@XZ		; LineSegClass::Get_P1
PUBLIC	?Get_DP@LineSegClass@@QBEABVVector3@@XZ		; LineSegClass::Get_DP
PUBLIC	?Get_Dir@LineSegClass@@QBEABVVector3@@XZ	; LineSegClass::Get_Dir
PUBLIC	?Get_Length@LineSegClass@@QBEMXZ		; LineSegClass::Get_Length
PUBLIC	?Compute_Point@LineSegClass@@QBEXMPAVVector3@@@Z ; LineSegClass::Compute_Point
PUBLIC	?recalculate@LineSegClass@@IAEXXZ		; LineSegClass::recalculate
PUBLIC	??0LineSegClass@@QAE@ABV0@@Z			; LineSegClass::LineSegClass
PUBLIC	??4LineSegClass@@QAEAAV0@ABV0@@Z		; LineSegClass::operator=
PUBLIC	?Get_Position@PhysClass@@QBEXPAVVector3@@@Z	; PhysClass::Get_Position
PUBLIC	?Peek_Physical_Object@PhysicalGameObj@@QBEPAVPhysClass@@XZ ; PhysicalGameObj::Peek_Physical_Object
PUBLIC	?Get_Position@PhysicalGameObj@@QAE?AVVector3@@XZ ; PhysicalGameObj::Get_Position
PUBLIC	?Clear_Animation@PhysicalGameObj@@QAEXXZ	; PhysicalGameObj::Clear_Animation
PUBLIC	??2?$AutoPoolClass@VGenericSLNode@@$0BAA@@@SAPAXIPBDI0@Z ; AutoPoolClass<GenericSLNode,256>::operator new
PUBLIC	??3?$AutoPoolClass@VGenericSLNode@@$0BAA@@@SAXPAX@Z ; AutoPoolClass<GenericSLNode,256>::operator delete
PUBLIC	??0GenericSLNode@@IAE@PAX@Z			; GenericSLNode::GenericSLNode
PUBLIC	?Get_Definition@PurchaseSettingsDefClass@@QAEHH@Z ; PurchaseSettingsDefClass::Get_Definition
PUBLIC	?Get_Alt_Definition@PurchaseSettingsDefClass@@QAEHHH@Z ; PurchaseSettingsDefClass::Get_Alt_Definition
PUBLIC	??0JFW_Key_Hook_Base@@QAE@XZ			; JFW_Key_Hook_Base::JFW_Key_Hook_Base
PUBLIC	??0JFW_Key_Hook_Base@@QAE@ABV0@@Z		; JFW_Key_Hook_Base::JFW_Key_Hook_Base
PUBLIC	??4JFW_Key_Hook_Base@@QAEAAV0@ABV0@@Z		; JFW_Key_Hook_Base::operator=
PUBLIC	??_GJFW_Key_Hook_Base@@UAEPAXI@Z		; JFW_Key_Hook_Base::`scalar deleting destructor'
PUBLIC	??_EJFW_Key_Hook_Base@@UAEPAXI@Z		; JFW_Key_Hook_Base::`vector deleting destructor'
PUBLIC	??0?$SList@UKeyHookWrapperStruct@MultiKeyHookScriptImpClass@@@@QAE@XZ ; SList<MultiKeyHookScriptImpClass::KeyHookWrapperStruct>::SList<MultiKeyHookScriptImpClass::KeyHookWrapperStruct>
PUBLIC	??1?$SList@UKeyHookWrapperStruct@MultiKeyHookScriptImpClass@@@@UAE@XZ ; SList<MultiKeyHookScriptImpClass::KeyHookWrapperStruct>::~SList<MultiKeyHookScriptImpClass::KeyHookWrapperStruct>
PUBLIC	?Add_Head@?$SList@UKeyHookWrapperStruct@MultiKeyHookScriptImpClass@@@@UAE_NPAUKeyHookWrapperStruct@MultiKeyHookScriptImpClass@@@Z ; SList<MultiKeyHookScriptImpClass::KeyHookWrapperStruct>::Add_Head
PUBLIC	?Add_Head@?$SList@UKeyHookWrapperStruct@MultiKeyHookScriptImpClass@@@@UAE_NAAV1@@Z ; SList<MultiKeyHookScriptImpClass::KeyHookWrapperStruct>::Add_Head
PUBLIC	?Add_Tail@?$SList@UKeyHookWrapperStruct@MultiKeyHookScriptImpClass@@@@UAE_NPAUKeyHookWrapperStruct@MultiKeyHookScriptImpClass@@@Z ; SList<MultiKeyHookScriptImpClass::KeyHookWrapperStruct>::Add_Tail
PUBLIC	?Add_Tail@?$SList@UKeyHookWrapperStruct@MultiKeyHookScriptImpClass@@@@UAE_NAAV1@@Z ; SList<MultiKeyHookScriptImpClass::KeyHookWrapperStruct>::Add_Tail
PUBLIC	?Remove_Head@?$SList@UKeyHookWrapperStruct@MultiKeyHookScriptImpClass@@@@UAEPAUKeyHookWrapperStruct@MultiKeyHookScriptImpClass@@XZ ; SList<MultiKeyHookScriptImpClass::KeyHookWrapperStruct>::Remove_Head
PUBLIC	?Remove_Tail@?$SList@UKeyHookWrapperStruct@MultiKeyHookScriptImpClass@@@@UAEPAUKeyHookWrapperStruct@MultiKeyHookScriptImpClass@@XZ ; SList<MultiKeyHookScriptImpClass::KeyHookWrapperStruct>::Remove_Tail
PUBLIC	?Remove@?$SList@UKeyHookWrapperStruct@MultiKeyHookScriptImpClass@@@@UAE_NPBUKeyHookWrapperStruct@MultiKeyHookScriptImpClass@@@Z ; SList<MultiKeyHookScriptImpClass::KeyHookWrapperStruct>::Remove
PUBLIC	?Remove_All@?$SList@UKeyHookWrapperStruct@MultiKeyHookScriptImpClass@@@@UAEXXZ ; SList<MultiKeyHookScriptImpClass::KeyHookWrapperStruct>::Remove_All
PUBLIC	?Insert_Before@?$SList@UKeyHookWrapperStruct@MultiKeyHookScriptImpClass@@@@UAE_NPAUKeyHookWrapperStruct@MultiKeyHookScriptImpClass@@PBU23@@Z ; SList<MultiKeyHookScriptImpClass::KeyHookWrapperStruct>::Insert_Before
PUBLIC	?Insert_After@?$SList@UKeyHookWrapperStruct@MultiKeyHookScriptImpClass@@@@UAE_NPAUKeyHookWrapperStruct@MultiKeyHookScriptImpClass@@PBU23@@Z ; SList<MultiKeyHookScriptImpClass::KeyHookWrapperStruct>::Insert_After
PUBLIC	?Is_Empty@?$SList@UKeyHookWrapperStruct@MultiKeyHookScriptImpClass@@@@UBE_NXZ ; SList<MultiKeyHookScriptImpClass::KeyHookWrapperStruct>::Is_Empty
PUBLIC	?Get_Count@?$SList@UKeyHookWrapperStruct@MultiKeyHookScriptImpClass@@@@UBEIXZ ; SList<MultiKeyHookScriptImpClass::KeyHookWrapperStruct>::Get_Count
PUBLIC	??0?$SList@UKeyHookWrapperStruct@MultiKeyHookScriptImpClass@@@@QAE@ABV0@@Z ; SList<MultiKeyHookScriptImpClass::KeyHookWrapperStruct>::SList<MultiKeyHookScriptImpClass::KeyHookWrapperStruct>
PUBLIC	??4?$SList@UKeyHookWrapperStruct@MultiKeyHookScriptImpClass@@@@QAEAAV0@ABV0@@Z ; SList<MultiKeyHookScriptImpClass::KeyHookWrapperStruct>::operator=
PUBLIC	??_G?$SList@UKeyHookWrapperStruct@MultiKeyHookScriptImpClass@@@@UAEPAXI@Z ; SList<MultiKeyHookScriptImpClass::KeyHookWrapperStruct>::`scalar deleting destructor'
PUBLIC	??0MultiKeyHookScriptImpClass@@QAE@XZ		; MultiKeyHookScriptImpClass::MultiKeyHookScriptImpClass
PUBLIC	??1MultiKeyHookScriptImpClass@@UAE@XZ		; MultiKeyHookScriptImpClass::~MultiKeyHookScriptImpClass
PUBLIC	??0MultiKeyHookScriptImpClass@@QAE@ABV0@@Z	; MultiKeyHookScriptImpClass::MultiKeyHookScriptImpClass
PUBLIC	??4MultiKeyHookScriptImpClass@@QAEAAV0@ABV0@@Z	; MultiKeyHookScriptImpClass::operator=
PUBLIC	??_GMultiKeyHookScriptImpClass@@UAEPAXI@Z	; MultiKeyHookScriptImpClass::`scalar deleting destructor'
PUBLIC	??_EMultiKeyHookScriptImpClass@@UAEPAXI@Z	; MultiKeyHookScriptImpClass::`vector deleting destructor'
PUBLIC	??0JFW_Object_Created_Hook_Base@@QAE@XZ		; JFW_Object_Created_Hook_Base::JFW_Object_Created_Hook_Base
PUBLIC	??0JFW_Object_Created_Hook_Base@@QAE@ABV0@@Z	; JFW_Object_Created_Hook_Base::JFW_Object_Created_Hook_Base
PUBLIC	??4JFW_Object_Created_Hook_Base@@QAEAAV0@ABV0@@Z ; JFW_Object_Created_Hook_Base::operator=
PUBLIC	??_GJFW_Object_Created_Hook_Base@@UAEPAXI@Z	; JFW_Object_Created_Hook_Base::`scalar deleting destructor'
PUBLIC	??_EJFW_Object_Created_Hook_Base@@UAEPAXI@Z	; JFW_Object_Created_Hook_Base::`vector deleting destructor'
PUBLIC	?Entered@JFW_3D_Sound_Zone@@EAEXPAVScriptableGameObj@@0@Z ; JFW_3D_Sound_Zone::Entered
PUBLIC	??0JFW_3D_Sound_Zone@@QAE@XZ			; JFW_3D_Sound_Zone::JFW_3D_Sound_Zone
PUBLIC	??1JFW_3D_Sound_Zone@@UAE@XZ			; JFW_3D_Sound_Zone::~JFW_3D_Sound_Zone
PUBLIC	??_GJFW_3D_Sound_Zone@@UAEPAXI@Z		; JFW_3D_Sound_Zone::`scalar deleting destructor'
PUBLIC	?Entered@JFW_Bounce_Zone_Entry@@EAEXPAVScriptableGameObj@@0@Z ; JFW_Bounce_Zone_Entry::Entered
PUBLIC	??0JFW_Bounce_Zone_Entry@@QAE@XZ		; JFW_Bounce_Zone_Entry::JFW_Bounce_Zone_Entry
PUBLIC	??1JFW_Bounce_Zone_Entry@@UAE@XZ		; JFW_Bounce_Zone_Entry::~JFW_Bounce_Zone_Entry
PUBLIC	??_GJFW_Bounce_Zone_Entry@@UAEPAXI@Z		; JFW_Bounce_Zone_Entry::`scalar deleting destructor'
PUBLIC	?Entered@JFW_Grant_Key_Zone_Entry@@EAEXPAVScriptableGameObj@@0@Z ; JFW_Grant_Key_Zone_Entry::Entered
PUBLIC	??0JFW_Grant_Key_Zone_Entry@@QAE@XZ		; JFW_Grant_Key_Zone_Entry::JFW_Grant_Key_Zone_Entry
PUBLIC	??1JFW_Grant_Key_Zone_Entry@@UAE@XZ		; JFW_Grant_Key_Zone_Entry::~JFW_Grant_Key_Zone_Entry
PUBLIC	??_GJFW_Grant_Key_Zone_Entry@@UAEPAXI@Z		; JFW_Grant_Key_Zone_Entry::`scalar deleting destructor'
PUBLIC	?Created@JFW_Zone_Send_Custom_Enable@@EAEXPAVScriptableGameObj@@@Z ; JFW_Zone_Send_Custom_Enable::Created
PUBLIC	?Custom@JFW_Zone_Send_Custom_Enable@@EAEXPAVScriptableGameObj@@HH0@Z ; JFW_Zone_Send_Custom_Enable::Custom
PUBLIC	?Entered@JFW_Zone_Send_Custom_Enable@@EAEXPAVScriptableGameObj@@0@Z ; JFW_Zone_Send_Custom_Enable::Entered
PUBLIC	?Exited@JFW_Zone_Send_Custom_Enable@@EAEXPAVScriptableGameObj@@0@Z ; JFW_Zone_Send_Custom_Enable::Exited
PUBLIC	?Register_Auto_Save_Variables@JFW_Zone_Send_Custom_Enable@@UAEXXZ ; JFW_Zone_Send_Custom_Enable::Register_Auto_Save_Variables
PUBLIC	??0JFW_Zone_Send_Custom_Enable@@QAE@XZ		; JFW_Zone_Send_Custom_Enable::JFW_Zone_Send_Custom_Enable
PUBLIC	??1JFW_Zone_Send_Custom_Enable@@UAE@XZ		; JFW_Zone_Send_Custom_Enable::~JFW_Zone_Send_Custom_Enable
PUBLIC	??_GJFW_Zone_Send_Custom_Enable@@UAEPAXI@Z	; JFW_Zone_Send_Custom_Enable::`scalar deleting destructor'
PUBLIC	?Entered@JFW_Zone_Send_Custom_Preset@@EAEXPAVScriptableGameObj@@0@Z ; JFW_Zone_Send_Custom_Preset::Entered
PUBLIC	?Exited@JFW_Zone_Send_Custom_Preset@@EAEXPAVScriptableGameObj@@0@Z ; JFW_Zone_Send_Custom_Preset::Exited
PUBLIC	??0JFW_Zone_Send_Custom_Preset@@QAE@XZ		; JFW_Zone_Send_Custom_Preset::JFW_Zone_Send_Custom_Preset
PUBLIC	??1JFW_Zone_Send_Custom_Preset@@UAE@XZ		; JFW_Zone_Send_Custom_Preset::~JFW_Zone_Send_Custom_Preset
PUBLIC	??_GJFW_Zone_Send_Custom_Preset@@UAEPAXI@Z	; JFW_Zone_Send_Custom_Preset::`scalar deleting destructor'
PUBLIC	?Created@JFW_Zone_Send_Custom_Enable_Enter@@EAEXPAVScriptableGameObj@@@Z ; JFW_Zone_Send_Custom_Enable_Enter::Created
PUBLIC	?Custom@JFW_Zone_Send_Custom_Enable_Enter@@EAEXPAVScriptableGameObj@@HH0@Z ; JFW_Zone_Send_Custom_Enable_Enter::Custom
PUBLIC	?Entered@JFW_Zone_Send_Custom_Enable_Enter@@EAEXPAVScriptableGameObj@@0@Z ; JFW_Zone_Send_Custom_Enable_Enter::Entered
PUBLIC	?Exited@JFW_Zone_Send_Custom_Enable_Enter@@EAEXPAVScriptableGameObj@@0@Z ; JFW_Zone_Send_Custom_Enable_Enter::Exited
PUBLIC	?Register_Auto_Save_Variables@JFW_Zone_Send_Custom_Enable_Enter@@UAEXXZ ; JFW_Zone_Send_Custom_Enable_Enter::Register_Auto_Save_Variables
PUBLIC	??0JFW_Zone_Send_Custom_Enable_Enter@@QAE@XZ	; JFW_Zone_Send_Custom_Enable_Enter::JFW_Zone_Send_Custom_Enable_Enter
PUBLIC	??1JFW_Zone_Send_Custom_Enable_Enter@@UAE@XZ	; JFW_Zone_Send_Custom_Enable_Enter::~JFW_Zone_Send_Custom_Enable_Enter
PUBLIC	??_GJFW_Zone_Send_Custom_Enable_Enter@@UAEPAXI@Z ; JFW_Zone_Send_Custom_Enable_Enter::`scalar deleting destructor'
PUBLIC	?Entered@JFW_Zone_Send_Custom_Preset_Enter@@EAEXPAVScriptableGameObj@@0@Z ; JFW_Zone_Send_Custom_Preset_Enter::Entered
PUBLIC	?Exited@JFW_Zone_Send_Custom_Preset_Enter@@EAEXPAVScriptableGameObj@@0@Z ; JFW_Zone_Send_Custom_Preset_Enter::Exited
PUBLIC	??0JFW_Zone_Send_Custom_Preset_Enter@@QAE@XZ	; JFW_Zone_Send_Custom_Preset_Enter::JFW_Zone_Send_Custom_Preset_Enter
PUBLIC	??1JFW_Zone_Send_Custom_Preset_Enter@@UAE@XZ	; JFW_Zone_Send_Custom_Preset_Enter::~JFW_Zone_Send_Custom_Preset_Enter
PUBLIC	??_GJFW_Zone_Send_Custom_Preset_Enter@@UAEPAXI@Z ; JFW_Zone_Send_Custom_Preset_Enter::`scalar deleting destructor'
PUBLIC	?Entered@JFW_Send_Custom_Zone_Enter@@EAEXPAVScriptableGameObj@@0@Z ; JFW_Send_Custom_Zone_Enter::Entered
PUBLIC	?Exited@JFW_Send_Custom_Zone_Enter@@EAEXPAVScriptableGameObj@@0@Z ; JFW_Send_Custom_Zone_Enter::Exited
PUBLIC	??0JFW_Send_Custom_Zone_Enter@@QAE@XZ		; JFW_Send_Custom_Zone_Enter::JFW_Send_Custom_Zone_Enter
PUBLIC	??1JFW_Send_Custom_Zone_Enter@@UAE@XZ		; JFW_Send_Custom_Zone_Enter::~JFW_Send_Custom_Zone_Enter
PUBLIC	??_GJFW_Send_Custom_Zone_Enter@@UAEPAXI@Z	; JFW_Send_Custom_Zone_Enter::`scalar deleting destructor'
PUBLIC	?Entered@JFW_Gate_Zone@@EAEXPAVScriptableGameObj@@0@Z ; JFW_Gate_Zone::Entered
PUBLIC	?Timer_Expired@JFW_Gate_Zone@@EAEXPAVScriptableGameObj@@H@Z ; JFW_Gate_Zone::Timer_Expired
PUBLIC	??0JFW_Gate_Zone@@QAE@XZ			; JFW_Gate_Zone::JFW_Gate_Zone
PUBLIC	??1JFW_Gate_Zone@@UAE@XZ			; JFW_Gate_Zone::~JFW_Gate_Zone
PUBLIC	??_GJFW_Gate_Zone@@UAEPAXI@Z			; JFW_Gate_Zone::`scalar deleting destructor'
PUBLIC	?Entered@JFW_Repair_Zone@@EAEXPAVScriptableGameObj@@0@Z ; JFW_Repair_Zone::Entered
PUBLIC	?Timer_Expired@JFW_Repair_Zone@@EAEXPAVScriptableGameObj@@H@Z ; JFW_Repair_Zone::Timer_Expired
PUBLIC	??0JFW_Repair_Zone@@QAE@XZ			; JFW_Repair_Zone::JFW_Repair_Zone
PUBLIC	??1JFW_Repair_Zone@@UAE@XZ			; JFW_Repair_Zone::~JFW_Repair_Zone
PUBLIC	??_GJFW_Repair_Zone@@UAEPAXI@Z			; JFW_Repair_Zone::`scalar deleting destructor'
PUBLIC	?Entered@JFW_Repair_Zone_Aircraft_Only@@EAEXPAVScriptableGameObj@@0@Z ; JFW_Repair_Zone_Aircraft_Only::Entered
PUBLIC	?Timer_Expired@JFW_Repair_Zone_Aircraft_Only@@EAEXPAVScriptableGameObj@@H@Z ; JFW_Repair_Zone_Aircraft_Only::Timer_Expired
PUBLIC	??0JFW_Repair_Zone_Aircraft_Only@@QAE@XZ	; JFW_Repair_Zone_Aircraft_Only::JFW_Repair_Zone_Aircraft_Only
PUBLIC	??1JFW_Repair_Zone_Aircraft_Only@@UAE@XZ	; JFW_Repair_Zone_Aircraft_Only::~JFW_Repair_Zone_Aircraft_Only
PUBLIC	??_GJFW_Repair_Zone_Aircraft_Only@@UAEPAXI@Z	; JFW_Repair_Zone_Aircraft_Only::`scalar deleting destructor'
PUBLIC	?Entered@JFW_Repair_Zone_No_Aircraft@@EAEXPAVScriptableGameObj@@0@Z ; JFW_Repair_Zone_No_Aircraft::Entered
PUBLIC	?Timer_Expired@JFW_Repair_Zone_No_Aircraft@@EAEXPAVScriptableGameObj@@H@Z ; JFW_Repair_Zone_No_Aircraft::Timer_Expired
PUBLIC	??0JFW_Repair_Zone_No_Aircraft@@QAE@XZ		; JFW_Repair_Zone_No_Aircraft::JFW_Repair_Zone_No_Aircraft
PUBLIC	??1JFW_Repair_Zone_No_Aircraft@@UAE@XZ		; JFW_Repair_Zone_No_Aircraft::~JFW_Repair_Zone_No_Aircraft
PUBLIC	??_GJFW_Repair_Zone_No_Aircraft@@UAEPAXI@Z	; JFW_Repair_Zone_No_Aircraft::`scalar deleting destructor'
PUBLIC	?Entered@JFW_Zone_Send_Custom_Not_Preset@@EAEXPAVScriptableGameObj@@0@Z ; JFW_Zone_Send_Custom_Not_Preset::Entered
PUBLIC	?Exited@JFW_Zone_Send_Custom_Not_Preset@@EAEXPAVScriptableGameObj@@0@Z ; JFW_Zone_Send_Custom_Not_Preset::Exited
PUBLIC	??0JFW_Zone_Send_Custom_Not_Preset@@QAE@XZ	; JFW_Zone_Send_Custom_Not_Preset::JFW_Zone_Send_Custom_Not_Preset
PUBLIC	??1JFW_Zone_Send_Custom_Not_Preset@@UAE@XZ	; JFW_Zone_Send_Custom_Not_Preset::~JFW_Zone_Send_Custom_Not_Preset
PUBLIC	??_GJFW_Zone_Send_Custom_Not_Preset@@UAEPAXI@Z	; JFW_Zone_Send_Custom_Not_Preset::`scalar deleting destructor'
PUBLIC	?Entered@JFW_Zone_Send_Custom_Keycard@@EAEXPAVScriptableGameObj@@0@Z ; JFW_Zone_Send_Custom_Keycard::Entered
PUBLIC	?Exited@JFW_Zone_Send_Custom_Keycard@@EAEXPAVScriptableGameObj@@0@Z ; JFW_Zone_Send_Custom_Keycard::Exited
PUBLIC	??0JFW_Zone_Send_Custom_Keycard@@QAE@XZ		; JFW_Zone_Send_Custom_Keycard::JFW_Zone_Send_Custom_Keycard
PUBLIC	??1JFW_Zone_Send_Custom_Keycard@@UAE@XZ		; JFW_Zone_Send_Custom_Keycard::~JFW_Zone_Send_Custom_Keycard
PUBLIC	??_GJFW_Zone_Send_Custom_Keycard@@UAEPAXI@Z	; JFW_Zone_Send_Custom_Keycard::`scalar deleting destructor'
PUBLIC	?Entered@JFW_Heal_Zone@@EAEXPAVScriptableGameObj@@0@Z ; JFW_Heal_Zone::Entered
PUBLIC	?Timer_Expired@JFW_Heal_Zone@@EAEXPAVScriptableGameObj@@H@Z ; JFW_Heal_Zone::Timer_Expired
PUBLIC	??0JFW_Heal_Zone@@QAE@XZ			; JFW_Heal_Zone::JFW_Heal_Zone
PUBLIC	??1JFW_Heal_Zone@@UAE@XZ			; JFW_Heal_Zone::~JFW_Heal_Zone
PUBLIC	??_GJFW_Heal_Zone@@UAEPAXI@Z			; JFW_Heal_Zone::`scalar deleting destructor'
PUBLIC	?Entered@JFW_Heal_Zone_2@@EAEXPAVScriptableGameObj@@0@Z ; JFW_Heal_Zone_2::Entered
PUBLIC	?Timer_Expired@JFW_Heal_Zone_2@@EAEXPAVScriptableGameObj@@H@Z ; JFW_Heal_Zone_2::Timer_Expired
PUBLIC	??0JFW_Heal_Zone_2@@QAE@XZ			; JFW_Heal_Zone_2::JFW_Heal_Zone_2
PUBLIC	??1JFW_Heal_Zone_2@@UAE@XZ			; JFW_Heal_Zone_2::~JFW_Heal_Zone_2
PUBLIC	??_GJFW_Heal_Zone_2@@UAEPAXI@Z			; JFW_Heal_Zone_2::`scalar deleting destructor'
PUBLIC	?Entered@JFW_Disable_Transitions_Zone@@EAEXPAVScriptableGameObj@@0@Z ; JFW_Disable_Transitions_Zone::Entered
PUBLIC	?Exited@JFW_Disable_Transitions_Zone@@EAEXPAVScriptableGameObj@@0@Z ; JFW_Disable_Transitions_Zone::Exited
PUBLIC	??0JFW_Disable_Transitions_Zone@@QAE@XZ		; JFW_Disable_Transitions_Zone::JFW_Disable_Transitions_Zone
PUBLIC	??1JFW_Disable_Transitions_Zone@@UAE@XZ		; JFW_Disable_Transitions_Zone::~JFW_Disable_Transitions_Zone
PUBLIC	??_GJFW_Disable_Transitions_Zone@@UAEPAXI@Z	; JFW_Disable_Transitions_Zone::`scalar deleting destructor'
PUBLIC	?Entered@JFW_Bounce_Zone_Entry_All_Directions@@EAEXPAVScriptableGameObj@@0@Z ; JFW_Bounce_Zone_Entry_All_Directions::Entered
PUBLIC	??0JFW_Bounce_Zone_Entry_All_Directions@@QAE@XZ	; JFW_Bounce_Zone_Entry_All_Directions::JFW_Bounce_Zone_Entry_All_Directions
PUBLIC	??1JFW_Bounce_Zone_Entry_All_Directions@@UAE@XZ	; JFW_Bounce_Zone_Entry_All_Directions::~JFW_Bounce_Zone_Entry_All_Directions
PUBLIC	??_GJFW_Bounce_Zone_Entry_All_Directions@@UAEPAXI@Z ; JFW_Bounce_Zone_Entry_All_Directions::`scalar deleting destructor'
PUBLIC	?Entered@JFW_Zone_Send_Custom_Cost@@EAEXPAVScriptableGameObj@@0@Z ; JFW_Zone_Send_Custom_Cost::Entered
PUBLIC	??0JFW_Zone_Send_Custom_Cost@@QAE@XZ		; JFW_Zone_Send_Custom_Cost::JFW_Zone_Send_Custom_Cost
PUBLIC	??1JFW_Zone_Send_Custom_Cost@@UAE@XZ		; JFW_Zone_Send_Custom_Cost::~JFW_Zone_Send_Custom_Cost
PUBLIC	??_GJFW_Zone_Send_Custom_Cost@@UAEPAXI@Z	; JFW_Zone_Send_Custom_Cost::`scalar deleting destructor'
PUBLIC	?Entered@JFW_Vechicle_Damage_Zone@@EAEXPAVScriptableGameObj@@0@Z ; JFW_Vechicle_Damage_Zone::Entered
PUBLIC	?Timer_Expired@JFW_Vechicle_Damage_Zone@@EAEXPAVScriptableGameObj@@H@Z ; JFW_Vechicle_Damage_Zone::Timer_Expired
PUBLIC	??0JFW_Vechicle_Damage_Zone@@QAE@XZ		; JFW_Vechicle_Damage_Zone::JFW_Vechicle_Damage_Zone
PUBLIC	??1JFW_Vechicle_Damage_Zone@@UAE@XZ		; JFW_Vechicle_Damage_Zone::~JFW_Vechicle_Damage_Zone
PUBLIC	??_GJFW_Vechicle_Damage_Zone@@UAEPAXI@Z		; JFW_Vechicle_Damage_Zone::`scalar deleting destructor'
PUBLIC	?Entered@JFW_Weapon_Buy@@EAEXPAVScriptableGameObj@@0@Z ; JFW_Weapon_Buy::Entered
PUBLIC	??0JFW_Weapon_Buy@@QAE@XZ			; JFW_Weapon_Buy::JFW_Weapon_Buy
PUBLIC	??1JFW_Weapon_Buy@@UAE@XZ			; JFW_Weapon_Buy::~JFW_Weapon_Buy
PUBLIC	??_GJFW_Weapon_Buy@@UAEPAXI@Z			; JFW_Weapon_Buy::`scalar deleting destructor'
PUBLIC	?Entered@JFW_Preset_Buy@@EAEXPAVScriptableGameObj@@0@Z ; JFW_Preset_Buy::Entered
PUBLIC	??0JFW_Preset_Buy@@QAE@XZ			; JFW_Preset_Buy::JFW_Preset_Buy
PUBLIC	??1JFW_Preset_Buy@@UAE@XZ			; JFW_Preset_Buy::~JFW_Preset_Buy
PUBLIC	??_GJFW_Preset_Buy@@UAEPAXI@Z			; JFW_Preset_Buy::`scalar deleting destructor'
PUBLIC	?Entered@JFW_Zone_Character@@EAEXPAVScriptableGameObj@@0@Z ; JFW_Zone_Character::Entered
PUBLIC	??0JFW_Zone_Character@@QAE@XZ			; JFW_Zone_Character::JFW_Zone_Character
PUBLIC	??1JFW_Zone_Character@@UAE@XZ			; JFW_Zone_Character::~JFW_Zone_Character
PUBLIC	??_GJFW_Zone_Character@@UAEPAXI@Z		; JFW_Zone_Character::`scalar deleting destructor'
PUBLIC	?Entered@JFW_Zone_Character_Swap@@EAEXPAVScriptableGameObj@@0@Z ; JFW_Zone_Character_Swap::Entered
PUBLIC	??0JFW_Zone_Character_Swap@@QAE@XZ		; JFW_Zone_Character_Swap::JFW_Zone_Character_Swap
PUBLIC	??1JFW_Zone_Character_Swap@@UAE@XZ		; JFW_Zone_Character_Swap::~JFW_Zone_Character_Swap
PUBLIC	??_GJFW_Zone_Character_Swap@@UAEPAXI@Z		; JFW_Zone_Character_Swap::`scalar deleting destructor'
PUBLIC	?Entered@JFW_Character_Buy@@EAEXPAVScriptableGameObj@@0@Z ; JFW_Character_Buy::Entered
PUBLIC	??0JFW_Character_Buy@@QAE@XZ			; JFW_Character_Buy::JFW_Character_Buy
PUBLIC	??1JFW_Character_Buy@@UAE@XZ			; JFW_Character_Buy::~JFW_Character_Buy
PUBLIC	??_GJFW_Character_Buy@@UAEPAXI@Z		; JFW_Character_Buy::`scalar deleting destructor'
PUBLIC	?Entered@JFW_Teleport_Zone_Team@@EAEXPAVScriptableGameObj@@0@Z ; JFW_Teleport_Zone_Team::Entered
PUBLIC	??0JFW_Teleport_Zone_Team@@QAE@XZ		; JFW_Teleport_Zone_Team::JFW_Teleport_Zone_Team
PUBLIC	??1JFW_Teleport_Zone_Team@@UAE@XZ		; JFW_Teleport_Zone_Team::~JFW_Teleport_Zone_Team
PUBLIC	??_GJFW_Teleport_Zone_Team@@UAEPAXI@Z		; JFW_Teleport_Zone_Team::`scalar deleting destructor'
PUBLIC	?Entered@JFW_Repair_Zone_VTOL_Only@@EAEXPAVScriptableGameObj@@0@Z ; JFW_Repair_Zone_VTOL_Only::Entered
PUBLIC	?Timer_Expired@JFW_Repair_Zone_VTOL_Only@@EAEXPAVScriptableGameObj@@H@Z ; JFW_Repair_Zone_VTOL_Only::Timer_Expired
PUBLIC	??0JFW_Repair_Zone_VTOL_Only@@QAE@XZ		; JFW_Repair_Zone_VTOL_Only::JFW_Repair_Zone_VTOL_Only
PUBLIC	??1JFW_Repair_Zone_VTOL_Only@@UAE@XZ		; JFW_Repair_Zone_VTOL_Only::~JFW_Repair_Zone_VTOL_Only
PUBLIC	??_GJFW_Repair_Zone_VTOL_Only@@UAEPAXI@Z	; JFW_Repair_Zone_VTOL_Only::`scalar deleting destructor'
PUBLIC	?Entered@JFW_Repair_Zone_No_VTOL@@EAEXPAVScriptableGameObj@@0@Z ; JFW_Repair_Zone_No_VTOL::Entered
PUBLIC	?Timer_Expired@JFW_Repair_Zone_No_VTOL@@EAEXPAVScriptableGameObj@@H@Z ; JFW_Repair_Zone_No_VTOL::Timer_Expired
PUBLIC	??0JFW_Repair_Zone_No_VTOL@@QAE@XZ		; JFW_Repair_Zone_No_VTOL::JFW_Repair_Zone_No_VTOL
PUBLIC	??1JFW_Repair_Zone_No_VTOL@@UAE@XZ		; JFW_Repair_Zone_No_VTOL::~JFW_Repair_Zone_No_VTOL
PUBLIC	??_GJFW_Repair_Zone_No_VTOL@@UAEPAXI@Z		; JFW_Repair_Zone_No_VTOL::`scalar deleting destructor'
PUBLIC	?Entered@JFW_Refill_Buy@@EAEXPAVScriptableGameObj@@0@Z ; JFW_Refill_Buy::Entered
PUBLIC	??0JFW_Refill_Buy@@QAE@XZ			; JFW_Refill_Buy::JFW_Refill_Buy
PUBLIC	??1JFW_Refill_Buy@@UAE@XZ			; JFW_Refill_Buy::~JFW_Refill_Buy
PUBLIC	??_GJFW_Refill_Buy@@UAEPAXI@Z			; JFW_Refill_Buy::`scalar deleting destructor'
PUBLIC	?Entered@JFW_Powerup_Buy@@EAEXPAVScriptableGameObj@@0@Z ; JFW_Powerup_Buy::Entered
PUBLIC	??0JFW_Powerup_Buy@@QAE@XZ			; JFW_Powerup_Buy::JFW_Powerup_Buy
PUBLIC	??1JFW_Powerup_Buy@@UAE@XZ			; JFW_Powerup_Buy::~JFW_Powerup_Buy
PUBLIC	??_GJFW_Powerup_Buy@@UAEPAXI@Z			; JFW_Powerup_Buy::`scalar deleting destructor'
PUBLIC	?Entered@JFW_Vehicle_Buy@@EAEXPAVScriptableGameObj@@0@Z ; JFW_Vehicle_Buy::Entered
PUBLIC	??0JFW_Vehicle_Buy@@QAE@XZ			; JFW_Vehicle_Buy::JFW_Vehicle_Buy
PUBLIC	??1JFW_Vehicle_Buy@@UAE@XZ			; JFW_Vehicle_Buy::~JFW_Vehicle_Buy
PUBLIC	??_GJFW_Vehicle_Buy@@UAEPAXI@Z			; JFW_Vehicle_Buy::`scalar deleting destructor'
PUBLIC	?Entered@JFW_Zone_Vehicle@@EAEXPAVScriptableGameObj@@0@Z ; JFW_Zone_Vehicle::Entered
PUBLIC	??0JFW_Zone_Vehicle@@QAE@XZ			; JFW_Zone_Vehicle::JFW_Zone_Vehicle
PUBLIC	??1JFW_Zone_Vehicle@@UAE@XZ			; JFW_Zone_Vehicle::~JFW_Zone_Vehicle
PUBLIC	??_GJFW_Zone_Vehicle@@UAEPAXI@Z			; JFW_Zone_Vehicle::`scalar deleting destructor'
PUBLIC	?Entered@JFW_Zone_Powerup@@EAEXPAVScriptableGameObj@@0@Z ; JFW_Zone_Powerup::Entered
PUBLIC	??0JFW_Zone_Powerup@@QAE@XZ			; JFW_Zone_Powerup::JFW_Zone_Powerup
PUBLIC	??1JFW_Zone_Powerup@@UAE@XZ			; JFW_Zone_Powerup::~JFW_Zone_Powerup
PUBLIC	??_GJFW_Zone_Powerup@@UAEPAXI@Z			; JFW_Zone_Powerup::`scalar deleting destructor'
PUBLIC	?Entered@JFW_Zone_Refill@@EAEXPAVScriptableGameObj@@0@Z ; JFW_Zone_Refill::Entered
PUBLIC	??0JFW_Zone_Refill@@QAE@XZ			; JFW_Zone_Refill::JFW_Zone_Refill
PUBLIC	??1JFW_Zone_Refill@@UAE@XZ			; JFW_Zone_Refill::~JFW_Zone_Refill
PUBLIC	??_GJFW_Zone_Refill@@UAEPAXI@Z			; JFW_Zone_Refill::`scalar deleting destructor'
PUBLIC	?Entered@JFW_Zone_Send_Custom_Team@@EAEXPAVScriptableGameObj@@0@Z ; JFW_Zone_Send_Custom_Team::Entered
PUBLIC	?Exited@JFW_Zone_Send_Custom_Team@@EAEXPAVScriptableGameObj@@0@Z ; JFW_Zone_Send_Custom_Team::Exited
PUBLIC	??0JFW_Zone_Send_Custom_Team@@QAE@XZ		; JFW_Zone_Send_Custom_Team::JFW_Zone_Send_Custom_Team
PUBLIC	??1JFW_Zone_Send_Custom_Team@@UAE@XZ		; JFW_Zone_Send_Custom_Team::~JFW_Zone_Send_Custom_Team
PUBLIC	??_GJFW_Zone_Send_Custom_Team@@UAEPAXI@Z	; JFW_Zone_Send_Custom_Team::`scalar deleting destructor'
PUBLIC	?Created@JFW_Zone_Animation@@EAEXPAVScriptableGameObj@@@Z ; JFW_Zone_Animation::Created
PUBLIC	?Animation_Complete@JFW_Zone_Animation@@EAEXPAVScriptableGameObj@@PBD@Z ; JFW_Zone_Animation::Animation_Complete
PUBLIC	?Entered@JFW_Zone_Animation@@EAEXPAVScriptableGameObj@@0@Z ; JFW_Zone_Animation::Entered
PUBLIC	?Exited@JFW_Zone_Animation@@EAEXPAVScriptableGameObj@@0@Z ; JFW_Zone_Animation::Exited
PUBLIC	?Register_Auto_Save_Variables@JFW_Zone_Animation@@UAEXXZ ; JFW_Zone_Animation::Register_Auto_Save_Variables
PUBLIC	??0JFW_Zone_Animation@@QAE@XZ			; JFW_Zone_Animation::JFW_Zone_Animation
PUBLIC	??1JFW_Zone_Animation@@UAE@XZ			; JFW_Zone_Animation::~JFW_Zone_Animation
PUBLIC	??_GJFW_Zone_Animation@@UAEPAXI@Z		; JFW_Zone_Animation::`scalar deleting destructor'
PUBLIC	?Created@JFW_Group_Purchase_Zone@@EAEXPAVScriptableGameObj@@@Z ; JFW_Group_Purchase_Zone::Created
PUBLIC	?Entered@JFW_Group_Purchase_Zone@@EAEXPAVScriptableGameObj@@0@Z ; JFW_Group_Purchase_Zone::Entered
PUBLIC	?Register_Auto_Save_Variables@JFW_Group_Purchase_Zone@@UAEXXZ ; JFW_Group_Purchase_Zone::Register_Auto_Save_Variables
PUBLIC	??0JFW_Group_Purchase_Zone@@QAE@XZ		; JFW_Group_Purchase_Zone::JFW_Group_Purchase_Zone
PUBLIC	??1JFW_Group_Purchase_Zone@@UAE@XZ		; JFW_Group_Purchase_Zone::~JFW_Group_Purchase_Zone
PUBLIC	??_GJFW_Group_Purchase_Zone@@UAEPAXI@Z		; JFW_Group_Purchase_Zone::`scalar deleting destructor'
PUBLIC	?Created@JFW_Zone_Timer@@EAEXPAVScriptableGameObj@@@Z ; JFW_Zone_Timer::Created
PUBLIC	?Entered@JFW_Zone_Timer@@EAEXPAVScriptableGameObj@@0@Z ; JFW_Zone_Timer::Entered
PUBLIC	?Exited@JFW_Zone_Timer@@EAEXPAVScriptableGameObj@@0@Z ; JFW_Zone_Timer::Exited
PUBLIC	?Timer_Expired@JFW_Zone_Timer@@EAEXPAVScriptableGameObj@@H@Z ; JFW_Zone_Timer::Timer_Expired
PUBLIC	?Register_Auto_Save_Variables@JFW_Zone_Timer@@UAEXXZ ; JFW_Zone_Timer::Register_Auto_Save_Variables
PUBLIC	??0JFW_Zone_Timer@@QAE@XZ			; JFW_Zone_Timer::JFW_Zone_Timer
PUBLIC	??1JFW_Zone_Timer@@UAE@XZ			; JFW_Zone_Timer::~JFW_Zone_Timer
PUBLIC	??_GJFW_Zone_Timer@@UAEPAXI@Z			; JFW_Zone_Timer::`scalar deleting destructor'
PUBLIC	?Entered@JFW_Gate_Zone_2@@EAEXPAVScriptableGameObj@@0@Z ; JFW_Gate_Zone_2::Entered
PUBLIC	?Timer_Expired@JFW_Gate_Zone_2@@EAEXPAVScriptableGameObj@@H@Z ; JFW_Gate_Zone_2::Timer_Expired
PUBLIC	??0JFW_Gate_Zone_2@@QAE@XZ			; JFW_Gate_Zone_2::JFW_Gate_Zone_2
PUBLIC	??1JFW_Gate_Zone_2@@UAE@XZ			; JFW_Gate_Zone_2::~JFW_Gate_Zone_2
PUBLIC	??_GJFW_Gate_Zone_2@@UAEPAXI@Z			; JFW_Gate_Zone_2::`scalar deleting destructor'
PUBLIC	?Entered@JFW_Blow_Up_On_Enter@@EAEXPAVScriptableGameObj@@0@Z ; JFW_Blow_Up_On_Enter::Entered
PUBLIC	??0JFW_Blow_Up_On_Enter@@QAE@XZ			; JFW_Blow_Up_On_Enter::JFW_Blow_Up_On_Enter
PUBLIC	??1JFW_Blow_Up_On_Enter@@UAE@XZ			; JFW_Blow_Up_On_Enter::~JFW_Blow_Up_On_Enter
PUBLIC	??_GJFW_Blow_Up_On_Enter@@UAEPAXI@Z		; JFW_Blow_Up_On_Enter::`scalar deleting destructor'
PUBLIC	?Entered@JFW_Blow_Up_On_Enter_Delay@@EAEXPAVScriptableGameObj@@0@Z ; JFW_Blow_Up_On_Enter_Delay::Entered
PUBLIC	?Timer_Expired@JFW_Blow_Up_On_Enter_Delay@@EAEXPAVScriptableGameObj@@H@Z ; JFW_Blow_Up_On_Enter_Delay::Timer_Expired
PUBLIC	??0JFW_Blow_Up_On_Enter_Delay@@QAE@XZ		; JFW_Blow_Up_On_Enter_Delay::JFW_Blow_Up_On_Enter_Delay
PUBLIC	??1JFW_Blow_Up_On_Enter_Delay@@UAE@XZ		; JFW_Blow_Up_On_Enter_Delay::~JFW_Blow_Up_On_Enter_Delay
PUBLIC	??_GJFW_Blow_Up_On_Enter_Delay@@UAEPAXI@Z	; JFW_Blow_Up_On_Enter_Delay::`scalar deleting destructor'
PUBLIC	?Entered@JFW_Apply_Damage_On_Enter@@EAEXPAVScriptableGameObj@@0@Z ; JFW_Apply_Damage_On_Enter::Entered
PUBLIC	??0JFW_Apply_Damage_On_Enter@@QAE@XZ		; JFW_Apply_Damage_On_Enter::JFW_Apply_Damage_On_Enter
PUBLIC	??1JFW_Apply_Damage_On_Enter@@UAE@XZ		; JFW_Apply_Damage_On_Enter::~JFW_Apply_Damage_On_Enter
PUBLIC	??_GJFW_Apply_Damage_On_Enter@@UAEPAXI@Z	; JFW_Apply_Damage_On_Enter::`scalar deleting destructor'
PUBLIC	?Entered@JFW_Apply_Damage_On_Enter_Timer@@EAEXPAVScriptableGameObj@@0@Z ; JFW_Apply_Damage_On_Enter_Timer::Entered
PUBLIC	?Timer_Expired@JFW_Apply_Damage_On_Enter_Timer@@EAEXPAVScriptableGameObj@@H@Z ; JFW_Apply_Damage_On_Enter_Timer::Timer_Expired
PUBLIC	?Register_Auto_Save_Variables@JFW_Apply_Damage_On_Enter_Timer@@UAEXXZ ; JFW_Apply_Damage_On_Enter_Timer::Register_Auto_Save_Variables
PUBLIC	??0JFW_Apply_Damage_On_Enter_Timer@@QAE@XZ	; JFW_Apply_Damage_On_Enter_Timer::JFW_Apply_Damage_On_Enter_Timer
PUBLIC	??1JFW_Apply_Damage_On_Enter_Timer@@UAE@XZ	; JFW_Apply_Damage_On_Enter_Timer::~JFW_Apply_Damage_On_Enter_Timer
PUBLIC	??_GJFW_Apply_Damage_On_Enter_Timer@@UAEPAXI@Z	; JFW_Apply_Damage_On_Enter_Timer::`scalar deleting destructor'
PUBLIC	?Entered@JFW_Blow_Up_On_Enter_Random@@EAEXPAVScriptableGameObj@@0@Z ; JFW_Blow_Up_On_Enter_Random::Entered
PUBLIC	??0JFW_Blow_Up_On_Enter_Random@@QAE@XZ		; JFW_Blow_Up_On_Enter_Random::JFW_Blow_Up_On_Enter_Random
PUBLIC	??1JFW_Blow_Up_On_Enter_Random@@UAE@XZ		; JFW_Blow_Up_On_Enter_Random::~JFW_Blow_Up_On_Enter_Random
PUBLIC	??_GJFW_Blow_Up_On_Enter_Random@@UAEPAXI@Z	; JFW_Blow_Up_On_Enter_Random::`scalar deleting destructor'
PUBLIC	?Created@JFW_Create_Destroy_Object_On_Enter@@EAEXPAVScriptableGameObj@@@Z ; JFW_Create_Destroy_Object_On_Enter::Created
PUBLIC	?Entered@JFW_Create_Destroy_Object_On_Enter@@EAEXPAVScriptableGameObj@@0@Z ; JFW_Create_Destroy_Object_On_Enter::Entered
PUBLIC	?Exited@JFW_Create_Destroy_Object_On_Enter@@EAEXPAVScriptableGameObj@@0@Z ; JFW_Create_Destroy_Object_On_Enter::Exited
PUBLIC	?Register_Auto_Save_Variables@JFW_Create_Destroy_Object_On_Enter@@UAEXXZ ; JFW_Create_Destroy_Object_On_Enter::Register_Auto_Save_Variables
PUBLIC	??0JFW_Create_Destroy_Object_On_Enter@@QAE@XZ	; JFW_Create_Destroy_Object_On_Enter::JFW_Create_Destroy_Object_On_Enter
PUBLIC	??1JFW_Create_Destroy_Object_On_Enter@@UAE@XZ	; JFW_Create_Destroy_Object_On_Enter::~JFW_Create_Destroy_Object_On_Enter
PUBLIC	??_GJFW_Create_Destroy_Object_On_Enter@@UAEPAXI@Z ; JFW_Create_Destroy_Object_On_Enter::`scalar deleting destructor'
PUBLIC	?Custom@JFW_Send_Driver_Custom_On_Enter@@EAEXPAVScriptableGameObj@@HH0@Z ; JFW_Send_Driver_Custom_On_Enter::Custom
PUBLIC	??0JFW_Send_Driver_Custom_On_Enter@@QAE@XZ	; JFW_Send_Driver_Custom_On_Enter::JFW_Send_Driver_Custom_On_Enter
PUBLIC	??1JFW_Send_Driver_Custom_On_Enter@@UAE@XZ	; JFW_Send_Driver_Custom_On_Enter::~JFW_Send_Driver_Custom_On_Enter
PUBLIC	??_GJFW_Send_Driver_Custom_On_Enter@@UAEPAXI@Z	; JFW_Send_Driver_Custom_On_Enter::`scalar deleting destructor'
PUBLIC	?Entered@JFW_Stealth_Zone@@EAEXPAVScriptableGameObj@@0@Z ; JFW_Stealth_Zone::Entered
PUBLIC	?Exited@JFW_Stealth_Zone@@EAEXPAVScriptableGameObj@@0@Z ; JFW_Stealth_Zone::Exited
PUBLIC	??0JFW_Stealth_Zone@@QAE@XZ			; JFW_Stealth_Zone::JFW_Stealth_Zone
PUBLIC	??1JFW_Stealth_Zone@@UAE@XZ			; JFW_Stealth_Zone::~JFW_Stealth_Zone
PUBLIC	??_GJFW_Stealth_Zone@@UAEPAXI@Z			; JFW_Stealth_Zone::`scalar deleting destructor'
PUBLIC	?Entered@JFW_Fog_Zone@@EAEXPAVScriptableGameObj@@0@Z ; JFW_Fog_Zone::Entered
PUBLIC	?Exited@JFW_Fog_Zone@@EAEXPAVScriptableGameObj@@0@Z ; JFW_Fog_Zone::Exited
PUBLIC	?Timer_Expired@JFW_Fog_Zone@@EAEXPAVScriptableGameObj@@H@Z ; JFW_Fog_Zone::Timer_Expired
PUBLIC	??0JFW_Fog_Zone@@QAE@XZ				; JFW_Fog_Zone::JFW_Fog_Zone
PUBLIC	??1JFW_Fog_Zone@@UAE@XZ				; JFW_Fog_Zone::~JFW_Fog_Zone
PUBLIC	??_GJFW_Fog_Zone@@UAEPAXI@Z			; JFW_Fog_Zone::`scalar deleting destructor'
PUBLIC	?Entered@JFW_War_Blitz_Zone@@EAEXPAVScriptableGameObj@@0@Z ; JFW_War_Blitz_Zone::Entered
PUBLIC	?Exited@JFW_War_Blitz_Zone@@EAEXPAVScriptableGameObj@@0@Z ; JFW_War_Blitz_Zone::Exited
PUBLIC	?Timer_Expired@JFW_War_Blitz_Zone@@EAEXPAVScriptableGameObj@@H@Z ; JFW_War_Blitz_Zone::Timer_Expired
PUBLIC	??0JFW_War_Blitz_Zone@@QAE@XZ			; JFW_War_Blitz_Zone::JFW_War_Blitz_Zone
PUBLIC	??1JFW_War_Blitz_Zone@@UAE@XZ			; JFW_War_Blitz_Zone::~JFW_War_Blitz_Zone
PUBLIC	??_GJFW_War_Blitz_Zone@@UAEPAXI@Z		; JFW_War_Blitz_Zone::`scalar deleting destructor'
PUBLIC	?Entered@JFW_Heavy_Vehicle_Damage_Zone@@EAEXPAVScriptableGameObj@@0@Z ; JFW_Heavy_Vehicle_Damage_Zone::Entered
PUBLIC	?Timer_Expired@JFW_Heavy_Vehicle_Damage_Zone@@EAEXPAVScriptableGameObj@@H@Z ; JFW_Heavy_Vehicle_Damage_Zone::Timer_Expired
PUBLIC	??0JFW_Heavy_Vehicle_Damage_Zone@@QAE@XZ	; JFW_Heavy_Vehicle_Damage_Zone::JFW_Heavy_Vehicle_Damage_Zone
PUBLIC	??1JFW_Heavy_Vehicle_Damage_Zone@@UAE@XZ	; JFW_Heavy_Vehicle_Damage_Zone::~JFW_Heavy_Vehicle_Damage_Zone
PUBLIC	??_GJFW_Heavy_Vehicle_Damage_Zone@@UAEPAXI@Z	; JFW_Heavy_Vehicle_Damage_Zone::`scalar deleting destructor'
PUBLIC	?Entered@JFW_Light_Vehicle_Damage_Zone@@EAEXPAVScriptableGameObj@@0@Z ; JFW_Light_Vehicle_Damage_Zone::Entered
PUBLIC	?Timer_Expired@JFW_Light_Vehicle_Damage_Zone@@EAEXPAVScriptableGameObj@@H@Z ; JFW_Light_Vehicle_Damage_Zone::Timer_Expired
PUBLIC	??0JFW_Light_Vehicle_Damage_Zone@@QAE@XZ	; JFW_Light_Vehicle_Damage_Zone::JFW_Light_Vehicle_Damage_Zone
PUBLIC	??1JFW_Light_Vehicle_Damage_Zone@@UAE@XZ	; JFW_Light_Vehicle_Damage_Zone::~JFW_Light_Vehicle_Damage_Zone
PUBLIC	??_GJFW_Light_Vehicle_Damage_Zone@@UAEPAXI@Z	; JFW_Light_Vehicle_Damage_Zone::`scalar deleting destructor'
PUBLIC	?Entered@JFW_2D_Sound_Zone@@EAEXPAVScriptableGameObj@@0@Z ; JFW_2D_Sound_Zone::Entered
PUBLIC	??0JFW_2D_Sound_Zone@@QAE@XZ			; JFW_2D_Sound_Zone::JFW_2D_Sound_Zone
PUBLIC	??1JFW_2D_Sound_Zone@@UAE@XZ			; JFW_2D_Sound_Zone::~JFW_2D_Sound_Zone
PUBLIC	??_GJFW_2D_Sound_Zone@@UAEPAXI@Z		; JFW_2D_Sound_Zone::`scalar deleting destructor'
PUBLIC	?Created@JFW_Zone_Send_Custom_Multiple@@EAEXPAVScriptableGameObj@@@Z ; JFW_Zone_Send_Custom_Multiple::Created
PUBLIC	?Entered@JFW_Zone_Send_Custom_Multiple@@EAEXPAVScriptableGameObj@@0@Z ; JFW_Zone_Send_Custom_Multiple::Entered
PUBLIC	?Exited@JFW_Zone_Send_Custom_Multiple@@EAEXPAVScriptableGameObj@@0@Z ; JFW_Zone_Send_Custom_Multiple::Exited
PUBLIC	?Register_Auto_Save_Variables@JFW_Zone_Send_Custom_Multiple@@UAEXXZ ; JFW_Zone_Send_Custom_Multiple::Register_Auto_Save_Variables
PUBLIC	??0JFW_Zone_Send_Custom_Multiple@@QAE@XZ	; JFW_Zone_Send_Custom_Multiple::JFW_Zone_Send_Custom_Multiple
PUBLIC	??1JFW_Zone_Send_Custom_Multiple@@UAE@XZ	; JFW_Zone_Send_Custom_Multiple::~JFW_Zone_Send_Custom_Multiple
PUBLIC	??_GJFW_Zone_Send_Custom_Multiple@@UAEPAXI@Z	; JFW_Zone_Send_Custom_Multiple::`scalar deleting destructor'
PUBLIC	?Entered@JFW_Zone_Send_Custom_Enter@@EAEXPAVScriptableGameObj@@0@Z ; JFW_Zone_Send_Custom_Enter::Entered
PUBLIC	??0JFW_Zone_Send_Custom_Enter@@QAE@XZ		; JFW_Zone_Send_Custom_Enter::JFW_Zone_Send_Custom_Enter
PUBLIC	??1JFW_Zone_Send_Custom_Enter@@UAE@XZ		; JFW_Zone_Send_Custom_Enter::~JFW_Zone_Send_Custom_Enter
PUBLIC	??_GJFW_Zone_Send_Custom_Enter@@UAEPAXI@Z	; JFW_Zone_Send_Custom_Enter::`scalar deleting destructor'
PUBLIC	?Exited@JFW_Zone_Send_Custom_Exit@@EAEXPAVScriptableGameObj@@0@Z ; JFW_Zone_Send_Custom_Exit::Exited
PUBLIC	??0JFW_Zone_Send_Custom_Exit@@QAE@XZ		; JFW_Zone_Send_Custom_Exit::JFW_Zone_Send_Custom_Exit
PUBLIC	??1JFW_Zone_Send_Custom_Exit@@UAE@XZ		; JFW_Zone_Send_Custom_Exit::~JFW_Zone_Send_Custom_Exit
PUBLIC	??_GJFW_Zone_Send_Custom_Exit@@UAEPAXI@Z	; JFW_Zone_Send_Custom_Exit::`scalar deleting destructor'
PUBLIC	?Created@JFW_Vehicle_Zone_Animation@@EAEXPAVScriptableGameObj@@@Z ; JFW_Vehicle_Zone_Animation::Created
PUBLIC	?Animation_Complete@JFW_Vehicle_Zone_Animation@@EAEXPAVScriptableGameObj@@PBD@Z ; JFW_Vehicle_Zone_Animation::Animation_Complete
PUBLIC	?Entered@JFW_Vehicle_Zone_Animation@@EAEXPAVScriptableGameObj@@0@Z ; JFW_Vehicle_Zone_Animation::Entered
PUBLIC	?Exited@JFW_Vehicle_Zone_Animation@@EAEXPAVScriptableGameObj@@0@Z ; JFW_Vehicle_Zone_Animation::Exited
PUBLIC	?Register_Auto_Save_Variables@JFW_Vehicle_Zone_Animation@@UAEXXZ ; JFW_Vehicle_Zone_Animation::Register_Auto_Save_Variables
PUBLIC	??0JFW_Vehicle_Zone_Animation@@QAE@XZ		; JFW_Vehicle_Zone_Animation::JFW_Vehicle_Zone_Animation
PUBLIC	??1JFW_Vehicle_Zone_Animation@@UAE@XZ		; JFW_Vehicle_Zone_Animation::~JFW_Vehicle_Zone_Animation
PUBLIC	??_GJFW_Vehicle_Zone_Animation@@UAEPAXI@Z	; JFW_Vehicle_Zone_Animation::`scalar deleting destructor'
PUBLIC	?Entered@JFW_Zone_Money_Preset@@EAEXPAVScriptableGameObj@@0@Z ; JFW_Zone_Money_Preset::Entered
PUBLIC	?Exited@JFW_Zone_Money_Preset@@EAEXPAVScriptableGameObj@@0@Z ; JFW_Zone_Money_Preset::Exited
PUBLIC	?Register_Auto_Save_Variables@JFW_Zone_Money_Preset@@UAEXXZ ; JFW_Zone_Money_Preset::Register_Auto_Save_Variables
PUBLIC	??0JFW_Zone_Money_Preset@@QAE@XZ		; JFW_Zone_Money_Preset::JFW_Zone_Money_Preset
PUBLIC	??1JFW_Zone_Money_Preset@@UAE@XZ		; JFW_Zone_Money_Preset::~JFW_Zone_Money_Preset
PUBLIC	??_GJFW_Zone_Money_Preset@@UAEPAXI@Z		; JFW_Zone_Money_Preset::`scalar deleting destructor'
PUBLIC	?Entered@JFW_Look_At_Location_Entry@@EAEXPAVScriptableGameObj@@0@Z ; JFW_Look_At_Location_Entry::Entered
PUBLIC	??0JFW_Look_At_Location_Entry@@QAE@XZ		; JFW_Look_At_Location_Entry::JFW_Look_At_Location_Entry
PUBLIC	??1JFW_Look_At_Location_Entry@@UAE@XZ		; JFW_Look_At_Location_Entry::~JFW_Look_At_Location_Entry
PUBLIC	??_GJFW_Look_At_Location_Entry@@UAEPAXI@Z	; JFW_Look_At_Location_Entry::`scalar deleting destructor'
PUBLIC	?Entered@JFW_Look_At_Object_Entry@@EAEXPAVScriptableGameObj@@0@Z ; JFW_Look_At_Object_Entry::Entered
PUBLIC	??0JFW_Look_At_Object_Entry@@QAE@XZ		; JFW_Look_At_Object_Entry::JFW_Look_At_Object_Entry
PUBLIC	??1JFW_Look_At_Object_Entry@@UAE@XZ		; JFW_Look_At_Object_Entry::~JFW_Look_At_Object_Entry
PUBLIC	??_GJFW_Look_At_Object_Entry@@UAEPAXI@Z		; JFW_Look_At_Object_Entry::`scalar deleting destructor'
PUBLIC	?Entered@JFW_3D_Sound_Team_Zone@@EAEXPAVScriptableGameObj@@0@Z ; JFW_3D_Sound_Team_Zone::Entered
PUBLIC	??0JFW_3D_Sound_Team_Zone@@QAE@XZ		; JFW_3D_Sound_Team_Zone::JFW_3D_Sound_Team_Zone
PUBLIC	??1JFW_3D_Sound_Team_Zone@@UAE@XZ		; JFW_3D_Sound_Team_Zone::~JFW_3D_Sound_Team_Zone
PUBLIC	??_GJFW_3D_Sound_Team_Zone@@UAEPAXI@Z		; JFW_3D_Sound_Team_Zone::`scalar deleting destructor'
PUBLIC	?Entered@JFW_3D_Sound_Player_Zone@@EAEXPAVScriptableGameObj@@0@Z ; JFW_3D_Sound_Player_Zone::Entered
PUBLIC	??0JFW_3D_Sound_Player_Zone@@QAE@XZ		; JFW_3D_Sound_Player_Zone::JFW_3D_Sound_Player_Zone
PUBLIC	??1JFW_3D_Sound_Player_Zone@@UAE@XZ		; JFW_3D_Sound_Player_Zone::~JFW_3D_Sound_Player_Zone
PUBLIC	??_GJFW_3D_Sound_Player_Zone@@UAEPAXI@Z		; JFW_3D_Sound_Player_Zone::`scalar deleting destructor'
PUBLIC	?Entered@JFW_2D_Sound_Team_Zone@@EAEXPAVScriptableGameObj@@0@Z ; JFW_2D_Sound_Team_Zone::Entered
PUBLIC	??0JFW_2D_Sound_Team_Zone@@QAE@XZ		; JFW_2D_Sound_Team_Zone::JFW_2D_Sound_Team_Zone
PUBLIC	??1JFW_2D_Sound_Team_Zone@@UAE@XZ		; JFW_2D_Sound_Team_Zone::~JFW_2D_Sound_Team_Zone
PUBLIC	??_GJFW_2D_Sound_Team_Zone@@UAEPAXI@Z		; JFW_2D_Sound_Team_Zone::`scalar deleting destructor'
PUBLIC	?Entered@JFW_2D_Sound_Player_Zone@@EAEXPAVScriptableGameObj@@0@Z ; JFW_2D_Sound_Player_Zone::Entered
PUBLIC	??0JFW_2D_Sound_Player_Zone@@QAE@XZ		; JFW_2D_Sound_Player_Zone::JFW_2D_Sound_Player_Zone
PUBLIC	??1JFW_2D_Sound_Player_Zone@@UAE@XZ		; JFW_2D_Sound_Player_Zone::~JFW_2D_Sound_Player_Zone
PUBLIC	??_GJFW_2D_Sound_Player_Zone@@UAEPAXI@Z		; JFW_2D_Sound_Player_Zone::`scalar deleting destructor'
PUBLIC	?Entered@JFW_Zone_PCT@@EAEXPAVScriptableGameObj@@0@Z ; JFW_Zone_PCT::Entered
PUBLIC	??0JFW_Zone_PCT@@QAE@XZ				; JFW_Zone_PCT::JFW_Zone_PCT
PUBLIC	??1JFW_Zone_PCT@@UAE@XZ				; JFW_Zone_PCT::~JFW_Zone_PCT
PUBLIC	??_GJFW_Zone_PCT@@UAEPAXI@Z			; JFW_Zone_PCT::`scalar deleting destructor'
PUBLIC	?Entered@JFW_Disable_Radar_Zone@@EAEXPAVScriptableGameObj@@0@Z ; JFW_Disable_Radar_Zone::Entered
PUBLIC	?Exited@JFW_Disable_Radar_Zone@@EAEXPAVScriptableGameObj@@0@Z ; JFW_Disable_Radar_Zone::Exited
PUBLIC	??0JFW_Disable_Radar_Zone@@QAE@XZ		; JFW_Disable_Radar_Zone::JFW_Disable_Radar_Zone
PUBLIC	??1JFW_Disable_Radar_Zone@@UAE@XZ		; JFW_Disable_Radar_Zone::~JFW_Disable_Radar_Zone
PUBLIC	??_GJFW_Disable_Radar_Zone@@UAEPAXI@Z		; JFW_Disable_Radar_Zone::`scalar deleting destructor'
PUBLIC	?Entered@JFW_PPAGE_Zone@@EAEXPAVScriptableGameObj@@0@Z ; JFW_PPAGE_Zone::Entered
PUBLIC	??0JFW_PPAGE_Zone@@QAE@XZ			; JFW_PPAGE_Zone::JFW_PPAGE_Zone
PUBLIC	??1JFW_PPAGE_Zone@@UAE@XZ			; JFW_PPAGE_Zone::~JFW_PPAGE_Zone
PUBLIC	??_GJFW_PPAGE_Zone@@UAEPAXI@Z			; JFW_PPAGE_Zone::`scalar deleting destructor'
PUBLIC	?Entered@JFW_MSG_Zone@@EAEXPAVScriptableGameObj@@0@Z ; JFW_MSG_Zone::Entered
PUBLIC	??0JFW_MSG_Zone@@QAE@XZ				; JFW_MSG_Zone::JFW_MSG_Zone
PUBLIC	??1JFW_MSG_Zone@@UAE@XZ				; JFW_MSG_Zone::~JFW_MSG_Zone
PUBLIC	??_GJFW_MSG_Zone@@UAEPAXI@Z			; JFW_MSG_Zone::`scalar deleting destructor'
PUBLIC	?Entered@JFW_TMSG_Zone@@EAEXPAVScriptableGameObj@@0@Z ; JFW_TMSG_Zone::Entered
PUBLIC	??0JFW_TMSG_Zone@@QAE@XZ			; JFW_TMSG_Zone::JFW_TMSG_Zone
PUBLIC	??1JFW_TMSG_Zone@@UAE@XZ			; JFW_TMSG_Zone::~JFW_TMSG_Zone
PUBLIC	??_GJFW_TMSG_Zone@@UAEPAXI@Z			; JFW_TMSG_Zone::`scalar deleting destructor'
PUBLIC	?Custom@JFW_Teleport_Zone_Enable@@EAEXPAVScriptableGameObj@@HH0@Z ; JFW_Teleport_Zone_Enable::Custom
PUBLIC	?Created@JFW_Teleport_Zone_Enable@@EAEXPAVScriptableGameObj@@@Z ; JFW_Teleport_Zone_Enable::Created
PUBLIC	?Entered@JFW_Teleport_Zone_Enable@@EAEXPAVScriptableGameObj@@0@Z ; JFW_Teleport_Zone_Enable::Entered
PUBLIC	?Register_Auto_Save_Variables@JFW_Teleport_Zone_Enable@@UAEXXZ ; JFW_Teleport_Zone_Enable::Register_Auto_Save_Variables
PUBLIC	??0JFW_Teleport_Zone_Enable@@QAE@XZ		; JFW_Teleport_Zone_Enable::JFW_Teleport_Zone_Enable
PUBLIC	??1JFW_Teleport_Zone_Enable@@UAE@XZ		; JFW_Teleport_Zone_Enable::~JFW_Teleport_Zone_Enable
PUBLIC	??_GJFW_Teleport_Zone_Enable@@UAEPAXI@Z		; JFW_Teleport_Zone_Enable::`scalar deleting destructor'
PUBLIC	?Created@JFW_Radar_Spy_Zone@@EAEXPAVScriptableGameObj@@@Z ; JFW_Radar_Spy_Zone::Created
PUBLIC	?Entered@JFW_Radar_Spy_Zone@@EAEXPAVScriptableGameObj@@0@Z ; JFW_Radar_Spy_Zone::Entered
PUBLIC	??0JFW_Radar_Spy_Zone@@QAE@XZ			; JFW_Radar_Spy_Zone::JFW_Radar_Spy_Zone
PUBLIC	??1JFW_Radar_Spy_Zone@@UAE@XZ			; JFW_Radar_Spy_Zone::~JFW_Radar_Spy_Zone
PUBLIC	??_GJFW_Radar_Spy_Zone@@UAEPAXI@Z		; JFW_Radar_Spy_Zone::`scalar deleting destructor'
PUBLIC	?Created@JFW_Radar_Spy_Zone_New@@EAEXPAVScriptableGameObj@@@Z ; JFW_Radar_Spy_Zone_New::Created
PUBLIC	?Entered@JFW_Radar_Spy_Zone_New@@EAEXPAVScriptableGameObj@@0@Z ; JFW_Radar_Spy_Zone_New::Entered
PUBLIC	??0JFW_Radar_Spy_Zone_New@@QAE@XZ		; JFW_Radar_Spy_Zone_New::JFW_Radar_Spy_Zone_New
PUBLIC	??1JFW_Radar_Spy_Zone_New@@UAE@XZ		; JFW_Radar_Spy_Zone_New::~JFW_Radar_Spy_Zone_New
PUBLIC	??_GJFW_Radar_Spy_Zone_New@@UAEPAXI@Z		; JFW_Radar_Spy_Zone_New::`scalar deleting destructor'
PUBLIC	?Entered@JFW_2D_Sound_Zone_Team@@EAEXPAVScriptableGameObj@@0@Z ; JFW_2D_Sound_Zone_Team::Entered
PUBLIC	?Timer_Expired@JFW_2D_Sound_Zone_Team@@EAEXPAVScriptableGameObj@@H@Z ; JFW_2D_Sound_Zone_Team::Timer_Expired
PUBLIC	??0JFW_2D_Sound_Zone_Team@@QAE@XZ		; JFW_2D_Sound_Zone_Team::JFW_2D_Sound_Zone_Team
PUBLIC	??1JFW_2D_Sound_Zone_Team@@UAE@XZ		; JFW_2D_Sound_Zone_Team::~JFW_2D_Sound_Zone_Team
PUBLIC	??_GJFW_2D_Sound_Zone_Team@@UAEPAXI@Z		; JFW_2D_Sound_Zone_Team::`scalar deleting destructor'
PUBLIC	?Created@JFW_Repair_Zone_2@@EAEXPAVScriptableGameObj@@@Z ; JFW_Repair_Zone_2::Created
PUBLIC	?Entered@JFW_Repair_Zone_2@@EAEXPAVScriptableGameObj@@0@Z ; JFW_Repair_Zone_2::Entered
PUBLIC	?Exited@JFW_Repair_Zone_2@@EAEXPAVScriptableGameObj@@0@Z ; JFW_Repair_Zone_2::Exited
PUBLIC	?Timer_Expired@JFW_Repair_Zone_2@@EAEXPAVScriptableGameObj@@H@Z ; JFW_Repair_Zone_2::Timer_Expired
PUBLIC	?KeyHook@JFW_Repair_Zone_2@@EAEXXZ		; JFW_Repair_Zone_2::KeyHook
PUBLIC	?Register_Auto_Save_Variables@JFW_Repair_Zone_2@@UAEXXZ ; JFW_Repair_Zone_2::Register_Auto_Save_Variables
PUBLIC	??0JFW_Repair_Zone_2@@QAE@XZ			; JFW_Repair_Zone_2::JFW_Repair_Zone_2
PUBLIC	??1JFW_Repair_Zone_2@@UAE@XZ			; JFW_Repair_Zone_2::~JFW_Repair_Zone_2
PUBLIC	??_GJFW_Repair_Zone_2@@UAEPAXI@Z		; JFW_Repair_Zone_2::`scalar deleting destructor'
PUBLIC	?Created@JFW_Repair_Zone_No_Boats@@EAEXPAVScriptableGameObj@@@Z ; JFW_Repair_Zone_No_Boats::Created
PUBLIC	?Entered@JFW_Repair_Zone_No_Boats@@EAEXPAVScriptableGameObj@@0@Z ; JFW_Repair_Zone_No_Boats::Entered
PUBLIC	?Exited@JFW_Repair_Zone_No_Boats@@EAEXPAVScriptableGameObj@@0@Z ; JFW_Repair_Zone_No_Boats::Exited
PUBLIC	?Timer_Expired@JFW_Repair_Zone_No_Boats@@EAEXPAVScriptableGameObj@@H@Z ; JFW_Repair_Zone_No_Boats::Timer_Expired
PUBLIC	?KeyHook@JFW_Repair_Zone_No_Boats@@EAEXXZ	; JFW_Repair_Zone_No_Boats::KeyHook
PUBLIC	?Register_Auto_Save_Variables@JFW_Repair_Zone_No_Boats@@UAEXXZ ; JFW_Repair_Zone_No_Boats::Register_Auto_Save_Variables
PUBLIC	??0JFW_Repair_Zone_No_Boats@@QAE@XZ		; JFW_Repair_Zone_No_Boats::JFW_Repair_Zone_No_Boats
PUBLIC	??1JFW_Repair_Zone_No_Boats@@UAE@XZ		; JFW_Repair_Zone_No_Boats::~JFW_Repair_Zone_No_Boats
PUBLIC	??_GJFW_Repair_Zone_No_Boats@@UAEPAXI@Z		; JFW_Repair_Zone_No_Boats::`scalar deleting destructor'
PUBLIC	?Created@JFW_Repair_Zone_Boats@@EAEXPAVScriptableGameObj@@@Z ; JFW_Repair_Zone_Boats::Created
PUBLIC	?Entered@JFW_Repair_Zone_Boats@@EAEXPAVScriptableGameObj@@0@Z ; JFW_Repair_Zone_Boats::Entered
PUBLIC	?Exited@JFW_Repair_Zone_Boats@@EAEXPAVScriptableGameObj@@0@Z ; JFW_Repair_Zone_Boats::Exited
PUBLIC	?Timer_Expired@JFW_Repair_Zone_Boats@@EAEXPAVScriptableGameObj@@H@Z ; JFW_Repair_Zone_Boats::Timer_Expired
PUBLIC	?KeyHook@JFW_Repair_Zone_Boats@@EAEXXZ		; JFW_Repair_Zone_Boats::KeyHook
PUBLIC	?Register_Auto_Save_Variables@JFW_Repair_Zone_Boats@@UAEXXZ ; JFW_Repair_Zone_Boats::Register_Auto_Save_Variables
PUBLIC	??0JFW_Repair_Zone_Boats@@QAE@XZ		; JFW_Repair_Zone_Boats::JFW_Repair_Zone_Boats
PUBLIC	??1JFW_Repair_Zone_Boats@@UAE@XZ		; JFW_Repair_Zone_Boats::~JFW_Repair_Zone_Boats
PUBLIC	??_GJFW_Repair_Zone_Boats@@UAEPAXI@Z		; JFW_Repair_Zone_Boats::`scalar deleting destructor'
PUBLIC	?Created@JFW_Sell_Zone@@EAEXPAVScriptableGameObj@@@Z ; JFW_Sell_Zone::Created
PUBLIC	?Entered@JFW_Sell_Zone@@EAEXPAVScriptableGameObj@@0@Z ; JFW_Sell_Zone::Entered
PUBLIC	?Exited@JFW_Sell_Zone@@EAEXPAVScriptableGameObj@@0@Z ; JFW_Sell_Zone::Exited
PUBLIC	?KeyHook@JFW_Sell_Zone@@EAEXXZ			; JFW_Sell_Zone::KeyHook
PUBLIC	?Timer_Expired@JFW_Sell_Zone@@EAEXPAVScriptableGameObj@@H@Z ; JFW_Sell_Zone::Timer_Expired
PUBLIC	?Register_Auto_Save_Variables@JFW_Sell_Zone@@UAEXXZ ; JFW_Sell_Zone::Register_Auto_Save_Variables
PUBLIC	??0JFW_Sell_Zone@@QAE@XZ			; JFW_Sell_Zone::JFW_Sell_Zone
PUBLIC	??1JFW_Sell_Zone@@UAE@XZ			; JFW_Sell_Zone::~JFW_Sell_Zone
PUBLIC	??_GJFW_Sell_Zone@@UAEPAXI@Z			; JFW_Sell_Zone::`scalar deleting destructor'
PUBLIC	?Created@JFW_Infantry_Force_Composition_Zone@@EAEXPAVScriptableGameObj@@@Z ; JFW_Infantry_Force_Composition_Zone::Created
PUBLIC	?Entered@JFW_Infantry_Force_Composition_Zone@@EAEXPAVScriptableGameObj@@0@Z ; JFW_Infantry_Force_Composition_Zone::Entered
PUBLIC	?Timer_Expired@JFW_Infantry_Force_Composition_Zone@@EAEXPAVScriptableGameObj@@H@Z ; JFW_Infantry_Force_Composition_Zone::Timer_Expired
PUBLIC	??0JFW_Infantry_Force_Composition_Zone@@QAE@XZ	; JFW_Infantry_Force_Composition_Zone::JFW_Infantry_Force_Composition_Zone
PUBLIC	??1JFW_Infantry_Force_Composition_Zone@@UAE@XZ	; JFW_Infantry_Force_Composition_Zone::~JFW_Infantry_Force_Composition_Zone
PUBLIC	??_GJFW_Infantry_Force_Composition_Zone@@UAEPAXI@Z ; JFW_Infantry_Force_Composition_Zone::`scalar deleting destructor'
PUBLIC	?Created@JFW_Vehicle_Force_Composition_Zone@@EAEXPAVScriptableGameObj@@@Z ; JFW_Vehicle_Force_Composition_Zone::Created
PUBLIC	?Entered@JFW_Vehicle_Force_Composition_Zone@@EAEXPAVScriptableGameObj@@0@Z ; JFW_Vehicle_Force_Composition_Zone::Entered
PUBLIC	?Timer_Expired@JFW_Vehicle_Force_Composition_Zone@@EAEXPAVScriptableGameObj@@H@Z ; JFW_Vehicle_Force_Composition_Zone::Timer_Expired
PUBLIC	??0JFW_Vehicle_Force_Composition_Zone@@QAE@XZ	; JFW_Vehicle_Force_Composition_Zone::JFW_Vehicle_Force_Composition_Zone
PUBLIC	??1JFW_Vehicle_Force_Composition_Zone@@UAE@XZ	; JFW_Vehicle_Force_Composition_Zone::~JFW_Vehicle_Force_Composition_Zone
PUBLIC	??_GJFW_Vehicle_Force_Composition_Zone@@UAEPAXI@Z ; JFW_Vehicle_Force_Composition_Zone::`scalar deleting destructor'
PUBLIC	?Created@JFW_Infantry_Force_Composition_Zone_New@@EAEXPAVScriptableGameObj@@@Z ; JFW_Infantry_Force_Composition_Zone_New::Created
PUBLIC	?Entered@JFW_Infantry_Force_Composition_Zone_New@@EAEXPAVScriptableGameObj@@0@Z ; JFW_Infantry_Force_Composition_Zone_New::Entered
PUBLIC	?Timer_Expired@JFW_Infantry_Force_Composition_Zone_New@@EAEXPAVScriptableGameObj@@H@Z ; JFW_Infantry_Force_Composition_Zone_New::Timer_Expired
PUBLIC	??0JFW_Infantry_Force_Composition_Zone_New@@QAE@XZ ; JFW_Infantry_Force_Composition_Zone_New::JFW_Infantry_Force_Composition_Zone_New
PUBLIC	??1JFW_Infantry_Force_Composition_Zone_New@@UAE@XZ ; JFW_Infantry_Force_Composition_Zone_New::~JFW_Infantry_Force_Composition_Zone_New
PUBLIC	??_GJFW_Infantry_Force_Composition_Zone_New@@UAEPAXI@Z ; JFW_Infantry_Force_Composition_Zone_New::`scalar deleting destructor'
PUBLIC	?Created@JFW_Vehicle_Force_Composition_Zone_New@@EAEXPAVScriptableGameObj@@@Z ; JFW_Vehicle_Force_Composition_Zone_New::Created
PUBLIC	?Entered@JFW_Vehicle_Force_Composition_Zone_New@@EAEXPAVScriptableGameObj@@0@Z ; JFW_Vehicle_Force_Composition_Zone_New::Entered
PUBLIC	?Timer_Expired@JFW_Vehicle_Force_Composition_Zone_New@@EAEXPAVScriptableGameObj@@H@Z ; JFW_Vehicle_Force_Composition_Zone_New::Timer_Expired
PUBLIC	??0JFW_Vehicle_Force_Composition_Zone_New@@QAE@XZ ; JFW_Vehicle_Force_Composition_Zone_New::JFW_Vehicle_Force_Composition_Zone_New
PUBLIC	??1JFW_Vehicle_Force_Composition_Zone_New@@UAE@XZ ; JFW_Vehicle_Force_Composition_Zone_New::~JFW_Vehicle_Force_Composition_Zone_New
PUBLIC	??_GJFW_Vehicle_Force_Composition_Zone_New@@UAEPAXI@Z ; JFW_Vehicle_Force_Composition_Zone_New::`scalar deleting destructor'
PUBLIC	?Created@JFW_Resize_Zone@@EAEXPAVScriptableGameObj@@@Z ; JFW_Resize_Zone::Created
PUBLIC	??0JFW_Resize_Zone@@QAE@XZ			; JFW_Resize_Zone::JFW_Resize_Zone
PUBLIC	??1JFW_Resize_Zone@@UAE@XZ			; JFW_Resize_Zone::~JFW_Resize_Zone
PUBLIC	??_GJFW_Resize_Zone@@UAEPAXI@Z			; JFW_Resize_Zone::`scalar deleting destructor'
PUBLIC	?Created@JFW_Cash_Spy_Zone@@EAEXPAVScriptableGameObj@@@Z ; JFW_Cash_Spy_Zone::Created
PUBLIC	?Entered@JFW_Cash_Spy_Zone@@EAEXPAVScriptableGameObj@@0@Z ; JFW_Cash_Spy_Zone::Entered
PUBLIC	?Timer_Expired@JFW_Cash_Spy_Zone@@EAEXPAVScriptableGameObj@@H@Z ; JFW_Cash_Spy_Zone::Timer_Expired
PUBLIC	??0JFW_Cash_Spy_Zone@@QAE@XZ			; JFW_Cash_Spy_Zone::JFW_Cash_Spy_Zone
PUBLIC	??1JFW_Cash_Spy_Zone@@UAE@XZ			; JFW_Cash_Spy_Zone::~JFW_Cash_Spy_Zone
PUBLIC	??_GJFW_Cash_Spy_Zone@@UAEPAXI@Z		; JFW_Cash_Spy_Zone::`scalar deleting destructor'
PUBLIC	?Created@JFW_Power_Spy_Zone@@EAEXPAVScriptableGameObj@@@Z ; JFW_Power_Spy_Zone::Created
PUBLIC	?Entered@JFW_Power_Spy_Zone@@EAEXPAVScriptableGameObj@@0@Z ; JFW_Power_Spy_Zone::Entered
PUBLIC	?Timer_Expired@JFW_Power_Spy_Zone@@EAEXPAVScriptableGameObj@@H@Z ; JFW_Power_Spy_Zone::Timer_Expired
PUBLIC	??0JFW_Power_Spy_Zone@@QAE@XZ			; JFW_Power_Spy_Zone::JFW_Power_Spy_Zone
PUBLIC	??1JFW_Power_Spy_Zone@@UAE@XZ			; JFW_Power_Spy_Zone::~JFW_Power_Spy_Zone
PUBLIC	??_GJFW_Power_Spy_Zone@@UAEPAXI@Z		; JFW_Power_Spy_Zone::`scalar deleting destructor'
PUBLIC	?Created@JFW_Cash_Spy_Zone_New@@EAEXPAVScriptableGameObj@@@Z ; JFW_Cash_Spy_Zone_New::Created
PUBLIC	?Entered@JFW_Cash_Spy_Zone_New@@EAEXPAVScriptableGameObj@@0@Z ; JFW_Cash_Spy_Zone_New::Entered
PUBLIC	?Timer_Expired@JFW_Cash_Spy_Zone_New@@EAEXPAVScriptableGameObj@@H@Z ; JFW_Cash_Spy_Zone_New::Timer_Expired
PUBLIC	??0JFW_Cash_Spy_Zone_New@@QAE@XZ		; JFW_Cash_Spy_Zone_New::JFW_Cash_Spy_Zone_New
PUBLIC	??1JFW_Cash_Spy_Zone_New@@UAE@XZ		; JFW_Cash_Spy_Zone_New::~JFW_Cash_Spy_Zone_New
PUBLIC	??_GJFW_Cash_Spy_Zone_New@@UAEPAXI@Z		; JFW_Cash_Spy_Zone_New::`scalar deleting destructor'
PUBLIC	?Created@JFW_Power_Spy_Zone_New@@EAEXPAVScriptableGameObj@@@Z ; JFW_Power_Spy_Zone_New::Created
PUBLIC	?Entered@JFW_Power_Spy_Zone_New@@EAEXPAVScriptableGameObj@@0@Z ; JFW_Power_Spy_Zone_New::Entered
PUBLIC	?Timer_Expired@JFW_Power_Spy_Zone_New@@EAEXPAVScriptableGameObj@@H@Z ; JFW_Power_Spy_Zone_New::Timer_Expired
PUBLIC	??0JFW_Power_Spy_Zone_New@@QAE@XZ		; JFW_Power_Spy_Zone_New::JFW_Power_Spy_Zone_New
PUBLIC	??1JFW_Power_Spy_Zone_New@@UAE@XZ		; JFW_Power_Spy_Zone_New::~JFW_Power_Spy_Zone_New
PUBLIC	??_GJFW_Power_Spy_Zone_New@@UAEPAXI@Z		; JFW_Power_Spy_Zone_New::`scalar deleting destructor'
PUBLIC	?Created@JFW_Conyard_Spy_Zone@@EAEXPAVScriptableGameObj@@@Z ; JFW_Conyard_Spy_Zone::Created
PUBLIC	?Entered@JFW_Conyard_Spy_Zone@@EAEXPAVScriptableGameObj@@0@Z ; JFW_Conyard_Spy_Zone::Entered
PUBLIC	?Timer_Expired@JFW_Conyard_Spy_Zone@@EAEXPAVScriptableGameObj@@H@Z ; JFW_Conyard_Spy_Zone::Timer_Expired
PUBLIC	??0JFW_Conyard_Spy_Zone@@QAE@XZ			; JFW_Conyard_Spy_Zone::JFW_Conyard_Spy_Zone
PUBLIC	??1JFW_Conyard_Spy_Zone@@UAE@XZ			; JFW_Conyard_Spy_Zone::~JFW_Conyard_Spy_Zone
PUBLIC	??_GJFW_Conyard_Spy_Zone@@UAEPAXI@Z		; JFW_Conyard_Spy_Zone::`scalar deleting destructor'
PUBLIC	?Created@JFW_Conyard_Spy_Zone_2@@EAEXPAVScriptableGameObj@@@Z ; JFW_Conyard_Spy_Zone_2::Created
PUBLIC	?Entered@JFW_Conyard_Spy_Zone_2@@EAEXPAVScriptableGameObj@@0@Z ; JFW_Conyard_Spy_Zone_2::Entered
PUBLIC	?Timer_Expired@JFW_Conyard_Spy_Zone_2@@EAEXPAVScriptableGameObj@@H@Z ; JFW_Conyard_Spy_Zone_2::Timer_Expired
PUBLIC	??0JFW_Conyard_Spy_Zone_2@@QAE@XZ		; JFW_Conyard_Spy_Zone_2::JFW_Conyard_Spy_Zone_2
PUBLIC	??1JFW_Conyard_Spy_Zone_2@@UAE@XZ		; JFW_Conyard_Spy_Zone_2::~JFW_Conyard_Spy_Zone_2
PUBLIC	??_GJFW_Conyard_Spy_Zone_2@@UAEPAXI@Z		; JFW_Conyard_Spy_Zone_2::`scalar deleting destructor'
PUBLIC	?Created@JFW_Conyard_Spy_Zone_2_New@@EAEXPAVScriptableGameObj@@@Z ; JFW_Conyard_Spy_Zone_2_New::Created
PUBLIC	?Entered@JFW_Conyard_Spy_Zone_2_New@@EAEXPAVScriptableGameObj@@0@Z ; JFW_Conyard_Spy_Zone_2_New::Entered
PUBLIC	?Timer_Expired@JFW_Conyard_Spy_Zone_2_New@@EAEXPAVScriptableGameObj@@H@Z ; JFW_Conyard_Spy_Zone_2_New::Timer_Expired
PUBLIC	??0JFW_Conyard_Spy_Zone_2_New@@QAE@XZ		; JFW_Conyard_Spy_Zone_2_New::JFW_Conyard_Spy_Zone_2_New
PUBLIC	??1JFW_Conyard_Spy_Zone_2_New@@UAE@XZ		; JFW_Conyard_Spy_Zone_2_New::~JFW_Conyard_Spy_Zone_2_New
PUBLIC	??_GJFW_Conyard_Spy_Zone_2_New@@UAEPAXI@Z	; JFW_Conyard_Spy_Zone_2_New::`scalar deleting destructor'
PUBLIC	?Created@JFW_Custom_Spawn_Zone@@EAEXPAVScriptableGameObj@@@Z ; JFW_Custom_Spawn_Zone::Created
PUBLIC	?Custom@JFW_Custom_Spawn_Zone@@EAEXPAVScriptableGameObj@@HH0@Z ; JFW_Custom_Spawn_Zone::Custom
PUBLIC	??0JFW_Custom_Spawn_Zone@@QAE@XZ		; JFW_Custom_Spawn_Zone::JFW_Custom_Spawn_Zone
PUBLIC	??1JFW_Custom_Spawn_Zone@@UAE@XZ		; JFW_Custom_Spawn_Zone::~JFW_Custom_Spawn_Zone
PUBLIC	??_GJFW_Custom_Spawn_Zone@@UAEPAXI@Z		; JFW_Custom_Spawn_Zone::`scalar deleting destructor'
PUBLIC	?Created@JFW_Spawn_Zone_Created@@EAEXPAVScriptableGameObj@@@Z ; JFW_Spawn_Zone_Created::Created
PUBLIC	?Killed@JFW_Spawn_Zone_Created@@EAEXPAVScriptableGameObj@@0@Z ; JFW_Spawn_Zone_Created::Killed
PUBLIC	??0JFW_Spawn_Zone_Created@@QAE@XZ		; JFW_Spawn_Zone_Created::JFW_Spawn_Zone_Created
PUBLIC	??1JFW_Spawn_Zone_Created@@UAE@XZ		; JFW_Spawn_Zone_Created::~JFW_Spawn_Zone_Created
PUBLIC	??_GJFW_Spawn_Zone_Created@@UAEPAXI@Z		; JFW_Spawn_Zone_Created::`scalar deleting destructor'
PUBLIC	??0JFW_Boat@@QAE@XZ				; JFW_Boat::JFW_Boat
PUBLIC	??1JFW_Boat@@UAE@XZ				; JFW_Boat::~JFW_Boat
PUBLIC	??_GJFW_Boat@@UAEPAXI@Z				; JFW_Boat::`scalar deleting destructor'
PUBLIC	?Entered@JFW_Destroy_Vehicle_Zone@@EAEXPAVScriptableGameObj@@0@Z ; JFW_Destroy_Vehicle_Zone::Entered
PUBLIC	??0JFW_Destroy_Vehicle_Zone@@QAE@XZ		; JFW_Destroy_Vehicle_Zone::JFW_Destroy_Vehicle_Zone
PUBLIC	??1JFW_Destroy_Vehicle_Zone@@UAE@XZ		; JFW_Destroy_Vehicle_Zone::~JFW_Destroy_Vehicle_Zone
PUBLIC	??_GJFW_Destroy_Vehicle_Zone@@UAEPAXI@Z		; JFW_Destroy_Vehicle_Zone::`scalar deleting destructor'
PUBLIC	??0JFW_Destroy_Vehicle_Zone_Marker@@QAE@XZ	; JFW_Destroy_Vehicle_Zone_Marker::JFW_Destroy_Vehicle_Zone_Marker
PUBLIC	??1JFW_Destroy_Vehicle_Zone_Marker@@UAE@XZ	; JFW_Destroy_Vehicle_Zone_Marker::~JFW_Destroy_Vehicle_Zone_Marker
PUBLIC	??_GJFW_Destroy_Vehicle_Zone_Marker@@UAEPAXI@Z	; JFW_Destroy_Vehicle_Zone_Marker::`scalar deleting destructor'
PUBLIC	?Get_Enlisted_Definition@TeamPurchaseSettingsDefClass@@QAEHH@Z ; TeamPurchaseSettingsDefClass::Get_Enlisted_Definition
PUBLIC	?Get_Bounding_Box@ScriptZoneGameObj@@QAEAAVOBBoxClass@@XZ ; ScriptZoneGameObj::Get_Bounding_Box
PUBLIC	??1CollideableObjClass@AnimCollisionManagerClass@@QAE@XZ ; AnimCollisionManagerClass::CollideableObjClass::~CollideableObjClass
PUBLIC	??_ECollideableObjClass@AnimCollisionManagerClass@@QAEPAXI@Z ; AnimCollisionManagerClass::CollideableObjClass::`vector deleting destructor'
PUBLIC	??0CollisionTestClass@@QAE@PAUCastResultStruct@@W4Collision_Type@@@Z ; CollisionTestClass::CollisionTestClass
PUBLIC	??0CollisionTestClass@@QAE@ABV0@@Z		; CollisionTestClass::CollisionTestClass
PUBLIC	??4CollisionTestClass@@QAEAAV0@ABV0@@Z		; CollisionTestClass::operator=
PUBLIC	?Cull@AABoxCollisionTestClass@@QAE_NABVVector3@@0@Z ; AABoxCollisionTestClass::Cull
PUBLIC	?Translate@AABoxCollisionTestClass@@QAEXABVVector3@@@Z ; AABoxCollisionTestClass::Translate
PUBLIC	?Cull@OBBoxCollisionTestClass@@QAE_NABVVector3@@0@Z ; OBBoxCollisionTestClass::Cull
PUBLIC	?Set_Spy@ConstructionYardGameObj@@QAEX_N@Z	; ConstructionYardGameObj::Set_Spy
PUBLIC	?Can_Repair@VehicleGameObjDef@@QBE_NXZ		; VehicleGameObjDef::Can_Repair
PUBLIC	??4ArmorWarheadManager@@QAEAAV0@ABV0@@Z		; ArmorWarheadManager::operator=
PUBLIC	?Damage_Meshes_Update@VehicleGameObj@@QAEXXZ	; VehicleGameObj::Damage_Meshes_Update
PUBLIC	??0?$ScriptRegistrant@VJFW_Look_At_Location_Entry@@@@QAE@PBD0@Z ; ScriptRegistrant<JFW_Look_At_Location_Entry>::ScriptRegistrant<JFW_Look_At_Location_Entry>
PUBLIC	?Create@?$ScriptRegistrant@VJFW_Look_At_Location_Entry@@@@UAEPAVScriptImpClass@@XZ ; ScriptRegistrant<JFW_Look_At_Location_Entry>::Create
PUBLIC	??1?$ScriptRegistrant@VJFW_Look_At_Location_Entry@@@@UAE@XZ ; ScriptRegistrant<JFW_Look_At_Location_Entry>::~ScriptRegistrant<JFW_Look_At_Location_Entry>
PUBLIC	??_G?$ScriptRegistrant@VJFW_Look_At_Location_Entry@@@@UAEPAXI@Z ; ScriptRegistrant<JFW_Look_At_Location_Entry>::`scalar deleting destructor'
PUBLIC	??0?$ScriptRegistrant@VJFW_Look_At_Object_Entry@@@@QAE@PBD0@Z ; ScriptRegistrant<JFW_Look_At_Object_Entry>::ScriptRegistrant<JFW_Look_At_Object_Entry>
PUBLIC	?Create@?$ScriptRegistrant@VJFW_Look_At_Object_Entry@@@@UAEPAVScriptImpClass@@XZ ; ScriptRegistrant<JFW_Look_At_Object_Entry>::Create
PUBLIC	??1?$ScriptRegistrant@VJFW_Look_At_Object_Entry@@@@UAE@XZ ; ScriptRegistrant<JFW_Look_At_Object_Entry>::~ScriptRegistrant<JFW_Look_At_Object_Entry>
PUBLIC	??_G?$ScriptRegistrant@VJFW_Look_At_Object_Entry@@@@UAEPAXI@Z ; ScriptRegistrant<JFW_Look_At_Object_Entry>::`scalar deleting destructor'
PUBLIC	??0?$ScriptRegistrant@VJFW_Zone_PCT@@@@QAE@PBD0@Z ; ScriptRegistrant<JFW_Zone_PCT>::ScriptRegistrant<JFW_Zone_PCT>
PUBLIC	?Create@?$ScriptRegistrant@VJFW_Zone_PCT@@@@UAEPAVScriptImpClass@@XZ ; ScriptRegistrant<JFW_Zone_PCT>::Create
PUBLIC	??1?$ScriptRegistrant@VJFW_Zone_PCT@@@@UAE@XZ	; ScriptRegistrant<JFW_Zone_PCT>::~ScriptRegistrant<JFW_Zone_PCT>
PUBLIC	??_G?$ScriptRegistrant@VJFW_Zone_PCT@@@@UAEPAXI@Z ; ScriptRegistrant<JFW_Zone_PCT>::`scalar deleting destructor'
PUBLIC	??0?$ScriptRegistrant@VJFW_3D_Sound_Team_Zone@@@@QAE@PBD0@Z ; ScriptRegistrant<JFW_3D_Sound_Team_Zone>::ScriptRegistrant<JFW_3D_Sound_Team_Zone>
PUBLIC	?Create@?$ScriptRegistrant@VJFW_3D_Sound_Team_Zone@@@@UAEPAVScriptImpClass@@XZ ; ScriptRegistrant<JFW_3D_Sound_Team_Zone>::Create
PUBLIC	??1?$ScriptRegistrant@VJFW_3D_Sound_Team_Zone@@@@UAE@XZ ; ScriptRegistrant<JFW_3D_Sound_Team_Zone>::~ScriptRegistrant<JFW_3D_Sound_Team_Zone>
PUBLIC	??_G?$ScriptRegistrant@VJFW_3D_Sound_Team_Zone@@@@UAEPAXI@Z ; ScriptRegistrant<JFW_3D_Sound_Team_Zone>::`scalar deleting destructor'
PUBLIC	??0?$ScriptRegistrant@VJFW_3D_Sound_Player_Zone@@@@QAE@PBD0@Z ; ScriptRegistrant<JFW_3D_Sound_Player_Zone>::ScriptRegistrant<JFW_3D_Sound_Player_Zone>
PUBLIC	?Create@?$ScriptRegistrant@VJFW_3D_Sound_Player_Zone@@@@UAEPAVScriptImpClass@@XZ ; ScriptRegistrant<JFW_3D_Sound_Player_Zone>::Create
PUBLIC	??1?$ScriptRegistrant@VJFW_3D_Sound_Player_Zone@@@@UAE@XZ ; ScriptRegistrant<JFW_3D_Sound_Player_Zone>::~ScriptRegistrant<JFW_3D_Sound_Player_Zone>
PUBLIC	??_G?$ScriptRegistrant@VJFW_3D_Sound_Player_Zone@@@@UAEPAXI@Z ; ScriptRegistrant<JFW_3D_Sound_Player_Zone>::`scalar deleting destructor'
PUBLIC	??0?$ScriptRegistrant@VJFW_2D_Sound_Team_Zone@@@@QAE@PBD0@Z ; ScriptRegistrant<JFW_2D_Sound_Team_Zone>::ScriptRegistrant<JFW_2D_Sound_Team_Zone>
PUBLIC	?Create@?$ScriptRegistrant@VJFW_2D_Sound_Team_Zone@@@@UAEPAVScriptImpClass@@XZ ; ScriptRegistrant<JFW_2D_Sound_Team_Zone>::Create
PUBLIC	??1?$ScriptRegistrant@VJFW_2D_Sound_Team_Zone@@@@UAE@XZ ; ScriptRegistrant<JFW_2D_Sound_Team_Zone>::~ScriptRegistrant<JFW_2D_Sound_Team_Zone>
PUBLIC	??_G?$ScriptRegistrant@VJFW_2D_Sound_Team_Zone@@@@UAEPAXI@Z ; ScriptRegistrant<JFW_2D_Sound_Team_Zone>::`scalar deleting destructor'
PUBLIC	??0?$ScriptRegistrant@VJFW_2D_Sound_Player_Zone@@@@QAE@PBD0@Z ; ScriptRegistrant<JFW_2D_Sound_Player_Zone>::ScriptRegistrant<JFW_2D_Sound_Player_Zone>
PUBLIC	?Create@?$ScriptRegistrant@VJFW_2D_Sound_Player_Zone@@@@UAEPAVScriptImpClass@@XZ ; ScriptRegistrant<JFW_2D_Sound_Player_Zone>::Create
PUBLIC	??1?$ScriptRegistrant@VJFW_2D_Sound_Player_Zone@@@@UAE@XZ ; ScriptRegistrant<JFW_2D_Sound_Player_Zone>::~ScriptRegistrant<JFW_2D_Sound_Player_Zone>
PUBLIC	??_G?$ScriptRegistrant@VJFW_2D_Sound_Player_Zone@@@@UAEPAXI@Z ; ScriptRegistrant<JFW_2D_Sound_Player_Zone>::`scalar deleting destructor'
PUBLIC	??0?$ScriptRegistrant@VJFW_Disable_Radar_Zone@@@@QAE@PBD0@Z ; ScriptRegistrant<JFW_Disable_Radar_Zone>::ScriptRegistrant<JFW_Disable_Radar_Zone>
PUBLIC	?Create@?$ScriptRegistrant@VJFW_Disable_Radar_Zone@@@@UAEPAVScriptImpClass@@XZ ; ScriptRegistrant<JFW_Disable_Radar_Zone>::Create
PUBLIC	??1?$ScriptRegistrant@VJFW_Disable_Radar_Zone@@@@UAE@XZ ; ScriptRegistrant<JFW_Disable_Radar_Zone>::~ScriptRegistrant<JFW_Disable_Radar_Zone>
PUBLIC	??_G?$ScriptRegistrant@VJFW_Disable_Radar_Zone@@@@UAEPAXI@Z ; ScriptRegistrant<JFW_Disable_Radar_Zone>::`scalar deleting destructor'
PUBLIC	??0?$ScriptRegistrant@VJFW_Zone_Send_Custom_Multiple@@@@QAE@PBD0@Z ; ScriptRegistrant<JFW_Zone_Send_Custom_Multiple>::ScriptRegistrant<JFW_Zone_Send_Custom_Multiple>
PUBLIC	?Create@?$ScriptRegistrant@VJFW_Zone_Send_Custom_Multiple@@@@UAEPAVScriptImpClass@@XZ ; ScriptRegistrant<JFW_Zone_Send_Custom_Multiple>::Create
PUBLIC	??1?$ScriptRegistrant@VJFW_Zone_Send_Custom_Multiple@@@@UAE@XZ ; ScriptRegistrant<JFW_Zone_Send_Custom_Multiple>::~ScriptRegistrant<JFW_Zone_Send_Custom_Multiple>
PUBLIC	??_G?$ScriptRegistrant@VJFW_Zone_Send_Custom_Multiple@@@@UAEPAXI@Z ; ScriptRegistrant<JFW_Zone_Send_Custom_Multiple>::`scalar deleting destructor'
PUBLIC	??0?$ScriptRegistrant@VJFW_Zone_Send_Custom_Enter@@@@QAE@PBD0@Z ; ScriptRegistrant<JFW_Zone_Send_Custom_Enter>::ScriptRegistrant<JFW_Zone_Send_Custom_Enter>
PUBLIC	?Create@?$ScriptRegistrant@VJFW_Zone_Send_Custom_Enter@@@@UAEPAVScriptImpClass@@XZ ; ScriptRegistrant<JFW_Zone_Send_Custom_Enter>::Create
PUBLIC	??1?$ScriptRegistrant@VJFW_Zone_Send_Custom_Enter@@@@UAE@XZ ; ScriptRegistrant<JFW_Zone_Send_Custom_Enter>::~ScriptRegistrant<JFW_Zone_Send_Custom_Enter>
PUBLIC	??_G?$ScriptRegistrant@VJFW_Zone_Send_Custom_Enter@@@@UAEPAXI@Z ; ScriptRegistrant<JFW_Zone_Send_Custom_Enter>::`scalar deleting destructor'
PUBLIC	??0?$ScriptRegistrant@VJFW_Zone_Send_Custom_Exit@@@@QAE@PBD0@Z ; ScriptRegistrant<JFW_Zone_Send_Custom_Exit>::ScriptRegistrant<JFW_Zone_Send_Custom_Exit>
PUBLIC	?Create@?$ScriptRegistrant@VJFW_Zone_Send_Custom_Exit@@@@UAEPAVScriptImpClass@@XZ ; ScriptRegistrant<JFW_Zone_Send_Custom_Exit>::Create
PUBLIC	??1?$ScriptRegistrant@VJFW_Zone_Send_Custom_Exit@@@@UAE@XZ ; ScriptRegistrant<JFW_Zone_Send_Custom_Exit>::~ScriptRegistrant<JFW_Zone_Send_Custom_Exit>
PUBLIC	??_G?$ScriptRegistrant@VJFW_Zone_Send_Custom_Exit@@@@UAEPAXI@Z ; ScriptRegistrant<JFW_Zone_Send_Custom_Exit>::`scalar deleting destructor'
PUBLIC	??0?$ScriptRegistrant@VJFW_Vehicle_Zone_Animation@@@@QAE@PBD0@Z ; ScriptRegistrant<JFW_Vehicle_Zone_Animation>::ScriptRegistrant<JFW_Vehicle_Zone_Animation>
PUBLIC	?Create@?$ScriptRegistrant@VJFW_Vehicle_Zone_Animation@@@@UAEPAVScriptImpClass@@XZ ; ScriptRegistrant<JFW_Vehicle_Zone_Animation>::Create
PUBLIC	??1?$ScriptRegistrant@VJFW_Vehicle_Zone_Animation@@@@UAE@XZ ; ScriptRegistrant<JFW_Vehicle_Zone_Animation>::~ScriptRegistrant<JFW_Vehicle_Zone_Animation>
PUBLIC	??_G?$ScriptRegistrant@VJFW_Vehicle_Zone_Animation@@@@UAEPAXI@Z ; ScriptRegistrant<JFW_Vehicle_Zone_Animation>::`scalar deleting destructor'
PUBLIC	??0?$ScriptRegistrant@VJFW_Zone_Money_Preset@@@@QAE@PBD0@Z ; ScriptRegistrant<JFW_Zone_Money_Preset>::ScriptRegistrant<JFW_Zone_Money_Preset>
PUBLIC	?Create@?$ScriptRegistrant@VJFW_Zone_Money_Preset@@@@UAEPAVScriptImpClass@@XZ ; ScriptRegistrant<JFW_Zone_Money_Preset>::Create
PUBLIC	??1?$ScriptRegistrant@VJFW_Zone_Money_Preset@@@@UAE@XZ ; ScriptRegistrant<JFW_Zone_Money_Preset>::~ScriptRegistrant<JFW_Zone_Money_Preset>
PUBLIC	??_G?$ScriptRegistrant@VJFW_Zone_Money_Preset@@@@UAEPAXI@Z ; ScriptRegistrant<JFW_Zone_Money_Preset>::`scalar deleting destructor'
PUBLIC	??0?$ScriptRegistrant@VJFW_Fog_Zone@@@@QAE@PBD0@Z ; ScriptRegistrant<JFW_Fog_Zone>::ScriptRegistrant<JFW_Fog_Zone>
PUBLIC	?Create@?$ScriptRegistrant@VJFW_Fog_Zone@@@@UAEPAVScriptImpClass@@XZ ; ScriptRegistrant<JFW_Fog_Zone>::Create
PUBLIC	??1?$ScriptRegistrant@VJFW_Fog_Zone@@@@UAE@XZ	; ScriptRegistrant<JFW_Fog_Zone>::~ScriptRegistrant<JFW_Fog_Zone>
PUBLIC	??_G?$ScriptRegistrant@VJFW_Fog_Zone@@@@UAEPAXI@Z ; ScriptRegistrant<JFW_Fog_Zone>::`scalar deleting destructor'
PUBLIC	??0?$ScriptRegistrant@VJFW_War_Blitz_Zone@@@@QAE@PBD0@Z ; ScriptRegistrant<JFW_War_Blitz_Zone>::ScriptRegistrant<JFW_War_Blitz_Zone>
PUBLIC	?Create@?$ScriptRegistrant@VJFW_War_Blitz_Zone@@@@UAEPAVScriptImpClass@@XZ ; ScriptRegistrant<JFW_War_Blitz_Zone>::Create
PUBLIC	??1?$ScriptRegistrant@VJFW_War_Blitz_Zone@@@@UAE@XZ ; ScriptRegistrant<JFW_War_Blitz_Zone>::~ScriptRegistrant<JFW_War_Blitz_Zone>
PUBLIC	??_G?$ScriptRegistrant@VJFW_War_Blitz_Zone@@@@UAEPAXI@Z ; ScriptRegistrant<JFW_War_Blitz_Zone>::`scalar deleting destructor'
PUBLIC	??0?$ScriptRegistrant@VJFW_Create_Destroy_Object_On_Enter@@@@QAE@PBD0@Z ; ScriptRegistrant<JFW_Create_Destroy_Object_On_Enter>::ScriptRegistrant<JFW_Create_Destroy_Object_On_Enter>
PUBLIC	?Create@?$ScriptRegistrant@VJFW_Create_Destroy_Object_On_Enter@@@@UAEPAVScriptImpClass@@XZ ; ScriptRegistrant<JFW_Create_Destroy_Object_On_Enter>::Create
PUBLIC	??1?$ScriptRegistrant@VJFW_Create_Destroy_Object_On_Enter@@@@UAE@XZ ; ScriptRegistrant<JFW_Create_Destroy_Object_On_Enter>::~ScriptRegistrant<JFW_Create_Destroy_Object_On_Enter>
PUBLIC	??_G?$ScriptRegistrant@VJFW_Create_Destroy_Object_On_Enter@@@@UAEPAXI@Z ; ScriptRegistrant<JFW_Create_Destroy_Object_On_Enter>::`scalar deleting destructor'
PUBLIC	??0?$ScriptRegistrant@VJFW_Apply_Damage_On_Enter_Timer@@@@QAE@PBD0@Z ; ScriptRegistrant<JFW_Apply_Damage_On_Enter_Timer>::ScriptRegistrant<JFW_Apply_Damage_On_Enter_Timer>
PUBLIC	?Create@?$ScriptRegistrant@VJFW_Apply_Damage_On_Enter_Timer@@@@UAEPAVScriptImpClass@@XZ ; ScriptRegistrant<JFW_Apply_Damage_On_Enter_Timer>::Create
PUBLIC	??1?$ScriptRegistrant@VJFW_Apply_Damage_On_Enter_Timer@@@@UAE@XZ ; ScriptRegistrant<JFW_Apply_Damage_On_Enter_Timer>::~ScriptRegistrant<JFW_Apply_Damage_On_Enter_Timer>
PUBLIC	??_G?$ScriptRegistrant@VJFW_Apply_Damage_On_Enter_Timer@@@@UAEPAXI@Z ; ScriptRegistrant<JFW_Apply_Damage_On_Enter_Timer>::`scalar deleting destructor'
PUBLIC	??0?$ScriptRegistrant@VJFW_Blow_Up_On_Enter_Random@@@@QAE@PBD0@Z ; ScriptRegistrant<JFW_Blow_Up_On_Enter_Random>::ScriptRegistrant<JFW_Blow_Up_On_Enter_Random>
PUBLIC	?Create@?$ScriptRegistrant@VJFW_Blow_Up_On_Enter_Random@@@@UAEPAVScriptImpClass@@XZ ; ScriptRegistrant<JFW_Blow_Up_On_Enter_Random>::Create
PUBLIC	??1?$ScriptRegistrant@VJFW_Blow_Up_On_Enter_Random@@@@UAE@XZ ; ScriptRegistrant<JFW_Blow_Up_On_Enter_Random>::~ScriptRegistrant<JFW_Blow_Up_On_Enter_Random>
PUBLIC	??_G?$ScriptRegistrant@VJFW_Blow_Up_On_Enter_Random@@@@UAEPAXI@Z ; ScriptRegistrant<JFW_Blow_Up_On_Enter_Random>::`scalar deleting destructor'
PUBLIC	??0?$ScriptRegistrant@VJFW_Blow_Up_On_Enter@@@@QAE@PBD0@Z ; ScriptRegistrant<JFW_Blow_Up_On_Enter>::ScriptRegistrant<JFW_Blow_Up_On_Enter>
PUBLIC	?Create@?$ScriptRegistrant@VJFW_Blow_Up_On_Enter@@@@UAEPAVScriptImpClass@@XZ ; ScriptRegistrant<JFW_Blow_Up_On_Enter>::Create
PUBLIC	??1?$ScriptRegistrant@VJFW_Blow_Up_On_Enter@@@@UAE@XZ ; ScriptRegistrant<JFW_Blow_Up_On_Enter>::~ScriptRegistrant<JFW_Blow_Up_On_Enter>
PUBLIC	??_G?$ScriptRegistrant@VJFW_Blow_Up_On_Enter@@@@UAEPAXI@Z ; ScriptRegistrant<JFW_Blow_Up_On_Enter>::`scalar deleting destructor'
PUBLIC	??0?$ScriptRegistrant@VJFW_Apply_Damage_On_Enter@@@@QAE@PBD0@Z ; ScriptRegistrant<JFW_Apply_Damage_On_Enter>::ScriptRegistrant<JFW_Apply_Damage_On_Enter>
PUBLIC	?Create@?$ScriptRegistrant@VJFW_Apply_Damage_On_Enter@@@@UAEPAVScriptImpClass@@XZ ; ScriptRegistrant<JFW_Apply_Damage_On_Enter>::Create
PUBLIC	??1?$ScriptRegistrant@VJFW_Apply_Damage_On_Enter@@@@UAE@XZ ; ScriptRegistrant<JFW_Apply_Damage_On_Enter>::~ScriptRegistrant<JFW_Apply_Damage_On_Enter>
PUBLIC	??_G?$ScriptRegistrant@VJFW_Apply_Damage_On_Enter@@@@UAEPAXI@Z ; ScriptRegistrant<JFW_Apply_Damage_On_Enter>::`scalar deleting destructor'
PUBLIC	??0?$ScriptRegistrant@VJFW_Zone_Character@@@@QAE@PBD0@Z ; ScriptRegistrant<JFW_Zone_Character>::ScriptRegistrant<JFW_Zone_Character>
PUBLIC	?Create@?$ScriptRegistrant@VJFW_Zone_Character@@@@UAEPAVScriptImpClass@@XZ ; ScriptRegistrant<JFW_Zone_Character>::Create
PUBLIC	??1?$ScriptRegistrant@VJFW_Zone_Character@@@@UAE@XZ ; ScriptRegistrant<JFW_Zone_Character>::~ScriptRegistrant<JFW_Zone_Character>
PUBLIC	??_G?$ScriptRegistrant@VJFW_Zone_Character@@@@UAEPAXI@Z ; ScriptRegistrant<JFW_Zone_Character>::`scalar deleting destructor'
PUBLIC	??0?$ScriptRegistrant@VJFW_Zone_Character_Swap@@@@QAE@PBD0@Z ; ScriptRegistrant<JFW_Zone_Character_Swap>::ScriptRegistrant<JFW_Zone_Character_Swap>
PUBLIC	?Create@?$ScriptRegistrant@VJFW_Zone_Character_Swap@@@@UAEPAVScriptImpClass@@XZ ; ScriptRegistrant<JFW_Zone_Character_Swap>::Create
PUBLIC	??1?$ScriptRegistrant@VJFW_Zone_Character_Swap@@@@UAE@XZ ; ScriptRegistrant<JFW_Zone_Character_Swap>::~ScriptRegistrant<JFW_Zone_Character_Swap>
PUBLIC	??_G?$ScriptRegistrant@VJFW_Zone_Character_Swap@@@@UAEPAXI@Z ; ScriptRegistrant<JFW_Zone_Character_Swap>::`scalar deleting destructor'
PUBLIC	??0?$ScriptRegistrant@VJFW_Heavy_Vehicle_Damage_Zone@@@@QAE@PBD0@Z ; ScriptRegistrant<JFW_Heavy_Vehicle_Damage_Zone>::ScriptRegistrant<JFW_Heavy_Vehicle_Damage_Zone>
PUBLIC	?Create@?$ScriptRegistrant@VJFW_Heavy_Vehicle_Damage_Zone@@@@UAEPAVScriptImpClass@@XZ ; ScriptRegistrant<JFW_Heavy_Vehicle_Damage_Zone>::Create
PUBLIC	??1?$ScriptRegistrant@VJFW_Heavy_Vehicle_Damage_Zone@@@@UAE@XZ ; ScriptRegistrant<JFW_Heavy_Vehicle_Damage_Zone>::~ScriptRegistrant<JFW_Heavy_Vehicle_Damage_Zone>
PUBLIC	??_G?$ScriptRegistrant@VJFW_Heavy_Vehicle_Damage_Zone@@@@UAEPAXI@Z ; ScriptRegistrant<JFW_Heavy_Vehicle_Damage_Zone>::`scalar deleting destructor'
PUBLIC	??0?$ScriptRegistrant@VJFW_Light_Vehicle_Damage_Zone@@@@QAE@PBD0@Z ; ScriptRegistrant<JFW_Light_Vehicle_Damage_Zone>::ScriptRegistrant<JFW_Light_Vehicle_Damage_Zone>
PUBLIC	?Create@?$ScriptRegistrant@VJFW_Light_Vehicle_Damage_Zone@@@@UAEPAVScriptImpClass@@XZ ; ScriptRegistrant<JFW_Light_Vehicle_Damage_Zone>::Create
PUBLIC	??1?$ScriptRegistrant@VJFW_Light_Vehicle_Damage_Zone@@@@UAE@XZ ; ScriptRegistrant<JFW_Light_Vehicle_Damage_Zone>::~ScriptRegistrant<JFW_Light_Vehicle_Damage_Zone>
PUBLIC	??_G?$ScriptRegistrant@VJFW_Light_Vehicle_Damage_Zone@@@@UAEPAXI@Z ; ScriptRegistrant<JFW_Light_Vehicle_Damage_Zone>::`scalar deleting destructor'
PUBLIC	??0?$ScriptRegistrant@VJFW_2D_Sound_Zone@@@@QAE@PBD0@Z ; ScriptRegistrant<JFW_2D_Sound_Zone>::ScriptRegistrant<JFW_2D_Sound_Zone>
PUBLIC	?Create@?$ScriptRegistrant@VJFW_2D_Sound_Zone@@@@UAEPAVScriptImpClass@@XZ ; ScriptRegistrant<JFW_2D_Sound_Zone>::Create
PUBLIC	??1?$ScriptRegistrant@VJFW_2D_Sound_Zone@@@@UAE@XZ ; ScriptRegistrant<JFW_2D_Sound_Zone>::~ScriptRegistrant<JFW_2D_Sound_Zone>
PUBLIC	??_G?$ScriptRegistrant@VJFW_2D_Sound_Zone@@@@UAEPAXI@Z ; ScriptRegistrant<JFW_2D_Sound_Zone>::`scalar deleting destructor'
PUBLIC	??0?$ScriptRegistrant@VJFW_Stealth_Zone@@@@QAE@PBD0@Z ; ScriptRegistrant<JFW_Stealth_Zone>::ScriptRegistrant<JFW_Stealth_Zone>
PUBLIC	?Create@?$ScriptRegistrant@VJFW_Stealth_Zone@@@@UAEPAVScriptImpClass@@XZ ; ScriptRegistrant<JFW_Stealth_Zone>::Create
PUBLIC	??1?$ScriptRegistrant@VJFW_Stealth_Zone@@@@UAE@XZ ; ScriptRegistrant<JFW_Stealth_Zone>::~ScriptRegistrant<JFW_Stealth_Zone>
PUBLIC	??_G?$ScriptRegistrant@VJFW_Stealth_Zone@@@@UAEPAXI@Z ; ScriptRegistrant<JFW_Stealth_Zone>::`scalar deleting destructor'
PUBLIC	??0?$ScriptRegistrant@VJFW_Teleport_Zone_Team@@@@QAE@PBD0@Z ; ScriptRegistrant<JFW_Teleport_Zone_Team>::ScriptRegistrant<JFW_Teleport_Zone_Team>
PUBLIC	?Create@?$ScriptRegistrant@VJFW_Teleport_Zone_Team@@@@UAEPAVScriptImpClass@@XZ ; ScriptRegistrant<JFW_Teleport_Zone_Team>::Create
PUBLIC	??1?$ScriptRegistrant@VJFW_Teleport_Zone_Team@@@@UAE@XZ ; ScriptRegistrant<JFW_Teleport_Zone_Team>::~ScriptRegistrant<JFW_Teleport_Zone_Team>
PUBLIC	??_G?$ScriptRegistrant@VJFW_Teleport_Zone_Team@@@@UAEPAXI@Z ; ScriptRegistrant<JFW_Teleport_Zone_Team>::`scalar deleting destructor'
PUBLIC	??0?$ScriptRegistrant@VJFW_Character_Buy@@@@QAE@PBD0@Z ; ScriptRegistrant<JFW_Character_Buy>::ScriptRegistrant<JFW_Character_Buy>
PUBLIC	?Create@?$ScriptRegistrant@VJFW_Character_Buy@@@@UAEPAVScriptImpClass@@XZ ; ScriptRegistrant<JFW_Character_Buy>::Create
PUBLIC	??1?$ScriptRegistrant@VJFW_Character_Buy@@@@UAE@XZ ; ScriptRegistrant<JFW_Character_Buy>::~ScriptRegistrant<JFW_Character_Buy>
PUBLIC	??_G?$ScriptRegistrant@VJFW_Character_Buy@@@@UAEPAXI@Z ; ScriptRegistrant<JFW_Character_Buy>::`scalar deleting destructor'
PUBLIC	??0?$ScriptRegistrant@VJFW_Preset_Buy@@@@QAE@PBD0@Z ; ScriptRegistrant<JFW_Preset_Buy>::ScriptRegistrant<JFW_Preset_Buy>
PUBLIC	?Create@?$ScriptRegistrant@VJFW_Preset_Buy@@@@UAEPAVScriptImpClass@@XZ ; ScriptRegistrant<JFW_Preset_Buy>::Create
PUBLIC	??1?$ScriptRegistrant@VJFW_Preset_Buy@@@@UAE@XZ	; ScriptRegistrant<JFW_Preset_Buy>::~ScriptRegistrant<JFW_Preset_Buy>
PUBLIC	??_G?$ScriptRegistrant@VJFW_Preset_Buy@@@@UAEPAXI@Z ; ScriptRegistrant<JFW_Preset_Buy>::`scalar deleting destructor'
PUBLIC	??0?$ScriptRegistrant@VJFW_Weapon_Buy@@@@QAE@PBD0@Z ; ScriptRegistrant<JFW_Weapon_Buy>::ScriptRegistrant<JFW_Weapon_Buy>
PUBLIC	?Create@?$ScriptRegistrant@VJFW_Weapon_Buy@@@@UAEPAVScriptImpClass@@XZ ; ScriptRegistrant<JFW_Weapon_Buy>::Create
PUBLIC	??1?$ScriptRegistrant@VJFW_Weapon_Buy@@@@UAE@XZ	; ScriptRegistrant<JFW_Weapon_Buy>::~ScriptRegistrant<JFW_Weapon_Buy>
PUBLIC	??_G?$ScriptRegistrant@VJFW_Weapon_Buy@@@@UAEPAXI@Z ; ScriptRegistrant<JFW_Weapon_Buy>::`scalar deleting destructor'
PUBLIC	??0?$ScriptRegistrant@VJFW_3D_Sound_Zone@@@@QAE@PBD0@Z ; ScriptRegistrant<JFW_3D_Sound_Zone>::ScriptRegistrant<JFW_3D_Sound_Zone>
PUBLIC	?Create@?$ScriptRegistrant@VJFW_3D_Sound_Zone@@@@UAEPAVScriptImpClass@@XZ ; ScriptRegistrant<JFW_3D_Sound_Zone>::Create
PUBLIC	??1?$ScriptRegistrant@VJFW_3D_Sound_Zone@@@@UAE@XZ ; ScriptRegistrant<JFW_3D_Sound_Zone>::~ScriptRegistrant<JFW_3D_Sound_Zone>
PUBLIC	??_G?$ScriptRegistrant@VJFW_3D_Sound_Zone@@@@UAEPAXI@Z ; ScriptRegistrant<JFW_3D_Sound_Zone>::`scalar deleting destructor'
PUBLIC	??0?$ScriptRegistrant@VJFW_Bounce_Zone_Entry@@@@QAE@PBD0@Z ; ScriptRegistrant<JFW_Bounce_Zone_Entry>::ScriptRegistrant<JFW_Bounce_Zone_Entry>
PUBLIC	?Create@?$ScriptRegistrant@VJFW_Bounce_Zone_Entry@@@@UAEPAVScriptImpClass@@XZ ; ScriptRegistrant<JFW_Bounce_Zone_Entry>::Create
PUBLIC	??1?$ScriptRegistrant@VJFW_Bounce_Zone_Entry@@@@UAE@XZ ; ScriptRegistrant<JFW_Bounce_Zone_Entry>::~ScriptRegistrant<JFW_Bounce_Zone_Entry>
PUBLIC	??_G?$ScriptRegistrant@VJFW_Bounce_Zone_Entry@@@@UAEPAXI@Z ; ScriptRegistrant<JFW_Bounce_Zone_Entry>::`scalar deleting destructor'
PUBLIC	??0?$ScriptRegistrant@VJFW_Grant_Key_Zone_Entry@@@@QAE@PBD0@Z ; ScriptRegistrant<JFW_Grant_Key_Zone_Entry>::ScriptRegistrant<JFW_Grant_Key_Zone_Entry>
PUBLIC	?Create@?$ScriptRegistrant@VJFW_Grant_Key_Zone_Entry@@@@UAEPAVScriptImpClass@@XZ ; ScriptRegistrant<JFW_Grant_Key_Zone_Entry>::Create
PUBLIC	??1?$ScriptRegistrant@VJFW_Grant_Key_Zone_Entry@@@@UAE@XZ ; ScriptRegistrant<JFW_Grant_Key_Zone_Entry>::~ScriptRegistrant<JFW_Grant_Key_Zone_Entry>
PUBLIC	??_G?$ScriptRegistrant@VJFW_Grant_Key_Zone_Entry@@@@UAEPAXI@Z ; ScriptRegistrant<JFW_Grant_Key_Zone_Entry>::`scalar deleting destructor'
PUBLIC	??0?$ScriptRegistrant@VJFW_Zone_Send_Custom_Enable@@@@QAE@PBD0@Z ; ScriptRegistrant<JFW_Zone_Send_Custom_Enable>::ScriptRegistrant<JFW_Zone_Send_Custom_Enable>
PUBLIC	?Create@?$ScriptRegistrant@VJFW_Zone_Send_Custom_Enable@@@@UAEPAVScriptImpClass@@XZ ; ScriptRegistrant<JFW_Zone_Send_Custom_Enable>::Create
PUBLIC	??1?$ScriptRegistrant@VJFW_Zone_Send_Custom_Enable@@@@UAE@XZ ; ScriptRegistrant<JFW_Zone_Send_Custom_Enable>::~ScriptRegistrant<JFW_Zone_Send_Custom_Enable>
PUBLIC	??_G?$ScriptRegistrant@VJFW_Zone_Send_Custom_Enable@@@@UAEPAXI@Z ; ScriptRegistrant<JFW_Zone_Send_Custom_Enable>::`scalar deleting destructor'
PUBLIC	??0?$ScriptRegistrant@VJFW_Zone_Send_Custom_Preset@@@@QAE@PBD0@Z ; ScriptRegistrant<JFW_Zone_Send_Custom_Preset>::ScriptRegistrant<JFW_Zone_Send_Custom_Preset>
PUBLIC	?Create@?$ScriptRegistrant@VJFW_Zone_Send_Custom_Preset@@@@UAEPAVScriptImpClass@@XZ ; ScriptRegistrant<JFW_Zone_Send_Custom_Preset>::Create
PUBLIC	??1?$ScriptRegistrant@VJFW_Zone_Send_Custom_Preset@@@@UAE@XZ ; ScriptRegistrant<JFW_Zone_Send_Custom_Preset>::~ScriptRegistrant<JFW_Zone_Send_Custom_Preset>
PUBLIC	??_G?$ScriptRegistrant@VJFW_Zone_Send_Custom_Preset@@@@UAEPAXI@Z ; ScriptRegistrant<JFW_Zone_Send_Custom_Preset>::`scalar deleting destructor'
PUBLIC	??0?$ScriptRegistrant@VJFW_Zone_Send_Custom_Enable_Enter@@@@QAE@PBD0@Z ; ScriptRegistrant<JFW_Zone_Send_Custom_Enable_Enter>::ScriptRegistrant<JFW_Zone_Send_Custom_Enable_Enter>
PUBLIC	?Create@?$ScriptRegistrant@VJFW_Zone_Send_Custom_Enable_Enter@@@@UAEPAVScriptImpClass@@XZ ; ScriptRegistrant<JFW_Zone_Send_Custom_Enable_Enter>::Create
PUBLIC	??1?$ScriptRegistrant@VJFW_Zone_Send_Custom_Enable_Enter@@@@UAE@XZ ; ScriptRegistrant<JFW_Zone_Send_Custom_Enable_Enter>::~ScriptRegistrant<JFW_Zone_Send_Custom_Enable_Enter>
PUBLIC	??_G?$ScriptRegistrant@VJFW_Zone_Send_Custom_Enable_Enter@@@@UAEPAXI@Z ; ScriptRegistrant<JFW_Zone_Send_Custom_Enable_Enter>::`scalar deleting destructor'
PUBLIC	??0?$ScriptRegistrant@VJFW_Zone_Send_Custom_Preset_Enter@@@@QAE@PBD0@Z ; ScriptRegistrant<JFW_Zone_Send_Custom_Preset_Enter>::ScriptRegistrant<JFW_Zone_Send_Custom_Preset_Enter>
PUBLIC	?Create@?$ScriptRegistrant@VJFW_Zone_Send_Custom_Preset_Enter@@@@UAEPAVScriptImpClass@@XZ ; ScriptRegistrant<JFW_Zone_Send_Custom_Preset_Enter>::Create
PUBLIC	??1?$ScriptRegistrant@VJFW_Zone_Send_Custom_Preset_Enter@@@@UAE@XZ ; ScriptRegistrant<JFW_Zone_Send_Custom_Preset_Enter>::~ScriptRegistrant<JFW_Zone_Send_Custom_Preset_Enter>
PUBLIC	??_G?$ScriptRegistrant@VJFW_Zone_Send_Custom_Preset_Enter@@@@UAEPAXI@Z ; ScriptRegistrant<JFW_Zone_Send_Custom_Preset_Enter>::`scalar deleting destructor'
PUBLIC	??0?$ScriptRegistrant@VJFW_Send_Custom_Zone_Enter@@@@QAE@PBD0@Z ; ScriptRegistrant<JFW_Send_Custom_Zone_Enter>::ScriptRegistrant<JFW_Send_Custom_Zone_Enter>
PUBLIC	?Create@?$ScriptRegistrant@VJFW_Send_Custom_Zone_Enter@@@@UAEPAVScriptImpClass@@XZ ; ScriptRegistrant<JFW_Send_Custom_Zone_Enter>::Create
PUBLIC	??1?$ScriptRegistrant@VJFW_Send_Custom_Zone_Enter@@@@UAE@XZ ; ScriptRegistrant<JFW_Send_Custom_Zone_Enter>::~ScriptRegistrant<JFW_Send_Custom_Zone_Enter>
PUBLIC	??_G?$ScriptRegistrant@VJFW_Send_Custom_Zone_Enter@@@@UAEPAXI@Z ; ScriptRegistrant<JFW_Send_Custom_Zone_Enter>::`scalar deleting destructor'
PUBLIC	??0?$ScriptRegistrant@VJFW_Gate_Zone@@@@QAE@PBD0@Z ; ScriptRegistrant<JFW_Gate_Zone>::ScriptRegistrant<JFW_Gate_Zone>
PUBLIC	?Create@?$ScriptRegistrant@VJFW_Gate_Zone@@@@UAEPAVScriptImpClass@@XZ ; ScriptRegistrant<JFW_Gate_Zone>::Create
PUBLIC	??1?$ScriptRegistrant@VJFW_Gate_Zone@@@@UAE@XZ	; ScriptRegistrant<JFW_Gate_Zone>::~ScriptRegistrant<JFW_Gate_Zone>
PUBLIC	??_G?$ScriptRegistrant@VJFW_Gate_Zone@@@@UAEPAXI@Z ; ScriptRegistrant<JFW_Gate_Zone>::`scalar deleting destructor'
PUBLIC	??0?$ScriptRegistrant@VJFW_Repair_Zone@@@@QAE@PBD0@Z ; ScriptRegistrant<JFW_Repair_Zone>::ScriptRegistrant<JFW_Repair_Zone>
PUBLIC	?Create@?$ScriptRegistrant@VJFW_Repair_Zone@@@@UAEPAVScriptImpClass@@XZ ; ScriptRegistrant<JFW_Repair_Zone>::Create
PUBLIC	??1?$ScriptRegistrant@VJFW_Repair_Zone@@@@UAE@XZ ; ScriptRegistrant<JFW_Repair_Zone>::~ScriptRegistrant<JFW_Repair_Zone>
PUBLIC	??_G?$ScriptRegistrant@VJFW_Repair_Zone@@@@UAEPAXI@Z ; ScriptRegistrant<JFW_Repair_Zone>::`scalar deleting destructor'
PUBLIC	??0?$ScriptRegistrant@VJFW_Repair_Zone_Aircraft_Only@@@@QAE@PBD0@Z ; ScriptRegistrant<JFW_Repair_Zone_Aircraft_Only>::ScriptRegistrant<JFW_Repair_Zone_Aircraft_Only>
PUBLIC	?Create@?$ScriptRegistrant@VJFW_Repair_Zone_Aircraft_Only@@@@UAEPAVScriptImpClass@@XZ ; ScriptRegistrant<JFW_Repair_Zone_Aircraft_Only>::Create
PUBLIC	??1?$ScriptRegistrant@VJFW_Repair_Zone_Aircraft_Only@@@@UAE@XZ ; ScriptRegistrant<JFW_Repair_Zone_Aircraft_Only>::~ScriptRegistrant<JFW_Repair_Zone_Aircraft_Only>
PUBLIC	??_G?$ScriptRegistrant@VJFW_Repair_Zone_Aircraft_Only@@@@UAEPAXI@Z ; ScriptRegistrant<JFW_Repair_Zone_Aircraft_Only>::`scalar deleting destructor'
PUBLIC	??0?$ScriptRegistrant@VJFW_Repair_Zone_No_Aircraft@@@@QAE@PBD0@Z ; ScriptRegistrant<JFW_Repair_Zone_No_Aircraft>::ScriptRegistrant<JFW_Repair_Zone_No_Aircraft>
PUBLIC	?Create@?$ScriptRegistrant@VJFW_Repair_Zone_No_Aircraft@@@@UAEPAVScriptImpClass@@XZ ; ScriptRegistrant<JFW_Repair_Zone_No_Aircraft>::Create
PUBLIC	??1?$ScriptRegistrant@VJFW_Repair_Zone_No_Aircraft@@@@UAE@XZ ; ScriptRegistrant<JFW_Repair_Zone_No_Aircraft>::~ScriptRegistrant<JFW_Repair_Zone_No_Aircraft>
PUBLIC	??_G?$ScriptRegistrant@VJFW_Repair_Zone_No_Aircraft@@@@UAEPAXI@Z ; ScriptRegistrant<JFW_Repair_Zone_No_Aircraft>::`scalar deleting destructor'
PUBLIC	??0?$ScriptRegistrant@VJFW_Zone_Send_Custom_Not_Preset@@@@QAE@PBD0@Z ; ScriptRegistrant<JFW_Zone_Send_Custom_Not_Preset>::ScriptRegistrant<JFW_Zone_Send_Custom_Not_Preset>
PUBLIC	?Create@?$ScriptRegistrant@VJFW_Zone_Send_Custom_Not_Preset@@@@UAEPAVScriptImpClass@@XZ ; ScriptRegistrant<JFW_Zone_Send_Custom_Not_Preset>::Create
PUBLIC	??1?$ScriptRegistrant@VJFW_Zone_Send_Custom_Not_Preset@@@@UAE@XZ ; ScriptRegistrant<JFW_Zone_Send_Custom_Not_Preset>::~ScriptRegistrant<JFW_Zone_Send_Custom_Not_Preset>
PUBLIC	??_G?$ScriptRegistrant@VJFW_Zone_Send_Custom_Not_Preset@@@@UAEPAXI@Z ; ScriptRegistrant<JFW_Zone_Send_Custom_Not_Preset>::`scalar deleting destructor'
PUBLIC	??0?$ScriptRegistrant@VJFW_Zone_Send_Custom_Keycard@@@@QAE@PBD0@Z ; ScriptRegistrant<JFW_Zone_Send_Custom_Keycard>::ScriptRegistrant<JFW_Zone_Send_Custom_Keycard>
PUBLIC	?Create@?$ScriptRegistrant@VJFW_Zone_Send_Custom_Keycard@@@@UAEPAVScriptImpClass@@XZ ; ScriptRegistrant<JFW_Zone_Send_Custom_Keycard>::Create
PUBLIC	??1?$ScriptRegistrant@VJFW_Zone_Send_Custom_Keycard@@@@UAE@XZ ; ScriptRegistrant<JFW_Zone_Send_Custom_Keycard>::~ScriptRegistrant<JFW_Zone_Send_Custom_Keycard>
PUBLIC	??_G?$ScriptRegistrant@VJFW_Zone_Send_Custom_Keycard@@@@UAEPAXI@Z ; ScriptRegistrant<JFW_Zone_Send_Custom_Keycard>::`scalar deleting destructor'
PUBLIC	??0?$ScriptRegistrant@VJFW_Heal_Zone@@@@QAE@PBD0@Z ; ScriptRegistrant<JFW_Heal_Zone>::ScriptRegistrant<JFW_Heal_Zone>
PUBLIC	?Create@?$ScriptRegistrant@VJFW_Heal_Zone@@@@UAEPAVScriptImpClass@@XZ ; ScriptRegistrant<JFW_Heal_Zone>::Create
PUBLIC	??1?$ScriptRegistrant@VJFW_Heal_Zone@@@@UAE@XZ	; ScriptRegistrant<JFW_Heal_Zone>::~ScriptRegistrant<JFW_Heal_Zone>
PUBLIC	??_G?$ScriptRegistrant@VJFW_Heal_Zone@@@@UAEPAXI@Z ; ScriptRegistrant<JFW_Heal_Zone>::`scalar deleting destructor'
PUBLIC	??0?$ScriptRegistrant@VJFW_Heal_Zone_2@@@@QAE@PBD0@Z ; ScriptRegistrant<JFW_Heal_Zone_2>::ScriptRegistrant<JFW_Heal_Zone_2>
PUBLIC	?Create@?$ScriptRegistrant@VJFW_Heal_Zone_2@@@@UAEPAVScriptImpClass@@XZ ; ScriptRegistrant<JFW_Heal_Zone_2>::Create
PUBLIC	??1?$ScriptRegistrant@VJFW_Heal_Zone_2@@@@UAE@XZ ; ScriptRegistrant<JFW_Heal_Zone_2>::~ScriptRegistrant<JFW_Heal_Zone_2>
PUBLIC	??_G?$ScriptRegistrant@VJFW_Heal_Zone_2@@@@UAEPAXI@Z ; ScriptRegistrant<JFW_Heal_Zone_2>::`scalar deleting destructor'
PUBLIC	??0?$ScriptRegistrant@VJFW_Disable_Transitions_Zone@@@@QAE@PBD0@Z ; ScriptRegistrant<JFW_Disable_Transitions_Zone>::ScriptRegistrant<JFW_Disable_Transitions_Zone>
PUBLIC	?Create@?$ScriptRegistrant@VJFW_Disable_Transitions_Zone@@@@UAEPAVScriptImpClass@@XZ ; ScriptRegistrant<JFW_Disable_Transitions_Zone>::Create
PUBLIC	??1?$ScriptRegistrant@VJFW_Disable_Transitions_Zone@@@@UAE@XZ ; ScriptRegistrant<JFW_Disable_Transitions_Zone>::~ScriptRegistrant<JFW_Disable_Transitions_Zone>
PUBLIC	??_G?$ScriptRegistrant@VJFW_Disable_Transitions_Zone@@@@UAEPAXI@Z ; ScriptRegistrant<JFW_Disable_Transitions_Zone>::`scalar deleting destructor'
PUBLIC	??0?$ScriptRegistrant@VJFW_Bounce_Zone_Entry_All_Directions@@@@QAE@PBD0@Z ; ScriptRegistrant<JFW_Bounce_Zone_Entry_All_Directions>::ScriptRegistrant<JFW_Bounce_Zone_Entry_All_Directions>
PUBLIC	?Create@?$ScriptRegistrant@VJFW_Bounce_Zone_Entry_All_Directions@@@@UAEPAVScriptImpClass@@XZ ; ScriptRegistrant<JFW_Bounce_Zone_Entry_All_Directions>::Create
PUBLIC	??1?$ScriptRegistrant@VJFW_Bounce_Zone_Entry_All_Directions@@@@UAE@XZ ; ScriptRegistrant<JFW_Bounce_Zone_Entry_All_Directions>::~ScriptRegistrant<JFW_Bounce_Zone_Entry_All_Directions>
PUBLIC	??_G?$ScriptRegistrant@VJFW_Bounce_Zone_Entry_All_Directions@@@@UAEPAXI@Z ; ScriptRegistrant<JFW_Bounce_Zone_Entry_All_Directions>::`scalar deleting destructor'
PUBLIC	??0?$ScriptRegistrant@VJFW_Zone_Send_Custom_Cost@@@@QAE@PBD0@Z ; ScriptRegistrant<JFW_Zone_Send_Custom_Cost>::ScriptRegistrant<JFW_Zone_Send_Custom_Cost>
PUBLIC	?Create@?$ScriptRegistrant@VJFW_Zone_Send_Custom_Cost@@@@UAEPAVScriptImpClass@@XZ ; ScriptRegistrant<JFW_Zone_Send_Custom_Cost>::Create
PUBLIC	??1?$ScriptRegistrant@VJFW_Zone_Send_Custom_Cost@@@@UAE@XZ ; ScriptRegistrant<JFW_Zone_Send_Custom_Cost>::~ScriptRegistrant<JFW_Zone_Send_Custom_Cost>
PUBLIC	??_G?$ScriptRegistrant@VJFW_Zone_Send_Custom_Cost@@@@UAEPAXI@Z ; ScriptRegistrant<JFW_Zone_Send_Custom_Cost>::`scalar deleting destructor'
PUBLIC	??0?$ScriptRegistrant@VJFW_Vechicle_Damage_Zone@@@@QAE@PBD0@Z ; ScriptRegistrant<JFW_Vechicle_Damage_Zone>::ScriptRegistrant<JFW_Vechicle_Damage_Zone>
PUBLIC	?Create@?$ScriptRegistrant@VJFW_Vechicle_Damage_Zone@@@@UAEPAVScriptImpClass@@XZ ; ScriptRegistrant<JFW_Vechicle_Damage_Zone>::Create
PUBLIC	??1?$ScriptRegistrant@VJFW_Vechicle_Damage_Zone@@@@UAE@XZ ; ScriptRegistrant<JFW_Vechicle_Damage_Zone>::~ScriptRegistrant<JFW_Vechicle_Damage_Zone>
PUBLIC	??_G?$ScriptRegistrant@VJFW_Vechicle_Damage_Zone@@@@UAEPAXI@Z ; ScriptRegistrant<JFW_Vechicle_Damage_Zone>::`scalar deleting destructor'
PUBLIC	??0?$ScriptRegistrant@VJFW_Refill_Buy@@@@QAE@PBD0@Z ; ScriptRegistrant<JFW_Refill_Buy>::ScriptRegistrant<JFW_Refill_Buy>
PUBLIC	?Create@?$ScriptRegistrant@VJFW_Refill_Buy@@@@UAEPAVScriptImpClass@@XZ ; ScriptRegistrant<JFW_Refill_Buy>::Create
PUBLIC	??1?$ScriptRegistrant@VJFW_Refill_Buy@@@@UAE@XZ	; ScriptRegistrant<JFW_Refill_Buy>::~ScriptRegistrant<JFW_Refill_Buy>
PUBLIC	??_G?$ScriptRegistrant@VJFW_Refill_Buy@@@@UAEPAXI@Z ; ScriptRegistrant<JFW_Refill_Buy>::`scalar deleting destructor'
PUBLIC	??0?$ScriptRegistrant@VJFW_Vehicle_Buy@@@@QAE@PBD0@Z ; ScriptRegistrant<JFW_Vehicle_Buy>::ScriptRegistrant<JFW_Vehicle_Buy>
PUBLIC	?Create@?$ScriptRegistrant@VJFW_Vehicle_Buy@@@@UAEPAVScriptImpClass@@XZ ; ScriptRegistrant<JFW_Vehicle_Buy>::Create
PUBLIC	??1?$ScriptRegistrant@VJFW_Vehicle_Buy@@@@UAE@XZ ; ScriptRegistrant<JFW_Vehicle_Buy>::~ScriptRegistrant<JFW_Vehicle_Buy>
PUBLIC	??_G?$ScriptRegistrant@VJFW_Vehicle_Buy@@@@UAEPAXI@Z ; ScriptRegistrant<JFW_Vehicle_Buy>::`scalar deleting destructor'
PUBLIC	??0?$ScriptRegistrant@VJFW_Powerup_Buy@@@@QAE@PBD0@Z ; ScriptRegistrant<JFW_Powerup_Buy>::ScriptRegistrant<JFW_Powerup_Buy>
PUBLIC	?Create@?$ScriptRegistrant@VJFW_Powerup_Buy@@@@UAEPAVScriptImpClass@@XZ ; ScriptRegistrant<JFW_Powerup_Buy>::Create
PUBLIC	??1?$ScriptRegistrant@VJFW_Powerup_Buy@@@@UAE@XZ ; ScriptRegistrant<JFW_Powerup_Buy>::~ScriptRegistrant<JFW_Powerup_Buy>
PUBLIC	??_G?$ScriptRegistrant@VJFW_Powerup_Buy@@@@UAEPAXI@Z ; ScriptRegistrant<JFW_Powerup_Buy>::`scalar deleting destructor'
PUBLIC	??0?$ScriptRegistrant@VJFW_Repair_Zone_No_VTOL@@@@QAE@PBD0@Z ; ScriptRegistrant<JFW_Repair_Zone_No_VTOL>::ScriptRegistrant<JFW_Repair_Zone_No_VTOL>
PUBLIC	?Create@?$ScriptRegistrant@VJFW_Repair_Zone_No_VTOL@@@@UAEPAVScriptImpClass@@XZ ; ScriptRegistrant<JFW_Repair_Zone_No_VTOL>::Create
PUBLIC	??1?$ScriptRegistrant@VJFW_Repair_Zone_No_VTOL@@@@UAE@XZ ; ScriptRegistrant<JFW_Repair_Zone_No_VTOL>::~ScriptRegistrant<JFW_Repair_Zone_No_VTOL>
PUBLIC	??_G?$ScriptRegistrant@VJFW_Repair_Zone_No_VTOL@@@@UAEPAXI@Z ; ScriptRegistrant<JFW_Repair_Zone_No_VTOL>::`scalar deleting destructor'
PUBLIC	??0?$ScriptRegistrant@VJFW_Repair_Zone_VTOL_Only@@@@QAE@PBD0@Z ; ScriptRegistrant<JFW_Repair_Zone_VTOL_Only>::ScriptRegistrant<JFW_Repair_Zone_VTOL_Only>
PUBLIC	?Create@?$ScriptRegistrant@VJFW_Repair_Zone_VTOL_Only@@@@UAEPAVScriptImpClass@@XZ ; ScriptRegistrant<JFW_Repair_Zone_VTOL_Only>::Create
PUBLIC	??1?$ScriptRegistrant@VJFW_Repair_Zone_VTOL_Only@@@@UAE@XZ ; ScriptRegistrant<JFW_Repair_Zone_VTOL_Only>::~ScriptRegistrant<JFW_Repair_Zone_VTOL_Only>
PUBLIC	??_G?$ScriptRegistrant@VJFW_Repair_Zone_VTOL_Only@@@@UAEPAXI@Z ; ScriptRegistrant<JFW_Repair_Zone_VTOL_Only>::`scalar deleting destructor'
PUBLIC	??0?$ScriptRegistrant@VJFW_Zone_Vehicle@@@@QAE@PBD0@Z ; ScriptRegistrant<JFW_Zone_Vehicle>::ScriptRegistrant<JFW_Zone_Vehicle>
PUBLIC	?Create@?$ScriptRegistrant@VJFW_Zone_Vehicle@@@@UAEPAVScriptImpClass@@XZ ; ScriptRegistrant<JFW_Zone_Vehicle>::Create
PUBLIC	??1?$ScriptRegistrant@VJFW_Zone_Vehicle@@@@UAE@XZ ; ScriptRegistrant<JFW_Zone_Vehicle>::~ScriptRegistrant<JFW_Zone_Vehicle>
PUBLIC	??_G?$ScriptRegistrant@VJFW_Zone_Vehicle@@@@UAEPAXI@Z ; ScriptRegistrant<JFW_Zone_Vehicle>::`scalar deleting destructor'
PUBLIC	??0?$ScriptRegistrant@VJFW_Zone_Powerup@@@@QAE@PBD0@Z ; ScriptRegistrant<JFW_Zone_Powerup>::ScriptRegistrant<JFW_Zone_Powerup>
PUBLIC	?Create@?$ScriptRegistrant@VJFW_Zone_Powerup@@@@UAEPAVScriptImpClass@@XZ ; ScriptRegistrant<JFW_Zone_Powerup>::Create
PUBLIC	??1?$ScriptRegistrant@VJFW_Zone_Powerup@@@@UAE@XZ ; ScriptRegistrant<JFW_Zone_Powerup>::~ScriptRegistrant<JFW_Zone_Powerup>
PUBLIC	??_G?$ScriptRegistrant@VJFW_Zone_Powerup@@@@UAEPAXI@Z ; ScriptRegistrant<JFW_Zone_Powerup>::`scalar deleting destructor'
PUBLIC	??0?$ScriptRegistrant@VJFW_Zone_Refill@@@@QAE@PBD0@Z ; ScriptRegistrant<JFW_Zone_Refill>::ScriptRegistrant<JFW_Zone_Refill>
PUBLIC	?Create@?$ScriptRegistrant@VJFW_Zone_Refill@@@@UAEPAVScriptImpClass@@XZ ; ScriptRegistrant<JFW_Zone_Refill>::Create
PUBLIC	??1?$ScriptRegistrant@VJFW_Zone_Refill@@@@UAE@XZ ; ScriptRegistrant<JFW_Zone_Refill>::~ScriptRegistrant<JFW_Zone_Refill>
PUBLIC	??_G?$ScriptRegistrant@VJFW_Zone_Refill@@@@UAEPAXI@Z ; ScriptRegistrant<JFW_Zone_Refill>::`scalar deleting destructor'
PUBLIC	??0?$ScriptRegistrant@VJFW_Zone_Send_Custom_Team@@@@QAE@PBD0@Z ; ScriptRegistrant<JFW_Zone_Send_Custom_Team>::ScriptRegistrant<JFW_Zone_Send_Custom_Team>
PUBLIC	?Create@?$ScriptRegistrant@VJFW_Zone_Send_Custom_Team@@@@UAEPAVScriptImpClass@@XZ ; ScriptRegistrant<JFW_Zone_Send_Custom_Team>::Create
PUBLIC	??1?$ScriptRegistrant@VJFW_Zone_Send_Custom_Team@@@@UAE@XZ ; ScriptRegistrant<JFW_Zone_Send_Custom_Team>::~ScriptRegistrant<JFW_Zone_Send_Custom_Team>
PUBLIC	??_G?$ScriptRegistrant@VJFW_Zone_Send_Custom_Team@@@@UAEPAXI@Z ; ScriptRegistrant<JFW_Zone_Send_Custom_Team>::`scalar deleting destructor'
PUBLIC	??0?$ScriptRegistrant@VJFW_Zone_Animation@@@@QAE@PBD0@Z ; ScriptRegistrant<JFW_Zone_Animation>::ScriptRegistrant<JFW_Zone_Animation>
PUBLIC	?Create@?$ScriptRegistrant@VJFW_Zone_Animation@@@@UAEPAVScriptImpClass@@XZ ; ScriptRegistrant<JFW_Zone_Animation>::Create
PUBLIC	??1?$ScriptRegistrant@VJFW_Zone_Animation@@@@UAE@XZ ; ScriptRegistrant<JFW_Zone_Animation>::~ScriptRegistrant<JFW_Zone_Animation>
PUBLIC	??_G?$ScriptRegistrant@VJFW_Zone_Animation@@@@UAEPAXI@Z ; ScriptRegistrant<JFW_Zone_Animation>::`scalar deleting destructor'
PUBLIC	??0?$ScriptRegistrant@VJFW_Group_Purchase_Zone@@@@QAE@PBD0@Z ; ScriptRegistrant<JFW_Group_Purchase_Zone>::ScriptRegistrant<JFW_Group_Purchase_Zone>
PUBLIC	?Create@?$ScriptRegistrant@VJFW_Group_Purchase_Zone@@@@UAEPAVScriptImpClass@@XZ ; ScriptRegistrant<JFW_Group_Purchase_Zone>::Create
PUBLIC	??1?$ScriptRegistrant@VJFW_Group_Purchase_Zone@@@@UAE@XZ ; ScriptRegistrant<JFW_Group_Purchase_Zone>::~ScriptRegistrant<JFW_Group_Purchase_Zone>
PUBLIC	??_G?$ScriptRegistrant@VJFW_Group_Purchase_Zone@@@@UAEPAXI@Z ; ScriptRegistrant<JFW_Group_Purchase_Zone>::`scalar deleting destructor'
PUBLIC	??0?$ScriptRegistrant@VJFW_Zone_Timer@@@@QAE@PBD0@Z ; ScriptRegistrant<JFW_Zone_Timer>::ScriptRegistrant<JFW_Zone_Timer>
PUBLIC	?Create@?$ScriptRegistrant@VJFW_Zone_Timer@@@@UAEPAVScriptImpClass@@XZ ; ScriptRegistrant<JFW_Zone_Timer>::Create
PUBLIC	??1?$ScriptRegistrant@VJFW_Zone_Timer@@@@UAE@XZ	; ScriptRegistrant<JFW_Zone_Timer>::~ScriptRegistrant<JFW_Zone_Timer>
PUBLIC	??_G?$ScriptRegistrant@VJFW_Zone_Timer@@@@UAEPAXI@Z ; ScriptRegistrant<JFW_Zone_Timer>::`scalar deleting destructor'
PUBLIC	??0?$ScriptRegistrant@VJFW_Gate_Zone_2@@@@QAE@PBD0@Z ; ScriptRegistrant<JFW_Gate_Zone_2>::ScriptRegistrant<JFW_Gate_Zone_2>
PUBLIC	?Create@?$ScriptRegistrant@VJFW_Gate_Zone_2@@@@UAEPAVScriptImpClass@@XZ ; ScriptRegistrant<JFW_Gate_Zone_2>::Create
PUBLIC	??1?$ScriptRegistrant@VJFW_Gate_Zone_2@@@@UAE@XZ ; ScriptRegistrant<JFW_Gate_Zone_2>::~ScriptRegistrant<JFW_Gate_Zone_2>
PUBLIC	??_G?$ScriptRegistrant@VJFW_Gate_Zone_2@@@@UAEPAXI@Z ; ScriptRegistrant<JFW_Gate_Zone_2>::`scalar deleting destructor'
PUBLIC	??0?$ScriptRegistrant@VJFW_PPAGE_Zone@@@@QAE@PBD0@Z ; ScriptRegistrant<JFW_PPAGE_Zone>::ScriptRegistrant<JFW_PPAGE_Zone>
PUBLIC	?Create@?$ScriptRegistrant@VJFW_PPAGE_Zone@@@@UAEPAVScriptImpClass@@XZ ; ScriptRegistrant<JFW_PPAGE_Zone>::Create
PUBLIC	??1?$ScriptRegistrant@VJFW_PPAGE_Zone@@@@UAE@XZ	; ScriptRegistrant<JFW_PPAGE_Zone>::~ScriptRegistrant<JFW_PPAGE_Zone>
PUBLIC	??_G?$ScriptRegistrant@VJFW_PPAGE_Zone@@@@UAEPAXI@Z ; ScriptRegistrant<JFW_PPAGE_Zone>::`scalar deleting destructor'
PUBLIC	??0?$ScriptRegistrant@VJFW_MSG_Zone@@@@QAE@PBD0@Z ; ScriptRegistrant<JFW_MSG_Zone>::ScriptRegistrant<JFW_MSG_Zone>
PUBLIC	?Create@?$ScriptRegistrant@VJFW_MSG_Zone@@@@UAEPAVScriptImpClass@@XZ ; ScriptRegistrant<JFW_MSG_Zone>::Create
PUBLIC	??1?$ScriptRegistrant@VJFW_MSG_Zone@@@@UAE@XZ	; ScriptRegistrant<JFW_MSG_Zone>::~ScriptRegistrant<JFW_MSG_Zone>
PUBLIC	??_G?$ScriptRegistrant@VJFW_MSG_Zone@@@@UAEPAXI@Z ; ScriptRegistrant<JFW_MSG_Zone>::`scalar deleting destructor'
PUBLIC	??0?$ScriptRegistrant@VJFW_TMSG_Zone@@@@QAE@PBD0@Z ; ScriptRegistrant<JFW_TMSG_Zone>::ScriptRegistrant<JFW_TMSG_Zone>
PUBLIC	?Create@?$ScriptRegistrant@VJFW_TMSG_Zone@@@@UAEPAVScriptImpClass@@XZ ; ScriptRegistrant<JFW_TMSG_Zone>::Create
PUBLIC	??1?$ScriptRegistrant@VJFW_TMSG_Zone@@@@UAE@XZ	; ScriptRegistrant<JFW_TMSG_Zone>::~ScriptRegistrant<JFW_TMSG_Zone>
PUBLIC	??_G?$ScriptRegistrant@VJFW_TMSG_Zone@@@@UAEPAXI@Z ; ScriptRegistrant<JFW_TMSG_Zone>::`scalar deleting destructor'
PUBLIC	??0?$ScriptRegistrant@VJFW_Send_Driver_Custom_On_Enter@@@@QAE@PBD0@Z ; ScriptRegistrant<JFW_Send_Driver_Custom_On_Enter>::ScriptRegistrant<JFW_Send_Driver_Custom_On_Enter>
PUBLIC	?Create@?$ScriptRegistrant@VJFW_Send_Driver_Custom_On_Enter@@@@UAEPAVScriptImpClass@@XZ ; ScriptRegistrant<JFW_Send_Driver_Custom_On_Enter>::Create
PUBLIC	??1?$ScriptRegistrant@VJFW_Send_Driver_Custom_On_Enter@@@@UAE@XZ ; ScriptRegistrant<JFW_Send_Driver_Custom_On_Enter>::~ScriptRegistrant<JFW_Send_Driver_Custom_On_Enter>
PUBLIC	??_G?$ScriptRegistrant@VJFW_Send_Driver_Custom_On_Enter@@@@UAEPAXI@Z ; ScriptRegistrant<JFW_Send_Driver_Custom_On_Enter>::`scalar deleting destructor'
PUBLIC	??0?$ScriptRegistrant@VJFW_Teleport_Zone_Enable@@@@QAE@PBD0@Z ; ScriptRegistrant<JFW_Teleport_Zone_Enable>::ScriptRegistrant<JFW_Teleport_Zone_Enable>
PUBLIC	?Create@?$ScriptRegistrant@VJFW_Teleport_Zone_Enable@@@@UAEPAVScriptImpClass@@XZ ; ScriptRegistrant<JFW_Teleport_Zone_Enable>::Create
PUBLIC	??1?$ScriptRegistrant@VJFW_Teleport_Zone_Enable@@@@UAE@XZ ; ScriptRegistrant<JFW_Teleport_Zone_Enable>::~ScriptRegistrant<JFW_Teleport_Zone_Enable>
PUBLIC	??_G?$ScriptRegistrant@VJFW_Teleport_Zone_Enable@@@@UAEPAXI@Z ; ScriptRegistrant<JFW_Teleport_Zone_Enable>::`scalar deleting destructor'
PUBLIC	??0?$ScriptRegistrant@VJFW_Radar_Spy_Zone@@@@QAE@PBD0@Z ; ScriptRegistrant<JFW_Radar_Spy_Zone>::ScriptRegistrant<JFW_Radar_Spy_Zone>
PUBLIC	?Create@?$ScriptRegistrant@VJFW_Radar_Spy_Zone@@@@UAEPAVScriptImpClass@@XZ ; ScriptRegistrant<JFW_Radar_Spy_Zone>::Create
PUBLIC	??1?$ScriptRegistrant@VJFW_Radar_Spy_Zone@@@@UAE@XZ ; ScriptRegistrant<JFW_Radar_Spy_Zone>::~ScriptRegistrant<JFW_Radar_Spy_Zone>
PUBLIC	??_G?$ScriptRegistrant@VJFW_Radar_Spy_Zone@@@@UAEPAXI@Z ; ScriptRegistrant<JFW_Radar_Spy_Zone>::`scalar deleting destructor'
PUBLIC	??0?$ScriptRegistrant@VJFW_Radar_Spy_Zone_New@@@@QAE@PBD0@Z ; ScriptRegistrant<JFW_Radar_Spy_Zone_New>::ScriptRegistrant<JFW_Radar_Spy_Zone_New>
PUBLIC	?Create@?$ScriptRegistrant@VJFW_Radar_Spy_Zone_New@@@@UAEPAVScriptImpClass@@XZ ; ScriptRegistrant<JFW_Radar_Spy_Zone_New>::Create
PUBLIC	??1?$ScriptRegistrant@VJFW_Radar_Spy_Zone_New@@@@UAE@XZ ; ScriptRegistrant<JFW_Radar_Spy_Zone_New>::~ScriptRegistrant<JFW_Radar_Spy_Zone_New>
PUBLIC	??_G?$ScriptRegistrant@VJFW_Radar_Spy_Zone_New@@@@UAEPAXI@Z ; ScriptRegistrant<JFW_Radar_Spy_Zone_New>::`scalar deleting destructor'
PUBLIC	??0?$ScriptRegistrant@VJFW_2D_Sound_Zone_Team@@@@QAE@PBD0@Z ; ScriptRegistrant<JFW_2D_Sound_Zone_Team>::ScriptRegistrant<JFW_2D_Sound_Zone_Team>
PUBLIC	?Create@?$ScriptRegistrant@VJFW_2D_Sound_Zone_Team@@@@UAEPAVScriptImpClass@@XZ ; ScriptRegistrant<JFW_2D_Sound_Zone_Team>::Create
PUBLIC	??1?$ScriptRegistrant@VJFW_2D_Sound_Zone_Team@@@@UAE@XZ ; ScriptRegistrant<JFW_2D_Sound_Zone_Team>::~ScriptRegistrant<JFW_2D_Sound_Zone_Team>
PUBLIC	??_G?$ScriptRegistrant@VJFW_2D_Sound_Zone_Team@@@@UAEPAXI@Z ; ScriptRegistrant<JFW_2D_Sound_Zone_Team>::`scalar deleting destructor'
PUBLIC	??0?$ScriptRegistrant@VJFW_Repair_Zone_2@@@@QAE@PBD0@Z ; ScriptRegistrant<JFW_Repair_Zone_2>::ScriptRegistrant<JFW_Repair_Zone_2>
PUBLIC	?Create@?$ScriptRegistrant@VJFW_Repair_Zone_2@@@@UAEPAVScriptImpClass@@XZ ; ScriptRegistrant<JFW_Repair_Zone_2>::Create
PUBLIC	??1?$ScriptRegistrant@VJFW_Repair_Zone_2@@@@UAE@XZ ; ScriptRegistrant<JFW_Repair_Zone_2>::~ScriptRegistrant<JFW_Repair_Zone_2>
PUBLIC	??_G?$ScriptRegistrant@VJFW_Repair_Zone_2@@@@UAEPAXI@Z ; ScriptRegistrant<JFW_Repair_Zone_2>::`scalar deleting destructor'
PUBLIC	??0?$ScriptRegistrant@VJFW_Repair_Zone_No_Boats@@@@QAE@PBD0@Z ; ScriptRegistrant<JFW_Repair_Zone_No_Boats>::ScriptRegistrant<JFW_Repair_Zone_No_Boats>
PUBLIC	?Create@?$ScriptRegistrant@VJFW_Repair_Zone_No_Boats@@@@UAEPAVScriptImpClass@@XZ ; ScriptRegistrant<JFW_Repair_Zone_No_Boats>::Create
PUBLIC	??1?$ScriptRegistrant@VJFW_Repair_Zone_No_Boats@@@@UAE@XZ ; ScriptRegistrant<JFW_Repair_Zone_No_Boats>::~ScriptRegistrant<JFW_Repair_Zone_No_Boats>
PUBLIC	??_G?$ScriptRegistrant@VJFW_Repair_Zone_No_Boats@@@@UAEPAXI@Z ; ScriptRegistrant<JFW_Repair_Zone_No_Boats>::`scalar deleting destructor'
PUBLIC	??0?$ScriptRegistrant@VJFW_Repair_Zone_Boats@@@@QAE@PBD0@Z ; ScriptRegistrant<JFW_Repair_Zone_Boats>::ScriptRegistrant<JFW_Repair_Zone_Boats>
PUBLIC	?Create@?$ScriptRegistrant@VJFW_Repair_Zone_Boats@@@@UAEPAVScriptImpClass@@XZ ; ScriptRegistrant<JFW_Repair_Zone_Boats>::Create
PUBLIC	??1?$ScriptRegistrant@VJFW_Repair_Zone_Boats@@@@UAE@XZ ; ScriptRegistrant<JFW_Repair_Zone_Boats>::~ScriptRegistrant<JFW_Repair_Zone_Boats>
PUBLIC	??_G?$ScriptRegistrant@VJFW_Repair_Zone_Boats@@@@UAEPAXI@Z ; ScriptRegistrant<JFW_Repair_Zone_Boats>::`scalar deleting destructor'
PUBLIC	??0?$ScriptRegistrant@VJFW_Infantry_Force_Composition_Zone@@@@QAE@PBD0@Z ; ScriptRegistrant<JFW_Infantry_Force_Composition_Zone>::ScriptRegistrant<JFW_Infantry_Force_Composition_Zone>
PUBLIC	?Create@?$ScriptRegistrant@VJFW_Infantry_Force_Composition_Zone@@@@UAEPAVScriptImpClass@@XZ ; ScriptRegistrant<JFW_Infantry_Force_Composition_Zone>::Create
PUBLIC	??1?$ScriptRegistrant@VJFW_Infantry_Force_Composition_Zone@@@@UAE@XZ ; ScriptRegistrant<JFW_Infantry_Force_Composition_Zone>::~ScriptRegistrant<JFW_Infantry_Force_Composition_Zone>
PUBLIC	??_G?$ScriptRegistrant@VJFW_Infantry_Force_Composition_Zone@@@@UAEPAXI@Z ; ScriptRegistrant<JFW_Infantry_Force_Composition_Zone>::`scalar deleting destructor'
PUBLIC	??0?$ScriptRegistrant@VJFW_Vehicle_Force_Composition_Zone@@@@QAE@PBD0@Z ; ScriptRegistrant<JFW_Vehicle_Force_Composition_Zone>::ScriptRegistrant<JFW_Vehicle_Force_Composition_Zone>
PUBLIC	?Create@?$ScriptRegistrant@VJFW_Vehicle_Force_Composition_Zone@@@@UAEPAVScriptImpClass@@XZ ; ScriptRegistrant<JFW_Vehicle_Force_Composition_Zone>::Create
PUBLIC	??1?$ScriptRegistrant@VJFW_Vehicle_Force_Composition_Zone@@@@UAE@XZ ; ScriptRegistrant<JFW_Vehicle_Force_Composition_Zone>::~ScriptRegistrant<JFW_Vehicle_Force_Composition_Zone>
PUBLIC	??_G?$ScriptRegistrant@VJFW_Vehicle_Force_Composition_Zone@@@@UAEPAXI@Z ; ScriptRegistrant<JFW_Vehicle_Force_Composition_Zone>::`scalar deleting destructor'
PUBLIC	??0?$ScriptRegistrant@VJFW_Infantry_Force_Composition_Zone_New@@@@QAE@PBD0@Z ; ScriptRegistrant<JFW_Infantry_Force_Composition_Zone_New>::ScriptRegistrant<JFW_Infantry_Force_Composition_Zone_New>
PUBLIC	?Create@?$ScriptRegistrant@VJFW_Infantry_Force_Composition_Zone_New@@@@UAEPAVScriptImpClass@@XZ ; ScriptRegistrant<JFW_Infantry_Force_Composition_Zone_New>::Create
PUBLIC	??1?$ScriptRegistrant@VJFW_Infantry_Force_Composition_Zone_New@@@@UAE@XZ ; ScriptRegistrant<JFW_Infantry_Force_Composition_Zone_New>::~ScriptRegistrant<JFW_Infantry_Force_Composition_Zone_New>
PUBLIC	??_G?$ScriptRegistrant@VJFW_Infantry_Force_Composition_Zone_New@@@@UAEPAXI@Z ; ScriptRegistrant<JFW_Infantry_Force_Composition_Zone_New>::`scalar deleting destructor'
PUBLIC	??0?$ScriptRegistrant@VJFW_Vehicle_Force_Composition_Zone_New@@@@QAE@PBD0@Z ; ScriptRegistrant<JFW_Vehicle_Force_Composition_Zone_New>::ScriptRegistrant<JFW_Vehicle_Force_Composition_Zone_New>
PUBLIC	?Create@?$ScriptRegistrant@VJFW_Vehicle_Force_Composition_Zone_New@@@@UAEPAVScriptImpClass@@XZ ; ScriptRegistrant<JFW_Vehicle_Force_Composition_Zone_New>::Create
PUBLIC	??1?$ScriptRegistrant@VJFW_Vehicle_Force_Composition_Zone_New@@@@UAE@XZ ; ScriptRegistrant<JFW_Vehicle_Force_Composition_Zone_New>::~ScriptRegistrant<JFW_Vehicle_Force_Composition_Zone_New>
PUBLIC	??_G?$ScriptRegistrant@VJFW_Vehicle_Force_Composition_Zone_New@@@@UAEPAXI@Z ; ScriptRegistrant<JFW_Vehicle_Force_Composition_Zone_New>::`scalar deleting destructor'
PUBLIC	??0?$ScriptRegistrant@VJFW_Sell_Zone@@@@QAE@PBD0@Z ; ScriptRegistrant<JFW_Sell_Zone>::ScriptRegistrant<JFW_Sell_Zone>
PUBLIC	?Create@?$ScriptRegistrant@VJFW_Sell_Zone@@@@UAEPAVScriptImpClass@@XZ ; ScriptRegistrant<JFW_Sell_Zone>::Create
PUBLIC	??1?$ScriptRegistrant@VJFW_Sell_Zone@@@@UAE@XZ	; ScriptRegistrant<JFW_Sell_Zone>::~ScriptRegistrant<JFW_Sell_Zone>
PUBLIC	??_G?$ScriptRegistrant@VJFW_Sell_Zone@@@@UAEPAXI@Z ; ScriptRegistrant<JFW_Sell_Zone>::`scalar deleting destructor'
PUBLIC	??0?$ScriptRegistrant@VJFW_Resize_Zone@@@@QAE@PBD0@Z ; ScriptRegistrant<JFW_Resize_Zone>::ScriptRegistrant<JFW_Resize_Zone>
PUBLIC	?Create@?$ScriptRegistrant@VJFW_Resize_Zone@@@@UAEPAVScriptImpClass@@XZ ; ScriptRegistrant<JFW_Resize_Zone>::Create
PUBLIC	??1?$ScriptRegistrant@VJFW_Resize_Zone@@@@UAE@XZ ; ScriptRegistrant<JFW_Resize_Zone>::~ScriptRegistrant<JFW_Resize_Zone>
PUBLIC	??_G?$ScriptRegistrant@VJFW_Resize_Zone@@@@UAEPAXI@Z ; ScriptRegistrant<JFW_Resize_Zone>::`scalar deleting destructor'
PUBLIC	??0?$ScriptRegistrant@VJFW_Cash_Spy_Zone@@@@QAE@PBD0@Z ; ScriptRegistrant<JFW_Cash_Spy_Zone>::ScriptRegistrant<JFW_Cash_Spy_Zone>
PUBLIC	?Create@?$ScriptRegistrant@VJFW_Cash_Spy_Zone@@@@UAEPAVScriptImpClass@@XZ ; ScriptRegistrant<JFW_Cash_Spy_Zone>::Create
PUBLIC	??1?$ScriptRegistrant@VJFW_Cash_Spy_Zone@@@@UAE@XZ ; ScriptRegistrant<JFW_Cash_Spy_Zone>::~ScriptRegistrant<JFW_Cash_Spy_Zone>
PUBLIC	??_G?$ScriptRegistrant@VJFW_Cash_Spy_Zone@@@@UAEPAXI@Z ; ScriptRegistrant<JFW_Cash_Spy_Zone>::`scalar deleting destructor'
PUBLIC	??0?$ScriptRegistrant@VJFW_Power_Spy_Zone@@@@QAE@PBD0@Z ; ScriptRegistrant<JFW_Power_Spy_Zone>::ScriptRegistrant<JFW_Power_Spy_Zone>
PUBLIC	?Create@?$ScriptRegistrant@VJFW_Power_Spy_Zone@@@@UAEPAVScriptImpClass@@XZ ; ScriptRegistrant<JFW_Power_Spy_Zone>::Create
PUBLIC	??1?$ScriptRegistrant@VJFW_Power_Spy_Zone@@@@UAE@XZ ; ScriptRegistrant<JFW_Power_Spy_Zone>::~ScriptRegistrant<JFW_Power_Spy_Zone>
PUBLIC	??_G?$ScriptRegistrant@VJFW_Power_Spy_Zone@@@@UAEPAXI@Z ; ScriptRegistrant<JFW_Power_Spy_Zone>::`scalar deleting destructor'
PUBLIC	??0?$ScriptRegistrant@VJFW_Cash_Spy_Zone_New@@@@QAE@PBD0@Z ; ScriptRegistrant<JFW_Cash_Spy_Zone_New>::ScriptRegistrant<JFW_Cash_Spy_Zone_New>
PUBLIC	?Create@?$ScriptRegistrant@VJFW_Cash_Spy_Zone_New@@@@UAEPAVScriptImpClass@@XZ ; ScriptRegistrant<JFW_Cash_Spy_Zone_New>::Create
PUBLIC	??1?$ScriptRegistrant@VJFW_Cash_Spy_Zone_New@@@@UAE@XZ ; ScriptRegistrant<JFW_Cash_Spy_Zone_New>::~ScriptRegistrant<JFW_Cash_Spy_Zone_New>
PUBLIC	??_G?$ScriptRegistrant@VJFW_Cash_Spy_Zone_New@@@@UAEPAXI@Z ; ScriptRegistrant<JFW_Cash_Spy_Zone_New>::`scalar deleting destructor'
PUBLIC	??0?$ScriptRegistrant@VJFW_Power_Spy_Zone_New@@@@QAE@PBD0@Z ; ScriptRegistrant<JFW_Power_Spy_Zone_New>::ScriptRegistrant<JFW_Power_Spy_Zone_New>
PUBLIC	?Create@?$ScriptRegistrant@VJFW_Power_Spy_Zone_New@@@@UAEPAVScriptImpClass@@XZ ; ScriptRegistrant<JFW_Power_Spy_Zone_New>::Create
PUBLIC	??1?$ScriptRegistrant@VJFW_Power_Spy_Zone_New@@@@UAE@XZ ; ScriptRegistrant<JFW_Power_Spy_Zone_New>::~ScriptRegistrant<JFW_Power_Spy_Zone_New>
PUBLIC	??_G?$ScriptRegistrant@VJFW_Power_Spy_Zone_New@@@@UAEPAXI@Z ; ScriptRegistrant<JFW_Power_Spy_Zone_New>::`scalar deleting destructor'
PUBLIC	??0?$ScriptRegistrant@VJFW_Blow_Up_On_Enter_Delay@@@@QAE@PBD0@Z ; ScriptRegistrant<JFW_Blow_Up_On_Enter_Delay>::ScriptRegistrant<JFW_Blow_Up_On_Enter_Delay>
PUBLIC	?Create@?$ScriptRegistrant@VJFW_Blow_Up_On_Enter_Delay@@@@UAEPAVScriptImpClass@@XZ ; ScriptRegistrant<JFW_Blow_Up_On_Enter_Delay>::Create
PUBLIC	??1?$ScriptRegistrant@VJFW_Blow_Up_On_Enter_Delay@@@@UAE@XZ ; ScriptRegistrant<JFW_Blow_Up_On_Enter_Delay>::~ScriptRegistrant<JFW_Blow_Up_On_Enter_Delay>
PUBLIC	??_G?$ScriptRegistrant@VJFW_Blow_Up_On_Enter_Delay@@@@UAEPAXI@Z ; ScriptRegistrant<JFW_Blow_Up_On_Enter_Delay>::`scalar deleting destructor'
PUBLIC	??0?$ScriptRegistrant@VJFW_Conyard_Spy_Zone@@@@QAE@PBD0@Z ; ScriptRegistrant<JFW_Conyard_Spy_Zone>::ScriptRegistrant<JFW_Conyard_Spy_Zone>
PUBLIC	?Create@?$ScriptRegistrant@VJFW_Conyard_Spy_Zone@@@@UAEPAVScriptImpClass@@XZ ; ScriptRegistrant<JFW_Conyard_Spy_Zone>::Create
PUBLIC	??1?$ScriptRegistrant@VJFW_Conyard_Spy_Zone@@@@UAE@XZ ; ScriptRegistrant<JFW_Conyard_Spy_Zone>::~ScriptRegistrant<JFW_Conyard_Spy_Zone>
PUBLIC	??_G?$ScriptRegistrant@VJFW_Conyard_Spy_Zone@@@@UAEPAXI@Z ; ScriptRegistrant<JFW_Conyard_Spy_Zone>::`scalar deleting destructor'
PUBLIC	??0?$ScriptRegistrant@VJFW_Conyard_Spy_Zone_2@@@@QAE@PBD0@Z ; ScriptRegistrant<JFW_Conyard_Spy_Zone_2>::ScriptRegistrant<JFW_Conyard_Spy_Zone_2>
PUBLIC	?Create@?$ScriptRegistrant@VJFW_Conyard_Spy_Zone_2@@@@UAEPAVScriptImpClass@@XZ ; ScriptRegistrant<JFW_Conyard_Spy_Zone_2>::Create
PUBLIC	??1?$ScriptRegistrant@VJFW_Conyard_Spy_Zone_2@@@@UAE@XZ ; ScriptRegistrant<JFW_Conyard_Spy_Zone_2>::~ScriptRegistrant<JFW_Conyard_Spy_Zone_2>
PUBLIC	??_G?$ScriptRegistrant@VJFW_Conyard_Spy_Zone_2@@@@UAEPAXI@Z ; ScriptRegistrant<JFW_Conyard_Spy_Zone_2>::`scalar deleting destructor'
PUBLIC	??0?$ScriptRegistrant@VJFW_Conyard_Spy_Zone_2_New@@@@QAE@PBD0@Z ; ScriptRegistrant<JFW_Conyard_Spy_Zone_2_New>::ScriptRegistrant<JFW_Conyard_Spy_Zone_2_New>
PUBLIC	?Create@?$ScriptRegistrant@VJFW_Conyard_Spy_Zone_2_New@@@@UAEPAVScriptImpClass@@XZ ; ScriptRegistrant<JFW_Conyard_Spy_Zone_2_New>::Create
PUBLIC	??1?$ScriptRegistrant@VJFW_Conyard_Spy_Zone_2_New@@@@UAE@XZ ; ScriptRegistrant<JFW_Conyard_Spy_Zone_2_New>::~ScriptRegistrant<JFW_Conyard_Spy_Zone_2_New>
PUBLIC	??_G?$ScriptRegistrant@VJFW_Conyard_Spy_Zone_2_New@@@@UAEPAXI@Z ; ScriptRegistrant<JFW_Conyard_Spy_Zone_2_New>::`scalar deleting destructor'
PUBLIC	??0?$ScriptRegistrant@VJFW_Custom_Spawn_Zone@@@@QAE@PBD0@Z ; ScriptRegistrant<JFW_Custom_Spawn_Zone>::ScriptRegistrant<JFW_Custom_Spawn_Zone>
PUBLIC	?Create@?$ScriptRegistrant@VJFW_Custom_Spawn_Zone@@@@UAEPAVScriptImpClass@@XZ ; ScriptRegistrant<JFW_Custom_Spawn_Zone>::Create
PUBLIC	??1?$ScriptRegistrant@VJFW_Custom_Spawn_Zone@@@@UAE@XZ ; ScriptRegistrant<JFW_Custom_Spawn_Zone>::~ScriptRegistrant<JFW_Custom_Spawn_Zone>
PUBLIC	??_G?$ScriptRegistrant@VJFW_Custom_Spawn_Zone@@@@UAEPAXI@Z ; ScriptRegistrant<JFW_Custom_Spawn_Zone>::`scalar deleting destructor'
PUBLIC	??0?$ScriptRegistrant@VJFW_Spawn_Zone_Created@@@@QAE@PBD0@Z ; ScriptRegistrant<JFW_Spawn_Zone_Created>::ScriptRegistrant<JFW_Spawn_Zone_Created>
PUBLIC	?Create@?$ScriptRegistrant@VJFW_Spawn_Zone_Created@@@@UAEPAVScriptImpClass@@XZ ; ScriptRegistrant<JFW_Spawn_Zone_Created>::Create
PUBLIC	??1?$ScriptRegistrant@VJFW_Spawn_Zone_Created@@@@UAE@XZ ; ScriptRegistrant<JFW_Spawn_Zone_Created>::~ScriptRegistrant<JFW_Spawn_Zone_Created>
PUBLIC	??_G?$ScriptRegistrant@VJFW_Spawn_Zone_Created@@@@UAEPAXI@Z ; ScriptRegistrant<JFW_Spawn_Zone_Created>::`scalar deleting destructor'
PUBLIC	??0?$ScriptRegistrant@VJFW_Boat@@@@QAE@PBD0@Z	; ScriptRegistrant<JFW_Boat>::ScriptRegistrant<JFW_Boat>
PUBLIC	?Create@?$ScriptRegistrant@VJFW_Boat@@@@UAEPAVScriptImpClass@@XZ ; ScriptRegistrant<JFW_Boat>::Create
PUBLIC	??1?$ScriptRegistrant@VJFW_Boat@@@@UAE@XZ	; ScriptRegistrant<JFW_Boat>::~ScriptRegistrant<JFW_Boat>
PUBLIC	??_G?$ScriptRegistrant@VJFW_Boat@@@@UAEPAXI@Z	; ScriptRegistrant<JFW_Boat>::`scalar deleting destructor'
PUBLIC	??0?$ScriptRegistrant@VJFW_Destroy_Vehicle_Zone@@@@QAE@PBD0@Z ; ScriptRegistrant<JFW_Destroy_Vehicle_Zone>::ScriptRegistrant<JFW_Destroy_Vehicle_Zone>
PUBLIC	?Create@?$ScriptRegistrant@VJFW_Destroy_Vehicle_Zone@@@@UAEPAVScriptImpClass@@XZ ; ScriptRegistrant<JFW_Destroy_Vehicle_Zone>::Create
PUBLIC	??1?$ScriptRegistrant@VJFW_Destroy_Vehicle_Zone@@@@UAE@XZ ; ScriptRegistrant<JFW_Destroy_Vehicle_Zone>::~ScriptRegistrant<JFW_Destroy_Vehicle_Zone>
PUBLIC	??_G?$ScriptRegistrant@VJFW_Destroy_Vehicle_Zone@@@@UAEPAXI@Z ; ScriptRegistrant<JFW_Destroy_Vehicle_Zone>::`scalar deleting destructor'
PUBLIC	??0?$ScriptRegistrant@VJFW_Destroy_Vehicle_Zone_Marker@@@@QAE@PBD0@Z ; ScriptRegistrant<JFW_Destroy_Vehicle_Zone_Marker>::ScriptRegistrant<JFW_Destroy_Vehicle_Zone_Marker>
PUBLIC	?Create@?$ScriptRegistrant@VJFW_Destroy_Vehicle_Zone_Marker@@@@UAEPAVScriptImpClass@@XZ ; ScriptRegistrant<JFW_Destroy_Vehicle_Zone_Marker>::Create
PUBLIC	??1?$ScriptRegistrant@VJFW_Destroy_Vehicle_Zone_Marker@@@@UAE@XZ ; ScriptRegistrant<JFW_Destroy_Vehicle_Zone_Marker>::~ScriptRegistrant<JFW_Destroy_Vehicle_Zone_Marker>
PUBLIC	??_G?$ScriptRegistrant@VJFW_Destroy_Vehicle_Zone_Marker@@@@UAEPAXI@Z ; ScriptRegistrant<JFW_Destroy_Vehicle_Zone_Marker>::`scalar deleting destructor'
PUBLIC	?Set_Next@?$SLNode@UKeyHookWrapperStruct@MultiKeyHookScriptImpClass@@@@QAEXPAV1@@Z ; SLNode<MultiKeyHookScriptImpClass::KeyHookWrapperStruct>::Set_Next
PUBLIC	?Next@?$SLNode@UKeyHookWrapperStruct@MultiKeyHookScriptImpClass@@@@QBEPAV1@XZ ; SLNode<MultiKeyHookScriptImpClass::KeyHookWrapperStruct>::Next
PUBLIC	?Data@?$SLNode@UKeyHookWrapperStruct@MultiKeyHookScriptImpClass@@@@QBEPAUKeyHookWrapperStruct@MultiKeyHookScriptImpClass@@XZ ; SLNode<MultiKeyHookScriptImpClass::KeyHookWrapperStruct>::Data
PUBLIC	??0?$SLNode@UKeyHookWrapperStruct@MultiKeyHookScriptImpClass@@@@IAE@PAUKeyHookWrapperStruct@MultiKeyHookScriptImpClass@@@Z ; SLNode<MultiKeyHookScriptImpClass::KeyHookWrapperStruct>::SLNode<MultiKeyHookScriptImpClass::KeyHookWrapperStruct>
PUBLIC	?getInstance@?$Singleton@V?$ObjectPoolClass@VGenericSLNode@@$0BAA@@@@@SAAAV?$ObjectPoolClass@VGenericSLNode@@$0BAA@@@XZ ; Singleton<ObjectPoolClass<GenericSLNode,256> >::getInstance
PUBLIC	??0?$ObjectPoolClass@VGenericSLNode@@$0BAA@@@QAE@XZ ; ObjectPoolClass<GenericSLNode,256>::ObjectPoolClass<GenericSLNode,256>
PUBLIC	??1?$ObjectPoolClass@VGenericSLNode@@$0BAA@@@QAE@XZ ; ObjectPoolClass<GenericSLNode,256>::~ObjectPoolClass<GenericSLNode,256>
PUBLIC	?Allocate_Object_Memory@?$ObjectPoolClass@VGenericSLNode@@$0BAA@@@QAEPAVGenericSLNode@@XZ ; ObjectPoolClass<GenericSLNode,256>::Allocate_Object_Memory
PUBLIC	?Free_Object_Memory@?$ObjectPoolClass@VGenericSLNode@@$0BAA@@@QAEXAAVGenericSLNode@@@Z ; ObjectPoolClass<GenericSLNode,256>::Free_Object_Memory
PUBLIC	?writeDummyPattern@?$ObjectPoolClass@VGenericSLNode@@$0BAA@@@QAEXAAVGenericSLNode@@K@Z ; ObjectPoolClass<GenericSLNode,256>::writeDummyPattern
PUBLIC	??__Finstancex@?1??getInstance@?$Singleton@V?$ObjectPoolClass@VGenericSLNode@@$0BAA@@@@@SAAAV?$ObjectPoolClass@VGenericSLNode@@$0BAA@@@XZ@YAXXZ ; `Singleton<ObjectPoolClass<GenericSLNode,256> >::getInstance'::`2'::`dynamic atexit destructor for 'instancex''
PUBLIC	??_7GameObjObserverClass@@6B@			; GameObjObserverClass::`vftable'
PUBLIC	??_7ScriptClass@@6B@				; ScriptClass::`vftable'
PUBLIC	??_7ScriptImpClass@@6B@				; ScriptImpClass::`vftable'
PUBLIC	??_7ScriptFactory@@6B@				; ScriptFactory::`vftable'
PUBLIC	??_7ThreadClass@@6B@				; ThreadClass::`vftable'
PUBLIC	??_C@_0DJ@NKJHEMPA@x?3?2github?2renegade?2dragonade_rxd@ ; `string'
PUBLIC	??_C@_1HC@JEIHKHFK@?$AAx?$AA?3?$AA?2?$AAg?$AAi?$AAt?$AAh?$AAu?$AAb?$AA?2?$AAr?$AAe?$AAn?$AAe?$AAg?$AAa?$AAd?$AAe?$AA?2?$AAd?$AAr?$AAa?$AAg?$AAo?$AAn?$AAa?$AAd?$AAe?$AA_?$AAr?$AAx?$AAd@ ; `string'
PUBLIC	??_C@_1M@HLGKFCJM@?$AAf?$AAa?$AAl?$AAs?$AAe?$AA?$AA@ ; `string'
PUBLIC	??_7INIClass@@6B@				; INIClass::`vftable'
PUBLIC	??_7PostLoadableClass@@6B@			; PostLoadableClass::`vftable'
PUBLIC	??_7ReferencerClass@@6B@			; ReferencerClass::`vftable'
PUBLIC	??_C@_02OLOABKKD@ID?$AA@			; `string'
PUBLIC	??_7JFW_Key_Hook_Base@@6B@			; JFW_Key_Hook_Base::`vftable'
PUBLIC	??_7?$SList@UKeyHookWrapperStruct@MultiKeyHookScriptImpClass@@@@6B@ ; SList<MultiKeyHookScriptImpClass::KeyHookWrapperStruct>::`vftable'
PUBLIC	??_7MultiKeyHookScriptImpClass@@6B@		; MultiKeyHookScriptImpClass::`vftable'
PUBLIC	??_7JFW_Object_Created_Hook_Base@@6B@		; JFW_Object_Created_Hook_Base::`vftable'
PUBLIC	??_7JFW_3D_Sound_Zone@@6B@			; JFW_3D_Sound_Zone::`vftable'
PUBLIC	??_7JFW_Bounce_Zone_Entry@@6B@			; JFW_Bounce_Zone_Entry::`vftable'
PUBLIC	??_7JFW_Grant_Key_Zone_Entry@@6B@		; JFW_Grant_Key_Zone_Entry::`vftable'
PUBLIC	??_7JFW_Zone_Send_Custom_Enable@@6B@		; JFW_Zone_Send_Custom_Enable::`vftable'
PUBLIC	??_7JFW_Zone_Send_Custom_Preset@@6B@		; JFW_Zone_Send_Custom_Preset::`vftable'
PUBLIC	??_7JFW_Zone_Send_Custom_Enable_Enter@@6B@	; JFW_Zone_Send_Custom_Enable_Enter::`vftable'
PUBLIC	??_7JFW_Zone_Send_Custom_Preset_Enter@@6B@	; JFW_Zone_Send_Custom_Preset_Enter::`vftable'
PUBLIC	??_7JFW_Send_Custom_Zone_Enter@@6B@		; JFW_Send_Custom_Zone_Enter::`vftable'
PUBLIC	??_7JFW_Gate_Zone@@6B@				; JFW_Gate_Zone::`vftable'
PUBLIC	??_7JFW_Repair_Zone@@6B@			; JFW_Repair_Zone::`vftable'
PUBLIC	??_7JFW_Repair_Zone_Aircraft_Only@@6B@		; JFW_Repair_Zone_Aircraft_Only::`vftable'
PUBLIC	??_7JFW_Repair_Zone_No_Aircraft@@6B@		; JFW_Repair_Zone_No_Aircraft::`vftable'
PUBLIC	??_7JFW_Zone_Send_Custom_Not_Preset@@6B@	; JFW_Zone_Send_Custom_Not_Preset::`vftable'
PUBLIC	??_7JFW_Zone_Send_Custom_Keycard@@6B@		; JFW_Zone_Send_Custom_Keycard::`vftable'
PUBLIC	??_7JFW_Heal_Zone@@6B@				; JFW_Heal_Zone::`vftable'
PUBLIC	??_7JFW_Heal_Zone_2@@6B@			; JFW_Heal_Zone_2::`vftable'
PUBLIC	??_7JFW_Disable_Transitions_Zone@@6B@		; JFW_Disable_Transitions_Zone::`vftable'
PUBLIC	??_7JFW_Bounce_Zone_Entry_All_Directions@@6B@	; JFW_Bounce_Zone_Entry_All_Directions::`vftable'
PUBLIC	??_7JFW_Zone_Send_Custom_Cost@@6B@		; JFW_Zone_Send_Custom_Cost::`vftable'
PUBLIC	??_7JFW_Vechicle_Damage_Zone@@6B@		; JFW_Vechicle_Damage_Zone::`vftable'
PUBLIC	??_7JFW_Weapon_Buy@@6B@				; JFW_Weapon_Buy::`vftable'
PUBLIC	??_7JFW_Preset_Buy@@6B@				; JFW_Preset_Buy::`vftable'
PUBLIC	??_7JFW_Zone_Character@@6B@			; JFW_Zone_Character::`vftable'
PUBLIC	??_7JFW_Zone_Character_Swap@@6B@		; JFW_Zone_Character_Swap::`vftable'
PUBLIC	??_7JFW_Character_Buy@@6B@			; JFW_Character_Buy::`vftable'
PUBLIC	??_7JFW_Teleport_Zone_Team@@6B@			; JFW_Teleport_Zone_Team::`vftable'
PUBLIC	??_7JFW_Repair_Zone_VTOL_Only@@6B@		; JFW_Repair_Zone_VTOL_Only::`vftable'
PUBLIC	??_7JFW_Repair_Zone_No_VTOL@@6B@		; JFW_Repair_Zone_No_VTOL::`vftable'
PUBLIC	??_7JFW_Refill_Buy@@6B@				; JFW_Refill_Buy::`vftable'
PUBLIC	??_7JFW_Powerup_Buy@@6B@			; JFW_Powerup_Buy::`vftable'
PUBLIC	??_7JFW_Vehicle_Buy@@6B@			; JFW_Vehicle_Buy::`vftable'
PUBLIC	??_7JFW_Zone_Vehicle@@6B@			; JFW_Zone_Vehicle::`vftable'
PUBLIC	??_7JFW_Zone_Powerup@@6B@			; JFW_Zone_Powerup::`vftable'
PUBLIC	??_7JFW_Zone_Refill@@6B@			; JFW_Zone_Refill::`vftable'
PUBLIC	??_7JFW_Zone_Send_Custom_Team@@6B@		; JFW_Zone_Send_Custom_Team::`vftable'
PUBLIC	??_7JFW_Zone_Animation@@6B@			; JFW_Zone_Animation::`vftable'
PUBLIC	??_7JFW_Group_Purchase_Zone@@6B@		; JFW_Group_Purchase_Zone::`vftable'
PUBLIC	??_7JFW_Zone_Timer@@6B@				; JFW_Zone_Timer::`vftable'
PUBLIC	??_7JFW_Gate_Zone_2@@6B@			; JFW_Gate_Zone_2::`vftable'
PUBLIC	??_7JFW_Blow_Up_On_Enter@@6B@			; JFW_Blow_Up_On_Enter::`vftable'
PUBLIC	??_7JFW_Blow_Up_On_Enter_Delay@@6B@		; JFW_Blow_Up_On_Enter_Delay::`vftable'
PUBLIC	??_7JFW_Apply_Damage_On_Enter@@6B@		; JFW_Apply_Damage_On_Enter::`vftable'
PUBLIC	??_7JFW_Apply_Damage_On_Enter_Timer@@6B@	; JFW_Apply_Damage_On_Enter_Timer::`vftable'
PUBLIC	??_7JFW_Blow_Up_On_Enter_Random@@6B@		; JFW_Blow_Up_On_Enter_Random::`vftable'
PUBLIC	??_7JFW_Create_Destroy_Object_On_Enter@@6B@	; JFW_Create_Destroy_Object_On_Enter::`vftable'
PUBLIC	??_7JFW_Send_Driver_Custom_On_Enter@@6B@	; JFW_Send_Driver_Custom_On_Enter::`vftable'
PUBLIC	??_7JFW_Stealth_Zone@@6B@			; JFW_Stealth_Zone::`vftable'
PUBLIC	??_7JFW_Fog_Zone@@6B@				; JFW_Fog_Zone::`vftable'
PUBLIC	??_7JFW_War_Blitz_Zone@@6B@			; JFW_War_Blitz_Zone::`vftable'
PUBLIC	??_7JFW_Heavy_Vehicle_Damage_Zone@@6B@		; JFW_Heavy_Vehicle_Damage_Zone::`vftable'
PUBLIC	??_7JFW_Light_Vehicle_Damage_Zone@@6B@		; JFW_Light_Vehicle_Damage_Zone::`vftable'
PUBLIC	??_7JFW_2D_Sound_Zone@@6B@			; JFW_2D_Sound_Zone::`vftable'
PUBLIC	??_7JFW_Zone_Send_Custom_Multiple@@6B@		; JFW_Zone_Send_Custom_Multiple::`vftable'
PUBLIC	??_7JFW_Zone_Send_Custom_Enter@@6B@		; JFW_Zone_Send_Custom_Enter::`vftable'
PUBLIC	??_7JFW_Zone_Send_Custom_Exit@@6B@		; JFW_Zone_Send_Custom_Exit::`vftable'
PUBLIC	??_7JFW_Vehicle_Zone_Animation@@6B@		; JFW_Vehicle_Zone_Animation::`vftable'
PUBLIC	??_7JFW_Zone_Money_Preset@@6B@			; JFW_Zone_Money_Preset::`vftable'
PUBLIC	??_7JFW_Look_At_Location_Entry@@6B@		; JFW_Look_At_Location_Entry::`vftable'
PUBLIC	??_7JFW_Look_At_Object_Entry@@6B@		; JFW_Look_At_Object_Entry::`vftable'
PUBLIC	??_7JFW_3D_Sound_Team_Zone@@6B@			; JFW_3D_Sound_Team_Zone::`vftable'
PUBLIC	??_7JFW_3D_Sound_Player_Zone@@6B@		; JFW_3D_Sound_Player_Zone::`vftable'
PUBLIC	??_7JFW_2D_Sound_Team_Zone@@6B@			; JFW_2D_Sound_Team_Zone::`vftable'
PUBLIC	??_7JFW_2D_Sound_Player_Zone@@6B@		; JFW_2D_Sound_Player_Zone::`vftable'
PUBLIC	??_7JFW_Zone_PCT@@6B@				; JFW_Zone_PCT::`vftable'
PUBLIC	??_7JFW_Disable_Radar_Zone@@6B@			; JFW_Disable_Radar_Zone::`vftable'
PUBLIC	??_7JFW_PPAGE_Zone@@6B@				; JFW_PPAGE_Zone::`vftable'
PUBLIC	??_7JFW_MSG_Zone@@6B@				; JFW_MSG_Zone::`vftable'
PUBLIC	??_7JFW_TMSG_Zone@@6B@				; JFW_TMSG_Zone::`vftable'
PUBLIC	??_7JFW_Teleport_Zone_Enable@@6B@		; JFW_Teleport_Zone_Enable::`vftable'
PUBLIC	??_7JFW_Radar_Spy_Zone@@6B@			; JFW_Radar_Spy_Zone::`vftable'
PUBLIC	??_7JFW_Radar_Spy_Zone_New@@6B@			; JFW_Radar_Spy_Zone_New::`vftable'
PUBLIC	??_7JFW_2D_Sound_Zone_Team@@6B@			; JFW_2D_Sound_Zone_Team::`vftable'
PUBLIC	??_7JFW_Repair_Zone_2@@6B@			; JFW_Repair_Zone_2::`vftable'
PUBLIC	??_7JFW_Repair_Zone_No_Boats@@6B@		; JFW_Repair_Zone_No_Boats::`vftable'
PUBLIC	??_7JFW_Repair_Zone_Boats@@6B@			; JFW_Repair_Zone_Boats::`vftable'
PUBLIC	??_7JFW_Sell_Zone@@6B@				; JFW_Sell_Zone::`vftable'
PUBLIC	??_7JFW_Infantry_Force_Composition_Zone@@6B@	; JFW_Infantry_Force_Composition_Zone::`vftable'
PUBLIC	??_7JFW_Vehicle_Force_Composition_Zone@@6B@	; JFW_Vehicle_Force_Composition_Zone::`vftable'
PUBLIC	??_7JFW_Infantry_Force_Composition_Zone_New@@6B@ ; JFW_Infantry_Force_Composition_Zone_New::`vftable'
PUBLIC	??_7JFW_Vehicle_Force_Composition_Zone_New@@6B@	; JFW_Vehicle_Force_Composition_Zone_New::`vftable'
PUBLIC	??_7JFW_Resize_Zone@@6B@			; JFW_Resize_Zone::`vftable'
PUBLIC	??_7JFW_Cash_Spy_Zone@@6B@			; JFW_Cash_Spy_Zone::`vftable'
PUBLIC	??_7JFW_Power_Spy_Zone@@6B@			; JFW_Power_Spy_Zone::`vftable'
PUBLIC	??_7JFW_Cash_Spy_Zone_New@@6B@			; JFW_Cash_Spy_Zone_New::`vftable'
PUBLIC	??_7JFW_Power_Spy_Zone_New@@6B@			; JFW_Power_Spy_Zone_New::`vftable'
PUBLIC	??_7JFW_Conyard_Spy_Zone@@6B@			; JFW_Conyard_Spy_Zone::`vftable'
PUBLIC	??_7JFW_Conyard_Spy_Zone_2@@6B@			; JFW_Conyard_Spy_Zone_2::`vftable'
PUBLIC	??_7JFW_Conyard_Spy_Zone_2_New@@6B@		; JFW_Conyard_Spy_Zone_2_New::`vftable'
PUBLIC	??_7JFW_Custom_Spawn_Zone@@6B@			; JFW_Custom_Spawn_Zone::`vftable'
PUBLIC	??_7JFW_Spawn_Zone_Created@@6B@			; JFW_Spawn_Zone_Created::`vftable'
PUBLIC	??_7JFW_Boat@@6B@				; JFW_Boat::`vftable'
PUBLIC	??_7JFW_Destroy_Vehicle_Zone@@6B@		; JFW_Destroy_Vehicle_Zone::`vftable'
PUBLIC	??_7JFW_Destroy_Vehicle_Zone_Marker@@6B@	; JFW_Destroy_Vehicle_Zone_Marker::`vftable'
PUBLIC	??_C@_0M@JEBNJPD@Player_Type?$AA@		; `string'
PUBLIC	??_C@_05MAHMNMLO@Sound?$AA@			; `string'
PUBLIC	??_C@_06HKBMKICC@Amount?$AA@			; `string'
PUBLIC	??_C@_03CCEPDEKL@Key?$AA@			; `string'
PUBLIC	??_C@_0N@LIHAKCOK@EnterMessage?$AA@		; `string'
PUBLIC	??_C@_0L@ECFGLIJJ@EnterParam?$AA@		; `string'
PUBLIC	??_C@_0M@GGOMHEIK@ExitMessage?$AA@		; `string'
PUBLIC	??_C@_09ILCPPOI@ExitParam?$AA@			; `string'
PUBLIC	??_C@_0M@KBNHOJJA@Preset_Name?$AA@		; `string'
PUBLIC	??_C@_0P@MPKLNEEI@Enable_Message?$AA@		; `string'
PUBLIC	??_C@_0BA@BCPEPNMK@Disable_Message?$AA@		; `string'
PUBLIC	??_C@_07EIAFPCFB@Team_ID?$AA@			; `string'
PUBLIC	??_C@_09ONEINPNJ@Animation?$AA@			; `string'
PUBLIC	??_C@_08DBAENAIH@TimerNum?$AA@			; `string'
PUBLIC	??_C@_04OKOFBOPB@Time?$AA@			; `string'
PUBLIC	??_C@_0BA@GDPNCKJJ@Repair_Distance?$AA@		; `string'
PUBLIC	??_C@_0O@DFOPJPFI@Repair_Health?$AA@		; `string'
PUBLIC	??_C@_07MLBKNGKL@Preset1?$AA@			; `string'
PUBLIC	??_C@_07OADHIFGI@Preset2?$AA@			; `string'
PUBLIC	??_C@_07PJCMLECJ@Preset3?$AA@			; `string'
PUBLIC	??_C@_07LGGNCCOO@Preset4?$AA@			; `string'
PUBLIC	??_C@_07KPHGBDKP@Preset5?$AA@			; `string'
PUBLIC	??_C@_07IEFLEAGM@Preset6?$AA@			; `string'
PUBLIC	??_C@_07JNEAHBCN@Preset7?$AA@			; `string'
PUBLIC	??_C@_07BKNIGNOC@Preset8?$AA@			; `string'
PUBLIC	??_C@_0P@FENMCJEJ@Keycard_Number?$AA@		; `string'
PUBLIC	??_C@_0O@MCAHKHED@Heal_Distance?$AA@		; `string'
PUBLIC	??_C@_0M@JPBBKMOC@Heal_Health?$AA@		; `string'
PUBLIC	??_C@_07EGLEEHDL@ZAmount?$AA@			; `string'
PUBLIC	??_C@_07BEIHKDLJ@Message?$AA@			; `string'
PUBLIC	??_C@_05LOJBNELM@Param?$AA@			; `string'
PUBLIC	??_C@_04FICPKHNF@Cost?$AA@			; `string'
PUBLIC	??_C@_08DFKPLDPN@Distance?$AA@			; `string'
PUBLIC	??_C@_07EDCLAFNL@Warhead?$AA@			; `string'
PUBLIC	??_C@_06KGFFMMMJ@Damage?$AA@			; `string'
PUBLIC	??_C@_0M@DAIKJCKA@Weapon_Name?$AA@		; `string'
PUBLIC	??_C@_08CBBFJFMD@location?$AA@			; `string'
PUBLIC	??_C@_0BA@CKGNPLBL@Old_Preset_Name?$AA@		; `string'
PUBLIC	??_C@_08KDOEBHGA@Location?$AA@			; `string'
PUBLIC	??_C@_09GDPGKFPG@Object_ID?$AA@			; `string'
PUBLIC	??_C@_05DPBHIJMG@NodID?$AA@			; `string'
PUBLIC	??_C@_0BA@NGIECJCA@NodEnterMessage?$AA@		; `string'
PUBLIC	??_C@_0O@HAJPIKNP@NodEnterParam?$AA@		; `string'
PUBLIC	??_C@_05PMFBLBPI@GDIID?$AA@			; `string'
PUBLIC	??_C@_0BA@CHFALHBN@GDIEnterMessage?$AA@		; `string'
PUBLIC	??_C@_0O@MOAFLNP@GDIEnterParam?$AA@		; `string'
PUBLIC	??_C@_0P@PJGBFJBN@NodExitMessage?$AA@		; `string'
PUBLIC	??_C@_0N@BJOMFKME@NodExitParam?$AA@		; `string'
PUBLIC	??_C@_0P@PJBNCGMM@GDIExitMessage?$AA@		; `string'
PUBLIC	??_C@_0N@LKNCONAK@GDIExitParam?$AA@		; `string'
PUBLIC	??_C@_0BC@HOIKKGNK@Generic_Cinematic?$AA@	; `string'
PUBLIC	??_C@_05NFIJOKEG@Model?$AA@			; `string'
PUBLIC	??_C@_0M@ECHDGJGD@UpSubobject?$AA@		; `string'
PUBLIC	??_C@_01GBGANLPD@0?$AA@				; `string'
PUBLIC	??_C@_0N@LGMKMEMM@UpFirstFrame?$AA@		; `string'
PUBLIC	??_C@_09BBLHGKKI@UpBlended?$AA@			; `string'
PUBLIC	??_C@_0M@KKLKFLNE@UpLastFrame?$AA@		; `string'
PUBLIC	??_C@_0M@CPONAOCP@UpAnimation?$AA@		; `string'
PUBLIC	??_C@_09IANGLIJF@Subobject?$AA@			; `string'
PUBLIC	??_C@_0L@OCNGDGDE@FirstFrame?$AA@		; `string'
PUBLIC	??_C@_07DIIBFDGO@Blended?$AA@			; `string'
PUBLIC	??_C@_09GIBPIKCC@LastFrame?$AA@			; `string'
PUBLIC	??_C@_0O@JBABALOA@DownSubobject?$AA@		; `string'
PUBLIC	??_C@_0P@MCKIGEDE@DownFirstFrame?$AA@		; `string'
PUBLIC	??_C@_0M@FGALGAMO@DownBlended?$AA@		; `string'
PUBLIC	??_C@_0O@HJMIDJFH@DownLastFrame?$AA@		; `string'
PUBLIC	??_C@_0O@PMJPGMKM@DownAnimation?$AA@		; `string'
PUBLIC	??_C@_0O@BCOKGEJ@CashPerPerson?$AA@		; `string'
PUBLIC	??_C@_09DCOHGNIN@TotalCash?$AA@			; `string'
PUBLIC	??_C@_05IJGIMMHE@Count?$AA@			; `string'
PUBLIC	??_C@_09HGNANIIM@Explosion?$AA@			; `string'
PUBLIC	??_C@_0M@MBJGOPMO@Probobility?$AA@		; `string'
PUBLIC	??_C@_06CKLLCHIK@Preset?$AA@			; `string'
PUBLIC	??_C@_06HGKJBCGD@Facing?$AA@			; `string'
PUBLIC	??_C@_07HPDGLAOI@OnEnter?$AA@			; `string'
PUBLIC	??_C@_05ENDOMFAI@Delay?$AA@			; `string'
PUBLIC	??_C@_0L@HGJKDHGC@Fog_Enable?$AA@		; `string'
PUBLIC	??_C@_0BB@DGODPOOM@Fog_End_Distance?$AA@	; `string'
PUBLIC	??_C@_0BD@KMNNDDDF@Fog_Start_Distance?$AA@	; `string'
PUBLIC	??_C@_06NAODFICM@OnExit?$AA@			; `string'
PUBLIC	??_C@_0BH@PAFKLPGD@War_Blitz_Distribution?$AA@	; `string'
PUBLIC	??_C@_0BC@LKFJJDHK@War_Blitz_Heading?$AA@	; `string'
PUBLIC	??_C@_0N@BFABEEAA@End_Distance?$AA@		; `string'
PUBLIC	??_C@_0P@HFKCPGKF@Start_Distance?$AA@		; `string'
PUBLIC	??_C@_0BE@ILMCDOEI@War_Blitz_Intensity?$AA@	; `string'
PUBLIC	??_C@_04EIIBPIEA@Mass?$AA@			; `string'
PUBLIC	??_C@_08CMHNALBL@ObjectID?$AA@			; `string'
PUBLIC	??_C@_08FIBDIGJI@Stealth1?$AA@			; `string'
PUBLIC	??_C@_08HDDONFFL@Stealth2?$AA@			; `string'
PUBLIC	??_C@_08GKCFOEBK@Stealth3?$AA@			; `string'
PUBLIC	??_C@_08CFGEHCNN@Stealth4?$AA@			; `string'
PUBLIC	??_C@_05INIBOMDG@Money?$AA@			; `string'
PUBLIC	??_C@_0M@KOKGLKPP@ppage?5?$CFd?5?$CFs?$AA@	; `string'
PUBLIC	??_C@_09EFKEDDGP@msg?5?$CFd?5?$CFs?$AA@		; `string'
PUBLIC	??_C@_0L@IDFCMLIE@tmsg?5?$CFd?5?$CFs?$AA@	; `string'
PUBLIC	??_C@_0N@BAKFKCLM@EnableCustom?$AA@		; `string'
PUBLIC	??_C@_0O@CNAMPLAP@DisableCustom?$AA@		; `string'
PUBLIC	??_C@_0L@BFKILFBA@Spy_Script?$AA@		; `string'
PUBLIC	??_C@_0BC@GPLJJEPP@Sound_Player_Type?$AA@	; `string'
PUBLIC	??_C@_0P@MMNJHAAI@WaitForKeyhook?$AA@		; `string'
PUBLIC	??_C@_06KOKHNNIE@Repair?$AA@			; `string'
PUBLIC	??_C@_0M@PCKKCPHG@RepairSound?$AA@		; `string'
PUBLIC	??_C@_07GDHHDJMO@Credits?$AA@			; `string'
PUBLIC	??_C@_0BA@JDDFOALM@RepairStopSound?$AA@		; `string'
PUBLIC	??_C@_04MCBDKMCH@Sell?$AA@			; `string'
PUBLIC	??_C@_09BNLBHPKO@SellSound?$AA@			; `string'
PUBLIC	?__LINE__Var@?1??Created@JFW_Infantry_Force_Composition_Zone@@EAEXPAVScriptableGameObj@@@Z@4JA ; `JFW_Infantry_Force_Composition_Zone::Created'::`2'::__LINE__Var
PUBLIC	??_C@_0CN@KOCBONAI@JFW_Infantry_Force_Composition_Z@ ; `string'
PUBLIC	??_C@_0DF@LEPPFHIK@x?3?2github?2renegade?2dragonade_rxd@ ; `string'
PUBLIC	??_C@_1GK@LJECHLJC@?$AAx?$AA?3?$AA?2?$AAg?$AAi?$AAt?$AAh?$AAu?$AAb?$AA?2?$AAr?$AAe?$AAn?$AAe?$AAg?$AAa?$AAd?$AAe?$AA?2?$AAd?$AAr?$AAa?$AAg?$AAo?$AAn?$AAa?$AAd?$AAe?$AA_?$AAr?$AAx?$AAd@ ; `string'
PUBLIC	??_C@_0CC@BALOBPFK@Current?5Enemy?5Infantry?5Strength?3@ ; `string'
PUBLIC	??_C@_09PLKKJOC@ResetTime?$AA@			; `string'
PUBLIC	??_C@_07KNNCJAOA@?$CFs?3?5?$CFu?6?$AA@		; `string'
PUBLIC	?__LINE__Var@?1??Entered@JFW_Infantry_Force_Composition_Zone@@EAEXPAVScriptableGameObj@@0@Z@4JA ; `JFW_Infantry_Force_Composition_Zone::Entered'::`2'::__LINE__Var
PUBLIC	??_C@_0CN@NAFBDKBH@JFW_Infantry_Force_Composition_Z@ ; `string'
PUBLIC	?__LINE__Var@?1???1JFW_Infantry_Force_Composition_Zone@@UAE@XZ@4JA ; `JFW_Infantry_Force_Composition_Zone::~JFW_Infantry_Force_Composition_Zone'::`2'::__LINE__Var
PUBLIC	??_C@_0EK@OPMEFPAP@JFW_Infantry_Force_Composition_Z@ ; `string'
PUBLIC	?__LINE__Var@?1??Created@JFW_Vehicle_Force_Composition_Zone@@EAEXPAVScriptableGameObj@@@Z@4JA ; `JFW_Vehicle_Force_Composition_Zone::Created'::`2'::__LINE__Var
PUBLIC	??_C@_0CM@NADAKGCG@JFW_Vehicle_Force_Composition_Zo@ ; `string'
PUBLIC	??_C@_0CB@LNBCGBDH@Current?5Enemy?5Vehicle?5Strength?3?6@ ; `string'
PUBLIC	?__LINE__Var@?1??Entered@JFW_Vehicle_Force_Composition_Zone@@EAEXPAVScriptableGameObj@@0@Z@4JA ; `JFW_Vehicle_Force_Composition_Zone::Entered'::`2'::__LINE__Var
PUBLIC	??_C@_0CM@KOEAHBDJ@JFW_Vehicle_Force_Composition_Zo@ ; `string'
PUBLIC	?__LINE__Var@?1???1JFW_Vehicle_Force_Composition_Zone@@UAE@XZ@4JA ; `JFW_Vehicle_Force_Composition_Zone::~JFW_Vehicle_Force_Composition_Zone'::`2'::__LINE__Var
PUBLIC	??_C@_0EI@PLKOBKNF@JFW_Vehicle_Force_Composition_Zo@ ; `string'
PUBLIC	?__LINE__Var@?1??Created@JFW_Infantry_Force_Composition_Zone_New@@EAEXPAVScriptableGameObj@@@Z@4JA ; `JFW_Infantry_Force_Composition_Zone_New::Created'::`2'::__LINE__Var
PUBLIC	??_C@_0DB@HMKADCKN@JFW_Infantry_Force_Composition_Z@ ; `string'
PUBLIC	?__LINE__Var@?1??Entered@JFW_Infantry_Force_Composition_Zone_New@@EAEXPAVScriptableGameObj@@0@Z@4JA ; `JFW_Infantry_Force_Composition_Zone_New::Entered'::`2'::__LINE__Var
PUBLIC	??_C@_0DB@CNAOFLC@JFW_Infantry_Force_Composition_Z@ ; `string'
PUBLIC	?__LINE__Var@?1???1JFW_Infantry_Force_Composition_Zone_New@@UAE@XZ@4JA ; `JFW_Infantry_Force_Composition_Zone_New::~JFW_Infantry_Force_Composition_Zone_New'::`2'::__LINE__Var
PUBLIC	??_C@_0FC@FKLGCIAB@JFW_Infantry_Force_Composition_Z@ ; `string'
PUBLIC	?__LINE__Var@?1??Created@JFW_Vehicle_Force_Composition_Zone_New@@EAEXPAVScriptableGameObj@@@Z@4JA ; `JFW_Vehicle_Force_Composition_Zone_New::Created'::`2'::__LINE__Var
PUBLIC	??_C@_0DA@KEOGPHKK@JFW_Vehicle_Force_Composition_Zo@ ; `string'
PUBLIC	?__LINE__Var@?1??Entered@JFW_Vehicle_Force_Composition_Zone_New@@EAEXPAVScriptableGameObj@@0@Z@4JA ; `JFW_Vehicle_Force_Composition_Zone_New::Entered'::`2'::__LINE__Var
PUBLIC	??_C@_0DA@NKJGCALF@JFW_Vehicle_Force_Composition_Zo@ ; `string'
PUBLIC	?__LINE__Var@?1???1JFW_Vehicle_Force_Composition_Zone_New@@UAE@XZ@4JA ; `JFW_Vehicle_Force_Composition_Zone_New::~JFW_Vehicle_Force_Composition_Zone_New'::`2'::__LINE__Var
PUBLIC	??_C@_0FA@MDPFOBIE@JFW_Vehicle_Force_Composition_Zo@ ; `string'
PUBLIC	??_C@_04EBKMHHBE@Size?$AA@			; `string'
PUBLIC	??_C@_07NHGJADIO@ZRotate?$AA@			; `string'
PUBLIC	??_C@_0M@LJJAFHPB@SpawnCustom?$AA@		; `string'
PUBLIC	??_C@_08GCJNLIKG@Position?$AA@			; `string'
PUBLIC	??_C@_0O@FNCALDDE@DestroyCustom?$AA@		; `string'
PUBLIC	??_C@_0BN@DFIOJPDK@Current?5Enemy?5Credits?3?5?$CF?40f?6?$AA@ ; `string'
PUBLIC	??_C@_0L@JFPEKBDK@Power_Time?$AA@		; `string'
PUBLIC	??_C@_06MBGJLGCG@Sound2?$AA@			; `string'
PUBLIC	??_C@_0L@OEIGOMAE@Reset_Time?$AA@		; `string'
PUBLIC	??_C@_0BK@GPCMCCPB@dp88_RemoteControlVehicle?$AA@ ; `string'
PUBLIC	??_C@_0P@JMLOMBPP@RA_DriverDeath?$AA@		; `string'
PUBLIC	??_C@_0CA@CFJNLDHD@JFW_Destroy_Vehicle_Zone_Marker?$AA@ ; `string'
PUBLIC	??_C@_05PGGAFPFO@Death?$AA@			; `string'
PUBLIC	??_7?$ScriptRegistrant@VJFW_Look_At_Location_Entry@@@@6B@ ; ScriptRegistrant<JFW_Look_At_Location_Entry>::`vftable'
PUBLIC	?JFW_Look_At_Location_Entry_Registrant@@3V?$ScriptRegistrant@VJFW_Look_At_Location_Entry@@@@A ; JFW_Look_At_Location_Entry_Registrant
PUBLIC	??_C@_0CB@HIHCLAHG@Player_Type?3int?0Location?3vector3@ ; `string'
PUBLIC	??_C@_0BL@BFLPICPA@JFW_Look_At_Location_Entry?$AA@ ; `string'
PUBLIC	??_7?$ScriptRegistrant@VJFW_Look_At_Object_Entry@@@@6B@ ; ScriptRegistrant<JFW_Look_At_Object_Entry>::`vftable'
PUBLIC	?JFW_Look_At_Object_Entry_Registrant@@3V?$ScriptRegistrant@VJFW_Look_At_Object_Entry@@@@A ; JFW_Look_At_Object_Entry_Registrant
PUBLIC	??_C@_0BN@GPEAFKMK@Player_Type?3int?0ObjectID?3int?$AA@ ; `string'
PUBLIC	??_C@_0BJ@GOPLAJKA@JFW_Look_At_Object_Entry?$AA@ ; `string'
PUBLIC	??_7?$ScriptRegistrant@VJFW_Zone_PCT@@@@6B@	; ScriptRegistrant<JFW_Zone_PCT>::`vftable'
PUBLIC	?JFW_Zone_PCT_Registrant@@3V?$ScriptRegistrant@VJFW_Zone_PCT@@@@A ; JFW_Zone_PCT_Registrant
PUBLIC	??_C@_0BA@CCJADDGA@Player_Type?3int?$AA@	; `string'
PUBLIC	??_C@_0N@BNPGFFN@JFW_Zone_PCT?$AA@		; `string'
PUBLIC	??_7?$ScriptRegistrant@VJFW_3D_Sound_Team_Zone@@@@6B@ ; ScriptRegistrant<JFW_3D_Sound_Team_Zone>::`vftable'
PUBLIC	?JFW_3D_Sound_Team_Zone_Registrant@@3V?$ScriptRegistrant@VJFW_3D_Sound_Team_Zone@@@@A ; JFW_3D_Sound_Team_Zone_Registrant
PUBLIC	??_C@_0BN@EDMPJNEC@Player_Type?3int?0Sound?3string?$AA@ ; `string'
PUBLIC	??_C@_0BH@ECFMDJGO@JFW_3D_Sound_Team_Zone?$AA@	; `string'
PUBLIC	??_7?$ScriptRegistrant@VJFW_3D_Sound_Player_Zone@@@@6B@ ; ScriptRegistrant<JFW_3D_Sound_Player_Zone>::`vftable'
PUBLIC	?JFW_3D_Sound_Player_Zone_Registrant@@3V?$ScriptRegistrant@VJFW_3D_Sound_Player_Zone@@@@A ; JFW_3D_Sound_Player_Zone_Registrant
PUBLIC	??_C@_0BJ@KAOGCCPD@JFW_3D_Sound_Player_Zone?$AA@ ; `string'
PUBLIC	??_7?$ScriptRegistrant@VJFW_2D_Sound_Team_Zone@@@@6B@ ; ScriptRegistrant<JFW_2D_Sound_Team_Zone>::`vftable'
PUBLIC	?JFW_2D_Sound_Team_Zone_Registrant@@3V?$ScriptRegistrant@VJFW_2D_Sound_Team_Zone@@@@A ; JFW_2D_Sound_Team_Zone_Registrant
PUBLIC	??_C@_0BH@JFLOLJDG@JFW_2D_Sound_Team_Zone?$AA@	; `string'
PUBLIC	??_7?$ScriptRegistrant@VJFW_2D_Sound_Player_Zone@@@@6B@ ; ScriptRegistrant<JFW_2D_Sound_Player_Zone>::`vftable'
PUBLIC	?JFW_2D_Sound_Player_Zone_Registrant@@3V?$ScriptRegistrant@VJFW_2D_Sound_Player_Zone@@@@A ; JFW_2D_Sound_Player_Zone_Registrant
PUBLIC	??_C@_0BJ@DPDMKBGN@JFW_2D_Sound_Player_Zone?$AA@ ; `string'
PUBLIC	??_7?$ScriptRegistrant@VJFW_Disable_Radar_Zone@@@@6B@ ; ScriptRegistrant<JFW_Disable_Radar_Zone>::`vftable'
PUBLIC	?JFW_Disable_Radar_Zone_Registrant@@3V?$ScriptRegistrant@VJFW_Disable_Radar_Zone@@@@A ; JFW_Disable_Radar_Zone_Registrant
PUBLIC	??_C@_0BH@GGHJDOHF@JFW_Disable_Radar_Zone?$AA@	; `string'
PUBLIC	??_7?$ScriptRegistrant@VJFW_Zone_Send_Custom_Multiple@@@@6B@ ; ScriptRegistrant<JFW_Zone_Send_Custom_Multiple>::`vftable'
PUBLIC	?JFW_Zone_Send_Custom_Multiple_Registrant@@3V?$ScriptRegistrant@VJFW_Zone_Send_Custom_Multiple@@@@A ; JFW_Zone_Send_Custom_Multiple_Registrant
PUBLIC	??_C@_0CN@PHNKOPHC@Player_Type?3int?0ID?3int?0Message?3i@ ; `string'
PUBLIC	??_C@_0BO@DJOJKJPB@JFW_Zone_Send_Custom_Multiple?$AA@ ; `string'
PUBLIC	??_7?$ScriptRegistrant@VJFW_Zone_Send_Custom_Enter@@@@6B@ ; ScriptRegistrant<JFW_Zone_Send_Custom_Enter>::`vftable'
PUBLIC	?JFW_Zone_Send_Custom_Enter_Registrant@@3V?$ScriptRegistrant@VJFW_Zone_Send_Custom_Enter@@@@A ; JFW_Zone_Send_Custom_Enter_Registrant
PUBLIC	??_C@_0BM@CIGBNCOJ@Player_Type?3int?0Message?3int?$AA@ ; `string'
PUBLIC	??_C@_0BL@EEFGFADF@JFW_Zone_Send_Custom_Enter?$AA@ ; `string'
PUBLIC	??_7?$ScriptRegistrant@VJFW_Zone_Send_Custom_Exit@@@@6B@ ; ScriptRegistrant<JFW_Zone_Send_Custom_Exit>::`vftable'
PUBLIC	?JFW_Zone_Send_Custom_Exit_Registrant@@3V?$ScriptRegistrant@VJFW_Zone_Send_Custom_Exit@@@@A ; JFW_Zone_Send_Custom_Exit_Registrant
PUBLIC	??_C@_0BK@NOCDENAM@JFW_Zone_Send_Custom_Exit?$AA@ ; `string'
PUBLIC	??_7?$ScriptRegistrant@VJFW_Vehicle_Zone_Animation@@@@6B@ ; ScriptRegistrant<JFW_Vehicle_Zone_Animation>::`vftable'
PUBLIC	?JFW_Vehicle_Zone_Animation_Registrant@@3V?$ScriptRegistrant@VJFW_Vehicle_Zone_Animation@@@@A ; JFW_Vehicle_Zone_Animation_Registrant
PUBLIC	??_C@_0BBI@INAJADDN@Animation?3string?0Subobject?3strin@ ; `string'
PUBLIC	??_C@_0BL@NKGJPCGF@JFW_Vehicle_Zone_Animation?$AA@ ; `string'
PUBLIC	??_7?$ScriptRegistrant@VJFW_Zone_Money_Preset@@@@6B@ ; ScriptRegistrant<JFW_Zone_Money_Preset>::`vftable'
PUBLIC	?JFW_Zone_Money_Preset_Registrant@@3V?$ScriptRegistrant@VJFW_Zone_Money_Preset@@@@A ; JFW_Zone_Money_Preset_Registrant
PUBLIC	??_C@_0DB@GFJFDALA@Preset?3string?0Money?3float?0Player@ ; `string'
PUBLIC	??_C@_0BG@GPELHGJ@JFW_Zone_Money_Preset?$AA@	; `string'
PUBLIC	??_7?$ScriptRegistrant@VJFW_Fog_Zone@@@@6B@	; ScriptRegistrant<JFW_Fog_Zone>::`vftable'
PUBLIC	?JFW_Fog_Zone_Registrant@@3V?$ScriptRegistrant@VJFW_Fog_Zone@@@@A ; JFW_Fog_Zone_Registrant
PUBLIC	??_C@_0HI@NNKNDGPB@Fog_Enable?3int?0Fog_Start_Distanc@ ; `string'
PUBLIC	??_C@_0N@ONDCAAKG@JFW_Fog_Zone?$AA@		; `string'
PUBLIC	??_7?$ScriptRegistrant@VJFW_War_Blitz_Zone@@@@6B@ ; ScriptRegistrant<JFW_War_Blitz_Zone>::`vftable'
PUBLIC	?JFW_War_Blitz_Zone_Registrant@@3V?$ScriptRegistrant@VJFW_War_Blitz_Zone@@@@A ; JFW_War_Blitz_Zone_Registrant
PUBLIC	??_C@_0MC@PCHMAFGO@War_Blitz_Intensity?$DN0?4000?3float?0@ ; `string'
PUBLIC	??_C@_0BD@HOOADLIF@JFW_War_Blitz_Zone?$AA@	; `string'
PUBLIC	??_7?$ScriptRegistrant@VJFW_Create_Destroy_Object_On_Enter@@@@6B@ ; ScriptRegistrant<JFW_Create_Destroy_Object_On_Enter>::`vftable'
PUBLIC	?JFW_Create_Destroy_Object_On_Enter_Registrant@@3V?$ScriptRegistrant@VJFW_Create_Destroy_Object_On_Enter@@@@A ; JFW_Create_Destroy_Object_On_Enter_Registrant
PUBLIC	??_C@_0DM@CJMENEOB@Location?3vector3?0Facing?3float?0Pr@ ; `string'
PUBLIC	??_C@_0CD@MFJNLACE@JFW_Create_Destroy_Object_On_Ent@ ; `string'
PUBLIC	??_7?$ScriptRegistrant@VJFW_Apply_Damage_On_Enter_Timer@@@@6B@ ; ScriptRegistrant<JFW_Apply_Damage_On_Enter_Timer>::`vftable'
PUBLIC	?JFW_Apply_Damage_On_Enter_Timer_Registrant@@3V?$ScriptRegistrant@VJFW_Apply_Damage_On_Enter_Timer@@@@A ; JFW_Apply_Damage_On_Enter_Timer_Registrant
PUBLIC	??_C@_0EG@LAPOCDMH@Warhead?3string?0Damage?3float?0Time@ ; `string'
PUBLIC	??_C@_0CA@BJGFGEBP@JFW_Apply_Damage_On_Enter_Timer?$AA@ ; `string'
PUBLIC	??_7?$ScriptRegistrant@VJFW_Blow_Up_On_Enter_Random@@@@6B@ ; ScriptRegistrant<JFW_Blow_Up_On_Enter_Random>::`vftable'
PUBLIC	?JFW_Blow_Up_On_Enter_Random_Registrant@@3V?$ScriptRegistrant@VJFW_Blow_Up_On_Enter_Random@@@@A ; JFW_Blow_Up_On_Enter_Random_Registrant
PUBLIC	??_C@_0CB@ECODMAP@Explosion?3string?0Probobility?3int@ ; `string'
PUBLIC	??_C@_0BM@FMKJIPEC@JFW_Blow_Up_On_Enter_Random?$AA@ ; `string'
PUBLIC	??_7?$ScriptRegistrant@VJFW_Blow_Up_On_Enter@@@@6B@ ; ScriptRegistrant<JFW_Blow_Up_On_Enter>::`vftable'
PUBLIC	?JFW_Blow_Up_On_Enter_Registrant@@3V?$ScriptRegistrant@VJFW_Blow_Up_On_Enter@@@@A ; JFW_Blow_Up_On_Enter_Registrant
PUBLIC	??_C@_0BB@ICINEEGF@Explosion?3string?$AA@	; `string'
PUBLIC	??_C@_0BF@CBMIHCFL@JFW_Blow_Up_On_Enter?$AA@	; `string'
PUBLIC	??_7?$ScriptRegistrant@VJFW_Apply_Damage_On_Enter@@@@6B@ ; ScriptRegistrant<JFW_Apply_Damage_On_Enter>::`vftable'
PUBLIC	?JFW_Apply_Damage_On_Enter_Registrant@@3V?$ScriptRegistrant@VJFW_Apply_Damage_On_Enter@@@@A ; JFW_Apply_Damage_On_Enter_Registrant
PUBLIC	??_C@_0BM@CNPPICOM@Warhead?3string?0Damage?3float?$AA@ ; `string'
PUBLIC	??_C@_0BK@BBAPMEFA@JFW_Apply_Damage_On_Enter?$AA@ ; `string'
PUBLIC	??_7?$ScriptRegistrant@VJFW_Zone_Character@@@@6B@ ; ScriptRegistrant<JFW_Zone_Character>::`vftable'
PUBLIC	?JFW_Zone_Character_Registrant@@3V?$ScriptRegistrant@VJFW_Zone_Character@@@@A ; JFW_Zone_Character_Registrant
PUBLIC	??_C@_0CD@HMPECPGE@Preset_Name?3string?0Player_Type?3i@ ; `string'
PUBLIC	??_C@_0BD@EOKCGOHE@JFW_Zone_Character?$AA@	; `string'
PUBLIC	??_7?$ScriptRegistrant@VJFW_Zone_Character_Swap@@@@6B@ ; ScriptRegistrant<JFW_Zone_Character_Swap>::`vftable'
PUBLIC	?JFW_Zone_Character_Swap_Registrant@@3V?$ScriptRegistrant@VJFW_Zone_Character_Swap@@@@A ; JFW_Zone_Character_Swap_Registrant
PUBLIC	??_C@_0DK@BOOOPAC@Preset_Name?3string?0Old_Preset_Na@ ; `string'
PUBLIC	??_C@_0BI@HBAEGCEH@JFW_Zone_Character_Swap?$AA@	; `string'
PUBLIC	??_7?$ScriptRegistrant@VJFW_Heavy_Vehicle_Damage_Zone@@@@6B@ ; ScriptRegistrant<JFW_Heavy_Vehicle_Damage_Zone>::`vftable'
PUBLIC	?JFW_Heavy_Vehicle_Damage_Zone_Registrant@@3V?$ScriptRegistrant@VJFW_Heavy_Vehicle_Damage_Zone@@@@A ; JFW_Heavy_Vehicle_Damage_Zone_Registrant
PUBLIC	??_C@_0FB@JOHGPNJE@Warhead?3string?0Damage?3float?0Time@ ; `string'
PUBLIC	??_C@_0BO@LBKAFMKE@JFW_Heavy_Vehicle_Damage_Zone?$AA@ ; `string'
PUBLIC	??_7?$ScriptRegistrant@VJFW_Light_Vehicle_Damage_Zone@@@@6B@ ; ScriptRegistrant<JFW_Light_Vehicle_Damage_Zone>::`vftable'
PUBLIC	?JFW_Light_Vehicle_Damage_Zone_Registrant@@3V?$ScriptRegistrant@VJFW_Light_Vehicle_Damage_Zone@@@@A ; JFW_Light_Vehicle_Damage_Zone_Registrant
PUBLIC	??_C@_0BO@OCHECHLG@JFW_Light_Vehicle_Damage_Zone?$AA@ ; `string'
PUBLIC	??_7?$ScriptRegistrant@VJFW_2D_Sound_Zone@@@@6B@ ; ScriptRegistrant<JFW_2D_Sound_Zone>::`vftable'
PUBLIC	?JFW_2D_Sound_Zone_Registrant@@3V?$ScriptRegistrant@VJFW_2D_Sound_Zone@@@@A ; JFW_2D_Sound_Zone_Registrant
PUBLIC	??_C@_0BC@CLKNLFKO@JFW_2D_Sound_Zone?$AA@	; `string'
PUBLIC	??_7?$ScriptRegistrant@VJFW_Stealth_Zone@@@@6B@	; ScriptRegistrant<JFW_Stealth_Zone>::`vftable'
PUBLIC	?JFW_Stealth_Zone_Registrant@@3V?$ScriptRegistrant@VJFW_Stealth_Zone@@@@A ; JFW_Stealth_Zone_Registrant
PUBLIC	??_C@_0FA@HAMOMBKA@Player_Type?3int?0Stealth1?3string?0@ ; `string'
PUBLIC	??_C@_0BB@FANBBHDP@JFW_Stealth_Zone?$AA@	; `string'
PUBLIC	??_7?$ScriptRegistrant@VJFW_Teleport_Zone_Team@@@@6B@ ; ScriptRegistrant<JFW_Teleport_Zone_Team>::`vftable'
PUBLIC	?JFW_Teleport_Zone_Team_Registrant@@3V?$ScriptRegistrant@VJFW_Teleport_Zone_Team@@@@A ; JFW_Teleport_Zone_Team_Registrant
PUBLIC	??_C@_0DB@OICNKOFD@Location?3vector3?0Object_ID?$DN0?3int@ ; `string'
PUBLIC	??_C@_0BH@ONPBMHOC@JFW_Teleport_Zone_Team?$AA@	; `string'
PUBLIC	??_7?$ScriptRegistrant@VJFW_Character_Buy@@@@6B@ ; ScriptRegistrant<JFW_Character_Buy>::`vftable'
PUBLIC	?JFW_Character_Buy_Registrant@@3V?$ScriptRegistrant@VJFW_Character_Buy@@@@A ; JFW_Character_Buy_Registrant
PUBLIC	??_C@_0CM@CGKJFFAK@Preset_Name?3string?0Cost?3int?0Play@ ; `string'
PUBLIC	??_C@_0BC@JCJCHCDG@JFW_Character_Buy?$AA@	; `string'
PUBLIC	??_7?$ScriptRegistrant@VJFW_Preset_Buy@@@@6B@	; ScriptRegistrant<JFW_Preset_Buy>::`vftable'
PUBLIC	?JFW_Preset_Buy_Registrant@@3V?$ScriptRegistrant@VJFW_Preset_Buy@@@@A ; JFW_Preset_Buy_Registrant
PUBLIC	??_C@_0DN@BCMGBNDF@Preset_Name?3string?0Cost?3int?0loca@ ; `string'
PUBLIC	??_C@_0P@NGDIOEEE@JFW_Preset_Buy?$AA@		; `string'
PUBLIC	??_7?$ScriptRegistrant@VJFW_Weapon_Buy@@@@6B@	; ScriptRegistrant<JFW_Weapon_Buy>::`vftable'
PUBLIC	?JFW_Weapon_Buy_Registrant@@3V?$ScriptRegistrant@VJFW_Weapon_Buy@@@@A ; JFW_Weapon_Buy_Registrant
PUBLIC	??_C@_0CM@BGKKKCJE@Weapon_Name?3string?0Cost?3int?0Play@ ; `string'
PUBLIC	??_C@_0P@OPCPEDAK@JFW_Weapon_Buy?$AA@		; `string'
PUBLIC	??_7?$ScriptRegistrant@VJFW_3D_Sound_Zone@@@@6B@ ; ScriptRegistrant<JFW_3D_Sound_Zone>::`vftable'
PUBLIC	?JFW_3D_Sound_Zone_Registrant@@3V?$ScriptRegistrant@VJFW_3D_Sound_Zone@@@@A ; JFW_3D_Sound_Zone_Registrant
PUBLIC	??_C@_0BC@LGKCFENI@JFW_3D_Sound_Zone?$AA@	; `string'
PUBLIC	??_7?$ScriptRegistrant@VJFW_Bounce_Zone_Entry@@@@6B@ ; ScriptRegistrant<JFW_Bounce_Zone_Entry>::`vftable'
PUBLIC	?JFW_Bounce_Zone_Entry_Registrant@@3V?$ScriptRegistrant@VJFW_Bounce_Zone_Entry@@@@A ; JFW_Bounce_Zone_Entry_Registrant
PUBLIC	??_C@_0BN@EOAEEPPH@Player_Type?3int?0Amount?3float?$AA@ ; `string'
PUBLIC	??_C@_0BG@NLLDMABD@JFW_Bounce_Zone_Entry?$AA@	; `string'
PUBLIC	??_7?$ScriptRegistrant@VJFW_Grant_Key_Zone_Entry@@@@6B@ ; ScriptRegistrant<JFW_Grant_Key_Zone_Entry>::`vftable'
PUBLIC	?JFW_Grant_Key_Zone_Entry_Registrant@@3V?$ScriptRegistrant@VJFW_Grant_Key_Zone_Entry@@@@A ; JFW_Grant_Key_Zone_Entry_Registrant
PUBLIC	??_C@_0BI@KODDKHGC@Player_Type?3int?0Key?3int?$AA@ ; `string'
PUBLIC	??_C@_0BJ@PJEJECFF@JFW_Grant_Key_Zone_Entry?$AA@ ; `string'
PUBLIC	??_7?$ScriptRegistrant@VJFW_Zone_Send_Custom_Enable@@@@6B@ ; ScriptRegistrant<JFW_Zone_Send_Custom_Enable>::`vftable'
PUBLIC	?JFW_Zone_Send_Custom_Enable_Registrant@@3V?$ScriptRegistrant@VJFW_Zone_Send_Custom_Enable@@@@A ; JFW_Zone_Send_Custom_Enable_Registrant
PUBLIC	??_C@_0HM@MIJCGBNA@ID?3int?0EnterMessage?3int?0EnterPar@ ; `string'
PUBLIC	??_C@_0BM@GNBCKDKA@JFW_Zone_Send_Custom_Enable?$AA@ ; `string'
PUBLIC	??_7?$ScriptRegistrant@VJFW_Zone_Send_Custom_Preset@@@@6B@ ; ScriptRegistrant<JFW_Zone_Send_Custom_Preset>::`vftable'
PUBLIC	?JFW_Zone_Send_Custom_Preset_Registrant@@3V?$ScriptRegistrant@VJFW_Zone_Send_Custom_Preset@@@@A ; JFW_Zone_Send_Custom_Preset_Registrant
PUBLIC	??_C@_0GI@KNGAIGOC@ID?3int?0EnterMessage?3int?0EnterPar@ ; `string'
PUBLIC	??_C@_0BM@GNMNFMIM@JFW_Zone_Send_Custom_Preset?$AA@ ; `string'
PUBLIC	??_7?$ScriptRegistrant@VJFW_Zone_Send_Custom_Enable_Enter@@@@6B@ ; ScriptRegistrant<JFW_Zone_Send_Custom_Enable_Enter>::`vftable'
PUBLIC	?JFW_Zone_Send_Custom_Enable_Enter_Registrant@@3V?$ScriptRegistrant@VJFW_Zone_Send_Custom_Enable_Enter@@@@A ; JFW_Zone_Send_Custom_Enable_Enter_Registrant
PUBLIC	??_C@_0HF@NHNMEBIL@EnterMessage?3int?0EnterParam?3int?0@ ; `string'
PUBLIC	??_C@_0CC@IPMGNNBG@JFW_Zone_Send_Custom_Enable_Ente@ ; `string'
PUBLIC	??_7?$ScriptRegistrant@VJFW_Zone_Send_Custom_Preset_Enter@@@@6B@ ; ScriptRegistrant<JFW_Zone_Send_Custom_Preset_Enter>::`vftable'
PUBLIC	?JFW_Zone_Send_Custom_Preset_Enter_Registrant@@3V?$ScriptRegistrant@VJFW_Zone_Send_Custom_Preset_Enter@@@@A ; JFW_Zone_Send_Custom_Preset_Enter_Registrant
PUBLIC	??_C@_0GB@HMHFNNPP@EnterMessage?3int?0EnterParam?3int?0@ ; `string'
PUBLIC	??_C@_0CC@ELPLHGBI@JFW_Zone_Send_Custom_Preset_Ente@ ; `string'
PUBLIC	??_7?$ScriptRegistrant@VJFW_Send_Custom_Zone_Enter@@@@6B@ ; ScriptRegistrant<JFW_Send_Custom_Zone_Enter>::`vftable'
PUBLIC	?JFW_Send_Custom_Zone_Enter_Registrant@@3V?$ScriptRegistrant@VJFW_Send_Custom_Zone_Enter@@@@A ; JFW_Send_Custom_Zone_Enter_Registrant
PUBLIC	??_C@_0EK@JFFOFAKB@EnterMessage?3int?0EnterParam?3int?0@ ; `string'
PUBLIC	??_C@_0BL@EJFMPPDP@JFW_Send_Custom_Zone_Enter?$AA@ ; `string'
PUBLIC	??_7?$ScriptRegistrant@VJFW_Gate_Zone@@@@6B@	; ScriptRegistrant<JFW_Gate_Zone>::`vftable'
PUBLIC	?JFW_Gate_Zone_Registrant@@3V?$ScriptRegistrant@VJFW_Gate_Zone@@@@A ; JFW_Gate_Zone_Registrant
PUBLIC	??_C@_0EA@DOFBOHEG@Player_Type?3int?0Time?3float?0Timer@ ; `string'
PUBLIC	??_C@_0O@HDBAPJIG@JFW_Gate_Zone?$AA@		; `string'
PUBLIC	??_7?$ScriptRegistrant@VJFW_Repair_Zone@@@@6B@	; ScriptRegistrant<JFW_Repair_Zone>::`vftable'
PUBLIC	?JFW_Repair_Zone_Registrant@@3V?$ScriptRegistrant@VJFW_Repair_Zone@@@@A ; JFW_Repair_Zone_Registrant
PUBLIC	??_C@_0DK@KGLAPCKA@Player_Type?3int?0Repair_Distance?3@ ; `string'
PUBLIC	??_C@_0BA@DIILDDL@JFW_Repair_Zone?$AA@		; `string'
PUBLIC	??_7?$ScriptRegistrant@VJFW_Repair_Zone_Aircraft_Only@@@@6B@ ; ScriptRegistrant<JFW_Repair_Zone_Aircraft_Only>::`vftable'
PUBLIC	?JFW_Repair_Zone_Aircraft_Only_Registrant@@3V?$ScriptRegistrant@VJFW_Repair_Zone_Aircraft_Only@@@@A ; JFW_Repair_Zone_Aircraft_Only_Registrant
PUBLIC	??_C@_0LC@LOCENFEF@Player_Type?3int?0Repair_Distance?3@ ; `string'
PUBLIC	??_C@_0BO@HLCNDCEL@JFW_Repair_Zone_Aircraft_Only?$AA@ ; `string'
PUBLIC	??_7?$ScriptRegistrant@VJFW_Repair_Zone_No_Aircraft@@@@6B@ ; ScriptRegistrant<JFW_Repair_Zone_No_Aircraft>::`vftable'
PUBLIC	?JFW_Repair_Zone_No_Aircraft_Registrant@@3V?$ScriptRegistrant@VJFW_Repair_Zone_No_Aircraft@@@@A ; JFW_Repair_Zone_No_Aircraft_Registrant
PUBLIC	??_C@_0LD@JDIMLFGI@Player_Type?3int?0Repair_Distance?3@ ; `string'
PUBLIC	??_C@_0BM@OHENPOKC@JFW_Repair_Zone_No_Aircraft?$AA@ ; `string'
PUBLIC	??_7?$ScriptRegistrant@VJFW_Zone_Send_Custom_Not_Preset@@@@6B@ ; ScriptRegistrant<JFW_Zone_Send_Custom_Not_Preset>::`vftable'
PUBLIC	?JFW_Zone_Send_Custom_Not_Preset_Registrant@@3V?$ScriptRegistrant@VJFW_Zone_Send_Custom_Not_Preset@@@@A ; JFW_Zone_Send_Custom_Not_Preset_Registrant
PUBLIC	??_C@_0CA@LFNJIFJB@JFW_Zone_Send_Custom_Not_Preset?$AA@ ; `string'
PUBLIC	??_7?$ScriptRegistrant@VJFW_Zone_Send_Custom_Keycard@@@@6B@ ; ScriptRegistrant<JFW_Zone_Send_Custom_Keycard>::`vftable'
PUBLIC	?JFW_Zone_Send_Custom_Keycard_Registrant@@3V?$ScriptRegistrant@VJFW_Zone_Send_Custom_Keycard@@@@A ; JFW_Zone_Send_Custom_Keycard_Registrant
PUBLIC	??_C@_0GI@HNLIIKFF@ID?3int?0EnterMessage?3int?0EnterPar@ ; `string'
PUBLIC	??_C@_0BN@PJEBJNEO@JFW_Zone_Send_Custom_Keycard?$AA@ ; `string'
PUBLIC	??_7?$ScriptRegistrant@VJFW_Heal_Zone@@@@6B@	; ScriptRegistrant<JFW_Heal_Zone>::`vftable'
PUBLIC	?JFW_Heal_Zone_Registrant@@3V?$ScriptRegistrant@VJFW_Heal_Zone@@@@A ; JFW_Heal_Zone_Registrant
PUBLIC	??_C@_0DG@INKHMCBJ@Player_Type?3int?0Heal_Distance?3fl@ ; `string'
PUBLIC	??_C@_0O@HODEIJJL@JFW_Heal_Zone?$AA@		; `string'
PUBLIC	??_7?$ScriptRegistrant@VJFW_Heal_Zone_2@@@@6B@	; ScriptRegistrant<JFW_Heal_Zone_2>::`vftable'
PUBLIC	?JFW_Heal_Zone_2_Registrant@@3V?$ScriptRegistrant@VJFW_Heal_Zone_2@@@@A ; JFW_Heal_Zone_2_Registrant
PUBLIC	??_C@_0EJ@DFHCBBNG@Player_Type?3int?0Heal_Distance?3fl@ ; `string'
PUBLIC	??_C@_0BA@IMEBCLJN@JFW_Heal_Zone_2?$AA@		; `string'
PUBLIC	??_7?$ScriptRegistrant@VJFW_Disable_Transitions_Zone@@@@6B@ ; ScriptRegistrant<JFW_Disable_Transitions_Zone>::`vftable'
PUBLIC	?JFW_Disable_Transitions_Zone_Registrant@@3V?$ScriptRegistrant@VJFW_Disable_Transitions_Zone@@@@A ; JFW_Disable_Transitions_Zone_Registrant
PUBLIC	??_C@_00CNPNBAHC@?$AA@				; `string'
PUBLIC	??_C@_0BN@MMEBFKIJ@JFW_Disable_Transitions_Zone?$AA@ ; `string'
PUBLIC	??_7?$ScriptRegistrant@VJFW_Bounce_Zone_Entry_All_Directions@@@@6B@ ; ScriptRegistrant<JFW_Bounce_Zone_Entry_All_Directions>::`vftable'
PUBLIC	?JFW_Bounce_Zone_Entry_All_Directions_Registrant@@3V?$ScriptRegistrant@VJFW_Bounce_Zone_Entry_All_Directions@@@@A ; JFW_Bounce_Zone_Entry_All_Directions_Registrant
PUBLIC	??_C@_0CL@DFNPFGFN@Player_Type?3int?0ZAmount?3float?0Am@ ; `string'
PUBLIC	??_C@_0CF@HPPDEIKE@JFW_Bounce_Zone_Entry_All_Direct@ ; `string'
PUBLIC	??_7?$ScriptRegistrant@VJFW_Zone_Send_Custom_Cost@@@@6B@ ; ScriptRegistrant<JFW_Zone_Send_Custom_Cost>::`vftable'
PUBLIC	?JFW_Zone_Send_Custom_Cost_Registrant@@3V?$ScriptRegistrant@VJFW_Zone_Send_Custom_Cost@@@@A ; JFW_Zone_Send_Custom_Cost_Registrant
PUBLIC	??_C@_0DG@CNMPPNDH@ID?3int?0Message?3int?0Param?3int?0Pla@ ; `string'
PUBLIC	??_C@_0BK@INBMPBCM@JFW_Zone_Send_Custom_Cost?$AA@ ; `string'
PUBLIC	??_7?$ScriptRegistrant@VJFW_Vechicle_Damage_Zone@@@@6B@ ; ScriptRegistrant<JFW_Vechicle_Damage_Zone>::`vftable'
PUBLIC	?JFW_Vechicle_Damage_Zone_Registrant@@3V?$ScriptRegistrant@VJFW_Vechicle_Damage_Zone@@@@A ; JFW_Vechicle_Damage_Zone_Registrant
PUBLIC	??_C@_0BJ@GELDOCEG@JFW_Vechicle_Damage_Zone?$AA@ ; `string'
PUBLIC	??_7?$ScriptRegistrant@VJFW_Refill_Buy@@@@6B@	; ScriptRegistrant<JFW_Refill_Buy>::`vftable'
PUBLIC	?JFW_Refill_Buy_Registrant@@3V?$ScriptRegistrant@VJFW_Refill_Buy@@@@A ; JFW_Refill_Buy_Registrant
PUBLIC	??_C@_0BJ@BJCMCBBD@Cost?3int?0Player_Type?3int?$AA@ ; `string'
PUBLIC	??_C@_0P@OFMNBDBH@JFW_Refill_Buy?$AA@		; `string'
PUBLIC	??_7?$ScriptRegistrant@VJFW_Vehicle_Buy@@@@6B@	; ScriptRegistrant<JFW_Vehicle_Buy>::`vftable'
PUBLIC	?JFW_Vehicle_Buy_Registrant@@3V?$ScriptRegistrant@VJFW_Vehicle_Buy@@@@A ; JFW_Vehicle_Buy_Registrant
PUBLIC	??_C@_0BA@OAFDNNIP@JFW_Vehicle_Buy?$AA@		; `string'
PUBLIC	??_7?$ScriptRegistrant@VJFW_Powerup_Buy@@@@6B@	; ScriptRegistrant<JFW_Powerup_Buy>::`vftable'
PUBLIC	?JFW_Powerup_Buy_Registrant@@3V?$ScriptRegistrant@VJFW_Powerup_Buy@@@@A ; JFW_Powerup_Buy_Registrant
PUBLIC	??_C@_0BA@MMBMHCBK@JFW_Powerup_Buy?$AA@		; `string'
PUBLIC	??_7?$ScriptRegistrant@VJFW_Repair_Zone_No_VTOL@@@@6B@ ; ScriptRegistrant<JFW_Repair_Zone_No_VTOL>::`vftable'
PUBLIC	?JFW_Repair_Zone_No_VTOL_Registrant@@3V?$ScriptRegistrant@VJFW_Repair_Zone_No_VTOL@@@@A ; JFW_Repair_Zone_No_VTOL_Registrant
PUBLIC	??_C@_0BI@LJJFEGEP@JFW_Repair_Zone_No_VTOL?$AA@	; `string'
PUBLIC	??_7?$ScriptRegistrant@VJFW_Repair_Zone_VTOL_Only@@@@6B@ ; ScriptRegistrant<JFW_Repair_Zone_VTOL_Only>::`vftable'
PUBLIC	?JFW_Repair_Zone_VTOL_Only_Registrant@@3V?$ScriptRegistrant@VJFW_Repair_Zone_VTOL_Only@@@@A ; JFW_Repair_Zone_VTOL_Only_Registrant
PUBLIC	??_C@_0BK@BAJKAEMP@JFW_Repair_Zone_VTOL_Only?$AA@ ; `string'
PUBLIC	??_7?$ScriptRegistrant@VJFW_Zone_Vehicle@@@@6B@	; ScriptRegistrant<JFW_Zone_Vehicle>::`vftable'
PUBLIC	?JFW_Zone_Vehicle_Registrant@@3V?$ScriptRegistrant@VJFW_Zone_Vehicle@@@@A ; JFW_Zone_Vehicle_Registrant
PUBLIC	??_C@_0BB@PLJABFHC@JFW_Zone_Vehicle?$AA@	; `string'
PUBLIC	??_7?$ScriptRegistrant@VJFW_Zone_Powerup@@@@6B@	; ScriptRegistrant<JFW_Zone_Powerup>::`vftable'
PUBLIC	?JFW_Zone_Powerup_Registrant@@3V?$ScriptRegistrant@VJFW_Zone_Powerup@@@@A ; JFW_Zone_Powerup_Registrant
PUBLIC	??_C@_0BB@GCBIFAOF@JFW_Zone_Powerup?$AA@	; `string'
PUBLIC	??_7?$ScriptRegistrant@VJFW_Zone_Refill@@@@6B@	; ScriptRegistrant<JFW_Zone_Refill>::`vftable'
PUBLIC	?JFW_Zone_Refill_Registrant@@3V?$ScriptRegistrant@VJFW_Zone_Refill@@@@A ; JFW_Zone_Refill_Registrant
PUBLIC	??_C@_0BA@DJKCFPMH@JFW_Zone_Refill?$AA@		; `string'
PUBLIC	??_7?$ScriptRegistrant@VJFW_Zone_Send_Custom_Team@@@@6B@ ; ScriptRegistrant<JFW_Zone_Send_Custom_Team>::`vftable'
PUBLIC	?JFW_Zone_Send_Custom_Team_Registrant@@3V?$ScriptRegistrant@VJFW_Zone_Send_Custom_Team@@@@A ; JFW_Zone_Send_Custom_Team_Registrant
PUBLIC	??_C@_0KI@NFLOJPEH@GDIID?3int?0GDIEnterMessage?3int?0GD@ ; `string'
PUBLIC	??_C@_0BK@LEMDIENM@JFW_Zone_Send_Custom_Team?$AA@ ; `string'
PUBLIC	??_7?$ScriptRegistrant@VJFW_Zone_Animation@@@@6B@ ; ScriptRegistrant<JFW_Zone_Animation>::`vftable'
PUBLIC	?JFW_Zone_Animation_Registrant@@3V?$ScriptRegistrant@VJFW_Zone_Animation@@@@A ; JFW_Zone_Animation_Registrant
PUBLIC	??_C@_0BD@OAGNCMAK@JFW_Zone_Animation?$AA@	; `string'
PUBLIC	??_7?$ScriptRegistrant@VJFW_Group_Purchase_Zone@@@@6B@ ; ScriptRegistrant<JFW_Group_Purchase_Zone>::`vftable'
PUBLIC	?JFW_Group_Purchase_Zone_Registrant@@3V?$ScriptRegistrant@VJFW_Group_Purchase_Zone@@@@A ; JFW_Group_Purchase_Zone_Registrant
PUBLIC	??_C@_0DG@ENBDLBCB@CashPerPerson?3float?0TotalCash?3fl@ ; `string'
PUBLIC	??_C@_0BI@HFKIJEII@JFW_Group_Purchase_Zone?$AA@	; `string'
PUBLIC	??_7?$ScriptRegistrant@VJFW_Zone_Timer@@@@6B@	; ScriptRegistrant<JFW_Zone_Timer>::`vftable'
PUBLIC	?JFW_Zone_Timer_Registrant@@3V?$ScriptRegistrant@VJFW_Zone_Timer@@@@A ; JFW_Zone_Timer_Registrant
PUBLIC	??_C@_0DE@KIHKNFDG@Count?3int?0ID?3int?0Custom?3int?0Time@ ; `string'
PUBLIC	??_C@_0P@PMBLGHDG@JFW_Zone_Timer?$AA@		; `string'
PUBLIC	??_7?$ScriptRegistrant@VJFW_Gate_Zone_2@@@@6B@	; ScriptRegistrant<JFW_Gate_Zone_2>::`vftable'
PUBLIC	?JFW_Gate_Zone_2_Registrant@@3V?$ScriptRegistrant@VJFW_Gate_Zone_2@@@@A ; JFW_Gate_Zone_2_Registrant
PUBLIC	??_C@_0BA@CDCIDLJJ@JFW_Gate_Zone_2?$AA@		; `string'
PUBLIC	??_7?$ScriptRegistrant@VJFW_PPAGE_Zone@@@@6B@	; ScriptRegistrant<JFW_PPAGE_Zone>::`vftable'
PUBLIC	?JFW_PPAGE_Zone_Registrant@@3V?$ScriptRegistrant@VJFW_PPAGE_Zone@@@@A ; JFW_PPAGE_Zone_Registrant
PUBLIC	??_C@_0BP@OPPAKJEK@Player_Type?3int?0Message?3string?$AA@ ; `string'
PUBLIC	??_C@_0P@INGAJMLH@JFW_PPAGE_Zone?$AA@		; `string'
PUBLIC	??_7?$ScriptRegistrant@VJFW_MSG_Zone@@@@6B@	; ScriptRegistrant<JFW_MSG_Zone>::`vftable'
PUBLIC	?JFW_MSG_Zone_Registrant@@3V?$ScriptRegistrant@VJFW_MSG_Zone@@@@A ; JFW_MSG_Zone_Registrant
PUBLIC	??_C@_0N@HCLIOBNF@JFW_MSG_Zone?$AA@		; `string'
PUBLIC	??_7?$ScriptRegistrant@VJFW_TMSG_Zone@@@@6B@	; ScriptRegistrant<JFW_TMSG_Zone>::`vftable'
PUBLIC	?JFW_TMSG_Zone_Registrant@@3V?$ScriptRegistrant@VJFW_TMSG_Zone@@@@A ; JFW_TMSG_Zone_Registrant
PUBLIC	??_C@_0O@HANNPBCA@JFW_TMSG_Zone?$AA@		; `string'
PUBLIC	??_7?$ScriptRegistrant@VJFW_Send_Driver_Custom_On_Enter@@@@6B@ ; ScriptRegistrant<JFW_Send_Driver_Custom_On_Enter>::`vftable'
PUBLIC	?JFW_Send_Driver_Custom_On_Enter_Registrant@@3V?$ScriptRegistrant@VJFW_Send_Driver_Custom_On_Enter@@@@A ; JFW_Send_Driver_Custom_On_Enter_Registrant
PUBLIC	??_C@_0CB@LAIKMBI@EnterMessage?3int?0ExitMessage?3int@ ; `string'
PUBLIC	??_C@_0CA@NBMIBONM@JFW_Send_Driver_Custom_On_Enter?$AA@ ; `string'
PUBLIC	??_7?$ScriptRegistrant@VJFW_Teleport_Zone_Enable@@@@6B@ ; ScriptRegistrant<JFW_Teleport_Zone_Enable>::`vftable'
PUBLIC	?JFW_Teleport_Zone_Enable_Registrant@@3V?$ScriptRegistrant@VJFW_Teleport_Zone_Enable@@@@A ; JFW_Teleport_Zone_Enable_Registrant
PUBLIC	??_C@_0FE@PDAGNBLD@Location?3vector3?0Object_ID?$DN0?3int@ ; `string'
PUBLIC	??_C@_0BJ@MDACPBMF@JFW_Teleport_Zone_Enable?$AA@ ; `string'
PUBLIC	??_7?$ScriptRegistrant@VJFW_Radar_Spy_Zone@@@@6B@ ; ScriptRegistrant<JFW_Radar_Spy_Zone>::`vftable'
PUBLIC	?JFW_Radar_Spy_Zone_Registrant@@3V?$ScriptRegistrant@VJFW_Radar_Spy_Zone@@@@A ; JFW_Radar_Spy_Zone_Registrant
PUBLIC	??_C@_0BP@DIOICPBI@Spy_Script?3string?0Sound?3string?$AA@ ; `string'
PUBLIC	??_C@_0BD@BIODFBP@JFW_Radar_Spy_Zone?$AA@	; `string'
PUBLIC	??_7?$ScriptRegistrant@VJFW_Radar_Spy_Zone_New@@@@6B@ ; ScriptRegistrant<JFW_Radar_Spy_Zone_New>::`vftable'
PUBLIC	?JFW_Radar_Spy_Zone_New_Registrant@@3V?$ScriptRegistrant@VJFW_Radar_Spy_Zone_New@@@@A ; JFW_Radar_Spy_Zone_New_Registrant
PUBLIC	??_C@_0N@KLCONBNJ@Sound?3string?$AA@		; `string'
PUBLIC	??_C@_0BH@BHDHHEAP@JFW_Radar_Spy_Zone_New?$AA@	; `string'
PUBLIC	??_7?$ScriptRegistrant@VJFW_2D_Sound_Zone_Team@@@@6B@ ; ScriptRegistrant<JFW_2D_Sound_Zone_Team>::`vftable'
PUBLIC	?JFW_2D_Sound_Zone_Team_Registrant@@3V?$ScriptRegistrant@VJFW_2D_Sound_Zone_Team@@@@A ; JFW_2D_Sound_Zone_Team_Registrant
PUBLIC	??_C@_0EL@DPBEKIOH@Player_Type?3int?0Sound?3string?0Tim@ ; `string'
PUBLIC	??_C@_0BH@OHJOMMOA@JFW_2D_Sound_Zone_Team?$AA@	; `string'
PUBLIC	??_7?$ScriptRegistrant@VJFW_Repair_Zone_2@@@@6B@ ; ScriptRegistrant<JFW_Repair_Zone_2>::`vftable'
PUBLIC	?JFW_Repair_Zone_2_Registrant@@3V?$ScriptRegistrant@VJFW_Repair_Zone_2@@@@A ; JFW_Repair_Zone_2_Registrant
PUBLIC	??_C@_0JE@GABNBLLM@Player_Type?3int?0Repair_Distance?3@ ; `string'
PUBLIC	??_C@_0BC@OEEKDDHK@JFW_Repair_Zone_2?$AA@	; `string'
PUBLIC	??_7?$ScriptRegistrant@VJFW_Repair_Zone_No_Boats@@@@6B@ ; ScriptRegistrant<JFW_Repair_Zone_No_Boats>::`vftable'
PUBLIC	?JFW_Repair_Zone_No_Boats_Registrant@@3V?$ScriptRegistrant@VJFW_Repair_Zone_No_Boats@@@@A ; JFW_Repair_Zone_No_Boats_Registrant
PUBLIC	??_C@_0HP@IIAJFKMC@Player_Type?3int?0Repair_Distance?3@ ; `string'
PUBLIC	??_C@_0BJ@MGOLEGEN@JFW_Repair_Zone_No_Boats?$AA@ ; `string'
PUBLIC	??_7?$ScriptRegistrant@VJFW_Repair_Zone_Boats@@@@6B@ ; ScriptRegistrant<JFW_Repair_Zone_Boats>::`vftable'
PUBLIC	?JFW_Repair_Zone_Boats_Registrant@@3V?$ScriptRegistrant@VJFW_Repair_Zone_Boats@@@@A ; JFW_Repair_Zone_Boats_Registrant
PUBLIC	??_C@_0BG@ELGOANFN@JFW_Repair_Zone_Boats?$AA@	; `string'
PUBLIC	??_7?$ScriptRegistrant@VJFW_Infantry_Force_Composition_Zone@@@@6B@ ; ScriptRegistrant<JFW_Infantry_Force_Composition_Zone>::`vftable'
PUBLIC	?JFW_Infantry_Force_Composition_Zone_Registrant@@3V?$ScriptRegistrant@VJFW_Infantry_Force_Composition_Zone@@@@A ; JFW_Infantry_Force_Composition_Zone_Registrant
PUBLIC	??_C@_0CP@DAFMCKGG@Spy_Script?3string?0Sound?3string?0R@ ; `string'
PUBLIC	??_C@_0CE@BGFOHIHO@JFW_Infantry_Force_Composition_Z@ ; `string'
PUBLIC	??_7?$ScriptRegistrant@VJFW_Vehicle_Force_Composition_Zone@@@@6B@ ; ScriptRegistrant<JFW_Vehicle_Force_Composition_Zone>::`vftable'
PUBLIC	?JFW_Vehicle_Force_Composition_Zone_Registrant@@3V?$ScriptRegistrant@VJFW_Vehicle_Force_Composition_Zone@@@@A ; JFW_Vehicle_Force_Composition_Zone_Registrant
PUBLIC	??_C@_0CD@GMMEOBKG@JFW_Vehicle_Force_Composition_Zo@ ; `string'
PUBLIC	??_7?$ScriptRegistrant@VJFW_Infantry_Force_Composition_Zone_New@@@@6B@ ; ScriptRegistrant<JFW_Infantry_Force_Composition_Zone_New>::`vftable'
PUBLIC	?JFW_Infantry_Force_Composition_Zone_New_Registrant@@3V?$ScriptRegistrant@VJFW_Infantry_Force_Composition_Zone_New@@@@A ; JFW_Infantry_Force_Composition_Zone_New_Registrant
PUBLIC	??_C@_0BN@NKLACODN@Sound?3string?0ResetTime?3float?$AA@ ; `string'
PUBLIC	??_C@_0CI@OOAELKCC@JFW_Infantry_Force_Composition_Z@ ; `string'
PUBLIC	??_7?$ScriptRegistrant@VJFW_Vehicle_Force_Composition_Zone_New@@@@6B@ ; ScriptRegistrant<JFW_Vehicle_Force_Composition_Zone_New>::`vftable'
PUBLIC	?JFW_Vehicle_Force_Composition_Zone_New_Registrant@@3V?$ScriptRegistrant@VJFW_Vehicle_Force_Composition_Zone_New@@@@A ; JFW_Vehicle_Force_Composition_Zone_New_Registrant
PUBLIC	??_C@_0CH@MEFIFCJJ@JFW_Vehicle_Force_Composition_Zo@ ; `string'
PUBLIC	??_7?$ScriptRegistrant@VJFW_Sell_Zone@@@@6B@	; ScriptRegistrant<JFW_Sell_Zone>::`vftable'
PUBLIC	?JFW_Sell_Zone_Registrant@@3V?$ScriptRegistrant@VJFW_Sell_Zone@@@@A ; JFW_Sell_Zone_Registrant
PUBLIC	??_C@_0CO@DGKKFCHA@Player_Type?3int?0Sound?3string?0Sel@ ; `string'
PUBLIC	??_C@_0O@DKHPOGFF@JFW_Sell_Zone?$AA@		; `string'
PUBLIC	??_7?$ScriptRegistrant@VJFW_Resize_Zone@@@@6B@	; ScriptRegistrant<JFW_Resize_Zone>::`vftable'
PUBLIC	?JFW_Resize_Zone_Registrant@@3V?$ScriptRegistrant@VJFW_Resize_Zone@@@@A ; JFW_Resize_Zone_Registrant
PUBLIC	??_C@_0BL@NMNGBBIN@Size?3vector3?0ZRotate?3float?$AA@ ; `string'
PUBLIC	??_C@_0BA@DCKDOKI@JFW_Resize_Zone?$AA@		; `string'
PUBLIC	??_7?$ScriptRegistrant@VJFW_Cash_Spy_Zone@@@@6B@ ; ScriptRegistrant<JFW_Cash_Spy_Zone>::`vftable'
PUBLIC	?JFW_Cash_Spy_Zone_Registrant@@3V?$ScriptRegistrant@VJFW_Cash_Spy_Zone@@@@A ; JFW_Cash_Spy_Zone_Registrant
PUBLIC	??_C@_0BC@BCMMOCFM@JFW_Cash_Spy_Zone?$AA@	; `string'
PUBLIC	??_7?$ScriptRegistrant@VJFW_Power_Spy_Zone@@@@6B@ ; ScriptRegistrant<JFW_Power_Spy_Zone>::`vftable'
PUBLIC	?JFW_Power_Spy_Zone_Registrant@@3V?$ScriptRegistrant@VJFW_Power_Spy_Zone@@@@A ; JFW_Power_Spy_Zone_Registrant
PUBLIC	??_C@_0EP@CPMLFPK@Spy_Script?3string?0Power_Time?3flo@ ; `string'
PUBLIC	??_C@_0BD@GIFICAGF@JFW_Power_Spy_Zone?$AA@	; `string'
PUBLIC	??_7?$ScriptRegistrant@VJFW_Cash_Spy_Zone_New@@@@6B@ ; ScriptRegistrant<JFW_Cash_Spy_Zone_New>::`vftable'
PUBLIC	?JFW_Cash_Spy_Zone_New_Registrant@@3V?$ScriptRegistrant@VJFW_Cash_Spy_Zone_New@@@@A ; JFW_Cash_Spy_Zone_New_Registrant
PUBLIC	??_C@_0BG@FAKBMMDA@JFW_Cash_Spy_Zone_New?$AA@	; `string'
PUBLIC	??_7?$ScriptRegistrant@VJFW_Power_Spy_Zone_New@@@@6B@ ; ScriptRegistrant<JFW_Power_Spy_Zone_New>::`vftable'
PUBLIC	?JFW_Power_Spy_Zone_New_Registrant@@3V?$ScriptRegistrant@VJFW_Power_Spy_Zone_New@@@@A ; JFW_Power_Spy_Zone_New_Registrant
PUBLIC	??_C@_0DN@FPNLCHDO@Power_Time?3float?0Reset_Time?3floa@ ; `string'
PUBLIC	??_C@_0BH@OKFEOOAJ@JFW_Power_Spy_Zone_New?$AA@	; `string'
PUBLIC	??_7?$ScriptRegistrant@VJFW_Blow_Up_On_Enter_Delay@@@@6B@ ; ScriptRegistrant<JFW_Blow_Up_On_Enter_Delay>::`vftable'
PUBLIC	?JFW_Blow_Up_On_Enter_Delay_Registrant@@3V?$ScriptRegistrant@VJFW_Blow_Up_On_Enter_Delay@@@@A ; JFW_Blow_Up_On_Enter_Delay_Registrant
PUBLIC	??_C@_0DJ@IEPPAICA@Player_Type?3int?0Time?3float?0Timer@ ; `string'
PUBLIC	??_C@_0BL@LJLDKDKP@JFW_Blow_Up_On_Enter_Delay?$AA@ ; `string'
PUBLIC	??_7?$ScriptRegistrant@VJFW_Conyard_Spy_Zone@@@@6B@ ; ScriptRegistrant<JFW_Conyard_Spy_Zone>::`vftable'
PUBLIC	?JFW_Conyard_Spy_Zone_Registrant@@3V?$ScriptRegistrant@VJFW_Conyard_Spy_Zone@@@@A ; JFW_Conyard_Spy_Zone_Registrant
PUBLIC	??_C@_0BF@IFFFPNKL@JFW_Conyard_Spy_Zone?$AA@	; `string'
PUBLIC	??_7?$ScriptRegistrant@VJFW_Conyard_Spy_Zone_2@@@@6B@ ; ScriptRegistrant<JFW_Conyard_Spy_Zone_2>::`vftable'
PUBLIC	?JFW_Conyard_Spy_Zone_2_Registrant@@3V?$ScriptRegistrant@VJFW_Conyard_Spy_Zone_2@@@@A ; JFW_Conyard_Spy_Zone_2_Registrant
PUBLIC	??_C@_0BH@EGPFDCK@JFW_Conyard_Spy_Zone_2?$AA@	; `string'
PUBLIC	??_7?$ScriptRegistrant@VJFW_Conyard_Spy_Zone_2_New@@@@6B@ ; ScriptRegistrant<JFW_Conyard_Spy_Zone_2_New>::`vftable'
PUBLIC	?JFW_Conyard_Spy_Zone_2_New_Registrant@@3V?$ScriptRegistrant@VJFW_Conyard_Spy_Zone_2_New@@@@A ; JFW_Conyard_Spy_Zone_2_New_Registrant
PUBLIC	??_C@_0BL@KLJHPNCM@JFW_Conyard_Spy_Zone_2_New?$AA@ ; `string'
PUBLIC	??_7?$ScriptRegistrant@VJFW_Custom_Spawn_Zone@@@@6B@ ; ScriptRegistrant<JFW_Custom_Spawn_Zone>::`vftable'
PUBLIC	?JFW_Custom_Spawn_Zone_Registrant@@3V?$ScriptRegistrant@VJFW_Custom_Spawn_Zone@@@@A ; JFW_Custom_Spawn_Zone_Registrant
PUBLIC	??_C@_0FM@NBOCOIDO@Position?3vector3?0Size?3vector3?0ZR@ ; `string'
PUBLIC	??_C@_0BG@NBPCKCMG@JFW_Custom_Spawn_Zone?$AA@	; `string'
PUBLIC	??_7?$ScriptRegistrant@VJFW_Spawn_Zone_Created@@@@6B@ ; ScriptRegistrant<JFW_Spawn_Zone_Created>::`vftable'
PUBLIC	?JFW_Spawn_Zone_Created_Registrant@@3V?$ScriptRegistrant@VJFW_Spawn_Zone_Created@@@@A ; JFW_Spawn_Zone_Created_Registrant
PUBLIC	??_C@_0DI@NOGPACMN@Offset?3vector3?0Size?3vector3?0ZRot@ ; `string'
PUBLIC	??_C@_0BH@OEPGLDHD@JFW_Spawn_Zone_Created?$AA@	; `string'
PUBLIC	??_7?$ScriptRegistrant@VJFW_Boat@@@@6B@		; ScriptRegistrant<JFW_Boat>::`vftable'
PUBLIC	?JFW_Boat_Registrant@@3V?$ScriptRegistrant@VJFW_Boat@@@@A ; JFW_Boat_Registrant
PUBLIC	??_C@_08OFCCDFCA@JFW_Boat?$AA@			; `string'
PUBLIC	??_7?$ScriptRegistrant@VJFW_Destroy_Vehicle_Zone@@@@6B@ ; ScriptRegistrant<JFW_Destroy_Vehicle_Zone>::`vftable'
PUBLIC	?JFW_Destroy_Vehicle_Zone_Registrant@@3V?$ScriptRegistrant@VJFW_Destroy_Vehicle_Zone@@@@A ; JFW_Destroy_Vehicle_Zone_Registrant
PUBLIC	??_C@_0BJ@OEENDJNL@JFW_Destroy_Vehicle_Zone?$AA@ ; `string'
PUBLIC	??_7?$ScriptRegistrant@VJFW_Destroy_Vehicle_Zone_Marker@@@@6B@ ; ScriptRegistrant<JFW_Destroy_Vehicle_Zone_Marker>::`vftable'
PUBLIC	?JFW_Destroy_Vehicle_Zone_Marker_Registrant@@3V?$ScriptRegistrant@VJFW_Destroy_Vehicle_Zone_Marker@@@@A ; JFW_Destroy_Vehicle_Zone_Marker_Registrant
PUBLIC	??_C@_0EJ@ENMBJFB@SList?$DMstruct?5MultiKeyHookScriptI@ ; `string'
PUBLIC	??_C@_0DB@DFBFLIIO@x?3?2github?2renegade?2dragonade_rxd@ ; `string'
PUBLIC	??_C@_1GC@LJHGOLFN@?$AAx?$AA?3?$AA?2?$AAg?$AAi?$AAt?$AAh?$AAu?$AAb?$AA?2?$AAr?$AAe?$AAn?$AAe?$AAg?$AAa?$AAd?$AAe?$AA?2?$AAd?$AAr?$AAa?$AAg?$AAo?$AAn?$AAa?$AAd?$AAe?$AA_?$AAr?$AAx?$AAd@ ; `string'
PUBLIC	??_C@_0EJ@OIGECPDF@SList?$DMstruct?5MultiKeyHookScriptI@ ; `string'
PUBLIC	??_C@_0EM@PPENJFKC@SList?$DMstruct?5MultiKeyHookScriptI@ ; `string'
PUBLIC	??_C@_0EH@CGJBMJBC@SList?$DMstruct?5MultiKeyHookScriptI@ ; `string'
PUBLIC	??_C@_0EL@MPFHHNNA@SList?$DMstruct?5MultiKeyHookScriptI@ ; `string'
PUBLIC	??_C@_0EO@OJGPEJGC@SList?$DMstruct?5MultiKeyHookScriptI@ ; `string'
PUBLIC	??_C@_0EN@HIHNAGN@SList?$DMstruct?5MultiKeyHookScriptI@ ; `string'
PUBLIC	??_C@_0DL@KEDKPCCK@ScriptRegistrant?$DMclass?5JFW_Look_@ ; `string'
PUBLIC	??_C@_0DD@KMKBFFOF@x?3?2github?2renegade?2dragonade_rxd@ ; `string'
PUBLIC	??_C@_1GG@OGNLNBPD@?$AAx?$AA?3?$AA?2?$AAg?$AAi?$AAt?$AAh?$AAu?$AAb?$AA?2?$AAr?$AAe?$AAn?$AAe?$AAg?$AAa?$AAd?$AAe?$AA?2?$AAd?$AAr?$AAa?$AAg?$AAo?$AAn?$AAa?$AAd?$AAe?$AA_?$AAr?$AAx?$AAd@ ; `string'
PUBLIC	??_C@_0DJ@KEBCAHHL@ScriptRegistrant?$DMclass?5JFW_Look_@ ; `string'
PUBLIC	??_C@_0CN@KMOCADED@ScriptRegistrant?$DMclass?5JFW_Zone_@ ; `string'
PUBLIC	??_C@_0DH@BCLOOOPB@ScriptRegistrant?$DMclass?5JFW_3D_So@ ; `string'
PUBLIC	??_C@_0DJ@GGDKIGAC@ScriptRegistrant?$DMclass?5JFW_3D_So@ ; `string'
PUBLIC	??_C@_0DH@BDALBDOM@ScriptRegistrant?$DMclass?5JFW_2D_So@ ; `string'
PUBLIC	??_C@_0DJ@FKFKGFAK@ScriptRegistrant?$DMclass?5JFW_2D_So@ ; `string'
PUBLIC	??_C@_0DH@DHFGGKFP@ScriptRegistrant?$DMclass?5JFW_Disab@ ; `string'
PUBLIC	??_C@_0DO@MDBINEJP@ScriptRegistrant?$DMclass?5JFW_Zone_@ ; `string'
PUBLIC	??_C@_0DL@EDLIPNNK@ScriptRegistrant?$DMclass?5JFW_Zone_@ ; `string'
PUBLIC	??_C@_0DK@HOMLMCDN@ScriptRegistrant?$DMclass?5JFW_Zone_@ ; `string'
PUBLIC	??_C@_0DL@KAMFPONF@ScriptRegistrant?$DMclass?5JFW_Vehic@ ; `string'
PUBLIC	??_C@_0DG@HGDHIMIM@ScriptRegistrant?$DMclass?5JFW_Zone_@ ; `string'
PUBLIC	??_C@_0CN@CDLLOMPF@ScriptRegistrant?$DMclass?5JFW_Fog_Z@ ; `string'
PUBLIC	??_C@_0DD@FJFFCKJL@ScriptRegistrant?$DMclass?5JFW_War_B@ ; `string'
PUBLIC	??_C@_0ED@FCCDCHKA@ScriptRegistrant?$DMclass?5JFW_Creat@ ; `string'
PUBLIC	??_C@_0EA@JEAOEGBH@ScriptRegistrant?$DMclass?5JFW_Apply@ ; `string'
PUBLIC	??_C@_0DM@CNMGEDAG@ScriptRegistrant?$DMclass?5JFW_Blow_@ ; `string'
PUBLIC	??_C@_0DF@FJMGJPIG@ScriptRegistrant?$DMclass?5JFW_Blow_@ ; `string'
PUBLIC	??_C@_0DK@EOHKBBCH@ScriptRegistrant?$DMclass?5JFW_Apply@ ; `string'
PUBLIC	??_C@_0DD@BCPAGDBN@ScriptRegistrant?$DMclass?5JFW_Zone_@ ; `string'
PUBLIC	??_C@_0DI@NADAOFO@ScriptRegistrant?$DMclass?5JFW_Zone_@ ; `string'
PUBLIC	??_C@_0DO@GPCGGMJH@ScriptRegistrant?$DMclass?5JFW_Heavy@ ; `string'
PUBLIC	??_C@_0DO@MJLMNGKJ@ScriptRegistrant?$DMclass?5JFW_Light@ ; `string'
PUBLIC	??_C@_0DC@EKCHNMEO@ScriptRegistrant?$DMclass?5JFW_2D_So@ ; `string'
PUBLIC	??_C@_0DB@BEOCBICB@ScriptRegistrant?$DMclass?5JFW_Steal@ ; `string'
PUBLIC	??_C@_0DH@LGAIAKEH@ScriptRegistrant?$DMclass?5JFW_Telep@ ; `string'
PUBLIC	??_C@_0DC@CIOHOFEA@ScriptRegistrant?$DMclass?5JFW_Chara@ ; `string'
PUBLIC	??_C@_0CP@DCFDKNNO@ScriptRegistrant?$DMclass?5JFW_Prese@ ; `string'
PUBLIC	??_C@_0CP@FIHGPPL@ScriptRegistrant?$DMclass?5JFW_Weapo@ ; `string'
PUBLIC	??_C@_0DC@NBFEDGJK@ScriptRegistrant?$DMclass?5JFW_3D_So@ ; `string'
PUBLIC	??_C@_0DG@JKCDBJEI@ScriptRegistrant?$DMclass?5JFW_Bounc@ ; `string'
PUBLIC	??_C@_0DJ@LLANCHGH@ScriptRegistrant?$DMclass?5JFW_Grant@ ; `string'
PUBLIC	??_C@_0DM@HKILFCCA@ScriptRegistrant?$DMclass?5JFW_Zone_@ ; `string'
PUBLIC	??_C@_0DM@GFIOFGNN@ScriptRegistrant?$DMclass?5JFW_Zone_@ ; `string'
PUBLIC	??_C@_0EC@CACGCKON@ScriptRegistrant?$DMclass?5JFW_Zone_@ ; `string'
PUBLIC	??_C@_0EC@FMAOJCJF@ScriptRegistrant?$DMclass?5JFW_Zone_@ ; `string'
PUBLIC	??_C@_0DL@LNBFMOPE@ScriptRegistrant?$DMclass?5JFW_Send_@ ; `string'
PUBLIC	??_C@_0CO@JECIEAON@ScriptRegistrant?$DMclass?5JFW_Gate_@ ; `string'
PUBLIC	??_C@_0DA@IBJPHNFC@ScriptRegistrant?$DMclass?5JFW_Repai@ ; `string'
PUBLIC	??_C@_0DO@BGHKCGME@ScriptRegistrant?$DMclass?5JFW_Repai@ ; `string'
PUBLIC	??_C@_0DM@PAOIDCFB@ScriptRegistrant?$DMclass?5JFW_Repai@ ; `string'
PUBLIC	??_C@_0EA@PMOIEMHE@ScriptRegistrant?$DMclass?5JFW_Zone_@ ; `string'
PUBLIC	??_C@_0DN@KOKIMKGO@ScriptRegistrant?$DMclass?5JFW_Zone_@ ; `string'
PUBLIC	??_C@_0CO@OCJLHKAK@ScriptRegistrant?$DMclass?5JFW_Heal_@ ; `string'
PUBLIC	??_C@_0DA@FMCHFFCF@ScriptRegistrant?$DMclass?5JFW_Heal_@ ; `string'
PUBLIC	??_C@_0DN@FGNKHMNP@ScriptRegistrant?$DMclass?5JFW_Disab@ ; `string'
PUBLIC	??_C@_0EF@HOABKFKJ@ScriptRegistrant?$DMclass?5JFW_Bounc@ ; `string'
PUBLIC	??_C@_0DK@KJFCCMJE@ScriptRegistrant?$DMclass?5JFW_Zone_@ ; `string'
PUBLIC	??_C@_0DJ@OFPLNOFF@ScriptRegistrant?$DMclass?5JFW_Vechi@ ; `string'
PUBLIC	??_C@_0CP@DIIKKNED@ScriptRegistrant?$DMclass?5JFW_Refil@ ; `string'
PUBLIC	??_C@_0DA@GIGCGANJ@ScriptRegistrant?$DMclass?5JFW_Vehic@ ; `string'
PUBLIC	??_C@_0DA@FJCAFCFF@ScriptRegistrant?$DMclass?5JFW_Power@ ; `string'
PUBLIC	??_C@_0DI@HPODCBLL@ScriptRegistrant?$DMclass?5JFW_Repai@ ; `string'
PUBLIC	??_C@_0DK@FHFMFBMB@ScriptRegistrant?$DMclass?5JFW_Repai@ ; `string'
PUBLIC	??_C@_0DB@OILNGEOM@ScriptRegistrant?$DMclass?5JFW_Zone_@ ; `string'
PUBLIC	??_C@_0DB@KGKEGEIM@ScriptRegistrant?$DMclass?5JFW_Zone_@ ; `string'
PUBLIC	??_C@_0DA@OLAODPOL@ScriptRegistrant?$DMclass?5JFW_Zone_@ ; `string'
PUBLIC	??_C@_0DK@KFOKFFDD@ScriptRegistrant?$DMclass?5JFW_Zone_@ ; `string'
PUBLIC	??_C@_0DD@FIGKCBDG@ScriptRegistrant?$DMclass?5JFW_Zone_@ ; `string'
PUBLIC	??_C@_0DI@EIODCEAG@ScriptRegistrant?$DMclass?5JFW_Group@ ; `string'
PUBLIC	??_C@_0CP@GJNAMBOF@ScriptRegistrant?$DMclass?5JFW_Zone_@ ; `string'
PUBLIC	??_C@_0DA@ILBEJPAP@ScriptRegistrant?$DMclass?5JFW_Gate_@ ; `string'
PUBLIC	??_C@_0CP@JEOOIHEA@ScriptRegistrant?$DMclass?5JFW_PPAGE@ ; `string'
PUBLIC	??_C@_0CN@GFLJCHDA@ScriptRegistrant?$DMclass?5JFW_MSG_Z@ ; `string'
PUBLIC	??_C@_0CO@PLCNCMNL@ScriptRegistrant?$DMclass?5JFW_TMSG_@ ; `string'
PUBLIC	??_C@_0EA@PDBDNKLF@ScriptRegistrant?$DMclass?5JFW_Send_@ ; `string'
PUBLIC	??_C@_0DJ@MKAMLBFF@ScriptRegistrant?$DMclass?5JFW_Telep@ ; `string'
PUBLIC	??_C@_0DD@DCJJHIKF@ScriptRegistrant?$DMclass?5JFW_Radar@ ; `string'
PUBLIC	??_C@_0DH@DOMMCNHB@ScriptRegistrant?$DMclass?5JFW_Radar@ ; `string'
PUBLIC	??_C@_0DH@BJPBCBPN@ScriptRegistrant?$DMclass?5JFW_2D_So@ ; `string'
PUBLIC	??_C@_0DC@LACBHENO@ScriptRegistrant?$DMclass?5JFW_Repai@ ; `string'
PUBLIC	??_C@_0DJ@NEHLOML@ScriptRegistrant?$DMclass?5JFW_Repai@ ; `string'
PUBLIC	??_C@_0DG@LKKCOHPN@ScriptRegistrant?$DMclass?5JFW_Repai@ ; `string'
PUBLIC	??_C@_0EE@FEEBJCCM@ScriptRegistrant?$DMclass?5JFW_Infan@ ; `string'
PUBLIC	??_C@_0ED@LFCBAHD@ScriptRegistrant?$DMclass?5JFW_Vehic@ ; `string'
PUBLIC	??_C@_0EI@OHNIAKMM@ScriptRegistrant?$DMclass?5JFW_Infan@ ; `string'
PUBLIC	??_C@_0EH@MDMNHCB@ScriptRegistrant?$DMclass?5JFW_Vehic@ ; `string'
PUBLIC	??_C@_0CO@EJJAHJDO@ScriptRegistrant?$DMclass?5JFW_Sell_@ ; `string'
PUBLIC	??_C@_0DA@GKINFBOF@ScriptRegistrant?$DMclass?5JFW_Resiz@ ; `string'
PUBLIC	??_C@_0DC@KDHANMLJ@ScriptRegistrant?$DMclass?5JFW_Cash_@ ; `string'
PUBLIC	??_C@_0DD@IEKHGGEM@ScriptRegistrant?$DMclass?5JFW_Power@ ; `string'
PUBLIC	??_C@_0DG@PCMGNLJN@ScriptRegistrant?$DMclass?5JFW_Cash_@ ; `string'
PUBLIC	??_C@_0DH@OAMEKAHN@ScriptRegistrant?$DMclass?5JFW_Power@ ; `string'
PUBLIC	??_C@_0DL@JFHDKFKE@ScriptRegistrant?$DMclass?5JFW_Blow_@ ; `string'
PUBLIC	??_C@_0DF@EJLJIPGO@ScriptRegistrant?$DMclass?5JFW_Conya@ ; `string'
PUBLIC	??_C@_0DH@JAGBFGDH@ScriptRegistrant?$DMclass?5JFW_Conya@ ; `string'
PUBLIC	??_C@_0DL@PPOLMGMF@ScriptRegistrant?$DMclass?5JFW_Conya@ ; `string'
PUBLIC	??_C@_0DG@BFJKOHFD@ScriptRegistrant?$DMclass?5JFW_Custo@ ; `string'
PUBLIC	??_C@_0DH@KBFEKMBG@ScriptRegistrant?$DMclass?5JFW_Spawn@ ; `string'
PUBLIC	??_C@_0CJ@OLJLMBNG@ScriptRegistrant?$DMclass?5JFW_Boat?$DO@ ; `string'
PUBLIC	??_C@_0DJ@KPKHEECK@ScriptRegistrant?$DMclass?5JFW_Destr@ ; `string'
PUBLIC	??_C@_0EA@GKIPIMK@ScriptRegistrant?$DMclass?5JFW_Destr@ ; `string'
PUBLIC	?instancex@?1??getInstance@?$Singleton@V?$ObjectPoolClass@VGenericSLNode@@$0BAA@@@@@SAAAV?$ObjectPoolClass@VGenericSLNode@@$0BAA@@@XZ@4V3@A ; `Singleton<ObjectPoolClass<GenericSLNode,256> >::getInstance'::`2'::instancex
PUBLIC	??_B?1??getInstance@?$Singleton@V?$ObjectPoolClass@VGenericSLNode@@$0BAA@@@@@SAAAV?$ObjectPoolClass@VGenericSLNode@@$0BAA@@@XZ@51 ; `Singleton<ObjectPoolClass<GenericSLNode,256> >::getInstance'::`2'::`local static guard'
PUBLIC	??_C@_0EB@IOGKEECK@ObjectPoolClass?$DMclass?5GenericSLN@ ; `string'
PUBLIC	??_C@_0FF@NOANHENP@?$CFd?5memory?5leaks?5found?5in?5ObjectP@ ; `string'
PUBLIC	??_C@_0DL@BOENBDGI@ObjectPoolClass?$DMclass?5GenericSLN@ ; `string'
PUBLIC	??_R4ScriptFactory@@6B@				; ScriptFactory::`RTTI Complete Object Locator'
PUBLIC	??_R0?AVScriptFactory@@@8			; ScriptFactory `RTTI Type Descriptor'
PUBLIC	??_R3ScriptFactory@@8				; ScriptFactory::`RTTI Class Hierarchy Descriptor'
PUBLIC	??_R2ScriptFactory@@8				; ScriptFactory::`RTTI Base Class Array'
PUBLIC	??_R1A@?0A@EA@ScriptFactory@@8			; ScriptFactory::`RTTI Base Class Descriptor at (0,-1,0,64)'
PUBLIC	??_R4ScriptClass@@6B@				; ScriptClass::`RTTI Complete Object Locator'
PUBLIC	??_R0?AVScriptClass@@@8				; ScriptClass `RTTI Type Descriptor'
PUBLIC	??_R3ScriptClass@@8				; ScriptClass::`RTTI Class Hierarchy Descriptor'
PUBLIC	??_R2ScriptClass@@8				; ScriptClass::`RTTI Base Class Array'
PUBLIC	??_R1A@?0A@EA@ScriptClass@@8			; ScriptClass::`RTTI Base Class Descriptor at (0,-1,0,64)'
PUBLIC	??_R1A@?0A@EA@GameObjObserverClass@@8		; GameObjObserverClass::`RTTI Base Class Descriptor at (0,-1,0,64)'
PUBLIC	??_R0?AVGameObjObserverClass@@@8		; GameObjObserverClass `RTTI Type Descriptor'
PUBLIC	??_R3GameObjObserverClass@@8			; GameObjObserverClass::`RTTI Class Hierarchy Descriptor'
PUBLIC	??_R2GameObjObserverClass@@8			; GameObjObserverClass::`RTTI Base Class Array'
PUBLIC	??_R4GameObjObserverClass@@6B@			; GameObjObserverClass::`RTTI Complete Object Locator'
PUBLIC	??_R4ScriptImpClass@@6B@			; ScriptImpClass::`RTTI Complete Object Locator'
PUBLIC	??_R0?AVScriptImpClass@@@8			; ScriptImpClass `RTTI Type Descriptor'
PUBLIC	??_R3ScriptImpClass@@8				; ScriptImpClass::`RTTI Class Hierarchy Descriptor'
PUBLIC	??_R2ScriptImpClass@@8				; ScriptImpClass::`RTTI Base Class Array'
PUBLIC	??_R1A@?0A@EA@ScriptImpClass@@8			; ScriptImpClass::`RTTI Base Class Descriptor at (0,-1,0,64)'
PUBLIC	??_R4ThreadClass@@6B@				; ThreadClass::`RTTI Complete Object Locator'
PUBLIC	??_R0?AVThreadClass@@@8				; ThreadClass `RTTI Type Descriptor'
PUBLIC	??_R3ThreadClass@@8				; ThreadClass::`RTTI Class Hierarchy Descriptor'
PUBLIC	??_R2ThreadClass@@8				; ThreadClass::`RTTI Base Class Array'
PUBLIC	??_R1A@?0A@EA@ThreadClass@@8			; ThreadClass::`RTTI Base Class Descriptor at (0,-1,0,64)'
PUBLIC	??_R4INIClass@@6B@				; INIClass::`RTTI Complete Object Locator'
PUBLIC	??_R0?AVINIClass@@@8				; INIClass `RTTI Type Descriptor'
PUBLIC	??_R3INIClass@@8				; INIClass::`RTTI Class Hierarchy Descriptor'
PUBLIC	??_R2INIClass@@8				; INIClass::`RTTI Base Class Array'
PUBLIC	??_R1A@?0A@EA@INIClass@@8			; INIClass::`RTTI Base Class Descriptor at (0,-1,0,64)'
PUBLIC	??_R1A@?0A@EA@PostLoadableClass@@8		; PostLoadableClass::`RTTI Base Class Descriptor at (0,-1,0,64)'
PUBLIC	??_R0?AVPostLoadableClass@@@8			; PostLoadableClass `RTTI Type Descriptor'
PUBLIC	??_R3PostLoadableClass@@8			; PostLoadableClass::`RTTI Class Hierarchy Descriptor'
PUBLIC	??_R2PostLoadableClass@@8			; PostLoadableClass::`RTTI Base Class Array'
PUBLIC	??_R4PostLoadableClass@@6B@			; PostLoadableClass::`RTTI Complete Object Locator'
PUBLIC	??_R4ReferencerClass@@6B@			; ReferencerClass::`RTTI Complete Object Locator'
PUBLIC	??_R0?AVReferencerClass@@@8			; ReferencerClass `RTTI Type Descriptor'
PUBLIC	??_R3ReferencerClass@@8				; ReferencerClass::`RTTI Class Hierarchy Descriptor'
PUBLIC	??_R2ReferencerClass@@8				; ReferencerClass::`RTTI Base Class Array'
PUBLIC	??_R1A@?0A@EA@ReferencerClass@@8		; ReferencerClass::`RTTI Base Class Descriptor at (0,-1,0,64)'
PUBLIC	??_R4JFW_Key_Hook_Base@@6B@			; JFW_Key_Hook_Base::`RTTI Complete Object Locator'
PUBLIC	??_R0?AVJFW_Key_Hook_Base@@@8			; JFW_Key_Hook_Base `RTTI Type Descriptor'
PUBLIC	??_R3JFW_Key_Hook_Base@@8			; JFW_Key_Hook_Base::`RTTI Class Hierarchy Descriptor'
PUBLIC	??_R2JFW_Key_Hook_Base@@8			; JFW_Key_Hook_Base::`RTTI Base Class Array'
PUBLIC	??_R1A@?0A@EA@JFW_Key_Hook_Base@@8		; JFW_Key_Hook_Base::`RTTI Base Class Descriptor at (0,-1,0,64)'
PUBLIC	??_R4MultiKeyHookScriptImpClass@@6B@		; MultiKeyHookScriptImpClass::`RTTI Complete Object Locator'
PUBLIC	??_R0?AVMultiKeyHookScriptImpClass@@@8		; MultiKeyHookScriptImpClass `RTTI Type Descriptor'
PUBLIC	??_R3MultiKeyHookScriptImpClass@@8		; MultiKeyHookScriptImpClass::`RTTI Class Hierarchy Descriptor'
PUBLIC	??_R2MultiKeyHookScriptImpClass@@8		; MultiKeyHookScriptImpClass::`RTTI Base Class Array'
PUBLIC	??_R1A@?0A@EA@MultiKeyHookScriptImpClass@@8	; MultiKeyHookScriptImpClass::`RTTI Base Class Descriptor at (0,-1,0,64)'
PUBLIC	??_R4?$SList@UKeyHookWrapperStruct@MultiKeyHookScriptImpClass@@@@6B@ ; SList<MultiKeyHookScriptImpClass::KeyHookWrapperStruct>::`RTTI Complete Object Locator'
PUBLIC	??_R0?AV?$SList@UKeyHookWrapperStruct@MultiKeyHookScriptImpClass@@@@@8 ; SList<MultiKeyHookScriptImpClass::KeyHookWrapperStruct> `RTTI Type Descriptor'
PUBLIC	??_R3?$SList@UKeyHookWrapperStruct@MultiKeyHookScriptImpClass@@@@8 ; SList<MultiKeyHookScriptImpClass::KeyHookWrapperStruct>::`RTTI Class Hierarchy Descriptor'
PUBLIC	??_R2?$SList@UKeyHookWrapperStruct@MultiKeyHookScriptImpClass@@@@8 ; SList<MultiKeyHookScriptImpClass::KeyHookWrapperStruct>::`RTTI Base Class Array'
PUBLIC	??_R1A@?0A@EA@?$SList@UKeyHookWrapperStruct@MultiKeyHookScriptImpClass@@@@8 ; SList<MultiKeyHookScriptImpClass::KeyHookWrapperStruct>::`RTTI Base Class Descriptor at (0,-1,0,64)'
PUBLIC	??_R4JFW_Object_Created_Hook_Base@@6B@		; JFW_Object_Created_Hook_Base::`RTTI Complete Object Locator'
PUBLIC	??_R0?AVJFW_Object_Created_Hook_Base@@@8	; JFW_Object_Created_Hook_Base `RTTI Type Descriptor'
PUBLIC	??_R3JFW_Object_Created_Hook_Base@@8		; JFW_Object_Created_Hook_Base::`RTTI Class Hierarchy Descriptor'
PUBLIC	??_R2JFW_Object_Created_Hook_Base@@8		; JFW_Object_Created_Hook_Base::`RTTI Base Class Array'
PUBLIC	??_R1A@?0A@EA@JFW_Object_Created_Hook_Base@@8	; JFW_Object_Created_Hook_Base::`RTTI Base Class Descriptor at (0,-1,0,64)'
PUBLIC	??_R4JFW_3D_Sound_Zone@@6B@			; JFW_3D_Sound_Zone::`RTTI Complete Object Locator'
PUBLIC	??_R0?AVJFW_3D_Sound_Zone@@@8			; JFW_3D_Sound_Zone `RTTI Type Descriptor'
PUBLIC	??_R3JFW_3D_Sound_Zone@@8			; JFW_3D_Sound_Zone::`RTTI Class Hierarchy Descriptor'
PUBLIC	??_R2JFW_3D_Sound_Zone@@8			; JFW_3D_Sound_Zone::`RTTI Base Class Array'
PUBLIC	??_R1A@?0A@EA@JFW_3D_Sound_Zone@@8		; JFW_3D_Sound_Zone::`RTTI Base Class Descriptor at (0,-1,0,64)'
PUBLIC	??_R4JFW_Bounce_Zone_Entry@@6B@			; JFW_Bounce_Zone_Entry::`RTTI Complete Object Locator'
PUBLIC	??_R0?AVJFW_Bounce_Zone_Entry@@@8		; JFW_Bounce_Zone_Entry `RTTI Type Descriptor'
PUBLIC	??_R3JFW_Bounce_Zone_Entry@@8			; JFW_Bounce_Zone_Entry::`RTTI Class Hierarchy Descriptor'
PUBLIC	??_R2JFW_Bounce_Zone_Entry@@8			; JFW_Bounce_Zone_Entry::`RTTI Base Class Array'
PUBLIC	??_R1A@?0A@EA@JFW_Bounce_Zone_Entry@@8		; JFW_Bounce_Zone_Entry::`RTTI Base Class Descriptor at (0,-1,0,64)'
PUBLIC	??_R4JFW_Grant_Key_Zone_Entry@@6B@		; JFW_Grant_Key_Zone_Entry::`RTTI Complete Object Locator'
PUBLIC	??_R0?AVJFW_Grant_Key_Zone_Entry@@@8		; JFW_Grant_Key_Zone_Entry `RTTI Type Descriptor'
PUBLIC	??_R3JFW_Grant_Key_Zone_Entry@@8		; JFW_Grant_Key_Zone_Entry::`RTTI Class Hierarchy Descriptor'
PUBLIC	??_R2JFW_Grant_Key_Zone_Entry@@8		; JFW_Grant_Key_Zone_Entry::`RTTI Base Class Array'
PUBLIC	??_R1A@?0A@EA@JFW_Grant_Key_Zone_Entry@@8	; JFW_Grant_Key_Zone_Entry::`RTTI Base Class Descriptor at (0,-1,0,64)'
PUBLIC	??_R4JFW_Zone_Send_Custom_Enable@@6B@		; JFW_Zone_Send_Custom_Enable::`RTTI Complete Object Locator'
PUBLIC	??_R0?AVJFW_Zone_Send_Custom_Enable@@@8		; JFW_Zone_Send_Custom_Enable `RTTI Type Descriptor'
PUBLIC	??_R3JFW_Zone_Send_Custom_Enable@@8		; JFW_Zone_Send_Custom_Enable::`RTTI Class Hierarchy Descriptor'
PUBLIC	??_R2JFW_Zone_Send_Custom_Enable@@8		; JFW_Zone_Send_Custom_Enable::`RTTI Base Class Array'
PUBLIC	??_R1A@?0A@EA@JFW_Zone_Send_Custom_Enable@@8	; JFW_Zone_Send_Custom_Enable::`RTTI Base Class Descriptor at (0,-1,0,64)'
PUBLIC	??_R4JFW_Zone_Send_Custom_Preset@@6B@		; JFW_Zone_Send_Custom_Preset::`RTTI Complete Object Locator'
PUBLIC	??_R0?AVJFW_Zone_Send_Custom_Preset@@@8		; JFW_Zone_Send_Custom_Preset `RTTI Type Descriptor'
PUBLIC	??_R3JFW_Zone_Send_Custom_Preset@@8		; JFW_Zone_Send_Custom_Preset::`RTTI Class Hierarchy Descriptor'
PUBLIC	??_R2JFW_Zone_Send_Custom_Preset@@8		; JFW_Zone_Send_Custom_Preset::`RTTI Base Class Array'
PUBLIC	??_R1A@?0A@EA@JFW_Zone_Send_Custom_Preset@@8	; JFW_Zone_Send_Custom_Preset::`RTTI Base Class Descriptor at (0,-1,0,64)'
PUBLIC	??_R4JFW_Zone_Send_Custom_Enable_Enter@@6B@	; JFW_Zone_Send_Custom_Enable_Enter::`RTTI Complete Object Locator'
PUBLIC	??_R0?AVJFW_Zone_Send_Custom_Enable_Enter@@@8	; JFW_Zone_Send_Custom_Enable_Enter `RTTI Type Descriptor'
PUBLIC	??_R3JFW_Zone_Send_Custom_Enable_Enter@@8	; JFW_Zone_Send_Custom_Enable_Enter::`RTTI Class Hierarchy Descriptor'
PUBLIC	??_R2JFW_Zone_Send_Custom_Enable_Enter@@8	; JFW_Zone_Send_Custom_Enable_Enter::`RTTI Base Class Array'
PUBLIC	??_R1A@?0A@EA@JFW_Zone_Send_Custom_Enable_Enter@@8 ; JFW_Zone_Send_Custom_Enable_Enter::`RTTI Base Class Descriptor at (0,-1,0,64)'
PUBLIC	??_R4JFW_Zone_Send_Custom_Preset_Enter@@6B@	; JFW_Zone_Send_Custom_Preset_Enter::`RTTI Complete Object Locator'
PUBLIC	??_R0?AVJFW_Zone_Send_Custom_Preset_Enter@@@8	; JFW_Zone_Send_Custom_Preset_Enter `RTTI Type Descriptor'
PUBLIC	??_R3JFW_Zone_Send_Custom_Preset_Enter@@8	; JFW_Zone_Send_Custom_Preset_Enter::`RTTI Class Hierarchy Descriptor'
PUBLIC	??_R2JFW_Zone_Send_Custom_Preset_Enter@@8	; JFW_Zone_Send_Custom_Preset_Enter::`RTTI Base Class Array'
PUBLIC	??_R1A@?0A@EA@JFW_Zone_Send_Custom_Preset_Enter@@8 ; JFW_Zone_Send_Custom_Preset_Enter::`RTTI Base Class Descriptor at (0,-1,0,64)'
PUBLIC	??_R4JFW_Send_Custom_Zone_Enter@@6B@		; JFW_Send_Custom_Zone_Enter::`RTTI Complete Object Locator'
PUBLIC	??_R0?AVJFW_Send_Custom_Zone_Enter@@@8		; JFW_Send_Custom_Zone_Enter `RTTI Type Descriptor'
PUBLIC	??_R3JFW_Send_Custom_Zone_Enter@@8		; JFW_Send_Custom_Zone_Enter::`RTTI Class Hierarchy Descriptor'
PUBLIC	??_R2JFW_Send_Custom_Zone_Enter@@8		; JFW_Send_Custom_Zone_Enter::`RTTI Base Class Array'
PUBLIC	??_R1A@?0A@EA@JFW_Send_Custom_Zone_Enter@@8	; JFW_Send_Custom_Zone_Enter::`RTTI Base Class Descriptor at (0,-1,0,64)'
PUBLIC	??_R4JFW_Gate_Zone@@6B@				; JFW_Gate_Zone::`RTTI Complete Object Locator'
PUBLIC	??_R0?AVJFW_Gate_Zone@@@8			; JFW_Gate_Zone `RTTI Type Descriptor'
PUBLIC	??_R3JFW_Gate_Zone@@8				; JFW_Gate_Zone::`RTTI Class Hierarchy Descriptor'
PUBLIC	??_R2JFW_Gate_Zone@@8				; JFW_Gate_Zone::`RTTI Base Class Array'
PUBLIC	??_R1A@?0A@EA@JFW_Gate_Zone@@8			; JFW_Gate_Zone::`RTTI Base Class Descriptor at (0,-1,0,64)'
PUBLIC	??_R4JFW_Repair_Zone@@6B@			; JFW_Repair_Zone::`RTTI Complete Object Locator'
PUBLIC	??_R0?AVJFW_Repair_Zone@@@8			; JFW_Repair_Zone `RTTI Type Descriptor'
PUBLIC	??_R3JFW_Repair_Zone@@8				; JFW_Repair_Zone::`RTTI Class Hierarchy Descriptor'
PUBLIC	??_R2JFW_Repair_Zone@@8				; JFW_Repair_Zone::`RTTI Base Class Array'
PUBLIC	??_R1A@?0A@EA@JFW_Repair_Zone@@8		; JFW_Repair_Zone::`RTTI Base Class Descriptor at (0,-1,0,64)'
PUBLIC	??_R4JFW_Repair_Zone_Aircraft_Only@@6B@		; JFW_Repair_Zone_Aircraft_Only::`RTTI Complete Object Locator'
PUBLIC	??_R0?AVJFW_Repair_Zone_Aircraft_Only@@@8	; JFW_Repair_Zone_Aircraft_Only `RTTI Type Descriptor'
PUBLIC	??_R3JFW_Repair_Zone_Aircraft_Only@@8		; JFW_Repair_Zone_Aircraft_Only::`RTTI Class Hierarchy Descriptor'
PUBLIC	??_R2JFW_Repair_Zone_Aircraft_Only@@8		; JFW_Repair_Zone_Aircraft_Only::`RTTI Base Class Array'
PUBLIC	??_R1A@?0A@EA@JFW_Repair_Zone_Aircraft_Only@@8	; JFW_Repair_Zone_Aircraft_Only::`RTTI Base Class Descriptor at (0,-1,0,64)'
PUBLIC	??_R4JFW_Repair_Zone_No_Aircraft@@6B@		; JFW_Repair_Zone_No_Aircraft::`RTTI Complete Object Locator'
PUBLIC	??_R0?AVJFW_Repair_Zone_No_Aircraft@@@8		; JFW_Repair_Zone_No_Aircraft `RTTI Type Descriptor'
PUBLIC	??_R3JFW_Repair_Zone_No_Aircraft@@8		; JFW_Repair_Zone_No_Aircraft::`RTTI Class Hierarchy Descriptor'
PUBLIC	??_R2JFW_Repair_Zone_No_Aircraft@@8		; JFW_Repair_Zone_No_Aircraft::`RTTI Base Class Array'
PUBLIC	??_R1A@?0A@EA@JFW_Repair_Zone_No_Aircraft@@8	; JFW_Repair_Zone_No_Aircraft::`RTTI Base Class Descriptor at (0,-1,0,64)'
PUBLIC	??_R4JFW_Zone_Send_Custom_Not_Preset@@6B@	; JFW_Zone_Send_Custom_Not_Preset::`RTTI Complete Object Locator'
PUBLIC	??_R0?AVJFW_Zone_Send_Custom_Not_Preset@@@8	; JFW_Zone_Send_Custom_Not_Preset `RTTI Type Descriptor'
PUBLIC	??_R3JFW_Zone_Send_Custom_Not_Preset@@8		; JFW_Zone_Send_Custom_Not_Preset::`RTTI Class Hierarchy Descriptor'
PUBLIC	??_R2JFW_Zone_Send_Custom_Not_Preset@@8		; JFW_Zone_Send_Custom_Not_Preset::`RTTI Base Class Array'
PUBLIC	??_R1A@?0A@EA@JFW_Zone_Send_Custom_Not_Preset@@8 ; JFW_Zone_Send_Custom_Not_Preset::`RTTI Base Class Descriptor at (0,-1,0,64)'
PUBLIC	??_R4JFW_Zone_Send_Custom_Keycard@@6B@		; JFW_Zone_Send_Custom_Keycard::`RTTI Complete Object Locator'
PUBLIC	??_R0?AVJFW_Zone_Send_Custom_Keycard@@@8	; JFW_Zone_Send_Custom_Keycard `RTTI Type Descriptor'
PUBLIC	??_R3JFW_Zone_Send_Custom_Keycard@@8		; JFW_Zone_Send_Custom_Keycard::`RTTI Class Hierarchy Descriptor'
PUBLIC	??_R2JFW_Zone_Send_Custom_Keycard@@8		; JFW_Zone_Send_Custom_Keycard::`RTTI Base Class Array'
PUBLIC	??_R1A@?0A@EA@JFW_Zone_Send_Custom_Keycard@@8	; JFW_Zone_Send_Custom_Keycard::`RTTI Base Class Descriptor at (0,-1,0,64)'
PUBLIC	??_R4JFW_Heal_Zone@@6B@				; JFW_Heal_Zone::`RTTI Complete Object Locator'
PUBLIC	??_R0?AVJFW_Heal_Zone@@@8			; JFW_Heal_Zone `RTTI Type Descriptor'
PUBLIC	??_R3JFW_Heal_Zone@@8				; JFW_Heal_Zone::`RTTI Class Hierarchy Descriptor'
PUBLIC	??_R2JFW_Heal_Zone@@8				; JFW_Heal_Zone::`RTTI Base Class Array'
PUBLIC	??_R1A@?0A@EA@JFW_Heal_Zone@@8			; JFW_Heal_Zone::`RTTI Base Class Descriptor at (0,-1,0,64)'
PUBLIC	??_R4JFW_Heal_Zone_2@@6B@			; JFW_Heal_Zone_2::`RTTI Complete Object Locator'
PUBLIC	??_R0?AVJFW_Heal_Zone_2@@@8			; JFW_Heal_Zone_2 `RTTI Type Descriptor'
PUBLIC	??_R3JFW_Heal_Zone_2@@8				; JFW_Heal_Zone_2::`RTTI Class Hierarchy Descriptor'
PUBLIC	??_R2JFW_Heal_Zone_2@@8				; JFW_Heal_Zone_2::`RTTI Base Class Array'
PUBLIC	??_R1A@?0A@EA@JFW_Heal_Zone_2@@8		; JFW_Heal_Zone_2::`RTTI Base Class Descriptor at (0,-1,0,64)'
PUBLIC	??_R4JFW_Disable_Transitions_Zone@@6B@		; JFW_Disable_Transitions_Zone::`RTTI Complete Object Locator'
PUBLIC	??_R0?AVJFW_Disable_Transitions_Zone@@@8	; JFW_Disable_Transitions_Zone `RTTI Type Descriptor'
PUBLIC	??_R3JFW_Disable_Transitions_Zone@@8		; JFW_Disable_Transitions_Zone::`RTTI Class Hierarchy Descriptor'
PUBLIC	??_R2JFW_Disable_Transitions_Zone@@8		; JFW_Disable_Transitions_Zone::`RTTI Base Class Array'
PUBLIC	??_R1A@?0A@EA@JFW_Disable_Transitions_Zone@@8	; JFW_Disable_Transitions_Zone::`RTTI Base Class Descriptor at (0,-1,0,64)'
PUBLIC	??_R4JFW_Bounce_Zone_Entry_All_Directions@@6B@	; JFW_Bounce_Zone_Entry_All_Directions::`RTTI Complete Object Locator'
PUBLIC	??_R0?AVJFW_Bounce_Zone_Entry_All_Directions@@@8 ; JFW_Bounce_Zone_Entry_All_Directions `RTTI Type Descriptor'
PUBLIC	??_R3JFW_Bounce_Zone_Entry_All_Directions@@8	; JFW_Bounce_Zone_Entry_All_Directions::`RTTI Class Hierarchy Descriptor'
PUBLIC	??_R2JFW_Bounce_Zone_Entry_All_Directions@@8	; JFW_Bounce_Zone_Entry_All_Directions::`RTTI Base Class Array'
PUBLIC	??_R1A@?0A@EA@JFW_Bounce_Zone_Entry_All_Directions@@8 ; JFW_Bounce_Zone_Entry_All_Directions::`RTTI Base Class Descriptor at (0,-1,0,64)'
PUBLIC	??_R4JFW_Zone_Send_Custom_Cost@@6B@		; JFW_Zone_Send_Custom_Cost::`RTTI Complete Object Locator'
PUBLIC	??_R0?AVJFW_Zone_Send_Custom_Cost@@@8		; JFW_Zone_Send_Custom_Cost `RTTI Type Descriptor'
PUBLIC	??_R3JFW_Zone_Send_Custom_Cost@@8		; JFW_Zone_Send_Custom_Cost::`RTTI Class Hierarchy Descriptor'
PUBLIC	??_R2JFW_Zone_Send_Custom_Cost@@8		; JFW_Zone_Send_Custom_Cost::`RTTI Base Class Array'
PUBLIC	??_R1A@?0A@EA@JFW_Zone_Send_Custom_Cost@@8	; JFW_Zone_Send_Custom_Cost::`RTTI Base Class Descriptor at (0,-1,0,64)'
PUBLIC	??_R4JFW_Vechicle_Damage_Zone@@6B@		; JFW_Vechicle_Damage_Zone::`RTTI Complete Object Locator'
PUBLIC	??_R0?AVJFW_Vechicle_Damage_Zone@@@8		; JFW_Vechicle_Damage_Zone `RTTI Type Descriptor'
PUBLIC	??_R3JFW_Vechicle_Damage_Zone@@8		; JFW_Vechicle_Damage_Zone::`RTTI Class Hierarchy Descriptor'
PUBLIC	??_R2JFW_Vechicle_Damage_Zone@@8		; JFW_Vechicle_Damage_Zone::`RTTI Base Class Array'
PUBLIC	??_R1A@?0A@EA@JFW_Vechicle_Damage_Zone@@8	; JFW_Vechicle_Damage_Zone::`RTTI Base Class Descriptor at (0,-1,0,64)'
PUBLIC	??_R4JFW_Weapon_Buy@@6B@			; JFW_Weapon_Buy::`RTTI Complete Object Locator'
PUBLIC	??_R0?AVJFW_Weapon_Buy@@@8			; JFW_Weapon_Buy `RTTI Type Descriptor'
PUBLIC	??_R3JFW_Weapon_Buy@@8				; JFW_Weapon_Buy::`RTTI Class Hierarchy Descriptor'
PUBLIC	??_R2JFW_Weapon_Buy@@8				; JFW_Weapon_Buy::`RTTI Base Class Array'
PUBLIC	??_R1A@?0A@EA@JFW_Weapon_Buy@@8			; JFW_Weapon_Buy::`RTTI Base Class Descriptor at (0,-1,0,64)'
PUBLIC	??_R4JFW_Preset_Buy@@6B@			; JFW_Preset_Buy::`RTTI Complete Object Locator'
PUBLIC	??_R0?AVJFW_Preset_Buy@@@8			; JFW_Preset_Buy `RTTI Type Descriptor'
PUBLIC	??_R3JFW_Preset_Buy@@8				; JFW_Preset_Buy::`RTTI Class Hierarchy Descriptor'
PUBLIC	??_R2JFW_Preset_Buy@@8				; JFW_Preset_Buy::`RTTI Base Class Array'
PUBLIC	??_R1A@?0A@EA@JFW_Preset_Buy@@8			; JFW_Preset_Buy::`RTTI Base Class Descriptor at (0,-1,0,64)'
PUBLIC	??_R4JFW_Zone_Character@@6B@			; JFW_Zone_Character::`RTTI Complete Object Locator'
PUBLIC	??_R0?AVJFW_Zone_Character@@@8			; JFW_Zone_Character `RTTI Type Descriptor'
PUBLIC	??_R3JFW_Zone_Character@@8			; JFW_Zone_Character::`RTTI Class Hierarchy Descriptor'
PUBLIC	??_R2JFW_Zone_Character@@8			; JFW_Zone_Character::`RTTI Base Class Array'
PUBLIC	??_R1A@?0A@EA@JFW_Zone_Character@@8		; JFW_Zone_Character::`RTTI Base Class Descriptor at (0,-1,0,64)'
PUBLIC	??_R4JFW_Zone_Character_Swap@@6B@		; JFW_Zone_Character_Swap::`RTTI Complete Object Locator'
PUBLIC	??_R0?AVJFW_Zone_Character_Swap@@@8		; JFW_Zone_Character_Swap `RTTI Type Descriptor'
PUBLIC	??_R3JFW_Zone_Character_Swap@@8			; JFW_Zone_Character_Swap::`RTTI Class Hierarchy Descriptor'
PUBLIC	??_R2JFW_Zone_Character_Swap@@8			; JFW_Zone_Character_Swap::`RTTI Base Class Array'
PUBLIC	??_R1A@?0A@EA@JFW_Zone_Character_Swap@@8	; JFW_Zone_Character_Swap::`RTTI Base Class Descriptor at (0,-1,0,64)'
PUBLIC	??_R4JFW_Character_Buy@@6B@			; JFW_Character_Buy::`RTTI Complete Object Locator'
PUBLIC	??_R0?AVJFW_Character_Buy@@@8			; JFW_Character_Buy `RTTI Type Descriptor'
PUBLIC	??_R3JFW_Character_Buy@@8			; JFW_Character_Buy::`RTTI Class Hierarchy Descriptor'
PUBLIC	??_R2JFW_Character_Buy@@8			; JFW_Character_Buy::`RTTI Base Class Array'
PUBLIC	??_R1A@?0A@EA@JFW_Character_Buy@@8		; JFW_Character_Buy::`RTTI Base Class Descriptor at (0,-1,0,64)'
PUBLIC	??_R4JFW_Teleport_Zone_Team@@6B@		; JFW_Teleport_Zone_Team::`RTTI Complete Object Locator'
PUBLIC	??_R0?AVJFW_Teleport_Zone_Team@@@8		; JFW_Teleport_Zone_Team `RTTI Type Descriptor'
PUBLIC	??_R3JFW_Teleport_Zone_Team@@8			; JFW_Teleport_Zone_Team::`RTTI Class Hierarchy Descriptor'
PUBLIC	??_R2JFW_Teleport_Zone_Team@@8			; JFW_Teleport_Zone_Team::`RTTI Base Class Array'
PUBLIC	??_R1A@?0A@EA@JFW_Teleport_Zone_Team@@8		; JFW_Teleport_Zone_Team::`RTTI Base Class Descriptor at (0,-1,0,64)'
PUBLIC	??_R4JFW_Repair_Zone_VTOL_Only@@6B@		; JFW_Repair_Zone_VTOL_Only::`RTTI Complete Object Locator'
PUBLIC	??_R0?AVJFW_Repair_Zone_VTOL_Only@@@8		; JFW_Repair_Zone_VTOL_Only `RTTI Type Descriptor'
PUBLIC	??_R3JFW_Repair_Zone_VTOL_Only@@8		; JFW_Repair_Zone_VTOL_Only::`RTTI Class Hierarchy Descriptor'
PUBLIC	??_R2JFW_Repair_Zone_VTOL_Only@@8		; JFW_Repair_Zone_VTOL_Only::`RTTI Base Class Array'
PUBLIC	??_R1A@?0A@EA@JFW_Repair_Zone_VTOL_Only@@8	; JFW_Repair_Zone_VTOL_Only::`RTTI Base Class Descriptor at (0,-1,0,64)'
PUBLIC	??_R4JFW_Repair_Zone_No_VTOL@@6B@		; JFW_Repair_Zone_No_VTOL::`RTTI Complete Object Locator'
PUBLIC	??_R0?AVJFW_Repair_Zone_No_VTOL@@@8		; JFW_Repair_Zone_No_VTOL `RTTI Type Descriptor'
PUBLIC	??_R3JFW_Repair_Zone_No_VTOL@@8			; JFW_Repair_Zone_No_VTOL::`RTTI Class Hierarchy Descriptor'
PUBLIC	??_R2JFW_Repair_Zone_No_VTOL@@8			; JFW_Repair_Zone_No_VTOL::`RTTI Base Class Array'
PUBLIC	??_R1A@?0A@EA@JFW_Repair_Zone_No_VTOL@@8	; JFW_Repair_Zone_No_VTOL::`RTTI Base Class Descriptor at (0,-1,0,64)'
PUBLIC	??_R4JFW_Refill_Buy@@6B@			; JFW_Refill_Buy::`RTTI Complete Object Locator'
PUBLIC	??_R0?AVJFW_Refill_Buy@@@8			; JFW_Refill_Buy `RTTI Type Descriptor'
PUBLIC	??_R3JFW_Refill_Buy@@8				; JFW_Refill_Buy::`RTTI Class Hierarchy Descriptor'
PUBLIC	??_R2JFW_Refill_Buy@@8				; JFW_Refill_Buy::`RTTI Base Class Array'
PUBLIC	??_R1A@?0A@EA@JFW_Refill_Buy@@8			; JFW_Refill_Buy::`RTTI Base Class Descriptor at (0,-1,0,64)'
PUBLIC	??_R4JFW_Powerup_Buy@@6B@			; JFW_Powerup_Buy::`RTTI Complete Object Locator'
PUBLIC	??_R0?AVJFW_Powerup_Buy@@@8			; JFW_Powerup_Buy `RTTI Type Descriptor'
PUBLIC	??_R3JFW_Powerup_Buy@@8				; JFW_Powerup_Buy::`RTTI Class Hierarchy Descriptor'
PUBLIC	??_R2JFW_Powerup_Buy@@8				; JFW_Powerup_Buy::`RTTI Base Class Array'
PUBLIC	??_R1A@?0A@EA@JFW_Powerup_Buy@@8		; JFW_Powerup_Buy::`RTTI Base Class Descriptor at (0,-1,0,64)'
PUBLIC	??_R4JFW_Vehicle_Buy@@6B@			; JFW_Vehicle_Buy::`RTTI Complete Object Locator'
PUBLIC	??_R0?AVJFW_Vehicle_Buy@@@8			; JFW_Vehicle_Buy `RTTI Type Descriptor'
PUBLIC	??_R3JFW_Vehicle_Buy@@8				; JFW_Vehicle_Buy::`RTTI Class Hierarchy Descriptor'
PUBLIC	??_R2JFW_Vehicle_Buy@@8				; JFW_Vehicle_Buy::`RTTI Base Class Array'
PUBLIC	??_R1A@?0A@EA@JFW_Vehicle_Buy@@8		; JFW_Vehicle_Buy::`RTTI Base Class Descriptor at (0,-1,0,64)'
PUBLIC	??_R4JFW_Zone_Vehicle@@6B@			; JFW_Zone_Vehicle::`RTTI Complete Object Locator'
PUBLIC	??_R0?AVJFW_Zone_Vehicle@@@8			; JFW_Zone_Vehicle `RTTI Type Descriptor'
PUBLIC	??_R3JFW_Zone_Vehicle@@8			; JFW_Zone_Vehicle::`RTTI Class Hierarchy Descriptor'
PUBLIC	??_R2JFW_Zone_Vehicle@@8			; JFW_Zone_Vehicle::`RTTI Base Class Array'
PUBLIC	??_R1A@?0A@EA@JFW_Zone_Vehicle@@8		; JFW_Zone_Vehicle::`RTTI Base Class Descriptor at (0,-1,0,64)'
PUBLIC	??_R4JFW_Zone_Powerup@@6B@			; JFW_Zone_Powerup::`RTTI Complete Object Locator'
PUBLIC	??_R0?AVJFW_Zone_Powerup@@@8			; JFW_Zone_Powerup `RTTI Type Descriptor'
PUBLIC	??_R3JFW_Zone_Powerup@@8			; JFW_Zone_Powerup::`RTTI Class Hierarchy Descriptor'
PUBLIC	??_R2JFW_Zone_Powerup@@8			; JFW_Zone_Powerup::`RTTI Base Class Array'
PUBLIC	??_R1A@?0A@EA@JFW_Zone_Powerup@@8		; JFW_Zone_Powerup::`RTTI Base Class Descriptor at (0,-1,0,64)'
PUBLIC	??_R4JFW_Zone_Refill@@6B@			; JFW_Zone_Refill::`RTTI Complete Object Locator'
PUBLIC	??_R0?AVJFW_Zone_Refill@@@8			; JFW_Zone_Refill `RTTI Type Descriptor'
PUBLIC	??_R3JFW_Zone_Refill@@8				; JFW_Zone_Refill::`RTTI Class Hierarchy Descriptor'
PUBLIC	??_R2JFW_Zone_Refill@@8				; JFW_Zone_Refill::`RTTI Base Class Array'
PUBLIC	??_R1A@?0A@EA@JFW_Zone_Refill@@8		; JFW_Zone_Refill::`RTTI Base Class Descriptor at (0,-1,0,64)'
PUBLIC	??_R4JFW_Zone_Send_Custom_Team@@6B@		; JFW_Zone_Send_Custom_Team::`RTTI Complete Object Locator'
PUBLIC	??_R0?AVJFW_Zone_Send_Custom_Team@@@8		; JFW_Zone_Send_Custom_Team `RTTI Type Descriptor'
PUBLIC	??_R3JFW_Zone_Send_Custom_Team@@8		; JFW_Zone_Send_Custom_Team::`RTTI Class Hierarchy Descriptor'
PUBLIC	??_R2JFW_Zone_Send_Custom_Team@@8		; JFW_Zone_Send_Custom_Team::`RTTI Base Class Array'
PUBLIC	??_R1A@?0A@EA@JFW_Zone_Send_Custom_Team@@8	; JFW_Zone_Send_Custom_Team::`RTTI Base Class Descriptor at (0,-1,0,64)'
PUBLIC	??_R4JFW_Zone_Animation@@6B@			; JFW_Zone_Animation::`RTTI Complete Object Locator'
PUBLIC	??_R0?AVJFW_Zone_Animation@@@8			; JFW_Zone_Animation `RTTI Type Descriptor'
PUBLIC	??_R3JFW_Zone_Animation@@8			; JFW_Zone_Animation::`RTTI Class Hierarchy Descriptor'
PUBLIC	??_R2JFW_Zone_Animation@@8			; JFW_Zone_Animation::`RTTI Base Class Array'
PUBLIC	??_R1A@?0A@EA@JFW_Zone_Animation@@8		; JFW_Zone_Animation::`RTTI Base Class Descriptor at (0,-1,0,64)'
PUBLIC	??_R4JFW_Group_Purchase_Zone@@6B@		; JFW_Group_Purchase_Zone::`RTTI Complete Object Locator'
PUBLIC	??_R0?AVJFW_Group_Purchase_Zone@@@8		; JFW_Group_Purchase_Zone `RTTI Type Descriptor'
PUBLIC	??_R3JFW_Group_Purchase_Zone@@8			; JFW_Group_Purchase_Zone::`RTTI Class Hierarchy Descriptor'
PUBLIC	??_R2JFW_Group_Purchase_Zone@@8			; JFW_Group_Purchase_Zone::`RTTI Base Class Array'
PUBLIC	??_R1A@?0A@EA@JFW_Group_Purchase_Zone@@8	; JFW_Group_Purchase_Zone::`RTTI Base Class Descriptor at (0,-1,0,64)'
PUBLIC	??_R4JFW_Zone_Timer@@6B@			; JFW_Zone_Timer::`RTTI Complete Object Locator'
PUBLIC	??_R0?AVJFW_Zone_Timer@@@8			; JFW_Zone_Timer `RTTI Type Descriptor'
PUBLIC	??_R3JFW_Zone_Timer@@8				; JFW_Zone_Timer::`RTTI Class Hierarchy Descriptor'
PUBLIC	??_R2JFW_Zone_Timer@@8				; JFW_Zone_Timer::`RTTI Base Class Array'
PUBLIC	??_R1A@?0A@EA@JFW_Zone_Timer@@8			; JFW_Zone_Timer::`RTTI Base Class Descriptor at (0,-1,0,64)'
PUBLIC	??_R4JFW_Gate_Zone_2@@6B@			; JFW_Gate_Zone_2::`RTTI Complete Object Locator'
PUBLIC	??_R0?AVJFW_Gate_Zone_2@@@8			; JFW_Gate_Zone_2 `RTTI Type Descriptor'
PUBLIC	??_R3JFW_Gate_Zone_2@@8				; JFW_Gate_Zone_2::`RTTI Class Hierarchy Descriptor'
PUBLIC	??_R2JFW_Gate_Zone_2@@8				; JFW_Gate_Zone_2::`RTTI Base Class Array'
PUBLIC	??_R1A@?0A@EA@JFW_Gate_Zone_2@@8		; JFW_Gate_Zone_2::`RTTI Base Class Descriptor at (0,-1,0,64)'
PUBLIC	??_R4JFW_Blow_Up_On_Enter@@6B@			; JFW_Blow_Up_On_Enter::`RTTI Complete Object Locator'
PUBLIC	??_R0?AVJFW_Blow_Up_On_Enter@@@8		; JFW_Blow_Up_On_Enter `RTTI Type Descriptor'
PUBLIC	??_R3JFW_Blow_Up_On_Enter@@8			; JFW_Blow_Up_On_Enter::`RTTI Class Hierarchy Descriptor'
PUBLIC	??_R2JFW_Blow_Up_On_Enter@@8			; JFW_Blow_Up_On_Enter::`RTTI Base Class Array'
PUBLIC	??_R1A@?0A@EA@JFW_Blow_Up_On_Enter@@8		; JFW_Blow_Up_On_Enter::`RTTI Base Class Descriptor at (0,-1,0,64)'
PUBLIC	??_R4JFW_Blow_Up_On_Enter_Delay@@6B@		; JFW_Blow_Up_On_Enter_Delay::`RTTI Complete Object Locator'
PUBLIC	??_R0?AVJFW_Blow_Up_On_Enter_Delay@@@8		; JFW_Blow_Up_On_Enter_Delay `RTTI Type Descriptor'
PUBLIC	??_R3JFW_Blow_Up_On_Enter_Delay@@8		; JFW_Blow_Up_On_Enter_Delay::`RTTI Class Hierarchy Descriptor'
PUBLIC	??_R2JFW_Blow_Up_On_Enter_Delay@@8		; JFW_Blow_Up_On_Enter_Delay::`RTTI Base Class Array'
PUBLIC	??_R1A@?0A@EA@JFW_Blow_Up_On_Enter_Delay@@8	; JFW_Blow_Up_On_Enter_Delay::`RTTI Base Class Descriptor at (0,-1,0,64)'
PUBLIC	??_R4JFW_Apply_Damage_On_Enter@@6B@		; JFW_Apply_Damage_On_Enter::`RTTI Complete Object Locator'
PUBLIC	??_R0?AVJFW_Apply_Damage_On_Enter@@@8		; JFW_Apply_Damage_On_Enter `RTTI Type Descriptor'
PUBLIC	??_R3JFW_Apply_Damage_On_Enter@@8		; JFW_Apply_Damage_On_Enter::`RTTI Class Hierarchy Descriptor'
PUBLIC	??_R2JFW_Apply_Damage_On_Enter@@8		; JFW_Apply_Damage_On_Enter::`RTTI Base Class Array'
PUBLIC	??_R1A@?0A@EA@JFW_Apply_Damage_On_Enter@@8	; JFW_Apply_Damage_On_Enter::`RTTI Base Class Descriptor at (0,-1,0,64)'
PUBLIC	??_R4JFW_Apply_Damage_On_Enter_Timer@@6B@	; JFW_Apply_Damage_On_Enter_Timer::`RTTI Complete Object Locator'
PUBLIC	??_R0?AVJFW_Apply_Damage_On_Enter_Timer@@@8	; JFW_Apply_Damage_On_Enter_Timer `RTTI Type Descriptor'
PUBLIC	??_R3JFW_Apply_Damage_On_Enter_Timer@@8		; JFW_Apply_Damage_On_Enter_Timer::`RTTI Class Hierarchy Descriptor'
PUBLIC	??_R2JFW_Apply_Damage_On_Enter_Timer@@8		; JFW_Apply_Damage_On_Enter_Timer::`RTTI Base Class Array'
PUBLIC	??_R1A@?0A@EA@JFW_Apply_Damage_On_Enter_Timer@@8 ; JFW_Apply_Damage_On_Enter_Timer::`RTTI Base Class Descriptor at (0,-1,0,64)'
PUBLIC	??_R4JFW_Blow_Up_On_Enter_Random@@6B@		; JFW_Blow_Up_On_Enter_Random::`RTTI Complete Object Locator'
PUBLIC	??_R0?AVJFW_Blow_Up_On_Enter_Random@@@8		; JFW_Blow_Up_On_Enter_Random `RTTI Type Descriptor'
PUBLIC	??_R3JFW_Blow_Up_On_Enter_Random@@8		; JFW_Blow_Up_On_Enter_Random::`RTTI Class Hierarchy Descriptor'
PUBLIC	??_R2JFW_Blow_Up_On_Enter_Random@@8		; JFW_Blow_Up_On_Enter_Random::`RTTI Base Class Array'
PUBLIC	??_R1A@?0A@EA@JFW_Blow_Up_On_Enter_Random@@8	; JFW_Blow_Up_On_Enter_Random::`RTTI Base Class Descriptor at (0,-1,0,64)'
PUBLIC	??_R4JFW_Create_Destroy_Object_On_Enter@@6B@	; JFW_Create_Destroy_Object_On_Enter::`RTTI Complete Object Locator'
PUBLIC	??_R0?AVJFW_Create_Destroy_Object_On_Enter@@@8	; JFW_Create_Destroy_Object_On_Enter `RTTI Type Descriptor'
PUBLIC	??_R3JFW_Create_Destroy_Object_On_Enter@@8	; JFW_Create_Destroy_Object_On_Enter::`RTTI Class Hierarchy Descriptor'
PUBLIC	??_R2JFW_Create_Destroy_Object_On_Enter@@8	; JFW_Create_Destroy_Object_On_Enter::`RTTI Base Class Array'
PUBLIC	??_R1A@?0A@EA@JFW_Create_Destroy_Object_On_Enter@@8 ; JFW_Create_Destroy_Object_On_Enter::`RTTI Base Class Descriptor at (0,-1,0,64)'
PUBLIC	??_R4JFW_Send_Driver_Custom_On_Enter@@6B@	; JFW_Send_Driver_Custom_On_Enter::`RTTI Complete Object Locator'
PUBLIC	??_R0?AVJFW_Send_Driver_Custom_On_Enter@@@8	; JFW_Send_Driver_Custom_On_Enter `RTTI Type Descriptor'
PUBLIC	??_R3JFW_Send_Driver_Custom_On_Enter@@8		; JFW_Send_Driver_Custom_On_Enter::`RTTI Class Hierarchy Descriptor'
PUBLIC	??_R2JFW_Send_Driver_Custom_On_Enter@@8		; JFW_Send_Driver_Custom_On_Enter::`RTTI Base Class Array'
PUBLIC	??_R1A@?0A@EA@JFW_Send_Driver_Custom_On_Enter@@8 ; JFW_Send_Driver_Custom_On_Enter::`RTTI Base Class Descriptor at (0,-1,0,64)'
PUBLIC	??_R4JFW_Stealth_Zone@@6B@			; JFW_Stealth_Zone::`RTTI Complete Object Locator'
PUBLIC	??_R0?AVJFW_Stealth_Zone@@@8			; JFW_Stealth_Zone `RTTI Type Descriptor'
PUBLIC	??_R3JFW_Stealth_Zone@@8			; JFW_Stealth_Zone::`RTTI Class Hierarchy Descriptor'
PUBLIC	??_R2JFW_Stealth_Zone@@8			; JFW_Stealth_Zone::`RTTI Base Class Array'
PUBLIC	??_R1A@?0A@EA@JFW_Stealth_Zone@@8		; JFW_Stealth_Zone::`RTTI Base Class Descriptor at (0,-1,0,64)'
PUBLIC	??_R4JFW_Fog_Zone@@6B@				; JFW_Fog_Zone::`RTTI Complete Object Locator'
PUBLIC	??_R0?AVJFW_Fog_Zone@@@8			; JFW_Fog_Zone `RTTI Type Descriptor'
PUBLIC	??_R3JFW_Fog_Zone@@8				; JFW_Fog_Zone::`RTTI Class Hierarchy Descriptor'
PUBLIC	??_R2JFW_Fog_Zone@@8				; JFW_Fog_Zone::`RTTI Base Class Array'
PUBLIC	??_R1A@?0A@EA@JFW_Fog_Zone@@8			; JFW_Fog_Zone::`RTTI Base Class Descriptor at (0,-1,0,64)'
PUBLIC	??_R4JFW_War_Blitz_Zone@@6B@			; JFW_War_Blitz_Zone::`RTTI Complete Object Locator'
PUBLIC	??_R0?AVJFW_War_Blitz_Zone@@@8			; JFW_War_Blitz_Zone `RTTI Type Descriptor'
PUBLIC	??_R3JFW_War_Blitz_Zone@@8			; JFW_War_Blitz_Zone::`RTTI Class Hierarchy Descriptor'
PUBLIC	??_R2JFW_War_Blitz_Zone@@8			; JFW_War_Blitz_Zone::`RTTI Base Class Array'
PUBLIC	??_R1A@?0A@EA@JFW_War_Blitz_Zone@@8		; JFW_War_Blitz_Zone::`RTTI Base Class Descriptor at (0,-1,0,64)'
PUBLIC	??_R4JFW_Heavy_Vehicle_Damage_Zone@@6B@		; JFW_Heavy_Vehicle_Damage_Zone::`RTTI Complete Object Locator'
PUBLIC	??_R0?AVJFW_Heavy_Vehicle_Damage_Zone@@@8	; JFW_Heavy_Vehicle_Damage_Zone `RTTI Type Descriptor'
PUBLIC	??_R3JFW_Heavy_Vehicle_Damage_Zone@@8		; JFW_Heavy_Vehicle_Damage_Zone::`RTTI Class Hierarchy Descriptor'
PUBLIC	??_R2JFW_Heavy_Vehicle_Damage_Zone@@8		; JFW_Heavy_Vehicle_Damage_Zone::`RTTI Base Class Array'
PUBLIC	??_R1A@?0A@EA@JFW_Heavy_Vehicle_Damage_Zone@@8	; JFW_Heavy_Vehicle_Damage_Zone::`RTTI Base Class Descriptor at (0,-1,0,64)'
PUBLIC	??_R4JFW_Light_Vehicle_Damage_Zone@@6B@		; JFW_Light_Vehicle_Damage_Zone::`RTTI Complete Object Locator'
PUBLIC	??_R0?AVJFW_Light_Vehicle_Damage_Zone@@@8	; JFW_Light_Vehicle_Damage_Zone `RTTI Type Descriptor'
PUBLIC	??_R3JFW_Light_Vehicle_Damage_Zone@@8		; JFW_Light_Vehicle_Damage_Zone::`RTTI Class Hierarchy Descriptor'
PUBLIC	??_R2JFW_Light_Vehicle_Damage_Zone@@8		; JFW_Light_Vehicle_Damage_Zone::`RTTI Base Class Array'
PUBLIC	??_R1A@?0A@EA@JFW_Light_Vehicle_Damage_Zone@@8	; JFW_Light_Vehicle_Damage_Zone::`RTTI Base Class Descriptor at (0,-1,0,64)'
PUBLIC	??_R4JFW_2D_Sound_Zone@@6B@			; JFW_2D_Sound_Zone::`RTTI Complete Object Locator'
PUBLIC	??_R0?AVJFW_2D_Sound_Zone@@@8			; JFW_2D_Sound_Zone `RTTI Type Descriptor'
PUBLIC	??_R3JFW_2D_Sound_Zone@@8			; JFW_2D_Sound_Zone::`RTTI Class Hierarchy Descriptor'
PUBLIC	??_R2JFW_2D_Sound_Zone@@8			; JFW_2D_Sound_Zone::`RTTI Base Class Array'
PUBLIC	??_R1A@?0A@EA@JFW_2D_Sound_Zone@@8		; JFW_2D_Sound_Zone::`RTTI Base Class Descriptor at (0,-1,0,64)'
PUBLIC	??_R4JFW_Zone_Send_Custom_Multiple@@6B@		; JFW_Zone_Send_Custom_Multiple::`RTTI Complete Object Locator'
PUBLIC	??_R0?AVJFW_Zone_Send_Custom_Multiple@@@8	; JFW_Zone_Send_Custom_Multiple `RTTI Type Descriptor'
PUBLIC	??_R3JFW_Zone_Send_Custom_Multiple@@8		; JFW_Zone_Send_Custom_Multiple::`RTTI Class Hierarchy Descriptor'
PUBLIC	??_R2JFW_Zone_Send_Custom_Multiple@@8		; JFW_Zone_Send_Custom_Multiple::`RTTI Base Class Array'
PUBLIC	??_R1A@?0A@EA@JFW_Zone_Send_Custom_Multiple@@8	; JFW_Zone_Send_Custom_Multiple::`RTTI Base Class Descriptor at (0,-1,0,64)'
PUBLIC	??_R4JFW_Zone_Send_Custom_Enter@@6B@		; JFW_Zone_Send_Custom_Enter::`RTTI Complete Object Locator'
PUBLIC	??_R0?AVJFW_Zone_Send_Custom_Enter@@@8		; JFW_Zone_Send_Custom_Enter `RTTI Type Descriptor'
PUBLIC	??_R3JFW_Zone_Send_Custom_Enter@@8		; JFW_Zone_Send_Custom_Enter::`RTTI Class Hierarchy Descriptor'
PUBLIC	??_R2JFW_Zone_Send_Custom_Enter@@8		; JFW_Zone_Send_Custom_Enter::`RTTI Base Class Array'
PUBLIC	??_R1A@?0A@EA@JFW_Zone_Send_Custom_Enter@@8	; JFW_Zone_Send_Custom_Enter::`RTTI Base Class Descriptor at (0,-1,0,64)'
PUBLIC	??_R4JFW_Zone_Send_Custom_Exit@@6B@		; JFW_Zone_Send_Custom_Exit::`RTTI Complete Object Locator'
PUBLIC	??_R0?AVJFW_Zone_Send_Custom_Exit@@@8		; JFW_Zone_Send_Custom_Exit `RTTI Type Descriptor'
PUBLIC	??_R3JFW_Zone_Send_Custom_Exit@@8		; JFW_Zone_Send_Custom_Exit::`RTTI Class Hierarchy Descriptor'
PUBLIC	??_R2JFW_Zone_Send_Custom_Exit@@8		; JFW_Zone_Send_Custom_Exit::`RTTI Base Class Array'
PUBLIC	??_R1A@?0A@EA@JFW_Zone_Send_Custom_Exit@@8	; JFW_Zone_Send_Custom_Exit::`RTTI Base Class Descriptor at (0,-1,0,64)'
PUBLIC	??_R4JFW_Vehicle_Zone_Animation@@6B@		; JFW_Vehicle_Zone_Animation::`RTTI Complete Object Locator'
PUBLIC	??_R0?AVJFW_Vehicle_Zone_Animation@@@8		; JFW_Vehicle_Zone_Animation `RTTI Type Descriptor'
PUBLIC	??_R3JFW_Vehicle_Zone_Animation@@8		; JFW_Vehicle_Zone_Animation::`RTTI Class Hierarchy Descriptor'
PUBLIC	??_R2JFW_Vehicle_Zone_Animation@@8		; JFW_Vehicle_Zone_Animation::`RTTI Base Class Array'
PUBLIC	??_R1A@?0A@EA@JFW_Vehicle_Zone_Animation@@8	; JFW_Vehicle_Zone_Animation::`RTTI Base Class Descriptor at (0,-1,0,64)'
PUBLIC	??_R4JFW_Zone_Money_Preset@@6B@			; JFW_Zone_Money_Preset::`RTTI Complete Object Locator'
PUBLIC	??_R0?AVJFW_Zone_Money_Preset@@@8		; JFW_Zone_Money_Preset `RTTI Type Descriptor'
PUBLIC	??_R3JFW_Zone_Money_Preset@@8			; JFW_Zone_Money_Preset::`RTTI Class Hierarchy Descriptor'
PUBLIC	??_R2JFW_Zone_Money_Preset@@8			; JFW_Zone_Money_Preset::`RTTI Base Class Array'
PUBLIC	??_R1A@?0A@EA@JFW_Zone_Money_Preset@@8		; JFW_Zone_Money_Preset::`RTTI Base Class Descriptor at (0,-1,0,64)'
PUBLIC	??_R4JFW_Look_At_Location_Entry@@6B@		; JFW_Look_At_Location_Entry::`RTTI Complete Object Locator'
PUBLIC	??_R0?AVJFW_Look_At_Location_Entry@@@8		; JFW_Look_At_Location_Entry `RTTI Type Descriptor'
PUBLIC	??_R3JFW_Look_At_Location_Entry@@8		; JFW_Look_At_Location_Entry::`RTTI Class Hierarchy Descriptor'
PUBLIC	??_R2JFW_Look_At_Location_Entry@@8		; JFW_Look_At_Location_Entry::`RTTI Base Class Array'
PUBLIC	??_R1A@?0A@EA@JFW_Look_At_Location_Entry@@8	; JFW_Look_At_Location_Entry::`RTTI Base Class Descriptor at (0,-1,0,64)'
PUBLIC	??_R4JFW_Look_At_Object_Entry@@6B@		; JFW_Look_At_Object_Entry::`RTTI Complete Object Locator'
PUBLIC	??_R0?AVJFW_Look_At_Object_Entry@@@8		; JFW_Look_At_Object_Entry `RTTI Type Descriptor'
PUBLIC	??_R3JFW_Look_At_Object_Entry@@8		; JFW_Look_At_Object_Entry::`RTTI Class Hierarchy Descriptor'
PUBLIC	??_R2JFW_Look_At_Object_Entry@@8		; JFW_Look_At_Object_Entry::`RTTI Base Class Array'
PUBLIC	??_R1A@?0A@EA@JFW_Look_At_Object_Entry@@8	; JFW_Look_At_Object_Entry::`RTTI Base Class Descriptor at (0,-1,0,64)'
PUBLIC	??_R4JFW_3D_Sound_Team_Zone@@6B@		; JFW_3D_Sound_Team_Zone::`RTTI Complete Object Locator'
PUBLIC	??_R0?AVJFW_3D_Sound_Team_Zone@@@8		; JFW_3D_Sound_Team_Zone `RTTI Type Descriptor'
PUBLIC	??_R3JFW_3D_Sound_Team_Zone@@8			; JFW_3D_Sound_Team_Zone::`RTTI Class Hierarchy Descriptor'
PUBLIC	??_R2JFW_3D_Sound_Team_Zone@@8			; JFW_3D_Sound_Team_Zone::`RTTI Base Class Array'
PUBLIC	??_R1A@?0A@EA@JFW_3D_Sound_Team_Zone@@8		; JFW_3D_Sound_Team_Zone::`RTTI Base Class Descriptor at (0,-1,0,64)'
PUBLIC	??_R4JFW_3D_Sound_Player_Zone@@6B@		; JFW_3D_Sound_Player_Zone::`RTTI Complete Object Locator'
PUBLIC	??_R0?AVJFW_3D_Sound_Player_Zone@@@8		; JFW_3D_Sound_Player_Zone `RTTI Type Descriptor'
PUBLIC	??_R3JFW_3D_Sound_Player_Zone@@8		; JFW_3D_Sound_Player_Zone::`RTTI Class Hierarchy Descriptor'
PUBLIC	??_R2JFW_3D_Sound_Player_Zone@@8		; JFW_3D_Sound_Player_Zone::`RTTI Base Class Array'
PUBLIC	??_R1A@?0A@EA@JFW_3D_Sound_Player_Zone@@8	; JFW_3D_Sound_Player_Zone::`RTTI Base Class Descriptor at (0,-1,0,64)'
PUBLIC	??_R4JFW_2D_Sound_Team_Zone@@6B@		; JFW_2D_Sound_Team_Zone::`RTTI Complete Object Locator'
PUBLIC	??_R0?AVJFW_2D_Sound_Team_Zone@@@8		; JFW_2D_Sound_Team_Zone `RTTI Type Descriptor'
PUBLIC	??_R3JFW_2D_Sound_Team_Zone@@8			; JFW_2D_Sound_Team_Zone::`RTTI Class Hierarchy Descriptor'
PUBLIC	??_R2JFW_2D_Sound_Team_Zone@@8			; JFW_2D_Sound_Team_Zone::`RTTI Base Class Array'
PUBLIC	??_R1A@?0A@EA@JFW_2D_Sound_Team_Zone@@8		; JFW_2D_Sound_Team_Zone::`RTTI Base Class Descriptor at (0,-1,0,64)'
PUBLIC	??_R4JFW_2D_Sound_Player_Zone@@6B@		; JFW_2D_Sound_Player_Zone::`RTTI Complete Object Locator'
PUBLIC	??_R0?AVJFW_2D_Sound_Player_Zone@@@8		; JFW_2D_Sound_Player_Zone `RTTI Type Descriptor'
PUBLIC	??_R3JFW_2D_Sound_Player_Zone@@8		; JFW_2D_Sound_Player_Zone::`RTTI Class Hierarchy Descriptor'
PUBLIC	??_R2JFW_2D_Sound_Player_Zone@@8		; JFW_2D_Sound_Player_Zone::`RTTI Base Class Array'
PUBLIC	??_R1A@?0A@EA@JFW_2D_Sound_Player_Zone@@8	; JFW_2D_Sound_Player_Zone::`RTTI Base Class Descriptor at (0,-1,0,64)'
PUBLIC	??_R4JFW_Zone_PCT@@6B@				; JFW_Zone_PCT::`RTTI Complete Object Locator'
PUBLIC	??_R0?AVJFW_Zone_PCT@@@8			; JFW_Zone_PCT `RTTI Type Descriptor'
PUBLIC	??_R3JFW_Zone_PCT@@8				; JFW_Zone_PCT::`RTTI Class Hierarchy Descriptor'
PUBLIC	??_R2JFW_Zone_PCT@@8				; JFW_Zone_PCT::`RTTI Base Class Array'
PUBLIC	??_R1A@?0A@EA@JFW_Zone_PCT@@8			; JFW_Zone_PCT::`RTTI Base Class Descriptor at (0,-1,0,64)'
PUBLIC	??_R4JFW_Disable_Radar_Zone@@6B@		; JFW_Disable_Radar_Zone::`RTTI Complete Object Locator'
PUBLIC	??_R0?AVJFW_Disable_Radar_Zone@@@8		; JFW_Disable_Radar_Zone `RTTI Type Descriptor'
PUBLIC	??_R3JFW_Disable_Radar_Zone@@8			; JFW_Disable_Radar_Zone::`RTTI Class Hierarchy Descriptor'
PUBLIC	??_R2JFW_Disable_Radar_Zone@@8			; JFW_Disable_Radar_Zone::`RTTI Base Class Array'
PUBLIC	??_R1A@?0A@EA@JFW_Disable_Radar_Zone@@8		; JFW_Disable_Radar_Zone::`RTTI Base Class Descriptor at (0,-1,0,64)'
PUBLIC	??_R4JFW_PPAGE_Zone@@6B@			; JFW_PPAGE_Zone::`RTTI Complete Object Locator'
PUBLIC	??_R0?AVJFW_PPAGE_Zone@@@8			; JFW_PPAGE_Zone `RTTI Type Descriptor'
PUBLIC	??_R3JFW_PPAGE_Zone@@8				; JFW_PPAGE_Zone::`RTTI Class Hierarchy Descriptor'
PUBLIC	??_R2JFW_PPAGE_Zone@@8				; JFW_PPAGE_Zone::`RTTI Base Class Array'
PUBLIC	??_R1A@?0A@EA@JFW_PPAGE_Zone@@8			; JFW_PPAGE_Zone::`RTTI Base Class Descriptor at (0,-1,0,64)'
PUBLIC	??_R4JFW_MSG_Zone@@6B@				; JFW_MSG_Zone::`RTTI Complete Object Locator'
PUBLIC	??_R0?AVJFW_MSG_Zone@@@8			; JFW_MSG_Zone `RTTI Type Descriptor'
PUBLIC	??_R3JFW_MSG_Zone@@8				; JFW_MSG_Zone::`RTTI Class Hierarchy Descriptor'
PUBLIC	??_R2JFW_MSG_Zone@@8				; JFW_MSG_Zone::`RTTI Base Class Array'
PUBLIC	??_R1A@?0A@EA@JFW_MSG_Zone@@8			; JFW_MSG_Zone::`RTTI Base Class Descriptor at (0,-1,0,64)'
PUBLIC	??_R4JFW_TMSG_Zone@@6B@				; JFW_TMSG_Zone::`RTTI Complete Object Locator'
PUBLIC	??_R0?AVJFW_TMSG_Zone@@@8			; JFW_TMSG_Zone `RTTI Type Descriptor'
PUBLIC	??_R3JFW_TMSG_Zone@@8				; JFW_TMSG_Zone::`RTTI Class Hierarchy Descriptor'
PUBLIC	??_R2JFW_TMSG_Zone@@8				; JFW_TMSG_Zone::`RTTI Base Class Array'
PUBLIC	??_R1A@?0A@EA@JFW_TMSG_Zone@@8			; JFW_TMSG_Zone::`RTTI Base Class Descriptor at (0,-1,0,64)'
PUBLIC	??_R4JFW_Teleport_Zone_Enable@@6B@		; JFW_Teleport_Zone_Enable::`RTTI Complete Object Locator'
PUBLIC	??_R0?AVJFW_Teleport_Zone_Enable@@@8		; JFW_Teleport_Zone_Enable `RTTI Type Descriptor'
PUBLIC	??_R3JFW_Teleport_Zone_Enable@@8		; JFW_Teleport_Zone_Enable::`RTTI Class Hierarchy Descriptor'
PUBLIC	??_R2JFW_Teleport_Zone_Enable@@8		; JFW_Teleport_Zone_Enable::`RTTI Base Class Array'
PUBLIC	??_R1A@?0A@EA@JFW_Teleport_Zone_Enable@@8	; JFW_Teleport_Zone_Enable::`RTTI Base Class Descriptor at (0,-1,0,64)'
PUBLIC	??_R4JFW_Radar_Spy_Zone@@6B@			; JFW_Radar_Spy_Zone::`RTTI Complete Object Locator'
PUBLIC	??_R0?AVJFW_Radar_Spy_Zone@@@8			; JFW_Radar_Spy_Zone `RTTI Type Descriptor'
PUBLIC	??_R3JFW_Radar_Spy_Zone@@8			; JFW_Radar_Spy_Zone::`RTTI Class Hierarchy Descriptor'
PUBLIC	??_R2JFW_Radar_Spy_Zone@@8			; JFW_Radar_Spy_Zone::`RTTI Base Class Array'
PUBLIC	??_R1A@?0A@EA@JFW_Radar_Spy_Zone@@8		; JFW_Radar_Spy_Zone::`RTTI Base Class Descriptor at (0,-1,0,64)'
PUBLIC	??_R4JFW_Radar_Spy_Zone_New@@6B@		; JFW_Radar_Spy_Zone_New::`RTTI Complete Object Locator'
PUBLIC	??_R0?AVJFW_Radar_Spy_Zone_New@@@8		; JFW_Radar_Spy_Zone_New `RTTI Type Descriptor'
PUBLIC	??_R3JFW_Radar_Spy_Zone_New@@8			; JFW_Radar_Spy_Zone_New::`RTTI Class Hierarchy Descriptor'
PUBLIC	??_R2JFW_Radar_Spy_Zone_New@@8			; JFW_Radar_Spy_Zone_New::`RTTI Base Class Array'
PUBLIC	??_R1A@?0A@EA@JFW_Radar_Spy_Zone_New@@8		; JFW_Radar_Spy_Zone_New::`RTTI Base Class Descriptor at (0,-1,0,64)'
PUBLIC	??_R4JFW_2D_Sound_Zone_Team@@6B@		; JFW_2D_Sound_Zone_Team::`RTTI Complete Object Locator'
PUBLIC	??_R0?AVJFW_2D_Sound_Zone_Team@@@8		; JFW_2D_Sound_Zone_Team `RTTI Type Descriptor'
PUBLIC	??_R3JFW_2D_Sound_Zone_Team@@8			; JFW_2D_Sound_Zone_Team::`RTTI Class Hierarchy Descriptor'
PUBLIC	??_R2JFW_2D_Sound_Zone_Team@@8			; JFW_2D_Sound_Zone_Team::`RTTI Base Class Array'
PUBLIC	??_R1A@?0A@EA@JFW_2D_Sound_Zone_Team@@8		; JFW_2D_Sound_Zone_Team::`RTTI Base Class Descriptor at (0,-1,0,64)'
PUBLIC	??_R4JFW_Repair_Zone_2@@6B@			; JFW_Repair_Zone_2::`RTTI Complete Object Locator'
PUBLIC	??_R0?AVJFW_Repair_Zone_2@@@8			; JFW_Repair_Zone_2 `RTTI Type Descriptor'
PUBLIC	??_R3JFW_Repair_Zone_2@@8			; JFW_Repair_Zone_2::`RTTI Class Hierarchy Descriptor'
PUBLIC	??_R2JFW_Repair_Zone_2@@8			; JFW_Repair_Zone_2::`RTTI Base Class Array'
PUBLIC	??_R1A@?0A@EA@JFW_Repair_Zone_2@@8		; JFW_Repair_Zone_2::`RTTI Base Class Descriptor at (0,-1,0,64)'
PUBLIC	??_R4JFW_Repair_Zone_No_Boats@@6B@		; JFW_Repair_Zone_No_Boats::`RTTI Complete Object Locator'
PUBLIC	??_R0?AVJFW_Repair_Zone_No_Boats@@@8		; JFW_Repair_Zone_No_Boats `RTTI Type Descriptor'
PUBLIC	??_R3JFW_Repair_Zone_No_Boats@@8		; JFW_Repair_Zone_No_Boats::`RTTI Class Hierarchy Descriptor'
PUBLIC	??_R2JFW_Repair_Zone_No_Boats@@8		; JFW_Repair_Zone_No_Boats::`RTTI Base Class Array'
PUBLIC	??_R1A@?0A@EA@JFW_Repair_Zone_No_Boats@@8	; JFW_Repair_Zone_No_Boats::`RTTI Base Class Descriptor at (0,-1,0,64)'
PUBLIC	??_R4JFW_Repair_Zone_Boats@@6B@			; JFW_Repair_Zone_Boats::`RTTI Complete Object Locator'
PUBLIC	??_R0?AVJFW_Repair_Zone_Boats@@@8		; JFW_Repair_Zone_Boats `RTTI Type Descriptor'
PUBLIC	??_R3JFW_Repair_Zone_Boats@@8			; JFW_Repair_Zone_Boats::`RTTI Class Hierarchy Descriptor'
PUBLIC	??_R2JFW_Repair_Zone_Boats@@8			; JFW_Repair_Zone_Boats::`RTTI Base Class Array'
PUBLIC	??_R1A@?0A@EA@JFW_Repair_Zone_Boats@@8		; JFW_Repair_Zone_Boats::`RTTI Base Class Descriptor at (0,-1,0,64)'
PUBLIC	??_R4JFW_Sell_Zone@@6B@				; JFW_Sell_Zone::`RTTI Complete Object Locator'
PUBLIC	??_R0?AVJFW_Sell_Zone@@@8			; JFW_Sell_Zone `RTTI Type Descriptor'
PUBLIC	??_R3JFW_Sell_Zone@@8				; JFW_Sell_Zone::`RTTI Class Hierarchy Descriptor'
PUBLIC	??_R2JFW_Sell_Zone@@8				; JFW_Sell_Zone::`RTTI Base Class Array'
PUBLIC	??_R1A@?0A@EA@JFW_Sell_Zone@@8			; JFW_Sell_Zone::`RTTI Base Class Descriptor at (0,-1,0,64)'
PUBLIC	??_R4JFW_Infantry_Force_Composition_Zone@@6B@	; JFW_Infantry_Force_Composition_Zone::`RTTI Complete Object Locator'
PUBLIC	??_R0?AVJFW_Infantry_Force_Composition_Zone@@@8	; JFW_Infantry_Force_Composition_Zone `RTTI Type Descriptor'
PUBLIC	??_R3JFW_Infantry_Force_Composition_Zone@@8	; JFW_Infantry_Force_Composition_Zone::`RTTI Class Hierarchy Descriptor'
PUBLIC	??_R2JFW_Infantry_Force_Composition_Zone@@8	; JFW_Infantry_Force_Composition_Zone::`RTTI Base Class Array'
PUBLIC	??_R1A@?0A@EA@JFW_Infantry_Force_Composition_Zone@@8 ; JFW_Infantry_Force_Composition_Zone::`RTTI Base Class Descriptor at (0,-1,0,64)'
PUBLIC	??_R4JFW_Vehicle_Force_Composition_Zone@@6B@	; JFW_Vehicle_Force_Composition_Zone::`RTTI Complete Object Locator'
PUBLIC	??_R0?AVJFW_Vehicle_Force_Composition_Zone@@@8	; JFW_Vehicle_Force_Composition_Zone `RTTI Type Descriptor'
PUBLIC	??_R3JFW_Vehicle_Force_Composition_Zone@@8	; JFW_Vehicle_Force_Composition_Zone::`RTTI Class Hierarchy Descriptor'
PUBLIC	??_R2JFW_Vehicle_Force_Composition_Zone@@8	; JFW_Vehicle_Force_Composition_Zone::`RTTI Base Class Array'
PUBLIC	??_R1A@?0A@EA@JFW_Vehicle_Force_Composition_Zone@@8 ; JFW_Vehicle_Force_Composition_Zone::`RTTI Base Class Descriptor at (0,-1,0,64)'
PUBLIC	??_R4JFW_Infantry_Force_Composition_Zone_New@@6B@ ; JFW_Infantry_Force_Composition_Zone_New::`RTTI Complete Object Locator'
PUBLIC	??_R0?AVJFW_Infantry_Force_Composition_Zone_New@@@8 ; JFW_Infantry_Force_Composition_Zone_New `RTTI Type Descriptor'
PUBLIC	??_R3JFW_Infantry_Force_Composition_Zone_New@@8	; JFW_Infantry_Force_Composition_Zone_New::`RTTI Class Hierarchy Descriptor'
PUBLIC	??_R2JFW_Infantry_Force_Composition_Zone_New@@8	; JFW_Infantry_Force_Composition_Zone_New::`RTTI Base Class Array'
PUBLIC	??_R1A@?0A@EA@JFW_Infantry_Force_Composition_Zone_New@@8 ; JFW_Infantry_Force_Composition_Zone_New::`RTTI Base Class Descriptor at (0,-1,0,64)'
PUBLIC	??_R4JFW_Vehicle_Force_Composition_Zone_New@@6B@ ; JFW_Vehicle_Force_Composition_Zone_New::`RTTI Complete Object Locator'
PUBLIC	??_R0?AVJFW_Vehicle_Force_Composition_Zone_New@@@8 ; JFW_Vehicle_Force_Composition_Zone_New `RTTI Type Descriptor'
PUBLIC	??_R3JFW_Vehicle_Force_Composition_Zone_New@@8	; JFW_Vehicle_Force_Composition_Zone_New::`RTTI Class Hierarchy Descriptor'
PUBLIC	??_R2JFW_Vehicle_Force_Composition_Zone_New@@8	; JFW_Vehicle_Force_Composition_Zone_New::`RTTI Base Class Array'
PUBLIC	??_R1A@?0A@EA@JFW_Vehicle_Force_Composition_Zone_New@@8 ; JFW_Vehicle_Force_Composition_Zone_New::`RTTI Base Class Descriptor at (0,-1,0,64)'
PUBLIC	??_R4JFW_Resize_Zone@@6B@			; JFW_Resize_Zone::`RTTI Complete Object Locator'
PUBLIC	??_R0?AVJFW_Resize_Zone@@@8			; JFW_Resize_Zone `RTTI Type Descriptor'
PUBLIC	??_R3JFW_Resize_Zone@@8				; JFW_Resize_Zone::`RTTI Class Hierarchy Descriptor'
PUBLIC	??_R2JFW_Resize_Zone@@8				; JFW_Resize_Zone::`RTTI Base Class Array'
PUBLIC	??_R1A@?0A@EA@JFW_Resize_Zone@@8		; JFW_Resize_Zone::`RTTI Base Class Descriptor at (0,-1,0,64)'
PUBLIC	??_R4JFW_Cash_Spy_Zone@@6B@			; JFW_Cash_Spy_Zone::`RTTI Complete Object Locator'
PUBLIC	??_R0?AVJFW_Cash_Spy_Zone@@@8			; JFW_Cash_Spy_Zone `RTTI Type Descriptor'
PUBLIC	??_R3JFW_Cash_Spy_Zone@@8			; JFW_Cash_Spy_Zone::`RTTI Class Hierarchy Descriptor'
PUBLIC	??_R2JFW_Cash_Spy_Zone@@8			; JFW_Cash_Spy_Zone::`RTTI Base Class Array'
PUBLIC	??_R1A@?0A@EA@JFW_Cash_Spy_Zone@@8		; JFW_Cash_Spy_Zone::`RTTI Base Class Descriptor at (0,-1,0,64)'
PUBLIC	??_R4JFW_Power_Spy_Zone@@6B@			; JFW_Power_Spy_Zone::`RTTI Complete Object Locator'
PUBLIC	??_R0?AVJFW_Power_Spy_Zone@@@8			; JFW_Power_Spy_Zone `RTTI Type Descriptor'
PUBLIC	??_R3JFW_Power_Spy_Zone@@8			; JFW_Power_Spy_Zone::`RTTI Class Hierarchy Descriptor'
PUBLIC	??_R2JFW_Power_Spy_Zone@@8			; JFW_Power_Spy_Zone::`RTTI Base Class Array'
PUBLIC	??_R1A@?0A@EA@JFW_Power_Spy_Zone@@8		; JFW_Power_Spy_Zone::`RTTI Base Class Descriptor at (0,-1,0,64)'
PUBLIC	??_R4JFW_Cash_Spy_Zone_New@@6B@			; JFW_Cash_Spy_Zone_New::`RTTI Complete Object Locator'
PUBLIC	??_R0?AVJFW_Cash_Spy_Zone_New@@@8		; JFW_Cash_Spy_Zone_New `RTTI Type Descriptor'
PUBLIC	??_R3JFW_Cash_Spy_Zone_New@@8			; JFW_Cash_Spy_Zone_New::`RTTI Class Hierarchy Descriptor'
PUBLIC	??_R2JFW_Cash_Spy_Zone_New@@8			; JFW_Cash_Spy_Zone_New::`RTTI Base Class Array'
PUBLIC	??_R1A@?0A@EA@JFW_Cash_Spy_Zone_New@@8		; JFW_Cash_Spy_Zone_New::`RTTI Base Class Descriptor at (0,-1,0,64)'
PUBLIC	??_R4JFW_Power_Spy_Zone_New@@6B@		; JFW_Power_Spy_Zone_New::`RTTI Complete Object Locator'
PUBLIC	??_R0?AVJFW_Power_Spy_Zone_New@@@8		; JFW_Power_Spy_Zone_New `RTTI Type Descriptor'
PUBLIC	??_R3JFW_Power_Spy_Zone_New@@8			; JFW_Power_Spy_Zone_New::`RTTI Class Hierarchy Descriptor'
PUBLIC	??_R2JFW_Power_Spy_Zone_New@@8			; JFW_Power_Spy_Zone_New::`RTTI Base Class Array'
PUBLIC	??_R1A@?0A@EA@JFW_Power_Spy_Zone_New@@8		; JFW_Power_Spy_Zone_New::`RTTI Base Class Descriptor at (0,-1,0,64)'
PUBLIC	??_R4JFW_Conyard_Spy_Zone@@6B@			; JFW_Conyard_Spy_Zone::`RTTI Complete Object Locator'
PUBLIC	??_R0?AVJFW_Conyard_Spy_Zone@@@8		; JFW_Conyard_Spy_Zone `RTTI Type Descriptor'
PUBLIC	??_R3JFW_Conyard_Spy_Zone@@8			; JFW_Conyard_Spy_Zone::`RTTI Class Hierarchy Descriptor'
PUBLIC	??_R2JFW_Conyard_Spy_Zone@@8			; JFW_Conyard_Spy_Zone::`RTTI Base Class Array'
PUBLIC	??_R1A@?0A@EA@JFW_Conyard_Spy_Zone@@8		; JFW_Conyard_Spy_Zone::`RTTI Base Class Descriptor at (0,-1,0,64)'
PUBLIC	??_R4JFW_Conyard_Spy_Zone_2@@6B@		; JFW_Conyard_Spy_Zone_2::`RTTI Complete Object Locator'
PUBLIC	??_R0?AVJFW_Conyard_Spy_Zone_2@@@8		; JFW_Conyard_Spy_Zone_2 `RTTI Type Descriptor'
PUBLIC	??_R3JFW_Conyard_Spy_Zone_2@@8			; JFW_Conyard_Spy_Zone_2::`RTTI Class Hierarchy Descriptor'
PUBLIC	??_R2JFW_Conyard_Spy_Zone_2@@8			; JFW_Conyard_Spy_Zone_2::`RTTI Base Class Array'
PUBLIC	??_R1A@?0A@EA@JFW_Conyard_Spy_Zone_2@@8		; JFW_Conyard_Spy_Zone_2::`RTTI Base Class Descriptor at (0,-1,0,64)'
PUBLIC	??_R4JFW_Conyard_Spy_Zone_2_New@@6B@		; JFW_Conyard_Spy_Zone_2_New::`RTTI Complete Object Locator'
PUBLIC	??_R0?AVJFW_Conyard_Spy_Zone_2_New@@@8		; JFW_Conyard_Spy_Zone_2_New `RTTI Type Descriptor'
PUBLIC	??_R3JFW_Conyard_Spy_Zone_2_New@@8		; JFW_Conyard_Spy_Zone_2_New::`RTTI Class Hierarchy Descriptor'
PUBLIC	??_R2JFW_Conyard_Spy_Zone_2_New@@8		; JFW_Conyard_Spy_Zone_2_New::`RTTI Base Class Array'
PUBLIC	??_R1A@?0A@EA@JFW_Conyard_Spy_Zone_2_New@@8	; JFW_Conyard_Spy_Zone_2_New::`RTTI Base Class Descriptor at (0,-1,0,64)'
PUBLIC	??_R4JFW_Custom_Spawn_Zone@@6B@			; JFW_Custom_Spawn_Zone::`RTTI Complete Object Locator'
PUBLIC	??_R0?AVJFW_Custom_Spawn_Zone@@@8		; JFW_Custom_Spawn_Zone `RTTI Type Descriptor'
PUBLIC	??_R3JFW_Custom_Spawn_Zone@@8			; JFW_Custom_Spawn_Zone::`RTTI Class Hierarchy Descriptor'
PUBLIC	??_R2JFW_Custom_Spawn_Zone@@8			; JFW_Custom_Spawn_Zone::`RTTI Base Class Array'
PUBLIC	??_R1A@?0A@EA@JFW_Custom_Spawn_Zone@@8		; JFW_Custom_Spawn_Zone::`RTTI Base Class Descriptor at (0,-1,0,64)'
PUBLIC	??_R4JFW_Spawn_Zone_Created@@6B@		; JFW_Spawn_Zone_Created::`RTTI Complete Object Locator'
PUBLIC	??_R0?AVJFW_Spawn_Zone_Created@@@8		; JFW_Spawn_Zone_Created `RTTI Type Descriptor'
PUBLIC	??_R3JFW_Spawn_Zone_Created@@8			; JFW_Spawn_Zone_Created::`RTTI Class Hierarchy Descriptor'
PUBLIC	??_R2JFW_Spawn_Zone_Created@@8			; JFW_Spawn_Zone_Created::`RTTI Base Class Array'
PUBLIC	??_R1A@?0A@EA@JFW_Spawn_Zone_Created@@8		; JFW_Spawn_Zone_Created::`RTTI Base Class Descriptor at (0,-1,0,64)'
PUBLIC	??_R4JFW_Boat@@6B@				; JFW_Boat::`RTTI Complete Object Locator'
PUBLIC	??_R0?AVJFW_Boat@@@8				; JFW_Boat `RTTI Type Descriptor'
PUBLIC	??_R3JFW_Boat@@8				; JFW_Boat::`RTTI Class Hierarchy Descriptor'
PUBLIC	??_R2JFW_Boat@@8				; JFW_Boat::`RTTI Base Class Array'
PUBLIC	??_R1A@?0A@EA@JFW_Boat@@8			; JFW_Boat::`RTTI Base Class Descriptor at (0,-1,0,64)'
PUBLIC	??_R4JFW_Destroy_Vehicle_Zone@@6B@		; JFW_Destroy_Vehicle_Zone::`RTTI Complete Object Locator'
PUBLIC	??_R0?AVJFW_Destroy_Vehicle_Zone@@@8		; JFW_Destroy_Vehicle_Zone `RTTI Type Descriptor'
PUBLIC	??_R3JFW_Destroy_Vehicle_Zone@@8		; JFW_Destroy_Vehicle_Zone::`RTTI Class Hierarchy Descriptor'
PUBLIC	??_R2JFW_Destroy_Vehicle_Zone@@8		; JFW_Destroy_Vehicle_Zone::`RTTI Base Class Array'
PUBLIC	??_R1A@?0A@EA@JFW_Destroy_Vehicle_Zone@@8	; JFW_Destroy_Vehicle_Zone::`RTTI Base Class Descriptor at (0,-1,0,64)'
PUBLIC	??_R4JFW_Destroy_Vehicle_Zone_Marker@@6B@	; JFW_Destroy_Vehicle_Zone_Marker::`RTTI Complete Object Locator'
PUBLIC	??_R0?AVJFW_Destroy_Vehicle_Zone_Marker@@@8	; JFW_Destroy_Vehicle_Zone_Marker `RTTI Type Descriptor'
PUBLIC	??_R3JFW_Destroy_Vehicle_Zone_Marker@@8		; JFW_Destroy_Vehicle_Zone_Marker::`RTTI Class Hierarchy Descriptor'
PUBLIC	??_R2JFW_Destroy_Vehicle_Zone_Marker@@8		; JFW_Destroy_Vehicle_Zone_Marker::`RTTI Base Class Array'
PUBLIC	??_R1A@?0A@EA@JFW_Destroy_Vehicle_Zone_Marker@@8 ; JFW_Destroy_Vehicle_Zone_Marker::`RTTI Base Class Descriptor at (0,-1,0,64)'
PUBLIC	??_R4?$ScriptRegistrant@VJFW_Look_At_Location_Entry@@@@6B@ ; ScriptRegistrant<JFW_Look_At_Location_Entry>::`RTTI Complete Object Locator'
PUBLIC	??_R0?AV?$ScriptRegistrant@VJFW_Look_At_Location_Entry@@@@@8 ; ScriptRegistrant<JFW_Look_At_Location_Entry> `RTTI Type Descriptor'
PUBLIC	??_R3?$ScriptRegistrant@VJFW_Look_At_Location_Entry@@@@8 ; ScriptRegistrant<JFW_Look_At_Location_Entry>::`RTTI Class Hierarchy Descriptor'
PUBLIC	??_R2?$ScriptRegistrant@VJFW_Look_At_Location_Entry@@@@8 ; ScriptRegistrant<JFW_Look_At_Location_Entry>::`RTTI Base Class Array'
PUBLIC	??_R1A@?0A@EA@?$ScriptRegistrant@VJFW_Look_At_Location_Entry@@@@8 ; ScriptRegistrant<JFW_Look_At_Location_Entry>::`RTTI Base Class Descriptor at (0,-1,0,64)'
PUBLIC	??_R4?$ScriptRegistrant@VJFW_Look_At_Object_Entry@@@@6B@ ; ScriptRegistrant<JFW_Look_At_Object_Entry>::`RTTI Complete Object Locator'
PUBLIC	??_R0?AV?$ScriptRegistrant@VJFW_Look_At_Object_Entry@@@@@8 ; ScriptRegistrant<JFW_Look_At_Object_Entry> `RTTI Type Descriptor'
PUBLIC	??_R3?$ScriptRegistrant@VJFW_Look_At_Object_Entry@@@@8 ; ScriptRegistrant<JFW_Look_At_Object_Entry>::`RTTI Class Hierarchy Descriptor'
PUBLIC	??_R2?$ScriptRegistrant@VJFW_Look_At_Object_Entry@@@@8 ; ScriptRegistrant<JFW_Look_At_Object_Entry>::`RTTI Base Class Array'
PUBLIC	??_R1A@?0A@EA@?$ScriptRegistrant@VJFW_Look_At_Object_Entry@@@@8 ; ScriptRegistrant<JFW_Look_At_Object_Entry>::`RTTI Base Class Descriptor at (0,-1,0,64)'
PUBLIC	??_R4?$ScriptRegistrant@VJFW_Zone_PCT@@@@6B@	; ScriptRegistrant<JFW_Zone_PCT>::`RTTI Complete Object Locator'
PUBLIC	??_R0?AV?$ScriptRegistrant@VJFW_Zone_PCT@@@@@8	; ScriptRegistrant<JFW_Zone_PCT> `RTTI Type Descriptor'
PUBLIC	??_R3?$ScriptRegistrant@VJFW_Zone_PCT@@@@8	; ScriptRegistrant<JFW_Zone_PCT>::`RTTI Class Hierarchy Descriptor'
PUBLIC	??_R2?$ScriptRegistrant@VJFW_Zone_PCT@@@@8	; ScriptRegistrant<JFW_Zone_PCT>::`RTTI Base Class Array'
PUBLIC	??_R1A@?0A@EA@?$ScriptRegistrant@VJFW_Zone_PCT@@@@8 ; ScriptRegistrant<JFW_Zone_PCT>::`RTTI Base Class Descriptor at (0,-1,0,64)'
PUBLIC	??_R4?$ScriptRegistrant@VJFW_3D_Sound_Team_Zone@@@@6B@ ; ScriptRegistrant<JFW_3D_Sound_Team_Zone>::`RTTI Complete Object Locator'
PUBLIC	??_R0?AV?$ScriptRegistrant@VJFW_3D_Sound_Team_Zone@@@@@8 ; ScriptRegistrant<JFW_3D_Sound_Team_Zone> `RTTI Type Descriptor'
PUBLIC	??_R3?$ScriptRegistrant@VJFW_3D_Sound_Team_Zone@@@@8 ; ScriptRegistrant<JFW_3D_Sound_Team_Zone>::`RTTI Class Hierarchy Descriptor'
PUBLIC	??_R2?$ScriptRegistrant@VJFW_3D_Sound_Team_Zone@@@@8 ; ScriptRegistrant<JFW_3D_Sound_Team_Zone>::`RTTI Base Class Array'
PUBLIC	??_R1A@?0A@EA@?$ScriptRegistrant@VJFW_3D_Sound_Team_Zone@@@@8 ; ScriptRegistrant<JFW_3D_Sound_Team_Zone>::`RTTI Base Class Descriptor at (0,-1,0,64)'
PUBLIC	??_R4?$ScriptRegistrant@VJFW_3D_Sound_Player_Zone@@@@6B@ ; ScriptRegistrant<JFW_3D_Sound_Player_Zone>::`RTTI Complete Object Locator'
PUBLIC	??_R0?AV?$ScriptRegistrant@VJFW_3D_Sound_Player_Zone@@@@@8 ; ScriptRegistrant<JFW_3D_Sound_Player_Zone> `RTTI Type Descriptor'
PUBLIC	??_R3?$ScriptRegistrant@VJFW_3D_Sound_Player_Zone@@@@8 ; ScriptRegistrant<JFW_3D_Sound_Player_Zone>::`RTTI Class Hierarchy Descriptor'
