; Listing generated by Microsoft (R) Optimizing Compiler Version 17.00.61219.0 

	TITLE	X:\GitHub\Renegade\Dragonade_RxD\scripts\JMGRenetBusters.cpp
	.686P
	.XMM
	include listing.inc
	.model	flat

INCLUDELIB MSVCRTD
INCLUDELIB OLDNAMES

PUBLIC	?MoonHolderID@JMG_CMTB_Main_Game_Control@@2HA	; JMG_CMTB_Main_Game_Control::MoonHolderID
PUBLIC	?GameInProgress@JMG_CMTB_Main_Game_Control@@2_NA ; JMG_CMTB_Main_Game_Control::GameInProgress
PUBLIC	?CMTBLevel@JMG_CMTB_Main_Game_Control@@2IA	; JMG_CMTB_Main_Game_Control::CMTBLevel
PUBLIC	?PlayerSOSBeaconID@JMG_CMTB_Main_Game_Control@@2IA ; JMG_CMTB_Main_Game_Control::PlayerSOSBeaconID
PUBLIC	?DroneSwarmCount@JMG_CMTB_Main_Game_Control@@2IA ; JMG_CMTB_Main_Game_Control::DroneSwarmCount
PUBLIC	?EndGameSwitchEnabled@JMG_CMTB_Main_Game_Control@@2_NA ; JMG_CMTB_Main_Game_Control::EndGameSwitchEnabled
PUBLIC	?DifficultyMultiplier@JMG_CMTB_Main_Game_Control@@2MA ; JMG_CMTB_Main_Game_Control::DifficultyMultiplier
PUBLIC	?DifficultyMultiplierMine@JMG_CMTB_Main_Game_Control@@2MA ; JMG_CMTB_Main_Game_Control::DifficultyMultiplierMine
PUBLIC	?DifficultyMultiplierInv@JMG_CMTB_Main_Game_Control@@2MA ; JMG_CMTB_Main_Game_Control::DifficultyMultiplierInv
PUBLIC	?IsRenegadeServer@@3_NA				; IsRenegadeServer
PUBLIC	?PlayerRequestingALife@@3PA_NA			; PlayerRequestingALife
PUBLIC	?PerkSystemPerkTypeNodeList@@3PAUPerkSystemPerkTypeNode@@A ; PerkSystemPerkTypeNodeList
PUBLIC	?USEABLEPERKCOUNT@PerkSystemPerkTypeList@@2HA	; PerkSystemPerkTypeList::USEABLEPERKCOUNT
PUBLIC	?PrioritizeTargets@RenCometBustersGameObjects@@0PAHA ; RenCometBustersGameObjects::PrioritizeTargets
PUBLIC	?PlayerPerkListNodes@@3PAPAUPlayerPerksDataNode@@A ; PlayerPerkListNodes
_BSS	SEGMENT
?MoonHolderID@JMG_CMTB_Main_Game_Control@@2HA DD 01H DUP (?) ; JMG_CMTB_Main_Game_Control::MoonHolderID
?GameInProgress@JMG_CMTB_Main_Game_Control@@2_NA DB 01H DUP (?) ; JMG_CMTB_Main_Game_Control::GameInProgress
	ALIGN	4

?CMTBLevel@JMG_CMTB_Main_Game_Control@@2IA DD 01H DUP (?) ; JMG_CMTB_Main_Game_Control::CMTBLevel
?PlayerSOSBeaconID@JMG_CMTB_Main_Game_Control@@2IA DD 01H DUP (?) ; JMG_CMTB_Main_Game_Control::PlayerSOSBeaconID
?DroneSwarmCount@JMG_CMTB_Main_Game_Control@@2IA DD 01H DUP (?) ; JMG_CMTB_Main_Game_Control::DroneSwarmCount
?PlayerRequestingALife@@3PA_NA DB 08H DUP (?)		; PlayerRequestingALife
?PerkSystemPerkTypeNodeList@@3PAUPerkSystemPerkTypeNode@@A DB 0185d0H DUP (?) ; PerkSystemPerkTypeNodeList
?USEABLEPERKCOUNT@PerkSystemPerkTypeList@@2HA DD 01H DUP (?) ; PerkSystemPerkTypeList::USEABLEPERKCOUNT
?PlayerPerkListNodes@@3PAPAUPlayerPerksDataNode@@A DD 080H DUP (?) ; PlayerPerkListNodes
_BSS	ENDS
CONST	SEGMENT
_DONT_MOVE_ARRIVED_DIST DD 0447a0000r		; 1000
CONST	ENDS
_DATA	SEGMENT
?EndGameSwitchEnabled@JMG_CMTB_Main_Game_Control@@2_NA DB 01H ; JMG_CMTB_Main_Game_Control::EndGameSwitchEnabled
?IsRenegadeServer@@3_NA DB 01H				; IsRenegadeServer
	ORG $+2
?DifficultyMultiplier@JMG_CMTB_Main_Game_Control@@2MA DD 03f800000r ; 1 ; JMG_CMTB_Main_Game_Control::DifficultyMultiplier
?DifficultyMultiplierMine@JMG_CMTB_Main_Game_Control@@2MA DD 03f800000r ; 1 ; JMG_CMTB_Main_Game_Control::DifficultyMultiplierMine
?DifficultyMultiplierInv@JMG_CMTB_Main_Game_Control@@2MA DD 03f800000r ; 1 ; JMG_CMTB_Main_Game_Control::DifficultyMultiplierInv
?PrioritizeTargets@RenCometBustersGameObjects@@0PAHA DD 02H ; RenCometBustersGameObjects::PrioritizeTargets
	DD	02H
	DD	00H
	DD	01H
	DD	00H
	DD	03H
	DD	02H
	DD	00H
	DD	02H
	DD	00H
	DD	00H
	DD	01H
	DD	01H
	DD	03H
	DD	02H
	DD	00H
	DD	02H
_DATA	ENDS
PUBLIC	??_H@YGXPAXIHP6EPAX0@Z@Z			; `vector constructor iterator'
PUBLIC	??_I@YGXPAXIHP6EX0@Z@Z				; `vector destructor iterator'
PUBLIC	_fabsf
PUBLIC	_acosf
PUBLIC	_asinf
PUBLIC	_atanf
PUBLIC	_atan2f
PUBLIC	_ceilf
PUBLIC	_cosf
PUBLIC	_floorf
PUBLIC	_sinf
PUBLIC	_sqrtf
PUBLIC	?abs@@YAMM@Z					; abs
PUBLIC	?acos@@YAMM@Z					; acos
PUBLIC	?asin@@YAMM@Z					; asin
PUBLIC	?atan@@YAMM@Z					; atan
PUBLIC	?atan2@@YAMMM@Z					; atan2
PUBLIC	?cos@@YAMM@Z					; cos
PUBLIC	?sin@@YAMM@Z					; sin
PUBLIC	?sqrt@@YAMM@Z					; sqrt
PUBLIC	?Fabs@WWMath@@SAMM@Z				; WWMath::Fabs
PUBLIC	?Float_To_Int_Chop@WWMath@@SAHABM@Z		; WWMath::Float_To_Int_Chop
PUBLIC	?Float_To_Int_Floor@WWMath@@SAHABM@Z		; WWMath::Float_To_Int_Floor
PUBLIC	?Cos@WWMath@@SAMM@Z				; WWMath::Cos
PUBLIC	?Sin@WWMath@@SAMM@Z				; WWMath::Sin
PUBLIC	?Sqrt@WWMath@@SAMM@Z				; WWMath::Sqrt
PUBLIC	?Inv_Sqrt@WWMath@@SIMM@Z			; WWMath::Inv_Sqrt
PUBLIC	?Float_To_Long@WWMath@@SAJM@Z			; WWMath::Float_To_Long
PUBLIC	?Fast_Sin@WWMath@@SAMM@Z			; WWMath::Fast_Sin
PUBLIC	?Fast_Inv_Sin@WWMath@@SAMM@Z			; WWMath::Fast_Inv_Sin
PUBLIC	?Fast_Cos@WWMath@@SAMM@Z			; WWMath::Fast_Cos
PUBLIC	?Fast_Inv_Cos@WWMath@@SAMM@Z			; WWMath::Fast_Inv_Cos
PUBLIC	?Fast_Acos@WWMath@@SAMM@Z			; WWMath::Fast_Acos
PUBLIC	?Fast_Asin@WWMath@@SAMM@Z			; WWMath::Fast_Asin
PUBLIC	?Acos@WWMath@@SAMM@Z				; WWMath::Acos
PUBLIC	?Asin@WWMath@@SAMM@Z				; WWMath::Asin
PUBLIC	?Atan@WWMath@@SAMM@Z				; WWMath::Atan
PUBLIC	?Atan2@WWMath@@SAMMM@Z				; WWMath::Atan2
PUBLIC	?Sign@WWMath@@SAMM@Z				; WWMath::Sign
PUBLIC	?Ceil@WWMath@@SAMM@Z				; WWMath::Ceil
PUBLIC	?Floor@WWMath@@SAMM@Z				; WWMath::Floor
PUBLIC	?Fast_Is_Float_Positive@WWMath@@SA_NABM@Z	; WWMath::Fast_Is_Float_Positive
PUBLIC	?Random_Float@WWMath@@SAMMM@Z			; WWMath::Random_Float
PUBLIC	?Clamp@WWMath@@SAMMMM@Z				; WWMath::Clamp
PUBLIC	?Clamp@WWMath@@SANNNN@Z				; WWMath::Clamp
PUBLIC	?Clamp_Int@WWMath@@SAHHHH@Z			; WWMath::Clamp_Int
PUBLIC	?Wrap@WWMath@@SAMMMM@Z				; WWMath::Wrap
PUBLIC	?Wrap@WWMath@@SANNNN@Z				; WWMath::Wrap
PUBLIC	?Min@WWMath@@SAMMM@Z				; WWMath::Min
PUBLIC	?Max@WWMath@@SAMMM@Z				; WWMath::Max
PUBLIC	?Lerp@WWMath@@SAMMMM@Z				; WWMath::Lerp
PUBLIC	?Lerp@WWMath@@SANNNM@Z				; WWMath::Lerp
PUBLIC	?Lerp@WWMath@@SAHHHM@Z				; WWMath::Lerp
PUBLIC	?Float_To_Long@WWMath@@SAJN@Z			; WWMath::Float_To_Long
PUBLIC	?Unit_Float_To_Byte@WWMath@@SAEM@Z		; WWMath::Unit_Float_To_Byte
PUBLIC	?Byte_To_Unit_Float@WWMath@@SAME@Z		; WWMath::Byte_To_Unit_Float
PUBLIC	?Is_Valid_Float@WWMath@@SA_NM@Z			; WWMath::Is_Valid_Float
PUBLIC	?Is_Valid_Double@WWMath@@SA_NN@Z		; WWMath::Is_Valid_Double
PUBLIC	??4WWMath@@QAEAAV0@ABV0@@Z			; WWMath::operator=
PUBLIC	??B?$RefArrayHelper@M$0EAA@@@QAEPAMXZ		; RefArrayHelper<float,1024>::operator float *
PUBLIC	??0Vector3@@QAE@XZ				; Vector3::Vector3
PUBLIC	??0Vector3@@QAE@ABV0@@Z				; Vector3::Vector3
PUBLIC	??0Vector3@@QAE@MMM@Z				; Vector3::Vector3
PUBLIC	??4Vector3@@QAEAAV0@ABV0@@Z			; Vector3::operator=
PUBLIC	?Set@Vector3@@QAEXMMM@Z				; Vector3::Set
PUBLIC	??AVector3@@QAEAAMH@Z				; Vector3::operator[]
PUBLIC	??AVector3@@QBEABMH@Z				; Vector3::operator[]
PUBLIC	?Normalize@Vector3@@QAEXXZ			; Vector3::Normalize
PUBLIC	?Length@Vector3@@QBEMXZ				; Vector3::Length
PUBLIC	?Length2@Vector3@@QBEMXZ			; Vector3::Length2
PUBLIC	??YVector3@@QAEAAV0@ABV0@@Z			; Vector3::operator+=
PUBLIC	??ZVector3@@QAEAAV0@ABV0@@Z			; Vector3::operator-=
PUBLIC	??XVector3@@QAEAAV0@M@Z				; Vector3::operator*=
PUBLIC	??_0Vector3@@QAEAAV0@M@Z			; Vector3::operator/=
PUBLIC	??D@YA?AVVector3@@ABV0@M@Z			; operator*
PUBLIC	??D@YA?AVVector3@@MABV0@@Z			; operator*
PUBLIC	??H@YA?AVVector3@@ABV0@0@Z			; operator+
PUBLIC	??G@YA?AVVector3@@ABV0@0@Z			; operator-
PUBLIC	?Add@Vector3@@SAXABV1@0PAV1@@Z			; Vector3::Add
PUBLIC	?Subtract@Vector3@@SAXABV1@0PAV1@@Z		; Vector3::Subtract
PUBLIC	?Swap@@YAXAAVVector3@@0@Z			; Swap
PUBLIC	??0GameObjObserverClass@@QAE@XZ			; GameObjObserverClass::GameObjObserverClass
PUBLIC	??1GameObjObserverClass@@UAE@XZ			; GameObjObserverClass::~GameObjObserverClass
PUBLIC	?Set_ID@GameObjObserverClass@@QAEXH@Z		; GameObjObserverClass::Set_ID
PUBLIC	?Get_ID@GameObjObserverClass@@QAEHXZ		; GameObjObserverClass::Get_ID
PUBLIC	?Owner@GameObjObserverClass@@UAEPAVScriptableGameObj@@XZ ; GameObjObserverClass::Owner
PUBLIC	??0GameObjObserverClass@@QAE@ABV0@@Z		; GameObjObserverClass::GameObjObserverClass
PUBLIC	??4GameObjObserverClass@@QAEAAV0@ABV0@@Z	; GameObjObserverClass::operator=
PUBLIC	??_GGameObjObserverClass@@UAEPAXI@Z		; GameObjObserverClass::`scalar deleting destructor'
PUBLIC	??_EGameObjObserverClass@@UAEPAXI@Z		; GameObjObserverClass::`vector deleting destructor'
PUBLIC	??1ScriptClass@@UAE@XZ				; ScriptClass::~ScriptClass
PUBLIC	??0ScriptClass@@QAE@XZ				; ScriptClass::ScriptClass
PUBLIC	??0ScriptClass@@QAE@ABV0@@Z			; ScriptClass::ScriptClass
PUBLIC	??4ScriptClass@@QAEAAV0@ABV0@@Z			; ScriptClass::operator=
PUBLIC	??_GScriptClass@@UAEPAXI@Z			; ScriptClass::`scalar deleting destructor'
PUBLIC	??_EScriptClass@@UAEPAXI@Z			; ScriptClass::`vector deleting destructor'
PUBLIC	?SetFactory@ScriptImpClass@@QAEXPAVScriptFactory@@@Z ; ScriptImpClass::SetFactory
PUBLIC	?Created@ScriptImpClass@@UAEXPAVScriptableGameObj@@@Z ; ScriptImpClass::Created
PUBLIC	?Destroyed@ScriptImpClass@@UAEXPAVScriptableGameObj@@@Z ; ScriptImpClass::Destroyed
PUBLIC	?Killed@ScriptImpClass@@UAEXPAVScriptableGameObj@@0@Z ; ScriptImpClass::Killed
PUBLIC	?Damaged@ScriptImpClass@@UAEXPAVScriptableGameObj@@0M@Z ; ScriptImpClass::Damaged
PUBLIC	?Custom@ScriptImpClass@@UAEXPAVScriptableGameObj@@HH0@Z ; ScriptImpClass::Custom
PUBLIC	?Sound_Heard@ScriptImpClass@@UAEXPAVScriptableGameObj@@ABUCombatSound@@@Z ; ScriptImpClass::Sound_Heard
PUBLIC	?Enemy_Seen@ScriptImpClass@@UAEXPAVScriptableGameObj@@0@Z ; ScriptImpClass::Enemy_Seen
PUBLIC	?Action_Complete@ScriptImpClass@@UAEXPAVScriptableGameObj@@HW4ActionCompleteReason@@@Z ; ScriptImpClass::Action_Complete
PUBLIC	?Timer_Expired@ScriptImpClass@@UAEXPAVScriptableGameObj@@H@Z ; ScriptImpClass::Timer_Expired
PUBLIC	?Animation_Complete@ScriptImpClass@@UAEXPAVScriptableGameObj@@PBD@Z ; ScriptImpClass::Animation_Complete
PUBLIC	?Poked@ScriptImpClass@@UAEXPAVScriptableGameObj@@0@Z ; ScriptImpClass::Poked
PUBLIC	?Entered@ScriptImpClass@@UAEXPAVScriptableGameObj@@0@Z ; ScriptImpClass::Entered
PUBLIC	?Exited@ScriptImpClass@@UAEXPAVScriptableGameObj@@0@Z ; ScriptImpClass::Exited
PUBLIC	?Owner@ScriptImpClass@@UAEPAVScriptableGameObj@@XZ ; ScriptImpClass::Owner
PUBLIC	?Get_Owner_Ptr@ScriptImpClass@@UAEPAPAVScriptableGameObj@@XZ ; ScriptImpClass::Get_Owner_Ptr
PUBLIC	?Save_Data@ScriptImpClass@@UAEXAAVScriptSaver@@@Z ; ScriptImpClass::Save_Data
PUBLIC	?Load_Data@ScriptImpClass@@UAEXAAVScriptLoader@@@Z ; ScriptImpClass::Load_Data
PUBLIC	?Register_Auto_Save_Variables@ScriptImpClass@@UAEXXZ ; ScriptImpClass::Register_Auto_Save_Variables
PUBLIC	?Get_Parameter_Count@ScriptImpClass@@QAEHXZ	; ScriptImpClass::Get_Parameter_Count
PUBLIC	?Get_Int_Parameter@ScriptImpClass@@QAEHH@Z	; ScriptImpClass::Get_Int_Parameter
PUBLIC	?Get_Float_Parameter@ScriptImpClass@@QAEMH@Z	; ScriptImpClass::Get_Float_Parameter
PUBLIC	?Get_Bool_Parameter@ScriptImpClass@@QAE_NPBD@Z	; ScriptImpClass::Get_Bool_Parameter
PUBLIC	?Get_Bool_Parameter@ScriptImpClass@@QAE_NH@Z	; ScriptImpClass::Get_Bool_Parameter
PUBLIC	??0ScriptImpClass@@QAE@ABV0@@Z			; ScriptImpClass::ScriptImpClass
PUBLIC	??4ScriptImpClass@@QAEAAV0@ABV0@@Z		; ScriptImpClass::operator=
PUBLIC	??_GScriptImpClass@@UAEPAXI@Z			; ScriptImpClass::`scalar deleting destructor'
PUBLIC	??_EScriptImpClass@@UAEPAXI@Z			; ScriptImpClass::`vector deleting destructor'
PUBLIC	??0ActionParamsStruct@@QAE@XZ			; ActionParamsStruct::ActionParamsStruct
PUBLIC	?Set_Basic@ActionParamsStruct@@QAEXPAVGameObjObserverClass@@MHW4SoldierAIState@@@Z ; ActionParamsStruct::Set_Basic
PUBLIC	?Set_Movement@ActionParamsStruct@@QAEXABVVector3@@MM_N@Z ; ActionParamsStruct::Set_Movement
PUBLIC	?Set_Movement@ActionParamsStruct@@QAEXPAVScriptableGameObj@@MM_N@Z ; ActionParamsStruct::Set_Movement
PUBLIC	?Set_Attack@ActionParamsStruct@@QAEXABVVector3@@MM_N@Z ; ActionParamsStruct::Set_Attack
PUBLIC	?Set_Attack@ActionParamsStruct@@QAEXPAVScriptableGameObj@@MM_N@Z ; ActionParamsStruct::Set_Attack
PUBLIC	??0ScriptFactory@@QAE@ABV0@@Z			; ScriptFactory::ScriptFactory
PUBLIC	??4ScriptFactory@@QAEAAV0@ABV0@@Z		; ScriptFactory::operator=
PUBLIC	??_GScriptFactory@@UAEPAXI@Z			; ScriptFactory::`scalar deleting destructor'
PUBLIC	??_EScriptFactory@@UAEPAXI@Z			; ScriptFactory::`vector deleting destructor'
PUBLIC	??4ScriptRegistrar@@QAEAAV0@ABV0@@Z		; ScriptRegistrar::operator=
PUBLIC	?Is_Running@ThreadClass@@QAE_NXZ		; ThreadClass::Is_Running
PUBLIC	?Get_Current_Thread_ID@ThreadClass@@SAHXZ	; ThreadClass::Get_Current_Thread_ID
PUBLIC	?Get_Name@ThreadClass@@QAEPBDXZ			; ThreadClass::Get_Name
PUBLIC	??0ThreadClass@@QAE@ABV0@@Z			; ThreadClass::ThreadClass
PUBLIC	??4ThreadClass@@QAEAAV0@ABV0@@Z			; ThreadClass::operator=
PUBLIC	??_GThreadClass@@UAEPAXI@Z			; ThreadClass::`scalar deleting destructor'
PUBLIC	??_EThreadClass@@UAEPAXI@Z			; ThreadClass::`vector deleting destructor'
PUBLIC	??4CriticalSectionClass@@QAEAAV0@ABV0@@Z	; CriticalSectionClass::operator=
PUBLIC	?Enter@FastCriticalSectionClass@@AAEXXZ		; FastCriticalSectionClass::Enter
PUBLIC	?Leave@FastCriticalSectionClass@@AAEXXZ		; FastCriticalSectionClass::Leave
PUBLIC	??0LockClass@FastCriticalSectionClass@@QAE@AAV1@@Z ; FastCriticalSectionClass::LockClass::LockClass
PUBLIC	??1LockClass@FastCriticalSectionClass@@QAE@XZ	; FastCriticalSectionClass::LockClass::~LockClass
PUBLIC	??0FastCriticalSectionClass@@QAE@XZ		; FastCriticalSectionClass::FastCriticalSectionClass
PUBLIC	??1StringClass@@QAE@XZ				; StringClass::~StringClass
PUBLIC	??_EStringClass@@QAEPAXI@Z			; StringClass::`vector deleting destructor'
PUBLIC	??1WideStringClass@@QAE@XZ			; WideStringClass::~WideStringClass
PUBLIC	??_EWideStringClass@@QAEPAXI@Z			; WideStringClass::`vector deleting destructor'
PUBLIC	??4ChunkLoadClass@@QAEAAV0@ABV0@@Z		; ChunkLoadClass::operator=
PUBLIC	?Set_Contains_Chunks@ChunkSaveClass@@QAEXXZ	; ChunkSaveClass::Set_Contains_Chunks
PUBLIC	??4ChunkSaveClass@@QAEAAV0@ABV0@@Z		; ChunkSaveClass::operator=
PUBLIC	?Is_Present@INIClass@@QBE_NPBD0@Z		; INIClass::Is_Present
PUBLIC	?Section_Present@INIClass@@QBE_NPBD@Z		; INIClass::Section_Present
PUBLIC	?Get_Section_List@INIClass@@QAEAAV?$List@PAUINISection@@@@XZ ; INIClass::Get_Section_List
PUBLIC	?Get_Section_Index@INIClass@@QAEAAV?$IndexClass@HPAUINISection@@@@XZ ; INIClass::Get_Section_Index
PUBLIC	?Get_File_Name@INIClass@@QAEPBDXZ		; INIClass::Get_File_Name
PUBLIC	??0INIClass@@QAE@ABV0@@Z			; INIClass::INIClass
PUBLIC	??4INIClass@@QAEAAV0@ABV0@@Z			; INIClass::operator=
PUBLIC	??_GINIClass@@UAEPAXI@Z				; INIClass::`scalar deleting destructor'
PUBLIC	??_EINIClass@@UAEPAXI@Z				; INIClass::`vector deleting destructor'
PUBLIC	??Cfile_auto_ptr@@QAEPAVFileClass@@XZ		; file_auto_ptr::operator->
PUBLIC	??Bfile_auto_ptr@@QAEPAVFileClass@@XZ		; file_auto_ptr::operator FileClass *
PUBLIC	??Dfile_auto_ptr@@QAEAAVFileClass@@XZ		; file_auto_ptr::operator*
PUBLIC	?get@file_auto_ptr@@QAEPAVFileClass@@XZ		; file_auto_ptr::get
PUBLIC	??4file_auto_ptr@@QAEAAV0@ABV0@@Z		; file_auto_ptr::operator=
PUBLIC	??0Vector4@@QAE@XZ				; Vector4::Vector4
PUBLIC	??0Vector4@@QAE@MMMM@Z				; Vector4::Vector4
PUBLIC	??4Vector4@@QAEAAV0@ABV0@@Z			; Vector4::operator=
PUBLIC	?Set@Vector4@@QAEXMMMM@Z			; Vector4::Set
PUBLIC	??AVector4@@QAEAAMH@Z				; Vector4::operator[]
PUBLIC	??AVector4@@QBEABMH@Z				; Vector4::operator[]
PUBLIC	??YVector4@@QAEAAV0@ABV0@@Z			; Vector4::operator+=
PUBLIC	??ZVector4@@QAEAAV0@ABV0@@Z			; Vector4::operator-=
PUBLIC	??XVector4@@QAEAAV0@M@Z				; Vector4::operator*=
PUBLIC	??AMatrix3D@@QAEAAVVector4@@H@Z			; Matrix3D::operator[]
PUBLIC	??AMatrix3D@@QBEABVVector4@@H@Z			; Matrix3D::operator[]
PUBLIC	??0Matrix3D@@QAE@_N@Z				; Matrix3D::Matrix3D
PUBLIC	??0Matrix3D@@QAE@QAM@Z				; Matrix3D::Matrix3D
PUBLIC	??0Matrix3D@@QAE@ABVVector3@@000@Z		; Matrix3D::Matrix3D
PUBLIC	??0Matrix3D@@QAE@ABVVector3@@M@Z		; Matrix3D::Matrix3D
PUBLIC	??0Matrix3D@@QAE@ABVVector3@@MM@Z		; Matrix3D::Matrix3D
PUBLIC	??0Matrix3D@@QAE@ABVMatrix3@@ABVVector3@@@Z	; Matrix3D::Matrix3D
PUBLIC	??0Matrix3D@@QAE@ABVQuaternion@@ABVVector3@@@Z	; Matrix3D::Matrix3D
PUBLIC	??0Matrix3D@@QAE@ABVVector3@@@Z			; Matrix3D::Matrix3D
PUBLIC	??0Matrix3D@@QAE@ABV0@@Z			; Matrix3D::Matrix3D
PUBLIC	??4Matrix3D@@QAEAAV0@ABV0@@Z			; Matrix3D::operator=
PUBLIC	?Set@Matrix3D@@QAEXQAM@Z			; Matrix3D::Set
PUBLIC	?Set@Matrix3D@@QAEXMMMMMMMMMMMM@Z		; Matrix3D::Set
PUBLIC	?Set@Matrix3D@@QAEXABVVector3@@000@Z		; Matrix3D::Set
PUBLIC	?Set@Matrix3D@@QAEXABVVector3@@M@Z		; Matrix3D::Set
PUBLIC	?Set@Matrix3D@@QAEXABVVector3@@MM@Z		; Matrix3D::Set
PUBLIC	?Set@Matrix3D@@QAEXABVVector3@@@Z		; Matrix3D::Set
PUBLIC	?Get_Translation@Matrix3D@@QBE?AVVector3@@XZ	; Matrix3D::Get_Translation
PUBLIC	?Get_Translation@Matrix3D@@QBEXPAVVector3@@@Z	; Matrix3D::Get_Translation
PUBLIC	?Set_Translation@Matrix3D@@QAEXABVVector3@@@Z	; Matrix3D::Set_Translation
PUBLIC	?Get_X_Translation@Matrix3D@@QBEMXZ		; Matrix3D::Get_X_Translation
PUBLIC	?Get_Y_Translation@Matrix3D@@QBEMXZ		; Matrix3D::Get_Y_Translation
PUBLIC	?Get_Z_Translation@Matrix3D@@QBEMXZ		; Matrix3D::Get_Z_Translation
PUBLIC	?Set_X_Translation@Matrix3D@@QAEXM@Z		; Matrix3D::Set_X_Translation
PUBLIC	?Set_Y_Translation@Matrix3D@@QAEXM@Z		; Matrix3D::Set_Y_Translation
PUBLIC	?Set_Z_Translation@Matrix3D@@QAEXM@Z		; Matrix3D::Set_Z_Translation
PUBLIC	?Adjust_Translation@Matrix3D@@QAEXABVVector3@@@Z ; Matrix3D::Adjust_Translation
PUBLIC	?Adjust_X_Translation@Matrix3D@@QAEXM@Z		; Matrix3D::Adjust_X_Translation
PUBLIC	?Adjust_Y_Translation@Matrix3D@@QAEXM@Z		; Matrix3D::Adjust_Y_Translation
PUBLIC	?Adjust_Z_Translation@Matrix3D@@QAEXM@Z		; Matrix3D::Adjust_Z_Translation
PUBLIC	?Make_Identity@Matrix3D@@QAEXXZ			; Matrix3D::Make_Identity
PUBLIC	?Translate@Matrix3D@@QAEXMMM@Z			; Matrix3D::Translate
PUBLIC	?Translate@Matrix3D@@QAEXABVVector3@@@Z		; Matrix3D::Translate
PUBLIC	?Translate_X@Matrix3D@@QAEXM@Z			; Matrix3D::Translate_X
PUBLIC	?Translate_Y@Matrix3D@@QAEXM@Z			; Matrix3D::Translate_Y
PUBLIC	?Translate_Z@Matrix3D@@QAEXM@Z			; Matrix3D::Translate_Z
PUBLIC	?Rotate_X@Matrix3D@@QAEXM@Z			; Matrix3D::Rotate_X
PUBLIC	?Rotate_Y@Matrix3D@@QAEXM@Z			; Matrix3D::Rotate_Y
PUBLIC	?Rotate_Z@Matrix3D@@QAEXM@Z			; Matrix3D::Rotate_Z
PUBLIC	?Rotate_X@Matrix3D@@QAEXMM@Z			; Matrix3D::Rotate_X
PUBLIC	?Rotate_Y@Matrix3D@@QAEXMM@Z			; Matrix3D::Rotate_Y
PUBLIC	?Rotate_Z@Matrix3D@@QAEXMM@Z			; Matrix3D::Rotate_Z
PUBLIC	?Scale@Matrix3D@@QAEXM@Z			; Matrix3D::Scale
PUBLIC	?Scale@Matrix3D@@QAEXMMM@Z			; Matrix3D::Scale
PUBLIC	?Scale@Matrix3D@@QAEXAAVVector3@@@Z		; Matrix3D::Scale
PUBLIC	?Pre_Rotate_X@Matrix3D@@QAEXM@Z			; Matrix3D::Pre_Rotate_X
PUBLIC	?Pre_Rotate_Y@Matrix3D@@QAEXM@Z			; Matrix3D::Pre_Rotate_Y
PUBLIC	?Pre_Rotate_Z@Matrix3D@@QAEXM@Z			; Matrix3D::Pre_Rotate_Z
PUBLIC	?Pre_Rotate_X@Matrix3D@@QAEXMM@Z		; Matrix3D::Pre_Rotate_X
PUBLIC	?Pre_Rotate_Y@Matrix3D@@QAEXMM@Z		; Matrix3D::Pre_Rotate_Y
PUBLIC	?Pre_Rotate_Z@Matrix3D@@QAEXMM@Z		; Matrix3D::Pre_Rotate_Z
PUBLIC	?In_Place_Pre_Rotate_X@Matrix3D@@QAEXM@Z	; Matrix3D::In_Place_Pre_Rotate_X
PUBLIC	?In_Place_Pre_Rotate_Y@Matrix3D@@QAEXM@Z	; Matrix3D::In_Place_Pre_Rotate_Y
PUBLIC	?In_Place_Pre_Rotate_Z@Matrix3D@@QAEXM@Z	; Matrix3D::In_Place_Pre_Rotate_Z
PUBLIC	?In_Place_Pre_Rotate_X@Matrix3D@@QAEXMM@Z	; Matrix3D::In_Place_Pre_Rotate_X
PUBLIC	?In_Place_Pre_Rotate_Y@Matrix3D@@QAEXMM@Z	; Matrix3D::In_Place_Pre_Rotate_Y
PUBLIC	?In_Place_Pre_Rotate_Z@Matrix3D@@QAEXMM@Z	; Matrix3D::In_Place_Pre_Rotate_Z
PUBLIC	?Transform_Vector@Matrix3D@@SAXABV1@ABVVector3@@PAV2@@Z ; Matrix3D::Transform_Vector
PUBLIC	?Get_X_Vector@Matrix3D@@QBE?AVVector3@@XZ	; Matrix3D::Get_X_Vector
PUBLIC	?Get_Y_Vector@Matrix3D@@QBE?AVVector3@@XZ	; Matrix3D::Get_Y_Vector
PUBLIC	?Get_Z_Vector@Matrix3D@@QBE?AVVector3@@XZ	; Matrix3D::Get_Z_Vector
PUBLIC	?Get_X_Vector@Matrix3D@@QBEXPAVVector3@@@Z	; Matrix3D::Get_X_Vector
PUBLIC	?Get_Y_Vector@Matrix3D@@QBEXPAVVector3@@@Z	; Matrix3D::Get_Y_Vector
PUBLIC	?Get_Z_Vector@Matrix3D@@QBEXPAVVector3@@@Z	; Matrix3D::Get_Z_Vector
PUBLIC	?Rotate_Vector@Matrix3D@@SAXABV1@ABVVector3@@PAV2@@Z ; Matrix3D::Rotate_Vector
PUBLIC	?Inverse_Transform_Vector@Matrix3D@@SAXABV1@ABVVector3@@PAV2@@Z ; Matrix3D::Inverse_Transform_Vector
PUBLIC	?Inverse_Rotate_Vector@Matrix3D@@SAXABV1@ABVVector3@@PAV2@@Z ; Matrix3D::Inverse_Rotate_Vector
PUBLIC	??0Matrix4@@QAE@XZ				; Matrix4::Matrix4
PUBLIC	??0Matrix4@@QAE@ABV0@@Z				; Matrix4::Matrix4
PUBLIC	??0Matrix4@@QAE@_N@Z				; Matrix4::Matrix4
PUBLIC	??0Matrix4@@QAE@ABVMatrix3D@@@Z			; Matrix4::Matrix4
PUBLIC	??0Matrix4@@QAE@ABVVector4@@000@Z		; Matrix4::Matrix4
PUBLIC	?Make_Identity@Matrix4@@QAEXXZ			; Matrix4::Make_Identity
PUBLIC	?Init@Matrix4@@QAEXABVMatrix3D@@@Z		; Matrix4::Init
PUBLIC	?Init@Matrix4@@QAEXABVVector4@@000@Z		; Matrix4::Init
PUBLIC	?Init_Ortho_OGL@Matrix4@@QAEXMMMMMM@Z		; Matrix4::Init_Ortho_OGL
PUBLIC	?Init_Perspective_OGL@Matrix4@@QAEXMMMM@Z	; Matrix4::Init_Perspective_OGL
PUBLIC	?Init_Perspective_OGL@Matrix4@@QAEXMMMMMM@Z	; Matrix4::Init_Perspective_OGL
PUBLIC	?Init_Ortho@Matrix4@@QAEXMMMMMM@Z		; Matrix4::Init_Ortho
PUBLIC	?Init_Perspective@Matrix4@@QAEXMMMMMM@Z		; Matrix4::Init_Perspective
PUBLIC	??AMatrix4@@QAEAAVVector4@@H@Z			; Matrix4::operator[]
PUBLIC	??AMatrix4@@QBEABVVector4@@H@Z			; Matrix4::operator[]
PUBLIC	?Transpose@Matrix4@@QBE?AV1@XZ			; Matrix4::Transpose
PUBLIC	?Determinant@Matrix4@@QBEMXZ			; Matrix4::Determinant
PUBLIC	?Inverse@Matrix4@@QBE?AV1@XZ			; Matrix4::Inverse
PUBLIC	??4Matrix4@@QAEAAV0@ABV0@@Z			; Matrix4::operator=
PUBLIC	??YMatrix4@@QAEAAV0@ABV0@@Z			; Matrix4::operator+=
PUBLIC	??ZMatrix4@@QAEAAV0@ABV0@@Z			; Matrix4::operator-=
PUBLIC	??XMatrix4@@QAEAAV0@M@Z				; Matrix4::operator*=
PUBLIC	??_0Matrix4@@QAEAAV0@M@Z			; Matrix4::operator/=
PUBLIC	?Transform_Vector@Matrix4@@SAXABV1@ABVVector3@@PAV2@@Z ; Matrix4::Transform_Vector
PUBLIC	?Transform_Vector@Matrix4@@SAXABV1@ABVVector3@@PAVVector4@@@Z ; Matrix4::Transform_Vector
PUBLIC	?Transform_Vector@Matrix4@@SAXABV1@ABVVector4@@PAV2@@Z ; Matrix4::Transform_Vector
PUBLIC	??0Matrix3@@QAE@XZ				; Matrix3::Matrix3
PUBLIC	??0Matrix3@@QAE@ABV0@@Z				; Matrix3::Matrix3
PUBLIC	??0Matrix3@@QAE@_N@Z				; Matrix3::Matrix3
PUBLIC	??0Matrix3@@QAE@ABVVector3@@00@Z		; Matrix3::Matrix3
PUBLIC	??0Matrix3@@QAE@MMMMMMMMM@Z			; Matrix3::Matrix3
PUBLIC	??0Matrix3@@QAE@ABVVector3@@M@Z			; Matrix3::Matrix3
PUBLIC	??0Matrix3@@QAE@ABVVector3@@MM@Z		; Matrix3::Matrix3
PUBLIC	??0Matrix3@@QAE@ABVQuaternion@@@Z		; Matrix3::Matrix3
PUBLIC	?Set@Matrix3@@QAEXABVVector3@@00@Z		; Matrix3::Set
PUBLIC	?Set@Matrix3@@QAEXMMMMMMMMM@Z			; Matrix3::Set
PUBLIC	?Set@Matrix3@@QAEXABVVector3@@M@Z		; Matrix3::Set
PUBLIC	?Set@Matrix3@@QAEXABVVector3@@MM@Z		; Matrix3::Set
PUBLIC	??AMatrix3@@QAEAAVVector3@@H@Z			; Matrix3::operator[]
PUBLIC	??AMatrix3@@QBEABVVector3@@H@Z			; Matrix3::operator[]
PUBLIC	?Transpose@Matrix3@@QBE?AV1@XZ			; Matrix3::Transpose
PUBLIC	?Determinant@Matrix3@@QBEMXZ			; Matrix3::Determinant
PUBLIC	??4Matrix3@@QAEAAV0@ABV0@@Z			; Matrix3::operator=
PUBLIC	??YMatrix3@@QAEAAV0@ABV0@@Z			; Matrix3::operator+=
PUBLIC	??ZMatrix3@@QAEAAV0@ABV0@@Z			; Matrix3::operator-=
PUBLIC	??XMatrix3@@QAEAAV0@M@Z				; Matrix3::operator*=
PUBLIC	??_0Matrix3@@QAEAAV0@M@Z			; Matrix3::operator/=
PUBLIC	?Make_Identity@Matrix3@@QAEXXZ			; Matrix3::Make_Identity
PUBLIC	?Rotate_X@Matrix3@@QAEXM@Z			; Matrix3::Rotate_X
PUBLIC	?Rotate_X@Matrix3@@QAEXMM@Z			; Matrix3::Rotate_X
PUBLIC	?Rotate_Y@Matrix3@@QAEXM@Z			; Matrix3::Rotate_Y
PUBLIC	?Rotate_Y@Matrix3@@QAEXMM@Z			; Matrix3::Rotate_Y
PUBLIC	?Rotate_Z@Matrix3@@QAEXM@Z			; Matrix3::Rotate_Z
PUBLIC	?Rotate_Z@Matrix3@@QAEXMM@Z			; Matrix3::Rotate_Z
PUBLIC	?Get_X_Rotation@Matrix3@@QBEMXZ			; Matrix3::Get_X_Rotation
PUBLIC	?Get_Y_Rotation@Matrix3@@QBEMXZ			; Matrix3::Get_Y_Rotation
PUBLIC	?Get_Z_Rotation@Matrix3@@QBEMXZ			; Matrix3::Get_Z_Rotation
PUBLIC	?Get_X_Vector@Matrix3@@QBE?AVVector3@@XZ	; Matrix3::Get_X_Vector
PUBLIC	?Get_Y_Vector@Matrix3@@QBE?AVVector3@@XZ	; Matrix3::Get_Y_Vector
PUBLIC	?Get_Z_Vector@Matrix3@@QBE?AVVector3@@XZ	; Matrix3::Get_Z_Vector
PUBLIC	?Get_X_Vector@Matrix3@@QBEXPAVVector3@@@Z	; Matrix3::Get_X_Vector
PUBLIC	?Get_Y_Vector@Matrix3@@QBEXPAVVector3@@@Z	; Matrix3::Get_Y_Vector
PUBLIC	?Get_Z_Vector@Matrix3@@QBEXPAVVector3@@@Z	; Matrix3::Get_Z_Vector
PUBLIC	??D@YA?AVVector3@@ABVMatrix3@@ABV0@@Z		; operator*
PUBLIC	?Add@Matrix3@@SAXABV1@0PAV1@@Z			; Matrix3::Add
PUBLIC	?Subtract@Matrix3@@SAXABV1@0PAV1@@Z		; Matrix3::Subtract
PUBLIC	?Rotate_Vector@Matrix3@@SAXABV1@ABVVector3@@PAV2@@Z ; Matrix3::Rotate_Vector
PUBLIC	?Transpose_Rotate_Vector@Matrix3@@SAXABV1@ABVVector3@@PAV2@@Z ; Matrix3::Transpose_Rotate_Vector
PUBLIC	?Rotate_AABox_Extent@Matrix3@@QAEXABVVector3@@PAV2@@Z ; Matrix3::Rotate_AABox_Extent
PUBLIC	?Inverse@Matrix3@@QBE?AV1@XZ			; Matrix3::Inverse
PUBLIC	??4SysTimeClass@@QAEAAV0@ABV0@@Z		; SysTimeClass::operator=
PUBLIC	??0PostLoadableClass@@QAE@XZ			; PostLoadableClass::PostLoadableClass
PUBLIC	??1PostLoadableClass@@UAE@XZ			; PostLoadableClass::~PostLoadableClass
PUBLIC	?On_Post_Load@PostLoadableClass@@UAEXXZ		; PostLoadableClass::On_Post_Load
PUBLIC	?Is_Post_Load_Registered@PostLoadableClass@@QBE_NXZ ; PostLoadableClass::Is_Post_Load_Registered
PUBLIC	?Set_Post_Load_Registered@PostLoadableClass@@QAEX_N@Z ; PostLoadableClass::Set_Post_Load_Registered
PUBLIC	??0PostLoadableClass@@QAE@ABV0@@Z		; PostLoadableClass::PostLoadableClass
PUBLIC	??4PostLoadableClass@@QAEAAV0@ABV0@@Z		; PostLoadableClass::operator=
PUBLIC	??_GPostLoadableClass@@UAEPAXI@Z		; PostLoadableClass::`scalar deleting destructor'
PUBLIC	??_EPostLoadableClass@@UAEPAXI@Z		; PostLoadableClass::`vector deleting destructor'
PUBLIC	??CReferencerClass@@QAEPAVScriptableGameObj@@XZ	; ReferencerClass::operator->
PUBLIC	??0ReferencerClass@@QAE@XZ			; ReferencerClass::ReferencerClass
PUBLIC	??0ReferencerClass@@QAE@PAVScriptableGameObj@@@Z ; ReferencerClass::ReferencerClass
PUBLIC	?Get_Ptr@ReferencerClass@@QBEPAVScriptableGameObj@@XZ ; ReferencerClass::Get_Ptr
PUBLIC	?Set_Ptr@ReferencerClass@@QAEXPAVScriptableGameObj@@@Z ; ReferencerClass::Set_Ptr
PUBLIC	??0ReferencerClass@@QAE@ABV0@@Z			; ReferencerClass::ReferencerClass
PUBLIC	??_GReferencerClass@@UAEPAXI@Z			; ReferencerClass::`scalar deleting destructor'
PUBLIC	??_EReferencerClass@@UAEPAXI@Z			; ReferencerClass::`vector deleting destructor'
PUBLIC	?Get_Data@?$ReferenceableClass@VScriptableGameObj@@@@IBEPAVScriptableGameObj@@XZ ; ReferenceableClass<ScriptableGameObj>::Get_Data
PUBLIC	??0LineSegClass@@QAE@XZ				; LineSegClass::LineSegClass
PUBLIC	??0LineSegClass@@QAE@ABVVector3@@0@Z		; LineSegClass::LineSegClass
PUBLIC	??0LineSegClass@@QAE@ABVVector3@@0M@Z		; LineSegClass::LineSegClass
PUBLIC	??0LineSegClass@@QAE@ABV0@ABVMatrix3D@@@Z	; LineSegClass::LineSegClass
PUBLIC	?Set@LineSegClass@@QAEXABVVector3@@0@Z		; LineSegClass::Set
PUBLIC	?Set@LineSegClass@@QAEXABVVector3@@0M@Z		; LineSegClass::Set
PUBLIC	?Get_P0@LineSegClass@@QBEABVVector3@@XZ		; LineSegClass::Get_P0
PUBLIC	?Get_P1@LineSegClass@@QBEABVVector3@@XZ		; LineSegClass::Get_P1
PUBLIC	?Get_DP@LineSegClass@@QBEABVVector3@@XZ		; LineSegClass::Get_DP
PUBLIC	?Get_Dir@LineSegClass@@QBEABVVector3@@XZ	; LineSegClass::Get_Dir
PUBLIC	?Get_Length@LineSegClass@@QBEMXZ		; LineSegClass::Get_Length
PUBLIC	?Compute_Point@LineSegClass@@QBEXMPAVVector3@@@Z ; LineSegClass::Compute_Point
PUBLIC	?recalculate@LineSegClass@@IAEXXZ		; LineSegClass::recalculate
PUBLIC	??0LineSegClass@@QAE@ABV0@@Z			; LineSegClass::LineSegClass
PUBLIC	??4LineSegClass@@QAEAAV0@ABV0@@Z		; LineSegClass::operator=
PUBLIC	?Get_Position@PhysClass@@QBEXPAVVector3@@@Z	; PhysClass::Get_Position
PUBLIC	?Set_Collision_Group@PhysClass@@QAEXW4Collision_Group_Type@@@Z ; PhysClass::Set_Collision_Group
PUBLIC	?Peek_Physical_Object@PhysicalGameObj@@QBEPAVPhysClass@@XZ ; PhysicalGameObj::Peek_Physical_Object
PUBLIC	?Get_Position@PhysicalGameObj@@QAE?AVVector3@@XZ ; PhysicalGameObj::Get_Position
PUBLIC	?Get_Player_Data@SmartGameObj@@QAEPAVPlayerDataClass@@XZ ; SmartGameObj::Get_Player_Data
PUBLIC	?Get_Id@cPlayer@@QBEHXZ				; cPlayer::Get_Id
PUBLIC	??2?$AutoPoolClass@VGenericSLNode@@$0BAA@@@SAPAXIPBDI0@Z ; AutoPoolClass<GenericSLNode,256>::operator new
PUBLIC	??3?$AutoPoolClass@VGenericSLNode@@$0BAA@@@SAXPAX@Z ; AutoPoolClass<GenericSLNode,256>::operator delete
PUBLIC	??0GenericSLNode@@IAE@PAX@Z			; GenericSLNode::GenericSLNode
PUBLIC	??0JFW_Key_Hook_Base@@QAE@XZ			; JFW_Key_Hook_Base::JFW_Key_Hook_Base
PUBLIC	??0JFW_Key_Hook_Base@@QAE@ABV0@@Z		; JFW_Key_Hook_Base::JFW_Key_Hook_Base
PUBLIC	??4JFW_Key_Hook_Base@@QAEAAV0@ABV0@@Z		; JFW_Key_Hook_Base::operator=
PUBLIC	??_GJFW_Key_Hook_Base@@UAEPAXI@Z		; JFW_Key_Hook_Base::`scalar deleting destructor'
PUBLIC	??_EJFW_Key_Hook_Base@@UAEPAXI@Z		; JFW_Key_Hook_Base::`vector deleting destructor'
PUBLIC	??0?$SList@UKeyHookWrapperStruct@MultiKeyHookScriptImpClass@@@@QAE@XZ ; SList<MultiKeyHookScriptImpClass::KeyHookWrapperStruct>::SList<MultiKeyHookScriptImpClass::KeyHookWrapperStruct>
PUBLIC	??1?$SList@UKeyHookWrapperStruct@MultiKeyHookScriptImpClass@@@@UAE@XZ ; SList<MultiKeyHookScriptImpClass::KeyHookWrapperStruct>::~SList<MultiKeyHookScriptImpClass::KeyHookWrapperStruct>
PUBLIC	?Add_Head@?$SList@UKeyHookWrapperStruct@MultiKeyHookScriptImpClass@@@@UAE_NPAUKeyHookWrapperStruct@MultiKeyHookScriptImpClass@@@Z ; SList<MultiKeyHookScriptImpClass::KeyHookWrapperStruct>::Add_Head
PUBLIC	?Add_Head@?$SList@UKeyHookWrapperStruct@MultiKeyHookScriptImpClass@@@@UAE_NAAV1@@Z ; SList<MultiKeyHookScriptImpClass::KeyHookWrapperStruct>::Add_Head
PUBLIC	?Add_Tail@?$SList@UKeyHookWrapperStruct@MultiKeyHookScriptImpClass@@@@UAE_NPAUKeyHookWrapperStruct@MultiKeyHookScriptImpClass@@@Z ; SList<MultiKeyHookScriptImpClass::KeyHookWrapperStruct>::Add_Tail
PUBLIC	?Add_Tail@?$SList@UKeyHookWrapperStruct@MultiKeyHookScriptImpClass@@@@UAE_NAAV1@@Z ; SList<MultiKeyHookScriptImpClass::KeyHookWrapperStruct>::Add_Tail
PUBLIC	?Remove_Head@?$SList@UKeyHookWrapperStruct@MultiKeyHookScriptImpClass@@@@UAEPAUKeyHookWrapperStruct@MultiKeyHookScriptImpClass@@XZ ; SList<MultiKeyHookScriptImpClass::KeyHookWrapperStruct>::Remove_Head
PUBLIC	?Remove_Tail@?$SList@UKeyHookWrapperStruct@MultiKeyHookScriptImpClass@@@@UAEPAUKeyHookWrapperStruct@MultiKeyHookScriptImpClass@@XZ ; SList<MultiKeyHookScriptImpClass::KeyHookWrapperStruct>::Remove_Tail
PUBLIC	?Remove@?$SList@UKeyHookWrapperStruct@MultiKeyHookScriptImpClass@@@@UAE_NPBUKeyHookWrapperStruct@MultiKeyHookScriptImpClass@@@Z ; SList<MultiKeyHookScriptImpClass::KeyHookWrapperStruct>::Remove
PUBLIC	?Remove_All@?$SList@UKeyHookWrapperStruct@MultiKeyHookScriptImpClass@@@@UAEXXZ ; SList<MultiKeyHookScriptImpClass::KeyHookWrapperStruct>::Remove_All
PUBLIC	?Insert_Before@?$SList@UKeyHookWrapperStruct@MultiKeyHookScriptImpClass@@@@UAE_NPAUKeyHookWrapperStruct@MultiKeyHookScriptImpClass@@PBU23@@Z ; SList<MultiKeyHookScriptImpClass::KeyHookWrapperStruct>::Insert_Before
PUBLIC	?Insert_After@?$SList@UKeyHookWrapperStruct@MultiKeyHookScriptImpClass@@@@UAE_NPAUKeyHookWrapperStruct@MultiKeyHookScriptImpClass@@PBU23@@Z ; SList<MultiKeyHookScriptImpClass::KeyHookWrapperStruct>::Insert_After
PUBLIC	?Is_Empty@?$SList@UKeyHookWrapperStruct@MultiKeyHookScriptImpClass@@@@UBE_NXZ ; SList<MultiKeyHookScriptImpClass::KeyHookWrapperStruct>::Is_Empty
PUBLIC	?Get_Count@?$SList@UKeyHookWrapperStruct@MultiKeyHookScriptImpClass@@@@UBEIXZ ; SList<MultiKeyHookScriptImpClass::KeyHookWrapperStruct>::Get_Count
PUBLIC	??0?$SList@UKeyHookWrapperStruct@MultiKeyHookScriptImpClass@@@@QAE@ABV0@@Z ; SList<MultiKeyHookScriptImpClass::KeyHookWrapperStruct>::SList<MultiKeyHookScriptImpClass::KeyHookWrapperStruct>
PUBLIC	??4?$SList@UKeyHookWrapperStruct@MultiKeyHookScriptImpClass@@@@QAEAAV0@ABV0@@Z ; SList<MultiKeyHookScriptImpClass::KeyHookWrapperStruct>::operator=
PUBLIC	??_G?$SList@UKeyHookWrapperStruct@MultiKeyHookScriptImpClass@@@@UAEPAXI@Z ; SList<MultiKeyHookScriptImpClass::KeyHookWrapperStruct>::`scalar deleting destructor'
PUBLIC	??0MultiKeyHookScriptImpClass@@QAE@XZ		; MultiKeyHookScriptImpClass::MultiKeyHookScriptImpClass
PUBLIC	??1MultiKeyHookScriptImpClass@@UAE@XZ		; MultiKeyHookScriptImpClass::~MultiKeyHookScriptImpClass
PUBLIC	??0MultiKeyHookScriptImpClass@@QAE@ABV0@@Z	; MultiKeyHookScriptImpClass::MultiKeyHookScriptImpClass
PUBLIC	??4MultiKeyHookScriptImpClass@@QAEAAV0@ABV0@@Z	; MultiKeyHookScriptImpClass::operator=
PUBLIC	??_GMultiKeyHookScriptImpClass@@UAEPAXI@Z	; MultiKeyHookScriptImpClass::`scalar deleting destructor'
PUBLIC	??_EMultiKeyHookScriptImpClass@@UAEPAXI@Z	; MultiKeyHookScriptImpClass::`vector deleting destructor'
PUBLIC	??0JFW_Object_Created_Hook_Base@@QAE@XZ		; JFW_Object_Created_Hook_Base::JFW_Object_Created_Hook_Base
PUBLIC	??0JFW_Object_Created_Hook_Base@@QAE@ABV0@@Z	; JFW_Object_Created_Hook_Base::JFW_Object_Created_Hook_Base
PUBLIC	??4JFW_Object_Created_Hook_Base@@QAEAAV0@ABV0@@Z ; JFW_Object_Created_Hook_Base::operator=
PUBLIC	??_GJFW_Object_Created_Hook_Base@@UAEPAXI@Z	; JFW_Object_Created_Hook_Base::`scalar deleting destructor'
PUBLIC	??_EJFW_Object_Created_Hook_Base@@UAEPAXI@Z	; JFW_Object_Created_Hook_Base::`vector deleting destructor'
PUBLIC	??4ArmorWarheadManager@@QAEAAV0@ABV0@@Z		; ArmorWarheadManager::operator=
PUBLIC	??0CollisionTestClass@@QAE@PAUCastResultStruct@@W4Collision_Type@@@Z ; CollisionTestClass::CollisionTestClass
PUBLIC	??0CollisionTestClass@@QAE@ABV0@@Z		; CollisionTestClass::CollisionTestClass
PUBLIC	??4CollisionTestClass@@QAEAAV0@ABV0@@Z		; CollisionTestClass::operator=
PUBLIC	?Cull@AABoxCollisionTestClass@@QAE_NABVVector3@@0@Z ; AABoxCollisionTestClass::Cull
PUBLIC	?Translate@AABoxCollisionTestClass@@QAEXABVVector3@@@Z ; AABoxCollisionTestClass::Translate
PUBLIC	?Cull@OBBoxCollisionTestClass@@QAE_NABVVector3@@0@Z ; OBBoxCollisionTestClass::Cull
PUBLIC	??0GenericDateTime@JmgUtility@@QAE@XZ		; JmgUtility::GenericDateTime::GenericDateTime
PUBLIC	?JMG_Get_Sex@JmgUtility@@SADPAVScriptableGameObj@@@Z ; JmgUtility::JMG_Get_Sex
PUBLIC	?JMG_Get_Player_ID@JmgUtility@@SAJPAVScriptableGameObj@@@Z ; JmgUtility::JMG_Get_Player_ID
PUBLIC	?SimpleDistance@JmgUtility@@SAMABVVector3@@0@Z	; JmgUtility::SimpleDistance
PUBLIC	?MathClamp@JmgUtility@@SAMMMM@Z			; JmgUtility::MathClamp
PUBLIC	?MathClampInt@JmgUtility@@SAHHHH@Z		; JmgUtility::MathClampInt
PUBLIC	?DisplayChatMessage@JmgUtility@@SAXPAVScriptableGameObj@@HHHPBD@Z ; JmgUtility::DisplayChatMessage
PUBLIC	?MessageAllPlayers@JmgUtility@@SAXHHHPBD@Z	; JmgUtility::MessageAllPlayers
PUBLIC	?Rp2Encrypt@JmgUtility@@SAPADPBDHH@Z		; JmgUtility::Rp2Encrypt
PUBLIC	?Rp2Encrypt2@JmgUtility@@SAPADPBDHH@Z		; JmgUtility::Rp2Encrypt2
PUBLIC	?Rp2Decrypt@JmgUtility@@SAPADPBDHH@Z		; JmgUtility::Rp2Decrypt
PUBLIC	?MathClampDegrees@JmgUtility@@SAMM@Z		; JmgUtility::MathClampDegrees
PUBLIC	?DegreeDiff@JmgUtility@@SA_NMMM@Z		; JmgUtility::DegreeDiff
PUBLIC	?AddDescription@PerkSystemPerkTypeNode@@QAEXPBD@Z ; PerkSystemPerkTypeNode::AddDescription
PUBLIC	?Reset@PerkSystemPerkTypeList@@AAEXXZ		; PerkSystemPerkTypeList::Reset
PUBLIC	??0PerkSystemPerkTypeList@@QAE@XZ		; PerkSystemPerkTypeList::PerkSystemPerkTypeList
PUBLIC	?AddAPerkType@PerkSystemPerkTypeList@@QAEXHPBDI_N11W4PerkTypeCategories@@H0@Z ; PerkSystemPerkTypeList::AddAPerkType
PUBLIC	?Clean_Up@PerkSystemPerkTypeList@@QAEXXZ	; PerkSystemPerkTypeList::Clean_Up
PUBLIC	?Finalize_Perks@PerkSystemPerkTypeList@@QAEXXZ	; PerkSystemPerkTypeList::Finalize_Perks
PUBLIC	??0PlayerPerkDataNode@@QAE@XZ			; PlayerPerkDataNode::PlayerPerkDataNode
PUBLIC	??0PlayerPerksDataNode@@QAE@XZ			; PlayerPerksDataNode::PlayerPerksDataNode
PUBLIC	?AddAPlayerPerkNode@PlayerPerksNodeControlSystem@@AAEPAUPlayerPerksDataNode@@PAU2@PBDQAUPlayerPerkDataNode@@@Z ; PlayerPerksNodeControlSystem::AddAPlayerPerkNode
PUBLIC	?GetPlayerPerkList@PlayerPerksNodeControlSystem@@AAEPAUPlayerPerksDataNode@@PBD@Z ; PlayerPerksNodeControlSystem::GetPlayerPerkList
PUBLIC	??0PlayerPerksNodeControlSystem@@QAE@XZ		; PlayerPerksNodeControlSystem::PlayerPerksNodeControlSystem
PUBLIC	?FindPlayerPerkList@PlayerPerksNodeControlSystem@@QAEXPAVScriptableGameObj@@H@Z ; PlayerPerksNodeControlSystem::FindPlayerPerkList
PUBLIC	?IncreasePlayerPerkUnlockAmount@PlayerPerksNodeControlSystem@@QAE_NPAVScriptableGameObj@@HI@Z ; PlayerPerksNodeControlSystem::IncreasePlayerPerkUnlockAmount
PUBLIC	?CheckIfPlayerHasPerkUnlocked@PlayerPerksNodeControlSystem@@QAE_NPAVScriptableGameObj@@H@Z ; PlayerPerksNodeControlSystem::CheckIfPlayerHasPerkUnlocked
PUBLIC	?ClearPerksList@PlayerPerksNodeControlSystem@@QAEXXZ ; PlayerPerksNodeControlSystem::ClearPerksList
PUBLIC	?SaveData@PlayerPerksNodeControlSystem@@QAEXXZ	; PlayerPerksNodeControlSystem::SaveData
PUBLIC	?LoadData@PlayerPerksNodeControlSystem@@QAEXXZ	; PlayerPerksNodeControlSystem::LoadData
PUBLIC	?CheckIfPlayerHasPerkUnlocked@@YA_NPAVScriptableGameObj@@H@Z ; CheckIfPlayerHasPerkUnlocked
PUBLIC	?PerkSystemIncreasePlayerPerkUnlockAmount@@YA_NPAVScriptableGameObj@@HI@Z ; PerkSystemIncreasePlayerPerkUnlockAmount
PUBLIC	?AddPerkTypes@@YAXXZ				; AddPerkTypes
PUBLIC	??0CMTBHighScoresNode@RenCometBustersScoreSystem@@QAE@XZ ; RenCometBustersScoreSystem::CMTBHighScoresNode::CMTBHighScoresNode
PUBLIC	?AddPlayerToInGameList@RenCometBustersScoreSystem@@AAEXPAUCMTBHighScoresNode@1@@Z ; RenCometBustersScoreSystem::AddPlayerToInGameList
PUBLIC	?LoadHighestScores@RenCometBustersScoreSystem@@AAEXXZ ; RenCometBustersScoreSystem::LoadHighestScores
PUBLIC	?FindOrAddPlayerMAHighScoreNode@RenCometBustersScoreSystem@@AAEPAUCMTBHighScoresNode@1@PBD@Z ; RenCometBustersScoreSystem::FindOrAddPlayerMAHighScoreNode
PUBLIC	??0RenCometBustersScoreSystem@@QAE@XZ		; RenCometBustersScoreSystem::RenCometBustersScoreSystem
PUBLIC	?Get_Current_Player_Score_Node@RenCometBustersScoreSystem@@QAEPAUCMTBHighScoresNode@1@H@Z ; RenCometBustersScoreSystem::Get_Current_Player_Score_Node
PUBLIC	?Cleanup@RenCometBustersScoreSystem@@QAEXXZ	; RenCometBustersScoreSystem::Cleanup
PUBLIC	?SaveData@RenCometBustersScoreSystem@@QAEXXZ	; RenCometBustersScoreSystem::SaveData
PUBLIC	?LoadData@RenCometBustersScoreSystem@@QAEXH@Z	; RenCometBustersScoreSystem::LoadData
PUBLIC	?CompareHighScoreNodes@RenCometBustersScoreSystem@@QAEPAUCMTBHighScoresNode@1@PAU21@0H@Z ; RenCometBustersScoreSystem::CompareHighScoreNodes
PUBLIC	?ReturnHighScoreNodeValue@RenCometBustersScoreSystem@@QAE_NPAUCMTBHighScoresNode@1@H@Z ; RenCometBustersScoreSystem::ReturnHighScoreNodeValue
PUBLIC	?ReturnScore@RenCometBustersScoreSystem@@QAEPADPAUCMTBHighScoresNode@1@H@Z ; RenCometBustersScoreSystem::ReturnScore
PUBLIC	?StateHighScore@RenCometBustersScoreSystem@@QAEXXZ ; RenCometBustersScoreSystem::StateHighScore
PUBLIC	??0TypeObject@@QAE@PAVScriptableGameObj@@MMW4ObjectType@@@Z ; TypeObject::TypeObject
PUBLIC	??0AnObject@@QAE@PAVScriptableGameObj@@MMW4ObjectType@@@Z ; AnObject::AnObject
PUBLIC	??0RenCometBustersPlayerNode@@QAE@XZ		; RenCometBustersPlayerNode::RenCometBustersPlayerNode
PUBLIC	??4RenCometBustersPlayerNode@@QAEAAU0@ABU0@@Z	; RenCometBustersPlayerNode::operator=
PUBLIC	??0RenCometBustersGameObjects@@QAE@XZ		; RenCometBustersGameObjects::RenCometBustersGameObjects
PUBLIC	??1RenCometBustersGameObjects@@QAE@XZ		; RenCometBustersGameObjects::~RenCometBustersGameObjects
PUBLIC	??YRenCometBustersGameObjects@@QAEAAV0@UTypeObject@@@Z ; RenCometBustersGameObjects::operator+=
PUBLIC	??ZRenCometBustersGameObjects@@QAEAAV0@PAVScriptableGameObj@@@Z ; RenCometBustersGameObjects::operator-=
PUBLIC	?FindObject@RenCometBustersGameObjects@@QAEPAUAnObject@@PAVScriptableGameObj@@@Z ; RenCometBustersGameObjects::FindObject
PUBLIC	?FindObjectByID@RenCometBustersGameObjects@@QAEPAUAnObject@@H@Z ; RenCometBustersGameObjects::FindObjectByID
PUBLIC	?SpecialApplyDamage@RenCometBustersGameObjects@@QAEXPAVScriptableGameObj@@MPBD0@Z ; RenCometBustersGameObjects::SpecialApplyDamage
PUBLIC	?DoesCollide@RenCometBustersGameObjects@@QAE_NPAUAnObject@@0@Z ; RenCometBustersGameObjects::DoesCollide
PUBLIC	?PickupPowerup@RenCometBustersGameObjects@@QAE_NPAUAnObject@@0@Z ; RenCometBustersGameObjects::PickupPowerup
PUBLIC	?UpdateCollisions@RenCometBustersGameObjects@@QAEXXZ ; RenCometBustersGameObjects::UpdateCollisions
PUBLIC	?FindNearestCollidableObject@RenCometBustersGameObjects@@QAEMPAVScriptableGameObj@@ABVVector3@@@Z ; RenCometBustersGameObjects::FindNearestCollidableObject
PUBLIC	?AllowShipSpawn@RenCometBustersGameObjects@@QAEHHQAVVector3@@@Z ; RenCometBustersGameObjects::AllowShipSpawn
PUBLIC	?CountType@RenCometBustersGameObjects@@QAEHW4ObjectType@@@Z ; RenCometBustersGameObjects::CountType
PUBLIC	?CheckIfLevelComplete@RenCometBustersGameObjects@@QAE_NXZ ; RenCometBustersGameObjects::CheckIfLevelComplete
PUBLIC	?ClearAllObjects@RenCometBustersGameObjects@@QAEXXZ ; RenCometBustersGameObjects::ClearAllObjects
PUBLIC	?GrantScoreToKiller@RenCometBustersGameObjects@@QAEXPAVScriptableGameObj@@MW4ObjectType@@H@Z ; RenCometBustersGameObjects::GrantScoreToKiller
PUBLIC	?FindMineTarget@RenCometBustersGameObjects@@QAEPAUAnObject@@PAVScriptableGameObj@@PAH@Z ; RenCometBustersGameObjects::FindMineTarget
PUBLIC	?KillInRange@RenCometBustersGameObjects@@QAEXPAVScriptableGameObj@@ABVVector3@@MM@Z ; RenCometBustersGameObjects::KillInRange
PUBLIC	?FindDroneAvoidObjectInRange@RenCometBustersGameObjects@@QAEHPAVScriptableGameObj@@PAVVector3@@MPAM@Z ; RenCometBustersGameObjects::FindDroneAvoidObjectInRange
PUBLIC	?CheckForDroneTarget@RenCometBustersGameObjects@@QAEPAVScriptableGameObj@@PAV2@ABVVector3@@PAM@Z ; RenCometBustersGameObjects::CheckForDroneTarget
PUBLIC	?Random_Map_Position@@YA?AVVector3@@XZ		; Random_Map_Position
PUBLIC	?Created@JMG_CMTB_Main_Game_Control@@EAEXPAVScriptableGameObj@@@Z ; JMG_CMTB_Main_Game_Control::Created
PUBLIC	?Timer_Expired@JMG_CMTB_Main_Game_Control@@EAEXPAVScriptableGameObj@@H@Z ; JMG_CMTB_Main_Game_Control::Timer_Expired
PUBLIC	?Custom@JMG_CMTB_Main_Game_Control@@EAEXPAVScriptableGameObj@@HH0@Z ; JMG_CMTB_Main_Game_Control::Custom
PUBLIC	?Destroyed@JMG_CMTB_Main_Game_Control@@EAEXPAVScriptableGameObj@@@Z ; JMG_CMTB_Main_Game_Control::Destroyed
PUBLIC	?Create_Player_Ship@JMG_CMTB_Main_Game_Control@@AAEXPAVScriptableGameObj@@H@Z ; JMG_CMTB_Main_Game_Control::Create_Player_Ship
PUBLIC	?DisableGun@JMG_CMTB_Main_Game_Control@@AAEXPAVScriptableGameObj@@@Z ; JMG_CMTB_Main_Game_Control::DisableGun
PUBLIC	?FadeMusic@JMG_CMTB_Main_Game_Control@@AAEXPBD@Z ; JMG_CMTB_Main_Game_Control::FadeMusic
PUBLIC	??0JMG_CMTB_Main_Game_Control@@QAE@XZ		; JMG_CMTB_Main_Game_Control::JMG_CMTB_Main_Game_Control
PUBLIC	??1JMG_CMTB_Main_Game_Control@@UAE@XZ		; JMG_CMTB_Main_Game_Control::~JMG_CMTB_Main_Game_Control
PUBLIC	??_GJMG_CMTB_Main_Game_Control@@UAEPAXI@Z	; JMG_CMTB_Main_Game_Control::`scalar deleting destructor'
PUBLIC	?Created@JMG_CMTB_UFO_Random_Fire_Control@@EAEXPAVScriptableGameObj@@@Z ; JMG_CMTB_UFO_Random_Fire_Control::Created
PUBLIC	?Timer_Expired@JMG_CMTB_UFO_Random_Fire_Control@@EAEXPAVScriptableGameObj@@H@Z ; JMG_CMTB_UFO_Random_Fire_Control::Timer_Expired
PUBLIC	?Killed@JMG_CMTB_UFO_Random_Fire_Control@@EAEXPAVScriptableGameObj@@0@Z ; JMG_CMTB_UFO_Random_Fire_Control::Killed
PUBLIC	?Destroyed@JMG_CMTB_UFO_Random_Fire_Control@@EAEXPAVScriptableGameObj@@@Z ; JMG_CMTB_UFO_Random_Fire_Control::Destroyed
PUBLIC	??0JMG_CMTB_UFO_Random_Fire_Control@@QAE@XZ	; JMG_CMTB_UFO_Random_Fire_Control::JMG_CMTB_UFO_Random_Fire_Control
PUBLIC	??1JMG_CMTB_UFO_Random_Fire_Control@@UAE@XZ	; JMG_CMTB_UFO_Random_Fire_Control::~JMG_CMTB_UFO_Random_Fire_Control
PUBLIC	??_GJMG_CMTB_UFO_Random_Fire_Control@@UAEPAXI@Z	; JMG_CMTB_UFO_Random_Fire_Control::`scalar deleting destructor'
PUBLIC	?Created@JMG_CMTB_Ship_Control_Script@@EAEXPAVScriptableGameObj@@@Z ; JMG_CMTB_Ship_Control_Script::Created
PUBLIC	?Timer_Expired@JMG_CMTB_Ship_Control_Script@@EAEXPAVScriptableGameObj@@H@Z ; JMG_CMTB_Ship_Control_Script::Timer_Expired
PUBLIC	?Custom@JMG_CMTB_Ship_Control_Script@@EAEXPAVScriptableGameObj@@HH0@Z ; JMG_CMTB_Ship_Control_Script::Custom
PUBLIC	?Damaged@JMG_CMTB_Ship_Control_Script@@EAEXPAVScriptableGameObj@@0M@Z ; JMG_CMTB_Ship_Control_Script::Damaged
PUBLIC	?Killed@JMG_CMTB_Ship_Control_Script@@EAEXPAVScriptableGameObj@@0@Z ; JMG_CMTB_Ship_Control_Script::Killed
PUBLIC	?Destroyed@JMG_CMTB_Ship_Control_Script@@EAEXPAVScriptableGameObj@@@Z ; JMG_CMTB_Ship_Control_Script::Destroyed
PUBLIC	?ShieldOff@JMG_CMTB_Ship_Control_Script@@AAEXPAVScriptableGameObj@@@Z ; JMG_CMTB_Ship_Control_Script::ShieldOff
PUBLIC	?CloakOff@JMG_CMTB_Ship_Control_Script@@AAEXPAVScriptableGameObj@@@Z ; JMG_CMTB_Ship_Control_Script::CloakOff
PUBLIC	?DrainPower@JMG_CMTB_Ship_Control_Script@@AAE_NPAVScriptableGameObj@@H@Z ; JMG_CMTB_Ship_Control_Script::DrainPower
PUBLIC	?ReturnToNormalState@JMG_CMTB_Ship_Control_Script@@AAEXPAVScriptableGameObj@@@Z ; JMG_CMTB_Ship_Control_Script::ReturnToNormalState
PUBLIC	??0JMG_CMTB_Ship_Control_Script@@QAE@XZ		; JMG_CMTB_Ship_Control_Script::JMG_CMTB_Ship_Control_Script
PUBLIC	??1JMG_CMTB_Ship_Control_Script@@UAE@XZ		; JMG_CMTB_Ship_Control_Script::~JMG_CMTB_Ship_Control_Script
PUBLIC	??_GJMG_CMTB_Ship_Control_Script@@UAEPAXI@Z	; JMG_CMTB_Ship_Control_Script::`scalar deleting destructor'
PUBLIC	?Created@JMG_CMTB_Comet_Script@@EAEXPAVScriptableGameObj@@@Z ; JMG_CMTB_Comet_Script::Created
PUBLIC	?Killed@JMG_CMTB_Comet_Script@@EAEXPAVScriptableGameObj@@0@Z ; JMG_CMTB_Comet_Script::Killed
PUBLIC	?Destroyed@JMG_CMTB_Comet_Script@@EAEXPAVScriptableGameObj@@@Z ; JMG_CMTB_Comet_Script::Destroyed
PUBLIC	??0JMG_CMTB_Comet_Script@@QAE@XZ		; JMG_CMTB_Comet_Script::JMG_CMTB_Comet_Script
PUBLIC	??1JMG_CMTB_Comet_Script@@UAE@XZ		; JMG_CMTB_Comet_Script::~JMG_CMTB_Comet_Script
PUBLIC	??_GJMG_CMTB_Comet_Script@@UAEPAXI@Z		; JMG_CMTB_Comet_Script::`scalar deleting destructor'
PUBLIC	?Entered@JMG_CMTB_Zone_Realign_Enter@@EAEXPAVScriptableGameObj@@0@Z ; JMG_CMTB_Zone_Realign_Enter::Entered
PUBLIC	??0JMG_CMTB_Zone_Realign_Enter@@QAE@XZ		; JMG_CMTB_Zone_Realign_Enter::JMG_CMTB_Zone_Realign_Enter
PUBLIC	??1JMG_CMTB_Zone_Realign_Enter@@UAE@XZ		; JMG_CMTB_Zone_Realign_Enter::~JMG_CMTB_Zone_Realign_Enter
PUBLIC	??_GJMG_CMTB_Zone_Realign_Enter@@UAEPAXI@Z	; JMG_CMTB_Zone_Realign_Enter::`scalar deleting destructor'
PUBLIC	?Created@JMG_CMTB_Spectator_Object@@EAEXPAVScriptableGameObj@@@Z ; JMG_CMTB_Spectator_Object::Created
PUBLIC	?Timer_Expired@JMG_CMTB_Spectator_Object@@EAEXPAVScriptableGameObj@@H@Z ; JMG_CMTB_Spectator_Object::Timer_Expired
PUBLIC	?Custom@JMG_CMTB_Spectator_Object@@EAEXPAVScriptableGameObj@@HH0@Z ; JMG_CMTB_Spectator_Object::Custom
PUBLIC	?SpecialAbilitiesList@JMG_CMTB_Spectator_Object@@AAEXPAVScriptableGameObj@@@Z ; JMG_CMTB_Spectator_Object::SpecialAbilitiesList
PUBLIC	?ResetCurrentAbility@JMG_CMTB_Spectator_Object@@AAEXPAVScriptableGameObj@@@Z ; JMG_CMTB_Spectator_Object::ResetCurrentAbility
PUBLIC	??0JMG_CMTB_Spectator_Object@@QAE@XZ		; JMG_CMTB_Spectator_Object::JMG_CMTB_Spectator_Object
PUBLIC	??1JMG_CMTB_Spectator_Object@@UAE@XZ		; JMG_CMTB_Spectator_Object::~JMG_CMTB_Spectator_Object
PUBLIC	??_GJMG_CMTB_Spectator_Object@@UAEPAXI@Z	; JMG_CMTB_Spectator_Object::`scalar deleting destructor'
PUBLIC	?Created@JMG_CMTB_Arcade_Machine@@EAEXPAVScriptableGameObj@@@Z ; JMG_CMTB_Arcade_Machine::Created
PUBLIC	?Poked@JMG_CMTB_Arcade_Machine@@EAEXPAVScriptableGameObj@@0@Z ; JMG_CMTB_Arcade_Machine::Poked
PUBLIC	??0JMG_CMTB_Arcade_Machine@@QAE@XZ		; JMG_CMTB_Arcade_Machine::JMG_CMTB_Arcade_Machine
PUBLIC	??1JMG_CMTB_Arcade_Machine@@UAE@XZ		; JMG_CMTB_Arcade_Machine::~JMG_CMTB_Arcade_Machine
PUBLIC	??_GJMG_CMTB_Arcade_Machine@@UAEPAXI@Z		; JMG_CMTB_Arcade_Machine::`scalar deleting destructor'
PUBLIC	?Created@JMG_CMTB_Fake_Player_Attach_Script@@EAEXPAVScriptableGameObj@@@Z ; JMG_CMTB_Fake_Player_Attach_Script::Created
PUBLIC	?Timer_Expired@JMG_CMTB_Fake_Player_Attach_Script@@EAEXPAVScriptableGameObj@@H@Z ; JMG_CMTB_Fake_Player_Attach_Script::Timer_Expired
PUBLIC	?Killed@JMG_CMTB_Fake_Player_Attach_Script@@EAEXPAVScriptableGameObj@@0@Z ; JMG_CMTB_Fake_Player_Attach_Script::Killed
PUBLIC	??0JMG_CMTB_Fake_Player_Attach_Script@@QAE@XZ	; JMG_CMTB_Fake_Player_Attach_Script::JMG_CMTB_Fake_Player_Attach_Script
PUBLIC	??1JMG_CMTB_Fake_Player_Attach_Script@@UAE@XZ	; JMG_CMTB_Fake_Player_Attach_Script::~JMG_CMTB_Fake_Player_Attach_Script
PUBLIC	??_GJMG_CMTB_Fake_Player_Attach_Script@@UAEPAXI@Z ; JMG_CMTB_Fake_Player_Attach_Script::`scalar deleting destructor'
PUBLIC	?Created@JMG_CMTB_Renegade_Code@@EAEXPAVScriptableGameObj@@@Z ; JMG_CMTB_Renegade_Code::Created
PUBLIC	?Custom@JMG_CMTB_Renegade_Code@@EAEXPAVScriptableGameObj@@HH0@Z ; JMG_CMTB_Renegade_Code::Custom
PUBLIC	??0JMG_CMTB_Renegade_Code@@QAE@XZ		; JMG_CMTB_Renegade_Code::JMG_CMTB_Renegade_Code
PUBLIC	??1JMG_CMTB_Renegade_Code@@UAE@XZ		; JMG_CMTB_Renegade_Code::~JMG_CMTB_Renegade_Code
PUBLIC	??_GJMG_CMTB_Renegade_Code@@UAEPAXI@Z		; JMG_CMTB_Renegade_Code::`scalar deleting destructor'
PUBLIC	?Created@JMG_CMTB_Motion_Mine@@EAEXPAVScriptableGameObj@@@Z ; JMG_CMTB_Motion_Mine::Created
PUBLIC	?Timer_Expired@JMG_CMTB_Motion_Mine@@EAEXPAVScriptableGameObj@@H@Z ; JMG_CMTB_Motion_Mine::Timer_Expired
PUBLIC	?Killed@JMG_CMTB_Motion_Mine@@EAEXPAVScriptableGameObj@@0@Z ; JMG_CMTB_Motion_Mine::Killed
PUBLIC	?Destroyed@JMG_CMTB_Motion_Mine@@EAEXPAVScriptableGameObj@@@Z ; JMG_CMTB_Motion_Mine::Destroyed
PUBLIC	?Clamp_Value@JMG_CMTB_Motion_Mine@@AAEMMMM@Z	; JMG_CMTB_Motion_Mine::Clamp_Value
PUBLIC	??0JMG_CMTB_Motion_Mine@@QAE@XZ			; JMG_CMTB_Motion_Mine::JMG_CMTB_Motion_Mine
PUBLIC	??1JMG_CMTB_Motion_Mine@@UAE@XZ			; JMG_CMTB_Motion_Mine::~JMG_CMTB_Motion_Mine
PUBLIC	??_GJMG_CMTB_Motion_Mine@@UAEPAXI@Z		; JMG_CMTB_Motion_Mine::`scalar deleting destructor'
PUBLIC	?Created@JMG_CMTB_The_Moon_Script@@EAEXPAVScriptableGameObj@@@Z ; JMG_CMTB_The_Moon_Script::Created
PUBLIC	?Timer_Expired@JMG_CMTB_The_Moon_Script@@EAEXPAVScriptableGameObj@@H@Z ; JMG_CMTB_The_Moon_Script::Timer_Expired
PUBLIC	?Damaged@JMG_CMTB_The_Moon_Script@@EAEXPAVScriptableGameObj@@0M@Z ; JMG_CMTB_The_Moon_Script::Damaged
PUBLIC	?Killed@JMG_CMTB_The_Moon_Script@@EAEXPAVScriptableGameObj@@0@Z ; JMG_CMTB_The_Moon_Script::Killed
PUBLIC	?Destroyed@JMG_CMTB_The_Moon_Script@@EAEXPAVScriptableGameObj@@@Z ; JMG_CMTB_The_Moon_Script::Destroyed
PUBLIC	?EnableSpawnPositions@JMG_CMTB_The_Moon_Script@@AAE_NPAVScriptableGameObj@@@Z ; JMG_CMTB_The_Moon_Script::EnableSpawnPositions
PUBLIC	??0JMG_CMTB_The_Moon_Script@@QAE@XZ		; JMG_CMTB_The_Moon_Script::JMG_CMTB_The_Moon_Script
PUBLIC	??1JMG_CMTB_The_Moon_Script@@UAE@XZ		; JMG_CMTB_The_Moon_Script::~JMG_CMTB_The_Moon_Script
PUBLIC	??_GJMG_CMTB_The_Moon_Script@@UAEPAXI@Z		; JMG_CMTB_The_Moon_Script::`scalar deleting destructor'
PUBLIC	?Created@JMG_CMTB_Ship_Super_Weapon@@EAEXPAVScriptableGameObj@@@Z ; JMG_CMTB_Ship_Super_Weapon::Created
PUBLIC	?Timer_Expired@JMG_CMTB_Ship_Super_Weapon@@EAEXPAVScriptableGameObj@@H@Z ; JMG_CMTB_Ship_Super_Weapon::Timer_Expired
PUBLIC	??0JMG_CMTB_Ship_Super_Weapon@@QAE@XZ		; JMG_CMTB_Ship_Super_Weapon::JMG_CMTB_Ship_Super_Weapon
PUBLIC	??1JMG_CMTB_Ship_Super_Weapon@@UAE@XZ		; JMG_CMTB_Ship_Super_Weapon::~JMG_CMTB_Ship_Super_Weapon
PUBLIC	??_GJMG_CMTB_Ship_Super_Weapon@@UAEPAXI@Z	; JMG_CMTB_Ship_Super_Weapon::`scalar deleting destructor'
PUBLIC	?Created@JMG_CMTB_Powerup_Script@@EAEXPAVScriptableGameObj@@@Z ; JMG_CMTB_Powerup_Script::Created
PUBLIC	?Timer_Expired@JMG_CMTB_Powerup_Script@@EAEXPAVScriptableGameObj@@H@Z ; JMG_CMTB_Powerup_Script::Timer_Expired
PUBLIC	?Killed@JMG_CMTB_Powerup_Script@@EAEXPAVScriptableGameObj@@0@Z ; JMG_CMTB_Powerup_Script::Killed
PUBLIC	?Destroyed@JMG_CMTB_Powerup_Script@@EAEXPAVScriptableGameObj@@@Z ; JMG_CMTB_Powerup_Script::Destroyed
PUBLIC	??0JMG_CMTB_Powerup_Script@@QAE@XZ		; JMG_CMTB_Powerup_Script::JMG_CMTB_Powerup_Script
PUBLIC	??1JMG_CMTB_Powerup_Script@@UAE@XZ		; JMG_CMTB_Powerup_Script::~JMG_CMTB_Powerup_Script
PUBLIC	??_GJMG_CMTB_Powerup_Script@@UAEPAXI@Z		; JMG_CMTB_Powerup_Script::`scalar deleting destructor'
PUBLIC	?Created@JMG_CMTB_Cargo_Ship_Script@@EAEXPAVScriptableGameObj@@@Z ; JMG_CMTB_Cargo_Ship_Script::Created
PUBLIC	?Timer_Expired@JMG_CMTB_Cargo_Ship_Script@@EAEXPAVScriptableGameObj@@H@Z ; JMG_CMTB_Cargo_Ship_Script::Timer_Expired
PUBLIC	?Damaged@JMG_CMTB_Cargo_Ship_Script@@EAEXPAVScriptableGameObj@@0M@Z ; JMG_CMTB_Cargo_Ship_Script::Damaged
PUBLIC	?Killed@JMG_CMTB_Cargo_Ship_Script@@EAEXPAVScriptableGameObj@@0@Z ; JMG_CMTB_Cargo_Ship_Script::Killed
PUBLIC	?Destroyed@JMG_CMTB_Cargo_Ship_Script@@EAEXPAVScriptableGameObj@@@Z ; JMG_CMTB_Cargo_Ship_Script::Destroyed
PUBLIC	??0JMG_CMTB_Cargo_Ship_Script@@QAE@XZ		; JMG_CMTB_Cargo_Ship_Script::JMG_CMTB_Cargo_Ship_Script
PUBLIC	??1JMG_CMTB_Cargo_Ship_Script@@UAE@XZ		; JMG_CMTB_Cargo_Ship_Script::~JMG_CMTB_Cargo_Ship_Script
PUBLIC	??_GJMG_CMTB_Cargo_Ship_Script@@UAEPAXI@Z	; JMG_CMTB_Cargo_Ship_Script::`scalar deleting destructor'
PUBLIC	?Created@JMG_CMTB_Cargo_Ship_Turret@@EAEXPAVScriptableGameObj@@@Z ; JMG_CMTB_Cargo_Ship_Turret::Created
PUBLIC	?Enemy_Seen@JMG_CMTB_Cargo_Ship_Turret@@EAEXPAVScriptableGameObj@@0@Z ; JMG_CMTB_Cargo_Ship_Turret::Enemy_Seen
PUBLIC	?Custom@JMG_CMTB_Cargo_Ship_Turret@@EAEXPAVScriptableGameObj@@HH0@Z ; JMG_CMTB_Cargo_Ship_Turret::Custom
PUBLIC	?Timer_Expired@JMG_CMTB_Cargo_Ship_Turret@@EAEXPAVScriptableGameObj@@H@Z ; JMG_CMTB_Cargo_Ship_Turret::Timer_Expired
PUBLIC	?Destroyed@JMG_CMTB_Cargo_Ship_Turret@@EAEXPAVScriptableGameObj@@@Z ; JMG_CMTB_Cargo_Ship_Turret::Destroyed
PUBLIC	?SafeDiv@JMG_CMTB_Cargo_Ship_Turret@@AAEMMM@Z	; JMG_CMTB_Cargo_Ship_Turret::SafeDiv
PUBLIC	?EndAttack@JMG_CMTB_Cargo_Ship_Turret@@AAEXPAVScriptableGameObj@@@Z ; JMG_CMTB_Cargo_Ship_Turret::EndAttack
PUBLIC	?CheckIfInTargetableRange@JMG_CMTB_Cargo_Ship_Turret@@AAE_NPAVScriptableGameObj@@ABVVector3@@@Z ; JMG_CMTB_Cargo_Ship_Turret::CheckIfInTargetableRange
PUBLIC	??0JMG_CMTB_Cargo_Ship_Turret@@QAE@XZ		; JMG_CMTB_Cargo_Ship_Turret::JMG_CMTB_Cargo_Ship_Turret
PUBLIC	??1JMG_CMTB_Cargo_Ship_Turret@@UAE@XZ		; JMG_CMTB_Cargo_Ship_Turret::~JMG_CMTB_Cargo_Ship_Turret
PUBLIC	??_GJMG_CMTB_Cargo_Ship_Turret@@UAEPAXI@Z	; JMG_CMTB_Cargo_Ship_Turret::`scalar deleting destructor'
PUBLIC	?Created@JMG_CMTB_Player_Drone@@EAEXPAVScriptableGameObj@@@Z ; JMG_CMTB_Player_Drone::Created
PUBLIC	?Custom@JMG_CMTB_Player_Drone@@EAEXPAVScriptableGameObj@@HH0@Z ; JMG_CMTB_Player_Drone::Custom
PUBLIC	?Timer_Expired@JMG_CMTB_Player_Drone@@EAEXPAVScriptableGameObj@@H@Z ; JMG_CMTB_Player_Drone::Timer_Expired
PUBLIC	?Killed@JMG_CMTB_Player_Drone@@EAEXPAVScriptableGameObj@@0@Z ; JMG_CMTB_Player_Drone::Killed
PUBLIC	?Destroyed@JMG_CMTB_Player_Drone@@EAEXPAVScriptableGameObj@@@Z ; JMG_CMTB_Player_Drone::Destroyed
PUBLIC	?ChangeState@JMG_CMTB_Player_Drone@@AAE_NW4AI_State@1@@Z ; JMG_CMTB_Player_Drone::ChangeState
PUBLIC	?Drone_Action_Complete@JMG_CMTB_Player_Drone@@AAEXPAVScriptableGameObj@@@Z ; JMG_CMTB_Player_Drone::Drone_Action_Complete
PUBLIC	?AI_Update@JMG_CMTB_Player_Drone@@AAEXPAVScriptableGameObj@@_N@Z ; JMG_CMTB_Player_Drone::AI_Update
PUBLIC	?Drone_Attack@JMG_CMTB_Player_Drone@@AAEXPAVScriptableGameObj@@@Z ; JMG_CMTB_Player_Drone::Drone_Attack
PUBLIC	?Position_At_Player@JMG_CMTB_Player_Drone@@AAEXPAVScriptableGameObj@@@Z ; JMG_CMTB_Player_Drone::Position_At_Player
PUBLIC	?ShieldOff@JMG_CMTB_Player_Drone@@AAEXPAVScriptableGameObj@@@Z ; JMG_CMTB_Player_Drone::ShieldOff
PUBLIC	?ShieldOn@JMG_CMTB_Player_Drone@@AAEXPAVScriptableGameObj@@@Z ; JMG_CMTB_Player_Drone::ShieldOn
PUBLIC	??0JMG_CMTB_Player_Drone@@QAE@XZ		; JMG_CMTB_Player_Drone::JMG_CMTB_Player_Drone
PUBLIC	??1JMG_CMTB_Player_Drone@@UAE@XZ		; JMG_CMTB_Player_Drone::~JMG_CMTB_Player_Drone
PUBLIC	??_GJMG_CMTB_Player_Drone@@UAEPAXI@Z		; JMG_CMTB_Player_Drone::`scalar deleting destructor'
PUBLIC	?Created@JMG_Create_Ship_On_Poke@@EAEXPAVScriptableGameObj@@@Z ; JMG_Create_Ship_On_Poke::Created
PUBLIC	?Poked@JMG_Create_Ship_On_Poke@@EAEXPAVScriptableGameObj@@0@Z ; JMG_Create_Ship_On_Poke::Poked
PUBLIC	?Timer_Expired@JMG_Create_Ship_On_Poke@@EAEXPAVScriptableGameObj@@H@Z ; JMG_Create_Ship_On_Poke::Timer_Expired
PUBLIC	??0JMG_Create_Ship_On_Poke@@QAE@XZ		; JMG_Create_Ship_On_Poke::JMG_Create_Ship_On_Poke
PUBLIC	??1JMG_Create_Ship_On_Poke@@UAE@XZ		; JMG_Create_Ship_On_Poke::~JMG_Create_Ship_On_Poke
PUBLIC	??_GJMG_Create_Ship_On_Poke@@UAEPAXI@Z		; JMG_Create_Ship_On_Poke::`scalar deleting destructor'
PUBLIC	?Entered@JMG_Advanced_Bounce_Zone@@EAEXPAVScriptableGameObj@@0@Z ; JMG_Advanced_Bounce_Zone::Entered
PUBLIC	??0JMG_Advanced_Bounce_Zone@@QAE@XZ		; JMG_Advanced_Bounce_Zone::JMG_Advanced_Bounce_Zone
PUBLIC	??1JMG_Advanced_Bounce_Zone@@UAE@XZ		; JMG_Advanced_Bounce_Zone::~JMG_Advanced_Bounce_Zone
PUBLIC	??_GJMG_Advanced_Bounce_Zone@@UAEPAXI@Z		; JMG_Advanced_Bounce_Zone::`scalar deleting destructor'
PUBLIC	?Created@JMG_Ship_Random_Hyperspace@@EAEXPAVScriptableGameObj@@@Z ; JMG_Ship_Random_Hyperspace::Created
PUBLIC	?Custom@JMG_Ship_Random_Hyperspace@@EAEXPAVScriptableGameObj@@HH0@Z ; JMG_Ship_Random_Hyperspace::Custom
PUBLIC	?Timer_Expired@JMG_Ship_Random_Hyperspace@@EAEXPAVScriptableGameObj@@H@Z ; JMG_Ship_Random_Hyperspace::Timer_Expired
PUBLIC	??0JMG_Ship_Random_Hyperspace@@QAE@XZ		; JMG_Ship_Random_Hyperspace::JMG_Ship_Random_Hyperspace
PUBLIC	??1JMG_Ship_Random_Hyperspace@@UAE@XZ		; JMG_Ship_Random_Hyperspace::~JMG_Ship_Random_Hyperspace
PUBLIC	??_GJMG_Ship_Random_Hyperspace@@UAEPAXI@Z	; JMG_Ship_Random_Hyperspace::`scalar deleting destructor'
PUBLIC	?Created@JMG_Random_Music@@EAEXPAVScriptableGameObj@@@Z ; JMG_Random_Music::Created
PUBLIC	?Timer_Expired@JMG_Random_Music@@EAEXPAVScriptableGameObj@@H@Z ; JMG_Random_Music::Timer_Expired
PUBLIC	??0JMG_Random_Music@@QAE@XZ			; JMG_Random_Music::JMG_Random_Music
PUBLIC	??1JMG_Random_Music@@UAE@XZ			; JMG_Random_Music::~JMG_Random_Music
PUBLIC	??_GJMG_Random_Music@@UAEPAXI@Z			; JMG_Random_Music::`scalar deleting destructor'
PUBLIC	?Created@JMG_Ship_Weapon@@EAEXPAVScriptableGameObj@@@Z ; JMG_Ship_Weapon::Created
PUBLIC	?Custom@JMG_Ship_Weapon@@EAEXPAVScriptableGameObj@@HH0@Z ; JMG_Ship_Weapon::Custom
PUBLIC	?Timer_Expired@JMG_Ship_Weapon@@EAEXPAVScriptableGameObj@@H@Z ; JMG_Ship_Weapon::Timer_Expired
PUBLIC	??0JMG_Ship_Weapon@@QAE@XZ			; JMG_Ship_Weapon::JMG_Ship_Weapon
PUBLIC	??1JMG_Ship_Weapon@@UAE@XZ			; JMG_Ship_Weapon::~JMG_Ship_Weapon
PUBLIC	??_GJMG_Ship_Weapon@@UAEPAXI@Z			; JMG_Ship_Weapon::`scalar deleting destructor'
PUBLIC	?Damaged@JMG_Return_Custom_When_Shot@@EAEXPAVScriptableGameObj@@0M@Z ; JMG_Return_Custom_When_Shot::Damaged
PUBLIC	??0JMG_Return_Custom_When_Shot@@QAE@XZ		; JMG_Return_Custom_When_Shot::JMG_Return_Custom_When_Shot
PUBLIC	??1JMG_Return_Custom_When_Shot@@UAE@XZ		; JMG_Return_Custom_When_Shot::~JMG_Return_Custom_When_Shot
PUBLIC	??_GJMG_Return_Custom_When_Shot@@UAEPAXI@Z	; JMG_Return_Custom_When_Shot::`scalar deleting destructor'
PUBLIC	?Created@JMG_Cronie_AI@@EAEXPAVScriptableGameObj@@@Z ; JMG_Cronie_AI::Created
PUBLIC	?Enemy_Seen@JMG_Cronie_AI@@EAEXPAVScriptableGameObj@@0@Z ; JMG_Cronie_AI::Enemy_Seen
PUBLIC	?Timer_Expired@JMG_Cronie_AI@@EAEXPAVScriptableGameObj@@H@Z ; JMG_Cronie_AI::Timer_Expired
PUBLIC	??0JMG_Cronie_AI@@QAE@XZ			; JMG_Cronie_AI::JMG_Cronie_AI
PUBLIC	??1JMG_Cronie_AI@@UAE@XZ			; JMG_Cronie_AI::~JMG_Cronie_AI
PUBLIC	??_GJMG_Cronie_AI@@UAEPAXI@Z			; JMG_Cronie_AI::`scalar deleting destructor'
PUBLIC	?Custom@JMG_Kill_Self_And_Sender_On_Custom@@EAEXPAVScriptableGameObj@@HH0@Z ; JMG_Kill_Self_And_Sender_On_Custom::Custom
PUBLIC	??0JMG_Kill_Self_And_Sender_On_Custom@@QAE@XZ	; JMG_Kill_Self_And_Sender_On_Custom::JMG_Kill_Self_And_Sender_On_Custom
PUBLIC	??1JMG_Kill_Self_And_Sender_On_Custom@@UAE@XZ	; JMG_Kill_Self_And_Sender_On_Custom::~JMG_Kill_Self_And_Sender_On_Custom
PUBLIC	??_GJMG_Kill_Self_And_Sender_On_Custom@@UAEPAXI@Z ; JMG_Kill_Self_And_Sender_On_Custom::`scalar deleting destructor'
PUBLIC	?Created@JMG_Ship_Shield_Control_Script@@EAEXPAVScriptableGameObj@@@Z ; JMG_Ship_Shield_Control_Script::Created
PUBLIC	?Custom@JMG_Ship_Shield_Control_Script@@EAEXPAVScriptableGameObj@@HH0@Z ; JMG_Ship_Shield_Control_Script::Custom
PUBLIC	?Killed@JMG_Ship_Shield_Control_Script@@EAEXPAVScriptableGameObj@@0@Z ; JMG_Ship_Shield_Control_Script::Killed
PUBLIC	??0JMG_Ship_Shield_Control_Script@@QAE@XZ	; JMG_Ship_Shield_Control_Script::JMG_Ship_Shield_Control_Script
PUBLIC	??1JMG_Ship_Shield_Control_Script@@UAE@XZ	; JMG_Ship_Shield_Control_Script::~JMG_Ship_Shield_Control_Script
PUBLIC	??_GJMG_Ship_Shield_Control_Script@@UAEPAXI@Z	; JMG_Ship_Shield_Control_Script::`scalar deleting destructor'
PUBLIC	?Created@JMG_Kill_Self_And_Sender_On_Custom_Ship@@EAEXPAVScriptableGameObj@@@Z ; JMG_Kill_Self_And_Sender_On_Custom_Ship::Created
PUBLIC	?Custom@JMG_Kill_Self_And_Sender_On_Custom_Ship@@EAEXPAVScriptableGameObj@@HH0@Z ; JMG_Kill_Self_And_Sender_On_Custom_Ship::Custom
PUBLIC	??0JMG_Kill_Self_And_Sender_On_Custom_Ship@@QAE@XZ ; JMG_Kill_Self_And_Sender_On_Custom_Ship::JMG_Kill_Self_And_Sender_On_Custom_Ship
PUBLIC	??1JMG_Kill_Self_And_Sender_On_Custom_Ship@@UAE@XZ ; JMG_Kill_Self_And_Sender_On_Custom_Ship::~JMG_Kill_Self_And_Sender_On_Custom_Ship
PUBLIC	??_GJMG_Kill_Self_And_Sender_On_Custom_Ship@@UAEPAXI@Z ; JMG_Kill_Self_And_Sender_On_Custom_Ship::`scalar deleting destructor'
PUBLIC	?Created@JMG_Ship_Shield_Script@@EAEXPAVScriptableGameObj@@@Z ; JMG_Ship_Shield_Script::Created
PUBLIC	?Custom@JMG_Ship_Shield_Script@@EAEXPAVScriptableGameObj@@HH0@Z ; JMG_Ship_Shield_Script::Custom
PUBLIC	?Timer_Expired@JMG_Ship_Shield_Script@@EAEXPAVScriptableGameObj@@H@Z ; JMG_Ship_Shield_Script::Timer_Expired
PUBLIC	?Damaged@JMG_Ship_Shield_Script@@EAEXPAVScriptableGameObj@@0M@Z ; JMG_Ship_Shield_Script::Damaged
PUBLIC	??0JMG_Ship_Shield_Script@@QAE@XZ		; JMG_Ship_Shield_Script::JMG_Ship_Shield_Script
PUBLIC	??1JMG_Ship_Shield_Script@@UAE@XZ		; JMG_Ship_Shield_Script::~JMG_Ship_Shield_Script
PUBLIC	??_GJMG_Ship_Shield_Script@@UAEPAXI@Z		; JMG_Ship_Shield_Script::`scalar deleting destructor'
PUBLIC	?Custom@JMG_Renetbusters_Object@@EAEXPAVScriptableGameObj@@HH0@Z ; JMG_Renetbusters_Object::Custom
PUBLIC	??0JMG_Renetbusters_Object@@QAE@XZ		; JMG_Renetbusters_Object::JMG_Renetbusters_Object
PUBLIC	??1JMG_Renetbusters_Object@@UAE@XZ		; JMG_Renetbusters_Object::~JMG_Renetbusters_Object
PUBLIC	??_GJMG_Renetbusters_Object@@UAEPAXI@Z		; JMG_Renetbusters_Object::`scalar deleting destructor'
PUBLIC	?Damaged@JMG_New_Ship_Weapon_Control_System@@EAEXPAVScriptableGameObj@@0M@Z ; JMG_New_Ship_Weapon_Control_System::Damaged
PUBLIC	??0JMG_New_Ship_Weapon_Control_System@@QAE@XZ	; JMG_New_Ship_Weapon_Control_System::JMG_New_Ship_Weapon_Control_System
PUBLIC	??1JMG_New_Ship_Weapon_Control_System@@UAE@XZ	; JMG_New_Ship_Weapon_Control_System::~JMG_New_Ship_Weapon_Control_System
PUBLIC	??_GJMG_New_Ship_Weapon_Control_System@@UAEPAXI@Z ; JMG_New_Ship_Weapon_Control_System::`scalar deleting destructor'
PUBLIC	?Created@JMG_Comet_Control_Script@@EAEXPAVScriptableGameObj@@@Z ; JMG_Comet_Control_Script::Created
PUBLIC	?Timer_Expired@JMG_Comet_Control_Script@@EAEXPAVScriptableGameObj@@H@Z ; JMG_Comet_Control_Script::Timer_Expired
PUBLIC	?Killed@JMG_Comet_Control_Script@@EAEXPAVScriptableGameObj@@0@Z ; JMG_Comet_Control_Script::Killed
PUBLIC	??0JMG_Comet_Control_Script@@QAE@XZ		; JMG_Comet_Control_Script::JMG_Comet_Control_Script
PUBLIC	??1JMG_Comet_Control_Script@@UAE@XZ		; JMG_Comet_Control_Script::~JMG_Comet_Control_Script
PUBLIC	??_GJMG_Comet_Control_Script@@UAEPAXI@Z		; JMG_Comet_Control_Script::`scalar deleting destructor'
PUBLIC	?Created@JMG_Attach_And_Remove@@EAEXPAVScriptableGameObj@@@Z ; JMG_Attach_And_Remove::Created
PUBLIC	?Timer_Expired@JMG_Attach_And_Remove@@EAEXPAVScriptableGameObj@@H@Z ; JMG_Attach_And_Remove::Timer_Expired
PUBLIC	??0JMG_Attach_And_Remove@@QAE@XZ		; JMG_Attach_And_Remove::JMG_Attach_And_Remove
PUBLIC	??1JMG_Attach_And_Remove@@UAE@XZ		; JMG_Attach_And_Remove::~JMG_Attach_And_Remove
PUBLIC	??_GJMG_Attach_And_Remove@@UAEPAXI@Z		; JMG_Attach_And_Remove::`scalar deleting destructor'
PUBLIC	?Created@JMG_User_Auto_Enter_Ship@@EAEXPAVScriptableGameObj@@@Z ; JMG_User_Auto_Enter_Ship::Created
PUBLIC	?Timer_Expired@JMG_User_Auto_Enter_Ship@@EAEXPAVScriptableGameObj@@H@Z ; JMG_User_Auto_Enter_Ship::Timer_Expired
PUBLIC	??0JMG_User_Auto_Enter_Ship@@QAE@XZ		; JMG_User_Auto_Enter_Ship::JMG_User_Auto_Enter_Ship
PUBLIC	??1JMG_User_Auto_Enter_Ship@@UAE@XZ		; JMG_User_Auto_Enter_Ship::~JMG_User_Auto_Enter_Ship
PUBLIC	??_GJMG_User_Auto_Enter_Ship@@UAEPAXI@Z		; JMG_User_Auto_Enter_Ship::`scalar deleting destructor'
PUBLIC	?Created@JMG_Apply_Damage_On_Timer@@EAEXPAVScriptableGameObj@@@Z ; JMG_Apply_Damage_On_Timer::Created
PUBLIC	?Timer_Expired@JMG_Apply_Damage_On_Timer@@EAEXPAVScriptableGameObj@@H@Z ; JMG_Apply_Damage_On_Timer::Timer_Expired
PUBLIC	??0JMG_Apply_Damage_On_Timer@@QAE@XZ		; JMG_Apply_Damage_On_Timer::JMG_Apply_Damage_On_Timer
PUBLIC	??1JMG_Apply_Damage_On_Timer@@UAE@XZ		; JMG_Apply_Damage_On_Timer::~JMG_Apply_Damage_On_Timer
PUBLIC	??_GJMG_Apply_Damage_On_Timer@@UAEPAXI@Z	; JMG_Apply_Damage_On_Timer::`scalar deleting destructor'
PUBLIC	?Created@JMG_CMTB_Vehicle_Face_Turret@@EAEXPAVScriptableGameObj@@@Z ; JMG_CMTB_Vehicle_Face_Turret::Created
PUBLIC	?Timer_Expired@JMG_CMTB_Vehicle_Face_Turret@@EAEXPAVScriptableGameObj@@H@Z ; JMG_CMTB_Vehicle_Face_Turret::Timer_Expired
PUBLIC	?Destroyed@JMG_CMTB_Vehicle_Face_Turret@@EAEXPAVScriptableGameObj@@@Z ; JMG_CMTB_Vehicle_Face_Turret::Destroyed
PUBLIC	??0JMG_CMTB_Vehicle_Face_Turret@@QAE@XZ		; JMG_CMTB_Vehicle_Face_Turret::JMG_CMTB_Vehicle_Face_Turret
PUBLIC	??1JMG_CMTB_Vehicle_Face_Turret@@UAE@XZ		; JMG_CMTB_Vehicle_Face_Turret::~JMG_CMTB_Vehicle_Face_Turret
PUBLIC	??_GJMG_CMTB_Vehicle_Face_Turret@@UAEPAXI@Z	; JMG_CMTB_Vehicle_Face_Turret::`scalar deleting destructor'
PUBLIC	?Created@JMG_CMTB_Poke_End_Map@@EAEXPAVScriptableGameObj@@@Z ; JMG_CMTB_Poke_End_Map::Created
PUBLIC	?Poked@JMG_CMTB_Poke_End_Map@@EAEXPAVScriptableGameObj@@0@Z ; JMG_CMTB_Poke_End_Map::Poked
PUBLIC	?Timer_Expired@JMG_CMTB_Poke_End_Map@@EAEXPAVScriptableGameObj@@H@Z ; JMG_CMTB_Poke_End_Map::Timer_Expired
PUBLIC	?FlipSwitch@JMG_CMTB_Poke_End_Map@@AAEXPAVScriptableGameObj@@M@Z ; JMG_CMTB_Poke_End_Map::FlipSwitch
PUBLIC	??0JMG_CMTB_Poke_End_Map@@QAE@XZ		; JMG_CMTB_Poke_End_Map::JMG_CMTB_Poke_End_Map
PUBLIC	??1JMG_CMTB_Poke_End_Map@@UAE@XZ		; JMG_CMTB_Poke_End_Map::~JMG_CMTB_Poke_End_Map
PUBLIC	??_GJMG_CMTB_Poke_End_Map@@UAEPAXI@Z		; JMG_CMTB_Poke_End_Map::`scalar deleting destructor'
PUBLIC	?Created@JMG_CMTB_Poke_Change_Difficulty@@EAEXPAVScriptableGameObj@@@Z ; JMG_CMTB_Poke_Change_Difficulty::Created
PUBLIC	?Poked@JMG_CMTB_Poke_Change_Difficulty@@EAEXPAVScriptableGameObj@@0@Z ; JMG_CMTB_Poke_Change_Difficulty::Poked
PUBLIC	??0JMG_CMTB_Poke_Change_Difficulty@@QAE@XZ	; JMG_CMTB_Poke_Change_Difficulty::JMG_CMTB_Poke_Change_Difficulty
PUBLIC	??1JMG_CMTB_Poke_Change_Difficulty@@UAE@XZ	; JMG_CMTB_Poke_Change_Difficulty::~JMG_CMTB_Poke_Change_Difficulty
PUBLIC	??_GJMG_CMTB_Poke_Change_Difficulty@@UAEPAXI@Z	; JMG_CMTB_Poke_Change_Difficulty::`scalar deleting destructor'
PUBLIC	?JMG_CMTB_Random_Ship_Powerup@@YAPAVScriptableGameObj@@VVector3@@H@Z ; JMG_CMTB_Random_Ship_Powerup
PUBLIC	??$sprintf_s@$0CA@@@YAHAAY0CA@DPBDZZ		; sprintf_s<32>
PUBLIC	??0?$ScriptRegistrant@VJMG_Create_Ship_On_Poke@@@@QAE@PBD0@Z ; ScriptRegistrant<JMG_Create_Ship_On_Poke>::ScriptRegistrant<JMG_Create_Ship_On_Poke>
PUBLIC	?Create@?$ScriptRegistrant@VJMG_Create_Ship_On_Poke@@@@UAEPAVScriptImpClass@@XZ ; ScriptRegistrant<JMG_Create_Ship_On_Poke>::Create
PUBLIC	??1?$ScriptRegistrant@VJMG_Create_Ship_On_Poke@@@@UAE@XZ ; ScriptRegistrant<JMG_Create_Ship_On_Poke>::~ScriptRegistrant<JMG_Create_Ship_On_Poke>
PUBLIC	??_G?$ScriptRegistrant@VJMG_Create_Ship_On_Poke@@@@UAEPAXI@Z ; ScriptRegistrant<JMG_Create_Ship_On_Poke>::`scalar deleting destructor'
PUBLIC	??0?$ScriptRegistrant@VJMG_Advanced_Bounce_Zone@@@@QAE@PBD0@Z ; ScriptRegistrant<JMG_Advanced_Bounce_Zone>::ScriptRegistrant<JMG_Advanced_Bounce_Zone>
PUBLIC	?Create@?$ScriptRegistrant@VJMG_Advanced_Bounce_Zone@@@@UAEPAVScriptImpClass@@XZ ; ScriptRegistrant<JMG_Advanced_Bounce_Zone>::Create
PUBLIC	??1?$ScriptRegistrant@VJMG_Advanced_Bounce_Zone@@@@UAE@XZ ; ScriptRegistrant<JMG_Advanced_Bounce_Zone>::~ScriptRegistrant<JMG_Advanced_Bounce_Zone>
PUBLIC	??_G?$ScriptRegistrant@VJMG_Advanced_Bounce_Zone@@@@UAEPAXI@Z ; ScriptRegistrant<JMG_Advanced_Bounce_Zone>::`scalar deleting destructor'
PUBLIC	??0?$ScriptRegistrant@VJMG_Ship_Random_Hyperspace@@@@QAE@PBD0@Z ; ScriptRegistrant<JMG_Ship_Random_Hyperspace>::ScriptRegistrant<JMG_Ship_Random_Hyperspace>
PUBLIC	?Create@?$ScriptRegistrant@VJMG_Ship_Random_Hyperspace@@@@UAEPAVScriptImpClass@@XZ ; ScriptRegistrant<JMG_Ship_Random_Hyperspace>::Create
PUBLIC	??1?$ScriptRegistrant@VJMG_Ship_Random_Hyperspace@@@@UAE@XZ ; ScriptRegistrant<JMG_Ship_Random_Hyperspace>::~ScriptRegistrant<JMG_Ship_Random_Hyperspace>
PUBLIC	??_G?$ScriptRegistrant@VJMG_Ship_Random_Hyperspace@@@@UAEPAXI@Z ; ScriptRegistrant<JMG_Ship_Random_Hyperspace>::`scalar deleting destructor'
PUBLIC	??0?$ScriptRegistrant@VJMG_Random_Music@@@@QAE@PBD0@Z ; ScriptRegistrant<JMG_Random_Music>::ScriptRegistrant<JMG_Random_Music>
PUBLIC	?Create@?$ScriptRegistrant@VJMG_Random_Music@@@@UAEPAVScriptImpClass@@XZ ; ScriptRegistrant<JMG_Random_Music>::Create
PUBLIC	??1?$ScriptRegistrant@VJMG_Random_Music@@@@UAE@XZ ; ScriptRegistrant<JMG_Random_Music>::~ScriptRegistrant<JMG_Random_Music>
PUBLIC	??_G?$ScriptRegistrant@VJMG_Random_Music@@@@UAEPAXI@Z ; ScriptRegistrant<JMG_Random_Music>::`scalar deleting destructor'
PUBLIC	??0?$ScriptRegistrant@VJMG_Ship_Weapon@@@@QAE@PBD0@Z ; ScriptRegistrant<JMG_Ship_Weapon>::ScriptRegistrant<JMG_Ship_Weapon>
PUBLIC	?Create@?$ScriptRegistrant@VJMG_Ship_Weapon@@@@UAEPAVScriptImpClass@@XZ ; ScriptRegistrant<JMG_Ship_Weapon>::Create
PUBLIC	??1?$ScriptRegistrant@VJMG_Ship_Weapon@@@@UAE@XZ ; ScriptRegistrant<JMG_Ship_Weapon>::~ScriptRegistrant<JMG_Ship_Weapon>
PUBLIC	??_G?$ScriptRegistrant@VJMG_Ship_Weapon@@@@UAEPAXI@Z ; ScriptRegistrant<JMG_Ship_Weapon>::`scalar deleting destructor'
PUBLIC	??0?$ScriptRegistrant@VJMG_Return_Custom_When_Shot@@@@QAE@PBD0@Z ; ScriptRegistrant<JMG_Return_Custom_When_Shot>::ScriptRegistrant<JMG_Return_Custom_When_Shot>
PUBLIC	?Create@?$ScriptRegistrant@VJMG_Return_Custom_When_Shot@@@@UAEPAVScriptImpClass@@XZ ; ScriptRegistrant<JMG_Return_Custom_When_Shot>::Create
PUBLIC	??1?$ScriptRegistrant@VJMG_Return_Custom_When_Shot@@@@UAE@XZ ; ScriptRegistrant<JMG_Return_Custom_When_Shot>::~ScriptRegistrant<JMG_Return_Custom_When_Shot>
PUBLIC	??_G?$ScriptRegistrant@VJMG_Return_Custom_When_Shot@@@@UAEPAXI@Z ; ScriptRegistrant<JMG_Return_Custom_When_Shot>::`scalar deleting destructor'
PUBLIC	??0?$ScriptRegistrant@VJMG_Cronie_AI@@@@QAE@PBD0@Z ; ScriptRegistrant<JMG_Cronie_AI>::ScriptRegistrant<JMG_Cronie_AI>
PUBLIC	?Create@?$ScriptRegistrant@VJMG_Cronie_AI@@@@UAEPAVScriptImpClass@@XZ ; ScriptRegistrant<JMG_Cronie_AI>::Create
PUBLIC	??1?$ScriptRegistrant@VJMG_Cronie_AI@@@@UAE@XZ	; ScriptRegistrant<JMG_Cronie_AI>::~ScriptRegistrant<JMG_Cronie_AI>
PUBLIC	??_G?$ScriptRegistrant@VJMG_Cronie_AI@@@@UAEPAXI@Z ; ScriptRegistrant<JMG_Cronie_AI>::`scalar deleting destructor'
PUBLIC	??0?$ScriptRegistrant@VJMG_Kill_Self_And_Sender_On_Custom@@@@QAE@PBD0@Z ; ScriptRegistrant<JMG_Kill_Self_And_Sender_On_Custom>::ScriptRegistrant<JMG_Kill_Self_And_Sender_On_Custom>
PUBLIC	?Create@?$ScriptRegistrant@VJMG_Kill_Self_And_Sender_On_Custom@@@@UAEPAVScriptImpClass@@XZ ; ScriptRegistrant<JMG_Kill_Self_And_Sender_On_Custom>::Create
PUBLIC	??1?$ScriptRegistrant@VJMG_Kill_Self_And_Sender_On_Custom@@@@UAE@XZ ; ScriptRegistrant<JMG_Kill_Self_And_Sender_On_Custom>::~ScriptRegistrant<JMG_Kill_Self_And_Sender_On_Custom>
PUBLIC	??_G?$ScriptRegistrant@VJMG_Kill_Self_And_Sender_On_Custom@@@@UAEPAXI@Z ; ScriptRegistrant<JMG_Kill_Self_And_Sender_On_Custom>::`scalar deleting destructor'
PUBLIC	??0?$ScriptRegistrant@VJMG_Ship_Shield_Control_Script@@@@QAE@PBD0@Z ; ScriptRegistrant<JMG_Ship_Shield_Control_Script>::ScriptRegistrant<JMG_Ship_Shield_Control_Script>
PUBLIC	?Create@?$ScriptRegistrant@VJMG_Ship_Shield_Control_Script@@@@UAEPAVScriptImpClass@@XZ ; ScriptRegistrant<JMG_Ship_Shield_Control_Script>::Create
PUBLIC	??1?$ScriptRegistrant@VJMG_Ship_Shield_Control_Script@@@@UAE@XZ ; ScriptRegistrant<JMG_Ship_Shield_Control_Script>::~ScriptRegistrant<JMG_Ship_Shield_Control_Script>
PUBLIC	??_G?$ScriptRegistrant@VJMG_Ship_Shield_Control_Script@@@@UAEPAXI@Z ; ScriptRegistrant<JMG_Ship_Shield_Control_Script>::`scalar deleting destructor'
PUBLIC	??0?$ScriptRegistrant@VJMG_Kill_Self_And_Sender_On_Custom_Ship@@@@QAE@PBD0@Z ; ScriptRegistrant<JMG_Kill_Self_And_Sender_On_Custom_Ship>::ScriptRegistrant<JMG_Kill_Self_And_Sender_On_Custom_Ship>
PUBLIC	?Create@?$ScriptRegistrant@VJMG_Kill_Self_And_Sender_On_Custom_Ship@@@@UAEPAVScriptImpClass@@XZ ; ScriptRegistrant<JMG_Kill_Self_And_Sender_On_Custom_Ship>::Create
PUBLIC	??1?$ScriptRegistrant@VJMG_Kill_Self_And_Sender_On_Custom_Ship@@@@UAE@XZ ; ScriptRegistrant<JMG_Kill_Self_And_Sender_On_Custom_Ship>::~ScriptRegistrant<JMG_Kill_Self_And_Sender_On_Custom_Ship>
PUBLIC	??_G?$ScriptRegistrant@VJMG_Kill_Self_And_Sender_On_Custom_Ship@@@@UAEPAXI@Z ; ScriptRegistrant<JMG_Kill_Self_And_Sender_On_Custom_Ship>::`scalar deleting destructor'
PUBLIC	??0?$ScriptRegistrant@VJMG_Ship_Shield_Script@@@@QAE@PBD0@Z ; ScriptRegistrant<JMG_Ship_Shield_Script>::ScriptRegistrant<JMG_Ship_Shield_Script>
PUBLIC	?Create@?$ScriptRegistrant@VJMG_Ship_Shield_Script@@@@UAEPAVScriptImpClass@@XZ ; ScriptRegistrant<JMG_Ship_Shield_Script>::Create
PUBLIC	??1?$ScriptRegistrant@VJMG_Ship_Shield_Script@@@@UAE@XZ ; ScriptRegistrant<JMG_Ship_Shield_Script>::~ScriptRegistrant<JMG_Ship_Shield_Script>
PUBLIC	??_G?$ScriptRegistrant@VJMG_Ship_Shield_Script@@@@UAEPAXI@Z ; ScriptRegistrant<JMG_Ship_Shield_Script>::`scalar deleting destructor'
PUBLIC	??0?$ScriptRegistrant@VJMG_Renetbusters_Object@@@@QAE@PBD0@Z ; ScriptRegistrant<JMG_Renetbusters_Object>::ScriptRegistrant<JMG_Renetbusters_Object>
PUBLIC	?Create@?$ScriptRegistrant@VJMG_Renetbusters_Object@@@@UAEPAVScriptImpClass@@XZ ; ScriptRegistrant<JMG_Renetbusters_Object>::Create
PUBLIC	??1?$ScriptRegistrant@VJMG_Renetbusters_Object@@@@UAE@XZ ; ScriptRegistrant<JMG_Renetbusters_Object>::~ScriptRegistrant<JMG_Renetbusters_Object>
PUBLIC	??_G?$ScriptRegistrant@VJMG_Renetbusters_Object@@@@UAEPAXI@Z ; ScriptRegistrant<JMG_Renetbusters_Object>::`scalar deleting destructor'
PUBLIC	??0?$ScriptRegistrant@VJMG_New_Ship_Weapon_Control_System@@@@QAE@PBD0@Z ; ScriptRegistrant<JMG_New_Ship_Weapon_Control_System>::ScriptRegistrant<JMG_New_Ship_Weapon_Control_System>
PUBLIC	?Create@?$ScriptRegistrant@VJMG_New_Ship_Weapon_Control_System@@@@UAEPAVScriptImpClass@@XZ ; ScriptRegistrant<JMG_New_Ship_Weapon_Control_System>::Create
PUBLIC	??1?$ScriptRegistrant@VJMG_New_Ship_Weapon_Control_System@@@@UAE@XZ ; ScriptRegistrant<JMG_New_Ship_Weapon_Control_System>::~ScriptRegistrant<JMG_New_Ship_Weapon_Control_System>
PUBLIC	??_G?$ScriptRegistrant@VJMG_New_Ship_Weapon_Control_System@@@@UAEPAXI@Z ; ScriptRegistrant<JMG_New_Ship_Weapon_Control_System>::`scalar deleting destructor'
PUBLIC	??0?$ScriptRegistrant@VJMG_Comet_Control_Script@@@@QAE@PBD0@Z ; ScriptRegistrant<JMG_Comet_Control_Script>::ScriptRegistrant<JMG_Comet_Control_Script>
PUBLIC	?Create@?$ScriptRegistrant@VJMG_Comet_Control_Script@@@@UAEPAVScriptImpClass@@XZ ; ScriptRegistrant<JMG_Comet_Control_Script>::Create
PUBLIC	??1?$ScriptRegistrant@VJMG_Comet_Control_Script@@@@UAE@XZ ; ScriptRegistrant<JMG_Comet_Control_Script>::~ScriptRegistrant<JMG_Comet_Control_Script>
PUBLIC	??_G?$ScriptRegistrant@VJMG_Comet_Control_Script@@@@UAEPAXI@Z ; ScriptRegistrant<JMG_Comet_Control_Script>::`scalar deleting destructor'
PUBLIC	??0?$ScriptRegistrant@VJMG_Attach_And_Remove@@@@QAE@PBD0@Z ; ScriptRegistrant<JMG_Attach_And_Remove>::ScriptRegistrant<JMG_Attach_And_Remove>
PUBLIC	?Create@?$ScriptRegistrant@VJMG_Attach_And_Remove@@@@UAEPAVScriptImpClass@@XZ ; ScriptRegistrant<JMG_Attach_And_Remove>::Create
PUBLIC	??1?$ScriptRegistrant@VJMG_Attach_And_Remove@@@@UAE@XZ ; ScriptRegistrant<JMG_Attach_And_Remove>::~ScriptRegistrant<JMG_Attach_And_Remove>
PUBLIC	??_G?$ScriptRegistrant@VJMG_Attach_And_Remove@@@@UAEPAXI@Z ; ScriptRegistrant<JMG_Attach_And_Remove>::`scalar deleting destructor'
PUBLIC	??0?$ScriptRegistrant@VJMG_User_Auto_Enter_Ship@@@@QAE@PBD0@Z ; ScriptRegistrant<JMG_User_Auto_Enter_Ship>::ScriptRegistrant<JMG_User_Auto_Enter_Ship>
PUBLIC	?Create@?$ScriptRegistrant@VJMG_User_Auto_Enter_Ship@@@@UAEPAVScriptImpClass@@XZ ; ScriptRegistrant<JMG_User_Auto_Enter_Ship>::Create
PUBLIC	??1?$ScriptRegistrant@VJMG_User_Auto_Enter_Ship@@@@UAE@XZ ; ScriptRegistrant<JMG_User_Auto_Enter_Ship>::~ScriptRegistrant<JMG_User_Auto_Enter_Ship>
PUBLIC	??_G?$ScriptRegistrant@VJMG_User_Auto_Enter_Ship@@@@UAEPAXI@Z ; ScriptRegistrant<JMG_User_Auto_Enter_Ship>::`scalar deleting destructor'
PUBLIC	??0?$ScriptRegistrant@VJMG_Apply_Damage_On_Timer@@@@QAE@PBD0@Z ; ScriptRegistrant<JMG_Apply_Damage_On_Timer>::ScriptRegistrant<JMG_Apply_Damage_On_Timer>
PUBLIC	?Create@?$ScriptRegistrant@VJMG_Apply_Damage_On_Timer@@@@UAEPAVScriptImpClass@@XZ ; ScriptRegistrant<JMG_Apply_Damage_On_Timer>::Create
PUBLIC	??1?$ScriptRegistrant@VJMG_Apply_Damage_On_Timer@@@@UAE@XZ ; ScriptRegistrant<JMG_Apply_Damage_On_Timer>::~ScriptRegistrant<JMG_Apply_Damage_On_Timer>
PUBLIC	??_G?$ScriptRegistrant@VJMG_Apply_Damage_On_Timer@@@@UAEPAXI@Z ; ScriptRegistrant<JMG_Apply_Damage_On_Timer>::`scalar deleting destructor'
PUBLIC	??0?$ScriptRegistrant@VJMG_CMTB_Main_Game_Control@@@@QAE@PBD0@Z ; ScriptRegistrant<JMG_CMTB_Main_Game_Control>::ScriptRegistrant<JMG_CMTB_Main_Game_Control>
PUBLIC	?Create@?$ScriptRegistrant@VJMG_CMTB_Main_Game_Control@@@@UAEPAVScriptImpClass@@XZ ; ScriptRegistrant<JMG_CMTB_Main_Game_Control>::Create
PUBLIC	??1?$ScriptRegistrant@VJMG_CMTB_Main_Game_Control@@@@UAE@XZ ; ScriptRegistrant<JMG_CMTB_Main_Game_Control>::~ScriptRegistrant<JMG_CMTB_Main_Game_Control>
PUBLIC	??_G?$ScriptRegistrant@VJMG_CMTB_Main_Game_Control@@@@UAEPAXI@Z ; ScriptRegistrant<JMG_CMTB_Main_Game_Control>::`scalar deleting destructor'
PUBLIC	??0?$ScriptRegistrant@VJMG_CMTB_Ship_Control_Script@@@@QAE@PBD0@Z ; ScriptRegistrant<JMG_CMTB_Ship_Control_Script>::ScriptRegistrant<JMG_CMTB_Ship_Control_Script>
PUBLIC	?Create@?$ScriptRegistrant@VJMG_CMTB_Ship_Control_Script@@@@UAEPAVScriptImpClass@@XZ ; ScriptRegistrant<JMG_CMTB_Ship_Control_Script>::Create
PUBLIC	??1?$ScriptRegistrant@VJMG_CMTB_Ship_Control_Script@@@@UAE@XZ ; ScriptRegistrant<JMG_CMTB_Ship_Control_Script>::~ScriptRegistrant<JMG_CMTB_Ship_Control_Script>
PUBLIC	??_G?$ScriptRegistrant@VJMG_CMTB_Ship_Control_Script@@@@UAEPAXI@Z ; ScriptRegistrant<JMG_CMTB_Ship_Control_Script>::`scalar deleting destructor'
PUBLIC	??0?$ScriptRegistrant@VJMG_CMTB_UFO_Random_Fire_Control@@@@QAE@PBD0@Z ; ScriptRegistrant<JMG_CMTB_UFO_Random_Fire_Control>::ScriptRegistrant<JMG_CMTB_UFO_Random_Fire_Control>
PUBLIC	?Create@?$ScriptRegistrant@VJMG_CMTB_UFO_Random_Fire_Control@@@@UAEPAVScriptImpClass@@XZ ; ScriptRegistrant<JMG_CMTB_UFO_Random_Fire_Control>::Create
PUBLIC	??1?$ScriptRegistrant@VJMG_CMTB_UFO_Random_Fire_Control@@@@UAE@XZ ; ScriptRegistrant<JMG_CMTB_UFO_Random_Fire_Control>::~ScriptRegistrant<JMG_CMTB_UFO_Random_Fire_Control>
PUBLIC	??_G?$ScriptRegistrant@VJMG_CMTB_UFO_Random_Fire_Control@@@@UAEPAXI@Z ; ScriptRegistrant<JMG_CMTB_UFO_Random_Fire_Control>::`scalar deleting destructor'
PUBLIC	??0?$ScriptRegistrant@VJMG_CMTB_Comet_Script@@@@QAE@PBD0@Z ; ScriptRegistrant<JMG_CMTB_Comet_Script>::ScriptRegistrant<JMG_CMTB_Comet_Script>
PUBLIC	?Create@?$ScriptRegistrant@VJMG_CMTB_Comet_Script@@@@UAEPAVScriptImpClass@@XZ ; ScriptRegistrant<JMG_CMTB_Comet_Script>::Create
PUBLIC	??1?$ScriptRegistrant@VJMG_CMTB_Comet_Script@@@@UAE@XZ ; ScriptRegistrant<JMG_CMTB_Comet_Script>::~ScriptRegistrant<JMG_CMTB_Comet_Script>
PUBLIC	??_G?$ScriptRegistrant@VJMG_CMTB_Comet_Script@@@@UAEPAXI@Z ; ScriptRegistrant<JMG_CMTB_Comet_Script>::`scalar deleting destructor'
PUBLIC	??0?$ScriptRegistrant@VJMG_CMTB_Zone_Realign_Enter@@@@QAE@PBD0@Z ; ScriptRegistrant<JMG_CMTB_Zone_Realign_Enter>::ScriptRegistrant<JMG_CMTB_Zone_Realign_Enter>
PUBLIC	?Create@?$ScriptRegistrant@VJMG_CMTB_Zone_Realign_Enter@@@@UAEPAVScriptImpClass@@XZ ; ScriptRegistrant<JMG_CMTB_Zone_Realign_Enter>::Create
PUBLIC	??1?$ScriptRegistrant@VJMG_CMTB_Zone_Realign_Enter@@@@UAE@XZ ; ScriptRegistrant<JMG_CMTB_Zone_Realign_Enter>::~ScriptRegistrant<JMG_CMTB_Zone_Realign_Enter>
PUBLIC	??_G?$ScriptRegistrant@VJMG_CMTB_Zone_Realign_Enter@@@@UAEPAXI@Z ; ScriptRegistrant<JMG_CMTB_Zone_Realign_Enter>::`scalar deleting destructor'
PUBLIC	??0?$ScriptRegistrant@VJMG_CMTB_Spectator_Object@@@@QAE@PBD0@Z ; ScriptRegistrant<JMG_CMTB_Spectator_Object>::ScriptRegistrant<JMG_CMTB_Spectator_Object>
PUBLIC	?Create@?$ScriptRegistrant@VJMG_CMTB_Spectator_Object@@@@UAEPAVScriptImpClass@@XZ ; ScriptRegistrant<JMG_CMTB_Spectator_Object>::Create
PUBLIC	??1?$ScriptRegistrant@VJMG_CMTB_Spectator_Object@@@@UAE@XZ ; ScriptRegistrant<JMG_CMTB_Spectator_Object>::~ScriptRegistrant<JMG_CMTB_Spectator_Object>
PUBLIC	??_G?$ScriptRegistrant@VJMG_CMTB_Spectator_Object@@@@UAEPAXI@Z ; ScriptRegistrant<JMG_CMTB_Spectator_Object>::`scalar deleting destructor'
PUBLIC	??0?$ScriptRegistrant@VJMG_CMTB_Arcade_Machine@@@@QAE@PBD0@Z ; ScriptRegistrant<JMG_CMTB_Arcade_Machine>::ScriptRegistrant<JMG_CMTB_Arcade_Machine>
PUBLIC	?Create@?$ScriptRegistrant@VJMG_CMTB_Arcade_Machine@@@@UAEPAVScriptImpClass@@XZ ; ScriptRegistrant<JMG_CMTB_Arcade_Machine>::Create
PUBLIC	??1?$ScriptRegistrant@VJMG_CMTB_Arcade_Machine@@@@UAE@XZ ; ScriptRegistrant<JMG_CMTB_Arcade_Machine>::~ScriptRegistrant<JMG_CMTB_Arcade_Machine>
PUBLIC	??_G?$ScriptRegistrant@VJMG_CMTB_Arcade_Machine@@@@UAEPAXI@Z ; ScriptRegistrant<JMG_CMTB_Arcade_Machine>::`scalar deleting destructor'
PUBLIC	??0?$ScriptRegistrant@VJMG_CMTB_Fake_Player_Attach_Script@@@@QAE@PBD0@Z ; ScriptRegistrant<JMG_CMTB_Fake_Player_Attach_Script>::ScriptRegistrant<JMG_CMTB_Fake_Player_Attach_Script>
PUBLIC	?Create@?$ScriptRegistrant@VJMG_CMTB_Fake_Player_Attach_Script@@@@UAEPAVScriptImpClass@@XZ ; ScriptRegistrant<JMG_CMTB_Fake_Player_Attach_Script>::Create
PUBLIC	??1?$ScriptRegistrant@VJMG_CMTB_Fake_Player_Attach_Script@@@@UAE@XZ ; ScriptRegistrant<JMG_CMTB_Fake_Player_Attach_Script>::~ScriptRegistrant<JMG_CMTB_Fake_Player_Attach_Script>
PUBLIC	??_G?$ScriptRegistrant@VJMG_CMTB_Fake_Player_Attach_Script@@@@UAEPAXI@Z ; ScriptRegistrant<JMG_CMTB_Fake_Player_Attach_Script>::`scalar deleting destructor'
PUBLIC	??0?$ScriptRegistrant@VJMG_CMTB_Renegade_Code@@@@QAE@PBD0@Z ; ScriptRegistrant<JMG_CMTB_Renegade_Code>::ScriptRegistrant<JMG_CMTB_Renegade_Code>
PUBLIC	?Create@?$ScriptRegistrant@VJMG_CMTB_Renegade_Code@@@@UAEPAVScriptImpClass@@XZ ; ScriptRegistrant<JMG_CMTB_Renegade_Code>::Create
PUBLIC	??1?$ScriptRegistrant@VJMG_CMTB_Renegade_Code@@@@UAE@XZ ; ScriptRegistrant<JMG_CMTB_Renegade_Code>::~ScriptRegistrant<JMG_CMTB_Renegade_Code>
PUBLIC	??_G?$ScriptRegistrant@VJMG_CMTB_Renegade_Code@@@@UAEPAXI@Z ; ScriptRegistrant<JMG_CMTB_Renegade_Code>::`scalar deleting destructor'
PUBLIC	??0?$ScriptRegistrant@VJMG_CMTB_Motion_Mine@@@@QAE@PBD0@Z ; ScriptRegistrant<JMG_CMTB_Motion_Mine>::ScriptRegistrant<JMG_CMTB_Motion_Mine>
PUBLIC	?Create@?$ScriptRegistrant@VJMG_CMTB_Motion_Mine@@@@UAEPAVScriptImpClass@@XZ ; ScriptRegistrant<JMG_CMTB_Motion_Mine>::Create
PUBLIC	??1?$ScriptRegistrant@VJMG_CMTB_Motion_Mine@@@@UAE@XZ ; ScriptRegistrant<JMG_CMTB_Motion_Mine>::~ScriptRegistrant<JMG_CMTB_Motion_Mine>
PUBLIC	??_G?$ScriptRegistrant@VJMG_CMTB_Motion_Mine@@@@UAEPAXI@Z ; ScriptRegistrant<JMG_CMTB_Motion_Mine>::`scalar deleting destructor'
PUBLIC	??0?$ScriptRegistrant@VJMG_CMTB_The_Moon_Script@@@@QAE@PBD0@Z ; ScriptRegistrant<JMG_CMTB_The_Moon_Script>::ScriptRegistrant<JMG_CMTB_The_Moon_Script>
PUBLIC	?Create@?$ScriptRegistrant@VJMG_CMTB_The_Moon_Script@@@@UAEPAVScriptImpClass@@XZ ; ScriptRegistrant<JMG_CMTB_The_Moon_Script>::Create
PUBLIC	??1?$ScriptRegistrant@VJMG_CMTB_The_Moon_Script@@@@UAE@XZ ; ScriptRegistrant<JMG_CMTB_The_Moon_Script>::~ScriptRegistrant<JMG_CMTB_The_Moon_Script>
PUBLIC	??_G?$ScriptRegistrant@VJMG_CMTB_The_Moon_Script@@@@UAEPAXI@Z ; ScriptRegistrant<JMG_CMTB_The_Moon_Script>::`scalar deleting destructor'
PUBLIC	??0?$ScriptRegistrant@VJMG_CMTB_Ship_Super_Weapon@@@@QAE@PBD0@Z ; ScriptRegistrant<JMG_CMTB_Ship_Super_Weapon>::ScriptRegistrant<JMG_CMTB_Ship_Super_Weapon>
PUBLIC	?Create@?$ScriptRegistrant@VJMG_CMTB_Ship_Super_Weapon@@@@UAEPAVScriptImpClass@@XZ ; ScriptRegistrant<JMG_CMTB_Ship_Super_Weapon>::Create
PUBLIC	??1?$ScriptRegistrant@VJMG_CMTB_Ship_Super_Weapon@@@@UAE@XZ ; ScriptRegistrant<JMG_CMTB_Ship_Super_Weapon>::~ScriptRegistrant<JMG_CMTB_Ship_Super_Weapon>
PUBLIC	??_G?$ScriptRegistrant@VJMG_CMTB_Ship_Super_Weapon@@@@UAEPAXI@Z ; ScriptRegistrant<JMG_CMTB_Ship_Super_Weapon>::`scalar deleting destructor'
PUBLIC	??0?$ScriptRegistrant@VJMG_CMTB_Powerup_Script@@@@QAE@PBD0@Z ; ScriptRegistrant<JMG_CMTB_Powerup_Script>::ScriptRegistrant<JMG_CMTB_Powerup_Script>
PUBLIC	?Create@?$ScriptRegistrant@VJMG_CMTB_Powerup_Script@@@@UAEPAVScriptImpClass@@XZ ; ScriptRegistrant<JMG_CMTB_Powerup_Script>::Create
PUBLIC	??1?$ScriptRegistrant@VJMG_CMTB_Powerup_Script@@@@UAE@XZ ; ScriptRegistrant<JMG_CMTB_Powerup_Script>::~ScriptRegistrant<JMG_CMTB_Powerup_Script>
PUBLIC	??_G?$ScriptRegistrant@VJMG_CMTB_Powerup_Script@@@@UAEPAXI@Z ; ScriptRegistrant<JMG_CMTB_Powerup_Script>::`scalar deleting destructor'
PUBLIC	??0?$ScriptRegistrant@VJMG_CMTB_Cargo_Ship_Script@@@@QAE@PBD0@Z ; ScriptRegistrant<JMG_CMTB_Cargo_Ship_Script>::ScriptRegistrant<JMG_CMTB_Cargo_Ship_Script>
PUBLIC	?Create@?$ScriptRegistrant@VJMG_CMTB_Cargo_Ship_Script@@@@UAEPAVScriptImpClass@@XZ ; ScriptRegistrant<JMG_CMTB_Cargo_Ship_Script>::Create
PUBLIC	??1?$ScriptRegistrant@VJMG_CMTB_Cargo_Ship_Script@@@@UAE@XZ ; ScriptRegistrant<JMG_CMTB_Cargo_Ship_Script>::~ScriptRegistrant<JMG_CMTB_Cargo_Ship_Script>
PUBLIC	??_G?$ScriptRegistrant@VJMG_CMTB_Cargo_Ship_Script@@@@UAEPAXI@Z ; ScriptRegistrant<JMG_CMTB_Cargo_Ship_Script>::`scalar deleting destructor'
PUBLIC	??0?$ScriptRegistrant@VJMG_CMTB_Cargo_Ship_Turret@@@@QAE@PBD0@Z ; ScriptRegistrant<JMG_CMTB_Cargo_Ship_Turret>::ScriptRegistrant<JMG_CMTB_Cargo_Ship_Turret>
PUBLIC	?Create@?$ScriptRegistrant@VJMG_CMTB_Cargo_Ship_Turret@@@@UAEPAVScriptImpClass@@XZ ; ScriptRegistrant<JMG_CMTB_Cargo_Ship_Turret>::Create
PUBLIC	??1?$ScriptRegistrant@VJMG_CMTB_Cargo_Ship_Turret@@@@UAE@XZ ; ScriptRegistrant<JMG_CMTB_Cargo_Ship_Turret>::~ScriptRegistrant<JMG_CMTB_Cargo_Ship_Turret>
PUBLIC	??_G?$ScriptRegistrant@VJMG_CMTB_Cargo_Ship_Turret@@@@UAEPAXI@Z ; ScriptRegistrant<JMG_CMTB_Cargo_Ship_Turret>::`scalar deleting destructor'
PUBLIC	??0?$ScriptRegistrant@VJMG_CMTB_Player_Drone@@@@QAE@PBD0@Z ; ScriptRegistrant<JMG_CMTB_Player_Drone>::ScriptRegistrant<JMG_CMTB_Player_Drone>
PUBLIC	?Create@?$ScriptRegistrant@VJMG_CMTB_Player_Drone@@@@UAEPAVScriptImpClass@@XZ ; ScriptRegistrant<JMG_CMTB_Player_Drone>::Create
PUBLIC	??1?$ScriptRegistrant@VJMG_CMTB_Player_Drone@@@@UAE@XZ ; ScriptRegistrant<JMG_CMTB_Player_Drone>::~ScriptRegistrant<JMG_CMTB_Player_Drone>
PUBLIC	??_G?$ScriptRegistrant@VJMG_CMTB_Player_Drone@@@@UAEPAXI@Z ; ScriptRegistrant<JMG_CMTB_Player_Drone>::`scalar deleting destructor'
PUBLIC	??0?$ScriptRegistrant@VJMG_CMTB_Vehicle_Face_Turret@@@@QAE@PBD0@Z ; ScriptRegistrant<JMG_CMTB_Vehicle_Face_Turret>::ScriptRegistrant<JMG_CMTB_Vehicle_Face_Turret>
PUBLIC	?Create@?$ScriptRegistrant@VJMG_CMTB_Vehicle_Face_Turret@@@@UAEPAVScriptImpClass@@XZ ; ScriptRegistrant<JMG_CMTB_Vehicle_Face_Turret>::Create
PUBLIC	??1?$ScriptRegistrant@VJMG_CMTB_Vehicle_Face_Turret@@@@UAE@XZ ; ScriptRegistrant<JMG_CMTB_Vehicle_Face_Turret>::~ScriptRegistrant<JMG_CMTB_Vehicle_Face_Turret>
PUBLIC	??_G?$ScriptRegistrant@VJMG_CMTB_Vehicle_Face_Turret@@@@UAEPAXI@Z ; ScriptRegistrant<JMG_CMTB_Vehicle_Face_Turret>::`scalar deleting destructor'
PUBLIC	??0?$ScriptRegistrant@VJMG_CMTB_Poke_End_Map@@@@QAE@PBD0@Z ; ScriptRegistrant<JMG_CMTB_Poke_End_Map>::ScriptRegistrant<JMG_CMTB_Poke_End_Map>
PUBLIC	?Create@?$ScriptRegistrant@VJMG_CMTB_Poke_End_Map@@@@UAEPAVScriptImpClass@@XZ ; ScriptRegistrant<JMG_CMTB_Poke_End_Map>::Create
PUBLIC	??1?$ScriptRegistrant@VJMG_CMTB_Poke_End_Map@@@@UAE@XZ ; ScriptRegistrant<JMG_CMTB_Poke_End_Map>::~ScriptRegistrant<JMG_CMTB_Poke_End_Map>
PUBLIC	??_G?$ScriptRegistrant@VJMG_CMTB_Poke_End_Map@@@@UAEPAXI@Z ; ScriptRegistrant<JMG_CMTB_Poke_End_Map>::`scalar deleting destructor'
PUBLIC	??0?$ScriptRegistrant@VJMG_CMTB_Poke_Change_Difficulty@@@@QAE@PBD0@Z ; ScriptRegistrant<JMG_CMTB_Poke_Change_Difficulty>::ScriptRegistrant<JMG_CMTB_Poke_Change_Difficulty>
PUBLIC	?Create@?$ScriptRegistrant@VJMG_CMTB_Poke_Change_Difficulty@@@@UAEPAVScriptImpClass@@XZ ; ScriptRegistrant<JMG_CMTB_Poke_Change_Difficulty>::Create
PUBLIC	??1?$ScriptRegistrant@VJMG_CMTB_Poke_Change_Difficulty@@@@UAE@XZ ; ScriptRegistrant<JMG_CMTB_Poke_Change_Difficulty>::~ScriptRegistrant<JMG_CMTB_Poke_Change_Difficulty>
PUBLIC	??_G?$ScriptRegistrant@VJMG_CMTB_Poke_Change_Difficulty@@@@UAEPAXI@Z ; ScriptRegistrant<JMG_CMTB_Poke_Change_Difficulty>::`scalar deleting destructor'
PUBLIC	?Set_Next@?$SLNode@UKeyHookWrapperStruct@MultiKeyHookScriptImpClass@@@@QAEXPAV1@@Z ; SLNode<MultiKeyHookScriptImpClass::KeyHookWrapperStruct>::Set_Next
PUBLIC	?Next@?$SLNode@UKeyHookWrapperStruct@MultiKeyHookScriptImpClass@@@@QBEPAV1@XZ ; SLNode<MultiKeyHookScriptImpClass::KeyHookWrapperStruct>::Next
PUBLIC	?Data@?$SLNode@UKeyHookWrapperStruct@MultiKeyHookScriptImpClass@@@@QBEPAUKeyHookWrapperStruct@MultiKeyHookScriptImpClass@@XZ ; SLNode<MultiKeyHookScriptImpClass::KeyHookWrapperStruct>::Data
PUBLIC	??0?$SLNode@UKeyHookWrapperStruct@MultiKeyHookScriptImpClass@@@@IAE@PAUKeyHookWrapperStruct@MultiKeyHookScriptImpClass@@@Z ; SLNode<MultiKeyHookScriptImpClass::KeyHookWrapperStruct>::SLNode<MultiKeyHookScriptImpClass::KeyHookWrapperStruct>
PUBLIC	?getInstance@?$Singleton@V?$ObjectPoolClass@VGenericSLNode@@$0BAA@@@@@SAAAV?$ObjectPoolClass@VGenericSLNode@@$0BAA@@@XZ ; Singleton<ObjectPoolClass<GenericSLNode,256> >::getInstance
PUBLIC	??0?$ObjectPoolClass@VGenericSLNode@@$0BAA@@@QAE@XZ ; ObjectPoolClass<GenericSLNode,256>::ObjectPoolClass<GenericSLNode,256>
PUBLIC	??1?$ObjectPoolClass@VGenericSLNode@@$0BAA@@@QAE@XZ ; ObjectPoolClass<GenericSLNode,256>::~ObjectPoolClass<GenericSLNode,256>
PUBLIC	?Allocate_Object_Memory@?$ObjectPoolClass@VGenericSLNode@@$0BAA@@@QAEPAVGenericSLNode@@XZ ; ObjectPoolClass<GenericSLNode,256>::Allocate_Object_Memory
PUBLIC	?Free_Object_Memory@?$ObjectPoolClass@VGenericSLNode@@$0BAA@@@QAEXAAVGenericSLNode@@@Z ; ObjectPoolClass<GenericSLNode,256>::Free_Object_Memory
PUBLIC	?writeDummyPattern@?$ObjectPoolClass@VGenericSLNode@@$0BAA@@@QAEXAAVGenericSLNode@@K@Z ; ObjectPoolClass<GenericSLNode,256>::writeDummyPattern
PUBLIC	??__Finstancex@?1??getInstance@?$Singleton@V?$ObjectPoolClass@VGenericSLNode@@$0BAA@@@@@SAAAV?$ObjectPoolClass@VGenericSLNode@@$0BAA@@@XZ@YAXXZ ; `Singleton<ObjectPoolClass<GenericSLNode,256> >::getInstance'::`2'::`dynamic atexit destructor for 'instancex''
PUBLIC	??_7GameObjObserverClass@@6B@			; GameObjObserverClass::`vftable'
PUBLIC	??_7ScriptClass@@6B@				; ScriptClass::`vftable'
PUBLIC	??_7ScriptImpClass@@6B@				; ScriptImpClass::`vftable'
PUBLIC	??_7ScriptFactory@@6B@				; ScriptFactory::`vftable'
PUBLIC	??_7ThreadClass@@6B@				; ThreadClass::`vftable'
PUBLIC	??_C@_0DJ@NKJHEMPA@x?3?2github?2renegade?2dragonade_rxd@ ; `string'
PUBLIC	??_C@_1HC@JEIHKHFK@?$AAx?$AA?3?$AA?2?$AAg?$AAi?$AAt?$AAh?$AAu?$AAb?$AA?2?$AAr?$AAe?$AAn?$AAe?$AAg?$AAa?$AAd?$AAe?$AA?2?$AAd?$AAr?$AAa?$AAg?$AAo?$AAn?$AAa?$AAd?$AAe?$AA_?$AAr?$AAx?$AAd@ ; `string'
PUBLIC	??_C@_1M@HLGKFCJM@?$AAf?$AAa?$AAl?$AAs?$AAe?$AA?$AA@ ; `string'
PUBLIC	??_7INIClass@@6B@				; INIClass::`vftable'
PUBLIC	??_7PostLoadableClass@@6B@			; PostLoadableClass::`vftable'
PUBLIC	??_7ReferencerClass@@6B@			; ReferencerClass::`vftable'
PUBLIC	??_C@_02OLOABKKD@ID?$AA@			; `string'
PUBLIC	??_7JFW_Key_Hook_Base@@6B@			; JFW_Key_Hook_Base::`vftable'
PUBLIC	??_7?$SList@UKeyHookWrapperStruct@MultiKeyHookScriptImpClass@@@@6B@ ; SList<MultiKeyHookScriptImpClass::KeyHookWrapperStruct>::`vftable'
PUBLIC	??_7MultiKeyHookScriptImpClass@@6B@		; MultiKeyHookScriptImpClass::`vftable'
PUBLIC	??_7JFW_Object_Created_Hook_Base@@6B@		; JFW_Object_Created_Hook_Base::`vftable'
PUBLIC	??_C@_02DKCKIIND@?$CFs?$AA@			; `string'
PUBLIC	??_C@_04MLLLIHIP@null?$AA@			; `string'
PUBLIC	??_C@_03GDDNCFJF@his?$AA@			; `string'
PUBLIC	??_C@_03HDDMONLA@her?$AA@			; `string'
PUBLIC	?FinalString@?1??Rp2Encrypt@JmgUtility@@SAPADPBDHH@Z@4PADA ; `JmgUtility::Rp2Encrypt'::`2'::FinalString
PUBLIC	??_C@_01CLKCMJKC@?5?$AA@			; `string'
PUBLIC	?FinalString@?1??Rp2Encrypt2@JmgUtility@@SAPADPBDHH@Z@4PADA ; `JmgUtility::Rp2Encrypt2'::`2'::FinalString
PUBLIC	?FinalString@?1??Rp2Decrypt@JmgUtility@@SAPADPBDHH@Z@4PADA ; `JmgUtility::Rp2Decrypt'::`2'::FinalString
PUBLIC	??_C@_0M@IDABADGB@Daves?5Arrow?$AA@		; `string'
PUBLIC	??_C@_00CNPNBAHC@?$AA@				; `string'
PUBLIC	??_C@_06NHCMNMEH@origin?$AA@			; `string'
PUBLIC	??_C@_05KABNCBHK@?$CFd?0?$CFd?$AA@		; `string'
PUBLIC	??_C@_0CH@JGBJBMDP@msg?5Perk?5?$CFd?8s?5Description?5is?5too@ ; `string'
PUBLIC	??_C@_0DN@MJNPAGNN@msg?5ADDAPERKTYPE?5ERROR?3?5PerkID?5?$CF@ ; `string'
PUBLIC	??_C@_07CDHDDEAO@yo1?4wav?$AA@			; `string'
PUBLIC	??_C@_0DA@DKJNKPNM@PlayerPerksNodeControlSystem?3?3Ge@ ; `string'
PUBLIC	??_C@_0DK@NLOHEPBI@x?3?2github?2renegade?2dragonade_rxd@ ; `string'
PUBLIC	??_C@_1HE@CIFEPJDE@?$AAx?$AA?3?$AA?2?$AAg?$AAi?$AAt?$AAh?$AAu?$AAb?$AA?2?$AAr?$AAe?$AAn?$AAe?$AAg?$AAa?$AAd?$AAe?$AA?2?$AAd?$AAr?$AAa?$AAg?$AAo?$AAn?$AAa?$AAd?$AAe?$AA_?$AAr?$AAx?$AAd@ ; `string'
PUBLIC	??_C@_0BP@CBPFPHPN@You?5have?5unlocked?5the?5?$CFs?5perk?$CB?$AA@ ; `string'
PUBLIC	??_C@_0L@LDMBNLK@sysmsg?4wav?$AA@		; `string'
PUBLIC	??_C@_0CN@JPAIIEAC@PlayerPerksNodeControlSystem?3?3Cl@ ; `string'
PUBLIC	??_C@_0DH@CHLHOLEI@msg?5PlayerPerksNodeControlSystem@ ; `string'
PUBLIC	??_C@_06MGHPOHKI@?$CFsSave?$AA@			; `string'
PUBLIC	??_C@_0BO@OHPIKDLE@?$CFsSave?2BetaRp2PlayerPerks?4tmp?$AA@ ; `string'
PUBLIC	??_C@_01NOFIACDB@w?$AA@				; `string'
PUBLIC	??_C@_08HBNINGOP@?$CFs?$CFd?5?$CFd?5?$AA@	; `string'
PUBLIC	??_C@_05PCAHBOJM@?$CFs?6?$CFs?$AA@		; `string'
PUBLIC	??_C@_01EEMJAFIK@?6?$AA@			; `string'
PUBLIC	??_C@_0BO@LEBAEOPC@?$CFsSave?2BetaRp2PlayerPerks?4Rp2?$AA@ ; `string'
PUBLIC	??_C@_0BO@JJHJAHCL@?$CFsSave?2BetaRp2PlayerPerks?4txt?$AA@ ; `string'
PUBLIC	??_C@_07FMKHCAOI@?$CFs?$CF?42f?5?$AA@		; `string'
PUBLIC	??_C@_06DKEDAPL@?$CFs?6?$CFs?6?$AA@		; `string'
PUBLIC	??_C@_01KDCPPGHE@r?$AA@				; `string'
PUBLIC	??_C@_0EI@BIBLNGIO@msg?5PlayerPerksNodeControlSystem@ ; `string'
PUBLIC	??_C@_0CPG@HLGMAKDB@?$CFd?5?$CFd?5?$CFd?5?$CFd?5?$CFd?5?$CFd?5?$CFd?5?$CFd?5?$CFd?5?$CFd?5?$CFd@ ; `string'
PUBLIC	?PerkTypeSystem@@3VPerkSystemPerkTypeList@@A	; PerkTypeSystem
PUBLIC	?PlayerPerkSystemControl@@3VPlayerPerksNodeControlSystem@@A ; PlayerPerkSystemControl
PUBLIC	??_C@_03HPADHAHE@N?1A?$AA@			; `string'
PUBLIC	??_C@_0CB@DNKDMCLF@Your?5reward?5for?5defending?5Earth?$CB@ ; `string'
PUBLIC	??_C@_0BH@KKMEIJFM@To?5The?5Moon?5and?5Beyond?$AA@ ; `string'
PUBLIC	??_C@_0DL@PCMGDODH@Buying?5Floppy?5Disks?5gives?5you?5Go@ ; `string'
PUBLIC	??_C@_05GCGLAHBE@Gamer?$AA@			; `string'
PUBLIC	??_C@_0CK@BLBNKMJE@You?5have?5unlocked?5the?5Extra?5Life@ ; `string'
PUBLIC	??_C@_0BD@PAJHKKN@Extra?5Life?5Ability?$AA@	; `string'
PUBLIC	??_C@_0CK@KFPIHAOL@You?5have?5unlocked?5the?5Hyperdrive@ ; `string'
PUBLIC	??_C@_0BD@OBMFBFNP@Hyperdrive?5Ability?$AA@	; `string'
PUBLIC	??_C@_0CN@DFDDAGCN@You?5have?5unlocked?5the?5Double?5Poi@ ; `string'
PUBLIC	??_C@_0BG@NCJOLDEP@Double?5Points?5Ability?$AA@	; `string'
PUBLIC	??_C@_0DC@PHKOBBO@You?5have?5unlocked?5the?5Rapid?5Ener@ ; `string'
PUBLIC	??_C@_0BL@LEIKNMKK@Rapid?5Energy?5Regen?5Ability?$AA@ ; `string'
PUBLIC	??_C@_0CP@PCCOOCAO@You?5have?5unlocked?5the?5Weapons?5Up@ ; `string'
PUBLIC	??_C@_0BI@HEKPELOB@Weapons?5Upgrade?5Ability?$AA@ ; `string'
PUBLIC	??_C@_0CF@MKMOODP@You?5have?5unlocked?5the?5Drone?5abil@ ; `string'
PUBLIC	??_C@_0O@CAKONFBG@Drone?5Ability?$AA@		; `string'
PUBLIC	??_C@_0DG@PHEPPJDD@You?5have?5unlocked?5the?5High?5Explo@ ; `string'
PUBLIC	??_C@_0BP@CEOGKNAL@High?5Explosive?5Warhead?5Ability?$AA@ ; `string'
PUBLIC	??_C@_0CK@BLIBFLCC@You?5have?5unlocked?5the?5SOS?5Beacon@ ; `string'
PUBLIC	??_C@_0BD@JDPOMMKN@SOS?5Beacon?5Ability?$AA@	; `string'
PUBLIC	??_C@_0CL@HNDJOALJ@You?5have?5unlocked?5the?5Drone?5Swar@ ; `string'
PUBLIC	??_C@_0BE@CBFNJGCC@Drone?5Swarm?5Ability?$AA@	; `string'
PUBLIC	??_C@_01LOCGONAA@?$AA?$AA@			; `string'
PUBLIC	??_C@_0DC@ICIICMMC@RenCometBustersScoreSystem?3?3AddP@ ; `string'
PUBLIC	??_C@_0DL@DMAHHIGM@RenCometBustersScoreSystem?3?3Find@ ; `string'
PUBLIC	??_C@_0DK@NJPEEOFG@RenCometBustersScoreSystem?3?3Get_@ ; `string'
PUBLIC	??_C@_0CE@HFCGEOCE@RenCometBustersScoreSystem?3?3Clea@ ; `string'
PUBLIC	??_C@_07MOMFEGGF@?$CFsSave?2?$AA@		; `string'
PUBLIC	??_C@_0BM@GKBJMCAN@?$CFsBetaCMBTPlayerRecords?4tmp?$AA@ ; `string'
PUBLIC	??_C@_0CA@CHLIAOHE@?$CFsBetaCMBTPlayerRecordsEasy?4txt?$AA@ ; `string'
PUBLIC	??_C@_0BM@BEJIGGJC@?$CFsBetaCMBTPlayerRecords?4txt?$AA@ ; `string'
PUBLIC	??_C@_0CA@MPMIPDNC@?$CFsBetaCMBTPlayerRecordsHard?4txt?$AA@ ; `string'
PUBLIC	??_C@_0CE@ODLIIIGC@?$CFsBetaCMBTPlayerRecordsDoomsday?4@ ; `string'
PUBLIC	??_C@_0IG@KIAFBIAN@msg?5RenCometBustersScoreSystem?5E@ ; `string'
PUBLIC	??_C@_0BAK@GMEIJNKP@?$CFlu?5?$CFlu?5?$CFlu?5?$CFlu?5?$CFlu?5?$CFlu?5?$CFlu?5?$CFlu?5@ ; `string'
PUBLIC	??_C@_0CA@KNBEHKN@?$CFsBetaCMBTPlayerRecordsEasy?4Rp2?$AA@ ; `string'
PUBLIC	??_C@_0BM@DJPBCPEL@?$CFsBetaCMBTPlayerRecords?4Rp2?$AA@ ; `string'
PUBLIC	??_C@_0CA@OCKBLKAL@?$CFsBetaCMBTPlayerRecordsHard?4Rp2?$AA@ ; `string'
PUBLIC	??_C@_0CE@MONBMBLL@?$CFsBetaCMBTPlayerRecordsDoomsday?4@ ; `string'
PUBLIC	??_C@_0EI@GGEPLGPC@msg?5MutantAssaultHighScoreSystem@ ; `string'
PUBLIC	??_C@_0BAI@DHKPCABK@?$CFlu?5?$CFlu?5?$CFlu?5?$CFlu?5?$CFlu?5?$CFlu?5?$CFlu?5?$CFlu?5@ ; `string'
PUBLIC	?RetChar@?1??ReturnScore@RenCometBustersScoreSystem@@QAEPADPAUCMTBHighScoresNode@2@H@Z@4PADA ; `RenCometBustersScoreSystem::ReturnScore'::`2'::RetChar
PUBLIC	??_C@_0ED@DPHHABPP@Server?5Record?3?5?$CFs?5has?5played?5?$CFlu@ ; `string'
PUBLIC	??_C@_0EF@JBCNBGOG@Server?5Record?3?5?$CFs?5has?5lost?5?$CFlu?5s@ ; `string'
PUBLIC	??_C@_0DC@OBCPKPMJ@Server?5Record?3?5?$CFs?5has?5destroyed?5@ ; `string'
PUBLIC	??_C@_0DD@CHCKPFGH@Server?5Record?3?5?$CFs?5has?5destroyed?5@ ; `string'
PUBLIC	??_C@_0DC@OPABANCK@Server?5Record?3?5?$CFs?5has?5destroyed?5@ ; `string'
PUBLIC	??_C@_0DB@HHMIAPLD@Server?5Record?3?5?$CFs?5has?5destroyed?5@ ; `string'
PUBLIC	??_C@_0DE@GAPAHGBJ@Server?5Record?3?5?$CFs?5has?5destroyed?5@ ; `string'
PUBLIC	??_C@_0CK@HJEFGBEE@Server?5Record?3?5?$CFs?5has?5destroyed?5@ ; `string'
PUBLIC	??_C@_0CL@DFLDBPJK@Server?5Record?3?5?$CFs?5has?5destroyed?5@ ; `string'
PUBLIC	??_C@_0DA@HIGGHANH@Server?5Record?3?5?$CFs?5has?5killed?5?$CFlu@ ; `string'
PUBLIC	??_C@_0FK@IMFOLIBD@Server?5Record?3?5?$CFs?5has?5scored?5?$CFlu@ ; `string'
PUBLIC	??_C@_0FD@IEKCIDFK@Server?5Record?3?5?$CFs?5has?5scored?5a?5t@ ; `string'
PUBLIC	??_C@_0EG@KPAFONBF@Server?5Record?3?5?$CFs?5has?5made?5it?5to@ ; `string'
PUBLIC	??_C@_0DC@EEBOLIKG@Server?5Record?3?5?$CFs?5has?5destroyed?5@ ; `string'
PUBLIC	??_C@_0EG@EFEOBEBH@Server?5Record?3?5?$CFs?5has?5acquired?5?$CF@ ; `string'
PUBLIC	??_C@_0DK@OBKLLKEM@Server?5Record?3?5?$CFs?5has?5used?5?$CFlu?5H@ ; `string'
PUBLIC	??_C@_0DD@LENFCILH@Server?5Record?3?5?$CFs?5has?5fired?5a?5to@ ; `string'
PUBLIC	??_C@_0DN@LGKHNOIO@Server?5Record?3?5?$CFs?5has?5made?5it?5to@ ; `string'
PUBLIC	??_C@_0DI@KKJLFLDK@Server?5Record?3?5?$CFs?5has?5given?5?$CFlu?5@ ; `string'
PUBLIC	??_C@_0DN@DNEBFNGH@Server?5Record?3?5?$CFs?5has?5received?5?$CF@ ; `string'
PUBLIC	??_C@_0DB@FIFDMKKA@Server?5Record?3?5?$CFs?5has?5destroyed?5@ ; `string'
PUBLIC	??_C@_0DA@DCAKIMBD@Server?5Record?3?5?$CFs?5has?5acquired?5?$CF@ ; `string'
PUBLIC	??_C@_0CK@CIGOPGGB@Server?5Record?3?5?$CFs?5has?5rammed?5?$CFlu@ ; `string'
PUBLIC	??_C@_0DI@LFOHENLA@Server?5Record?3?5?$CFs?5has?5acquired?5?$CF@ ; `string'
PUBLIC	??_C@_0DI@LODGFIOM@Server?5Record?3?5?$CFs?5has?5acquired?5?$CF@ ; `string'
PUBLIC	??_C@_0DI@IIOINMLI@Server?5Record?3?5?$CFs?5has?5acquired?5?$CF@ ; `string'
PUBLIC	??_C@_0DA@NGAPCIJD@Server?5Record?3?5?$CFs?5has?5deployed?5?$CF@ ; `string'
PUBLIC	??_C@_0DE@DHJHFPLK@Server?5Record?3?5?$CFs?5has?5acquired?5?$CF@ ; `string'
PUBLIC	??_C@_0DA@MDDOEMBF@Server?5Record?3?5?$CFs?5has?5?$CFlu?5points@ ; `string'
PUBLIC	??_C@_0CL@BEEAOLM@Server?5Record?3?5?$CFs?5has?5acquired?5?$CF@ ; `string'
PUBLIC	??_C@_0CL@HJPPIPBM@Server?5Record?3?5?$CFs?5has?5launched?5?$CF@ ; `string'
PUBLIC	??_C@_0DJ@IDKKONAG@Server?5Record?3?5?$CFs?5has?5destroyed?5@ ; `string'
PUBLIC	??_C@_0CM@MMOEEEGC@Server?5Record?3?5?$CFs?5has?5destroyed?5@ ; `string'
PUBLIC	??_C@_0DF@NCDHEIBB@Server?5Record?3?5?$CFs?5has?5scored?5?$CFlu@ ; `string'
PUBLIC	??_C@_0DJ@HNGFLFDI@Server?5Record?3?5?$CFs?5has?5acquired?5?$CF@ ; `string'
PUBLIC	??_C@_0DL@CECKDPDK@Server?5Record?3?5?$CFs?5has?5acquired?5?$CF@ ; `string'
PUBLIC	??_C@_0EF@BPINKGDI@Server?5Record?3?5?$CFs?5has?5scored?5?$CFlu@ ; `string'
PUBLIC	??_C@_0DJ@MOLBNNLO@Server?5Record?3?5?$CFs?5has?5acquired?5?$CF@ ; `string'
PUBLIC	??_C@_0DD@OEPBIMNK@Server?5Record?3?5?$CFs?5has?5spent?5?$CF?40l@ ; `string'
PUBLIC	??_C@_0CJ@ECHLBDIE@Server?5Record?3?5?$CFs?5has?5cloaked?5?$CFl@ ; `string'
PUBLIC	??_C@_0DL@JPAFHEPO@Server?5Record?3?5?$CFs?5has?5spent?5?$CF?40l@ ; `string'
PUBLIC	??_C@_0DF@DMFGBHAH@Server?5Record?3?5?$CFs?5has?5raised?5the@ ; `string'
PUBLIC	??_C@_0DC@KHHPHFGD@Server?5Record?3?5?$CFs?5has?5ran?5out?5of@ ; `string'
PUBLIC	??_C@_0EL@PDJFJLGA@Server?5Record?3?5?$CFs?5has?5scored?5?$CFlu@ ; `string'
PUBLIC	??_C@_0EG@HIMLHNHP@Server?5Record?3?5?$CFs?5has?5destroyed?5@ ; `string'
PUBLIC	??_C@_0DC@BHEIBAME@Server?5Record?3?5?$CFs?5jumped?5out?5of?5@ ; `string'
PUBLIC	??_C@_0EE@EMELICEB@Server?5Record?3?5?$CFs?5has?5acquired?5?$CF@ ; `string'
PUBLIC	??_C@_0EA@DEKFDIMD@Server?5Record?3?5?$CFs?5has?5used?5?$CFlu?5D@ ; `string'
PUBLIC	??_C@_0DM@GLCLBJGE@Server?5Record?3?5?$CFs?5has?5used?5the?5d@ ; `string'
PUBLIC	??_C@_0DK@DMKGKKDP@Server?5Record?3?5?$CFs?5has?5used?5the?5d@ ; `string'
PUBLIC	??_C@_0DM@HFEPMBHP@Server?5Record?3?5?$CFs?5has?5acquired?5?$CF@ ; `string'
PUBLIC	??_C@_0FB@HJAMHEGP@Server?5Record?3?5?$CFs?5has?5gained?5a?5t@ ; `string'
PUBLIC	??_C@_0FC@LKOPDGAN@Server?5Record?3?5?$CFs?5has?5acquired?5a@ ; `string'
PUBLIC	??_C@_0EK@EJAOIFKK@Server?5Record?3?5?$CFs?5has?5made?5it?5to@ ; `string'
PUBLIC	??_C@_0FM@JFAIJNJM@Server?5Record?3?5?$CFs?5has?5made?5it?5to@ ; `string'
PUBLIC	??_C@_0DE@BNPLGNGL@Server?5Record?3?5?$CFs?5has?5acquired?5a@ ; `string'
PUBLIC	??_C@_0EA@HMKFKMDK@Server?5Record?3?5?$CFs?5has?5played?5?$CFlu@ ; `string'
PUBLIC	??_C@_0ED@BEMCOBMI@Server?5Record?3?5?$CFs?5has?5played?5?$CFlu@ ; `string'
PUBLIC	??_C@_0EB@KDCCDDHB@Server?5Record?3?5?$CFs?5has?5played?5?$CFlu@ ; `string'
PUBLIC	??_C@_0EF@IKOELIKK@Server?5Record?3?5?$CFs?5has?5played?5?$CFlu@ ; `string'
PUBLIC	??_C@_0FG@JGAHDHJ@Server?5Record?3?5?$CFs?5has?5played?5Ren@ ; `string'
PUBLIC	?RenCometBustersScoreControl@@3URenCometBustersScoreSystem@@A ; RenCometBustersScoreControl
PUBLIC	?MiniGamePlayerControlSystem@@3PAURenCometBustersPlayerNode@@A ; MiniGamePlayerControlSystem
PUBLIC	??_C@_0DI@LLNCPLBC@RenCometBustersGameObjects?3?3?$HORen@ ; `string'
PUBLIC	??_C@_0CI@LOKEAPHJ@RenCometBustersGameObjects?3?3oper@ ; `string'
PUBLIC	??_C@_0BF@CAPOKMCA@msg?5already?5in?5list?$CB?$AA@ ; `string'
PUBLIC	??_C@_0M@IPKOBAPD@BlamoKiller?$AA@		; `string'
PUBLIC	??_C@_04CGFJFPFD@none?$AA@			; `string'
PUBLIC	??_C@_0BA@FNBPLBFG@Explosion_Drone?$AA@		; `string'
PUBLIC	??_C@_0CM@IGIBBGO@RenCometBustersGameObjects?3?3Clea@ ; `string'
PUBLIC	??_C@_05HBJPNAAK@Blamo?$AA@			; `string'
PUBLIC	??_C@_04OHJIHAFH@None?$AA@			; `string'
PUBLIC	??_7JMG_CMTB_Main_Game_Control@@6B@		; JMG_CMTB_Main_Game_Control::`vftable'
PUBLIC	??_7JMG_CMTB_UFO_Random_Fire_Control@@6B@	; JMG_CMTB_UFO_Random_Fire_Control::`vftable'
PUBLIC	??_7JMG_CMTB_Ship_Control_Script@@6B@		; JMG_CMTB_Ship_Control_Script::`vftable'
PUBLIC	??_7JMG_CMTB_Comet_Script@@6B@			; JMG_CMTB_Comet_Script::`vftable'
PUBLIC	??_7JMG_CMTB_Zone_Realign_Enter@@6B@		; JMG_CMTB_Zone_Realign_Enter::`vftable'
PUBLIC	??_7JMG_CMTB_Spectator_Object@@6B@		; JMG_CMTB_Spectator_Object::`vftable'
PUBLIC	??_7JMG_CMTB_Arcade_Machine@@6B@		; JMG_CMTB_Arcade_Machine::`vftable'
PUBLIC	??_7JMG_CMTB_Fake_Player_Attach_Script@@6B@	; JMG_CMTB_Fake_Player_Attach_Script::`vftable'
PUBLIC	??_7JMG_CMTB_Renegade_Code@@6B@			; JMG_CMTB_Renegade_Code::`vftable'
PUBLIC	??_7JMG_CMTB_Motion_Mine@@6B@			; JMG_CMTB_Motion_Mine::`vftable'
PUBLIC	??_7JMG_CMTB_The_Moon_Script@@6B@		; JMG_CMTB_The_Moon_Script::`vftable'
PUBLIC	??_7JMG_CMTB_Ship_Super_Weapon@@6B@		; JMG_CMTB_Ship_Super_Weapon::`vftable'
PUBLIC	??_7JMG_CMTB_Powerup_Script@@6B@		; JMG_CMTB_Powerup_Script::`vftable'
PUBLIC	??_7JMG_CMTB_Cargo_Ship_Script@@6B@		; JMG_CMTB_Cargo_Ship_Script::`vftable'
PUBLIC	??_7JMG_CMTB_Cargo_Ship_Turret@@6B@		; JMG_CMTB_Cargo_Ship_Turret::`vftable'
PUBLIC	??_7JMG_CMTB_Player_Drone@@6B@			; JMG_CMTB_Player_Drone::`vftable'
PUBLIC	??_7JMG_Create_Ship_On_Poke@@6B@		; JMG_Create_Ship_On_Poke::`vftable'
PUBLIC	??_7JMG_Advanced_Bounce_Zone@@6B@		; JMG_Advanced_Bounce_Zone::`vftable'
PUBLIC	??_7JMG_Ship_Random_Hyperspace@@6B@		; JMG_Ship_Random_Hyperspace::`vftable'
PUBLIC	??_7JMG_Random_Music@@6B@			; JMG_Random_Music::`vftable'
PUBLIC	??_7JMG_Ship_Weapon@@6B@			; JMG_Ship_Weapon::`vftable'
PUBLIC	??_7JMG_Return_Custom_When_Shot@@6B@		; JMG_Return_Custom_When_Shot::`vftable'
PUBLIC	??_7JMG_Cronie_AI@@6B@				; JMG_Cronie_AI::`vftable'
PUBLIC	??_7JMG_Kill_Self_And_Sender_On_Custom@@6B@	; JMG_Kill_Self_And_Sender_On_Custom::`vftable'
PUBLIC	??_7JMG_Ship_Shield_Control_Script@@6B@		; JMG_Ship_Shield_Control_Script::`vftable'
PUBLIC	??_7JMG_Kill_Self_And_Sender_On_Custom_Ship@@6B@ ; JMG_Kill_Self_And_Sender_On_Custom_Ship::`vftable'
PUBLIC	??_7JMG_Ship_Shield_Script@@6B@			; JMG_Ship_Shield_Script::`vftable'
PUBLIC	??_7JMG_Renetbusters_Object@@6B@		; JMG_Renetbusters_Object::`vftable'
PUBLIC	??_7JMG_New_Ship_Weapon_Control_System@@6B@	; JMG_New_Ship_Weapon_Control_System::`vftable'
PUBLIC	??_7JMG_Comet_Control_Script@@6B@		; JMG_Comet_Control_Script::`vftable'
PUBLIC	??_7JMG_Attach_And_Remove@@6B@			; JMG_Attach_And_Remove::`vftable'
PUBLIC	??_7JMG_User_Auto_Enter_Ship@@6B@		; JMG_User_Auto_Enter_Ship::`vftable'
PUBLIC	??_7JMG_Apply_Damage_On_Timer@@6B@		; JMG_Apply_Damage_On_Timer::`vftable'
PUBLIC	??_7JMG_CMTB_Vehicle_Face_Turret@@6B@		; JMG_CMTB_Vehicle_Face_Turret::`vftable'
PUBLIC	??_7JMG_CMTB_Poke_End_Map@@6B@			; JMG_CMTB_Poke_End_Map::`vftable'
PUBLIC	??_7JMG_CMTB_Poke_Change_Difficulty@@6B@	; JMG_CMTB_Poke_Change_Difficulty::`vftable'
PUBLIC	??_C@_0L@HPJBEPCP@CreateSpot?$AA@		; `string'
PUBLIC	??_C@_0BD@PHBEHGCL@SpawnSpotExplosion?$AA@	; `string'
PUBLIC	??_C@_05HGDDNFDM@blamo?$AA@			; `string'
PUBLIC	??_C@_04HIBGFPH@NULL?$AA@			; `string'
PUBLIC	??_C@_0L@KDKMBANG@ShipPreset?$AA@		; `string'
PUBLIC	??_C@_0BA@HCADMAFB@InvisibleObject?$AA@		; `string'
PUBLIC	??_C@_07EGLEEHDL@ZAmount?$AA@			; `string'
PUBLIC	??_C@_07MIDLEANI@YAmount?$AA@			; `string'
PUBLIC	??_C@_07EJBEAEG@XAmount?$AA@			; `string'
PUBLIC	??_C@_0BC@PNBOLPNL@HyperspacingModel?$AA@	; `string'
PUBLIC	??_C@_0BA@FKGDDIBN@HyperSpaceSound?$AA@		; `string'
PUBLIC	??_C@_05IPHJJOLO@Song1?$AA@			; `string'
PUBLIC	??_C@_09FKOCOGEO@Song1Time?$AA@			; `string'
PUBLIC	??_C@_05KEFEMNHN@Song2?$AA@			; `string'
PUBLIC	??_C@_09NMHGJEOA@Song2Time?$AA@			; `string'
PUBLIC	??_C@_05LNEPPMDM@Song3?$AA@			; `string'
PUBLIC	??_C@_09BHCKEHEF@Song3Time?$AA@			; `string'
PUBLIC	??_C@_07BEIHKDLJ@Message?$AA@			; `string'
PUBLIC	??_C@_0M@FKJDDLOD@Ship_Shield?$AA@		; `string'
PUBLIC	??_C@_02DPKJAMEF@?$CFd?$AA@			; `string'
PUBLIC	??_C@_0BH@OIEIGPLK@JMG_Ship_Shield_Script?$AA@	; `string'
PUBLIC	??_C@_0L@BJLEKJKD@MESSAGE?5on?$AA@		; `string'
PUBLIC	??_C@_0M@HCHCNLGC@MESSAGE?5off?$AA@		; `string'
PUBLIC	??_C@_03OHGKCNFD@Nod?$AA@			; `string'
PUBLIC	??_C@_0BB@CPMCEIFJ@MESSAGE?5DEAD?0?5?$CFs?$AA@	; `string'
PUBLIC	??_C@_08FLIKPBEA@cometbsb?$AA@			; `string'
PUBLIC	??_C@_0M@GNPCOBLK@shipshieldb?$AA@		; `string'
PUBLIC	??_C@_08CGPNAFAF@cometbsg?$AA@			; `string'
PUBLIC	??_C@_0M@BAIFBFPP@shipshieldg?$AA@		; `string'
PUBLIC	??_C@_08BBEIODBB@cometbsr?$AA@			; `string'
PUBLIC	??_C@_0M@CHDAPDOL@shipshieldr?$AA@		; `string'
PUBLIC	??_C@_08PCLMDKNK@cometbsy?$AA@			; `string'
PUBLIC	??_C@_0M@MEMECKCA@shipshieldy?$AA@		; `string'
PUBLIC	??_C@_0BM@IDEGAHLP@MESSAGE?5Shield?5Should?5Exist?$AA@ ; `string'
PUBLIC	??_C@_0M@FKEHAHKO@shipshieldw?$AA@		; `string'
PUBLIC	??_C@_04IAGNFIBA@size?$AA@			; `string'
PUBLIC	??_C@_0M@GKMNIJOO@Power_Drain?$AA@		; `string'
PUBLIC	??_C@_0BP@MDGHNFN@Weapon_Ship_Plasma_Shot_Normal?$AA@ ; `string'
PUBLIC	??_C@_0L@FDJHJHMA@Comet_Size?$AA@		; `string'
PUBLIC	??_C@_0BC@LLLHCPF@?$CFf?0911?00?410?0453?02?$AA@ ; `string'
PUBLIC	??_C@_0CH@MNFEONNH@JFW_Send_Custom_Distance_Objects@ ; `string'
PUBLIC	??_C@_0N@ELBIIDGM@Spawn_Comets?$AA@		; `string'
PUBLIC	??_C@_0N@BCBILOOP@Comet_Holder?$AA@		; `string'
PUBLIC	??_C@_0O@GNKCNLNJ@Smaller_Comet?$AA@		; `string'
PUBLIC	??_C@_0BG@DEIDFEHH@JMG_Attach_And_Remove?$AA@	; `string'
PUBLIC	??_C@_03LDICLEIE@SC1?$AA@			; `string'
PUBLIC	??_C@_03JIKPOHEH@SC2?$AA@			; `string'
PUBLIC	??_C@_0M@HHIGELPC@Player_Ship?$AA@		; `string'
PUBLIC	??_C@_0CJ@JKMLHKIH@JMG_Remove_Object_When_Creator_D@ ; `string'
PUBLIC	?RenCometBustersList@@3VRenCometBustersGameObjects@@A ; RenCometBustersList
PUBLIC	??_C@_0BE@IAPNGHEF@CMTB_Powerup_Object?$AA@	; `string'
PUBLIC	??_C@_0BI@KMNMLLME@JMG_CMTB_Powerup_Script?$AA@	; `string'
PUBLIC	??_C@_0O@ILEENPHG@RenRoidsBones?$AA@		; `string'
PUBLIC	??_C@_0M@GOMAJMEN@SpecSpot0?$CFd?$AA@		; `string'
PUBLIC	??_C@_0BC@EDKELIGB@Spectator_Vehicle?$AA@	; `string'
PUBLIC	??_C@_0BN@GNJLFKOF@JMG_CMTB_Vehicle_Face_Turret?$AA@ ; `string'
PUBLIC	??_C@_0BK@IMCJNJOP@JMG_CMTB_Spectator_Object?$AA@ ; `string'
PUBLIC	??_C@_09CFKJBEPJ@CreateS?$CFd?$AA@		; `string'
PUBLIC	??_C@_0N@FHNGDPEO@Player_Ships?$AA@		; `string'
PUBLIC	??_C@_08LMPADKBD@P?$CFd_SHIP?$AA@		; `string'
PUBLIC	??_C@_0BC@HMKEDKPH@P?$CFd_SHIP?4P?$CFd_SHIP?$AA@ ; `string'
PUBLIC	??_C@_09JAKCOKP@SpawnS0?$CFd?$AA@		; `string'
PUBLIC	??_C@_0DL@CAEFBAEF@?$CFs?5is?5ready?5to?5start?5the?5game?$DL?5h@ ; `string'
PUBLIC	??_C@_0M@JGDOJGG@Thunder?4mp3?$AA@		; `string'
PUBLIC	??_C@_0M@LILAHFNO@Android?4mp3?$AA@		; `string'
PUBLIC	??_C@_0L@PEMACFHI@Escape?4mp3?$AA@		; `string'
PUBLIC	??_C@_0BE@BFJLDGDA@CnC_Nod_MinigunnerN?$AA@	; `string'
PUBLIC	??_C@_0O@MGLGPNNK@invisibleChar?$AA@		; `string'
PUBLIC	??_C@_0CD@BNLFCCLE@JMG_CMTB_Fake_Player_Attach_Scri@ ; `string'
PUBLIC	??_C@_0L@PFAJEBB@CMTB_Drone?$AA@		; `string'
PUBLIC	??_C@_01HIHLOKLC@1?$AA@				; `string'
PUBLIC	??_C@_0BF@DPFEEIBF@JMG_CMTB_Motion_Mine?$AA@	; `string'
PUBLIC	??_C@_06DNAANCNK@Comet2?$AA@			; `string'
PUBLIC	??_C@_08JMBNGAFO@CMTB_UFO?$AA@			; `string'
PUBLIC	??_C@_0BB@HGLHKBGH@2?0?$CF?43f?5?$CF?43f?5?$CF?43f?$AA@ ; `string'
PUBLIC	??_C@_0BG@BOCOGEON@JMG_CMTB_Comet_Script?$AA@	; `string'
PUBLIC	??_C@_0CB@NKFKHNHH@JMG_CMTB_UFO_Random_Fire_Control@ ; `string'
PUBLIC	??_C@_0N@OEINIMLP@TheMoon?$CBANIM?$AA@		; `string'
PUBLIC	??_C@_0BK@HFCLPCGF@TheMoon?$CBANIM?4TheMoon?$CBANIM?$AA@ ; `string'
PUBLIC	??_C@_08OJPPMONF@TheMoon?$CB?$AA@		; `string'
PUBLIC	??_C@_04IDMPJGHP@moon?$AA@			; `string'
PUBLIC	??_C@_0BA@JDFEGNBJ@CMTB_Cargo_Ship?$AA@		; `string'
PUBLIC	??_C@_02PGHGPEOM@?91?$AA@			; `string'
PUBLIC	??_C@_0BL@KIMJPMME@JMG_CMTB_Cargo_Ship_Script?$AA@ ; `string'
PUBLIC	??_C@_0BP@OPFJBCLD@?$CK?$CK?$CK?$CK?$CK?$CK?$CK?$CK?$CK?$CK?$CKLevel?5?$CFd?$CK?$CK?$CK?$CK?$CK?$CK?$CK?$CK?$CK?$CK?$CK?$AA@ ; `string'
PUBLIC	??_C@_08KNDNNBLP@Level?5?$CFd?$AA@		; `string'
PUBLIC	??_C@_0BJ@HMLJENEK@SFX?4Bonus_Mission_Update?$AA@ ; `string'
PUBLIC	??_C@_0BL@DNDPJPGA@SFX?4Primary_Mission_Update?$AA@ ; `string'
PUBLIC	??_C@_0BN@DJPMNHPB@SFX?4Primary_Mission_Complete?$AA@ ; `string'
PUBLIC	??_C@_0GP@OAILEGEN@You?5scored?5?$CF?42f?5points?5and?5throu@ ; `string'
PUBLIC	??_C@_0FD@FEOOFKHE@You?5scored?5?$CF?42f?5points?5and?5throu@ ; `string'
PUBLIC	??_C@_0FN@NOIOEAIC@You?5scored?5?$CF?42f?5points?5and?5throu@ ; `string'
PUBLIC	??_C@_0EB@MNBPFAEN@You?5scored?5?$CF?42f?5points?5and?5throu@ ; `string'
PUBLIC	??_C@_0GA@BBOALNAI@You?5scored?5?$CF?42f?5points?5and?5made?5@ ; `string'
PUBLIC	??_C@_0EC@MNMLHPG@You?5scored?5?$CF?42f?5points?5and?5made?5@ ; `string'
PUBLIC	??_C@_0EO@IGADHMMP@You?5scored?5?$CF?42f?5points?5and?5made?5@ ; `string'
PUBLIC	??_C@_0CP@DHLGHGHD@You?5scored?5?$CF?42f?5points?5and?5made?5@ ; `string'
PUBLIC	??_C@_0L@PADKNPLL@Game?5Over?$CB?$AA@		; `string'
PUBLIC	??_C@_01GBGANLPD@0?$AA@				; `string'
PUBLIC	??_C@_06BIJBOFNL@Origin?$AA@			; `string'
PUBLIC	??_C@_0CI@IMOGNOKK@Your?5double?5points?5powerup?5has?5e@ ; `string'
PUBLIC	??_C@_0CC@PFNHFIPM@SFX?4Comet_Busters_UI_Failed_Soun@ ; `string'
PUBLIC	??_C@_0BP@IKJEMBEN@You?5have?5aquired?5another?5life?$CB?$AA@ ; `string'
PUBLIC	??_C@_0CB@NJFDNEPI@SFX?4Comet_Busters_Pickup_Powerup@ ; `string'
PUBLIC	??_C@_0BN@EKAIJPOG@SFX?4Comet_Busters_Ship_Spawn?$AA@ ; `string'
PUBLIC	??_C@_07ENBNDFIO@UFOBoss?$AA@			; `string'
PUBLIC	??_C@_07HPFMBEAN@UFOJump?$AA@			; `string'
PUBLIC	??_C@_0BA@KHOIHPDE@UFOJump?4UFOJump?$AA@	; `string'
PUBLIC	??_C@_0CC@LHEOCOHM@SFX?4Comet_Busters_Ship_Hyperspac@ ; `string'
PUBLIC	??_C@_03CBJOHNML@UFO?$AA@			; `string'
PUBLIC	??_C@_07NPBKOJID@UFO?4UFO?$AA@			; `string'
PUBLIC	??_C@_03EPODMGGC@4?00?$AA@			; `string'
PUBLIC	??_C@_0CK@NFAFAOHK@JMG_RP2_Object_Send_Text_Message@ ; `string'
PUBLIC	??_C@_0CF@PHEHLLGF@Selected?5Special?5Ability?3?5Extra?5@ ; `string'
PUBLIC	??_C@_0CM@OOENGFNH@Selected?5Special?5Ability?3?5Hyperj@ ; `string'
PUBLIC	??_C@_0CI@HFBFCNOB@Selected?5Special?5Ability?3?5Double@ ; `string'
PUBLIC	??_C@_0CH@ILHHOMJH@Selected?5Special?5Ability?3?5Energy@ ; `string'
PUBLIC	??_C@_0CK@BEGAEGLB@Selected?5Special?5Ability?3?5Weapon@ ; `string'
PUBLIC	??_C@_0CA@FCHCAGLH@Selected?5Special?5Ability?3?5Drone?$AA@ ; `string'
PUBLIC	??_C@_0DB@HFBEIFFK@Selected?5Special?5Ability?3?5High?5E@ ; `string'
PUBLIC	??_C@_0CF@NBLBGGDG@Selected?5Special?5Ability?3?5SOS?5Be@ ; `string'
PUBLIC	??_C@_0CG@CMGIACAM@Selected?5Special?5Ability?3?5Drone?5@ ; `string'
PUBLIC	??_C@_0BP@CNMJDAHL@Selected?5Special?5Ability?3?5None?$AA@ ; `string'
PUBLIC	??_C@_0BJ@FKKHHCEG@Hyper?5Drive?5Charge?5?$CF?40f?4?$AA@ ; `string'
PUBLIC	??_C@_0BP@JGLNCOEL@Rapid?5Energy?5Regen?5?$CFd?5seconds?4?$AA@ ; `string'
PUBLIC	??_C@_0BH@GIPGGHOA@Extra?5Shot?5?$CFd?5seconds?4?$AA@ ; `string'
PUBLIC	??_C@_0BP@GACIJABL@Double?5Points?5time?5?$CFd?5seconds?4?$AA@ ; `string'
PUBLIC	??_C@_0BD@JOLJGOHJ@Ship?5Control?5Keys?3?$AA@	; `string'
PUBLIC	??_C@_0BG@BKLKMPPO@R?5?9?5Toggle?5Rapid?5Fire?$AA@ ; `string'
PUBLIC	??_C@_0L@MGMBLIHC@Q?5?9?5Shield?$AA@		; `string'
PUBLIC	??_C@_09OECLFLBA@Z?5?9?5Cloak?$AA@		; `string'
PUBLIC	??_C@_0CD@FECDCLBH@G?5?9?5Highly?5Explosive?5Warhead?5?$CIx?$CF@ ; `string'
PUBLIC	??_C@_0BF@FPAOCMMB@T?5?9?5SOS?5Beacon?5?$CIx?$CFd?$CJ?$AA@ ; `string'
PUBLIC	??_C@_0BH@HDOEINJE@F?5?9?5Launch?5Drone?5?$CIx?$CFd?$CJ?$AA@ ; `string'
PUBLIC	??_C@_0BO@NAKCKOAM@H?5?9?5Call?5in?5Drone?5Swarm?5?$CIx?$CFd?$CJ?$AA@ ; `string'
PUBLIC	??_C@_0BH@NDBKPNIN@Delete?5?9?5Forfeit?5Lives?$AA@ ; `string'
PUBLIC	??_C@_0CA@OIAFCEKI@Numpad?$FL0?99?$FN?5?9?5Grant?5Player?5Life?$AA@ ; `string'
PUBLIC	??_C@_0DE@IDGONFFN@Press?5ForfeitLives?5key?5again?5to?5@ ; `string'
PUBLIC	??_C@_0BH@KKFKOCIF@?$CFs?5forfeited?5?$CFs?5lives?$CB?$AA@ ; `string'
PUBLIC	??_C@_0DA@KGEIFEHM@Cannot?5active?5shield?5while?5disru@ ; `string'
PUBLIC	??_C@_0CE@PCGHDDHP@Cannot?5active?5shields?5at?5this?5ti@ ; `string'
PUBLIC	??_C@_0CI@HLGDINOP@Insufficient?5power?5to?5activate?5s@ ; `string'
PUBLIC	??_C@_0CP@EDAJIGJF@Cannot?5active?5cloak?5while?5disrup@ ; `string'
PUBLIC	??_C@_0CC@DCLCEEDD@Cannot?5active?5cloak?5at?5this?5time@ ; `string'
PUBLIC	??_C@_0CG@BGOEAGGL@Insufficient?5power?5to?5activate?5c@ ; `string'
PUBLIC	??_C@_0DP@LIMOOHLM@Cannot?5deploy?5a?5High?5Yield?5Warhe@ ; `string'
PUBLIC	??_C@_0DO@KDGMNIJG@Cannot?5deploy?5a?5High?5Yield?5Warhe@ ; `string'
PUBLIC	??_C@_0CM@GIPOGOAC@Cannot?5use?5High?5Yield?5Warhead?5at@ ; `string'
PUBLIC	??_C@_0DD@GCNAPHJL@You?5do?5not?5have?5any?5high?5yield?5w@ ; `string'
PUBLIC	??_C@_0DM@DEONIBDK@?1?1?1?1?1?1Warning?3?5A?5HIGH?5YIELD?5WARH@ ; `string'
PUBLIC	??_C@_0CE@DHKIKOO@SFX?4Comet_Busters_UI_HYW_Fire_So@ ; `string'
PUBLIC	??_C@_0BL@ONMMODHJ@JMG_CMTB_Ship_Super_Weapon?$AA@ ; `string'
PUBLIC	??_C@_0BN@CIJLFMGA@Energy?5Cell?5Stocks?5are?5full?$CB?$AA@ ; `string'
PUBLIC	??_C@_0BK@COFCHGJB@?$CFd?5Energy?5Cells?5acquired?4?$AA@ ; `string'
PUBLIC	??_C@_0CI@HCHEBKHH@SFX?4Comet_Busters_Pickup_Powerup@ ; `string'
PUBLIC	??_C@_0CN@OMBIKFLO@You?5can?5only?5carry?5one?5SOS?5Beaco@ ; `string'
PUBLIC	??_C@_0BP@MHAMHGLL@You?5have?5aquired?5a?5SOS?5Beacon?$CB?$AA@ ; `string'
PUBLIC	??_C@_0BP@NKIJMCPG@Sorry?0?5your?5cargo?5bay?5is?5full?$CB?$AA@ ; `string'
PUBLIC	??_C@_0CH@MIDLDNOD@You?5have?5aquired?5a?5high?5yield?5wa@ ; `string'
PUBLIC	??_C@_0BE@HAEHJBND@?$CFd?5points?5acquired?4?$AA@ ; `string'
PUBLIC	??_C@_0CI@LEJBKDGI@SFX?4Comet_Busters_Pickup_Powerup@ ; `string'
PUBLIC	??_C@_0CI@BDHEFFLG@You?5can?5only?5carry?5one?5Drone?5at?5@ ; `string'
PUBLIC	??_C@_0BK@HNFMDNNO@You?5have?5aquired?5a?5Drone?$CB?$AA@ ; `string'
PUBLIC	??_C@_0DK@BMNBPLJM@You?5have?5aquired?5a?5rapid?5energy?5@ ; `string'
PUBLIC	??_C@_0DH@HLMJACGM@You?5have?5aquired?5a?5double?5points@ ; `string'
PUBLIC	??_C@_0DB@EKOGLIED@Sorry?0?5your?5hyperdrive?5is?5alread@ ; `string'
PUBLIC	??_C@_01LFCBOECM@?4?$AA@			; `string'
PUBLIC	??_C@_0CF@HNAEINDB@?$DL?5automated?5systems?5are?5now?5on?9l@ ; `string'
PUBLIC	??_C@_0BM@OMIBJMFG@Hyperdrive?5?$CF?40f?$CF?$CF?5charged?$CFs?$AA@ ; `string'
PUBLIC	??_C@_0DO@OMMMNLOB@Your?5data?5base?5only?5has?5enough?5r@ ; `string'
PUBLIC	??_C@_0CM@KFNGBJLK@You?5have?5aquired?5drone?5swarm?5cal@ ; `string'
PUBLIC	??_C@_0CM@PHDJABCO@You?5have?5aquired?5a?52?5minute?5weap@ ; `string'
PUBLIC	??_C@_0CI@DIPLOOLG@SFX?4Comet_Busters_Pickup_Powerup@ ; `string'
PUBLIC	??_C@_0CK@HCJEKJPP@Insufficient?5power?5to?5overcharge@ ; `string'
PUBLIC	??_C@_0CN@JFPLAHAP@SFX?4Comet_Busters_Overcharged_We@ ; `string'
PUBLIC	??_C@_0CO@GHBNNCJI@SFX?4Comet_Busters_Overcharged_We@ ; `string'
PUBLIC	??_C@_0CO@NAPILLOI@Cannot?5deploy?5SOS?5Beacon?5while?5i@ ; `string'
PUBLIC	??_C@_0GI@FOKLMDKF@Sorry?0?5there?5is?5already?5a?5SOS?5Be@ ; `string'
PUBLIC	??_C@_0FC@KDHMBMMC@Due?5to?5sensor?5interference?0?5it?5w@ ; `string'
PUBLIC	??_C@_0DL@FEPJCPF@Sorry?0?5you?5can?5only?5deploy?5one?5S@ ; `string'
PUBLIC	??_C@_0CH@EJNGBCHG@Sorry?0?5you?5don?8t?5have?5any?5SOS?5Be@ ; `string'
PUBLIC	??_C@_0CG@ILMBFACM@SFX?4Comet_Busters_Beacon_Deploy_@ ; `string'
PUBLIC	??_C@_0BF@JPIAOKNI@SOS?5Beacon?5Deployed?$CB?$AA@ ; `string'
PUBLIC	??_C@_0L@GDNFADFP@SOS_Beacon?$AA@		; `string'
PUBLIC	??_C@_0CK@GEKGNCFO@Cannot?5deploy?5drones?5while?5in?5hy@ ; `string'
PUBLIC	??_C@_0DN@INCEHMJM@Sorry?0?5you?5can?5only?5have?5two?5dro@ ; `string'
PUBLIC	??_C@_0BA@EHNMPGMH@Drone?5Launched?$CB?$AA@	; `string'
PUBLIC	??_C@_0CF@NPCKADHB@SFX?4Comet_Busters_Drone_Launch_S@ ; `string'
PUBLIC	??_C@_0L@IBKIKMNA@?$CFd?0100?01?01?$AA@		; `string'
PUBLIC	??_C@_0BJ@HMHDFFIC@CMTB_Player_Attack_Drone?$AA@ ; `string'
PUBLIC	??_C@_0BG@DDDOADFB@JMG_CMTB_Player_Drone?$AA@	; `string'
PUBLIC	??_C@_0CM@BCHOJKJO@Sorry?0?5you?5don?8t?5have?5any?5Drones@ ; `string'
PUBLIC	??_C@_0DI@JOPOKIJI@Sorry?0?5a?5drone?5swarm?5is?5already?5@ ; `string'
PUBLIC	??_C@_0DM@CPNCGFHK@Cannot?5transmit?5drone?5swarm?5call@ ; `string'
PUBLIC	??_C@_0BE@CGMPNBOF@Drone?5Swarm?5Called?$CB?$AA@ ; `string'
PUBLIC	??_C@_09LCIOIFFB@?$CFd?010?01?00?$AA@		; `string'
PUBLIC	??_C@_0DH@BKFDMGCF@Sorry?0?5you?5don?8t?5have?5the?5codes?5@ ; `string'
PUBLIC	??_C@_0EB@ODICOFHG@Sorry?0?5you?5don?8t?5have?5any?5extra?5@ ; `string'
PUBLIC	??_C@_0EO@BMGJBAFN@You?5have?5granted?5player?5?$CFd?5?$CI?$CFs?$CJ?5@ ; `string'
PUBLIC	??_C@_0DM@JGDCJFMM@?$CFs?5has?5granted?5you?5another?5life?0@ ; `string'
PUBLIC	??_C@_0DB@FOFGKICD@Sorry?0?5player?5?$CFd?5is?5not?5requesti@ ; `string'
PUBLIC	??_C@_0BO@IDHPPFKH@?$CIHyperdrive?5charge?5at?5?$CF?40f?$CF?$CF?$CJ?$AA@ ; `string'
PUBLIC	??_C@_0EO@HLGAJOEF@IMMINENT?5COLLISION?5CONDITION?5DET@ ; `string'
PUBLIC	??_C@_0DH@LKHLGGNO@HYPER?5DRIVES?5DEPLETED?0?5HYPERSPAC@ ; `string'
PUBLIC	??_C@_07GKGABLL@HyperIn?$AA@			; `string'
PUBLIC	??_C@_05NNFHCGPF@?$CFs?4?$CFs?$AA@		; `string'
PUBLIC	??_C@_0CG@BIHDAKAG@Your?5power?5regen?5powerup?5has?5exp@ ; `string'
PUBLIC	??_C@_0CJ@KEMGGLAF@Your?5weapon?5upgrade?5powerup?5has?5@ ; `string'
PUBLIC	??_C@_08LDDCHHDA@Backward?$AA@			; `string'
PUBLIC	??_C@_07NALHMFBO@Forward?$AA@			; `string'
PUBLIC	??_C@_0BD@NPONFOKH@Disruptor?5Engaged?$CB?$AA@	; `string'
PUBLIC	??_C@_0BK@PMLDBCIK@Engine?5overload?5detected?$CB?$AA@ ; `string'
PUBLIC	??_C@_08CCPOGDLK@HyperOut?$AA@			; `string'
PUBLIC	??_C@_04LLKGOIAC@10?00?$AA@			; `string'
PUBLIC	??_C@_04IMHIBIDA@15?00?$AA@			; `string'
PUBLIC	??_C@_03NCDEPONL@3?00?$AA@			; `string'
PUBLIC	??_C@_0BG@ONDGJMEB@You?5are?5out?5of?5lives?$CB?$AA@ ; `string'
PUBLIC	??_C@_0CA@JMINELOO@Player?5?$CFd?5?$CI?$CFs?$CJ?5is?5out?5of?5lives?$CB?$AA@ ; `string'
PUBLIC	??_C@_0DH@GNDCJBOI@Power?5levels?5critical?$CB?5Deactivat@ ; `string'
PUBLIC	??_C@_0BI@CDFHKPGF@CometSpin?$CFd?4CometSpin?$CFd?$AA@ ; `string'
PUBLIC	??_C@_04EBKMHHBE@Size?$AA@			; `string'
PUBLIC	??_C@_07HOMDCAEO@Comet?$CFd?$AA@		; `string'
PUBLIC	??_C@_0BC@IMNMANMB@?$CFd?0?$CF?43f?5?$CF?43f?5?$CF?43f?$AA@ ; `string'
PUBLIC	??_C@_09DHIFDLCI@Comet?$CF02d?$AA@		; `string'
PUBLIC	??_C@_08GCJNLIKG@Position?$AA@			; `string'
PUBLIC	??_C@_06IONACMBM@Number?$AA@			; `string'
PUBLIC	??_C@_0FH@IIPKLMKK@?$CFs?5is?5out?5of?5lives?0?5you?5can?5give@ ; `string'
PUBLIC	??_C@_0CC@KDFPAFOO@Press?5spacebar?5to?5start?5the?5game@ ; `string'
PUBLIC	??_C@_0CF@MIOOFHNA@?$CFs?5has?5been?5kicked?5out?5of?5the?5lo@ ; `string'
PUBLIC	??_C@_0BG@GIMHFNBL@Vehicle?5Special?5Keys?3?$AA@ ; `string'
PUBLIC	??_C@_0BO@BOIDNEMN@Spacebar?5?9?5Vote?5to?5start?5game?$AA@ ; `string'
PUBLIC	??_C@_0BJ@EKECLBBE@Page?5Up?5?9?5Request?5a?5life?$AA@ ; `string'
PUBLIC	??_C@_0P@HDJECCFC@E?5?9?5Quit?5game?4?$AA@	; `string'
PUBLIC	??_C@_0FL@NKDBAEEJ@You?5have?5special?5abilities?5that?5@ ; `string'
PUBLIC	??_C@_0N@MIAODDCN@ControllerID?$AA@		; `string'
PUBLIC	??_C@_08ENOAHEPI@null?4mp3?$AA@			; `string'
PUBLIC	??_C@_0DG@LBDLKGPK@A?5game?5must?5be?5in?5progress?5in?5or@ ; `string'
PUBLIC	??_C@_0CM@LHGCIFLP@Your?5request?5for?5a?5life?5has?5been@ ; `string'
PUBLIC	??_C@_0EK@NJFPICI@Your?5request?5for?5a?5life?5has?5been@ ; `string'
PUBLIC	??_C@_0CO@OHLHLMME@Sorry?0?5no?5one?5in?5game?5has?5any?5li@ ; `string'
PUBLIC	??_C@_0DN@ENGMNJLA@Sorry?0?5you?5must?5be?5out?5of?5lives?5@ ; `string'
PUBLIC	??_C@_0EM@PNECEIBN@Sorry?0?5you?5cannot?5change?5your?5sp@ ; `string'
PUBLIC	??_C@_0CP@HAABCCHK@Sorry?0?5you?5do?5not?5have?5that?5perk@ ; `string'
PUBLIC	??_C@_0FB@KGHIDKIK@1?5?9?5Start?5the?5game?5with?5an?5Extra@ ; `string'
PUBLIC	??_C@_0DF@IJOIHOGC@2?5?9?5Start?5the?5game?5with?5a?5fully?5@ ; `string'
PUBLIC	??_C@_0EG@JKIJOEC@3?5?9?516?45?$CF?5chance?5of?5getting?5Doub@ ; `string'
PUBLIC	??_C@_0EC@OHHPJHHI@4?5?9?55?$CF?5chance?5of?5getting?5Energy?5@ ; `string'
PUBLIC	??_C@_0EF@FAMLNKNF@5?5?9?55?$CF?5chance?5of?5getting?5Weapons@ ; `string'
PUBLIC	??_C@_0DC@EPGJIDBL@6?5?9?520?$CF?5chance?5of?5being?5granted?5@ ; `string'
PUBLIC	??_C@_0EC@DHGPLMLE@7?5?9?55?$CF?5chance?5of?5being?5granted?5a@ ; `string'
PUBLIC	??_C@_0DI@BBLMAHPA@8?5?9?52?45?$CF?5chance?5of?5being?5granted@ ; `string'
PUBLIC	??_C@_0DJ@CMKFKPIC@9?5?9?52?45?$CF?5chance?5of?5being?5granted@ ; `string'
PUBLIC	??_C@_0O@HDKCBMAC@MachineNumber?$AA@		; `string'
PUBLIC	??_C@_0BB@BMHOELCO@ArcadeMachine_?$CFd?$AA@	; `string'
PUBLIC	??_C@_0BH@JCPOMNIO@JMG_CMTB_Renegade_Code?$AA@	; `string'
PUBLIC	??_C@_0M@NCIMLPDC@MySoldierID?$AA@		; `string'
PUBLIC	??_C@_0CA@HFHFGBGO@Astrogade?9ShipShield?077454812?00?$AA@ ; `string'
PUBLIC	??_C@_0BM@JBKOIDAD@JFW_Send_Self_Custom_On_Key?$AA@ ; `string'
PUBLIC	??_C@_0BP@HEKCEGON@Astrogade?9ShipCloak?077454813?00?$AA@ ; `string'
PUBLIC	??_C@_0BP@LPBEJMHI@Astrogade?9StartGame?077454814?00?$AA@ ; `string'
PUBLIC	??_C@_0BO@EIDNLCPG@Astrogade?9ShipBomb?077454815?00?$AA@ ; `string'
PUBLIC	??_C@_0CE@FGPPJENK@Astrogade?9ShipOvercharge?07745481@ ; `string'
PUBLIC	??_C@_0CC@HDAEAGKJ@Astrogade?9RequestALife?077454817?0@ ; `string'
PUBLIC	??_C@_0CD@MIFKEDKF@Astrogade?9ShipSOSBeacon?077454818@ ; `string'
PUBLIC	??_C@_0BP@FBFKKKLB@Astrogade?9ShipDrone?077454819?00?$AA@ ; `string'
PUBLIC	??_C@_0CC@PDFAEJL@Astrogade?9ForfeitLives?077454830?0@ ; `string'
PUBLIC	??_C@_0CH@NNJAPLNJ@Astrogade?9UseDroneSwarmCode?07745@ ; `string'
PUBLIC	??_C@_0CG@PKFPKKIK@Astrogade?9OfferLifePlayer0?077454@ ; `string'
PUBLIC	??_C@_0CG@JPHFBEGK@Astrogade?9OfferLifePlayer1?077454@ ; `string'
PUBLIC	??_C@_0CG@DAAKNHEK@Astrogade?9OfferLifePlayer2?077454@ ; `string'
PUBLIC	??_C@_0CG@FFCAGJKK@Astrogade?9OfferLifePlayer3?077454@ ; `string'
PUBLIC	??_C@_0CG@LFIEFHEL@Astrogade?9OfferLifePlayer4?077454@ ; `string'
PUBLIC	??_C@_0CG@NAKOOJKL@Astrogade?9OfferLifePlayer5?077454@ ; `string'
PUBLIC	??_C@_0CG@HPNBCKIL@Astrogade?9OfferLifePlayer6?077454@ ; `string'
PUBLIC	??_C@_0CG@BKPLJEGL@Astrogade?9OfferLifePlayer7?077454@ ; `string'
PUBLIC	??_C@_0CG@GFOIFBAI@Astrogade?9OfferLifePlayer8?077454@ ; `string'
PUBLIC	??_C@_0CG@MCOPOI@Astrogade?9OfferLifePlayer9?077454@ ; `string'
PUBLIC	??_C@_0BP@KOEGJBOG@Astrogade?9KeyListing?07154148?00?$AA@ ; `string'
PUBLIC	??_C@_07JPIEJJIE@Is_Boss?$AA@			; `string'
PUBLIC	??_C@_0BG@IJBPPJAA@Explosion_Comet_Small?$AA@	; `string'
PUBLIC	??_C@_05MAGIBEFI@Scale?$AA@			; `string'
PUBLIC	??_C@_0P@OFBBCMBO@Explosion_Moon?$AA@		; `string'
PUBLIC	??_C@_06CEBLODJL@Comet3?$AA@			; `string'
PUBLIC	??_C@_0BA@KOGFMHJH@CMTBChargeSpark?$AA@		; `string'
PUBLIC	??_C@_0BB@NIMKMEAF@ControllerShipID?$AA@	; `string'
PUBLIC	??_C@_0CG@IGNKFOCA@SFX?4Comet_Busters_Super_Weapon_C@ ; `string'
PUBLIC	??_C@_0CH@LAOFOPJA@SFX?4Comet_Busters_Super_Weapon_W@ ; `string'
PUBLIC	??_C@_0BA@IHFLAFKF@CmtBSuperWeapon?$AA@		; `string'
PUBLIC	??_C@_0CA@EMKOFNEI@CmtBSuperWeapon?4CmtBSuperWeapon?$AA@ ; `string'
PUBLIC	??_C@_0CE@ICNBHODI@SFX?4Comet_Busters_Super_Weapon_F@ ; `string'
PUBLIC	??_C@_06LDOHGAOK@Pos150?$AA@			; `string'
PUBLIC	??_C@_06IFGIOHDE@Custom?$AA@			; `string'
PUBLIC	??_C@_0L@GJMGOBFJ@p_Energy_0?$AA@		; `string'
PUBLIC	??_C@_08INJDFBPH@LifeTime?$AA@			; `string'
PUBLIC	??_C@_0BG@NDBEODBA@p_Energy_0?4p_Energy_0?$AA@	; `string'
PUBLIC	??_C@_0L@HANNNABI@p_Energy_1?$AA@		; `string'
PUBLIC	??_C@_0BG@BHJJALNE@p_Energy_1?4p_Energy_1?$AA@	; `string'
PUBLIC	??_C@_0L@FLPAIDNL@p_Energy_2?$AA@		; `string'
PUBLIC	??_C@_0BG@IBHODENJ@p_Energy_2?4p_Energy_2?$AA@	; `string'
PUBLIC	??_C@_0M@HNBOKCKD@p_SOSBeacon?$AA@		; `string'
PUBLIC	??_C@_0BI@COFOCMMO@p_SOSBeacon?4p_SOSBeacon?$AA@ ; `string'
PUBLIC	??_C@_08MJLMJCFB@p_sw_HEW?$AA@			; `string'
PUBLIC	??_C@_0BC@FIGAMGHC@p_sw_HEW?4p_sw_HEW?$AA@	; `string'
PUBLIC	??_C@_0M@BJDFNJG@p_ExtraShip?$AA@		; `string'
PUBLIC	??_C@_0BI@MBAOLDDF@p_ExtraShip?4p_ExtraShip?$AA@ ; `string'
PUBLIC	??_C@_0L@LIHCEDFL@p_Points_0?$AA@		; `string'
PUBLIC	??_C@_0BG@CIFOMFCM@p_Points_0?4p_Points_0?$AA@	; `string'
PUBLIC	??_C@_0L@KBGJHCBK@p_Points_1?$AA@		; `string'
PUBLIC	??_C@_0BG@OMNDCNOI@p_Points_1?4p_Points_1?$AA@	; `string'
PUBLIC	??_C@_0L@IKEECBNJ@p_Points_2?$AA@		; `string'
PUBLIC	??_C@_0BG@HKDEBCOF@p_Points_2?4p_Points_2?$AA@	; `string'
PUBLIC	??_C@_0L@JDFPBAJI@p_Points_3?$AA@		; `string'
PUBLIC	??_C@_0BG@LOLJPKCB@p_Points_3?4p_Points_3?$AA@	; `string'
PUBLIC	??_C@_07MNENENBA@p_Drone?$AA@			; `string'
PUBLIC	??_C@_0BA@OGIHCEPN@p_Drone?4p_Drone?$AA@	; `string'
PUBLIC	??_C@_0L@NMBOIGFP@p_Points_4?$AA@		; `string'
PUBLIC	??_C@_0BG@IMILGKLO@p_Points_4?4p_Points_4?$AA@	; `string'
PUBLIC	??_C@_0P@LAJGIFLP@p_Energy_Regen?$AA@		; `string'
PUBLIC	??_C@_0BO@LOBJOCPN@p_Energy_Regen?4p_Energy_Regen?$AA@ ; `string'
PUBLIC	??_C@_0P@EKKFLCBL@P_DoublePoints?$AA@		; `string'
PUBLIC	??_C@_0BO@NCAGBHPP@P_DoublePoints?4P_DoublePoints?$AA@ ; `string'
PUBLIC	??_C@_06EOAAJIBD@P_Deer?$AA@			; `string'
PUBLIC	??_C@_0O@BMKHPFIF@P_Deer?4P_Deer?$AA@		; `string'
PUBLIC	??_C@_07CGEEFHGM@p_Swarm?$AA@			; `string'
PUBLIC	??_C@_0BA@ENNENONI@p_Swarm?4p_Swarm?$AA@	; `string'
PUBLIC	??_C@_0O@OGIFOEBP@p_weapUpgrade?$AA@		; `string'
PUBLIC	??_C@_0BM@MEJFCIJN@p_weapUpgrade?4p_weapUpgrade?$AA@ ; `string'
PUBLIC	??_C@_06KNDBNPNN@w_invs?$AA@			; `string'
PUBLIC	??_C@_0N@JOEDODEI@Colliders003?$AA@		; `string'
PUBLIC	??_C@_0N@NBACHFIP@Colliders004?$AA@		; `string'
PUBLIC	??_C@_0N@MIBJEEMO@Colliders005?$AA@		; `string'
PUBLIC	??_C@_0N@KMHFIBMK@Colliders001?$AA@		; `string'
PUBLIC	??_C@_0N@LFGOLAIL@Colliders000?$AA@		; `string'
PUBLIC	??_C@_0N@IHFINCAJ@Colliders002?$AA@		; `string'
PUBLIC	??_C@_0N@ODDEBHAN@Colliders006?$AA@		; `string'
PUBLIC	??_C@_0O@FJALAOPP@CMTBCShipAnim?$AA@		; `string'
PUBLIC	??_C@_0BM@KFPGANGC@CMTBCShipAnim?4CMTBCShipAnim?$AA@ ; `string'
PUBLIC	??_C@_0N@FLJNBGLE@PlayerNumber?$AA@		; `string'
PUBLIC	??_C@_0N@FPFOLAOB@TrtSpots?$CF03d?$AA@		; `string'
PUBLIC	??_C@_0BH@GDFCDMOF@CMTB_Cargo_Ship_Turret?$AA@	; `string'
PUBLIC	??_C@_0BL@CFBEJCMJ@JMG_CMTB_Cargo_Ship_Turret?$AA@ ; `string'
PUBLIC	??_C@_0DF@FJDAIFEN@Galactic?5Cargo?5Ship?3?5You?5were?5wa@ ; `string'
PUBLIC	??_C@_0FF@FPBOBBNK@Galactic?5Cargo?5Ship?3?5Friendly?5fi@ ; `string'
PUBLIC	??_C@_0EL@LBNHOGIK@Galactic?5Cargo?5Ship?3?5Stop?5firing@ ; `string'
PUBLIC	??_C@_0EI@DOBEHKBJ@Galactic?5Cargo?5Ship?3?5Final?5warni@ ; `string'
PUBLIC	??_C@_0EK@LOOFKGAH@Galactic?5Cargo?5Ship?3?5Structural?5@ ; `string'
PUBLIC	??_C@_06LHNPGOPG@Barrel?$AA@			; `string'
PUBLIC	??_C@_0N@INKKNFJM@PlayerEscort?$AA@		; `string'
PUBLIC	??_C@_0P@CCHHLEDH@FighterDrone?$CFd?$AA@	; `string'
PUBLIC	??_C@_0BO@GIMEHAME@FighterDrone?$CFd?4FighterDrone?$CFd?$AA@ ; `string'
PUBLIC	??_C@_05PMCMDMKN@Power?$AA@			; `string'
PUBLIC	??_C@_0O@CFOGKGM@FighterDronez?$AA@		; `string'
PUBLIC	??_C@_0BM@FGAOFIBA@FighterDronez?4FighterDronez?$AA@ ; `string'
PUBLIC	??_C@_0L@PIAPLGDF@RePosition?$AA@		; `string'
PUBLIC	??_C@_0BI@FAOCJFNP@Explosion_Drone_Warp_In?$AA@	; `string'
PUBLIC	??_C@_05JCEPCEFD@LWing?$AA@			; `string'
PUBLIC	??_C@_05KLJDEHLI@RWing?$AA@			; `string'
PUBLIC	??_C@_0L@BFKJPLBK@?$CFd?0?$CFd?00?0?$CFd?$AA@	; `string'
PUBLIC	??_C@_06KJINBPNG@Turret?$AA@			; `string'
PUBLIC	??_C@_0BC@KDBOOJDO@powerbox?4powerbox?$AA@	; `string'
PUBLIC	??_C@_0CD@HIMCCADD@Sorry?0?5this?5switch?5is?5not?5enable@ ; `string'
PUBLIC	??_C@_0ED@HKPPECPO@Please?5wait?5for?5the?5current?5game@ ; `string'
PUBLIC	??_C@_0DC@ILNDMLLJ@Please?5wait?5?$CFd?5seconds?5before?5pu@ ; `string'
PUBLIC	??_C@_05PAMKIGDK@win?50?$AA@			; `string'
PUBLIC	??_C@_0DN@IBAOBLKH@Pull?5the?5switch?5all?5the?5way?5down@ ; `string'
PUBLIC	??_C@_0BO@PHHNAANH@SFX?4Comet_Busters_Flip_Switch?$AA@ ; `string'
PUBLIC	??_C@_0BE@GHIJNOGP@powerbox2?4powerbox2?$AA@	; `string'
PUBLIC	??_C@_0BJ@DBOAFGKG@?$FLDIFFICULTY?5SET?5TO?5EASY?$FN?$AA@ ; `string'
PUBLIC	??_C@_0BK@HNDBPDLA@DIFFICULTY?5SET?5TO?5NORMAL?$FN?$AA@ ; `string'
PUBLIC	??_C@_0BJ@CBDMBCDO@?$FLDIFFICULTY?5SET?5TO?5HARD?$FN?$AA@ ; `string'
PUBLIC	??_C@_0BN@EILNFNJP@?$FLDIFFICULTY?5SET?5TO?5DOOMSDAY?$FN?$AA@ ; `string'
PUBLIC	??_7?$ScriptRegistrant@VJMG_Create_Ship_On_Poke@@@@6B@ ; ScriptRegistrant<JMG_Create_Ship_On_Poke>::`vftable'
PUBLIC	?JMG_Create_Ship_On_Poke_Registrant@@3V?$ScriptRegistrant@VJMG_Create_Ship_On_Poke@@@@A ; JMG_Create_Ship_On_Poke_Registrant
PUBLIC	??_C@_0KC@KACPIFJF@CreateSpot?3vector3?0ShipPreset?$DNCo@ ; `string'
PUBLIC	??_C@_0BI@OCLAMLOP@JMG_Create_Ship_On_Poke?$AA@	; `string'
PUBLIC	??_7?$ScriptRegistrant@VJMG_Advanced_Bounce_Zone@@@@6B@ ; ScriptRegistrant<JMG_Advanced_Bounce_Zone>::`vftable'
PUBLIC	?JMG_Advanced_Bounce_Zone_Registrant@@3V?$ScriptRegistrant@VJMG_Advanced_Bounce_Zone@@@@A ; JMG_Advanced_Bounce_Zone_Registrant
PUBLIC	??_C@_0DA@FEHDLNFG@XAmount?$DN0?3float?0YAmount?$DN0?3float?0@ ; `string'
PUBLIC	??_C@_0BJ@GEFDPELA@JMG_Advanced_Bounce_Zone?$AA@ ; `string'
PUBLIC	??_7?$ScriptRegistrant@VJMG_Ship_Random_Hyperspace@@@@6B@ ; ScriptRegistrant<JMG_Ship_Random_Hyperspace>::`vftable'
PUBLIC	?JMG_Ship_Random_Hyperspace_Registrant@@3V?$ScriptRegistrant@VJMG_Ship_Random_Hyperspace@@@@A ; JMG_Ship_Random_Hyperspace_Registrant
PUBLIC	??_C@_0EI@GPBNBBEO@HyperspacingModel?$DNcometbshs?3stri@ ; `string'
PUBLIC	??_C@_0BL@PAOMGHPC@JMG_Ship_Random_Hyperspace?$AA@ ; `string'
PUBLIC	??_7?$ScriptRegistrant@VJMG_Random_Music@@@@6B@	; ScriptRegistrant<JMG_Random_Music>::`vftable'
PUBLIC	?JMG_Random_Music_Registrant@@3V?$ScriptRegistrant@VJMG_Random_Music@@@@A ; JMG_Random_Music_Registrant
PUBLIC	??_C@_0FH@IANBPFPH@Song1?3string?0Song1Time?3float?0Son@ ; `string'
PUBLIC	??_C@_0BB@LBKFGDNM@JMG_Random_Music?$AA@	; `string'
PUBLIC	??_7?$ScriptRegistrant@VJMG_Ship_Weapon@@@@6B@	; ScriptRegistrant<JMG_Ship_Weapon>::`vftable'
PUBLIC	?JMG_Ship_Weapon_Registrant@@3V?$ScriptRegistrant@VJMG_Ship_Weapon@@@@A ; JMG_Ship_Weapon_Registrant
PUBLIC	??_C@_0BA@MMIEMBHJ@JMG_Ship_Weapon?$AA@		; `string'
PUBLIC	??_7?$ScriptRegistrant@VJMG_Return_Custom_When_Shot@@@@6B@ ; ScriptRegistrant<JMG_Return_Custom_When_Shot>::`vftable'
PUBLIC	?JMG_Return_Custom_When_Shot_Registrant@@3V?$ScriptRegistrant@VJMG_Return_Custom_When_Shot@@@@A ; JMG_Return_Custom_When_Shot_Registrant
PUBLIC	??_C@_0BM@EIAAOEBK@JMG_Return_Custom_When_Shot?$AA@ ; `string'
PUBLIC	??_7?$ScriptRegistrant@VJMG_Cronie_AI@@@@6B@	; ScriptRegistrant<JMG_Cronie_AI>::`vftable'
PUBLIC	?JMG_Cronie_AI_Registrant@@3V?$ScriptRegistrant@VJMG_Cronie_AI@@@@A ; JMG_Cronie_AI_Registrant
PUBLIC	??_C@_0O@CMOIFFKF@JMG_Cronie_AI?$AA@		; `string'
PUBLIC	??_7?$ScriptRegistrant@VJMG_Kill_Self_And_Sender_On_Custom@@@@6B@ ; ScriptRegistrant<JMG_Kill_Self_And_Sender_On_Custom>::`vftable'
PUBLIC	?JMG_Kill_Self_And_Sender_On_Custom_Registrant@@3V?$ScriptRegistrant@VJMG_Kill_Self_And_Sender_On_Custom@@@@A ; JMG_Kill_Self_And_Sender_On_Custom_Registrant
PUBLIC	??_C@_0M@HBPJHKKO@Message?3int?$AA@		; `string'
PUBLIC	??_C@_0CD@NACCMAPF@JMG_Kill_Self_And_Sender_On_Cust@ ; `string'
PUBLIC	??_7?$ScriptRegistrant@VJMG_Ship_Shield_Control_Script@@@@6B@ ; ScriptRegistrant<JMG_Ship_Shield_Control_Script>::`vftable'
PUBLIC	?JMG_Ship_Shield_Control_Script_Registrant@@3V?$ScriptRegistrant@VJMG_Ship_Shield_Control_Script@@@@A ; JMG_Ship_Shield_Control_Script_Registrant
PUBLIC	??_C@_0BP@OEEKAOHD@JMG_Ship_Shield_Control_Script?$AA@ ; `string'
PUBLIC	??_7?$ScriptRegistrant@VJMG_Kill_Self_And_Sender_On_Custom_Ship@@@@6B@ ; ScriptRegistrant<JMG_Kill_Self_And_Sender_On_Custom_Ship>::`vftable'
PUBLIC	?JMG_Kill_Self_And_Sender_On_Custom_Ship_Registrant@@3V?$ScriptRegistrant@VJMG_Kill_Self_And_Sender_On_Custom_Ship@@@@A ; JMG_Kill_Self_And_Sender_On_Custom_Ship_Registrant
PUBLIC	??_C@_0CI@FIKIDPDG@JMG_Kill_Self_And_Sender_On_Cust@ ; `string'
PUBLIC	??_7?$ScriptRegistrant@VJMG_Ship_Shield_Script@@@@6B@ ; ScriptRegistrant<JMG_Ship_Shield_Script>::`vftable'
PUBLIC	?JMG_Ship_Shield_Script_Registrant@@3V?$ScriptRegistrant@VJMG_Ship_Shield_Script@@@@A ; JMG_Ship_Shield_Script_Registrant
PUBLIC	??_C@_06IDGMBKCH@ID?3int?$AA@			; `string'
PUBLIC	??_7?$ScriptRegistrant@VJMG_Renetbusters_Object@@@@6B@ ; ScriptRegistrant<JMG_Renetbusters_Object>::`vftable'
PUBLIC	?JMG_Renetbusters_Object_Registrant@@3V?$ScriptRegistrant@VJMG_Renetbusters_Object@@@@A ; JMG_Renetbusters_Object_Registrant
PUBLIC	??_C@_0BL@JAOGOEJB@size?3float?0Power_Drain?3int?$AA@ ; `string'
PUBLIC	??_C@_0BI@JANFOPGL@JMG_Renetbusters_Object?$AA@	; `string'
PUBLIC	??_7?$ScriptRegistrant@VJMG_New_Ship_Weapon_Control_System@@@@6B@ ; ScriptRegistrant<JMG_New_Ship_Weapon_Control_System>::`vftable'
PUBLIC	?JMG_New_Ship_Weapon_Control_System_Registrant@@3V?$ScriptRegistrant@VJMG_New_Ship_Weapon_Control_System@@@@A ; JMG_New_Ship_Weapon_Control_System_Registrant
PUBLIC	??_C@_0CD@MBNGPBCI@JMG_New_Ship_Weapon_Control_Syst@ ; `string'
PUBLIC	??_7?$ScriptRegistrant@VJMG_Comet_Control_Script@@@@6B@ ; ScriptRegistrant<JMG_Comet_Control_Script>::`vftable'
PUBLIC	?JMG_Comet_Control_Script_Registrant@@3V?$ScriptRegistrant@VJMG_Comet_Control_Script@@@@A ; JMG_Comet_Control_Script_Registrant
PUBLIC	??_C@_0FH@IMAIKLEL@Comet_Size?3float?0Spawn_Comets?$DN0?3@ ; `string'
PUBLIC	??_C@_0BJ@DHIJIIMB@JMG_Comet_Control_Script?$AA@ ; `string'
PUBLIC	??_7?$ScriptRegistrant@VJMG_Attach_And_Remove@@@@6B@ ; ScriptRegistrant<JMG_Attach_And_Remove>::`vftable'
PUBLIC	?JMG_Attach_And_Remove_Registrant@@3V?$ScriptRegistrant@VJMG_Attach_And_Remove@@@@A ; JMG_Attach_And_Remove_Registrant
PUBLIC	??_C@_0BF@HBPOJDOK@Smaller_Comet?3string?$AA@	; `string'
PUBLIC	??_7?$ScriptRegistrant@VJMG_User_Auto_Enter_Ship@@@@6B@ ; ScriptRegistrant<JMG_User_Auto_Enter_Ship>::`vftable'
PUBLIC	?JMG_User_Auto_Enter_Ship_Registrant@@3V?$ScriptRegistrant@VJMG_User_Auto_Enter_Ship@@@@A ; JMG_User_Auto_Enter_Ship_Registrant
PUBLIC	??_C@_0CH@HGDGGFFP@Player_Ship?$DNRB_Blue_Player_Ship?3@ ; `string'
PUBLIC	??_C@_0BJ@JFJACLHB@JMG_User_Auto_Enter_Ship?$AA@ ; `string'
PUBLIC	??_7?$ScriptRegistrant@VJMG_Apply_Damage_On_Timer@@@@6B@ ; ScriptRegistrant<JMG_Apply_Damage_On_Timer>::`vftable'
PUBLIC	?JMG_Apply_Damage_On_Timer_Registrant@@3V?$ScriptRegistrant@VJMG_Apply_Damage_On_Timer@@@@A ; JMG_Apply_Damage_On_Timer_Registrant
PUBLIC	??_C@_0BK@CADJILLC@JMG_Apply_Damage_On_Timer?$AA@ ; `string'
PUBLIC	??_7?$ScriptRegistrant@VJMG_CMTB_Main_Game_Control@@@@6B@ ; ScriptRegistrant<JMG_CMTB_Main_Game_Control>::`vftable'
PUBLIC	?JMG_CMTB_Main_Game_Control_Registrant@@3V?$ScriptRegistrant@VJMG_CMTB_Main_Game_Control@@@@A ; JMG_CMTB_Main_Game_Control_Registrant
PUBLIC	??_C@_0BL@JFPJNFJB@JMG_CMTB_Main_Game_Control?$AA@ ; `string'
PUBLIC	??_7?$ScriptRegistrant@VJMG_CMTB_Ship_Control_Script@@@@6B@ ; ScriptRegistrant<JMG_CMTB_Ship_Control_Script>::`vftable'
PUBLIC	?JMG_CMTB_Ship_Control_Script_Registrant@@3V?$ScriptRegistrant@VJMG_CMTB_Ship_Control_Script@@@@A ; JMG_CMTB_Ship_Control_Script_Registrant
PUBLIC	??_C@_0BN@JOGEAGBE@JMG_CMTB_Ship_Control_Script?$AA@ ; `string'
PUBLIC	??_7?$ScriptRegistrant@VJMG_CMTB_UFO_Random_Fire_Control@@@@6B@ ; ScriptRegistrant<JMG_CMTB_UFO_Random_Fire_Control>::`vftable'
PUBLIC	?JMG_CMTB_UFO_Random_Fire_Control_Registrant@@3V?$ScriptRegistrant@VJMG_CMTB_UFO_Random_Fire_Control@@@@A ; JMG_CMTB_UFO_Random_Fire_Control_Registrant
PUBLIC	??_C@_0M@HMICPFDE@UFOBoss?3int?$AA@		; `string'
PUBLIC	??_7?$ScriptRegistrant@VJMG_CMTB_Comet_Script@@@@6B@ ; ScriptRegistrant<JMG_CMTB_Comet_Script>::`vftable'
PUBLIC	?JMG_CMTB_Comet_Script_Registrant@@3V?$ScriptRegistrant@VJMG_CMTB_Comet_Script@@@@A ; JMG_CMTB_Comet_Script_Registrant
PUBLIC	??_C@_0CO@KAJJGBAB@Size?$DN2?3int?0TargetPosition?$DN0?40?50?4@ ; `string'
PUBLIC	??_7?$ScriptRegistrant@VJMG_CMTB_Zone_Realign_Enter@@@@6B@ ; ScriptRegistrant<JMG_CMTB_Zone_Realign_Enter>::`vftable'
PUBLIC	?JMG_CMTB_Zone_Realign_Enter_Registrant@@3V?$ScriptRegistrant@VJMG_CMTB_Zone_Realign_Enter@@@@A ; JMG_CMTB_Zone_Realign_Enter_Registrant
PUBLIC	??_C@_0BN@HBBNOJNA@Position?$DN0?40?50?40?50?40?3Vector3?$AA@ ; `string'
PUBLIC	??_C@_0BM@GGNCDFOM@JMG_CMTB_Zone_Realign_Enter?$AA@ ; `string'
PUBLIC	??_7?$ScriptRegistrant@VJMG_CMTB_Spectator_Object@@@@6B@ ; ScriptRegistrant<JMG_CMTB_Spectator_Object>::`vftable'
PUBLIC	?JMG_CMTB_Spectator_Object_Registrant@@3V?$ScriptRegistrant@VJMG_CMTB_Spectator_Object@@@@A ; JMG_CMTB_Spectator_Object_Registrant
PUBLIC	??_C@_0BM@IOJIEINM@ControllerID?3int?0Number?3int?$AA@ ; `string'
PUBLIC	??_7?$ScriptRegistrant@VJMG_CMTB_Arcade_Machine@@@@6B@ ; ScriptRegistrant<JMG_CMTB_Arcade_Machine>::`vftable'
PUBLIC	?JMG_CMTB_Arcade_Machine_Registrant@@3V?$ScriptRegistrant@VJMG_CMTB_Arcade_Machine@@@@A ; JMG_CMTB_Arcade_Machine_Registrant
PUBLIC	??_C@_0CH@EOABBIBL@ControllerID?$DN0?3int?0MachineNumber@ ; `string'
PUBLIC	??_C@_0BI@KFEDCGBB@JMG_CMTB_Arcade_Machine?$AA@	; `string'
PUBLIC	??_7?$ScriptRegistrant@VJMG_CMTB_Fake_Player_Attach_Script@@@@6B@ ; ScriptRegistrant<JMG_CMTB_Fake_Player_Attach_Script>::`vftable'
PUBLIC	?JMG_CMTB_Fake_Player_Attach_Script_Registrant@@3V?$ScriptRegistrant@VJMG_CMTB_Fake_Player_Attach_Script@@@@A ; JMG_CMTB_Fake_Player_Attach_Script_Registrant
PUBLIC	??_C@_0BL@BBONPPAA@MySoldierID?3int?0Number?3int?$AA@ ; `string'
PUBLIC	??_7?$ScriptRegistrant@VJMG_CMTB_Renegade_Code@@@@6B@ ; ScriptRegistrant<JMG_CMTB_Renegade_Code>::`vftable'
PUBLIC	?JMG_CMTB_Renegade_Code_Registrant@@3V?$ScriptRegistrant@VJMG_CMTB_Renegade_Code@@@@A ; JMG_CMTB_Renegade_Code_Registrant
PUBLIC	??_7?$ScriptRegistrant@VJMG_CMTB_Motion_Mine@@@@6B@ ; ScriptRegistrant<JMG_CMTB_Motion_Mine>::`vftable'
PUBLIC	?JMG_CMTB_Motion_Mine_Registrant@@3V?$ScriptRegistrant@VJMG_CMTB_Motion_Mine@@@@A ; JMG_CMTB_Motion_Mine_Registrant
PUBLIC	??_C@_0M@DKGEGNAD@Is_BOSS?3int?$AA@		; `string'
PUBLIC	??_7?$ScriptRegistrant@VJMG_CMTB_The_Moon_Script@@@@6B@ ; ScriptRegistrant<JMG_CMTB_The_Moon_Script>::`vftable'
PUBLIC	?JMG_CMTB_The_Moon_Script_Registrant@@3V?$ScriptRegistrant@VJMG_CMTB_The_Moon_Script@@@@A ; JMG_CMTB_The_Moon_Script_Registrant
PUBLIC	??_C@_0BJ@ONFJBKAC@JMG_CMTB_The_Moon_Script?$AA@ ; `string'
PUBLIC	??_7?$ScriptRegistrant@VJMG_CMTB_Ship_Super_Weapon@@@@6B@ ; ScriptRegistrant<JMG_CMTB_Ship_Super_Weapon>::`vftable'
PUBLIC	?JMG_CMTB_Ship_Super_Weapon_Registrant@@3V?$ScriptRegistrant@VJMG_CMTB_Ship_Super_Weapon@@@@A ; JMG_CMTB_Ship_Super_Weapon_Registrant
PUBLIC	??_C@_0BF@LMMAOJPK@ControllerShipID?3int?$AA@	; `string'
PUBLIC	??_7?$ScriptRegistrant@VJMG_CMTB_Powerup_Script@@@@6B@ ; ScriptRegistrant<JMG_CMTB_Powerup_Script>::`vftable'
PUBLIC	?JMG_CMTB_Powerup_Script_Registrant@@3V?$ScriptRegistrant@VJMG_CMTB_Powerup_Script@@@@A ; JMG_CMTB_Powerup_Script_Registrant
PUBLIC	??_C@_0BI@LCBNHEBB@Custom?3int?0LifeTime?3int?$AA@ ; `string'
PUBLIC	??_7?$ScriptRegistrant@VJMG_CMTB_Cargo_Ship_Script@@@@6B@ ; ScriptRegistrant<JMG_CMTB_Cargo_Ship_Script>::`vftable'
PUBLIC	?JMG_CMTB_Cargo_Ship_Script_Registrant@@3V?$ScriptRegistrant@VJMG_CMTB_Cargo_Ship_Script@@@@A ; JMG_CMTB_Cargo_Ship_Script_Registrant
PUBLIC	??_C@_0BB@BGEIDIFC@PlayerNumber?3int?$AA@	; `string'
PUBLIC	??_7?$ScriptRegistrant@VJMG_CMTB_Cargo_Ship_Turret@@@@6B@ ; ScriptRegistrant<JMG_CMTB_Cargo_Ship_Turret>::`vftable'
PUBLIC	?JMG_CMTB_Cargo_Ship_Turret_Registrant@@3V?$ScriptRegistrant@VJMG_CMTB_Cargo_Ship_Turret@@@@A ; JMG_CMTB_Cargo_Ship_Turret_Registrant
PUBLIC	??_7?$ScriptRegistrant@VJMG_CMTB_Player_Drone@@@@6B@ ; ScriptRegistrant<JMG_CMTB_Player_Drone>::`vftable'
PUBLIC	?JMG_CMTB_Player_Drone_Registrant@@3V?$ScriptRegistrant@VJMG_CMTB_Player_Drone@@@@A ; JMG_CMTB_Player_Drone_Registrant
PUBLIC	??_C@_0DL@HMJKEEFC@PlayerNumber?3int?0Power?3int?0RePos@ ; `string'
PUBLIC	??_7?$ScriptRegistrant@VJMG_CMTB_Vehicle_Face_Turret@@@@6B@ ; ScriptRegistrant<JMG_CMTB_Vehicle_Face_Turret>::`vftable'
PUBLIC	?JMG_CMTB_Vehicle_Face_Turret_Registrant@@3V?$ScriptRegistrant@VJMG_CMTB_Vehicle_Face_Turret@@@@A ; JMG_CMTB_Vehicle_Face_Turret_Registrant
PUBLIC	??_7?$ScriptRegistrant@VJMG_CMTB_Poke_End_Map@@@@6B@ ; ScriptRegistrant<JMG_CMTB_Poke_End_Map>::`vftable'
PUBLIC	?JMG_CMTB_Poke_End_Map_Registrant@@3V?$ScriptRegistrant@VJMG_CMTB_Poke_End_Map@@@@A ; JMG_CMTB_Poke_End_Map_Registrant
PUBLIC	??_C@_0BG@KJLBHOJC@JMG_CMTB_Poke_End_Map?$AA@	; `string'
PUBLIC	??_7?$ScriptRegistrant@VJMG_CMTB_Poke_Change_Difficulty@@@@6B@ ; ScriptRegistrant<JMG_CMTB_Poke_Change_Difficulty>::`vftable'
PUBLIC	?JMG_CMTB_Poke_Change_Difficulty_Registrant@@3V?$ScriptRegistrant@VJMG_CMTB_Poke_Change_Difficulty@@@@A ; JMG_CMTB_Poke_Change_Difficulty_Registrant
PUBLIC	??_C@_0CA@CJEFGFNJ@JMG_CMTB_Poke_Change_Difficulty?$AA@ ; `string'
PUBLIC	??_C@_0EJ@ENMBJFB@SList?$DMstruct?5MultiKeyHookScriptI@ ; `string'
PUBLIC	??_C@_0DB@DFBFLIIO@x?3?2github?2renegade?2dragonade_rxd@ ; `string'
PUBLIC	??_C@_1GC@LJHGOLFN@?$AAx?$AA?3?$AA?2?$AAg?$AAi?$AAt?$AAh?$AAu?$AAb?$AA?2?$AAr?$AAe?$AAn?$AAe?$AAg?$AAa?$AAd?$AAe?$AA?2?$AAd?$AAr?$AAa?$AAg?$AAo?$AAn?$AAa?$AAd?$AAe?$AA_?$AAr?$AAx?$AAd@ ; `string'
PUBLIC	??_C@_0EJ@OIGECPDF@SList?$DMstruct?5MultiKeyHookScriptI@ ; `string'
PUBLIC	??_C@_0EM@PPENJFKC@SList?$DMstruct?5MultiKeyHookScriptI@ ; `string'
PUBLIC	??_C@_0EH@CGJBMJBC@SList?$DMstruct?5MultiKeyHookScriptI@ ; `string'
PUBLIC	??_C@_0EL@MPFHHNNA@SList?$DMstruct?5MultiKeyHookScriptI@ ; `string'
PUBLIC	??_C@_0EO@OJGPEJGC@SList?$DMstruct?5MultiKeyHookScriptI@ ; `string'
PUBLIC	??_C@_0EN@HIHNAGN@SList?$DMstruct?5MultiKeyHookScriptI@ ; `string'
PUBLIC	??_C@_0DI@KILFNNFD@ScriptRegistrant?$DMclass?5JMG_Creat@ ; `string'
PUBLIC	??_C@_0DD@KMKBFFOF@x?3?2github?2renegade?2dragonade_rxd@ ; `string'
PUBLIC	??_C@_1GG@OGNLNBPD@?$AAx?$AA?3?$AA?2?$AAg?$AAi?$AAt?$AAh?$AAu?$AAb?$AA?2?$AAr?$AAe?$AAn?$AAe?$AAg?$AAa?$AAd?$AAe?$AA?2?$AAd?$AAr?$AAa?$AAg?$AAo?$AAn?$AAa?$AAd?$AAe?$AA_?$AAr?$AAx?$AAd@ ; `string'
PUBLIC	??_C@_0DJ@LJGDPKPO@ScriptRegistrant?$DMclass?5JMG_Advan@ ; `string'
PUBLIC	??_C@_0DL@BFEIIILC@ScriptRegistrant?$DMclass?5JMG_Ship_@ ; `string'
PUBLIC	??_C@_0DB@PKHMAGHK@ScriptRegistrant?$DMclass?5JMG_Rando@ ; `string'
PUBLIC	??_C@_0DA@LIJAAGCL@ScriptRegistrant?$DMclass?5JMG_Ship_@ ; `string'
PUBLIC	??_C@_0DM@CDLJMKLF@ScriptRegistrant?$DMclass?5JMG_Retur@ ; `string'
PUBLIC	??_C@_0CO@HIPPMCNE@ScriptRegistrant?$DMclass?5JMG_Croni@ ; `string'
PUBLIC	??_C@_0ED@HICJEPCL@ScriptRegistrant?$DMclass?5JMG_Kill_@ ; `string'
PUBLIC	??_C@_0DP@IAJCIEIN@ScriptRegistrant?$DMclass?5JMG_Ship_@ ; `string'
PUBLIC	??_C@_0EI@EBLHNLHN@ScriptRegistrant?$DMclass?5JMG_Kill_@ ; `string'
PUBLIC	??_C@_0DH@ODAKIONA@ScriptRegistrant?$DMclass?5JMG_Ship_@ ; `string'
PUBLIC	??_C@_0DI@HBFECPDE@ScriptRegistrant?$DMclass?5JMG_Renet@ ; `string'
PUBLIC	??_C@_0ED@IMLNHFFC@ScriptRegistrant?$DMclass?5JMG_New_S@ ; `string'
PUBLIC	??_C@_0DJ@CAONIPOF@ScriptRegistrant?$DMclass?5JMG_Comet@ ; `string'
PUBLIC	??_C@_0DG@HPBHHPOO@ScriptRegistrant?$DMclass?5JMG_Attac@ ; `string'
PUBLIC	??_C@_0DJ@OKNJMGOP@ScriptRegistrant?$DMclass?5JMG_User_@ ; `string'
PUBLIC	??_C@_0DK@KOJCCMGL@ScriptRegistrant?$DMclass?5JMG_Apply@ ; `string'
PUBLIC	??_C@_0DL@IJKKMJIJ@ScriptRegistrant?$DMclass?5JMG_CMTB_@ ; `string'
PUBLIC	??_C@_0DN@LDEKIAPI@ScriptRegistrant?$DMclass?5JMG_CMTB_@ ; `string'
PUBLIC	??_C@_0EB@OOLBNELF@ScriptRegistrant?$DMclass?5JMG_CMTB_@ ; `string'
PUBLIC	??_C@_0DG@CFCKHAMN@ScriptRegistrant?$DMclass?5JMG_CMTB_@ ; `string'
PUBLIC	??_C@_0DM@NBIHAAN@ScriptRegistrant?$DMclass?5JMG_CMTB_@ ; `string'
PUBLIC	??_C@_0DK@DDIMDDKK@ScriptRegistrant?$DMclass?5JMG_CMTB_@ ; `string'
PUBLIC	??_C@_0DI@KJJPOPHL@ScriptRegistrant?$DMclass?5JMG_CMTB_@ ; `string'
PUBLIC	??_C@_0ED@PHCMDPKL@ScriptRegistrant?$DMclass?5JMG_CMTB_@ ; `string'
PUBLIC	??_C@_0DH@JBKDKLMC@ScriptRegistrant?$DMclass?5JMG_CMTB_@ ; `string'
PUBLIC	??_C@_0DF@EKCPHHAF@ScriptRegistrant?$DMclass?5JMG_CMTB_@ ; `string'
PUBLIC	??_C@_0DJ@NEGEDPOI@ScriptRegistrant?$DMclass?5JMG_CMTB_@ ; `string'
PUBLIC	??_C@_0DL@FGMMLFNJ@ScriptRegistrant?$DMclass?5JMG_CMTB_@ ; `string'
PUBLIC	??_C@_0DI@HNAFBNDA@ScriptRegistrant?$DMclass?5JMG_CMTB_@ ; `string'
PUBLIC	??_C@_0DL@EHNBAFOM@ScriptRegistrant?$DMclass?5JMG_CMTB_@ ; `string'
PUBLIC	??_C@_0DL@BLMFDFLB@ScriptRegistrant?$DMclass?5JMG_CMTB_@ ; `string'
PUBLIC	??_C@_0DG@INLIGAMA@ScriptRegistrant?$DMclass?5JMG_CMTB_@ ; `string'
PUBLIC	??_C@_0DN@DBHOJACP@ScriptRegistrant?$DMclass?5JMG_CMTB_@ ; `string'
PUBLIC	??_C@_0DG@PJAEHEDC@ScriptRegistrant?$DMclass?5JMG_CMTB_@ ; `string'
PUBLIC	??_C@_0EA@FILOACHK@ScriptRegistrant?$DMclass?5JMG_CMTB_@ ; `string'
PUBLIC	?instancex@?1??getInstance@?$Singleton@V?$ObjectPoolClass@VGenericSLNode@@$0BAA@@@@@SAAAV?$ObjectPoolClass@VGenericSLNode@@$0BAA@@@XZ@4V3@A ; `Singleton<ObjectPoolClass<GenericSLNode,256> >::getInstance'::`2'::instancex
PUBLIC	??_B?1??getInstance@?$Singleton@V?$ObjectPoolClass@VGenericSLNode@@$0BAA@@@@@SAAAV?$ObjectPoolClass@VGenericSLNode@@$0BAA@@@XZ@51 ; `Singleton<ObjectPoolClass<GenericSLNode,256> >::getInstance'::`2'::`local static guard'
PUBLIC	??_C@_0EB@IOGKEECK@ObjectPoolClass?$DMclass?5GenericSLN@ ; `string'
PUBLIC	??_C@_0FF@NOANHENP@?$CFd?5memory?5leaks?5found?5in?5ObjectP@ ; `string'
PUBLIC	??_C@_0DL@BOENBDGI@ObjectPoolClass?$DMclass?5GenericSLN@ ; `string'
PUBLIC	??_R4ScriptFactory@@6B@				; ScriptFactory::`RTTI Complete Object Locator'
PUBLIC	??_R0?AVScriptFactory@@@8			; ScriptFactory `RTTI Type Descriptor'
PUBLIC	??_R3ScriptFactory@@8				; ScriptFactory::`RTTI Class Hierarchy Descriptor'
PUBLIC	??_R2ScriptFactory@@8				; ScriptFactory::`RTTI Base Class Array'
PUBLIC	??_R1A@?0A@EA@ScriptFactory@@8			; ScriptFactory::`RTTI Base Class Descriptor at (0,-1,0,64)'
PUBLIC	??_R4ScriptClass@@6B@				; ScriptClass::`RTTI Complete Object Locator'
PUBLIC	??_R0?AVScriptClass@@@8				; ScriptClass `RTTI Type Descriptor'
PUBLIC	??_R3ScriptClass@@8				; ScriptClass::`RTTI Class Hierarchy Descriptor'
PUBLIC	??_R2ScriptClass@@8				; ScriptClass::`RTTI Base Class Array'
PUBLIC	??_R1A@?0A@EA@ScriptClass@@8			; ScriptClass::`RTTI Base Class Descriptor at (0,-1,0,64)'
PUBLIC	??_R1A@?0A@EA@GameObjObserverClass@@8		; GameObjObserverClass::`RTTI Base Class Descriptor at (0,-1,0,64)'
PUBLIC	??_R0?AVGameObjObserverClass@@@8		; GameObjObserverClass `RTTI Type Descriptor'
PUBLIC	??_R3GameObjObserverClass@@8			; GameObjObserverClass::`RTTI Class Hierarchy Descriptor'
PUBLIC	??_R2GameObjObserverClass@@8			; GameObjObserverClass::`RTTI Base Class Array'
PUBLIC	??_R4GameObjObserverClass@@6B@			; GameObjObserverClass::`RTTI Complete Object Locator'
PUBLIC	??_R4ScriptImpClass@@6B@			; ScriptImpClass::`RTTI Complete Object Locator'
PUBLIC	??_R0?AVScriptImpClass@@@8			; ScriptImpClass `RTTI Type Descriptor'
PUBLIC	??_R3ScriptImpClass@@8				; ScriptImpClass::`RTTI Class Hierarchy Descriptor'
PUBLIC	??_R2ScriptImpClass@@8				; ScriptImpClass::`RTTI Base Class Array'
PUBLIC	??_R1A@?0A@EA@ScriptImpClass@@8			; ScriptImpClass::`RTTI Base Class Descriptor at (0,-1,0,64)'
PUBLIC	??_R4ThreadClass@@6B@				; ThreadClass::`RTTI Complete Object Locator'
PUBLIC	??_R0?AVThreadClass@@@8				; ThreadClass `RTTI Type Descriptor'
PUBLIC	??_R3ThreadClass@@8				; ThreadClass::`RTTI Class Hierarchy Descriptor'
PUBLIC	??_R2ThreadClass@@8				; ThreadClass::`RTTI Base Class Array'
PUBLIC	??_R1A@?0A@EA@ThreadClass@@8			; ThreadClass::`RTTI Base Class Descriptor at (0,-1,0,64)'
PUBLIC	??_R4INIClass@@6B@				; INIClass::`RTTI Complete Object Locator'
PUBLIC	??_R0?AVINIClass@@@8				; INIClass `RTTI Type Descriptor'
PUBLIC	??_R3INIClass@@8				; INIClass::`RTTI Class Hierarchy Descriptor'
PUBLIC	??_R2INIClass@@8				; INIClass::`RTTI Base Class Array'
PUBLIC	??_R1A@?0A@EA@INIClass@@8			; INIClass::`RTTI Base Class Descriptor at (0,-1,0,64)'
PUBLIC	??_R1A@?0A@EA@PostLoadableClass@@8		; PostLoadableClass::`RTTI Base Class Descriptor at (0,-1,0,64)'
PUBLIC	??_R0?AVPostLoadableClass@@@8			; PostLoadableClass `RTTI Type Descriptor'
PUBLIC	??_R3PostLoadableClass@@8			; PostLoadableClass::`RTTI Class Hierarchy Descriptor'
PUBLIC	??_R2PostLoadableClass@@8			; PostLoadableClass::`RTTI Base Class Array'
PUBLIC	??_R4PostLoadableClass@@6B@			; PostLoadableClass::`RTTI Complete Object Locator'
PUBLIC	??_R4ReferencerClass@@6B@			; ReferencerClass::`RTTI Complete Object Locator'
PUBLIC	??_R0?AVReferencerClass@@@8			; ReferencerClass `RTTI Type Descriptor'
PUBLIC	??_R3ReferencerClass@@8				; ReferencerClass::`RTTI Class Hierarchy Descriptor'
PUBLIC	??_R2ReferencerClass@@8				; ReferencerClass::`RTTI Base Class Array'
PUBLIC	??_R1A@?0A@EA@ReferencerClass@@8		; ReferencerClass::`RTTI Base Class Descriptor at (0,-1,0,64)'
PUBLIC	??_R4JFW_Key_Hook_Base@@6B@			; JFW_Key_Hook_Base::`RTTI Complete Object Locator'
PUBLIC	??_R0?AVJFW_Key_Hook_Base@@@8			; JFW_Key_Hook_Base `RTTI Type Descriptor'
PUBLIC	??_R3JFW_Key_Hook_Base@@8			; JFW_Key_Hook_Base::`RTTI Class Hierarchy Descriptor'
PUBLIC	??_R2JFW_Key_Hook_Base@@8			; JFW_Key_Hook_Base::`RTTI Base Class Array'
PUBLIC	??_R1A@?0A@EA@JFW_Key_Hook_Base@@8		; JFW_Key_Hook_Base::`RTTI Base Class Descriptor at (0,-1,0,64)'
PUBLIC	??_R4MultiKeyHookScriptImpClass@@6B@		; MultiKeyHookScriptImpClass::`RTTI Complete Object Locator'
PUBLIC	??_R0?AVMultiKeyHookScriptImpClass@@@8		; MultiKeyHookScriptImpClass `RTTI Type Descriptor'
PUBLIC	??_R3MultiKeyHookScriptImpClass@@8		; MultiKeyHookScriptImpClass::`RTTI Class Hierarchy Descriptor'
PUBLIC	??_R2MultiKeyHookScriptImpClass@@8		; MultiKeyHookScriptImpClass::`RTTI Base Class Array'
PUBLIC	??_R1A@?0A@EA@MultiKeyHookScriptImpClass@@8	; MultiKeyHookScriptImpClass::`RTTI Base Class Descriptor at (0,-1,0,64)'
PUBLIC	??_R4?$SList@UKeyHookWrapperStruct@MultiKeyHookScriptImpClass@@@@6B@ ; SList<MultiKeyHookScriptImpClass::KeyHookWrapperStruct>::`RTTI Complete Object Locator'
PUBLIC	??_R0?AV?$SList@UKeyHookWrapperStruct@MultiKeyHookScriptImpClass@@@@@8 ; SList<MultiKeyHookScriptImpClass::KeyHookWrapperStruct> `RTTI Type Descriptor'
PUBLIC	??_R3?$SList@UKeyHookWrapperStruct@MultiKeyHookScriptImpClass@@@@8 ; SList<MultiKeyHookScriptImpClass::KeyHookWrapperStruct>::`RTTI Class Hierarchy Descriptor'
PUBLIC	??_R2?$SList@UKeyHookWrapperStruct@MultiKeyHookScriptImpClass@@@@8 ; SList<MultiKeyHookScriptImpClass::KeyHookWrapperStruct>::`RTTI Base Class Array'
PUBLIC	??_R1A@?0A@EA@?$SList@UKeyHookWrapperStruct@MultiKeyHookScriptImpClass@@@@8 ; SList<MultiKeyHookScriptImpClass::KeyHookWrapperStruct>::`RTTI Base Class Descriptor at (0,-1,0,64)'
PUBLIC	??_R4JFW_Object_Created_Hook_Base@@6B@		; JFW_Object_Created_Hook_Base::`RTTI Complete Object Locator'
PUBLIC	??_R0?AVJFW_Object_Created_Hook_Base@@@8	; JFW_Object_Created_Hook_Base `RTTI Type Descriptor'
PUBLIC	??_R3JFW_Object_Created_Hook_Base@@8		; JFW_Object_Created_Hook_Base::`RTTI Class Hierarchy Descriptor'
PUBLIC	??_R2JFW_Object_Created_Hook_Base@@8		; JFW_Object_Created_Hook_Base::`RTTI Base Class Array'
PUBLIC	??_R1A@?0A@EA@JFW_Object_Created_Hook_Base@@8	; JFW_Object_Created_Hook_Base::`RTTI Base Class Descriptor at (0,-1,0,64)'
PUBLIC	??_R4JMG_CMTB_Main_Game_Control@@6B@		; JMG_CMTB_Main_Game_Control::`RTTI Complete Object Locator'
PUBLIC	??_R0?AVJMG_CMTB_Main_Game_Control@@@8		; JMG_CMTB_Main_Game_Control `RTTI Type Descriptor'
PUBLIC	??_R3JMG_CMTB_Main_Game_Control@@8		; JMG_CMTB_Main_Game_Control::`RTTI Class Hierarchy Descriptor'
PUBLIC	??_R2JMG_CMTB_Main_Game_Control@@8		; JMG_CMTB_Main_Game_Control::`RTTI Base Class Array'
PUBLIC	??_R1A@?0A@EA@JMG_CMTB_Main_Game_Control@@8	; JMG_CMTB_Main_Game_Control::`RTTI Base Class Descriptor at (0,-1,0,64)'
PUBLIC	??_R4JMG_CMTB_UFO_Random_Fire_Control@@6B@	; JMG_CMTB_UFO_Random_Fire_Control::`RTTI Complete Object Locator'
PUBLIC	??_R0?AVJMG_CMTB_UFO_Random_Fire_Control@@@8	; JMG_CMTB_UFO_Random_Fire_Control `RTTI Type Descriptor'
PUBLIC	??_R3JMG_CMTB_UFO_Random_Fire_Control@@8	; JMG_CMTB_UFO_Random_Fire_Control::`RTTI Class Hierarchy Descriptor'
PUBLIC	??_R2JMG_CMTB_UFO_Random_Fire_Control@@8	; JMG_CMTB_UFO_Random_Fire_Control::`RTTI Base Class Array'
PUBLIC	??_R1A@?0A@EA@JMG_CMTB_UFO_Random_Fire_Control@@8 ; JMG_CMTB_UFO_Random_Fire_Control::`RTTI Base Class Descriptor at (0,-1,0,64)'
PUBLIC	??_R4JMG_CMTB_Ship_Control_Script@@6B@		; JMG_CMTB_Ship_Control_Script::`RTTI Complete Object Locator'
PUBLIC	??_R0?AVJMG_CMTB_Ship_Control_Script@@@8	; JMG_CMTB_Ship_Control_Script `RTTI Type Descriptor'
PUBLIC	??_R3JMG_CMTB_Ship_Control_Script@@8		; JMG_CMTB_Ship_Control_Script::`RTTI Class Hierarchy Descriptor'
PUBLIC	??_R2JMG_CMTB_Ship_Control_Script@@8		; JMG_CMTB_Ship_Control_Script::`RTTI Base Class Array'
PUBLIC	??_R1A@?0A@EA@JMG_CMTB_Ship_Control_Script@@8	; JMG_CMTB_Ship_Control_Script::`RTTI Base Class Descriptor at (0,-1,0,64)'
PUBLIC	??_R4JMG_CMTB_Comet_Script@@6B@			; JMG_CMTB_Comet_Script::`RTTI Complete Object Locator'
PUBLIC	??_R0?AVJMG_CMTB_Comet_Script@@@8		; JMG_CMTB_Comet_Script `RTTI Type Descriptor'
PUBLIC	??_R3JMG_CMTB_Comet_Script@@8			; JMG_CMTB_Comet_Script::`RTTI Class Hierarchy Descriptor'
PUBLIC	??_R2JMG_CMTB_Comet_Script@@8			; JMG_CMTB_Comet_Script::`RTTI Base Class Array'
PUBLIC	??_R1A@?0A@EA@JMG_CMTB_Comet_Script@@8		; JMG_CMTB_Comet_Script::`RTTI Base Class Descriptor at (0,-1,0,64)'
PUBLIC	??_R4JMG_CMTB_Zone_Realign_Enter@@6B@		; JMG_CMTB_Zone_Realign_Enter::`RTTI Complete Object Locator'
PUBLIC	??_R0?AVJMG_CMTB_Zone_Realign_Enter@@@8		; JMG_CMTB_Zone_Realign_Enter `RTTI Type Descriptor'
PUBLIC	??_R3JMG_CMTB_Zone_Realign_Enter@@8		; JMG_CMTB_Zone_Realign_Enter::`RTTI Class Hierarchy Descriptor'
PUBLIC	??_R2JMG_CMTB_Zone_Realign_Enter@@8		; JMG_CMTB_Zone_Realign_Enter::`RTTI Base Class Array'
PUBLIC	??_R1A@?0A@EA@JMG_CMTB_Zone_Realign_Enter@@8	; JMG_CMTB_Zone_Realign_Enter::`RTTI Base Class Descriptor at (0,-1,0,64)'
PUBLIC	??_R4JMG_CMTB_Spectator_Object@@6B@		; JMG_CMTB_Spectator_Object::`RTTI Complete Object Locator'
PUBLIC	??_R0?AVJMG_CMTB_Spectator_Object@@@8		; JMG_CMTB_Spectator_Object `RTTI Type Descriptor'
PUBLIC	??_R3JMG_CMTB_Spectator_Object@@8		; JMG_CMTB_Spectator_Object::`RTTI Class Hierarchy Descriptor'
PUBLIC	??_R2JMG_CMTB_Spectator_Object@@8		; JMG_CMTB_Spectator_Object::`RTTI Base Class Array'
PUBLIC	??_R1A@?0A@EA@JMG_CMTB_Spectator_Object@@8	; JMG_CMTB_Spectator_Object::`RTTI Base Class Descriptor at (0,-1,0,64)'
PUBLIC	??_R4JMG_CMTB_Arcade_Machine@@6B@		; JMG_CMTB_Arcade_Machine::`RTTI Complete Object Locator'
PUBLIC	??_R0?AVJMG_CMTB_Arcade_Machine@@@8		; JMG_CMTB_Arcade_Machine `RTTI Type Descriptor'
PUBLIC	??_R3JMG_CMTB_Arcade_Machine@@8			; JMG_CMTB_Arcade_Machine::`RTTI Class Hierarchy Descriptor'
PUBLIC	??_R2JMG_CMTB_Arcade_Machine@@8			; JMG_CMTB_Arcade_Machine::`RTTI Base Class Array'
PUBLIC	??_R1A@?0A@EA@JMG_CMTB_Arcade_Machine@@8	; JMG_CMTB_Arcade_Machine::`RTTI Base Class Descriptor at (0,-1,0,64)'
PUBLIC	??_R4JMG_CMTB_Fake_Player_Attach_Script@@6B@	; JMG_CMTB_Fake_Player_Attach_Script::`RTTI Complete Object Locator'
PUBLIC	??_R0?AVJMG_CMTB_Fake_Player_Attach_Script@@@8	; JMG_CMTB_Fake_Player_Attach_Script `RTTI Type Descriptor'
PUBLIC	??_R3JMG_CMTB_Fake_Player_Attach_Script@@8	; JMG_CMTB_Fake_Player_Attach_Script::`RTTI Class Hierarchy Descriptor'
PUBLIC	??_R2JMG_CMTB_Fake_Player_Attach_Script@@8	; JMG_CMTB_Fake_Player_Attach_Script::`RTTI Base Class Array'
PUBLIC	??_R1A@?0A@EA@JMG_CMTB_Fake_Player_Attach_Script@@8 ; JMG_CMTB_Fake_Player_Attach_Script::`RTTI Base Class Descriptor at (0,-1,0,64)'
PUBLIC	??_R4JMG_CMTB_Renegade_Code@@6B@		; JMG_CMTB_Renegade_Code::`RTTI Complete Object Locator'
PUBLIC	??_R0?AVJMG_CMTB_Renegade_Code@@@8		; JMG_CMTB_Renegade_Code `RTTI Type Descriptor'
PUBLIC	??_R3JMG_CMTB_Renegade_Code@@8			; JMG_CMTB_Renegade_Code::`RTTI Class Hierarchy Descriptor'
PUBLIC	??_R2JMG_CMTB_Renegade_Code@@8			; JMG_CMTB_Renegade_Code::`RTTI Base Class Array'
PUBLIC	??_R1A@?0A@EA@JMG_CMTB_Renegade_Code@@8		; JMG_CMTB_Renegade_Code::`RTTI Base Class Descriptor at (0,-1,0,64)'
PUBLIC	??_R4JMG_CMTB_Motion_Mine@@6B@			; JMG_CMTB_Motion_Mine::`RTTI Complete Object Locator'
PUBLIC	??_R0?AVJMG_CMTB_Motion_Mine@@@8		; JMG_CMTB_Motion_Mine `RTTI Type Descriptor'
PUBLIC	??_R3JMG_CMTB_Motion_Mine@@8			; JMG_CMTB_Motion_Mine::`RTTI Class Hierarchy Descriptor'
PUBLIC	??_R2JMG_CMTB_Motion_Mine@@8			; JMG_CMTB_Motion_Mine::`RTTI Base Class Array'
PUBLIC	??_R1A@?0A@EA@JMG_CMTB_Motion_Mine@@8		; JMG_CMTB_Motion_Mine::`RTTI Base Class Descriptor at (0,-1,0,64)'
PUBLIC	??_R4JMG_CMTB_The_Moon_Script@@6B@		; JMG_CMTB_The_Moon_Script::`RTTI Complete Object Locator'
PUBLIC	??_R0?AVJMG_CMTB_The_Moon_Script@@@8		; JMG_CMTB_The_Moon_Script `RTTI Type Descriptor'
PUBLIC	??_R3JMG_CMTB_The_Moon_Script@@8		; JMG_CMTB_The_Moon_Script::`RTTI Class Hierarchy Descriptor'
PUBLIC	??_R2JMG_CMTB_The_Moon_Script@@8		; JMG_CMTB_The_Moon_Script::`RTTI Base Class Array'
PUBLIC	??_R1A@?0A@EA@JMG_CMTB_The_Moon_Script@@8	; JMG_CMTB_The_Moon_Script::`RTTI Base Class Descriptor at (0,-1,0,64)'
PUBLIC	??_R4JMG_CMTB_Ship_Super_Weapon@@6B@		; JMG_CMTB_Ship_Super_Weapon::`RTTI Complete Object Locator'
PUBLIC	??_R0?AVJMG_CMTB_Ship_Super_Weapon@@@8		; JMG_CMTB_Ship_Super_Weapon `RTTI Type Descriptor'
PUBLIC	??_R3JMG_CMTB_Ship_Super_Weapon@@8		; JMG_CMTB_Ship_Super_Weapon::`RTTI Class Hierarchy Descriptor'
PUBLIC	??_R2JMG_CMTB_Ship_Super_Weapon@@8		; JMG_CMTB_Ship_Super_Weapon::`RTTI Base Class Array'
PUBLIC	??_R1A@?0A@EA@JMG_CMTB_Ship_Super_Weapon@@8	; JMG_CMTB_Ship_Super_Weapon::`RTTI Base Class Descriptor at (0,-1,0,64)'
PUBLIC	??_R4JMG_CMTB_Powerup_Script@@6B@		; JMG_CMTB_Powerup_Script::`RTTI Complete Object Locator'
PUBLIC	??_R0?AVJMG_CMTB_Powerup_Script@@@8		; JMG_CMTB_Powerup_Script `RTTI Type Descriptor'
PUBLIC	??_R3JMG_CMTB_Powerup_Script@@8			; JMG_CMTB_Powerup_Script::`RTTI Class Hierarchy Descriptor'
PUBLIC	??_R2JMG_CMTB_Powerup_Script@@8			; JMG_CMTB_Powerup_Script::`RTTI Base Class Array'
PUBLIC	??_R1A@?0A@EA@JMG_CMTB_Powerup_Script@@8	; JMG_CMTB_Powerup_Script::`RTTI Base Class Descriptor at (0,-1,0,64)'
PUBLIC	??_R4JMG_CMTB_Cargo_Ship_Script@@6B@		; JMG_CMTB_Cargo_Ship_Script::`RTTI Complete Object Locator'
PUBLIC	??_R0?AVJMG_CMTB_Cargo_Ship_Script@@@8		; JMG_CMTB_Cargo_Ship_Script `RTTI Type Descriptor'
PUBLIC	??_R3JMG_CMTB_Cargo_Ship_Script@@8		; JMG_CMTB_Cargo_Ship_Script::`RTTI Class Hierarchy Descriptor'
PUBLIC	??_R2JMG_CMTB_Cargo_Ship_Script@@8		; JMG_CMTB_Cargo_Ship_Script::`RTTI Base Class Array'
PUBLIC	??_R1A@?0A@EA@JMG_CMTB_Cargo_Ship_Script@@8	; JMG_CMTB_Cargo_Ship_Script::`RTTI Base Class Descriptor at (0,-1,0,64)'
PUBLIC	??_R4JMG_CMTB_Cargo_Ship_Turret@@6B@		; JMG_CMTB_Cargo_Ship_Turret::`RTTI Complete Object Locator'
PUBLIC	??_R0?AVJMG_CMTB_Cargo_Ship_Turret@@@8		; JMG_CMTB_Cargo_Ship_Turret `RTTI Type Descriptor'
PUBLIC	??_R3JMG_CMTB_Cargo_Ship_Turret@@8		; JMG_CMTB_Cargo_Ship_Turret::`RTTI Class Hierarchy Descriptor'
PUBLIC	??_R2JMG_CMTB_Cargo_Ship_Turret@@8		; JMG_CMTB_Cargo_Ship_Turret::`RTTI Base Class Array'
PUBLIC	??_R1A@?0A@EA@JMG_CMTB_Cargo_Ship_Turret@@8	; JMG_CMTB_Cargo_Ship_Turret::`RTTI Base Class Descriptor at (0,-1,0,64)'
PUBLIC	??_R4JMG_CMTB_Player_Drone@@6B@			; JMG_CMTB_Player_Drone::`RTTI Complete Object Locator'
PUBLIC	??_R0?AVJMG_CMTB_Player_Drone@@@8		; JMG_CMTB_Player_Drone `RTTI Type Descriptor'
PUBLIC	??_R3JMG_CMTB_Player_Drone@@8			; JMG_CMTB_Player_Drone::`RTTI Class Hierarchy Descriptor'
PUBLIC	??_R2JMG_CMTB_Player_Drone@@8			; JMG_CMTB_Player_Drone::`RTTI Base Class Array'
PUBLIC	??_R1A@?0A@EA@JMG_CMTB_Player_Drone@@8		; JMG_CMTB_Player_Drone::`RTTI Base Class Descriptor at (0,-1,0,64)'
PUBLIC	??_R4JMG_Create_Ship_On_Poke@@6B@		; JMG_Create_Ship_On_Poke::`RTTI Complete Object Locator'
PUBLIC	??_R0?AVJMG_Create_Ship_On_Poke@@@8		; JMG_Create_Ship_On_Poke `RTTI Type Descriptor'
PUBLIC	??_R3JMG_Create_Ship_On_Poke@@8			; JMG_Create_Ship_On_Poke::`RTTI Class Hierarchy Descriptor'
PUBLIC	??_R2JMG_Create_Ship_On_Poke@@8			; JMG_Create_Ship_On_Poke::`RTTI Base Class Array'
PUBLIC	??_R1A@?0A@EA@JMG_Create_Ship_On_Poke@@8	; JMG_Create_Ship_On_Poke::`RTTI Base Class Descriptor at (0,-1,0,64)'
PUBLIC	??_R4JMG_Advanced_Bounce_Zone@@6B@		; JMG_Advanced_Bounce_Zone::`RTTI Complete Object Locator'
PUBLIC	??_R0?AVJMG_Advanced_Bounce_Zone@@@8		; JMG_Advanced_Bounce_Zone `RTTI Type Descriptor'
PUBLIC	??_R3JMG_Advanced_Bounce_Zone@@8		; JMG_Advanced_Bounce_Zone::`RTTI Class Hierarchy Descriptor'
PUBLIC	??_R2JMG_Advanced_Bounce_Zone@@8		; JMG_Advanced_Bounce_Zone::`RTTI Base Class Array'
PUBLIC	??_R1A@?0A@EA@JMG_Advanced_Bounce_Zone@@8	; JMG_Advanced_Bounce_Zone::`RTTI Base Class Descriptor at (0,-1,0,64)'
PUBLIC	??_R4JMG_Ship_Random_Hyperspace@@6B@		; JMG_Ship_Random_Hyperspace::`RTTI Complete Object Locator'
PUBLIC	??_R0?AVJMG_Ship_Random_Hyperspace@@@8		; JMG_Ship_Random_Hyperspace `RTTI Type Descriptor'
PUBLIC	??_R3JMG_Ship_Random_Hyperspace@@8		; JMG_Ship_Random_Hyperspace::`RTTI Class Hierarchy Descriptor'
PUBLIC	??_R2JMG_Ship_Random_Hyperspace@@8		; JMG_Ship_Random_Hyperspace::`RTTI Base Class Array'
PUBLIC	??_R1A@?0A@EA@JMG_Ship_Random_Hyperspace@@8	; JMG_Ship_Random_Hyperspace::`RTTI Base Class Descriptor at (0,-1,0,64)'
PUBLIC	??_R4JMG_Random_Music@@6B@			; JMG_Random_Music::`RTTI Complete Object Locator'
PUBLIC	??_R0?AVJMG_Random_Music@@@8			; JMG_Random_Music `RTTI Type Descriptor'
PUBLIC	??_R3JMG_Random_Music@@8			; JMG_Random_Music::`RTTI Class Hierarchy Descriptor'
PUBLIC	??_R2JMG_Random_Music@@8			; JMG_Random_Music::`RTTI Base Class Array'
PUBLIC	??_R1A@?0A@EA@JMG_Random_Music@@8		; JMG_Random_Music::`RTTI Base Class Descriptor at (0,-1,0,64)'
PUBLIC	??_R4JMG_Ship_Weapon@@6B@			; JMG_Ship_Weapon::`RTTI Complete Object Locator'
PUBLIC	??_R0?AVJMG_Ship_Weapon@@@8			; JMG_Ship_Weapon `RTTI Type Descriptor'
PUBLIC	??_R3JMG_Ship_Weapon@@8				; JMG_Ship_Weapon::`RTTI Class Hierarchy Descriptor'
PUBLIC	??_R2JMG_Ship_Weapon@@8				; JMG_Ship_Weapon::`RTTI Base Class Array'
PUBLIC	??_R1A@?0A@EA@JMG_Ship_Weapon@@8		; JMG_Ship_Weapon::`RTTI Base Class Descriptor at (0,-1,0,64)'
PUBLIC	??_R4JMG_Return_Custom_When_Shot@@6B@		; JMG_Return_Custom_When_Shot::`RTTI Complete Object Locator'
PUBLIC	??_R0?AVJMG_Return_Custom_When_Shot@@@8		; JMG_Return_Custom_When_Shot `RTTI Type Descriptor'
PUBLIC	??_R3JMG_Return_Custom_When_Shot@@8		; JMG_Return_Custom_When_Shot::`RTTI Class Hierarchy Descriptor'
PUBLIC	??_R2JMG_Return_Custom_When_Shot@@8		; JMG_Return_Custom_When_Shot::`RTTI Base Class Array'
PUBLIC	??_R1A@?0A@EA@JMG_Return_Custom_When_Shot@@8	; JMG_Return_Custom_When_Shot::`RTTI Base Class Descriptor at (0,-1,0,64)'
PUBLIC	??_R4JMG_Cronie_AI@@6B@				; JMG_Cronie_AI::`RTTI Complete Object Locator'
PUBLIC	??_R0?AVJMG_Cronie_AI@@@8			; JMG_Cronie_AI `RTTI Type Descriptor'
PUBLIC	??_R3JMG_Cronie_AI@@8				; JMG_Cronie_AI::`RTTI Class Hierarchy Descriptor'
PUBLIC	??_R2JMG_Cronie_AI@@8				; JMG_Cronie_AI::`RTTI Base Class Array'
PUBLIC	??_R1A@?0A@EA@JMG_Cronie_AI@@8			; JMG_Cronie_AI::`RTTI Base Class Descriptor at (0,-1,0,64)'
PUBLIC	??_R4JMG_Kill_Self_And_Sender_On_Custom@@6B@	; JMG_Kill_Self_And_Sender_On_Custom::`RTTI Complete Object Locator'
PUBLIC	??_R0?AVJMG_Kill_Self_And_Sender_On_Custom@@@8	; JMG_Kill_Self_And_Sender_On_Custom `RTTI Type Descriptor'
PUBLIC	??_R3JMG_Kill_Self_And_Sender_On_Custom@@8	; JMG_Kill_Self_And_Sender_On_Custom::`RTTI Class Hierarchy Descriptor'
PUBLIC	??_R2JMG_Kill_Self_And_Sender_On_Custom@@8	; JMG_Kill_Self_And_Sender_On_Custom::`RTTI Base Class Array'
PUBLIC	??_R1A@?0A@EA@JMG_Kill_Self_And_Sender_On_Custom@@8 ; JMG_Kill_Self_And_Sender_On_Custom::`RTTI Base Class Descriptor at (0,-1,0,64)'
PUBLIC	??_R4JMG_Ship_Shield_Control_Script@@6B@	; JMG_Ship_Shield_Control_Script::`RTTI Complete Object Locator'
PUBLIC	??_R0?AVJMG_Ship_Shield_Control_Script@@@8	; JMG_Ship_Shield_Control_Script `RTTI Type Descriptor'
PUBLIC	??_R3JMG_Ship_Shield_Control_Script@@8		; JMG_Ship_Shield_Control_Script::`RTTI Class Hierarchy Descriptor'
PUBLIC	??_R2JMG_Ship_Shield_Control_Script@@8		; JMG_Ship_Shield_Control_Script::`RTTI Base Class Array'
PUBLIC	??_R1A@?0A@EA@JMG_Ship_Shield_Control_Script@@8	; JMG_Ship_Shield_Control_Script::`RTTI Base Class Descriptor at (0,-1,0,64)'
PUBLIC	??_R4JMG_Kill_Self_And_Sender_On_Custom_Ship@@6B@ ; JMG_Kill_Self_And_Sender_On_Custom_Ship::`RTTI Complete Object Locator'
PUBLIC	??_R0?AVJMG_Kill_Self_And_Sender_On_Custom_Ship@@@8 ; JMG_Kill_Self_And_Sender_On_Custom_Ship `RTTI Type Descriptor'
PUBLIC	??_R3JMG_Kill_Self_And_Sender_On_Custom_Ship@@8	; JMG_Kill_Self_And_Sender_On_Custom_Ship::`RTTI Class Hierarchy Descriptor'
PUBLIC	??_R2JMG_Kill_Self_And_Sender_On_Custom_Ship@@8	; JMG_Kill_Self_And_Sender_On_Custom_Ship::`RTTI Base Class Array'
PUBLIC	??_R1A@?0A@EA@JMG_Kill_Self_And_Sender_On_Custom_Ship@@8 ; JMG_Kill_Self_And_Sender_On_Custom_Ship::`RTTI Base Class Descriptor at (0,-1,0,64)'
PUBLIC	??_R4JMG_Ship_Shield_Script@@6B@		; JMG_Ship_Shield_Script::`RTTI Complete Object Locator'
PUBLIC	??_R0?AVJMG_Ship_Shield_Script@@@8		; JMG_Ship_Shield_Script `RTTI Type Descriptor'
PUBLIC	??_R3JMG_Ship_Shield_Script@@8			; JMG_Ship_Shield_Script::`RTTI Class Hierarchy Descriptor'
PUBLIC	??_R2JMG_Ship_Shield_Script@@8			; JMG_Ship_Shield_Script::`RTTI Base Class Array'
PUBLIC	??_R1A@?0A@EA@JMG_Ship_Shield_Script@@8		; JMG_Ship_Shield_Script::`RTTI Base Class Descriptor at (0,-1,0,64)'
PUBLIC	??_R4JMG_Renetbusters_Object@@6B@		; JMG_Renetbusters_Object::`RTTI Complete Object Locator'
PUBLIC	??_R0?AVJMG_Renetbusters_Object@@@8		; JMG_Renetbusters_Object `RTTI Type Descriptor'
PUBLIC	??_R3JMG_Renetbusters_Object@@8			; JMG_Renetbusters_Object::`RTTI Class Hierarchy Descriptor'
PUBLIC	??_R2JMG_Renetbusters_Object@@8			; JMG_Renetbusters_Object::`RTTI Base Class Array'
PUBLIC	??_R1A@?0A@EA@JMG_Renetbusters_Object@@8	; JMG_Renetbusters_Object::`RTTI Base Class Descriptor at (0,-1,0,64)'
PUBLIC	??_R4JMG_New_Ship_Weapon_Control_System@@6B@	; JMG_New_Ship_Weapon_Control_System::`RTTI Complete Object Locator'
PUBLIC	??_R0?AVJMG_New_Ship_Weapon_Control_System@@@8	; JMG_New_Ship_Weapon_Control_System `RTTI Type Descriptor'
PUBLIC	??_R3JMG_New_Ship_Weapon_Control_System@@8	; JMG_New_Ship_Weapon_Control_System::`RTTI Class Hierarchy Descriptor'
PUBLIC	??_R2JMG_New_Ship_Weapon_Control_System@@8	; JMG_New_Ship_Weapon_Control_System::`RTTI Base Class Array'
PUBLIC	??_R1A@?0A@EA@JMG_New_Ship_Weapon_Control_System@@8 ; JMG_New_Ship_Weapon_Control_System::`RTTI Base Class Descriptor at (0,-1,0,64)'
PUBLIC	??_R4JMG_Comet_Control_Script@@6B@		; JMG_Comet_Control_Script::`RTTI Complete Object Locator'
PUBLIC	??_R0?AVJMG_Comet_Control_Script@@@8		; JMG_Comet_Control_Script `RTTI Type Descriptor'
PUBLIC	??_R3JMG_Comet_Control_Script@@8		; JMG_Comet_Control_Script::`RTTI Class Hierarchy Descriptor'
PUBLIC	??_R2JMG_Comet_Control_Script@@8		; JMG_Comet_Control_Script::`RTTI Base Class Array'
PUBLIC	??_R1A@?0A@EA@JMG_Comet_Control_Script@@8	; JMG_Comet_Control_Script::`RTTI Base Class Descriptor at (0,-1,0,64)'
PUBLIC	??_R4JMG_Attach_And_Remove@@6B@			; JMG_Attach_And_Remove::`RTTI Complete Object Locator'
PUBLIC	??_R0?AVJMG_Attach_And_Remove@@@8		; JMG_Attach_And_Remove `RTTI Type Descriptor'
PUBLIC	??_R3JMG_Attach_And_Remove@@8			; JMG_Attach_And_Remove::`RTTI Class Hierarchy Descriptor'
PUBLIC	??_R2JMG_Attach_And_Remove@@8			; JMG_Attach_And_Remove::`RTTI Base Class Array'
PUBLIC	??_R1A@?0A@EA@JMG_Attach_And_Remove@@8		; JMG_Attach_And_Remove::`RTTI Base Class Descriptor at (0,-1,0,64)'
PUBLIC	??_R4JMG_User_Auto_Enter_Ship@@6B@		; JMG_User_Auto_Enter_Ship::`RTTI Complete Object Locator'
PUBLIC	??_R0?AVJMG_User_Auto_Enter_Ship@@@8		; JMG_User_Auto_Enter_Ship `RTTI Type Descriptor'
PUBLIC	??_R3JMG_User_Auto_Enter_Ship@@8		; JMG_User_Auto_Enter_Ship::`RTTI Class Hierarchy Descriptor'
PUBLIC	??_R2JMG_User_Auto_Enter_Ship@@8		; JMG_User_Auto_Enter_Ship::`RTTI Base Class Array'
PUBLIC	??_R1A@?0A@EA@JMG_User_Auto_Enter_Ship@@8	; JMG_User_Auto_Enter_Ship::`RTTI Base Class Descriptor at (0,-1,0,64)'
PUBLIC	??_R4JMG_Apply_Damage_On_Timer@@6B@		; JMG_Apply_Damage_On_Timer::`RTTI Complete Object Locator'
PUBLIC	??_R0?AVJMG_Apply_Damage_On_Timer@@@8		; JMG_Apply_Damage_On_Timer `RTTI Type Descriptor'
PUBLIC	??_R3JMG_Apply_Damage_On_Timer@@8		; JMG_Apply_Damage_On_Timer::`RTTI Class Hierarchy Descriptor'
PUBLIC	??_R2JMG_Apply_Damage_On_Timer@@8		; JMG_Apply_Damage_On_Timer::`RTTI Base Class Array'
PUBLIC	??_R1A@?0A@EA@JMG_Apply_Damage_On_Timer@@8	; JMG_Apply_Damage_On_Timer::`RTTI Base Class Descriptor at (0,-1,0,64)'
PUBLIC	??_R4JMG_CMTB_Vehicle_Face_Turret@@6B@		; JMG_CMTB_Vehicle_Face_Turret::`RTTI Complete Object Locator'
PUBLIC	??_R0?AVJMG_CMTB_Vehicle_Face_Turret@@@8	; JMG_CMTB_Vehicle_Face_Turret `RTTI Type Descriptor'
PUBLIC	??_R3JMG_CMTB_Vehicle_Face_Turret@@8		; JMG_CMTB_Vehicle_Face_Turret::`RTTI Class Hierarchy Descriptor'
PUBLIC	??_R2JMG_CMTB_Vehicle_Face_Turret@@8		; JMG_CMTB_Vehicle_Face_Turret::`RTTI Base Class Array'
PUBLIC	??_R1A@?0A@EA@JMG_CMTB_Vehicle_Face_Turret@@8	; JMG_CMTB_Vehicle_Face_Turret::`RTTI Base Class Descriptor at (0,-1,0,64)'
PUBLIC	??_R4JMG_CMTB_Poke_End_Map@@6B@			; JMG_CMTB_Poke_End_Map::`RTTI Complete Object Locator'
PUBLIC	??_R0?AVJMG_CMTB_Poke_End_Map@@@8		; JMG_CMTB_Poke_End_Map `RTTI Type Descriptor'
PUBLIC	??_R3JMG_CMTB_Poke_End_Map@@8			; JMG_CMTB_Poke_End_Map::`RTTI Class Hierarchy Descriptor'
PUBLIC	??_R2JMG_CMTB_Poke_End_Map@@8			; JMG_CMTB_Poke_End_Map::`RTTI Base Class Array'
PUBLIC	??_R1A@?0A@EA@JMG_CMTB_Poke_End_Map@@8		; JMG_CMTB_Poke_End_Map::`RTTI Base Class Descriptor at (0,-1,0,64)'
PUBLIC	??_R4JMG_CMTB_Poke_Change_Difficulty@@6B@	; JMG_CMTB_Poke_Change_Difficulty::`RTTI Complete Object Locator'
PUBLIC	??_R0?AVJMG_CMTB_Poke_Change_Difficulty@@@8	; JMG_CMTB_Poke_Change_Difficulty `RTTI Type Descriptor'
PUBLIC	??_R3JMG_CMTB_Poke_Change_Difficulty@@8		; JMG_CMTB_Poke_Change_Difficulty::`RTTI Class Hierarchy Descriptor'
PUBLIC	??_R2JMG_CMTB_Poke_Change_Difficulty@@8		; JMG_CMTB_Poke_Change_Difficulty::`RTTI Base Class Array'
PUBLIC	??_R1A@?0A@EA@JMG_CMTB_Poke_Change_Difficulty@@8 ; JMG_CMTB_Poke_Change_Difficulty::`RTTI Base Class Descriptor at (0,-1,0,64)'
PUBLIC	??_R4?$ScriptRegistrant@VJMG_Create_Ship_On_Poke@@@@6B@ ; ScriptRegistrant<JMG_Create_Ship_On_Poke>::`RTTI Complete Object Locator'
PUBLIC	??_R0?AV?$ScriptRegistrant@VJMG_Create_Ship_On_Poke@@@@@8 ; ScriptRegistrant<JMG_Create_Ship_On_Poke> `RTTI Type Descriptor'
PUBLIC	??_R3?$ScriptRegistrant@VJMG_Create_Ship_On_Poke@@@@8 ; ScriptRegistrant<JMG_Create_Ship_On_Poke>::`RTTI Class Hierarchy Descriptor'
PUBLIC	??_R2?$ScriptRegistrant@VJMG_Create_Ship_On_Poke@@@@8 ; ScriptRegistrant<JMG_Create_Ship_On_Poke>::`RTTI Base Class Array'
PUBLIC	??_R1A@?0A@EA@?$ScriptRegistrant@VJMG_Create_Ship_On_Poke@@@@8 ; ScriptRegistrant<JMG_Create_Ship_On_Poke>::`RTTI Base Class Descriptor at (0,-1,0,64)'
PUBLIC	??_R4?$ScriptRegistrant@VJMG_Advanced_Bounce_Zone@@@@6B@ ; ScriptRegistrant<JMG_Advanced_Bounce_Zone>::`RTTI Complete Object Locator'
PUBLIC	??_R0?AV?$ScriptRegistrant@VJMG_Advanced_Bounce_Zone@@@@@8 ; ScriptRegistrant<JMG_Advanced_Bounce_Zone> `RTTI Type Descriptor'
PUBLIC	??_R3?$ScriptRegistrant@VJMG_Advanced_Bounce_Zone@@@@8 ; ScriptRegistrant<JMG_Advanced_Bounce_Zone>::`RTTI Class Hierarchy Descriptor'
PUBLIC	??_R2?$ScriptRegistrant@VJMG_Advanced_Bounce_Zone@@@@8 ; ScriptRegistrant<JMG_Advanced_Bounce_Zone>::`RTTI Base Class Array'
PUBLIC	??_R1A@?0A@EA@?$ScriptRegistrant@VJMG_Advanced_Bounce_Zone@@@@8 ; ScriptRegistrant<JMG_Advanced_Bounce_Zone>::`RTTI Base Class Descriptor at (0,-1,0,64)'
PUBLIC	??_R4?$ScriptRegistrant@VJMG_Ship_Random_Hyperspace@@@@6B@ ; ScriptRegistrant<JMG_Ship_Random_Hyperspace>::`RTTI Complete Object Locator'
PUBLIC	??_R0?AV?$ScriptRegistrant@VJMG_Ship_Random_Hyperspace@@@@@8 ; ScriptRegistrant<JMG_Ship_Random_Hyperspace> `RTTI Type Descriptor'
PUBLIC	??_R3?$ScriptRegistrant@VJMG_Ship_Random_Hyperspace@@@@8 ; ScriptRegistrant<JMG_Ship_Random_Hyperspace>::`RTTI Class Hierarchy Descriptor'
PUBLIC	??_R2?$ScriptRegistrant@VJMG_Ship_Random_Hyperspace@@@@8 ; ScriptRegistrant<JMG_Ship_Random_Hyperspace>::`RTTI Base Class Array'
PUBLIC	??_R1A@?0A@EA@?$ScriptRegistrant@VJMG_Ship_Random_Hyperspace@@@@8 ; ScriptRegistrant<JMG_Ship_Random_Hyperspace>::`RTTI Base Class Descriptor at (0,-1,0,64)'
PUBLIC	??_R4?$ScriptRegistrant@VJMG_Random_Music@@@@6B@ ; ScriptRegistrant<JMG_Random_Music>::`RTTI Complete Object Locator'
PUBLIC	??_R0?AV?$ScriptRegistrant@VJMG_Random_Music@@@@@8 ; ScriptRegistrant<JMG_Random_Music> `RTTI Type Descriptor'
PUBLIC	??_R3?$ScriptRegistrant@VJMG_Random_Music@@@@8	; ScriptRegistrant<JMG_Random_Music>::`RTTI Class Hierarchy Descriptor'
PUBLIC	??_R2?$ScriptRegistrant@VJMG_Random_Music@@@@8	; ScriptRegistrant<JMG_Random_Music>::`RTTI Base Class Array'
PUBLIC	??_R1A@?0A@EA@?$ScriptRegistrant@VJMG_Random_Music@@@@8 ; ScriptRegistrant<JMG_Random_Music>::`RTTI Base Class Descriptor at (0,-1,0,64)'
PUBLIC	??_R4?$ScriptRegistrant@VJMG_Ship_Weapon@@@@6B@	; ScriptRegistrant<JMG_Ship_Weapon>::`RTTI Complete Object Locator'
PUBLIC	??_R0?AV?$ScriptRegistrant@VJMG_Ship_Weapon@@@@@8 ; ScriptRegistrant<JMG_Ship_Weapon> `RTTI Type Descriptor'
PUBLIC	??_R3?$ScriptRegistrant@VJMG_Ship_Weapon@@@@8	; ScriptRegistrant<JMG_Ship_Weapon>::`RTTI Class Hierarchy Descriptor'
PUBLIC	??_R2?$ScriptRegistrant@VJMG_Ship_Weapon@@@@8	; ScriptRegistrant<JMG_Ship_Weapon>::`RTTI Base Class Array'
PUBLIC	??_R1A@?0A@EA@?$ScriptRegistrant@VJMG_Ship_Weapon@@@@8 ; ScriptRegistrant<JMG_Ship_Weapon>::`RTTI Base Class Descriptor at (0,-1,0,64)'
PUBLIC	??_R4?$ScriptRegistrant@VJMG_Return_Custom_When_Shot@@@@6B@ ; ScriptRegistrant<JMG_Return_Custom_When_Shot>::`RTTI Complete Object Locator'
PUBLIC	??_R0?AV?$ScriptRegistrant@VJMG_Return_Custom_When_Shot@@@@@8 ; ScriptRegistrant<JMG_Return_Custom_When_Shot> `RTTI Type Descriptor'
PUBLIC	??_R3?$ScriptRegistrant@VJMG_Return_Custom_When_Shot@@@@8 ; ScriptRegistrant<JMG_Return_Custom_When_Shot>::`RTTI Class Hierarchy Descriptor'
PUBLIC	??_R2?$ScriptRegistrant@VJMG_Return_Custom_When_Shot@@@@8 ; ScriptRegistrant<JMG_Return_Custom_When_Shot>::`RTTI Base Class Array'
PUBLIC	??_R1A@?0A@EA@?$ScriptRegistrant@VJMG_Return_Custom_When_Shot@@@@8 ; ScriptRegistrant<JMG_Return_Custom_When_Shot>::`RTTI Base Class Descriptor at (0,-1,0,64)'
PUBLIC	??_R4?$ScriptRegistrant@VJMG_Cronie_AI@@@@6B@	; ScriptRegistrant<JMG_Cronie_AI>::`RTTI Complete Object Locator'
PUBLIC	??_R0?AV?$ScriptRegistrant@VJMG_Cronie_AI@@@@@8	; ScriptRegistrant<JMG_Cronie_AI> `RTTI Type Descriptor'
PUBLIC	??_R3?$ScriptRegistrant@VJMG_Cronie_AI@@@@8	; ScriptRegistrant<JMG_Cronie_AI>::`RTTI Class Hierarchy Descriptor'
PUBLIC	??_R2?$ScriptRegistrant@VJMG_Cronie_AI@@@@8	; ScriptRegistrant<JMG_Cronie_AI>::`RTTI Base Class Array'
PUBLIC	??_R1A@?0A@EA@?$ScriptRegistrant@VJMG_Cronie_AI@@@@8 ; ScriptRegistrant<JMG_Cronie_AI>::`RTTI Base Class Descriptor at (0,-1,0,64)'
PUBLIC	??_R4?$ScriptRegistrant@VJMG_Kill_Self_And_Sender_On_Custom@@@@6B@ ; ScriptRegistrant<JMG_Kill_Self_And_Sender_On_Custom>::`RTTI Complete Object Locator'
PUBLIC	??_R0?AV?$ScriptRegistrant@VJMG_Kill_Self_And_Sender_On_Custom@@@@@8 ; ScriptRegistrant<JMG_Kill_Self_And_Sender_On_Custom> `RTTI Type Descriptor'
PUBLIC	??_R3?$ScriptRegistrant@VJMG_Kill_Self_And_Sender_On_Custom@@@@8 ; ScriptRegistrant<JMG_Kill_Self_And_Sender_On_Custom>::`RTTI Class Hierarchy Descriptor'
PUBLIC	??_R2?$ScriptRegistrant@VJMG_Kill_Self_And_Sender_On_Custom@@@@8 ; ScriptRegistrant<JMG_Kill_Self_And_Sender_On_Custom>::`RTTI Base Class Array'
PUBLIC	??_R1A@?0A@EA@?$ScriptRegistrant@VJMG_Kill_Self_And_Sender_On_Custom@@@@8 ; ScriptRegistrant<JMG_Kill_Self_And_Sender_On_Custom>::`RTTI Base Class Descriptor at (0,-1,0,64)'
PUBLIC	??_R4?$ScriptRegistrant@VJMG_Ship_Shield_Control_Script@@@@6B@ ; ScriptRegistrant<JMG_Ship_Shield_Control_Script>::`RTTI Complete Object Locator'
PUBLIC	??_R0?AV?$ScriptRegistrant@VJMG_Ship_Shield_Control_Script@@@@@8 ; ScriptRegistrant<JMG_Ship_Shield_Control_Script> `RTTI Type Descriptor'
PUBLIC	??_R3?$ScriptRegistrant@VJMG_Ship_Shield_Control_Script@@@@8 ; ScriptRegistrant<JMG_Ship_Shield_Control_Script>::`RTTI Class Hierarchy Descriptor'
PUBLIC	??_R2?$ScriptRegistrant@VJMG_Ship_Shield_Control_Script@@@@8 ; ScriptRegistrant<JMG_Ship_Shield_Control_Script>::`RTTI Base Class Array'
PUBLIC	??_R1A@?0A@EA@?$ScriptRegistrant@VJMG_Ship_Shield_Control_Script@@@@8 ; ScriptRegistrant<JMG_Ship_Shield_Control_Script>::`RTTI Base Class Descriptor at (0,-1,0,64)'
PUBLIC	??_R4?$ScriptRegistrant@VJMG_Kill_Self_And_Sender_On_Custom_Ship@@@@6B@ ; ScriptRegistrant<JMG_Kill_Self_And_Sender_On_Custom_Ship>::`RTTI Complete Object Locator'
PUBLIC	??_R0?AV?$ScriptRegistrant@VJMG_Kill_Self_And_Sender_On_Custom_Ship@@@@@8 ; ScriptRegistrant<JMG_Kill_Self_And_Sender_On_Custom_Ship> `RTTI Type Descriptor'
PUBLIC	??_R3?$ScriptRegistrant@VJMG_Kill_Self_And_Sender_On_Custom_Ship@@@@8 ; ScriptRegistrant<JMG_Kill_Self_And_Sender_On_Custom_Ship>::`RTTI Class Hierarchy Descriptor'
PUBLIC	??_R2?$ScriptRegistrant@VJMG_Kill_Self_And_Sender_On_Custom_Ship@@@@8 ; ScriptRegistrant<JMG_Kill_Self_And_Sender_On_Custom_Ship>::`RTTI Base Class Array'
PUBLIC	??_R1A@?0A@EA@?$ScriptRegistrant@VJMG_Kill_Self_And_Sender_On_Custom_Ship@@@@8 ; ScriptRegistrant<JMG_Kill_Self_And_Sender_On_Custom_Ship>::`RTTI Base Class Descriptor at (0,-1,0,64)'
PUBLIC	??_R4?$ScriptRegistrant@VJMG_Ship_Shield_Script@@@@6B@ ; ScriptRegistrant<JMG_Ship_Shield_Script>::`RTTI Complete Object Locator'
PUBLIC	??_R0?AV?$ScriptRegistrant@VJMG_Ship_Shield_Script@@@@@8 ; ScriptRegistrant<JMG_Ship_Shield_Script> `RTTI Type Descriptor'
PUBLIC	??_R3?$ScriptRegistrant@VJMG_Ship_Shield_Script@@@@8 ; ScriptRegistrant<JMG_Ship_Shield_Script>::`RTTI Class Hierarchy Descriptor'
PUBLIC	??_R2?$ScriptRegistrant@VJMG_Ship_Shield_Script@@@@8 ; ScriptRegistrant<JMG_Ship_Shield_Script>::`RTTI Base Class Array'
PUBLIC	??_R1A@?0A@EA@?$ScriptRegistrant@VJMG_Ship_Shield_Script@@@@8 ; ScriptRegistrant<JMG_Ship_Shield_Script>::`RTTI Base Class Descriptor at (0,-1,0,64)'
PUBLIC	??_R4?$ScriptRegistrant@VJMG_Renetbusters_Object@@@@6B@ ; ScriptRegistrant<JMG_Renetbusters_Object>::`RTTI Complete Object Locator'
PUBLIC	??_R0?AV?$ScriptRegistrant@VJMG_Renetbusters_Object@@@@@8 ; ScriptRegistrant<JMG_Renetbusters_Object> `RTTI Type Descriptor'
PUBLIC	??_R3?$ScriptRegistrant@VJMG_Renetbusters_Object@@@@8 ; ScriptRegistrant<JMG_Renetbusters_Object>::`RTTI Class Hierarchy Descriptor'
PUBLIC	??_R2?$ScriptRegistrant@VJMG_Renetbusters_Object@@@@8 ; ScriptRegistrant<JMG_Renetbusters_Object>::`RTTI Base Class Array'
PUBLIC	??_R1A@?0A@EA@?$ScriptRegistrant@VJMG_Renetbusters_Object@@@@8 ; ScriptRegistrant<JMG_Renetbusters_Object>::`RTTI Base Class Descriptor at (0,-1,0,64)'
PUBLIC	??_R4?$ScriptRegistrant@VJMG_New_Ship_Weapon_Control_System@@@@6B@ ; ScriptRegistrant<JMG_New_Ship_Weapon_Control_System>::`RTTI Complete Object Locator'
PUBLIC	??_R0?AV?$ScriptRegistrant@VJMG_New_Ship_Weapon_Control_System@@@@@8 ; ScriptRegistrant<JMG_New_Ship_Weapon_Control_System> `RTTI Type Descriptor'
PUBLIC	??_R3?$ScriptRegistrant@VJMG_New_Ship_Weapon_Control_System@@@@8 ; ScriptRegistrant<JMG_New_Ship_Weapon_Control_System>::`RTTI Class Hierarchy Descriptor'
PUBLIC	??_R2?$ScriptRegistrant@VJMG_New_Ship_Weapon_Control_System@@@@8 ; ScriptRegistrant<JMG_New_Ship_Weapon_Control_System>::`RTTI Base Class Array'
PUBLIC	??_R1A@?0A@EA@?$ScriptRegistrant@VJMG_New_Ship_Weapon_Control_System@@@@8 ; ScriptRegistrant<JMG_New_Ship_Weapon_Control_System>::`RTTI Base Class Descriptor at (0,-1,0,64)'
PUBLIC	??_R4?$ScriptRegistrant@VJMG_Comet_Control_Script@@@@6B@ ; ScriptRegistrant<JMG_Comet_Control_Script>::`RTTI Complete Object Locator'
PUBLIC	??_R0?AV?$ScriptRegistrant@VJMG_Comet_Control_Script@@@@@8 ; ScriptRegistrant<JMG_Comet_Control_Script> `RTTI Type Descriptor'
PUBLIC	??_R3?$ScriptRegistrant@VJMG_Comet_Control_Script@@@@8 ; ScriptRegistrant<JMG_Comet_Control_Script>::`RTTI Class Hierarchy Descriptor'
PUBLIC	??_R2?$ScriptRegistrant@VJMG_Comet_Control_Script@@@@8 ; ScriptRegistrant<JMG_Comet_Control_Script>::`RTTI Base Class Array'
PUBLIC	??_R1A@?0A@EA@?$ScriptRegistrant@VJMG_Comet_Control_Script@@@@8 ; ScriptRegistrant<JMG_Comet_Control_Script>::`RTTI Base Class Descriptor at (0,-1,0,64)'
PUBLIC	??_R4?$ScriptRegistrant@VJMG_Attach_And_Remove@@@@6B@ ; ScriptRegistrant<JMG_Attach_And_Remove>::`RTTI Complete Object Locator'
PUBLIC	??_R0?AV?$ScriptRegistrant@VJMG_Attach_And_Remove@@@@@8 ; ScriptRegistrant<JMG_Attach_And_Remove> `RTTI Type Descriptor'
PUBLIC	??_R3?$ScriptRegistrant@VJMG_Attach_And_Remove@@@@8 ; ScriptRegistrant<JMG_Attach_And_Remove>::`RTTI Class Hierarchy Descriptor'
PUBLIC	??_R2?$ScriptRegistrant@VJMG_Attach_And_Remove@@@@8 ; ScriptRegistrant<JMG_Attach_And_Remove>::`RTTI Base Class Array'
PUBLIC	??_R1A@?0A@EA@?$ScriptRegistrant@VJMG_Attach_And_Remove@@@@8 ; ScriptRegistrant<JMG_Attach_And_Remove>::`RTTI Base Class Descriptor at (0,-1,0,64)'
PUBLIC	??_R4?$ScriptRegistrant@VJMG_User_Auto_Enter_Ship@@@@6B@ ; ScriptRegistrant<JMG_User_Auto_Enter_Ship>::`RTTI Complete Object Locator'
PUBLIC	??_R0?AV?$ScriptRegistrant@VJMG_User_Auto_Enter_Ship@@@@@8 ; ScriptRegistrant<JMG_User_Auto_Enter_Ship> `RTTI Type Descriptor'
PUBLIC	??_R3?$ScriptRegistrant@VJMG_User_Auto_Enter_Ship@@@@8 ; ScriptRegistrant<JMG_User_Auto_Enter_Ship>::`RTTI Class Hierarchy Descriptor'
PUBLIC	??_R2?$ScriptRegistrant@VJMG_User_Auto_Enter_Ship@@@@8 ; ScriptRegistrant<JMG_User_Auto_Enter_Ship>::`RTTI Base Class Array'
PUBLIC	??_R1A@?0A@EA@?$ScriptRegistrant@VJMG_User_Auto_Enter_Ship@@@@8 ; ScriptRegistrant<JMG_User_Auto_Enter_Ship>::`RTTI Base Class Descriptor at (0,-1,0,64)'
PUBLIC	??_R4?$ScriptRegistrant@VJMG_Apply_Damage_On_Timer@@@@6B@ ; ScriptRegistrant<JMG_Apply_Damage_On_Timer>::`RTTI Complete Object Locator'
PUBLIC	??_R0?AV?$ScriptRegistrant@VJMG_Apply_Damage_On_Timer@@@@@8 ; ScriptRegistrant<JMG_Apply_Damage_On_Timer> `RTTI Type Descriptor'
PUBLIC	??_R3?$ScriptRegistrant@VJMG_Apply_Damage_On_Timer@@@@8 ; ScriptRegistrant<JMG_Apply_Damage_On_Timer>::`RTTI Class Hierarchy Descriptor'
PUBLIC	??_R2?$ScriptRegistrant@VJMG_Apply_Damage_On_Timer@@@@8 ; ScriptRegistrant<JMG_Apply_Damage_On_Timer>::`RTTI Base Class Array'
PUBLIC	??_R1A@?0A@EA@?$ScriptRegistrant@VJMG_Apply_Damage_On_Timer@@@@8 ; ScriptRegistrant<JMG_Apply_Damage_On_Timer>::`RTTI Base Class Descriptor at (0,-1,0,64)'
PUBLIC	??_R4?$ScriptRegistrant@VJMG_CMTB_Main_Game_Control@@@@6B@ ; ScriptRegistrant<JMG_CMTB_Main_Game_Control>::`RTTI Complete Object Locator'
PUBLIC	??_R0?AV?$ScriptRegistrant@VJMG_CMTB_Main_Game_Control@@@@@8 ; ScriptRegistrant<JMG_CMTB_Main_Game_Control> `RTTI Type Descriptor'
PUBLIC	??_R3?$ScriptRegistrant@VJMG_CMTB_Main_Game_Control@@@@8 ; ScriptRegistrant<JMG_CMTB_Main_Game_Control>::`RTTI Class Hierarchy Descriptor'
PUBLIC	??_R2?$ScriptRegistrant@VJMG_CMTB_Main_Game_Control@@@@8 ; ScriptRegistrant<JMG_CMTB_Main_Game_Control>::`RTTI Base Class Array'
PUBLIC	??_R1A@?0A@EA@?$ScriptRegistrant@VJMG_CMTB_Main_Game_Control@@@@8 ; ScriptRegistrant<JMG_CMTB_Main_Game_Control>::`RTTI Base Class Descriptor at (0,-1,0,64)'
PUBLIC	??_R4?$ScriptRegistrant@VJMG_CMTB_Ship_Control_Script@@@@6B@ ; ScriptRegistrant<JMG_CMTB_Ship_Control_Script>::`RTTI Complete Object Locator'
PUBLIC	??_R0?AV?$ScriptRegistrant@VJMG_CMTB_Ship_Control_Script@@@@@8 ; ScriptRegistrant<JMG_CMTB_Ship_Control_Script> `RTTI Type Descriptor'
PUBLIC	??_R3?$ScriptRegistrant@VJMG_CMTB_Ship_Control_Script@@@@8 ; ScriptRegistrant<JMG_CMTB_Ship_Control_Script>::`RTTI Class Hierarchy Descriptor'
PUBLIC	??_R2?$ScriptRegistrant@VJMG_CMTB_Ship_Control_Script@@@@8 ; ScriptRegistrant<JMG_CMTB_Ship_Control_Script>::`RTTI Base Class Array'
PUBLIC	??_R1A@?0A@EA@?$ScriptRegistrant@VJMG_CMTB_Ship_Control_Script@@@@8 ; ScriptRegistrant<JMG_CMTB_Ship_Control_Script>::`RTTI Base Class Descriptor at (0,-1,0,64)'
PUBLIC	??_R4?$ScriptRegistrant@VJMG_CMTB_UFO_Random_Fire_Control@@@@6B@ ; ScriptRegistrant<JMG_CMTB_UFO_Random_Fire_Control>::`RTTI Complete Object Locator'
PUBLIC	??_R0?AV?$ScriptRegistrant@VJMG_CMTB_UFO_Random_Fire_Control@@@@@8 ; ScriptRegistrant<JMG_CMTB_UFO_Random_Fire_Control> `RTTI Type Descriptor'
PUBLIC	??_R3?$ScriptRegistrant@VJMG_CMTB_UFO_Random_Fire_Control@@@@8 ; ScriptRegistrant<JMG_CMTB_UFO_Random_Fire_Control>::`RTTI Class Hierarchy Descriptor'
PUBLIC	??_R2?$ScriptRegistrant@VJMG_CMTB_UFO_Random_Fire_Control@@@@8 ; ScriptRegistrant<JMG_CMTB_UFO_Random_Fire_Control>::`RTTI Base Class Array'
PUBLIC	??_R1A@?0A@EA@?$ScriptRegistrant@VJMG_CMTB_UFO_Random_Fire_Control@@@@8 ; ScriptRegistrant<JMG_CMTB_UFO_Random_Fire_Control>::`RTTI Base Class Descriptor at (0,-1,0,64)'
PUBLIC	??_R4?$ScriptRegistrant@VJMG_CMTB_Comet_Script@@@@6B@ ; ScriptRegistrant<JMG_CMTB_Comet_Script>::`RTTI Complete Object Locator'
PUBLIC	??_R0?AV?$ScriptRegistrant@VJMG_CMTB_Comet_Script@@@@@8 ; ScriptRegistrant<JMG_CMTB_Comet_Script> `RTTI Type Descriptor'
PUBLIC	??_R3?$ScriptRegistrant@VJMG_CMTB_Comet_Script@@@@8 ; ScriptRegistrant<JMG_CMTB_Comet_Script>::`RTTI Class Hierarchy Descriptor'
PUBLIC	??_R2?$ScriptRegistrant@VJMG_CMTB_Comet_Script@@@@8 ; ScriptRegistrant<JMG_CMTB_Comet_Script>::`RTTI Base Class Array'
PUBLIC	??_R1A@?0A@EA@?$ScriptRegistrant@VJMG_CMTB_Comet_Script@@@@8 ; ScriptRegistrant<JMG_CMTB_Comet_Script>::`RTTI Base Class Descriptor at (0,-1,0,64)'
PUBLIC	??_R4?$ScriptRegistrant@VJMG_CMTB_Zone_Realign_Enter@@@@6B@ ; ScriptRegistrant<JMG_CMTB_Zone_Realign_Enter>::`RTTI Complete Object Locator'
PUBLIC	??_R0?AV?$ScriptRegistrant@VJMG_CMTB_Zone_Realign_Enter@@@@@8 ; ScriptRegistrant<JMG_CMTB_Zone_Realign_Enter> `RTTI Type Descriptor'
PUBLIC	??_R3?$ScriptRegistrant@VJMG_CMTB_Zone_Realign_Enter@@@@8 ; ScriptRegistrant<JMG_CMTB_Zone_Realign_Enter>::`RTTI Class Hierarchy Descriptor'
PUBLIC	??_R2?$ScriptRegistrant@VJMG_CMTB_Zone_Realign_Enter@@@@8 ; ScriptRegistrant<JMG_CMTB_Zone_Realign_Enter>::`RTTI Base Class Array'
PUBLIC	??_R1A@?0A@EA@?$ScriptRegistrant@VJMG_CMTB_Zone_Realign_Enter@@@@8 ; ScriptRegistrant<JMG_CMTB_Zone_Realign_Enter>::`RTTI Base Class Descriptor at (0,-1,0,64)'
PUBLIC	??_R4?$ScriptRegistrant@VJMG_CMTB_Spectator_Object@@@@6B@ ; ScriptRegistrant<JMG_CMTB_Spectator_Object>::`RTTI Complete Object Locator'
PUBLIC	??_R0?AV?$ScriptRegistrant@VJMG_CMTB_Spectator_Object@@@@@8 ; ScriptRegistrant<JMG_CMTB_Spectator_Object> `RTTI Type Descriptor'
PUBLIC	??_R3?$ScriptRegistrant@VJMG_CMTB_Spectator_Object@@@@8 ; ScriptRegistrant<JMG_CMTB_Spectator_Object>::`RTTI Class Hierarchy Descriptor'
PUBLIC	??_R2?$ScriptRegistrant@VJMG_CMTB_Spectator_Object@@@@8 ; ScriptRegistrant<JMG_CMTB_Spectator_Object>::`RTTI Base Class Array'
PUBLIC	??_R1A@?0A@EA@?$ScriptRegistrant@VJMG_CMTB_Spectator_Object@@@@8 ; ScriptRegistrant<JMG_CMTB_Spectator_Object>::`RTTI Base Class Descriptor at (0,-1,0,64)'
PUBLIC	??_R4?$ScriptRegistrant@VJMG_CMTB_Arcade_Machine@@@@6B@ ; ScriptRegistrant<JMG_CMTB_Arcade_Machine>::`RTTI Complete Object Locator'
PUBLIC	??_R0?AV?$ScriptRegistrant@VJMG_CMTB_Arcade_Machine@@@@@8 ; ScriptRegistrant<JMG_CMTB_Arcade_Machine> `RTTI Type Descriptor'
PUBLIC	??_R3?$ScriptRegistrant@VJMG_CMTB_Arcade_Machine@@@@8 ; ScriptRegistrant<JMG_CMTB_Arcade_Machine>::`RTTI Class Hierarchy Descriptor'
PUBLIC	??_R2?$ScriptRegistrant@VJMG_CMTB_Arcade_Machine@@@@8 ; ScriptRegistrant<JMG_CMTB_Arcade_Machine>::`RTTI Base Class Array'
PUBLIC	??_R1A@?0A@EA@?$ScriptRegistrant@VJMG_CMTB_Arcade_Machine@@@@8 ; ScriptRegistrant<JMG_CMTB_Arcade_Machine>::`RTTI Base Class Descriptor at (0,-1,0,64)'
PUBLIC	??_R4?$ScriptRegistrant@VJMG_CMTB_Fake_Player_Attach_Script@@@@6B@ ; ScriptRegistrant<JMG_CMTB_Fake_Player_Attach_Script>::`RTTI Complete Object Locator'
PUBLIC	??_R0?AV?$ScriptRegistrant@VJMG_CMTB_Fake_Player_Attach_Script@@@@@8 ; ScriptRegistrant<JMG_CMTB_Fake_Player_Attach_Script> `RTTI Type Descriptor'
PUBLIC	??_R3?$ScriptRegistrant@VJMG_CMTB_Fake_Player_Attach_Script@@@@8 ; ScriptRegistrant<JMG_CMTB_Fake_Player_Attach_Script>::`RTTI Class Hierarchy Descriptor'
PUBLIC	??_R2?$ScriptRegistrant@VJMG_CMTB_Fake_Player_Attach_Script@@@@8 ; ScriptRegistrant<JMG_CMTB_Fake_Player_Attach_Script>::`RTTI Base Class Array'
PUBLIC	??_R1A@?0A@EA@?$ScriptRegistrant@VJMG_CMTB_Fake_Player_Attach_Script@@@@8 ; ScriptRegistrant<JMG_CMTB_Fake_Player_Attach_Script>::`RTTI Base Class Descriptor at (0,-1,0,64)'
PUBLIC	??_R4?$ScriptRegistrant@VJMG_CMTB_Renegade_Code@@@@6B@ ; ScriptRegistrant<JMG_CMTB_Renegade_Code>::`RTTI Complete Object Locator'
PUBLIC	??_R0?AV?$ScriptRegistrant@VJMG_CMTB_Renegade_Code@@@@@8 ; ScriptRegistrant<JMG_CMTB_Renegade_Code> `RTTI Type Descriptor'
PUBLIC	??_R3?$ScriptRegistrant@VJMG_CMTB_Renegade_Code@@@@8 ; ScriptRegistrant<JMG_CMTB_Renegade_Code>::`RTTI Class Hierarchy Descriptor'
PUBLIC	??_R2?$ScriptRegistrant@VJMG_CMTB_Renegade_Code@@@@8 ; ScriptRegistrant<JMG_CMTB_Renegade_Code>::`RTTI Base Class Array'
PUBLIC	??_R1A@?0A@EA@?$ScriptRegistrant@VJMG_CMTB_Renegade_Code@@@@8 ; ScriptRegistrant<JMG_CMTB_Renegade_Code>::`RTTI Base Class Descriptor at (0,-1,0,64)'
PUBLIC	??_R4?$ScriptRegistrant@VJMG_CMTB_Motion_Mine@@@@6B@ ; ScriptRegistrant<JMG_CMTB_Motion_Mine>::`RTTI Complete Object Locator'
PUBLIC	??_R0?AV?$ScriptRegistrant@VJMG_CMTB_Motion_Mine@@@@@8 ; ScriptRegistrant<JMG_CMTB_Motion_Mine> `RTTI Type Descriptor'
PUBLIC	??_R3?$ScriptRegistrant@VJMG_CMTB_Motion_Mine@@@@8 ; ScriptRegistrant<JMG_CMTB_Motion_Mine>::`RTTI Class Hierarchy Descriptor'
PUBLIC	??_R2?$ScriptRegistrant@VJMG_CMTB_Motion_Mine@@@@8 ; ScriptRegistrant<JMG_CMTB_Motion_Mine>::`RTTI Base Class Array'
PUBLIC	??_R1A@?0A@EA@?$ScriptRegistrant@VJMG_CMTB_Motion_Mine@@@@8 ; ScriptRegistrant<JMG_CMTB_Motion_Mine>::`RTTI Base Class Descriptor at (0,-1,0,64)'
PUBLIC	??_R4?$ScriptRegistrant@VJMG_CMTB_The_Moon_Script@@@@6B@ ; ScriptRegistrant<JMG_CMTB_The_Moon_Script>::`RTTI Complete Object Locator'
PUBLIC	??_R0?AV?$ScriptRegistrant@VJMG_CMTB_The_Moon_Script@@@@@8 ; ScriptRegistrant<JMG_CMTB_The_Moon_Script> `RTTI Type Descriptor'
PUBLIC	??_R3?$ScriptRegistrant@VJMG_CMTB_The_Moon_Script@@@@8 ; ScriptRegistrant<JMG_CMTB_The_Moon_Script>::`RTTI Class Hierarchy Descriptor'
PUBLIC	??_R2?$ScriptRegistrant@VJMG_CMTB_The_Moon_Script@@@@8 ; ScriptRegistrant<JMG_CMTB_The_Moon_Script>::`RTTI Base Class Array'
PUBLIC	??_R1A@?0A@EA@?$ScriptRegistrant@VJMG_CMTB_The_Moon_Script@@@@8 ; ScriptRegistrant<JMG_CMTB_The_Moon_Script>::`RTTI Base Class Descriptor at (0,-1,0,64)'
PUBLIC	??_R4?$ScriptRegistrant@VJMG_CMTB_Ship_Super_Weapon@@@@6B@ ; ScriptRegistrant<JMG_CMTB_Ship_Super_Weapon>::`RTTI Complete Object Locator'
PUBLIC	??_R0?AV?$ScriptRegistrant@VJMG_CMTB_Ship_Super_Weapon@@@@@8 ; ScriptRegistrant<JMG_CMTB_Ship_Super_Weapon> `RTTI Type Descriptor'
PUBLIC	??_R3?$ScriptRegistrant@VJMG_CMTB_Ship_Super_Weapon@@@@8 ; ScriptRegistrant<JMG_CMTB_Ship_Super_Weapon>::`RTTI Class Hierarchy Descriptor'
PUBLIC	??_R2?$ScriptRegistrant@VJMG_CMTB_Ship_Super_Weapon@@@@8 ; ScriptRegistrant<JMG_CMTB_Ship_Super_Weapon>::`RTTI Base Class Array'
PUBLIC	??_R1A@?0A@EA@?$ScriptRegistrant@VJMG_CMTB_Ship_Super_Weapon@@@@8 ; ScriptRegistrant<JMG_CMTB_Ship_Super_Weapon>::`RTTI Base Class Descriptor at (0,-1,0,64)'
PUBLIC	??_R4?$ScriptRegistrant@VJMG_CMTB_Powerup_Script@@@@6B@ ; ScriptRegistrant<JMG_CMTB_Powerup_Script>::`RTTI Complete Object Locator'
PUBLIC	??_R0?AV?$ScriptRegistrant@VJMG_CMTB_Powerup_Script@@@@@8 ; ScriptRegistrant<JMG_CMTB_Powerup_Script> `RTTI Type Descriptor'
PUBLIC	??_R3?$ScriptRegistrant@VJMG_CMTB_Powerup_Script@@@@8 ; ScriptRegistrant<JMG_CMTB_Powerup_Script>::`RTTI Class Hierarchy Descriptor'
PUBLIC	??_R2?$ScriptRegistrant@VJMG_CMTB_Powerup_Script@@@@8 ; ScriptRegistrant<JMG_CMTB_Powerup_Script>::`RTTI Base Class Array'
PUBLIC	??_R1A@?0A@EA@?$ScriptRegistrant@VJMG_CMTB_Powerup_Script@@@@8 ; ScriptRegistrant<JMG_CMTB_Powerup_Script>::`RTTI Base Class Descriptor at (0,-1,0,64)'
PUBLIC	??_R4?$ScriptRegistrant@VJMG_CMTB_Cargo_Ship_Script@@@@6B@ ; ScriptRegistrant<JMG_CMTB_Cargo_Ship_Script>::`RTTI Complete Object Locator'
PUBLIC	??_R0?AV?$ScriptRegistrant@VJMG_CMTB_Cargo_Ship_Script@@@@@8 ; ScriptRegistrant<JMG_CMTB_Cargo_Ship_Script> `RTTI Type Descriptor'
PUBLIC	??_R3?$ScriptRegistrant@VJMG_CMTB_Cargo_Ship_Script@@@@8 ; ScriptRegistrant<JMG_CMTB_Cargo_Ship_Script>::`RTTI Class Hierarchy Descriptor'
PUBLIC	??_R2?$ScriptRegistrant@VJMG_CMTB_Cargo_Ship_Script@@@@8 ; ScriptRegistrant<JMG_CMTB_Cargo_Ship_Script>::`RTTI Base Class Array'
PUBLIC	??_R1A@?0A@EA@?$ScriptRegistrant@VJMG_CMTB_Cargo_Ship_Script@@@@8 ; ScriptRegistrant<JMG_CMTB_Cargo_Ship_Script>::`RTTI Base Class Descriptor at (0,-1,0,64)'
PUBLIC	??_R4?$ScriptRegistrant@VJMG_CMTB_Cargo_Ship_Turret@@@@6B@ ; ScriptRegistrant<JMG_CMTB_Cargo_Ship_Turret>::`RTTI Complete Object Locator'
PUBLIC	??_R0?AV?$ScriptRegistrant@VJMG_CMTB_Cargo_Ship_Turret@@@@@8 ; ScriptRegistrant<JMG_CMTB_Cargo_Ship_Turret> `RTTI Type Descriptor'
PUBLIC	??_R3?$ScriptRegistrant@VJMG_CMTB_Cargo_Ship_Turret@@@@8 ; ScriptRegistrant<JMG_CMTB_Cargo_Ship_Turret>::`RTTI Class Hierarchy Descriptor'
PUBLIC	??_R2?$ScriptRegistrant@VJMG_CMTB_Cargo_Ship_Turret@@@@8 ; ScriptRegistrant<JMG_CMTB_Cargo_Ship_Turret>::`RTTI Base Class Array'
PUBLIC	??_R1A@?0A@EA@?$ScriptRegistrant@VJMG_CMTB_Cargo_Ship_Turret@@@@8 ; ScriptRegistrant<JMG_CMTB_Cargo_Ship_Turret>::`RTTI Base Class Descriptor at (0,-1,0,64)'
PUBLIC	??_R4?$ScriptRegistrant@VJMG_CMTB_Player_Drone@@@@6B@ ; ScriptRegistrant<JMG_CMTB_Player_Drone>::`RTTI Complete Object Locator'
PUBLIC	??_R0?AV?$ScriptRegistrant@VJMG_CMTB_Player_Drone@@@@@8 ; ScriptRegistrant<JMG_CMTB_Player_Drone> `RTTI Type Descriptor'
PUBLIC	??_R3?$ScriptRegistrant@VJMG_CMTB_Player_Drone@@@@8 ; ScriptRegistrant<JMG_CMTB_Player_Drone>::`RTTI Class Hierarchy Descriptor'
PUBLIC	??_R2?$ScriptRegistrant@VJMG_CMTB_Player_Drone@@@@8 ; ScriptRegistrant<JMG_CMTB_Player_Drone>::`RTTI Base Class Array'
PUBLIC	??_R1A@?0A@EA@?$ScriptRegistrant@VJMG_CMTB_Player_Drone@@@@8 ; ScriptRegistrant<JMG_CMTB_Player_Drone>::`RTTI Base Class Descriptor at (0,-1,0,64)'
PUBLIC	??_R4?$ScriptRegistrant@VJMG_CMTB_Vehicle_Face_Turret@@@@6B@ ; ScriptRegistrant<JMG_CMTB_Vehicle_Face_Turret>::`RTTI Complete Object Locator'
PUBLIC	??_R0?AV?$ScriptRegistrant@VJMG_CMTB_Vehicle_Face_Turret@@@@@8 ; ScriptRegistrant<JMG_CMTB_Vehicle_Face_Turret> `RTTI Type Descriptor'
PUBLIC	??_R3?$ScriptRegistrant@VJMG_CMTB_Vehicle_Face_Turret@@@@8 ; ScriptRegistrant<JMG_CMTB_Vehicle_Face_Turret>::`RTTI Class Hierarchy Descriptor'
PUBLIC	??_R2?$ScriptRegistrant@VJMG_CMTB_Vehicle_Face_Turret@@@@8 ; ScriptRegistrant<JMG_CMTB_Vehicle_Face_Turret>::`RTTI Base Class Array'
PUBLIC	??_R1A@?0A@EA@?$ScriptRegistrant@VJMG_CMTB_Vehicle_Face_Turret@@@@8 ; ScriptRegistrant<JMG_CMTB_Vehicle_Face_Turret>::`RTTI Base Class Descriptor at (0,-1,0,64)'
PUBLIC	??_R4?$ScriptRegistrant@VJMG_CMTB_Poke_End_Map@@@@6B@ ; ScriptRegistrant<JMG_CMTB_Poke_End_Map>::`RTTI Complete Object Locator'
PUBLIC	??_R0?AV?$ScriptRegistrant@VJMG_CMTB_Poke_End_Map@@@@@8 ; ScriptRegistrant<JMG_CMTB_Poke_End_Map> `RTTI Type Descriptor'
PUBLIC	??_R3?$ScriptRegistrant@VJMG_CMTB_Poke_End_Map@@@@8 ; ScriptRegistrant<JMG_CMTB_Poke_End_Map>::`RTTI Class Hierarchy Descriptor'
PUBLIC	??_R2?$ScriptRegistrant@VJMG_CMTB_Poke_End_Map@@@@8 ; ScriptRegistrant<JMG_CMTB_Poke_End_Map>::`RTTI Base Class Array'
PUBLIC	??_R1A@?0A@EA@?$ScriptRegistrant@VJMG_CMTB_Poke_End_Map@@@@8 ; ScriptRegistrant<JMG_CMTB_Poke_End_Map>::`RTTI Base Class Descriptor at (0,-1,0,64)'
PUBLIC	??_R4?$ScriptRegistrant@VJMG_CMTB_Poke_Change_Difficulty@@@@6B@ ; ScriptRegistrant<JMG_CMTB_Poke_Change_Difficulty>::`RTTI Complete Object Locator'
PUBLIC	??_R0?AV?$ScriptRegistrant@VJMG_CMTB_Poke_Change_Difficulty@@@@@8 ; ScriptRegistrant<JMG_CMTB_Poke_Change_Difficulty> `RTTI Type Descriptor'
PUBLIC	??_R3?$ScriptRegistrant@VJMG_CMTB_Poke_Change_Difficulty@@@@8 ; ScriptRegistrant<JMG_CMTB_Poke_Change_Difficulty>::`RTTI Class Hierarchy Descriptor'
PUBLIC	??_R2?$ScriptRegistrant@VJMG_CMTB_Poke_Change_Difficulty@@@@8 ; ScriptRegistrant<JMG_CMTB_Poke_Change_Difficulty>::`RTTI Base Class Array'
PUBLIC	??_R1A@?0A@EA@?$ScriptRegistrant@VJMG_CMTB_Poke_Change_Difficulty@@@@8 ; ScriptRegistrant<JMG_CMTB_Poke_Change_Difficulty>::`RTTI Base Class Descriptor at (0,-1,0,64)'
PUBLIC	__real@00000000
PUBLIC	__real@0000000000000000
PUBLIC	__real@02081cea
PUBLIC	__real@3c23d70a
PUBLIC	__real@3ccccccd
PUBLIC	__real@3d4ccccd
PUBLIC	__real@3dcccccd
PUBLIC	__real@3dd851ec
PUBLIC	__real@3e19999a
PUBLIC	__real@3e48b439
PUBLIC	__real@3e4ccccd
PUBLIC	__real@3e800000
PUBLIC	__real@3ea66666
PUBLIC	__real@3ea8f5c3
PUBLIC	__real@3eb33333
PUBLIC	__real@3eb851ec
PUBLIC	__real@3eeae7d5
PUBLIC	__real@3f000000
PUBLIC	__real@3f3ab9f5
PUBLIC	__real@3f400000
PUBLIC	__real@3f466666
PUBLIC	__real@3f70a3d7
PUBLIC	__real@3f79999a
PUBLIC	__real@3f800000
PUBLIC	__real@3f900000
PUBLIC	__real@3f9999999999999a
PUBLIC	__real@3fa00000
PUBLIC	__real@3fa20000
PUBLIC	__real@3fa999999999999a
PUBLIC	__real@3fb4fdf4
PUBLIC	__real@3fbd9168
PUBLIC	__real@3fc00000
PUBLIC	__real@3fc51eb851eb851f
PUBLIC	__real@3fc80000
PUBLIC	__real@3fc90fdb
PUBLIC	__real@3fc999999999999a
PUBLIC	__real@3fd51eb851eb851f
PUBLIC	__real@3fd999999999999a
PUBLIC	__real@3fdccccccccccccd
PUBLIC	__real@3fe0000000000000
PUBLIC	__real@3fe51eb851eb851f
PUBLIC	__real@3fe6666666666666
PUBLIC	__real@3fe8000000000000
PUBLIC	__real@3fe999999999999a
PUBLIC	__real@3feccccccccccccd
PUBLIC	__real@3fee666666666666
PUBLIC	__real@3fef0a3d70a3d70a
PUBLIC	__real@3ff0000000000000
PUBLIC	__real@40000000
PUBLIC	__real@4000000000000000
PUBLIC	__real@40100000
PUBLIC	__real@40200000
PUBLIC	__real@4024000000000000
PUBLIC	__real@402e000000000000
PUBLIC	__real@4034000000000000
PUBLIC	__real@40400000
PUBLIC	__real@40490fdb
PUBLIC	__real@4059000000000000
PUBLIC	__real@40800000
PUBLIC	__real@40900000
PUBLIC	__real@40a00000
PUBLIC	__real@40c80000
PUBLIC	__real@40c90fdb
PUBLIC	__real@40d0f5c3
PUBLIC	__real@40db580000000000
PUBLIC	__real@41000000
PUBLIC	__real@410c0000
PUBLIC	__real@41100000
PUBLIC	__real@41200000
PUBLIC	__real@41300000
PUBLIC	__real@41480000
PUBLIC	__real@41700000
PUBLIC	__real@41a00000
PUBLIC	__real@41a20000
PUBLIC	__real@41c80000
PUBLIC	__real@41f00000
PUBLIC	__real@42040000
PUBLIC	__real@42340000
PUBLIC	__real@42480000
PUBLIC	__real@424d0000
PUBLIC	__real@42610000
PUBLIC	__real@42700000
PUBLIC	__real@42870000
PUBLIC	__real@42960000
PUBLIC	__real@42a00000
PUBLIC	__real@42aa0000
PUBLIC	__real@42b00000
PUBLIC	__real@42b20000
PUBLIC	__real@42b40000
PUBLIC	__real@42be0000
PUBLIC	__real@42c60000
PUBLIC	__real@42c80000
PUBLIC	__real@43020000
PUBLIC	__real@431c4000
PUBLIC	__real@43340000
PUBLIC	__real@43480000
PUBLIC	__real@43610000
PUBLIC	__real@437a0000
PUBLIC	__real@437f0000
PUBLIC	__real@43960000
PUBLIC	__real@43b40000
PUBLIC	__real@43c80000
PUBLIC	__real@44000000
PUBLIC	__real@441c4000
PUBLIC	__real@44480000
PUBLIC	__real@447a0000
PUBLIC	__real@44800000
PUBLIC	__real@44ed6000
PUBLIC	__real@451c4000
PUBLIC	__real@45242900
PUBLIC	__real@45afc800
PUBLIC	__real@460c9c00
PUBLIC	__real@460ca000
PUBLIC	__real@461c3f9a
PUBLIC	__real@461c3ff6
PUBLIC	__real@461c4000
PUBLIC	__real@46afc800
PUBLIC	__real@47c34ff3
PUBLIC	__real@47c34fff
PUBLIC	__real@47c35000
PUBLIC	__real@4b18967f
PUBLIC	__real@4b189680
PUBLIC	__real@bc23d70a
PUBLIC	__real@bf2147ae
PUBLIC	__real@bf800000
PUBLIC	__real@c0000000
PUBLIC	__real@c1200000
PUBLIC	__real@c2040000
PUBLIC	__real@c2340000
PUBLIC	__real@c2480000
PUBLIC	__real@c2a00000
PUBLIC	__real@c2aa0000
PUBLIC	__real@c2b40000
PUBLIC	__real@c2c80000
PUBLIC	__real@c3340000
PUBLIC	__real@c3960000
PUBLIC	__real@c47a0000
PUBLIC	__xmm@41f00000000000000000000000000000
PUBLIC	__xmm@7fffffffffffffff7fffffffffffffff
PUBLIC	__xmm@80000000000000008000000000000000
PUBLIC	__xmm@80000000800000008000000080000000
EXTRN	__purecall:PROC
EXTRN	??2@YAPAXI@Z:PROC				; operator new
EXTRN	??3@YAXPAX@Z:PROC				; operator delete
EXTRN	_atexit:PROC
EXTRN	__imp___wassert:PROC
EXTRN	__imp__atof:PROC
EXTRN	__imp__ceil:PROC
EXTRN	__imp__atoi:PROC
EXTRN	??_V@YAXPAX@Z:PROC				; operator delete[]
EXTRN	??_U@YAPAXI@Z:PROC				; operator new[]
EXTRN	__imp__fclose:PROC
EXTRN	__imp__feof:PROC
EXTRN	__imp__fgets:PROC
EXTRN	__imp__fopen:PROC
EXTRN	__imp__fprintf:PROC
EXTRN	__imp__remove:PROC
EXTRN	__imp__rename:PROC
EXTRN	__imp__sscanf:PROC
EXTRN	__imp__vsprintf_s:PROC
EXTRN	__imp__sprintf:PROC
EXTRN	__imp___stricmp:PROC
EXTRN	__imp__GetCurrentThreadId@0:PROC
EXTRN	__imp__OutputDebugStringA@4:PROC
EXTRN	__imp___localtime64:PROC
EXTRN	__imp___mktime64:PROC
EXTRN	__imp___time64:PROC
EXTRN	?SetThreadTrackingInformation@@YAXPBDI0@Z:PROC	; SetThreadTrackingInformation
EXTRN	?Random_Float@WWMath@@SAMXZ:PROC		; WWMath::Random_Float
EXTRN	??0ScriptImpClass@@QAE@XZ:PROC			; ScriptImpClass::ScriptImpClass
EXTRN	?CheckPlayerType@ScriptImpClass@@QAEHPAVScriptableGameObj@@H@Z:PROC ; ScriptImpClass::CheckPlayerType
EXTRN	??1ScriptImpClass@@UAE@XZ:PROC			; ScriptImpClass::~ScriptImpClass
EXTRN	?Get_Name@ScriptImpClass@@UAEPBDXZ:PROC		; ScriptImpClass::Get_Name
EXTRN	?Set_Parameters_String@ScriptImpClass@@UAEXPBD@Z:PROC ; ScriptImpClass::Set_Parameters_String
EXTRN	?Get_Parameters_String@ScriptImpClass@@UAEXPADI@Z:PROC ; ScriptImpClass::Get_Parameters_String
EXTRN	?Get_Parameter@ScriptImpClass@@QAEPBDPBD@Z:PROC	; ScriptImpClass::Get_Parameter
EXTRN	?Get_Parameter@ScriptImpClass@@QAEPBDH@Z:PROC	; ScriptImpClass::Get_Parameter
EXTRN	?Get_Int_Parameter@ScriptImpClass@@QAEHPBD@Z:PROC ; ScriptImpClass::Get_Int_Parameter
EXTRN	?Get_Float_Parameter@ScriptImpClass@@QAEMPBD@Z:PROC ; ScriptImpClass::Get_Float_Parameter
EXTRN	?Get_Vector3_Parameter@ScriptImpClass@@QAE?AVVector3@@PBD@Z:PROC ; ScriptImpClass::Get_Vector3_Parameter
EXTRN	?Attach@ScriptImpClass@@MAEXPAVScriptableGameObj@@@Z:PROC ; ScriptImpClass::Attach
EXTRN	?Detach@ScriptImpClass@@MAEXPAVScriptableGameObj@@@Z:PROC ; ScriptImpClass::Detach
EXTRN	?Save@ScriptImpClass@@MAEXAAVScriptSaver@@@Z:PROC ; ScriptImpClass::Save
EXTRN	?Load@ScriptImpClass@@MAEXAAVScriptLoader@@@Z:PROC ; ScriptImpClass::Load
EXTRN	??1ScriptFactory@@UAE@XZ:PROC			; ScriptFactory::~ScriptFactory
EXTRN	??0ScriptFactory@@IAE@PBD0@Z:PROC		; ScriptFactory::ScriptFactory
EXTRN	?Console_Input@@YAXPBD@Z:PROC			; Console_Input
EXTRN	??1ThreadClass@@UAE@XZ:PROC			; ThreadClass::~ThreadClass
EXTRN	__imp_?Free_String@StringClass@@AAEXXZ:PROC
EXTRN	__imp_?Free_String@WideStringClass@@AAEXXZ:PROC
EXTRN	?Find_Entry@INIClass@@QBEPAUINIEntry@@PBD0@Z:PROC ; INIClass::Find_Entry
EXTRN	?Find_Section@INIClass@@QBEPAUINISection@@PBD@Z:PROC ; INIClass::Find_Section
EXTRN	??1INIClass@@UAE@XZ:PROC			; INIClass::~INIClass
EXTRN	?Get_File_Path@@YAPBDXZ:PROC			; Get_File_Path
EXTRN	?Set@Matrix3D@@QAEXABVMatrix3@@ABVVector3@@@Z:PROC ; Matrix3D::Set
EXTRN	?Set@Matrix3D@@QAEXABVQuaternion@@ABVVector3@@@Z:PROC ; Matrix3D::Set
EXTRN	?Send_Custom_All_Objects_Area@@YAXHABVVector3@@MPAVScriptableGameObj@@H@Z:PROC ; Send_Custom_All_Objects_Area
EXTRN	?Get_GameObj@@YAPAVScriptableGameObj@@H@Z:PROC	; Get_GameObj
EXTRN	?Get_Player_ID@@YAJPAVScriptableGameObj@@@Z:PROC ; Get_Player_ID
EXTRN	?Get_Player_Name@@YAPBDPAVScriptableGameObj@@@Z:PROC ; Get_Player_Name
EXTRN	?Get_Player_Name_By_ID@@YAPBDH@Z:PROC		; Get_Player_Name_By_ID
EXTRN	?Set_Money@@YAXHM@Z:PROC			; Set_Money
EXTRN	?Get_Player_Type@@YAHPAVScriptableGameObj@@@Z:PROC ; Get_Player_Type
EXTRN	?Get_Bullets@@YAHPAVScriptableGameObj@@PBD@Z:PROC ; Get_Bullets
EXTRN	?Get_Total_Bullets@@YAHPAVScriptableGameObj@@PBD@Z:PROC ; Get_Total_Bullets
EXTRN	?Get_Current_Bullets@@YAHPAVScriptableGameObj@@@Z:PROC ; Get_Current_Bullets
EXTRN	?Get_Current_Clip_Bullets@@YAHPAVScriptableGameObj@@@Z:PROC ; Get_Current_Clip_Bullets
EXTRN	?Get_Current_Total_Bullets@@YAHPAVScriptableGameObj@@@Z:PROC ; Get_Current_Total_Bullets
EXTRN	?Get_Current_Weapon@@YAPBDPAVScriptableGameObj@@@Z:PROC ; Get_Current_Weapon
EXTRN	?Get_Vehicle@@YAPAVScriptableGameObj@@PAV1@@Z:PROC ; Get_Vehicle
EXTRN	?Get_Vehicle_Driver@@YAPAVScriptableGameObj@@PAV1@@Z:PROC ; Get_Vehicle_Driver
EXTRN	?Force_Occupants_Exit@@YAXPAVScriptableGameObj@@@Z:PROC ; Force_Occupants_Exit
EXTRN	?Get_Vehicle_Return@@YAPAVScriptableGameObj@@PAV1@@Z:PROC ; Get_Vehicle_Return
EXTRN	?Soldier_Transition_Vehicle@@YAXPAVScriptableGameObj@@@Z:PROC ; Soldier_Transition_Vehicle
EXTRN	?Set@Matrix3@@QAEXABVQuaternion@@@Z:PROC	; Matrix3::Set
EXTRN	??1ReferencerClass@@UAE@XZ:PROC			; ReferencerClass::~ReferencerClass
EXTRN	?On_Post_Load@ReferencerClass@@UAEXXZ:PROC	; ReferencerClass::On_Post_Load
EXTRN	??4ReferencerClass@@QAEAAV0@PAVScriptableGameObj@@@Z:PROC ; ReferencerClass::operator=
EXTRN	?Set@LineSegClass@@QAEXABV1@ABVMatrix3D@@@Z:PROC ; LineSegClass::Set
EXTRN	?Set_Max_Health@@YAXPAVScriptableGameObj@@M@Z:PROC ; Set_Max_Health
EXTRN	?Set_Max_Shield_Strength@@YAXPAVScriptableGameObj@@M@Z:PROC ; Set_Max_Shield_Strength
EXTRN	?Get_Shield_Type@@YAPBDPAVScriptableGameObj@@@Z:PROC ; Get_Shield_Type
EXTRN	?Get_Skin@@YAPBDPAVScriptableGameObj@@@Z:PROC	; Get_Skin
EXTRN	?Set_Skin@@YAXPAVScriptableGameObj@@PBD@Z:PROC	; Set_Skin
EXTRN	?Get_Model@@YAPBDPAVScriptableGameObj@@@Z:PROC	; Get_Model
EXTRN	?Get_Animation_Frame@@YAMPAVScriptableGameObj@@@Z:PROC ; Get_Animation_Frame
EXTRN	?Get_Mass@@YAMPAVScriptableGameObj@@@Z:PROC	; Get_Mass
EXTRN	?Get_Sex@@YADPAVScriptableGameObj@@@Z:PROC	; Get_Sex
EXTRN	?Remove_Script@@YAXPAVScriptableGameObj@@PBD@Z:PROC ; Remove_Script
EXTRN	?Is_Script_Attached@@YA_NPAVScriptableGameObj@@PBD@Z:PROC ; Is_Script_Attached
EXTRN	?Attach_Script_Once@@YAXPAVScriptableGameObj@@PBD1@Z:PROC ; Attach_Script_Once
EXTRN	?Detach@JFW_Key_Hook_Base@@UAEXPAVScriptableGameObj@@@Z:PROC ; JFW_Key_Hook_Base::Detach
EXTRN	?Destroyed@JFW_Key_Hook_Base@@UAEXPAVScriptableGameObj@@@Z:PROC ; JFW_Key_Hook_Base::Destroyed
EXTRN	??1JFW_Key_Hook_Base@@UAE@XZ:PROC		; JFW_Key_Hook_Base::~JFW_Key_Hook_Base
EXTRN	?Detach@MultiKeyHookScriptImpClass@@UAEXPAVScriptableGameObj@@@Z:PROC ; MultiKeyHookScriptImpClass::Detach
EXTRN	?Destroyed@MultiKeyHookScriptImpClass@@UAEXPAVScriptableGameObj@@@Z:PROC ; MultiKeyHookScriptImpClass::Destroyed
EXTRN	??_E?$SList@UKeyHookWrapperStruct@MultiKeyHookScriptImpClass@@@@UAEPAXI@Z:PROC ; SList<MultiKeyHookScriptImpClass::KeyHookWrapperStruct>::`vector deleting destructor'
EXTRN	?Detach@JFW_Object_Created_Hook_Base@@UAEXPAVScriptableGameObj@@@Z:PROC ; JFW_Object_Created_Hook_Base::Detach
EXTRN	?Created@JFW_Object_Created_Hook_Base@@UAEXPAVScriptableGameObj@@@Z:PROC ; JFW_Object_Created_Hook_Base::Created
EXTRN	??1JFW_Object_Created_Hook_Base@@UAE@XZ:PROC	; JFW_Object_Created_Hook_Base::~JFW_Object_Created_Hook_Base
EXTRN	?Force_Vehicle_Entry@@YAXPAVScriptableGameObj@@0@Z:PROC ; Force_Vehicle_Entry
EXTRN	__imp___mkdir:PROC
EXTRN	??_EJMG_CMTB_Main_Game_Control@@UAEPAXI@Z:PROC	; JMG_CMTB_Main_Game_Control::`vector deleting destructor'
EXTRN	??_EJMG_CMTB_UFO_Random_Fire_Control@@UAEPAXI@Z:PROC ; JMG_CMTB_UFO_Random_Fire_Control::`vector deleting destructor'
EXTRN	??_EJMG_CMTB_Ship_Control_Script@@UAEPAXI@Z:PROC ; JMG_CMTB_Ship_Control_Script::`vector deleting destructor'
EXTRN	??_EJMG_CMTB_Comet_Script@@UAEPAXI@Z:PROC	; JMG_CMTB_Comet_Script::`vector deleting destructor'
EXTRN	??_EJMG_CMTB_Zone_Realign_Enter@@UAEPAXI@Z:PROC	; JMG_CMTB_Zone_Realign_Enter::`vector deleting destructor'
EXTRN	??_EJMG_CMTB_Spectator_Object@@UAEPAXI@Z:PROC	; JMG_CMTB_Spectator_Object::`vector deleting destructor'
EXTRN	??_EJMG_CMTB_Arcade_Machine@@UAEPAXI@Z:PROC	; JMG_CMTB_Arcade_Machine::`vector deleting destructor'
EXTRN	??_EJMG_CMTB_Fake_Player_Attach_Script@@UAEPAXI@Z:PROC ; JMG_CMTB_Fake_Player_Attach_Script::`vector deleting destructor'
EXTRN	??_EJMG_CMTB_Renegade_Code@@UAEPAXI@Z:PROC	; JMG_CMTB_Renegade_Code::`vector deleting destructor'
EXTRN	??_EJMG_CMTB_Motion_Mine@@UAEPAXI@Z:PROC	; JMG_CMTB_Motion_Mine::`vector deleting destructor'
EXTRN	??_EJMG_CMTB_The_Moon_Script@@UAEPAXI@Z:PROC	; JMG_CMTB_The_Moon_Script::`vector deleting destructor'
EXTRN	??_EJMG_CMTB_Ship_Super_Weapon@@UAEPAXI@Z:PROC	; JMG_CMTB_Ship_Super_Weapon::`vector deleting destructor'
EXTRN	??_EJMG_CMTB_Powerup_Script@@UAEPAXI@Z:PROC	; JMG_CMTB_Powerup_Script::`vector deleting destructor'
EXTRN	??_EJMG_CMTB_Cargo_Ship_Script@@UAEPAXI@Z:PROC	; JMG_CMTB_Cargo_Ship_Script::`vector deleting destructor'
EXTRN	??_EJMG_CMTB_Cargo_Ship_Turret@@UAEPAXI@Z:PROC	; JMG_CMTB_Cargo_Ship_Turret::`vector deleting destructor'
EXTRN	??_EJMG_CMTB_Player_Drone@@UAEPAXI@Z:PROC	; JMG_CMTB_Player_Drone::`vector deleting destructor'
EXTRN	??_EJMG_Create_Ship_On_Poke@@UAEPAXI@Z:PROC	; JMG_Create_Ship_On_Poke::`vector deleting destructor'
EXTRN	??_EJMG_Advanced_Bounce_Zone@@UAEPAXI@Z:PROC	; JMG_Advanced_Bounce_Zone::`vector deleting destructor'
EXTRN	??_EJMG_Ship_Random_Hyperspace@@UAEPAXI@Z:PROC	; JMG_Ship_Random_Hyperspace::`vector deleting destructor'
EXTRN	??_EJMG_Random_Music@@UAEPAXI@Z:PROC		; JMG_Random_Music::`vector deleting destructor'
EXTRN	??_EJMG_Ship_Weapon@@UAEPAXI@Z:PROC		; JMG_Ship_Weapon::`vector deleting destructor'
EXTRN	??_EJMG_Return_Custom_When_Shot@@UAEPAXI@Z:PROC	; JMG_Return_Custom_When_Shot::`vector deleting destructor'
EXTRN	??_EJMG_Cronie_AI@@UAEPAXI@Z:PROC		; JMG_Cronie_AI::`vector deleting destructor'
EXTRN	??_EJMG_Kill_Self_And_Sender_On_Custom@@UAEPAXI@Z:PROC ; JMG_Kill_Self_And_Sender_On_Custom::`vector deleting destructor'
EXTRN	??_EJMG_Ship_Shield_Control_Script@@UAEPAXI@Z:PROC ; JMG_Ship_Shield_Control_Script::`vector deleting destructor'
EXTRN	??_EJMG_Kill_Self_And_Sender_On_Custom_Ship@@UAEPAXI@Z:PROC ; JMG_Kill_Self_And_Sender_On_Custom_Ship::`vector deleting destructor'
EXTRN	??_EJMG_Ship_Shield_Script@@UAEPAXI@Z:PROC	; JMG_Ship_Shield_Script::`vector deleting destructor'
EXTRN	??_EJMG_Renetbusters_Object@@UAEPAXI@Z:PROC	; JMG_Renetbusters_Object::`vector deleting destructor'
EXTRN	??_EJMG_New_Ship_Weapon_Control_System@@UAEPAXI@Z:PROC ; JMG_New_Ship_Weapon_Control_System::`vector deleting destructor'
EXTRN	??_EJMG_Comet_Control_Script@@UAEPAXI@Z:PROC	; JMG_Comet_Control_Script::`vector deleting destructor'
EXTRN	??_EJMG_Attach_And_Remove@@UAEPAXI@Z:PROC	; JMG_Attach_And_Remove::`vector deleting destructor'
EXTRN	??_EJMG_User_Auto_Enter_Ship@@UAEPAXI@Z:PROC	; JMG_User_Auto_Enter_Ship::`vector deleting destructor'
EXTRN	??_EJMG_Apply_Damage_On_Timer@@UAEPAXI@Z:PROC	; JMG_Apply_Damage_On_Timer::`vector deleting destructor'
EXTRN	??_EJMG_CMTB_Vehicle_Face_Turret@@UAEPAXI@Z:PROC ; JMG_CMTB_Vehicle_Face_Turret::`vector deleting destructor'
EXTRN	??_EJMG_CMTB_Poke_End_Map@@UAEPAXI@Z:PROC	; JMG_CMTB_Poke_End_Map::`vector deleting destructor'
EXTRN	??_EJMG_CMTB_Poke_Change_Difficulty@@UAEPAXI@Z:PROC ; JMG_CMTB_Poke_Change_Difficulty::`vector deleting destructor'
EXTRN	??_E?$ScriptRegistrant@VJMG_Create_Ship_On_Poke@@@@UAEPAXI@Z:PROC ; ScriptRegistrant<JMG_Create_Ship_On_Poke>::`vector deleting destructor'
EXTRN	??_E?$ScriptRegistrant@VJMG_Advanced_Bounce_Zone@@@@UAEPAXI@Z:PROC ; ScriptRegistrant<JMG_Advanced_Bounce_Zone>::`vector deleting destructor'
EXTRN	??_E?$ScriptRegistrant@VJMG_Ship_Random_Hyperspace@@@@UAEPAXI@Z:PROC ; ScriptRegistrant<JMG_Ship_Random_Hyperspace>::`vector deleting destructor'
EXTRN	??_E?$ScriptRegistrant@VJMG_Random_Music@@@@UAEPAXI@Z:PROC ; ScriptRegistrant<JMG_Random_Music>::`vector deleting destructor'
EXTRN	??_E?$ScriptRegistrant@VJMG_Ship_Weapon@@@@UAEPAXI@Z:PROC ; ScriptRegistrant<JMG_Ship_Weapon>::`vector deleting destructor'
EXTRN	??_E?$ScriptRegistrant@VJMG_Return_Custom_When_Shot@@@@UAEPAXI@Z:PROC ; ScriptRegistrant<JMG_Return_Custom_When_Shot>::`vector deleting destructor'
EXTRN	??_E?$ScriptRegistrant@VJMG_Cronie_AI@@@@UAEPAXI@Z:PROC ; ScriptRegistrant<JMG_Cronie_AI>::`vector deleting destructor'
EXTRN	??_E?$ScriptRegistrant@VJMG_Kill_Self_And_Sender_On_Custom@@@@UAEPAXI@Z:PROC ; ScriptRegistrant<JMG_Kill_Self_And_Sender_On_Custom>::`vector deleting destructor'
EXTRN	??_E?$ScriptRegistrant@VJMG_Ship_Shield_Control_Script@@@@UAEPAXI@Z:PROC ; ScriptRegistrant<JMG_Ship_Shield_Control_Script>::`vector deleting destructor'
EXTRN	??_E?$ScriptRegistrant@VJMG_Kill_Self_And_Sender_On_Custom_Ship@@@@UAEPAXI@Z:PROC ; ScriptRegistrant<JMG_Kill_Self_And_Sender_On_Custom_Ship>::`vector deleting destructor'
EXTRN	??_E?$ScriptRegistrant@VJMG_Ship_Shield_Script@@@@UAEPAXI@Z:PROC ; ScriptRegistrant<JMG_Ship_Shield_Script>::`vector deleting destructor'
EXTRN	??_E?$ScriptRegistrant@VJMG_Renetbusters_Object@@@@UAEPAXI@Z:PROC ; ScriptRegistrant<JMG_Renetbusters_Object>::`vector deleting destructor'
EXTRN	??_E?$ScriptRegistrant@VJMG_New_Ship_Weapon_Control_System@@@@UAEPAXI@Z:PROC ; ScriptRegistrant<JMG_New_Ship_Weapon_Control_System>::`vector deleting destructor'
EXTRN	??_E?$ScriptRegistrant@VJMG_Comet_Control_Script@@@@UAEPAXI@Z:PROC ; ScriptRegistrant<JMG_Comet_Control_Script>::`vector deleting destructor'
EXTRN	??_E?$ScriptRegistrant@VJMG_Attach_And_Remove@@@@UAEPAXI@Z:PROC ; ScriptRegistrant<JMG_Attach_And_Remove>::`vector deleting destructor'
EXTRN	??_E?$ScriptRegistrant@VJMG_User_Auto_Enter_Ship@@@@UAEPAXI@Z:PROC ; ScriptRegistrant<JMG_User_Auto_Enter_Ship>::`vector deleting destructor'
EXTRN	??_E?$ScriptRegistrant@VJMG_Apply_Damage_On_Timer@@@@UAEPAXI@Z:PROC ; ScriptRegistrant<JMG_Apply_Damage_On_Timer>::`vector deleting destructor'
EXTRN	??_E?$ScriptRegistrant@VJMG_CMTB_Main_Game_Control@@@@UAEPAXI@Z:PROC ; ScriptRegistrant<JMG_CMTB_Main_Game_Control>::`vector deleting destructor'
EXTRN	??_E?$ScriptRegistrant@VJMG_CMTB_Ship_Control_Script@@@@UAEPAXI@Z:PROC ; ScriptRegistrant<JMG_CMTB_Ship_Control_Script>::`vector deleting destructor'
EXTRN	??_E?$ScriptRegistrant@VJMG_CMTB_UFO_Random_Fire_Control@@@@UAEPAXI@Z:PROC ; ScriptRegistrant<JMG_CMTB_UFO_Random_Fire_Control>::`vector deleting destructor'
EXTRN	??_E?$ScriptRegistrant@VJMG_CMTB_Comet_Script@@@@UAEPAXI@Z:PROC ; ScriptRegistrant<JMG_CMTB_Comet_Script>::`vector deleting destructor'
EXTRN	??_E?$ScriptRegistrant@VJMG_CMTB_Zone_Realign_Enter@@@@UAEPAXI@Z:PROC ; ScriptRegistrant<JMG_CMTB_Zone_Realign_Enter>::`vector deleting destructor'
EXTRN	??_E?$ScriptRegistrant@VJMG_CMTB_Spectator_Object@@@@UAEPAXI@Z:PROC ; ScriptRegistrant<JMG_CMTB_Spectator_Object>::`vector deleting destructor'
EXTRN	??_E?$ScriptRegistrant@VJMG_CMTB_Arcade_Machine@@@@UAEPAXI@Z:PROC ; ScriptRegistrant<JMG_CMTB_Arcade_Machine>::`vector deleting destructor'
EXTRN	??_E?$ScriptRegistrant@VJMG_CMTB_Fake_Player_Attach_Script@@@@UAEPAXI@Z:PROC ; ScriptRegistrant<JMG_CMTB_Fake_Player_Attach_Script>::`vector deleting destructor'
EXTRN	??_E?$ScriptRegistrant@VJMG_CMTB_Renegade_Code@@@@UAEPAXI@Z:PROC ; ScriptRegistrant<JMG_CMTB_Renegade_Code>::`vector deleting destructor'
EXTRN	??_E?$ScriptRegistrant@VJMG_CMTB_Motion_Mine@@@@UAEPAXI@Z:PROC ; ScriptRegistrant<JMG_CMTB_Motion_Mine>::`vector deleting destructor'
EXTRN	??_E?$ScriptRegistrant@VJMG_CMTB_The_Moon_Script@@@@UAEPAXI@Z:PROC ; ScriptRegistrant<JMG_CMTB_The_Moon_Script>::`vector deleting destructor'
EXTRN	??_E?$ScriptRegistrant@VJMG_CMTB_Ship_Super_Weapon@@@@UAEPAXI@Z:PROC ; ScriptRegistrant<JMG_CMTB_Ship_Super_Weapon>::`vector deleting destructor'
EXTRN	??_E?$ScriptRegistrant@VJMG_CMTB_Powerup_Script@@@@UAEPAXI@Z:PROC ; ScriptRegistrant<JMG_CMTB_Powerup_Script>::`vector deleting destructor'
EXTRN	??_E?$ScriptRegistrant@VJMG_CMTB_Cargo_Ship_Script@@@@UAEPAXI@Z:PROC ; ScriptRegistrant<JMG_CMTB_Cargo_Ship_Script>::`vector deleting destructor'
EXTRN	??_E?$ScriptRegistrant@VJMG_CMTB_Cargo_Ship_Turret@@@@UAEPAXI@Z:PROC ; ScriptRegistrant<JMG_CMTB_Cargo_Ship_Turret>::`vector deleting destructor'
EXTRN	??_E?$ScriptRegistrant@VJMG_CMTB_Player_Drone@@@@UAEPAXI@Z:PROC ; ScriptRegistrant<JMG_CMTB_Player_Drone>::`vector deleting destructor'
EXTRN	??_E?$ScriptRegistrant@VJMG_CMTB_Vehicle_Face_Turret@@@@UAEPAXI@Z:PROC ; ScriptRegistrant<JMG_CMTB_Vehicle_Face_Turret>::`vector deleting destructor'
EXTRN	??_E?$ScriptRegistrant@VJMG_CMTB_Poke_End_Map@@@@UAEPAXI@Z:PROC ; ScriptRegistrant<JMG_CMTB_Poke_End_Map>::`vector deleting destructor'
EXTRN	??_E?$ScriptRegistrant@VJMG_CMTB_Poke_Change_Difficulty@@@@UAEPAXI@Z:PROC ; ScriptRegistrant<JMG_CMTB_Poke_Change_Difficulty>::`vector deleting destructor'
EXTRN	__CIatan2:PROC
EXTRN	__chkstk:PROC
EXTRN	__libm_sse2_acos_precise:PROC
EXTRN	__libm_sse2_asin_precise:PROC
EXTRN	__libm_sse2_atan_precise:PROC
EXTRN	__libm_sse2_cos_precise:PROC
EXTRN	__libm_sse2_sin_precise:PROC
EXTRN	__libm_sse2_sqrt_precise:PROC
EXTRN	__libm_sse2_tan_precise:PROC
EXTRN	_floor:PROC
EXTRN	??_7type_info@@6B@:QWORD			; type_info::`vftable'
EXTRN	?_FastAcosTable@@3AAV?$RefArrayHelper@M$0EAA@@@A:DWORD ; _FastAcosTable
EXTRN	?_FastAsinTable@@3AAV?$RefArrayHelper@M$0EAA@@@A:DWORD ; _FastAsinTable
EXTRN	?_FastSinTable@@3AAV?$RefArrayHelper@M$0EAA@@@A:DWORD ; _FastSinTable
EXTRN	?Commands@@3PAUScriptCommands@@A:DWORD		; Commands
EXTRN	?Set_Current_Bullets@@3P6AXPAVScriptableGameObj@@H@ZA:DWORD ; Set_Current_Bullets
EXTRN	?Set_Current_Clip_Bullets@@3P6AXPAVScriptableGameObj@@H@ZA:DWORD ; Set_Current_Clip_Bullets
EXTRN	?Set_Bullets@@3P6AXPAVScriptableGameObj@@PBDH@ZA:DWORD ; Set_Bullets
EXTRN	?Set_Background_Music_Player@@3P6AXPAVScriptableGameObj@@PBD@ZA:DWORD ; Set_Background_Music_Player
EXTRN	?Fade_Background_Music_Player@@3P6AXPAVScriptableGameObj@@PBDHH@ZA:DWORD ; Fade_Background_Music_Player
EXTRN	?Set_Screen_Fade_Color_Player@@3P6AXPAVScriptableGameObj@@MMMM@ZA:DWORD ; Set_Screen_Fade_Color_Player
EXTRN	?Set_Screen_Fade_Opacity_Player@@3P6AXPAVScriptableGameObj@@MM@ZA:DWORD ; Set_Screen_Fade_Opacity_Player
EXTRN	?Force_Camera_Look_Player@@3P6AXPAVScriptableGameObj@@ABVVector3@@@ZA:DWORD ; Force_Camera_Look_Player
EXTRN	?Create_2D_Sound_Player@@3P6AHPAVScriptableGameObj@@PBD@ZA:DWORD ; Create_2D_Sound_Player
EXTRN	?Create_2D_WAV_Sound_Player@@3P6AHPAVScriptableGameObj@@PBD@ZA:DWORD ; Create_2D_WAV_Sound_Player
EXTRN	?Send_Message_Player@@3P6AXPAVScriptableGameObj@@IIIPBD@ZA:DWORD ; Send_Message_Player
EXTRN	?Update_Network_Object@@3P6AXPAVNetworkObjectClass@@@ZA:DWORD ; Update_Network_Object
EXTRN	?Force_Position_Update@@3P6AXPAVScriptableGameObj@@@ZA:DWORD ; Force_Position_Update
EXTRN	?Set_HUD_Help_Text_Player_Text@@3P6AXPAVScriptableGameObj@@HPBDVVector3@@@ZA:DWORD ; Set_HUD_Help_Text_Player_Text
EXTRN	?Force_Orientation_Update@@3P6AXPAVScriptableGameObj@@@ZA:DWORD ; Force_Orientation_Update
EXTRN	?Force_Velocity_Update@@3P6AXPAVScriptableGameObj@@@ZA:DWORD ; Force_Velocity_Update
EXTRN	__fltused:DWORD
;	COMDAT ?FinalString@?1??Rp2Encrypt@JmgUtility@@SAPADPBDHH@Z@4PADA
_BSS	SEGMENT
?FinalString@?1??Rp2Encrypt@JmgUtility@@SAPADPBDHH@Z@4PADA DB 010000H DUP (?) ; `JmgUtility::Rp2Encrypt'::`2'::FinalString
_BSS	ENDS
;	COMDAT ?FinalString@?1??Rp2Encrypt2@JmgUtility@@SAPADPBDHH@Z@4PADA
_BSS	SEGMENT
?FinalString@?1??Rp2Encrypt2@JmgUtility@@SAPADPBDHH@Z@4PADA DB 010000H DUP (?) ; `JmgUtility::Rp2Encrypt2'::`2'::FinalString
_BSS	ENDS
;	COMDAT ?FinalString@?1??Rp2Decrypt@JmgUtility@@SAPADPBDHH@Z@4PADA
_BSS	SEGMENT
?FinalString@?1??Rp2Decrypt@JmgUtility@@SAPADPBDHH@Z@4PADA DB 010020H DUP (?) ; `JmgUtility::Rp2Decrypt'::`2'::FinalString
_BSS	ENDS
_BSS	SEGMENT
?PerkTypeSystem@@3VPerkSystemPerkTypeList@@A DB 02cH DUP (?) ; PerkTypeSystem
	ALIGN	8

?PlayerPerkSystemControl@@3VPlayerPerksNodeControlSystem@@A DQ 01H DUP (?) ; PlayerPerkSystemControl
_BSS	ENDS
;	COMDAT ?RetChar@?1??ReturnScore@RenCometBustersScoreSystem@@QAEPADPAUCMTBHighScoresNode@2@H@Z@4PADA
_BSS	SEGMENT
?RetChar@?1??ReturnScore@RenCometBustersScoreSystem@@QAEPADPAUCMTBHighScoresNode@2@H@Z@4PADA DB 0c8H DUP (?) ; `RenCometBustersScoreSystem::ReturnScore'::`2'::RetChar
_BSS	ENDS
_BSS	SEGMENT
?RenCometBustersScoreControl@@3URenCometBustersScoreSystem@@A DB 02090H DUP (?) ; RenCometBustersScoreControl
?MiniGamePlayerControlSystem@@3PAURenCometBustersPlayerNode@@A DB 012a0H DUP (?) ; MiniGamePlayerControlSystem
?RenCometBustersList@@3VRenCometBustersGameObjects@@A DD 01H DUP (?) ; RenCometBustersList
?JMG_Create_Ship_On_Poke_Registrant@@3V?$ScriptRegistrant@VJMG_Create_Ship_On_Poke@@@@A DB 010H DUP (?) ; JMG_Create_Ship_On_Poke_Registrant
?JMG_Advanced_Bounce_Zone_Registrant@@3V?$ScriptRegistrant@VJMG_Advanced_Bounce_Zone@@@@A DB 010H DUP (?) ; JMG_Advanced_Bounce_Zone_Registrant
?JMG_Ship_Random_Hyperspace_Registrant@@3V?$ScriptRegistrant@VJMG_Ship_Random_Hyperspace@@@@A DB 010H DUP (?) ; JMG_Ship_Random_Hyperspace_Registrant
?JMG_Random_Music_Registrant@@3V?$ScriptRegistrant@VJMG_Random_Music@@@@A DB 010H DUP (?) ; JMG_Random_Music_Registrant
?JMG_Ship_Weapon_Registrant@@3V?$ScriptRegistrant@VJMG_Ship_Weapon@@@@A DB 010H DUP (?) ; JMG_Ship_Weapon_Registrant
?JMG_Return_Custom_When_Shot_Registrant@@3V?$ScriptRegistrant@VJMG_Return_Custom_When_Shot@@@@A DB 010H DUP (?) ; JMG_Return_Custom_When_Shot_Registrant
?JMG_Cronie_AI_Registrant@@3V?$ScriptRegistrant@VJMG_Cronie_AI@@@@A DB 010H DUP (?) ; JMG_Cronie_AI_Registrant
?JMG_Kill_Self_And_Sender_On_Custom_Registrant@@3V?$ScriptRegistrant@VJMG_Kill_Self_And_Sender_On_Custom@@@@A DB 010H DUP (?) ; JMG_Kill_Self_And_Sender_On_Custom_Registrant
?JMG_Ship_Shield_Control_Script_Registrant@@3V?$ScriptRegistrant@VJMG_Ship_Shield_Control_Script@@@@A DB 010H DUP (?) ; JMG_Ship_Shield_Control_Script_Registrant
?JMG_Kill_Self_And_Sender_On_Custom_Ship_Registrant@@3V?$ScriptRegistrant@VJMG_Kill_Self_And_Sender_On_Custom_Ship@@@@A DB 010H DUP (?) ; JMG_Kill_Self_And_Sender_On_Custom_Ship_Registrant
?JMG_Ship_Shield_Script_Registrant@@3V?$ScriptRegistrant@VJMG_Ship_Shield_Script@@@@A DB 010H DUP (?) ; JMG_Ship_Shield_Script_Registrant
?JMG_Renetbusters_Object_Registrant@@3V?$ScriptRegistrant@VJMG_Renetbusters_Object@@@@A DB 010H DUP (?) ; JMG_Renetbusters_Object_Registrant
?JMG_New_Ship_Weapon_Control_System_Registrant@@3V?$ScriptRegistrant@VJMG_New_Ship_Weapon_Control_System@@@@A DB 010H DUP (?) ; JMG_New_Ship_Weapon_Control_System_Registrant
?JMG_Comet_Control_Script_Registrant@@3V?$ScriptRegistrant@VJMG_Comet_Control_Script@@@@A DB 010H DUP (?) ; JMG_Comet_Control_Script_Registrant
?JMG_Attach_And_Remove_Registrant@@3V?$ScriptRegistrant@VJMG_Attach_And_Remove@@@@A DB 010H DUP (?) ; JMG_Attach_And_Remove_Registrant
?JMG_User_Auto_Enter_Ship_Registrant@@3V?$ScriptRegistrant@VJMG_User_Auto_Enter_Ship@@@@A DB 010H DUP (?) ; JMG_User_Auto_Enter_Ship_Registrant
?JMG_Apply_Damage_On_Timer_Registrant@@3V?$ScriptRegistrant@VJMG_Apply_Damage_On_Timer@@@@A DB 010H DUP (?) ; JMG_Apply_Damage_On_Timer_Registrant
?JMG_CMTB_Main_Game_Control_Registrant@@3V?$ScriptRegistrant@VJMG_CMTB_Main_Game_Control@@@@A DB 010H DUP (?) ; JMG_CMTB_Main_Game_Control_Registrant
?JMG_CMTB_Ship_Control_Script_Registrant@@3V?$ScriptRegistrant@VJMG_CMTB_Ship_Control_Script@@@@A DB 010H DUP (?) ; JMG_CMTB_Ship_Control_Script_Registrant
?JMG_CMTB_UFO_Random_Fire_Control_Registrant@@3V?$ScriptRegistrant@VJMG_CMTB_UFO_Random_Fire_Control@@@@A DB 010H DUP (?) ; JMG_CMTB_UFO_Random_Fire_Control_Registrant
?JMG_CMTB_Comet_Script_Registrant@@3V?$ScriptRegistrant@VJMG_CMTB_Comet_Script@@@@A DB 010H DUP (?) ; JMG_CMTB_Comet_Script_Registrant
?JMG_CMTB_Zone_Realign_Enter_Registrant@@3V?$ScriptRegistrant@VJMG_CMTB_Zone_Realign_Enter@@@@A DB 010H DUP (?) ; JMG_CMTB_Zone_Realign_Enter_Registrant
?JMG_CMTB_Spectator_Object_Registrant@@3V?$ScriptRegistrant@VJMG_CMTB_Spectator_Object@@@@A DB 010H DUP (?) ; JMG_CMTB_Spectator_Object_Registrant
?JMG_CMTB_Arcade_Machine_Registrant@@3V?$ScriptRegistrant@VJMG_CMTB_Arcade_Machine@@@@A DB 010H DUP (?) ; JMG_CMTB_Arcade_Machine_Registrant
?JMG_CMTB_Fake_Player_Attach_Script_Registrant@@3V?$ScriptRegistrant@VJMG_CMTB_Fake_Player_Attach_Script@@@@A DB 010H DUP (?) ; JMG_CMTB_Fake_Player_Attach_Script_Registrant
?JMG_CMTB_Renegade_Code_Registrant@@3V?$ScriptRegistrant@VJMG_CMTB_Renegade_Code@@@@A DB 010H DUP (?) ; JMG_CMTB_Renegade_Code_Registrant
?JMG_CMTB_Motion_Mine_Registrant@@3V?$ScriptRegistrant@VJMG_CMTB_Motion_Mine@@@@A DB 010H DUP (?) ; JMG_CMTB_Motion_Mine_Registrant
?JMG_CMTB_The_Moon_Script_Registrant@@3V?$ScriptRegistrant@VJMG_CMTB_The_Moon_Script@@@@A DB 010H DUP (?) ; JMG_CMTB_The_Moon_Script_Registrant
?JMG_CMTB_Ship_Super_Weapon_Registrant@@3V?$ScriptRegistrant@VJMG_CMTB_Ship_Super_Weapon@@@@A DB 010H DUP (?) ; JMG_CMTB_Ship_Super_Weapon_Registrant
?JMG_CMTB_Powerup_Script_Registrant@@3V?$ScriptRegistrant@VJMG_CMTB_Powerup_Script@@@@A DB 010H DUP (?) ; JMG_CMTB_Powerup_Script_Registrant
?JMG_CMTB_Cargo_Ship_Script_Registrant@@3V?$ScriptRegistrant@VJMG_CMTB_Cargo_Ship_Script@@@@A DB 010H DUP (?) ; JMG_CMTB_Cargo_Ship_Script_Registrant
?JMG_CMTB_Cargo_Ship_Turret_Registrant@@3V?$ScriptRegistrant@VJMG_CMTB_Cargo_Ship_Turret@@@@A DB 010H DUP (?) ; JMG_CMTB_Cargo_Ship_Turret_Registrant
?JMG_CMTB_Player_Drone_Registrant@@3V?$ScriptRegistrant@VJMG_CMTB_Player_Drone@@@@A DB 010H DUP (?) ; JMG_CMTB_Player_Drone_Registrant
?JMG_CMTB_Vehicle_Face_Turret_Registrant@@3V?$ScriptRegistrant@VJMG_CMTB_Vehicle_Face_Turret@@@@A DB 010H DUP (?) ; JMG_CMTB_Vehicle_Face_Turret_Registrant
?JMG_CMTB_Poke_End_Map_Registrant@@3V?$ScriptRegistrant@VJMG_CMTB_Poke_End_Map@@@@A DB 010H DUP (?) ; JMG_CMTB_Poke_End_Map_Registrant
?JMG_CMTB_Poke_Change_Difficulty_Registrant@@3V?$ScriptRegistrant@VJMG_CMTB_Poke_Change_Difficulty@@@@A DB 010H DUP (?) ; JMG_CMTB_Poke_Change_Difficulty_Registrant
_BSS	ENDS
;	COMDAT ?instancex@?1??getInstance@?$Singleton@V?$ObjectPoolClass@VGenericSLNode@@$0BAA@@@@@SAAAV?$ObjectPoolClass@VGenericSLNode@@$0BAA@@@XZ@4V3@A
_BSS	SEGMENT
?instancex@?1??getInstance@?$Singleton@V?$ObjectPoolClass@VGenericSLNode@@$0BAA@@@@@SAAAV?$ObjectPoolClass@VGenericSLNode@@$0BAA@@@XZ@4V3@A DB 014H DUP (?) ; `Singleton<ObjectPoolClass<GenericSLNode,256> >::getInstance'::`2'::instancex
_BSS	ENDS
;	COMDAT ??_B?1??getInstance@?$Singleton@V?$ObjectPoolClass@VGenericSLNode@@$0BAA@@@@@SAAAV?$ObjectPoolClass@VGenericSLNode@@$0BAA@@@XZ@51
_BSS	SEGMENT
??_B?1??getInstance@?$Singleton@V?$ObjectPoolClass@VGenericSLNode@@$0BAA@@@@@SAAAV?$ObjectPoolClass@VGenericSLNode@@$0BAA@@@XZ@51 DD 01H DUP (?) ; `Singleton<ObjectPoolClass<GenericSLNode,256> >::getInstance'::`2'::`local static guard'
_BSS	ENDS
CRT$XCU	SEGMENT
_PerkTypeSystem$initializer$ DD FLAT:??__EPerkTypeSystem@@YAXXZ
CRT$XCU	ENDS
;	COMDAT __xmm@80000000800000008000000080000000
CONST	SEGMENT
__xmm@80000000800000008000000080000000 DB 00H, 00H, 00H, 080H, 00H, 00H, 00H
	DB	080H, 00H, 00H, 00H, 080H, 00H, 00H, 00H, 080H
CONST	ENDS
;	COMDAT __xmm@80000000000000008000000000000000
CONST	SEGMENT
__xmm@80000000000000008000000000000000 DB 00H, 00H, 00H, 00H, 00H, 00H, 00H
	DB	080H, 00H, 00H, 00H, 00H, 00H, 00H, 00H, 080H
CONST	ENDS
;	COMDAT __xmm@7fffffffffffffff7fffffffffffffff
CONST	SEGMENT
__xmm@7fffffffffffffff7fffffffffffffff DB 0ffH, 0ffH, 0ffH, 0ffH, 0ffH, 0ffH
	DB	0ffH, 07fH, 0ffH, 0ffH, 0ffH, 0ffH, 0ffH, 0ffH, 0ffH, 07fH
CONST	ENDS
;	COMDAT __xmm@41f00000000000000000000000000000
CONST	SEGMENT
__xmm@41f00000000000000000000000000000 DB 00H, 00H, 00H, 00H, 00H, 00H, 00H
	DB	00H, 00H, 00H, 00H, 00H, 00H, 00H, 0f0H, 'A'
CONST	ENDS
;	COMDAT __real@c47a0000
CONST	SEGMENT
__real@c47a0000 DD 0c47a0000r			; -1000
CONST	ENDS
;	COMDAT __real@c3960000
CONST	SEGMENT
__real@c3960000 DD 0c3960000r			; -300
CONST	ENDS
;	COMDAT __real@c3340000
CONST	SEGMENT
__real@c3340000 DD 0c3340000r			; -180
CONST	ENDS
;	COMDAT __real@c2c80000
CONST	SEGMENT
__real@c2c80000 DD 0c2c80000r			; -100
CONST	ENDS
;	COMDAT __real@c2b40000
CONST	SEGMENT
__real@c2b40000 DD 0c2b40000r			; -90
CONST	ENDS
;	COMDAT __real@c2aa0000
CONST	SEGMENT
__real@c2aa0000 DD 0c2aa0000r			; -85
CONST	ENDS
;	COMDAT __real@c2a00000
CONST	SEGMENT
__real@c2a00000 DD 0c2a00000r			; -80
CONST	ENDS
;	COMDAT __real@c2480000
CONST	SEGMENT
__real@c2480000 DD 0c2480000r			; -50
CONST	ENDS
;	COMDAT __real@c2340000
CONST	SEGMENT
__real@c2340000 DD 0c2340000r			; -45
CONST	ENDS
;	COMDAT __real@c2040000
CONST	SEGMENT
__real@c2040000 DD 0c2040000r			; -33
CONST	ENDS
;	COMDAT __real@c1200000
CONST	SEGMENT
__real@c1200000 DD 0c1200000r			; -10
CONST	ENDS
;	COMDAT __real@c0000000
CONST	SEGMENT
__real@c0000000 DD 0c0000000r			; -2
CONST	ENDS
;	COMDAT __real@bf800000
CONST	SEGMENT
__real@bf800000 DD 0bf800000r			; -1
CONST	ENDS
;	COMDAT __real@bf2147ae
CONST	SEGMENT
__real@bf2147ae DD 0bf2147aer			; -0.63
CONST	ENDS
;	COMDAT __real@bc23d70a
CONST	SEGMENT
__real@bc23d70a DD 0bc23d70ar			; -0.01
CONST	ENDS
;	COMDAT __real@4b189680
CONST	SEGMENT
__real@4b189680 DD 04b189680r			; 1e+007
CONST	ENDS
;	COMDAT __real@4b18967f
CONST	SEGMENT
__real@4b18967f DD 04b18967fr			; 1e+007
CONST	ENDS
;	COMDAT __real@47c35000
CONST	SEGMENT
__real@47c35000 DD 047c35000r			; 100000
CONST	ENDS
;	COMDAT __real@47c34fff
CONST	SEGMENT
__real@47c34fff DD 047c34fffr			; 100000
CONST	ENDS
;	COMDAT __real@47c34ff3
CONST	SEGMENT
__real@47c34ff3 DD 047c34ff3r			; 99999.9
CONST	ENDS
;	COMDAT __real@46afc800
CONST	SEGMENT
__real@46afc800 DD 046afc800r			; 22500
CONST	ENDS
;	COMDAT __real@461c4000
CONST	SEGMENT
__real@461c4000 DD 0461c4000r			; 10000
CONST	ENDS
;	COMDAT __real@461c3ff6
CONST	SEGMENT
__real@461c3ff6 DD 0461c3ff6r			; 9999.99
CONST	ENDS
;	COMDAT __real@461c3f9a
CONST	SEGMENT
__real@461c3f9a DD 0461c3f9ar			; 9999.9
CONST	ENDS
;	COMDAT __real@460ca000
CONST	SEGMENT
__real@460ca000 DD 0460ca000r			; 9000
CONST	ENDS
;	COMDAT __real@460c9c00
CONST	SEGMENT
__real@460c9c00 DD 0460c9c00r			; 8999
CONST	ENDS
;	COMDAT __real@45afc800
CONST	SEGMENT
__real@45afc800 DD 045afc800r			; 5625
CONST	ENDS
;	COMDAT __real@45242900
CONST	SEGMENT
__real@45242900 DD 045242900r			; 2626.56
CONST	ENDS
;	COMDAT __real@451c4000
CONST	SEGMENT
__real@451c4000 DD 0451c4000r			; 2500
CONST	ENDS
;	COMDAT __real@44ed6000
CONST	SEGMENT
__real@44ed6000 DD 044ed6000r			; 1899
CONST	ENDS
;	COMDAT __real@44800000
CONST	SEGMENT
__real@44800000 DD 044800000r			; 1024
CONST	ENDS
;	COMDAT __real@447a0000
CONST	SEGMENT
__real@447a0000 DD 0447a0000r			; 1000
CONST	ENDS
;	COMDAT __real@44480000
CONST	SEGMENT
__real@44480000 DD 044480000r			; 800
CONST	ENDS
;	COMDAT __real@441c4000
CONST	SEGMENT
__real@441c4000 DD 0441c4000r			; 625
CONST	ENDS
;	COMDAT __real@44000000
CONST	SEGMENT
__real@44000000 DD 044000000r			; 512
CONST	ENDS
;	COMDAT __real@43c80000
CONST	SEGMENT
__real@43c80000 DD 043c80000r			; 400
CONST	ENDS
;	COMDAT __real@43b40000
CONST	SEGMENT
__real@43b40000 DD 043b40000r			; 360
CONST	ENDS
;	COMDAT __real@43960000
CONST	SEGMENT
__real@43960000 DD 043960000r			; 300
CONST	ENDS
;	COMDAT __real@437f0000
CONST	SEGMENT
__real@437f0000 DD 0437f0000r			; 255
CONST	ENDS
;	COMDAT __real@437a0000
CONST	SEGMENT
__real@437a0000 DD 0437a0000r			; 250
CONST	ENDS
;	COMDAT __real@43610000
CONST	SEGMENT
__real@43610000 DD 043610000r			; 225
CONST	ENDS
;	COMDAT __real@43480000
CONST	SEGMENT
__real@43480000 DD 043480000r			; 200
CONST	ENDS
;	COMDAT __real@43340000
CONST	SEGMENT
__real@43340000 DD 043340000r			; 180
CONST	ENDS
;	COMDAT __real@431c4000
CONST	SEGMENT
__real@431c4000 DD 0431c4000r			; 156.25
CONST	ENDS
;	COMDAT __real@43020000
CONST	SEGMENT
__real@43020000 DD 043020000r			; 130
CONST	ENDS
;	COMDAT __real@42c80000
CONST	SEGMENT
__real@42c80000 DD 042c80000r			; 100
CONST	ENDS
;	COMDAT __real@42c60000
CONST	SEGMENT
__real@42c60000 DD 042c60000r			; 99
CONST	ENDS
;	COMDAT __real@42be0000
CONST	SEGMENT
__real@42be0000 DD 042be0000r			; 95
CONST	ENDS
;	COMDAT __real@42b40000
CONST	SEGMENT
__real@42b40000 DD 042b40000r			; 90
CONST	ENDS
;	COMDAT __real@42b20000
CONST	SEGMENT
__real@42b20000 DD 042b20000r			; 89
CONST	ENDS
;	COMDAT __real@42b00000
CONST	SEGMENT
__real@42b00000 DD 042b00000r			; 88
CONST	ENDS
;	COMDAT __real@42aa0000
CONST	SEGMENT
__real@42aa0000 DD 042aa0000r			; 85
CONST	ENDS
;	COMDAT __real@42a00000
CONST	SEGMENT
__real@42a00000 DD 042a00000r			; 80
CONST	ENDS
;	COMDAT __real@42960000
CONST	SEGMENT
__real@42960000 DD 042960000r			; 75
CONST	ENDS
;	COMDAT __real@42870000
CONST	SEGMENT
__real@42870000 DD 042870000r			; 67.5
CONST	ENDS
;	COMDAT __real@42700000
CONST	SEGMENT
__real@42700000 DD 042700000r			; 60
CONST	ENDS
;	COMDAT __real@42610000
CONST	SEGMENT
__real@42610000 DD 042610000r			; 56.25
CONST	ENDS
;	COMDAT __real@424d0000
CONST	SEGMENT
__real@424d0000 DD 0424d0000r			; 51.25
CONST	ENDS
;	COMDAT __real@42480000
CONST	SEGMENT
__real@42480000 DD 042480000r			; 50
CONST	ENDS
;	COMDAT __real@42340000
CONST	SEGMENT
__real@42340000 DD 042340000r			; 45
CONST	ENDS
;	COMDAT __real@42040000
CONST	SEGMENT
__real@42040000 DD 042040000r			; 33
CONST	ENDS
;	COMDAT __real@41f00000
CONST	SEGMENT
__real@41f00000 DD 041f00000r			; 30
CONST	ENDS
;	COMDAT __real@41c80000
CONST	SEGMENT
__real@41c80000 DD 041c80000r			; 25
CONST	ENDS
;	COMDAT __real@41a20000
CONST	SEGMENT
__real@41a20000 DD 041a20000r			; 20.25
CONST	ENDS
;	COMDAT __real@41a00000
CONST	SEGMENT
__real@41a00000 DD 041a00000r			; 20
CONST	ENDS
;	COMDAT __real@41700000
CONST	SEGMENT
__real@41700000 DD 041700000r			; 15
CONST	ENDS
;	COMDAT __real@41480000
CONST	SEGMENT
__real@41480000 DD 041480000r			; 12.5
CONST	ENDS
;	COMDAT __real@41300000
CONST	SEGMENT
__real@41300000 DD 041300000r			; 11
CONST	ENDS
;	COMDAT __real@41200000
CONST	SEGMENT
__real@41200000 DD 041200000r			; 10
CONST	ENDS
;	COMDAT __real@41100000
CONST	SEGMENT
__real@41100000 DD 041100000r			; 9
CONST	ENDS
;	COMDAT __real@410c0000
CONST	SEGMENT
__real@410c0000 DD 0410c0000r			; 8.75
CONST	ENDS
;	COMDAT __real@41000000
CONST	SEGMENT
__real@41000000 DD 041000000r			; 8
CONST	ENDS
;	COMDAT __real@40db580000000000
CONST	SEGMENT
__real@40db580000000000 DQ 040db580000000000r	; 28000
CONST	ENDS
;	COMDAT __real@40d0f5c3
CONST	SEGMENT
__real@40d0f5c3 DD 040d0f5c3r			; 6.53
CONST	ENDS
;	COMDAT __real@40c90fdb
CONST	SEGMENT
__real@40c90fdb DD 040c90fdbr			; 6.28319
CONST	ENDS
;	COMDAT __real@40c80000
CONST	SEGMENT
__real@40c80000 DD 040c80000r			; 6.25
CONST	ENDS
;	COMDAT __real@40a00000
CONST	SEGMENT
__real@40a00000 DD 040a00000r			; 5
CONST	ENDS
;	COMDAT __real@40900000
CONST	SEGMENT
__real@40900000 DD 040900000r			; 4.5
CONST	ENDS
;	COMDAT __real@40800000
CONST	SEGMENT
__real@40800000 DD 040800000r			; 4
CONST	ENDS
;	COMDAT __real@4059000000000000
CONST	SEGMENT
__real@4059000000000000 DQ 04059000000000000r	; 100
CONST	ENDS
;	COMDAT __real@40490fdb
CONST	SEGMENT
__real@40490fdb DD 040490fdbr			; 3.14159
CONST	ENDS
;	COMDAT __real@40400000
CONST	SEGMENT
__real@40400000 DD 040400000r			; 3
CONST	ENDS
;	COMDAT __real@4034000000000000
CONST	SEGMENT
__real@4034000000000000 DQ 04034000000000000r	; 20
CONST	ENDS
;	COMDAT __real@402e000000000000
CONST	SEGMENT
__real@402e000000000000 DQ 0402e000000000000r	; 15
CONST	ENDS
;	COMDAT __real@4024000000000000
CONST	SEGMENT
__real@4024000000000000 DQ 04024000000000000r	; 10
CONST	ENDS
;	COMDAT __real@40200000
CONST	SEGMENT
__real@40200000 DD 040200000r			; 2.5
CONST	ENDS
;	COMDAT __real@40100000
CONST	SEGMENT
__real@40100000 DD 040100000r			; 2.25
CONST	ENDS
;	COMDAT __real@4000000000000000
CONST	SEGMENT
__real@4000000000000000 DQ 04000000000000000r	; 2
CONST	ENDS
;	COMDAT __real@40000000
CONST	SEGMENT
__real@40000000 DD 040000000r			; 2
CONST	ENDS
;	COMDAT __real@3ff0000000000000
CONST	SEGMENT
__real@3ff0000000000000 DQ 03ff0000000000000r	; 1
CONST	ENDS
;	COMDAT __real@3fef0a3d70a3d70a
CONST	SEGMENT
__real@3fef0a3d70a3d70a DQ 03fef0a3d70a3d70ar	; 0.97
CONST	ENDS
;	COMDAT __real@3fee666666666666
CONST	SEGMENT
__real@3fee666666666666 DQ 03fee666666666666r	; 0.95
CONST	ENDS
;	COMDAT __real@3feccccccccccccd
CONST	SEGMENT
__real@3feccccccccccccd DQ 03feccccccccccccdr	; 0.9
CONST	ENDS
;	COMDAT __real@3fe999999999999a
CONST	SEGMENT
__real@3fe999999999999a DQ 03fe999999999999ar	; 0.8
CONST	ENDS
;	COMDAT __real@3fe8000000000000
CONST	SEGMENT
__real@3fe8000000000000 DQ 03fe8000000000000r	; 0.75
CONST	ENDS
;	COMDAT __real@3fe6666666666666
CONST	SEGMENT
__real@3fe6666666666666 DQ 03fe6666666666666r	; 0.7
CONST	ENDS
;	COMDAT __real@3fe51eb851eb851f
CONST	SEGMENT
__real@3fe51eb851eb851f DQ 03fe51eb851eb851fr	; 0.66
CONST	ENDS
;	COMDAT __real@3fe0000000000000
CONST	SEGMENT
__real@3fe0000000000000 DQ 03fe0000000000000r	; 0.5
CONST	ENDS
;	COMDAT __real@3fdccccccccccccd
CONST	SEGMENT
__real@3fdccccccccccccd DQ 03fdccccccccccccdr	; 0.45
CONST	ENDS
;	COMDAT __real@3fd999999999999a
CONST	SEGMENT
__real@3fd999999999999a DQ 03fd999999999999ar	; 0.4
CONST	ENDS
;	COMDAT __real@3fd51eb851eb851f
CONST	SEGMENT
__real@3fd51eb851eb851f DQ 03fd51eb851eb851fr	; 0.33
CONST	ENDS
;	COMDAT __real@3fc999999999999a
CONST	SEGMENT
__real@3fc999999999999a DQ 03fc999999999999ar	; 0.2
CONST	ENDS
;	COMDAT __real@3fc90fdb
CONST	SEGMENT
__real@3fc90fdb DD 03fc90fdbr			; 1.5708
CONST	ENDS
;	COMDAT __real@3fc80000
CONST	SEGMENT
__real@3fc80000 DD 03fc80000r			; 1.5625
CONST	ENDS
;	COMDAT __real@3fc51eb851eb851f
CONST	SEGMENT
__real@3fc51eb851eb851f DQ 03fc51eb851eb851fr	; 0.165
CONST	ENDS
;	COMDAT __real@3fc00000
CONST	SEGMENT
__real@3fc00000 DD 03fc00000r			; 1.5
CONST	ENDS
;	COMDAT __real@3fbd9168
CONST	SEGMENT
__real@3fbd9168 DD 03fbd9168r			; 1.481
CONST	ENDS
;	COMDAT __real@3fb4fdf4
CONST	SEGMENT
__real@3fb4fdf4 DD 03fb4fdf4r			; 1.414
CONST	ENDS
;	COMDAT __real@3fa999999999999a
CONST	SEGMENT
__real@3fa999999999999a DQ 03fa999999999999ar	; 0.05
CONST	ENDS
;	COMDAT __real@3fa20000
CONST	SEGMENT
__real@3fa20000 DD 03fa20000r			; 1.26563
CONST	ENDS
;	COMDAT __real@3fa00000
CONST	SEGMENT
__real@3fa00000 DD 03fa00000r			; 1.25
CONST	ENDS
;	COMDAT __real@3f9999999999999a
CONST	SEGMENT
__real@3f9999999999999a DQ 03f9999999999999ar	; 0.025
CONST	ENDS
;	COMDAT __real@3f900000
CONST	SEGMENT
__real@3f900000 DD 03f900000r			; 1.125
CONST	ENDS
;	COMDAT __real@3f800000
CONST	SEGMENT
__real@3f800000 DD 03f800000r			; 1
CONST	ENDS
;	COMDAT __real@3f79999a
CONST	SEGMENT
__real@3f79999a DD 03f79999ar			; 0.975
CONST	ENDS
;	COMDAT __real@3f70a3d7
CONST	SEGMENT
__real@3f70a3d7 DD 03f70a3d7r			; 0.94
CONST	ENDS
;	COMDAT __real@3f466666
CONST	SEGMENT
__real@3f466666 DD 03f466666r			; 0.775
CONST	ENDS
;	COMDAT __real@3f400000
CONST	SEGMENT
__real@3f400000 DD 03f400000r			; 0.75
CONST	ENDS
;	COMDAT __real@3f3ab9f5
CONST	SEGMENT
__real@3f3ab9f5 DD 03f3ab9f5r			; 0.7294
CONST	ENDS
;	COMDAT __real@3f000000
CONST	SEGMENT
__real@3f000000 DD 03f000000r			; 0.5
CONST	ENDS
;	COMDAT __real@3eeae7d5
CONST	SEGMENT
__real@3eeae7d5 DD 03eeae7d5r			; 0.4588
CONST	ENDS
;	COMDAT __real@3eb851ec
CONST	SEGMENT
__real@3eb851ec DD 03eb851ecr			; 0.36
CONST	ENDS
;	COMDAT __real@3eb33333
CONST	SEGMENT
__real@3eb33333 DD 03eb33333r			; 0.35
CONST	ENDS
;	COMDAT __real@3ea8f5c3
CONST	SEGMENT
__real@3ea8f5c3 DD 03ea8f5c3r			; 0.33
CONST	ENDS
;	COMDAT __real@3ea66666
CONST	SEGMENT
__real@3ea66666 DD 03ea66666r			; 0.325
CONST	ENDS
;	COMDAT __real@3e800000
CONST	SEGMENT
__real@3e800000 DD 03e800000r			; 0.25
CONST	ENDS
;	COMDAT __real@3e4ccccd
CONST	SEGMENT
__real@3e4ccccd DD 03e4ccccdr			; 0.2
CONST	ENDS
;	COMDAT __real@3e48b439
CONST	SEGMENT
__real@3e48b439 DD 03e48b439r			; 0.196
CONST	ENDS
;	COMDAT __real@3e19999a
CONST	SEGMENT
__real@3e19999a DD 03e19999ar			; 0.15
CONST	ENDS
;	COMDAT __real@3dd851ec
CONST	SEGMENT
__real@3dd851ec DD 03dd851ecr			; 0.105625
CONST	ENDS
;	COMDAT __real@3dcccccd
CONST	SEGMENT
__real@3dcccccd DD 03dcccccdr			; 0.1
CONST	ENDS
;	COMDAT __real@3d4ccccd
CONST	SEGMENT
__real@3d4ccccd DD 03d4ccccdr			; 0.05
CONST	ENDS
;	COMDAT __real@3ccccccd
CONST	SEGMENT
__real@3ccccccd DD 03ccccccdr			; 0.025
CONST	ENDS
;	COMDAT __real@3c23d70a
CONST	SEGMENT
__real@3c23d70a DD 03c23d70ar			; 0.01
CONST	ENDS
;	COMDAT __real@02081cea
CONST	SEGMENT
__real@02081cea DD 002081cear			; 1e-037
CONST	ENDS
;	COMDAT __real@0000000000000000
CONST	SEGMENT
__real@0000000000000000 DQ 00000000000000000r	; 0
CONST	ENDS
;	COMDAT __real@00000000
CONST	SEGMENT
__real@00000000 DD 000000000r			; 0
CONST	ENDS
;	COMDAT ??_R1A@?0A@EA@?$ScriptRegistrant@VJMG_CMTB_Poke_Change_Difficulty@@@@8
rdata$r	SEGMENT
??_R1A@?0A@EA@?$ScriptRegistrant@VJMG_CMTB_Poke_Change_Difficulty@@@@8 DD FLAT:??_R0?AV?$ScriptRegistrant@VJMG_CMTB_Poke_Change_Difficulty@@@@@8 ; ScriptRegistrant<JMG_CMTB_Poke_Change_Difficulty>::`RTTI Base Class Descriptor at (0,-1,0,64)'
	DD	01H
	DD	00H
	DD	0ffffffffH
	DD	00H
	DD	040H
	DD	FLAT:??_R3?$ScriptRegistrant@VJMG_CMTB_Poke_Change_Difficulty@@@@8
rdata$r	ENDS
;	COMDAT ??_R2?$ScriptRegistrant@VJMG_CMTB_Poke_Change_Difficulty@@@@8
rdata$r	SEGMENT
??_R2?$ScriptRegistrant@VJMG_CMTB_Poke_Change_Difficulty@@@@8 DD FLAT:??_R1A@?0A@EA@?$ScriptRegistrant@VJMG_CMTB_Poke_Change_Difficulty@@@@8 ; ScriptRegistrant<JMG_CMTB_Poke_Change_Difficulty>::`RTTI Base Class Array'
	DD	FLAT:??_R1A@?0A@EA@ScriptFactory@@8
rdata$r	ENDS
;	COMDAT ??_R3?$ScriptRegistrant@VJMG_CMTB_Poke_Change_Difficulty@@@@8
rdata$r	SEGMENT
??_R3?$ScriptRegistrant@VJMG_CMTB_Poke_Change_Difficulty@@@@8 DD 00H ; ScriptRegistrant<JMG_CMTB_Poke_Change_Difficulty>::`RTTI Class Hierarchy Descriptor'
	DD	00H
	DD	02H
	DD	FLAT:??_R2?$ScriptRegistrant@VJMG_CMTB_Poke_Change_Difficulty@@@@8
rdata$r	ENDS
;	COMDAT ??_R0?AV?$ScriptRegistrant@VJMG_CMTB_Poke_Change_Difficulty@@@@@8
_DATA	SEGMENT
??_R0?AV?$ScriptRegistrant@VJMG_CMTB_Poke_Change_Difficulty@@@@@8 DD FLAT:??_7type_info@@6B@ ; ScriptRegistrant<JMG_CMTB_Poke_Change_Difficulty> `RTTI Type Descriptor'
	DD	00H
	DB	'.?AV?$ScriptRegistrant@VJMG_CMTB_Poke_Change_Difficulty@'
	DB	'@@@', 00H
_DATA	ENDS
;	COMDAT ??_R4?$ScriptRegistrant@VJMG_CMTB_Poke_Change_Difficulty@@@@6B@
rdata$r	SEGMENT
??_R4?$ScriptRegistrant@VJMG_CMTB_Poke_Change_Difficulty@@@@6B@ DD 00H ; ScriptRegistrant<JMG_CMTB_Poke_Change_Difficulty>::`RTTI Complete Object Locator'
	DD	00H
	DD	00H
	DD	FLAT:??_R0?AV?$ScriptRegistrant@VJMG_CMTB_Poke_Change_Difficulty@@@@@8
	DD	FLAT:??_R3?$ScriptRegistrant@VJMG_CMTB_Poke_Change_Difficulty@@@@8
rdata$r	ENDS
;	COMDAT ??_R1A@?0A@EA@?$ScriptRegistrant@VJMG_CMTB_Poke_End_Map@@@@8
rdata$r	SEGMENT
??_R1A@?0A@EA@?$ScriptRegistrant@VJMG_CMTB_Poke_End_Map@@@@8 DD FLAT:??_R0?AV?$ScriptRegistrant@VJMG_CMTB_Poke_End_Map@@@@@8 ; ScriptRegistrant<JMG_CMTB_Poke_End_Map>::`RTTI Base Class Descriptor at (0,-1,0,64)'
	DD	01H
	DD	00H
	DD	0ffffffffH
	DD	00H
	DD	040H
	DD	FLAT:??_R3?$ScriptRegistrant@VJMG_CMTB_Poke_End_Map@@@@8
rdata$r	ENDS
;	COMDAT ??_R2?$ScriptRegistrant@VJMG_CMTB_Poke_End_Map@@@@8
rdata$r	SEGMENT
??_R2?$ScriptRegistrant@VJMG_CMTB_Poke_End_Map@@@@8 DD FLAT:??_R1A@?0A@EA@?$ScriptRegistrant@VJMG_CMTB_Poke_End_Map@@@@8 ; ScriptRegistrant<JMG_CMTB_Poke_End_Map>::`RTTI Base Class Array'
	DD	FLAT:??_R1A@?0A@EA@ScriptFactory@@8
rdata$r	ENDS
;	COMDAT ??_R3?$ScriptRegistrant@VJMG_CMTB_Poke_End_Map@@@@8
rdata$r	SEGMENT
??_R3?$ScriptRegistrant@VJMG_CMTB_Poke_End_Map@@@@8 DD 00H ; ScriptRegistrant<JMG_CMTB_Poke_End_Map>::`RTTI Class Hierarchy Descriptor'
	DD	00H
	DD	02H
	DD	FLAT:??_R2?$ScriptRegistrant@VJMG_CMTB_Poke_End_Map@@@@8
rdata$r	ENDS
;	COMDAT ??_R0?AV?$ScriptRegistrant@VJMG_CMTB_Poke_End_Map@@@@@8
_DATA	SEGMENT
??_R0?AV?$ScriptRegistrant@VJMG_CMTB_Poke_End_Map@@@@@8 DD FLAT:??_7type_info@@6B@ ; ScriptRegistrant<JMG_CMTB_Poke_End_Map> `RTTI Type Descriptor'
	DD	00H
	DB	'.?AV?$ScriptRegistrant@VJMG_CMTB_Poke_End_Map@@@@', 00H
_DATA	ENDS
;	COMDAT ??_R4?$ScriptRegistrant@VJMG_CMTB_Poke_End_Map@@@@6B@
rdata$r	SEGMENT
??_R4?$ScriptRegistrant@VJMG_CMTB_Poke_End_Map@@@@6B@ DD 00H ; ScriptRegistrant<JMG_CMTB_Poke_End_Map>::`RTTI Complete Object Locator'
	DD	00H
	DD	00H
	DD	FLAT:??_R0?AV?$ScriptRegistrant@VJMG_CMTB_Poke_End_Map@@@@@8
	DD	FLAT:??_R3?$ScriptRegistrant@VJMG_CMTB_Poke_End_Map@@@@8
rdata$r	ENDS
;	COMDAT ??_R1A@?0A@EA@?$ScriptRegistrant@VJMG_CMTB_Vehicle_Face_Turret@@@@8
rdata$r	SEGMENT
??_R1A@?0A@EA@?$ScriptRegistrant@VJMG_CMTB_Vehicle_Face_Turret@@@@8 DD FLAT:??_R0?AV?$ScriptRegistrant@VJMG_CMTB_Vehicle_Face_Turret@@@@@8 ; ScriptRegistrant<JMG_CMTB_Vehicle_Face_Turret>::`RTTI Base Class Descriptor at (0,-1,0,64)'
	DD	01H
	DD	00H
	DD	0ffffffffH
	DD	00H
	DD	040H
	DD	FLAT:??_R3?$ScriptRegistrant@VJMG_CMTB_Vehicle_Face_Turret@@@@8
rdata$r	ENDS
;	COMDAT ??_R2?$ScriptRegistrant@VJMG_CMTB_Vehicle_Face_Turret@@@@8
rdata$r	SEGMENT
??_R2?$ScriptRegistrant@VJMG_CMTB_Vehicle_Face_Turret@@@@8 DD FLAT:??_R1A@?0A@EA@?$ScriptRegistrant@VJMG_CMTB_Vehicle_Face_Turret@@@@8 ; ScriptRegistrant<JMG_CMTB_Vehicle_Face_Turret>::`RTTI Base Class Array'
	DD	FLAT:??_R1A@?0A@EA@ScriptFactory@@8
rdata$r	ENDS
;	COMDAT ??_R3?$ScriptRegistrant@VJMG_CMTB_Vehicle_Face_Turret@@@@8
rdata$r	SEGMENT
??_R3?$ScriptRegistrant@VJMG_CMTB_Vehicle_Face_Turret@@@@8 DD 00H ; ScriptRegistrant<JMG_CMTB_Vehicle_Face_Turret>::`RTTI Class Hierarchy Descriptor'
	DD	00H
	DD	02H
	DD	FLAT:??_R2?$ScriptRegistrant@VJMG_CMTB_Vehicle_Face_Turret@@@@8
rdata$r	ENDS
;	COMDAT ??_R0?AV?$ScriptRegistrant@VJMG_CMTB_Vehicle_Face_Turret@@@@@8
_DATA	SEGMENT
??_R0?AV?$ScriptRegistrant@VJMG_CMTB_Vehicle_Face_Turret@@@@@8 DD FLAT:??_7type_info@@6B@ ; ScriptRegistrant<JMG_CMTB_Vehicle_Face_Turret> `RTTI Type Descriptor'
	DD	00H
	DB	'.?AV?$ScriptRegistrant@VJMG_CMTB_Vehicle_Face_Turret@@@@'
	DB	00H
_DATA	ENDS
;	COMDAT ??_R4?$ScriptRegistrant@VJMG_CMTB_Vehicle_Face_Turret@@@@6B@
rdata$r	SEGMENT
??_R4?$ScriptRegistrant@VJMG_CMTB_Vehicle_Face_Turret@@@@6B@ DD 00H ; ScriptRegistrant<JMG_CMTB_Vehicle_Face_Turret>::`RTTI Complete Object Locator'
	DD	00H
	DD	00H
	DD	FLAT:??_R0?AV?$ScriptRegistrant@VJMG_CMTB_Vehicle_Face_Turret@@@@@8
	DD	FLAT:??_R3?$ScriptRegistrant@VJMG_CMTB_Vehicle_Face_Turret@@@@8
rdata$r	ENDS
;	COMDAT ??_R1A@?0A@EA@?$ScriptRegistrant@VJMG_CMTB_Player_Drone@@@@8
rdata$r	SEGMENT
??_R1A@?0A@EA@?$ScriptRegistrant@VJMG_CMTB_Player_Drone@@@@8 DD FLAT:??_R0?AV?$ScriptRegistrant@VJMG_CMTB_Player_Drone@@@@@8 ; ScriptRegistrant<JMG_CMTB_Player_Drone>::`RTTI Base Class Descriptor at (0,-1,0,64)'
	DD	01H
	DD	00H
	DD	0ffffffffH
	DD	00H
	DD	040H
	DD	FLAT:??_R3?$ScriptRegistrant@VJMG_CMTB_Player_Drone@@@@8
rdata$r	ENDS
;	COMDAT ??_R2?$ScriptRegistrant@VJMG_CMTB_Player_Drone@@@@8
rdata$r	SEGMENT
??_R2?$ScriptRegistrant@VJMG_CMTB_Player_Drone@@@@8 DD FLAT:??_R1A@?0A@EA@?$ScriptRegistrant@VJMG_CMTB_Player_Drone@@@@8 ; ScriptRegistrant<JMG_CMTB_Player_Drone>::`RTTI Base Class Array'
	DD	FLAT:??_R1A@?0A@EA@ScriptFactory@@8
rdata$r	ENDS
;	COMDAT ??_R3?$ScriptRegistrant@VJMG_CMTB_Player_Drone@@@@8
rdata$r	SEGMENT
??_R3?$ScriptRegistrant@VJMG_CMTB_Player_Drone@@@@8 DD 00H ; ScriptRegistrant<JMG_CMTB_Player_Drone>::`RTTI Class Hierarchy Descriptor'
	DD	00H
	DD	02H
	DD	FLAT:??_R2?$ScriptRegistrant@VJMG_CMTB_Player_Drone@@@@8
rdata$r	ENDS
;	COMDAT ??_R0?AV?$ScriptRegistrant@VJMG_CMTB_Player_Drone@@@@@8
_DATA	SEGMENT
??_R0?AV?$ScriptRegistrant@VJMG_CMTB_Player_Drone@@@@@8 DD FLAT:??_7type_info@@6B@ ; ScriptRegistrant<JMG_CMTB_Player_Drone> `RTTI Type Descriptor'
	DD	00H
	DB	'.?AV?$ScriptRegistrant@VJMG_CMTB_Player_Drone@@@@', 00H
_DATA	ENDS
;	COMDAT ??_R4?$ScriptRegistrant@VJMG_CMTB_Player_Drone@@@@6B@
rdata$r	SEGMENT
??_R4?$ScriptRegistrant@VJMG_CMTB_Player_Drone@@@@6B@ DD 00H ; ScriptRegistrant<JMG_CMTB_Player_Drone>::`RTTI Complete Object Locator'
	DD	00H
	DD	00H
	DD	FLAT:??_R0?AV?$ScriptRegistrant@VJMG_CMTB_Player_Drone@@@@@8
	DD	FLAT:??_R3?$ScriptRegistrant@VJMG_CMTB_Player_Drone@@@@8
rdata$r	ENDS
;	COMDAT ??_R1A@?0A@EA@?$ScriptRegistrant@VJMG_CMTB_Cargo_Ship_Turret@@@@8
rdata$r	SEGMENT
??_R1A@?0A@EA@?$ScriptRegistrant@VJMG_CMTB_Cargo_Ship_Turret@@@@8 DD FLAT:??_R0?AV?$ScriptRegistrant@VJMG_CMTB_Cargo_Ship_Turret@@@@@8 ; ScriptRegistrant<JMG_CMTB_Cargo_Ship_Turret>::`RTTI Base Class Descriptor at (0,-1,0,64)'
	DD	01H
	DD	00H
	DD	0ffffffffH
	DD	00H
	DD	040H
	DD	FLAT:??_R3?$ScriptRegistrant@VJMG_CMTB_Cargo_Ship_Turret@@@@8
rdata$r	ENDS
;	COMDAT ??_R2?$ScriptRegistrant@VJMG_CMTB_Cargo_Ship_Turret@@@@8
rdata$r	SEGMENT
??_R2?$ScriptRegistrant@VJMG_CMTB_Cargo_Ship_Turret@@@@8 DD FLAT:??_R1A@?0A@EA@?$ScriptRegistrant@VJMG_CMTB_Cargo_Ship_Turret@@@@8 ; ScriptRegistrant<JMG_CMTB_Cargo_Ship_Turret>::`RTTI Base Class Array'
	DD	FLAT:??_R1A@?0A@EA@ScriptFactory@@8
rdata$r	ENDS
;	COMDAT ??_R3?$ScriptRegistrant@VJMG_CMTB_Cargo_Ship_Turret@@@@8
rdata$r	SEGMENT
??_R3?$ScriptRegistrant@VJMG_CMTB_Cargo_Ship_Turret@@@@8 DD 00H ; ScriptRegistrant<JMG_CMTB_Cargo_Ship_Turret>::`RTTI Class Hierarchy Descriptor'
	DD	00H
	DD	02H
	DD	FLAT:??_R2?$ScriptRegistrant@VJMG_CMTB_Cargo_Ship_Turret@@@@8
rdata$r	ENDS
;	COMDAT ??_R0?AV?$ScriptRegistrant@VJMG_CMTB_Cargo_Ship_Turret@@@@@8
_DATA	SEGMENT
??_R0?AV?$ScriptRegistrant@VJMG_CMTB_Cargo_Ship_Turret@@@@@8 DD FLAT:??_7type_info@@6B@ ; ScriptRegistrant<JMG_CMTB_Cargo_Ship_Turret> `RTTI Type Descriptor'
	DD	00H
	DB	'.?AV?$ScriptRegistrant@VJMG_CMTB_Cargo_Ship_Turret@@@@', 00H
_DATA	ENDS
;	COMDAT ??_R4?$ScriptRegistrant@VJMG_CMTB_Cargo_Ship_Turret@@@@6B@
rdata$r	SEGMENT
