; Listing generated by Microsoft (R) Optimizing Compiler Version 17.00.61219.0 

	TITLE	X:\GitHub\Renegade\Dragonade_RxD\scripts\kak.cpp
	.686P
	.XMM
	include listing.inc
	.model	flat

INCLUDELIB MSVCRTD
INCLUDELIB OLDNAMES

CONST	SEGMENT
_DONT_MOVE_ARRIVED_DIST DD 0447a0000r		; 1000
CONST	ENDS
PUBLIC	??_I@YGXPAXIHP6EX0@Z@Z				; `vector destructor iterator'
PUBLIC	_acosf
PUBLIC	_asinf
PUBLIC	_atanf
PUBLIC	_atan2f
PUBLIC	_ceilf
PUBLIC	_cosf
PUBLIC	_floorf
PUBLIC	_sinf
PUBLIC	_sqrtf
PUBLIC	?acos@@YAMM@Z					; acos
PUBLIC	?asin@@YAMM@Z					; asin
PUBLIC	?atan@@YAMM@Z					; atan
PUBLIC	?atan2@@YAMMM@Z					; atan2
PUBLIC	?cos@@YAMM@Z					; cos
PUBLIC	?sin@@YAMM@Z					; sin
PUBLIC	?sqrt@@YAMM@Z					; sqrt
PUBLIC	?Fabs@WWMath@@SAMM@Z				; WWMath::Fabs
PUBLIC	?Float_To_Int_Chop@WWMath@@SAHABM@Z		; WWMath::Float_To_Int_Chop
PUBLIC	?Float_To_Int_Floor@WWMath@@SAHABM@Z		; WWMath::Float_To_Int_Floor
PUBLIC	?Cos@WWMath@@SAMM@Z				; WWMath::Cos
PUBLIC	?Sin@WWMath@@SAMM@Z				; WWMath::Sin
PUBLIC	?Sqrt@WWMath@@SAMM@Z				; WWMath::Sqrt
PUBLIC	?Inv_Sqrt@WWMath@@SIMM@Z			; WWMath::Inv_Sqrt
PUBLIC	?Float_To_Long@WWMath@@SAJM@Z			; WWMath::Float_To_Long
PUBLIC	?Fast_Sin@WWMath@@SAMM@Z			; WWMath::Fast_Sin
PUBLIC	?Fast_Inv_Sin@WWMath@@SAMM@Z			; WWMath::Fast_Inv_Sin
PUBLIC	?Fast_Cos@WWMath@@SAMM@Z			; WWMath::Fast_Cos
PUBLIC	?Fast_Inv_Cos@WWMath@@SAMM@Z			; WWMath::Fast_Inv_Cos
PUBLIC	?Fast_Acos@WWMath@@SAMM@Z			; WWMath::Fast_Acos
PUBLIC	?Fast_Asin@WWMath@@SAMM@Z			; WWMath::Fast_Asin
PUBLIC	?Acos@WWMath@@SAMM@Z				; WWMath::Acos
PUBLIC	?Asin@WWMath@@SAMM@Z				; WWMath::Asin
PUBLIC	?Atan@WWMath@@SAMM@Z				; WWMath::Atan
PUBLIC	?Atan2@WWMath@@SAMMM@Z				; WWMath::Atan2
PUBLIC	?Sign@WWMath@@SAMM@Z				; WWMath::Sign
PUBLIC	?Ceil@WWMath@@SAMM@Z				; WWMath::Ceil
PUBLIC	?Floor@WWMath@@SAMM@Z				; WWMath::Floor
PUBLIC	?Fast_Is_Float_Positive@WWMath@@SA_NABM@Z	; WWMath::Fast_Is_Float_Positive
PUBLIC	?Random_Float@WWMath@@SAMMM@Z			; WWMath::Random_Float
PUBLIC	?Clamp@WWMath@@SAMMMM@Z				; WWMath::Clamp
PUBLIC	?Clamp@WWMath@@SANNNN@Z				; WWMath::Clamp
PUBLIC	?Clamp_Int@WWMath@@SAHHHH@Z			; WWMath::Clamp_Int
PUBLIC	?Wrap@WWMath@@SAMMMM@Z				; WWMath::Wrap
PUBLIC	?Wrap@WWMath@@SANNNN@Z				; WWMath::Wrap
PUBLIC	?Min@WWMath@@SAMMM@Z				; WWMath::Min
PUBLIC	?Max@WWMath@@SAMMM@Z				; WWMath::Max
PUBLIC	?Lerp@WWMath@@SAMMMM@Z				; WWMath::Lerp
PUBLIC	?Lerp@WWMath@@SANNNM@Z				; WWMath::Lerp
PUBLIC	?Lerp@WWMath@@SAHHHM@Z				; WWMath::Lerp
PUBLIC	?Float_To_Long@WWMath@@SAJN@Z			; WWMath::Float_To_Long
PUBLIC	?Unit_Float_To_Byte@WWMath@@SAEM@Z		; WWMath::Unit_Float_To_Byte
PUBLIC	?Byte_To_Unit_Float@WWMath@@SAME@Z		; WWMath::Byte_To_Unit_Float
PUBLIC	?Is_Valid_Float@WWMath@@SA_NM@Z			; WWMath::Is_Valid_Float
PUBLIC	?Is_Valid_Double@WWMath@@SA_NN@Z		; WWMath::Is_Valid_Double
PUBLIC	??4WWMath@@QAEAAV0@ABV0@@Z			; WWMath::operator=
PUBLIC	??B?$RefArrayHelper@M$0EAA@@@QAEPAMXZ		; RefArrayHelper<float,1024>::operator float *
PUBLIC	??0Vector3@@QAE@XZ				; Vector3::Vector3
PUBLIC	??0Vector3@@QAE@ABV0@@Z				; Vector3::Vector3
PUBLIC	??0Vector3@@QAE@MMM@Z				; Vector3::Vector3
PUBLIC	??4Vector3@@QAEAAV0@ABV0@@Z			; Vector3::operator=
PUBLIC	??0GameObjObserverClass@@QAE@XZ			; GameObjObserverClass::GameObjObserverClass
PUBLIC	??1GameObjObserverClass@@UAE@XZ			; GameObjObserverClass::~GameObjObserverClass
PUBLIC	?Set_ID@GameObjObserverClass@@QAEXH@Z		; GameObjObserverClass::Set_ID
PUBLIC	?Get_ID@GameObjObserverClass@@QAEHXZ		; GameObjObserverClass::Get_ID
PUBLIC	?Owner@GameObjObserverClass@@UAEPAVScriptableGameObj@@XZ ; GameObjObserverClass::Owner
PUBLIC	??0GameObjObserverClass@@QAE@ABV0@@Z		; GameObjObserverClass::GameObjObserverClass
PUBLIC	??4GameObjObserverClass@@QAEAAV0@ABV0@@Z	; GameObjObserverClass::operator=
PUBLIC	??_GGameObjObserverClass@@UAEPAXI@Z		; GameObjObserverClass::`scalar deleting destructor'
PUBLIC	??_EGameObjObserverClass@@UAEPAXI@Z		; GameObjObserverClass::`vector deleting destructor'
PUBLIC	??1ScriptClass@@UAE@XZ				; ScriptClass::~ScriptClass
PUBLIC	??0ScriptClass@@QAE@XZ				; ScriptClass::ScriptClass
PUBLIC	??0ScriptClass@@QAE@ABV0@@Z			; ScriptClass::ScriptClass
PUBLIC	??4ScriptClass@@QAEAAV0@ABV0@@Z			; ScriptClass::operator=
PUBLIC	??_GScriptClass@@UAEPAXI@Z			; ScriptClass::`scalar deleting destructor'
PUBLIC	??_EScriptClass@@UAEPAXI@Z			; ScriptClass::`vector deleting destructor'
PUBLIC	?SetFactory@ScriptImpClass@@QAEXPAVScriptFactory@@@Z ; ScriptImpClass::SetFactory
PUBLIC	?Created@ScriptImpClass@@UAEXPAVScriptableGameObj@@@Z ; ScriptImpClass::Created
PUBLIC	?Destroyed@ScriptImpClass@@UAEXPAVScriptableGameObj@@@Z ; ScriptImpClass::Destroyed
PUBLIC	?Killed@ScriptImpClass@@UAEXPAVScriptableGameObj@@0@Z ; ScriptImpClass::Killed
PUBLIC	?Damaged@ScriptImpClass@@UAEXPAVScriptableGameObj@@0M@Z ; ScriptImpClass::Damaged
PUBLIC	?Custom@ScriptImpClass@@UAEXPAVScriptableGameObj@@HH0@Z ; ScriptImpClass::Custom
PUBLIC	?Sound_Heard@ScriptImpClass@@UAEXPAVScriptableGameObj@@ABUCombatSound@@@Z ; ScriptImpClass::Sound_Heard
PUBLIC	?Enemy_Seen@ScriptImpClass@@UAEXPAVScriptableGameObj@@0@Z ; ScriptImpClass::Enemy_Seen
PUBLIC	?Action_Complete@ScriptImpClass@@UAEXPAVScriptableGameObj@@HW4ActionCompleteReason@@@Z ; ScriptImpClass::Action_Complete
PUBLIC	?Timer_Expired@ScriptImpClass@@UAEXPAVScriptableGameObj@@H@Z ; ScriptImpClass::Timer_Expired
PUBLIC	?Animation_Complete@ScriptImpClass@@UAEXPAVScriptableGameObj@@PBD@Z ; ScriptImpClass::Animation_Complete
PUBLIC	?Poked@ScriptImpClass@@UAEXPAVScriptableGameObj@@0@Z ; ScriptImpClass::Poked
PUBLIC	?Entered@ScriptImpClass@@UAEXPAVScriptableGameObj@@0@Z ; ScriptImpClass::Entered
PUBLIC	?Exited@ScriptImpClass@@UAEXPAVScriptableGameObj@@0@Z ; ScriptImpClass::Exited
PUBLIC	?Owner@ScriptImpClass@@UAEPAVScriptableGameObj@@XZ ; ScriptImpClass::Owner
PUBLIC	?Get_Owner_Ptr@ScriptImpClass@@UAEPAPAVScriptableGameObj@@XZ ; ScriptImpClass::Get_Owner_Ptr
PUBLIC	?Save_Data@ScriptImpClass@@UAEXAAVScriptSaver@@@Z ; ScriptImpClass::Save_Data
PUBLIC	?Load_Data@ScriptImpClass@@UAEXAAVScriptLoader@@@Z ; ScriptImpClass::Load_Data
PUBLIC	?Register_Auto_Save_Variables@ScriptImpClass@@UAEXXZ ; ScriptImpClass::Register_Auto_Save_Variables
PUBLIC	?Get_Parameter_Count@ScriptImpClass@@QAEHXZ	; ScriptImpClass::Get_Parameter_Count
PUBLIC	?Get_Int_Parameter@ScriptImpClass@@QAEHH@Z	; ScriptImpClass::Get_Int_Parameter
PUBLIC	?Get_Float_Parameter@ScriptImpClass@@QAEMH@Z	; ScriptImpClass::Get_Float_Parameter
PUBLIC	?Get_Bool_Parameter@ScriptImpClass@@QAE_NPBD@Z	; ScriptImpClass::Get_Bool_Parameter
PUBLIC	?Get_Bool_Parameter@ScriptImpClass@@QAE_NH@Z	; ScriptImpClass::Get_Bool_Parameter
PUBLIC	??0ScriptImpClass@@QAE@ABV0@@Z			; ScriptImpClass::ScriptImpClass
PUBLIC	??4ScriptImpClass@@QAEAAV0@ABV0@@Z		; ScriptImpClass::operator=
PUBLIC	??_GScriptImpClass@@UAEPAXI@Z			; ScriptImpClass::`scalar deleting destructor'
PUBLIC	??_EScriptImpClass@@UAEPAXI@Z			; ScriptImpClass::`vector deleting destructor'
PUBLIC	??0ActionParamsStruct@@QAE@XZ			; ActionParamsStruct::ActionParamsStruct
PUBLIC	?Set_Basic@ActionParamsStruct@@QAEXPAVGameObjObserverClass@@MHW4SoldierAIState@@@Z ; ActionParamsStruct::Set_Basic
PUBLIC	?Set_Movement@ActionParamsStruct@@QAEXABVVector3@@MM_N@Z ; ActionParamsStruct::Set_Movement
PUBLIC	?Set_Movement@ActionParamsStruct@@QAEXPAVScriptableGameObj@@MM_N@Z ; ActionParamsStruct::Set_Movement
PUBLIC	?Dock_Vehicle@ActionParamsStruct@@QAEXABVVector3@@0@Z ; ActionParamsStruct::Dock_Vehicle
PUBLIC	??0ScriptFactory@@QAE@ABV0@@Z			; ScriptFactory::ScriptFactory
PUBLIC	??4ScriptFactory@@QAEAAV0@ABV0@@Z		; ScriptFactory::operator=
PUBLIC	??_GScriptFactory@@UAEPAXI@Z			; ScriptFactory::`scalar deleting destructor'
PUBLIC	??_EScriptFactory@@UAEPAXI@Z			; ScriptFactory::`vector deleting destructor'
PUBLIC	??4ScriptRegistrar@@QAEAAV0@ABV0@@Z		; ScriptRegistrar::operator=
PUBLIC	?Custom@KAK_Warp_On_Pickup@@EAEXPAVScriptableGameObj@@HH0@Z ; KAK_Warp_On_Pickup::Custom
PUBLIC	??0KAK_Warp_On_Pickup@@QAE@XZ			; KAK_Warp_On_Pickup::KAK_Warp_On_Pickup
PUBLIC	??1KAK_Warp_On_Pickup@@UAE@XZ			; KAK_Warp_On_Pickup::~KAK_Warp_On_Pickup
PUBLIC	??_GKAK_Warp_On_Pickup@@UAEPAXI@Z		; KAK_Warp_On_Pickup::`scalar deleting destructor'
PUBLIC	?Created@KAK_Precipitation_Create@@EAEXPAVScriptableGameObj@@@Z ; KAK_Precipitation_Create::Created
PUBLIC	?Destroyed@KAK_Precipitation_Create@@EAEXPAVScriptableGameObj@@@Z ; KAK_Precipitation_Create::Destroyed
PUBLIC	?Timer_Expired@KAK_Precipitation_Create@@EAEXPAVScriptableGameObj@@H@Z ; KAK_Precipitation_Create::Timer_Expired
PUBLIC	??0KAK_Precipitation_Create@@QAE@XZ		; KAK_Precipitation_Create::KAK_Precipitation_Create
PUBLIC	??1KAK_Precipitation_Create@@UAE@XZ		; KAK_Precipitation_Create::~KAK_Precipitation_Create
PUBLIC	??_GKAK_Precipitation_Create@@UAEPAXI@Z		; KAK_Precipitation_Create::`scalar deleting destructor'
PUBLIC	?Entered@KAK_Precipitation_Zone@@EAEXPAVScriptableGameObj@@0@Z ; KAK_Precipitation_Zone::Entered
PUBLIC	?Exited@KAK_Precipitation_Zone@@EAEXPAVScriptableGameObj@@0@Z ; KAK_Precipitation_Zone::Exited
PUBLIC	?Timer_Expired@KAK_Precipitation_Zone@@EAEXPAVScriptableGameObj@@H@Z ; KAK_Precipitation_Zone::Timer_Expired
PUBLIC	??0KAK_Precipitation_Zone@@QAE@XZ		; KAK_Precipitation_Zone::KAK_Precipitation_Zone
PUBLIC	??1KAK_Precipitation_Zone@@UAE@XZ		; KAK_Precipitation_Zone::~KAK_Precipitation_Zone
PUBLIC	??_GKAK_Precipitation_Zone@@UAEPAXI@Z		; KAK_Precipitation_Zone::`scalar deleting destructor'
PUBLIC	?Created@KAK_Wind_Create@@EAEXPAVScriptableGameObj@@@Z ; KAK_Wind_Create::Created
PUBLIC	?Destroyed@KAK_Wind_Create@@EAEXPAVScriptableGameObj@@@Z ; KAK_Wind_Create::Destroyed
PUBLIC	?Timer_Expired@KAK_Wind_Create@@EAEXPAVScriptableGameObj@@H@Z ; KAK_Wind_Create::Timer_Expired
PUBLIC	??0KAK_Wind_Create@@QAE@XZ			; KAK_Wind_Create::KAK_Wind_Create
PUBLIC	??1KAK_Wind_Create@@UAE@XZ			; KAK_Wind_Create::~KAK_Wind_Create
PUBLIC	??_GKAK_Wind_Create@@UAEPAXI@Z			; KAK_Wind_Create::`scalar deleting destructor'
PUBLIC	?Entered@KAK_Wind_Zone@@EAEXPAVScriptableGameObj@@0@Z ; KAK_Wind_Zone::Entered
PUBLIC	?Exited@KAK_Wind_Zone@@EAEXPAVScriptableGameObj@@0@Z ; KAK_Wind_Zone::Exited
PUBLIC	?Timer_Expired@KAK_Wind_Zone@@EAEXPAVScriptableGameObj@@H@Z ; KAK_Wind_Zone::Timer_Expired
PUBLIC	??0KAK_Wind_Zone@@QAE@XZ			; KAK_Wind_Zone::KAK_Wind_Zone
PUBLIC	??1KAK_Wind_Zone@@UAE@XZ			; KAK_Wind_Zone::~KAK_Wind_Zone
PUBLIC	??_GKAK_Wind_Zone@@UAEPAXI@Z			; KAK_Wind_Zone::`scalar deleting destructor'
PUBLIC	?Created@KAK_Clouds_Create@@EAEXPAVScriptableGameObj@@@Z ; KAK_Clouds_Create::Created
PUBLIC	?Destroyed@KAK_Clouds_Create@@EAEXPAVScriptableGameObj@@@Z ; KAK_Clouds_Create::Destroyed
PUBLIC	?Timer_Expired@KAK_Clouds_Create@@EAEXPAVScriptableGameObj@@H@Z ; KAK_Clouds_Create::Timer_Expired
PUBLIC	??0KAK_Clouds_Create@@QAE@XZ			; KAK_Clouds_Create::KAK_Clouds_Create
PUBLIC	??1KAK_Clouds_Create@@UAE@XZ			; KAK_Clouds_Create::~KAK_Clouds_Create
PUBLIC	??_GKAK_Clouds_Create@@UAEPAXI@Z		; KAK_Clouds_Create::`scalar deleting destructor'
PUBLIC	?Entered@KAK_Clouds_Zone@@EAEXPAVScriptableGameObj@@0@Z ; KAK_Clouds_Zone::Entered
PUBLIC	?Exited@KAK_Clouds_Zone@@EAEXPAVScriptableGameObj@@0@Z ; KAK_Clouds_Zone::Exited
PUBLIC	?Timer_Expired@KAK_Clouds_Zone@@EAEXPAVScriptableGameObj@@H@Z ; KAK_Clouds_Zone::Timer_Expired
PUBLIC	??0KAK_Clouds_Zone@@QAE@XZ			; KAK_Clouds_Zone::KAK_Clouds_Zone
PUBLIC	??1KAK_Clouds_Zone@@UAE@XZ			; KAK_Clouds_Zone::~KAK_Clouds_Zone
PUBLIC	??_GKAK_Clouds_Zone@@UAEPAXI@Z			; KAK_Clouds_Zone::`scalar deleting destructor'
PUBLIC	?Created@KAK_Lightning_Create@@EAEXPAVScriptableGameObj@@@Z ; KAK_Lightning_Create::Created
PUBLIC	?Destroyed@KAK_Lightning_Create@@EAEXPAVScriptableGameObj@@@Z ; KAK_Lightning_Create::Destroyed
PUBLIC	?Timer_Expired@KAK_Lightning_Create@@EAEXPAVScriptableGameObj@@H@Z ; KAK_Lightning_Create::Timer_Expired
PUBLIC	??0KAK_Lightning_Create@@QAE@XZ			; KAK_Lightning_Create::KAK_Lightning_Create
PUBLIC	??1KAK_Lightning_Create@@UAE@XZ			; KAK_Lightning_Create::~KAK_Lightning_Create
PUBLIC	??_GKAK_Lightning_Create@@UAEPAXI@Z		; KAK_Lightning_Create::`scalar deleting destructor'
PUBLIC	?Entered@KAK_Lightning_Zone@@EAEXPAVScriptableGameObj@@0@Z ; KAK_Lightning_Zone::Entered
PUBLIC	?Exited@KAK_Lightning_Zone@@EAEXPAVScriptableGameObj@@0@Z ; KAK_Lightning_Zone::Exited
PUBLIC	?Timer_Expired@KAK_Lightning_Zone@@EAEXPAVScriptableGameObj@@H@Z ; KAK_Lightning_Zone::Timer_Expired
PUBLIC	??0KAK_Lightning_Zone@@QAE@XZ			; KAK_Lightning_Zone::KAK_Lightning_Zone
PUBLIC	??1KAK_Lightning_Zone@@UAE@XZ			; KAK_Lightning_Zone::~KAK_Lightning_Zone
PUBLIC	??_GKAK_Lightning_Zone@@UAEPAXI@Z		; KAK_Lightning_Zone::`scalar deleting destructor'
PUBLIC	?Created@KAK_Flowing_Weather@@EAEXPAVScriptableGameObj@@@Z ; KAK_Flowing_Weather::Created
PUBLIC	?Timer_Expired@KAK_Flowing_Weather@@EAEXPAVScriptableGameObj@@H@Z ; KAK_Flowing_Weather::Timer_Expired
PUBLIC	?Register_Auto_Save_Variables@KAK_Flowing_Weather@@UAEXXZ ; KAK_Flowing_Weather::Register_Auto_Save_Variables
PUBLIC	??0KAK_Flowing_Weather@@QAE@XZ			; KAK_Flowing_Weather::KAK_Flowing_Weather
PUBLIC	??1KAK_Flowing_Weather@@UAE@XZ			; KAK_Flowing_Weather::~KAK_Flowing_Weather
PUBLIC	??_GKAK_Flowing_Weather@@UAEPAXI@Z		; KAK_Flowing_Weather::`scalar deleting destructor'
PUBLIC	?Custom@KAK_Give_Powerup_On_Pickup@@EAEXPAVScriptableGameObj@@HH0@Z ; KAK_Give_Powerup_On_Pickup::Custom
PUBLIC	??0KAK_Give_Powerup_On_Pickup@@QAE@XZ		; KAK_Give_Powerup_On_Pickup::KAK_Give_Powerup_On_Pickup
PUBLIC	??1KAK_Give_Powerup_On_Pickup@@UAE@XZ		; KAK_Give_Powerup_On_Pickup::~KAK_Give_Powerup_On_Pickup
PUBLIC	??_GKAK_Give_Powerup_On_Pickup@@UAEPAXI@Z	; KAK_Give_Powerup_On_Pickup::`scalar deleting destructor'
PUBLIC	?Entered@KAK_Select_Weapon_Zone@@EAEXPAVScriptableGameObj@@0@Z ; KAK_Select_Weapon_Zone::Entered
PUBLIC	?Exited@KAK_Select_Weapon_Zone@@EAEXPAVScriptableGameObj@@0@Z ; KAK_Select_Weapon_Zone::Exited
PUBLIC	??0KAK_Select_Weapon_Zone@@QAE@XZ		; KAK_Select_Weapon_Zone::KAK_Select_Weapon_Zone
PUBLIC	??1KAK_Select_Weapon_Zone@@UAE@XZ		; KAK_Select_Weapon_Zone::~KAK_Select_Weapon_Zone
PUBLIC	??_GKAK_Select_Weapon_Zone@@UAEPAXI@Z		; KAK_Select_Weapon_Zone::`scalar deleting destructor'
PUBLIC	?Custom@KAK_Select_Weapon_On_Pickup@@EAEXPAVScriptableGameObj@@HH0@Z ; KAK_Select_Weapon_On_Pickup::Custom
PUBLIC	??0KAK_Select_Weapon_On_Pickup@@QAE@XZ		; KAK_Select_Weapon_On_Pickup::KAK_Select_Weapon_On_Pickup
PUBLIC	??1KAK_Select_Weapon_On_Pickup@@UAE@XZ		; KAK_Select_Weapon_On_Pickup::~KAK_Select_Weapon_On_Pickup
PUBLIC	??_GKAK_Select_Weapon_On_Pickup@@UAEPAXI@Z	; KAK_Select_Weapon_On_Pickup::`scalar deleting destructor'
PUBLIC	?Created@KAK_Harvester_Logic@@EAEXPAVScriptableGameObj@@@Z ; KAK_Harvester_Logic::Created
PUBLIC	?Custom@KAK_Harvester_Logic@@EAEXPAVScriptableGameObj@@HH0@Z ; KAK_Harvester_Logic::Custom
PUBLIC	?Register_Auto_Save_Variables@KAK_Harvester_Logic@@UAEXXZ ; KAK_Harvester_Logic::Register_Auto_Save_Variables
PUBLIC	??0KAK_Harvester_Logic@@QAE@XZ			; KAK_Harvester_Logic::KAK_Harvester_Logic
PUBLIC	??1KAK_Harvester_Logic@@UAE@XZ			; KAK_Harvester_Logic::~KAK_Harvester_Logic
PUBLIC	??_GKAK_Harvester_Logic@@UAEPAXI@Z		; KAK_Harvester_Logic::`scalar deleting destructor'
PUBLIC	?Killed@KAK_Harvester_Kill@@EAEXPAVScriptableGameObj@@0@Z ; KAK_Harvester_Kill::Killed
PUBLIC	??0KAK_Harvester_Kill@@QAE@XZ			; KAK_Harvester_Kill::KAK_Harvester_Kill
PUBLIC	??1KAK_Harvester_Kill@@UAE@XZ			; KAK_Harvester_Kill::~KAK_Harvester_Kill
PUBLIC	??_GKAK_Harvester_Kill@@UAEPAXI@Z		; KAK_Harvester_Kill::`scalar deleting destructor'
PUBLIC	?Killed@KAK_Harvester_Spawn_Kill@@EAEXPAVScriptableGameObj@@0@Z ; KAK_Harvester_Spawn_Kill::Killed
PUBLIC	??0KAK_Harvester_Spawn_Kill@@QAE@XZ		; KAK_Harvester_Spawn_Kill::KAK_Harvester_Spawn_Kill
PUBLIC	??1KAK_Harvester_Spawn_Kill@@UAE@XZ		; KAK_Harvester_Spawn_Kill::~KAK_Harvester_Spawn_Kill
PUBLIC	??_GKAK_Harvester_Spawn_Kill@@UAEPAXI@Z		; KAK_Harvester_Spawn_Kill::`scalar deleting destructor'
PUBLIC	?Custom@KAK_Harvester_Attached@@EAEXPAVScriptableGameObj@@HH0@Z ; KAK_Harvester_Attached::Custom
PUBLIC	?Created@KAK_Harvester_Attached@@EAEXPAVScriptableGameObj@@@Z ; KAK_Harvester_Attached::Created
PUBLIC	?Killed@KAK_Harvester_Attached@@EAEXPAVScriptableGameObj@@0@Z ; KAK_Harvester_Attached::Killed
PUBLIC	?Action_Complete@KAK_Harvester_Attached@@EAEXPAVScriptableGameObj@@HW4ActionCompleteReason@@@Z ; KAK_Harvester_Attached::Action_Complete
PUBLIC	?Timer_Expired@KAK_Harvester_Attached@@EAEXPAVScriptableGameObj@@H@Z ; KAK_Harvester_Attached::Timer_Expired
PUBLIC	?Register_Auto_Save_Variables@KAK_Harvester_Attached@@UAEXXZ ; KAK_Harvester_Attached::Register_Auto_Save_Variables
PUBLIC	??0KAK_Harvester_Attached@@QAE@XZ		; KAK_Harvester_Attached::KAK_Harvester_Attached
PUBLIC	??1KAK_Harvester_Attached@@UAE@XZ		; KAK_Harvester_Attached::~KAK_Harvester_Attached
PUBLIC	??_GKAK_Harvester_Attached@@UAEPAXI@Z		; KAK_Harvester_Attached::`scalar deleting destructor'
PUBLIC	?Damaged@KAK_Prevent_Kill@@EAEXPAVScriptableGameObj@@0M@Z ; KAK_Prevent_Kill::Damaged
PUBLIC	?Killed@KAK_Prevent_Kill@@EAEXPAVScriptableGameObj@@0@Z ; KAK_Prevent_Kill::Killed
PUBLIC	??0KAK_Prevent_Kill@@QAE@XZ			; KAK_Prevent_Kill::KAK_Prevent_Kill
PUBLIC	??1KAK_Prevent_Kill@@UAE@XZ			; KAK_Prevent_Kill::~KAK_Prevent_Kill
PUBLIC	??_GKAK_Prevent_Kill@@UAEPAXI@Z			; KAK_Prevent_Kill::`scalar deleting destructor'
PUBLIC	?Created@KAK_Convert_Visceroid@@EAEXPAVScriptableGameObj@@@Z ; KAK_Convert_Visceroid::Created
PUBLIC	?Timer_Expired@KAK_Convert_Visceroid@@EAEXPAVScriptableGameObj@@H@Z ; KAK_Convert_Visceroid::Timer_Expired
PUBLIC	?Killed@KAK_Convert_Visceroid@@EAEXPAVScriptableGameObj@@0@Z ; KAK_Convert_Visceroid::Killed
PUBLIC	??0KAK_Convert_Visceroid@@QAE@XZ		; KAK_Convert_Visceroid::KAK_Convert_Visceroid
PUBLIC	??1KAK_Convert_Visceroid@@UAE@XZ		; KAK_Convert_Visceroid::~KAK_Convert_Visceroid
PUBLIC	??_GKAK_Convert_Visceroid@@UAEPAXI@Z		; KAK_Convert_Visceroid::`scalar deleting destructor'
PUBLIC	?Created@KAK_Freeze_Object@@EAEXPAVScriptableGameObj@@@Z ; KAK_Freeze_Object::Created
PUBLIC	?Timer_Expired@KAK_Freeze_Object@@EAEXPAVScriptableGameObj@@H@Z ; KAK_Freeze_Object::Timer_Expired
PUBLIC	?Custom@KAK_Freeze_Object@@EAEXPAVScriptableGameObj@@HH0@Z ; KAK_Freeze_Object::Custom
PUBLIC	?Register_Auto_Save_Variables@KAK_Freeze_Object@@UAEXXZ ; KAK_Freeze_Object::Register_Auto_Save_Variables
PUBLIC	??0KAK_Freeze_Object@@QAE@XZ			; KAK_Freeze_Object::KAK_Freeze_Object
PUBLIC	??1KAK_Freeze_Object@@UAE@XZ			; KAK_Freeze_Object::~KAK_Freeze_Object
PUBLIC	??_GKAK_Freeze_Object@@UAEPAXI@Z		; KAK_Freeze_Object::`scalar deleting destructor'
PUBLIC	?Created@KAK_Regen_Custom@@EAEXPAVScriptableGameObj@@@Z ; KAK_Regen_Custom::Created
PUBLIC	?Timer_Expired@KAK_Regen_Custom@@EAEXPAVScriptableGameObj@@H@Z ; KAK_Regen_Custom::Timer_Expired
PUBLIC	?Custom@KAK_Regen_Custom@@EAEXPAVScriptableGameObj@@HH0@Z ; KAK_Regen_Custom::Custom
PUBLIC	??0KAK_Regen_Custom@@QAE@XZ			; KAK_Regen_Custom::KAK_Regen_Custom
PUBLIC	??1KAK_Regen_Custom@@UAE@XZ			; KAK_Regen_Custom::~KAK_Regen_Custom
PUBLIC	??_GKAK_Regen_Custom@@UAEPAXI@Z			; KAK_Regen_Custom::`scalar deleting destructor'
PUBLIC	??0?$ScriptRegistrant@VKAK_Warp_On_Pickup@@@@QAE@PBD0@Z ; ScriptRegistrant<KAK_Warp_On_Pickup>::ScriptRegistrant<KAK_Warp_On_Pickup>
PUBLIC	?Create@?$ScriptRegistrant@VKAK_Warp_On_Pickup@@@@UAEPAVScriptImpClass@@XZ ; ScriptRegistrant<KAK_Warp_On_Pickup>::Create
PUBLIC	??1?$ScriptRegistrant@VKAK_Warp_On_Pickup@@@@UAE@XZ ; ScriptRegistrant<KAK_Warp_On_Pickup>::~ScriptRegistrant<KAK_Warp_On_Pickup>
PUBLIC	??_G?$ScriptRegistrant@VKAK_Warp_On_Pickup@@@@UAEPAXI@Z ; ScriptRegistrant<KAK_Warp_On_Pickup>::`scalar deleting destructor'
PUBLIC	??0?$ScriptRegistrant@VKAK_Precipitation_Create@@@@QAE@PBD0@Z ; ScriptRegistrant<KAK_Precipitation_Create>::ScriptRegistrant<KAK_Precipitation_Create>
PUBLIC	?Create@?$ScriptRegistrant@VKAK_Precipitation_Create@@@@UAEPAVScriptImpClass@@XZ ; ScriptRegistrant<KAK_Precipitation_Create>::Create
PUBLIC	??1?$ScriptRegistrant@VKAK_Precipitation_Create@@@@UAE@XZ ; ScriptRegistrant<KAK_Precipitation_Create>::~ScriptRegistrant<KAK_Precipitation_Create>
PUBLIC	??_G?$ScriptRegistrant@VKAK_Precipitation_Create@@@@UAEPAXI@Z ; ScriptRegistrant<KAK_Precipitation_Create>::`scalar deleting destructor'
PUBLIC	??0?$ScriptRegistrant@VKAK_Precipitation_Zone@@@@QAE@PBD0@Z ; ScriptRegistrant<KAK_Precipitation_Zone>::ScriptRegistrant<KAK_Precipitation_Zone>
PUBLIC	?Create@?$ScriptRegistrant@VKAK_Precipitation_Zone@@@@UAEPAVScriptImpClass@@XZ ; ScriptRegistrant<KAK_Precipitation_Zone>::Create
PUBLIC	??1?$ScriptRegistrant@VKAK_Precipitation_Zone@@@@UAE@XZ ; ScriptRegistrant<KAK_Precipitation_Zone>::~ScriptRegistrant<KAK_Precipitation_Zone>
PUBLIC	??_G?$ScriptRegistrant@VKAK_Precipitation_Zone@@@@UAEPAXI@Z ; ScriptRegistrant<KAK_Precipitation_Zone>::`scalar deleting destructor'
PUBLIC	??0?$ScriptRegistrant@VKAK_Wind_Create@@@@QAE@PBD0@Z ; ScriptRegistrant<KAK_Wind_Create>::ScriptRegistrant<KAK_Wind_Create>
PUBLIC	?Create@?$ScriptRegistrant@VKAK_Wind_Create@@@@UAEPAVScriptImpClass@@XZ ; ScriptRegistrant<KAK_Wind_Create>::Create
PUBLIC	??1?$ScriptRegistrant@VKAK_Wind_Create@@@@UAE@XZ ; ScriptRegistrant<KAK_Wind_Create>::~ScriptRegistrant<KAK_Wind_Create>
PUBLIC	??_G?$ScriptRegistrant@VKAK_Wind_Create@@@@UAEPAXI@Z ; ScriptRegistrant<KAK_Wind_Create>::`scalar deleting destructor'
PUBLIC	??0?$ScriptRegistrant@VKAK_Wind_Zone@@@@QAE@PBD0@Z ; ScriptRegistrant<KAK_Wind_Zone>::ScriptRegistrant<KAK_Wind_Zone>
PUBLIC	?Create@?$ScriptRegistrant@VKAK_Wind_Zone@@@@UAEPAVScriptImpClass@@XZ ; ScriptRegistrant<KAK_Wind_Zone>::Create
PUBLIC	??1?$ScriptRegistrant@VKAK_Wind_Zone@@@@UAE@XZ	; ScriptRegistrant<KAK_Wind_Zone>::~ScriptRegistrant<KAK_Wind_Zone>
PUBLIC	??_G?$ScriptRegistrant@VKAK_Wind_Zone@@@@UAEPAXI@Z ; ScriptRegistrant<KAK_Wind_Zone>::`scalar deleting destructor'
PUBLIC	??0?$ScriptRegistrant@VKAK_Clouds_Create@@@@QAE@PBD0@Z ; ScriptRegistrant<KAK_Clouds_Create>::ScriptRegistrant<KAK_Clouds_Create>
PUBLIC	?Create@?$ScriptRegistrant@VKAK_Clouds_Create@@@@UAEPAVScriptImpClass@@XZ ; ScriptRegistrant<KAK_Clouds_Create>::Create
PUBLIC	??1?$ScriptRegistrant@VKAK_Clouds_Create@@@@UAE@XZ ; ScriptRegistrant<KAK_Clouds_Create>::~ScriptRegistrant<KAK_Clouds_Create>
PUBLIC	??_G?$ScriptRegistrant@VKAK_Clouds_Create@@@@UAEPAXI@Z ; ScriptRegistrant<KAK_Clouds_Create>::`scalar deleting destructor'
PUBLIC	??0?$ScriptRegistrant@VKAK_Clouds_Zone@@@@QAE@PBD0@Z ; ScriptRegistrant<KAK_Clouds_Zone>::ScriptRegistrant<KAK_Clouds_Zone>
PUBLIC	?Create@?$ScriptRegistrant@VKAK_Clouds_Zone@@@@UAEPAVScriptImpClass@@XZ ; ScriptRegistrant<KAK_Clouds_Zone>::Create
PUBLIC	??1?$ScriptRegistrant@VKAK_Clouds_Zone@@@@UAE@XZ ; ScriptRegistrant<KAK_Clouds_Zone>::~ScriptRegistrant<KAK_Clouds_Zone>
PUBLIC	??_G?$ScriptRegistrant@VKAK_Clouds_Zone@@@@UAEPAXI@Z ; ScriptRegistrant<KAK_Clouds_Zone>::`scalar deleting destructor'
PUBLIC	??0?$ScriptRegistrant@VKAK_Lightning_Create@@@@QAE@PBD0@Z ; ScriptRegistrant<KAK_Lightning_Create>::ScriptRegistrant<KAK_Lightning_Create>
PUBLIC	?Create@?$ScriptRegistrant@VKAK_Lightning_Create@@@@UAEPAVScriptImpClass@@XZ ; ScriptRegistrant<KAK_Lightning_Create>::Create
PUBLIC	??1?$ScriptRegistrant@VKAK_Lightning_Create@@@@UAE@XZ ; ScriptRegistrant<KAK_Lightning_Create>::~ScriptRegistrant<KAK_Lightning_Create>
PUBLIC	??_G?$ScriptRegistrant@VKAK_Lightning_Create@@@@UAEPAXI@Z ; ScriptRegistrant<KAK_Lightning_Create>::`scalar deleting destructor'
PUBLIC	??0?$ScriptRegistrant@VKAK_Lightning_Zone@@@@QAE@PBD0@Z ; ScriptRegistrant<KAK_Lightning_Zone>::ScriptRegistrant<KAK_Lightning_Zone>
PUBLIC	?Create@?$ScriptRegistrant@VKAK_Lightning_Zone@@@@UAEPAVScriptImpClass@@XZ ; ScriptRegistrant<KAK_Lightning_Zone>::Create
PUBLIC	??1?$ScriptRegistrant@VKAK_Lightning_Zone@@@@UAE@XZ ; ScriptRegistrant<KAK_Lightning_Zone>::~ScriptRegistrant<KAK_Lightning_Zone>
PUBLIC	??_G?$ScriptRegistrant@VKAK_Lightning_Zone@@@@UAEPAXI@Z ; ScriptRegistrant<KAK_Lightning_Zone>::`scalar deleting destructor'
PUBLIC	??0?$ScriptRegistrant@VKAK_Flowing_Weather@@@@QAE@PBD0@Z ; ScriptRegistrant<KAK_Flowing_Weather>::ScriptRegistrant<KAK_Flowing_Weather>
PUBLIC	?Create@?$ScriptRegistrant@VKAK_Flowing_Weather@@@@UAEPAVScriptImpClass@@XZ ; ScriptRegistrant<KAK_Flowing_Weather>::Create
PUBLIC	??1?$ScriptRegistrant@VKAK_Flowing_Weather@@@@UAE@XZ ; ScriptRegistrant<KAK_Flowing_Weather>::~ScriptRegistrant<KAK_Flowing_Weather>
PUBLIC	??_G?$ScriptRegistrant@VKAK_Flowing_Weather@@@@UAEPAXI@Z ; ScriptRegistrant<KAK_Flowing_Weather>::`scalar deleting destructor'
PUBLIC	??0?$ScriptRegistrant@VKAK_Give_Powerup_On_Pickup@@@@QAE@PBD0@Z ; ScriptRegistrant<KAK_Give_Powerup_On_Pickup>::ScriptRegistrant<KAK_Give_Powerup_On_Pickup>
PUBLIC	?Create@?$ScriptRegistrant@VKAK_Give_Powerup_On_Pickup@@@@UAEPAVScriptImpClass@@XZ ; ScriptRegistrant<KAK_Give_Powerup_On_Pickup>::Create
PUBLIC	??1?$ScriptRegistrant@VKAK_Give_Powerup_On_Pickup@@@@UAE@XZ ; ScriptRegistrant<KAK_Give_Powerup_On_Pickup>::~ScriptRegistrant<KAK_Give_Powerup_On_Pickup>
PUBLIC	??_G?$ScriptRegistrant@VKAK_Give_Powerup_On_Pickup@@@@UAEPAXI@Z ; ScriptRegistrant<KAK_Give_Powerup_On_Pickup>::`scalar deleting destructor'
PUBLIC	??0?$ScriptRegistrant@VKAK_Select_Weapon_Zone@@@@QAE@PBD0@Z ; ScriptRegistrant<KAK_Select_Weapon_Zone>::ScriptRegistrant<KAK_Select_Weapon_Zone>
PUBLIC	?Create@?$ScriptRegistrant@VKAK_Select_Weapon_Zone@@@@UAEPAVScriptImpClass@@XZ ; ScriptRegistrant<KAK_Select_Weapon_Zone>::Create
PUBLIC	??1?$ScriptRegistrant@VKAK_Select_Weapon_Zone@@@@UAE@XZ ; ScriptRegistrant<KAK_Select_Weapon_Zone>::~ScriptRegistrant<KAK_Select_Weapon_Zone>
PUBLIC	??_G?$ScriptRegistrant@VKAK_Select_Weapon_Zone@@@@UAEPAXI@Z ; ScriptRegistrant<KAK_Select_Weapon_Zone>::`scalar deleting destructor'
PUBLIC	??0?$ScriptRegistrant@VKAK_Select_Weapon_On_Pickup@@@@QAE@PBD0@Z ; ScriptRegistrant<KAK_Select_Weapon_On_Pickup>::ScriptRegistrant<KAK_Select_Weapon_On_Pickup>
PUBLIC	?Create@?$ScriptRegistrant@VKAK_Select_Weapon_On_Pickup@@@@UAEPAVScriptImpClass@@XZ ; ScriptRegistrant<KAK_Select_Weapon_On_Pickup>::Create
PUBLIC	??1?$ScriptRegistrant@VKAK_Select_Weapon_On_Pickup@@@@UAE@XZ ; ScriptRegistrant<KAK_Select_Weapon_On_Pickup>::~ScriptRegistrant<KAK_Select_Weapon_On_Pickup>
PUBLIC	??_G?$ScriptRegistrant@VKAK_Select_Weapon_On_Pickup@@@@UAEPAXI@Z ; ScriptRegistrant<KAK_Select_Weapon_On_Pickup>::`scalar deleting destructor'
PUBLIC	??0?$ScriptRegistrant@VKAK_Harvester_Logic@@@@QAE@PBD0@Z ; ScriptRegistrant<KAK_Harvester_Logic>::ScriptRegistrant<KAK_Harvester_Logic>
PUBLIC	?Create@?$ScriptRegistrant@VKAK_Harvester_Logic@@@@UAEPAVScriptImpClass@@XZ ; ScriptRegistrant<KAK_Harvester_Logic>::Create
PUBLIC	??1?$ScriptRegistrant@VKAK_Harvester_Logic@@@@UAE@XZ ; ScriptRegistrant<KAK_Harvester_Logic>::~ScriptRegistrant<KAK_Harvester_Logic>
PUBLIC	??_G?$ScriptRegistrant@VKAK_Harvester_Logic@@@@UAEPAXI@Z ; ScriptRegistrant<KAK_Harvester_Logic>::`scalar deleting destructor'
PUBLIC	??0?$ScriptRegistrant@VKAK_Harvester_Attached@@@@QAE@PBD0@Z ; ScriptRegistrant<KAK_Harvester_Attached>::ScriptRegistrant<KAK_Harvester_Attached>
PUBLIC	?Create@?$ScriptRegistrant@VKAK_Harvester_Attached@@@@UAEPAVScriptImpClass@@XZ ; ScriptRegistrant<KAK_Harvester_Attached>::Create
PUBLIC	??1?$ScriptRegistrant@VKAK_Harvester_Attached@@@@UAE@XZ ; ScriptRegistrant<KAK_Harvester_Attached>::~ScriptRegistrant<KAK_Harvester_Attached>
PUBLIC	??_G?$ScriptRegistrant@VKAK_Harvester_Attached@@@@UAEPAXI@Z ; ScriptRegistrant<KAK_Harvester_Attached>::`scalar deleting destructor'
PUBLIC	??0?$ScriptRegistrant@VKAK_Harvester_Kill@@@@QAE@PBD0@Z ; ScriptRegistrant<KAK_Harvester_Kill>::ScriptRegistrant<KAK_Harvester_Kill>
PUBLIC	?Create@?$ScriptRegistrant@VKAK_Harvester_Kill@@@@UAEPAVScriptImpClass@@XZ ; ScriptRegistrant<KAK_Harvester_Kill>::Create
PUBLIC	??1?$ScriptRegistrant@VKAK_Harvester_Kill@@@@UAE@XZ ; ScriptRegistrant<KAK_Harvester_Kill>::~ScriptRegistrant<KAK_Harvester_Kill>
PUBLIC	??_G?$ScriptRegistrant@VKAK_Harvester_Kill@@@@UAEPAXI@Z ; ScriptRegistrant<KAK_Harvester_Kill>::`scalar deleting destructor'
PUBLIC	??0?$ScriptRegistrant@VKAK_Harvester_Spawn_Kill@@@@QAE@PBD0@Z ; ScriptRegistrant<KAK_Harvester_Spawn_Kill>::ScriptRegistrant<KAK_Harvester_Spawn_Kill>
PUBLIC	?Create@?$ScriptRegistrant@VKAK_Harvester_Spawn_Kill@@@@UAEPAVScriptImpClass@@XZ ; ScriptRegistrant<KAK_Harvester_Spawn_Kill>::Create
PUBLIC	??1?$ScriptRegistrant@VKAK_Harvester_Spawn_Kill@@@@UAE@XZ ; ScriptRegistrant<KAK_Harvester_Spawn_Kill>::~ScriptRegistrant<KAK_Harvester_Spawn_Kill>
PUBLIC	??_G?$ScriptRegistrant@VKAK_Harvester_Spawn_Kill@@@@UAEPAXI@Z ; ScriptRegistrant<KAK_Harvester_Spawn_Kill>::`scalar deleting destructor'
PUBLIC	??0?$ScriptRegistrant@VKAK_Prevent_Kill@@@@QAE@PBD0@Z ; ScriptRegistrant<KAK_Prevent_Kill>::ScriptRegistrant<KAK_Prevent_Kill>
PUBLIC	?Create@?$ScriptRegistrant@VKAK_Prevent_Kill@@@@UAEPAVScriptImpClass@@XZ ; ScriptRegistrant<KAK_Prevent_Kill>::Create
PUBLIC	??1?$ScriptRegistrant@VKAK_Prevent_Kill@@@@UAE@XZ ; ScriptRegistrant<KAK_Prevent_Kill>::~ScriptRegistrant<KAK_Prevent_Kill>
PUBLIC	??_G?$ScriptRegistrant@VKAK_Prevent_Kill@@@@UAEPAXI@Z ; ScriptRegistrant<KAK_Prevent_Kill>::`scalar deleting destructor'
PUBLIC	??0?$ScriptRegistrant@VKAK_Convert_Visceroid@@@@QAE@PBD0@Z ; ScriptRegistrant<KAK_Convert_Visceroid>::ScriptRegistrant<KAK_Convert_Visceroid>
PUBLIC	?Create@?$ScriptRegistrant@VKAK_Convert_Visceroid@@@@UAEPAVScriptImpClass@@XZ ; ScriptRegistrant<KAK_Convert_Visceroid>::Create
PUBLIC	??1?$ScriptRegistrant@VKAK_Convert_Visceroid@@@@UAE@XZ ; ScriptRegistrant<KAK_Convert_Visceroid>::~ScriptRegistrant<KAK_Convert_Visceroid>
PUBLIC	??_G?$ScriptRegistrant@VKAK_Convert_Visceroid@@@@UAEPAXI@Z ; ScriptRegistrant<KAK_Convert_Visceroid>::`scalar deleting destructor'
PUBLIC	??0?$ScriptRegistrant@VKAK_Freeze_Object@@@@QAE@PBD0@Z ; ScriptRegistrant<KAK_Freeze_Object>::ScriptRegistrant<KAK_Freeze_Object>
PUBLIC	?Create@?$ScriptRegistrant@VKAK_Freeze_Object@@@@UAEPAVScriptImpClass@@XZ ; ScriptRegistrant<KAK_Freeze_Object>::Create
PUBLIC	??1?$ScriptRegistrant@VKAK_Freeze_Object@@@@UAE@XZ ; ScriptRegistrant<KAK_Freeze_Object>::~ScriptRegistrant<KAK_Freeze_Object>
PUBLIC	??_G?$ScriptRegistrant@VKAK_Freeze_Object@@@@UAEPAXI@Z ; ScriptRegistrant<KAK_Freeze_Object>::`scalar deleting destructor'
PUBLIC	??0?$ScriptRegistrant@VKAK_Regen_Custom@@@@QAE@PBD0@Z ; ScriptRegistrant<KAK_Regen_Custom>::ScriptRegistrant<KAK_Regen_Custom>
PUBLIC	?Create@?$ScriptRegistrant@VKAK_Regen_Custom@@@@UAEPAVScriptImpClass@@XZ ; ScriptRegistrant<KAK_Regen_Custom>::Create
PUBLIC	??1?$ScriptRegistrant@VKAK_Regen_Custom@@@@UAE@XZ ; ScriptRegistrant<KAK_Regen_Custom>::~ScriptRegistrant<KAK_Regen_Custom>
PUBLIC	??_G?$ScriptRegistrant@VKAK_Regen_Custom@@@@UAEPAXI@Z ; ScriptRegistrant<KAK_Regen_Custom>::`scalar deleting destructor'
PUBLIC	??_7GameObjObserverClass@@6B@			; GameObjObserverClass::`vftable'
PUBLIC	??_7ScriptClass@@6B@				; ScriptClass::`vftable'
PUBLIC	??_7ScriptImpClass@@6B@				; ScriptImpClass::`vftable'
PUBLIC	??_7ScriptFactory@@6B@				; ScriptFactory::`vftable'
PUBLIC	??_7KAK_Warp_On_Pickup@@6B@			; KAK_Warp_On_Pickup::`vftable'
PUBLIC	??_7KAK_Precipitation_Create@@6B@		; KAK_Precipitation_Create::`vftable'
PUBLIC	??_7KAK_Precipitation_Zone@@6B@			; KAK_Precipitation_Zone::`vftable'
PUBLIC	??_7KAK_Wind_Create@@6B@			; KAK_Wind_Create::`vftable'
PUBLIC	??_7KAK_Wind_Zone@@6B@				; KAK_Wind_Zone::`vftable'
PUBLIC	??_7KAK_Clouds_Create@@6B@			; KAK_Clouds_Create::`vftable'
PUBLIC	??_7KAK_Clouds_Zone@@6B@			; KAK_Clouds_Zone::`vftable'
PUBLIC	??_7KAK_Lightning_Create@@6B@			; KAK_Lightning_Create::`vftable'
PUBLIC	??_7KAK_Lightning_Zone@@6B@			; KAK_Lightning_Zone::`vftable'
PUBLIC	??_7KAK_Flowing_Weather@@6B@			; KAK_Flowing_Weather::`vftable'
PUBLIC	??_7KAK_Give_Powerup_On_Pickup@@6B@		; KAK_Give_Powerup_On_Pickup::`vftable'
PUBLIC	??_7KAK_Select_Weapon_Zone@@6B@			; KAK_Select_Weapon_Zone::`vftable'
PUBLIC	??_7KAK_Select_Weapon_On_Pickup@@6B@		; KAK_Select_Weapon_On_Pickup::`vftable'
PUBLIC	??_7KAK_Harvester_Logic@@6B@			; KAK_Harvester_Logic::`vftable'
PUBLIC	??_7KAK_Harvester_Kill@@6B@			; KAK_Harvester_Kill::`vftable'
PUBLIC	??_7KAK_Harvester_Spawn_Kill@@6B@		; KAK_Harvester_Spawn_Kill::`vftable'
PUBLIC	??_7KAK_Harvester_Attached@@6B@			; KAK_Harvester_Attached::`vftable'
PUBLIC	??_7KAK_Prevent_Kill@@6B@			; KAK_Prevent_Kill::`vftable'
PUBLIC	??_7KAK_Convert_Visceroid@@6B@			; KAK_Convert_Visceroid::`vftable'
PUBLIC	??_7KAK_Freeze_Object@@6B@			; KAK_Freeze_Object::`vftable'
PUBLIC	??_7KAK_Regen_Custom@@6B@			; KAK_Regen_Custom::`vftable'
PUBLIC	??_C@_08GCJNLIKG@Position?$AA@			; `string'
PUBLIC	??_C@_08HHIPGBBF@OnCreate?$AA@			; `string'
PUBLIC	??_C@_05ENDOMFAI@Delay?$AA@			; `string'
PUBLIC	??_C@_0BE@HAKIIGCL@Reset_Precipitation?$AA@	; `string'
PUBLIC	??_C@_04LOGCFOOF@Snow?$AA@			; `string'
PUBLIC	??_C@_04KOACHJEN@Type?$AA@			; `string'
PUBLIC	??_C@_07IJCDMBEM@Density?$AA@			; `string'
PUBLIC	??_C@_03GIACIBN@Ash?$AA@			; `string'
PUBLIC	??_C@_04EEOMLCKJ@Rain?$AA@			; `string'
PUBLIC	??_C@_09GOJICBBC@OnDestroy?$AA@			; `string'
PUBLIC	??_C@_07HPDGLAOI@OnEnter?$AA@			; `string'
PUBLIC	??_C@_06NAODFICM@OnExit?$AA@			; `string'
PUBLIC	??_C@_0BB@HEHDOFPK@Wind_Variability?$AA@	; `string'
PUBLIC	??_C@_0L@MNCPPOOI@Wind_Speed?$AA@		; `string'
PUBLIC	??_C@_0N@OEPLFNPF@Wind_Heading?$AA@		; `string'
PUBLIC	??_C@_0BB@FNAMBFPI@Cloud_Gloominess?$AA@	; `string'
PUBLIC	??_C@_0M@NBCMDLG@Cloud_Cover?$AA@		; `string'
PUBLIC	??_C@_0BH@OELIOJDP@Lightning_Distribution?$AA@	; `string'
PUBLIC	??_C@_0BC@OJKEJCIP@Lightning_Heading?$AA@	; `string'
PUBLIC	??_C@_0N@BFABEEAA@End_Distance?$AA@		; `string'
PUBLIC	??_C@_0P@HFKCPGKF@Start_Distance?$AA@		; `string'
PUBLIC	??_C@_0BE@JFAOEINL@Lightning_Intensity?$AA@	; `string'
PUBLIC	??_C@_05HOIAGEJD@Speed?$AA@			; `string'
PUBLIC	??_C@_0BA@LFIAJIDH@Wind_Variablity?$AA@		; `string'
PUBLIC	??_C@_0BM@CPNJJFEI@Minimum_Precipitation_Start?$AA@ ; `string'
PUBLIC	??_C@_0BK@LJMEGGON@Max_Precipitation_Density?$AA@ ; `string'
PUBLIC	??_C@_0BD@HGLHACLN@Precipitation_Type?$AA@	; `string'
PUBLIC	??_C@_0BI@EBKFDMDF@Minimum_Lightning_Start?$AA@	; `string'
PUBLIC	??_C@_0BM@HHFDIBH@Maximum_Lightning_Intensity?$AA@ ; `string'
PUBLIC	??_C@_0P@IJCJMCGL@Powerup_Preset?$AA@		; `string'
PUBLIC	??_C@_0O@ECOIBPBG@Weapon_Preset?$AA@		; `string'
PUBLIC	??_C@_0BB@LCFEHILM@Explosion_Preset?$AA@	; `string'
PUBLIC	??_C@_0BB@IFFOHCMO@Harvester_Preset?$AA@	; `string'
PUBLIC	??_C@_09IGNDJJLI@Explosive?$AA@			; `string'
PUBLIC	??_C@_07NKAPIFEF@LogicID?$AA@			; `string'
PUBLIC	??_C@_0BA@OPCOEAIM@Number_Of_Paths?$AA@		; `string'
PUBLIC	??_C@_0BE@INAFLFIN@Waypath1_Dock2Field?$AA@	; `string'
PUBLIC	??_C@_0BC@LDBCMDNJ@Waypath1_Tib_Zone?$AA@	; `string'
PUBLIC	??_C@_0BE@DAMPNJED@Waypath2_Dock2Field?$AA@	; `string'
PUBLIC	??_C@_0BC@CKPAKFNI@Waypath2_Tib_Zone?$AA@	; `string'
PUBLIC	??_C@_0BE@ONFJAAMG@Waypath3_Dock2Field?$AA@	; `string'
PUBLIC	??_C@_0BC@OLHOHKBI@Waypath3_Tib_Zone?$AA@	; `string'
PUBLIC	??_C@_01GBGANLPD@0?$AA@				; `string'
PUBLIC	??_C@_0P@JILJGFHC@Crystal_Preset?$AA@		; `string'
PUBLIC	??_C@_0BC@IPGMMAIA@Harvest_Animation?$AA@	; `string'
PUBLIC	??_C@_0BD@MOHLNDH@Tiberium_Idle_Time?$AA@	; `string'
PUBLIC	??_C@_0O@IBOGHPMJ@Dock_Location?$AA@		; `string'
PUBLIC	??_C@_0P@ECGAMGPN@Dock_Animation?$AA@		; `string'
PUBLIC	??_C@_0P@KAFHAIOI@Dock_Idle_Time?$AA@		; `string'
PUBLIC	??_C@_0BE@KLDGMPOB@Waypath1_Field2Dock?$AA@	; `string'
PUBLIC	??_C@_0BE@BGPMKDCP@Waypath2_Field2Dock?$AA@	; `string'
PUBLIC	??_C@_0BE@MLGKHKKK@Waypath3_Field2Dock?$AA@	; `string'
PUBLIC	??_C@_0N@GDAJCJHI@Dock_Credits?$AA@		; `string'
PUBLIC	??_C@_0BL@OHNGLKLD@Harvester_Create_Idle_Time?$AA@ ; `string'
PUBLIC	??_C@_0M@FNEPDILO@c_visceroid?$AA@		; `string'
PUBLIC	??_C@_0BH@IEBFNIJ@POW_ChemSprayer_Player?$AA@	; `string'
PUBLIC	??_C@_0L@JBGDILLN@SkinMutant?$AA@		; `string'
PUBLIC	??_C@_0BF@DPHCPFOB@CnC_POW_Ammo_ClipMax?$AA@	; `string'
PUBLIC	??_C@_0BK@IDCCMNDN@Weapon_ChemSprayer_Player?$AA@ ; `string'
PUBLIC	??_C@_04OKOFBOPB@Time?$AA@			; `string'
PUBLIC	??_C@_08KDKDEPAG@Interval?$AA@			; `string'
PUBLIC	??_C@_06GGDALCBD@Health?$AA@			; `string'
PUBLIC	??_7?$ScriptRegistrant@VKAK_Warp_On_Pickup@@@@6B@ ; ScriptRegistrant<KAK_Warp_On_Pickup>::`vftable'
PUBLIC	?KAK_Warp_On_Pickup_Registrant@@3V?$ScriptRegistrant@VKAK_Warp_On_Pickup@@@@A ; KAK_Warp_On_Pickup_Registrant
PUBLIC	??_C@_0BB@HHHFHKMF@Position?3vector3?$AA@	; `string'
PUBLIC	??_C@_0BD@BMMOEDIN@KAK_Warp_On_Pickup?$AA@	; `string'
PUBLIC	??_7?$ScriptRegistrant@VKAK_Precipitation_Create@@@@6B@ ; ScriptRegistrant<KAK_Precipitation_Create>::`vftable'
PUBLIC	?KAK_Precipitation_Create_Registrant@@3V?$ScriptRegistrant@VKAK_Precipitation_Create@@@@A ; KAK_Precipitation_Create_Registrant
PUBLIC	??_C@_0HA@CLJCDANK@Type?$DNRain?3string?0Density?$DN0?4000?3f@ ; `string'
PUBLIC	??_C@_0BJ@HKIHLNEA@KAK_Precipitation_Create?$AA@ ; `string'
PUBLIC	??_7?$ScriptRegistrant@VKAK_Precipitation_Zone@@@@6B@ ; ScriptRegistrant<KAK_Precipitation_Zone>::`vftable'
PUBLIC	?KAK_Precipitation_Zone_Registrant@@3V?$ScriptRegistrant@VKAK_Precipitation_Zone@@@@A ; KAK_Precipitation_Zone_Registrant
PUBLIC	??_C@_0GM@EIJKKLPI@Type?$DNRain?3string?0Density?$DN0?4000?3f@ ; `string'
PUBLIC	??_C@_0BH@KPLJEOJE@KAK_Precipitation_Zone?$AA@	; `string'
PUBLIC	??_7?$ScriptRegistrant@VKAK_Wind_Create@@@@6B@	; ScriptRegistrant<KAK_Wind_Create>::`vftable'
PUBLIC	?KAK_Wind_Create_Registrant@@3V?$ScriptRegistrant@VKAK_Wind_Create@@@@A ; KAK_Wind_Create_Registrant
PUBLIC	??_C@_0HO@PGFHOLKP@Wind_Heading?$DN0?4000?3float?0Wind_Sp@ ; `string'
PUBLIC	??_C@_0BA@LPHEANAE@KAK_Wind_Create?$AA@		; `string'
PUBLIC	??_7?$ScriptRegistrant@VKAK_Wind_Zone@@@@6B@	; ScriptRegistrant<KAK_Wind_Zone>::`vftable'
PUBLIC	?KAK_Wind_Zone_Registrant@@3V?$ScriptRegistrant@VKAK_Wind_Zone@@@@A ; KAK_Wind_Zone_Registrant
PUBLIC	??_C@_0HK@FLIEHMGJ@Wind_Heading?$DN0?4000?3float?0Wind_Sp@ ; `string'
PUBLIC	??_C@_0O@ENAELLHC@KAK_Wind_Zone?$AA@		; `string'
PUBLIC	??_7?$ScriptRegistrant@VKAK_Clouds_Create@@@@6B@ ; ScriptRegistrant<KAK_Clouds_Create>::`vftable'
PUBLIC	?KAK_Clouds_Create_Registrant@@3V?$ScriptRegistrant@VKAK_Clouds_Create@@@@A ; KAK_Clouds_Create_Registrant
PUBLIC	??_C@_0GG@GAFGOLMI@Cloud_Cover?$DN0?4000?3float?0Cloud_Gl@ ; `string'
PUBLIC	??_C@_0BC@OANPJFMP@KAK_Clouds_Create?$AA@	; `string'
PUBLIC	??_7?$ScriptRegistrant@VKAK_Clouds_Zone@@@@6B@	; ScriptRegistrant<KAK_Clouds_Zone>::`vftable'
PUBLIC	?KAK_Clouds_Zone_Registrant@@3V?$ScriptRegistrant@VKAK_Clouds_Zone@@@@A ; KAK_Clouds_Zone_Registrant
PUBLIC	??_C@_0GC@GMHBCDPO@Cloud_Cover?$DN0?4000?3float?0Cloud_Gl@ ; `string'
PUBLIC	??_C@_0BA@IMKNMIJK@KAK_Clouds_Zone?$AA@		; `string'
PUBLIC	??_7?$ScriptRegistrant@VKAK_Lightning_Create@@@@6B@ ; ScriptRegistrant<KAK_Lightning_Create>::`vftable'
PUBLIC	?KAK_Lightning_Create_Registrant@@3V?$ScriptRegistrant@VKAK_Lightning_Create@@@@A ; KAK_Lightning_Create_Registrant
PUBLIC	??_C@_0MG@BLKPHBPH@Lightning_Intensity?$DN0?4000?3float?0@ ; `string'
PUBLIC	??_C@_0BF@MKLGABCI@KAK_Lightning_Create?$AA@	; `string'
PUBLIC	??_7?$ScriptRegistrant@VKAK_Lightning_Zone@@@@6B@ ; ScriptRegistrant<KAK_Lightning_Zone>::`vftable'
PUBLIC	?KAK_Lightning_Zone_Registrant@@3V?$ScriptRegistrant@VKAK_Lightning_Zone@@@@A ; KAK_Lightning_Zone_Registrant
PUBLIC	??_C@_0MC@ONBPNCF@Lightning_Intensity?$DN0?4000?3float?0@ ; `string'
PUBLIC	??_C@_0BD@IFGLCMNP@KAK_Lightning_Zone?$AA@	; `string'
PUBLIC	??_7?$ScriptRegistrant@VKAK_Flowing_Weather@@@@6B@ ; ScriptRegistrant<KAK_Flowing_Weather>::`vftable'
PUBLIC	?KAK_Flowing_Weather_Registrant@@3V?$ScriptRegistrant@VKAK_Flowing_Weather@@@@A ; KAK_Flowing_Weather_Registrant
PUBLIC	??_C@_0OI@LLEAHILO@Precipitation_Type?$DNRain?3string?0M@ ; `string'
PUBLIC	??_C@_0BE@MPGHJBD@KAK_Flowing_Weather?$AA@	; `string'
PUBLIC	??_7?$ScriptRegistrant@VKAK_Give_Powerup_On_Pickup@@@@6B@ ; ScriptRegistrant<KAK_Give_Powerup_On_Pickup>::`vftable'
PUBLIC	?KAK_Give_Powerup_On_Pickup_Registrant@@3V?$ScriptRegistrant@VKAK_Give_Powerup_On_Pickup@@@@A ; KAK_Give_Powerup_On_Pickup_Registrant
PUBLIC	??_C@_0BG@HNOGMJNM@Powerup_Preset?3string?$AA@	; `string'
PUBLIC	??_C@_0BL@HAMNHGAH@KAK_Give_Powerup_On_Pickup?$AA@ ; `string'
PUBLIC	??_7?$ScriptRegistrant@VKAK_Select_Weapon_Zone@@@@6B@ ; ScriptRegistrant<KAK_Select_Weapon_Zone>::`vftable'
PUBLIC	?KAK_Select_Weapon_Zone_Registrant@@3V?$ScriptRegistrant@VKAK_Select_Weapon_Zone@@@@A ; KAK_Select_Weapon_Zone_Registrant
PUBLIC	??_C@_0DA@MNIMPFP@Weapon_Preset?3string?0OnEnter?$DN0?3i@ ; `string'
PUBLIC	??_C@_0BH@DGOIHHIL@KAK_Select_Weapon_Zone?$AA@	; `string'
PUBLIC	??_7?$ScriptRegistrant@VKAK_Select_Weapon_On_Pickup@@@@6B@ ; ScriptRegistrant<KAK_Select_Weapon_On_Pickup>::`vftable'
PUBLIC	?KAK_Select_Weapon_On_Pickup_Registrant@@3V?$ScriptRegistrant@VKAK_Select_Weapon_On_Pickup@@@@A ; KAK_Select_Weapon_On_Pickup_Registrant
PUBLIC	??_C@_0BF@CLMANPKK@Weapon_Preset?3string?$AA@	; `string'
PUBLIC	??_C@_0BM@BLLIHOHC@KAK_Select_Weapon_On_Pickup?$AA@ ; `string'
PUBLIC	??_7?$ScriptRegistrant@VKAK_Harvester_Logic@@@@6B@ ; ScriptRegistrant<KAK_Harvester_Logic>::`vftable'
PUBLIC	?KAK_Harvester_Logic_Registrant@@3V?$ScriptRegistrant@VKAK_Harvester_Logic@@@@A ; KAK_Harvester_Logic_Registrant
PUBLIC	??_C@_0DA@CDKJAHLF@Harvester_Preset?3string?0Explosio@ ; `string'
PUBLIC	??_C@_0BE@NIGNDAJL@KAK_Harvester_Logic?$AA@	; `string'
PUBLIC	??_7?$ScriptRegistrant@VKAK_Harvester_Attached@@@@6B@ ; ScriptRegistrant<KAK_Harvester_Attached>::`vftable'
PUBLIC	?KAK_Harvester_Attached_Registrant@@3V?$ScriptRegistrant@VKAK_Harvester_Attached@@@@A ; KAK_Harvester_Attached_Registrant
PUBLIC	??_C@_0BOD@BPEDADE@LogicID?$DN0?3int?0Number_Of_Paths?$DN0?3@ ; `string'
PUBLIC	??_C@_0BH@MGOHMKEP@KAK_Harvester_Attached?$AA@	; `string'
PUBLIC	??_7?$ScriptRegistrant@VKAK_Harvester_Kill@@@@6B@ ; ScriptRegistrant<KAK_Harvester_Kill>::`vftable'
PUBLIC	?KAK_Harvester_Kill_Registrant@@3V?$ScriptRegistrant@VKAK_Harvester_Kill@@@@A ; KAK_Harvester_Kill_Registrant
PUBLIC	??_C@_0O@JHIFIFME@LogicID?$DN0?3int?$AA@	; `string'
PUBLIC	??_C@_0BD@FCMJOJCC@KAK_Harvester_Kill?$AA@	; `string'
PUBLIC	??_7?$ScriptRegistrant@VKAK_Harvester_Spawn_Kill@@@@6B@ ; ScriptRegistrant<KAK_Harvester_Spawn_Kill>::`vftable'
PUBLIC	?KAK_Harvester_Spawn_Kill_Registrant@@3V?$ScriptRegistrant@VKAK_Harvester_Spawn_Kill@@@@A ; KAK_Harvester_Spawn_Kill_Registrant
PUBLIC	??_C@_0BJ@NDBEFFOD@KAK_Harvester_Spawn_Kill?$AA@ ; `string'
PUBLIC	??_7?$ScriptRegistrant@VKAK_Prevent_Kill@@@@6B@	; ScriptRegistrant<KAK_Prevent_Kill>::`vftable'
PUBLIC	?KAK_Prevent_Kill_Registrant@@3V?$ScriptRegistrant@VKAK_Prevent_Kill@@@@A ; KAK_Prevent_Kill_Registrant
PUBLIC	??_C@_00CNPNBAHC@?$AA@				; `string'
PUBLIC	??_C@_0BB@PHJHKCNG@KAK_Prevent_Kill?$AA@	; `string'
PUBLIC	??_7?$ScriptRegistrant@VKAK_Convert_Visceroid@@@@6B@ ; ScriptRegistrant<KAK_Convert_Visceroid>::`vftable'
PUBLIC	?KAK_Convert_Visceroid_Registrant@@3V?$ScriptRegistrant@VKAK_Convert_Visceroid@@@@A ; KAK_Convert_Visceroid_Registrant
PUBLIC	??_C@_0BG@IIKAMANI@KAK_Convert_Visceroid?$AA@	; `string'
PUBLIC	??_7?$ScriptRegistrant@VKAK_Freeze_Object@@@@6B@ ; ScriptRegistrant<KAK_Freeze_Object>::`vftable'
PUBLIC	?KAK_Freeze_Object_Registrant@@3V?$ScriptRegistrant@VKAK_Freeze_Object@@@@A ; KAK_Freeze_Object_Registrant
PUBLIC	??_C@_0P@LKMJJPJE@Time?$DN5?40?3float?$AA@	; `string'
PUBLIC	??_C@_0BC@LBFAJEO@KAK_Freeze_Object?$AA@	; `string'
PUBLIC	??_7?$ScriptRegistrant@VKAK_Regen_Custom@@@@6B@	; ScriptRegistrant<KAK_Regen_Custom>::`vftable'
PUBLIC	?KAK_Regen_Custom_Registrant@@3V?$ScriptRegistrant@VKAK_Regen_Custom@@@@A ; KAK_Regen_Custom_Registrant
PUBLIC	??_C@_0CE@IMLOBHPI@Interval?$DN0?45?3float?0Health?$DN2?40?3fl@ ; `string'
PUBLIC	??_C@_0BB@FDAABDGL@KAK_Regen_Custom?$AA@	; `string'
PUBLIC	??_C@_0DD@EHIGOODG@ScriptRegistrant?$DMclass?5KAK_Warp_@ ; `string'
PUBLIC	??_C@_0DD@KMKBFFOF@x?3?2github?2renegade?2dragonade_rxd@ ; `string'
PUBLIC	??_C@_1GG@OGNLNBPD@?$AAx?$AA?3?$AA?2?$AAg?$AAi?$AAt?$AAh?$AAu?$AAb?$AA?2?$AAr?$AAe?$AAn?$AAe?$AAg?$AAa?$AAd?$AAe?$AA?2?$AAd?$AAr?$AAa?$AAg?$AAo?$AAn?$AAa?$AAd?$AAe?$AA_?$AAr?$AAx?$AAd@ ; `string'
PUBLIC	??_C@_1M@HLGKFCJM@?$AAf?$AAa?$AAl?$AAs?$AAe?$AA?$AA@ ; `string'
PUBLIC	??_C@_0DJ@HPBHKEBP@ScriptRegistrant?$DMclass?5KAK_Preci@ ; `string'
PUBLIC	??_C@_0DH@EMLBLOJA@ScriptRegistrant?$DMclass?5KAK_Preci@ ; `string'
PUBLIC	??_C@_0DA@HNLNDFGH@ScriptRegistrant?$DMclass?5KAK_Wind_@ ; `string'
PUBLIC	??_C@_0CO@JJGLMJOL@ScriptRegistrant?$DMclass?5KAK_Wind_@ ; `string'
PUBLIC	??_C@_0DC@PIJBAEIK@ScriptRegistrant?$DMclass?5KAK_Cloud@ ; `string'
PUBLIC	??_C@_0DA@PBBJNGAN@ScriptRegistrant?$DMclass?5KAK_Cloud@ ; `string'
PUBLIC	??_C@_0DF@HCODLGNC@ScriptRegistrant?$DMclass?5KAK_Light@ ; `string'
PUBLIC	??_C@_0DD@DNBDIOJD@ScriptRegistrant?$DMclass?5KAK_Light@ ; `string'
PUBLIC	??_C@_0DE@OFHDLHPK@ScriptRegistrant?$DMclass?5KAK_Flowi@ ; `string'
PUBLIC	??_C@_0DL@OECBJCC@ScriptRegistrant?$DMclass?5KAK_Give_@ ; `string'
PUBLIC	??_C@_0DH@BKIBNOOO@ScriptRegistrant?$DMclass?5KAK_Selec@ ; `string'
PUBLIC	??_C@_0DM@ODMCDKKO@ScriptRegistrant?$DMclass?5KAK_Selec@ ; `string'
PUBLIC	??_C@_0DE@GKEMLAJE@ScriptRegistrant?$DMclass?5KAK_Harve@ ; `string'
PUBLIC	??_C@_0DH@FBIDCGCM@ScriptRegistrant?$DMclass?5KAK_Harve@ ; `string'
PUBLIC	??_C@_0DD@LHODANNN@ScriptRegistrant?$DMclass?5KAK_Harve@ ; `string'
PUBLIC	??_C@_0DJ@BCDIAIGF@ScriptRegistrant?$DMclass?5KAK_Harve@ ; `string'
PUBLIC	??_C@_0DB@DPKDJGEH@ScriptRegistrant?$DMclass?5KAK_Preve@ ; `string'
PUBLIC	??_C@_0DG@HMJNHINH@ScriptRegistrant?$DMclass?5KAK_Conve@ ; `string'
PUBLIC	??_C@_0DC@OFHOJKLM@ScriptRegistrant?$DMclass?5KAK_Freez@ ; `string'
PUBLIC	??_C@_0DB@DEDGHMPO@ScriptRegistrant?$DMclass?5KAK_Regen@ ; `string'
PUBLIC	??_R4ScriptFactory@@6B@				; ScriptFactory::`RTTI Complete Object Locator'
PUBLIC	??_R0?AVScriptFactory@@@8			; ScriptFactory `RTTI Type Descriptor'
PUBLIC	??_R3ScriptFactory@@8				; ScriptFactory::`RTTI Class Hierarchy Descriptor'
PUBLIC	??_R2ScriptFactory@@8				; ScriptFactory::`RTTI Base Class Array'
PUBLIC	??_R1A@?0A@EA@ScriptFactory@@8			; ScriptFactory::`RTTI Base Class Descriptor at (0,-1,0,64)'
PUBLIC	??_R4ScriptClass@@6B@				; ScriptClass::`RTTI Complete Object Locator'
PUBLIC	??_R0?AVScriptClass@@@8				; ScriptClass `RTTI Type Descriptor'
PUBLIC	??_R3ScriptClass@@8				; ScriptClass::`RTTI Class Hierarchy Descriptor'
PUBLIC	??_R2ScriptClass@@8				; ScriptClass::`RTTI Base Class Array'
PUBLIC	??_R1A@?0A@EA@ScriptClass@@8			; ScriptClass::`RTTI Base Class Descriptor at (0,-1,0,64)'
PUBLIC	??_R1A@?0A@EA@GameObjObserverClass@@8		; GameObjObserverClass::`RTTI Base Class Descriptor at (0,-1,0,64)'
PUBLIC	??_R0?AVGameObjObserverClass@@@8		; GameObjObserverClass `RTTI Type Descriptor'
PUBLIC	??_R3GameObjObserverClass@@8			; GameObjObserverClass::`RTTI Class Hierarchy Descriptor'
PUBLIC	??_R2GameObjObserverClass@@8			; GameObjObserverClass::`RTTI Base Class Array'
PUBLIC	??_R4GameObjObserverClass@@6B@			; GameObjObserverClass::`RTTI Complete Object Locator'
PUBLIC	??_R4ScriptImpClass@@6B@			; ScriptImpClass::`RTTI Complete Object Locator'
PUBLIC	??_R0?AVScriptImpClass@@@8			; ScriptImpClass `RTTI Type Descriptor'
PUBLIC	??_R3ScriptImpClass@@8				; ScriptImpClass::`RTTI Class Hierarchy Descriptor'
PUBLIC	??_R2ScriptImpClass@@8				; ScriptImpClass::`RTTI Base Class Array'
PUBLIC	??_R1A@?0A@EA@ScriptImpClass@@8			; ScriptImpClass::`RTTI Base Class Descriptor at (0,-1,0,64)'
PUBLIC	??_R4KAK_Warp_On_Pickup@@6B@			; KAK_Warp_On_Pickup::`RTTI Complete Object Locator'
PUBLIC	??_R0?AVKAK_Warp_On_Pickup@@@8			; KAK_Warp_On_Pickup `RTTI Type Descriptor'
PUBLIC	??_R3KAK_Warp_On_Pickup@@8			; KAK_Warp_On_Pickup::`RTTI Class Hierarchy Descriptor'
PUBLIC	??_R2KAK_Warp_On_Pickup@@8			; KAK_Warp_On_Pickup::`RTTI Base Class Array'
PUBLIC	??_R1A@?0A@EA@KAK_Warp_On_Pickup@@8		; KAK_Warp_On_Pickup::`RTTI Base Class Descriptor at (0,-1,0,64)'
PUBLIC	??_R4KAK_Precipitation_Create@@6B@		; KAK_Precipitation_Create::`RTTI Complete Object Locator'
PUBLIC	??_R0?AVKAK_Precipitation_Create@@@8		; KAK_Precipitation_Create `RTTI Type Descriptor'
PUBLIC	??_R3KAK_Precipitation_Create@@8		; KAK_Precipitation_Create::`RTTI Class Hierarchy Descriptor'
PUBLIC	??_R2KAK_Precipitation_Create@@8		; KAK_Precipitation_Create::`RTTI Base Class Array'
PUBLIC	??_R1A@?0A@EA@KAK_Precipitation_Create@@8	; KAK_Precipitation_Create::`RTTI Base Class Descriptor at (0,-1,0,64)'
PUBLIC	??_R4KAK_Precipitation_Zone@@6B@		; KAK_Precipitation_Zone::`RTTI Complete Object Locator'
PUBLIC	??_R0?AVKAK_Precipitation_Zone@@@8		; KAK_Precipitation_Zone `RTTI Type Descriptor'
PUBLIC	??_R3KAK_Precipitation_Zone@@8			; KAK_Precipitation_Zone::`RTTI Class Hierarchy Descriptor'
PUBLIC	??_R2KAK_Precipitation_Zone@@8			; KAK_Precipitation_Zone::`RTTI Base Class Array'
PUBLIC	??_R1A@?0A@EA@KAK_Precipitation_Zone@@8		; KAK_Precipitation_Zone::`RTTI Base Class Descriptor at (0,-1,0,64)'
PUBLIC	??_R4KAK_Wind_Create@@6B@			; KAK_Wind_Create::`RTTI Complete Object Locator'
PUBLIC	??_R0?AVKAK_Wind_Create@@@8			; KAK_Wind_Create `RTTI Type Descriptor'
PUBLIC	??_R3KAK_Wind_Create@@8				; KAK_Wind_Create::`RTTI Class Hierarchy Descriptor'
PUBLIC	??_R2KAK_Wind_Create@@8				; KAK_Wind_Create::`RTTI Base Class Array'
PUBLIC	??_R1A@?0A@EA@KAK_Wind_Create@@8		; KAK_Wind_Create::`RTTI Base Class Descriptor at (0,-1,0,64)'
PUBLIC	??_R4KAK_Wind_Zone@@6B@				; KAK_Wind_Zone::`RTTI Complete Object Locator'
PUBLIC	??_R0?AVKAK_Wind_Zone@@@8			; KAK_Wind_Zone `RTTI Type Descriptor'
PUBLIC	??_R3KAK_Wind_Zone@@8				; KAK_Wind_Zone::`RTTI Class Hierarchy Descriptor'
PUBLIC	??_R2KAK_Wind_Zone@@8				; KAK_Wind_Zone::`RTTI Base Class Array'
PUBLIC	??_R1A@?0A@EA@KAK_Wind_Zone@@8			; KAK_Wind_Zone::`RTTI Base Class Descriptor at (0,-1,0,64)'
PUBLIC	??_R4KAK_Clouds_Create@@6B@			; KAK_Clouds_Create::`RTTI Complete Object Locator'
PUBLIC	??_R0?AVKAK_Clouds_Create@@@8			; KAK_Clouds_Create `RTTI Type Descriptor'
PUBLIC	??_R3KAK_Clouds_Create@@8			; KAK_Clouds_Create::`RTTI Class Hierarchy Descriptor'
PUBLIC	??_R2KAK_Clouds_Create@@8			; KAK_Clouds_Create::`RTTI Base Class Array'
PUBLIC	??_R1A@?0A@EA@KAK_Clouds_Create@@8		; KAK_Clouds_Create::`RTTI Base Class Descriptor at (0,-1,0,64)'
PUBLIC	??_R4KAK_Clouds_Zone@@6B@			; KAK_Clouds_Zone::`RTTI Complete Object Locator'
PUBLIC	??_R0?AVKAK_Clouds_Zone@@@8			; KAK_Clouds_Zone `RTTI Type Descriptor'
PUBLIC	??_R3KAK_Clouds_Zone@@8				; KAK_Clouds_Zone::`RTTI Class Hierarchy Descriptor'
PUBLIC	??_R2KAK_Clouds_Zone@@8				; KAK_Clouds_Zone::`RTTI Base Class Array'
PUBLIC	??_R1A@?0A@EA@KAK_Clouds_Zone@@8		; KAK_Clouds_Zone::`RTTI Base Class Descriptor at (0,-1,0,64)'
PUBLIC	??_R4KAK_Lightning_Create@@6B@			; KAK_Lightning_Create::`RTTI Complete Object Locator'
PUBLIC	??_R0?AVKAK_Lightning_Create@@@8		; KAK_Lightning_Create `RTTI Type Descriptor'
PUBLIC	??_R3KAK_Lightning_Create@@8			; KAK_Lightning_Create::`RTTI Class Hierarchy Descriptor'
PUBLIC	??_R2KAK_Lightning_Create@@8			; KAK_Lightning_Create::`RTTI Base Class Array'
PUBLIC	??_R1A@?0A@EA@KAK_Lightning_Create@@8		; KAK_Lightning_Create::`RTTI Base Class Descriptor at (0,-1,0,64)'
PUBLIC	??_R4KAK_Lightning_Zone@@6B@			; KAK_Lightning_Zone::`RTTI Complete Object Locator'
PUBLIC	??_R0?AVKAK_Lightning_Zone@@@8			; KAK_Lightning_Zone `RTTI Type Descriptor'
PUBLIC	??_R3KAK_Lightning_Zone@@8			; KAK_Lightning_Zone::`RTTI Class Hierarchy Descriptor'
PUBLIC	??_R2KAK_Lightning_Zone@@8			; KAK_Lightning_Zone::`RTTI Base Class Array'
PUBLIC	??_R1A@?0A@EA@KAK_Lightning_Zone@@8		; KAK_Lightning_Zone::`RTTI Base Class Descriptor at (0,-1,0,64)'
PUBLIC	??_R4KAK_Flowing_Weather@@6B@			; KAK_Flowing_Weather::`RTTI Complete Object Locator'
PUBLIC	??_R0?AVKAK_Flowing_Weather@@@8			; KAK_Flowing_Weather `RTTI Type Descriptor'
PUBLIC	??_R3KAK_Flowing_Weather@@8			; KAK_Flowing_Weather::`RTTI Class Hierarchy Descriptor'
PUBLIC	??_R2KAK_Flowing_Weather@@8			; KAK_Flowing_Weather::`RTTI Base Class Array'
PUBLIC	??_R1A@?0A@EA@KAK_Flowing_Weather@@8		; KAK_Flowing_Weather::`RTTI Base Class Descriptor at (0,-1,0,64)'
PUBLIC	??_R4KAK_Give_Powerup_On_Pickup@@6B@		; KAK_Give_Powerup_On_Pickup::`RTTI Complete Object Locator'
PUBLIC	??_R0?AVKAK_Give_Powerup_On_Pickup@@@8		; KAK_Give_Powerup_On_Pickup `RTTI Type Descriptor'
PUBLIC	??_R3KAK_Give_Powerup_On_Pickup@@8		; KAK_Give_Powerup_On_Pickup::`RTTI Class Hierarchy Descriptor'
PUBLIC	??_R2KAK_Give_Powerup_On_Pickup@@8		; KAK_Give_Powerup_On_Pickup::`RTTI Base Class Array'
PUBLIC	??_R1A@?0A@EA@KAK_Give_Powerup_On_Pickup@@8	; KAK_Give_Powerup_On_Pickup::`RTTI Base Class Descriptor at (0,-1,0,64)'
PUBLIC	??_R4KAK_Select_Weapon_Zone@@6B@		; KAK_Select_Weapon_Zone::`RTTI Complete Object Locator'
PUBLIC	??_R0?AVKAK_Select_Weapon_Zone@@@8		; KAK_Select_Weapon_Zone `RTTI Type Descriptor'
PUBLIC	??_R3KAK_Select_Weapon_Zone@@8			; KAK_Select_Weapon_Zone::`RTTI Class Hierarchy Descriptor'
PUBLIC	??_R2KAK_Select_Weapon_Zone@@8			; KAK_Select_Weapon_Zone::`RTTI Base Class Array'
PUBLIC	??_R1A@?0A@EA@KAK_Select_Weapon_Zone@@8		; KAK_Select_Weapon_Zone::`RTTI Base Class Descriptor at (0,-1,0,64)'
PUBLIC	??_R4KAK_Select_Weapon_On_Pickup@@6B@		; KAK_Select_Weapon_On_Pickup::`RTTI Complete Object Locator'
PUBLIC	??_R0?AVKAK_Select_Weapon_On_Pickup@@@8		; KAK_Select_Weapon_On_Pickup `RTTI Type Descriptor'
PUBLIC	??_R3KAK_Select_Weapon_On_Pickup@@8		; KAK_Select_Weapon_On_Pickup::`RTTI Class Hierarchy Descriptor'
PUBLIC	??_R2KAK_Select_Weapon_On_Pickup@@8		; KAK_Select_Weapon_On_Pickup::`RTTI Base Class Array'
PUBLIC	??_R1A@?0A@EA@KAK_Select_Weapon_On_Pickup@@8	; KAK_Select_Weapon_On_Pickup::`RTTI Base Class Descriptor at (0,-1,0,64)'
PUBLIC	??_R4KAK_Harvester_Logic@@6B@			; KAK_Harvester_Logic::`RTTI Complete Object Locator'
PUBLIC	??_R0?AVKAK_Harvester_Logic@@@8			; KAK_Harvester_Logic `RTTI Type Descriptor'
PUBLIC	??_R3KAK_Harvester_Logic@@8			; KAK_Harvester_Logic::`RTTI Class Hierarchy Descriptor'
PUBLIC	??_R2KAK_Harvester_Logic@@8			; KAK_Harvester_Logic::`RTTI Base Class Array'
PUBLIC	??_R1A@?0A@EA@KAK_Harvester_Logic@@8		; KAK_Harvester_Logic::`RTTI Base Class Descriptor at (0,-1,0,64)'
PUBLIC	??_R4KAK_Harvester_Kill@@6B@			; KAK_Harvester_Kill::`RTTI Complete Object Locator'
PUBLIC	??_R0?AVKAK_Harvester_Kill@@@8			; KAK_Harvester_Kill `RTTI Type Descriptor'
PUBLIC	??_R3KAK_Harvester_Kill@@8			; KAK_Harvester_Kill::`RTTI Class Hierarchy Descriptor'
PUBLIC	??_R2KAK_Harvester_Kill@@8			; KAK_Harvester_Kill::`RTTI Base Class Array'
PUBLIC	??_R1A@?0A@EA@KAK_Harvester_Kill@@8		; KAK_Harvester_Kill::`RTTI Base Class Descriptor at (0,-1,0,64)'
PUBLIC	??_R4KAK_Harvester_Spawn_Kill@@6B@		; KAK_Harvester_Spawn_Kill::`RTTI Complete Object Locator'
PUBLIC	??_R0?AVKAK_Harvester_Spawn_Kill@@@8		; KAK_Harvester_Spawn_Kill `RTTI Type Descriptor'
PUBLIC	??_R3KAK_Harvester_Spawn_Kill@@8		; KAK_Harvester_Spawn_Kill::`RTTI Class Hierarchy Descriptor'
PUBLIC	??_R2KAK_Harvester_Spawn_Kill@@8		; KAK_Harvester_Spawn_Kill::`RTTI Base Class Array'
PUBLIC	??_R1A@?0A@EA@KAK_Harvester_Spawn_Kill@@8	; KAK_Harvester_Spawn_Kill::`RTTI Base Class Descriptor at (0,-1,0,64)'
PUBLIC	??_R4KAK_Harvester_Attached@@6B@		; KAK_Harvester_Attached::`RTTI Complete Object Locator'
PUBLIC	??_R0?AVKAK_Harvester_Attached@@@8		; KAK_Harvester_Attached `RTTI Type Descriptor'
PUBLIC	??_R3KAK_Harvester_Attached@@8			; KAK_Harvester_Attached::`RTTI Class Hierarchy Descriptor'
PUBLIC	??_R2KAK_Harvester_Attached@@8			; KAK_Harvester_Attached::`RTTI Base Class Array'
PUBLIC	??_R1A@?0A@EA@KAK_Harvester_Attached@@8		; KAK_Harvester_Attached::`RTTI Base Class Descriptor at (0,-1,0,64)'
PUBLIC	??_R4KAK_Prevent_Kill@@6B@			; KAK_Prevent_Kill::`RTTI Complete Object Locator'
PUBLIC	??_R0?AVKAK_Prevent_Kill@@@8			; KAK_Prevent_Kill `RTTI Type Descriptor'
PUBLIC	??_R3KAK_Prevent_Kill@@8			; KAK_Prevent_Kill::`RTTI Class Hierarchy Descriptor'
PUBLIC	??_R2KAK_Prevent_Kill@@8			; KAK_Prevent_Kill::`RTTI Base Class Array'
PUBLIC	??_R1A@?0A@EA@KAK_Prevent_Kill@@8		; KAK_Prevent_Kill::`RTTI Base Class Descriptor at (0,-1,0,64)'
PUBLIC	??_R4KAK_Convert_Visceroid@@6B@			; KAK_Convert_Visceroid::`RTTI Complete Object Locator'
PUBLIC	??_R0?AVKAK_Convert_Visceroid@@@8		; KAK_Convert_Visceroid `RTTI Type Descriptor'
PUBLIC	??_R3KAK_Convert_Visceroid@@8			; KAK_Convert_Visceroid::`RTTI Class Hierarchy Descriptor'
PUBLIC	??_R2KAK_Convert_Visceroid@@8			; KAK_Convert_Visceroid::`RTTI Base Class Array'
PUBLIC	??_R1A@?0A@EA@KAK_Convert_Visceroid@@8		; KAK_Convert_Visceroid::`RTTI Base Class Descriptor at (0,-1,0,64)'
PUBLIC	??_R4KAK_Freeze_Object@@6B@			; KAK_Freeze_Object::`RTTI Complete Object Locator'
PUBLIC	??_R0?AVKAK_Freeze_Object@@@8			; KAK_Freeze_Object `RTTI Type Descriptor'
PUBLIC	??_R3KAK_Freeze_Object@@8			; KAK_Freeze_Object::`RTTI Class Hierarchy Descriptor'
PUBLIC	??_R2KAK_Freeze_Object@@8			; KAK_Freeze_Object::`RTTI Base Class Array'
PUBLIC	??_R1A@?0A@EA@KAK_Freeze_Object@@8		; KAK_Freeze_Object::`RTTI Base Class Descriptor at (0,-1,0,64)'
PUBLIC	??_R4KAK_Regen_Custom@@6B@			; KAK_Regen_Custom::`RTTI Complete Object Locator'
PUBLIC	??_R0?AVKAK_Regen_Custom@@@8			; KAK_Regen_Custom `RTTI Type Descriptor'
PUBLIC	??_R3KAK_Regen_Custom@@8			; KAK_Regen_Custom::`RTTI Class Hierarchy Descriptor'
PUBLIC	??_R2KAK_Regen_Custom@@8			; KAK_Regen_Custom::`RTTI Base Class Array'
PUBLIC	??_R1A@?0A@EA@KAK_Regen_Custom@@8		; KAK_Regen_Custom::`RTTI Base Class Descriptor at (0,-1,0,64)'
PUBLIC	??_R4?$ScriptRegistrant@VKAK_Warp_On_Pickup@@@@6B@ ; ScriptRegistrant<KAK_Warp_On_Pickup>::`RTTI Complete Object Locator'
PUBLIC	??_R0?AV?$ScriptRegistrant@VKAK_Warp_On_Pickup@@@@@8 ; ScriptRegistrant<KAK_Warp_On_Pickup> `RTTI Type Descriptor'
PUBLIC	??_R3?$ScriptRegistrant@VKAK_Warp_On_Pickup@@@@8 ; ScriptRegistrant<KAK_Warp_On_Pickup>::`RTTI Class Hierarchy Descriptor'
PUBLIC	??_R2?$ScriptRegistrant@VKAK_Warp_On_Pickup@@@@8 ; ScriptRegistrant<KAK_Warp_On_Pickup>::`RTTI Base Class Array'
PUBLIC	??_R1A@?0A@EA@?$ScriptRegistrant@VKAK_Warp_On_Pickup@@@@8 ; ScriptRegistrant<KAK_Warp_On_Pickup>::`RTTI Base Class Descriptor at (0,-1,0,64)'
PUBLIC	??_R4?$ScriptRegistrant@VKAK_Precipitation_Create@@@@6B@ ; ScriptRegistrant<KAK_Precipitation_Create>::`RTTI Complete Object Locator'
PUBLIC	??_R0?AV?$ScriptRegistrant@VKAK_Precipitation_Create@@@@@8 ; ScriptRegistrant<KAK_Precipitation_Create> `RTTI Type Descriptor'
PUBLIC	??_R3?$ScriptRegistrant@VKAK_Precipitation_Create@@@@8 ; ScriptRegistrant<KAK_Precipitation_Create>::`RTTI Class Hierarchy Descriptor'
PUBLIC	??_R2?$ScriptRegistrant@VKAK_Precipitation_Create@@@@8 ; ScriptRegistrant<KAK_Precipitation_Create>::`RTTI Base Class Array'
PUBLIC	??_R1A@?0A@EA@?$ScriptRegistrant@VKAK_Precipitation_Create@@@@8 ; ScriptRegistrant<KAK_Precipitation_Create>::`RTTI Base Class Descriptor at (0,-1,0,64)'
PUBLIC	??_R4?$ScriptRegistrant@VKAK_Precipitation_Zone@@@@6B@ ; ScriptRegistrant<KAK_Precipitation_Zone>::`RTTI Complete Object Locator'
PUBLIC	??_R0?AV?$ScriptRegistrant@VKAK_Precipitation_Zone@@@@@8 ; ScriptRegistrant<KAK_Precipitation_Zone> `RTTI Type Descriptor'
PUBLIC	??_R3?$ScriptRegistrant@VKAK_Precipitation_Zone@@@@8 ; ScriptRegistrant<KAK_Precipitation_Zone>::`RTTI Class Hierarchy Descriptor'
PUBLIC	??_R2?$ScriptRegistrant@VKAK_Precipitation_Zone@@@@8 ; ScriptRegistrant<KAK_Precipitation_Zone>::`RTTI Base Class Array'
PUBLIC	??_R1A@?0A@EA@?$ScriptRegistrant@VKAK_Precipitation_Zone@@@@8 ; ScriptRegistrant<KAK_Precipitation_Zone>::`RTTI Base Class Descriptor at (0,-1,0,64)'
PUBLIC	??_R4?$ScriptRegistrant@VKAK_Wind_Create@@@@6B@	; ScriptRegistrant<KAK_Wind_Create>::`RTTI Complete Object Locator'
PUBLIC	??_R0?AV?$ScriptRegistrant@VKAK_Wind_Create@@@@@8 ; ScriptRegistrant<KAK_Wind_Create> `RTTI Type Descriptor'
PUBLIC	??_R3?$ScriptRegistrant@VKAK_Wind_Create@@@@8	; ScriptRegistrant<KAK_Wind_Create>::`RTTI Class Hierarchy Descriptor'
PUBLIC	??_R2?$ScriptRegistrant@VKAK_Wind_Create@@@@8	; ScriptRegistrant<KAK_Wind_Create>::`RTTI Base Class Array'
PUBLIC	??_R1A@?0A@EA@?$ScriptRegistrant@VKAK_Wind_Create@@@@8 ; ScriptRegistrant<KAK_Wind_Create>::`RTTI Base Class Descriptor at (0,-1,0,64)'
PUBLIC	??_R4?$ScriptRegistrant@VKAK_Wind_Zone@@@@6B@	; ScriptRegistrant<KAK_Wind_Zone>::`RTTI Complete Object Locator'
PUBLIC	??_R0?AV?$ScriptRegistrant@VKAK_Wind_Zone@@@@@8	; ScriptRegistrant<KAK_Wind_Zone> `RTTI Type Descriptor'
PUBLIC	??_R3?$ScriptRegistrant@VKAK_Wind_Zone@@@@8	; ScriptRegistrant<KAK_Wind_Zone>::`RTTI Class Hierarchy Descriptor'
PUBLIC	??_R2?$ScriptRegistrant@VKAK_Wind_Zone@@@@8	; ScriptRegistrant<KAK_Wind_Zone>::`RTTI Base Class Array'
PUBLIC	??_R1A@?0A@EA@?$ScriptRegistrant@VKAK_Wind_Zone@@@@8 ; ScriptRegistrant<KAK_Wind_Zone>::`RTTI Base Class Descriptor at (0,-1,0,64)'
PUBLIC	??_R4?$ScriptRegistrant@VKAK_Clouds_Create@@@@6B@ ; ScriptRegistrant<KAK_Clouds_Create>::`RTTI Complete Object Locator'
PUBLIC	??_R0?AV?$ScriptRegistrant@VKAK_Clouds_Create@@@@@8 ; ScriptRegistrant<KAK_Clouds_Create> `RTTI Type Descriptor'
PUBLIC	??_R3?$ScriptRegistrant@VKAK_Clouds_Create@@@@8	; ScriptRegistrant<KAK_Clouds_Create>::`RTTI Class Hierarchy Descriptor'
PUBLIC	??_R2?$ScriptRegistrant@VKAK_Clouds_Create@@@@8	; ScriptRegistrant<KAK_Clouds_Create>::`RTTI Base Class Array'
PUBLIC	??_R1A@?0A@EA@?$ScriptRegistrant@VKAK_Clouds_Create@@@@8 ; ScriptRegistrant<KAK_Clouds_Create>::`RTTI Base Class Descriptor at (0,-1,0,64)'
PUBLIC	??_R4?$ScriptRegistrant@VKAK_Clouds_Zone@@@@6B@	; ScriptRegistrant<KAK_Clouds_Zone>::`RTTI Complete Object Locator'
PUBLIC	??_R0?AV?$ScriptRegistrant@VKAK_Clouds_Zone@@@@@8 ; ScriptRegistrant<KAK_Clouds_Zone> `RTTI Type Descriptor'
PUBLIC	??_R3?$ScriptRegistrant@VKAK_Clouds_Zone@@@@8	; ScriptRegistrant<KAK_Clouds_Zone>::`RTTI Class Hierarchy Descriptor'
PUBLIC	??_R2?$ScriptRegistrant@VKAK_Clouds_Zone@@@@8	; ScriptRegistrant<KAK_Clouds_Zone>::`RTTI Base Class Array'
PUBLIC	??_R1A@?0A@EA@?$ScriptRegistrant@VKAK_Clouds_Zone@@@@8 ; ScriptRegistrant<KAK_Clouds_Zone>::`RTTI Base Class Descriptor at (0,-1,0,64)'
PUBLIC	??_R4?$ScriptRegistrant@VKAK_Lightning_Create@@@@6B@ ; ScriptRegistrant<KAK_Lightning_Create>::`RTTI Complete Object Locator'
PUBLIC	??_R0?AV?$ScriptRegistrant@VKAK_Lightning_Create@@@@@8 ; ScriptRegistrant<KAK_Lightning_Create> `RTTI Type Descriptor'
PUBLIC	??_R3?$ScriptRegistrant@VKAK_Lightning_Create@@@@8 ; ScriptRegistrant<KAK_Lightning_Create>::`RTTI Class Hierarchy Descriptor'
PUBLIC	??_R2?$ScriptRegistrant@VKAK_Lightning_Create@@@@8 ; ScriptRegistrant<KAK_Lightning_Create>::`RTTI Base Class Array'
PUBLIC	??_R1A@?0A@EA@?$ScriptRegistrant@VKAK_Lightning_Create@@@@8 ; ScriptRegistrant<KAK_Lightning_Create>::`RTTI Base Class Descriptor at (0,-1,0,64)'
PUBLIC	??_R4?$ScriptRegistrant@VKAK_Lightning_Zone@@@@6B@ ; ScriptRegistrant<KAK_Lightning_Zone>::`RTTI Complete Object Locator'
PUBLIC	??_R0?AV?$ScriptRegistrant@VKAK_Lightning_Zone@@@@@8 ; ScriptRegistrant<KAK_Lightning_Zone> `RTTI Type Descriptor'
PUBLIC	??_R3?$ScriptRegistrant@VKAK_Lightning_Zone@@@@8 ; ScriptRegistrant<KAK_Lightning_Zone>::`RTTI Class Hierarchy Descriptor'
PUBLIC	??_R2?$ScriptRegistrant@VKAK_Lightning_Zone@@@@8 ; ScriptRegistrant<KAK_Lightning_Zone>::`RTTI Base Class Array'
PUBLIC	??_R1A@?0A@EA@?$ScriptRegistrant@VKAK_Lightning_Zone@@@@8 ; ScriptRegistrant<KAK_Lightning_Zone>::`RTTI Base Class Descriptor at (0,-1,0,64)'
PUBLIC	??_R4?$ScriptRegistrant@VKAK_Flowing_Weather@@@@6B@ ; ScriptRegistrant<KAK_Flowing_Weather>::`RTTI Complete Object Locator'
PUBLIC	??_R0?AV?$ScriptRegistrant@VKAK_Flowing_Weather@@@@@8 ; ScriptRegistrant<KAK_Flowing_Weather> `RTTI Type Descriptor'
PUBLIC	??_R3?$ScriptRegistrant@VKAK_Flowing_Weather@@@@8 ; ScriptRegistrant<KAK_Flowing_Weather>::`RTTI Class Hierarchy Descriptor'
PUBLIC	??_R2?$ScriptRegistrant@VKAK_Flowing_Weather@@@@8 ; ScriptRegistrant<KAK_Flowing_Weather>::`RTTI Base Class Array'
PUBLIC	??_R1A@?0A@EA@?$ScriptRegistrant@VKAK_Flowing_Weather@@@@8 ; ScriptRegistrant<KAK_Flowing_Weather>::`RTTI Base Class Descriptor at (0,-1,0,64)'
PUBLIC	??_R4?$ScriptRegistrant@VKAK_Give_Powerup_On_Pickup@@@@6B@ ; ScriptRegistrant<KAK_Give_Powerup_On_Pickup>::`RTTI Complete Object Locator'
PUBLIC	??_R0?AV?$ScriptRegistrant@VKAK_Give_Powerup_On_Pickup@@@@@8 ; ScriptRegistrant<KAK_Give_Powerup_On_Pickup> `RTTI Type Descriptor'
PUBLIC	??_R3?$ScriptRegistrant@VKAK_Give_Powerup_On_Pickup@@@@8 ; ScriptRegistrant<KAK_Give_Powerup_On_Pickup>::`RTTI Class Hierarchy Descriptor'
PUBLIC	??_R2?$ScriptRegistrant@VKAK_Give_Powerup_On_Pickup@@@@8 ; ScriptRegistrant<KAK_Give_Powerup_On_Pickup>::`RTTI Base Class Array'
PUBLIC	??_R1A@?0A@EA@?$ScriptRegistrant@VKAK_Give_Powerup_On_Pickup@@@@8 ; ScriptRegistrant<KAK_Give_Powerup_On_Pickup>::`RTTI Base Class Descriptor at (0,-1,0,64)'
PUBLIC	??_R4?$ScriptRegistrant@VKAK_Select_Weapon_Zone@@@@6B@ ; ScriptRegistrant<KAK_Select_Weapon_Zone>::`RTTI Complete Object Locator'
PUBLIC	??_R0?AV?$ScriptRegistrant@VKAK_Select_Weapon_Zone@@@@@8 ; ScriptRegistrant<KAK_Select_Weapon_Zone> `RTTI Type Descriptor'
PUBLIC	??_R3?$ScriptRegistrant@VKAK_Select_Weapon_Zone@@@@8 ; ScriptRegistrant<KAK_Select_Weapon_Zone>::`RTTI Class Hierarchy Descriptor'
PUBLIC	??_R2?$ScriptRegistrant@VKAK_Select_Weapon_Zone@@@@8 ; ScriptRegistrant<KAK_Select_Weapon_Zone>::`RTTI Base Class Array'
PUBLIC	??_R1A@?0A@EA@?$ScriptRegistrant@VKAK_Select_Weapon_Zone@@@@8 ; ScriptRegistrant<KAK_Select_Weapon_Zone>::`RTTI Base Class Descriptor at (0,-1,0,64)'
PUBLIC	??_R4?$ScriptRegistrant@VKAK_Select_Weapon_On_Pickup@@@@6B@ ; ScriptRegistrant<KAK_Select_Weapon_On_Pickup>::`RTTI Complete Object Locator'
PUBLIC	??_R0?AV?$ScriptRegistrant@VKAK_Select_Weapon_On_Pickup@@@@@8 ; ScriptRegistrant<KAK_Select_Weapon_On_Pickup> `RTTI Type Descriptor'
PUBLIC	??_R3?$ScriptRegistrant@VKAK_Select_Weapon_On_Pickup@@@@8 ; ScriptRegistrant<KAK_Select_Weapon_On_Pickup>::`RTTI Class Hierarchy Descriptor'
PUBLIC	??_R2?$ScriptRegistrant@VKAK_Select_Weapon_On_Pickup@@@@8 ; ScriptRegistrant<KAK_Select_Weapon_On_Pickup>::`RTTI Base Class Array'
PUBLIC	??_R1A@?0A@EA@?$ScriptRegistrant@VKAK_Select_Weapon_On_Pickup@@@@8 ; ScriptRegistrant<KAK_Select_Weapon_On_Pickup>::`RTTI Base Class Descriptor at (0,-1,0,64)'
PUBLIC	??_R4?$ScriptRegistrant@VKAK_Harvester_Logic@@@@6B@ ; ScriptRegistrant<KAK_Harvester_Logic>::`RTTI Complete Object Locator'
PUBLIC	??_R0?AV?$ScriptRegistrant@VKAK_Harvester_Logic@@@@@8 ; ScriptRegistrant<KAK_Harvester_Logic> `RTTI Type Descriptor'
PUBLIC	??_R3?$ScriptRegistrant@VKAK_Harvester_Logic@@@@8 ; ScriptRegistrant<KAK_Harvester_Logic>::`RTTI Class Hierarchy Descriptor'
PUBLIC	??_R2?$ScriptRegistrant@VKAK_Harvester_Logic@@@@8 ; ScriptRegistrant<KAK_Harvester_Logic>::`RTTI Base Class Array'
PUBLIC	??_R1A@?0A@EA@?$ScriptRegistrant@VKAK_Harvester_Logic@@@@8 ; ScriptRegistrant<KAK_Harvester_Logic>::`RTTI Base Class Descriptor at (0,-1,0,64)'
PUBLIC	??_R4?$ScriptRegistrant@VKAK_Harvester_Attached@@@@6B@ ; ScriptRegistrant<KAK_Harvester_Attached>::`RTTI Complete Object Locator'
PUBLIC	??_R0?AV?$ScriptRegistrant@VKAK_Harvester_Attached@@@@@8 ; ScriptRegistrant<KAK_Harvester_Attached> `RTTI Type Descriptor'
PUBLIC	??_R3?$ScriptRegistrant@VKAK_Harvester_Attached@@@@8 ; ScriptRegistrant<KAK_Harvester_Attached>::`RTTI Class Hierarchy Descriptor'
PUBLIC	??_R2?$ScriptRegistrant@VKAK_Harvester_Attached@@@@8 ; ScriptRegistrant<KAK_Harvester_Attached>::`RTTI Base Class Array'
PUBLIC	??_R1A@?0A@EA@?$ScriptRegistrant@VKAK_Harvester_Attached@@@@8 ; ScriptRegistrant<KAK_Harvester_Attached>::`RTTI Base Class Descriptor at (0,-1,0,64)'
PUBLIC	??_R4?$ScriptRegistrant@VKAK_Harvester_Kill@@@@6B@ ; ScriptRegistrant<KAK_Harvester_Kill>::`RTTI Complete Object Locator'
PUBLIC	??_R0?AV?$ScriptRegistrant@VKAK_Harvester_Kill@@@@@8 ; ScriptRegistrant<KAK_Harvester_Kill> `RTTI Type Descriptor'
PUBLIC	??_R3?$ScriptRegistrant@VKAK_Harvester_Kill@@@@8 ; ScriptRegistrant<KAK_Harvester_Kill>::`RTTI Class Hierarchy Descriptor'
PUBLIC	??_R2?$ScriptRegistrant@VKAK_Harvester_Kill@@@@8 ; ScriptRegistrant<KAK_Harvester_Kill>::`RTTI Base Class Array'
PUBLIC	??_R1A@?0A@EA@?$ScriptRegistrant@VKAK_Harvester_Kill@@@@8 ; ScriptRegistrant<KAK_Harvester_Kill>::`RTTI Base Class Descriptor at (0,-1,0,64)'
PUBLIC	??_R4?$ScriptRegistrant@VKAK_Harvester_Spawn_Kill@@@@6B@ ; ScriptRegistrant<KAK_Harvester_Spawn_Kill>::`RTTI Complete Object Locator'
PUBLIC	??_R0?AV?$ScriptRegistrant@VKAK_Harvester_Spawn_Kill@@@@@8 ; ScriptRegistrant<KAK_Harvester_Spawn_Kill> `RTTI Type Descriptor'
PUBLIC	??_R3?$ScriptRegistrant@VKAK_Harvester_Spawn_Kill@@@@8 ; ScriptRegistrant<KAK_Harvester_Spawn_Kill>::`RTTI Class Hierarchy Descriptor'
PUBLIC	??_R2?$ScriptRegistrant@VKAK_Harvester_Spawn_Kill@@@@8 ; ScriptRegistrant<KAK_Harvester_Spawn_Kill>::`RTTI Base Class Array'
PUBLIC	??_R1A@?0A@EA@?$ScriptRegistrant@VKAK_Harvester_Spawn_Kill@@@@8 ; ScriptRegistrant<KAK_Harvester_Spawn_Kill>::`RTTI Base Class Descriptor at (0,-1,0,64)'
PUBLIC	??_R4?$ScriptRegistrant@VKAK_Prevent_Kill@@@@6B@ ; ScriptRegistrant<KAK_Prevent_Kill>::`RTTI Complete Object Locator'
PUBLIC	??_R0?AV?$ScriptRegistrant@VKAK_Prevent_Kill@@@@@8 ; ScriptRegistrant<KAK_Prevent_Kill> `RTTI Type Descriptor'
PUBLIC	??_R3?$ScriptRegistrant@VKAK_Prevent_Kill@@@@8	; ScriptRegistrant<KAK_Prevent_Kill>::`RTTI Class Hierarchy Descriptor'
PUBLIC	??_R2?$ScriptRegistrant@VKAK_Prevent_Kill@@@@8	; ScriptRegistrant<KAK_Prevent_Kill>::`RTTI Base Class Array'
PUBLIC	??_R1A@?0A@EA@?$ScriptRegistrant@VKAK_Prevent_Kill@@@@8 ; ScriptRegistrant<KAK_Prevent_Kill>::`RTTI Base Class Descriptor at (0,-1,0,64)'
PUBLIC	??_R4?$ScriptRegistrant@VKAK_Convert_Visceroid@@@@6B@ ; ScriptRegistrant<KAK_Convert_Visceroid>::`RTTI Complete Object Locator'
PUBLIC	??_R0?AV?$ScriptRegistrant@VKAK_Convert_Visceroid@@@@@8 ; ScriptRegistrant<KAK_Convert_Visceroid> `RTTI Type Descriptor'
PUBLIC	??_R3?$ScriptRegistrant@VKAK_Convert_Visceroid@@@@8 ; ScriptRegistrant<KAK_Convert_Visceroid>::`RTTI Class Hierarchy Descriptor'
PUBLIC	??_R2?$ScriptRegistrant@VKAK_Convert_Visceroid@@@@8 ; ScriptRegistrant<KAK_Convert_Visceroid>::`RTTI Base Class Array'
PUBLIC	??_R1A@?0A@EA@?$ScriptRegistrant@VKAK_Convert_Visceroid@@@@8 ; ScriptRegistrant<KAK_Convert_Visceroid>::`RTTI Base Class Descriptor at (0,-1,0,64)'
PUBLIC	??_R4?$ScriptRegistrant@VKAK_Freeze_Object@@@@6B@ ; ScriptRegistrant<KAK_Freeze_Object>::`RTTI Complete Object Locator'
PUBLIC	??_R0?AV?$ScriptRegistrant@VKAK_Freeze_Object@@@@@8 ; ScriptRegistrant<KAK_Freeze_Object> `RTTI Type Descriptor'
PUBLIC	??_R3?$ScriptRegistrant@VKAK_Freeze_Object@@@@8	; ScriptRegistrant<KAK_Freeze_Object>::`RTTI Class Hierarchy Descriptor'
PUBLIC	??_R2?$ScriptRegistrant@VKAK_Freeze_Object@@@@8	; ScriptRegistrant<KAK_Freeze_Object>::`RTTI Base Class Array'
PUBLIC	??_R1A@?0A@EA@?$ScriptRegistrant@VKAK_Freeze_Object@@@@8 ; ScriptRegistrant<KAK_Freeze_Object>::`RTTI Base Class Descriptor at (0,-1,0,64)'
PUBLIC	??_R4?$ScriptRegistrant@VKAK_Regen_Custom@@@@6B@ ; ScriptRegistrant<KAK_Regen_Custom>::`RTTI Complete Object Locator'
PUBLIC	??_R0?AV?$ScriptRegistrant@VKAK_Regen_Custom@@@@@8 ; ScriptRegistrant<KAK_Regen_Custom> `RTTI Type Descriptor'
PUBLIC	??_R3?$ScriptRegistrant@VKAK_Regen_Custom@@@@8	; ScriptRegistrant<KAK_Regen_Custom>::`RTTI Class Hierarchy Descriptor'
PUBLIC	??_R2?$ScriptRegistrant@VKAK_Regen_Custom@@@@8	; ScriptRegistrant<KAK_Regen_Custom>::`RTTI Base Class Array'
PUBLIC	??_R1A@?0A@EA@?$ScriptRegistrant@VKAK_Regen_Custom@@@@8 ; ScriptRegistrant<KAK_Regen_Custom>::`RTTI Base Class Descriptor at (0,-1,0,64)'
PUBLIC	__real@00000000
PUBLIC	__real@3a83126f
PUBLIC	__real@3c23d70a
PUBLIC	__real@3dcccccd
PUBLIC	__real@3f000000
PUBLIC	__real@3f79999a
PUBLIC	__real@3f800000
PUBLIC	__real@3fc90fdb
PUBLIC	__real@40000000
PUBLIC	__real@40001062
PUBLIC	__real@40a00831
PUBLIC	__real@40c90fdb
PUBLIC	__real@41200000
PUBLIC	__real@41a00000
PUBLIC	__real@42c80000
PUBLIC	__real@437f0000
PUBLIC	__real@43b40000
PUBLIC	__real@44000000
PUBLIC	__real@44800000
PUBLIC	__real@47c34f80
PUBLIC	__real@bf800000
EXTRN	__purecall:PROC
EXTRN	??2@YAPAXI@Z:PROC				; operator new
EXTRN	??3@YAXPAX@Z:PROC				; operator delete
EXTRN	_atexit:PROC
EXTRN	__imp___wassert:PROC
EXTRN	__imp__atof:PROC
EXTRN	__imp__ceil:PROC
EXTRN	__imp__atoi:PROC
EXTRN	??_V@YAXPAX@Z:PROC				; operator delete[]
EXTRN	__imp___stricmp:PROC
EXTRN	?SetThreadTrackingInformation@@YAXPBDI0@Z:PROC	; SetThreadTrackingInformation
EXTRN	?Random_Float@WWMath@@SAMXZ:PROC		; WWMath::Random_Float
EXTRN	??0ScriptImpClass@@QAE@XZ:PROC			; ScriptImpClass::ScriptImpClass
EXTRN	?Auto_Save_Variable@ScriptImpClass@@QAEXPAXHH@Z:PROC ; ScriptImpClass::Auto_Save_Variable
EXTRN	??1ScriptImpClass@@UAE@XZ:PROC			; ScriptImpClass::~ScriptImpClass
EXTRN	?Get_Name@ScriptImpClass@@UAEPBDXZ:PROC		; ScriptImpClass::Get_Name
EXTRN	?Set_Parameters_String@ScriptImpClass@@UAEXPBD@Z:PROC ; ScriptImpClass::Set_Parameters_String
EXTRN	?Get_Parameters_String@ScriptImpClass@@UAEXPADI@Z:PROC ; ScriptImpClass::Get_Parameters_String
EXTRN	?Get_Parameter@ScriptImpClass@@QAEPBDPBD@Z:PROC	; ScriptImpClass::Get_Parameter
EXTRN	?Get_Parameter@ScriptImpClass@@QAEPBDH@Z:PROC	; ScriptImpClass::Get_Parameter
EXTRN	?Get_Int_Parameter@ScriptImpClass@@QAEHPBD@Z:PROC ; ScriptImpClass::Get_Int_Parameter
EXTRN	?Get_Float_Parameter@ScriptImpClass@@QAEMPBD@Z:PROC ; ScriptImpClass::Get_Float_Parameter
EXTRN	?Get_Vector3_Parameter@ScriptImpClass@@QAE?AVVector3@@PBD@Z:PROC ; ScriptImpClass::Get_Vector3_Parameter
EXTRN	?Destroy_Script@ScriptImpClass@@QAEXXZ:PROC	; ScriptImpClass::Destroy_Script
EXTRN	?Attach@ScriptImpClass@@MAEXPAVScriptableGameObj@@@Z:PROC ; ScriptImpClass::Attach
EXTRN	?Detach@ScriptImpClass@@MAEXPAVScriptableGameObj@@@Z:PROC ; ScriptImpClass::Detach
EXTRN	?Save@ScriptImpClass@@MAEXAAVScriptSaver@@@Z:PROC ; ScriptImpClass::Save
EXTRN	?Load@ScriptImpClass@@MAEXAAVScriptLoader@@@Z:PROC ; ScriptImpClass::Load
EXTRN	??1ScriptFactory@@UAE@XZ:PROC			; ScriptFactory::~ScriptFactory
EXTRN	??0ScriptFactory@@IAE@PBD0@Z:PROC		; ScriptFactory::ScriptFactory
EXTRN	??_EKAK_Warp_On_Pickup@@UAEPAXI@Z:PROC		; KAK_Warp_On_Pickup::`vector deleting destructor'
EXTRN	??_EKAK_Precipitation_Create@@UAEPAXI@Z:PROC	; KAK_Precipitation_Create::`vector deleting destructor'
EXTRN	??_EKAK_Precipitation_Zone@@UAEPAXI@Z:PROC	; KAK_Precipitation_Zone::`vector deleting destructor'
EXTRN	??_EKAK_Wind_Create@@UAEPAXI@Z:PROC		; KAK_Wind_Create::`vector deleting destructor'
EXTRN	??_EKAK_Wind_Zone@@UAEPAXI@Z:PROC		; KAK_Wind_Zone::`vector deleting destructor'
EXTRN	??_EKAK_Clouds_Create@@UAEPAXI@Z:PROC		; KAK_Clouds_Create::`vector deleting destructor'
EXTRN	??_EKAK_Clouds_Zone@@UAEPAXI@Z:PROC		; KAK_Clouds_Zone::`vector deleting destructor'
EXTRN	??_EKAK_Lightning_Create@@UAEPAXI@Z:PROC	; KAK_Lightning_Create::`vector deleting destructor'
EXTRN	??_EKAK_Lightning_Zone@@UAEPAXI@Z:PROC		; KAK_Lightning_Zone::`vector deleting destructor'
EXTRN	??_EKAK_Flowing_Weather@@UAEPAXI@Z:PROC		; KAK_Flowing_Weather::`vector deleting destructor'
EXTRN	??_EKAK_Give_Powerup_On_Pickup@@UAEPAXI@Z:PROC	; KAK_Give_Powerup_On_Pickup::`vector deleting destructor'
EXTRN	??_EKAK_Select_Weapon_Zone@@UAEPAXI@Z:PROC	; KAK_Select_Weapon_Zone::`vector deleting destructor'
EXTRN	??_EKAK_Select_Weapon_On_Pickup@@UAEPAXI@Z:PROC	; KAK_Select_Weapon_On_Pickup::`vector deleting destructor'
EXTRN	??_EKAK_Harvester_Logic@@UAEPAXI@Z:PROC		; KAK_Harvester_Logic::`vector deleting destructor'
EXTRN	??_EKAK_Harvester_Kill@@UAEPAXI@Z:PROC		; KAK_Harvester_Kill::`vector deleting destructor'
EXTRN	??_EKAK_Harvester_Spawn_Kill@@UAEPAXI@Z:PROC	; KAK_Harvester_Spawn_Kill::`vector deleting destructor'
EXTRN	??_EKAK_Harvester_Attached@@UAEPAXI@Z:PROC	; KAK_Harvester_Attached::`vector deleting destructor'
EXTRN	??_EKAK_Prevent_Kill@@UAEPAXI@Z:PROC		; KAK_Prevent_Kill::`vector deleting destructor'
EXTRN	??_EKAK_Convert_Visceroid@@UAEPAXI@Z:PROC	; KAK_Convert_Visceroid::`vector deleting destructor'
EXTRN	??_EKAK_Freeze_Object@@UAEPAXI@Z:PROC		; KAK_Freeze_Object::`vector deleting destructor'
EXTRN	??_EKAK_Regen_Custom@@UAEPAXI@Z:PROC		; KAK_Regen_Custom::`vector deleting destructor'
EXTRN	??_E?$ScriptRegistrant@VKAK_Warp_On_Pickup@@@@UAEPAXI@Z:PROC ; ScriptRegistrant<KAK_Warp_On_Pickup>::`vector deleting destructor'
EXTRN	??_E?$ScriptRegistrant@VKAK_Precipitation_Create@@@@UAEPAXI@Z:PROC ; ScriptRegistrant<KAK_Precipitation_Create>::`vector deleting destructor'
EXTRN	??_E?$ScriptRegistrant@VKAK_Precipitation_Zone@@@@UAEPAXI@Z:PROC ; ScriptRegistrant<KAK_Precipitation_Zone>::`vector deleting destructor'
EXTRN	??_E?$ScriptRegistrant@VKAK_Wind_Create@@@@UAEPAXI@Z:PROC ; ScriptRegistrant<KAK_Wind_Create>::`vector deleting destructor'
EXTRN	??_E?$ScriptRegistrant@VKAK_Wind_Zone@@@@UAEPAXI@Z:PROC ; ScriptRegistrant<KAK_Wind_Zone>::`vector deleting destructor'
EXTRN	??_E?$ScriptRegistrant@VKAK_Clouds_Create@@@@UAEPAXI@Z:PROC ; ScriptRegistrant<KAK_Clouds_Create>::`vector deleting destructor'
EXTRN	??_E?$ScriptRegistrant@VKAK_Clouds_Zone@@@@UAEPAXI@Z:PROC ; ScriptRegistrant<KAK_Clouds_Zone>::`vector deleting destructor'
EXTRN	??_E?$ScriptRegistrant@VKAK_Lightning_Create@@@@UAEPAXI@Z:PROC ; ScriptRegistrant<KAK_Lightning_Create>::`vector deleting destructor'
EXTRN	??_E?$ScriptRegistrant@VKAK_Lightning_Zone@@@@UAEPAXI@Z:PROC ; ScriptRegistrant<KAK_Lightning_Zone>::`vector deleting destructor'
EXTRN	??_E?$ScriptRegistrant@VKAK_Flowing_Weather@@@@UAEPAXI@Z:PROC ; ScriptRegistrant<KAK_Flowing_Weather>::`vector deleting destructor'
EXTRN	??_E?$ScriptRegistrant@VKAK_Give_Powerup_On_Pickup@@@@UAEPAXI@Z:PROC ; ScriptRegistrant<KAK_Give_Powerup_On_Pickup>::`vector deleting destructor'
EXTRN	??_E?$ScriptRegistrant@VKAK_Select_Weapon_Zone@@@@UAEPAXI@Z:PROC ; ScriptRegistrant<KAK_Select_Weapon_Zone>::`vector deleting destructor'
EXTRN	??_E?$ScriptRegistrant@VKAK_Select_Weapon_On_Pickup@@@@UAEPAXI@Z:PROC ; ScriptRegistrant<KAK_Select_Weapon_On_Pickup>::`vector deleting destructor'
EXTRN	??_E?$ScriptRegistrant@VKAK_Harvester_Logic@@@@UAEPAXI@Z:PROC ; ScriptRegistrant<KAK_Harvester_Logic>::`vector deleting destructor'
EXTRN	??_E?$ScriptRegistrant@VKAK_Harvester_Attached@@@@UAEPAXI@Z:PROC ; ScriptRegistrant<KAK_Harvester_Attached>::`vector deleting destructor'
EXTRN	??_E?$ScriptRegistrant@VKAK_Harvester_Kill@@@@UAEPAXI@Z:PROC ; ScriptRegistrant<KAK_Harvester_Kill>::`vector deleting destructor'
EXTRN	??_E?$ScriptRegistrant@VKAK_Harvester_Spawn_Kill@@@@UAEPAXI@Z:PROC ; ScriptRegistrant<KAK_Harvester_Spawn_Kill>::`vector deleting destructor'
EXTRN	??_E?$ScriptRegistrant@VKAK_Prevent_Kill@@@@UAEPAXI@Z:PROC ; ScriptRegistrant<KAK_Prevent_Kill>::`vector deleting destructor'
EXTRN	??_E?$ScriptRegistrant@VKAK_Convert_Visceroid@@@@UAEPAXI@Z:PROC ; ScriptRegistrant<KAK_Convert_Visceroid>::`vector deleting destructor'
EXTRN	??_E?$ScriptRegistrant@VKAK_Freeze_Object@@@@UAEPAXI@Z:PROC ; ScriptRegistrant<KAK_Freeze_Object>::`vector deleting destructor'
EXTRN	??_E?$ScriptRegistrant@VKAK_Regen_Custom@@@@UAEPAXI@Z:PROC ; ScriptRegistrant<KAK_Regen_Custom>::`vector deleting destructor'
EXTRN	__CIatan2:PROC
EXTRN	__libm_sse2_acos_precise:PROC
EXTRN	__libm_sse2_asin_precise:PROC
EXTRN	__libm_sse2_atan_precise:PROC
EXTRN	__libm_sse2_cos_precise:PROC
EXTRN	__libm_sse2_sin_precise:PROC
EXTRN	__libm_sse2_sqrt_precise:PROC
EXTRN	_floor:PROC
EXTRN	??_7type_info@@6B@:QWORD			; type_info::`vftable'
EXTRN	?_FastAcosTable@@3AAV?$RefArrayHelper@M$0EAA@@@A:DWORD ; _FastAcosTable
EXTRN	?_FastAsinTable@@3AAV?$RefArrayHelper@M$0EAA@@@A:DWORD ; _FastAsinTable
EXTRN	?_FastSinTable@@3AAV?$RefArrayHelper@M$0EAA@@@A:DWORD ; _FastSinTable
EXTRN	?Commands@@3PAUScriptCommands@@A:DWORD		; Commands
EXTRN	__fltused:DWORD
_BSS	SEGMENT
?KAK_Warp_On_Pickup_Registrant@@3V?$ScriptRegistrant@VKAK_Warp_On_Pickup@@@@A DB 010H DUP (?) ; KAK_Warp_On_Pickup_Registrant
?KAK_Precipitation_Create_Registrant@@3V?$ScriptRegistrant@VKAK_Precipitation_Create@@@@A DB 010H DUP (?) ; KAK_Precipitation_Create_Registrant
?KAK_Precipitation_Zone_Registrant@@3V?$ScriptRegistrant@VKAK_Precipitation_Zone@@@@A DB 010H DUP (?) ; KAK_Precipitation_Zone_Registrant
?KAK_Wind_Create_Registrant@@3V?$ScriptRegistrant@VKAK_Wind_Create@@@@A DB 010H DUP (?) ; KAK_Wind_Create_Registrant
?KAK_Wind_Zone_Registrant@@3V?$ScriptRegistrant@VKAK_Wind_Zone@@@@A DB 010H DUP (?) ; KAK_Wind_Zone_Registrant
?KAK_Clouds_Create_Registrant@@3V?$ScriptRegistrant@VKAK_Clouds_Create@@@@A DB 010H DUP (?) ; KAK_Clouds_Create_Registrant
?KAK_Clouds_Zone_Registrant@@3V?$ScriptRegistrant@VKAK_Clouds_Zone@@@@A DB 010H DUP (?) ; KAK_Clouds_Zone_Registrant
?KAK_Lightning_Create_Registrant@@3V?$ScriptRegistrant@VKAK_Lightning_Create@@@@A DB 010H DUP (?) ; KAK_Lightning_Create_Registrant
?KAK_Lightning_Zone_Registrant@@3V?$ScriptRegistrant@VKAK_Lightning_Zone@@@@A DB 010H DUP (?) ; KAK_Lightning_Zone_Registrant
?KAK_Flowing_Weather_Registrant@@3V?$ScriptRegistrant@VKAK_Flowing_Weather@@@@A DB 010H DUP (?) ; KAK_Flowing_Weather_Registrant
?KAK_Give_Powerup_On_Pickup_Registrant@@3V?$ScriptRegistrant@VKAK_Give_Powerup_On_Pickup@@@@A DB 010H DUP (?) ; KAK_Give_Powerup_On_Pickup_Registrant
?KAK_Select_Weapon_Zone_Registrant@@3V?$ScriptRegistrant@VKAK_Select_Weapon_Zone@@@@A DB 010H DUP (?) ; KAK_Select_Weapon_Zone_Registrant
?KAK_Select_Weapon_On_Pickup_Registrant@@3V?$ScriptRegistrant@VKAK_Select_Weapon_On_Pickup@@@@A DB 010H DUP (?) ; KAK_Select_Weapon_On_Pickup_Registrant
?KAK_Harvester_Logic_Registrant@@3V?$ScriptRegistrant@VKAK_Harvester_Logic@@@@A DB 010H DUP (?) ; KAK_Harvester_Logic_Registrant
?KAK_Harvester_Attached_Registrant@@3V?$ScriptRegistrant@VKAK_Harvester_Attached@@@@A DB 010H DUP (?) ; KAK_Harvester_Attached_Registrant
?KAK_Harvester_Kill_Registrant@@3V?$ScriptRegistrant@VKAK_Harvester_Kill@@@@A DB 010H DUP (?) ; KAK_Harvester_Kill_Registrant
?KAK_Harvester_Spawn_Kill_Registrant@@3V?$ScriptRegistrant@VKAK_Harvester_Spawn_Kill@@@@A DB 010H DUP (?) ; KAK_Harvester_Spawn_Kill_Registrant
?KAK_Prevent_Kill_Registrant@@3V?$ScriptRegistrant@VKAK_Prevent_Kill@@@@A DB 010H DUP (?) ; KAK_Prevent_Kill_Registrant
?KAK_Convert_Visceroid_Registrant@@3V?$ScriptRegistrant@VKAK_Convert_Visceroid@@@@A DB 010H DUP (?) ; KAK_Convert_Visceroid_Registrant
?KAK_Freeze_Object_Registrant@@3V?$ScriptRegistrant@VKAK_Freeze_Object@@@@A DB 010H DUP (?) ; KAK_Freeze_Object_Registrant
?KAK_Regen_Custom_Registrant@@3V?$ScriptRegistrant@VKAK_Regen_Custom@@@@A DB 010H DUP (?) ; KAK_Regen_Custom_Registrant
_BSS	ENDS
CRT$XCU	SEGMENT
_KAK_Warp_On_Pickup_Registrant$initializer$ DD FLAT:??__EKAK_Warp_On_Pickup_Registrant@@YAXXZ
CRT$XCU	ENDS
;	COMDAT __real@bf800000
CONST	SEGMENT
__real@bf800000 DD 0bf800000r			; -1
CONST	ENDS
;	COMDAT __real@47c34f80
CONST	SEGMENT
__real@47c34f80 DD 047c34f80r			; 99999
CONST	ENDS
;	COMDAT __real@44800000
CONST	SEGMENT
__real@44800000 DD 044800000r			; 1024
CONST	ENDS
;	COMDAT __real@44000000
CONST	SEGMENT
__real@44000000 DD 044000000r			; 512
CONST	ENDS
;	COMDAT __real@43b40000
CONST	SEGMENT
__real@43b40000 DD 043b40000r			; 360
CONST	ENDS
;	COMDAT __real@437f0000
CONST	SEGMENT
__real@437f0000 DD 0437f0000r			; 255
CONST	ENDS
;	COMDAT __real@42c80000
CONST	SEGMENT
__real@42c80000 DD 042c80000r			; 100
CONST	ENDS
;	COMDAT __real@41a00000
CONST	SEGMENT
__real@41a00000 DD 041a00000r			; 20
CONST	ENDS
;	COMDAT __real@41200000
CONST	SEGMENT
__real@41200000 DD 041200000r			; 10
CONST	ENDS
;	COMDAT __real@40c90fdb
CONST	SEGMENT
__real@40c90fdb DD 040c90fdbr			; 6.28319
CONST	ENDS
;	COMDAT __real@40a00831
CONST	SEGMENT
__real@40a00831 DD 040a00831r			; 5.001
CONST	ENDS
;	COMDAT __real@40001062
CONST	SEGMENT
__real@40001062 DD 040001062r			; 2.001
CONST	ENDS
;	COMDAT __real@40000000
CONST	SEGMENT
__real@40000000 DD 040000000r			; 2
CONST	ENDS
;	COMDAT __real@3fc90fdb
CONST	SEGMENT
__real@3fc90fdb DD 03fc90fdbr			; 1.5708
CONST	ENDS
;	COMDAT __real@3f800000
CONST	SEGMENT
__real@3f800000 DD 03f800000r			; 1
CONST	ENDS
;	COMDAT __real@3f79999a
CONST	SEGMENT
__real@3f79999a DD 03f79999ar			; 0.975
CONST	ENDS
;	COMDAT __real@3f000000
CONST	SEGMENT
__real@3f000000 DD 03f000000r			; 0.5
CONST	ENDS
;	COMDAT __real@3dcccccd
CONST	SEGMENT
__real@3dcccccd DD 03dcccccdr			; 0.1
CONST	ENDS
;	COMDAT __real@3c23d70a
CONST	SEGMENT
__real@3c23d70a DD 03c23d70ar			; 0.01
CONST	ENDS
;	COMDAT __real@3a83126f
CONST	SEGMENT
__real@3a83126f DD 03a83126fr			; 0.001
CONST	ENDS
;	COMDAT __real@00000000
CONST	SEGMENT
__real@00000000 DD 000000000r			; 0
CONST	ENDS
;	COMDAT ??_R1A@?0A@EA@?$ScriptRegistrant@VKAK_Regen_Custom@@@@8
rdata$r	SEGMENT
??_R1A@?0A@EA@?$ScriptRegistrant@VKAK_Regen_Custom@@@@8 DD FLAT:??_R0?AV?$ScriptRegistrant@VKAK_Regen_Custom@@@@@8 ; ScriptRegistrant<KAK_Regen_Custom>::`RTTI Base Class Descriptor at (0,-1,0,64)'
	DD	01H
	DD	00H
	DD	0ffffffffH
	DD	00H
	DD	040H
	DD	FLAT:??_R3?$ScriptRegistrant@VKAK_Regen_Custom@@@@8
rdata$r	ENDS
;	COMDAT ??_R2?$ScriptRegistrant@VKAK_Regen_Custom@@@@8
rdata$r	SEGMENT
??_R2?$ScriptRegistrant@VKAK_Regen_Custom@@@@8 DD FLAT:??_R1A@?0A@EA@?$ScriptRegistrant@VKAK_Regen_Custom@@@@8 ; ScriptRegistrant<KAK_Regen_Custom>::`RTTI Base Class Array'
	DD	FLAT:??_R1A@?0A@EA@ScriptFactory@@8
rdata$r	ENDS
;	COMDAT ??_R3?$ScriptRegistrant@VKAK_Regen_Custom@@@@8
rdata$r	SEGMENT
??_R3?$ScriptRegistrant@VKAK_Regen_Custom@@@@8 DD 00H	; ScriptRegistrant<KAK_Regen_Custom>::`RTTI Class Hierarchy Descriptor'
	DD	00H
	DD	02H
	DD	FLAT:??_R2?$ScriptRegistrant@VKAK_Regen_Custom@@@@8
rdata$r	ENDS
;	COMDAT ??_R0?AV?$ScriptRegistrant@VKAK_Regen_Custom@@@@@8
_DATA	SEGMENT
??_R0?AV?$ScriptRegistrant@VKAK_Regen_Custom@@@@@8 DD FLAT:??_7type_info@@6B@ ; ScriptRegistrant<KAK_Regen_Custom> `RTTI Type Descriptor'
	DD	00H
	DB	'.?AV?$ScriptRegistrant@VKAK_Regen_Custom@@@@', 00H
_DATA	ENDS
;	COMDAT ??_R4?$ScriptRegistrant@VKAK_Regen_Custom@@@@6B@
rdata$r	SEGMENT
??_R4?$ScriptRegistrant@VKAK_Regen_Custom@@@@6B@ DD 00H	; ScriptRegistrant<KAK_Regen_Custom>::`RTTI Complete Object Locator'
	DD	00H
	DD	00H
	DD	FLAT:??_R0?AV?$ScriptRegistrant@VKAK_Regen_Custom@@@@@8
	DD	FLAT:??_R3?$ScriptRegistrant@VKAK_Regen_Custom@@@@8
rdata$r	ENDS
;	COMDAT ??_R1A@?0A@EA@?$ScriptRegistrant@VKAK_Freeze_Object@@@@8
rdata$r	SEGMENT
??_R1A@?0A@EA@?$ScriptRegistrant@VKAK_Freeze_Object@@@@8 DD FLAT:??_R0?AV?$ScriptRegistrant@VKAK_Freeze_Object@@@@@8 ; ScriptRegistrant<KAK_Freeze_Object>::`RTTI Base Class Descriptor at (0,-1,0,64)'
	DD	01H
	DD	00H
	DD	0ffffffffH
	DD	00H
	DD	040H
	DD	FLAT:??_R3?$ScriptRegistrant@VKAK_Freeze_Object@@@@8
rdata$r	ENDS
;	COMDAT ??_R2?$ScriptRegistrant@VKAK_Freeze_Object@@@@8
rdata$r	SEGMENT
??_R2?$ScriptRegistrant@VKAK_Freeze_Object@@@@8 DD FLAT:??_R1A@?0A@EA@?$ScriptRegistrant@VKAK_Freeze_Object@@@@8 ; ScriptRegistrant<KAK_Freeze_Object>::`RTTI Base Class Array'
	DD	FLAT:??_R1A@?0A@EA@ScriptFactory@@8
rdata$r	ENDS
;	COMDAT ??_R3?$ScriptRegistrant@VKAK_Freeze_Object@@@@8
rdata$r	SEGMENT
??_R3?$ScriptRegistrant@VKAK_Freeze_Object@@@@8 DD 00H	; ScriptRegistrant<KAK_Freeze_Object>::`RTTI Class Hierarchy Descriptor'
	DD	00H
	DD	02H
	DD	FLAT:??_R2?$ScriptRegistrant@VKAK_Freeze_Object@@@@8
rdata$r	ENDS
;	COMDAT ??_R0?AV?$ScriptRegistrant@VKAK_Freeze_Object@@@@@8
_DATA	SEGMENT
??_R0?AV?$ScriptRegistrant@VKAK_Freeze_Object@@@@@8 DD FLAT:??_7type_info@@6B@ ; ScriptRegistrant<KAK_Freeze_Object> `RTTI Type Descriptor'
	DD	00H
	DB	'.?AV?$ScriptRegistrant@VKAK_Freeze_Object@@@@', 00H
_DATA	ENDS
;	COMDAT ??_R4?$ScriptRegistrant@VKAK_Freeze_Object@@@@6B@
rdata$r	SEGMENT
??_R4?$ScriptRegistrant@VKAK_Freeze_Object@@@@6B@ DD 00H ; ScriptRegistrant<KAK_Freeze_Object>::`RTTI Complete Object Locator'
	DD	00H
	DD	00H
	DD	FLAT:??_R0?AV?$ScriptRegistrant@VKAK_Freeze_Object@@@@@8
	DD	FLAT:??_R3?$ScriptRegistrant@VKAK_Freeze_Object@@@@8
rdata$r	ENDS
;	COMDAT ??_R1A@?0A@EA@?$ScriptRegistrant@VKAK_Convert_Visceroid@@@@8
rdata$r	SEGMENT
??_R1A@?0A@EA@?$ScriptRegistrant@VKAK_Convert_Visceroid@@@@8 DD FLAT:??_R0?AV?$ScriptRegistrant@VKAK_Convert_Visceroid@@@@@8 ; ScriptRegistrant<KAK_Convert_Visceroid>::`RTTI Base Class Descriptor at (0,-1,0,64)'
	DD	01H
	DD	00H
	DD	0ffffffffH
	DD	00H
	DD	040H
	DD	FLAT:??_R3?$ScriptRegistrant@VKAK_Convert_Visceroid@@@@8
rdata$r	ENDS
;	COMDAT ??_R2?$ScriptRegistrant@VKAK_Convert_Visceroid@@@@8
rdata$r	SEGMENT
??_R2?$ScriptRegistrant@VKAK_Convert_Visceroid@@@@8 DD FLAT:??_R1A@?0A@EA@?$ScriptRegistrant@VKAK_Convert_Visceroid@@@@8 ; ScriptRegistrant<KAK_Convert_Visceroid>::`RTTI Base Class Array'
	DD	FLAT:??_R1A@?0A@EA@ScriptFactory@@8
rdata$r	ENDS
;	COMDAT ??_R3?$ScriptRegistrant@VKAK_Convert_Visceroid@@@@8
rdata$r	SEGMENT
??_R3?$ScriptRegistrant@VKAK_Convert_Visceroid@@@@8 DD 00H ; ScriptRegistrant<KAK_Convert_Visceroid>::`RTTI Class Hierarchy Descriptor'
	DD	00H
	DD	02H
	DD	FLAT:??_R2?$ScriptRegistrant@VKAK_Convert_Visceroid@@@@8
rdata$r	ENDS
;	COMDAT ??_R0?AV?$ScriptRegistrant@VKAK_Convert_Visceroid@@@@@8
_DATA	SEGMENT
??_R0?AV?$ScriptRegistrant@VKAK_Convert_Visceroid@@@@@8 DD FLAT:??_7type_info@@6B@ ; ScriptRegistrant<KAK_Convert_Visceroid> `RTTI Type Descriptor'
	DD	00H
	DB	'.?AV?$ScriptRegistrant@VKAK_Convert_Visceroid@@@@', 00H
_DATA	ENDS
;	COMDAT ??_R4?$ScriptRegistrant@VKAK_Convert_Visceroid@@@@6B@
rdata$r	SEGMENT
??_R4?$ScriptRegistrant@VKAK_Convert_Visceroid@@@@6B@ DD 00H ; ScriptRegistrant<KAK_Convert_Visceroid>::`RTTI Complete Object Locator'
	DD	00H
	DD	00H
	DD	FLAT:??_R0?AV?$ScriptRegistrant@VKAK_Convert_Visceroid@@@@@8
	DD	FLAT:??_R3?$ScriptRegistrant@VKAK_Convert_Visceroid@@@@8
rdata$r	ENDS
;	COMDAT ??_R1A@?0A@EA@?$ScriptRegistrant@VKAK_Prevent_Kill@@@@8
rdata$r	SEGMENT
??_R1A@?0A@EA@?$ScriptRegistrant@VKAK_Prevent_Kill@@@@8 DD FLAT:??_R0?AV?$ScriptRegistrant@VKAK_Prevent_Kill@@@@@8 ; ScriptRegistrant<KAK_Prevent_Kill>::`RTTI Base Class Descriptor at (0,-1,0,64)'
	DD	01H
	DD	00H
	DD	0ffffffffH
	DD	00H
	DD	040H
	DD	FLAT:??_R3?$ScriptRegistrant@VKAK_Prevent_Kill@@@@8
rdata$r	ENDS
;	COMDAT ??_R2?$ScriptRegistrant@VKAK_Prevent_Kill@@@@8
rdata$r	SEGMENT
??_R2?$ScriptRegistrant@VKAK_Prevent_Kill@@@@8 DD FLAT:??_R1A@?0A@EA@?$ScriptRegistrant@VKAK_Prevent_Kill@@@@8 ; ScriptRegistrant<KAK_Prevent_Kill>::`RTTI Base Class Array'
	DD	FLAT:??_R1A@?0A@EA@ScriptFactory@@8
rdata$r	ENDS
;	COMDAT ??_R3?$ScriptRegistrant@VKAK_Prevent_Kill@@@@8
rdata$r	SEGMENT
??_R3?$ScriptRegistrant@VKAK_Prevent_Kill@@@@8 DD 00H	; ScriptRegistrant<KAK_Prevent_Kill>::`RTTI Class Hierarchy Descriptor'
	DD	00H
	DD	02H
	DD	FLAT:??_R2?$ScriptRegistrant@VKAK_Prevent_Kill@@@@8
rdata$r	ENDS
;	COMDAT ??_R0?AV?$ScriptRegistrant@VKAK_Prevent_Kill@@@@@8
_DATA	SEGMENT
??_R0?AV?$ScriptRegistrant@VKAK_Prevent_Kill@@@@@8 DD FLAT:??_7type_info@@6B@ ; ScriptRegistrant<KAK_Prevent_Kill> `RTTI Type Descriptor'
	DD	00H
	DB	'.?AV?$ScriptRegistrant@VKAK_Prevent_Kill@@@@', 00H
_DATA	ENDS
;	COMDAT ??_R4?$ScriptRegistrant@VKAK_Prevent_Kill@@@@6B@
rdata$r	SEGMENT
??_R4?$ScriptRegistrant@VKAK_Prevent_Kill@@@@6B@ DD 00H	; ScriptRegistrant<KAK_Prevent_Kill>::`RTTI Complete Object Locator'
	DD	00H
	DD	00H
	DD	FLAT:??_R0?AV?$ScriptRegistrant@VKAK_Prevent_Kill@@@@@8
	DD	FLAT:??_R3?$ScriptRegistrant@VKAK_Prevent_Kill@@@@8
rdata$r	ENDS
;	COMDAT ??_R1A@?0A@EA@?$ScriptRegistrant@VKAK_Harvester_Spawn_Kill@@@@8
rdata$r	SEGMENT
??_R1A@?0A@EA@?$ScriptRegistrant@VKAK_Harvester_Spawn_Kill@@@@8 DD FLAT:??_R0?AV?$ScriptRegistrant@VKAK_Harvester_Spawn_Kill@@@@@8 ; ScriptRegistrant<KAK_Harvester_Spawn_Kill>::`RTTI Base Class Descriptor at (0,-1,0,64)'
	DD	01H
	DD	00H
	DD	0ffffffffH
	DD	00H
	DD	040H
	DD	FLAT:??_R3?$ScriptRegistrant@VKAK_Harvester_Spawn_Kill@@@@8
rdata$r	ENDS
;	COMDAT ??_R2?$ScriptRegistrant@VKAK_Harvester_Spawn_Kill@@@@8
rdata$r	SEGMENT
??_R2?$ScriptRegistrant@VKAK_Harvester_Spawn_Kill@@@@8 DD FLAT:??_R1A@?0A@EA@?$ScriptRegistrant@VKAK_Harvester_Spawn_Kill@@@@8 ; ScriptRegistrant<KAK_Harvester_Spawn_Kill>::`RTTI Base Class Array'
	DD	FLAT:??_R1A@?0A@EA@ScriptFactory@@8
rdata$r	ENDS
;	COMDAT ??_R3?$ScriptRegistrant@VKAK_Harvester_Spawn_Kill@@@@8
rdata$r	SEGMENT
??_R3?$ScriptRegistrant@VKAK_Harvester_Spawn_Kill@@@@8 DD 00H ; ScriptRegistrant<KAK_Harvester_Spawn_Kill>::`RTTI Class Hierarchy Descriptor'
	DD	00H
	DD	02H
	DD	FLAT:??_R2?$ScriptRegistrant@VKAK_Harvester_Spawn_Kill@@@@8
rdata$r	ENDS
;	COMDAT ??_R0?AV?$ScriptRegistrant@VKAK_Harvester_Spawn_Kill@@@@@8
_DATA	SEGMENT
??_R0?AV?$ScriptRegistrant@VKAK_Harvester_Spawn_Kill@@@@@8 DD FLAT:??_7type_info@@6B@ ; ScriptRegistrant<KAK_Harvester_Spawn_Kill> `RTTI Type Descriptor'
	DD	00H
	DB	'.?AV?$ScriptRegistrant@VKAK_Harvester_Spawn_Kill@@@@', 00H
_DATA	ENDS
;	COMDAT ??_R4?$ScriptRegistrant@VKAK_Harvester_Spawn_Kill@@@@6B@
rdata$r	SEGMENT
??_R4?$ScriptRegistrant@VKAK_Harvester_Spawn_Kill@@@@6B@ DD 00H ; ScriptRegistrant<KAK_Harvester_Spawn_Kill>::`RTTI Complete Object Locator'
	DD	00H
	DD	00H
	DD	FLAT:??_R0?AV?$ScriptRegistrant@VKAK_Harvester_Spawn_Kill@@@@@8
	DD	FLAT:??_R3?$ScriptRegistrant@VKAK_Harvester_Spawn_Kill@@@@8
rdata$r	ENDS
;	COMDAT ??_R1A@?0A@EA@?$ScriptRegistrant@VKAK_Harvester_Kill@@@@8
rdata$r	SEGMENT
??_R1A@?0A@EA@?$ScriptRegistrant@VKAK_Harvester_Kill@@@@8 DD FLAT:??_R0?AV?$ScriptRegistrant@VKAK_Harvester_Kill@@@@@8 ; ScriptRegistrant<KAK_Harvester_Kill>::`RTTI Base Class Descriptor at (0,-1,0,64)'
	DD	01H
	DD	00H
	DD	0ffffffffH
	DD	00H
	DD	040H
	DD	FLAT:??_R3?$ScriptRegistrant@VKAK_Harvester_Kill@@@@8
rdata$r	ENDS
;	COMDAT ??_R2?$ScriptRegistrant@VKAK_Harvester_Kill@@@@8
rdata$r	SEGMENT
??_R2?$ScriptRegistrant@VKAK_Harvester_Kill@@@@8 DD FLAT:??_R1A@?0A@EA@?$ScriptRegistrant@VKAK_Harvester_Kill@@@@8 ; ScriptRegistrant<KAK_Harvester_Kill>::`RTTI Base Class Array'
	DD	FLAT:??_R1A@?0A@EA@ScriptFactory@@8
rdata$r	ENDS
;	COMDAT ??_R3?$ScriptRegistrant@VKAK_Harvester_Kill@@@@8
rdata$r	SEGMENT
??_R3?$ScriptRegistrant@VKAK_Harvester_Kill@@@@8 DD 00H	; ScriptRegistrant<KAK_Harvester_Kill>::`RTTI Class Hierarchy Descriptor'
	DD	00H
	DD	02H
	DD	FLAT:??_R2?$ScriptRegistrant@VKAK_Harvester_Kill@@@@8
rdata$r	ENDS
;	COMDAT ??_R0?AV?$ScriptRegistrant@VKAK_Harvester_Kill@@@@@8
_DATA	SEGMENT
??_R0?AV?$ScriptRegistrant@VKAK_Harvester_Kill@@@@@8 DD FLAT:??_7type_info@@6B@ ; ScriptRegistrant<KAK_Harvester_Kill> `RTTI Type Descriptor'
	DD	00H
	DB	'.?AV?$ScriptRegistrant@VKAK_Harvester_Kill@@@@', 00H
_DATA	ENDS
;	COMDAT ??_R4?$ScriptRegistrant@VKAK_Harvester_Kill@@@@6B@
rdata$r	SEGMENT
??_R4?$ScriptRegistrant@VKAK_Harvester_Kill@@@@6B@ DD 00H ; ScriptRegistrant<KAK_Harvester_Kill>::`RTTI Complete Object Locator'
	DD	00H
	DD	00H
	DD	FLAT:??_R0?AV?$ScriptRegistrant@VKAK_Harvester_Kill@@@@@8
	DD	FLAT:??_R3?$ScriptRegistrant@VKAK_Harvester_Kill@@@@8
rdata$r	ENDS
;	COMDAT ??_R1A@?0A@EA@?$ScriptRegistrant@VKAK_Harvester_Attached@@@@8
rdata$r	SEGMENT
??_R1A@?0A@EA@?$ScriptRegistrant@VKAK_Harvester_Attached@@@@8 DD FLAT:??_R0?AV?$ScriptRegistrant@VKAK_Harvester_Attached@@@@@8 ; ScriptRegistrant<KAK_Harvester_Attached>::`RTTI Base Class Descriptor at (0,-1,0,64)'
	DD	01H
	DD	00H
	DD	0ffffffffH
	DD	00H
	DD	040H
	DD	FLAT:??_R3?$ScriptRegistrant@VKAK_Harvester_Attached@@@@8
rdata$r	ENDS
;	COMDAT ??_R2?$ScriptRegistrant@VKAK_Harvester_Attached@@@@8
rdata$r	SEGMENT
??_R2?$ScriptRegistrant@VKAK_Harvester_Attached@@@@8 DD FLAT:??_R1A@?0A@EA@?$ScriptRegistrant@VKAK_Harvester_Attached@@@@8 ; ScriptRegistrant<KAK_Harvester_Attached>::`RTTI Base Class Array'
	DD	FLAT:??_R1A@?0A@EA@ScriptFactory@@8
rdata$r	ENDS
;	COMDAT ??_R3?$ScriptRegistrant@VKAK_Harvester_Attached@@@@8
rdata$r	SEGMENT
??_R3?$ScriptRegistrant@VKAK_Harvester_Attached@@@@8 DD 00H ; ScriptRegistrant<KAK_Harvester_Attached>::`RTTI Class Hierarchy Descriptor'
	DD	00H
	DD	02H
	DD	FLAT:??_R2?$ScriptRegistrant@VKAK_Harvester_Attached@@@@8
rdata$r	ENDS
;	COMDAT ??_R0?AV?$ScriptRegistrant@VKAK_Harvester_Attached@@@@@8
_DATA	SEGMENT
??_R0?AV?$ScriptRegistrant@VKAK_Harvester_Attached@@@@@8 DD FLAT:??_7type_info@@6B@ ; ScriptRegistrant<KAK_Harvester_Attached> `RTTI Type Descriptor'
	DD	00H
	DB	'.?AV?$ScriptRegistrant@VKAK_Harvester_Attached@@@@', 00H
_DATA	ENDS
;	COMDAT ??_R4?$ScriptRegistrant@VKAK_Harvester_Attached@@@@6B@
rdata$r	SEGMENT
??_R4?$ScriptRegistrant@VKAK_Harvester_Attached@@@@6B@ DD 00H ; ScriptRegistrant<KAK_Harvester_Attached>::`RTTI Complete Object Locator'
	DD	00H
	DD	00H
	DD	FLAT:??_R0?AV?$ScriptRegistrant@VKAK_Harvester_Attached@@@@@8
	DD	FLAT:??_R3?$ScriptRegistrant@VKAK_Harvester_Attached@@@@8
rdata$r	ENDS
;	COMDAT ??_R1A@?0A@EA@?$ScriptRegistrant@VKAK_Harvester_Logic@@@@8
rdata$r	SEGMENT
??_R1A@?0A@EA@?$ScriptRegistrant@VKAK_Harvester_Logic@@@@8 DD FLAT:??_R0?AV?$ScriptRegistrant@VKAK_Harvester_Logic@@@@@8 ; ScriptRegistrant<KAK_Harvester_Logic>::`RTTI Base Class Descriptor at (0,-1,0,64)'
	DD	01H
	DD	00H
	DD	0ffffffffH
	DD	00H
	DD	040H
	DD	FLAT:??_R3?$ScriptRegistrant@VKAK_Harvester_Logic@@@@8
rdata$r	ENDS
;	COMDAT ??_R2?$ScriptRegistrant@VKAK_Harvester_Logic@@@@8
rdata$r	SEGMENT
??_R2?$ScriptRegistrant@VKAK_Harvester_Logic@@@@8 DD FLAT:??_R1A@?0A@EA@?$ScriptRegistrant@VKAK_Harvester_Logic@@@@8 ; ScriptRegistrant<KAK_Harvester_Logic>::`RTTI Base Class Array'
	DD	FLAT:??_R1A@?0A@EA@ScriptFactory@@8
rdata$r	ENDS
;	COMDAT ??_R3?$ScriptRegistrant@VKAK_Harvester_Logic@@@@8
rdata$r	SEGMENT
??_R3?$ScriptRegistrant@VKAK_Harvester_Logic@@@@8 DD 00H ; ScriptRegistrant<KAK_Harvester_Logic>::`RTTI Class Hierarchy Descriptor'
	DD	00H
	DD	02H
	DD	FLAT:??_R2?$ScriptRegistrant@VKAK_Harvester_Logic@@@@8
rdata$r	ENDS
;	COMDAT ??_R0?AV?$ScriptRegistrant@VKAK_Harvester_Logic@@@@@8
_DATA	SEGMENT
??_R0?AV?$ScriptRegistrant@VKAK_Harvester_Logic@@@@@8 DD FLAT:??_7type_info@@6B@ ; ScriptRegistrant<KAK_Harvester_Logic> `RTTI Type Descriptor'
	DD	00H
	DB	'.?AV?$ScriptRegistrant@VKAK_Harvester_Logic@@@@', 00H
_DATA	ENDS
;	COMDAT ??_R4?$ScriptRegistrant@VKAK_Harvester_Logic@@@@6B@
rdata$r	SEGMENT
??_R4?$ScriptRegistrant@VKAK_Harvester_Logic@@@@6B@ DD 00H ; ScriptRegistrant<KAK_Harvester_Logic>::`RTTI Complete Object Locator'
	DD	00H
	DD	00H
	DD	FLAT:??_R0?AV?$ScriptRegistrant@VKAK_Harvester_Logic@@@@@8
	DD	FLAT:??_R3?$ScriptRegistrant@VKAK_Harvester_Logic@@@@8
rdata$r	ENDS
;	COMDAT ??_R1A@?0A@EA@?$ScriptRegistrant@VKAK_Select_Weapon_On_Pickup@@@@8
rdata$r	SEGMENT
??_R1A@?0A@EA@?$ScriptRegistrant@VKAK_Select_Weapon_On_Pickup@@@@8 DD FLAT:??_R0?AV?$ScriptRegistrant@VKAK_Select_Weapon_On_Pickup@@@@@8 ; ScriptRegistrant<KAK_Select_Weapon_On_Pickup>::`RTTI Base Class Descriptor at (0,-1,0,64)'
	DD	01H
	DD	00H
	DD	0ffffffffH
	DD	00H
	DD	040H
	DD	FLAT:??_R3?$ScriptRegistrant@VKAK_Select_Weapon_On_Pickup@@@@8
rdata$r	ENDS
;	COMDAT ??_R2?$ScriptRegistrant@VKAK_Select_Weapon_On_Pickup@@@@8
rdata$r	SEGMENT
??_R2?$ScriptRegistrant@VKAK_Select_Weapon_On_Pickup@@@@8 DD FLAT:??_R1A@?0A@EA@?$ScriptRegistrant@VKAK_Select_Weapon_On_Pickup@@@@8 ; ScriptRegistrant<KAK_Select_Weapon_On_Pickup>::`RTTI Base Class Array'
	DD	FLAT:??_R1A@?0A@EA@ScriptFactory@@8
rdata$r	ENDS
;	COMDAT ??_R3?$ScriptRegistrant@VKAK_Select_Weapon_On_Pickup@@@@8
rdata$r	SEGMENT
??_R3?$ScriptRegistrant@VKAK_Select_Weapon_On_Pickup@@@@8 DD 00H ; ScriptRegistrant<KAK_Select_Weapon_On_Pickup>::`RTTI Class Hierarchy Descriptor'
	DD	00H
	DD	02H
	DD	FLAT:??_R2?$ScriptRegistrant@VKAK_Select_Weapon_On_Pickup@@@@8
rdata$r	ENDS
;	COMDAT ??_R0?AV?$ScriptRegistrant@VKAK_Select_Weapon_On_Pickup@@@@@8
_DATA	SEGMENT
??_R0?AV?$ScriptRegistrant@VKAK_Select_Weapon_On_Pickup@@@@@8 DD FLAT:??_7type_info@@6B@ ; ScriptRegistrant<KAK_Select_Weapon_On_Pickup> `RTTI Type Descriptor'
	DD	00H
	DB	'.?AV?$ScriptRegistrant@VKAK_Select_Weapon_On_Pickup@@@@', 00H
_DATA	ENDS
;	COMDAT ??_R4?$ScriptRegistrant@VKAK_Select_Weapon_On_Pickup@@@@6B@
rdata$r	SEGMENT
??_R4?$ScriptRegistrant@VKAK_Select_Weapon_On_Pickup@@@@6B@ DD 00H ; ScriptRegistrant<KAK_Select_Weapon_On_Pickup>::`RTTI Complete Object Locator'
	DD	00H
	DD	00H
	DD	FLAT:??_R0?AV?$ScriptRegistrant@VKAK_Select_Weapon_On_Pickup@@@@@8
	DD	FLAT:??_R3?$ScriptRegistrant@VKAK_Select_Weapon_On_Pickup@@@@8
rdata$r	ENDS
;	COMDAT ??_R1A@?0A@EA@?$ScriptRegistrant@VKAK_Select_Weapon_Zone@@@@8
rdata$r	SEGMENT
??_R1A@?0A@EA@?$ScriptRegistrant@VKAK_Select_Weapon_Zone@@@@8 DD FLAT:??_R0?AV?$ScriptRegistrant@VKAK_Select_Weapon_Zone@@@@@8 ; ScriptRegistrant<KAK_Select_Weapon_Zone>::`RTTI Base Class Descriptor at (0,-1,0,64)'
	DD	01H
	DD	00H
	DD	0ffffffffH
	DD	00H
	DD	040H
	DD	FLAT:??_R3?$ScriptRegistrant@VKAK_Select_Weapon_Zone@@@@8
rdata$r	ENDS
;	COMDAT ??_R2?$ScriptRegistrant@VKAK_Select_Weapon_Zone@@@@8
rdata$r	SEGMENT
??_R2?$ScriptRegistrant@VKAK_Select_Weapon_Zone@@@@8 DD FLAT:??_R1A@?0A@EA@?$ScriptRegistrant@VKAK_Select_Weapon_Zone@@@@8 ; ScriptRegistrant<KAK_Select_Weapon_Zone>::`RTTI Base Class Array'
	DD	FLAT:??_R1A@?0A@EA@ScriptFactory@@8
rdata$r	ENDS
;	COMDAT ??_R3?$ScriptRegistrant@VKAK_Select_Weapon_Zone@@@@8
rdata$r	SEGMENT
??_R3?$ScriptRegistrant@VKAK_Select_Weapon_Zone@@@@8 DD 00H ; ScriptRegistrant<KAK_Select_Weapon_Zone>::`RTTI Class Hierarchy Descriptor'
	DD	00H
	DD	02H
	DD	FLAT:??_R2?$ScriptRegistrant@VKAK_Select_Weapon_Zone@@@@8
rdata$r	ENDS
;	COMDAT ??_R0?AV?$ScriptRegistrant@VKAK_Select_Weapon_Zone@@@@@8
_DATA	SEGMENT
??_R0?AV?$ScriptRegistrant@VKAK_Select_Weapon_Zone@@@@@8 DD FLAT:??_7type_info@@6B@ ; ScriptRegistrant<KAK_Select_Weapon_Zone> `RTTI Type Descriptor'
	DD	00H
	DB	'.?AV?$ScriptRegistrant@VKAK_Select_Weapon_Zone@@@@', 00H
_DATA	ENDS
;	COMDAT ??_R4?$ScriptRegistrant@VKAK_Select_Weapon_Zone@@@@6B@
rdata$r	SEGMENT
??_R4?$ScriptRegistrant@VKAK_Select_Weapon_Zone@@@@6B@ DD 00H ; ScriptRegistrant<KAK_Select_Weapon_Zone>::`RTTI Complete Object Locator'
	DD	00H
	DD	00H
	DD	FLAT:??_R0?AV?$ScriptRegistrant@VKAK_Select_Weapon_Zone@@@@@8
	DD	FLAT:??_R3?$ScriptRegistrant@VKAK_Select_Weapon_Zone@@@@8
rdata$r	ENDS
;	COMDAT ??_R1A@?0A@EA@?$ScriptRegistrant@VKAK_Give_Powerup_On_Pickup@@@@8
rdata$r	SEGMENT
??_R1A@?0A@EA@?$ScriptRegistrant@VKAK_Give_Powerup_On_Pickup@@@@8 DD FLAT:??_R0?AV?$ScriptRegistrant@VKAK_Give_Powerup_On_Pickup@@@@@8 ; ScriptRegistrant<KAK_Give_Powerup_On_Pickup>::`RTTI Base Class Descriptor at (0,-1,0,64)'
	DD	01H
	DD	00H
	DD	0ffffffffH
	DD	00H
	DD	040H
	DD	FLAT:??_R3?$ScriptRegistrant@VKAK_Give_Powerup_On_Pickup@@@@8
rdata$r	ENDS
;	COMDAT ??_R2?$ScriptRegistrant@VKAK_Give_Powerup_On_Pickup@@@@8
rdata$r	SEGMENT
??_R2?$ScriptRegistrant@VKAK_Give_Powerup_On_Pickup@@@@8 DD FLAT:??_R1A@?0A@EA@?$ScriptRegistrant@VKAK_Give_Powerup_On_Pickup@@@@8 ; ScriptRegistrant<KAK_Give_Powerup_On_Pickup>::`RTTI Base Class Array'
	DD	FLAT:??_R1A@?0A@EA@ScriptFactory@@8
rdata$r	ENDS
;	COMDAT ??_R3?$ScriptRegistrant@VKAK_Give_Powerup_On_Pickup@@@@8
rdata$r	SEGMENT
??_R3?$ScriptRegistrant@VKAK_Give_Powerup_On_Pickup@@@@8 DD 00H ; ScriptRegistrant<KAK_Give_Powerup_On_Pickup>::`RTTI Class Hierarchy Descriptor'
	DD	00H
	DD	02H
	DD	FLAT:??_R2?$ScriptRegistrant@VKAK_Give_Powerup_On_Pickup@@@@8
rdata$r	ENDS
;	COMDAT ??_R0?AV?$ScriptRegistrant@VKAK_Give_Powerup_On_Pickup@@@@@8
_DATA	SEGMENT
??_R0?AV?$ScriptRegistrant@VKAK_Give_Powerup_On_Pickup@@@@@8 DD FLAT:??_7type_info@@6B@ ; ScriptRegistrant<KAK_Give_Powerup_On_Pickup> `RTTI Type Descriptor'
	DD	00H
	DB	'.?AV?$ScriptRegistrant@VKAK_Give_Powerup_On_Pickup@@@@', 00H
_DATA	ENDS
;	COMDAT ??_R4?$ScriptRegistrant@VKAK_Give_Powerup_On_Pickup@@@@6B@
rdata$r	SEGMENT
??_R4?$ScriptRegistrant@VKAK_Give_Powerup_On_Pickup@@@@6B@ DD 00H ; ScriptRegistrant<KAK_Give_Powerup_On_Pickup>::`RTTI Complete Object Locator'
	DD	00H
	DD	00H
	DD	FLAT:??_R0?AV?$ScriptRegistrant@VKAK_Give_Powerup_On_Pickup@@@@@8
	DD	FLAT:??_R3?$ScriptRegistrant@VKAK_Give_Powerup_On_Pickup@@@@8
rdata$r	ENDS
;	COMDAT ??_R1A@?0A@EA@?$ScriptRegistrant@VKAK_Flowing_Weather@@@@8
rdata$r	SEGMENT
??_R1A@?0A@EA@?$ScriptRegistrant@VKAK_Flowing_Weather@@@@8 DD FLAT:??_R0?AV?$ScriptRegistrant@VKAK_Flowing_Weather@@@@@8 ; ScriptRegistrant<KAK_Flowing_Weather>::`RTTI Base Class Descriptor at (0,-1,0,64)'
	DD	01H
	DD	00H
	DD	0ffffffffH
	DD	00H
	DD	040H
	DD	FLAT:??_R3?$ScriptRegistrant@VKAK_Flowing_Weather@@@@8
rdata$r	ENDS
;	COMDAT ??_R2?$ScriptRegistrant@VKAK_Flowing_Weather@@@@8
rdata$r	SEGMENT
??_R2?$ScriptRegistrant@VKAK_Flowing_Weather@@@@8 DD FLAT:??_R1A@?0A@EA@?$ScriptRegistrant@VKAK_Flowing_Weather@@@@8 ; ScriptRegistrant<KAK_Flowing_Weather>::`RTTI Base Class Array'
	DD	FLAT:??_R1A@?0A@EA@ScriptFactory@@8
rdata$r	ENDS
;	COMDAT ??_R3?$ScriptRegistrant@VKAK_Flowing_Weather@@@@8
rdata$r	SEGMENT
??_R3?$ScriptRegistrant@VKAK_Flowing_Weather@@@@8 DD 00H ; ScriptRegistrant<KAK_Flowing_Weather>::`RTTI Class Hierarchy Descriptor'
	DD	00H
	DD	02H
	DD	FLAT:??_R2?$ScriptRegistrant@VKAK_Flowing_Weather@@@@8
rdata$r	ENDS
;	COMDAT ??_R0?AV?$ScriptRegistrant@VKAK_Flowing_Weather@@@@@8
_DATA	SEGMENT
??_R0?AV?$ScriptRegistrant@VKAK_Flowing_Weather@@@@@8 DD FLAT:??_7type_info@@6B@ ; ScriptRegistrant<KAK_Flowing_Weather> `RTTI Type Descriptor'
	DD	00H
	DB	'.?AV?$ScriptRegistrant@VKAK_Flowing_Weather@@@@', 00H
_DATA	ENDS
;	COMDAT ??_R4?$ScriptRegistrant@VKAK_Flowing_Weather@@@@6B@
rdata$r	SEGMENT
??_R4?$ScriptRegistrant@VKAK_Flowing_Weather@@@@6B@ DD 00H ; ScriptRegistrant<KAK_Flowing_Weather>::`RTTI Complete Object Locator'
	DD	00H
	DD	00H
	DD	FLAT:??_R0?AV?$ScriptRegistrant@VKAK_Flowing_Weather@@@@@8
	DD	FLAT:??_R3?$ScriptRegistrant@VKAK_Flowing_Weather@@@@8
rdata$r	ENDS
;	COMDAT ??_R1A@?0A@EA@?$ScriptRegistrant@VKAK_Lightning_Zone@@@@8
rdata$r	SEGMENT
??_R1A@?0A@EA@?$ScriptRegistrant@VKAK_Lightning_Zone@@@@8 DD FLAT:??_R0?AV?$ScriptRegistrant@VKAK_Lightning_Zone@@@@@8 ; ScriptRegistrant<KAK_Lightning_Zone>::`RTTI Base Class Descriptor at (0,-1,0,64)'
	DD	01H
	DD	00H
	DD	0ffffffffH
	DD	00H
	DD	040H
	DD	FLAT:??_R3?$ScriptRegistrant@VKAK_Lightning_Zone@@@@8
rdata$r	ENDS
;	COMDAT ??_R2?$ScriptRegistrant@VKAK_Lightning_Zone@@@@8
rdata$r	SEGMENT
??_R2?$ScriptRegistrant@VKAK_Lightning_Zone@@@@8 DD FLAT:??_R1A@?0A@EA@?$ScriptRegistrant@VKAK_Lightning_Zone@@@@8 ; ScriptRegistrant<KAK_Lightning_Zone>::`RTTI Base Class Array'
	DD	FLAT:??_R1A@?0A@EA@ScriptFactory@@8
rdata$r	ENDS
;	COMDAT ??_R3?$ScriptRegistrant@VKAK_Lightning_Zone@@@@8
rdata$r	SEGMENT
??_R3?$ScriptRegistrant@VKAK_Lightning_Zone@@@@8 DD 00H	; ScriptRegistrant<KAK_Lightning_Zone>::`RTTI Class Hierarchy Descriptor'
	DD	00H
	DD	02H
	DD	FLAT:??_R2?$ScriptRegistrant@VKAK_Lightning_Zone@@@@8
rdata$r	ENDS
;	COMDAT ??_R0?AV?$ScriptRegistrant@VKAK_Lightning_Zone@@@@@8
_DATA	SEGMENT
??_R0?AV?$ScriptRegistrant@VKAK_Lightning_Zone@@@@@8 DD FLAT:??_7type_info@@6B@ ; ScriptRegistrant<KAK_Lightning_Zone> `RTTI Type Descriptor'
	DD	00H
	DB	'.?AV?$ScriptRegistrant@VKAK_Lightning_Zone@@@@', 00H
_DATA	ENDS
;	COMDAT ??_R4?$ScriptRegistrant@VKAK_Lightning_Zone@@@@6B@
rdata$r	SEGMENT
??_R4?$ScriptRegistrant@VKAK_Lightning_Zone@@@@6B@ DD 00H ; ScriptRegistrant<KAK_Lightning_Zone>::`RTTI Complete Object Locator'
	DD	00H
	DD	00H
	DD	FLAT:??_R0?AV?$ScriptRegistrant@VKAK_Lightning_Zone@@@@@8
	DD	FLAT:??_R3?$ScriptRegistrant@VKAK_Lightning_Zone@@@@8
rdata$r	ENDS
;	COMDAT ??_R1A@?0A@EA@?$ScriptRegistrant@VKAK_Lightning_Create@@@@8
rdata$r	SEGMENT
??_R1A@?0A@EA@?$ScriptRegistrant@VKAK_Lightning_Create@@@@8 DD FLAT:??_R0?AV?$ScriptRegistrant@VKAK_Lightning_Create@@@@@8 ; ScriptRegistrant<KAK_Lightning_Create>::`RTTI Base Class Descriptor at (0,-1,0,64)'
	DD	01H
	DD	00H
	DD	0ffffffffH
	DD	00H
	DD	040H
	DD	FLAT:??_R3?$ScriptRegistrant@VKAK_Lightning_Create@@@@8
rdata$r	ENDS
;	COMDAT ??_R2?$ScriptRegistrant@VKAK_Lightning_Create@@@@8
rdata$r	SEGMENT
??_R2?$ScriptRegistrant@VKAK_Lightning_Create@@@@8 DD FLAT:??_R1A@?0A@EA@?$ScriptRegistrant@VKAK_Lightning_Create@@@@8 ; ScriptRegistrant<KAK_Lightning_Create>::`RTTI Base Class Array'
	DD	FLAT:??_R1A@?0A@EA@ScriptFactory@@8
rdata$r	ENDS
;	COMDAT ??_R3?$ScriptRegistrant@VKAK_Lightning_Create@@@@8
rdata$r	SEGMENT
??_R3?$ScriptRegistrant@VKAK_Lightning_Create@@@@8 DD 00H ; ScriptRegistrant<KAK_Lightning_Create>::`RTTI Class Hierarchy Descriptor'
	DD	00H
	DD	02H
	DD	FLAT:??_R2?$ScriptRegistrant@VKAK_Lightning_Create@@@@8
rdata$r	ENDS
;	COMDAT ??_R0?AV?$ScriptRegistrant@VKAK_Lightning_Create@@@@@8
_DATA	SEGMENT
??_R0?AV?$ScriptRegistrant@VKAK_Lightning_Create@@@@@8 DD FLAT:??_7type_info@@6B@ ; ScriptRegistrant<KAK_Lightning_Create> `RTTI Type Descriptor'
	DD	00H
	DB	'.?AV?$ScriptRegistrant@VKAK_Lightning_Create@@@@', 00H
_DATA	ENDS
;	COMDAT ??_R4?$ScriptRegistrant@VKAK_Lightning_Create@@@@6B@
rdata$r	SEGMENT
??_R4?$ScriptRegistrant@VKAK_Lightning_Create@@@@6B@ DD 00H ; ScriptRegistrant<KAK_Lightning_Create>::`RTTI Complete Object Locator'
	DD	00H
	DD	00H
	DD	FLAT:??_R0?AV?$ScriptRegistrant@VKAK_Lightning_Create@@@@@8
	DD	FLAT:??_R3?$ScriptRegistrant@VKAK_Lightning_Create@@@@8
rdata$r	ENDS
;	COMDAT ??_R1A@?0A@EA@?$ScriptRegistrant@VKAK_Clouds_Zone@@@@8
rdata$r	SEGMENT
??_R1A@?0A@EA@?$ScriptRegistrant@VKAK_Clouds_Zone@@@@8 DD FLAT:??_R0?AV?$ScriptRegistrant@VKAK_Clouds_Zone@@@@@8 ; ScriptRegistrant<KAK_Clouds_Zone>::`RTTI Base Class Descriptor at (0,-1,0,64)'
	DD	01H
	DD	00H
	DD	0ffffffffH
	DD	00H
	DD	040H
	DD	FLAT:??_R3?$ScriptRegistrant@VKAK_Clouds_Zone@@@@8
rdata$r	ENDS
;	COMDAT ??_R2?$ScriptRegistrant@VKAK_Clouds_Zone@@@@8
rdata$r	SEGMENT
??_R2?$ScriptRegistrant@VKAK_Clouds_Zone@@@@8 DD FLAT:??_R1A@?0A@EA@?$ScriptRegistrant@VKAK_Clouds_Zone@@@@8 ; ScriptRegistrant<KAK_Clouds_Zone>::`RTTI Base Class Array'
	DD	FLAT:??_R1A@?0A@EA@ScriptFactory@@8
rdata$r	ENDS
;	COMDAT ??_R3?$ScriptRegistrant@VKAK_Clouds_Zone@@@@8
rdata$r	SEGMENT
??_R3?$ScriptRegistrant@VKAK_Clouds_Zone@@@@8 DD 00H	; ScriptRegistrant<KAK_Clouds_Zone>::`RTTI Class Hierarchy Descriptor'
	DD	00H
	DD	02H
	DD	FLAT:??_R2?$ScriptRegistrant@VKAK_Clouds_Zone@@@@8
rdata$r	ENDS
;	COMDAT ??_R0?AV?$ScriptRegistrant@VKAK_Clouds_Zone@@@@@8
_DATA	SEGMENT
??_R0?AV?$ScriptRegistrant@VKAK_Clouds_Zone@@@@@8 DD FLAT:??_7type_info@@6B@ ; ScriptRegistrant<KAK_Clouds_Zone> `RTTI Type Descriptor'
	DD	00H
	DB	'.?AV?$ScriptRegistrant@VKAK_Clouds_Zone@@@@', 00H
_DATA	ENDS
;	COMDAT ??_R4?$ScriptRegistrant@VKAK_Clouds_Zone@@@@6B@
rdata$r	SEGMENT
??_R4?$ScriptRegistrant@VKAK_Clouds_Zone@@@@6B@ DD 00H	; ScriptRegistrant<KAK_Clouds_Zone>::`RTTI Complete Object Locator'
	DD	00H
	DD	00H
	DD	FLAT:??_R0?AV?$ScriptRegistrant@VKAK_Clouds_Zone@@@@@8
	DD	FLAT:??_R3?$ScriptRegistrant@VKAK_Clouds_Zone@@@@8
rdata$r	ENDS
;	COMDAT ??_R1A@?0A@EA@?$ScriptRegistrant@VKAK_Clouds_Create@@@@8
rdata$r	SEGMENT
??_R1A@?0A@EA@?$ScriptRegistrant@VKAK_Clouds_Create@@@@8 DD FLAT:??_R0?AV?$ScriptRegistrant@VKAK_Clouds_Create@@@@@8 ; ScriptRegistrant<KAK_Clouds_Create>::`RTTI Base Class Descriptor at (0,-1,0,64)'
	DD	01H
	DD	00H
	DD	0ffffffffH
	DD	00H
	DD	040H
	DD	FLAT:??_R3?$ScriptRegistrant@VKAK_Clouds_Create@@@@8
rdata$r	ENDS
;	COMDAT ??_R2?$ScriptRegistrant@VKAK_Clouds_Create@@@@8
rdata$r	SEGMENT
??_R2?$ScriptRegistrant@VKAK_Clouds_Create@@@@8 DD FLAT:??_R1A@?0A@EA@?$ScriptRegistrant@VKAK_Clouds_Create@@@@8 ; ScriptRegistrant<KAK_Clouds_Create>::`RTTI Base Class Array'
	DD	FLAT:??_R1A@?0A@EA@ScriptFactory@@8
rdata$r	ENDS
;	COMDAT ??_R3?$ScriptRegistrant@VKAK_Clouds_Create@@@@8
rdata$r	SEGMENT
??_R3?$ScriptRegistrant@VKAK_Clouds_Create@@@@8 DD 00H	; ScriptRegistrant<KAK_Clouds_Create>::`RTTI Class Hierarchy Descriptor'
	DD	00H
	DD	02H
	DD	FLAT:??_R2?$ScriptRegistrant@VKAK_Clouds_Create@@@@8
rdata$r	ENDS
;	COMDAT ??_R0?AV?$ScriptRegistrant@VKAK_Clouds_Create@@@@@8
_DATA	SEGMENT
??_R0?AV?$ScriptRegistrant@VKAK_Clouds_Create@@@@@8 DD FLAT:??_7type_info@@6B@ ; ScriptRegistrant<KAK_Clouds_Create> `RTTI Type Descriptor'
	DD	00H
	DB	'.?AV?$ScriptRegistrant@VKAK_Clouds_Create@@@@', 00H
_DATA	ENDS
;	COMDAT ??_R4?$ScriptRegistrant@VKAK_Clouds_Create@@@@6B@
rdata$r	SEGMENT
??_R4?$ScriptRegistrant@VKAK_Clouds_Create@@@@6B@ DD 00H ; ScriptRegistrant<KAK_Clouds_Create>::`RTTI Complete Object Locator'
	DD	00H
	DD	00H
	DD	FLAT:??_R0?AV?$ScriptRegistrant@VKAK_Clouds_Create@@@@@8
	DD	FLAT:??_R3?$ScriptRegistrant@VKAK_Clouds_Create@@@@8
rdata$r	ENDS
;	COMDAT ??_R1A@?0A@EA@?$ScriptRegistrant@VKAK_Wind_Zone@@@@8
rdata$r	SEGMENT
??_R1A@?0A@EA@?$ScriptRegistrant@VKAK_Wind_Zone@@@@8 DD FLAT:??_R0?AV?$ScriptRegistrant@VKAK_Wind_Zone@@@@@8 ; ScriptRegistrant<KAK_Wind_Zone>::`RTTI Base Class Descriptor at (0,-1,0,64)'
	DD	01H
	DD	00H
	DD	0ffffffffH
	DD	00H
	DD	040H
	DD	FLAT:??_R3?$ScriptRegistrant@VKAK_Wind_Zone@@@@8
rdata$r	ENDS
;	COMDAT ??_R2?$ScriptRegistrant@VKAK_Wind_Zone@@@@8
rdata$r	SEGMENT
??_R2?$ScriptRegistrant@VKAK_Wind_Zone@@@@8 DD FLAT:??_R1A@?0A@EA@?$ScriptRegistrant@VKAK_Wind_Zone@@@@8 ; ScriptRegistrant<KAK_Wind_Zone>::`RTTI Base Class Array'
	DD	FLAT:??_R1A@?0A@EA@ScriptFactory@@8
rdata$r	ENDS
;	COMDAT ??_R3?$ScriptRegistrant@VKAK_Wind_Zone@@@@8
rdata$r	SEGMENT
??_R3?$ScriptRegistrant@VKAK_Wind_Zone@@@@8 DD 00H	; ScriptRegistrant<KAK_Wind_Zone>::`RTTI Class Hierarchy Descriptor'
	DD	00H
	DD	02H
	DD	FLAT:??_R2?$ScriptRegistrant@VKAK_Wind_Zone@@@@8
rdata$r	ENDS
;	COMDAT ??_R0?AV?$ScriptRegistrant@VKAK_Wind_Zone@@@@@8
_DATA	SEGMENT
??_R0?AV?$ScriptRegistrant@VKAK_Wind_Zone@@@@@8 DD FLAT:??_7type_info@@6B@ ; ScriptRegistrant<KAK_Wind_Zone> `RTTI Type Descriptor'
	DD	00H
	DB	'.?AV?$ScriptRegistrant@VKAK_Wind_Zone@@@@', 00H
_DATA	ENDS
;	COMDAT ??_R4?$ScriptRegistrant@VKAK_Wind_Zone@@@@6B@
rdata$r	SEGMENT
??_R4?$ScriptRegistrant@VKAK_Wind_Zone@@@@6B@ DD 00H	; ScriptRegistrant<KAK_Wind_Zone>::`RTTI Complete Object Locator'
	DD	00H
	DD	00H
	DD	FLAT:??_R0?AV?$ScriptRegistrant@VKAK_Wind_Zone@@@@@8
	DD	FLAT:??_R3?$ScriptRegistrant@VKAK_Wind_Zone@@@@8
rdata$r	ENDS
;	COMDAT ??_R1A@?0A@EA@?$ScriptRegistrant@VKAK_Wind_Create@@@@8
rdata$r	SEGMENT
??_R1A@?0A@EA@?$ScriptRegistrant@VKAK_Wind_Create@@@@8 DD FLAT:??_R0?AV?$ScriptRegistrant@VKAK_Wind_Create@@@@@8 ; ScriptRegistrant<KAK_Wind_Create>::`RTTI Base Class Descriptor at (0,-1,0,64)'
	DD	01H
	DD	00H
	DD	0ffffffffH
	DD	00H
	DD	040H
	DD	FLAT:??_R3?$ScriptRegistrant@VKAK_Wind_Create@@@@8
rdata$r	ENDS
;	COMDAT ??_R2?$ScriptRegistrant@VKAK_Wind_Create@@@@8
rdata$r	SEGMENT
??_R2?$ScriptRegistrant@VKAK_Wind_Create@@@@8 DD FLAT:??_R1A@?0A@EA@?$ScriptRegistrant@VKAK_Wind_Create@@@@8 ; ScriptRegistrant<KAK_Wind_Create>::`RTTI Base Class Array'
	DD	FLAT:??_R1A@?0A@EA@ScriptFactory@@8
rdata$r	ENDS
;	COMDAT ??_R3?$ScriptRegistrant@VKAK_Wind_Create@@@@8
rdata$r	SEGMENT
??_R3?$ScriptRegistrant@VKAK_Wind_Create@@@@8 DD 00H	; ScriptRegistrant<KAK_Wind_Create>::`RTTI Class Hierarchy Descriptor'
	DD	00H
	DD	02H
	DD	FLAT:??_R2?$ScriptRegistrant@VKAK_Wind_Create@@@@8
rdata$r	ENDS
;	COMDAT ??_R0?AV?$ScriptRegistrant@VKAK_Wind_Create@@@@@8
_DATA	SEGMENT
??_R0?AV?$ScriptRegistrant@VKAK_Wind_Create@@@@@8 DD FLAT:??_7type_info@@6B@ ; ScriptRegistrant<KAK_Wind_Create> `RTTI Type Descriptor'
	DD	00H
	DB	'.?AV?$ScriptRegistrant@VKAK_Wind_Create@@@@', 00H
_DATA	ENDS
;	COMDAT ??_R4?$ScriptRegistrant@VKAK_Wind_Create@@@@6B@
rdata$r	SEGMENT
??_R4?$ScriptRegistrant@VKAK_Wind_Create@@@@6B@ DD 00H	; ScriptRegistrant<KAK_Wind_Create>::`RTTI Complete Object Locator'
	DD	00H
	DD	00H
	DD	FLAT:??_R0?AV?$ScriptRegistrant@VKAK_Wind_Create@@@@@8
	DD	FLAT:??_R3?$ScriptRegistrant@VKAK_Wind_Create@@@@8
rdata$r	ENDS
;	COMDAT ??_R1A@?0A@EA@?$ScriptRegistrant@VKAK_Precipitation_Zone@@@@8
rdata$r	SEGMENT
??_R1A@?0A@EA@?$ScriptRegistrant@VKAK_Precipitation_Zone@@@@8 DD FLAT:??_R0?AV?$ScriptRegistrant@VKAK_Precipitation_Zone@@@@@8 ; ScriptRegistrant<KAK_Precipitation_Zone>::`RTTI Base Class Descriptor at (0,-1,0,64)'
	DD	01H
	DD	00H
	DD	0ffffffffH
	DD	00H
	DD	040H
	DD	FLAT:??_R3?$ScriptRegistrant@VKAK_Precipitation_Zone@@@@8
rdata$r	ENDS
;	COMDAT ??_R2?$ScriptRegistrant@VKAK_Precipitation_Zone@@@@8
rdata$r	SEGMENT
??_R2?$ScriptRegistrant@VKAK_Precipitation_Zone@@@@8 DD FLAT:??_R1A@?0A@EA@?$ScriptRegistrant@VKAK_Precipitation_Zone@@@@8 ; ScriptRegistrant<KAK_Precipitation_Zone>::`RTTI Base Class Array'
	DD	FLAT:??_R1A@?0A@EA@ScriptFactory@@8
rdata$r	ENDS
;	COMDAT ??_R3?$ScriptRegistrant@VKAK_Precipitation_Zone@@@@8
rdata$r	SEGMENT
??_R3?$ScriptRegistrant@VKAK_Precipitation_Zone@@@@8 DD 00H ; ScriptRegistrant<KAK_Precipitation_Zone>::`RTTI Class Hierarchy Descriptor'
	DD	00H
	DD	02H
	DD	FLAT:??_R2?$ScriptRegistrant@VKAK_Precipitation_Zone@@@@8
rdata$r	ENDS
;	COMDAT ??_R0?AV?$ScriptRegistrant@VKAK_Precipitation_Zone@@@@@8
_DATA	SEGMENT
??_R0?AV?$ScriptRegistrant@VKAK_Precipitation_Zone@@@@@8 DD FLAT:??_7type_info@@6B@ ; ScriptRegistrant<KAK_Precipitation_Zone> `RTTI Type Descriptor'
	DD	00H
	DB	'.?AV?$ScriptRegistrant@VKAK_Precipitation_Zone@@@@', 00H
_DATA	ENDS
;	COMDAT ??_R4?$ScriptRegistrant@VKAK_Precipitation_Zone@@@@6B@
rdata$r	SEGMENT
??_R4?$ScriptRegistrant@VKAK_Precipitation_Zone@@@@6B@ DD 00H ; ScriptRegistrant<KAK_Precipitation_Zone>::`RTTI Complete Object Locator'
	DD	00H
	DD	00H
	DD	FLAT:??_R0?AV?$ScriptRegistrant@VKAK_Precipitation_Zone@@@@@8
	DD	FLAT:??_R3?$ScriptRegistrant@VKAK_Precipitation_Zone@@@@8
rdata$r	ENDS
;	COMDAT ??_R1A@?0A@EA@?$ScriptRegistrant@VKAK_Precipitation_Create@@@@8
rdata$r	SEGMENT
??_R1A@?0A@EA@?$ScriptRegistrant@VKAK_Precipitation_Create@@@@8 DD FLAT:??_R0?AV?$ScriptRegistrant@VKAK_Precipitation_Create@@@@@8 ; ScriptRegistrant<KAK_Precipitation_Create>::`RTTI Base Class Descriptor at (0,-1,0,64)'
	DD	01H
	DD	00H
	DD	0ffffffffH
	DD	00H
	DD	040H
	DD	FLAT:??_R3?$ScriptRegistrant@VKAK_Precipitation_Create@@@@8
rdata$r	ENDS
;	COMDAT ??_R2?$ScriptRegistrant@VKAK_Precipitation_Create@@@@8
rdata$r	SEGMENT
??_R2?$ScriptRegistrant@VKAK_Precipitation_Create@@@@8 DD FLAT:??_R1A@?0A@EA@?$ScriptRegistrant@VKAK_Precipitation_Create@@@@8 ; ScriptRegistrant<KAK_Precipitation_Create>::`RTTI Base Class Array'
	DD	FLAT:??_R1A@?0A@EA@ScriptFactory@@8
rdata$r	ENDS
;	COMDAT ??_R3?$ScriptRegistrant@VKAK_Precipitation_Create@@@@8
rdata$r	SEGMENT
??_R3?$ScriptRegistrant@VKAK_Precipitation_Create@@@@8 DD 00H ; ScriptRegistrant<KAK_Precipitation_Create>::`RTTI Class Hierarchy Descriptor'
	DD	00H
	DD	02H
	DD	FLAT:??_R2?$ScriptRegistrant@VKAK_Precipitation_Create@@@@8
rdata$r	ENDS
;	COMDAT ??_R0?AV?$ScriptRegistrant@VKAK_Precipitation_Create@@@@@8
_DATA	SEGMENT
??_R0?AV?$ScriptRegistrant@VKAK_Precipitation_Create@@@@@8 DD FLAT:??_7type_info@@6B@ ; ScriptRegistrant<KAK_Precipitation_Create> `RTTI Type Descriptor'
	DD	00H
	DB	'.?AV?$ScriptRegistrant@VKAK_Precipitation_Create@@@@', 00H
_DATA	ENDS
;	COMDAT ??_R4?$ScriptRegistrant@VKAK_Precipitation_Create@@@@6B@
rdata$r	SEGMENT
??_R4?$ScriptRegistrant@VKAK_Precipitation_Create@@@@6B@ DD 00H ; ScriptRegistrant<KAK_Precipitation_Create>::`RTTI Complete Object Locator'
	DD	00H
	DD	00H
	DD	FLAT:??_R0?AV?$ScriptRegistrant@VKAK_Precipitation_Create@@@@@8
	DD	FLAT:??_R3?$ScriptRegistrant@VKAK_Precipitation_Create@@@@8
rdata$r	ENDS
;	COMDAT ??_R1A@?0A@EA@?$ScriptRegistrant@VKAK_Warp_On_Pickup@@@@8
rdata$r	SEGMENT
??_R1A@?0A@EA@?$ScriptRegistrant@VKAK_Warp_On_Pickup@@@@8 DD FLAT:??_R0?AV?$ScriptRegistrant@VKAK_Warp_On_Pickup@@@@@8 ; ScriptRegistrant<KAK_Warp_On_Pickup>::`RTTI Base Class Descriptor at (0,-1,0,64)'
	DD	01H
	DD	00H
	DD	0ffffffffH
	DD	00H
	DD	040H
	DD	FLAT:??_R3?$ScriptRegistrant@VKAK_Warp_On_Pickup@@@@8
rdata$r	ENDS
;	COMDAT ??_R2?$ScriptRegistrant@VKAK_Warp_On_Pickup@@@@8
rdata$r	SEGMENT
??_R2?$ScriptRegistrant@VKAK_Warp_On_Pickup@@@@8 DD FLAT:??_R1A@?0A@EA@?$ScriptRegistrant@VKAK_Warp_On_Pickup@@@@8 ; ScriptRegistrant<KAK_Warp_On_Pickup>::`RTTI Base Class Array'
	DD	FLAT:??_R1A@?0A@EA@ScriptFactory@@8
rdata$r	ENDS
;	COMDAT ??_R3?$ScriptRegistrant@VKAK_Warp_On_Pickup@@@@8
rdata$r	SEGMENT
??_R3?$ScriptRegistrant@VKAK_Warp_On_Pickup@@@@8 DD 00H	; ScriptRegistrant<KAK_Warp_On_Pickup>::`RTTI Class Hierarchy Descriptor'
	DD	00H
	DD	02H
	DD	FLAT:??_R2?$ScriptRegistrant@VKAK_Warp_On_Pickup@@@@8
rdata$r	ENDS
;	COMDAT ??_R0?AV?$ScriptRegistrant@VKAK_Warp_On_Pickup@@@@@8
_DATA	SEGMENT
??_R0?AV?$ScriptRegistrant@VKAK_Warp_On_Pickup@@@@@8 DD FLAT:??_7type_info@@6B@ ; ScriptRegistrant<KAK_Warp_On_Pickup> `RTTI Type Descriptor'
	DD	00H
	DB	'.?AV?$ScriptRegistrant@VKAK_Warp_On_Pickup@@@@', 00H
_DATA	ENDS
;	COMDAT ??_R4?$ScriptRegistrant@VKAK_Warp_On_Pickup@@@@6B@
rdata$r	SEGMENT
??_R4?$ScriptRegistrant@VKAK_Warp_On_Pickup@@@@6B@ DD 00H ; ScriptRegistrant<KAK_Warp_On_Pickup>::`RTTI Complete Object Locator'
	DD	00H
	DD	00H
	DD	FLAT:??_R0?AV?$ScriptRegistrant@VKAK_Warp_On_Pickup@@@@@8
	DD	FLAT:??_R3?$ScriptRegistrant@VKAK_Warp_On_Pickup@@@@8
rdata$r	ENDS
;	COMDAT ??_R1A@?0A@EA@KAK_Regen_Custom@@8
rdata$r	SEGMENT
??_R1A@?0A@EA@KAK_Regen_Custom@@8 DD FLAT:??_R0?AVKAK_Regen_Custom@@@8 ; KAK_Regen_Custom::`RTTI Base Class Descriptor at (0,-1,0,64)'
	DD	03H
	DD	00H
	DD	0ffffffffH
	DD	00H
	DD	040H
	DD	FLAT:??_R3KAK_Regen_Custom@@8
rdata$r	ENDS
;	COMDAT ??_R2KAK_Regen_Custom@@8
rdata$r	SEGMENT
??_R2KAK_Regen_Custom@@8 DD FLAT:??_R1A@?0A@EA@KAK_Regen_Custom@@8 ; KAK_Regen_Custom::`RTTI Base Class Array'
	DD	FLAT:??_R1A@?0A@EA@ScriptImpClass@@8
	DD	FLAT:??_R1A@?0A@EA@ScriptClass@@8
	DD	FLAT:??_R1A@?0A@EA@GameObjObserverClass@@8
rdata$r	ENDS
;	COMDAT ??_R3KAK_Regen_Custom@@8
rdata$r	SEGMENT
??_R3KAK_Regen_Custom@@8 DD 00H				; KAK_Regen_Custom::`RTTI Class Hierarchy Descriptor'
	DD	00H
	DD	04H
	DD	FLAT:??_R2KAK_Regen_Custom@@8
rdata$r	ENDS
;	COMDAT ??_R0?AVKAK_Regen_Custom@@@8
_DATA	SEGMENT
??_R0?AVKAK_Regen_Custom@@@8 DD FLAT:??_7type_info@@6B@	; KAK_Regen_Custom `RTTI Type Descriptor'
	DD	00H
	DB	'.?AVKAK_Regen_Custom@@', 00H
_DATA	ENDS
;	COMDAT ??_R4KAK_Regen_Custom@@6B@
rdata$r	SEGMENT
??_R4KAK_Regen_Custom@@6B@ DD 00H			; KAK_Regen_Custom::`RTTI Complete Object Locator'
	DD	00H
	DD	00H
	DD	FLAT:??_R0?AVKAK_Regen_Custom@@@8
	DD	FLAT:??_R3KAK_Regen_Custom@@8
rdata$r	ENDS
;	COMDAT ??_R1A@?0A@EA@KAK_Freeze_Object@@8
rdata$r	SEGMENT
??_R1A@?0A@EA@KAK_Freeze_Object@@8 DD FLAT:??_R0?AVKAK_Freeze_Object@@@8 ; KAK_Freeze_Object::`RTTI Base Class Descriptor at (0,-1,0,64)'
	DD	03H
	DD	00H
	DD	0ffffffffH
	DD	00H
	DD	040H
	DD	FLAT:??_R3KAK_Freeze_Object@@8
rdata$r	ENDS
;	COMDAT ??_R2KAK_Freeze_Object@@8
rdata$r	SEGMENT
??_R2KAK_Freeze_Object@@8 DD FLAT:??_R1A@?0A@EA@KAK_Freeze_Object@@8 ; KAK_Freeze_Object::`RTTI Base Class Array'
	DD	FLAT:??_R1A@?0A@EA@ScriptImpClass@@8
	DD	FLAT:??_R1A@?0A@EA@ScriptClass@@8
	DD	FLAT:??_R1A@?0A@EA@GameObjObserverClass@@8
rdata$r	ENDS
;	COMDAT ??_R3KAK_Freeze_Object@@8
rdata$r	SEGMENT
??_R3KAK_Freeze_Object@@8 DD 00H			; KAK_Freeze_Object::`RTTI Class Hierarchy Descriptor'
	DD	00H
	DD	04H
	DD	FLAT:??_R2KAK_Freeze_Object@@8
rdata$r	ENDS
;	COMDAT ??_R0?AVKAK_Freeze_Object@@@8
_DATA	SEGMENT
??_R0?AVKAK_Freeze_Object@@@8 DD FLAT:??_7type_info@@6B@ ; KAK_Freeze_Object `RTTI Type Descriptor'
	DD	00H
	DB	'.?AVKAK_Freeze_Object@@', 00H
_DATA	ENDS
;	COMDAT ??_R4KAK_Freeze_Object@@6B@
rdata$r	SEGMENT
??_R4KAK_Freeze_Object@@6B@ DD 00H			; KAK_Freeze_Object::`RTTI Complete Object Locator'
	DD	00H
	DD	00H
	DD	FLAT:??_R0?AVKAK_Freeze_Object@@@8
	DD	FLAT:??_R3KAK_Freeze_Object@@8
rdata$r	ENDS
;	COMDAT ??_R1A@?0A@EA@KAK_Convert_Visceroid@@8
rdata$r	SEGMENT
??_R1A@?0A@EA@KAK_Convert_Visceroid@@8 DD FLAT:??_R0?AVKAK_Convert_Visceroid@@@8 ; KAK_Convert_Visceroid::`RTTI Base Class Descriptor at (0,-1,0,64)'
	DD	03H
	DD	00H
	DD	0ffffffffH
	DD	00H
	DD	040H
	DD	FLAT:??_R3KAK_Convert_Visceroid@@8
rdata$r	ENDS
;	COMDAT ??_R2KAK_Convert_Visceroid@@8
rdata$r	SEGMENT
??_R2KAK_Convert_Visceroid@@8 DD FLAT:??_R1A@?0A@EA@KAK_Convert_Visceroid@@8 ; KAK_Convert_Visceroid::`RTTI Base Class Array'
	DD	FLAT:??_R1A@?0A@EA@ScriptImpClass@@8
	DD	FLAT:??_R1A@?0A@EA@ScriptClass@@8
	DD	FLAT:??_R1A@?0A@EA@GameObjObserverClass@@8
rdata$r	ENDS
;	COMDAT ??_R3KAK_Convert_Visceroid@@8
rdata$r	SEGMENT
??_R3KAK_Convert_Visceroid@@8 DD 00H			; KAK_Convert_Visceroid::`RTTI Class Hierarchy Descriptor'
	DD	00H
	DD	04H
	DD	FLAT:??_R2KAK_Convert_Visceroid@@8
rdata$r	ENDS
;	COMDAT ??_R0?AVKAK_Convert_Visceroid@@@8
_DATA	SEGMENT
??_R0?AVKAK_Convert_Visceroid@@@8 DD FLAT:??_7type_info@@6B@ ; KAK_Convert_Visceroid `RTTI Type Descriptor'
	DD	00H
	DB	'.?AVKAK_Convert_Visceroid@@', 00H
_DATA	ENDS
;	COMDAT ??_R4KAK_Convert_Visceroid@@6B@
rdata$r	SEGMENT
??_R4KAK_Convert_Visceroid@@6B@ DD 00H			; KAK_Convert_Visceroid::`RTTI Complete Object Locator'
	DD	00H
	DD	00H
	DD	FLAT:??_R0?AVKAK_Convert_Visceroid@@@8
	DD	FLAT:??_R3KAK_Convert_Visceroid@@8
rdata$r	ENDS
;	COMDAT ??_R1A@?0A@EA@KAK_Prevent_Kill@@8
rdata$r	SEGMENT
??_R1A@?0A@EA@KAK_Prevent_Kill@@8 DD FLAT:??_R0?AVKAK_Prevent_Kill@@@8 ; KAK_Prevent_Kill::`RTTI Base Class Descriptor at (0,-1,0,64)'
	DD	03H
	DD	00H
	DD	0ffffffffH
	DD	00H
	DD	040H
	DD	FLAT:??_R3KAK_Prevent_Kill@@8
rdata$r	ENDS
;	COMDAT ??_R2KAK_Prevent_Kill@@8
rdata$r	SEGMENT
??_R2KAK_Prevent_Kill@@8 DD FLAT:??_R1A@?0A@EA@KAK_Prevent_Kill@@8 ; KAK_Prevent_Kill::`RTTI Base Class Array'
	DD	FLAT:??_R1A@?0A@EA@ScriptImpClass@@8
	DD	FLAT:??_R1A@?0A@EA@ScriptClass@@8
	DD	FLAT:??_R1A@?0A@EA@GameObjObserverClass@@8
rdata$r	ENDS
;	COMDAT ??_R3KAK_Prevent_Kill@@8
rdata$r	SEGMENT
??_R3KAK_Prevent_Kill@@8 DD 00H				; KAK_Prevent_Kill::`RTTI Class Hierarchy Descriptor'
	DD	00H
	DD	04H
	DD	FLAT:??_R2KAK_Prevent_Kill@@8
rdata$r	ENDS
;	COMDAT ??_R0?AVKAK_Prevent_Kill@@@8
_DATA	SEGMENT
??_R0?AVKAK_Prevent_Kill@@@8 DD FLAT:??_7type_info@@6B@	; KAK_Prevent_Kill `RTTI Type Descriptor'
	DD	00H
	DB	'.?AVKAK_Prevent_Kill@@', 00H
_DATA	ENDS
;	COMDAT ??_R4KAK_Prevent_Kill@@6B@
rdata$r	SEGMENT
??_R4KAK_Prevent_Kill@@6B@ DD 00H			; KAK_Prevent_Kill::`RTTI Complete Object Locator'
	DD	00H
	DD	00H
	DD	FLAT:??_R0?AVKAK_Prevent_Kill@@@8
	DD	FLAT:??_R3KAK_Prevent_Kill@@8
rdata$r	ENDS
;	COMDAT ??_R1A@?0A@EA@KAK_Harvester_Attached@@8
rdata$r	SEGMENT
??_R1A@?0A@EA@KAK_Harvester_Attached@@8 DD FLAT:??_R0?AVKAK_Harvester_Attached@@@8 ; KAK_Harvester_Attached::`RTTI Base Class Descriptor at (0,-1,0,64)'
	DD	03H
	DD	00H
	DD	0ffffffffH
	DD	00H
	DD	040H
	DD	FLAT:??_R3KAK_Harvester_Attached@@8
rdata$r	ENDS
;	COMDAT ??_R2KAK_Harvester_Attached@@8
rdata$r	SEGMENT
??_R2KAK_Harvester_Attached@@8 DD FLAT:??_R1A@?0A@EA@KAK_Harvester_Attached@@8 ; KAK_Harvester_Attached::`RTTI Base Class Array'
	DD	FLAT:??_R1A@?0A@EA@ScriptImpClass@@8
	DD	FLAT:??_R1A@?0A@EA@ScriptClass@@8
	DD	FLAT:??_R1A@?0A@EA@GameObjObserverClass@@8
rdata$r	ENDS
;	COMDAT ??_R3KAK_Harvester_Attached@@8
rdata$r	SEGMENT
??_R3KAK_Harvester_Attached@@8 DD 00H			; KAK_Harvester_Attached::`RTTI Class Hierarchy Descriptor'
	DD	00H
	DD	04H
	DD	FLAT:??_R2KAK_Harvester_Attached@@8
rdata$r	ENDS
;	COMDAT ??_R0?AVKAK_Harvester_Attached@@@8
_DATA	SEGMENT
??_R0?AVKAK_Harvester_Attached@@@8 DD FLAT:??_7type_info@@6B@ ; KAK_Harvester_Attached `RTTI Type Descriptor'
	DD	00H
	DB	'.?AVKAK_Harvester_Attached@@', 00H
_DATA	ENDS
;	COMDAT ??_R4KAK_Harvester_Attached@@6B@
rdata$r	SEGMENT
??_R4KAK_Harvester_Attached@@6B@ DD 00H			; KAK_Harvester_Attached::`RTTI Complete Object Locator'
	DD	00H
	DD	00H
	DD	FLAT:??_R0?AVKAK_Harvester_Attached@@@8
	DD	FLAT:??_R3KAK_Harvester_Attached@@8
rdata$r	ENDS
;	COMDAT ??_R1A@?0A@EA@KAK_Harvester_Spawn_Kill@@8
rdata$r	SEGMENT
??_R1A@?0A@EA@KAK_Harvester_Spawn_Kill@@8 DD FLAT:??_R0?AVKAK_Harvester_Spawn_Kill@@@8 ; KAK_Harvester_Spawn_Kill::`RTTI Base Class Descriptor at (0,-1,0,64)'
	DD	03H
	DD	00H
	DD	0ffffffffH
	DD	00H
	DD	040H
	DD	FLAT:??_R3KAK_Harvester_Spawn_Kill@@8
rdata$r	ENDS
;	COMDAT ??_R2KAK_Harvester_Spawn_Kill@@8
rdata$r	SEGMENT
??_R2KAK_Harvester_Spawn_Kill@@8 DD FLAT:??_R1A@?0A@EA@KAK_Harvester_Spawn_Kill@@8 ; KAK_Harvester_Spawn_Kill::`RTTI Base Class Array'
	DD	FLAT:??_R1A@?0A@EA@ScriptImpClass@@8
	DD	FLAT:??_R1A@?0A@EA@ScriptClass@@8
	DD	FLAT:??_R1A@?0A@EA@GameObjObserverClass@@8
rdata$r	ENDS
;	COMDAT ??_R3KAK_Harvester_Spawn_Kill@@8
rdata$r	SEGMENT
??_R3KAK_Harvester_Spawn_Kill@@8 DD 00H			; KAK_Harvester_Spawn_Kill::`RTTI Class Hierarchy Descriptor'
	DD	00H
	DD	04H
	DD	FLAT:??_R2KAK_Harvester_Spawn_Kill@@8
rdata$r	ENDS
;	COMDAT ??_R0?AVKAK_Harvester_Spawn_Kill@@@8
_DATA	SEGMENT
??_R0?AVKAK_Harvester_Spawn_Kill@@@8 DD FLAT:??_7type_info@@6B@ ; KAK_Harvester_Spawn_Kill `RTTI Type Descriptor'
	DD	00H
	DB	'.?AVKAK_Harvester_Spawn_Kill@@', 00H
_DATA	ENDS
;	COMDAT ??_R4KAK_Harvester_Spawn_Kill@@6B@
rdata$r	SEGMENT
??_R4KAK_Harvester_Spawn_Kill@@6B@ DD 00H		; KAK_Harvester_Spawn_Kill::`RTTI Complete Object Locator'
	DD	00H
	DD	00H
	DD	FLAT:??_R0?AVKAK_Harvester_Spawn_Kill@@@8
	DD	FLAT:??_R3KAK_Harvester_Spawn_Kill@@8
rdata$r	ENDS
;	COMDAT ??_R1A@?0A@EA@KAK_Harvester_Kill@@8
rdata$r	SEGMENT
??_R1A@?0A@EA@KAK_Harvester_Kill@@8 DD FLAT:??_R0?AVKAK_Harvester_Kill@@@8 ; KAK_Harvester_Kill::`RTTI Base Class Descriptor at (0,-1,0,64)'
	DD	03H
	DD	00H
	DD	0ffffffffH
	DD	00H
	DD	040H
	DD	FLAT:??_R3KAK_Harvester_Kill@@8
rdata$r	ENDS
;	COMDAT ??_R2KAK_Harvester_Kill@@8
rdata$r	SEGMENT
??_R2KAK_Harvester_Kill@@8 DD FLAT:??_R1A@?0A@EA@KAK_Harvester_Kill@@8 ; KAK_Harvester_Kill::`RTTI Base Class Array'
	DD	FLAT:??_R1A@?0A@EA@ScriptImpClass@@8
	DD	FLAT:??_R1A@?0A@EA@ScriptClass@@8
	DD	FLAT:??_R1A@?0A@EA@GameObjObserverClass@@8
rdata$r	ENDS
;	COMDAT ??_R3KAK_Harvester_Kill@@8
rdata$r	SEGMENT
??_R3KAK_Harvester_Kill@@8 DD 00H			; KAK_Harvester_Kill::`RTTI Class Hierarchy Descriptor'
	DD	00H
	DD	04H
	DD	FLAT:??_R2KAK_Harvester_Kill@@8
rdata$r	ENDS
;	COMDAT ??_R0?AVKAK_Harvester_Kill@@@8
_DATA	SEGMENT
??_R0?AVKAK_Harvester_Kill@@@8 DD FLAT:??_7type_info@@6B@ ; KAK_Harvester_Kill `RTTI Type Descriptor'
	DD	00H
	DB	'.?AVKAK_Harvester_Kill@@', 00H
_DATA	ENDS
;	COMDAT ??_R4KAK_Harvester_Kill@@6B@
rdata$r	SEGMENT
??_R4KAK_Harvester_Kill@@6B@ DD 00H			; KAK_Harvester_Kill::`RTTI Complete Object Locator'
	DD	00H
	DD	00H
	DD	FLAT:??_R0?AVKAK_Harvester_Kill@@@8
	DD	FLAT:??_R3KAK_Harvester_Kill@@8
rdata$r	ENDS
;	COMDAT ??_R1A@?0A@EA@KAK_Harvester_Logic@@8
rdata$r	SEGMENT
??_R1A@?0A@EA@KAK_Harvester_Logic@@8 DD FLAT:??_R0?AVKAK_Harvester_Logic@@@8 ; KAK_Harvester_Logic::`RTTI Base Class Descriptor at (0,-1,0,64)'
	DD	03H
	DD	00H
	DD	0ffffffffH
	DD	00H
	DD	040H
	DD	FLAT:??_R3KAK_Harvester_Logic@@8
rdata$r	ENDS
;	COMDAT ??_R2KAK_Harvester_Logic@@8
rdata$r	SEGMENT
??_R2KAK_Harvester_Logic@@8 DD FLAT:??_R1A@?0A@EA@KAK_Harvester_Logic@@8 ; KAK_Harvester_Logic::`RTTI Base Class Array'
	DD	FLAT:??_R1A@?0A@EA@ScriptImpClass@@8
	DD	FLAT:??_R1A@?0A@EA@ScriptClass@@8
	DD	FLAT:??_R1A@?0A@EA@GameObjObserverClass@@8
rdata$r	ENDS
;	COMDAT ??_R3KAK_Harvester_Logic@@8
rdata$r	SEGMENT
??_R3KAK_Harvester_Logic@@8 DD 00H			; KAK_Harvester_Logic::`RTTI Class Hierarchy Descriptor'
	DD	00H
	DD	04H
	DD	FLAT:??_R2KAK_Harvester_Logic@@8
rdata$r	ENDS
;	COMDAT ??_R0?AVKAK_Harvester_Logic@@@8
_DATA	SEGMENT
??_R0?AVKAK_Harvester_Logic@@@8 DD FLAT:??_7type_info@@6B@ ; KAK_Harvester_Logic `RTTI Type Descriptor'
	DD	00H
	DB	'.?AVKAK_Harvester_Logic@@', 00H
_DATA	ENDS
;	COMDAT ??_R4KAK_Harvester_Logic@@6B@
rdata$r	SEGMENT
??_R4KAK_Harvester_Logic@@6B@ DD 00H			; KAK_Harvester_Logic::`RTTI Complete Object Locator'
	DD	00H
	DD	00H
	DD	FLAT:??_R0?AVKAK_Harvester_Logic@@@8
	DD	FLAT:??_R3KAK_Harvester_Logic@@8
rdata$r	ENDS
;	COMDAT ??_R1A@?0A@EA@KAK_Select_Weapon_On_Pickup@@8
rdata$r	SEGMENT
??_R1A@?0A@EA@KAK_Select_Weapon_On_Pickup@@8 DD FLAT:??_R0?AVKAK_Select_Weapon_On_Pickup@@@8 ; KAK_Select_Weapon_On_Pickup::`RTTI Base Class Descriptor at (0,-1,0,64)'
	DD	03H
	DD	00H
	DD	0ffffffffH
	DD	00H
	DD	040H
	DD	FLAT:??_R3KAK_Select_Weapon_On_Pickup@@8
rdata$r	ENDS
;	COMDAT ??_R2KAK_Select_Weapon_On_Pickup@@8
rdata$r	SEGMENT
??_R2KAK_Select_Weapon_On_Pickup@@8 DD FLAT:??_R1A@?0A@EA@KAK_Select_Weapon_On_Pickup@@8 ; KAK_Select_Weapon_On_Pickup::`RTTI Base Class Array'
	DD	FLAT:??_R1A@?0A@EA@ScriptImpClass@@8
	DD	FLAT:??_R1A@?0A@EA@ScriptClass@@8
	DD	FLAT:??_R1A@?0A@EA@GameObjObserverClass@@8
rdata$r	ENDS
;	COMDAT ??_R3KAK_Select_Weapon_On_Pickup@@8
rdata$r	SEGMENT
??_R3KAK_Select_Weapon_On_Pickup@@8 DD 00H		; KAK_Select_Weapon_On_Pickup::`RTTI Class Hierarchy Descriptor'
	DD	00H
	DD	04H
	DD	FLAT:??_R2KAK_Select_Weapon_On_Pickup@@8
rdata$r	ENDS
;	COMDAT ??_R0?AVKAK_Select_Weapon_On_Pickup@@@8
_DATA	SEGMENT
??_R0?AVKAK_Select_Weapon_On_Pickup@@@8 DD FLAT:??_7type_info@@6B@ ; KAK_Select_Weapon_On_Pickup `RTTI Type Descriptor'
	DD	00H
	DB	'.?AVKAK_Select_Weapon_On_Pickup@@', 00H
_DATA	ENDS
;	COMDAT ??_R4KAK_Select_Weapon_On_Pickup@@6B@
rdata$r	SEGMENT
??_R4KAK_Select_Weapon_On_Pickup@@6B@ DD 00H		; KAK_Select_Weapon_On_Pickup::`RTTI Complete Object Locator'
	DD	00H
	DD	00H
	DD	FLAT:??_R0?AVKAK_Select_Weapon_On_Pickup@@@8
	DD	FLAT:??_R3KAK_Select_Weapon_On_Pickup@@8
rdata$r	ENDS
;	COMDAT ??_R1A@?0A@EA@KAK_Select_Weapon_Zone@@8
rdata$r	SEGMENT
??_R1A@?0A@EA@KAK_Select_Weapon_Zone@@8 DD FLAT:??_R0?AVKAK_Select_Weapon_Zone@@@8 ; KAK_Select_Weapon_Zone::`RTTI Base Class Descriptor at (0,-1,0,64)'
	DD	03H
	DD	00H
	DD	0ffffffffH
	DD	00H
	DD	040H
	DD	FLAT:??_R3KAK_Select_Weapon_Zone@@8
rdata$r	ENDS
;	COMDAT ??_R2KAK_Select_Weapon_Zone@@8
rdata$r	SEGMENT
??_R2KAK_Select_Weapon_Zone@@8 DD FLAT:??_R1A@?0A@EA@KAK_Select_Weapon_Zone@@8 ; KAK_Select_Weapon_Zone::`RTTI Base Class Array'
	DD	FLAT:??_R1A@?0A@EA@ScriptImpClass@@8
	DD	FLAT:??_R1A@?0A@EA@ScriptClass@@8
	DD	FLAT:??_R1A@?0A@EA@GameObjObserverClass@@8
rdata$r	ENDS
;	COMDAT ??_R3KAK_Select_Weapon_Zone@@8
rdata$r	SEGMENT
??_R3KAK_Select_Weapon_Zone@@8 DD 00H			; KAK_Select_Weapon_Zone::`RTTI Class Hierarchy Descriptor'
	DD	00H
	DD	04H
	DD	FLAT:??_R2KAK_Select_Weapon_Zone@@8
rdata$r	ENDS
;	COMDAT ??_R0?AVKAK_Select_Weapon_Zone@@@8
_DATA	SEGMENT
??_R0?AVKAK_Select_Weapon_Zone@@@8 DD FLAT:??_7type_info@@6B@ ; KAK_Select_Weapon_Zone `RTTI Type Descriptor'
	DD	00H
	DB	'.?AVKAK_Select_Weapon_Zone@@', 00H
_DATA	ENDS
;	COMDAT ??_R4KAK_Select_Weapon_Zone@@6B@
rdata$r	SEGMENT
??_R4KAK_Select_Weapon_Zone@@6B@ DD 00H			; KAK_Select_Weapon_Zone::`RTTI Complete Object Locator'
	DD	00H
	DD	00H
	DD	FLAT:??_R0?AVKAK_Select_Weapon_Zone@@@8
	DD	FLAT:??_R3KAK_Select_Weapon_Zone@@8
rdata$r	ENDS
;	COMDAT ??_R1A@?0A@EA@KAK_Give_Powerup_On_Pickup@@8
rdata$r	SEGMENT
??_R1A@?0A@EA@KAK_Give_Powerup_On_Pickup@@8 DD FLAT:??_R0?AVKAK_Give_Powerup_On_Pickup@@@8 ; KAK_Give_Powerup_On_Pickup::`RTTI Base Class Descriptor at (0,-1,0,64)'
	DD	03H
	DD	00H
	DD	0ffffffffH
	DD	00H
	DD	040H
	DD	FLAT:??_R3KAK_Give_Powerup_On_Pickup@@8
rdata$r	ENDS
;	COMDAT ??_R2KAK_Give_Powerup_On_Pickup@@8
rdata$r	SEGMENT
??_R2KAK_Give_Powerup_On_Pickup@@8 DD FLAT:??_R1A@?0A@EA@KAK_Give_Powerup_On_Pickup@@8 ; KAK_Give_Powerup_On_Pickup::`RTTI Base Class Array'
	DD	FLAT:??_R1A@?0A@EA@ScriptImpClass@@8
	DD	FLAT:??_R1A@?0A@EA@ScriptClass@@8
	DD	FLAT:??_R1A@?0A@EA@GameObjObserverClass@@8
rdata$r	ENDS
;	COMDAT ??_R3KAK_Give_Powerup_On_Pickup@@8
rdata$r	SEGMENT
??_R3KAK_Give_Powerup_On_Pickup@@8 DD 00H		; KAK_Give_Powerup_On_Pickup::`RTTI Class Hierarchy Descriptor'
	DD	00H
	DD	04H
	DD	FLAT:??_R2KAK_Give_Powerup_On_Pickup@@8
rdata$r	ENDS
;	COMDAT ??_R0?AVKAK_Give_Powerup_On_Pickup@@@8
_DATA	SEGMENT
??_R0?AVKAK_Give_Powerup_On_Pickup@@@8 DD FLAT:??_7type_info@@6B@ ; KAK_Give_Powerup_On_Pickup `RTTI Type Descriptor'
	DD	00H
	DB	'.?AVKAK_Give_Powerup_On_Pickup@@', 00H
_DATA	ENDS
;	COMDAT ??_R4KAK_Give_Powerup_On_Pickup@@6B@
rdata$r	SEGMENT
??_R4KAK_Give_Powerup_On_Pickup@@6B@ DD 00H		; KAK_Give_Powerup_On_Pickup::`RTTI Complete Object Locator'
	DD	00H
	DD	00H
	DD	FLAT:??_R0?AVKAK_Give_Powerup_On_Pickup@@@8
	DD	FLAT:??_R3KAK_Give_Powerup_On_Pickup@@8
rdata$r	ENDS
;	COMDAT ??_R1A@?0A@EA@KAK_Flowing_Weather@@8
rdata$r	SEGMENT
??_R1A@?0A@EA@KAK_Flowing_Weather@@8 DD FLAT:??_R0?AVKAK_Flowing_Weather@@@8 ; KAK_Flowing_Weather::`RTTI Base Class Descriptor at (0,-1,0,64)'
	DD	03H
	DD	00H
	DD	0ffffffffH
	DD	00H
	DD	040H
	DD	FLAT:??_R3KAK_Flowing_Weather@@8
rdata$r	ENDS
;	COMDAT ??_R2KAK_Flowing_Weather@@8
rdata$r	SEGMENT
??_R2KAK_Flowing_Weather@@8 DD FLAT:??_R1A@?0A@EA@KAK_Flowing_Weather@@8 ; KAK_Flowing_Weather::`RTTI Base Class Array'
	DD	FLAT:??_R1A@?0A@EA@ScriptImpClass@@8
	DD	FLAT:??_R1A@?0A@EA@ScriptClass@@8
	DD	FLAT:??_R1A@?0A@EA@GameObjObserverClass@@8
rdata$r	ENDS
;	COMDAT ??_R3KAK_Flowing_Weather@@8
rdata$r	SEGMENT
??_R3KAK_Flowing_Weather@@8 DD 00H			; KAK_Flowing_Weather::`RTTI Class Hierarchy Descriptor'
	DD	00H
	DD	04H
	DD	FLAT:??_R2KAK_Flowing_Weather@@8
rdata$r	ENDS
;	COMDAT ??_R0?AVKAK_Flowing_Weather@@@8
_DATA	SEGMENT
??_R0?AVKAK_Flowing_Weather@@@8 DD FLAT:??_7type_info@@6B@ ; KAK_Flowing_Weather `RTTI Type Descriptor'
	DD	00H
	DB	'.?AVKAK_Flowing_Weather@@', 00H
_DATA	ENDS
;	COMDAT ??_R4KAK_Flowing_Weather@@6B@
rdata$r	SEGMENT
??_R4KAK_Flowing_Weather@@6B@ DD 00H			; KAK_Flowing_Weather::`RTTI Complete Object Locator'
	DD	00H
	DD	00H
	DD	FLAT:??_R0?AVKAK_Flowing_Weather@@@8
	DD	FLAT:??_R3KAK_Flowing_Weather@@8
rdata$r	ENDS
;	COMDAT ??_R1A@?0A@EA@KAK_Lightning_Zone@@8
rdata$r	SEGMENT
??_R1A@?0A@EA@KAK_Lightning_Zone@@8 DD FLAT:??_R0?AVKAK_Lightning_Zone@@@8 ; KAK_Lightning_Zone::`RTTI Base Class Descriptor at (0,-1,0,64)'
	DD	03H
	DD	00H
	DD	0ffffffffH
	DD	00H
	DD	040H
	DD	FLAT:??_R3KAK_Lightning_Zone@@8
rdata$r	ENDS
;	COMDAT ??_R2KAK_Lightning_Zone@@8
rdata$r	SEGMENT
??_R2KAK_Lightning_Zone@@8 DD FLAT:??_R1A@?0A@EA@KAK_Lightning_Zone@@8 ; KAK_Lightning_Zone::`RTTI Base Class Array'
	DD	FLAT:??_R1A@?0A@EA@ScriptImpClass@@8
	DD	FLAT:??_R1A@?0A@EA@ScriptClass@@8
	DD	FLAT:??_R1A@?0A@EA@GameObjObserverClass@@8
rdata$r	ENDS
;	COMDAT ??_R3KAK_Lightning_Zone@@8
rdata$r	SEGMENT
??_R3KAK_Lightning_Zone@@8 DD 00H			; KAK_Lightning_Zone::`RTTI Class Hierarchy Descriptor'
	DD	00H
	DD	04H
	DD	FLAT:??_R2KAK_Lightning_Zone@@8
rdata$r	ENDS
;	COMDAT ??_R0?AVKAK_Lightning_Zone@@@8
_DATA	SEGMENT
??_R0?AVKAK_Lightning_Zone@@@8 DD FLAT:??_7type_info@@6B@ ; KAK_Lightning_Zone `RTTI Type Descriptor'
	DD	00H
	DB	'.?AVKAK_Lightning_Zone@@', 00H
_DATA	ENDS
;	COMDAT ??_R4KAK_Lightning_Zone@@6B@
rdata$r	SEGMENT
??_R4KAK_Lightning_Zone@@6B@ DD 00H			; KAK_Lightning_Zone::`RTTI Complete Object Locator'
	DD	00H
	DD	00H
	DD	FLAT:??_R0?AVKAK_Lightning_Zone@@@8
	DD	FLAT:??_R3KAK_Lightning_Zone@@8
rdata$r	ENDS
;	COMDAT ??_R1A@?0A@EA@KAK_Lightning_Create@@8
rdata$r	SEGMENT
??_R1A@?0A@EA@KAK_Lightning_Create@@8 DD FLAT:??_R0?AVKAK_Lightning_Create@@@8 ; KAK_Lightning_Create::`RTTI Base Class Descriptor at (0,-1,0,64)'
	DD	03H
	DD	00H
	DD	0ffffffffH
	DD	00H
	DD	040H
	DD	FLAT:??_R3KAK_Lightning_Create@@8
rdata$r	ENDS
;	COMDAT ??_R2KAK_Lightning_Create@@8
rdata$r	SEGMENT
??_R2KAK_Lightning_Create@@8 DD FLAT:??_R1A@?0A@EA@KAK_Lightning_Create@@8 ; KAK_Lightning_Create::`RTTI Base Class Array'
	DD	FLAT:??_R1A@?0A@EA@ScriptImpClass@@8
	DD	FLAT:??_R1A@?0A@EA@ScriptClass@@8
	DD	FLAT:??_R1A@?0A@EA@GameObjObserverClass@@8
rdata$r	ENDS
;	COMDAT ??_R3KAK_Lightning_Create@@8
rdata$r	SEGMENT
??_R3KAK_Lightning_Create@@8 DD 00H			; KAK_Lightning_Create::`RTTI Class Hierarchy Descriptor'
	DD	00H
	DD	04H
	DD	FLAT:??_R2KAK_Lightning_Create@@8
rdata$r	ENDS
;	COMDAT ??_R0?AVKAK_Lightning_Create@@@8
_DATA	SEGMENT
??_R0?AVKAK_Lightning_Create@@@8 DD FLAT:??_7type_info@@6B@ ; KAK_Lightning_Create `RTTI Type Descriptor'
	DD	00H
	DB	'.?AVKAK_Lightning_Create@@', 00H
_DATA	ENDS
;	COMDAT ??_R4KAK_Lightning_Create@@6B@
rdata$r	SEGMENT
??_R4KAK_Lightning_Create@@6B@ DD 00H			; KAK_Lightning_Create::`RTTI Complete Object Locator'
	DD	00H
	DD	00H
	DD	FLAT:??_R0?AVKAK_Lightning_Create@@@8
	DD	FLAT:??_R3KAK_Lightning_Create@@8
rdata$r	ENDS
;	COMDAT ??_R1A@?0A@EA@KAK_Clouds_Zone@@8
rdata$r	SEGMENT
??_R1A@?0A@EA@KAK_Clouds_Zone@@8 DD FLAT:??_R0?AVKAK_Clouds_Zone@@@8 ; KAK_Clouds_Zone::`RTTI Base Class Descriptor at (0,-1,0,64)'
	DD	03H
	DD	00H
	DD	0ffffffffH
	DD	00H
	DD	040H
	DD	FLAT:??_R3KAK_Clouds_Zone@@8
rdata$r	ENDS
;	COMDAT ??_R2KAK_Clouds_Zone@@8
rdata$r	SEGMENT
??_R2KAK_Clouds_Zone@@8 DD FLAT:??_R1A@?0A@EA@KAK_Clouds_Zone@@8 ; KAK_Clouds_Zone::`RTTI Base Class Array'
	DD	FLAT:??_R1A@?0A@EA@ScriptImpClass@@8
	DD	FLAT:??_R1A@?0A@EA@ScriptClass@@8
	DD	FLAT:??_R1A@?0A@EA@GameObjObserverClass@@8
rdata$r	ENDS
;	COMDAT ??_R3KAK_Clouds_Zone@@8
rdata$r	SEGMENT
??_R3KAK_Clouds_Zone@@8 DD 00H				; KAK_Clouds_Zone::`RTTI Class Hierarchy Descriptor'
	DD	00H
	DD	04H
	DD	FLAT:??_R2KAK_Clouds_Zone@@8
rdata$r	ENDS
;	COMDAT ??_R0?AVKAK_Clouds_Zone@@@8
_DATA	SEGMENT
??_R0?AVKAK_Clouds_Zone@@@8 DD FLAT:??_7type_info@@6B@	; KAK_Clouds_Zone `RTTI Type Descriptor'
	DD	00H
	DB	'.?AVKAK_Clouds_Zone@@', 00H
_DATA	ENDS
;	COMDAT ??_R4KAK_Clouds_Zone@@6B@
rdata$r	SEGMENT
??_R4KAK_Clouds_Zone@@6B@ DD 00H			; KAK_Clouds_Zone::`RTTI Complete Object Locator'
	DD	00H
	DD	00H
	DD	FLAT:??_R0?AVKAK_Clouds_Zone@@@8
	DD	FLAT:??_R3KAK_Clouds_Zone@@8
rdata$r	ENDS
;	COMDAT ??_R1A@?0A@EA@KAK_Clouds_Create@@8
rdata$r	SEGMENT
??_R1A@?0A@EA@KAK_Clouds_Create@@8 DD FLAT:??_R0?AVKAK_Clouds_Create@@@8 ; KAK_Clouds_Create::`RTTI Base Class Descriptor at (0,-1,0,64)'
	DD	03H
	DD	00H
	DD	0ffffffffH
	DD	00H
	DD	040H
	DD	FLAT:??_R3KAK_Clouds_Create@@8
rdata$r	ENDS
;	COMDAT ??_R2KAK_Clouds_Create@@8
rdata$r	SEGMENT
??_R2KAK_Clouds_Create@@8 DD FLAT:??_R1A@?0A@EA@KAK_Clouds_Create@@8 ; KAK_Clouds_Create::`RTTI Base Class Array'
	DD	FLAT:??_R1A@?0A@EA@ScriptImpClass@@8
	DD	FLAT:??_R1A@?0A@EA@ScriptClass@@8
	DD	FLAT:??_R1A@?0A@EA@GameObjObserverClass@@8
rdata$r	ENDS
;	COMDAT ??_R3KAK_Clouds_Create@@8
rdata$r	SEGMENT
??_R3KAK_Clouds_Create@@8 DD 00H			; KAK_Clouds_Create::`RTTI Class Hierarchy Descriptor'
	DD	00H
	DD	04H
	DD	FLAT:??_R2KAK_Clouds_Create@@8
rdata$r	ENDS
;	COMDAT ??_R0?AVKAK_Clouds_Create@@@8
_DATA	SEGMENT
??_R0?AVKAK_Clouds_Create@@@8 DD FLAT:??_7type_info@@6B@ ; KAK_Clouds_Create `RTTI Type Descriptor'
	DD	00H
	DB	'.?AVKAK_Clouds_Create@@', 00H
_DATA	ENDS
;	COMDAT ??_R4KAK_Clouds_Create@@6B@
rdata$r	SEGMENT
??_R4KAK_Clouds_Create@@6B@ DD 00H			; KAK_Clouds_Create::`RTTI Complete Object Locator'
	DD	00H
	DD	00H
	DD	FLAT:??_R0?AVKAK_Clouds_Create@@@8
	DD	FLAT:??_R3KAK_Clouds_Create@@8
rdata$r	ENDS
;	COMDAT ??_R1A@?0A@EA@KAK_Wind_Zone@@8
rdata$r	SEGMENT
??_R1A@?0A@EA@KAK_Wind_Zone@@8 DD FLAT:??_R0?AVKAK_Wind_Zone@@@8 ; KAK_Wind_Zone::`RTTI Base Class Descriptor at (0,-1,0,64)'
	DD	03H
	DD	00H
	DD	0ffffffffH
	DD	00H
	DD	040H
	DD	FLAT:??_R3KAK_Wind_Zone@@8
rdata$r	ENDS
;	COMDAT ??_R2KAK_Wind_Zone@@8
rdata$r	SEGMENT
??_R2KAK_Wind_Zone@@8 DD FLAT:??_R1A@?0A@EA@KAK_Wind_Zone@@8 ; KAK_Wind_Zone::`RTTI Base Class Array'
	DD	FLAT:??_R1A@?0A@EA@ScriptImpClass@@8
	DD	FLAT:??_R1A@?0A@EA@ScriptClass@@8
	DD	FLAT:??_R1A@?0A@EA@GameObjObserverClass@@8
rdata$r	ENDS
;	COMDAT ??_R3KAK_Wind_Zone@@8
rdata$r	SEGMENT
??_R3KAK_Wind_Zone@@8 DD 00H				; KAK_Wind_Zone::`RTTI Class Hierarchy Descriptor'
	DD	00H
	DD	04H
	DD	FLAT:??_R2KAK_Wind_Zone@@8
rdata$r	ENDS
;	COMDAT ??_R0?AVKAK_Wind_Zone@@@8
_DATA	SEGMENT
??_R0?AVKAK_Wind_Zone@@@8 DD FLAT:??_7type_info@@6B@	; KAK_Wind_Zone `RTTI Type Descriptor'
	DD	00H
	DB	'.?AVKAK_Wind_Zone@@', 00H
_DATA	ENDS
;	COMDAT ??_R4KAK_Wind_Zone@@6B@
rdata$r	SEGMENT
??_R4KAK_Wind_Zone@@6B@ DD 00H				; KAK_Wind_Zone::`RTTI Complete Object Locator'
	DD	00H
	DD	00H
	DD	FLAT:??_R0?AVKAK_Wind_Zone@@@8
	DD	FLAT:??_R3KAK_Wind_Zone@@8
rdata$r	ENDS
;	COMDAT ??_R1A@?0A@EA@KAK_Wind_Create@@8
rdata$r	SEGMENT
??_R1A@?0A@EA@KAK_Wind_Create@@8 DD FLAT:??_R0?AVKAK_Wind_Create@@@8 ; KAK_Wind_Create::`RTTI Base Class Descriptor at (0,-1,0,64)'
	DD	03H
	DD	00H
	DD	0ffffffffH
	DD	00H
	DD	040H
	DD	FLAT:??_R3KAK_Wind_Create@@8
rdata$r	ENDS
;	COMDAT ??_R2KAK_Wind_Create@@8
rdata$r	SEGMENT
??_R2KAK_Wind_Create@@8 DD FLAT:??_R1A@?0A@EA@KAK_Wind_Create@@8 ; KAK_Wind_Create::`RTTI Base Class Array'
	DD	FLAT:??_R1A@?0A@EA@ScriptImpClass@@8
	DD	FLAT:??_R1A@?0A@EA@ScriptClass@@8
	DD	FLAT:??_R1A@?0A@EA@GameObjObserverClass@@8
rdata$r	ENDS
;	COMDAT ??_R3KAK_Wind_Create@@8
rdata$r	SEGMENT
??_R3KAK_Wind_Create@@8 DD 00H				; KAK_Wind_Create::`RTTI Class Hierarchy Descriptor'
	DD	00H
	DD	04H
	DD	FLAT:??_R2KAK_Wind_Create@@8
rdata$r	ENDS
;	COMDAT ??_R0?AVKAK_Wind_Create@@@8
_DATA	SEGMENT
??_R0?AVKAK_Wind_Create@@@8 DD FLAT:??_7type_info@@6B@	; KAK_Wind_Create `RTTI Type Descriptor'
	DD	00H
	DB	'.?AVKAK_Wind_Create@@', 00H
_DATA	ENDS
;	COMDAT ??_R4KAK_Wind_Create@@6B@
rdata$r	SEGMENT
??_R4KAK_Wind_Create@@6B@ DD 00H			; KAK_Wind_Create::`RTTI Complete Object Locator'
	DD	00H
	DD	00H
	DD	FLAT:??_R0?AVKAK_Wind_Create@@@8
	DD	FLAT:??_R3KAK_Wind_Create@@8
rdata$r	ENDS
;	COMDAT ??_R1A@?0A@EA@KAK_Precipitation_Zone@@8
rdata$r	SEGMENT
??_R1A@?0A@EA@KAK_Precipitation_Zone@@8 DD FLAT:??_R0?AVKAK_Precipitation_Zone@@@8 ; KAK_Precipitation_Zone::`RTTI Base Class Descriptor at (0,-1,0,64)'
	DD	03H
	DD	00H
	DD	0ffffffffH
	DD	00H
	DD	040H
	DD	FLAT:??_R3KAK_Precipitation_Zone@@8
rdata$r	ENDS
;	COMDAT ??_R2KAK_Precipitation_Zone@@8
rdata$r	SEGMENT
??_R2KAK_Precipitation_Zone@@8 DD FLAT:??_R1A@?0A@EA@KAK_Precipitation_Zone@@8 ; KAK_Precipitation_Zone::`RTTI Base Class Array'
	DD	FLAT:??_R1A@?0A@EA@ScriptImpClass@@8
	DD	FLAT:??_R1A@?0A@EA@ScriptClass@@8
	DD	FLAT:??_R1A@?0A@EA@GameObjObserverClass@@8
rdata$r	ENDS
;	COMDAT ??_R3KAK_Precipitation_Zone@@8
rdata$r	SEGMENT
??_R3KAK_Precipitation_Zone@@8 DD 00H			; KAK_Precipitation_Zone::`RTTI Class Hierarchy Descriptor'
	DD	00H
	DD	04H
	DD	FLAT:??_R2KAK_Precipitation_Zone@@8
rdata$r	ENDS
;	COMDAT ??_R0?AVKAK_Precipitation_Zone@@@8
_DATA	SEGMENT
??_R0?AVKAK_Precipitation_Zone@@@8 DD FLAT:??_7type_info@@6B@ ; KAK_Precipitation_Zone `RTTI Type Descriptor'
	DD	00H
	DB	'.?AVKAK_Precipitation_Zone@@', 00H
_DATA	ENDS
;	COMDAT ??_R4KAK_Precipitation_Zone@@6B@
rdata$r	SEGMENT
??_R4KAK_Precipitation_Zone@@6B@ DD 00H			; KAK_Precipitation_Zone::`RTTI Complete Object Locator'
	DD	00H
	DD	00H
	DD	FLAT:??_R0?AVKAK_Precipitation_Zone@@@8
	DD	FLAT:??_R3KAK_Precipitation_Zone@@8
rdata$r	ENDS
;	COMDAT ??_R1A@?0A@EA@KAK_Precipitation_Create@@8
rdata$r	SEGMENT
??_R1A@?0A@EA@KAK_Precipitation_Create@@8 DD FLAT:??_R0?AVKAK_Precipitation_Create@@@8 ; KAK_Precipitation_Create::`RTTI Base Class Descriptor at (0,-1,0,64)'
	DD	03H
	DD	00H
	DD	0ffffffffH
	DD	00H
	DD	040H
	DD	FLAT:??_R3KAK_Precipitation_Create@@8
rdata$r	ENDS
;	COMDAT ??_R2KAK_Precipitation_Create@@8
rdata$r	SEGMENT
??_R2KAK_Precipitation_Create@@8 DD FLAT:??_R1A@?0A@EA@KAK_Precipitation_Create@@8 ; KAK_Precipitation_Create::`RTTI Base Class Array'
	DD	FLAT:??_R1A@?0A@EA@ScriptImpClass@@8
	DD	FLAT:??_R1A@?0A@EA@ScriptClass@@8
	DD	FLAT:??_R1A@?0A@EA@GameObjObserverClass@@8
rdata$r	ENDS
;	COMDAT ??_R3KAK_Precipitation_Create@@8
rdata$r	SEGMENT
??_R3KAK_Precipitation_Create@@8 DD 00H			; KAK_Precipitation_Create::`RTTI Class Hierarchy Descriptor'
	DD	00H
	DD	04H
	DD	FLAT:??_R2KAK_Precipitation_Create@@8
rdata$r	ENDS
;	COMDAT ??_R0?AVKAK_Precipitation_Create@@@8
_DATA	SEGMENT
??_R0?AVKAK_Precipitation_Create@@@8 DD FLAT:??_7type_info@@6B@ ; KAK_Precipitation_Create `RTTI Type Descriptor'
	DD	00H
	DB	'.?AVKAK_Precipitation_Create@@', 00H
_DATA	ENDS
;	COMDAT ??_R4KAK_Precipitation_Create@@6B@
rdata$r	SEGMENT
??_R4KAK_Precipitation_Create@@6B@ DD 00H		; KAK_Precipitation_Create::`RTTI Complete Object Locator'
	DD	00H
	DD	00H
	DD	FLAT:??_R0?AVKAK_Precipitation_Create@@@8
	DD	FLAT:??_R3KAK_Precipitation_Create@@8
rdata$r	ENDS
;	COMDAT ??_R1A@?0A@EA@KAK_Warp_On_Pickup@@8
rdata$r	SEGMENT
??_R1A@?0A@EA@KAK_Warp_On_Pickup@@8 DD FLAT:??_R0?AVKAK_Warp_On_Pickup@@@8 ; KAK_Warp_On_Pickup::`RTTI Base Class Descriptor at (0,-1,0,64)'
	DD	03H
	DD	00H
	DD	0ffffffffH
	DD	00H
	DD	040H
	DD	FLAT:??_R3KAK_Warp_On_Pickup@@8
rdata$r	ENDS
;	COMDAT ??_R2KAK_Warp_On_Pickup@@8
rdata$r	SEGMENT
??_R2KAK_Warp_On_Pickup@@8 DD FLAT:??_R1A@?0A@EA@KAK_Warp_On_Pickup@@8 ; KAK_Warp_On_Pickup::`RTTI Base Class Array'
	DD	FLAT:??_R1A@?0A@EA@ScriptImpClass@@8
	DD	FLAT:??_R1A@?0A@EA@ScriptClass@@8
	DD	FLAT:??_R1A@?0A@EA@GameObjObserverClass@@8
rdata$r	ENDS
;	COMDAT ??_R3KAK_Warp_On_Pickup@@8
rdata$r	SEGMENT
??_R3KAK_Warp_On_Pickup@@8 DD 00H			; KAK_Warp_On_Pickup::`RTTI Class Hierarchy Descriptor'
	DD	00H
	DD	04H
	DD	FLAT:??_R2KAK_Warp_On_Pickup@@8
rdata$r	ENDS
;	COMDAT ??_R0?AVKAK_Warp_On_Pickup@@@8
_DATA	SEGMENT
??_R0?AVKAK_Warp_On_Pickup@@@8 DD FLAT:??_7type_info@@6B@ ; KAK_Warp_On_Pickup `RTTI Type Descriptor'
	DD	00H
	DB	'.?AVKAK_Warp_On_Pickup@@', 00H
_DATA	ENDS
;	COMDAT ??_R4KAK_Warp_On_Pickup@@6B@
rdata$r	SEGMENT
??_R4KAK_Warp_On_Pickup@@6B@ DD 00H			; KAK_Warp_On_Pickup::`RTTI Complete Object Locator'
	DD	00H
	DD	00H
	DD	FLAT:??_R0?AVKAK_Warp_On_Pickup@@@8
	DD	FLAT:??_R3KAK_Warp_On_Pickup@@8
rdata$r	ENDS
;	COMDAT ??_R1A@?0A@EA@ScriptImpClass@@8
rdata$r	SEGMENT
??_R1A@?0A@EA@ScriptImpClass@@8 DD FLAT:??_R0?AVScriptImpClass@@@8 ; ScriptImpClass::`RTTI Base Class Descriptor at (0,-1,0,64)'
	DD	02H
	DD	00H
	DD	0ffffffffH
	DD	00H
	DD	040H
	DD	FLAT:??_R3ScriptImpClass@@8
rdata$r	ENDS
;	COMDAT ??_R2ScriptImpClass@@8
rdata$r	SEGMENT
??_R2ScriptImpClass@@8 DD FLAT:??_R1A@?0A@EA@ScriptImpClass@@8 ; ScriptImpClass::`RTTI Base Class Array'
	DD	FLAT:??_R1A@?0A@EA@ScriptClass@@8
	DD	FLAT:??_R1A@?0A@EA@GameObjObserverClass@@8
rdata$r	ENDS
;	COMDAT ??_R3ScriptImpClass@@8
rdata$r	SEGMENT
??_R3ScriptImpClass@@8 DD 00H				; ScriptImpClass::`RTTI Class Hierarchy Descriptor'
	DD	00H
	DD	03H
	DD	FLAT:??_R2ScriptImpClass@@8
rdata$r	ENDS
;	COMDAT ??_R0?AVScriptImpClass@@@8
_DATA	SEGMENT
??_R0?AVScriptImpClass@@@8 DD FLAT:??_7type_info@@6B@	; ScriptImpClass `RTTI Type Descriptor'
	DD	00H
	DB	'.?AVScriptImpClass@@', 00H
_DATA	ENDS
;	COMDAT ??_R4ScriptImpClass@@6B@
rdata$r	SEGMENT
??_R4ScriptImpClass@@6B@ DD 00H				; ScriptImpClass::`RTTI Complete Object Locator'
	DD	00H
	DD	00H
	DD	FLAT:??_R0?AVScriptImpClass@@@8
	DD	FLAT:??_R3ScriptImpClass@@8
rdata$r	ENDS
;	COMDAT ??_R4GameObjObserverClass@@6B@
rdata$r	SEGMENT
??_R4GameObjObserverClass@@6B@ DD 00H			; GameObjObserverClass::`RTTI Complete Object Locator'
	DD	00H
	DD	00H
	DD	FLAT:??_R0?AVGameObjObserverClass@@@8
	DD	FLAT:??_R3GameObjObserverClass@@8
rdata$r	ENDS
;	COMDAT ??_R2GameObjObserverClass@@8
rdata$r	SEGMENT
??_R2GameObjObserverClass@@8 DD FLAT:??_R1A@?0A@EA@GameObjObserverClass@@8 ; GameObjObserverClass::`RTTI Base Class Array'
rdata$r	ENDS
;	COMDAT ??_R3GameObjObserverClass@@8
rdata$r	SEGMENT
??_R3GameObjObserverClass@@8 DD 00H			; GameObjObserverClass::`RTTI Class Hierarchy Descriptor'
	DD	00H
	DD	01H
	DD	FLAT:??_R2GameObjObserverClass@@8
rdata$r	ENDS
;	COMDAT ??_R0?AVGameObjObserverClass@@@8
_DATA	SEGMENT
??_R0?AVGameObjObserverClass@@@8 DD FLAT:??_7type_info@@6B@ ; GameObjObserverClass `RTTI Type Descriptor'
	DD	00H
	DB	'.?AVGameObjObserverClass@@', 00H
_DATA	ENDS
;	COMDAT ??_R1A@?0A@EA@GameObjObserverClass@@8
rdata$r	SEGMENT
??_R1A@?0A@EA@GameObjObserverClass@@8 DD FLAT:??_R0?AVGameObjObserverClass@@@8 ; GameObjObserverClass::`RTTI Base Class Descriptor at (0,-1,0,64)'
	DD	00H
	DD	00H
	DD	0ffffffffH
	DD	00H
	DD	040H
	DD	FLAT:??_R3GameObjObserverClass@@8
rdata$r	ENDS
;	COMDAT ??_R1A@?0A@EA@ScriptClass@@8
rdata$r	SEGMENT
??_R1A@?0A@EA@ScriptClass@@8 DD FLAT:??_R0?AVScriptClass@@@8 ; ScriptClass::`RTTI Base Class Descriptor at (0,-1,0,64)'
	DD	01H
	DD	00H
	DD	0ffffffffH
	DD	00H
	DD	040H
	DD	FLAT:??_R3ScriptClass@@8
rdata$r	ENDS
;	COMDAT ??_R2ScriptClass@@8
rdata$r	SEGMENT
??_R2ScriptClass@@8 DD FLAT:??_R1A@?0A@EA@ScriptClass@@8 ; ScriptClass::`RTTI Base Class Array'
	DD	FLAT:??_R1A@?0A@EA@GameObjObserverClass@@8
rdata$r	ENDS
;	COMDAT ??_R3ScriptClass@@8
rdata$r	SEGMENT
??_R3ScriptClass@@8 DD 00H				; ScriptClass::`RTTI Class Hierarchy Descriptor'
	DD	00H
	DD	02H
	DD	FLAT:??_R2ScriptClass@@8
rdata$r	ENDS
;	COMDAT ??_R0?AVScriptClass@@@8
_DATA	SEGMENT
??_R0?AVScriptClass@@@8 DD FLAT:??_7type_info@@6B@	; ScriptClass `RTTI Type Descriptor'
	DD	00H
	DB	'.?AVScriptClass@@', 00H
_DATA	ENDS
;	COMDAT ??_R4ScriptClass@@6B@
rdata$r	SEGMENT
??_R4ScriptClass@@6B@ DD 00H				; ScriptClass::`RTTI Complete Object Locator'
	DD	00H
	DD	00H
	DD	FLAT:??_R0?AVScriptClass@@@8
	DD	FLAT:??_R3ScriptClass@@8
rdata$r	ENDS
;	COMDAT ??_R1A@?0A@EA@ScriptFactory@@8
rdata$r	SEGMENT
??_R1A@?0A@EA@ScriptFactory@@8 DD FLAT:??_R0?AVScriptFactory@@@8 ; ScriptFactory::`RTTI Base Class Descriptor at (0,-1,0,64)'
	DD	00H
	DD	00H
	DD	0ffffffffH
	DD	00H
	DD	040H
	DD	FLAT:??_R3ScriptFactory@@8
rdata$r	ENDS
;	COMDAT ??_R2ScriptFactory@@8
rdata$r	SEGMENT
??_R2ScriptFactory@@8 DD FLAT:??_R1A@?0A@EA@ScriptFactory@@8 ; ScriptFactory::`RTTI Base Class Array'
rdata$r	ENDS
;	COMDAT ??_R3ScriptFactory@@8
rdata$r	SEGMENT
??_R3ScriptFactory@@8 DD 00H				; ScriptFactory::`RTTI Class Hierarchy Descriptor'
	DD	00H
	DD	01H
	DD	FLAT:??_R2ScriptFactory@@8
rdata$r	ENDS
;	COMDAT ??_R0?AVScriptFactory@@@8
_DATA	SEGMENT
??_R0?AVScriptFactory@@@8 DD FLAT:??_7type_info@@6B@	; ScriptFactory `RTTI Type Descriptor'
	DD	00H
	DB	'.?AVScriptFactory@@', 00H
_DATA	ENDS
;	COMDAT ??_R4ScriptFactory@@6B@
rdata$r	SEGMENT
??_R4ScriptFactory@@6B@ DD 00H				; ScriptFactory::`RTTI Complete Object Locator'
	DD	00H
	DD	00H
	DD	FLAT:??_R0?AVScriptFactory@@@8
	DD	FLAT:??_R3ScriptFactory@@8
rdata$r	ENDS
;	COMDAT ??_C@_0DB@DEDGHMPO@ScriptRegistrant?$DMclass?5KAK_Regen@
CONST	SEGMENT
??_C@_0DB@DEDGHMPO@ScriptRegistrant?$DMclass?5KAK_Regen@ DB 'ScriptRegist'
	DB	'rant<class KAK_Regen_Custom>::Create', 00H	; `string'
CONST	ENDS
;	COMDAT ??_C@_0DC@OFHOJKLM@ScriptRegistrant?$DMclass?5KAK_Freez@
CONST	SEGMENT
??_C@_0DC@OFHOJKLM@ScriptRegistrant?$DMclass?5KAK_Freez@ DB 'ScriptRegist'
	DB	'rant<class KAK_Freeze_Object>::Create', 00H	; `string'
CONST	ENDS
;	COMDAT ??_C@_0DG@HMJNHINH@ScriptRegistrant?$DMclass?5KAK_Conve@
CONST	SEGMENT
??_C@_0DG@HMJNHINH@ScriptRegistrant?$DMclass?5KAK_Conve@ DB 'ScriptRegist'
	DB	'rant<class KAK_Convert_Visceroid>::Create', 00H ; `string'
CONST	ENDS
;	COMDAT ??_C@_0DB@DPKDJGEH@ScriptRegistrant?$DMclass?5KAK_Preve@
CONST	SEGMENT
??_C@_0DB@DPKDJGEH@ScriptRegistrant?$DMclass?5KAK_Preve@ DB 'ScriptRegist'
	DB	'rant<class KAK_Prevent_Kill>::Create', 00H	; `string'
CONST	ENDS
;	COMDAT ??_C@_0DJ@BCDIAIGF@ScriptRegistrant?$DMclass?5KAK_Harve@
CONST	SEGMENT
??_C@_0DJ@BCDIAIGF@ScriptRegistrant?$DMclass?5KAK_Harve@ DB 'ScriptRegist'
	DB	'rant<class KAK_Harvester_Spawn_Kill>::Create', 00H ; `string'
CONST	ENDS
;	COMDAT ??_C@_0DD@LHODANNN@ScriptRegistrant?$DMclass?5KAK_Harve@
CONST	SEGMENT
??_C@_0DD@LHODANNN@ScriptRegistrant?$DMclass?5KAK_Harve@ DB 'ScriptRegist'
	DB	'rant<class KAK_Harvester_Kill>::Create', 00H ; `string'
CONST	ENDS
;	COMDAT ??_C@_0DH@FBIDCGCM@ScriptRegistrant?$DMclass?5KAK_Harve@
CONST	SEGMENT
??_C@_0DH@FBIDCGCM@ScriptRegistrant?$DMclass?5KAK_Harve@ DB 'ScriptRegist'
	DB	'rant<class KAK_Harvester_Attached>::Create', 00H ; `string'
CONST	ENDS
;	COMDAT ??_C@_0DE@GKEMLAJE@ScriptRegistrant?$DMclass?5KAK_Harve@
CONST	SEGMENT
??_C@_0DE@GKEMLAJE@ScriptRegistrant?$DMclass?5KAK_Harve@ DB 'ScriptRegist'
	DB	'rant<class KAK_Harvester_Logic>::Create', 00H ; `string'
CONST	ENDS
;	COMDAT ??_C@_0DM@ODMCDKKO@ScriptRegistrant?$DMclass?5KAK_Selec@
CONST	SEGMENT
??_C@_0DM@ODMCDKKO@ScriptRegistrant?$DMclass?5KAK_Selec@ DB 'ScriptRegist'
	DB	'rant<class KAK_Select_Weapon_On_Pickup>::Create', 00H ; `string'
CONST	ENDS
;	COMDAT ??_C@_0DH@BKIBNOOO@ScriptRegistrant?$DMclass?5KAK_Selec@
CONST	SEGMENT
??_C@_0DH@BKIBNOOO@ScriptRegistrant?$DMclass?5KAK_Selec@ DB 'ScriptRegist'
	DB	'rant<class KAK_Select_Weapon_Zone>::Create', 00H ; `string'
CONST	ENDS
;	COMDAT ??_C@_0DL@OECBJCC@ScriptRegistrant?$DMclass?5KAK_Give_@
CONST	SEGMENT
??_C@_0DL@OECBJCC@ScriptRegistrant?$DMclass?5KAK_Give_@ DB 'ScriptRegistr'
	DB	'ant<class KAK_Give_Powerup_On_Pickup>::Create', 00H ; `string'
CONST	ENDS
;	COMDAT ??_C@_0DE@OFHDLHPK@ScriptRegistrant?$DMclass?5KAK_Flowi@
CONST	SEGMENT
??_C@_0DE@OFHDLHPK@ScriptRegistrant?$DMclass?5KAK_Flowi@ DB 'ScriptRegist'
	DB	'rant<class KAK_Flowing_Weather>::Create', 00H ; `string'
CONST	ENDS
;	COMDAT ??_C@_0DD@DNBDIOJD@ScriptRegistrant?$DMclass?5KAK_Light@
CONST	SEGMENT
??_C@_0DD@DNBDIOJD@ScriptRegistrant?$DMclass?5KAK_Light@ DB 'ScriptRegist'
	DB	'rant<class KAK_Lightning_Zone>::Create', 00H ; `string'
CONST	ENDS
;	COMDAT ??_C@_0DF@HCODLGNC@ScriptRegistrant?$DMclass?5KAK_Light@
CONST	SEGMENT
??_C@_0DF@HCODLGNC@ScriptRegistrant?$DMclass?5KAK_Light@ DB 'ScriptRegist'
	DB	'rant<class KAK_Lightning_Create>::Create', 00H ; `string'
CONST	ENDS
;	COMDAT ??_C@_0DA@PBBJNGAN@ScriptRegistrant?$DMclass?5KAK_Cloud@
CONST	SEGMENT
??_C@_0DA@PBBJNGAN@ScriptRegistrant?$DMclass?5KAK_Cloud@ DB 'ScriptRegist'
	DB	'rant<class KAK_Clouds_Zone>::Create', 00H	; `string'
CONST	ENDS
;	COMDAT ??_C@_0DC@PIJBAEIK@ScriptRegistrant?$DMclass?5KAK_Cloud@
CONST	SEGMENT
??_C@_0DC@PIJBAEIK@ScriptRegistrant?$DMclass?5KAK_Cloud@ DB 'ScriptRegist'
	DB	'rant<class KAK_Clouds_Create>::Create', 00H	; `string'
CONST	ENDS
;	COMDAT ??_C@_0CO@JJGLMJOL@ScriptRegistrant?$DMclass?5KAK_Wind_@
CONST	SEGMENT
??_C@_0CO@JJGLMJOL@ScriptRegistrant?$DMclass?5KAK_Wind_@ DB 'ScriptRegist'
	DB	'rant<class KAK_Wind_Zone>::Create', 00H	; `string'
CONST	ENDS
;	COMDAT ??_C@_0DA@HNLNDFGH@ScriptRegistrant?$DMclass?5KAK_Wind_@
CONST	SEGMENT
??_C@_0DA@HNLNDFGH@ScriptRegistrant?$DMclass?5KAK_Wind_@ DB 'ScriptRegist'
	DB	'rant<class KAK_Wind_Create>::Create', 00H	; `string'
CONST	ENDS
;	COMDAT ??_C@_0DH@EMLBLOJA@ScriptRegistrant?$DMclass?5KAK_Preci@
CONST	SEGMENT
??_C@_0DH@EMLBLOJA@ScriptRegistrant?$DMclass?5KAK_Preci@ DB 'ScriptRegist'
	DB	'rant<class KAK_Precipitation_Zone>::Create', 00H ; `string'
CONST	ENDS
;	COMDAT ??_C@_0DJ@HPBHKEBP@ScriptRegistrant?$DMclass?5KAK_Preci@
CONST	SEGMENT
??_C@_0DJ@HPBHKEBP@ScriptRegistrant?$DMclass?5KAK_Preci@ DB 'ScriptRegist'
	DB	'rant<class KAK_Precipitation_Create>::Create', 00H ; `string'
CONST	ENDS
;	COMDAT ??_C@_1M@HLGKFCJM@?$AAf?$AAa?$AAl?$AAs?$AAe?$AA?$AA@
CONST	SEGMENT
??_C@_1M@HLGKFCJM@?$AAf?$AAa?$AAl?$AAs?$AAe?$AA?$AA@ DB 'f', 00H, 'a', 00H
	DB	'l', 00H, 's', 00H, 'e', 00H, 00H, 00H	; `string'
CONST	ENDS
;	COMDAT ??_C@_1GG@OGNLNBPD@?$AAx?$AA?3?$AA?2?$AAg?$AAi?$AAt?$AAh?$AAu?$AAb?$AA?2?$AAr?$AAe?$AAn?$AAe?$AAg?$AAa?$AAd?$AAe?$AA?2?$AAd?$AAr?$AAa?$AAg?$AAo?$AAn?$AAa?$AAd?$AAe?$AA_?$AAr?$AAx?$AAd@
CONST	SEGMENT
??_C@_1GG@OGNLNBPD@?$AAx?$AA?3?$AA?2?$AAg?$AAi?$AAt?$AAh?$AAu?$AAb?$AA?2?$AAr?$AAe?$AAn?$AAe?$AAg?$AAa?$AAd?$AAe?$AA?2?$AAd?$AAr?$AAa?$AAg?$AAo?$AAn?$AAa?$AAd?$AAe?$AA_?$AAr?$AAx?$AAd@ DB 'x'
	DB	00H, ':', 00H, '\', 00H, 'g', 00H, 'i', 00H, 't', 00H, 'h', 00H
	DB	'u', 00H, 'b', 00H, '\', 00H, 'r', 00H, 'e', 00H, 'n', 00H, 'e'
	DB	00H, 'g', 00H, 'a', 00H, 'd', 00H, 'e', 00H, '\', 00H, 'd', 00H
	DB	'r', 00H, 'a', 00H, 'g', 00H, 'o', 00H, 'n', 00H, 'a', 00H, 'd'
	DB	00H, 'e', 00H, '_', 00H, 'r', 00H, 'x', 00H, 'd', 00H, '\', 00H
	DB	's', 00H, 'c', 00H, 'r', 00H, 'i', 00H, 'p', 00H, 't', 00H, 's'
	DB	00H, '\', 00H, 's', 00H, 'c', 00H, 'r', 00H, 'i', 00H, 'p', 00H
	DB	't', 00H, 's', 00H, '.', 00H, 'h', 00H, 00H, 00H ; `string'
CONST	ENDS
;	COMDAT ??_C@_0DD@KMKBFFOF@x?3?2github?2renegade?2dragonade_rxd@
CONST	SEGMENT
??_C@_0DD@KMKBFFOF@x?3?2github?2renegade?2dragonade_rxd@ DB 'x:\github\re'
	DB	'negade\dragonade_rxd\scripts\scripts.h', 00H ; `string'
CONST	ENDS
;	COMDAT ??_C@_0DD@EHIGOODG@ScriptRegistrant?$DMclass?5KAK_Warp_@
CONST	SEGMENT
??_C@_0DD@EHIGOODG@ScriptRegistrant?$DMclass?5KAK_Warp_@ DB 'ScriptRegist'
	DB	'rant<class KAK_Warp_On_Pickup>::Create', 00H ; `string'
CONST	ENDS
;	COMDAT ??_C@_0BB@FDAABDGL@KAK_Regen_Custom?$AA@
CONST	SEGMENT
??_C@_0BB@FDAABDGL@KAK_Regen_Custom?$AA@ DB 'KAK_Regen_Custom', 00H ; `string'
CONST	ENDS
;	COMDAT ??_C@_0CE@IMLOBHPI@Interval?$DN0?45?3float?0Health?$DN2?40?3fl@
CONST	SEGMENT
??_C@_0CE@IMLOBHPI@Interval?$DN0?45?3float?0Health?$DN2?40?3fl@ DB 'Inter'
	DB	'val=0.5:float,Health=2.0:float', 00H	; `string'
CONST	ENDS
;	COMDAT ??_7?$ScriptRegistrant@VKAK_Regen_Custom@@@@6B@
CONST	SEGMENT
??_7?$ScriptRegistrant@VKAK_Regen_Custom@@@@6B@ DD FLAT:??_R4?$ScriptRegistrant@VKAK_Regen_Custom@@@@6B@ ; ScriptRegistrant<KAK_Regen_Custom>::`vftable'
	DD	FLAT:??_E?$ScriptRegistrant@VKAK_Regen_Custom@@@@UAEPAXI@Z
	DD	FLAT:?Create@?$ScriptRegistrant@VKAK_Regen_Custom@@@@UAEPAVScriptImpClass@@XZ
CONST	ENDS
;	COMDAT ??_C@_0BC@LBFAJEO@KAK_Freeze_Object?$AA@
CONST	SEGMENT
??_C@_0BC@LBFAJEO@KAK_Freeze_Object?$AA@ DB 'KAK_Freeze_Object', 00H ; `string'
CONST	ENDS
;	COMDAT ??_C@_0P@LKMJJPJE@Time?$DN5?40?3float?$AA@
CONST	SEGMENT
??_C@_0P@LKMJJPJE@Time?$DN5?40?3float?$AA@ DB 'Time=5.0:float', 00H ; `string'
CONST	ENDS
;	COMDAT ??_7?$ScriptRegistrant@VKAK_Freeze_Object@@@@6B@
CONST	SEGMENT
??_7?$ScriptRegistrant@VKAK_Freeze_Object@@@@6B@ DD FLAT:??_R4?$ScriptRegistrant@VKAK_Freeze_Object@@@@6B@ ; ScriptRegistrant<KAK_Freeze_Object>::`vftable'
	DD	FLAT:??_E?$ScriptRegistrant@VKAK_Freeze_Object@@@@UAEPAXI@Z
	DD	FLAT:?Create@?$ScriptRegistrant@VKAK_Freeze_Object@@@@UAEPAVScriptImpClass@@XZ
CONST	ENDS
;	COMDAT ??_C@_0BG@IIKAMANI@KAK_Convert_Visceroid?$AA@
CONST	SEGMENT
??_C@_0BG@IIKAMANI@KAK_Convert_Visceroid?$AA@ DB 'KAK_Convert_Visceroid', 00H ; `string'
CONST	ENDS
;	COMDAT ??_7?$ScriptRegistrant@VKAK_Convert_Visceroid@@@@6B@
CONST	SEGMENT
??_7?$ScriptRegistrant@VKAK_Convert_Visceroid@@@@6B@ DD FLAT:??_R4?$ScriptRegistrant@VKAK_Convert_Visceroid@@@@6B@ ; ScriptRegistrant<KAK_Convert_Visceroid>::`vftable'
	DD	FLAT:??_E?$ScriptRegistrant@VKAK_Convert_Visceroid@@@@UAEPAXI@Z
	DD	FLAT:?Create@?$ScriptRegistrant@VKAK_Convert_Visceroid@@@@UAEPAVScriptImpClass@@XZ
CONST	ENDS
;	COMDAT ??_C@_0BB@PHJHKCNG@KAK_Prevent_Kill?$AA@
CONST	SEGMENT
??_C@_0BB@PHJHKCNG@KAK_Prevent_Kill?$AA@ DB 'KAK_Prevent_Kill', 00H ; `string'
CONST	ENDS
;	COMDAT ??_C@_00CNPNBAHC@?$AA@
CONST	SEGMENT
??_C@_00CNPNBAHC@?$AA@ DB 00H				; `string'
CONST	ENDS
;	COMDAT ??_7?$ScriptRegistrant@VKAK_Prevent_Kill@@@@6B@
CONST	SEGMENT
??_7?$ScriptRegistrant@VKAK_Prevent_Kill@@@@6B@ DD FLAT:??_R4?$ScriptRegistrant@VKAK_Prevent_Kill@@@@6B@ ; ScriptRegistrant<KAK_Prevent_Kill>::`vftable'
	DD	FLAT:??_E?$ScriptRegistrant@VKAK_Prevent_Kill@@@@UAEPAXI@Z
	DD	FLAT:?Create@?$ScriptRegistrant@VKAK_Prevent_Kill@@@@UAEPAVScriptImpClass@@XZ
CONST	ENDS
;	COMDAT ??_C@_0BJ@NDBEFFOD@KAK_Harvester_Spawn_Kill?$AA@
CONST	SEGMENT
??_C@_0BJ@NDBEFFOD@KAK_Harvester_Spawn_Kill?$AA@ DB 'KAK_Harvester_Spawn_'
	DB	'Kill', 00H					; `string'
CONST	ENDS
;	COMDAT ??_7?$ScriptRegistrant@VKAK_Harvester_Spawn_Kill@@@@6B@
CONST	SEGMENT
??_7?$ScriptRegistrant@VKAK_Harvester_Spawn_Kill@@@@6B@ DD FLAT:??_R4?$ScriptRegistrant@VKAK_Harvester_Spawn_Kill@@@@6B@ ; ScriptRegistrant<KAK_Harvester_Spawn_Kill>::`vftable'
	DD	FLAT:??_E?$ScriptRegistrant@VKAK_Harvester_Spawn_Kill@@@@UAEPAXI@Z
	DD	FLAT:?Create@?$ScriptRegistrant@VKAK_Harvester_Spawn_Kill@@@@UAEPAVScriptImpClass@@XZ
CONST	ENDS
;	COMDAT ??_C@_0BD@FCMJOJCC@KAK_Harvester_Kill?$AA@
CONST	SEGMENT
??_C@_0BD@FCMJOJCC@KAK_Harvester_Kill?$AA@ DB 'KAK_Harvester_Kill', 00H ; `string'
CONST	ENDS
;	COMDAT ??_C@_0O@JHIFIFME@LogicID?$DN0?3int?$AA@
CONST	SEGMENT
??_C@_0O@JHIFIFME@LogicID?$DN0?3int?$AA@ DB 'LogicID=0:int', 00H ; `string'
CONST	ENDS
;	COMDAT ??_7?$ScriptRegistrant@VKAK_Harvester_Kill@@@@6B@
CONST	SEGMENT
??_7?$ScriptRegistrant@VKAK_Harvester_Kill@@@@6B@ DD FLAT:??_R4?$ScriptRegistrant@VKAK_Harvester_Kill@@@@6B@ ; ScriptRegistrant<KAK_Harvester_Kill>::`vftable'
	DD	FLAT:??_E?$ScriptRegistrant@VKAK_Harvester_Kill@@@@UAEPAXI@Z
	DD	FLAT:?Create@?$ScriptRegistrant@VKAK_Harvester_Kill@@@@UAEPAVScriptImpClass@@XZ
CONST	ENDS
;	COMDAT ??_C@_0BH@MGOHMKEP@KAK_Harvester_Attached?$AA@
CONST	SEGMENT
??_C@_0BH@MGOHMKEP@KAK_Harvester_Attached?$AA@ DB 'KAK_Harvester_Attached'
	DB	00H						; `string'
CONST	ENDS
;	COMDAT ??_C@_0BOD@BPEDADE@LogicID?$DN0?3int?0Number_Of_Paths?$DN0?3@
CONST	SEGMENT
??_C@_0BOD@BPEDADE@LogicID?$DN0?3int?0Number_Of_Paths?$DN0?3@ DB 'LogicID'
	DB	'=0:int,Number_Of_Paths=0:int,Waypath1_Dock2Field=0:int,Waypat'
	DB	'h1_Field2Dock=0:int,Waypath1_Tib_Zone:vector3,Waypath2_Dock2F'
	DB	'ield=0:int,Waypath2_Field2Dock=0:int,Waypath2_Tib_Zone:vector'
	DB	'3,Waypath3_Dock2Field=0:int,Waypath3_Field2Dock=0:int,Waypath'
	DB	'3_Tib_Zone:vector3,Harvest_Animation:string,Dock_Animation:st'
	DB	'ring,Tiberium_Idle_Time=45.00:float,Dock_Location:vector3,Doc'
	DB	'k_Idle_Time=10.00:float,Dock_Credits=400.00:float,Harvester_C'
	DB	'reate_Idle_Time=5.00:float,Crystal_Preset:string', 00H ; `string'
CONST	ENDS
;	COMDAT ??_7?$ScriptRegistrant@VKAK_Harvester_Attached@@@@6B@
CONST	SEGMENT
??_7?$ScriptRegistrant@VKAK_Harvester_Attached@@@@6B@ DD FLAT:??_R4?$ScriptRegistrant@VKAK_Harvester_Attached@@@@6B@ ; ScriptRegistrant<KAK_Harvester_Attached>::`vftable'
	DD	FLAT:??_E?$ScriptRegistrant@VKAK_Harvester_Attached@@@@UAEPAXI@Z
	DD	FLAT:?Create@?$ScriptRegistrant@VKAK_Harvester_Attached@@@@UAEPAVScriptImpClass@@XZ
CONST	ENDS
;	COMDAT ??_C@_0BE@NIGNDAJL@KAK_Harvester_Logic?$AA@
CONST	SEGMENT
??_C@_0BE@NIGNDAJL@KAK_Harvester_Logic?$AA@ DB 'KAK_Harvester_Logic', 00H ; `string'
CONST	ENDS
;	COMDAT ??_C@_0DA@CDKJAHLF@Harvester_Preset?3string?0Explosio@
CONST	SEGMENT
??_C@_0DA@CDKJAHLF@Harvester_Preset?3string?0Explosio@ DB 'Harvester_Pres'
	DB	'et:string,Explosion_Preset:string', 00H	; `string'
CONST	ENDS
;	COMDAT ??_7?$ScriptRegistrant@VKAK_Harvester_Logic@@@@6B@
CONST	SEGMENT
??_7?$ScriptRegistrant@VKAK_Harvester_Logic@@@@6B@ DD FLAT:??_R4?$ScriptRegistrant@VKAK_Harvester_Logic@@@@6B@ ; ScriptRegistrant<KAK_Harvester_Logic>::`vftable'
	DD	FLAT:??_E?$ScriptRegistrant@VKAK_Harvester_Logic@@@@UAEPAXI@Z
	DD	FLAT:?Create@?$ScriptRegistrant@VKAK_Harvester_Logic@@@@UAEPAVScriptImpClass@@XZ
CONST	ENDS
;	COMDAT ??_C@_0BM@BLLIHOHC@KAK_Select_Weapon_On_Pickup?$AA@
CONST	SEGMENT
??_C@_0BM@BLLIHOHC@KAK_Select_Weapon_On_Pickup?$AA@ DB 'KAK_Select_Weapon'
	DB	'_On_Pickup', 00H				; `string'
CONST	ENDS
;	COMDAT ??_C@_0BF@CLMANPKK@Weapon_Preset?3string?$AA@
CONST	SEGMENT
??_C@_0BF@CLMANPKK@Weapon_Preset?3string?$AA@ DB 'Weapon_Preset:string', 00H ; `string'
CONST	ENDS
;	COMDAT ??_7?$ScriptRegistrant@VKAK_Select_Weapon_On_Pickup@@@@6B@
CONST	SEGMENT
??_7?$ScriptRegistrant@VKAK_Select_Weapon_On_Pickup@@@@6B@ DD FLAT:??_R4?$ScriptRegistrant@VKAK_Select_Weapon_On_Pickup@@@@6B@ ; ScriptRegistrant<KAK_Select_Weapon_On_Pickup>::`vftable'
	DD	FLAT:??_E?$ScriptRegistrant@VKAK_Select_Weapon_On_Pickup@@@@UAEPAXI@Z
	DD	FLAT:?Create@?$ScriptRegistrant@VKAK_Select_Weapon_On_Pickup@@@@UAEPAVScriptImpClass@@XZ
CONST	ENDS
;	COMDAT ??_C@_0BH@DGOIHHIL@KAK_Select_Weapon_Zone?$AA@
CONST	SEGMENT
??_C@_0BH@DGOIHHIL@KAK_Select_Weapon_Zone?$AA@ DB 'KAK_Select_Weapon_Zone'
	DB	00H						; `string'
CONST	ENDS
;	COMDAT ??_C@_0DA@MNIMPFP@Weapon_Preset?3string?0OnEnter?$DN0?3i@
CONST	SEGMENT
??_C@_0DA@MNIMPFP@Weapon_Preset?3string?0OnEnter?$DN0?3i@ DB 'Weapon_Pres'
	DB	'et:string,OnEnter=0:int,OnExit=0:int', 00H	; `string'
CONST	ENDS
;	COMDAT ??_7?$ScriptRegistrant@VKAK_Select_Weapon_Zone@@@@6B@
CONST	SEGMENT
??_7?$ScriptRegistrant@VKAK_Select_Weapon_Zone@@@@6B@ DD FLAT:??_R4?$ScriptRegistrant@VKAK_Select_Weapon_Zone@@@@6B@ ; ScriptRegistrant<KAK_Select_Weapon_Zone>::`vftable'
	DD	FLAT:??_E?$ScriptRegistrant@VKAK_Select_Weapon_Zone@@@@UAEPAXI@Z
	DD	FLAT:?Create@?$ScriptRegistrant@VKAK_Select_Weapon_Zone@@@@UAEPAVScriptImpClass@@XZ
CONST	ENDS
;	COMDAT ??_C@_0BL@HAMNHGAH@KAK_Give_Powerup_On_Pickup?$AA@
CONST	SEGMENT
??_C@_0BL@HAMNHGAH@KAK_Give_Powerup_On_Pickup?$AA@ DB 'KAK_Give_Powerup_O'
	DB	'n_Pickup', 00H				; `string'
CONST	ENDS
;	COMDAT ??_C@_0BG@HNOGMJNM@Powerup_Preset?3string?$AA@
CONST	SEGMENT
??_C@_0BG@HNOGMJNM@Powerup_Preset?3string?$AA@ DB 'Powerup_Preset:string', 00H ; `string'
CONST	ENDS
;	COMDAT ??_7?$ScriptRegistrant@VKAK_Give_Powerup_On_Pickup@@@@6B@
CONST	SEGMENT
??_7?$ScriptRegistrant@VKAK_Give_Powerup_On_Pickup@@@@6B@ DD FLAT:??_R4?$ScriptRegistrant@VKAK_Give_Powerup_On_Pickup@@@@6B@ ; ScriptRegistrant<KAK_Give_Powerup_On_Pickup>::`vftable'
	DD	FLAT:??_E?$ScriptRegistrant@VKAK_Give_Powerup_On_Pickup@@@@UAEPAXI@Z
	DD	FLAT:?Create@?$ScriptRegistrant@VKAK_Give_Powerup_On_Pickup@@@@UAEPAVScriptImpClass@@XZ
CONST	ENDS
;	COMDAT ??_C@_0BE@MPGHJBD@KAK_Flowing_Weather?$AA@
CONST	SEGMENT
??_C@_0BE@MPGHJBD@KAK_Flowing_Weather?$AA@ DB 'KAK_Flowing_Weather', 00H ; `string'
CONST	ENDS
;	COMDAT ??_C@_0OI@LLEAHILO@Precipitation_Type?$DNRain?3string?0M@
CONST	SEGMENT
??_C@_0OI@LLEAHILO@Precipitation_Type?$DNRain?3string?0M@ DB 'Precipitati'
	DB	'on_Type=Rain:string,Minimum_Precipitation_Start=0.500:float,M'
	DB	'ax_Precipitation_Density=5.000:float,Minimum_Lightning_Start='
	DB	'0.850:float,Maximum_Lightning_Intensity=1.000:float,Wind_Vari'
	DB	'ablity=10.000:float,Speed=0.010:float', 00H	; `string'
CONST	ENDS
;	COMDAT ??_7?$ScriptRegistrant@VKAK_Flowing_Weather@@@@6B@
CONST	SEGMENT
??_7?$ScriptRegistrant@VKAK_Flowing_Weather@@@@6B@ DD FLAT:??_R4?$ScriptRegistrant@VKAK_Flowing_Weather@@@@6B@ ; ScriptRegistrant<KAK_Flowing_Weather>::`vftable'
	DD	FLAT:??_E?$ScriptRegistrant@VKAK_Flowing_Weather@@@@UAEPAXI@Z
	DD	FLAT:?Create@?$ScriptRegistrant@VKAK_Flowing_Weather@@@@UAEPAVScriptImpClass@@XZ
CONST	ENDS
;	COMDAT ??_C@_0BD@IFGLCMNP@KAK_Lightning_Zone?$AA@
CONST	SEGMENT
??_C@_0BD@IFGLCMNP@KAK_Lightning_Zone?$AA@ DB 'KAK_Lightning_Zone', 00H ; `string'
CONST	ENDS
;	COMDAT ??_C@_0MC@ONBPNCF@Lightning_Intensity?$DN0?4000?3float?0@
CONST	SEGMENT
??_C@_0MC@ONBPNCF@Lightning_Intensity?$DN0?4000?3float?0@ DB 'Lightning_I'
	DB	'ntensity=0.000:float,Start_Distance=0.000:float,End_Distance='
	DB	'1.000:float,Lightning_Heading=0.000:float,Lightning_Distribut'
	DB	'ion=1.000:float,Delay=0.000:float,OnEnter=0:int,OnExit=0:int', 00H ; `string'
CONST	ENDS
;	COMDAT ??_7?$ScriptRegistrant@VKAK_Lightning_Zone@@@@6B@
CONST	SEGMENT
??_7?$ScriptRegistrant@VKAK_Lightning_Zone@@@@6B@ DD FLAT:??_R4?$ScriptRegistrant@VKAK_Lightning_Zone@@@@6B@ ; ScriptRegistrant<KAK_Lightning_Zone>::`vftable'
	DD	FLAT:??_E?$ScriptRegistrant@VKAK_Lightning_Zone@@@@UAEPAXI@Z
	DD	FLAT:?Create@?$ScriptRegistrant@VKAK_Lightning_Zone@@@@UAEPAVScriptImpClass@@XZ
CONST	ENDS
;	COMDAT ??_C@_0BF@MKLGABCI@KAK_Lightning_Create?$AA@
CONST	SEGMENT
??_C@_0BF@MKLGABCI@KAK_Lightning_Create?$AA@ DB 'KAK_Lightning_Create', 00H ; `string'
CONST	ENDS
;	COMDAT ??_C@_0MG@BLKPHBPH@Lightning_Intensity?$DN0?4000?3float?0@
CONST	SEGMENT
??_C@_0MG@BLKPHBPH@Lightning_Intensity?$DN0?4000?3float?0@ DB 'Lightning_'
	DB	'Intensity=0.000:float,Start_Distance=0.000:float,End_Distance'
	DB	'=1.000:float,Lightning_Heading=0.000:float,Lightning_Distribu'
	DB	'tion=1.000:float,Delay=0.000:float,OnCreate=0:int,OnDestroy=0'
	DB	':int', 00H					; `string'
CONST	ENDS
;	COMDAT ??_7?$ScriptRegistrant@VKAK_Lightning_Create@@@@6B@
CONST	SEGMENT
??_7?$ScriptRegistrant@VKAK_Lightning_Create@@@@6B@ DD FLAT:??_R4?$ScriptRegistrant@VKAK_Lightning_Create@@@@6B@ ; ScriptRegistrant<KAK_Lightning_Create>::`vftable'
	DD	FLAT:??_E?$ScriptRegistrant@VKAK_Lightning_Create@@@@UAEPAXI@Z
	DD	FLAT:?Create@?$ScriptRegistrant@VKAK_Lightning_Create@@@@UAEPAVScriptImpClass@@XZ
CONST	ENDS
;	COMDAT ??_C@_0BA@IMKNMIJK@KAK_Clouds_Zone?$AA@
CONST	SEGMENT
??_C@_0BA@IMKNMIJK@KAK_Clouds_Zone?$AA@ DB 'KAK_Clouds_Zone', 00H ; `string'
CONST	ENDS
;	COMDAT ??_C@_0GC@GMHBCDPO@Cloud_Cover?$DN0?4000?3float?0Cloud_Gl@
CONST	SEGMENT
??_C@_0GC@GMHBCDPO@Cloud_Cover?$DN0?4000?3float?0Cloud_Gl@ DB 'Cloud_Cove'
	DB	'r=0.000:float,Cloud_Gloominess=0.000:float,Delay=0.000:float,'
	DB	'OnEnter=0:int,OnExit=0:int', 00H		; `string'
CONST	ENDS
;	COMDAT ??_7?$ScriptRegistrant@VKAK_Clouds_Zone@@@@6B@
CONST	SEGMENT
??_7?$ScriptRegistrant@VKAK_Clouds_Zone@@@@6B@ DD FLAT:??_R4?$ScriptRegistrant@VKAK_Clouds_Zone@@@@6B@ ; ScriptRegistrant<KAK_Clouds_Zone>::`vftable'
	DD	FLAT:??_E?$ScriptRegistrant@VKAK_Clouds_Zone@@@@UAEPAXI@Z
	DD	FLAT:?Create@?$ScriptRegistrant@VKAK_Clouds_Zone@@@@UAEPAVScriptImpClass@@XZ
CONST	ENDS
;	COMDAT ??_C@_0BC@OANPJFMP@KAK_Clouds_Create?$AA@
CONST	SEGMENT
??_C@_0BC@OANPJFMP@KAK_Clouds_Create?$AA@ DB 'KAK_Clouds_Create', 00H ; `string'
CONST	ENDS
;	COMDAT ??_C@_0GG@GAFGOLMI@Cloud_Cover?$DN0?4000?3float?0Cloud_Gl@
CONST	SEGMENT
??_C@_0GG@GAFGOLMI@Cloud_Cover?$DN0?4000?3float?0Cloud_Gl@ DB 'Cloud_Cove'
	DB	'r=0.000:float,Cloud_Gloominess=0.000:float,Delay=0.000:float,'
	DB	'OnCreate=0:int,OnDestroy=0:int', 00H	; `string'
CONST	ENDS
;	COMDAT ??_7?$ScriptRegistrant@VKAK_Clouds_Create@@@@6B@
CONST	SEGMENT
??_7?$ScriptRegistrant@VKAK_Clouds_Create@@@@6B@ DD FLAT:??_R4?$ScriptRegistrant@VKAK_Clouds_Create@@@@6B@ ; ScriptRegistrant<KAK_Clouds_Create>::`vftable'
	DD	FLAT:??_E?$ScriptRegistrant@VKAK_Clouds_Create@@@@UAEPAXI@Z
	DD	FLAT:?Create@?$ScriptRegistrant@VKAK_Clouds_Create@@@@UAEPAVScriptImpClass@@XZ
CONST	ENDS
;	COMDAT ??_C@_0O@ENAELLHC@KAK_Wind_Zone?$AA@
CONST	SEGMENT
??_C@_0O@ENAELLHC@KAK_Wind_Zone?$AA@ DB 'KAK_Wind_Zone', 00H ; `string'
CONST	ENDS
;	COMDAT ??_C@_0HK@FLIEHMGJ@Wind_Heading?$DN0?4000?3float?0Wind_Sp@
CONST	SEGMENT
??_C@_0HK@FLIEHMGJ@Wind_Heading?$DN0?4000?3float?0Wind_Sp@ DB 'Wind_Headi'
	DB	'ng=0.000:float,Wind_Speed=0.000:float,Wind_Variability=0.000:'
	DB	'float,Delay=0.000:float,OnEnter=0:int,OnExit=0:int', 00H ; `string'
CONST	ENDS
;	COMDAT ??_7?$ScriptRegistrant@VKAK_Wind_Zone@@@@6B@
CONST	SEGMENT
??_7?$ScriptRegistrant@VKAK_Wind_Zone@@@@6B@ DD FLAT:??_R4?$ScriptRegistrant@VKAK_Wind_Zone@@@@6B@ ; ScriptRegistrant<KAK_Wind_Zone>::`vftable'
	DD	FLAT:??_E?$ScriptRegistrant@VKAK_Wind_Zone@@@@UAEPAXI@Z
	DD	FLAT:?Create@?$ScriptRegistrant@VKAK_Wind_Zone@@@@UAEPAVScriptImpClass@@XZ
CONST	ENDS
;	COMDAT ??_C@_0BA@LPHEANAE@KAK_Wind_Create?$AA@
CONST	SEGMENT
??_C@_0BA@LPHEANAE@KAK_Wind_Create?$AA@ DB 'KAK_Wind_Create', 00H ; `string'
CONST	ENDS
;	COMDAT ??_C@_0HO@PGFHOLKP@Wind_Heading?$DN0?4000?3float?0Wind_Sp@
CONST	SEGMENT
??_C@_0HO@PGFHOLKP@Wind_Heading?$DN0?4000?3float?0Wind_Sp@ DB 'Wind_Headi'
	DB	'ng=0.000:float,Wind_Speed=0.000:float,Wind_Variability=0.000:'
	DB	'float,Delay=0.000:float,OnCreate=0:int,OnDestroy=0:int', 00H ; `string'
CONST	ENDS
;	COMDAT ??_7?$ScriptRegistrant@VKAK_Wind_Create@@@@6B@
CONST	SEGMENT
??_7?$ScriptRegistrant@VKAK_Wind_Create@@@@6B@ DD FLAT:??_R4?$ScriptRegistrant@VKAK_Wind_Create@@@@6B@ ; ScriptRegistrant<KAK_Wind_Create>::`vftable'
	DD	FLAT:??_E?$ScriptRegistrant@VKAK_Wind_Create@@@@UAEPAXI@Z
	DD	FLAT:?Create@?$ScriptRegistrant@VKAK_Wind_Create@@@@UAEPAVScriptImpClass@@XZ
CONST	ENDS
;	COMDAT ??_C@_0BH@KPLJEOJE@KAK_Precipitation_Zone?$AA@
CONST	SEGMENT
??_C@_0BH@KPLJEOJE@KAK_Precipitation_Zone?$AA@ DB 'KAK_Precipitation_Zone'
	DB	00H						; `string'
CONST	ENDS
;	COMDAT ??_C@_0GM@EIJKKLPI@Type?$DNRain?3string?0Density?$DN0?4000?3f@
CONST	SEGMENT
??_C@_0GM@EIJKKLPI@Type?$DNRain?3string?0Density?$DN0?4000?3f@ DB 'Type=R'
	DB	'ain:string,Density=0.000:float,Delay=0.000:float,Reset_Precip'
	DB	'itation=0:int,OnEnter=0:int,OnExit=0:int', 00H ; `string'
CONST	ENDS
;	COMDAT ??_7?$ScriptRegistrant@VKAK_Precipitation_Zone@@@@6B@
CONST	SEGMENT
??_7?$ScriptRegistrant@VKAK_Precipitation_Zone@@@@6B@ DD FLAT:??_R4?$ScriptRegistrant@VKAK_Precipitation_Zone@@@@6B@ ; ScriptRegistrant<KAK_Precipitation_Zone>::`vftable'
	DD	FLAT:??_E?$ScriptRegistrant@VKAK_Precipitation_Zone@@@@UAEPAXI@Z
	DD	FLAT:?Create@?$ScriptRegistrant@VKAK_Precipitation_Zone@@@@UAEPAVScriptImpClass@@XZ
CONST	ENDS
;	COMDAT ??_C@_0BJ@HKIHLNEA@KAK_Precipitation_Create?$AA@
CONST	SEGMENT
??_C@_0BJ@HKIHLNEA@KAK_Precipitation_Create?$AA@ DB 'KAK_Precipitation_Cr'
	DB	'eate', 00H					; `string'
CONST	ENDS
;	COMDAT ??_C@_0HA@CLJCDANK@Type?$DNRain?3string?0Density?$DN0?4000?3f@
CONST	SEGMENT
??_C@_0HA@CLJCDANK@Type?$DNRain?3string?0Density?$DN0?4000?3f@ DB 'Type=R'
	DB	'ain:string,Density=0.000:float,Delay=0.000:float,Reset_Precip'
	DB	'itation=0:int,OnCreate=0:int,OnDestroy=0:int', 00H ; `string'
CONST	ENDS
;	COMDAT ??_7?$ScriptRegistrant@VKAK_Precipitation_Create@@@@6B@
CONST	SEGMENT
??_7?$ScriptRegistrant@VKAK_Precipitation_Create@@@@6B@ DD FLAT:??_R4?$ScriptRegistrant@VKAK_Precipitation_Create@@@@6B@ ; ScriptRegistrant<KAK_Precipitation_Create>::`vftable'
	DD	FLAT:??_E?$ScriptRegistrant@VKAK_Precipitation_Create@@@@UAEPAXI@Z
	DD	FLAT:?Create@?$ScriptRegistrant@VKAK_Precipitation_Create@@@@UAEPAVScriptImpClass@@XZ
CONST	ENDS
;	COMDAT ??_C@_0BD@BMMOEDIN@KAK_Warp_On_Pickup?$AA@
CONST	SEGMENT
??_C@_0BD@BMMOEDIN@KAK_Warp_On_Pickup?$AA@ DB 'KAK_Warp_On_Pickup', 00H ; `string'
CONST	ENDS
;	COMDAT ??_C@_0BB@HHHFHKMF@Position?3vector3?$AA@
CONST	SEGMENT
??_C@_0BB@HHHFHKMF@Position?3vector3?$AA@ DB 'Position:vector3', 00H ; `string'
CONST	ENDS
;	COMDAT ??_7?$ScriptRegistrant@VKAK_Warp_On_Pickup@@@@6B@
CONST	SEGMENT
??_7?$ScriptRegistrant@VKAK_Warp_On_Pickup@@@@6B@ DD FLAT:??_R4?$ScriptRegistrant@VKAK_Warp_On_Pickup@@@@6B@ ; ScriptRegistrant<KAK_Warp_On_Pickup>::`vftable'
	DD	FLAT:??_E?$ScriptRegistrant@VKAK_Warp_On_Pickup@@@@UAEPAXI@Z
	DD	FLAT:?Create@?$ScriptRegistrant@VKAK_Warp_On_Pickup@@@@UAEPAVScriptImpClass@@XZ
CONST	ENDS
;	COMDAT ??_C@_06GGDALCBD@Health?$AA@
CONST	SEGMENT
??_C@_06GGDALCBD@Health?$AA@ DB 'Health', 00H		; `string'
CONST	ENDS
;	COMDAT ??_C@_08KDKDEPAG@Interval?$AA@
CONST	SEGMENT
??_C@_08KDKDEPAG@Interval?$AA@ DB 'Interval', 00H	; `string'
CONST	ENDS
;	COMDAT ??_C@_04OKOFBOPB@Time?$AA@
CONST	SEGMENT
??_C@_04OKOFBOPB@Time?$AA@ DB 'Time', 00H		; `string'
CONST	ENDS
;	COMDAT ??_C@_0BK@IDCCMNDN@Weapon_ChemSprayer_Player?$AA@
CONST	SEGMENT
??_C@_0BK@IDCCMNDN@Weapon_ChemSprayer_Player?$AA@ DB 'Weapon_ChemSprayer_'
	DB	'Player', 00H				; `string'
CONST	ENDS
;	COMDAT ??_C@_0BF@DPHCPFOB@CnC_POW_Ammo_ClipMax?$AA@
CONST	SEGMENT
??_C@_0BF@DPHCPFOB@CnC_POW_Ammo_ClipMax?$AA@ DB 'CnC_POW_Ammo_ClipMax', 00H ; `string'
CONST	ENDS
;	COMDAT ??_C@_0L@JBGDILLN@SkinMutant?$AA@
CONST	SEGMENT
??_C@_0L@JBGDILLN@SkinMutant?$AA@ DB 'SkinMutant', 00H	; `string'
CONST	ENDS
;	COMDAT ??_C@_0BH@IEBFNIJ@POW_ChemSprayer_Player?$AA@
CONST	SEGMENT
??_C@_0BH@IEBFNIJ@POW_ChemSprayer_Player?$AA@ DB 'POW_ChemSprayer_Player', 00H ; `string'
CONST	ENDS
;	COMDAT ??_C@_0M@FNEPDILO@c_visceroid?$AA@
CONST	SEGMENT
??_C@_0M@FNEPDILO@c_visceroid?$AA@ DB 'c_visceroid', 00H ; `string'
CONST	ENDS
;	COMDAT ??_C@_0BL@OHNGLKLD@Harvester_Create_Idle_Time?$AA@
CONST	SEGMENT
??_C@_0BL@OHNGLKLD@Harvester_Create_Idle_Time?$AA@ DB 'Harvester_Create_I'
	DB	'dle_Time', 00H				; `string'
CONST	ENDS
;	COMDAT ??_C@_0N@GDAJCJHI@Dock_Credits?$AA@
CONST	SEGMENT
??_C@_0N@GDAJCJHI@Dock_Credits?$AA@ DB 'Dock_Credits', 00H ; `string'
CONST	ENDS
;	COMDAT ??_C@_0BE@MLGKHKKK@Waypath3_Field2Dock?$AA@
CONST	SEGMENT
??_C@_0BE@MLGKHKKK@Waypath3_Field2Dock?$AA@ DB 'Waypath3_Field2Dock', 00H ; `string'
CONST	ENDS
;	COMDAT ??_C@_0BE@BGPMKDCP@Waypath2_Field2Dock?$AA@
CONST	SEGMENT
??_C@_0BE@BGPMKDCP@Waypath2_Field2Dock?$AA@ DB 'Waypath2_Field2Dock', 00H ; `string'
CONST	ENDS
;	COMDAT ??_C@_0BE@KLDGMPOB@Waypath1_Field2Dock?$AA@
CONST	SEGMENT
??_C@_0BE@KLDGMPOB@Waypath1_Field2Dock?$AA@ DB 'Waypath1_Field2Dock', 00H ; `string'
CONST	ENDS
;	COMDAT ??_C@_0P@KAFHAIOI@Dock_Idle_Time?$AA@
CONST	SEGMENT
??_C@_0P@KAFHAIOI@Dock_Idle_Time?$AA@ DB 'Dock_Idle_Time', 00H ; `string'
CONST	ENDS
;	COMDAT ??_C@_0P@ECGAMGPN@Dock_Animation?$AA@
CONST	SEGMENT
??_C@_0P@ECGAMGPN@Dock_Animation?$AA@ DB 'Dock_Animation', 00H ; `string'
CONST	ENDS
;	COMDAT ??_C@_0O@IBOGHPMJ@Dock_Location?$AA@
CONST	SEGMENT
??_C@_0O@IBOGHPMJ@Dock_Location?$AA@ DB 'Dock_Location', 00H ; `string'
CONST	ENDS
;	COMDAT ??_C@_0BD@MOHLNDH@Tiberium_Idle_Time?$AA@
CONST	SEGMENT
??_C@_0BD@MOHLNDH@Tiberium_Idle_Time?$AA@ DB 'Tiberium_Idle_Time', 00H ; `string'
CONST	ENDS
;	COMDAT ??_C@_0BC@IPGMMAIA@Harvest_Animation?$AA@
CONST	SEGMENT
??_C@_0BC@IPGMMAIA@Harvest_Animation?$AA@ DB 'Harvest_Animation', 00H ; `string'
CONST	ENDS
;	COMDAT ??_C@_0P@JILJGFHC@Crystal_Preset?$AA@
CONST	SEGMENT
??_C@_0P@JILJGFHC@Crystal_Preset?$AA@ DB 'Crystal_Preset', 00H ; `string'
CONST	ENDS
;	COMDAT ??_C@_01GBGANLPD@0?$AA@
CONST	SEGMENT
??_C@_01GBGANLPD@0?$AA@ DB '0', 00H			; `string'
CONST	ENDS
;	COMDAT ??_C@_0BC@OLHOHKBI@Waypath3_Tib_Zone?$AA@
CONST	SEGMENT
??_C@_0BC@OLHOHKBI@Waypath3_Tib_Zone?$AA@ DB 'Waypath3_Tib_Zone', 00H ; `string'
CONST	ENDS
;	COMDAT ??_C@_0BE@ONFJAAMG@Waypath3_Dock2Field?$AA@
CONST	SEGMENT
??_C@_0BE@ONFJAAMG@Waypath3_Dock2Field?$AA@ DB 'Waypath3_Dock2Field', 00H ; `string'
CONST	ENDS
;	COMDAT ??_C@_0BC@CKPAKFNI@Waypath2_Tib_Zone?$AA@
CONST	SEGMENT
??_C@_0BC@CKPAKFNI@Waypath2_Tib_Zone?$AA@ DB 'Waypath2_Tib_Zone', 00H ; `string'
CONST	ENDS
;	COMDAT ??_C@_0BE@DAMPNJED@Waypath2_Dock2Field?$AA@
CONST	SEGMENT
??_C@_0BE@DAMPNJED@Waypath2_Dock2Field?$AA@ DB 'Waypath2_Dock2Field', 00H ; `string'
CONST	ENDS
;	COMDAT ??_C@_0BC@LDBCMDNJ@Waypath1_Tib_Zone?$AA@
CONST	SEGMENT
??_C@_0BC@LDBCMDNJ@Waypath1_Tib_Zone?$AA@ DB 'Waypath1_Tib_Zone', 00H ; `string'
CONST	ENDS
;	COMDAT ??_C@_0BE@INAFLFIN@Waypath1_Dock2Field?$AA@
CONST	SEGMENT
??_C@_0BE@INAFLFIN@Waypath1_Dock2Field?$AA@ DB 'Waypath1_Dock2Field', 00H ; `string'
CONST	ENDS
;	COMDAT ??_C@_0BA@OPCOEAIM@Number_Of_Paths?$AA@
CONST	SEGMENT
??_C@_0BA@OPCOEAIM@Number_Of_Paths?$AA@ DB 'Number_Of_Paths', 00H ; `string'
CONST	ENDS
;	COMDAT ??_C@_07NKAPIFEF@LogicID?$AA@
CONST	SEGMENT
??_C@_07NKAPIFEF@LogicID?$AA@ DB 'LogicID', 00H		; `string'
CONST	ENDS
;	COMDAT ??_C@_09IGNDJJLI@Explosive?$AA@
CONST	SEGMENT
??_C@_09IGNDJJLI@Explosive?$AA@ DB 'Explosive', 00H	; `string'
CONST	ENDS
;	COMDAT ??_C@_0BB@IFFOHCMO@Harvester_Preset?$AA@
CONST	SEGMENT
??_C@_0BB@IFFOHCMO@Harvester_Preset?$AA@ DB 'Harvester_Preset', 00H ; `string'
CONST	ENDS
;	COMDAT ??_C@_0BB@LCFEHILM@Explosion_Preset?$AA@
CONST	SEGMENT
??_C@_0BB@LCFEHILM@Explosion_Preset?$AA@ DB 'Explosion_Preset', 00H ; `string'
CONST	ENDS
;	COMDAT ??_C@_0O@ECOIBPBG@Weapon_Preset?$AA@
CONST	SEGMENT
??_C@_0O@ECOIBPBG@Weapon_Preset?$AA@ DB 'Weapon_Preset', 00H ; `string'
CONST	ENDS
;	COMDAT ??_C@_0P@IJCJMCGL@Powerup_Preset?$AA@
CONST	SEGMENT
??_C@_0P@IJCJMCGL@Powerup_Preset?$AA@ DB 'Powerup_Preset', 00H ; `string'
CONST	ENDS
;	COMDAT ??_C@_0BM@HHFDIBH@Maximum_Lightning_Intensity?$AA@
CONST	SEGMENT
??_C@_0BM@HHFDIBH@Maximum_Lightning_Intensity?$AA@ DB 'Maximum_Lightning_'
	DB	'Intensity', 00H				; `string'
CONST	ENDS
;	COMDAT ??_C@_0BI@EBKFDMDF@Minimum_Lightning_Start?$AA@
CONST	SEGMENT
??_C@_0BI@EBKFDMDF@Minimum_Lightning_Start?$AA@ DB 'Minimum_Lightning_Sta'
	DB	'rt', 00H					; `string'
CONST	ENDS
;	COMDAT ??_C@_0BD@HGLHACLN@Precipitation_Type?$AA@
CONST	SEGMENT
??_C@_0BD@HGLHACLN@Precipitation_Type?$AA@ DB 'Precipitation_Type', 00H ; `string'
CONST	ENDS
;	COMDAT ??_C@_0BK@LJMEGGON@Max_Precipitation_Density?$AA@
CONST	SEGMENT
??_C@_0BK@LJMEGGON@Max_Precipitation_Density?$AA@ DB 'Max_Precipitation_D'
	DB	'ensity', 00H				; `string'
CONST	ENDS
;	COMDAT ??_C@_0BM@CPNJJFEI@Minimum_Precipitation_Start?$AA@
CONST	SEGMENT
??_C@_0BM@CPNJJFEI@Minimum_Precipitation_Start?$AA@ DB 'Minimum_Precipita'
	DB	'tion_Start', 00H				; `string'
CONST	ENDS
;	COMDAT ??_C@_0BA@LFIAJIDH@Wind_Variablity?$AA@
CONST	SEGMENT
??_C@_0BA@LFIAJIDH@Wind_Variablity?$AA@ DB 'Wind_Variablity', 00H ; `string'
CONST	ENDS
;	COMDAT ??_C@_05HOIAGEJD@Speed?$AA@
CONST	SEGMENT
??_C@_05HOIAGEJD@Speed?$AA@ DB 'Speed', 00H		; `string'
CONST	ENDS
;	COMDAT ??_C@_0BE@JFAOEINL@Lightning_Intensity?$AA@
CONST	SEGMENT
??_C@_0BE@JFAOEINL@Lightning_Intensity?$AA@ DB 'Lightning_Intensity', 00H ; `string'
CONST	ENDS
;	COMDAT ??_C@_0P@HFKCPGKF@Start_Distance?$AA@
CONST	SEGMENT
??_C@_0P@HFKCPGKF@Start_Distance?$AA@ DB 'Start_Distance', 00H ; `string'
CONST	ENDS
;	COMDAT ??_C@_0N@BFABEEAA@End_Distance?$AA@
CONST	SEGMENT
??_C@_0N@BFABEEAA@End_Distance?$AA@ DB 'End_Distance', 00H ; `string'
CONST	ENDS
;	COMDAT ??_C@_0BC@OJKEJCIP@Lightning_Heading?$AA@
CONST	SEGMENT
??_C@_0BC@OJKEJCIP@Lightning_Heading?$AA@ DB 'Lightning_Heading', 00H ; `string'
CONST	ENDS
;	COMDAT ??_C@_0BH@OELIOJDP@Lightning_Distribution?$AA@
CONST	SEGMENT
??_C@_0BH@OELIOJDP@Lightning_Distribution?$AA@ DB 'Lightning_Distribution'
	DB	00H						; `string'
CONST	ENDS
;	COMDAT ??_C@_0M@NBCMDLG@Cloud_Cover?$AA@
CONST	SEGMENT
??_C@_0M@NBCMDLG@Cloud_Cover?$AA@ DB 'Cloud_Cover', 00H	; `string'
CONST	ENDS
;	COMDAT ??_C@_0BB@FNAMBFPI@Cloud_Gloominess?$AA@
CONST	SEGMENT
??_C@_0BB@FNAMBFPI@Cloud_Gloominess?$AA@ DB 'Cloud_Gloominess', 00H ; `string'
CONST	ENDS
;	COMDAT ??_C@_0N@OEPLFNPF@Wind_Heading?$AA@
CONST	SEGMENT
??_C@_0N@OEPLFNPF@Wind_Heading?$AA@ DB 'Wind_Heading', 00H ; `string'
CONST	ENDS
;	COMDAT ??_C@_0L@MNCPPOOI@Wind_Speed?$AA@
CONST	SEGMENT
??_C@_0L@MNCPPOOI@Wind_Speed?$AA@ DB 'Wind_Speed', 00H	; `string'
CONST	ENDS
;	COMDAT ??_C@_0BB@HEHDOFPK@Wind_Variability?$AA@
CONST	SEGMENT
??_C@_0BB@HEHDOFPK@Wind_Variability?$AA@ DB 'Wind_Variability', 00H ; `string'
CONST	ENDS
;	COMDAT ??_C@_06NAODFICM@OnExit?$AA@
CONST	SEGMENT
??_C@_06NAODFICM@OnExit?$AA@ DB 'OnExit', 00H		; `string'
CONST	ENDS
;	COMDAT ??_C@_07HPDGLAOI@OnEnter?$AA@
CONST	SEGMENT
??_C@_07HPDGLAOI@OnEnter?$AA@ DB 'OnEnter', 00H		; `string'
CONST	ENDS
;	COMDAT ??_C@_09GOJICBBC@OnDestroy?$AA@
CONST	SEGMENT
??_C@_09GOJICBBC@OnDestroy?$AA@ DB 'OnDestroy', 00H	; `string'
CONST	ENDS
;	COMDAT ??_C@_04EEOMLCKJ@Rain?$AA@
CONST	SEGMENT
??_C@_04EEOMLCKJ@Rain?$AA@ DB 'Rain', 00H		; `string'
CONST	ENDS
;	COMDAT ??_C@_03GIACIBN@Ash?$AA@
CONST	SEGMENT
??_C@_03GIACIBN@Ash?$AA@ DB 'Ash', 00H			; `string'
CONST	ENDS
;	COMDAT ??_C@_07IJCDMBEM@Density?$AA@
CONST	SEGMENT
??_C@_07IJCDMBEM@Density?$AA@ DB 'Density', 00H		; `string'
CONST	ENDS
;	COMDAT ??_C@_04KOACHJEN@Type?$AA@
CONST	SEGMENT
??_C@_04KOACHJEN@Type?$AA@ DB 'Type', 00H		; `string'
CONST	ENDS
;	COMDAT ??_C@_04LOGCFOOF@Snow?$AA@
CONST	SEGMENT
??_C@_04LOGCFOOF@Snow?$AA@ DB 'Snow', 00H		; `string'
CONST	ENDS
;	COMDAT ??_C@_0BE@HAKIIGCL@Reset_Precipitation?$AA@
CONST	SEGMENT
??_C@_0BE@HAKIIGCL@Reset_Precipitation?$AA@ DB 'Reset_Precipitation', 00H ; `string'
CONST	ENDS
;	COMDAT ??_C@_05ENDOMFAI@Delay?$AA@
CONST	SEGMENT
??_C@_05ENDOMFAI@Delay?$AA@ DB 'Delay', 00H		; `string'
CONST	ENDS
;	COMDAT ??_C@_08HHIPGBBF@OnCreate?$AA@
CONST	SEGMENT
??_C@_08HHIPGBBF@OnCreate?$AA@ DB 'OnCreate', 00H	; `string'
CONST	ENDS
;	COMDAT ??_C@_08GCJNLIKG@Position?$AA@
CONST	SEGMENT
??_C@_08GCJNLIKG@Position?$AA@ DB 'Position', 00H	; `string'
CONST	ENDS
;	COMDAT ??_7KAK_Regen_Custom@@6B@
CONST	SEGMENT
??_7KAK_Regen_Custom@@6B@ DD FLAT:??_R4KAK_Regen_Custom@@6B@ ; KAK_Regen_Custom::`vftable'
	DD	FLAT:??_EKAK_Regen_Custom@@UAEPAXI@Z
	DD	FLAT:?Get_Name@ScriptImpClass@@UAEPBDXZ
	DD	FLAT:?Attach@ScriptImpClass@@MAEXPAVScriptableGameObj@@@Z
	DD	FLAT:?Detach@ScriptImpClass@@MAEXPAVScriptableGameObj@@@Z
	DD	FLAT:?Created@KAK_Regen_Custom@@EAEXPAVScriptableGameObj@@@Z
	DD	FLAT:?Destroyed@ScriptImpClass@@UAEXPAVScriptableGameObj@@@Z
	DD	FLAT:?Killed@ScriptImpClass@@UAEXPAVScriptableGameObj@@0@Z
	DD	FLAT:?Damaged@ScriptImpClass@@UAEXPAVScriptableGameObj@@0M@Z
	DD	FLAT:?Custom@KAK_Regen_Custom@@EAEXPAVScriptableGameObj@@HH0@Z
	DD	FLAT:?Sound_Heard@ScriptImpClass@@UAEXPAVScriptableGameObj@@ABUCombatSound@@@Z
	DD	FLAT:?Enemy_Seen@ScriptImpClass@@UAEXPAVScriptableGameObj@@0@Z
	DD	FLAT:?Action_Complete@ScriptImpClass@@UAEXPAVScriptableGameObj@@HW4ActionCompleteReason@@@Z
	DD	FLAT:?Timer_Expired@KAK_Regen_Custom@@EAEXPAVScriptableGameObj@@H@Z
	DD	FLAT:?Animation_Complete@ScriptImpClass@@UAEXPAVScriptableGameObj@@PBD@Z
	DD	FLAT:?Poked@ScriptImpClass@@UAEXPAVScriptableGameObj@@0@Z
	DD	FLAT:?Entered@ScriptImpClass@@UAEXPAVScriptableGameObj@@0@Z
	DD	FLAT:?Exited@ScriptImpClass@@UAEXPAVScriptableGameObj@@0@Z
	DD	FLAT:?Owner@ScriptImpClass@@UAEPAVScriptableGameObj@@XZ
	DD	FLAT:?Get_Owner_Ptr@ScriptImpClass@@UAEPAPAVScriptableGameObj@@XZ
	DD	FLAT:?Set_Parameters_String@ScriptImpClass@@UAEXPBD@Z
	DD	FLAT:?Get_Parameters_String@ScriptImpClass@@UAEXPADI@Z
	DD	FLAT:?Save@ScriptImpClass@@MAEXAAVScriptSaver@@@Z
	DD	FLAT:?Load@ScriptImpClass@@MAEXAAVScriptLoader@@@Z
	DD	FLAT:?Save_Data@ScriptImpClass@@UAEXAAVScriptSaver@@@Z
	DD	FLAT:?Load_Data@ScriptImpClass@@UAEXAAVScriptLoader@@@Z
	DD	FLAT:?Register_Auto_Save_Variables@ScriptImpClass@@UAEXXZ
CONST	ENDS
;	COMDAT ??_7KAK_Freeze_Object@@6B@
CONST	SEGMENT
??_7KAK_Freeze_Object@@6B@ DD FLAT:??_R4KAK_Freeze_Object@@6B@ ; KAK_Freeze_Object::`vftable'
	DD	FLAT:??_EKAK_Freeze_Object@@UAEPAXI@Z
	DD	FLAT:?Get_Name@ScriptImpClass@@UAEPBDXZ
	DD	FLAT:?Attach@ScriptImpClass@@MAEXPAVScriptableGameObj@@@Z
	DD	FLAT:?Detach@ScriptImpClass@@MAEXPAVScriptableGameObj@@@Z
	DD	FLAT:?Created@KAK_Freeze_Object@@EAEXPAVScriptableGameObj@@@Z
	DD	FLAT:?Destroyed@ScriptImpClass@@UAEXPAVScriptableGameObj@@@Z
	DD	FLAT:?Killed@ScriptImpClass@@UAEXPAVScriptableGameObj@@0@Z
	DD	FLAT:?Damaged@ScriptImpClass@@UAEXPAVScriptableGameObj@@0M@Z
	DD	FLAT:?Custom@KAK_Freeze_Object@@EAEXPAVScriptableGameObj@@HH0@Z
	DD	FLAT:?Sound_Heard@ScriptImpClass@@UAEXPAVScriptableGameObj@@ABUCombatSound@@@Z
	DD	FLAT:?Enemy_Seen@ScriptImpClass@@UAEXPAVScriptableGameObj@@0@Z
	DD	FLAT:?Action_Complete@ScriptImpClass@@UAEXPAVScriptableGameObj@@HW4ActionCompleteReason@@@Z
	DD	FLAT:?Timer_Expired@KAK_Freeze_Object@@EAEXPAVScriptableGameObj@@H@Z
	DD	FLAT:?Animation_Complete@ScriptImpClass@@UAEXPAVScriptableGameObj@@PBD@Z
	DD	FLAT:?Poked@ScriptImpClass@@UAEXPAVScriptableGameObj@@0@Z
	DD	FLAT:?Entered@ScriptImpClass@@UAEXPAVScriptableGameObj@@0@Z
	DD	FLAT:?Exited@ScriptImpClass@@UAEXPAVScriptableGameObj@@0@Z
	DD	FLAT:?Owner@ScriptImpClass@@UAEPAVScriptableGameObj@@XZ
	DD	FLAT:?Get_Owner_Ptr@ScriptImpClass@@UAEPAPAVScriptableGameObj@@XZ
	DD	FLAT:?Set_Parameters_String@ScriptImpClass@@UAEXPBD@Z
	DD	FLAT:?Get_Parameters_String@ScriptImpClass@@UAEXPADI@Z
	DD	FLAT:?Save@ScriptImpClass@@MAEXAAVScriptSaver@@@Z
	DD	FLAT:?Load@ScriptImpClass@@MAEXAAVScriptLoader@@@Z
	DD	FLAT:?Save_Data@ScriptImpClass@@UAEXAAVScriptSaver@@@Z
	DD	FLAT:?Load_Data@ScriptImpClass@@UAEXAAVScriptLoader@@@Z
	DD	FLAT:?Register_Auto_Save_Variables@KAK_Freeze_Object@@UAEXXZ
CONST	ENDS
;	COMDAT ??_7KAK_Convert_Visceroid@@6B@
CONST	SEGMENT
??_7KAK_Convert_Visceroid@@6B@ DD FLAT:??_R4KAK_Convert_Visceroid@@6B@ ; KAK_Convert_Visceroid::`vftable'
	DD	FLAT:??_EKAK_Convert_Visceroid@@UAEPAXI@Z
	DD	FLAT:?Get_Name@ScriptImpClass@@UAEPBDXZ
	DD	FLAT:?Attach@ScriptImpClass@@MAEXPAVScriptableGameObj@@@Z
	DD	FLAT:?Detach@ScriptImpClass@@MAEXPAVScriptableGameObj@@@Z
	DD	FLAT:?Created@KAK_Convert_Visceroid@@EAEXPAVScriptableGameObj@@@Z
	DD	FLAT:?Destroyed@ScriptImpClass@@UAEXPAVScriptableGameObj@@@Z
	DD	FLAT:?Killed@KAK_Convert_Visceroid@@EAEXPAVScriptableGameObj@@0@Z
	DD	FLAT:?Damaged@ScriptImpClass@@UAEXPAVScriptableGameObj@@0M@Z
	DD	FLAT:?Custom@ScriptImpClass@@UAEXPAVScriptableGameObj@@HH0@Z
	DD	FLAT:?Sound_Heard@ScriptImpClass@@UAEXPAVScriptableGameObj@@ABUCombatSound@@@Z
	DD	FLAT:?Enemy_Seen@ScriptImpClass@@UAEXPAVScriptableGameObj@@0@Z
	DD	FLAT:?Action_Complete@ScriptImpClass@@UAEXPAVScriptableGameObj@@HW4ActionCompleteReason@@@Z
	DD	FLAT:?Timer_Expired@KAK_Convert_Visceroid@@EAEXPAVScriptableGameObj@@H@Z
	DD	FLAT:?Animation_Complete@ScriptImpClass@@UAEXPAVScriptableGameObj@@PBD@Z
	DD	FLAT:?Poked@ScriptImpClass@@UAEXPAVScriptableGameObj@@0@Z
	DD	FLAT:?Entered@ScriptImpClass@@UAEXPAVScriptableGameObj@@0@Z
	DD	FLAT:?Exited@ScriptImpClass@@UAEXPAVScriptableGameObj@@0@Z
	DD	FLAT:?Owner@ScriptImpClass@@UAEPAVScriptableGameObj@@XZ
	DD	FLAT:?Get_Owner_Ptr@ScriptImpClass@@UAEPAPAVScriptableGameObj@@XZ
	DD	FLAT:?Set_Parameters_String@ScriptImpClass@@UAEXPBD@Z
	DD	FLAT:?Get_Parameters_String@ScriptImpClass@@UAEXPADI@Z
	DD	FLAT:?Save@ScriptImpClass@@MAEXAAVScriptSaver@@@Z
	DD	FLAT:?Load@ScriptImpClass@@MAEXAAVScriptLoader@@@Z
	DD	FLAT:?Save_Data@ScriptImpClass@@UAEXAAVScriptSaver@@@Z
	DD	FLAT:?Load_Data@ScriptImpClass@@UAEXAAVScriptLoader@@@Z
	DD	FLAT:?Register_Auto_Save_Variables@ScriptImpClass@@UAEXXZ
CONST	ENDS
;	COMDAT ??_7KAK_Prevent_Kill@@6B@
CONST	SEGMENT
??_7KAK_Prevent_Kill@@6B@ DD FLAT:??_R4KAK_Prevent_Kill@@6B@ ; KAK_Prevent_Kill::`vftable'
	DD	FLAT:??_EKAK_Prevent_Kill@@UAEPAXI@Z
	DD	FLAT:?Get_Name@ScriptImpClass@@UAEPBDXZ
	DD	FLAT:?Attach@ScriptImpClass@@MAEXPAVScriptableGameObj@@@Z
	DD	FLAT:?Detach@ScriptImpClass@@MAEXPAVScriptableGameObj@@@Z
	DD	FLAT:?Created@ScriptImpClass@@UAEXPAVScriptableGameObj@@@Z
	DD	FLAT:?Destroyed@ScriptImpClass@@UAEXPAVScriptableGameObj@@@Z
	DD	FLAT:?Killed@KAK_Prevent_Kill@@EAEXPAVScriptableGameObj@@0@Z
	DD	FLAT:?Damaged@KAK_Prevent_Kill@@EAEXPAVScriptableGameObj@@0M@Z
	DD	FLAT:?Custom@ScriptImpClass@@UAEXPAVScriptableGameObj@@HH0@Z
	DD	FLAT:?Sound_Heard@ScriptImpClass@@UAEXPAVScriptableGameObj@@ABUCombatSound@@@Z
	DD	FLAT:?Enemy_Seen@ScriptImpClass@@UAEXPAVScriptableGameObj@@0@Z
	DD	FLAT:?Action_Complete@ScriptImpClass@@UAEXPAVScriptableGameObj@@HW4ActionCompleteReason@@@Z
	DD	FLAT:?Timer_Expired@ScriptImpClass@@UAEXPAVScriptableGameObj@@H@Z
	DD	FLAT:?Animation_Complete@ScriptImpClass@@UAEXPAVScriptableGameObj@@PBD@Z
	DD	FLAT:?Poked@ScriptImpClass@@UAEXPAVScriptableGameObj@@0@Z
	DD	FLAT:?Entered@ScriptImpClass@@UAEXPAVScriptableGameObj@@0@Z
	DD	FLAT:?Exited@ScriptImpClass@@UAEXPAVScriptableGameObj@@0@Z
	DD	FLAT:?Owner@ScriptImpClass@@UAEPAVScriptableGameObj@@XZ
	DD	FLAT:?Get_Owner_Ptr@ScriptImpClass@@UAEPAPAVScriptableGameObj@@XZ
	DD	FLAT:?Set_Parameters_String@ScriptImpClass@@UAEXPBD@Z
	DD	FLAT:?Get_Parameters_String@ScriptImpClass@@UAEXPADI@Z
	DD	FLAT:?Save@ScriptImpClass@@MAEXAAVScriptSaver@@@Z
	DD	FLAT:?Load@ScriptImpClass@@MAEXAAVScriptLoader@@@Z
	DD	FLAT:?Save_Data@ScriptImpClass@@UAEXAAVScriptSaver@@@Z
	DD	FLAT:?Load_Data@ScriptImpClass@@UAEXAAVScriptLoader@@@Z
	DD	FLAT:?Register_Auto_Save_Variables@ScriptImpClass@@UAEXXZ
CONST	ENDS
;	COMDAT ??_7KAK_Harvester_Attached@@6B@
CONST	SEGMENT
??_7KAK_Harvester_Attached@@6B@ DD FLAT:??_R4KAK_Harvester_Attached@@6B@ ; KAK_Harvester_Attached::`vftable'
	DD	FLAT:??_EKAK_Harvester_Attached@@UAEPAXI@Z
	DD	FLAT:?Get_Name@ScriptImpClass@@UAEPBDXZ
	DD	FLAT:?Attach@ScriptImpClass@@MAEXPAVScriptableGameObj@@@Z
	DD	FLAT:?Detach@ScriptImpClass@@MAEXPAVScriptableGameObj@@@Z
	DD	FLAT:?Created@KAK_Harvester_Attached@@EAEXPAVScriptableGameObj@@@Z
	DD	FLAT:?Destroyed@ScriptImpClass@@UAEXPAVScriptableGameObj@@@Z
	DD	FLAT:?Killed@KAK_Harvester_Attached@@EAEXPAVScriptableGameObj@@0@Z
	DD	FLAT:?Damaged@ScriptImpClass@@UAEXPAVScriptableGameObj@@0M@Z
	DD	FLAT:?Custom@KAK_Harvester_Attached@@EAEXPAVScriptableGameObj@@HH0@Z
	DD	FLAT:?Sound_Heard@ScriptImpClass@@UAEXPAVScriptableGameObj@@ABUCombatSound@@@Z
	DD	FLAT:?Enemy_Seen@ScriptImpClass@@UAEXPAVScriptableGameObj@@0@Z
	DD	FLAT:?Action_Complete@KAK_Harvester_Attached@@EAEXPAVScriptableGameObj@@HW4ActionCompleteReason@@@Z
	DD	FLAT:?Timer_Expired@KAK_Harvester_Attached@@EAEXPAVScriptableGameObj@@H@Z
	DD	FLAT:?Animation_Complete@ScriptImpClass@@UAEXPAVScriptableGameObj@@PBD@Z
	DD	FLAT:?Poked@ScriptImpClass@@UAEXPAVScriptableGameObj@@0@Z
	DD	FLAT:?Entered@ScriptImpClass@@UAEXPAVScriptableGameObj@@0@Z
	DD	FLAT:?Exited@ScriptImpClass@@UAEXPAVScriptableGameObj@@0@Z
	DD	FLAT:?Owner@ScriptImpClass@@UAEPAVScriptableGameObj@@XZ
	DD	FLAT:?Get_Owner_Ptr@ScriptImpClass@@UAEPAPAVScriptableGameObj@@XZ
	DD	FLAT:?Set_Parameters_String@ScriptImpClass@@UAEXPBD@Z
	DD	FLAT:?Get_Parameters_String@ScriptImpClass@@UAEXPADI@Z
	DD	FLAT:?Save@ScriptImpClass@@MAEXAAVScriptSaver@@@Z
	DD	FLAT:?Load@ScriptImpClass@@MAEXAAVScriptLoader@@@Z
	DD	FLAT:?Save_Data@ScriptImpClass@@UAEXAAVScriptSaver@@@Z
	DD	FLAT:?Load_Data@ScriptImpClass@@UAEXAAVScriptLoader@@@Z
	DD	FLAT:?Register_Auto_Save_Variables@KAK_Harvester_Attached@@UAEXXZ
CONST	ENDS
;	COMDAT ??_7KAK_Harvester_Spawn_Kill@@6B@
CONST	SEGMENT
??_7KAK_Harvester_Spawn_Kill@@6B@ DD FLAT:??_R4KAK_Harvester_Spawn_Kill@@6B@ ; KAK_Harvester_Spawn_Kill::`vftable'
	DD	FLAT:??_EKAK_Harvester_Spawn_Kill@@UAEPAXI@Z
	DD	FLAT:?Get_Name@ScriptImpClass@@UAEPBDXZ
	DD	FLAT:?Attach@ScriptImpClass@@MAEXPAVScriptableGameObj@@@Z
	DD	FLAT:?Detach@ScriptImpClass@@MAEXPAVScriptableGameObj@@@Z
	DD	FLAT:?Created@ScriptImpClass@@UAEXPAVScriptableGameObj@@@Z
	DD	FLAT:?Destroyed@ScriptImpClass@@UAEXPAVScriptableGameObj@@@Z
	DD	FLAT:?Killed@KAK_Harvester_Spawn_Kill@@EAEXPAVScriptableGameObj@@0@Z
	DD	FLAT:?Damaged@ScriptImpClass@@UAEXPAVScriptableGameObj@@0M@Z
	DD	FLAT:?Custom@ScriptImpClass@@UAEXPAVScriptableGameObj@@HH0@Z
	DD	FLAT:?Sound_Heard@ScriptImpClass@@UAEXPAVScriptableGameObj@@ABUCombatSound@@@Z
	DD	FLAT:?Enemy_Seen@ScriptImpClass@@UAEXPAVScriptableGameObj@@0@Z
	DD	FLAT:?Action_Complete@ScriptImpClass@@UAEXPAVScriptableGameObj@@HW4ActionCompleteReason@@@Z
	DD	FLAT:?Timer_Expired@ScriptImpClass@@UAEXPAVScriptableGameObj@@H@Z
	DD	FLAT:?Animation_Complete@ScriptImpClass@@UAEXPAVScriptableGameObj@@PBD@Z
	DD	FLAT:?Poked@ScriptImpClass@@UAEXPAVScriptableGameObj@@0@Z
	DD	FLAT:?Entered@ScriptImpClass@@UAEXPAVScriptableGameObj@@0@Z
	DD	FLAT:?Exited@ScriptImpClass@@UAEXPAVScriptableGameObj@@0@Z
	DD	FLAT:?Owner@ScriptImpClass@@UAEPAVScriptableGameObj@@XZ
	DD	FLAT:?Get_Owner_Ptr@ScriptImpClass@@UAEPAPAVScriptableGameObj@@XZ
	DD	FLAT:?Set_Parameters_String@ScriptImpClass@@UAEXPBD@Z
	DD	FLAT:?Get_Parameters_String@ScriptImpClass@@UAEXPADI@Z
	DD	FLAT:?Save@ScriptImpClass@@MAEXAAVScriptSaver@@@Z
	DD	FLAT:?Load@ScriptImpClass@@MAEXAAVScriptLoader@@@Z
	DD	FLAT:?Save_Data@ScriptImpClass@@UAEXAAVScriptSaver@@@Z
	DD	FLAT:?Load_Data@ScriptImpClass@@UAEXAAVScriptLoader@@@Z
	DD	FLAT:?Register_Auto_Save_Variables@ScriptImpClass@@UAEXXZ
CONST	ENDS
;	COMDAT ??_7KAK_Harvester_Kill@@6B@
CONST	SEGMENT
??_7KAK_Harvester_Kill@@6B@ DD FLAT:??_R4KAK_Harvester_Kill@@6B@ ; KAK_Harvester_Kill::`vftable'
	DD	FLAT:??_EKAK_Harvester_Kill@@UAEPAXI@Z
	DD	FLAT:?Get_Name@ScriptImpClass@@UAEPBDXZ
	DD	FLAT:?Attach@ScriptImpClass@@MAEXPAVScriptableGameObj@@@Z
	DD	FLAT:?Detach@ScriptImpClass@@MAEXPAVScriptableGameObj@@@Z
	DD	FLAT:?Created@ScriptImpClass@@UAEXPAVScriptableGameObj@@@Z
	DD	FLAT:?Destroyed@ScriptImpClass@@UAEXPAVScriptableGameObj@@@Z
	DD	FLAT:?Killed@KAK_Harvester_Kill@@EAEXPAVScriptableGameObj@@0@Z
	DD	FLAT:?Damaged@ScriptImpClass@@UAEXPAVScriptableGameObj@@0M@Z
	DD	FLAT:?Custom@ScriptImpClass@@UAEXPAVScriptableGameObj@@HH0@Z
	DD	FLAT:?Sound_Heard@ScriptImpClass@@UAEXPAVScriptableGameObj@@ABUCombatSound@@@Z
	DD	FLAT:?Enemy_Seen@ScriptImpClass@@UAEXPAVScriptableGameObj@@0@Z
	DD	FLAT:?Action_Complete@ScriptImpClass@@UAEXPAVScriptableGameObj@@HW4ActionCompleteReason@@@Z
	DD	FLAT:?Timer_Expired@ScriptImpClass@@UAEXPAVScriptableGameObj@@H@Z
	DD	FLAT:?Animation_Complete@ScriptImpClass@@UAEXPAVScriptableGameObj@@PBD@Z
	DD	FLAT:?Poked@ScriptImpClass@@UAEXPAVScriptableGameObj@@0@Z
	DD	FLAT:?Entered@ScriptImpClass@@UAEXPAVScriptableGameObj@@0@Z
	DD	FLAT:?Exited@ScriptImpClass@@UAEXPAVScriptableGameObj@@0@Z
	DD	FLAT:?Owner@ScriptImpClass@@UAEPAVScriptableGameObj@@XZ
	DD	FLAT:?Get_Owner_Ptr@ScriptImpClass@@UAEPAPAVScriptableGameObj@@XZ
	DD	FLAT:?Set_Parameters_String@ScriptImpClass@@UAEXPBD@Z
	DD	FLAT:?Get_Parameters_String@ScriptImpClass@@UAEXPADI@Z
	DD	FLAT:?Save@ScriptImpClass@@MAEXAAVScriptSaver@@@Z
	DD	FLAT:?Load@ScriptImpClass@@MAEXAAVScriptLoader@@@Z
	DD	FLAT:?Save_Data@ScriptImpClass@@UAEXAAVScriptSaver@@@Z
	DD	FLAT:?Load_Data@ScriptImpClass@@UAEXAAVScriptLoader@@@Z
	DD	FLAT:?Register_Auto_Save_Variables@ScriptImpClass@@UAEXXZ
CONST	ENDS
;	COMDAT ??_7KAK_Harvester_Logic@@6B@
CONST	SEGMENT
??_7KAK_Harvester_Logic@@6B@ DD FLAT:??_R4KAK_Harvester_Logic@@6B@ ; KAK_Harvester_Logic::`vftable'
	DD	FLAT:??_EKAK_Harvester_Logic@@UAEPAXI@Z
	DD	FLAT:?Get_Name@ScriptImpClass@@UAEPBDXZ
	DD	FLAT:?Attach@ScriptImpClass@@MAEXPAVScriptableGameObj@@@Z
	DD	FLAT:?Detach@ScriptImpClass@@MAEXPAVScriptableGameObj@@@Z
	DD	FLAT:?Created@KAK_Harvester_Logic@@EAEXPAVScriptableGameObj@@@Z
	DD	FLAT:?Destroyed@ScriptImpClass@@UAEXPAVScriptableGameObj@@@Z
	DD	FLAT:?Killed@ScriptImpClass@@UAEXPAVScriptableGameObj@@0@Z
	DD	FLAT:?Damaged@ScriptImpClass@@UAEXPAVScriptableGameObj@@0M@Z
	DD	FLAT:?Custom@KAK_Harvester_Logic@@EAEXPAVScriptableGameObj@@HH0@Z
	DD	FLAT:?Sound_Heard@ScriptImpClass@@UAEXPAVScriptableGameObj@@ABUCombatSound@@@Z
	DD	FLAT:?Enemy_Seen@ScriptImpClass@@UAEXPAVScriptableGameObj@@0@Z
	DD	FLAT:?Action_Complete@ScriptImpClass@@UAEXPAVScriptableGameObj@@HW4ActionCompleteReason@@@Z
	DD	FLAT:?Timer_Expired@ScriptImpClass@@UAEXPAVScriptableGameObj@@H@Z
	DD	FLAT:?Animation_Complete@ScriptImpClass@@UAEXPAVScriptableGameObj@@PBD@Z
	DD	FLAT:?Poked@ScriptImpClass@@UAEXPAVScriptableGameObj@@0@Z
	DD	FLAT:?Entered@ScriptImpClass@@UAEXPAVScriptableGameObj@@0@Z
	DD	FLAT:?Exited@ScriptImpClass@@UAEXPAVScriptableGameObj@@0@Z
	DD	FLAT:?Owner@ScriptImpClass@@UAEPAVScriptableGameObj@@XZ
	DD	FLAT:?Get_Owner_Ptr@ScriptImpClass@@UAEPAPAVScriptableGameObj@@XZ
	DD	FLAT:?Set_Parameters_String@ScriptImpClass@@UAEXPBD@Z
	DD	FLAT:?Get_Parameters_String@ScriptImpClass@@UAEXPADI@Z
	DD	FLAT:?Save@ScriptImpClass@@MAEXAAVScriptSaver@@@Z
	DD	FLAT:?Load@ScriptImpClass@@MAEXAAVScriptLoader@@@Z
	DD	FLAT:?Save_Data@ScriptImpClass@@UAEXAAVScriptSaver@@@Z
	DD	FLAT:?Load_Data@ScriptImpClass@@UAEXAAVScriptLoader@@@Z
	DD	FLAT:?Register_Auto_Save_Variables@KAK_Harvester_Logic@@UAEXXZ
CONST	ENDS
;	COMDAT ??_7KAK_Select_Weapon_On_Pickup@@6B@
CONST	SEGMENT
??_7KAK_Select_Weapon_On_Pickup@@6B@ DD FLAT:??_R4KAK_Select_Weapon_On_Pickup@@6B@ ; KAK_Select_Weapon_On_Pickup::`vftable'
	DD	FLAT:??_EKAK_Select_Weapon_On_Pickup@@UAEPAXI@Z
	DD	FLAT:?Get_Name@ScriptImpClass@@UAEPBDXZ
	DD	FLAT:?Attach@ScriptImpClass@@MAEXPAVScriptableGameObj@@@Z
	DD	FLAT:?Detach@ScriptImpClass@@MAEXPAVScriptableGameObj@@@Z
	DD	FLAT:?Created@ScriptImpClass@@UAEXPAVScriptableGameObj@@@Z
	DD	FLAT:?Destroyed@ScriptImpClass@@UAEXPAVScriptableGameObj@@@Z
	DD	FLAT:?Killed@ScriptImpClass@@UAEXPAVScriptableGameObj@@0@Z
	DD	FLAT:?Damaged@ScriptImpClass@@UAEXPAVScriptableGameObj@@0M@Z
	DD	FLAT:?Custom@KAK_Select_Weapon_On_Pickup@@EAEXPAVScriptableGameObj@@HH0@Z
	DD	FLAT:?Sound_Heard@ScriptImpClass@@UAEXPAVScriptableGameObj@@ABUCombatSound@@@Z
	DD	FLAT:?Enemy_Seen@ScriptImpClass@@UAEXPAVScriptableGameObj@@0@Z
	DD	FLAT:?Action_Complete@ScriptImpClass@@UAEXPAVScriptableGameObj@@HW4ActionCompleteReason@@@Z
	DD	FLAT:?Timer_Expired@ScriptImpClass@@UAEXPAVScriptableGameObj@@H@Z
	DD	FLAT:?Animation_Complete@ScriptImpClass@@UAEXPAVScriptableGameObj@@PBD@Z
	DD	FLAT:?Poked@ScriptImpClass@@UAEXPAVScriptableGameObj@@0@Z
	DD	FLAT:?Entered@ScriptImpClass@@UAEXPAVScriptableGameObj@@0@Z
	DD	FLAT:?Exited@ScriptImpClass@@UAEXPAVScriptableGameObj@@0@Z
	DD	FLAT:?Owner@ScriptImpClass@@UAEPAVScriptableGameObj@@XZ
	DD	FLAT:?Get_Owner_Ptr@ScriptImpClass@@UAEPAPAVScriptableGameObj@@XZ
	DD	FLAT:?Set_Parameters_String@ScriptImpClass@@UAEXPBD@Z
	DD	FLAT:?Get_Parameters_String@ScriptImpClass@@UAEXPADI@Z
	DD	FLAT:?Save@ScriptImpClass@@MAEXAAVScriptSaver@@@Z
	DD	FLAT:?Load@ScriptImpClass@@MAEXAAVScriptLoader@@@Z
	DD	FLAT:?Save_Data@ScriptImpClass@@UAEXAAVScriptSaver@@@Z
	DD	FLAT:?Load_Data@ScriptImpClass@@UAEXAAVScriptLoader@@@Z
	DD	FLAT:?Register_Auto_Save_Variables@ScriptImpClass@@UAEXXZ
CONST	ENDS
;	COMDAT ??_7KAK_Select_Weapon_Zone@@6B@
CONST	SEGMENT
??_7KAK_Select_Weapon_Zone@@6B@ DD FLAT:??_R4KAK_Select_Weapon_Zone@@6B@ ; KAK_Select_Weapon_Zone::`vftable'
	DD	FLAT:??_EKAK_Select_Weapon_Zone@@UAEPAXI@Z
	DD	FLAT:?Get_Name@ScriptImpClass@@UAEPBDXZ
	DD	FLAT:?Attach@ScriptImpClass@@MAEXPAVScriptableGameObj@@@Z
	DD	FLAT:?Detach@ScriptImpClass@@MAEXPAVScriptableGameObj@@@Z
	DD	FLAT:?Created@ScriptImpClass@@UAEXPAVScriptableGameObj@@@Z
	DD	FLAT:?Destroyed@ScriptImpClass@@UAEXPAVScriptableGameObj@@@Z
	DD	FLAT:?Killed@ScriptImpClass@@UAEXPAVScriptableGameObj@@0@Z
	DD	FLAT:?Damaged@ScriptImpClass@@UAEXPAVScriptableGameObj@@0M@Z
	DD	FLAT:?Custom@ScriptImpClass@@UAEXPAVScriptableGameObj@@HH0@Z
	DD	FLAT:?Sound_Heard@ScriptImpClass@@UAEXPAVScriptableGameObj@@ABUCombatSound@@@Z
	DD	FLAT:?Enemy_Seen@ScriptImpClass@@UAEXPAVScriptableGameObj@@0@Z
	DD	FLAT:?Action_Complete@ScriptImpClass@@UAEXPAVScriptableGameObj@@HW4ActionCompleteReason@@@Z
	DD	FLAT:?Timer_Expired@ScriptImpClass@@UAEXPAVScriptableGameObj@@H@Z
	DD	FLAT:?Animation_Complete@ScriptImpClass@@UAEXPAVScriptableGameObj@@PBD@Z
	DD	FLAT:?Poked@ScriptImpClass@@UAEXPAVScriptableGameObj@@0@Z
	DD	FLAT:?Entered@KAK_Select_Weapon_Zone@@EAEXPAVScriptableGameObj@@0@Z
	DD	FLAT:?Exited@KAK_Select_Weapon_Zone@@EAEXPAVScriptableGameObj@@0@Z
	DD	FLAT:?Owner@ScriptImpClass@@UAEPAVScriptableGameObj@@XZ
	DD	FLAT:?Get_Owner_Ptr@ScriptImpClass@@UAEPAPAVScriptableGameObj@@XZ
	DD	FLAT:?Set_Parameters_String@ScriptImpClass@@UAEXPBD@Z
	DD	FLAT:?Get_Parameters_String@ScriptImpClass@@UAEXPADI@Z
	DD	FLAT:?Save@ScriptImpClass@@MAEXAAVScriptSaver@@@Z
	DD	FLAT:?Load@ScriptImpClass@@MAEXAAVScriptLoader@@@Z
	DD	FLAT:?Save_Data@ScriptImpClass@@UAEXAAVScriptSaver@@@Z
	DD	FLAT:?Load_Data@ScriptImpClass@@UAEXAAVScriptLoader@@@Z
	DD	FLAT:?Register_Auto_Save_Variables@ScriptImpClass@@UAEXXZ
CONST	ENDS
;	COMDAT ??_7KAK_Give_Powerup_On_Pickup@@6B@
CONST	SEGMENT
??_7KAK_Give_Powerup_On_Pickup@@6B@ DD FLAT:??_R4KAK_Give_Powerup_On_Pickup@@6B@ ; KAK_Give_Powerup_On_Pickup::`vftable'
	DD	FLAT:??_EKAK_Give_Powerup_On_Pickup@@UAEPAXI@Z
	DD	FLAT:?Get_Name@ScriptImpClass@@UAEPBDXZ
	DD	FLAT:?Attach@ScriptImpClass@@MAEXPAVScriptableGameObj@@@Z
	DD	FLAT:?Detach@ScriptImpClass@@MAEXPAVScriptableGameObj@@@Z
	DD	FLAT:?Created@ScriptImpClass@@UAEXPAVScriptableGameObj@@@Z
	DD	FLAT:?Destroyed@ScriptImpClass@@UAEXPAVScriptableGameObj@@@Z
	DD	FLAT:?Killed@ScriptImpClass@@UAEXPAVScriptableGameObj@@0@Z
	DD	FLAT:?Damaged@ScriptImpClass@@UAEXPAVScriptableGameObj@@0M@Z
	DD	FLAT:?Custom@KAK_Give_Powerup_On_Pickup@@EAEXPAVScriptableGameObj@@HH0@Z
	DD	FLAT:?Sound_Heard@ScriptImpClass@@UAEXPAVScriptableGameObj@@ABUCombatSound@@@Z
	DD	FLAT:?Enemy_Seen@ScriptImpClass@@UAEXPAVScriptableGameObj@@0@Z
	DD	FLAT:?Action_Complete@ScriptImpClass@@UAEXPAVScriptableGameObj@@HW4ActionCompleteReason@@@Z
	DD	FLAT:?Timer_Expired@ScriptImpClass@@UAEXPAVScriptableGameObj@@H@Z
	DD	FLAT:?Animation_Complete@ScriptImpClass@@UAEXPAVScriptableGameObj@@PBD@Z
	DD	FLAT:?Poked@ScriptImpClass@@UAEXPAVScriptableGameObj@@0@Z
	DD	FLAT:?Entered@ScriptImpClass@@UAEXPAVScriptableGameObj@@0@Z
	DD	FLAT:?Exited@ScriptImpClass@@UAEXPAVScriptableGameObj@@0@Z
	DD	FLAT:?Owner@ScriptImpClass@@UAEPAVScriptableGameObj@@XZ
	DD	FLAT:?Get_Owner_Ptr@ScriptImpClass@@UAEPAPAVScriptableGameObj@@XZ
	DD	FLAT:?Set_Parameters_String@ScriptImpClass@@UAEXPBD@Z
	DD	FLAT:?Get_Parameters_String@ScriptImpClass@@UAEXPADI@Z
	DD	FLAT:?Save@ScriptImpClass@@MAEXAAVScriptSaver@@@Z
	DD	FLAT:?Load@ScriptImpClass@@MAEXAAVScriptLoader@@@Z
	DD	FLAT:?Save_Data@ScriptImpClass@@UAEXAAVScriptSaver@@@Z
	DD	FLAT:?Load_Data@ScriptImpClass@@UAEXAAVScriptLoader@@@Z
	DD	FLAT:?Register_Auto_Save_Variables@ScriptImpClass@@UAEXXZ
CONST	ENDS
;	COMDAT ??_7KAK_Flowing_Weather@@6B@
CONST	SEGMENT
??_7KAK_Flowing_Weather@@6B@ DD FLAT:??_R4KAK_Flowing_Weather@@6B@ ; KAK_Flowing_Weather::`vftable'
	DD	FLAT:??_EKAK_Flowing_Weather@@UAEPAXI@Z
	DD	FLAT:?Get_Name@ScriptImpClass@@UAEPBDXZ
	DD	FLAT:?Attach@ScriptImpClass@@MAEXPAVScriptableGameObj@@@Z
	DD	FLAT:?Detach@ScriptImpClass@@MAEXPAVScriptableGameObj@@@Z
	DD	FLAT:?Created@KAK_Flowing_Weather@@EAEXPAVScriptableGameObj@@@Z
	DD	FLAT:?Destroyed@ScriptImpClass@@UAEXPAVScriptableGameObj@@@Z
	DD	FLAT:?Killed@ScriptImpClass@@UAEXPAVScriptableGameObj@@0@Z
	DD	FLAT:?Damaged@ScriptImpClass@@UAEXPAVScriptableGameObj@@0M@Z
	DD	FLAT:?Custom@ScriptImpClass@@UAEXPAVScriptableGameObj@@HH0@Z
	DD	FLAT:?Sound_Heard@ScriptImpClass@@UAEXPAVScriptableGameObj@@ABUCombatSound@@@Z
	DD	FLAT:?Enemy_Seen@ScriptImpClass@@UAEXPAVScriptableGameObj@@0@Z
	DD	FLAT:?Action_Complete@ScriptImpClass@@UAEXPAVScriptableGameObj@@HW4ActionCompleteReason@@@Z
	DD	FLAT:?Timer_Expired@KAK_Flowing_Weather@@EAEXPAVScriptableGameObj@@H@Z
	DD	FLAT:?Animation_Complete@ScriptImpClass@@UAEXPAVScriptableGameObj@@PBD@Z
	DD	FLAT:?Poked@ScriptImpClass@@UAEXPAVScriptableGameObj@@0@Z
	DD	FLAT:?Entered@ScriptImpClass@@UAEXPAVScriptableGameObj@@0@Z
	DD	FLAT:?Exited@ScriptImpClass@@UAEXPAVScriptableGameObj@@0@Z
	DD	FLAT:?Owner@ScriptImpClass@@UAEPAVScriptableGameObj@@XZ
	DD	FLAT:?Get_Owner_Ptr@ScriptImpClass@@UAEPAPAVScriptableGameObj@@XZ
	DD	FLAT:?Set_Parameters_String@ScriptImpClass@@UAEXPBD@Z
	DD	FLAT:?Get_Parameters_String@ScriptImpClass@@UAEXPADI@Z
	DD	FLAT:?Save@ScriptImpClass@@MAEXAAVScriptSaver@@@Z
	DD	FLAT:?Load@ScriptImpClass@@MAEXAAVScriptLoader@@@Z
	DD	FLAT:?Save_Data@ScriptImpClass@@UAEXAAVScriptSaver@@@Z
	DD	FLAT:?Load_Data@ScriptImpClass@@UAEXAAVScriptLoader@@@Z
	DD	FLAT:?Register_Auto_Save_Variables@KAK_Flowing_Weather@@UAEXXZ
CONST	ENDS
;	COMDAT ??_7KAK_Lightning_Zone@@6B@
CONST	SEGMENT
??_7KAK_Lightning_Zone@@6B@ DD FLAT:??_R4KAK_Lightning_Zone@@6B@ ; KAK_Lightning_Zone::`vftable'
	DD	FLAT:??_EKAK_Lightning_Zone@@UAEPAXI@Z
	DD	FLAT:?Get_Name@ScriptImpClass@@UAEPBDXZ
	DD	FLAT:?Attach@ScriptImpClass@@MAEXPAVScriptableGameObj@@@Z
	DD	FLAT:?Detach@ScriptImpClass@@MAEXPAVScriptableGameObj@@@Z
	DD	FLAT:?Created@ScriptImpClass@@UAEXPAVScriptableGameObj@@@Z
	DD	FLAT:?Destroyed@ScriptImpClass@@UAEXPAVScriptableGameObj@@@Z
	DD	FLAT:?Killed@ScriptImpClass@@UAEXPAVScriptableGameObj@@0@Z
	DD	FLAT:?Damaged@ScriptImpClass@@UAEXPAVScriptableGameObj@@0M@Z
	DD	FLAT:?Custom@ScriptImpClass@@UAEXPAVScriptableGameObj@@HH0@Z
	DD	FLAT:?Sound_Heard@ScriptImpClass@@UAEXPAVScriptableGameObj@@ABUCombatSound@@@Z
	DD	FLAT:?Enemy_Seen@ScriptImpClass@@UAEXPAVScriptableGameObj@@0@Z
	DD	FLAT:?Action_Complete@ScriptImpClass@@UAEXPAVScriptableGameObj@@HW4ActionCompleteReason@@@Z
	DD	FLAT:?Timer_Expired@KAK_Lightning_Zone@@EAEXPAVScriptableGameObj@@H@Z
	DD	FLAT:?Animation_Complete@ScriptImpClass@@UAEXPAVScriptableGameObj@@PBD@Z
	DD	FLAT:?Poked@ScriptImpClass@@UAEXPAVScriptableGameObj@@0@Z
	DD	FLAT:?Entered@KAK_Lightning_Zone@@EAEXPAVScriptableGameObj@@0@Z
	DD	FLAT:?Exited@KAK_Lightning_Zone@@EAEXPAVScriptableGameObj@@0@Z
	DD	FLAT:?Owner@ScriptImpClass@@UAEPAVScriptableGameObj@@XZ
	DD	FLAT:?Get_Owner_Ptr@ScriptImpClass@@UAEPAPAVScriptableGameObj@@XZ
	DD	FLAT:?Set_Parameters_String@ScriptImpClass@@UAEXPBD@Z
	DD	FLAT:?Get_Parameters_String@ScriptImpClass@@UAEXPADI@Z
	DD	FLAT:?Save@ScriptImpClass@@MAEXAAVScriptSaver@@@Z
	DD	FLAT:?Load@ScriptImpClass@@MAEXAAVScriptLoader@@@Z
	DD	FLAT:?Save_Data@ScriptImpClass@@UAEXAAVScriptSaver@@@Z
	DD	FLAT:?Load_Data@ScriptImpClass@@UAEXAAVScriptLoader@@@Z
	DD	FLAT:?Register_Auto_Save_Variables@ScriptImpClass@@UAEXXZ
CONST	ENDS
;	COMDAT ??_7KAK_Lightning_Create@@6B@
CONST	SEGMENT
??_7KAK_Lightning_Create@@6B@ DD FLAT:??_R4KAK_Lightning_Create@@6B@ ; KAK_Lightning_Create::`vftable'
	DD	FLAT:??_EKAK_Lightning_Create@@UAEPAXI@Z
	DD	FLAT:?Get_Name@ScriptImpClass@@UAEPBDXZ
	DD	FLAT:?Attach@ScriptImpClass@@MAEXPAVScriptableGameObj@@@Z
	DD	FLAT:?Detach@ScriptImpClass@@MAEXPAVScriptableGameObj@@@Z
	DD	FLAT:?Created@KAK_Lightning_Create@@EAEXPAVScriptableGameObj@@@Z
	DD	FLAT:?Destroyed@KAK_Lightning_Create@@EAEXPAVScriptableGameObj@@@Z
	DD	FLAT:?Killed@ScriptImpClass@@UAEXPAVScriptableGameObj@@0@Z
	DD	FLAT:?Damaged@ScriptImpClass@@UAEXPAVScriptableGameObj@@0M@Z
	DD	FLAT:?Custom@ScriptImpClass@@UAEXPAVScriptableGameObj@@HH0@Z
	DD	FLAT:?Sound_Heard@ScriptImpClass@@UAEXPAVScriptableGameObj@@ABUCombatSound@@@Z
	DD	FLAT:?Enemy_Seen@ScriptImpClass@@UAEXPAVScriptableGameObj@@0@Z
	DD	FLAT:?Action_Complete@ScriptImpClass@@UAEXPAVScriptableGameObj@@HW4ActionCompleteReason@@@Z
	DD	FLAT:?Timer_Expired@KAK_Lightning_Create@@EAEXPAVScriptableGameObj@@H@Z
	DD	FLAT:?Animation_Complete@ScriptImpClass@@UAEXPAVScriptableGameObj@@PBD@Z
	DD	FLAT:?Poked@ScriptImpClass@@UAEXPAVScriptableGameObj@@0@Z
	DD	FLAT:?Entered@ScriptImpClass@@UAEXPAVScriptableGameObj@@0@Z
	DD	FLAT:?Exited@ScriptImpClass@@UAEXPAVScriptableGameObj@@0@Z
	DD	FLAT:?Owner@ScriptImpClass@@UAEPAVScriptableGameObj@@XZ
	DD	FLAT:?Get_Owner_Ptr@ScriptImpClass@@UAEPAPAVScriptableGameObj@@XZ
	DD	FLAT:?Set_Parameters_String@ScriptImpClass@@UAEXPBD@Z
	DD	FLAT:?Get_Parameters_String@ScriptImpClass@@UAEXPADI@Z
	DD	FLAT:?Save@ScriptImpClass@@MAEXAAVScriptSaver@@@Z
	DD	FLAT:?Load@ScriptImpClass@@MAEXAAVScriptLoader@@@Z
	DD	FLAT:?Save_Data@ScriptImpClass@@UAEXAAVScriptSaver@@@Z
	DD	FLAT:?Load_Data@ScriptImpClass@@UAEXAAVScriptLoader@@@Z
	DD	FLAT:?Register_Auto_Save_Variables@ScriptImpClass@@UAEXXZ
CONST	ENDS
;	COMDAT ??_7KAK_Clouds_Zone@@6B@
CONST	SEGMENT
??_7KAK_Clouds_Zone@@6B@ DD FLAT:??_R4KAK_Clouds_Zone@@6B@ ; KAK_Clouds_Zone::`vftable'
	DD	FLAT:??_EKAK_Clouds_Zone@@UAEPAXI@Z
	DD	FLAT:?Get_Name@ScriptImpClass@@UAEPBDXZ
	DD	FLAT:?Attach@ScriptImpClass@@MAEXPAVScriptableGameObj@@@Z
	DD	FLAT:?Detach@ScriptImpClass@@MAEXPAVScriptableGameObj@@@Z
	DD	FLAT:?Created@ScriptImpClass@@UAEXPAVScriptableGameObj@@@Z
	DD	FLAT:?Destroyed@ScriptImpClass@@UAEXPAVScriptableGameObj@@@Z
	DD	FLAT:?Killed@ScriptImpClass@@UAEXPAVScriptableGameObj@@0@Z
	DD	FLAT:?Damaged@ScriptImpClass@@UAEXPAVScriptableGameObj@@0M@Z
	DD	FLAT:?Custom@ScriptImpClass@@UAEXPAVScriptableGameObj@@HH0@Z
	DD	FLAT:?Sound_Heard@ScriptImpClass@@UAEXPAVScriptableGameObj@@ABUCombatSound@@@Z
	DD	FLAT:?Enemy_Seen@ScriptImpClass@@UAEXPAVScriptableGameObj@@0@Z
	DD	FLAT:?Action_Complete@ScriptImpClass@@UAEXPAVScriptableGameObj@@HW4ActionCompleteReason@@@Z
	DD	FLAT:?Timer_Expired@KAK_Clouds_Zone@@EAEXPAVScriptableGameObj@@H@Z
	DD	FLAT:?Animation_Complete@ScriptImpClass@@UAEXPAVScriptableGameObj@@PBD@Z
	DD	FLAT:?Poked@ScriptImpClass@@UAEXPAVScriptableGameObj@@0@Z
	DD	FLAT:?Entered@KAK_Clouds_Zone@@EAEXPAVScriptableGameObj@@0@Z
	DD	FLAT:?Exited@KAK_Clouds_Zone@@EAEXPAVScriptableGameObj@@0@Z
	DD	FLAT:?Owner@ScriptImpClass@@UAEPAVScriptableGameObj@@XZ
	DD	FLAT:?Get_Owner_Ptr@ScriptImpClass@@UAEPAPAVScriptableGameObj@@XZ
	DD	FLAT:?Set_Parameters_String@ScriptImpClass@@UAEXPBD@Z
	DD	FLAT:?Get_Parameters_String@ScriptImpClass@@UAEXPADI@Z
	DD	FLAT:?Save@ScriptImpClass@@MAEXAAVScriptSaver@@@Z
	DD	FLAT:?Load@ScriptImpClass@@MAEXAAVScriptLoader@@@Z
	DD	FLAT:?Save_Data@ScriptImpClass@@UAEXAAVScriptSaver@@@Z
	DD	FLAT:?Load_Data@ScriptImpClass@@UAEXAAVScriptLoader@@@Z
	DD	FLAT:?Register_Auto_Save_Variables@ScriptImpClass@@UAEXXZ
CONST	ENDS
;	COMDAT ??_7KAK_Clouds_Create@@6B@
CONST	SEGMENT
??_7KAK_Clouds_Create@@6B@ DD FLAT:??_R4KAK_Clouds_Create@@6B@ ; KAK_Clouds_Create::`vftable'
	DD	FLAT:??_EKAK_Clouds_Create@@UAEPAXI@Z
	DD	FLAT:?Get_Name@ScriptImpClass@@UAEPBDXZ
	DD	FLAT:?Attach@ScriptImpClass@@MAEXPAVScriptableGameObj@@@Z
	DD	FLAT:?Detach@ScriptImpClass@@MAEXPAVScriptableGameObj@@@Z
	DD	FLAT:?Created@KAK_Clouds_Create@@EAEXPAVScriptableGameObj@@@Z
	DD	FLAT:?Destroyed@KAK_Clouds_Create@@EAEXPAVScriptableGameObj@@@Z
	DD	FLAT:?Killed@ScriptImpClass@@UAEXPAVScriptableGameObj@@0@Z
	DD	FLAT:?Damaged@ScriptImpClass@@UAEXPAVScriptableGameObj@@0M@Z
	DD	FLAT:?Custom@ScriptImpClass@@UAEXPAVScriptableGameObj@@HH0@Z
	DD	FLAT:?Sound_Heard@ScriptImpClass@@UAEXPAVScriptableGameObj@@ABUCombatSound@@@Z
	DD	FLAT:?Enemy_Seen@ScriptImpClass@@UAEXPAVScriptableGameObj@@0@Z
	DD	FLAT:?Action_Complete@ScriptImpClass@@UAEXPAVScriptableGameObj@@HW4ActionCompleteReason@@@Z
	DD	FLAT:?Timer_Expired@KAK_Clouds_Create@@EAEXPAVScriptableGameObj@@H@Z
	DD	FLAT:?Animation_Complete@ScriptImpClass@@UAEXPAVScriptableGameObj@@PBD@Z
	DD	FLAT:?Poked@ScriptImpClass@@UAEXPAVScriptableGameObj@@0@Z
	DD	FLAT:?Entered@ScriptImpClass@@UAEXPAVScriptableGameObj@@0@Z
	DD	FLAT:?Exited@ScriptImpClass@@UAEXPAVScriptableGameObj@@0@Z
	DD	FLAT:?Owner@ScriptImpClass@@UAEPAVScriptableGameObj@@XZ
	DD	FLAT:?Get_Owner_Ptr@ScriptImpClass@@UAEPAPAVScriptableGameObj@@XZ
	DD	FLAT:?Set_Parameters_String@ScriptImpClass@@UAEXPBD@Z
	DD	FLAT:?Get_Parameters_String@ScriptImpClass@@UAEXPADI@Z
	DD	FLAT:?Save@ScriptImpClass@@MAEXAAVScriptSaver@@@Z
	DD	FLAT:?Load@ScriptImpClass@@MAEXAAVScriptLoader@@@Z
	DD	FLAT:?Save_Data@ScriptImpClass@@UAEXAAVScriptSaver@@@Z
	DD	FLAT:?Load_Data@ScriptImpClass@@UAEXAAVScriptLoader@@@Z
	DD	FLAT:?Register_Auto_Save_Variables@ScriptImpClass@@UAEXXZ
CONST	ENDS
;	COMDAT ??_7KAK_Wind_Zone@@6B@
CONST	SEGMENT
??_7KAK_Wind_Zone@@6B@ DD FLAT:??_R4KAK_Wind_Zone@@6B@	; KAK_Wind_Zone::`vftable'
	DD	FLAT:??_EKAK_Wind_Zone@@UAEPAXI@Z
	DD	FLAT:?Get_Name@ScriptImpClass@@UAEPBDXZ
	DD	FLAT:?Attach@ScriptImpClass@@MAEXPAVScriptableGameObj@@@Z
	DD	FLAT:?Detach@ScriptImpClass@@MAEXPAVScriptableGameObj@@@Z
	DD	FLAT:?Created@ScriptImpClass@@UAEXPAVScriptableGameObj@@@Z
	DD	FLAT:?Destroyed@ScriptImpClass@@UAEXPAVScriptableGameObj@@@Z
	DD	FLAT:?Killed@ScriptImpClass@@UAEXPAVScriptableGameObj@@0@Z
	DD	FLAT:?Damaged@ScriptImpClass@@UAEXPAVScriptableGameObj@@0M@Z
	DD	FLAT:?Custom@ScriptImpClass@@UAEXPAVScriptableGameObj@@HH0@Z
	DD	FLAT:?Sound_Heard@ScriptImpClass@@UAEXPAVScriptableGameObj@@ABUCombatSound@@@Z
	DD	FLAT:?Enemy_Seen@ScriptImpClass@@UAEXPAVScriptableGameObj@@0@Z
	DD	FLAT:?Action_Complete@ScriptImpClass@@UAEXPAVScriptableGameObj@@HW4ActionCompleteReason@@@Z
	DD	FLAT:?Timer_Expired@KAK_Wind_Zone@@EAEXPAVScriptableGameObj@@H@Z
	DD	FLAT:?Animation_Complete@ScriptImpClass@@UAEXPAVScriptableGameObj@@PBD@Z
	DD	FLAT:?Poked@ScriptImpClass@@UAEXPAVScriptableGameObj@@0@Z
	DD	FLAT:?Entered@KAK_Wind_Zone@@EAEXPAVScriptableGameObj@@0@Z
	DD	FLAT:?Exited@KAK_Wind_Zone@@EAEXPAVScriptableGameObj@@0@Z
	DD	FLAT:?Owner@ScriptImpClass@@UAEPAVScriptableGameObj@@XZ
	DD	FLAT:?Get_Owner_Ptr@ScriptImpClass@@UAEPAPAVScriptableGameObj@@XZ
	DD	FLAT:?Set_Parameters_String@ScriptImpClass@@UAEXPBD@Z
	DD	FLAT:?Get_Parameters_String@ScriptImpClass@@UAEXPADI@Z
	DD	FLAT:?Save@ScriptImpClass@@MAEXAAVScriptSaver@@@Z
	DD	FLAT:?Load@ScriptImpClass@@MAEXAAVScriptLoader@@@Z
	DD	FLAT:?Save_Data@ScriptImpClass@@UAEXAAVScriptSaver@@@Z
	DD	FLAT:?Load_Data@ScriptImpClass@@UAEXAAVScriptLoader@@@Z
	DD	FLAT:?Register_Auto_Save_Variables@ScriptImpClass@@UAEXXZ
CONST	ENDS
;	COMDAT ??_7KAK_Wind_Create@@6B@
CONST	SEGMENT
??_7KAK_Wind_Create@@6B@ DD FLAT:??_R4KAK_Wind_Create@@6B@ ; KAK_Wind_Create::`vftable'
	DD	FLAT:??_EKAK_Wind_Create@@UAEPAXI@Z
	DD	FLAT:?Get_Name@ScriptImpClass@@UAEPBDXZ
	DD	FLAT:?Attach@ScriptImpClass@@MAEXPAVScriptableGameObj@@@Z
	DD	FLAT:?Detach@ScriptImpClass@@MAEXPAVScriptableGameObj@@@Z
	DD	FLAT:?Created@KAK_Wind_Create@@EAEXPAVScriptableGameObj@@@Z
	DD	FLAT:?Destroyed@KAK_Wind_Create@@EAEXPAVScriptableGameObj@@@Z
	DD	FLAT:?Killed@ScriptImpClass@@UAEXPAVScriptableGameObj@@0@Z
	DD	FLAT:?Damaged@ScriptImpClass@@UAEXPAVScriptableGameObj@@0M@Z
	DD	FLAT:?Custom@ScriptImpClass@@UAEXPAVScriptableGameObj@@HH0@Z
	DD	FLAT:?Sound_Heard@ScriptImpClass@@UAEXPAVScriptableGameObj@@ABUCombatSound@@@Z
	DD	FLAT:?Enemy_Seen@ScriptImpClass@@UAEXPAVScriptableGameObj@@0@Z
	DD	FLAT:?Action_Complete@ScriptImpClass@@UAEXPAVScriptableGameObj@@HW4ActionCompleteReason@@@Z
	DD	FLAT:?Timer_Expired@KAK_Wind_Create@@EAEXPAVScriptableGameObj@@H@Z
	DD	FLAT:?Animation_Complete@ScriptImpClass@@UAEXPAVScriptableGameObj@@PBD@Z
	DD	FLAT:?Poked@ScriptImpClass@@UAEXPAVScriptableGameObj@@0@Z
	DD	FLAT:?Entered@ScriptImpClass@@UAEXPAVScriptableGameObj@@0@Z
	DD	FLAT:?Exited@ScriptImpClass@@UAEXPAVScriptableGameObj@@0@Z
	DD	FLAT:?Owner@ScriptImpClass@@UAEPAVScriptableGameObj@@XZ
	DD	FLAT:?Get_Owner_Ptr@ScriptImpClass@@UAEPAPAVScriptableGameObj@@XZ
	DD	FLAT:?Set_Parameters_String@ScriptImpClass@@UAEXPBD@Z
	DD	FLAT:?Get_Parameters_String@ScriptImpClass@@UAEXPADI@Z
	DD	FLAT:?Save@ScriptImpClass@@MAEXAAVScriptSaver@@@Z
	DD	FLAT:?Load@ScriptImpClass@@MAEXAAVScriptLoader@@@Z
	DD	FLAT:?Save_Data@ScriptImpClass@@UAEXAAVScriptSaver@@@Z
	DD	FLAT:?Load_Data@ScriptImpClass@@UAEXAAVScriptLoader@@@Z
	DD	FLAT:?Register_Auto_Save_Variables@ScriptImpClass@@UAEXXZ
CONST	ENDS
;	COMDAT ??_7KAK_Precipitation_Zone@@6B@
CONST	SEGMENT
??_7KAK_Precipitation_Zone@@6B@ DD FLAT:??_R4KAK_Precipitation_Zone@@6B@ ; KAK_Precipitation_Zone::`vftable'
	DD	FLAT:??_EKAK_Precipitation_Zone@@UAEPAXI@Z
	DD	FLAT:?Get_Name@ScriptImpClass@@UAEPBDXZ
	DD	FLAT:?Attach@ScriptImpClass@@MAEXPAVScriptableGameObj@@@Z
	DD	FLAT:?Detach@ScriptImpClass@@MAEXPAVScriptableGameObj@@@Z
	DD	FLAT:?Created@ScriptImpClass@@UAEXPAVScriptableGameObj@@@Z
	DD	FLAT:?Destroyed@ScriptImpClass@@UAEXPAVScriptableGameObj@@@Z
	DD	FLAT:?Killed@ScriptImpClass@@UAEXPAVScriptableGameObj@@0@Z
	DD	FLAT:?Damaged@ScriptImpClass@@UAEXPAVScriptableGameObj@@0M@Z
	DD	FLAT:?Custom@ScriptImpClass@@UAEXPAVScriptableGameObj@@HH0@Z
	DD	FLAT:?Sound_Heard@ScriptImpClass@@UAEXPAVScriptableGameObj@@ABUCombatSound@@@Z
	DD	FLAT:?Enemy_Seen@ScriptImpClass@@UAEXPAVScriptableGameObj@@0@Z
	DD	FLAT:?Action_Complete@ScriptImpClass@@UAEXPAVScriptableGameObj@@HW4ActionCompleteReason@@@Z
	DD	FLAT:?Timer_Expired@KAK_Precipitation_Zone@@EAEXPAVScriptableGameObj@@H@Z
	DD	FLAT:?Animation_Complete@ScriptImpClass@@UAEXPAVScriptableGameObj@@PBD@Z
	DD	FLAT:?Poked@ScriptImpClass@@UAEXPAVScriptableGameObj@@0@Z
	DD	FLAT:?Entered@KAK_Precipitation_Zone@@EAEXPAVScriptableGameObj@@0@Z
	DD	FLAT:?Exited@KAK_Precipitation_Zone@@EAEXPAVScriptableGameObj@@0@Z
	DD	FLAT:?Owner@ScriptImpClass@@UAEPAVScriptableGameObj@@XZ
	DD	FLAT:?Get_Owner_Ptr@ScriptImpClass@@UAEPAPAVScriptableGameObj@@XZ
	DD	FLAT:?Set_Parameters_String@ScriptImpClass@@UAEXPBD@Z
	DD	FLAT:?Get_Parameters_String@ScriptImpClass@@UAEXPADI@Z
	DD	FLAT:?Save@ScriptImpClass@@MAEXAAVScriptSaver@@@Z
	DD	FLAT:?Load@ScriptImpClass@@MAEXAAVScriptLoader@@@Z
	DD	FLAT:?Save_Data@ScriptImpClass@@UAEXAAVScriptSaver@@@Z
	DD	FLAT:?Load_Data@ScriptImpClass@@UAEXAAVScriptLoader@@@Z
	DD	FLAT:?Register_Auto_Save_Variables@ScriptImpClass@@UAEXXZ
CONST	ENDS
;	COMDAT ??_7KAK_Precipitation_Create@@6B@
CONST	SEGMENT
??_7KAK_Precipitation_Create@@6B@ DD FLAT:??_R4KAK_Precipitation_Create@@6B@ ; KAK_Precipitation_Create::`vftable'
	DD	FLAT:??_EKAK_Precipitation_Create@@UAEPAXI@Z
	DD	FLAT:?Get_Name@ScriptImpClass@@UAEPBDXZ
	DD	FLAT:?Attach@ScriptImpClass@@MAEXPAVScriptableGameObj@@@Z
	DD	FLAT:?Detach@ScriptImpClass@@MAEXPAVScriptableGameObj@@@Z
	DD	FLAT:?Created@KAK_Precipitation_Create@@EAEXPAVScriptableGameObj@@@Z
	DD	FLAT:?Destroyed@KAK_Precipitation_Create@@EAEXPAVScriptableGameObj@@@Z
	DD	FLAT:?Killed@ScriptImpClass@@UAEXPAVScriptableGameObj@@0@Z
	DD	FLAT:?Damaged@ScriptImpClass@@UAEXPAVScriptableGameObj@@0M@Z
	DD	FLAT:?Custom@ScriptImpClass@@UAEXPAVScriptableGameObj@@HH0@Z
	DD	FLAT:?Sound_Heard@ScriptImpClass@@UAEXPAVScriptableGameObj@@ABUCombatSound@@@Z
	DD	FLAT:?Enemy_Seen@ScriptImpClass@@UAEXPAVScriptableGameObj@@0@Z
	DD	FLAT:?Action_Complete@ScriptImpClass@@UAEXPAVScriptableGameObj@@HW4ActionCompleteReason@@@Z
	DD	FLAT:?Timer_Expired@KAK_Precipitation_Create@@EAEXPAVScriptableGameObj@@H@Z
	DD	FLAT:?Animation_Complete@ScriptImpClass@@UAEXPAVScriptableGameObj@@PBD@Z
	DD	FLAT:?Poked@ScriptImpClass@@UAEXPAVScriptableGameObj@@0@Z
	DD	FLAT:?Entered@ScriptImpClass@@UAEXPAVScriptableGameObj@@0@Z
	DD	FLAT:?Exited@ScriptImpClass@@UAEXPAVScriptableGameObj@@0@Z
	DD	FLAT:?Owner@ScriptImpClass@@UAEPAVScriptableGameObj@@XZ
	DD	FLAT:?Get_Owner_Ptr@ScriptImpClass@@UAEPAPAVScriptableGameObj@@XZ
	DD	FLAT:?Set_Parameters_String@ScriptImpClass@@UAEXPBD@Z
	DD	FLAT:?Get_Parameters_String@ScriptImpClass@@UAEXPADI@Z
	DD	FLAT:?Save@ScriptImpClass@@MAEXAAVScriptSaver@@@Z
	DD	FLAT:?Load@ScriptImpClass@@MAEXAAVScriptLoader@@@Z
	DD	FLAT:?Save_Data@ScriptImpClass@@UAEXAAVScriptSaver@@@Z
	DD	FLAT:?Load_Data@ScriptImpClass@@UAEXAAVScriptLoader@@@Z
	DD	FLAT:?Register_Auto_Save_Variables@ScriptImpClass@@UAEXXZ
CONST	ENDS
;	COMDAT ??_7KAK_Warp_On_Pickup@@6B@
CONST	SEGMENT
??_7KAK_Warp_On_Pickup@@6B@ DD FLAT:??_R4KAK_Warp_On_Pickup@@6B@ ; KAK_Warp_On_Pickup::`vftable'
	DD	FLAT:??_EKAK_Warp_On_Pickup@@UAEPAXI@Z
	DD	FLAT:?Get_Name@ScriptImpClass@@UAEPBDXZ
	DD	FLAT:?Attach@ScriptImpClass@@MAEXPAVScriptableGameObj@@@Z
	DD	FLAT:?Detach@ScriptImpClass@@MAEXPAVScriptableGameObj@@@Z
	DD	FLAT:?Created@ScriptImpClass@@UAEXPAVScriptableGameObj@@@Z
	DD	FLAT:?Destroyed@ScriptImpClass@@UAEXPAVScriptableGameObj@@@Z
	DD	FLAT:?Killed@ScriptImpClass@@UAEXPAVScriptableGameObj@@0@Z
	DD	FLAT:?Damaged@ScriptImpClass@@UAEXPAVScriptableGameObj@@0M@Z
	DD	FLAT:?Custom@KAK_Warp_On_Pickup@@EAEXPAVScriptableGameObj@@HH0@Z
	DD	FLAT:?Sound_Heard@ScriptImpClass@@UAEXPAVScriptableGameObj@@ABUCombatSound@@@Z
	DD	FLAT:?Enemy_Seen@ScriptImpClass@@UAEXPAVScriptableGameObj@@0@Z
	DD	FLAT:?Action_Complete@ScriptImpClass@@UAEXPAVScriptableGameObj@@HW4ActionCompleteReason@@@Z
	DD	FLAT:?Timer_Expired@ScriptImpClass@@UAEXPAVScriptableGameObj@@H@Z
	DD	FLAT:?Animation_Complete@ScriptImpClass@@UAEXPAVScriptableGameObj@@PBD@Z
	DD	FLAT:?Poked@ScriptImpClass@@UAEXPAVScriptableGameObj@@0@Z
	DD	FLAT:?Entered@ScriptImpClass@@UAEXPAVScriptableGameObj@@0@Z
	DD	FLAT:?Exited@ScriptImpClass@@UAEXPAVScriptableGameObj@@0@Z
	DD	FLAT:?Owner@ScriptImpClass@@UAEPAVScriptableGameObj@@XZ
	DD	FLAT:?Get_Owner_Ptr@ScriptImpClass@@UAEPAPAVScriptableGameObj@@XZ
	DD	FLAT:?Set_Parameters_String@ScriptImpClass@@UAEXPBD@Z
	DD	FLAT:?Get_Parameters_String@ScriptImpClass@@UAEXPADI@Z
	DD	FLAT:?Save@ScriptImpClass@@MAEXAAVScriptSaver@@@Z
	DD	FLAT:?Load@ScriptImpClass@@MAEXAAVScriptLoader@@@Z
	DD	FLAT:?Save_Data@ScriptImpClass@@UAEXAAVScriptSaver@@@Z
	DD	FLAT:?Load_Data@ScriptImpClass@@UAEXAAVScriptLoader@@@Z
	DD	FLAT:?Register_Auto_Save_Variables@ScriptImpClass@@UAEXXZ
CONST	ENDS
;	COMDAT ??_7ScriptFactory@@6B@
CONST	SEGMENT
??_7ScriptFactory@@6B@ DD FLAT:??_R4ScriptFactory@@6B@	; ScriptFactory::`vftable'
	DD	FLAT:??_EScriptFactory@@UAEPAXI@Z
	DD	FLAT:__purecall
CONST	ENDS
;	COMDAT ??_7ScriptImpClass@@6B@
CONST	SEGMENT
??_7ScriptImpClass@@6B@ DD FLAT:??_R4ScriptImpClass@@6B@ ; ScriptImpClass::`vftable'
	DD	FLAT:??_EScriptImpClass@@UAEPAXI@Z
	DD	FLAT:?Get_Name@ScriptImpClass@@UAEPBDXZ
	DD	FLAT:?Attach@ScriptImpClass@@MAEXPAVScriptableGameObj@@@Z
	DD	FLAT:?Detach@ScriptImpClass@@MAEXPAVScriptableGameObj@@@Z
	DD	FLAT:?Created@ScriptImpClass@@UAEXPAVScriptableGameObj@@@Z
	DD	FLAT:?Destroyed@ScriptImpClass@@UAEXPAVScriptableGameObj@@@Z
	DD	FLAT:?Killed@ScriptImpClass@@UAEXPAVScriptableGameObj@@0@Z
	DD	FLAT:?Damaged@ScriptImpClass@@UAEXPAVScriptableGameObj@@0M@Z
	DD	FLAT:?Custom@ScriptImpClass@@UAEXPAVScriptableGameObj@@HH0@Z
	DD	FLAT:?Sound_Heard@ScriptImpClass@@UAEXPAVScriptableGameObj@@ABUCombatSound@@@Z
	DD	FLAT:?Enemy_Seen@ScriptImpClass@@UAEXPAVScriptableGameObj@@0@Z
	DD	FLAT:?Action_Complete@ScriptImpClass@@UAEXPAVScriptableGameObj@@HW4ActionCompleteReason@@@Z
	DD	FLAT:?Timer_Expired@ScriptImpClass@@UAEXPAVScriptableGameObj@@H@Z
	DD	FLAT:?Animation_Complete@ScriptImpClass@@UAEXPAVScriptableGameObj@@PBD@Z
	DD	FLAT:?Poked@ScriptImpClass@@UAEXPAVScriptableGameObj@@0@Z
	DD	FLAT:?Entered@ScriptImpClass@@UAEXPAVScriptableGameObj@@0@Z
	DD	FLAT:?Exited@ScriptImpClass@@UAEXPAVScriptableGameObj@@0@Z
	DD	FLAT:?Owner@ScriptImpClass@@UAEPAVScriptableGameObj@@XZ
	DD	FLAT:?Get_Owner_Ptr@ScriptImpClass@@UAEPAPAVScriptableGameObj@@XZ
	DD	FLAT:?Set_Parameters_String@ScriptImpClass@@UAEXPBD@Z
	DD	FLAT:?Get_Parameters_String@ScriptImpClass@@UAEXPADI@Z
	DD	FLAT:?Save@ScriptImpClass@@MAEXAAVScriptSaver@@@Z
	DD	FLAT:?Load@ScriptImpClass@@MAEXAAVScriptLoader@@@Z
	DD	FLAT:?Save_Data@ScriptImpClass@@UAEXAAVScriptSaver@@@Z
	DD	FLAT:?Load_Data@ScriptImpClass@@UAEXAAVScriptLoader@@@Z
	DD	FLAT:?Register_Auto_Save_Variables@ScriptImpClass@@UAEXXZ
CONST	ENDS
;	COMDAT ??_7ScriptClass@@6B@
CONST	SEGMENT
??_7ScriptClass@@6B@ DD FLAT:??_R4ScriptClass@@6B@	; ScriptClass::`vftable'
	DD	FLAT:??_EScriptClass@@UAEPAXI@Z
	DD	FLAT:__purecall
	DD	FLAT:__purecall
	DD	FLAT:__purecall
	DD	FLAT:__purecall
	DD	FLAT:__purecall
	DD	FLAT:__purecall
	DD	FLAT:__purecall
	DD	FLAT:__purecall
	DD	FLAT:__purecall
	DD	FLAT:__purecall
	DD	FLAT:__purecall
	DD	FLAT:__purecall
	DD	FLAT:__purecall
	DD	FLAT:__purecall
	DD	FLAT:__purecall
	DD	FLAT:__purecall
	DD	FLAT:?Owner@GameObjObserverClass@@UAEPAVScriptableGameObj@@XZ
	DD	FLAT:__purecall
	DD	FLAT:__purecall
	DD	FLAT:__purecall
	DD	FLAT:__purecall
	DD	FLAT:__purecall
CONST	ENDS
;	COMDAT ??_7GameObjObserverClass@@6B@
CONST	SEGMENT
??_7GameObjObserverClass@@6B@ DD FLAT:??_R4GameObjObserverClass@@6B@ ; GameObjObserverClass::`vftable'
	DD	FLAT:??_EGameObjObserverClass@@UAEPAXI@Z
	DD	FLAT:__purecall
	DD	FLAT:__purecall
	DD	FLAT:__purecall
	DD	FLAT:__purecall
	DD	FLAT:__purecall
	DD	FLAT:__purecall
	DD	FLAT:__purecall
	DD	FLAT:__purecall
	DD	FLAT:__purecall
	DD	FLAT:__purecall
	DD	FLAT:__purecall
	DD	FLAT:__purecall
	DD	FLAT:__purecall
	DD	FLAT:__purecall
	DD	FLAT:__purecall
	DD	FLAT:__purecall
	DD	FLAT:?Owner@GameObjObserverClass@@UAEPAVScriptableGameObj@@XZ
CONST	ENDS
CRT$XCU	SEGMENT
_KAK_Precipitation_Create_Registrant$initializer$ DD FLAT:??__EKAK_Precipitation_Create_Registrant@@YAXXZ
CRT$XCU	ENDS
CRT$XCU	SEGMENT
_KAK_Precipitation_Zone_Registrant$initializer$ DD FLAT:??__EKAK_Precipitation_Zone_Registrant@@YAXXZ
CRT$XCU	ENDS
CRT$XCU	SEGMENT
_KAK_Wind_Create_Registrant$initializer$ DD FLAT:??__EKAK_Wind_Create_Registrant@@YAXXZ
CRT$XCU	ENDS
CRT$XCU	SEGMENT
_KAK_Wind_Zone_Registrant$initializer$ DD FLAT:??__EKAK_Wind_Zone_Registrant@@YAXXZ
CRT$XCU	ENDS
CRT$XCU	SEGMENT
_KAK_Clouds_Create_Registrant$initializer$ DD FLAT:??__EKAK_Clouds_Create_Registrant@@YAXXZ
CRT$XCU	ENDS
CRT$XCU	SEGMENT
_KAK_Clouds_Zone_Registrant$initializer$ DD FLAT:??__EKAK_Clouds_Zone_Registrant@@YAXXZ
CRT$XCU	ENDS
CRT$XCU	SEGMENT
_KAK_Lightning_Create_Registrant$initializer$ DD FLAT:??__EKAK_Lightning_Create_Registrant@@YAXXZ
CRT$XCU	ENDS
CRT$XCU	SEGMENT
_KAK_Lightning_Zone_Registrant$initializer$ DD FLAT:??__EKAK_Lightning_Zone_Registrant@@YAXXZ
CRT$XCU	ENDS
CRT$XCU	SEGMENT
_KAK_Flowing_Weather_Registrant$initializer$ DD FLAT:??__EKAK_Flowing_Weather_Registrant@@YAXXZ
CRT$XCU	ENDS
CRT$XCU	SEGMENT
_KAK_Give_Powerup_On_Pickup_Registrant$initializer$ DD FLAT:??__EKAK_Give_Powerup_On_Pickup_Registrant@@YAXXZ
CRT$XCU	ENDS
CRT$XCU	SEGMENT
_KAK_Select_Weapon_Zone_Registrant$initializer$ DD FLAT:??__EKAK_Select_Weapon_Zone_Registrant@@YAXXZ
CRT$XCU	ENDS
CRT$XCU	SEGMENT
_KAK_Select_Weapon_On_Pickup_Registrant$initializer$ DD FLAT:??__EKAK_Select_Weapon_On_Pickup_Registrant@@YAXXZ
CRT$XCU	ENDS
CRT$XCU	SEGMENT
_KAK_Harvester_Logic_Registrant$initializer$ DD FLAT:??__EKAK_Harvester_Logic_Registrant@@YAXXZ
CRT$XCU	ENDS
CRT$XCU	SEGMENT
_KAK_Harvester_Attached_Registrant$initializer$ DD FLAT:??__EKAK_Harvester_Attached_Registrant@@YAXXZ
CRT$XCU	ENDS
CRT$XCU	SEGMENT
_KAK_Harvester_Kill_Registrant$initializer$ DD FLAT:??__EKAK_Harvester_Kill_Registrant@@YAXXZ
CRT$XCU	ENDS
CRT$XCU	SEGMENT
_KAK_Harvester_Spawn_Kill_Registrant$initializer$ DD FLAT:??__EKAK_Harvester_Spawn_Kill_Registrant@@YAXXZ
CRT$XCU	ENDS
CRT$XCU	SEGMENT
_KAK_Prevent_Kill_Registrant$initializer$ DD FLAT:??__EKAK_Prevent_Kill_Registrant@@YAXXZ
CRT$XCU	ENDS
CRT$XCU	SEGMENT
_KAK_Convert_Visceroid_Registrant$initializer$ DD FLAT:??__EKAK_Convert_Visceroid_Registrant@@YAXXZ
CRT$XCU	ENDS
CRT$XCU	SEGMENT
_KAK_Freeze_Object_Registrant$initializer$ DD FLAT:??__EKAK_Freeze_Object_Registrant@@YAXXZ
CRT$XCU	ENDS
CRT$XCU	SEGMENT
_KAK_Regen_Custom_Registrant$initializer$ DD FLAT:??__EKAK_Regen_Custom_Registrant@@YAXXZ
CRT$XCU	ENDS
; Function compile flags: /Odtp /ZI
;	COMDAT ??__FKAK_Regen_Custom_Registrant@@YAXXZ
text$yd	SEGMENT
??__FKAK_Regen_Custom_Registrant@@YAXXZ PROC		; `dynamic atexit destructor for 'KAK_Regen_Custom_Registrant'', COMDAT
	push	ebp
	mov	ebp, esp
	sub	esp, 64					; 00000040H
	push	ebx
	push	esi
	push	edi
	mov	ecx, OFFSET ?KAK_Regen_Custom_Registrant@@3V?$ScriptRegistrant@VKAK_Regen_Custom@@@@A ; KAK_Regen_Custom_Registrant
	call	??1?$ScriptRegistrant@VKAK_Regen_Custom@@@@UAE@XZ
	pop	edi
	pop	esi
	pop	ebx
	mov	esp, ebp
	pop	ebp
	ret	0
??__FKAK_Regen_Custom_Registrant@@YAXXZ ENDP		; `dynamic atexit destructor for 'KAK_Regen_Custom_Registrant''
text$yd	ENDS
; Function compile flags: /Odtp /ZI
; File x:\github\renegade\dragonade_rxd\scripts\kak.cpp
;	COMDAT ??__EKAK_Regen_Custom_Registrant@@YAXXZ
text$yc	SEGMENT
??__EKAK_Regen_Custom_Registrant@@YAXXZ PROC		; `dynamic initializer for 'KAK_Regen_Custom_Registrant'', COMDAT

; 1085 : ScriptRegistrant<KAK_Regen_Custom> KAK_Regen_Custom_Registrant("KAK_Regen_Custom","Interval=0.5:float,Health=2.0:float");

	push	ebp
	mov	ebp, esp
	sub	esp, 64					; 00000040H
	push	ebx
	push	esi
	push	edi
	push	OFFSET ??_C@_0CE@IMLOBHPI@Interval?$DN0?45?3float?0Health?$DN2?40?3fl@
	push	OFFSET ??_C@_0BB@FDAABDGL@KAK_Regen_Custom?$AA@
	mov	ecx, OFFSET ?KAK_Regen_Custom_Registrant@@3V?$ScriptRegistrant@VKAK_Regen_Custom@@@@A ; KAK_Regen_Custom_Registrant
	call	??0?$ScriptRegistrant@VKAK_Regen_Custom@@@@QAE@PBD0@Z ; ScriptRegistrant<KAK_Regen_Custom>::ScriptRegistrant<KAK_Regen_Custom>
	push	OFFSET ??__FKAK_Regen_Custom_Registrant@@YAXXZ ; `dynamic atexit destructor for 'KAK_Regen_Custom_Registrant''
	call	_atexit
	add	esp, 4
	pop	edi
	pop	esi
	pop	ebx
	mov	esp, ebp
	pop	ebp
	ret	0
??__EKAK_Regen_Custom_Registrant@@YAXXZ ENDP		; `dynamic initializer for 'KAK_Regen_Custom_Registrant''
text$yc	ENDS
; Function compile flags: /Odtp /ZI
;	COMDAT ??_G?$ScriptRegistrant@VKAK_Regen_Custom@@@@UAEPAXI@Z
_TEXT	SEGMENT
_this$ = -4						; size = 4
___flags$ = 8						; size = 4
??_G?$ScriptRegistrant@VKAK_Regen_Custom@@@@UAEPAXI@Z PROC ; ScriptRegistrant<KAK_Regen_Custom>::`scalar deleting destructor', COMDAT
; _this$ = ecx
	push	ebp
	mov	ebp, esp
	sub	esp, 68					; 00000044H
	push	ebx
	push	esi
	push	edi
	mov	DWORD PTR _this$[ebp], ecx
	mov	ecx, DWORD PTR _this$[ebp]
	call	??1?$ScriptRegistrant@VKAK_Regen_Custom@@@@UAE@XZ
	mov	eax, DWORD PTR ___flags$[ebp]
	and	eax, 1
	je	SHORT $LN1@scalar
	mov	eax, DWORD PTR _this$[ebp]
	push	eax
	call	??3@YAXPAX@Z				; operator delete
	add	esp, 4
$LN1@scalar:
	mov	eax, DWORD PTR _this$[ebp]
	pop	edi
	pop	esi
	pop	ebx
	mov	esp, ebp
	pop	ebp
	ret	4
??_G?$ScriptRegistrant@VKAK_Regen_Custom@@@@UAEPAXI@Z ENDP ; ScriptRegistrant<KAK_Regen_Custom>::`scalar deleting destructor'
_TEXT	ENDS
; Function compile flags: /Odtp /ZI
;	COMDAT ??1?$ScriptRegistrant@VKAK_Regen_Custom@@@@UAE@XZ
_TEXT	SEGMENT
_this$ = -4						; size = 4
??1?$ScriptRegistrant@VKAK_Regen_Custom@@@@UAE@XZ PROC	; ScriptRegistrant<KAK_Regen_Custom>::~ScriptRegistrant<KAK_Regen_Custom>, COMDAT
; _this$ = ecx
	push	ebp
	mov	ebp, esp
	sub	esp, 68					; 00000044H
	push	ebx
	push	esi
	push	edi
	mov	DWORD PTR _this$[ebp], ecx
	mov	ecx, DWORD PTR _this$[ebp]
	call	??1ScriptFactory@@UAE@XZ		; ScriptFactory::~ScriptFactory
	pop	edi
	pop	esi
	pop	ebx
	mov	esp, ebp
	pop	ebp
	ret	0
??1?$ScriptRegistrant@VKAK_Regen_Custom@@@@UAE@XZ ENDP	; ScriptRegistrant<KAK_Regen_Custom>::~ScriptRegistrant<KAK_Regen_Custom>
_TEXT	ENDS
; Function compile flags: /Odtp /ZI
; File x:\github\renegade\dragonade_rxd\scripts\scripts.h
;	COMDAT ?Create@?$ScriptRegistrant@VKAK_Regen_Custom@@@@UAEPAVScriptImpClass@@XZ
_TEXT	SEGMENT
tv77 = -84						; size = 4
tv79 = -80						; size = 4
$T1 = -76						; size = 4
_script$ = -8						; size = 4
_this$ = -4						; size = 4
?Create@?$ScriptRegistrant@VKAK_Regen_Custom@@@@UAEPAVScriptImpClass@@XZ PROC ; ScriptRegistrant<KAK_Regen_Custom>::Create, COMDAT
; _this$ = ecx

; 552  : 	{

	push	ebp
	mov	ebp, esp
	sub	esp, 84					; 00000054H
	push	ebx
	push	esi
	push	edi
	mov	DWORD PTR _this$[ebp], ecx

; 553  : 		T* script = new T;

	push	OFFSET ??_C@_0DB@DEDGHMPO@ScriptRegistrant?$DMclass?5KAK_Regen@
	push	553					; 00000229H
	push	OFFSET ??_C@_0DD@KMKBFFOF@x?3?2github?2renegade?2dragonade_rxd@
	call	?SetThreadTrackingInformation@@YAXPBDI0@Z ; SetThreadTrackingInformation
	add	esp, 12					; 0000000cH
	xor	eax, eax
	je	SHORT $LN6@Create
	xor	ecx, ecx
	jne	SHORT $LN3@Create
	push	553					; 00000229H
	push	OFFSET ??_C@_1GG@OGNLNBPD@?$AAx?$AA?3?$AA?2?$AAg?$AAi?$AAt?$AAh?$AAu?$AAb?$AA?2?$AAr?$AAe?$AAn?$AAe?$AAg?$AAa?$AAd?$AAe?$AA?2?$AAd?$AAr?$AAa?$AAg?$AAo?$AAn?$AAa?$AAd?$AAe?$AA_?$AAr?$AAx?$AAd@
	push	OFFSET ??_C@_1M@HLGKFCJM@?$AAf?$AAa?$AAl?$AAs?$AAe?$AA?$AA@
	call	DWORD PTR __imp___wassert
	add	esp, 12					; 0000000cH
$LN3@Create:
	mov	DWORD PTR tv79[ebp], 0
	jmp	SHORT $LN7@Create
$LN6@Create:
	push	28					; 0000001cH
	call	??2@YAPAXI@Z				; operator new
	add	esp, 4
	mov	DWORD PTR $T1[ebp], eax
	cmp	DWORD PTR $T1[ebp], 0
	je	SHORT $LN4@Create
	mov	ecx, DWORD PTR $T1[ebp]
	call	??0KAK_Regen_Custom@@QAE@XZ
	mov	DWORD PTR tv77[ebp], eax
	jmp	SHORT $LN5@Create
$LN4@Create:
	mov	DWORD PTR tv77[ebp], 0
$LN5@Create:
	mov	eax, DWORD PTR tv77[ebp]
	mov	DWORD PTR tv79[ebp], eax
$LN7@Create:
	mov	ecx, DWORD PTR tv79[ebp]
	mov	DWORD PTR _script$[ebp], ecx

; 554  : 		script->SetFactory(this);

	mov	eax, DWORD PTR _this$[ebp]
	push	eax
	mov	ecx, DWORD PTR _script$[ebp]
	call	?SetFactory@ScriptImpClass@@QAEXPAVScriptFactory@@@Z ; ScriptImpClass::SetFactory

; 555  : 		script->Register_Auto_Save_Variables();

	mov	eax, DWORD PTR _script$[ebp]
	mov	edx, DWORD PTR [eax]
	mov	ecx, DWORD PTR _script$[ebp]
	mov	eax, DWORD PTR [edx+100]
	call	eax

; 556  : 		return script;

	mov	eax, DWORD PTR _script$[ebp]

; 557  : 	}

	pop	edi
	pop	esi
	pop	ebx
	mov	esp, ebp
	pop	ebp
	ret	0
?Create@?$ScriptRegistrant@VKAK_Regen_Custom@@@@UAEPAVScriptImpClass@@XZ ENDP ; ScriptRegistrant<KAK_Regen_Custom>::Create
_TEXT	ENDS
; Function compile flags: /Odtp /ZI
; File x:\github\renegade\dragonade_rxd\scripts\scripts.h
;	COMDAT ??0?$ScriptRegistrant@VKAK_Regen_Custom@@@@QAE@PBD0@Z
_TEXT	SEGMENT
_this$ = -4						; size = 4
_name$ = 8						; size = 4
_param$ = 12						; size = 4
??0?$ScriptRegistrant@VKAK_Regen_Custom@@@@QAE@PBD0@Z PROC ; ScriptRegistrant<KAK_Regen_Custom>::ScriptRegistrant<KAK_Regen_Custom>, COMDAT
; _this$ = ecx

; 549  : 	{

	push	ebp
	mov	ebp, esp
	sub	esp, 68					; 00000044H
	push	ebx
	push	esi
	push	edi
	mov	DWORD PTR _this$[ebp], ecx
	mov	eax, DWORD PTR _param$[ebp]
	push	eax
	mov	ecx, DWORD PTR _name$[ebp]
	push	ecx
	mov	ecx, DWORD PTR _this$[ebp]
	call	??0ScriptFactory@@IAE@PBD0@Z		; ScriptFactory::ScriptFactory
	mov	eax, DWORD PTR _this$[ebp]
	mov	DWORD PTR [eax], OFFSET ??_7?$ScriptRegistrant@VKAK_Regen_Custom@@@@6B@

; 550  : 	}

	mov	eax, DWORD PTR _this$[ebp]
	pop	edi
	pop	esi
	pop	ebx
	mov	esp, ebp
	pop	ebp
	ret	8
??0?$ScriptRegistrant@VKAK_Regen_Custom@@@@QAE@PBD0@Z ENDP ; ScriptRegistrant<KAK_Regen_Custom>::ScriptRegistrant<KAK_Regen_Custom>
_TEXT	ENDS
; Function compile flags: /Odtp /ZI
;	COMDAT ??__FKAK_Freeze_Object_Registrant@@YAXXZ
text$yd	SEGMENT
??__FKAK_Freeze_Object_Registrant@@YAXXZ PROC		; `dynamic atexit destructor for 'KAK_Freeze_Object_Registrant'', COMDAT
	push	ebp
	mov	ebp, esp
	sub	esp, 64					; 00000040H
	push	ebx
	push	esi
	push	edi
	mov	ecx, OFFSET ?KAK_Freeze_Object_Registrant@@3V?$ScriptRegistrant@VKAK_Freeze_Object@@@@A ; KAK_Freeze_Object_Registrant
	call	??1?$ScriptRegistrant@VKAK_Freeze_Object@@@@UAE@XZ
	pop	edi
	pop	esi
	pop	ebx
	mov	esp, ebp
	pop	ebp
	ret	0
??__FKAK_Freeze_Object_Registrant@@YAXXZ ENDP		; `dynamic atexit destructor for 'KAK_Freeze_Object_Registrant''
text$yd	ENDS
; Function compile flags: /Odtp /ZI
; File x:\github\renegade\dragonade_rxd\scripts\kak.cpp
;	COMDAT ??__EKAK_Freeze_Object_Registrant@@YAXXZ
text$yc	SEGMENT
??__EKAK_Freeze_Object_Registrant@@YAXXZ PROC		; `dynamic initializer for 'KAK_Freeze_Object_Registrant'', COMDAT

; 1084 : ScriptRegistrant<KAK_Freeze_Object> KAK_Freeze_Object_Registrant("KAK_Freeze_Object","Time=5.0:float");

	push	ebp
	mov	ebp, esp
	sub	esp, 64					; 00000040H
	push	ebx
	push	esi
	push	edi
	push	OFFSET ??_C@_0P@LKMJJPJE@Time?$DN5?40?3float?$AA@
	push	OFFSET ??_C@_0BC@LBFAJEO@KAK_Freeze_Object?$AA@
	mov	ecx, OFFSET ?KAK_Freeze_Object_Registrant@@3V?$ScriptRegistrant@VKAK_Freeze_Object@@@@A ; KAK_Freeze_Object_Registrant
	call	??0?$ScriptRegistrant@VKAK_Freeze_Object@@@@QAE@PBD0@Z ; ScriptRegistrant<KAK_Freeze_Object>::ScriptRegistrant<KAK_Freeze_Object>
	push	OFFSET ??__FKAK_Freeze_Object_Registrant@@YAXXZ ; `dynamic atexit destructor for 'KAK_Freeze_Object_Registrant''
	call	_atexit
	add	esp, 4
	pop	edi
	pop	esi
	pop	ebx
	mov	esp, ebp
	pop	ebp
	ret	0
??__EKAK_Freeze_Object_Registrant@@YAXXZ ENDP		; `dynamic initializer for 'KAK_Freeze_Object_Registrant''
text$yc	ENDS
; Function compile flags: /Odtp /ZI
;	COMDAT ??_G?$ScriptRegistrant@VKAK_Freeze_Object@@@@UAEPAXI@Z
_TEXT	SEGMENT
_this$ = -4						; size = 4
___flags$ = 8						; size = 4
??_G?$ScriptRegistrant@VKAK_Freeze_Object@@@@UAEPAXI@Z PROC ; ScriptRegistrant<KAK_Freeze_Object>::`scalar deleting destructor', COMDAT
; _this$ = ecx
	push	ebp
	mov	ebp, esp
	sub	esp, 68					; 00000044H
	push	ebx
	push	esi
	push	edi
	mov	DWORD PTR _this$[ebp], ecx
	mov	ecx, DWORD PTR _this$[ebp]
	call	??1?$ScriptRegistrant@VKAK_Freeze_Object@@@@UAE@XZ
	mov	eax, DWORD PTR ___flags$[ebp]
	and	eax, 1
	je	SHORT $LN1@scalar
	mov	eax, DWORD PTR _this$[ebp]
	push	eax
	call	??3@YAXPAX@Z				; operator delete
	add	esp, 4
$LN1@scalar:
	mov	eax, DWORD PTR _this$[ebp]
	pop	edi
	pop	esi
	pop	ebx
	mov	esp, ebp
	pop	ebp
	ret	4
??_G?$ScriptRegistrant@VKAK_Freeze_Object@@@@UAEPAXI@Z ENDP ; ScriptRegistrant<KAK_Freeze_Object>::`scalar deleting destructor'
_TEXT	ENDS
; Function compile flags: /Odtp /ZI
;	COMDAT ??1?$ScriptRegistrant@VKAK_Freeze_Object@@@@UAE@XZ
_TEXT	SEGMENT
_this$ = -4						; size = 4
??1?$ScriptRegistrant@VKAK_Freeze_Object@@@@UAE@XZ PROC	; ScriptRegistrant<KAK_Freeze_Object>::~ScriptRegistrant<KAK_Freeze_Object>, COMDAT
; _this$ = ecx
	push	ebp
	mov	ebp, esp
	sub	esp, 68					; 00000044H
	push	ebx
	push	esi
	push	edi
	mov	DWORD PTR _this$[ebp], ecx
	mov	ecx, DWORD PTR _this$[ebp]
	call	??1ScriptFactory@@UAE@XZ		; ScriptFactory::~ScriptFactory
	pop	edi
	pop	esi
	pop	ebx
	mov	esp, ebp
	pop	ebp
	ret	0
??1?$ScriptRegistrant@VKAK_Freeze_Object@@@@UAE@XZ ENDP	; ScriptRegistrant<KAK_Freeze_Object>::~ScriptRegistrant<KAK_Freeze_Object>
_TEXT	ENDS
; Function compile flags: /Odtp /ZI
; File x:\github\renegade\dragonade_rxd\scripts\scripts.h
;	COMDAT ?Create@?$ScriptRegistrant@VKAK_Freeze_Object@@@@UAEPAVScriptImpClass@@XZ
_TEXT	SEGMENT
tv77 = -84						; size = 4
tv79 = -80						; size = 4
$T1 = -76						; size = 4
_script$ = -8						; size = 4
_this$ = -4						; size = 4
?Create@?$ScriptRegistrant@VKAK_Freeze_Object@@@@UAEPAVScriptImpClass@@XZ PROC ; ScriptRegistrant<KAK_Freeze_Object>::Create, COMDAT
; _this$ = ecx

; 552  : 	{

	push	ebp
	mov	ebp, esp
	sub	esp, 84					; 00000054H
	push	ebx
	push	esi
	push	edi
	mov	DWORD PTR _this$[ebp], ecx

; 553  : 		T* script = new T;

	push	OFFSET ??_C@_0DC@OFHOJKLM@ScriptRegistrant?$DMclass?5KAK_Freez@
	push	553					; 00000229H
	push	OFFSET ??_C@_0DD@KMKBFFOF@x?3?2github?2renegade?2dragonade_rxd@
	call	?SetThreadTrackingInformation@@YAXPBDI0@Z ; SetThreadTrackingInformation
	add	esp, 12					; 0000000cH
	xor	eax, eax
	je	SHORT $LN6@Create
	xor	ecx, ecx
	jne	SHORT $LN3@Create
	push	553					; 00000229H
	push	OFFSET ??_C@_1GG@OGNLNBPD@?$AAx?$AA?3?$AA?2?$AAg?$AAi?$AAt?$AAh?$AAu?$AAb?$AA?2?$AAr?$AAe?$AAn?$AAe?$AAg?$AAa?$AAd?$AAe?$AA?2?$AAd?$AAr?$AAa?$AAg?$AAo?$AAn?$AAa?$AAd?$AAe?$AA_?$AAr?$AAx?$AAd@
	push	OFFSET ??_C@_1M@HLGKFCJM@?$AAf?$AAa?$AAl?$AAs?$AAe?$AA?$AA@
	call	DWORD PTR __imp___wassert
	add	esp, 12					; 0000000cH
$LN3@Create:
	mov	DWORD PTR tv79[ebp], 0
	jmp	SHORT $LN7@Create
$LN6@Create:
	push	44					; 0000002cH
	call	??2@YAPAXI@Z				; operator new
	add	esp, 4
	mov	DWORD PTR $T1[ebp], eax
	cmp	DWORD PTR $T1[ebp], 0
	je	SHORT $LN4@Create
	mov	ecx, DWORD PTR $T1[ebp]
	call	??0KAK_Freeze_Object@@QAE@XZ
	mov	DWORD PTR tv77[ebp], eax
	jmp	SHORT $LN5@Create
$LN4@Create:
	mov	DWORD PTR tv77[ebp], 0
$LN5@Create:
	mov	eax, DWORD PTR tv77[ebp]
	mov	DWORD PTR tv79[ebp], eax
$LN7@Create:
	mov	ecx, DWORD PTR tv79[ebp]
	mov	DWORD PTR _script$[ebp], ecx

; 554  : 		script->SetFactory(this);

	mov	eax, DWORD PTR _this$[ebp]
	push	eax
	mov	ecx, DWORD PTR _script$[ebp]
	call	?SetFactory@ScriptImpClass@@QAEXPAVScriptFactory@@@Z ; ScriptImpClass::SetFactory

; 555  : 		script->Register_Auto_Save_Variables();

	mov	eax, DWORD PTR _script$[ebp]
	mov	edx, DWORD PTR [eax]
	mov	ecx, DWORD PTR _script$[ebp]
	mov	eax, DWORD PTR [edx+100]
	call	eax

; 556  : 		return script;

	mov	eax, DWORD PTR _script$[ebp]

; 557  : 	}

	pop	edi
	pop	esi
	pop	ebx
	mov	esp, ebp
	pop	ebp
	ret	0
?Create@?$ScriptRegistrant@VKAK_Freeze_Object@@@@UAEPAVScriptImpClass@@XZ ENDP ; ScriptRegistrant<KAK_Freeze_Object>::Create
_TEXT	ENDS
; Function compile flags: /Odtp /ZI
; File x:\github\renegade\dragonade_rxd\scripts\scripts.h
;	COMDAT ??0?$ScriptRegistrant@VKAK_Freeze_Object@@@@QAE@PBD0@Z
_TEXT	SEGMENT
_this$ = -4						; size = 4
_name$ = 8						; size = 4
_param$ = 12						; size = 4
??0?$ScriptRegistrant@VKAK_Freeze_Object@@@@QAE@PBD0@Z PROC ; ScriptRegistrant<KAK_Freeze_Object>::ScriptRegistrant<KAK_Freeze_Object>, COMDAT
; _this$ = ecx

; 549  : 	{

	push	ebp
	mov	ebp, esp
	sub	esp, 68					; 00000044H
	push	ebx
	push	esi
	push	edi
	mov	DWORD PTR _this$[ebp], ecx
	mov	eax, DWORD PTR _param$[ebp]
	push	eax
	mov	ecx, DWORD PTR _name$[ebp]
	push	ecx
	mov	ecx, DWORD PTR _this$[ebp]
	call	??0ScriptFactory@@IAE@PBD0@Z		; ScriptFactory::ScriptFactory
	mov	eax, DWORD PTR _this$[ebp]
	mov	DWORD PTR [eax], OFFSET ??_7?$ScriptRegistrant@VKAK_Freeze_Object@@@@6B@

; 550  : 	}

	mov	eax, DWORD PTR _this$[ebp]
	pop	edi
	pop	esi
	pop	ebx
	mov	esp, ebp
	pop	ebp
	ret	8
??0?$ScriptRegistrant@VKAK_Freeze_Object@@@@QAE@PBD0@Z ENDP ; ScriptRegistrant<KAK_Freeze_Object>::ScriptRegistrant<KAK_Freeze_Object>
_TEXT	ENDS
; Function compile flags: /Odtp /ZI
;	COMDAT ??__FKAK_Convert_Visceroid_Registrant@@YAXXZ
text$yd	SEGMENT
??__FKAK_Convert_Visceroid_Registrant@@YAXXZ PROC	; `dynamic atexit destructor for 'KAK_Convert_Visceroid_Registrant'', COMDAT
	push	ebp
	mov	ebp, esp
	sub	esp, 64					; 00000040H
	push	ebx
	push	esi
	push	edi
	mov	ecx, OFFSET ?KAK_Convert_Visceroid_Registrant@@3V?$ScriptRegistrant@VKAK_Convert_Visceroid@@@@A ; KAK_Convert_Visceroid_Registrant
	call	??1?$ScriptRegistrant@VKAK_Convert_Visceroid@@@@UAE@XZ
	pop	edi
	pop	esi
	pop	ebx
	mov	esp, ebp
	pop	ebp
	ret	0
??__FKAK_Convert_Visceroid_Registrant@@YAXXZ ENDP	; `dynamic atexit destructor for 'KAK_Convert_Visceroid_Registrant''
text$yd	ENDS
; Function compile flags: /Odtp /ZI
; File x:\github\renegade\dragonade_rxd\scripts\kak.cpp
;	COMDAT ??__EKAK_Convert_Visceroid_Registrant@@YAXXZ
text$yc	SEGMENT
??__EKAK_Convert_Visceroid_Registrant@@YAXXZ PROC	; `dynamic initializer for 'KAK_Convert_Visceroid_Registrant'', COMDAT

; 1083 : ScriptRegistrant<KAK_Convert_Visceroid> KAK_Convert_Visceroid_Registrant("KAK_Convert_Visceroid","");

	push	ebp
	mov	ebp, esp
	sub	esp, 64					; 00000040H
	push	ebx
	push	esi
	push	edi
	push	OFFSET ??_C@_00CNPNBAHC@?$AA@
	push	OFFSET ??_C@_0BG@IIKAMANI@KAK_Convert_Visceroid?$AA@
	mov	ecx, OFFSET ?KAK_Convert_Visceroid_Registrant@@3V?$ScriptRegistrant@VKAK_Convert_Visceroid@@@@A ; KAK_Convert_Visceroid_Registrant
	call	??0?$ScriptRegistrant@VKAK_Convert_Visceroid@@@@QAE@PBD0@Z ; ScriptRegistrant<KAK_Convert_Visceroid>::ScriptRegistrant<KAK_Convert_Visceroid>
	push	OFFSET ??__FKAK_Convert_Visceroid_Registrant@@YAXXZ ; `dynamic atexit destructor for 'KAK_Convert_Visceroid_Registrant''
	call	_atexit
	add	esp, 4
	pop	edi
	pop	esi
	pop	ebx
	mov	esp, ebp
	pop	ebp
	ret	0
??__EKAK_Convert_Visceroid_Registrant@@YAXXZ ENDP	; `dynamic initializer for 'KAK_Convert_Visceroid_Registrant''
text$yc	ENDS
; Function compile flags: /Odtp /ZI
;	COMDAT ??_G?$ScriptRegistrant@VKAK_Convert_Visceroid@@@@UAEPAXI@Z
_TEXT	SEGMENT
_this$ = -4						; size = 4
___flags$ = 8						; size = 4
??_G?$ScriptRegistrant@VKAK_Convert_Visceroid@@@@UAEPAXI@Z PROC ; ScriptRegistrant<KAK_Convert_Visceroid>::`scalar deleting destructor', COMDAT
; _this$ = ecx
	push	ebp
	mov	ebp, esp
	sub	esp, 68					; 00000044H
	push	ebx
	push	esi
	push	edi
	mov	DWORD PTR _this$[ebp], ecx
	mov	ecx, DWORD PTR _this$[ebp]
	call	??1?$ScriptRegistrant@VKAK_Convert_Visceroid@@@@UAE@XZ
	mov	eax, DWORD PTR ___flags$[ebp]
	and	eax, 1
	je	SHORT $LN1@scalar
	mov	eax, DWORD PTR _this$[ebp]
	push	eax
	call	??3@YAXPAX@Z				; operator delete
	add	esp, 4
$LN1@scalar:
	mov	eax, DWORD PTR _this$[ebp]
	pop	edi
	pop	esi
	pop	ebx
	mov	esp, ebp
	pop	ebp
	ret	4
??_G?$ScriptRegistrant@VKAK_Convert_Visceroid@@@@UAEPAXI@Z ENDP ; ScriptRegistrant<KAK_Convert_Visceroid>::`scalar deleting destructor'
_TEXT	ENDS
; Function compile flags: /Odtp /ZI
;	COMDAT ??1?$ScriptRegistrant@VKAK_Convert_Visceroid@@@@UAE@XZ
_TEXT	SEGMENT
_this$ = -4						; size = 4
??1?$ScriptRegistrant@VKAK_Convert_Visceroid@@@@UAE@XZ PROC ; ScriptRegistrant<KAK_Convert_Visceroid>::~ScriptRegistrant<KAK_Convert_Visceroid>, COMDAT
; _this$ = ecx
	push	ebp
	mov	ebp, esp
	sub	esp, 68					; 00000044H
	push	ebx
	push	esi
	push	edi
	mov	DWORD PTR _this$[ebp], ecx
	mov	ecx, DWORD PTR _this$[ebp]
	call	??1ScriptFactory@@UAE@XZ		; ScriptFactory::~ScriptFactory
	pop	edi
	pop	esi
	pop	ebx
	mov	esp, ebp
	pop	ebp
	ret	0
??1?$ScriptRegistrant@VKAK_Convert_Visceroid@@@@UAE@XZ ENDP ; ScriptRegistrant<KAK_Convert_Visceroid>::~ScriptRegistrant<KAK_Convert_Visceroid>
_TEXT	ENDS
; Function compile flags: /Odtp /ZI
; File x:\github\renegade\dragonade_rxd\scripts\scripts.h
;	COMDAT ?Create@?$ScriptRegistrant@VKAK_Convert_Visceroid@@@@UAEPAVScriptImpClass@@XZ
_TEXT	SEGMENT
tv77 = -84						; size = 4
tv79 = -80						; size = 4
$T1 = -76						; size = 4
_script$ = -8						; size = 4
_this$ = -4						; size = 4
?Create@?$ScriptRegistrant@VKAK_Convert_Visceroid@@@@UAEPAVScriptImpClass@@XZ PROC ; ScriptRegistrant<KAK_Convert_Visceroid>::Create, COMDAT
; _this$ = ecx

; 552  : 	{

	push	ebp
	mov	ebp, esp
	sub	esp, 84					; 00000054H
	push	ebx
	push	esi
	push	edi
	mov	DWORD PTR _this$[ebp], ecx

; 553  : 		T* script = new T;

	push	OFFSET ??_C@_0DG@HMJNHINH@ScriptRegistrant?$DMclass?5KAK_Conve@
	push	553					; 00000229H
	push	OFFSET ??_C@_0DD@KMKBFFOF@x?3?2github?2renegade?2dragonade_rxd@
	call	?SetThreadTrackingInformation@@YAXPBDI0@Z ; SetThreadTrackingInformation
	add	esp, 12					; 0000000cH
	xor	eax, eax
	je	SHORT $LN6@Create
	xor	ecx, ecx
	jne	SHORT $LN3@Create
	push	553					; 00000229H
	push	OFFSET ??_C@_1GG@OGNLNBPD@?$AAx?$AA?3?$AA?2?$AAg?$AAi?$AAt?$AAh?$AAu?$AAb?$AA?2?$AAr?$AAe?$AAn?$AAe?$AAg?$AAa?$AAd?$AAe?$AA?2?$AAd?$AAr?$AAa?$AAg?$AAo?$AAn?$AAa?$AAd?$AAe?$AA_?$AAr?$AAx?$AAd@
	push	OFFSET ??_C@_1M@HLGKFCJM@?$AAf?$AAa?$AAl?$AAs?$AAe?$AA?$AA@
	call	DWORD PTR __imp___wassert
	add	esp, 12					; 0000000cH
$LN3@Create:
	mov	DWORD PTR tv79[ebp], 0
	jmp	SHORT $LN7@Create
$LN6@Create:
	push	28					; 0000001cH
	call	??2@YAPAXI@Z				; operator new
	add	esp, 4
	mov	DWORD PTR $T1[ebp], eax
	cmp	DWORD PTR $T1[ebp], 0
	je	SHORT $LN4@Create
	mov	ecx, DWORD PTR $T1[ebp]
	call	??0KAK_Convert_Visceroid@@QAE@XZ
	mov	DWORD PTR tv77[ebp], eax
	jmp	SHORT $LN5@Create
$LN4@Create:
	mov	DWORD PTR tv77[ebp], 0
$LN5@Create:
	mov	eax, DWORD PTR tv77[ebp]
	mov	DWORD PTR tv79[ebp], eax
$LN7@Create:
	mov	ecx, DWORD PTR tv79[ebp]
	mov	DWORD PTR _script$[ebp], ecx

; 554  : 		script->SetFactory(this);

	mov	eax, DWORD PTR _this$[ebp]
	push	eax
	mov	ecx, DWORD PTR _script$[ebp]
	call	?SetFactory@ScriptImpClass@@QAEXPAVScriptFactory@@@Z ; ScriptImpClass::SetFactory

; 555  : 		script->Register_Auto_Save_Variables();

	mov	eax, DWORD PTR _script$[ebp]
	mov	edx, DWORD PTR [eax]
	mov	ecx, DWORD PTR _script$[ebp]
	mov	eax, DWORD PTR [edx+100]
	call	eax

; 556  : 		return script;

	mov	eax, DWORD PTR _script$[ebp]

; 557  : 	}

	pop	edi
	pop	esi
	pop	ebx
	mov	esp, ebp
	pop	ebp
	ret	0
?Create@?$ScriptRegistrant@VKAK_Convert_Visceroid@@@@UAEPAVScriptImpClass@@XZ ENDP ; ScriptRegistrant<KAK_Convert_Visceroid>::Create
_TEXT	ENDS
; Function compile flags: /Odtp /ZI
; File x:\github\renegade\dragonade_rxd\scripts\scripts.h
;	COMDAT ??0?$ScriptRegistrant@VKAK_Convert_Visceroid@@@@QAE@PBD0@Z
_TEXT	SEGMENT
_this$ = -4						; size = 4
_name$ = 8						; size = 4
_param$ = 12						; size = 4
??0?$ScriptRegistrant@VKAK_Convert_Visceroid@@@@QAE@PBD0@Z PROC ; ScriptRegistrant<KAK_Convert_Visceroid>::ScriptRegistrant<KAK_Convert_Visceroid>, COMDAT
; _this$ = ecx

; 549  : 	{

	push	ebp
	mov	ebp, esp
	sub	esp, 68					; 00000044H
	push	ebx
	push	esi
	push	edi
	mov	DWORD PTR _this$[ebp], ecx
	mov	eax, DWORD PTR _param$[ebp]
	push	eax
	mov	ecx, DWORD PTR _name$[ebp]
	push	ecx
	mov	ecx, DWORD PTR _this$[ebp]
	call	??0ScriptFactory@@IAE@PBD0@Z		; ScriptFactory::ScriptFactory
	mov	eax, DWORD PTR _this$[ebp]
	mov	DWORD PTR [eax], OFFSET ??_7?$ScriptRegistrant@VKAK_Convert_Visceroid@@@@6B@

; 550  : 	}

	mov	eax, DWORD PTR _this$[ebp]
	pop	edi
	pop	esi
	pop	ebx
	mov	esp, ebp
	pop	ebp
	ret	8
??0?$ScriptRegistrant@VKAK_Convert_Visceroid@@@@QAE@PBD0@Z ENDP ; ScriptRegistrant<KAK_Convert_Visceroid>::ScriptRegistrant<KAK_Convert_Visceroid>
_TEXT	ENDS
; Function compile flags: /Odtp /ZI
;	COMDAT ??__FKAK_Prevent_Kill_Registrant@@YAXXZ
text$yd	SEGMENT
??__FKAK_Prevent_Kill_Registrant@@YAXXZ PROC		; `dynamic atexit destructor for 'KAK_Prevent_Kill_Registrant'', COMDAT
	push	ebp
	mov	ebp, esp
	sub	esp, 64					; 00000040H
	push	ebx
	push	esi
	push	edi
	mov	ecx, OFFSET ?KAK_Prevent_Kill_Registrant@@3V?$ScriptRegistrant@VKAK_Prevent_Kill@@@@A ; KAK_Prevent_Kill_Registrant
	call	??1?$ScriptRegistrant@VKAK_Prevent_Kill@@@@UAE@XZ
	pop	edi
	pop	esi
	pop	ebx
	mov	esp, ebp
	pop	ebp
	ret	0
??__FKAK_Prevent_Kill_Registrant@@YAXXZ ENDP		; `dynamic atexit destructor for 'KAK_Prevent_Kill_Registrant''
text$yd	ENDS
; Function compile flags: /Odtp /ZI
