; Listing generated by Microsoft (R) Optimizing Compiler Version 17.00.61219.0 

	TITLE	X:\GitHub\Renegade\Dragonade_RxD\scripts\LineSegClass.cpp
	.686P
	.XMM
	include listing.inc
	.model	flat

INCLUDELIB MSVCRTD
INCLUDELIB OLDNAMES

PUBLIC	??_H@YGXPAXIHP6EPAX0@Z@Z			; `vector constructor iterator'
PUBLIC	_acosf
PUBLIC	_asinf
PUBLIC	_atanf
PUBLIC	_atan2f
PUBLIC	_ceilf
PUBLIC	_cosf
PUBLIC	_floorf
PUBLIC	_sinf
PUBLIC	_sqrtf
PUBLIC	?acos@@YAMM@Z					; acos
PUBLIC	?asin@@YAMM@Z					; asin
PUBLIC	?atan@@YAMM@Z					; atan
PUBLIC	?atan2@@YAMMM@Z					; atan2
PUBLIC	?cos@@YAMM@Z					; cos
PUBLIC	?sin@@YAMM@Z					; sin
PUBLIC	?sqrt@@YAMM@Z					; sqrt
PUBLIC	?Fabs@WWMath@@SAMM@Z				; WWMath::Fabs
PUBLIC	?Float_To_Int_Chop@WWMath@@SAHABM@Z		; WWMath::Float_To_Int_Chop
PUBLIC	?Float_To_Int_Floor@WWMath@@SAHABM@Z		; WWMath::Float_To_Int_Floor
PUBLIC	?Cos@WWMath@@SAMM@Z				; WWMath::Cos
PUBLIC	?Sin@WWMath@@SAMM@Z				; WWMath::Sin
PUBLIC	?Sqrt@WWMath@@SAMM@Z				; WWMath::Sqrt
PUBLIC	?Inv_Sqrt@WWMath@@SIMM@Z			; WWMath::Inv_Sqrt
PUBLIC	?Float_To_Long@WWMath@@SAJM@Z			; WWMath::Float_To_Long
PUBLIC	?Fast_Sin@WWMath@@SAMM@Z			; WWMath::Fast_Sin
PUBLIC	?Fast_Inv_Sin@WWMath@@SAMM@Z			; WWMath::Fast_Inv_Sin
PUBLIC	?Fast_Cos@WWMath@@SAMM@Z			; WWMath::Fast_Cos
PUBLIC	?Fast_Inv_Cos@WWMath@@SAMM@Z			; WWMath::Fast_Inv_Cos
PUBLIC	?Fast_Acos@WWMath@@SAMM@Z			; WWMath::Fast_Acos
PUBLIC	?Fast_Asin@WWMath@@SAMM@Z			; WWMath::Fast_Asin
PUBLIC	?Acos@WWMath@@SAMM@Z				; WWMath::Acos
PUBLIC	?Asin@WWMath@@SAMM@Z				; WWMath::Asin
PUBLIC	?Atan@WWMath@@SAMM@Z				; WWMath::Atan
PUBLIC	?Atan2@WWMath@@SAMMM@Z				; WWMath::Atan2
PUBLIC	?Sign@WWMath@@SAMM@Z				; WWMath::Sign
PUBLIC	?Ceil@WWMath@@SAMM@Z				; WWMath::Ceil
PUBLIC	?Floor@WWMath@@SAMM@Z				; WWMath::Floor
PUBLIC	?Fast_Is_Float_Positive@WWMath@@SA_NABM@Z	; WWMath::Fast_Is_Float_Positive
PUBLIC	?Random_Float@WWMath@@SAMMM@Z			; WWMath::Random_Float
PUBLIC	?Clamp@WWMath@@SAMMMM@Z				; WWMath::Clamp
PUBLIC	?Clamp@WWMath@@SANNNN@Z				; WWMath::Clamp
PUBLIC	?Clamp_Int@WWMath@@SAHHHH@Z			; WWMath::Clamp_Int
PUBLIC	?Wrap@WWMath@@SAMMMM@Z				; WWMath::Wrap
PUBLIC	?Wrap@WWMath@@SANNNN@Z				; WWMath::Wrap
PUBLIC	?Min@WWMath@@SAMMM@Z				; WWMath::Min
PUBLIC	?Max@WWMath@@SAMMM@Z				; WWMath::Max
PUBLIC	?Lerp@WWMath@@SAMMMM@Z				; WWMath::Lerp
PUBLIC	?Lerp@WWMath@@SANNNM@Z				; WWMath::Lerp
PUBLIC	?Lerp@WWMath@@SAHHHM@Z				; WWMath::Lerp
PUBLIC	?Float_To_Long@WWMath@@SAJN@Z			; WWMath::Float_To_Long
PUBLIC	?Unit_Float_To_Byte@WWMath@@SAEM@Z		; WWMath::Unit_Float_To_Byte
PUBLIC	?Byte_To_Unit_Float@WWMath@@SAME@Z		; WWMath::Byte_To_Unit_Float
PUBLIC	?Is_Valid_Float@WWMath@@SA_NM@Z			; WWMath::Is_Valid_Float
PUBLIC	?Is_Valid_Double@WWMath@@SA_NN@Z		; WWMath::Is_Valid_Double
PUBLIC	??4WWMath@@QAEAAV0@ABV0@@Z			; WWMath::operator=
PUBLIC	??B?$RefArrayHelper@M$0EAA@@@QAEPAMXZ		; RefArrayHelper<float,1024>::operator float *
PUBLIC	??0Vector3@@QAE@XZ				; Vector3::Vector3
PUBLIC	??0Vector3@@QAE@ABV0@@Z				; Vector3::Vector3
PUBLIC	??0Vector3@@QAE@MMM@Z				; Vector3::Vector3
PUBLIC	??4Vector3@@QAEAAV0@ABV0@@Z			; Vector3::operator=
PUBLIC	?Set@Vector3@@QAEXMMM@Z				; Vector3::Set
PUBLIC	??AVector3@@QBEABMH@Z				; Vector3::operator[]
PUBLIC	?Normalize@Vector3@@QAEXXZ			; Vector3::Normalize
PUBLIC	?Length@Vector3@@QBEMXZ				; Vector3::Length
PUBLIC	?Length2@Vector3@@QBEMXZ			; Vector3::Length2
PUBLIC	??D@YA?AVVector3@@ABV0@M@Z			; operator*
PUBLIC	??D@YA?AVVector3@@MABV0@@Z			; operator*
PUBLIC	??H@YA?AVVector3@@ABV0@0@Z			; operator+
PUBLIC	??G@YA?AVVector3@@ABV0@0@Z			; operator-
PUBLIC	??D@YAMABVVector3@@0@Z				; operator*
PUBLIC	?Cross_Product@Vector3@@SA?AV1@ABV1@0@Z		; Vector3::Cross_Product
PUBLIC	?Add@Vector3@@SAXABV1@0PAV1@@Z			; Vector3::Add
PUBLIC	??0Vector4@@QAE@XZ				; Vector4::Vector4
PUBLIC	??4Vector4@@QAEAAV0@ABV0@@Z			; Vector4::operator=
PUBLIC	?Set@Vector4@@QAEXMMMM@Z			; Vector4::Set
PUBLIC	??AVector4@@QAEAAMH@Z				; Vector4::operator[]
PUBLIC	??AVector4@@QBEABMH@Z				; Vector4::operator[]
PUBLIC	??AMatrix3D@@QAEAAVVector4@@H@Z			; Matrix3D::operator[]
PUBLIC	??AMatrix3D@@QBEABVVector4@@H@Z			; Matrix3D::operator[]
PUBLIC	??0Matrix3D@@QAE@_N@Z				; Matrix3D::Matrix3D
PUBLIC	??0Matrix3D@@QAE@QAM@Z				; Matrix3D::Matrix3D
PUBLIC	??0Matrix3D@@QAE@ABVVector3@@000@Z		; Matrix3D::Matrix3D
PUBLIC	??0Matrix3D@@QAE@ABVVector3@@M@Z		; Matrix3D::Matrix3D
PUBLIC	??0Matrix3D@@QAE@ABVVector3@@MM@Z		; Matrix3D::Matrix3D
PUBLIC	??0Matrix3D@@QAE@ABVMatrix3@@ABVVector3@@@Z	; Matrix3D::Matrix3D
PUBLIC	??0Matrix3D@@QAE@ABVQuaternion@@ABVVector3@@@Z	; Matrix3D::Matrix3D
PUBLIC	??0Matrix3D@@QAE@ABVVector3@@@Z			; Matrix3D::Matrix3D
PUBLIC	??0Matrix3D@@QAE@ABV0@@Z			; Matrix3D::Matrix3D
PUBLIC	??4Matrix3D@@QAEAAV0@ABV0@@Z			; Matrix3D::operator=
PUBLIC	?Set@Matrix3D@@QAEXQAM@Z			; Matrix3D::Set
PUBLIC	?Set@Matrix3D@@QAEXMMMMMMMMMMMM@Z		; Matrix3D::Set
PUBLIC	?Set@Matrix3D@@QAEXABVVector3@@000@Z		; Matrix3D::Set
PUBLIC	?Set@Matrix3D@@QAEXABVVector3@@M@Z		; Matrix3D::Set
PUBLIC	?Set@Matrix3D@@QAEXABVVector3@@MM@Z		; Matrix3D::Set
PUBLIC	?Set@Matrix3D@@QAEXABVVector3@@@Z		; Matrix3D::Set
PUBLIC	?Get_Translation@Matrix3D@@QBE?AVVector3@@XZ	; Matrix3D::Get_Translation
PUBLIC	?Get_Translation@Matrix3D@@QBEXPAVVector3@@@Z	; Matrix3D::Get_Translation
PUBLIC	?Set_Translation@Matrix3D@@QAEXABVVector3@@@Z	; Matrix3D::Set_Translation
PUBLIC	?Get_X_Translation@Matrix3D@@QBEMXZ		; Matrix3D::Get_X_Translation
PUBLIC	?Get_Y_Translation@Matrix3D@@QBEMXZ		; Matrix3D::Get_Y_Translation
PUBLIC	?Get_Z_Translation@Matrix3D@@QBEMXZ		; Matrix3D::Get_Z_Translation
PUBLIC	?Set_X_Translation@Matrix3D@@QAEXM@Z		; Matrix3D::Set_X_Translation
PUBLIC	?Set_Y_Translation@Matrix3D@@QAEXM@Z		; Matrix3D::Set_Y_Translation
PUBLIC	?Set_Z_Translation@Matrix3D@@QAEXM@Z		; Matrix3D::Set_Z_Translation
PUBLIC	?Adjust_Translation@Matrix3D@@QAEXABVVector3@@@Z ; Matrix3D::Adjust_Translation
PUBLIC	?Adjust_X_Translation@Matrix3D@@QAEXM@Z		; Matrix3D::Adjust_X_Translation
PUBLIC	?Adjust_Y_Translation@Matrix3D@@QAEXM@Z		; Matrix3D::Adjust_Y_Translation
PUBLIC	?Adjust_Z_Translation@Matrix3D@@QAEXM@Z		; Matrix3D::Adjust_Z_Translation
PUBLIC	?Make_Identity@Matrix3D@@QAEXXZ			; Matrix3D::Make_Identity
PUBLIC	?Translate@Matrix3D@@QAEXMMM@Z			; Matrix3D::Translate
PUBLIC	?Translate@Matrix3D@@QAEXABVVector3@@@Z		; Matrix3D::Translate
PUBLIC	?Translate_X@Matrix3D@@QAEXM@Z			; Matrix3D::Translate_X
PUBLIC	?Translate_Y@Matrix3D@@QAEXM@Z			; Matrix3D::Translate_Y
PUBLIC	?Translate_Z@Matrix3D@@QAEXM@Z			; Matrix3D::Translate_Z
PUBLIC	?Rotate_X@Matrix3D@@QAEXM@Z			; Matrix3D::Rotate_X
PUBLIC	?Rotate_Y@Matrix3D@@QAEXM@Z			; Matrix3D::Rotate_Y
PUBLIC	?Rotate_Z@Matrix3D@@QAEXM@Z			; Matrix3D::Rotate_Z
PUBLIC	?Rotate_X@Matrix3D@@QAEXMM@Z			; Matrix3D::Rotate_X
PUBLIC	?Rotate_Y@Matrix3D@@QAEXMM@Z			; Matrix3D::Rotate_Y
PUBLIC	?Rotate_Z@Matrix3D@@QAEXMM@Z			; Matrix3D::Rotate_Z
PUBLIC	?Scale@Matrix3D@@QAEXM@Z			; Matrix3D::Scale
PUBLIC	?Scale@Matrix3D@@QAEXMMM@Z			; Matrix3D::Scale
PUBLIC	?Scale@Matrix3D@@QAEXAAVVector3@@@Z		; Matrix3D::Scale
PUBLIC	?Pre_Rotate_X@Matrix3D@@QAEXM@Z			; Matrix3D::Pre_Rotate_X
PUBLIC	?Pre_Rotate_Y@Matrix3D@@QAEXM@Z			; Matrix3D::Pre_Rotate_Y
PUBLIC	?Pre_Rotate_Z@Matrix3D@@QAEXM@Z			; Matrix3D::Pre_Rotate_Z
PUBLIC	?Pre_Rotate_X@Matrix3D@@QAEXMM@Z		; Matrix3D::Pre_Rotate_X
PUBLIC	?Pre_Rotate_Y@Matrix3D@@QAEXMM@Z		; Matrix3D::Pre_Rotate_Y
PUBLIC	?Pre_Rotate_Z@Matrix3D@@QAEXMM@Z		; Matrix3D::Pre_Rotate_Z
PUBLIC	?In_Place_Pre_Rotate_X@Matrix3D@@QAEXM@Z	; Matrix3D::In_Place_Pre_Rotate_X
PUBLIC	?In_Place_Pre_Rotate_Y@Matrix3D@@QAEXM@Z	; Matrix3D::In_Place_Pre_Rotate_Y
PUBLIC	?In_Place_Pre_Rotate_Z@Matrix3D@@QAEXM@Z	; Matrix3D::In_Place_Pre_Rotate_Z
PUBLIC	?In_Place_Pre_Rotate_X@Matrix3D@@QAEXMM@Z	; Matrix3D::In_Place_Pre_Rotate_X
PUBLIC	?In_Place_Pre_Rotate_Y@Matrix3D@@QAEXMM@Z	; Matrix3D::In_Place_Pre_Rotate_Y
PUBLIC	?In_Place_Pre_Rotate_Z@Matrix3D@@QAEXMM@Z	; Matrix3D::In_Place_Pre_Rotate_Z
PUBLIC	?Transform_Vector@Matrix3D@@SAXABV1@ABVVector3@@PAV2@@Z ; Matrix3D::Transform_Vector
PUBLIC	?Get_X_Vector@Matrix3D@@QBE?AVVector3@@XZ	; Matrix3D::Get_X_Vector
PUBLIC	?Get_Y_Vector@Matrix3D@@QBE?AVVector3@@XZ	; Matrix3D::Get_Y_Vector
PUBLIC	?Get_Z_Vector@Matrix3D@@QBE?AVVector3@@XZ	; Matrix3D::Get_Z_Vector
PUBLIC	?Get_X_Vector@Matrix3D@@QBEXPAVVector3@@@Z	; Matrix3D::Get_X_Vector
PUBLIC	?Get_Y_Vector@Matrix3D@@QBEXPAVVector3@@@Z	; Matrix3D::Get_Y_Vector
PUBLIC	?Get_Z_Vector@Matrix3D@@QBEXPAVVector3@@@Z	; Matrix3D::Get_Z_Vector
PUBLIC	?Rotate_Vector@Matrix3D@@SAXABV1@ABVVector3@@PAV2@@Z ; Matrix3D::Rotate_Vector
PUBLIC	?Inverse_Transform_Vector@Matrix3D@@SAXABV1@ABVVector3@@PAV2@@Z ; Matrix3D::Inverse_Transform_Vector
PUBLIC	?Inverse_Rotate_Vector@Matrix3D@@SAXABV1@ABVVector3@@PAV2@@Z ; Matrix3D::Inverse_Rotate_Vector
PUBLIC	??0LineSegClass@@QAE@XZ				; LineSegClass::LineSegClass
PUBLIC	??0LineSegClass@@QAE@ABVVector3@@0@Z		; LineSegClass::LineSegClass
PUBLIC	??0LineSegClass@@QAE@ABVVector3@@0M@Z		; LineSegClass::LineSegClass
PUBLIC	??0LineSegClass@@QAE@ABV0@ABVMatrix3D@@@Z	; LineSegClass::LineSegClass
PUBLIC	?Set@LineSegClass@@QAEXABVVector3@@0@Z		; LineSegClass::Set
PUBLIC	?Set@LineSegClass@@QAEXABVVector3@@0M@Z		; LineSegClass::Set
PUBLIC	?Set@LineSegClass@@QAEXABV1@ABVMatrix3D@@@Z	; LineSegClass::Set
PUBLIC	?Get_P0@LineSegClass@@QBEABVVector3@@XZ		; LineSegClass::Get_P0
PUBLIC	?Get_P1@LineSegClass@@QBEABVVector3@@XZ		; LineSegClass::Get_P1
PUBLIC	?Get_DP@LineSegClass@@QBEABVVector3@@XZ		; LineSegClass::Get_DP
PUBLIC	?Get_Dir@LineSegClass@@QBEABVVector3@@XZ	; LineSegClass::Get_Dir
PUBLIC	?Get_Length@LineSegClass@@QBEMXZ		; LineSegClass::Get_Length
PUBLIC	?Compute_Point@LineSegClass@@QBEXMPAVVector3@@@Z ; LineSegClass::Compute_Point
PUBLIC	?Find_Point_Closest_To@LineSegClass@@QBE?AVVector3@@ABV2@@Z ; LineSegClass::Find_Point_Closest_To
PUBLIC	?Find_Intersection@LineSegClass@@QBE_NABV1@PAVVector3@@PAM12@Z ; LineSegClass::Find_Intersection
PUBLIC	?recalculate@LineSegClass@@IAEXXZ		; LineSegClass::recalculate
PUBLIC	??0LineSegClass@@QAE@ABV0@@Z			; LineSegClass::LineSegClass
PUBLIC	??4LineSegClass@@QAEAAV0@ABV0@@Z		; LineSegClass::operator=
PUBLIC	__real@00000000
PUBLIC	__real@02081cea
PUBLIC	__real@3f79999a
PUBLIC	__real@3f800000
PUBLIC	__real@3fc90fdb
PUBLIC	__real@40c90fdb
PUBLIC	__real@437f0000
PUBLIC	__real@44000000
PUBLIC	__real@44800000
PUBLIC	__real@bf800000
PUBLIC	__xmm@80000000800000008000000080000000
EXTRN	__imp__ceil:PROC
EXTRN	?Random_Float@WWMath@@SAMXZ:PROC		; WWMath::Random_Float
EXTRN	?Set@Matrix3D@@QAEXABVMatrix3@@ABVVector3@@@Z:PROC ; Matrix3D::Set
EXTRN	?Set@Matrix3D@@QAEXABVQuaternion@@ABVVector3@@@Z:PROC ; Matrix3D::Set
EXTRN	__CIatan2:PROC
EXTRN	__libm_sse2_acos_precise:PROC
EXTRN	__libm_sse2_asin_precise:PROC
EXTRN	__libm_sse2_atan_precise:PROC
EXTRN	__libm_sse2_cos_precise:PROC
EXTRN	__libm_sse2_sin_precise:PROC
EXTRN	__libm_sse2_sqrt_precise:PROC
EXTRN	_floor:PROC
EXTRN	?_FastAcosTable@@3AAV?$RefArrayHelper@M$0EAA@@@A:DWORD ; _FastAcosTable
EXTRN	?_FastAsinTable@@3AAV?$RefArrayHelper@M$0EAA@@@A:DWORD ; _FastAsinTable
EXTRN	?_FastSinTable@@3AAV?$RefArrayHelper@M$0EAA@@@A:DWORD ; _FastSinTable
EXTRN	__fltused:DWORD
;	COMDAT __xmm@80000000800000008000000080000000
CONST	SEGMENT
__xmm@80000000800000008000000080000000 DB 00H, 00H, 00H, 080H, 00H, 00H, 00H
	DB	080H, 00H, 00H, 00H, 080H, 00H, 00H, 00H, 080H
CONST	ENDS
;	COMDAT __real@bf800000
CONST	SEGMENT
__real@bf800000 DD 0bf800000r			; -1
CONST	ENDS
;	COMDAT __real@44800000
CONST	SEGMENT
__real@44800000 DD 044800000r			; 1024
CONST	ENDS
;	COMDAT __real@44000000
CONST	SEGMENT
__real@44000000 DD 044000000r			; 512
CONST	ENDS
;	COMDAT __real@437f0000
CONST	SEGMENT
__real@437f0000 DD 0437f0000r			; 255
CONST	ENDS
;	COMDAT __real@40c90fdb
CONST	SEGMENT
__real@40c90fdb DD 040c90fdbr			; 6.28319
CONST	ENDS
;	COMDAT __real@3fc90fdb
CONST	SEGMENT
__real@3fc90fdb DD 03fc90fdbr			; 1.5708
CONST	ENDS
;	COMDAT __real@3f800000
CONST	SEGMENT
__real@3f800000 DD 03f800000r			; 1
CONST	ENDS
;	COMDAT __real@3f79999a
CONST	SEGMENT
__real@3f79999a DD 03f79999ar			; 0.975
CONST	ENDS
;	COMDAT __real@02081cea
CONST	SEGMENT
__real@02081cea DD 002081cear			; 1e-037
CONST	ENDS
;	COMDAT __real@00000000
CONST	SEGMENT
__real@00000000 DD 000000000r			; 0
CONST	ENDS
; Function compile flags: /Odtp /ZI
;	COMDAT ??4LineSegClass@@QAEAAV0@ABV0@@Z
_TEXT	SEGMENT
_this$ = -4						; size = 4
___that$ = 8						; size = 4
??4LineSegClass@@QAEAAV0@ABV0@@Z PROC			; LineSegClass::operator=, COMDAT
; _this$ = ecx
	push	ebp
	mov	ebp, esp
	sub	esp, 68					; 00000044H
	push	ebx
	push	esi
	push	edi
	mov	DWORD PTR _this$[ebp], ecx
	mov	eax, DWORD PTR ___that$[ebp]
	push	eax
	mov	ecx, DWORD PTR _this$[ebp]
	call	??4Vector3@@QAEAAV0@ABV0@@Z		; Vector3::operator=
	mov	eax, DWORD PTR ___that$[ebp]
	add	eax, 12					; 0000000cH
	push	eax
	mov	ecx, DWORD PTR _this$[ebp]
	add	ecx, 12					; 0000000cH
	call	??4Vector3@@QAEAAV0@ABV0@@Z		; Vector3::operator=
	mov	eax, DWORD PTR ___that$[ebp]
	add	eax, 24					; 00000018H
	push	eax
	mov	ecx, DWORD PTR _this$[ebp]
	add	ecx, 24					; 00000018H
	call	??4Vector3@@QAEAAV0@ABV0@@Z		; Vector3::operator=
	mov	eax, DWORD PTR ___that$[ebp]
	add	eax, 36					; 00000024H
	push	eax
	mov	ecx, DWORD PTR _this$[ebp]
	add	ecx, 36					; 00000024H
	call	??4Vector3@@QAEAAV0@ABV0@@Z		; Vector3::operator=
	mov	eax, DWORD PTR _this$[ebp]
	mov	ecx, DWORD PTR ___that$[ebp]
	mov	edx, DWORD PTR [ecx+48]
	mov	DWORD PTR [eax+48], edx
	mov	eax, DWORD PTR _this$[ebp]
	pop	edi
	pop	esi
	pop	ebx
	mov	esp, ebp
	pop	ebp
	ret	4
??4LineSegClass@@QAEAAV0@ABV0@@Z ENDP			; LineSegClass::operator=
_TEXT	ENDS
; Function compile flags: /Odtp /ZI
;	COMDAT ??0LineSegClass@@QAE@ABV0@@Z
_TEXT	SEGMENT
_this$ = -4						; size = 4
___that$ = 8						; size = 4
??0LineSegClass@@QAE@ABV0@@Z PROC			; LineSegClass::LineSegClass, COMDAT
; _this$ = ecx
	push	ebp
	mov	ebp, esp
	sub	esp, 68					; 00000044H
	push	ebx
	push	esi
	push	edi
	mov	DWORD PTR _this$[ebp], ecx
	mov	eax, DWORD PTR ___that$[ebp]
	push	eax
	mov	ecx, DWORD PTR _this$[ebp]
	call	??0Vector3@@QAE@ABV0@@Z			; Vector3::Vector3
	mov	eax, DWORD PTR ___that$[ebp]
	add	eax, 12					; 0000000cH
	push	eax
	mov	ecx, DWORD PTR _this$[ebp]
	add	ecx, 12					; 0000000cH
	call	??0Vector3@@QAE@ABV0@@Z			; Vector3::Vector3
	mov	eax, DWORD PTR ___that$[ebp]
	add	eax, 24					; 00000018H
	push	eax
	mov	ecx, DWORD PTR _this$[ebp]
	add	ecx, 24					; 00000018H
	call	??0Vector3@@QAE@ABV0@@Z			; Vector3::Vector3
	mov	eax, DWORD PTR ___that$[ebp]
	add	eax, 36					; 00000024H
	push	eax
	mov	ecx, DWORD PTR _this$[ebp]
	add	ecx, 36					; 00000024H
	call	??0Vector3@@QAE@ABV0@@Z			; Vector3::Vector3
	mov	eax, DWORD PTR _this$[ebp]
	mov	ecx, DWORD PTR ___that$[ebp]
	mov	edx, DWORD PTR [ecx+48]
	mov	DWORD PTR [eax+48], edx
	mov	eax, DWORD PTR _this$[ebp]
	pop	edi
	pop	esi
	pop	ebx
	mov	esp, ebp
	pop	ebp
	ret	4
??0LineSegClass@@QAE@ABV0@@Z ENDP			; LineSegClass::LineSegClass
_TEXT	ENDS
; Function compile flags: /Odtp /ZI
; File x:\github\renegade\dragonade_rxd\scripts\linesegclass.h
;	COMDAT ?recalculate@LineSegClass@@IAEXXZ
_TEXT	SEGMENT
$T1 = -80						; size = 12
_this$ = -4						; size = 4
?recalculate@LineSegClass@@IAEXXZ PROC			; LineSegClass::recalculate, COMDAT
; _this$ = ecx

; 81   : 	{

	push	ebp
	mov	ebp, esp
	sub	esp, 80					; 00000050H
	push	ebx
	push	esi
	push	edi
	mov	DWORD PTR _this$[ebp], ecx

; 82   : 		DP = P1 - P0;

	mov	eax, DWORD PTR _this$[ebp]
	push	eax
	mov	ecx, DWORD PTR _this$[ebp]
	add	ecx, 12					; 0000000cH
	push	ecx
	lea	edx, DWORD PTR $T1[ebp]
	push	edx
	call	??G@YA?AVVector3@@ABV0@0@Z		; operator-
	add	esp, 12					; 0000000cH
	push	eax
	mov	ecx, DWORD PTR _this$[ebp]
	add	ecx, 24					; 00000018H
	call	??4Vector3@@QAEAAV0@ABV0@@Z		; Vector3::operator=

; 83   : 		Dir = DP;

	mov	eax, DWORD PTR _this$[ebp]
	add	eax, 24					; 00000018H
	push	eax
	mov	ecx, DWORD PTR _this$[ebp]
	add	ecx, 36					; 00000024H
	call	??4Vector3@@QAEAAV0@ABV0@@Z		; Vector3::operator=

; 84   : 		Dir.Normalize();

	mov	ecx, DWORD PTR _this$[ebp]
	add	ecx, 36					; 00000024H
	call	?Normalize@Vector3@@QAEXXZ		; Vector3::Normalize

; 85   : 		Length = DP.Length();

	mov	ecx, DWORD PTR _this$[ebp]
	add	ecx, 24					; 00000018H
	call	?Length@Vector3@@QBEMXZ			; Vector3::Length
	mov	eax, DWORD PTR _this$[ebp]
	fstp	DWORD PTR [eax+48]

; 86   : 	}

	pop	edi
	pop	esi
	pop	ebx
	mov	esp, ebp
	pop	ebp
	ret	0
?recalculate@LineSegClass@@IAEXXZ ENDP			; LineSegClass::recalculate
_TEXT	ENDS
; Function compile flags: /Odtp /ZI
; File x:\github\renegade\dragonade_rxd\scripts\linesegclass.cpp
;	COMDAT ?Find_Intersection@LineSegClass@@QBE_NABV1@PAVVector3@@PAM12@Z
_TEXT	SEGMENT
tv211 = -208						; size = 4
tv204 = -208						; size = 4
$T1 = -204						; size = 12
$T2 = -192						; size = 12
$T3 = -180						; size = 12
$T4 = -168						; size = 12
$T5 = -156						; size = 12
$T6 = -144						; size = 12
_f2$7 = -68						; size = 4
_f1$8 = -64						; size = 4
_cross4$ = -60						; size = 12
_len2$ = -48						; size = 4
_cross3$ = -44						; size = 12
_len$ = -32						; size = 4
_cross2$ = -28						; size = 12
_cross1$ = -16						; size = 12
_this$ = -4						; size = 4
_other_line$ = 8					; size = 4
_p1$ = 12						; size = 4
_fraction1$ = 16					; size = 4
_p2$ = 20						; size = 4
_fraction2$ = 24					; size = 4
?Find_Intersection@LineSegClass@@QBE_NABV1@PAVVector3@@PAM12@Z PROC ; LineSegClass::Find_Intersection, COMDAT
; _this$ = ecx

; 41   : {

	push	ebp
	mov	ebp, esp
	sub	esp, 208				; 000000d0H
	push	ebx
	push	esi
	push	edi
	mov	DWORD PTR _this$[ebp], ecx

; 42   : 	Vector3 cross1 = Vector3::Cross_Product(Dir,other_line.Dir);

	mov	eax, DWORD PTR _other_line$[ebp]
	add	eax, 36					; 00000024H
	push	eax
	mov	ecx, DWORD PTR _this$[ebp]
	add	ecx, 36					; 00000024H
	push	ecx
	lea	edx, DWORD PTR _cross1$[ebp]
	push	edx
	call	?Cross_Product@Vector3@@SA?AV1@ABV1@0@Z	; Vector3::Cross_Product
	add	esp, 12					; 0000000cH

; 43   : 	Vector3 cross2 = Vector3::Cross_Product(other_line.P0 - P0,other_line.Dir);

	mov	eax, DWORD PTR _other_line$[ebp]
	add	eax, 36					; 00000024H
	push	eax
	mov	ecx, DWORD PTR _this$[ebp]
	push	ecx
	mov	edx, DWORD PTR _other_line$[ebp]
	push	edx
	lea	eax, DWORD PTR $T1[ebp]
	push	eax
	call	??G@YA?AVVector3@@ABV0@0@Z		; operator-
	add	esp, 12					; 0000000cH
	push	eax
	lea	ecx, DWORD PTR _cross2$[ebp]
	push	ecx
	call	?Cross_Product@Vector3@@SA?AV1@ABV1@0@Z	; Vector3::Cross_Product
	add	esp, 12					; 0000000cH

; 44   : 	float len = cross1.Length2();

	lea	ecx, DWORD PTR _cross1$[ebp]
	call	?Length2@Vector3@@QBEMXZ		; Vector3::Length2
	fstp	DWORD PTR _len$[ebp]

; 45   : 	Vector3 cross3 = Vector3::Cross_Product(other_line.Dir,Dir);

	mov	eax, DWORD PTR _this$[ebp]
	add	eax, 36					; 00000024H
	push	eax
	mov	ecx, DWORD PTR _other_line$[ebp]
	add	ecx, 36					; 00000024H
	push	ecx
	lea	edx, DWORD PTR _cross3$[ebp]
	push	edx
	call	?Cross_Product@Vector3@@SA?AV1@ABV1@0@Z	; Vector3::Cross_Product
	add	esp, 12					; 0000000cH

; 46   : 	float len2 = cross3.Length();

	lea	ecx, DWORD PTR _cross3$[ebp]
	call	?Length@Vector3@@QBEMXZ			; Vector3::Length
	fstp	DWORD PTR _len2$[ebp]

; 47   : 	Vector3 cross4 = Vector3::Cross_Product(P0 - other_line.P0,Dir);

	mov	eax, DWORD PTR _this$[ebp]
	add	eax, 36					; 00000024H
	push	eax
	mov	ecx, DWORD PTR _other_line$[ebp]
	push	ecx
	mov	edx, DWORD PTR _this$[ebp]
	push	edx
	lea	eax, DWORD PTR $T2[ebp]
	push	eax
	call	??G@YA?AVVector3@@ABV0@0@Z		; operator-
	add	esp, 12					; 0000000cH
	push	eax
	lea	ecx, DWORD PTR _cross4$[ebp]
	push	ecx
	call	?Cross_Product@Vector3@@SA?AV1@ABV1@0@Z	; Vector3::Cross_Product
	add	esp, 12					; 0000000cH

; 48   : 	if (len == 0 || len2 == 0)

	movss	xmm0, DWORD PTR _len$[ebp]
	ucomiss	xmm0, DWORD PTR __real@00000000
	lahf
	test	ah, 68					; 00000044H
	jnp	SHORT $LN4@Find_Inter
	movss	xmm0, DWORD PTR _len2$[ebp]
	ucomiss	xmm0, DWORD PTR __real@00000000
	lahf
	test	ah, 68					; 00000044H
	jp	SHORT $LN5@Find_Inter
$LN4@Find_Inter:

; 49   : 	{
; 50   : 		return false;

	xor	al, al
	jmp	$LN3@Find_Inter

; 51   : 	}
; 52   : 	else

	jmp	$LN3@Find_Inter
$LN5@Find_Inter:

; 53   : 	{
; 54   : 		float f1 = (cross1 * cross2) / len;

	lea	eax, DWORD PTR _cross2$[ebp]
	push	eax
	lea	ecx, DWORD PTR _cross1$[ebp]
	push	ecx
	call	??D@YAMABVVector3@@0@Z			; operator*
	add	esp, 8
	fstp	DWORD PTR tv204[ebp]
	movss	xmm0, DWORD PTR tv204[ebp]
	divss	xmm0, DWORD PTR _len$[ebp]
	movss	DWORD PTR _f1$8[ebp], xmm0

; 55   : 		float f2 = (cross3 * cross4) / len2;

	lea	eax, DWORD PTR _cross4$[ebp]
	push	eax
	lea	ecx, DWORD PTR _cross3$[ebp]
	push	ecx
	call	??D@YAMABVVector3@@0@Z			; operator*
	add	esp, 8
	fstp	DWORD PTR tv211[ebp]
	movss	xmm0, DWORD PTR tv211[ebp]
	divss	xmm0, DWORD PTR _len2$[ebp]
	movss	DWORD PTR _f2$7[ebp], xmm0

; 56   : 		*p1 = Dir * f1 + P0;

	mov	eax, DWORD PTR _this$[ebp]
	push	eax
	push	ecx
	movss	xmm0, DWORD PTR _f1$8[ebp]
	movss	DWORD PTR [esp], xmm0
	mov	ecx, DWORD PTR _this$[ebp]
	add	ecx, 36					; 00000024H
	push	ecx
	lea	edx, DWORD PTR $T3[ebp]
	push	edx
	call	??D@YA?AVVector3@@ABV0@M@Z		; operator*
	add	esp, 12					; 0000000cH
	push	eax
	lea	eax, DWORD PTR $T4[ebp]
	push	eax
	call	??H@YA?AVVector3@@ABV0@0@Z		; operator+
	add	esp, 12					; 0000000cH
	push	eax
	mov	ecx, DWORD PTR _p1$[ebp]
	call	??4Vector3@@QAEAAV0@ABV0@@Z		; Vector3::operator=

; 57   : 		*p2 = other_line.Dir * f2 + other_line.P0;

	mov	eax, DWORD PTR _other_line$[ebp]
	push	eax
	push	ecx
	movss	xmm0, DWORD PTR _f2$7[ebp]
	movss	DWORD PTR [esp], xmm0
	mov	ecx, DWORD PTR _other_line$[ebp]
	add	ecx, 36					; 00000024H
	push	ecx
	lea	edx, DWORD PTR $T5[ebp]
	push	edx
	call	??D@YA?AVVector3@@ABV0@M@Z		; operator*
	add	esp, 12					; 0000000cH
	push	eax
	lea	eax, DWORD PTR $T6[ebp]
	push	eax
	call	??H@YA?AVVector3@@ABV0@0@Z		; operator+
	add	esp, 12					; 0000000cH
	push	eax
	mov	ecx, DWORD PTR _p2$[ebp]
	call	??4Vector3@@QAEAAV0@ABV0@@Z		; Vector3::operator=

; 58   : 		if (fraction1)

	cmp	DWORD PTR _fraction1$[ebp], 0
	je	SHORT $LN2@Find_Inter

; 59   : 		{
; 60   : 			*fraction1 = f1 / Length;

	mov	eax, DWORD PTR _this$[ebp]
	movss	xmm0, DWORD PTR _f1$8[ebp]
	divss	xmm0, DWORD PTR [eax+48]
	mov	ecx, DWORD PTR _fraction1$[ebp]
	movss	DWORD PTR [ecx], xmm0
$LN2@Find_Inter:

; 61   : 		}
; 62   : 		if (fraction2)

	cmp	DWORD PTR _fraction2$[ebp], 0
	je	SHORT $LN1@Find_Inter

; 63   : 		{
; 64   : 			*fraction2 = f2 / Length;

	mov	eax, DWORD PTR _this$[ebp]
	movss	xmm0, DWORD PTR _f2$7[ebp]
	divss	xmm0, DWORD PTR [eax+48]
	mov	ecx, DWORD PTR _fraction2$[ebp]
	movss	DWORD PTR [ecx], xmm0
$LN1@Find_Inter:

; 65   : 		}
; 66   : 		return true;

	mov	al, 1
$LN3@Find_Inter:

; 67   : 	}
; 68   : }

	pop	edi
	pop	esi
	pop	ebx
	mov	esp, ebp
	pop	ebp
	ret	20					; 00000014H
?Find_Intersection@LineSegClass@@QBE_NABV1@PAVVector3@@PAM12@Z ENDP ; LineSegClass::Find_Intersection
_TEXT	ENDS
; Function compile flags: /Odtp /ZI
; File x:\github\renegade\dragonade_rxd\scripts\linesegclass.cpp
;	COMDAT ?Find_Point_Closest_To@LineSegClass@@QBE?AVVector3@@ABV2@@Z
_TEXT	SEGMENT
$T1 = -84						; size = 12
_val1$ = -8						; size = 4
_this$ = -4						; size = 4
___$ReturnUdt$ = 8					; size = 4
_pos$ = 12						; size = 4
?Find_Point_Closest_To@LineSegClass@@QBE?AVVector3@@ABV2@@Z PROC ; LineSegClass::Find_Point_Closest_To, COMDAT
; _this$ = ecx

; 18   : {

	push	ebp
	mov	ebp, esp
	sub	esp, 84					; 00000054H
	push	ebx
	push	esi
	push	edi
	mov	DWORD PTR _this$[ebp], ecx

; 19   : 	float val1 = ((pos.X - P0.X) * Dir.X) + ((pos.Y - P0.Y) * Dir.Y) + ((pos.Z - P0.Z) * Dir.Z);

	mov	eax, DWORD PTR _pos$[ebp]
	mov	ecx, DWORD PTR _this$[ebp]
	movss	xmm0, DWORD PTR [eax]
	subss	xmm0, DWORD PTR [ecx]
	mov	edx, DWORD PTR _this$[ebp]
	mulss	xmm0, DWORD PTR [edx+36]
	mov	eax, DWORD PTR _pos$[ebp]
	mov	ecx, DWORD PTR _this$[ebp]
	movss	xmm1, DWORD PTR [eax+4]
	subss	xmm1, DWORD PTR [ecx+4]
	mov	edx, DWORD PTR _this$[ebp]
	mulss	xmm1, DWORD PTR [edx+40]
	addss	xmm0, xmm1
	mov	eax, DWORD PTR _pos$[ebp]
	mov	ecx, DWORD PTR _this$[ebp]
	movss	xmm1, DWORD PTR [eax+8]
	subss	xmm1, DWORD PTR [ecx+8]
	mov	edx, DWORD PTR _this$[ebp]
	mulss	xmm1, DWORD PTR [edx+44]
	addss	xmm0, xmm1
	movss	DWORD PTR _val1$[ebp], xmm0

; 20   : 	if (val1 > 0.0f)

	movss	xmm0, DWORD PTR _val1$[ebp]
	comiss	xmm0, DWORD PTR __real@00000000
	jbe	SHORT $LN2@Find_Point

; 21   : 	{
; 22   : 		if (val1 < Length)

	mov	eax, DWORD PTR _this$[ebp]
	movss	xmm0, DWORD PTR [eax+48]
	comiss	xmm0, DWORD PTR _val1$[ebp]
	jbe	SHORT $LN1@Find_Point

; 23   : 		{
; 24   : 			return (Dir * val1) + P0;

	mov	eax, DWORD PTR _this$[ebp]
	push	eax
	push	ecx
	movss	xmm0, DWORD PTR _val1$[ebp]
	movss	DWORD PTR [esp], xmm0
	mov	ecx, DWORD PTR _this$[ebp]
	add	ecx, 36					; 00000024H
	push	ecx
	lea	edx, DWORD PTR $T1[ebp]
	push	edx
	call	??D@YA?AVVector3@@ABV0@M@Z		; operator*
	add	esp, 12					; 0000000cH
	push	eax
	mov	eax, DWORD PTR ___$ReturnUdt$[ebp]
	push	eax
	call	??H@YA?AVVector3@@ABV0@0@Z		; operator+
	add	esp, 12					; 0000000cH
	mov	eax, DWORD PTR ___$ReturnUdt$[ebp]
	jmp	SHORT $LN3@Find_Point
$LN1@Find_Point:

; 25   : 		}
; 26   : 		return P1;

	mov	eax, DWORD PTR _this$[ebp]
	add	eax, 12					; 0000000cH
	push	eax
	mov	ecx, DWORD PTR ___$ReturnUdt$[ebp]
	call	??0Vector3@@QAE@ABV0@@Z			; Vector3::Vector3
	mov	eax, DWORD PTR ___$ReturnUdt$[ebp]
	jmp	SHORT $LN3@Find_Point
$LN2@Find_Point:

; 27   : 	}
; 28   : 	return P0;

	mov	eax, DWORD PTR _this$[ebp]
	push	eax
	mov	ecx, DWORD PTR ___$ReturnUdt$[ebp]
	call	??0Vector3@@QAE@ABV0@@Z			; Vector3::Vector3
	mov	eax, DWORD PTR ___$ReturnUdt$[ebp]
$LN3@Find_Point:

; 29   : }

	pop	edi
	pop	esi
	pop	ebx
	mov	esp, ebp
	pop	ebp
	ret	8
?Find_Point_Closest_To@LineSegClass@@QBE?AVVector3@@ABV2@@Z ENDP ; LineSegClass::Find_Point_Closest_To
_TEXT	ENDS
; Function compile flags: /Odtp /ZI
; File x:\github\renegade\dragonade_rxd\scripts\linesegclass.h
;	COMDAT ?Compute_Point@LineSegClass@@QBEXMPAVVector3@@@Z
_TEXT	SEGMENT
$T1 = -80						; size = 12
_this$ = -4						; size = 4
_t$ = 8							; size = 4
_set$ = 12						; size = 4
?Compute_Point@LineSegClass@@QBEXMPAVVector3@@@Z PROC	; LineSegClass::Compute_Point, COMDAT
; _this$ = ecx

; 74   : 	{

	push	ebp
	mov	ebp, esp
	sub	esp, 80					; 00000050H
	push	ebx
	push	esi
	push	edi
	mov	DWORD PTR _this$[ebp], ecx

; 75   : 		Vector3::Add(P0,t*DP,set);

	mov	eax, DWORD PTR _set$[ebp]
	push	eax
	mov	ecx, DWORD PTR _this$[ebp]
	add	ecx, 24					; 00000018H
	push	ecx
	push	ecx
	movss	xmm0, DWORD PTR _t$[ebp]
	movss	DWORD PTR [esp], xmm0
	lea	edx, DWORD PTR $T1[ebp]
	push	edx
	call	??D@YA?AVVector3@@MABV0@@Z		; operator*
	add	esp, 12					; 0000000cH
	push	eax
	mov	eax, DWORD PTR _this$[ebp]
	push	eax
	call	?Add@Vector3@@SAXABV1@0PAV1@@Z		; Vector3::Add
	add	esp, 12					; 0000000cH

; 76   : 	}

	pop	edi
	pop	esi
	pop	ebx
	mov	esp, ebp
	pop	ebp
	ret	8
?Compute_Point@LineSegClass@@QBEXMPAVVector3@@@Z ENDP	; LineSegClass::Compute_Point
_TEXT	ENDS
; Function compile flags: /Odtp /ZI
; File x:\github\renegade\dragonade_rxd\scripts\linesegclass.h
;	COMDAT ?Get_Length@LineSegClass@@QBEMXZ
_TEXT	SEGMENT
_this$ = -4						; size = 4
?Get_Length@LineSegClass@@QBEMXZ PROC			; LineSegClass::Get_Length, COMDAT
; _this$ = ecx

; 70   : 	{

	push	ebp
	mov	ebp, esp
	sub	esp, 68					; 00000044H
	push	ebx
	push	esi
	push	edi
	mov	DWORD PTR _this$[ebp], ecx

; 71   : 		return Length;

	mov	eax, DWORD PTR _this$[ebp]
	fld	DWORD PTR [eax+48]

; 72   : 	}

	pop	edi
	pop	esi
	pop	ebx
	mov	esp, ebp
	pop	ebp
	ret	0
?Get_Length@LineSegClass@@QBEMXZ ENDP			; LineSegClass::Get_Length
_TEXT	ENDS
; Function compile flags: /Odtp /ZI
; File x:\github\renegade\dragonade_rxd\scripts\linesegclass.h
;	COMDAT ?Get_Dir@LineSegClass@@QBEABVVector3@@XZ
_TEXT	SEGMENT
_this$ = -4						; size = 4
?Get_Dir@LineSegClass@@QBEABVVector3@@XZ PROC		; LineSegClass::Get_Dir, COMDAT
; _this$ = ecx

; 66   : 	{

	push	ebp
	mov	ebp, esp
	sub	esp, 68					; 00000044H
	push	ebx
	push	esi
	push	edi
	mov	DWORD PTR _this$[ebp], ecx

; 67   : 		return Dir;

	mov	eax, DWORD PTR _this$[ebp]
	add	eax, 36					; 00000024H

; 68   : 	}

	pop	edi
	pop	esi
	pop	ebx
	mov	esp, ebp
	pop	ebp
	ret	0
?Get_Dir@LineSegClass@@QBEABVVector3@@XZ ENDP		; LineSegClass::Get_Dir
_TEXT	ENDS
; Function compile flags: /Odtp /ZI
; File x:\github\renegade\dragonade_rxd\scripts\linesegclass.h
;	COMDAT ?Get_DP@LineSegClass@@QBEABVVector3@@XZ
_TEXT	SEGMENT
_this$ = -4						; size = 4
?Get_DP@LineSegClass@@QBEABVVector3@@XZ PROC		; LineSegClass::Get_DP, COMDAT
; _this$ = ecx

; 62   : 	{

	push	ebp
	mov	ebp, esp
	sub	esp, 68					; 00000044H
	push	ebx
	push	esi
	push	edi
	mov	DWORD PTR _this$[ebp], ecx

; 63   : 		return DP;

	mov	eax, DWORD PTR _this$[ebp]
	add	eax, 24					; 00000018H

; 64   : 	}

	pop	edi
	pop	esi
	pop	ebx
	mov	esp, ebp
	pop	ebp
	ret	0
?Get_DP@LineSegClass@@QBEABVVector3@@XZ ENDP		; LineSegClass::Get_DP
_TEXT	ENDS
; Function compile flags: /Odtp /ZI
; File x:\github\renegade\dragonade_rxd\scripts\linesegclass.h
;	COMDAT ?Get_P1@LineSegClass@@QBEABVVector3@@XZ
_TEXT	SEGMENT
_this$ = -4						; size = 4
?Get_P1@LineSegClass@@QBEABVVector3@@XZ PROC		; LineSegClass::Get_P1, COMDAT
; _this$ = ecx

; 58   : 	{

	push	ebp
	mov	ebp, esp
	sub	esp, 68					; 00000044H
	push	ebx
	push	esi
	push	edi
	mov	DWORD PTR _this$[ebp], ecx

; 59   : 		return P1;

	mov	eax, DWORD PTR _this$[ebp]
	add	eax, 12					; 0000000cH

; 60   : 	}

	pop	edi
	pop	esi
	pop	ebx
	mov	esp, ebp
	pop	ebp
	ret	0
?Get_P1@LineSegClass@@QBEABVVector3@@XZ ENDP		; LineSegClass::Get_P1
_TEXT	ENDS
; Function compile flags: /Odtp /ZI
; File x:\github\renegade\dragonade_rxd\scripts\linesegclass.h
;	COMDAT ?Get_P0@LineSegClass@@QBEABVVector3@@XZ
_TEXT	SEGMENT
_this$ = -4						; size = 4
?Get_P0@LineSegClass@@QBEABVVector3@@XZ PROC		; LineSegClass::Get_P0, COMDAT
; _this$ = ecx

; 54   : 	{

	push	ebp
	mov	ebp, esp
	sub	esp, 68					; 00000044H
	push	ebx
	push	esi
	push	edi
	mov	DWORD PTR _this$[ebp], ecx

; 55   : 		return P0;

	mov	eax, DWORD PTR _this$[ebp]

; 56   : 	}

	pop	edi
	pop	esi
	pop	ebx
	mov	esp, ebp
	pop	ebp
	ret	0
?Get_P0@LineSegClass@@QBEABVVector3@@XZ ENDP		; LineSegClass::Get_P0
_TEXT	ENDS
; Function compile flags: /Odtp /ZI
; File x:\github\renegade\dragonade_rxd\scripts\linesegclass.cpp
;	COMDAT ?Set@LineSegClass@@QAEXABV1@ABVMatrix3D@@@Z
_TEXT	SEGMENT
$T1 = -80						; size = 12
_this$ = -4						; size = 4
_object$ = 8						; size = 4
_transform$ = 12					; size = 4
?Set@LineSegClass@@QAEXABV1@ABVMatrix3D@@@Z PROC	; LineSegClass::Set, COMDAT
; _this$ = ecx

; 32   : {

	push	ebp
	mov	ebp, esp
	sub	esp, 80					; 00000050H
	push	ebx
	push	esi
	push	edi
	mov	DWORD PTR _this$[ebp], ecx

; 33   :     Matrix3D::Transform_Vector(transform, object.P0, &P0);

	mov	eax, DWORD PTR _this$[ebp]
	push	eax
	mov	ecx, DWORD PTR _object$[ebp]
	push	ecx
	mov	edx, DWORD PTR _transform$[ebp]
	push	edx
	call	?Transform_Vector@Matrix3D@@SAXABV1@ABVVector3@@PAV2@@Z ; Matrix3D::Transform_Vector
	add	esp, 12					; 0000000cH

; 34   :     Matrix3D::Transform_Vector(transform, object.P1, &P1);

	mov	eax, DWORD PTR _this$[ebp]
	add	eax, 12					; 0000000cH
	push	eax
	mov	ecx, DWORD PTR _object$[ebp]
	add	ecx, 12					; 0000000cH
	push	ecx
	mov	edx, DWORD PTR _transform$[ebp]
	push	edx
	call	?Transform_Vector@Matrix3D@@SAXABV1@ABVVector3@@PAV2@@Z ; Matrix3D::Transform_Vector
	add	esp, 12					; 0000000cH

; 35   :     DP = P1 - P0;

	mov	eax, DWORD PTR _this$[ebp]
	push	eax
	mov	ecx, DWORD PTR _this$[ebp]
	add	ecx, 12					; 0000000cH
	push	ecx
	lea	edx, DWORD PTR $T1[ebp]
	push	edx
	call	??G@YA?AVVector3@@ABV0@0@Z		; operator-
	add	esp, 12					; 0000000cH
	push	eax
	mov	ecx, DWORD PTR _this$[ebp]
	add	ecx, 24					; 00000018H
	call	??4Vector3@@QAEAAV0@ABV0@@Z		; Vector3::operator=

; 36   :     Matrix3D::Rotate_Vector(transform, object.Dir, &Dir);

	mov	eax, DWORD PTR _this$[ebp]
	add	eax, 36					; 00000024H
	push	eax
	mov	ecx, DWORD PTR _object$[ebp]
	add	ecx, 36					; 00000024H
	push	ecx
	mov	edx, DWORD PTR _transform$[ebp]
	push	edx
	call	?Rotate_Vector@Matrix3D@@SAXABV1@ABVVector3@@PAV2@@Z ; Matrix3D::Rotate_Vector
	add	esp, 12					; 0000000cH

; 37   : 	Length = object.Length;

	mov	eax, DWORD PTR _this$[ebp]
	mov	ecx, DWORD PTR _object$[ebp]
	mov	edx, DWORD PTR [ecx+48]
	mov	DWORD PTR [eax+48], edx

; 38   : }

	pop	edi
	pop	esi
	pop	ebx
	mov	esp, ebp
	pop	ebp
	ret	8
?Set@LineSegClass@@QAEXABV1@ABVMatrix3D@@@Z ENDP	; LineSegClass::Set
_TEXT	ENDS
; Function compile flags: /Odtp /ZI
; File x:\github\renegade\dragonade_rxd\scripts\linesegclass.h
;	COMDAT ?Set@LineSegClass@@QAEXABVVector3@@0M@Z
_TEXT	SEGMENT
$T1 = -92						; size = 12
$T2 = -80						; size = 12
_this$ = -4						; size = 4
_p0$ = 8						; size = 4
_dir$ = 12						; size = 4
_l$ = 16						; size = 4
?Set@LineSegClass@@QAEXABVVector3@@0M@Z PROC		; LineSegClass::Set, COMDAT
; _this$ = ecx

; 44   : 	{

	push	ebp
	mov	ebp, esp
	sub	esp, 92					; 0000005cH
	push	ebx
	push	esi
	push	edi
	mov	DWORD PTR _this$[ebp], ecx

; 45   : 		DP = dir * l;

	push	ecx
	movss	xmm0, DWORD PTR _l$[ebp]
	movss	DWORD PTR [esp], xmm0
	mov	eax, DWORD PTR _dir$[ebp]
	push	eax
	lea	ecx, DWORD PTR $T1[ebp]
	push	ecx
	call	??D@YA?AVVector3@@ABV0@M@Z		; operator*
	add	esp, 12					; 0000000cH
	push	eax
	mov	ecx, DWORD PTR _this$[ebp]
	add	ecx, 24					; 00000018H
	call	??4Vector3@@QAEAAV0@ABV0@@Z		; Vector3::operator=

; 46   : 		P0 = p0;

	mov	eax, DWORD PTR _p0$[ebp]
	push	eax
	mov	ecx, DWORD PTR _this$[ebp]
	call	??4Vector3@@QAEAAV0@ABV0@@Z		; Vector3::operator=

; 47   : 		P1 = p0 + DP;

	mov	eax, DWORD PTR _this$[ebp]
	add	eax, 24					; 00000018H
	push	eax
	mov	ecx, DWORD PTR _p0$[ebp]
	push	ecx
	lea	edx, DWORD PTR $T2[ebp]
	push	edx
	call	??H@YA?AVVector3@@ABV0@0@Z		; operator+
	add	esp, 12					; 0000000cH
	push	eax
	mov	ecx, DWORD PTR _this$[ebp]
	add	ecx, 12					; 0000000cH
	call	??4Vector3@@QAEAAV0@ABV0@@Z		; Vector3::operator=

; 48   : 		Dir = dir;

	mov	eax, DWORD PTR _dir$[ebp]
	push	eax
	mov	ecx, DWORD PTR _this$[ebp]
	add	ecx, 36					; 00000024H
	call	??4Vector3@@QAEAAV0@ABV0@@Z		; Vector3::operator=

; 49   : 		Length = l;

	mov	eax, DWORD PTR _this$[ebp]
	movss	xmm0, DWORD PTR _l$[ebp]
	movss	DWORD PTR [eax+48], xmm0

; 50   : 	}

	pop	edi
	pop	esi
	pop	ebx
	mov	esp, ebp
	pop	ebp
	ret	12					; 0000000cH
?Set@LineSegClass@@QAEXABVVector3@@0M@Z ENDP		; LineSegClass::Set
_TEXT	ENDS
; Function compile flags: /Odtp /ZI
; File x:\github\renegade\dragonade_rxd\scripts\linesegclass.h
;	COMDAT ?Set@LineSegClass@@QAEXABVVector3@@0@Z
_TEXT	SEGMENT
_this$ = -4						; size = 4
_p0$ = 8						; size = 4
_p1$ = 12						; size = 4
?Set@LineSegClass@@QAEXABVVector3@@0@Z PROC		; LineSegClass::Set, COMDAT
; _this$ = ecx

; 38   : 	{

	push	ebp
	mov	ebp, esp
	sub	esp, 68					; 00000044H
	push	ebx
	push	esi
	push	edi
	mov	DWORD PTR _this$[ebp], ecx

; 39   : 		P0 = p0;

	mov	eax, DWORD PTR _p0$[ebp]
	push	eax
	mov	ecx, DWORD PTR _this$[ebp]
	call	??4Vector3@@QAEAAV0@ABV0@@Z		; Vector3::operator=

; 40   : 		P1 = p1;

	mov	eax, DWORD PTR _p1$[ebp]
	push	eax
	mov	ecx, DWORD PTR _this$[ebp]
	add	ecx, 12					; 0000000cH
	call	??4Vector3@@QAEAAV0@ABV0@@Z		; Vector3::operator=

; 41   : 		recalculate();

	mov	ecx, DWORD PTR _this$[ebp]
	call	?recalculate@LineSegClass@@IAEXXZ	; LineSegClass::recalculate

; 42   : 	}

	pop	edi
	pop	esi
	pop	ebx
	mov	esp, ebp
	pop	ebp
	ret	8
?Set@LineSegClass@@QAEXABVVector3@@0@Z ENDP		; LineSegClass::Set
_TEXT	ENDS
; Function compile flags: /Odtp /ZI
; File x:\github\renegade\dragonade_rxd\scripts\linesegclass.h
;	COMDAT ??0LineSegClass@@QAE@ABV0@ABVMatrix3D@@@Z
_TEXT	SEGMENT
_this$ = -4						; size = 4
_that$ = 8						; size = 4
_tm$ = 12						; size = 4
??0LineSegClass@@QAE@ABV0@ABVMatrix3D@@@Z PROC		; LineSegClass::LineSegClass, COMDAT
; _this$ = ecx

; 33   : 	LineSegClass(const LineSegClass & that,const Matrix3D & tm)

	push	ebp
	mov	ebp, esp
	sub	esp, 68					; 00000044H
	push	ebx
	push	esi
	push	edi
	mov	DWORD PTR _this$[ebp], ecx
	mov	ecx, DWORD PTR _this$[ebp]
	call	??0Vector3@@QAE@XZ			; Vector3::Vector3
	mov	ecx, DWORD PTR _this$[ebp]
	add	ecx, 12					; 0000000cH
	call	??0Vector3@@QAE@XZ			; Vector3::Vector3
	mov	ecx, DWORD PTR _this$[ebp]
	add	ecx, 24					; 00000018H
	call	??0Vector3@@QAE@XZ			; Vector3::Vector3
	mov	ecx, DWORD PTR _this$[ebp]
	add	ecx, 36					; 00000024H
	call	??0Vector3@@QAE@XZ			; Vector3::Vector3

; 34   : 	{
; 35   : 		Set(that,tm);

	mov	eax, DWORD PTR _tm$[ebp]
	push	eax
	mov	ecx, DWORD PTR _that$[ebp]
	push	ecx
	mov	ecx, DWORD PTR _this$[ebp]
	call	?Set@LineSegClass@@QAEXABV1@ABVMatrix3D@@@Z ; LineSegClass::Set

; 36   : 	}

	mov	eax, DWORD PTR _this$[ebp]
	pop	edi
	pop	esi
	pop	ebx
	mov	esp, ebp
	pop	ebp
	ret	8
??0LineSegClass@@QAE@ABV0@ABVMatrix3D@@@Z ENDP		; LineSegClass::LineSegClass
_TEXT	ENDS
; Function compile flags: /Odtp /ZI
; File x:\github\renegade\dragonade_rxd\scripts\linesegclass.h
;	COMDAT ??0LineSegClass@@QAE@ABVVector3@@0M@Z
_TEXT	SEGMENT
$T1 = -92						; size = 12
$T2 = -80						; size = 12
_this$ = -4						; size = 4
_p0$ = 8						; size = 4
_dir$ = 12						; size = 4
_l$ = 16						; size = 4
??0LineSegClass@@QAE@ABVVector3@@0M@Z PROC		; LineSegClass::LineSegClass, COMDAT
; _this$ = ecx

; 29   : 	{

	push	ebp
	mov	ebp, esp
	sub	esp, 92					; 0000005cH
	push	ebx
	push	esi
	push	edi
	mov	DWORD PTR _this$[ebp], ecx
	mov	eax, DWORD PTR _p0$[ebp]
	push	eax
	mov	ecx, DWORD PTR _this$[ebp]
	call	??0Vector3@@QAE@ABV0@@Z			; Vector3::Vector3
	mov	ecx, DWORD PTR _this$[ebp]
	add	ecx, 12					; 0000000cH
	call	??0Vector3@@QAE@XZ			; Vector3::Vector3
	mov	ecx, DWORD PTR _this$[ebp]
	add	ecx, 24					; 00000018H
	call	??0Vector3@@QAE@XZ			; Vector3::Vector3
	mov	eax, DWORD PTR _dir$[ebp]
	push	eax
	mov	ecx, DWORD PTR _this$[ebp]
	add	ecx, 36					; 00000024H
	call	??0Vector3@@QAE@ABV0@@Z			; Vector3::Vector3
	mov	eax, DWORD PTR _this$[ebp]
	movss	xmm0, DWORD PTR _l$[ebp]
	movss	DWORD PTR [eax+48], xmm0

; 30   : 		DP = Dir * Length;

	mov	eax, DWORD PTR _this$[ebp]
	push	ecx
	movss	xmm0, DWORD PTR [eax+48]
	movss	DWORD PTR [esp], xmm0
	mov	ecx, DWORD PTR _this$[ebp]
	add	ecx, 36					; 00000024H
	push	ecx
	lea	edx, DWORD PTR $T1[ebp]
	push	edx
	call	??D@YA?AVVector3@@ABV0@M@Z		; operator*
	add	esp, 12					; 0000000cH
	push	eax
	mov	ecx, DWORD PTR _this$[ebp]
	add	ecx, 24					; 00000018H
	call	??4Vector3@@QAEAAV0@ABV0@@Z		; Vector3::operator=

; 31   : 		P1 = P0 + DP;

	mov	eax, DWORD PTR _this$[ebp]
	add	eax, 24					; 00000018H
	push	eax
	mov	ecx, DWORD PTR _this$[ebp]
	push	ecx
	lea	edx, DWORD PTR $T2[ebp]
	push	edx
	call	??H@YA?AVVector3@@ABV0@0@Z		; operator+
	add	esp, 12					; 0000000cH
	push	eax
	mov	ecx, DWORD PTR _this$[ebp]
	add	ecx, 12					; 0000000cH
	call	??4Vector3@@QAEAAV0@ABV0@@Z		; Vector3::operator=

; 32   : 	}

	mov	eax, DWORD PTR _this$[ebp]
	pop	edi
	pop	esi
	pop	ebx
	mov	esp, ebp
	pop	ebp
	ret	12					; 0000000cH
??0LineSegClass@@QAE@ABVVector3@@0M@Z ENDP		; LineSegClass::LineSegClass
_TEXT	ENDS
; Function compile flags: /Odtp /ZI
; File x:\github\renegade\dragonade_rxd\scripts\linesegclass.h
;	COMDAT ??0LineSegClass@@QAE@ABVVector3@@0@Z
_TEXT	SEGMENT
_this$ = -4						; size = 4
_p0$ = 8						; size = 4
_p1$ = 12						; size = 4
??0LineSegClass@@QAE@ABVVector3@@0@Z PROC		; LineSegClass::LineSegClass, COMDAT
; _this$ = ecx

; 25   : 	{

	push	ebp
	mov	ebp, esp
	sub	esp, 68					; 00000044H
	push	ebx
	push	esi
	push	edi
	mov	DWORD PTR _this$[ebp], ecx
	mov	eax, DWORD PTR _p0$[ebp]
	push	eax
	mov	ecx, DWORD PTR _this$[ebp]
	call	??0Vector3@@QAE@ABV0@@Z			; Vector3::Vector3
	mov	eax, DWORD PTR _p1$[ebp]
	push	eax
	mov	ecx, DWORD PTR _this$[ebp]
	add	ecx, 12					; 0000000cH
	call	??0Vector3@@QAE@ABV0@@Z			; Vector3::Vector3
	mov	ecx, DWORD PTR _this$[ebp]
	add	ecx, 24					; 00000018H
	call	??0Vector3@@QAE@XZ			; Vector3::Vector3
	mov	ecx, DWORD PTR _this$[ebp]
	add	ecx, 36					; 00000024H
	call	??0Vector3@@QAE@XZ			; Vector3::Vector3

; 26   : 		recalculate();

	mov	ecx, DWORD PTR _this$[ebp]
	call	?recalculate@LineSegClass@@IAEXXZ	; LineSegClass::recalculate

; 27   : 	}

	mov	eax, DWORD PTR _this$[ebp]
	pop	edi
	pop	esi
	pop	ebx
	mov	esp, ebp
	pop	ebp
	ret	8
??0LineSegClass@@QAE@ABVVector3@@0@Z ENDP		; LineSegClass::LineSegClass
_TEXT	ENDS
; Function compile flags: /Odtp /ZI
; File x:\github\renegade\dragonade_rxd\scripts\linesegclass.h
;	COMDAT ??0LineSegClass@@QAE@XZ
_TEXT	SEGMENT
_this$ = -4						; size = 4
??0LineSegClass@@QAE@XZ PROC				; LineSegClass::LineSegClass, COMDAT
; _this$ = ecx

; 21   : 	LineSegClass(void)

	push	ebp
	mov	ebp, esp
	sub	esp, 68					; 00000044H
	push	ebx
	push	esi
	push	edi
	mov	DWORD PTR _this$[ebp], ecx
	mov	ecx, DWORD PTR _this$[ebp]
	call	??0Vector3@@QAE@XZ			; Vector3::Vector3
	mov	ecx, DWORD PTR _this$[ebp]
	add	ecx, 12					; 0000000cH
	call	??0Vector3@@QAE@XZ			; Vector3::Vector3
	mov	ecx, DWORD PTR _this$[ebp]
	add	ecx, 24					; 00000018H
	call	??0Vector3@@QAE@XZ			; Vector3::Vector3
	mov	ecx, DWORD PTR _this$[ebp]
	add	ecx, 36					; 00000024H
	call	??0Vector3@@QAE@XZ			; Vector3::Vector3

; 22   : 	{
; 23   : 	}

	mov	eax, DWORD PTR _this$[ebp]
	pop	edi
	pop	esi
	pop	ebx
	mov	esp, ebp
	pop	ebp
	ret	0
??0LineSegClass@@QAE@XZ ENDP				; LineSegClass::LineSegClass
_TEXT	ENDS
; Function compile flags: /Odtp /ZI
; File x:\github\renegade\dragonade_rxd\scripts\matrix3d.h
;	COMDAT ?Inverse_Rotate_Vector@Matrix3D@@SAXABV1@ABVVector3@@PAV2@@Z
_TEXT	SEGMENT
tv237 = -88						; size = 4
tv233 = -88						; size = 4
tv229 = -88						; size = 4
tv235 = -84						; size = 4
tv231 = -84						; size = 4
tv227 = -84						; size = 4
_v$ = -16						; size = 4
_tmp$ = -12						; size = 12
_A$ = 8							; size = 4
_in$ = 12						; size = 4
_out$ = 16						; size = 4
?Inverse_Rotate_Vector@Matrix3D@@SAXABV1@ABVVector3@@PAV2@@Z PROC ; Matrix3D::Inverse_Rotate_Vector, COMDAT

; 564  : 	{

	push	ebp
	mov	ebp, esp
	sub	esp, 88					; 00000058H
	push	ebx
	push	esi
	push	edi

; 565  : 		Vector3 tmp;

	lea	ecx, DWORD PTR _tmp$[ebp]
	call	??0Vector3@@QAE@XZ			; Vector3::Vector3

; 566  : 		Vector3 * v;
; 567  : 		if (out == &in)

	mov	eax, DWORD PTR _out$[ebp]
	cmp	eax, DWORD PTR _in$[ebp]
	jne	SHORT $LN2@Inverse_Ro

; 568  : 		{
; 569  : 			tmp = in;

	mov	eax, DWORD PTR _in$[ebp]
	push	eax
	lea	ecx, DWORD PTR _tmp$[ebp]
	call	??4Vector3@@QAEAAV0@ABV0@@Z		; Vector3::operator=

; 570  : 			v = &tmp;

	lea	eax, DWORD PTR _tmp$[ebp]
	mov	DWORD PTR _v$[ebp], eax

; 571  : 		}
; 572  : 		else

	jmp	SHORT $LN1@Inverse_Ro
$LN2@Inverse_Ro:

; 573  : 		{
; 574  : 			v = (Vector3 *)&in;

	mov	eax, DWORD PTR _in$[ebp]
	mov	DWORD PTR _v$[ebp], eax
$LN1@Inverse_Ro:

; 575  : 		}
; 576  : 		out->X = (A[0][0] * v->X + A[1][0] * v->Y + A[2][0] * v->Z);

	push	0
	push	0
	mov	ecx, DWORD PTR _A$[ebp]
	call	??AMatrix3D@@QBEABVVector4@@H@Z		; Matrix3D::operator[]
	mov	ecx, eax
	call	??AVector4@@QBEABMH@Z			; Vector4::operator[]
	mov	ecx, DWORD PTR _v$[ebp]
	movss	xmm0, DWORD PTR [eax]
	mulss	xmm0, DWORD PTR [ecx]
	push	0
	push	1
	mov	ecx, DWORD PTR _A$[ebp]
	movss	DWORD PTR tv227[ebp], xmm0
	call	??AMatrix3D@@QBEABVVector4@@H@Z		; Matrix3D::operator[]
	mov	ecx, eax
	call	??AVector4@@QBEABMH@Z			; Vector4::operator[]
	mov	edx, DWORD PTR _v$[ebp]
	movss	xmm0, DWORD PTR [eax]
	mulss	xmm0, DWORD PTR [edx+4]
	movss	xmm1, DWORD PTR tv227[ebp]
	addss	xmm1, xmm0
	push	0
	push	2
	mov	ecx, DWORD PTR _A$[ebp]
	movss	DWORD PTR tv229[ebp], xmm1
	call	??AMatrix3D@@QBEABVVector4@@H@Z		; Matrix3D::operator[]
	mov	ecx, eax
	call	??AVector4@@QBEABMH@Z			; Vector4::operator[]
	mov	ecx, DWORD PTR _v$[ebp]
	movss	xmm0, DWORD PTR [eax]
	mulss	xmm0, DWORD PTR [ecx+8]
	movss	xmm1, DWORD PTR tv229[ebp]
	addss	xmm1, xmm0
	mov	edx, DWORD PTR _out$[ebp]
	movss	DWORD PTR [edx], xmm1

; 577  : 		out->Y = (A[0][1] * v->X + A[1][1] * v->Y + A[2][1] * v->Z);

	push	1
	push	0
	mov	ecx, DWORD PTR _A$[ebp]
	call	??AMatrix3D@@QBEABVVector4@@H@Z		; Matrix3D::operator[]
	mov	ecx, eax
	call	??AVector4@@QBEABMH@Z			; Vector4::operator[]
	mov	ecx, DWORD PTR _v$[ebp]
	movss	xmm0, DWORD PTR [eax]
	mulss	xmm0, DWORD PTR [ecx]
	push	1
	push	1
	mov	ecx, DWORD PTR _A$[ebp]
	movss	DWORD PTR tv231[ebp], xmm0
	call	??AMatrix3D@@QBEABVVector4@@H@Z		; Matrix3D::operator[]
	mov	ecx, eax
	call	??AVector4@@QBEABMH@Z			; Vector4::operator[]
	mov	edx, DWORD PTR _v$[ebp]
	movss	xmm0, DWORD PTR [eax]
	mulss	xmm0, DWORD PTR [edx+4]
	movss	xmm1, DWORD PTR tv231[ebp]
	addss	xmm1, xmm0
	push	1
	push	2
	mov	ecx, DWORD PTR _A$[ebp]
	movss	DWORD PTR tv233[ebp], xmm1
	call	??AMatrix3D@@QBEABVVector4@@H@Z		; Matrix3D::operator[]
	mov	ecx, eax
	call	??AVector4@@QBEABMH@Z			; Vector4::operator[]
	mov	ecx, DWORD PTR _v$[ebp]
	movss	xmm0, DWORD PTR [eax]
	mulss	xmm0, DWORD PTR [ecx+8]
	movss	xmm1, DWORD PTR tv233[ebp]
	addss	xmm1, xmm0
	mov	edx, DWORD PTR _out$[ebp]
	movss	DWORD PTR [edx+4], xmm1

; 578  : 		out->Z = (A[0][2] * v->X + A[1][2] * v->Y + A[2][2] * v->Z);

	push	2
	push	0
	mov	ecx, DWORD PTR _A$[ebp]
	call	??AMatrix3D@@QBEABVVector4@@H@Z		; Matrix3D::operator[]
	mov	ecx, eax
	call	??AVector4@@QBEABMH@Z			; Vector4::operator[]
	mov	ecx, DWORD PTR _v$[ebp]
	movss	xmm0, DWORD PTR [eax]
	mulss	xmm0, DWORD PTR [ecx]
	push	2
	push	1
	mov	ecx, DWORD PTR _A$[ebp]
	movss	DWORD PTR tv235[ebp], xmm0
	call	??AMatrix3D@@QBEABVVector4@@H@Z		; Matrix3D::operator[]
	mov	ecx, eax
	call	??AVector4@@QBEABMH@Z			; Vector4::operator[]
	mov	edx, DWORD PTR _v$[ebp]
	movss	xmm0, DWORD PTR [eax]
	mulss	xmm0, DWORD PTR [edx+4]
	movss	xmm1, DWORD PTR tv235[ebp]
	addss	xmm1, xmm0
	push	2
	push	2
	mov	ecx, DWORD PTR _A$[ebp]
	movss	DWORD PTR tv237[ebp], xmm1
	call	??AMatrix3D@@QBEABVVector4@@H@Z		; Matrix3D::operator[]
	mov	ecx, eax
	call	??AVector4@@QBEABMH@Z			; Vector4::operator[]
	mov	ecx, DWORD PTR _v$[ebp]
	movss	xmm0, DWORD PTR [eax]
	mulss	xmm0, DWORD PTR [ecx+8]
	movss	xmm1, DWORD PTR tv237[ebp]
	addss	xmm1, xmm0
	mov	edx, DWORD PTR _out$[ebp]
	movss	DWORD PTR [edx+8], xmm1

; 579  : 	}

	pop	edi
	pop	esi
	pop	ebx
	mov	esp, ebp
	pop	ebp
	ret	0
?Inverse_Rotate_Vector@Matrix3D@@SAXABV1@ABVVector3@@PAV2@@Z ENDP ; Matrix3D::Inverse_Rotate_Vector
_TEXT	ENDS
; Function compile flags: /Odtp /ZI
; File x:\github\renegade\dragonade_rxd\scripts\matrix3d.h
;	COMDAT ?Inverse_Transform_Vector@Matrix3D@@SAXABV1@ABVVector3@@PAV2@@Z
_TEXT	SEGMENT
_diff$ = -28						; size = 12
_v$ = -16						; size = 4
_tmp$ = -12						; size = 12
_A$ = 8							; size = 4
_in$ = 12						; size = 4
_out$ = 16						; size = 4
?Inverse_Transform_Vector@Matrix3D@@SAXABV1@ABVVector3@@PAV2@@Z PROC ; Matrix3D::Inverse_Transform_Vector, COMDAT

; 548  : 	{

	push	ebp
	mov	ebp, esp
	sub	esp, 92					; 0000005cH
	push	ebx
	push	esi
	push	edi

; 549  : 		Vector3 tmp;

	lea	ecx, DWORD PTR _tmp$[ebp]
	call	??0Vector3@@QAE@XZ			; Vector3::Vector3

; 550  : 		Vector3 * v;
; 551  : 		if (out == &in)

	mov	eax, DWORD PTR _out$[ebp]
	cmp	eax, DWORD PTR _in$[ebp]
	jne	SHORT $LN2@Inverse_Tr

; 552  : 		{
; 553  : 			tmp = in;

	mov	eax, DWORD PTR _in$[ebp]
	push	eax
	lea	ecx, DWORD PTR _tmp$[ebp]
	call	??4Vector3@@QAEAAV0@ABV0@@Z		; Vector3::operator=

; 554  : 			v = &tmp;

	lea	eax, DWORD PTR _tmp$[ebp]
	mov	DWORD PTR _v$[ebp], eax

; 555  : 		}
; 556  : 		else

	jmp	SHORT $LN1@Inverse_Tr
$LN2@Inverse_Tr:

; 557  : 		{
; 558  : 			v = (Vector3 *)&in;

	mov	eax, DWORD PTR _in$[ebp]
	mov	DWORD PTR _v$[ebp], eax
$LN1@Inverse_Tr:

; 559  : 		}
; 560  : 		Vector3 diff(v->X - A[0][3], v->Y - A[1][3], v->Z - A[2][3]);

	push	3
	push	2
	mov	ecx, DWORD PTR _A$[ebp]
	call	??AMatrix3D@@QBEABVVector4@@H@Z		; Matrix3D::operator[]
	mov	ecx, eax
	call	??AVector4@@QBEABMH@Z			; Vector4::operator[]
	mov	ecx, DWORD PTR _v$[ebp]
	movss	xmm0, DWORD PTR [ecx+8]
	subss	xmm0, DWORD PTR [eax]
	push	ecx
	movss	DWORD PTR [esp], xmm0
	push	3
	push	1
	mov	ecx, DWORD PTR _A$[ebp]
	call	??AMatrix3D@@QBEABVVector4@@H@Z		; Matrix3D::operator[]
	mov	ecx, eax
	call	??AVector4@@QBEABMH@Z			; Vector4::operator[]
	mov	edx, DWORD PTR _v$[ebp]
	movss	xmm0, DWORD PTR [edx+4]
	subss	xmm0, DWORD PTR [eax]
	push	ecx
	movss	DWORD PTR [esp], xmm0
	push	3
	push	0
	mov	ecx, DWORD PTR _A$[ebp]
	call	??AMatrix3D@@QBEABVVector4@@H@Z		; Matrix3D::operator[]
	mov	ecx, eax
	call	??AVector4@@QBEABMH@Z			; Vector4::operator[]
	mov	ecx, DWORD PTR _v$[ebp]
	movss	xmm0, DWORD PTR [ecx]
	subss	xmm0, DWORD PTR [eax]
	push	ecx
	movss	DWORD PTR [esp], xmm0
	lea	ecx, DWORD PTR _diff$[ebp]
	call	??0Vector3@@QAE@MMM@Z			; Vector3::Vector3

; 561  : 		Matrix3D::Inverse_Rotate_Vector(A, diff, out);

	mov	eax, DWORD PTR _out$[ebp]
	push	eax
	lea	ecx, DWORD PTR _diff$[ebp]
	push	ecx
	mov	edx, DWORD PTR _A$[ebp]
	push	edx
	call	?Inverse_Rotate_Vector@Matrix3D@@SAXABV1@ABVVector3@@PAV2@@Z ; Matrix3D::Inverse_Rotate_Vector
	add	esp, 12					; 0000000cH

; 562  : 	}

	pop	edi
	pop	esi
	pop	ebx
	mov	esp, ebp
	pop	ebp
	ret	0
?Inverse_Transform_Vector@Matrix3D@@SAXABV1@ABVVector3@@PAV2@@Z ENDP ; Matrix3D::Inverse_Transform_Vector
_TEXT	ENDS
; Function compile flags: /Odtp /ZI
; File x:\github\renegade\dragonade_rxd\scripts\matrix3d.h
;	COMDAT ?Rotate_Vector@Matrix3D@@SAXABV1@ABVVector3@@PAV2@@Z
_TEXT	SEGMENT
tv237 = -88						; size = 4
tv233 = -88						; size = 4
tv229 = -88						; size = 4
tv235 = -84						; size = 4
tv231 = -84						; size = 4
tv227 = -84						; size = 4
_v$ = -16						; size = 4
_tmp$ = -12						; size = 12
_A$ = 8							; size = 4
_in$ = 12						; size = 4
_out$ = 16						; size = 4
?Rotate_Vector@Matrix3D@@SAXABV1@ABVVector3@@PAV2@@Z PROC ; Matrix3D::Rotate_Vector, COMDAT

; 531  : 	{

	push	ebp
	mov	ebp, esp
	sub	esp, 88					; 00000058H
	push	ebx
	push	esi
	push	edi

; 532  : 		Vector3 tmp;

	lea	ecx, DWORD PTR _tmp$[ebp]
	call	??0Vector3@@QAE@XZ			; Vector3::Vector3

; 533  : 		Vector3 * v;
; 534  : 		if (out == &in)

	mov	eax, DWORD PTR _out$[ebp]
	cmp	eax, DWORD PTR _in$[ebp]
	jne	SHORT $LN2@Rotate_Vec

; 535  : 		{
; 536  : 			tmp = in;

	mov	eax, DWORD PTR _in$[ebp]
	push	eax
	lea	ecx, DWORD PTR _tmp$[ebp]
	call	??4Vector3@@QAEAAV0@ABV0@@Z		; Vector3::operator=

; 537  : 			v = &tmp;

	lea	eax, DWORD PTR _tmp$[ebp]
	mov	DWORD PTR _v$[ebp], eax

; 538  : 		}
; 539  : 		else 

	jmp	SHORT $LN1@Rotate_Vec
$LN2@Rotate_Vec:

; 540  : 		{
; 541  : 			v = (Vector3 *)&in;

	mov	eax, DWORD PTR _in$[ebp]
	mov	DWORD PTR _v$[ebp], eax
$LN1@Rotate_Vec:

; 542  : 		}
; 543  : 		out->X = (A[0][0] * v->X + A[0][1] * v->Y + A[0][2] * v->Z);

	push	0
	push	0
	mov	ecx, DWORD PTR _A$[ebp]
	call	??AMatrix3D@@QBEABVVector4@@H@Z		; Matrix3D::operator[]
	mov	ecx, eax
	call	??AVector4@@QBEABMH@Z			; Vector4::operator[]
	mov	ecx, DWORD PTR _v$[ebp]
	movss	xmm0, DWORD PTR [eax]
	mulss	xmm0, DWORD PTR [ecx]
	push	1
	push	0
	mov	ecx, DWORD PTR _A$[ebp]
	movss	DWORD PTR tv227[ebp], xmm0
	call	??AMatrix3D@@QBEABVVector4@@H@Z		; Matrix3D::operator[]
	mov	ecx, eax
	call	??AVector4@@QBEABMH@Z			; Vector4::operator[]
	mov	edx, DWORD PTR _v$[ebp]
	movss	xmm0, DWORD PTR [eax]
	mulss	xmm0, DWORD PTR [edx+4]
	movss	xmm1, DWORD PTR tv227[ebp]
	addss	xmm1, xmm0
	push	2
	push	0
	mov	ecx, DWORD PTR _A$[ebp]
	movss	DWORD PTR tv229[ebp], xmm1
	call	??AMatrix3D@@QBEABVVector4@@H@Z		; Matrix3D::operator[]
	mov	ecx, eax
	call	??AVector4@@QBEABMH@Z			; Vector4::operator[]
	mov	ecx, DWORD PTR _v$[ebp]
	movss	xmm0, DWORD PTR [eax]
	mulss	xmm0, DWORD PTR [ecx+8]
	movss	xmm1, DWORD PTR tv229[ebp]
	addss	xmm1, xmm0
	mov	edx, DWORD PTR _out$[ebp]
	movss	DWORD PTR [edx], xmm1

; 544  : 		out->Y = (A[1][0] * v->X + A[1][1] * v->Y + A[1][2] * v->Z);

	push	0
	push	1
	mov	ecx, DWORD PTR _A$[ebp]
	call	??AMatrix3D@@QBEABVVector4@@H@Z		; Matrix3D::operator[]
	mov	ecx, eax
	call	??AVector4@@QBEABMH@Z			; Vector4::operator[]
	mov	ecx, DWORD PTR _v$[ebp]
	movss	xmm0, DWORD PTR [eax]
	mulss	xmm0, DWORD PTR [ecx]
	push	1
	push	1
	mov	ecx, DWORD PTR _A$[ebp]
	movss	DWORD PTR tv231[ebp], xmm0
	call	??AMatrix3D@@QBEABVVector4@@H@Z		; Matrix3D::operator[]
	mov	ecx, eax
	call	??AVector4@@QBEABMH@Z			; Vector4::operator[]
	mov	edx, DWORD PTR _v$[ebp]
	movss	xmm0, DWORD PTR [eax]
	mulss	xmm0, DWORD PTR [edx+4]
	movss	xmm1, DWORD PTR tv231[ebp]
	addss	xmm1, xmm0
	push	2
	push	1
	mov	ecx, DWORD PTR _A$[ebp]
	movss	DWORD PTR tv233[ebp], xmm1
	call	??AMatrix3D@@QBEABVVector4@@H@Z		; Matrix3D::operator[]
	mov	ecx, eax
	call	??AVector4@@QBEABMH@Z			; Vector4::operator[]
	mov	ecx, DWORD PTR _v$[ebp]
	movss	xmm0, DWORD PTR [eax]
	mulss	xmm0, DWORD PTR [ecx+8]
	movss	xmm1, DWORD PTR tv233[ebp]
	addss	xmm1, xmm0
	mov	edx, DWORD PTR _out$[ebp]
	movss	DWORD PTR [edx+4], xmm1

; 545  : 		out->Z = (A[2][0] * v->X + A[2][1] * v->Y + A[2][2] * v->Z);

	push	0
	push	2
	mov	ecx, DWORD PTR _A$[ebp]
	call	??AMatrix3D@@QBEABVVector4@@H@Z		; Matrix3D::operator[]
	mov	ecx, eax
	call	??AVector4@@QBEABMH@Z			; Vector4::operator[]
	mov	ecx, DWORD PTR _v$[ebp]
	movss	xmm0, DWORD PTR [eax]
	mulss	xmm0, DWORD PTR [ecx]
	push	1
	push	2
	mov	ecx, DWORD PTR _A$[ebp]
	movss	DWORD PTR tv235[ebp], xmm0
	call	??AMatrix3D@@QBEABVVector4@@H@Z		; Matrix3D::operator[]
	mov	ecx, eax
	call	??AVector4@@QBEABMH@Z			; Vector4::operator[]
	mov	edx, DWORD PTR _v$[ebp]
	movss	xmm0, DWORD PTR [eax]
	mulss	xmm0, DWORD PTR [edx+4]
	movss	xmm1, DWORD PTR tv235[ebp]
	addss	xmm1, xmm0
	push	2
	push	2
	mov	ecx, DWORD PTR _A$[ebp]
	movss	DWORD PTR tv237[ebp], xmm1
	call	??AMatrix3D@@QBEABVVector4@@H@Z		; Matrix3D::operator[]
	mov	ecx, eax
	call	??AVector4@@QBEABMH@Z			; Vector4::operator[]
	mov	ecx, DWORD PTR _v$[ebp]
	movss	xmm0, DWORD PTR [eax]
	mulss	xmm0, DWORD PTR [ecx+8]
	movss	xmm1, DWORD PTR tv237[ebp]
	addss	xmm1, xmm0
	mov	edx, DWORD PTR _out$[ebp]
	movss	DWORD PTR [edx+8], xmm1

; 546  : 	}

	pop	edi
	pop	esi
	pop	ebx
	mov	esp, ebp
	pop	ebp
	ret	0
?Rotate_Vector@Matrix3D@@SAXABV1@ABVVector3@@PAV2@@Z ENDP ; Matrix3D::Rotate_Vector
_TEXT	ENDS
; Function compile flags: /Odtp /ZI
; File x:\github\renegade\dragonade_rxd\scripts\matrix3d.h
;	COMDAT ?Get_Z_Vector@Matrix3D@@QBEXPAVVector3@@@Z
_TEXT	SEGMENT
_this$ = -4						; size = 4
_set_z$ = 8						; size = 4
?Get_Z_Vector@Matrix3D@@QBEXPAVVector3@@@Z PROC		; Matrix3D::Get_Z_Vector, COMDAT
; _this$ = ecx

; 524  : 	TT_INLINE void Get_Z_Vector(Vector3 * set_z) const { set_z->Set(Row[0][2], Row[1][2], Row[2][2]); }

	push	ebp
	mov	ebp, esp
	sub	esp, 68					; 00000044H
	push	ebx
	push	esi
	push	edi
	mov	DWORD PTR _this$[ebp], ecx
	push	2
	mov	ecx, 16					; 00000010H
	shl	ecx, 1
	add	ecx, DWORD PTR _this$[ebp]
	call	??AVector4@@QBEABMH@Z			; Vector4::operator[]
	push	ecx
	movss	xmm0, DWORD PTR [eax]
	movss	DWORD PTR [esp], xmm0
	push	2
	mov	ecx, 16					; 00000010H
	shl	ecx, 0
	add	ecx, DWORD PTR _this$[ebp]
	call	??AVector4@@QBEABMH@Z			; Vector4::operator[]
	push	ecx
	movss	xmm0, DWORD PTR [eax]
	movss	DWORD PTR [esp], xmm0
	push	2
	mov	ecx, 16					; 00000010H
	imul	ecx, 0
	add	ecx, DWORD PTR _this$[ebp]
	call	??AVector4@@QBEABMH@Z			; Vector4::operator[]
	push	ecx
	movss	xmm0, DWORD PTR [eax]
	movss	DWORD PTR [esp], xmm0
	mov	ecx, DWORD PTR _set_z$[ebp]
	call	?Set@Vector3@@QAEXMMM@Z			; Vector3::Set
	pop	edi
	pop	esi
	pop	ebx
	mov	esp, ebp
	pop	ebp
	ret	4
?Get_Z_Vector@Matrix3D@@QBEXPAVVector3@@@Z ENDP		; Matrix3D::Get_Z_Vector
_TEXT	ENDS
; Function compile flags: /Odtp /ZI
; File x:\github\renegade\dragonade_rxd\scripts\matrix3d.h
;	COMDAT ?Get_Y_Vector@Matrix3D@@QBEXPAVVector3@@@Z
_TEXT	SEGMENT
_this$ = -4						; size = 4
_set_y$ = 8						; size = 4
?Get_Y_Vector@Matrix3D@@QBEXPAVVector3@@@Z PROC		; Matrix3D::Get_Y_Vector, COMDAT
; _this$ = ecx

; 523  : 	TT_INLINE void Get_Y_Vector(Vector3 * set_y) const { set_y->Set(Row[0][1], Row[1][1], Row[2][1]); }

	push	ebp
	mov	ebp, esp
	sub	esp, 68					; 00000044H
	push	ebx
	push	esi
	push	edi
	mov	DWORD PTR _this$[ebp], ecx
	push	1
	mov	ecx, 16					; 00000010H
	shl	ecx, 1
	add	ecx, DWORD PTR _this$[ebp]
	call	??AVector4@@QBEABMH@Z			; Vector4::operator[]
	push	ecx
	movss	xmm0, DWORD PTR [eax]
	movss	DWORD PTR [esp], xmm0
	push	1
	mov	ecx, 16					; 00000010H
	shl	ecx, 0
	add	ecx, DWORD PTR _this$[ebp]
	call	??AVector4@@QBEABMH@Z			; Vector4::operator[]
	push	ecx
	movss	xmm0, DWORD PTR [eax]
	movss	DWORD PTR [esp], xmm0
	push	1
	mov	ecx, 16					; 00000010H
	imul	ecx, 0
	add	ecx, DWORD PTR _this$[ebp]
	call	??AVector4@@QBEABMH@Z			; Vector4::operator[]
	push	ecx
	movss	xmm0, DWORD PTR [eax]
	movss	DWORD PTR [esp], xmm0
	mov	ecx, DWORD PTR _set_y$[ebp]
	call	?Set@Vector3@@QAEXMMM@Z			; Vector3::Set
	pop	edi
	pop	esi
	pop	ebx
	mov	esp, ebp
	pop	ebp
	ret	4
?Get_Y_Vector@Matrix3D@@QBEXPAVVector3@@@Z ENDP		; Matrix3D::Get_Y_Vector
_TEXT	ENDS
; Function compile flags: /Odtp /ZI
; File x:\github\renegade\dragonade_rxd\scripts\matrix3d.h
;	COMDAT ?Get_X_Vector@Matrix3D@@QBEXPAVVector3@@@Z
_TEXT	SEGMENT
_this$ = -4						; size = 4
_set_x$ = 8						; size = 4
?Get_X_Vector@Matrix3D@@QBEXPAVVector3@@@Z PROC		; Matrix3D::Get_X_Vector, COMDAT
; _this$ = ecx

; 522  : 	TT_INLINE void Get_X_Vector(Vector3 * set_x) const { set_x->Set(Row[0][0], Row[1][0], Row[2][0]); }

	push	ebp
	mov	ebp, esp
	sub	esp, 68					; 00000044H
	push	ebx
	push	esi
	push	edi
	mov	DWORD PTR _this$[ebp], ecx
	push	0
	mov	ecx, 16					; 00000010H
	shl	ecx, 1
	add	ecx, DWORD PTR _this$[ebp]
	call	??AVector4@@QBEABMH@Z			; Vector4::operator[]
	push	ecx
	movss	xmm0, DWORD PTR [eax]
	movss	DWORD PTR [esp], xmm0
	push	0
	mov	ecx, 16					; 00000010H
	shl	ecx, 0
	add	ecx, DWORD PTR _this$[ebp]
	call	??AVector4@@QBEABMH@Z			; Vector4::operator[]
	push	ecx
	movss	xmm0, DWORD PTR [eax]
	movss	DWORD PTR [esp], xmm0
	push	0
	mov	ecx, 16					; 00000010H
	imul	ecx, 0
	add	ecx, DWORD PTR _this$[ebp]
	call	??AVector4@@QBEABMH@Z			; Vector4::operator[]
	push	ecx
	movss	xmm0, DWORD PTR [eax]
	movss	DWORD PTR [esp], xmm0
	mov	ecx, DWORD PTR _set_x$[ebp]
	call	?Set@Vector3@@QAEXMMM@Z			; Vector3::Set
	pop	edi
	pop	esi
	pop	ebx
	mov	esp, ebp
	pop	ebp
	ret	4
?Get_X_Vector@Matrix3D@@QBEXPAVVector3@@@Z ENDP		; Matrix3D::Get_X_Vector
_TEXT	ENDS
; Function compile flags: /Odtp /ZI
; File x:\github\renegade\dragonade_rxd\scripts\matrix3d.h
;	COMDAT ?Get_Z_Vector@Matrix3D@@QBE?AVVector3@@XZ
_TEXT	SEGMENT
_this$ = -4						; size = 4
___$ReturnUdt$ = 8					; size = 4
?Get_Z_Vector@Matrix3D@@QBE?AVVector3@@XZ PROC		; Matrix3D::Get_Z_Vector, COMDAT
; _this$ = ecx

; 521  : 	TT_INLINE Vector3 Get_Z_Vector() const { return Vector3(Row[0][2], Row[1][2], Row[2][2]); }

	push	ebp
	mov	ebp, esp
	sub	esp, 68					; 00000044H
	push	ebx
	push	esi
	push	edi
	mov	DWORD PTR _this$[ebp], ecx
	push	2
	mov	ecx, 16					; 00000010H
	shl	ecx, 1
	add	ecx, DWORD PTR _this$[ebp]
	call	??AVector4@@QBEABMH@Z			; Vector4::operator[]
	push	ecx
	movss	xmm0, DWORD PTR [eax]
	movss	DWORD PTR [esp], xmm0
	push	2
	mov	ecx, 16					; 00000010H
	shl	ecx, 0
	add	ecx, DWORD PTR _this$[ebp]
	call	??AVector4@@QBEABMH@Z			; Vector4::operator[]
	push	ecx
	movss	xmm0, DWORD PTR [eax]
	movss	DWORD PTR [esp], xmm0
	push	2
	mov	ecx, 16					; 00000010H
	imul	ecx, 0
	add	ecx, DWORD PTR _this$[ebp]
	call	??AVector4@@QBEABMH@Z			; Vector4::operator[]
	push	ecx
	movss	xmm0, DWORD PTR [eax]
	movss	DWORD PTR [esp], xmm0
	mov	ecx, DWORD PTR ___$ReturnUdt$[ebp]
	call	??0Vector3@@QAE@MMM@Z			; Vector3::Vector3
	mov	eax, DWORD PTR ___$ReturnUdt$[ebp]
	pop	edi
	pop	esi
	pop	ebx
	mov	esp, ebp
	pop	ebp
	ret	4
?Get_Z_Vector@Matrix3D@@QBE?AVVector3@@XZ ENDP		; Matrix3D::Get_Z_Vector
_TEXT	ENDS
; Function compile flags: /Odtp /ZI
; File x:\github\renegade\dragonade_rxd\scripts\matrix3d.h
;	COMDAT ?Get_Y_Vector@Matrix3D@@QBE?AVVector3@@XZ
_TEXT	SEGMENT
_this$ = -4						; size = 4
___$ReturnUdt$ = 8					; size = 4
?Get_Y_Vector@Matrix3D@@QBE?AVVector3@@XZ PROC		; Matrix3D::Get_Y_Vector, COMDAT
; _this$ = ecx

; 520  : 	TT_INLINE Vector3 Get_Y_Vector() const { return Vector3(Row[0][1], Row[1][1], Row[2][1]); }

	push	ebp
	mov	ebp, esp
	sub	esp, 68					; 00000044H
	push	ebx
	push	esi
	push	edi
	mov	DWORD PTR _this$[ebp], ecx
	push	1
	mov	ecx, 16					; 00000010H
	shl	ecx, 1
	add	ecx, DWORD PTR _this$[ebp]
	call	??AVector4@@QBEABMH@Z			; Vector4::operator[]
	push	ecx
	movss	xmm0, DWORD PTR [eax]
	movss	DWORD PTR [esp], xmm0
	push	1
	mov	ecx, 16					; 00000010H
	shl	ecx, 0
	add	ecx, DWORD PTR _this$[ebp]
	call	??AVector4@@QBEABMH@Z			; Vector4::operator[]
	push	ecx
	movss	xmm0, DWORD PTR [eax]
	movss	DWORD PTR [esp], xmm0
	push	1
	mov	ecx, 16					; 00000010H
	imul	ecx, 0
	add	ecx, DWORD PTR _this$[ebp]
	call	??AVector4@@QBEABMH@Z			; Vector4::operator[]
	push	ecx
	movss	xmm0, DWORD PTR [eax]
	movss	DWORD PTR [esp], xmm0
	mov	ecx, DWORD PTR ___$ReturnUdt$[ebp]
	call	??0Vector3@@QAE@MMM@Z			; Vector3::Vector3
	mov	eax, DWORD PTR ___$ReturnUdt$[ebp]
	pop	edi
	pop	esi
	pop	ebx
	mov	esp, ebp
	pop	ebp
	ret	4
?Get_Y_Vector@Matrix3D@@QBE?AVVector3@@XZ ENDP		; Matrix3D::Get_Y_Vector
_TEXT	ENDS
; Function compile flags: /Odtp /ZI
; File x:\github\renegade\dragonade_rxd\scripts\matrix3d.h
;	COMDAT ?Get_X_Vector@Matrix3D@@QBE?AVVector3@@XZ
_TEXT	SEGMENT
_this$ = -4						; size = 4
___$ReturnUdt$ = 8					; size = 4
?Get_X_Vector@Matrix3D@@QBE?AVVector3@@XZ PROC		; Matrix3D::Get_X_Vector, COMDAT
; _this$ = ecx

; 519  : 	TT_INLINE Vector3 Get_X_Vector() const { return Vector3(Row[0][0], Row[1][0], Row[2][0]); }

	push	ebp
	mov	ebp, esp
	sub	esp, 68					; 00000044H
	push	ebx
	push	esi
	push	edi
	mov	DWORD PTR _this$[ebp], ecx
	push	0
	mov	ecx, 16					; 00000010H
	shl	ecx, 1
	add	ecx, DWORD PTR _this$[ebp]
	call	??AVector4@@QBEABMH@Z			; Vector4::operator[]
	push	ecx
	movss	xmm0, DWORD PTR [eax]
	movss	DWORD PTR [esp], xmm0
	push	0
	mov	ecx, 16					; 00000010H
	shl	ecx, 0
	add	ecx, DWORD PTR _this$[ebp]
	call	??AVector4@@QBEABMH@Z			; Vector4::operator[]
	push	ecx
	movss	xmm0, DWORD PTR [eax]
	movss	DWORD PTR [esp], xmm0
	push	0
	mov	ecx, 16					; 00000010H
	imul	ecx, 0
	add	ecx, DWORD PTR _this$[ebp]
	call	??AVector4@@QBEABMH@Z			; Vector4::operator[]
	push	ecx
	movss	xmm0, DWORD PTR [eax]
	movss	DWORD PTR [esp], xmm0
	mov	ecx, DWORD PTR ___$ReturnUdt$[ebp]
	call	??0Vector3@@QAE@MMM@Z			; Vector3::Vector3
	mov	eax, DWORD PTR ___$ReturnUdt$[ebp]
	pop	edi
	pop	esi
	pop	ebx
	mov	esp, ebp
	pop	ebp
	ret	4
?Get_X_Vector@Matrix3D@@QBE?AVVector3@@XZ ENDP		; Matrix3D::Get_X_Vector
_TEXT	ENDS
; Function compile flags: /Odtp /ZI
; File x:\github\renegade\dragonade_rxd\scripts\matrix3d.h
;	COMDAT ?Transform_Vector@Matrix3D@@SAXABV1@ABVVector3@@PAV2@@Z
_TEXT	SEGMENT
tv270 = -92						; size = 4
tv264 = -92						; size = 4
tv258 = -92						; size = 4
tv268 = -88						; size = 4
tv262 = -88						; size = 4
tv256 = -88						; size = 4
tv266 = -84						; size = 4
tv260 = -84						; size = 4
tv254 = -84						; size = 4
_v$ = -16						; size = 4
_tmp$ = -12						; size = 12
_A$ = 8							; size = 4
_in$ = 12						; size = 4
_out$ = 16						; size = 4
?Transform_Vector@Matrix3D@@SAXABV1@ABVVector3@@PAV2@@Z PROC ; Matrix3D::Transform_Vector, COMDAT

; 503  :    {

	push	ebp
	mov	ebp, esp
	sub	esp, 92					; 0000005cH
	push	ebx
	push	esi
	push	edi

; 504  : 		Vector3 tmp;

	lea	ecx, DWORD PTR _tmp$[ebp]
	call	??0Vector3@@QAE@XZ			; Vector3::Vector3

; 505  : 		Vector3 * v;
; 506  : 		if (out == &in)

	mov	eax, DWORD PTR _out$[ebp]
	cmp	eax, DWORD PTR _in$[ebp]
	jne	SHORT $LN2@Transform_

; 507  : 		{
; 508  : 			tmp = in;

	mov	eax, DWORD PTR _in$[ebp]
	push	eax
	lea	ecx, DWORD PTR _tmp$[ebp]
	call	??4Vector3@@QAEAAV0@ABV0@@Z		; Vector3::operator=

; 509  : 			v = &tmp;

	lea	eax, DWORD PTR _tmp$[ebp]
	mov	DWORD PTR _v$[ebp], eax

; 510  : 		}
; 511  : 		else

	jmp	SHORT $LN1@Transform_
$LN2@Transform_:

; 512  : 		{
; 513  : 			v = (Vector3 *)&in;

	mov	eax, DWORD PTR _in$[ebp]
	mov	DWORD PTR _v$[ebp], eax
$LN1@Transform_:

; 514  : 		}
; 515  : 		out->X = (A.Row[0][0] * v->X + A.Row[0][1] * v->Y + A.Row[0][2] * v->Z + A.Row[0][3]);

	push	0
	mov	ecx, 16					; 00000010H
	imul	ecx, 0
	add	ecx, DWORD PTR _A$[ebp]
	call	??AVector4@@QBEABMH@Z			; Vector4::operator[]
	mov	ecx, DWORD PTR _v$[ebp]
	movss	xmm0, DWORD PTR [eax]
	mulss	xmm0, DWORD PTR [ecx]
	push	1
	mov	ecx, 16					; 00000010H
	imul	ecx, 0
	add	ecx, DWORD PTR _A$[ebp]
	movss	DWORD PTR tv254[ebp], xmm0
	call	??AVector4@@QBEABMH@Z			; Vector4::operator[]
	mov	edx, DWORD PTR _v$[ebp]
	movss	xmm0, DWORD PTR [eax]
	mulss	xmm0, DWORD PTR [edx+4]
	movss	xmm1, DWORD PTR tv254[ebp]
	addss	xmm1, xmm0
	push	2
	mov	ecx, 16					; 00000010H
	imul	ecx, 0
	add	ecx, DWORD PTR _A$[ebp]
	movss	DWORD PTR tv256[ebp], xmm1
	call	??AVector4@@QBEABMH@Z			; Vector4::operator[]
	mov	ecx, DWORD PTR _v$[ebp]
	movss	xmm0, DWORD PTR [eax]
	mulss	xmm0, DWORD PTR [ecx+8]
	movss	xmm1, DWORD PTR tv256[ebp]
	addss	xmm1, xmm0
	push	3
	mov	ecx, 16					; 00000010H
	imul	ecx, 0
	add	ecx, DWORD PTR _A$[ebp]
	movss	DWORD PTR tv258[ebp], xmm1
	call	??AVector4@@QBEABMH@Z			; Vector4::operator[]
	movss	xmm0, DWORD PTR tv258[ebp]
	addss	xmm0, DWORD PTR [eax]
	mov	edx, DWORD PTR _out$[ebp]
	movss	DWORD PTR [edx], xmm0

; 516  : 		out->Y = (A.Row[1][0] * v->X + A.Row[1][1] * v->Y + A.Row[1][2] * v->Z + A.Row[1][3]);

	push	0
	mov	ecx, 16					; 00000010H
	shl	ecx, 0
	add	ecx, DWORD PTR _A$[ebp]
	call	??AVector4@@QBEABMH@Z			; Vector4::operator[]
	mov	ecx, DWORD PTR _v$[ebp]
	movss	xmm0, DWORD PTR [eax]
	mulss	xmm0, DWORD PTR [ecx]
	push	1
	mov	ecx, 16					; 00000010H
	shl	ecx, 0
	add	ecx, DWORD PTR _A$[ebp]
	movss	DWORD PTR tv260[ebp], xmm0
	call	??AVector4@@QBEABMH@Z			; Vector4::operator[]
	mov	edx, DWORD PTR _v$[ebp]
	movss	xmm0, DWORD PTR [eax]
	mulss	xmm0, DWORD PTR [edx+4]
	movss	xmm1, DWORD PTR tv260[ebp]
	addss	xmm1, xmm0
	push	2
	mov	ecx, 16					; 00000010H
	shl	ecx, 0
	add	ecx, DWORD PTR _A$[ebp]
	movss	DWORD PTR tv262[ebp], xmm1
	call	??AVector4@@QBEABMH@Z			; Vector4::operator[]
	mov	ecx, DWORD PTR _v$[ebp]
	movss	xmm0, DWORD PTR [eax]
	mulss	xmm0, DWORD PTR [ecx+8]
	movss	xmm1, DWORD PTR tv262[ebp]
	addss	xmm1, xmm0
	push	3
	mov	ecx, 16					; 00000010H
	shl	ecx, 0
	add	ecx, DWORD PTR _A$[ebp]
	movss	DWORD PTR tv264[ebp], xmm1
	call	??AVector4@@QBEABMH@Z			; Vector4::operator[]
	movss	xmm0, DWORD PTR tv264[ebp]
	addss	xmm0, DWORD PTR [eax]
	mov	edx, DWORD PTR _out$[ebp]
	movss	DWORD PTR [edx+4], xmm0

; 517  : 		out->Z = (A.Row[2][0] * v->X + A.Row[2][1] * v->Y + A.Row[2][2] * v->Z + A.Row[2][3]);

	push	0
	mov	ecx, 16					; 00000010H
	shl	ecx, 1
	add	ecx, DWORD PTR _A$[ebp]
	call	??AVector4@@QBEABMH@Z			; Vector4::operator[]
	mov	ecx, DWORD PTR _v$[ebp]
	movss	xmm0, DWORD PTR [eax]
	mulss	xmm0, DWORD PTR [ecx]
	push	1
	mov	ecx, 16					; 00000010H
	shl	ecx, 1
	add	ecx, DWORD PTR _A$[ebp]
	movss	DWORD PTR tv266[ebp], xmm0
	call	??AVector4@@QBEABMH@Z			; Vector4::operator[]
	mov	edx, DWORD PTR _v$[ebp]
	movss	xmm0, DWORD PTR [eax]
	mulss	xmm0, DWORD PTR [edx+4]
	movss	xmm1, DWORD PTR tv266[ebp]
	addss	xmm1, xmm0
	push	2
	mov	ecx, 16					; 00000010H
	shl	ecx, 1
	add	ecx, DWORD PTR _A$[ebp]
	movss	DWORD PTR tv268[ebp], xmm1
	call	??AVector4@@QBEABMH@Z			; Vector4::operator[]
	mov	ecx, DWORD PTR _v$[ebp]
	movss	xmm0, DWORD PTR [eax]
	mulss	xmm0, DWORD PTR [ecx+8]
	movss	xmm1, DWORD PTR tv268[ebp]
	addss	xmm1, xmm0
	push	3
	mov	ecx, 16					; 00000010H
	shl	ecx, 1
	add	ecx, DWORD PTR _A$[ebp]
	movss	DWORD PTR tv270[ebp], xmm1
	call	??AVector4@@QBEABMH@Z			; Vector4::operator[]
	movss	xmm0, DWORD PTR tv270[ebp]
	addss	xmm0, DWORD PTR [eax]
	mov	edx, DWORD PTR _out$[ebp]
	movss	DWORD PTR [edx+8], xmm0

; 518  :    }

	pop	edi
	pop	esi
	pop	ebx
	mov	esp, ebp
	pop	ebp
	ret	0
?Transform_Vector@Matrix3D@@SAXABV1@ABVVector3@@PAV2@@Z ENDP ; Matrix3D::Transform_Vector
_TEXT	ENDS
; Function compile flags: /Odtp /ZI
; File x:\github\renegade\dragonade_rxd\scripts\matrix3d.h
;	COMDAT ?In_Place_Pre_Rotate_Z@Matrix3D@@QAEXMM@Z
_TEXT	SEGMENT
tv245 = -80						; size = 4
tv243 = -80						; size = 4
tv241 = -80						; size = 4
tv239 = -80						; size = 4
tv237 = -80						; size = 4
tv235 = -80						; size = 4
_tmp2$ = -12						; size = 4
_tmp1$ = -8						; size = 4
_this$ = -4						; size = 4
_s$ = 8							; size = 4
_c$ = 12						; size = 4
?In_Place_Pre_Rotate_Z@Matrix3D@@QAEXMM@Z PROC		; Matrix3D::In_Place_Pre_Rotate_Z, COMDAT
; _this$ = ecx

; 486  : 	{

	push	ebp
	mov	ebp, esp
	sub	esp, 80					; 00000050H
	push	ebx
	push	esi
	push	edi
	mov	DWORD PTR _this$[ebp], ecx

; 487  : 		float tmp1,tmp2;
; 488  : 		tmp1 = Row[0][0]; tmp2 = Row[1][0];

	push	0
	mov	ecx, 16					; 00000010H
	imul	ecx, 0
	add	ecx, DWORD PTR _this$[ebp]
	call	??AVector4@@QAEAAMH@Z			; Vector4::operator[]
	movss	xmm0, DWORD PTR [eax]
	movss	DWORD PTR _tmp1$[ebp], xmm0
	push	0
	mov	ecx, 16					; 00000010H
	shl	ecx, 0
	add	ecx, DWORD PTR _this$[ebp]
	call	??AVector4@@QAEAAMH@Z			; Vector4::operator[]
	movss	xmm0, DWORD PTR [eax]
	movss	DWORD PTR _tmp2$[ebp], xmm0

; 489  : 		Row[0][0] = (float)(c*tmp1 - s*tmp2);

	movss	xmm0, DWORD PTR _c$[ebp]
	mulss	xmm0, DWORD PTR _tmp1$[ebp]
	movss	xmm1, DWORD PTR _s$[ebp]
	mulss	xmm1, DWORD PTR _tmp2$[ebp]
	subss	xmm0, xmm1
	push	0
	mov	ecx, 16					; 00000010H
	imul	ecx, 0
	add	ecx, DWORD PTR _this$[ebp]
	movss	DWORD PTR tv235[ebp], xmm0
	call	??AVector4@@QAEAAMH@Z			; Vector4::operator[]
	movss	xmm0, DWORD PTR tv235[ebp]
	movss	DWORD PTR [eax], xmm0

; 490  : 		Row[1][0] = (float)(s*tmp1 + c*tmp2);

	movss	xmm0, DWORD PTR _s$[ebp]
	mulss	xmm0, DWORD PTR _tmp1$[ebp]
	movss	xmm1, DWORD PTR _c$[ebp]
	mulss	xmm1, DWORD PTR _tmp2$[ebp]
	addss	xmm0, xmm1
	push	0
	mov	ecx, 16					; 00000010H
	shl	ecx, 0
	add	ecx, DWORD PTR _this$[ebp]
	movss	DWORD PTR tv237[ebp], xmm0
	call	??AVector4@@QAEAAMH@Z			; Vector4::operator[]
	movss	xmm0, DWORD PTR tv237[ebp]
	movss	DWORD PTR [eax], xmm0

; 491  : 		tmp1 = Row[0][1]; tmp2 = Row[1][1];

	push	1
	mov	ecx, 16					; 00000010H
	imul	ecx, 0
	add	ecx, DWORD PTR _this$[ebp]
	call	??AVector4@@QAEAAMH@Z			; Vector4::operator[]
	movss	xmm0, DWORD PTR [eax]
	movss	DWORD PTR _tmp1$[ebp], xmm0
	push	1
	mov	ecx, 16					; 00000010H
	shl	ecx, 0
	add	ecx, DWORD PTR _this$[ebp]
	call	??AVector4@@QAEAAMH@Z			; Vector4::operator[]
	movss	xmm0, DWORD PTR [eax]
	movss	DWORD PTR _tmp2$[ebp], xmm0

; 492  : 		Row[0][1] = (float)(c*tmp1 - s*tmp2);

	movss	xmm0, DWORD PTR _c$[ebp]
	mulss	xmm0, DWORD PTR _tmp1$[ebp]
	movss	xmm1, DWORD PTR _s$[ebp]
	mulss	xmm1, DWORD PTR _tmp2$[ebp]
	subss	xmm0, xmm1
	push	1
	mov	ecx, 16					; 00000010H
	imul	ecx, 0
	add	ecx, DWORD PTR _this$[ebp]
	movss	DWORD PTR tv239[ebp], xmm0
	call	??AVector4@@QAEAAMH@Z			; Vector4::operator[]
	movss	xmm0, DWORD PTR tv239[ebp]
	movss	DWORD PTR [eax], xmm0

; 493  : 		Row[1][1] = (float)(s*tmp1 + c*tmp2);

	movss	xmm0, DWORD PTR _s$[ebp]
	mulss	xmm0, DWORD PTR _tmp1$[ebp]
	movss	xmm1, DWORD PTR _c$[ebp]
	mulss	xmm1, DWORD PTR _tmp2$[ebp]
	addss	xmm0, xmm1
	push	1
	mov	ecx, 16					; 00000010H
	shl	ecx, 0
	add	ecx, DWORD PTR _this$[ebp]
	movss	DWORD PTR tv241[ebp], xmm0
	call	??AVector4@@QAEAAMH@Z			; Vector4::operator[]
	movss	xmm0, DWORD PTR tv241[ebp]
	movss	DWORD PTR [eax], xmm0

; 494  : 		tmp1 = Row[0][2]; tmp2 = Row[1][2];

	push	2
	mov	ecx, 16					; 00000010H
	imul	ecx, 0
	add	ecx, DWORD PTR _this$[ebp]
	call	??AVector4@@QAEAAMH@Z			; Vector4::operator[]
	movss	xmm0, DWORD PTR [eax]
	movss	DWORD PTR _tmp1$[ebp], xmm0
	push	2
	mov	ecx, 16					; 00000010H
	shl	ecx, 0
	add	ecx, DWORD PTR _this$[ebp]
	call	??AVector4@@QAEAAMH@Z			; Vector4::operator[]
	movss	xmm0, DWORD PTR [eax]
	movss	DWORD PTR _tmp2$[ebp], xmm0

; 495  : 		Row[0][2] = (float)(c*tmp1 - s*tmp2);

	movss	xmm0, DWORD PTR _c$[ebp]
	mulss	xmm0, DWORD PTR _tmp1$[ebp]
	movss	xmm1, DWORD PTR _s$[ebp]
	mulss	xmm1, DWORD PTR _tmp2$[ebp]
	subss	xmm0, xmm1
	push	2
	mov	ecx, 16					; 00000010H
	imul	ecx, 0
	add	ecx, DWORD PTR _this$[ebp]
	movss	DWORD PTR tv243[ebp], xmm0
	call	??AVector4@@QAEAAMH@Z			; Vector4::operator[]
	movss	xmm0, DWORD PTR tv243[ebp]
	movss	DWORD PTR [eax], xmm0

; 496  : 		Row[1][2] = (float)(s*tmp1 + c*tmp2);

	movss	xmm0, DWORD PTR _s$[ebp]
	mulss	xmm0, DWORD PTR _tmp1$[ebp]
	movss	xmm1, DWORD PTR _c$[ebp]
	mulss	xmm1, DWORD PTR _tmp2$[ebp]
	addss	xmm0, xmm1
	push	2
	mov	ecx, 16					; 00000010H
	shl	ecx, 0
	add	ecx, DWORD PTR _this$[ebp]
	movss	DWORD PTR tv245[ebp], xmm0
	call	??AVector4@@QAEAAMH@Z			; Vector4::operator[]
	movss	xmm0, DWORD PTR tv245[ebp]
	movss	DWORD PTR [eax], xmm0

; 497  : 	}

	pop	edi
	pop	esi
	pop	ebx
	mov	esp, ebp
	pop	ebp
	ret	8
?In_Place_Pre_Rotate_Z@Matrix3D@@QAEXMM@Z ENDP		; Matrix3D::In_Place_Pre_Rotate_Z
_TEXT	ENDS
; Function compile flags: /Odtp /ZI
; File x:\github\renegade\dragonade_rxd\scripts\matrix3d.h
;	COMDAT ?In_Place_Pre_Rotate_Y@Matrix3D@@QAEXMM@Z
_TEXT	SEGMENT
tv248 = -80						; size = 4
tv246 = -80						; size = 4
tv244 = -80						; size = 4
tv242 = -80						; size = 4
tv240 = -80						; size = 4
tv238 = -80						; size = 4
_tmp2$ = -12						; size = 4
_tmp1$ = -8						; size = 4
_this$ = -4						; size = 4
_s$ = 8							; size = 4
_c$ = 12						; size = 4
?In_Place_Pre_Rotate_Y@Matrix3D@@QAEXMM@Z PROC		; Matrix3D::In_Place_Pre_Rotate_Y, COMDAT
; _this$ = ecx

; 473  : 	{

	push	ebp
	mov	ebp, esp
	sub	esp, 80					; 00000050H
	push	ebx
	push	esi
	push	edi
	mov	DWORD PTR _this$[ebp], ecx

; 474  : 		float tmp1,tmp2;
; 475  : 		tmp1 = Row[0][0]; tmp2 = Row[2][0];

	push	0
	mov	ecx, 16					; 00000010H
	imul	ecx, 0
	add	ecx, DWORD PTR _this$[ebp]
	call	??AVector4@@QAEAAMH@Z			; Vector4::operator[]
	movss	xmm0, DWORD PTR [eax]
	movss	DWORD PTR _tmp1$[ebp], xmm0
	push	0
	mov	ecx, 16					; 00000010H
	shl	ecx, 1
	add	ecx, DWORD PTR _this$[ebp]
	call	??AVector4@@QAEAAMH@Z			; Vector4::operator[]
	movss	xmm0, DWORD PTR [eax]
	movss	DWORD PTR _tmp2$[ebp], xmm0

; 476  : 		Row[0][0] = (float)( c*tmp1 + s*tmp2);

	movss	xmm0, DWORD PTR _c$[ebp]
	mulss	xmm0, DWORD PTR _tmp1$[ebp]
	movss	xmm1, DWORD PTR _s$[ebp]
	mulss	xmm1, DWORD PTR _tmp2$[ebp]
	addss	xmm0, xmm1
	push	0
	mov	ecx, 16					; 00000010H
	imul	ecx, 0
	add	ecx, DWORD PTR _this$[ebp]
	movss	DWORD PTR tv238[ebp], xmm0
	call	??AVector4@@QAEAAMH@Z			; Vector4::operator[]
	movss	xmm0, DWORD PTR tv238[ebp]
	movss	DWORD PTR [eax], xmm0

; 477  : 		Row[2][0] = (float)(-s*tmp1 + c*tmp2);

	movss	xmm0, DWORD PTR _s$[ebp]
	xorps	xmm0, DWORD PTR __xmm@80000000800000008000000080000000
	mulss	xmm0, DWORD PTR _tmp1$[ebp]
	movss	xmm1, DWORD PTR _c$[ebp]
	mulss	xmm1, DWORD PTR _tmp2$[ebp]
	addss	xmm0, xmm1
	push	0
	mov	ecx, 16					; 00000010H
	shl	ecx, 1
	add	ecx, DWORD PTR _this$[ebp]
	movss	DWORD PTR tv240[ebp], xmm0
	call	??AVector4@@QAEAAMH@Z			; Vector4::operator[]
	movss	xmm0, DWORD PTR tv240[ebp]
	movss	DWORD PTR [eax], xmm0

; 478  : 		tmp1 = Row[0][1]; tmp2 = Row[2][1];

	push	1
	mov	ecx, 16					; 00000010H
	imul	ecx, 0
	add	ecx, DWORD PTR _this$[ebp]
	call	??AVector4@@QAEAAMH@Z			; Vector4::operator[]
	movss	xmm0, DWORD PTR [eax]
	movss	DWORD PTR _tmp1$[ebp], xmm0
	push	1
	mov	ecx, 16					; 00000010H
	shl	ecx, 1
	add	ecx, DWORD PTR _this$[ebp]
	call	??AVector4@@QAEAAMH@Z			; Vector4::operator[]
	movss	xmm0, DWORD PTR [eax]
	movss	DWORD PTR _tmp2$[ebp], xmm0

; 479  : 		Row[0][1] = (float)( c*tmp1 + s*tmp2);

	movss	xmm0, DWORD PTR _c$[ebp]
	mulss	xmm0, DWORD PTR _tmp1$[ebp]
	movss	xmm1, DWORD PTR _s$[ebp]
	mulss	xmm1, DWORD PTR _tmp2$[ebp]
	addss	xmm0, xmm1
	push	1
	mov	ecx, 16					; 00000010H
	imul	ecx, 0
	add	ecx, DWORD PTR _this$[ebp]
	movss	DWORD PTR tv242[ebp], xmm0
	call	??AVector4@@QAEAAMH@Z			; Vector4::operator[]
	movss	xmm0, DWORD PTR tv242[ebp]
	movss	DWORD PTR [eax], xmm0

; 480  : 		Row[2][1] = (float)(-s*tmp1 + c*tmp2);

	movss	xmm0, DWORD PTR _s$[ebp]
	xorps	xmm0, DWORD PTR __xmm@80000000800000008000000080000000
	mulss	xmm0, DWORD PTR _tmp1$[ebp]
	movss	xmm1, DWORD PTR _c$[ebp]
	mulss	xmm1, DWORD PTR _tmp2$[ebp]
	addss	xmm0, xmm1
	push	1
	mov	ecx, 16					; 00000010H
	shl	ecx, 1
	add	ecx, DWORD PTR _this$[ebp]
	movss	DWORD PTR tv244[ebp], xmm0
	call	??AVector4@@QAEAAMH@Z			; Vector4::operator[]
	movss	xmm0, DWORD PTR tv244[ebp]
	movss	DWORD PTR [eax], xmm0

; 481  : 		tmp1 = Row[0][2]; tmp2 = Row[2][2];

	push	2
	mov	ecx, 16					; 00000010H
	imul	ecx, 0
	add	ecx, DWORD PTR _this$[ebp]
	call	??AVector4@@QAEAAMH@Z			; Vector4::operator[]
	movss	xmm0, DWORD PTR [eax]
	movss	DWORD PTR _tmp1$[ebp], xmm0
	push	2
	mov	ecx, 16					; 00000010H
	shl	ecx, 1
	add	ecx, DWORD PTR _this$[ebp]
	call	??AVector4@@QAEAAMH@Z			; Vector4::operator[]
	movss	xmm0, DWORD PTR [eax]
	movss	DWORD PTR _tmp2$[ebp], xmm0

; 482  : 		Row[0][2] = (float)( c*tmp1 + s*tmp2);

	movss	xmm0, DWORD PTR _c$[ebp]
	mulss	xmm0, DWORD PTR _tmp1$[ebp]
	movss	xmm1, DWORD PTR _s$[ebp]
	mulss	xmm1, DWORD PTR _tmp2$[ebp]
	addss	xmm0, xmm1
	push	2
	mov	ecx, 16					; 00000010H
	imul	ecx, 0
	add	ecx, DWORD PTR _this$[ebp]
	movss	DWORD PTR tv246[ebp], xmm0
	call	??AVector4@@QAEAAMH@Z			; Vector4::operator[]
	movss	xmm0, DWORD PTR tv246[ebp]
	movss	DWORD PTR [eax], xmm0

; 483  : 		Row[2][2] = (float)(-s*tmp1 + c*tmp2);

	movss	xmm0, DWORD PTR _s$[ebp]
	xorps	xmm0, DWORD PTR __xmm@80000000800000008000000080000000
	mulss	xmm0, DWORD PTR _tmp1$[ebp]
	movss	xmm1, DWORD PTR _c$[ebp]
	mulss	xmm1, DWORD PTR _tmp2$[ebp]
	addss	xmm0, xmm1
	push	2
	mov	ecx, 16					; 00000010H
	shl	ecx, 1
	add	ecx, DWORD PTR _this$[ebp]
	movss	DWORD PTR tv248[ebp], xmm0
	call	??AVector4@@QAEAAMH@Z			; Vector4::operator[]
	movss	xmm0, DWORD PTR tv248[ebp]
	movss	DWORD PTR [eax], xmm0

; 484  : 	}

	pop	edi
	pop	esi
	pop	ebx
	mov	esp, ebp
	pop	ebp
	ret	8
?In_Place_Pre_Rotate_Y@Matrix3D@@QAEXMM@Z ENDP		; Matrix3D::In_Place_Pre_Rotate_Y
_TEXT	ENDS
; Function compile flags: /Odtp /ZI
; File x:\github\renegade\dragonade_rxd\scripts\matrix3d.h
;	COMDAT ?In_Place_Pre_Rotate_X@Matrix3D@@QAEXMM@Z
_TEXT	SEGMENT
tv245 = -80						; size = 4
tv243 = -80						; size = 4
tv241 = -80						; size = 4
tv239 = -80						; size = 4
tv237 = -80						; size = 4
tv235 = -80						; size = 4
_tmp2$ = -12						; size = 4
_tmp1$ = -8						; size = 4
_this$ = -4						; size = 4
_s$ = 8							; size = 4
_c$ = 12						; size = 4
?In_Place_Pre_Rotate_X@Matrix3D@@QAEXMM@Z PROC		; Matrix3D::In_Place_Pre_Rotate_X, COMDAT
; _this$ = ecx

; 460  : 	{

	push	ebp
	mov	ebp, esp
	sub	esp, 80					; 00000050H
	push	ebx
	push	esi
	push	edi
	mov	DWORD PTR _this$[ebp], ecx

; 461  : 		float tmp1,tmp2;
; 462  : 		tmp1 = Row[1][0]; tmp2 = Row[2][0];

	push	0
	mov	ecx, 16					; 00000010H
	shl	ecx, 0
	add	ecx, DWORD PTR _this$[ebp]
	call	??AVector4@@QAEAAMH@Z			; Vector4::operator[]
	movss	xmm0, DWORD PTR [eax]
	movss	DWORD PTR _tmp1$[ebp], xmm0
	push	0
	mov	ecx, 16					; 00000010H
	shl	ecx, 1
	add	ecx, DWORD PTR _this$[ebp]
	call	??AVector4@@QAEAAMH@Z			; Vector4::operator[]
	movss	xmm0, DWORD PTR [eax]
	movss	DWORD PTR _tmp2$[ebp], xmm0

; 463  : 		Row[1][0] = (float)(c*tmp1 - s*tmp2);

	movss	xmm0, DWORD PTR _c$[ebp]
	mulss	xmm0, DWORD PTR _tmp1$[ebp]
	movss	xmm1, DWORD PTR _s$[ebp]
	mulss	xmm1, DWORD PTR _tmp2$[ebp]
	subss	xmm0, xmm1
	push	0
	mov	ecx, 16					; 00000010H
	shl	ecx, 0
	add	ecx, DWORD PTR _this$[ebp]
	movss	DWORD PTR tv235[ebp], xmm0
	call	??AVector4@@QAEAAMH@Z			; Vector4::operator[]
	movss	xmm0, DWORD PTR tv235[ebp]
	movss	DWORD PTR [eax], xmm0

; 464  : 		Row[2][0] = (float)(s*tmp1 + c*tmp2);

	movss	xmm0, DWORD PTR _s$[ebp]
	mulss	xmm0, DWORD PTR _tmp1$[ebp]
	movss	xmm1, DWORD PTR _c$[ebp]
	mulss	xmm1, DWORD PTR _tmp2$[ebp]
	addss	xmm0, xmm1
	push	0
	mov	ecx, 16					; 00000010H
	shl	ecx, 1
	add	ecx, DWORD PTR _this$[ebp]
	movss	DWORD PTR tv237[ebp], xmm0
	call	??AVector4@@QAEAAMH@Z			; Vector4::operator[]
	movss	xmm0, DWORD PTR tv237[ebp]
	movss	DWORD PTR [eax], xmm0

; 465  : 		tmp1 = Row[1][1]; tmp2 = Row[2][1];

	push	1
	mov	ecx, 16					; 00000010H
	shl	ecx, 0
	add	ecx, DWORD PTR _this$[ebp]
	call	??AVector4@@QAEAAMH@Z			; Vector4::operator[]
	movss	xmm0, DWORD PTR [eax]
	movss	DWORD PTR _tmp1$[ebp], xmm0
	push	1
	mov	ecx, 16					; 00000010H
	shl	ecx, 1
	add	ecx, DWORD PTR _this$[ebp]
	call	??AVector4@@QAEAAMH@Z			; Vector4::operator[]
	movss	xmm0, DWORD PTR [eax]
	movss	DWORD PTR _tmp2$[ebp], xmm0

; 466  : 		Row[1][1] = (float)(c*tmp1 - s*tmp2);

	movss	xmm0, DWORD PTR _c$[ebp]
	mulss	xmm0, DWORD PTR _tmp1$[ebp]
	movss	xmm1, DWORD PTR _s$[ebp]
	mulss	xmm1, DWORD PTR _tmp2$[ebp]
	subss	xmm0, xmm1
	push	1
	mov	ecx, 16					; 00000010H
	shl	ecx, 0
	add	ecx, DWORD PTR _this$[ebp]
	movss	DWORD PTR tv239[ebp], xmm0
	call	??AVector4@@QAEAAMH@Z			; Vector4::operator[]
	movss	xmm0, DWORD PTR tv239[ebp]
	movss	DWORD PTR [eax], xmm0

; 467  : 		Row[2][1] = (float)(s*tmp1 + c*tmp2);

	movss	xmm0, DWORD PTR _s$[ebp]
	mulss	xmm0, DWORD PTR _tmp1$[ebp]
	movss	xmm1, DWORD PTR _c$[ebp]
	mulss	xmm1, DWORD PTR _tmp2$[ebp]
	addss	xmm0, xmm1
	push	1
	mov	ecx, 16					; 00000010H
	shl	ecx, 1
	add	ecx, DWORD PTR _this$[ebp]
	movss	DWORD PTR tv241[ebp], xmm0
	call	??AVector4@@QAEAAMH@Z			; Vector4::operator[]
	movss	xmm0, DWORD PTR tv241[ebp]
	movss	DWORD PTR [eax], xmm0

; 468  : 		tmp1 = Row[1][2]; tmp2 = Row[2][2];

	push	2
	mov	ecx, 16					; 00000010H
	shl	ecx, 0
	add	ecx, DWORD PTR _this$[ebp]
	call	??AVector4@@QAEAAMH@Z			; Vector4::operator[]
	movss	xmm0, DWORD PTR [eax]
	movss	DWORD PTR _tmp1$[ebp], xmm0
	push	2
	mov	ecx, 16					; 00000010H
	shl	ecx, 1
	add	ecx, DWORD PTR _this$[ebp]
	call	??AVector4@@QAEAAMH@Z			; Vector4::operator[]
	movss	xmm0, DWORD PTR [eax]
	movss	DWORD PTR _tmp2$[ebp], xmm0

; 469  : 		Row[1][2] = (float)(c*tmp1 - s*tmp2);

	movss	xmm0, DWORD PTR _c$[ebp]
	mulss	xmm0, DWORD PTR _tmp1$[ebp]
	movss	xmm1, DWORD PTR _s$[ebp]
	mulss	xmm1, DWORD PTR _tmp2$[ebp]
	subss	xmm0, xmm1
	push	2
	mov	ecx, 16					; 00000010H
	shl	ecx, 0
	add	ecx, DWORD PTR _this$[ebp]
	movss	DWORD PTR tv243[ebp], xmm0
	call	??AVector4@@QAEAAMH@Z			; Vector4::operator[]
	movss	xmm0, DWORD PTR tv243[ebp]
	movss	DWORD PTR [eax], xmm0

; 470  : 		Row[2][2] = (float)(s*tmp1 + c*tmp2);

	movss	xmm0, DWORD PTR _s$[ebp]
	mulss	xmm0, DWORD PTR _tmp1$[ebp]
	movss	xmm1, DWORD PTR _c$[ebp]
	mulss	xmm1, DWORD PTR _tmp2$[ebp]
	addss	xmm0, xmm1
	push	2
	mov	ecx, 16					; 00000010H
	shl	ecx, 1
	add	ecx, DWORD PTR _this$[ebp]
	movss	DWORD PTR tv245[ebp], xmm0
	call	??AVector4@@QAEAAMH@Z			; Vector4::operator[]
	movss	xmm0, DWORD PTR tv245[ebp]
	movss	DWORD PTR [eax], xmm0

; 471  : 	}

	pop	edi
	pop	esi
	pop	ebx
	mov	esp, ebp
	pop	ebp
	ret	8
?In_Place_Pre_Rotate_X@Matrix3D@@QAEXMM@Z ENDP		; Matrix3D::In_Place_Pre_Rotate_X
_TEXT	ENDS
; Function compile flags: /Odtp /ZI
; File x:\github\renegade\dragonade_rxd\scripts\matrix3d.h
;	COMDAT ?In_Place_Pre_Rotate_Z@Matrix3D@@QAEXM@Z
_TEXT	SEGMENT
tv257 = -88						; size = 4
tv255 = -88						; size = 4
tv253 = -88						; size = 4
tv251 = -88						; size = 4
tv249 = -88						; size = 4
tv247 = -88						; size = 4
_s$ = -20						; size = 4
_c$ = -16						; size = 4
_tmp2$ = -12						; size = 4
_tmp1$ = -8						; size = 4
_this$ = -4						; size = 4
_theta$ = 8						; size = 4
?In_Place_Pre_Rotate_Z@Matrix3D@@QAEXM@Z PROC		; Matrix3D::In_Place_Pre_Rotate_Z, COMDAT
; _this$ = ecx

; 444  : 	{

	push	ebp
	mov	ebp, esp
	sub	esp, 88					; 00000058H
	push	ebx
	push	esi
	push	edi
	mov	DWORD PTR _this$[ebp], ecx

; 445  : 		float tmp1,tmp2;
; 446  : 		float c,s;
; 447  : 		c = cosf(theta);

	push	ecx
	movss	xmm0, DWORD PTR _theta$[ebp]
	movss	DWORD PTR [esp], xmm0
	call	_cosf
	add	esp, 4
	fstp	DWORD PTR _c$[ebp]

; 448  : 		s = sinf(theta);

	push	ecx
	movss	xmm0, DWORD PTR _theta$[ebp]
	movss	DWORD PTR [esp], xmm0
	call	_sinf
	add	esp, 4
	fstp	DWORD PTR _s$[ebp]

; 449  : 		tmp1 = Row[0][0]; tmp2 = Row[1][0];

	push	0
	mov	ecx, 16					; 00000010H
	imul	ecx, 0
	add	ecx, DWORD PTR _this$[ebp]
	call	??AVector4@@QAEAAMH@Z			; Vector4::operator[]
	movss	xmm0, DWORD PTR [eax]
	movss	DWORD PTR _tmp1$[ebp], xmm0
	push	0
	mov	ecx, 16					; 00000010H
	shl	ecx, 0
	add	ecx, DWORD PTR _this$[ebp]
	call	??AVector4@@QAEAAMH@Z			; Vector4::operator[]
	movss	xmm0, DWORD PTR [eax]
	movss	DWORD PTR _tmp2$[ebp], xmm0

; 450  : 		Row[0][0] = (float)(c*tmp1 - s*tmp2);

	movss	xmm0, DWORD PTR _c$[ebp]
	mulss	xmm0, DWORD PTR _tmp1$[ebp]
	movss	xmm1, DWORD PTR _s$[ebp]
	mulss	xmm1, DWORD PTR _tmp2$[ebp]
	subss	xmm0, xmm1
	push	0
	mov	ecx, 16					; 00000010H
	imul	ecx, 0
	add	ecx, DWORD PTR _this$[ebp]
	movss	DWORD PTR tv247[ebp], xmm0
	call	??AVector4@@QAEAAMH@Z			; Vector4::operator[]
	movss	xmm0, DWORD PTR tv247[ebp]
	movss	DWORD PTR [eax], xmm0

; 451  : 		Row[1][0] = (float)(s*tmp1 + c*tmp2);

	movss	xmm0, DWORD PTR _s$[ebp]
	mulss	xmm0, DWORD PTR _tmp1$[ebp]
	movss	xmm1, DWORD PTR _c$[ebp]
	mulss	xmm1, DWORD PTR _tmp2$[ebp]
	addss	xmm0, xmm1
	push	0
	mov	ecx, 16					; 00000010H
	shl	ecx, 0
	add	ecx, DWORD PTR _this$[ebp]
	movss	DWORD PTR tv249[ebp], xmm0
	call	??AVector4@@QAEAAMH@Z			; Vector4::operator[]
	movss	xmm0, DWORD PTR tv249[ebp]
	movss	DWORD PTR [eax], xmm0

; 452  : 		tmp1 = Row[0][1]; tmp2 = Row[1][1];

	push	1
	mov	ecx, 16					; 00000010H
	imul	ecx, 0
	add	ecx, DWORD PTR _this$[ebp]
	call	??AVector4@@QAEAAMH@Z			; Vector4::operator[]
	movss	xmm0, DWORD PTR [eax]
	movss	DWORD PTR _tmp1$[ebp], xmm0
	push	1
	mov	ecx, 16					; 00000010H
	shl	ecx, 0
	add	ecx, DWORD PTR _this$[ebp]
	call	??AVector4@@QAEAAMH@Z			; Vector4::operator[]
	movss	xmm0, DWORD PTR [eax]
	movss	DWORD PTR _tmp2$[ebp], xmm0

; 453  : 		Row[0][1] = (float)(c*tmp1 - s*tmp2);

	movss	xmm0, DWORD PTR _c$[ebp]
	mulss	xmm0, DWORD PTR _tmp1$[ebp]
	movss	xmm1, DWORD PTR _s$[ebp]
	mulss	xmm1, DWORD PTR _tmp2$[ebp]
	subss	xmm0, xmm1
	push	1
	mov	ecx, 16					; 00000010H
	imul	ecx, 0
	add	ecx, DWORD PTR _this$[ebp]
	movss	DWORD PTR tv251[ebp], xmm0
	call	??AVector4@@QAEAAMH@Z			; Vector4::operator[]
	movss	xmm0, DWORD PTR tv251[ebp]
	movss	DWORD PTR [eax], xmm0

; 454  : 		Row[1][1] = (float)(s*tmp1 + c*tmp2);

	movss	xmm0, DWORD PTR _s$[ebp]
	mulss	xmm0, DWORD PTR _tmp1$[ebp]
	movss	xmm1, DWORD PTR _c$[ebp]
	mulss	xmm1, DWORD PTR _tmp2$[ebp]
	addss	xmm0, xmm1
	push	1
	mov	ecx, 16					; 00000010H
	shl	ecx, 0
	add	ecx, DWORD PTR _this$[ebp]
	movss	DWORD PTR tv253[ebp], xmm0
	call	??AVector4@@QAEAAMH@Z			; Vector4::operator[]
	movss	xmm0, DWORD PTR tv253[ebp]
	movss	DWORD PTR [eax], xmm0

; 455  : 		tmp1 = Row[0][2]; tmp2 = Row[1][2];

	push	2
	mov	ecx, 16					; 00000010H
	imul	ecx, 0
	add	ecx, DWORD PTR _this$[ebp]
	call	??AVector4@@QAEAAMH@Z			; Vector4::operator[]
	movss	xmm0, DWORD PTR [eax]
	movss	DWORD PTR _tmp1$[ebp], xmm0
	push	2
	mov	ecx, 16					; 00000010H
	shl	ecx, 0
	add	ecx, DWORD PTR _this$[ebp]
	call	??AVector4@@QAEAAMH@Z			; Vector4::operator[]
	movss	xmm0, DWORD PTR [eax]
	movss	DWORD PTR _tmp2$[ebp], xmm0

; 456  : 		Row[0][2] = (float)(c*tmp1 - s*tmp2);

	movss	xmm0, DWORD PTR _c$[ebp]
	mulss	xmm0, DWORD PTR _tmp1$[ebp]
	movss	xmm1, DWORD PTR _s$[ebp]
	mulss	xmm1, DWORD PTR _tmp2$[ebp]
	subss	xmm0, xmm1
	push	2
	mov	ecx, 16					; 00000010H
	imul	ecx, 0
	add	ecx, DWORD PTR _this$[ebp]
	movss	DWORD PTR tv255[ebp], xmm0
	call	??AVector4@@QAEAAMH@Z			; Vector4::operator[]
	movss	xmm0, DWORD PTR tv255[ebp]
	movss	DWORD PTR [eax], xmm0

; 457  : 		Row[1][2] = (float)(s*tmp1 + c*tmp2);

	movss	xmm0, DWORD PTR _s$[ebp]
	mulss	xmm0, DWORD PTR _tmp1$[ebp]
	movss	xmm1, DWORD PTR _c$[ebp]
	mulss	xmm1, DWORD PTR _tmp2$[ebp]
	addss	xmm0, xmm1
	push	2
	mov	ecx, 16					; 00000010H
	shl	ecx, 0
	add	ecx, DWORD PTR _this$[ebp]
	movss	DWORD PTR tv257[ebp], xmm0
	call	??AVector4@@QAEAAMH@Z			; Vector4::operator[]
	movss	xmm0, DWORD PTR tv257[ebp]
	movss	DWORD PTR [eax], xmm0

; 458  : 	}

	pop	edi
	pop	esi
	pop	ebx
	mov	esp, ebp
	pop	ebp
	ret	4
?In_Place_Pre_Rotate_Z@Matrix3D@@QAEXM@Z ENDP		; Matrix3D::In_Place_Pre_Rotate_Z
_TEXT	ENDS
; Function compile flags: /Odtp /ZI
; File x:\github\renegade\dragonade_rxd\scripts\matrix3d.h
;	COMDAT ?In_Place_Pre_Rotate_Y@Matrix3D@@QAEXM@Z
_TEXT	SEGMENT
tv260 = -88						; size = 4
tv258 = -88						; size = 4
tv256 = -88						; size = 4
tv254 = -88						; size = 4
tv252 = -88						; size = 4
tv250 = -88						; size = 4
_s$ = -20						; size = 4
_c$ = -16						; size = 4
_tmp2$ = -12						; size = 4
_tmp1$ = -8						; size = 4
_this$ = -4						; size = 4
_theta$ = 8						; size = 4
?In_Place_Pre_Rotate_Y@Matrix3D@@QAEXM@Z PROC		; Matrix3D::In_Place_Pre_Rotate_Y, COMDAT
; _this$ = ecx

; 428  : 	{

	push	ebp
	mov	ebp, esp
	sub	esp, 88					; 00000058H
	push	ebx
	push	esi
	push	edi
	mov	DWORD PTR _this$[ebp], ecx

; 429  : 		float tmp1,tmp2;
; 430  : 		float c,s;
; 431  : 		c = cosf(theta);

	push	ecx
	movss	xmm0, DWORD PTR _theta$[ebp]
	movss	DWORD PTR [esp], xmm0
	call	_cosf
	add	esp, 4
	fstp	DWORD PTR _c$[ebp]

; 432  : 		s = sinf(theta);

	push	ecx
	movss	xmm0, DWORD PTR _theta$[ebp]
	movss	DWORD PTR [esp], xmm0
	call	_sinf
	add	esp, 4
	fstp	DWORD PTR _s$[ebp]

; 433  : 		tmp1 = Row[0][0]; tmp2 = Row[2][0];

	push	0
	mov	ecx, 16					; 00000010H
	imul	ecx, 0
	add	ecx, DWORD PTR _this$[ebp]
	call	??AVector4@@QAEAAMH@Z			; Vector4::operator[]
	movss	xmm0, DWORD PTR [eax]
	movss	DWORD PTR _tmp1$[ebp], xmm0
	push	0
	mov	ecx, 16					; 00000010H
	shl	ecx, 1
	add	ecx, DWORD PTR _this$[ebp]
	call	??AVector4@@QAEAAMH@Z			; Vector4::operator[]
	movss	xmm0, DWORD PTR [eax]
	movss	DWORD PTR _tmp2$[ebp], xmm0

; 434  : 		Row[0][0] = (float)( c*tmp1 + s*tmp2);

	movss	xmm0, DWORD PTR _c$[ebp]
	mulss	xmm0, DWORD PTR _tmp1$[ebp]
	movss	xmm1, DWORD PTR _s$[ebp]
	mulss	xmm1, DWORD PTR _tmp2$[ebp]
	addss	xmm0, xmm1
	push	0
	mov	ecx, 16					; 00000010H
	imul	ecx, 0
	add	ecx, DWORD PTR _this$[ebp]
	movss	DWORD PTR tv250[ebp], xmm0
	call	??AVector4@@QAEAAMH@Z			; Vector4::operator[]
	movss	xmm0, DWORD PTR tv250[ebp]
	movss	DWORD PTR [eax], xmm0

; 435  : 		Row[2][0] = (float)(-s*tmp1 + c*tmp2);

	movss	xmm0, DWORD PTR _s$[ebp]
	xorps	xmm0, DWORD PTR __xmm@80000000800000008000000080000000
	mulss	xmm0, DWORD PTR _tmp1$[ebp]
	movss	xmm1, DWORD PTR _c$[ebp]
	mulss	xmm1, DWORD PTR _tmp2$[ebp]
	addss	xmm0, xmm1
	push	0
	mov	ecx, 16					; 00000010H
	shl	ecx, 1
	add	ecx, DWORD PTR _this$[ebp]
	movss	DWORD PTR tv252[ebp], xmm0
	call	??AVector4@@QAEAAMH@Z			; Vector4::operator[]
	movss	xmm0, DWORD PTR tv252[ebp]
	movss	DWORD PTR [eax], xmm0

; 436  : 		tmp1 = Row[0][1]; tmp2 = Row[2][1];

	push	1
	mov	ecx, 16					; 00000010H
	imul	ecx, 0
	add	ecx, DWORD PTR _this$[ebp]
	call	??AVector4@@QAEAAMH@Z			; Vector4::operator[]
	movss	xmm0, DWORD PTR [eax]
	movss	DWORD PTR _tmp1$[ebp], xmm0
	push	1
	mov	ecx, 16					; 00000010H
	shl	ecx, 1
	add	ecx, DWORD PTR _this$[ebp]
	call	??AVector4@@QAEAAMH@Z			; Vector4::operator[]
	movss	xmm0, DWORD PTR [eax]
	movss	DWORD PTR _tmp2$[ebp], xmm0

; 437  : 		Row[0][1] = (float)( c*tmp1 + s*tmp2);

	movss	xmm0, DWORD PTR _c$[ebp]
	mulss	xmm0, DWORD PTR _tmp1$[ebp]
	movss	xmm1, DWORD PTR _s$[ebp]
	mulss	xmm1, DWORD PTR _tmp2$[ebp]
	addss	xmm0, xmm1
	push	1
	mov	ecx, 16					; 00000010H
	imul	ecx, 0
	add	ecx, DWORD PTR _this$[ebp]
	movss	DWORD PTR tv254[ebp], xmm0
	call	??AVector4@@QAEAAMH@Z			; Vector4::operator[]
	movss	xmm0, DWORD PTR tv254[ebp]
	movss	DWORD PTR [eax], xmm0

; 438  : 		Row[2][1] = (float)(-s*tmp1 + c*tmp2);

	movss	xmm0, DWORD PTR _s$[ebp]
	xorps	xmm0, DWORD PTR __xmm@80000000800000008000000080000000
	mulss	xmm0, DWORD PTR _tmp1$[ebp]
	movss	xmm1, DWORD PTR _c$[ebp]
	mulss	xmm1, DWORD PTR _tmp2$[ebp]
	addss	xmm0, xmm1
	push	1
	mov	ecx, 16					; 00000010H
	shl	ecx, 1
	add	ecx, DWORD PTR _this$[ebp]
	movss	DWORD PTR tv256[ebp], xmm0
	call	??AVector4@@QAEAAMH@Z			; Vector4::operator[]
	movss	xmm0, DWORD PTR tv256[ebp]
	movss	DWORD PTR [eax], xmm0

; 439  : 		tmp1 = Row[0][2]; tmp2 = Row[2][2];

	push	2
	mov	ecx, 16					; 00000010H
	imul	ecx, 0
	add	ecx, DWORD PTR _this$[ebp]
	call	??AVector4@@QAEAAMH@Z			; Vector4::operator[]
	movss	xmm0, DWORD PTR [eax]
	movss	DWORD PTR _tmp1$[ebp], xmm0
	push	2
	mov	ecx, 16					; 00000010H
	shl	ecx, 1
	add	ecx, DWORD PTR _this$[ebp]
	call	??AVector4@@QAEAAMH@Z			; Vector4::operator[]
	movss	xmm0, DWORD PTR [eax]
	movss	DWORD PTR _tmp2$[ebp], xmm0

; 440  : 		Row[0][2] = (float)( c*tmp1 + s*tmp2);

	movss	xmm0, DWORD PTR _c$[ebp]
	mulss	xmm0, DWORD PTR _tmp1$[ebp]
	movss	xmm1, DWORD PTR _s$[ebp]
	mulss	xmm1, DWORD PTR _tmp2$[ebp]
	addss	xmm0, xmm1
	push	2
	mov	ecx, 16					; 00000010H
	imul	ecx, 0
	add	ecx, DWORD PTR _this$[ebp]
	movss	DWORD PTR tv258[ebp], xmm0
	call	??AVector4@@QAEAAMH@Z			; Vector4::operator[]
	movss	xmm0, DWORD PTR tv258[ebp]
	movss	DWORD PTR [eax], xmm0

; 441  : 		Row[2][2] = (float)(-s*tmp1 + c*tmp2);

	movss	xmm0, DWORD PTR _s$[ebp]
	xorps	xmm0, DWORD PTR __xmm@80000000800000008000000080000000
	mulss	xmm0, DWORD PTR _tmp1$[ebp]
	movss	xmm1, DWORD PTR _c$[ebp]
	mulss	xmm1, DWORD PTR _tmp2$[ebp]
	addss	xmm0, xmm1
	push	2
	mov	ecx, 16					; 00000010H
	shl	ecx, 1
	add	ecx, DWORD PTR _this$[ebp]
	movss	DWORD PTR tv260[ebp], xmm0
	call	??AVector4@@QAEAAMH@Z			; Vector4::operator[]
	movss	xmm0, DWORD PTR tv260[ebp]
	movss	DWORD PTR [eax], xmm0

; 442  : 	}

	pop	edi
	pop	esi
	pop	ebx
	mov	esp, ebp
	pop	ebp
	ret	4
?In_Place_Pre_Rotate_Y@Matrix3D@@QAEXM@Z ENDP		; Matrix3D::In_Place_Pre_Rotate_Y
_TEXT	ENDS
; Function compile flags: /Odtp /ZI
; File x:\github\renegade\dragonade_rxd\scripts\matrix3d.h
;	COMDAT ?In_Place_Pre_Rotate_X@Matrix3D@@QAEXM@Z
_TEXT	SEGMENT
tv257 = -88						; size = 4
tv255 = -88						; size = 4
tv253 = -88						; size = 4
tv251 = -88						; size = 4
tv249 = -88						; size = 4
tv247 = -88						; size = 4
_s$ = -20						; size = 4
_c$ = -16						; size = 4
_tmp2$ = -12						; size = 4
_tmp1$ = -8						; size = 4
_this$ = -4						; size = 4
_theta$ = 8						; size = 4
?In_Place_Pre_Rotate_X@Matrix3D@@QAEXM@Z PROC		; Matrix3D::In_Place_Pre_Rotate_X, COMDAT
; _this$ = ecx

; 412  : 	{

	push	ebp
	mov	ebp, esp
	sub	esp, 88					; 00000058H
	push	ebx
	push	esi
	push	edi
	mov	DWORD PTR _this$[ebp], ecx

; 413  : 		float tmp1,tmp2;
; 414  : 		float c,s;
; 415  : 		c = cosf(theta);

	push	ecx
	movss	xmm0, DWORD PTR _theta$[ebp]
	movss	DWORD PTR [esp], xmm0
	call	_cosf
	add	esp, 4
	fstp	DWORD PTR _c$[ebp]

; 416  : 		s = sinf(theta);

	push	ecx
	movss	xmm0, DWORD PTR _theta$[ebp]
	movss	DWORD PTR [esp], xmm0
	call	_sinf
	add	esp, 4
	fstp	DWORD PTR _s$[ebp]

; 417  : 		tmp1 = Row[1][0]; tmp2 = Row[2][0];

	push	0
	mov	ecx, 16					; 00000010H
	shl	ecx, 0
	add	ecx, DWORD PTR _this$[ebp]
	call	??AVector4@@QAEAAMH@Z			; Vector4::operator[]
	movss	xmm0, DWORD PTR [eax]
	movss	DWORD PTR _tmp1$[ebp], xmm0
	push	0
	mov	ecx, 16					; 00000010H
	shl	ecx, 1
	add	ecx, DWORD PTR _this$[ebp]
	call	??AVector4@@QAEAAMH@Z			; Vector4::operator[]
	movss	xmm0, DWORD PTR [eax]
	movss	DWORD PTR _tmp2$[ebp], xmm0

; 418  : 		Row[1][0] = (float)(c*tmp1 - s*tmp2);

	movss	xmm0, DWORD PTR _c$[ebp]
	mulss	xmm0, DWORD PTR _tmp1$[ebp]
	movss	xmm1, DWORD PTR _s$[ebp]
	mulss	xmm1, DWORD PTR _tmp2$[ebp]
	subss	xmm0, xmm1
	push	0
	mov	ecx, 16					; 00000010H
	shl	ecx, 0
	add	ecx, DWORD PTR _this$[ebp]
	movss	DWORD PTR tv247[ebp], xmm0
	call	??AVector4@@QAEAAMH@Z			; Vector4::operator[]
	movss	xmm0, DWORD PTR tv247[ebp]
	movss	DWORD PTR [eax], xmm0

; 419  : 		Row[2][0] = (float)(s*tmp1 + c*tmp2);

	movss	xmm0, DWORD PTR _s$[ebp]
	mulss	xmm0, DWORD PTR _tmp1$[ebp]
	movss	xmm1, DWORD PTR _c$[ebp]
	mulss	xmm1, DWORD PTR _tmp2$[ebp]
	addss	xmm0, xmm1
	push	0
	mov	ecx, 16					; 00000010H
	shl	ecx, 1
	add	ecx, DWORD PTR _this$[ebp]
	movss	DWORD PTR tv249[ebp], xmm0
	call	??AVector4@@QAEAAMH@Z			; Vector4::operator[]
	movss	xmm0, DWORD PTR tv249[ebp]
	movss	DWORD PTR [eax], xmm0

; 420  : 		tmp1 = Row[1][1]; tmp2 = Row[2][1];

	push	1
	mov	ecx, 16					; 00000010H
	shl	ecx, 0
	add	ecx, DWORD PTR _this$[ebp]
	call	??AVector4@@QAEAAMH@Z			; Vector4::operator[]
	movss	xmm0, DWORD PTR [eax]
	movss	DWORD PTR _tmp1$[ebp], xmm0
	push	1
	mov	ecx, 16					; 00000010H
	shl	ecx, 1
	add	ecx, DWORD PTR _this$[ebp]
	call	??AVector4@@QAEAAMH@Z			; Vector4::operator[]
	movss	xmm0, DWORD PTR [eax]
	movss	DWORD PTR _tmp2$[ebp], xmm0

; 421  : 		Row[1][1] = (float)(c*tmp1 - s*tmp2);

	movss	xmm0, DWORD PTR _c$[ebp]
	mulss	xmm0, DWORD PTR _tmp1$[ebp]
	movss	xmm1, DWORD PTR _s$[ebp]
	mulss	xmm1, DWORD PTR _tmp2$[ebp]
	subss	xmm0, xmm1
	push	1
	mov	ecx, 16					; 00000010H
	shl	ecx, 0
	add	ecx, DWORD PTR _this$[ebp]
	movss	DWORD PTR tv251[ebp], xmm0
	call	??AVector4@@QAEAAMH@Z			; Vector4::operator[]
	movss	xmm0, DWORD PTR tv251[ebp]
	movss	DWORD PTR [eax], xmm0

; 422  : 		Row[2][1] = (float)(s*tmp1 + c*tmp2);

	movss	xmm0, DWORD PTR _s$[ebp]
	mulss	xmm0, DWORD PTR _tmp1$[ebp]
	movss	xmm1, DWORD PTR _c$[ebp]
	mulss	xmm1, DWORD PTR _tmp2$[ebp]
	addss	xmm0, xmm1
	push	1
	mov	ecx, 16					; 00000010H
	shl	ecx, 1
	add	ecx, DWORD PTR _this$[ebp]
	movss	DWORD PTR tv253[ebp], xmm0
	call	??AVector4@@QAEAAMH@Z			; Vector4::operator[]
	movss	xmm0, DWORD PTR tv253[ebp]
	movss	DWORD PTR [eax], xmm0

; 423  : 		tmp1 = Row[1][2]; tmp2 = Row[2][2];

	push	2
	mov	ecx, 16					; 00000010H
	shl	ecx, 0
	add	ecx, DWORD PTR _this$[ebp]
	call	??AVector4@@QAEAAMH@Z			; Vector4::operator[]
	movss	xmm0, DWORD PTR [eax]
	movss	DWORD PTR _tmp1$[ebp], xmm0
	push	2
	mov	ecx, 16					; 00000010H
	shl	ecx, 1
	add	ecx, DWORD PTR _this$[ebp]
	call	??AVector4@@QAEAAMH@Z			; Vector4::operator[]
	movss	xmm0, DWORD PTR [eax]
	movss	DWORD PTR _tmp2$[ebp], xmm0

; 424  : 		Row[1][2] = (float)(c*tmp1 - s*tmp2);

	movss	xmm0, DWORD PTR _c$[ebp]
	mulss	xmm0, DWORD PTR _tmp1$[ebp]
	movss	xmm1, DWORD PTR _s$[ebp]
	mulss	xmm1, DWORD PTR _tmp2$[ebp]
	subss	xmm0, xmm1
	push	2
	mov	ecx, 16					; 00000010H
	shl	ecx, 0
	add	ecx, DWORD PTR _this$[ebp]
	movss	DWORD PTR tv255[ebp], xmm0
	call	??AVector4@@QAEAAMH@Z			; Vector4::operator[]
	movss	xmm0, DWORD PTR tv255[ebp]
	movss	DWORD PTR [eax], xmm0

; 425  : 		Row[2][2] = (float)(s*tmp1 + c*tmp2);

	movss	xmm0, DWORD PTR _s$[ebp]
	mulss	xmm0, DWORD PTR _tmp1$[ebp]
	movss	xmm1, DWORD PTR _c$[ebp]
	mulss	xmm1, DWORD PTR _tmp2$[ebp]
	addss	xmm0, xmm1
	push	2
	mov	ecx, 16					; 00000010H
	shl	ecx, 1
	add	ecx, DWORD PTR _this$[ebp]
	movss	DWORD PTR tv257[ebp], xmm0
	call	??AVector4@@QAEAAMH@Z			; Vector4::operator[]
	movss	xmm0, DWORD PTR tv257[ebp]
	movss	DWORD PTR [eax], xmm0

; 426  : 	}

	pop	edi
	pop	esi
	pop	ebx
	mov	esp, ebp
	pop	ebp
	ret	4
?In_Place_Pre_Rotate_X@Matrix3D@@QAEXM@Z ENDP		; Matrix3D::In_Place_Pre_Rotate_X
_TEXT	ENDS
; Function compile flags: /Odtp /ZI
; File x:\github\renegade\dragonade_rxd\scripts\matrix3d.h
;	COMDAT ?Pre_Rotate_Z@Matrix3D@@QAEXMM@Z
_TEXT	SEGMENT
tv295 = -80						; size = 4
tv293 = -80						; size = 4
tv291 = -80						; size = 4
tv289 = -80						; size = 4
tv287 = -80						; size = 4
tv285 = -80						; size = 4
tv283 = -80						; size = 4
tv281 = -80						; size = 4
_tmp2$ = -12						; size = 4
_tmp1$ = -8						; size = 4
_this$ = -4						; size = 4
_s$ = 8							; size = 4
_c$ = 12						; size = 4
?Pre_Rotate_Z@Matrix3D@@QAEXMM@Z PROC			; Matrix3D::Pre_Rotate_Z, COMDAT
; _this$ = ecx

; 396  : 	{

	push	ebp
	mov	ebp, esp
	sub	esp, 80					; 00000050H
	push	ebx
	push	esi
	push	edi
	mov	DWORD PTR _this$[ebp], ecx

; 397  : 		float tmp1,tmp2;
; 398  : 		tmp1 = Row[0][0]; tmp2 = Row[1][0];

	push	0
	mov	ecx, 16					; 00000010H
	imul	ecx, 0
	add	ecx, DWORD PTR _this$[ebp]
	call	??AVector4@@QAEAAMH@Z			; Vector4::operator[]
	movss	xmm0, DWORD PTR [eax]
	movss	DWORD PTR _tmp1$[ebp], xmm0
	push	0
	mov	ecx, 16					; 00000010H
	shl	ecx, 0
	add	ecx, DWORD PTR _this$[ebp]
	call	??AVector4@@QAEAAMH@Z			; Vector4::operator[]
	movss	xmm0, DWORD PTR [eax]
	movss	DWORD PTR _tmp2$[ebp], xmm0

; 399  : 		Row[0][0] = (float)(c*tmp1 - s*tmp2);

	movss	xmm0, DWORD PTR _c$[ebp]
	mulss	xmm0, DWORD PTR _tmp1$[ebp]
	movss	xmm1, DWORD PTR _s$[ebp]
	mulss	xmm1, DWORD PTR _tmp2$[ebp]
	subss	xmm0, xmm1
	push	0
	mov	ecx, 16					; 00000010H
	imul	ecx, 0
	add	ecx, DWORD PTR _this$[ebp]
	movss	DWORD PTR tv281[ebp], xmm0
	call	??AVector4@@QAEAAMH@Z			; Vector4::operator[]
	movss	xmm0, DWORD PTR tv281[ebp]
	movss	DWORD PTR [eax], xmm0

; 400  : 		Row[1][0] = (float)(s*tmp1 + c*tmp2);

	movss	xmm0, DWORD PTR _s$[ebp]
	mulss	xmm0, DWORD PTR _tmp1$[ebp]
	movss	xmm1, DWORD PTR _c$[ebp]
	mulss	xmm1, DWORD PTR _tmp2$[ebp]
	addss	xmm0, xmm1
	push	0
	mov	ecx, 16					; 00000010H
	shl	ecx, 0
	add	ecx, DWORD PTR _this$[ebp]
	movss	DWORD PTR tv283[ebp], xmm0
	call	??AVector4@@QAEAAMH@Z			; Vector4::operator[]
	movss	xmm0, DWORD PTR tv283[ebp]
	movss	DWORD PTR [eax], xmm0

; 401  : 		tmp1 = Row[0][1]; tmp2 = Row[1][1];

	push	1
	mov	ecx, 16					; 00000010H
	imul	ecx, 0
	add	ecx, DWORD PTR _this$[ebp]
	call	??AVector4@@QAEAAMH@Z			; Vector4::operator[]
	movss	xmm0, DWORD PTR [eax]
	movss	DWORD PTR _tmp1$[ebp], xmm0
	push	1
	mov	ecx, 16					; 00000010H
	shl	ecx, 0
	add	ecx, DWORD PTR _this$[ebp]
	call	??AVector4@@QAEAAMH@Z			; Vector4::operator[]
	movss	xmm0, DWORD PTR [eax]
	movss	DWORD PTR _tmp2$[ebp], xmm0

; 402  : 		Row[0][1] = (float)(c*tmp1 - s*tmp2);

	movss	xmm0, DWORD PTR _c$[ebp]
	mulss	xmm0, DWORD PTR _tmp1$[ebp]
	movss	xmm1, DWORD PTR _s$[ebp]
	mulss	xmm1, DWORD PTR _tmp2$[ebp]
	subss	xmm0, xmm1
	push	1
	mov	ecx, 16					; 00000010H
	imul	ecx, 0
	add	ecx, DWORD PTR _this$[ebp]
	movss	DWORD PTR tv285[ebp], xmm0
	call	??AVector4@@QAEAAMH@Z			; Vector4::operator[]
	movss	xmm0, DWORD PTR tv285[ebp]
	movss	DWORD PTR [eax], xmm0

; 403  : 		Row[1][1] = (float)(s*tmp1 + c*tmp2);

	movss	xmm0, DWORD PTR _s$[ebp]
	mulss	xmm0, DWORD PTR _tmp1$[ebp]
	movss	xmm1, DWORD PTR _c$[ebp]
	mulss	xmm1, DWORD PTR _tmp2$[ebp]
	addss	xmm0, xmm1
	push	1
	mov	ecx, 16					; 00000010H
	shl	ecx, 0
	add	ecx, DWORD PTR _this$[ebp]
	movss	DWORD PTR tv287[ebp], xmm0
	call	??AVector4@@QAEAAMH@Z			; Vector4::operator[]
	movss	xmm0, DWORD PTR tv287[ebp]
	movss	DWORD PTR [eax], xmm0

; 404  : 		tmp1 = Row[0][2]; tmp2 = Row[1][2];

	push	2
	mov	ecx, 16					; 00000010H
	imul	ecx, 0
	add	ecx, DWORD PTR _this$[ebp]
	call	??AVector4@@QAEAAMH@Z			; Vector4::operator[]
	movss	xmm0, DWORD PTR [eax]
	movss	DWORD PTR _tmp1$[ebp], xmm0
	push	2
	mov	ecx, 16					; 00000010H
	shl	ecx, 0
	add	ecx, DWORD PTR _this$[ebp]
	call	??AVector4@@QAEAAMH@Z			; Vector4::operator[]
	movss	xmm0, DWORD PTR [eax]
	movss	DWORD PTR _tmp2$[ebp], xmm0

; 405  : 		Row[0][2] = (float)(c*tmp1 - s*tmp2);

	movss	xmm0, DWORD PTR _c$[ebp]
	mulss	xmm0, DWORD PTR _tmp1$[ebp]
	movss	xmm1, DWORD PTR _s$[ebp]
	mulss	xmm1, DWORD PTR _tmp2$[ebp]
	subss	xmm0, xmm1
	push	2
	mov	ecx, 16					; 00000010H
	imul	ecx, 0
	add	ecx, DWORD PTR _this$[ebp]
	movss	DWORD PTR tv289[ebp], xmm0
	call	??AVector4@@QAEAAMH@Z			; Vector4::operator[]
	movss	xmm0, DWORD PTR tv289[ebp]
	movss	DWORD PTR [eax], xmm0

; 406  : 		Row[1][2] = (float)(s*tmp1 + c*tmp2);

	movss	xmm0, DWORD PTR _s$[ebp]
	mulss	xmm0, DWORD PTR _tmp1$[ebp]
	movss	xmm1, DWORD PTR _c$[ebp]
	mulss	xmm1, DWORD PTR _tmp2$[ebp]
	addss	xmm0, xmm1
	push	2
	mov	ecx, 16					; 00000010H
	shl	ecx, 0
	add	ecx, DWORD PTR _this$[ebp]
	movss	DWORD PTR tv291[ebp], xmm0
	call	??AVector4@@QAEAAMH@Z			; Vector4::operator[]
	movss	xmm0, DWORD PTR tv291[ebp]
	movss	DWORD PTR [eax], xmm0

; 407  : 		tmp1 = Row[0][3]; tmp2 = Row[1][3];

	push	3
	mov	ecx, 16					; 00000010H
	imul	ecx, 0
	add	ecx, DWORD PTR _this$[ebp]
	call	??AVector4@@QAEAAMH@Z			; Vector4::operator[]
	movss	xmm0, DWORD PTR [eax]
	movss	DWORD PTR _tmp1$[ebp], xmm0
	push	3
	mov	ecx, 16					; 00000010H
	shl	ecx, 0
	add	ecx, DWORD PTR _this$[ebp]
	call	??AVector4@@QAEAAMH@Z			; Vector4::operator[]
	movss	xmm0, DWORD PTR [eax]
	movss	DWORD PTR _tmp2$[ebp], xmm0

; 408  : 		Row[0][3] = (float)(c*tmp1 - s*tmp2);

	movss	xmm0, DWORD PTR _c$[ebp]
	mulss	xmm0, DWORD PTR _tmp1$[ebp]
	movss	xmm1, DWORD PTR _s$[ebp]
	mulss	xmm1, DWORD PTR _tmp2$[ebp]
	subss	xmm0, xmm1
	push	3
	mov	ecx, 16					; 00000010H
	imul	ecx, 0
	add	ecx, DWORD PTR _this$[ebp]
	movss	DWORD PTR tv293[ebp], xmm0
	call	??AVector4@@QAEAAMH@Z			; Vector4::operator[]
	movss	xmm0, DWORD PTR tv293[ebp]
	movss	DWORD PTR [eax], xmm0

; 409  : 		Row[1][3] = (float)(s*tmp1 + c*tmp2);

	movss	xmm0, DWORD PTR _s$[ebp]
	mulss	xmm0, DWORD PTR _tmp1$[ebp]
	movss	xmm1, DWORD PTR _c$[ebp]
	mulss	xmm1, DWORD PTR _tmp2$[ebp]
	addss	xmm0, xmm1
	push	3
	mov	ecx, 16					; 00000010H
	shl	ecx, 0
	add	ecx, DWORD PTR _this$[ebp]
	movss	DWORD PTR tv295[ebp], xmm0
	call	??AVector4@@QAEAAMH@Z			; Vector4::operator[]
	movss	xmm0, DWORD PTR tv295[ebp]
	movss	DWORD PTR [eax], xmm0

; 410  : 	}

	pop	edi
	pop	esi
	pop	ebx
	mov	esp, ebp
	pop	ebp
	ret	8
?Pre_Rotate_Z@Matrix3D@@QAEXMM@Z ENDP			; Matrix3D::Pre_Rotate_Z
_TEXT	ENDS
; Function compile flags: /Odtp /ZI
; File x:\github\renegade\dragonade_rxd\scripts\matrix3d.h
;	COMDAT ?Pre_Rotate_Y@Matrix3D@@QAEXMM@Z
_TEXT	SEGMENT
tv299 = -80						; size = 4
tv297 = -80						; size = 4
tv295 = -80						; size = 4
tv293 = -80						; size = 4
tv291 = -80						; size = 4
tv289 = -80						; size = 4
tv287 = -80						; size = 4
tv285 = -80						; size = 4
_tmp2$ = -12						; size = 4
_tmp1$ = -8						; size = 4
_this$ = -4						; size = 4
_s$ = 8							; size = 4
_c$ = 12						; size = 4
?Pre_Rotate_Y@Matrix3D@@QAEXMM@Z PROC			; Matrix3D::Pre_Rotate_Y, COMDAT
; _this$ = ecx

; 380  : 	{

	push	ebp
	mov	ebp, esp
	sub	esp, 80					; 00000050H
	push	ebx
	push	esi
	push	edi
	mov	DWORD PTR _this$[ebp], ecx

; 381  : 		float tmp1,tmp2;
; 382  : 		tmp1 = Row[0][0]; tmp2 = Row[2][0];

	push	0
	mov	ecx, 16					; 00000010H
	imul	ecx, 0
	add	ecx, DWORD PTR _this$[ebp]
	call	??AVector4@@QAEAAMH@Z			; Vector4::operator[]
	movss	xmm0, DWORD PTR [eax]
	movss	DWORD PTR _tmp1$[ebp], xmm0
	push	0
	mov	ecx, 16					; 00000010H
	shl	ecx, 1
	add	ecx, DWORD PTR _this$[ebp]
	call	??AVector4@@QAEAAMH@Z			; Vector4::operator[]
	movss	xmm0, DWORD PTR [eax]
	movss	DWORD PTR _tmp2$[ebp], xmm0

; 383  : 		Row[0][0] = (float)( c*tmp1 + s*tmp2);

	movss	xmm0, DWORD PTR _c$[ebp]
	mulss	xmm0, DWORD PTR _tmp1$[ebp]
	movss	xmm1, DWORD PTR _s$[ebp]
	mulss	xmm1, DWORD PTR _tmp2$[ebp]
	addss	xmm0, xmm1
	push	0
	mov	ecx, 16					; 00000010H
	imul	ecx, 0
	add	ecx, DWORD PTR _this$[ebp]
	movss	DWORD PTR tv285[ebp], xmm0
	call	??AVector4@@QAEAAMH@Z			; Vector4::operator[]
	movss	xmm0, DWORD PTR tv285[ebp]
	movss	DWORD PTR [eax], xmm0

; 384  : 		Row[2][0] = (float)(-s*tmp1 + c*tmp2);

	movss	xmm0, DWORD PTR _s$[ebp]
	xorps	xmm0, DWORD PTR __xmm@80000000800000008000000080000000
	mulss	xmm0, DWORD PTR _tmp1$[ebp]
	movss	xmm1, DWORD PTR _c$[ebp]
	mulss	xmm1, DWORD PTR _tmp2$[ebp]
	addss	xmm0, xmm1
	push	0
	mov	ecx, 16					; 00000010H
	shl	ecx, 1
	add	ecx, DWORD PTR _this$[ebp]
	movss	DWORD PTR tv287[ebp], xmm0
	call	??AVector4@@QAEAAMH@Z			; Vector4::operator[]
	movss	xmm0, DWORD PTR tv287[ebp]
	movss	DWORD PTR [eax], xmm0

; 385  : 		tmp1 = Row[0][1]; tmp2 = Row[2][1];

	push	1
	mov	ecx, 16					; 00000010H
	imul	ecx, 0
	add	ecx, DWORD PTR _this$[ebp]
	call	??AVector4@@QAEAAMH@Z			; Vector4::operator[]
	movss	xmm0, DWORD PTR [eax]
	movss	DWORD PTR _tmp1$[ebp], xmm0
	push	1
	mov	ecx, 16					; 00000010H
	shl	ecx, 1
	add	ecx, DWORD PTR _this$[ebp]
	call	??AVector4@@QAEAAMH@Z			; Vector4::operator[]
	movss	xmm0, DWORD PTR [eax]
	movss	DWORD PTR _tmp2$[ebp], xmm0

; 386  : 		Row[0][1] = (float)( c*tmp1 + s*tmp2);

	movss	xmm0, DWORD PTR _c$[ebp]
	mulss	xmm0, DWORD PTR _tmp1$[ebp]
	movss	xmm1, DWORD PTR _s$[ebp]
	mulss	xmm1, DWORD PTR _tmp2$[ebp]
	addss	xmm0, xmm1
	push	1
	mov	ecx, 16					; 00000010H
	imul	ecx, 0
	add	ecx, DWORD PTR _this$[ebp]
	movss	DWORD PTR tv289[ebp], xmm0
	call	??AVector4@@QAEAAMH@Z			; Vector4::operator[]
	movss	xmm0, DWORD PTR tv289[ebp]
	movss	DWORD PTR [eax], xmm0

; 387  : 		Row[2][1] = (float)(-s*tmp1 + c*tmp2);

	movss	xmm0, DWORD PTR _s$[ebp]
	xorps	xmm0, DWORD PTR __xmm@80000000800000008000000080000000
	mulss	xmm0, DWORD PTR _tmp1$[ebp]
	movss	xmm1, DWORD PTR _c$[ebp]
	mulss	xmm1, DWORD PTR _tmp2$[ebp]
	addss	xmm0, xmm1
	push	1
	mov	ecx, 16					; 00000010H
	shl	ecx, 1
	add	ecx, DWORD PTR _this$[ebp]
	movss	DWORD PTR tv291[ebp], xmm0
	call	??AVector4@@QAEAAMH@Z			; Vector4::operator[]
	movss	xmm0, DWORD PTR tv291[ebp]
	movss	DWORD PTR [eax], xmm0

; 388  : 		tmp1 = Row[0][2]; tmp2 = Row[2][2];

	push	2
	mov	ecx, 16					; 00000010H
	imul	ecx, 0
	add	ecx, DWORD PTR _this$[ebp]
	call	??AVector4@@QAEAAMH@Z			; Vector4::operator[]
	movss	xmm0, DWORD PTR [eax]
	movss	DWORD PTR _tmp1$[ebp], xmm0
	push	2
	mov	ecx, 16					; 00000010H
	shl	ecx, 1
	add	ecx, DWORD PTR _this$[ebp]
	call	??AVector4@@QAEAAMH@Z			; Vector4::operator[]
	movss	xmm0, DWORD PTR [eax]
	movss	DWORD PTR _tmp2$[ebp], xmm0

; 389  : 		Row[0][2] = (float)( c*tmp1 + s*tmp2);

	movss	xmm0, DWORD PTR _c$[ebp]
	mulss	xmm0, DWORD PTR _tmp1$[ebp]
	movss	xmm1, DWORD PTR _s$[ebp]
	mulss	xmm1, DWORD PTR _tmp2$[ebp]
	addss	xmm0, xmm1
	push	2
	mov	ecx, 16					; 00000010H
	imul	ecx, 0
	add	ecx, DWORD PTR _this$[ebp]
	movss	DWORD PTR tv293[ebp], xmm0
	call	??AVector4@@QAEAAMH@Z			; Vector4::operator[]
	movss	xmm0, DWORD PTR tv293[ebp]
	movss	DWORD PTR [eax], xmm0

; 390  : 		Row[2][2] = (float)(-s*tmp1 + c*tmp2);

	movss	xmm0, DWORD PTR _s$[ebp]
	xorps	xmm0, DWORD PTR __xmm@80000000800000008000000080000000
	mulss	xmm0, DWORD PTR _tmp1$[ebp]
	movss	xmm1, DWORD PTR _c$[ebp]
	mulss	xmm1, DWORD PTR _tmp2$[ebp]
	addss	xmm0, xmm1
	push	2
	mov	ecx, 16					; 00000010H
	shl	ecx, 1
	add	ecx, DWORD PTR _this$[ebp]
	movss	DWORD PTR tv295[ebp], xmm0
	call	??AVector4@@QAEAAMH@Z			; Vector4::operator[]
	movss	xmm0, DWORD PTR tv295[ebp]
	movss	DWORD PTR [eax], xmm0

; 391  : 		tmp1 = Row[0][3]; tmp2 = Row[2][3];

	push	3
	mov	ecx, 16					; 00000010H
	imul	ecx, 0
	add	ecx, DWORD PTR _this$[ebp]
	call	??AVector4@@QAEAAMH@Z			; Vector4::operator[]
	movss	xmm0, DWORD PTR [eax]
	movss	DWORD PTR _tmp1$[ebp], xmm0
	push	3
	mov	ecx, 16					; 00000010H
	shl	ecx, 1
	add	ecx, DWORD PTR _this$[ebp]
	call	??AVector4@@QAEAAMH@Z			; Vector4::operator[]
	movss	xmm0, DWORD PTR [eax]
	movss	DWORD PTR _tmp2$[ebp], xmm0

; 392  : 		Row[0][3] = (float)( c*tmp1 + s*tmp2);

	movss	xmm0, DWORD PTR _c$[ebp]
	mulss	xmm0, DWORD PTR _tmp1$[ebp]
	movss	xmm1, DWORD PTR _s$[ebp]
	mulss	xmm1, DWORD PTR _tmp2$[ebp]
	addss	xmm0, xmm1
	push	3
	mov	ecx, 16					; 00000010H
	imul	ecx, 0
	add	ecx, DWORD PTR _this$[ebp]
	movss	DWORD PTR tv297[ebp], xmm0
	call	??AVector4@@QAEAAMH@Z			; Vector4::operator[]
	movss	xmm0, DWORD PTR tv297[ebp]
	movss	DWORD PTR [eax], xmm0

; 393  : 		Row[2][3] = (float)(-s*tmp1 + c*tmp2);

	movss	xmm0, DWORD PTR _s$[ebp]
	xorps	xmm0, DWORD PTR __xmm@80000000800000008000000080000000
	mulss	xmm0, DWORD PTR _tmp1$[ebp]
	movss	xmm1, DWORD PTR _c$[ebp]
	mulss	xmm1, DWORD PTR _tmp2$[ebp]
	addss	xmm0, xmm1
	push	3
	mov	ecx, 16					; 00000010H
	shl	ecx, 1
	add	ecx, DWORD PTR _this$[ebp]
	movss	DWORD PTR tv299[ebp], xmm0
	call	??AVector4@@QAEAAMH@Z			; Vector4::operator[]
	movss	xmm0, DWORD PTR tv299[ebp]
	movss	DWORD PTR [eax], xmm0

; 394  : 	}

	pop	edi
	pop	esi
	pop	ebx
	mov	esp, ebp
	pop	ebp
	ret	8
?Pre_Rotate_Y@Matrix3D@@QAEXMM@Z ENDP			; Matrix3D::Pre_Rotate_Y
_TEXT	ENDS
; Function compile flags: /Odtp /ZI
; File x:\github\renegade\dragonade_rxd\scripts\matrix3d.h
;	COMDAT ?Pre_Rotate_X@Matrix3D@@QAEXMM@Z
_TEXT	SEGMENT
tv295 = -80						; size = 4
tv293 = -80						; size = 4
tv291 = -80						; size = 4
tv289 = -80						; size = 4
tv287 = -80						; size = 4
tv285 = -80						; size = 4
tv283 = -80						; size = 4
tv281 = -80						; size = 4
_tmp2$ = -12						; size = 4
_tmp1$ = -8						; size = 4
_this$ = -4						; size = 4
_s$ = 8							; size = 4
_c$ = 12						; size = 4
?Pre_Rotate_X@Matrix3D@@QAEXMM@Z PROC			; Matrix3D::Pre_Rotate_X, COMDAT
; _this$ = ecx

; 364  : 	{

	push	ebp
	mov	ebp, esp
	sub	esp, 80					; 00000050H
	push	ebx
	push	esi
	push	edi
	mov	DWORD PTR _this$[ebp], ecx

; 365  : 		float tmp1,tmp2;
; 366  : 		tmp1 = Row[1][0]; tmp2 = Row[2][0];

	push	0
	mov	ecx, 16					; 00000010H
	shl	ecx, 0
	add	ecx, DWORD PTR _this$[ebp]
	call	??AVector4@@QAEAAMH@Z			; Vector4::operator[]
	movss	xmm0, DWORD PTR [eax]
	movss	DWORD PTR _tmp1$[ebp], xmm0
	push	0
	mov	ecx, 16					; 00000010H
	shl	ecx, 1
	add	ecx, DWORD PTR _this$[ebp]
	call	??AVector4@@QAEAAMH@Z			; Vector4::operator[]
	movss	xmm0, DWORD PTR [eax]
	movss	DWORD PTR _tmp2$[ebp], xmm0

; 367  : 		Row[1][0] = (float)(c*tmp1 - s*tmp2);

	movss	xmm0, DWORD PTR _c$[ebp]
	mulss	xmm0, DWORD PTR _tmp1$[ebp]
	movss	xmm1, DWORD PTR _s$[ebp]
	mulss	xmm1, DWORD PTR _tmp2$[ebp]
	subss	xmm0, xmm1
	push	0
	mov	ecx, 16					; 00000010H
	shl	ecx, 0
	add	ecx, DWORD PTR _this$[ebp]
	movss	DWORD PTR tv281[ebp], xmm0
	call	??AVector4@@QAEAAMH@Z			; Vector4::operator[]
	movss	xmm0, DWORD PTR tv281[ebp]
	movss	DWORD PTR [eax], xmm0

; 368  : 		Row[2][0] = (float)(s*tmp1 + c*tmp2);

	movss	xmm0, DWORD PTR _s$[ebp]
	mulss	xmm0, DWORD PTR _tmp1$[ebp]
	movss	xmm1, DWORD PTR _c$[ebp]
	mulss	xmm1, DWORD PTR _tmp2$[ebp]
	addss	xmm0, xmm1
	push	0
	mov	ecx, 16					; 00000010H
	shl	ecx, 1
	add	ecx, DWORD PTR _this$[ebp]
	movss	DWORD PTR tv283[ebp], xmm0
	call	??AVector4@@QAEAAMH@Z			; Vector4::operator[]
	movss	xmm0, DWORD PTR tv283[ebp]
	movss	DWORD PTR [eax], xmm0

; 369  : 		tmp1 = Row[1][1]; tmp2 = Row[2][1];

	push	1
	mov	ecx, 16					; 00000010H
	shl	ecx, 0
	add	ecx, DWORD PTR _this$[ebp]
	call	??AVector4@@QAEAAMH@Z			; Vector4::operator[]
	movss	xmm0, DWORD PTR [eax]
	movss	DWORD PTR _tmp1$[ebp], xmm0
	push	1
	mov	ecx, 16					; 00000010H
	shl	ecx, 1
	add	ecx, DWORD PTR _this$[ebp]
	call	??AVector4@@QAEAAMH@Z			; Vector4::operator[]
	movss	xmm0, DWORD PTR [eax]
	movss	DWORD PTR _tmp2$[ebp], xmm0

; 370  : 		Row[1][1] = (float)(c*tmp1 - s*tmp2);

	movss	xmm0, DWORD PTR _c$[ebp]
	mulss	xmm0, DWORD PTR _tmp1$[ebp]
	movss	xmm1, DWORD PTR _s$[ebp]
	mulss	xmm1, DWORD PTR _tmp2$[ebp]
	subss	xmm0, xmm1
	push	1
	mov	ecx, 16					; 00000010H
	shl	ecx, 0
	add	ecx, DWORD PTR _this$[ebp]
	movss	DWORD PTR tv285[ebp], xmm0
	call	??AVector4@@QAEAAMH@Z			; Vector4::operator[]
	movss	xmm0, DWORD PTR tv285[ebp]
	movss	DWORD PTR [eax], xmm0

; 371  : 		Row[2][1] = (float)(s*tmp1 + c*tmp2);

	movss	xmm0, DWORD PTR _s$[ebp]
	mulss	xmm0, DWORD PTR _tmp1$[ebp]
	movss	xmm1, DWORD PTR _c$[ebp]
	mulss	xmm1, DWORD PTR _tmp2$[ebp]
	addss	xmm0, xmm1
	push	1
	mov	ecx, 16					; 00000010H
	shl	ecx, 1
	add	ecx, DWORD PTR _this$[ebp]
	movss	DWORD PTR tv287[ebp], xmm0
	call	??AVector4@@QAEAAMH@Z			; Vector4::operator[]
	movss	xmm0, DWORD PTR tv287[ebp]
	movss	DWORD PTR [eax], xmm0

; 372  : 		tmp1 = Row[1][2]; tmp2 = Row[2][2];

	push	2
	mov	ecx, 16					; 00000010H
	shl	ecx, 0
	add	ecx, DWORD PTR _this$[ebp]
	call	??AVector4@@QAEAAMH@Z			; Vector4::operator[]
	movss	xmm0, DWORD PTR [eax]
	movss	DWORD PTR _tmp1$[ebp], xmm0
	push	2
	mov	ecx, 16					; 00000010H
	shl	ecx, 1
	add	ecx, DWORD PTR _this$[ebp]
	call	??AVector4@@QAEAAMH@Z			; Vector4::operator[]
	movss	xmm0, DWORD PTR [eax]
	movss	DWORD PTR _tmp2$[ebp], xmm0

; 373  : 		Row[1][2] = (float)(c*tmp1 - s*tmp2);

	movss	xmm0, DWORD PTR _c$[ebp]
	mulss	xmm0, DWORD PTR _tmp1$[ebp]
	movss	xmm1, DWORD PTR _s$[ebp]
	mulss	xmm1, DWORD PTR _tmp2$[ebp]
	subss	xmm0, xmm1
	push	2
	mov	ecx, 16					; 00000010H
	shl	ecx, 0
	add	ecx, DWORD PTR _this$[ebp]
	movss	DWORD PTR tv289[ebp], xmm0
	call	??AVector4@@QAEAAMH@Z			; Vector4::operator[]
	movss	xmm0, DWORD PTR tv289[ebp]
	movss	DWORD PTR [eax], xmm0

; 374  : 		Row[2][2] = (float)(s*tmp1 + c*tmp2);

	movss	xmm0, DWORD PTR _s$[ebp]
	mulss	xmm0, DWORD PTR _tmp1$[ebp]
	movss	xmm1, DWORD PTR _c$[ebp]
	mulss	xmm1, DWORD PTR _tmp2$[ebp]
	addss	xmm0, xmm1
	push	2
	mov	ecx, 16					; 00000010H
	shl	ecx, 1
	add	ecx, DWORD PTR _this$[ebp]
	movss	DWORD PTR tv291[ebp], xmm0
	call	??AVector4@@QAEAAMH@Z			; Vector4::operator[]
	movss	xmm0, DWORD PTR tv291[ebp]
	movss	DWORD PTR [eax], xmm0

; 375  : 		tmp1 = Row[1][3]; tmp2 = Row[2][3];

	push	3
	mov	ecx, 16					; 00000010H
	shl	ecx, 0
	add	ecx, DWORD PTR _this$[ebp]
	call	??AVector4@@QAEAAMH@Z			; Vector4::operator[]
	movss	xmm0, DWORD PTR [eax]
	movss	DWORD PTR _tmp1$[ebp], xmm0
	push	3
	mov	ecx, 16					; 00000010H
	shl	ecx, 1
	add	ecx, DWORD PTR _this$[ebp]
	call	??AVector4@@QAEAAMH@Z			; Vector4::operator[]
	movss	xmm0, DWORD PTR [eax]
	movss	DWORD PTR _tmp2$[ebp], xmm0

; 376  : 		Row[1][3] = (float)(c*tmp1 - s*tmp2);

	movss	xmm0, DWORD PTR _c$[ebp]
	mulss	xmm0, DWORD PTR _tmp1$[ebp]
	movss	xmm1, DWORD PTR _s$[ebp]
	mulss	xmm1, DWORD PTR _tmp2$[ebp]
	subss	xmm0, xmm1
	push	3
	mov	ecx, 16					; 00000010H
	shl	ecx, 0
	add	ecx, DWORD PTR _this$[ebp]
	movss	DWORD PTR tv293[ebp], xmm0
	call	??AVector4@@QAEAAMH@Z			; Vector4::operator[]
	movss	xmm0, DWORD PTR tv293[ebp]
	movss	DWORD PTR [eax], xmm0

; 377  : 		Row[2][3] = (float)(s*tmp1 + c*tmp2);

	movss	xmm0, DWORD PTR _s$[ebp]
	mulss	xmm0, DWORD PTR _tmp1$[ebp]
	movss	xmm1, DWORD PTR _c$[ebp]
	mulss	xmm1, DWORD PTR _tmp2$[ebp]
	addss	xmm0, xmm1
	push	3
	mov	ecx, 16					; 00000010H
	shl	ecx, 1
	add	ecx, DWORD PTR _this$[ebp]
	movss	DWORD PTR tv295[ebp], xmm0
	call	??AVector4@@QAEAAMH@Z			; Vector4::operator[]
	movss	xmm0, DWORD PTR tv295[ebp]
	movss	DWORD PTR [eax], xmm0

; 378  : 	}

	pop	edi
	pop	esi
	pop	ebx
	mov	esp, ebp
	pop	ebp
	ret	8
?Pre_Rotate_X@Matrix3D@@QAEXMM@Z ENDP			; Matrix3D::Pre_Rotate_X
_TEXT	ENDS
; Function compile flags: /Odtp /ZI
; File x:\github\renegade\dragonade_rxd\scripts\matrix3d.h
;	COMDAT ?Pre_Rotate_Z@Matrix3D@@QAEXM@Z
_TEXT	SEGMENT
tv307 = -88						; size = 4
tv305 = -88						; size = 4
tv303 = -88						; size = 4
tv301 = -88						; size = 4
tv299 = -88						; size = 4
tv297 = -88						; size = 4
tv295 = -88						; size = 4
tv293 = -88						; size = 4
_s$ = -20						; size = 4
_c$ = -16						; size = 4
_tmp2$ = -12						; size = 4
_tmp1$ = -8						; size = 4
_this$ = -4						; size = 4
_theta$ = 8						; size = 4
?Pre_Rotate_Z@Matrix3D@@QAEXM@Z PROC			; Matrix3D::Pre_Rotate_Z, COMDAT
; _this$ = ecx

; 345  : 	{

	push	ebp
	mov	ebp, esp
	sub	esp, 88					; 00000058H
	push	ebx
	push	esi
	push	edi
	mov	DWORD PTR _this$[ebp], ecx

; 346  : 		float tmp1,tmp2;
; 347  : 		float c,s;
; 348  : 		c = cosf(theta);

	push	ecx
	movss	xmm0, DWORD PTR _theta$[ebp]
	movss	DWORD PTR [esp], xmm0
	call	_cosf
	add	esp, 4
	fstp	DWORD PTR _c$[ebp]

; 349  : 		s = sinf(theta);

	push	ecx
	movss	xmm0, DWORD PTR _theta$[ebp]
	movss	DWORD PTR [esp], xmm0
	call	_sinf
	add	esp, 4
	fstp	DWORD PTR _s$[ebp]

; 350  : 		tmp1 = Row[0][0]; tmp2 = Row[1][0];

	push	0
	mov	ecx, 16					; 00000010H
	imul	ecx, 0
	add	ecx, DWORD PTR _this$[ebp]
	call	??AVector4@@QAEAAMH@Z			; Vector4::operator[]
	movss	xmm0, DWORD PTR [eax]
	movss	DWORD PTR _tmp1$[ebp], xmm0
	push	0
	mov	ecx, 16					; 00000010H
	shl	ecx, 0
	add	ecx, DWORD PTR _this$[ebp]
	call	??AVector4@@QAEAAMH@Z			; Vector4::operator[]
	movss	xmm0, DWORD PTR [eax]
	movss	DWORD PTR _tmp2$[ebp], xmm0

; 351  : 		Row[0][0] = (float)(c*tmp1 - s*tmp2);

	movss	xmm0, DWORD PTR _c$[ebp]
	mulss	xmm0, DWORD PTR _tmp1$[ebp]
	movss	xmm1, DWORD PTR _s$[ebp]
	mulss	xmm1, DWORD PTR _tmp2$[ebp]
	subss	xmm0, xmm1
	push	0
	mov	ecx, 16					; 00000010H
	imul	ecx, 0
	add	ecx, DWORD PTR _this$[ebp]
	movss	DWORD PTR tv293[ebp], xmm0
	call	??AVector4@@QAEAAMH@Z			; Vector4::operator[]
	movss	xmm0, DWORD PTR tv293[ebp]
	movss	DWORD PTR [eax], xmm0

; 352  : 		Row[1][0] = (float)(s*tmp1 + c*tmp2);

	movss	xmm0, DWORD PTR _s$[ebp]
	mulss	xmm0, DWORD PTR _tmp1$[ebp]
	movss	xmm1, DWORD PTR _c$[ebp]
	mulss	xmm1, DWORD PTR _tmp2$[ebp]
	addss	xmm0, xmm1
	push	0
	mov	ecx, 16					; 00000010H
	shl	ecx, 0
	add	ecx, DWORD PTR _this$[ebp]
	movss	DWORD PTR tv295[ebp], xmm0
	call	??AVector4@@QAEAAMH@Z			; Vector4::operator[]
	movss	xmm0, DWORD PTR tv295[ebp]
	movss	DWORD PTR [eax], xmm0

; 353  : 		tmp1 = Row[0][1]; tmp2 = Row[1][1];

	push	1
	mov	ecx, 16					; 00000010H
	imul	ecx, 0
	add	ecx, DWORD PTR _this$[ebp]
	call	??AVector4@@QAEAAMH@Z			; Vector4::operator[]
	movss	xmm0, DWORD PTR [eax]
	movss	DWORD PTR _tmp1$[ebp], xmm0
	push	1
	mov	ecx, 16					; 00000010H
	shl	ecx, 0
	add	ecx, DWORD PTR _this$[ebp]
	call	??AVector4@@QAEAAMH@Z			; Vector4::operator[]
	movss	xmm0, DWORD PTR [eax]
	movss	DWORD PTR _tmp2$[ebp], xmm0

; 354  : 		Row[0][1] = (float)(c*tmp1 - s*tmp2);

	movss	xmm0, DWORD PTR _c$[ebp]
	mulss	xmm0, DWORD PTR _tmp1$[ebp]
	movss	xmm1, DWORD PTR _s$[ebp]
	mulss	xmm1, DWORD PTR _tmp2$[ebp]
	subss	xmm0, xmm1
	push	1
	mov	ecx, 16					; 00000010H
	imul	ecx, 0
	add	ecx, DWORD PTR _this$[ebp]
	movss	DWORD PTR tv297[ebp], xmm0
	call	??AVector4@@QAEAAMH@Z			; Vector4::operator[]
	movss	xmm0, DWORD PTR tv297[ebp]
	movss	DWORD PTR [eax], xmm0

; 355  : 		Row[1][1] = (float)(s*tmp1 + c*tmp2);

	movss	xmm0, DWORD PTR _s$[ebp]
	mulss	xmm0, DWORD PTR _tmp1$[ebp]
	movss	xmm1, DWORD PTR _c$[ebp]
	mulss	xmm1, DWORD PTR _tmp2$[ebp]
	addss	xmm0, xmm1
	push	1
	mov	ecx, 16					; 00000010H
	shl	ecx, 0
	add	ecx, DWORD PTR _this$[ebp]
	movss	DWORD PTR tv299[ebp], xmm0
	call	??AVector4@@QAEAAMH@Z			; Vector4::operator[]
	movss	xmm0, DWORD PTR tv299[ebp]
	movss	DWORD PTR [eax], xmm0

; 356  : 		tmp1 = Row[0][2]; tmp2 = Row[1][2];

	push	2
	mov	ecx, 16					; 00000010H
	imul	ecx, 0
	add	ecx, DWORD PTR _this$[ebp]
	call	??AVector4@@QAEAAMH@Z			; Vector4::operator[]
	movss	xmm0, DWORD PTR [eax]
	movss	DWORD PTR _tmp1$[ebp], xmm0
	push	2
	mov	ecx, 16					; 00000010H
	shl	ecx, 0
	add	ecx, DWORD PTR _this$[ebp]
	call	??AVector4@@QAEAAMH@Z			; Vector4::operator[]
	movss	xmm0, DWORD PTR [eax]
	movss	DWORD PTR _tmp2$[ebp], xmm0

; 357  : 		Row[0][2] = (float)(c*tmp1 - s*tmp2);

	movss	xmm0, DWORD PTR _c$[ebp]
	mulss	xmm0, DWORD PTR _tmp1$[ebp]
	movss	xmm1, DWORD PTR _s$[ebp]
	mulss	xmm1, DWORD PTR _tmp2$[ebp]
	subss	xmm0, xmm1
	push	2
	mov	ecx, 16					; 00000010H
	imul	ecx, 0
	add	ecx, DWORD PTR _this$[ebp]
	movss	DWORD PTR tv301[ebp], xmm0
	call	??AVector4@@QAEAAMH@Z			; Vector4::operator[]
	movss	xmm0, DWORD PTR tv301[ebp]
	movss	DWORD PTR [eax], xmm0

; 358  : 		Row[1][2] = (float)(s*tmp1 + c*tmp2);

	movss	xmm0, DWORD PTR _s$[ebp]
	mulss	xmm0, DWORD PTR _tmp1$[ebp]
	movss	xmm1, DWORD PTR _c$[ebp]
	mulss	xmm1, DWORD PTR _tmp2$[ebp]
	addss	xmm0, xmm1
	push	2
	mov	ecx, 16					; 00000010H
	shl	ecx, 0
	add	ecx, DWORD PTR _this$[ebp]
	movss	DWORD PTR tv303[ebp], xmm0
	call	??AVector4@@QAEAAMH@Z			; Vector4::operator[]
	movss	xmm0, DWORD PTR tv303[ebp]
	movss	DWORD PTR [eax], xmm0

; 359  : 		tmp1 = Row[0][3]; tmp2 = Row[1][3];

	push	3
	mov	ecx, 16					; 00000010H
	imul	ecx, 0
	add	ecx, DWORD PTR _this$[ebp]
	call	??AVector4@@QAEAAMH@Z			; Vector4::operator[]
	movss	xmm0, DWORD PTR [eax]
	movss	DWORD PTR _tmp1$[ebp], xmm0
	push	3
	mov	ecx, 16					; 00000010H
	shl	ecx, 0
	add	ecx, DWORD PTR _this$[ebp]
	call	??AVector4@@QAEAAMH@Z			; Vector4::operator[]
	movss	xmm0, DWORD PTR [eax]
	movss	DWORD PTR _tmp2$[ebp], xmm0

; 360  : 		Row[0][3] = (float)(c*tmp1 - s*tmp2);

	movss	xmm0, DWORD PTR _c$[ebp]
	mulss	xmm0, DWORD PTR _tmp1$[ebp]
	movss	xmm1, DWORD PTR _s$[ebp]
	mulss	xmm1, DWORD PTR _tmp2$[ebp]
	subss	xmm0, xmm1
	push	3
	mov	ecx, 16					; 00000010H
	imul	ecx, 0
	add	ecx, DWORD PTR _this$[ebp]
	movss	DWORD PTR tv305[ebp], xmm0
	call	??AVector4@@QAEAAMH@Z			; Vector4::operator[]
	movss	xmm0, DWORD PTR tv305[ebp]
	movss	DWORD PTR [eax], xmm0

; 361  : 		Row[1][3] = (float)(s*tmp1 + c*tmp2);

	movss	xmm0, DWORD PTR _s$[ebp]
	mulss	xmm0, DWORD PTR _tmp1$[ebp]
	movss	xmm1, DWORD PTR _c$[ebp]
	mulss	xmm1, DWORD PTR _tmp2$[ebp]
	addss	xmm0, xmm1
	push	3
	mov	ecx, 16					; 00000010H
	shl	ecx, 0
	add	ecx, DWORD PTR _this$[ebp]
	movss	DWORD PTR tv307[ebp], xmm0
	call	??AVector4@@QAEAAMH@Z			; Vector4::operator[]
	movss	xmm0, DWORD PTR tv307[ebp]
	movss	DWORD PTR [eax], xmm0

; 362  : 	}

	pop	edi
	pop	esi
	pop	ebx
	mov	esp, ebp
	pop	ebp
	ret	4
?Pre_Rotate_Z@Matrix3D@@QAEXM@Z ENDP			; Matrix3D::Pre_Rotate_Z
_TEXT	ENDS
; Function compile flags: /Odtp /ZI
; File x:\github\renegade\dragonade_rxd\scripts\matrix3d.h
;	COMDAT ?Pre_Rotate_Y@Matrix3D@@QAEXM@Z
_TEXT	SEGMENT
tv311 = -88						; size = 4
tv309 = -88						; size = 4
tv307 = -88						; size = 4
tv305 = -88						; size = 4
tv303 = -88						; size = 4
tv301 = -88						; size = 4
tv299 = -88						; size = 4
tv297 = -88						; size = 4
_s$ = -20						; size = 4
_c$ = -16						; size = 4
_tmp2$ = -12						; size = 4
_tmp1$ = -8						; size = 4
_this$ = -4						; size = 4
_theta$ = 8						; size = 4
?Pre_Rotate_Y@Matrix3D@@QAEXM@Z PROC			; Matrix3D::Pre_Rotate_Y, COMDAT
; _this$ = ecx

; 326  : 	{

	push	ebp
	mov	ebp, esp
	sub	esp, 88					; 00000058H
	push	ebx
	push	esi
	push	edi
	mov	DWORD PTR _this$[ebp], ecx

; 327  : 		float tmp1,tmp2;
; 328  : 		float c,s;
; 329  : 		c = cosf(theta);

	push	ecx
	movss	xmm0, DWORD PTR _theta$[ebp]
	movss	DWORD PTR [esp], xmm0
	call	_cosf
	add	esp, 4
	fstp	DWORD PTR _c$[ebp]

; 330  : 		s = sinf(theta);

	push	ecx
	movss	xmm0, DWORD PTR _theta$[ebp]
	movss	DWORD PTR [esp], xmm0
	call	_sinf
	add	esp, 4
	fstp	DWORD PTR _s$[ebp]

; 331  : 		tmp1 = Row[0][0]; tmp2 = Row[2][0];

	push	0
	mov	ecx, 16					; 00000010H
	imul	ecx, 0
	add	ecx, DWORD PTR _this$[ebp]
	call	??AVector4@@QAEAAMH@Z			; Vector4::operator[]
	movss	xmm0, DWORD PTR [eax]
	movss	DWORD PTR _tmp1$[ebp], xmm0
	push	0
	mov	ecx, 16					; 00000010H
	shl	ecx, 1
	add	ecx, DWORD PTR _this$[ebp]
	call	??AVector4@@QAEAAMH@Z			; Vector4::operator[]
	movss	xmm0, DWORD PTR [eax]
	movss	DWORD PTR _tmp2$[ebp], xmm0

; 332  : 		Row[0][0] = (float)( c*tmp1 + s*tmp2);

	movss	xmm0, DWORD PTR _c$[ebp]
	mulss	xmm0, DWORD PTR _tmp1$[ebp]
	movss	xmm1, DWORD PTR _s$[ebp]
	mulss	xmm1, DWORD PTR _tmp2$[ebp]
	addss	xmm0, xmm1
	push	0
	mov	ecx, 16					; 00000010H
	imul	ecx, 0
	add	ecx, DWORD PTR _this$[ebp]
	movss	DWORD PTR tv297[ebp], xmm0
	call	??AVector4@@QAEAAMH@Z			; Vector4::operator[]
	movss	xmm0, DWORD PTR tv297[ebp]
	movss	DWORD PTR [eax], xmm0

; 333  : 		Row[2][0] = (float)(-s*tmp1 + c*tmp2);

	movss	xmm0, DWORD PTR _s$[ebp]
	xorps	xmm0, DWORD PTR __xmm@80000000800000008000000080000000
	mulss	xmm0, DWORD PTR _tmp1$[ebp]
	movss	xmm1, DWORD PTR _c$[ebp]
	mulss	xmm1, DWORD PTR _tmp2$[ebp]
	addss	xmm0, xmm1
	push	0
	mov	ecx, 16					; 00000010H
	shl	ecx, 1
	add	ecx, DWORD PTR _this$[ebp]
	movss	DWORD PTR tv299[ebp], xmm0
	call	??AVector4@@QAEAAMH@Z			; Vector4::operator[]
	movss	xmm0, DWORD PTR tv299[ebp]
	movss	DWORD PTR [eax], xmm0

; 334  : 		tmp1 = Row[0][1]; tmp2 = Row[2][1];

	push	1
	mov	ecx, 16					; 00000010H
	imul	ecx, 0
	add	ecx, DWORD PTR _this$[ebp]
	call	??AVector4@@QAEAAMH@Z			; Vector4::operator[]
	movss	xmm0, DWORD PTR [eax]
	movss	DWORD PTR _tmp1$[ebp], xmm0
	push	1
	mov	ecx, 16					; 00000010H
	shl	ecx, 1
	add	ecx, DWORD PTR _this$[ebp]
	call	??AVector4@@QAEAAMH@Z			; Vector4::operator[]
	movss	xmm0, DWORD PTR [eax]
	movss	DWORD PTR _tmp2$[ebp], xmm0

; 335  : 		Row[0][1] = (float)( c*tmp1 + s*tmp2);

	movss	xmm0, DWORD PTR _c$[ebp]
	mulss	xmm0, DWORD PTR _tmp1$[ebp]
	movss	xmm1, DWORD PTR _s$[ebp]
	mulss	xmm1, DWORD PTR _tmp2$[ebp]
	addss	xmm0, xmm1
	push	1
	mov	ecx, 16					; 00000010H
	imul	ecx, 0
	add	ecx, DWORD PTR _this$[ebp]
	movss	DWORD PTR tv301[ebp], xmm0
	call	??AVector4@@QAEAAMH@Z			; Vector4::operator[]
	movss	xmm0, DWORD PTR tv301[ebp]
	movss	DWORD PTR [eax], xmm0

; 336  : 		Row[2][1] = (float)(-s*tmp1 + c*tmp2);

	movss	xmm0, DWORD PTR _s$[ebp]
	xorps	xmm0, DWORD PTR __xmm@80000000800000008000000080000000
	mulss	xmm0, DWORD PTR _tmp1$[ebp]
	movss	xmm1, DWORD PTR _c$[ebp]
	mulss	xmm1, DWORD PTR _tmp2$[ebp]
	addss	xmm0, xmm1
	push	1
	mov	ecx, 16					; 00000010H
	shl	ecx, 1
	add	ecx, DWORD PTR _this$[ebp]
	movss	DWORD PTR tv303[ebp], xmm0
	call	??AVector4@@QAEAAMH@Z			; Vector4::operator[]
	movss	xmm0, DWORD PTR tv303[ebp]
	movss	DWORD PTR [eax], xmm0

; 337  : 		tmp1 = Row[0][2]; tmp2 = Row[2][2];

	push	2
	mov	ecx, 16					; 00000010H
	imul	ecx, 0
	add	ecx, DWORD PTR _this$[ebp]
	call	??AVector4@@QAEAAMH@Z			; Vector4::operator[]
	movss	xmm0, DWORD PTR [eax]
	movss	DWORD PTR _tmp1$[ebp], xmm0
	push	2
	mov	ecx, 16					; 00000010H
	shl	ecx, 1
	add	ecx, DWORD PTR _this$[ebp]
	call	??AVector4@@QAEAAMH@Z			; Vector4::operator[]
	movss	xmm0, DWORD PTR [eax]
	movss	DWORD PTR _tmp2$[ebp], xmm0

; 338  : 		Row[0][2] = (float)( c*tmp1 + s*tmp2);

	movss	xmm0, DWORD PTR _c$[ebp]
	mulss	xmm0, DWORD PTR _tmp1$[ebp]
	movss	xmm1, DWORD PTR _s$[ebp]
	mulss	xmm1, DWORD PTR _tmp2$[ebp]
	addss	xmm0, xmm1
	push	2
	mov	ecx, 16					; 00000010H
	imul	ecx, 0
	add	ecx, DWORD PTR _this$[ebp]
	movss	DWORD PTR tv305[ebp], xmm0
	call	??AVector4@@QAEAAMH@Z			; Vector4::operator[]
	movss	xmm0, DWORD PTR tv305[ebp]
	movss	DWORD PTR [eax], xmm0

; 339  : 		Row[2][2] = (float)(-s*tmp1 + c*tmp2);

	movss	xmm0, DWORD PTR _s$[ebp]
	xorps	xmm0, DWORD PTR __xmm@80000000800000008000000080000000
	mulss	xmm0, DWORD PTR _tmp1$[ebp]
	movss	xmm1, DWORD PTR _c$[ebp]
	mulss	xmm1, DWORD PTR _tmp2$[ebp]
	addss	xmm0, xmm1
	push	2
	mov	ecx, 16					; 00000010H
	shl	ecx, 1
	add	ecx, DWORD PTR _this$[ebp]
	movss	DWORD PTR tv307[ebp], xmm0
	call	??AVector4@@QAEAAMH@Z			; Vector4::operator[]
	movss	xmm0, DWORD PTR tv307[ebp]
	movss	DWORD PTR [eax], xmm0

; 340  : 		tmp1 = Row[0][3]; tmp2 = Row[2][3];

	push	3
	mov	ecx, 16					; 00000010H
	imul	ecx, 0
	add	ecx, DWORD PTR _this$[ebp]
	call	??AVector4@@QAEAAMH@Z			; Vector4::operator[]
	movss	xmm0, DWORD PTR [eax]
	movss	DWORD PTR _tmp1$[ebp], xmm0
	push	3
	mov	ecx, 16					; 00000010H
	shl	ecx, 1
	add	ecx, DWORD PTR _this$[ebp]
	call	??AVector4@@QAEAAMH@Z			; Vector4::operator[]
	movss	xmm0, DWORD PTR [eax]
	movss	DWORD PTR _tmp2$[ebp], xmm0

; 341  : 		Row[0][3] = (float)( c*tmp1 + s*tmp2);

	movss	xmm0, DWORD PTR _c$[ebp]
	mulss	xmm0, DWORD PTR _tmp1$[ebp]
	movss	xmm1, DWORD PTR _s$[ebp]
	mulss	xmm1, DWORD PTR _tmp2$[ebp]
	addss	xmm0, xmm1
	push	3
	mov	ecx, 16					; 00000010H
	imul	ecx, 0
	add	ecx, DWORD PTR _this$[ebp]
	movss	DWORD PTR tv309[ebp], xmm0
	call	??AVector4@@QAEAAMH@Z			; Vector4::operator[]
	movss	xmm0, DWORD PTR tv309[ebp]
	movss	DWORD PTR [eax], xmm0

; 342  : 		Row[2][3] = (float)(-s*tmp1 + c*tmp2);

	movss	xmm0, DWORD PTR _s$[ebp]
	xorps	xmm0, DWORD PTR __xmm@80000000800000008000000080000000
	mulss	xmm0, DWORD PTR _tmp1$[ebp]
	movss	xmm1, DWORD PTR _c$[ebp]
	mulss	xmm1, DWORD PTR _tmp2$[ebp]
	addss	xmm0, xmm1
	push	3
	mov	ecx, 16					; 00000010H
	shl	ecx, 1
	add	ecx, DWORD PTR _this$[ebp]
	movss	DWORD PTR tv311[ebp], xmm0
	call	??AVector4@@QAEAAMH@Z			; Vector4::operator[]
	movss	xmm0, DWORD PTR tv311[ebp]
	movss	DWORD PTR [eax], xmm0

; 343  : 	}

	pop	edi
	pop	esi
	pop	ebx
	mov	esp, ebp
	pop	ebp
	ret	4
?Pre_Rotate_Y@Matrix3D@@QAEXM@Z ENDP			; Matrix3D::Pre_Rotate_Y
_TEXT	ENDS
; Function compile flags: /Odtp /ZI
; File x:\github\renegade\dragonade_rxd\scripts\matrix3d.h
;	COMDAT ?Pre_Rotate_X@Matrix3D@@QAEXM@Z
_TEXT	SEGMENT
tv307 = -88						; size = 4
tv305 = -88						; size = 4
tv303 = -88						; size = 4
tv301 = -88						; size = 4
tv299 = -88						; size = 4
tv297 = -88						; size = 4
tv295 = -88						; size = 4
tv293 = -88						; size = 4
_s$ = -20						; size = 4
_c$ = -16						; size = 4
_tmp2$ = -12						; size = 4
_tmp1$ = -8						; size = 4
_this$ = -4						; size = 4
_theta$ = 8						; size = 4
?Pre_Rotate_X@Matrix3D@@QAEXM@Z PROC			; Matrix3D::Pre_Rotate_X, COMDAT
; _this$ = ecx

; 307  : 	{

	push	ebp
	mov	ebp, esp
	sub	esp, 88					; 00000058H
	push	ebx
	push	esi
	push	edi
	mov	DWORD PTR _this$[ebp], ecx

; 308  : 		float tmp1,tmp2;
; 309  : 		float c,s;
; 310  : 		c = cosf(theta);

	push	ecx
	movss	xmm0, DWORD PTR _theta$[ebp]
	movss	DWORD PTR [esp], xmm0
	call	_cosf
	add	esp, 4
	fstp	DWORD PTR _c$[ebp]

; 311  : 		s = sinf(theta);

	push	ecx
	movss	xmm0, DWORD PTR _theta$[ebp]
	movss	DWORD PTR [esp], xmm0
	call	_sinf
	add	esp, 4
	fstp	DWORD PTR _s$[ebp]

; 312  : 		tmp1 = Row[1][0]; tmp2 = Row[2][0];

	push	0
	mov	ecx, 16					; 00000010H
	shl	ecx, 0
	add	ecx, DWORD PTR _this$[ebp]
	call	??AVector4@@QAEAAMH@Z			; Vector4::operator[]
	movss	xmm0, DWORD PTR [eax]
	movss	DWORD PTR _tmp1$[ebp], xmm0
	push	0
	mov	ecx, 16					; 00000010H
	shl	ecx, 1
	add	ecx, DWORD PTR _this$[ebp]
	call	??AVector4@@QAEAAMH@Z			; Vector4::operator[]
	movss	xmm0, DWORD PTR [eax]
	movss	DWORD PTR _tmp2$[ebp], xmm0

; 313  : 		Row[1][0] = (float)(c*tmp1 - s*tmp2);

	movss	xmm0, DWORD PTR _c$[ebp]
	mulss	xmm0, DWORD PTR _tmp1$[ebp]
	movss	xmm1, DWORD PTR _s$[ebp]
	mulss	xmm1, DWORD PTR _tmp2$[ebp]
	subss	xmm0, xmm1
	push	0
	mov	ecx, 16					; 00000010H
	shl	ecx, 0
	add	ecx, DWORD PTR _this$[ebp]
	movss	DWORD PTR tv293[ebp], xmm0
	call	??AVector4@@QAEAAMH@Z			; Vector4::operator[]
	movss	xmm0, DWORD PTR tv293[ebp]
	movss	DWORD PTR [eax], xmm0

; 314  : 		Row[2][0] = (float)(s*tmp1 + c*tmp2);

	movss	xmm0, DWORD PTR _s$[ebp]
	mulss	xmm0, DWORD PTR _tmp1$[ebp]
	movss	xmm1, DWORD PTR _c$[ebp]
	mulss	xmm1, DWORD PTR _tmp2$[ebp]
	addss	xmm0, xmm1
	push	0
	mov	ecx, 16					; 00000010H
	shl	ecx, 1
	add	ecx, DWORD PTR _this$[ebp]
	movss	DWORD PTR tv295[ebp], xmm0
	call	??AVector4@@QAEAAMH@Z			; Vector4::operator[]
	movss	xmm0, DWORD PTR tv295[ebp]
	movss	DWORD PTR [eax], xmm0

; 315  : 		tmp1 = Row[1][1]; tmp2 = Row[2][1];

	push	1
	mov	ecx, 16					; 00000010H
	shl	ecx, 0
	add	ecx, DWORD PTR _this$[ebp]
	call	??AVector4@@QAEAAMH@Z			; Vector4::operator[]
	movss	xmm0, DWORD PTR [eax]
	movss	DWORD PTR _tmp1$[ebp], xmm0
	push	1
	mov	ecx, 16					; 00000010H
	shl	ecx, 1
	add	ecx, DWORD PTR _this$[ebp]
	call	??AVector4@@QAEAAMH@Z			; Vector4::operator[]
	movss	xmm0, DWORD PTR [eax]
	movss	DWORD PTR _tmp2$[ebp], xmm0

; 316  : 		Row[1][1] = (float)(c*tmp1 - s*tmp2);

	movss	xmm0, DWORD PTR _c$[ebp]
	mulss	xmm0, DWORD PTR _tmp1$[ebp]
	movss	xmm1, DWORD PTR _s$[ebp]
	mulss	xmm1, DWORD PTR _tmp2$[ebp]
	subss	xmm0, xmm1
	push	1
	mov	ecx, 16					; 00000010H
	shl	ecx, 0
	add	ecx, DWORD PTR _this$[ebp]
	movss	DWORD PTR tv297[ebp], xmm0
	call	??AVector4@@QAEAAMH@Z			; Vector4::operator[]
	movss	xmm0, DWORD PTR tv297[ebp]
	movss	DWORD PTR [eax], xmm0

; 317  : 		Row[2][1] = (float)(s*tmp1 + c*tmp2);

	movss	xmm0, DWORD PTR _s$[ebp]
	mulss	xmm0, DWORD PTR _tmp1$[ebp]
	movss	xmm1, DWORD PTR _c$[ebp]
	mulss	xmm1, DWORD PTR _tmp2$[ebp]
	addss	xmm0, xmm1
	push	1
	mov	ecx, 16					; 00000010H
	shl	ecx, 1
	add	ecx, DWORD PTR _this$[ebp]
	movss	DWORD PTR tv299[ebp], xmm0
	call	??AVector4@@QAEAAMH@Z			; Vector4::operator[]
	movss	xmm0, DWORD PTR tv299[ebp]
	movss	DWORD PTR [eax], xmm0

; 318  : 		tmp1 = Row[1][2]; tmp2 = Row[2][2];

	push	2
	mov	ecx, 16					; 00000010H
	shl	ecx, 0
	add	ecx, DWORD PTR _this$[ebp]
	call	??AVector4@@QAEAAMH@Z			; Vector4::operator[]
	movss	xmm0, DWORD PTR [eax]
	movss	DWORD PTR _tmp1$[ebp], xmm0
	push	2
	mov	ecx, 16					; 00000010H
	shl	ecx, 1
	add	ecx, DWORD PTR _this$[ebp]
	call	??AVector4@@QAEAAMH@Z			; Vector4::operator[]
	movss	xmm0, DWORD PTR [eax]
	movss	DWORD PTR _tmp2$[ebp], xmm0

; 319  : 		Row[1][2] = (float)(c*tmp1 - s*tmp2);

	movss	xmm0, DWORD PTR _c$[ebp]
	mulss	xmm0, DWORD PTR _tmp1$[ebp]
	movss	xmm1, DWORD PTR _s$[ebp]
	mulss	xmm1, DWORD PTR _tmp2$[ebp]
	subss	xmm0, xmm1
	push	2
	mov	ecx, 16					; 00000010H
	shl	ecx, 0
	add	ecx, DWORD PTR _this$[ebp]
	movss	DWORD PTR tv301[ebp], xmm0
	call	??AVector4@@QAEAAMH@Z			; Vector4::operator[]
	movss	xmm0, DWORD PTR tv301[ebp]
	movss	DWORD PTR [eax], xmm0

; 320  : 		Row[2][2] = (float)(s*tmp1 + c*tmp2);

	movss	xmm0, DWORD PTR _s$[ebp]
	mulss	xmm0, DWORD PTR _tmp1$[ebp]
	movss	xmm1, DWORD PTR _c$[ebp]
	mulss	xmm1, DWORD PTR _tmp2$[ebp]
	addss	xmm0, xmm1
	push	2
	mov	ecx, 16					; 00000010H
	shl	ecx, 1
	add	ecx, DWORD PTR _this$[ebp]
	movss	DWORD PTR tv303[ebp], xmm0
	call	??AVector4@@QAEAAMH@Z			; Vector4::operator[]
	movss	xmm0, DWORD PTR tv303[ebp]
	movss	DWORD PTR [eax], xmm0

; 321  : 		tmp1 = Row[1][3]; tmp2 = Row[2][3];

	push	3
	mov	ecx, 16					; 00000010H
	shl	ecx, 0
	add	ecx, DWORD PTR _this$[ebp]
	call	??AVector4@@QAEAAMH@Z			; Vector4::operator[]
	movss	xmm0, DWORD PTR [eax]
	movss	DWORD PTR _tmp1$[ebp], xmm0
	push	3
	mov	ecx, 16					; 00000010H
	shl	ecx, 1
	add	ecx, DWORD PTR _this$[ebp]
	call	??AVector4@@QAEAAMH@Z			; Vector4::operator[]
	movss	xmm0, DWORD PTR [eax]
	movss	DWORD PTR _tmp2$[ebp], xmm0

; 322  : 		Row[1][3] = (float)(c*tmp1 - s*tmp2);

	movss	xmm0, DWORD PTR _c$[ebp]
	mulss	xmm0, DWORD PTR _tmp1$[ebp]
	movss	xmm1, DWORD PTR _s$[ebp]
	mulss	xmm1, DWORD PTR _tmp2$[ebp]
	subss	xmm0, xmm1
	push	3
	mov	ecx, 16					; 00000010H
	shl	ecx, 0
	add	ecx, DWORD PTR _this$[ebp]
	movss	DWORD PTR tv305[ebp], xmm0
	call	??AVector4@@QAEAAMH@Z			; Vector4::operator[]
	movss	xmm0, DWORD PTR tv305[ebp]
	movss	DWORD PTR [eax], xmm0

; 323  : 		Row[2][3] = (float)(s*tmp1 + c*tmp2);

	movss	xmm0, DWORD PTR _s$[ebp]
	mulss	xmm0, DWORD PTR _tmp1$[ebp]
	movss	xmm1, DWORD PTR _c$[ebp]
	mulss	xmm1, DWORD PTR _tmp2$[ebp]
	addss	xmm0, xmm1
	push	3
	mov	ecx, 16					; 00000010H
	shl	ecx, 1
	add	ecx, DWORD PTR _this$[ebp]
	movss	DWORD PTR tv307[ebp], xmm0
	call	??AVector4@@QAEAAMH@Z			; Vector4::operator[]
	movss	xmm0, DWORD PTR tv307[ebp]
	movss	DWORD PTR [eax], xmm0

; 324  : 	}

	pop	edi
	pop	esi
	pop	ebx
	mov	esp, ebp
	pop	ebp
	ret	4
?Pre_Rotate_X@Matrix3D@@QAEXM@Z ENDP			; Matrix3D::Pre_Rotate_X
_TEXT	ENDS
; Function compile flags: /Odtp /ZI
; File x:\github\renegade\dragonade_rxd\scripts\matrix3d.h
;	COMDAT ?Scale@Matrix3D@@QAEXAAVVector3@@@Z
_TEXT	SEGMENT
_this$ = -4						; size = 4
_scale$ = 8						; size = 4
?Scale@Matrix3D@@QAEXAAVVector3@@@Z PROC		; Matrix3D::Scale, COMDAT
; _this$ = ecx

; 303  : 	{

	push	ebp
	mov	ebp, esp
	sub	esp, 68					; 00000044H
	push	ebx
	push	esi
	push	edi
	mov	DWORD PTR _this$[ebp], ecx

; 304  : 		Scale(scale.X, scale.Y, scale.Z);

	mov	eax, DWORD PTR _scale$[ebp]
	push	ecx
	movss	xmm0, DWORD PTR [eax+8]
	movss	DWORD PTR [esp], xmm0
	mov	ecx, DWORD PTR _scale$[ebp]
	push	ecx
	movss	xmm0, DWORD PTR [ecx+4]
	movss	DWORD PTR [esp], xmm0
	mov	edx, DWORD PTR _scale$[ebp]
	push	ecx
	movss	xmm0, DWORD PTR [edx]
	movss	DWORD PTR [esp], xmm0
	mov	ecx, DWORD PTR _this$[ebp]
	call	?Scale@Matrix3D@@QAEXMMM@Z		; Matrix3D::Scale

; 305  : 	}

	pop	edi
	pop	esi
	pop	ebx
	mov	esp, ebp
	pop	ebp
	ret	4
?Scale@Matrix3D@@QAEXAAVVector3@@@Z ENDP		; Matrix3D::Scale
_TEXT	ENDS
; Function compile flags: /Odtp /ZI
; File x:\github\renegade\dragonade_rxd\scripts\matrix3d.h
;	COMDAT ?Scale@Matrix3D@@QAEXMMM@Z
_TEXT	SEGMENT
tv166 = -72						; size = 4
tv158 = -72						; size = 4
tv150 = -72						; size = 4
tv142 = -72						; size = 4
tv134 = -72						; size = 4
tv94 = -72						; size = 4
tv86 = -72						; size = 4
tv78 = -72						; size = 4
tv70 = -72						; size = 4
_this$ = -4						; size = 4
_x$ = 8							; size = 4
_y$ = 12						; size = 4
_z$ = 16						; size = 4
?Scale@Matrix3D@@QAEXMMM@Z PROC				; Matrix3D::Scale, COMDAT
; _this$ = ecx

; 291  : 	{

	push	ebp
	mov	ebp, esp
	sub	esp, 72					; 00000048H
	push	ebx
	push	esi
	push	edi
	mov	DWORD PTR _this$[ebp], ecx

; 292  : 		Row[0][0] *= x;

	push	0
	mov	ecx, 16					; 00000010H
	imul	ecx, 0
	add	ecx, DWORD PTR _this$[ebp]
	call	??AVector4@@QAEAAMH@Z			; Vector4::operator[]
	mov	DWORD PTR tv70[ebp], eax
	mov	eax, DWORD PTR tv70[ebp]
	movss	xmm0, DWORD PTR [eax]
	mulss	xmm0, DWORD PTR _x$[ebp]
	mov	ecx, DWORD PTR tv70[ebp]
	movss	DWORD PTR [ecx], xmm0

; 293  : 		Row[1][0] *= x;

	push	0
	mov	ecx, 16					; 00000010H
	shl	ecx, 0
	add	ecx, DWORD PTR _this$[ebp]
	call	??AVector4@@QAEAAMH@Z			; Vector4::operator[]
	mov	DWORD PTR tv78[ebp], eax
	mov	eax, DWORD PTR tv78[ebp]
	movss	xmm0, DWORD PTR [eax]
	mulss	xmm0, DWORD PTR _x$[ebp]
	mov	ecx, DWORD PTR tv78[ebp]
	movss	DWORD PTR [ecx], xmm0

; 294  : 		Row[2][0] *= x;

	push	0
	mov	ecx, 16					; 00000010H
	shl	ecx, 1
	add	ecx, DWORD PTR _this$[ebp]
	call	??AVector4@@QAEAAMH@Z			; Vector4::operator[]
	mov	DWORD PTR tv86[ebp], eax
	mov	eax, DWORD PTR tv86[ebp]
	movss	xmm0, DWORD PTR [eax]
	mulss	xmm0, DWORD PTR _x$[ebp]
	mov	ecx, DWORD PTR tv86[ebp]
	movss	DWORD PTR [ecx], xmm0

; 295  : 		Row[0][1] *= y;

	push	1
	mov	ecx, 16					; 00000010H
	imul	ecx, 0
	add	ecx, DWORD PTR _this$[ebp]
	call	??AVector4@@QAEAAMH@Z			; Vector4::operator[]
	mov	DWORD PTR tv94[ebp], eax
	mov	eax, DWORD PTR tv94[ebp]
	movss	xmm0, DWORD PTR [eax]
	mulss	xmm0, DWORD PTR _y$[ebp]
	mov	ecx, DWORD PTR tv94[ebp]
	movss	DWORD PTR [ecx], xmm0

; 296  : 		Row[1][1] *= y;

	push	1
	mov	ecx, 16					; 00000010H
	shl	ecx, 0
	add	ecx, DWORD PTR _this$[ebp]
	call	??AVector4@@QAEAAMH@Z			; Vector4::operator[]
	mov	DWORD PTR tv134[ebp], eax
	mov	eax, DWORD PTR tv134[ebp]
	movss	xmm0, DWORD PTR [eax]
	mulss	xmm0, DWORD PTR _y$[ebp]
	mov	ecx, DWORD PTR tv134[ebp]
	movss	DWORD PTR [ecx], xmm0

; 297  : 		Row[2][1] *= y;

	push	1
	mov	ecx, 16					; 00000010H
	shl	ecx, 1
	add	ecx, DWORD PTR _this$[ebp]
	call	??AVector4@@QAEAAMH@Z			; Vector4::operator[]
	mov	DWORD PTR tv142[ebp], eax
	mov	eax, DWORD PTR tv142[ebp]
	movss	xmm0, DWORD PTR [eax]
	mulss	xmm0, DWORD PTR _y$[ebp]
	mov	ecx, DWORD PTR tv142[ebp]
	movss	DWORD PTR [ecx], xmm0

; 298  : 		Row[0][2] *= z;

	push	2
	mov	ecx, 16					; 00000010H
	imul	ecx, 0
	add	ecx, DWORD PTR _this$[ebp]
	call	??AVector4@@QAEAAMH@Z			; Vector4::operator[]
	mov	DWORD PTR tv150[ebp], eax
	mov	eax, DWORD PTR tv150[ebp]
	movss	xmm0, DWORD PTR [eax]
	mulss	xmm0, DWORD PTR _z$[ebp]
	mov	ecx, DWORD PTR tv150[ebp]
	movss	DWORD PTR [ecx], xmm0

; 299  : 		Row[1][2] *= z;

	push	2
	mov	ecx, 16					; 00000010H
	shl	ecx, 0
	add	ecx, DWORD PTR _this$[ebp]
	call	??AVector4@@QAEAAMH@Z			; Vector4::operator[]
	mov	DWORD PTR tv158[ebp], eax
	mov	eax, DWORD PTR tv158[ebp]
	movss	xmm0, DWORD PTR [eax]
	mulss	xmm0, DWORD PTR _z$[ebp]
	mov	ecx, DWORD PTR tv158[ebp]
	movss	DWORD PTR [ecx], xmm0

; 300  : 		Row[2][2] *= z;

	push	2
	mov	ecx, 16					; 00000010H
	shl	ecx, 1
	add	ecx, DWORD PTR _this$[ebp]
	call	??AVector4@@QAEAAMH@Z			; Vector4::operator[]
	mov	DWORD PTR tv166[ebp], eax
	mov	eax, DWORD PTR tv166[ebp]
	movss	xmm0, DWORD PTR [eax]
	mulss	xmm0, DWORD PTR _z$[ebp]
	mov	ecx, DWORD PTR tv166[ebp]
	movss	DWORD PTR [ecx], xmm0

; 301  : 	}

	pop	edi
	pop	esi
	pop	ebx
	mov	esp, ebp
	pop	ebp
	ret	12					; 0000000cH
?Scale@Matrix3D@@QAEXMMM@Z ENDP				; Matrix3D::Scale
_TEXT	ENDS
; Function compile flags: /Odtp /ZI
; File x:\github\renegade\dragonade_rxd\scripts\matrix3d.h
;	COMDAT ?Scale@Matrix3D@@QAEXM@Z
_TEXT	SEGMENT
tv166 = -72						; size = 4
tv158 = -72						; size = 4
tv150 = -72						; size = 4
tv142 = -72						; size = 4
tv134 = -72						; size = 4
tv94 = -72						; size = 4
tv86 = -72						; size = 4
tv78 = -72						; size = 4
tv70 = -72						; size = 4
_this$ = -4						; size = 4
_scale$ = 8						; size = 4
?Scale@Matrix3D@@QAEXM@Z PROC				; Matrix3D::Scale, COMDAT
; _this$ = ecx

; 279  : 	{

	push	ebp
	mov	ebp, esp
	sub	esp, 72					; 00000048H
	push	ebx
	push	esi
	push	edi
	mov	DWORD PTR _this$[ebp], ecx

; 280  : 		Row[0][0] *= scale;

	push	0
	mov	ecx, 16					; 00000010H
	imul	ecx, 0
	add	ecx, DWORD PTR _this$[ebp]
	call	??AVector4@@QAEAAMH@Z			; Vector4::operator[]
	mov	DWORD PTR tv70[ebp], eax
	mov	eax, DWORD PTR tv70[ebp]
	movss	xmm0, DWORD PTR [eax]
	mulss	xmm0, DWORD PTR _scale$[ebp]
	mov	ecx, DWORD PTR tv70[ebp]
	movss	DWORD PTR [ecx], xmm0

; 281  : 		Row[1][0] *= scale;

	push	0
	mov	ecx, 16					; 00000010H
	shl	ecx, 0
	add	ecx, DWORD PTR _this$[ebp]
	call	??AVector4@@QAEAAMH@Z			; Vector4::operator[]
	mov	DWORD PTR tv78[ebp], eax
	mov	eax, DWORD PTR tv78[ebp]
	movss	xmm0, DWORD PTR [eax]
	mulss	xmm0, DWORD PTR _scale$[ebp]
	mov	ecx, DWORD PTR tv78[ebp]
	movss	DWORD PTR [ecx], xmm0

; 282  : 		Row[2][0] *= scale;

	push	0
	mov	ecx, 16					; 00000010H
	shl	ecx, 1
	add	ecx, DWORD PTR _this$[ebp]
	call	??AVector4@@QAEAAMH@Z			; Vector4::operator[]
	mov	DWORD PTR tv86[ebp], eax
	mov	eax, DWORD PTR tv86[ebp]
	movss	xmm0, DWORD PTR [eax]
	mulss	xmm0, DWORD PTR _scale$[ebp]
	mov	ecx, DWORD PTR tv86[ebp]
	movss	DWORD PTR [ecx], xmm0

; 283  : 		Row[0][1] *= scale;

	push	1
	mov	ecx, 16					; 00000010H
	imul	ecx, 0
	add	ecx, DWORD PTR _this$[ebp]
	call	??AVector4@@QAEAAMH@Z			; Vector4::operator[]
	mov	DWORD PTR tv94[ebp], eax
	mov	eax, DWORD PTR tv94[ebp]
	movss	xmm0, DWORD PTR [eax]
	mulss	xmm0, DWORD PTR _scale$[ebp]
	mov	ecx, DWORD PTR tv94[ebp]
	movss	DWORD PTR [ecx], xmm0

; 284  : 		Row[1][1] *= scale;

	push	1
	mov	ecx, 16					; 00000010H
	shl	ecx, 0
	add	ecx, DWORD PTR _this$[ebp]
	call	??AVector4@@QAEAAMH@Z			; Vector4::operator[]
	mov	DWORD PTR tv134[ebp], eax
	mov	eax, DWORD PTR tv134[ebp]
	movss	xmm0, DWORD PTR [eax]
	mulss	xmm0, DWORD PTR _scale$[ebp]
	mov	ecx, DWORD PTR tv134[ebp]
	movss	DWORD PTR [ecx], xmm0

; 285  : 		Row[2][1] *= scale;

	push	1
	mov	ecx, 16					; 00000010H
	shl	ecx, 1
	add	ecx, DWORD PTR _this$[ebp]
	call	??AVector4@@QAEAAMH@Z			; Vector4::operator[]
	mov	DWORD PTR tv142[ebp], eax
	mov	eax, DWORD PTR tv142[ebp]
	movss	xmm0, DWORD PTR [eax]
	mulss	xmm0, DWORD PTR _scale$[ebp]
	mov	ecx, DWORD PTR tv142[ebp]
	movss	DWORD PTR [ecx], xmm0

; 286  : 		Row[0][2] *= scale;

	push	2
	mov	ecx, 16					; 00000010H
	imul	ecx, 0
	add	ecx, DWORD PTR _this$[ebp]
	call	??AVector4@@QAEAAMH@Z			; Vector4::operator[]
	mov	DWORD PTR tv150[ebp], eax
	mov	eax, DWORD PTR tv150[ebp]
	movss	xmm0, DWORD PTR [eax]
	mulss	xmm0, DWORD PTR _scale$[ebp]
	mov	ecx, DWORD PTR tv150[ebp]
	movss	DWORD PTR [ecx], xmm0

; 287  : 		Row[1][2] *= scale;

	push	2
	mov	ecx, 16					; 00000010H
	shl	ecx, 0
	add	ecx, DWORD PTR _this$[ebp]
	call	??AVector4@@QAEAAMH@Z			; Vector4::operator[]
	mov	DWORD PTR tv158[ebp], eax
	mov	eax, DWORD PTR tv158[ebp]
	movss	xmm0, DWORD PTR [eax]
	mulss	xmm0, DWORD PTR _scale$[ebp]
	mov	ecx, DWORD PTR tv158[ebp]
	movss	DWORD PTR [ecx], xmm0

; 288  : 		Row[2][2] *= scale;

	push	2
	mov	ecx, 16					; 00000010H
	shl	ecx, 1
	add	ecx, DWORD PTR _this$[ebp]
	call	??AVector4@@QAEAAMH@Z			; Vector4::operator[]
	mov	DWORD PTR tv166[ebp], eax
	mov	eax, DWORD PTR tv166[ebp]
	movss	xmm0, DWORD PTR [eax]
	mulss	xmm0, DWORD PTR _scale$[ebp]
	mov	ecx, DWORD PTR tv166[ebp]
	movss	DWORD PTR [ecx], xmm0

; 289  : 	}

	pop	edi
	pop	esi
	pop	ebx
	mov	esp, ebp
	pop	ebp
	ret	4
?Scale@Matrix3D@@QAEXM@Z ENDP				; Matrix3D::Scale
_TEXT	ENDS
; Function compile flags: /Odtp /ZI
; File x:\github\renegade\dragonade_rxd\scripts\matrix3d.h
;	COMDAT ?Rotate_Z@Matrix3D@@QAEXMM@Z
_TEXT	SEGMENT
tv248 = -80						; size = 4
tv246 = -80						; size = 4
tv244 = -80						; size = 4
tv242 = -80						; size = 4
tv240 = -80						; size = 4
tv238 = -80						; size = 4
_tmp2$ = -12						; size = 4
_tmp1$ = -8						; size = 4
_this$ = -4						; size = 4
_s$ = 8							; size = 4
_c$ = 12						; size = 4
?Rotate_Z@Matrix3D@@QAEXMM@Z PROC			; Matrix3D::Rotate_Z, COMDAT
; _this$ = ecx

; 266  : 	{

	push	ebp
	mov	ebp, esp
	sub	esp, 80					; 00000050H
	push	ebx
	push	esi
	push	edi
	mov	DWORD PTR _this$[ebp], ecx

; 267  : 		float tmp1,tmp2;
; 268  : 		tmp1 = Row[0][0]; tmp2 = Row[0][1];

	push	0
	mov	ecx, 16					; 00000010H
	imul	ecx, 0
	add	ecx, DWORD PTR _this$[ebp]
	call	??AVector4@@QAEAAMH@Z			; Vector4::operator[]
	movss	xmm0, DWORD PTR [eax]
	movss	DWORD PTR _tmp1$[ebp], xmm0
	push	1
	mov	ecx, 16					; 00000010H
	imul	ecx, 0
	add	ecx, DWORD PTR _this$[ebp]
	call	??AVector4@@QAEAAMH@Z			; Vector4::operator[]
	movss	xmm0, DWORD PTR [eax]
	movss	DWORD PTR _tmp2$[ebp], xmm0

; 269  : 		Row[0][0] = (float)( c*tmp1 + s*tmp2);

	movss	xmm0, DWORD PTR _c$[ebp]
	mulss	xmm0, DWORD PTR _tmp1$[ebp]
	movss	xmm1, DWORD PTR _s$[ebp]
	mulss	xmm1, DWORD PTR _tmp2$[ebp]
	addss	xmm0, xmm1
	push	0
	mov	ecx, 16					; 00000010H
	imul	ecx, 0
	add	ecx, DWORD PTR _this$[ebp]
	movss	DWORD PTR tv238[ebp], xmm0
	call	??AVector4@@QAEAAMH@Z			; Vector4::operator[]
	movss	xmm0, DWORD PTR tv238[ebp]
	movss	DWORD PTR [eax], xmm0

; 270  : 		Row[0][1] = (float)(-s*tmp1 + c*tmp2);

	movss	xmm0, DWORD PTR _s$[ebp]
	xorps	xmm0, DWORD PTR __xmm@80000000800000008000000080000000
	mulss	xmm0, DWORD PTR _tmp1$[ebp]
	movss	xmm1, DWORD PTR _c$[ebp]
	mulss	xmm1, DWORD PTR _tmp2$[ebp]
	addss	xmm0, xmm1
	push	1
	mov	ecx, 16					; 00000010H
	imul	ecx, 0
	add	ecx, DWORD PTR _this$[ebp]
	movss	DWORD PTR tv240[ebp], xmm0
	call	??AVector4@@QAEAAMH@Z			; Vector4::operator[]
	movss	xmm0, DWORD PTR tv240[ebp]
	movss	DWORD PTR [eax], xmm0

; 271  : 		tmp1 = Row[1][0]; tmp2 = Row[1][1];

	push	0
	mov	ecx, 16					; 00000010H
	shl	ecx, 0
	add	ecx, DWORD PTR _this$[ebp]
	call	??AVector4@@QAEAAMH@Z			; Vector4::operator[]
	movss	xmm0, DWORD PTR [eax]
	movss	DWORD PTR _tmp1$[ebp], xmm0
	push	1
	mov	ecx, 16					; 00000010H
	shl	ecx, 0
	add	ecx, DWORD PTR _this$[ebp]
	call	??AVector4@@QAEAAMH@Z			; Vector4::operator[]
	movss	xmm0, DWORD PTR [eax]
	movss	DWORD PTR _tmp2$[ebp], xmm0

; 272  : 		Row[1][0] = (float)( c*tmp1 + s*tmp2);

	movss	xmm0, DWORD PTR _c$[ebp]
	mulss	xmm0, DWORD PTR _tmp1$[ebp]
	movss	xmm1, DWORD PTR _s$[ebp]
	mulss	xmm1, DWORD PTR _tmp2$[ebp]
	addss	xmm0, xmm1
	push	0
	mov	ecx, 16					; 00000010H
	shl	ecx, 0
	add	ecx, DWORD PTR _this$[ebp]
	movss	DWORD PTR tv242[ebp], xmm0
	call	??AVector4@@QAEAAMH@Z			; Vector4::operator[]
	movss	xmm0, DWORD PTR tv242[ebp]
	movss	DWORD PTR [eax], xmm0

; 273  : 		Row[1][1] = (float)(-s*tmp1 + c*tmp2);

	movss	xmm0, DWORD PTR _s$[ebp]
	xorps	xmm0, DWORD PTR __xmm@80000000800000008000000080000000
	mulss	xmm0, DWORD PTR _tmp1$[ebp]
	movss	xmm1, DWORD PTR _c$[ebp]
	mulss	xmm1, DWORD PTR _tmp2$[ebp]
	addss	xmm0, xmm1
	push	1
	mov	ecx, 16					; 00000010H
	shl	ecx, 0
	add	ecx, DWORD PTR _this$[ebp]
	movss	DWORD PTR tv244[ebp], xmm0
	call	??AVector4@@QAEAAMH@Z			; Vector4::operator[]
	movss	xmm0, DWORD PTR tv244[ebp]
	movss	DWORD PTR [eax], xmm0

; 274  : 		tmp1 = Row[2][0]; tmp2 = Row[2][1];

	push	0
	mov	ecx, 16					; 00000010H
	shl	ecx, 1
	add	ecx, DWORD PTR _this$[ebp]
	call	??AVector4@@QAEAAMH@Z			; Vector4::operator[]
	movss	xmm0, DWORD PTR [eax]
	movss	DWORD PTR _tmp1$[ebp], xmm0
	push	1
	mov	ecx, 16					; 00000010H
	shl	ecx, 1
	add	ecx, DWORD PTR _this$[ebp]
	call	??AVector4@@QAEAAMH@Z			; Vector4::operator[]
	movss	xmm0, DWORD PTR [eax]
	movss	DWORD PTR _tmp2$[ebp], xmm0

; 275  : 		Row[2][0] = (float)( c*tmp1 + s*tmp2);

	movss	xmm0, DWORD PTR _c$[ebp]
	mulss	xmm0, DWORD PTR _tmp1$[ebp]
	movss	xmm1, DWORD PTR _s$[ebp]
	mulss	xmm1, DWORD PTR _tmp2$[ebp]
	addss	xmm0, xmm1
	push	0
	mov	ecx, 16					; 00000010H
	shl	ecx, 1
	add	ecx, DWORD PTR _this$[ebp]
	movss	DWORD PTR tv246[ebp], xmm0
	call	??AVector4@@QAEAAMH@Z			; Vector4::operator[]
	movss	xmm0, DWORD PTR tv246[ebp]
	movss	DWORD PTR [eax], xmm0

; 276  : 		Row[2][1] = (float)(-s*tmp1 + c*tmp2);

	movss	xmm0, DWORD PTR _s$[ebp]
	xorps	xmm0, DWORD PTR __xmm@80000000800000008000000080000000
	mulss	xmm0, DWORD PTR _tmp1$[ebp]
	movss	xmm1, DWORD PTR _c$[ebp]
	mulss	xmm1, DWORD PTR _tmp2$[ebp]
	addss	xmm0, xmm1
	push	1
	mov	ecx, 16					; 00000010H
	shl	ecx, 1
	add	ecx, DWORD PTR _this$[ebp]
	movss	DWORD PTR tv248[ebp], xmm0
	call	??AVector4@@QAEAAMH@Z			; Vector4::operator[]
	movss	xmm0, DWORD PTR tv248[ebp]
	movss	DWORD PTR [eax], xmm0

; 277  : 	}

	pop	edi
	pop	esi
	pop	ebx
	mov	esp, ebp
	pop	ebp
	ret	8
?Rotate_Z@Matrix3D@@QAEXMM@Z ENDP			; Matrix3D::Rotate_Z
_TEXT	ENDS
; Function compile flags: /Odtp /ZI
; File x:\github\renegade\dragonade_rxd\scripts\matrix3d.h
;	COMDAT ?Rotate_Y@Matrix3D@@QAEXMM@Z
_TEXT	SEGMENT
tv245 = -80						; size = 4
tv243 = -80						; size = 4
tv241 = -80						; size = 4
tv239 = -80						; size = 4
tv237 = -80						; size = 4
tv235 = -80						; size = 4
_tmp2$ = -12						; size = 4
_tmp1$ = -8						; size = 4
_this$ = -4						; size = 4
_s$ = 8							; size = 4
_c$ = 12						; size = 4
?Rotate_Y@Matrix3D@@QAEXMM@Z PROC			; Matrix3D::Rotate_Y, COMDAT
; _this$ = ecx

; 253  : 	{

	push	ebp
	mov	ebp, esp
	sub	esp, 80					; 00000050H
	push	ebx
	push	esi
	push	edi
	mov	DWORD PTR _this$[ebp], ecx

; 254  : 		float tmp1,tmp2;
; 255  : 		tmp1 = Row[0][0]; tmp2 = Row[0][2];

	push	0
	mov	ecx, 16					; 00000010H
	imul	ecx, 0
	add	ecx, DWORD PTR _this$[ebp]
	call	??AVector4@@QAEAAMH@Z			; Vector4::operator[]
	movss	xmm0, DWORD PTR [eax]
	movss	DWORD PTR _tmp1$[ebp], xmm0
	push	2
	mov	ecx, 16					; 00000010H
	imul	ecx, 0
	add	ecx, DWORD PTR _this$[ebp]
	call	??AVector4@@QAEAAMH@Z			; Vector4::operator[]
	movss	xmm0, DWORD PTR [eax]
	movss	DWORD PTR _tmp2$[ebp], xmm0

; 256  : 		Row[0][0] = (float)(c*tmp1 - s*tmp2);

	movss	xmm0, DWORD PTR _c$[ebp]
	mulss	xmm0, DWORD PTR _tmp1$[ebp]
	movss	xmm1, DWORD PTR _s$[ebp]
	mulss	xmm1, DWORD PTR _tmp2$[ebp]
	subss	xmm0, xmm1
	push	0
	mov	ecx, 16					; 00000010H
	imul	ecx, 0
	add	ecx, DWORD PTR _this$[ebp]
	movss	DWORD PTR tv235[ebp], xmm0
	call	??AVector4@@QAEAAMH@Z			; Vector4::operator[]
	movss	xmm0, DWORD PTR tv235[ebp]
	movss	DWORD PTR [eax], xmm0

; 257  : 		Row[0][2] = (float)(s*tmp1 + c*tmp2);

	movss	xmm0, DWORD PTR _s$[ebp]
	mulss	xmm0, DWORD PTR _tmp1$[ebp]
	movss	xmm1, DWORD PTR _c$[ebp]
	mulss	xmm1, DWORD PTR _tmp2$[ebp]
	addss	xmm0, xmm1
	push	2
	mov	ecx, 16					; 00000010H
	imul	ecx, 0
	add	ecx, DWORD PTR _this$[ebp]
	movss	DWORD PTR tv237[ebp], xmm0
	call	??AVector4@@QAEAAMH@Z			; Vector4::operator[]
	movss	xmm0, DWORD PTR tv237[ebp]
	movss	DWORD PTR [eax], xmm0

; 258  : 		tmp1 = Row[1][0]; tmp2 = Row[1][2];

	push	0
	mov	ecx, 16					; 00000010H
	shl	ecx, 0
	add	ecx, DWORD PTR _this$[ebp]
	call	??AVector4@@QAEAAMH@Z			; Vector4::operator[]
	movss	xmm0, DWORD PTR [eax]
	movss	DWORD PTR _tmp1$[ebp], xmm0
	push	2
	mov	ecx, 16					; 00000010H
	shl	ecx, 0
	add	ecx, DWORD PTR _this$[ebp]
	call	??AVector4@@QAEAAMH@Z			; Vector4::operator[]
	movss	xmm0, DWORD PTR [eax]
	movss	DWORD PTR _tmp2$[ebp], xmm0

; 259  : 		Row[1][0] = (float)(c*tmp1 - s*tmp2);

	movss	xmm0, DWORD PTR _c$[ebp]
	mulss	xmm0, DWORD PTR _tmp1$[ebp]
	movss	xmm1, DWORD PTR _s$[ebp]
	mulss	xmm1, DWORD PTR _tmp2$[ebp]
	subss	xmm0, xmm1
	push	0
	mov	ecx, 16					; 00000010H
	shl	ecx, 0
	add	ecx, DWORD PTR _this$[ebp]
	movss	DWORD PTR tv239[ebp], xmm0
	call	??AVector4@@QAEAAMH@Z			; Vector4::operator[]
	movss	xmm0, DWORD PTR tv239[ebp]
	movss	DWORD PTR [eax], xmm0

; 260  : 		Row[1][2] = (float)(s*tmp1 + c*tmp2);

	movss	xmm0, DWORD PTR _s$[ebp]
	mulss	xmm0, DWORD PTR _tmp1$[ebp]
	movss	xmm1, DWORD PTR _c$[ebp]
	mulss	xmm1, DWORD PTR _tmp2$[ebp]
	addss	xmm0, xmm1
	push	2
	mov	ecx, 16					; 00000010H
	shl	ecx, 0
	add	ecx, DWORD PTR _this$[ebp]
	movss	DWORD PTR tv241[ebp], xmm0
	call	??AVector4@@QAEAAMH@Z			; Vector4::operator[]
	movss	xmm0, DWORD PTR tv241[ebp]
	movss	DWORD PTR [eax], xmm0

; 261  : 		tmp1 = Row[2][0]; tmp2 = Row[2][2];

	push	0
	mov	ecx, 16					; 00000010H
	shl	ecx, 1
	add	ecx, DWORD PTR _this$[ebp]
	call	??AVector4@@QAEAAMH@Z			; Vector4::operator[]
	movss	xmm0, DWORD PTR [eax]
	movss	DWORD PTR _tmp1$[ebp], xmm0
	push	2
	mov	ecx, 16					; 00000010H
	shl	ecx, 1
	add	ecx, DWORD PTR _this$[ebp]
	call	??AVector4@@QAEAAMH@Z			; Vector4::operator[]
	movss	xmm0, DWORD PTR [eax]
	movss	DWORD PTR _tmp2$[ebp], xmm0

; 262  : 		Row[2][0] = (float)(c*tmp1 - s*tmp2);

	movss	xmm0, DWORD PTR _c$[ebp]
	mulss	xmm0, DWORD PTR _tmp1$[ebp]
	movss	xmm1, DWORD PTR _s$[ebp]
	mulss	xmm1, DWORD PTR _tmp2$[ebp]
	subss	xmm0, xmm1
	push	0
	mov	ecx, 16					; 00000010H
	shl	ecx, 1
	add	ecx, DWORD PTR _this$[ebp]
	movss	DWORD PTR tv243[ebp], xmm0
	call	??AVector4@@QAEAAMH@Z			; Vector4::operator[]
	movss	xmm0, DWORD PTR tv243[ebp]
	movss	DWORD PTR [eax], xmm0

; 263  : 		Row[2][2] = (float)(s*tmp1 + c*tmp2);

	movss	xmm0, DWORD PTR _s$[ebp]
	mulss	xmm0, DWORD PTR _tmp1$[ebp]
	movss	xmm1, DWORD PTR _c$[ebp]
	mulss	xmm1, DWORD PTR _tmp2$[ebp]
	addss	xmm0, xmm1
	push	2
	mov	ecx, 16					; 00000010H
	shl	ecx, 1
	add	ecx, DWORD PTR _this$[ebp]
	movss	DWORD PTR tv245[ebp], xmm0
	call	??AVector4@@QAEAAMH@Z			; Vector4::operator[]
	movss	xmm0, DWORD PTR tv245[ebp]
	movss	DWORD PTR [eax], xmm0

; 264  : 	}

	pop	edi
	pop	esi
	pop	ebx
	mov	esp, ebp
	pop	ebp
	ret	8
?Rotate_Y@Matrix3D@@QAEXMM@Z ENDP			; Matrix3D::Rotate_Y
_TEXT	ENDS
; Function compile flags: /Odtp /ZI
; File x:\github\renegade\dragonade_rxd\scripts\matrix3d.h
;	COMDAT ?Rotate_X@Matrix3D@@QAEXMM@Z
_TEXT	SEGMENT
tv248 = -80						; size = 4
tv246 = -80						; size = 4
tv244 = -80						; size = 4
tv242 = -80						; size = 4
tv240 = -80						; size = 4
tv238 = -80						; size = 4
_tmp2$ = -12						; size = 4
_tmp1$ = -8						; size = 4
_this$ = -4						; size = 4
_s$ = 8							; size = 4
_c$ = 12						; size = 4
?Rotate_X@Matrix3D@@QAEXMM@Z PROC			; Matrix3D::Rotate_X, COMDAT
; _this$ = ecx

; 240  : 	{

	push	ebp
	mov	ebp, esp
	sub	esp, 80					; 00000050H
	push	ebx
	push	esi
	push	edi
	mov	DWORD PTR _this$[ebp], ecx

; 241  : 		float tmp1,tmp2;
; 242  : 		tmp1 = Row[0][1]; tmp2 = Row[0][2];

	push	1
	mov	ecx, 16					; 00000010H
	imul	ecx, 0
	add	ecx, DWORD PTR _this$[ebp]
	call	??AVector4@@QAEAAMH@Z			; Vector4::operator[]
	movss	xmm0, DWORD PTR [eax]
	movss	DWORD PTR _tmp1$[ebp], xmm0
	push	2
	mov	ecx, 16					; 00000010H
	imul	ecx, 0
	add	ecx, DWORD PTR _this$[ebp]
	call	??AVector4@@QAEAAMH@Z			; Vector4::operator[]
	movss	xmm0, DWORD PTR [eax]
	movss	DWORD PTR _tmp2$[ebp], xmm0

; 243  : 		Row[0][1] = (float)( c*tmp1 + s*tmp2);

	movss	xmm0, DWORD PTR _c$[ebp]
	mulss	xmm0, DWORD PTR _tmp1$[ebp]
	movss	xmm1, DWORD PTR _s$[ebp]
	mulss	xmm1, DWORD PTR _tmp2$[ebp]
	addss	xmm0, xmm1
	push	1
	mov	ecx, 16					; 00000010H
	imul	ecx, 0
	add	ecx, DWORD PTR _this$[ebp]
	movss	DWORD PTR tv238[ebp], xmm0
	call	??AVector4@@QAEAAMH@Z			; Vector4::operator[]
	movss	xmm0, DWORD PTR tv238[ebp]
	movss	DWORD PTR [eax], xmm0

; 244  : 		Row[0][2] = (float)(-s*tmp1 + c*tmp2);

	movss	xmm0, DWORD PTR _s$[ebp]
	xorps	xmm0, DWORD PTR __xmm@80000000800000008000000080000000
	mulss	xmm0, DWORD PTR _tmp1$[ebp]
	movss	xmm1, DWORD PTR _c$[ebp]
	mulss	xmm1, DWORD PTR _tmp2$[ebp]
	addss	xmm0, xmm1
	push	2
	mov	ecx, 16					; 00000010H
	imul	ecx, 0
	add	ecx, DWORD PTR _this$[ebp]
	movss	DWORD PTR tv240[ebp], xmm0
	call	??AVector4@@QAEAAMH@Z			; Vector4::operator[]
	movss	xmm0, DWORD PTR tv240[ebp]
	movss	DWORD PTR [eax], xmm0

; 245  : 		tmp1 = Row[1][1]; tmp2 = Row[1][2];

	push	1
	mov	ecx, 16					; 00000010H
	shl	ecx, 0
	add	ecx, DWORD PTR _this$[ebp]
	call	??AVector4@@QAEAAMH@Z			; Vector4::operator[]
	movss	xmm0, DWORD PTR [eax]
	movss	DWORD PTR _tmp1$[ebp], xmm0
	push	2
	mov	ecx, 16					; 00000010H
	shl	ecx, 0
	add	ecx, DWORD PTR _this$[ebp]
	call	??AVector4@@QAEAAMH@Z			; Vector4::operator[]
	movss	xmm0, DWORD PTR [eax]
	movss	DWORD PTR _tmp2$[ebp], xmm0

; 246  : 		Row[1][1] = (float)( c*tmp1 + s*tmp2);

	movss	xmm0, DWORD PTR _c$[ebp]
	mulss	xmm0, DWORD PTR _tmp1$[ebp]
	movss	xmm1, DWORD PTR _s$[ebp]
	mulss	xmm1, DWORD PTR _tmp2$[ebp]
	addss	xmm0, xmm1
	push	1
	mov	ecx, 16					; 00000010H
	shl	ecx, 0
	add	ecx, DWORD PTR _this$[ebp]
	movss	DWORD PTR tv242[ebp], xmm0
	call	??AVector4@@QAEAAMH@Z			; Vector4::operator[]
	movss	xmm0, DWORD PTR tv242[ebp]
	movss	DWORD PTR [eax], xmm0

; 247  : 		Row[1][2] = (float)(-s*tmp1 + c*tmp2);

	movss	xmm0, DWORD PTR _s$[ebp]
	xorps	xmm0, DWORD PTR __xmm@80000000800000008000000080000000
	mulss	xmm0, DWORD PTR _tmp1$[ebp]
	movss	xmm1, DWORD PTR _c$[ebp]
	mulss	xmm1, DWORD PTR _tmp2$[ebp]
	addss	xmm0, xmm1
	push	2
	mov	ecx, 16					; 00000010H
	shl	ecx, 0
	add	ecx, DWORD PTR _this$[ebp]
	movss	DWORD PTR tv244[ebp], xmm0
	call	??AVector4@@QAEAAMH@Z			; Vector4::operator[]
	movss	xmm0, DWORD PTR tv244[ebp]
	movss	DWORD PTR [eax], xmm0

; 248  : 		tmp1 = Row[2][1]; tmp2 = Row[2][2];

	push	1
	mov	ecx, 16					; 00000010H
	shl	ecx, 1
	add	ecx, DWORD PTR _this$[ebp]
	call	??AVector4@@QAEAAMH@Z			; Vector4::operator[]
	movss	xmm0, DWORD PTR [eax]
	movss	DWORD PTR _tmp1$[ebp], xmm0
	push	2
	mov	ecx, 16					; 00000010H
	shl	ecx, 1
	add	ecx, DWORD PTR _this$[ebp]
	call	??AVector4@@QAEAAMH@Z			; Vector4::operator[]
	movss	xmm0, DWORD PTR [eax]
	movss	DWORD PTR _tmp2$[ebp], xmm0

; 249  : 		Row[2][1] = (float)( c*tmp1 + s*tmp2);

	movss	xmm0, DWORD PTR _c$[ebp]
	mulss	xmm0, DWORD PTR _tmp1$[ebp]
	movss	xmm1, DWORD PTR _s$[ebp]
	mulss	xmm1, DWORD PTR _tmp2$[ebp]
	addss	xmm0, xmm1
	push	1
	mov	ecx, 16					; 00000010H
	shl	ecx, 1
	add	ecx, DWORD PTR _this$[ebp]
	movss	DWORD PTR tv246[ebp], xmm0
	call	??AVector4@@QAEAAMH@Z			; Vector4::operator[]
	movss	xmm0, DWORD PTR tv246[ebp]
	movss	DWORD PTR [eax], xmm0

; 250  : 		Row[2][2] = (float)(-s*tmp1 + c*tmp2);

	movss	xmm0, DWORD PTR _s$[ebp]
	xorps	xmm0, DWORD PTR __xmm@80000000800000008000000080000000
	mulss	xmm0, DWORD PTR _tmp1$[ebp]
	movss	xmm1, DWORD PTR _c$[ebp]
	mulss	xmm1, DWORD PTR _tmp2$[ebp]
	addss	xmm0, xmm1
	push	2
	mov	ecx, 16					; 00000010H
	shl	ecx, 1
	add	ecx, DWORD PTR _this$[ebp]
	movss	DWORD PTR tv248[ebp], xmm0
	call	??AVector4@@QAEAAMH@Z			; Vector4::operator[]
	movss	xmm0, DWORD PTR tv248[ebp]
	movss	DWORD PTR [eax], xmm0

; 251  : 	}

	pop	edi
	pop	esi
	pop	ebx
	mov	esp, ebp
	pop	ebp
	ret	8
?Rotate_X@Matrix3D@@QAEXMM@Z ENDP			; Matrix3D::Rotate_X
_TEXT	ENDS
; Function compile flags: /Odtp /ZI
; File x:\github\renegade\dragonade_rxd\scripts\matrix3d.h
;	COMDAT ?Rotate_Z@Matrix3D@@QAEXM@Z
_TEXT	SEGMENT
tv260 = -88						; size = 4
tv258 = -88						; size = 4
tv256 = -88						; size = 4
tv254 = -88						; size = 4
tv252 = -88						; size = 4
tv250 = -88						; size = 4
_s$ = -20						; size = 4
_c$ = -16						; size = 4
_tmp2$ = -12						; size = 4
_tmp1$ = -8						; size = 4
_this$ = -4						; size = 4
_theta$ = 8						; size = 4
?Rotate_Z@Matrix3D@@QAEXM@Z PROC			; Matrix3D::Rotate_Z, COMDAT
; _this$ = ecx

; 224  : 	{

	push	ebp
	mov	ebp, esp
	sub	esp, 88					; 00000058H
	push	ebx
	push	esi
	push	edi
	mov	DWORD PTR _this$[ebp], ecx

; 225  : 		float tmp1,tmp2;
; 226  : 		float c,s;
; 227  : 		c = cosf(theta);

	push	ecx
	movss	xmm0, DWORD PTR _theta$[ebp]
	movss	DWORD PTR [esp], xmm0
	call	_cosf
	add	esp, 4
	fstp	DWORD PTR _c$[ebp]

; 228  : 		s = sinf(theta);

	push	ecx
	movss	xmm0, DWORD PTR _theta$[ebp]
	movss	DWORD PTR [esp], xmm0
	call	_sinf
	add	esp, 4
	fstp	DWORD PTR _s$[ebp]

; 229  : 		tmp1 = Row[0][0]; tmp2 = Row[0][1];

	push	0
	mov	ecx, 16					; 00000010H
	imul	ecx, 0
	add	ecx, DWORD PTR _this$[ebp]
	call	??AVector4@@QAEAAMH@Z			; Vector4::operator[]
	movss	xmm0, DWORD PTR [eax]
	movss	DWORD PTR _tmp1$[ebp], xmm0
	push	1
	mov	ecx, 16					; 00000010H
	imul	ecx, 0
	add	ecx, DWORD PTR _this$[ebp]
	call	??AVector4@@QAEAAMH@Z			; Vector4::operator[]
	movss	xmm0, DWORD PTR [eax]
	movss	DWORD PTR _tmp2$[ebp], xmm0

; 230  : 		Row[0][0] = (float)( c*tmp1 + s*tmp2);

	movss	xmm0, DWORD PTR _c$[ebp]
	mulss	xmm0, DWORD PTR _tmp1$[ebp]
	movss	xmm1, DWORD PTR _s$[ebp]
	mulss	xmm1, DWORD PTR _tmp2$[ebp]
	addss	xmm0, xmm1
	push	0
	mov	ecx, 16					; 00000010H
	imul	ecx, 0
	add	ecx, DWORD PTR _this$[ebp]
	movss	DWORD PTR tv250[ebp], xmm0
	call	??AVector4@@QAEAAMH@Z			; Vector4::operator[]
	movss	xmm0, DWORD PTR tv250[ebp]
	movss	DWORD PTR [eax], xmm0

; 231  : 		Row[0][1] = (float)(-s*tmp1 + c*tmp2);

	movss	xmm0, DWORD PTR _s$[ebp]
	xorps	xmm0, DWORD PTR __xmm@80000000800000008000000080000000
	mulss	xmm0, DWORD PTR _tmp1$[ebp]
	movss	xmm1, DWORD PTR _c$[ebp]
	mulss	xmm1, DWORD PTR _tmp2$[ebp]
	addss	xmm0, xmm1
	push	1
	mov	ecx, 16					; 00000010H
	imul	ecx, 0
	add	ecx, DWORD PTR _this$[ebp]
	movss	DWORD PTR tv252[ebp], xmm0
	call	??AVector4@@QAEAAMH@Z			; Vector4::operator[]
	movss	xmm0, DWORD PTR tv252[ebp]
	movss	DWORD PTR [eax], xmm0

; 232  : 		tmp1 = Row[1][0]; tmp2 = Row[1][1];

	push	0
	mov	ecx, 16					; 00000010H
	shl	ecx, 0
	add	ecx, DWORD PTR _this$[ebp]
	call	??AVector4@@QAEAAMH@Z			; Vector4::operator[]
	movss	xmm0, DWORD PTR [eax]
	movss	DWORD PTR _tmp1$[ebp], xmm0
	push	1
	mov	ecx, 16					; 00000010H
	shl	ecx, 0
	add	ecx, DWORD PTR _this$[ebp]
	call	??AVector4@@QAEAAMH@Z			; Vector4::operator[]
	movss	xmm0, DWORD PTR [eax]
	movss	DWORD PTR _tmp2$[ebp], xmm0

; 233  : 		Row[1][0] = (float)( c*tmp1 + s*tmp2);

	movss	xmm0, DWORD PTR _c$[ebp]
	mulss	xmm0, DWORD PTR _tmp1$[ebp]
	movss	xmm1, DWORD PTR _s$[ebp]
	mulss	xmm1, DWORD PTR _tmp2$[ebp]
	addss	xmm0, xmm1
	push	0
	mov	ecx, 16					; 00000010H
	shl	ecx, 0
	add	ecx, DWORD PTR _this$[ebp]
	movss	DWORD PTR tv254[ebp], xmm0
	call	??AVector4@@QAEAAMH@Z			; Vector4::operator[]
	movss	xmm0, DWORD PTR tv254[ebp]
	movss	DWORD PTR [eax], xmm0

; 234  : 		Row[1][1] = (float)(-s*tmp1 + c*tmp2);

	movss	xmm0, DWORD PTR _s$[ebp]
	xorps	xmm0, DWORD PTR __xmm@80000000800000008000000080000000
	mulss	xmm0, DWORD PTR _tmp1$[ebp]
	movss	xmm1, DWORD PTR _c$[ebp]
	mulss	xmm1, DWORD PTR _tmp2$[ebp]
	addss	xmm0, xmm1
	push	1
	mov	ecx, 16					; 00000010H
	shl	ecx, 0
	add	ecx, DWORD PTR _this$[ebp]
	movss	DWORD PTR tv256[ebp], xmm0
	call	??AVector4@@QAEAAMH@Z			; Vector4::operator[]
	movss	xmm0, DWORD PTR tv256[ebp]
	movss	DWORD PTR [eax], xmm0

; 235  : 		tmp1 = Row[2][0]; tmp2 = Row[2][1];

	push	0
	mov	ecx, 16					; 00000010H
	shl	ecx, 1
	add	ecx, DWORD PTR _this$[ebp]
	call	??AVector4@@QAEAAMH@Z			; Vector4::operator[]
	movss	xmm0, DWORD PTR [eax]
	movss	DWORD PTR _tmp1$[ebp], xmm0
	push	1
	mov	ecx, 16					; 00000010H
	shl	ecx, 1
	add	ecx, DWORD PTR _this$[ebp]
	call	??AVector4@@QAEAAMH@Z			; Vector4::operator[]
	movss	xmm0, DWORD PTR [eax]
	movss	DWORD PTR _tmp2$[ebp], xmm0

; 236  : 		Row[2][0] = (float)( c*tmp1 + s*tmp2);

	movss	xmm0, DWORD PTR _c$[ebp]
	mulss	xmm0, DWORD PTR _tmp1$[ebp]
	movss	xmm1, DWORD PTR _s$[ebp]
	mulss	xmm1, DWORD PTR _tmp2$[ebp]
	addss	xmm0, xmm1
	push	0
	mov	ecx, 16					; 00000010H
	shl	ecx, 1
	add	ecx, DWORD PTR _this$[ebp]
	movss	DWORD PTR tv258[ebp], xmm0
	call	??AVector4@@QAEAAMH@Z			; Vector4::operator[]
	movss	xmm0, DWORD PTR tv258[ebp]
	movss	DWORD PTR [eax], xmm0

; 237  : 		Row[2][1] = (float)(-s*tmp1 + c*tmp2);

	movss	xmm0, DWORD PTR _s$[ebp]
	xorps	xmm0, DWORD PTR __xmm@80000000800000008000000080000000
	mulss	xmm0, DWORD PTR _tmp1$[ebp]
	movss	xmm1, DWORD PTR _c$[ebp]
	mulss	xmm1, DWORD PTR _tmp2$[ebp]
	addss	xmm0, xmm1
	push	1
	mov	ecx, 16					; 00000010H
	shl	ecx, 1
	add	ecx, DWORD PTR _this$[ebp]
	movss	DWORD PTR tv260[ebp], xmm0
	call	??AVector4@@QAEAAMH@Z			; Vector4::operator[]
	movss	xmm0, DWORD PTR tv260[ebp]
	movss	DWORD PTR [eax], xmm0

; 238  : 	}

	pop	edi
	pop	esi
	pop	ebx
	mov	esp, ebp
	pop	ebp
	ret	4
?Rotate_Z@Matrix3D@@QAEXM@Z ENDP			; Matrix3D::Rotate_Z
_TEXT	ENDS
; Function compile flags: /Odtp /ZI
; File x:\github\renegade\dragonade_rxd\scripts\matrix3d.h
;	COMDAT ?Rotate_Y@Matrix3D@@QAEXM@Z
_TEXT	SEGMENT
tv257 = -88						; size = 4
tv255 = -88						; size = 4
tv253 = -88						; size = 4
tv251 = -88						; size = 4
tv249 = -88						; size = 4
tv247 = -88						; size = 4
_c$ = -20						; size = 4
_s$ = -16						; size = 4
_tmp2$ = -12						; size = 4
_tmp1$ = -8						; size = 4
_this$ = -4						; size = 4
_theta$ = 8						; size = 4
?Rotate_Y@Matrix3D@@QAEXM@Z PROC			; Matrix3D::Rotate_Y, COMDAT
; _this$ = ecx

; 208  : 	{

	push	ebp
	mov	ebp, esp
	sub	esp, 88					; 00000058H
	push	ebx
	push	esi
	push	edi
	mov	DWORD PTR _this$[ebp], ecx

; 209  : 		float tmp1,tmp2;
; 210  : 		float s,c;
; 211  : 		s = sinf(theta);

	push	ecx
	movss	xmm0, DWORD PTR _theta$[ebp]
	movss	DWORD PTR [esp], xmm0
	call	_sinf
	add	esp, 4
	fstp	DWORD PTR _s$[ebp]

; 212  : 		c = cosf(theta);

	push	ecx
	movss	xmm0, DWORD PTR _theta$[ebp]
	movss	DWORD PTR [esp], xmm0
	call	_cosf
	add	esp, 4
	fstp	DWORD PTR _c$[ebp]

; 213  : 		tmp1 = Row[0][0]; tmp2 = Row[0][2];

	push	0
	mov	ecx, 16					; 00000010H
	imul	ecx, 0
	add	ecx, DWORD PTR _this$[ebp]
	call	??AVector4@@QAEAAMH@Z			; Vector4::operator[]
	movss	xmm0, DWORD PTR [eax]
	movss	DWORD PTR _tmp1$[ebp], xmm0
	push	2
	mov	ecx, 16					; 00000010H
	imul	ecx, 0
	add	ecx, DWORD PTR _this$[ebp]
	call	??AVector4@@QAEAAMH@Z			; Vector4::operator[]
	movss	xmm0, DWORD PTR [eax]
	movss	DWORD PTR _tmp2$[ebp], xmm0

; 214  : 		Row[0][0] = (float)(c*tmp1 - s*tmp2);

	movss	xmm0, DWORD PTR _c$[ebp]
	mulss	xmm0, DWORD PTR _tmp1$[ebp]
	movss	xmm1, DWORD PTR _s$[ebp]
	mulss	xmm1, DWORD PTR _tmp2$[ebp]
	subss	xmm0, xmm1
	push	0
	mov	ecx, 16					; 00000010H
	imul	ecx, 0
	add	ecx, DWORD PTR _this$[ebp]
	movss	DWORD PTR tv247[ebp], xmm0
	call	??AVector4@@QAEAAMH@Z			; Vector4::operator[]
	movss	xmm0, DWORD PTR tv247[ebp]
	movss	DWORD PTR [eax], xmm0

; 215  : 		Row[0][2] = (float)(s*tmp1 + c*tmp2);

	movss	xmm0, DWORD PTR _s$[ebp]
	mulss	xmm0, DWORD PTR _tmp1$[ebp]
	movss	xmm1, DWORD PTR _c$[ebp]
	mulss	xmm1, DWORD PTR _tmp2$[ebp]
	addss	xmm0, xmm1
	push	2
	mov	ecx, 16					; 00000010H
	imul	ecx, 0
	add	ecx, DWORD PTR _this$[ebp]
	movss	DWORD PTR tv249[ebp], xmm0
	call	??AVector4@@QAEAAMH@Z			; Vector4::operator[]
	movss	xmm0, DWORD PTR tv249[ebp]
	movss	DWORD PTR [eax], xmm0

; 216  : 		tmp1 = Row[1][0]; tmp2 = Row[1][2];

	push	0
	mov	ecx, 16					; 00000010H
	shl	ecx, 0
	add	ecx, DWORD PTR _this$[ebp]
	call	??AVector4@@QAEAAMH@Z			; Vector4::operator[]
	movss	xmm0, DWORD PTR [eax]
	movss	DWORD PTR _tmp1$[ebp], xmm0
	push	2
	mov	ecx, 16					; 00000010H
	shl	ecx, 0
	add	ecx, DWORD PTR _this$[ebp]
	call	??AVector4@@QAEAAMH@Z			; Vector4::operator[]
	movss	xmm0, DWORD PTR [eax]
	movss	DWORD PTR _tmp2$[ebp], xmm0

; 217  : 		Row[1][0] = (float)(c*tmp1 - s*tmp2);

	movss	xmm0, DWORD PTR _c$[ebp]
	mulss	xmm0, DWORD PTR _tmp1$[ebp]
	movss	xmm1, DWORD PTR _s$[ebp]
	mulss	xmm1, DWORD PTR _tmp2$[ebp]
	subss	xmm0, xmm1
	push	0
	mov	ecx, 16					; 00000010H
	shl	ecx, 0
	add	ecx, DWORD PTR _this$[ebp]
	movss	DWORD PTR tv251[ebp], xmm0
	call	??AVector4@@QAEAAMH@Z			; Vector4::operator[]
	movss	xmm0, DWORD PTR tv251[ebp]
	movss	DWORD PTR [eax], xmm0

; 218  : 		Row[1][2] = (float)(s*tmp1 + c*tmp2);

	movss	xmm0, DWORD PTR _s$[ebp]
	mulss	xmm0, DWORD PTR _tmp1$[ebp]
	movss	xmm1, DWORD PTR _c$[ebp]
	mulss	xmm1, DWORD PTR _tmp2$[ebp]
	addss	xmm0, xmm1
	push	2
	mov	ecx, 16					; 00000010H
	shl	ecx, 0
	add	ecx, DWORD PTR _this$[ebp]
	movss	DWORD PTR tv253[ebp], xmm0
	call	??AVector4@@QAEAAMH@Z			; Vector4::operator[]
	movss	xmm0, DWORD PTR tv253[ebp]
	movss	DWORD PTR [eax], xmm0

; 219  : 		tmp1 = Row[2][0]; tmp2 = Row[2][2];

	push	0
	mov	ecx, 16					; 00000010H
	shl	ecx, 1
	add	ecx, DWORD PTR _this$[ebp]
	call	??AVector4@@QAEAAMH@Z			; Vector4::operator[]
	movss	xmm0, DWORD PTR [eax]
	movss	DWORD PTR _tmp1$[ebp], xmm0
	push	2
	mov	ecx, 16					; 00000010H
	shl	ecx, 1
	add	ecx, DWORD PTR _this$[ebp]
	call	??AVector4@@QAEAAMH@Z			; Vector4::operator[]
	movss	xmm0, DWORD PTR [eax]
	movss	DWORD PTR _tmp2$[ebp], xmm0

; 220  : 		Row[2][0] = (float)(c*tmp1 - s*tmp2);

	movss	xmm0, DWORD PTR _c$[ebp]
	mulss	xmm0, DWORD PTR _tmp1$[ebp]
	movss	xmm1, DWORD PTR _s$[ebp]
	mulss	xmm1, DWORD PTR _tmp2$[ebp]
	subss	xmm0, xmm1
	push	0
	mov	ecx, 16					; 00000010H
	shl	ecx, 1
	add	ecx, DWORD PTR _this$[ebp]
	movss	DWORD PTR tv255[ebp], xmm0
	call	??AVector4@@QAEAAMH@Z			; Vector4::operator[]
	movss	xmm0, DWORD PTR tv255[ebp]
	movss	DWORD PTR [eax], xmm0

; 221  : 		Row[2][2] = (float)(s*tmp1 + c*tmp2);

	movss	xmm0, DWORD PTR _s$[ebp]
	mulss	xmm0, DWORD PTR _tmp1$[ebp]
	movss	xmm1, DWORD PTR _c$[ebp]
	mulss	xmm1, DWORD PTR _tmp2$[ebp]
	addss	xmm0, xmm1
	push	2
	mov	ecx, 16					; 00000010H
	shl	ecx, 1
	add	ecx, DWORD PTR _this$[ebp]
	movss	DWORD PTR tv257[ebp], xmm0
	call	??AVector4@@QAEAAMH@Z			; Vector4::operator[]
	movss	xmm0, DWORD PTR tv257[ebp]
	movss	DWORD PTR [eax], xmm0

; 222  : 	}

	pop	edi
	pop	esi
	pop	ebx
	mov	esp, ebp
	pop	ebp
	ret	4
?Rotate_Y@Matrix3D@@QAEXM@Z ENDP			; Matrix3D::Rotate_Y
_TEXT	ENDS
; Function compile flags: /Odtp /ZI
; File x:\github\renegade\dragonade_rxd\scripts\matrix3d.h
;	COMDAT ?Rotate_X@Matrix3D@@QAEXM@Z
_TEXT	SEGMENT
tv260 = -88						; size = 4
tv258 = -88						; size = 4
tv256 = -88						; size = 4
tv254 = -88						; size = 4
tv252 = -88						; size = 4
tv250 = -88						; size = 4
_c$ = -20						; size = 4
_s$ = -16						; size = 4
_tmp2$ = -12						; size = 4
_tmp1$ = -8						; size = 4
_this$ = -4						; size = 4
_theta$ = 8						; size = 4
?Rotate_X@Matrix3D@@QAEXM@Z PROC			; Matrix3D::Rotate_X, COMDAT
; _this$ = ecx

; 192  : 	{

	push	ebp
	mov	ebp, esp
	sub	esp, 88					; 00000058H
	push	ebx
	push	esi
	push	edi
	mov	DWORD PTR _this$[ebp], ecx

; 193  : 		float tmp1,tmp2;
; 194  : 		float s,c;
; 195  : 		s = sinf(theta);

	push	ecx
	movss	xmm0, DWORD PTR _theta$[ebp]
	movss	DWORD PTR [esp], xmm0
	call	_sinf
	add	esp, 4
	fstp	DWORD PTR _s$[ebp]

; 196  : 		c = cosf(theta);

	push	ecx
	movss	xmm0, DWORD PTR _theta$[ebp]
	movss	DWORD PTR [esp], xmm0
	call	_cosf
	add	esp, 4
	fstp	DWORD PTR _c$[ebp]

; 197  : 		tmp1 = Row[0][1]; tmp2 = Row[0][2];

	push	1
	mov	ecx, 16					; 00000010H
	imul	ecx, 0
	add	ecx, DWORD PTR _this$[ebp]
	call	??AVector4@@QAEAAMH@Z			; Vector4::operator[]
	movss	xmm0, DWORD PTR [eax]
	movss	DWORD PTR _tmp1$[ebp], xmm0
	push	2
	mov	ecx, 16					; 00000010H
	imul	ecx, 0
	add	ecx, DWORD PTR _this$[ebp]
	call	??AVector4@@QAEAAMH@Z			; Vector4::operator[]
	movss	xmm0, DWORD PTR [eax]
	movss	DWORD PTR _tmp2$[ebp], xmm0

; 198  : 		Row[0][1] = (float)( c*tmp1 + s*tmp2);

	movss	xmm0, DWORD PTR _c$[ebp]
	mulss	xmm0, DWORD PTR _tmp1$[ebp]
	movss	xmm1, DWORD PTR _s$[ebp]
	mulss	xmm1, DWORD PTR _tmp2$[ebp]
	addss	xmm0, xmm1
	push	1
	mov	ecx, 16					; 00000010H
	imul	ecx, 0
	add	ecx, DWORD PTR _this$[ebp]
	movss	DWORD PTR tv250[ebp], xmm0
	call	??AVector4@@QAEAAMH@Z			; Vector4::operator[]
	movss	xmm0, DWORD PTR tv250[ebp]
	movss	DWORD PTR [eax], xmm0

; 199  : 		Row[0][2] = (float)(-s*tmp1 + c*tmp2);

	movss	xmm0, DWORD PTR _s$[ebp]
	xorps	xmm0, DWORD PTR __xmm@80000000800000008000000080000000
	mulss	xmm0, DWORD PTR _tmp1$[ebp]
	movss	xmm1, DWORD PTR _c$[ebp]
	mulss	xmm1, DWORD PTR _tmp2$[ebp]
	addss	xmm0, xmm1
	push	2
	mov	ecx, 16					; 00000010H
	imul	ecx, 0
	add	ecx, DWORD PTR _this$[ebp]
	movss	DWORD PTR tv252[ebp], xmm0
	call	??AVector4@@QAEAAMH@Z			; Vector4::operator[]
	movss	xmm0, DWORD PTR tv252[ebp]
	movss	DWORD PTR [eax], xmm0

; 200  : 		tmp1 = Row[1][1]; tmp2 = Row[1][2];

	push	1
	mov	ecx, 16					; 00000010H
	shl	ecx, 0
	add	ecx, DWORD PTR _this$[ebp]
	call	??AVector4@@QAEAAMH@Z			; Vector4::operator[]
	movss	xmm0, DWORD PTR [eax]
	movss	DWORD PTR _tmp1$[ebp], xmm0
	push	2
	mov	ecx, 16					; 00000010H
	shl	ecx, 0
	add	ecx, DWORD PTR _this$[ebp]
	call	??AVector4@@QAEAAMH@Z			; Vector4::operator[]
	movss	xmm0, DWORD PTR [eax]
	movss	DWORD PTR _tmp2$[ebp], xmm0

; 201  : 		Row[1][1] = (float)( c*tmp1 + s*tmp2);

	movss	xmm0, DWORD PTR _c$[ebp]
	mulss	xmm0, DWORD PTR _tmp1$[ebp]
	movss	xmm1, DWORD PTR _s$[ebp]
	mulss	xmm1, DWORD PTR _tmp2$[ebp]
	addss	xmm0, xmm1
	push	1
	mov	ecx, 16					; 00000010H
	shl	ecx, 0
	add	ecx, DWORD PTR _this$[ebp]
	movss	DWORD PTR tv254[ebp], xmm0
	call	??AVector4@@QAEAAMH@Z			; Vector4::operator[]
	movss	xmm0, DWORD PTR tv254[ebp]
	movss	DWORD PTR [eax], xmm0

; 202  : 		Row[1][2] = (float)(-s*tmp1 + c*tmp2);

	movss	xmm0, DWORD PTR _s$[ebp]
	xorps	xmm0, DWORD PTR __xmm@80000000800000008000000080000000
	mulss	xmm0, DWORD PTR _tmp1$[ebp]
	movss	xmm1, DWORD PTR _c$[ebp]
	mulss	xmm1, DWORD PTR _tmp2$[ebp]
	addss	xmm0, xmm1
	push	2
	mov	ecx, 16					; 00000010H
	shl	ecx, 0
	add	ecx, DWORD PTR _this$[ebp]
	movss	DWORD PTR tv256[ebp], xmm0
	call	??AVector4@@QAEAAMH@Z			; Vector4::operator[]
	movss	xmm0, DWORD PTR tv256[ebp]
	movss	DWORD PTR [eax], xmm0

; 203  : 		tmp1 = Row[2][1]; tmp2 = Row[2][2];

	push	1
	mov	ecx, 16					; 00000010H
	shl	ecx, 1
	add	ecx, DWORD PTR _this$[ebp]
	call	??AVector4@@QAEAAMH@Z			; Vector4::operator[]
	movss	xmm0, DWORD PTR [eax]
	movss	DWORD PTR _tmp1$[ebp], xmm0
	push	2
	mov	ecx, 16					; 00000010H
	shl	ecx, 1
	add	ecx, DWORD PTR _this$[ebp]
	call	??AVector4@@QAEAAMH@Z			; Vector4::operator[]
	movss	xmm0, DWORD PTR [eax]
	movss	DWORD PTR _tmp2$[ebp], xmm0

; 204  : 		Row[2][1] = (float)( c*tmp1 + s*tmp2);

	movss	xmm0, DWORD PTR _c$[ebp]
	mulss	xmm0, DWORD PTR _tmp1$[ebp]
	movss	xmm1, DWORD PTR _s$[ebp]
	mulss	xmm1, DWORD PTR _tmp2$[ebp]
	addss	xmm0, xmm1
	push	1
	mov	ecx, 16					; 00000010H
	shl	ecx, 1
	add	ecx, DWORD PTR _this$[ebp]
	movss	DWORD PTR tv258[ebp], xmm0
	call	??AVector4@@QAEAAMH@Z			; Vector4::operator[]
	movss	xmm0, DWORD PTR tv258[ebp]
	movss	DWORD PTR [eax], xmm0

; 205  : 		Row[2][2] = (float)(-s*tmp1 + c*tmp2);

	movss	xmm0, DWORD PTR _s$[ebp]
	xorps	xmm0, DWORD PTR __xmm@80000000800000008000000080000000
	mulss	xmm0, DWORD PTR _tmp1$[ebp]
	movss	xmm1, DWORD PTR _c$[ebp]
	mulss	xmm1, DWORD PTR _tmp2$[ebp]
	addss	xmm0, xmm1
	push	2
	mov	ecx, 16					; 00000010H
	shl	ecx, 1
	add	ecx, DWORD PTR _this$[ebp]
	movss	DWORD PTR tv260[ebp], xmm0
	call	??AVector4@@QAEAAMH@Z			; Vector4::operator[]
	movss	xmm0, DWORD PTR tv260[ebp]
	movss	DWORD PTR [eax], xmm0

; 206  : 	}

	pop	edi
	pop	esi
	pop	ebx
	mov	esp, ebp
	pop	ebp
	ret	4
?Rotate_X@Matrix3D@@QAEXM@Z ENDP			; Matrix3D::Rotate_X
_TEXT	ENDS
; Function compile flags: /Odtp /ZI
; File x:\github\renegade\dragonade_rxd\scripts\matrix3d.h
;	COMDAT ?Translate_Z@Matrix3D@@QAEXM@Z
_TEXT	SEGMENT
tv142 = -72						; size = 4
tv94 = -72						; size = 4
tv78 = -72						; size = 4
_this$ = -4						; size = 4
_z$ = 8							; size = 4
?Translate_Z@Matrix3D@@QAEXM@Z PROC			; Matrix3D::Translate_Z, COMDAT
; _this$ = ecx

; 186  : 	{

	push	ebp
	mov	ebp, esp
	sub	esp, 72					; 00000048H
	push	ebx
	push	esi
	push	edi
	mov	DWORD PTR _this$[ebp], ecx

; 187  : 		Row[0][3]  += (float)(Row[0][2]*z);

	push	3
	mov	ecx, 16					; 00000010H
	imul	ecx, 0
	add	ecx, DWORD PTR _this$[ebp]
	call	??AVector4@@QAEAAMH@Z			; Vector4::operator[]
	mov	DWORD PTR tv78[ebp], eax
	push	2
	mov	ecx, 16					; 00000010H
	imul	ecx, 0
	add	ecx, DWORD PTR _this$[ebp]
	call	??AVector4@@QAEAAMH@Z			; Vector4::operator[]
	movss	xmm0, DWORD PTR [eax]
	mulss	xmm0, DWORD PTR _z$[ebp]
	mov	eax, DWORD PTR tv78[ebp]
	addss	xmm0, DWORD PTR [eax]
	mov	ecx, DWORD PTR tv78[ebp]
	movss	DWORD PTR [ecx], xmm0

; 188  : 		Row[1][3]  += (float)(Row[1][2]*z);

	push	3
	mov	ecx, 16					; 00000010H
	shl	ecx, 0
	add	ecx, DWORD PTR _this$[ebp]
	call	??AVector4@@QAEAAMH@Z			; Vector4::operator[]
	mov	DWORD PTR tv94[ebp], eax
	push	2
	mov	ecx, 16					; 00000010H
	shl	ecx, 0
	add	ecx, DWORD PTR _this$[ebp]
	call	??AVector4@@QAEAAMH@Z			; Vector4::operator[]
	movss	xmm0, DWORD PTR [eax]
	mulss	xmm0, DWORD PTR _z$[ebp]
	mov	eax, DWORD PTR tv94[ebp]
	addss	xmm0, DWORD PTR [eax]
	mov	ecx, DWORD PTR tv94[ebp]
	movss	DWORD PTR [ecx], xmm0

; 189  : 		Row[2][3]  += (float)(Row[2][2]*z);

	push	3
	mov	ecx, 16					; 00000010H
	shl	ecx, 1
	add	ecx, DWORD PTR _this$[ebp]
	call	??AVector4@@QAEAAMH@Z			; Vector4::operator[]
	mov	DWORD PTR tv142[ebp], eax
	push	2
	mov	ecx, 16					; 00000010H
	shl	ecx, 1
	add	ecx, DWORD PTR _this$[ebp]
	call	??AVector4@@QAEAAMH@Z			; Vector4::operator[]
	movss	xmm0, DWORD PTR [eax]
	mulss	xmm0, DWORD PTR _z$[ebp]
	mov	eax, DWORD PTR tv142[ebp]
	addss	xmm0, DWORD PTR [eax]
	mov	ecx, DWORD PTR tv142[ebp]
	movss	DWORD PTR [ecx], xmm0

; 190  : 	}

	pop	edi
	pop	esi
	pop	ebx
	mov	esp, ebp
	pop	ebp
	ret	4
?Translate_Z@Matrix3D@@QAEXM@Z ENDP			; Matrix3D::Translate_Z
_TEXT	ENDS
; Function compile flags: /Odtp /ZI
; File x:\github\renegade\dragonade_rxd\scripts\matrix3d.h
;	COMDAT ?Translate_Y@Matrix3D@@QAEXM@Z
_TEXT	SEGMENT
tv142 = -72						; size = 4
tv94 = -72						; size = 4
tv78 = -72						; size = 4
_this$ = -4						; size = 4
_y$ = 8							; size = 4
?Translate_Y@Matrix3D@@QAEXM@Z PROC			; Matrix3D::Translate_Y, COMDAT
; _this$ = ecx

; 180  : 	{

	push	ebp
	mov	ebp, esp
	sub	esp, 72					; 00000048H
	push	ebx
	push	esi
	push	edi
	mov	DWORD PTR _this$[ebp], ecx

; 181  : 		Row[0][3]  += (float)(Row[0][1]*y);

	push	3
	mov	ecx, 16					; 00000010H
	imul	ecx, 0
	add	ecx, DWORD PTR _this$[ebp]
	call	??AVector4@@QAEAAMH@Z			; Vector4::operator[]
	mov	DWORD PTR tv78[ebp], eax
	push	1
	mov	ecx, 16					; 00000010H
	imul	ecx, 0
	add	ecx, DWORD PTR _this$[ebp]
	call	??AVector4@@QAEAAMH@Z			; Vector4::operator[]
	movss	xmm0, DWORD PTR [eax]
	mulss	xmm0, DWORD PTR _y$[ebp]
	mov	eax, DWORD PTR tv78[ebp]
	addss	xmm0, DWORD PTR [eax]
	mov	ecx, DWORD PTR tv78[ebp]
	movss	DWORD PTR [ecx], xmm0

; 182  : 		Row[1][3]  += (float)(Row[1][1]*y);

	push	3
	mov	ecx, 16					; 00000010H
	shl	ecx, 0
	add	ecx, DWORD PTR _this$[ebp]
	call	??AVector4@@QAEAAMH@Z			; Vector4::operator[]
	mov	DWORD PTR tv94[ebp], eax
	push	1
	mov	ecx, 16					; 00000010H
	shl	ecx, 0
	add	ecx, DWORD PTR _this$[ebp]
	call	??AVector4@@QAEAAMH@Z			; Vector4::operator[]
	movss	xmm0, DWORD PTR [eax]
	mulss	xmm0, DWORD PTR _y$[ebp]
	mov	eax, DWORD PTR tv94[ebp]
	addss	xmm0, DWORD PTR [eax]
	mov	ecx, DWORD PTR tv94[ebp]
	movss	DWORD PTR [ecx], xmm0

; 183  : 		Row[2][3]  += (float)(Row[2][1]*y);

	push	3
	mov	ecx, 16					; 00000010H
	shl	ecx, 1
	add	ecx, DWORD PTR _this$[ebp]
	call	??AVector4@@QAEAAMH@Z			; Vector4::operator[]
	mov	DWORD PTR tv142[ebp], eax
	push	1
	mov	ecx, 16					; 00000010H
	shl	ecx, 1
	add	ecx, DWORD PTR _this$[ebp]
	call	??AVector4@@QAEAAMH@Z			; Vector4::operator[]
	movss	xmm0, DWORD PTR [eax]
	mulss	xmm0, DWORD PTR _y$[ebp]
	mov	eax, DWORD PTR tv142[ebp]
	addss	xmm0, DWORD PTR [eax]
	mov	ecx, DWORD PTR tv142[ebp]
	movss	DWORD PTR [ecx], xmm0

; 184  : 	}

	pop	edi
	pop	esi
	pop	ebx
	mov	esp, ebp
	pop	ebp
	ret	4
?Translate_Y@Matrix3D@@QAEXM@Z ENDP			; Matrix3D::Translate_Y
_TEXT	ENDS
; Function compile flags: /Odtp /ZI
; File x:\github\renegade\dragonade_rxd\scripts\matrix3d.h
;	COMDAT ?Translate_X@Matrix3D@@QAEXM@Z
_TEXT	SEGMENT
tv142 = -72						; size = 4
tv94 = -72						; size = 4
tv78 = -72						; size = 4
_this$ = -4						; size = 4
_x$ = 8							; size = 4
?Translate_X@Matrix3D@@QAEXM@Z PROC			; Matrix3D::Translate_X, COMDAT
; _this$ = ecx

; 174  : 	{

	push	ebp
	mov	ebp, esp
	sub	esp, 72					; 00000048H
	push	ebx
	push	esi
	push	edi
	mov	DWORD PTR _this$[ebp], ecx

; 175  : 		Row[0][3]  += (float)(Row[0][0]*x);

	push	3
	mov	ecx, 16					; 00000010H
	imul	ecx, 0
	add	ecx, DWORD PTR _this$[ebp]
	call	??AVector4@@QAEAAMH@Z			; Vector4::operator[]
	mov	DWORD PTR tv78[ebp], eax
	push	0
	mov	ecx, 16					; 00000010H
	imul	ecx, 0
	add	ecx, DWORD PTR _this$[ebp]
	call	??AVector4@@QAEAAMH@Z			; Vector4::operator[]
	movss	xmm0, DWORD PTR [eax]
	mulss	xmm0, DWORD PTR _x$[ebp]
	mov	eax, DWORD PTR tv78[ebp]
	addss	xmm0, DWORD PTR [eax]
	mov	ecx, DWORD PTR tv78[ebp]
	movss	DWORD PTR [ecx], xmm0

; 176  : 		Row[1][3]  += (float)(Row[1][0]*x);

	push	3
	mov	ecx, 16					; 00000010H
	shl	ecx, 0
	add	ecx, DWORD PTR _this$[ebp]
	call	??AVector4@@QAEAAMH@Z			; Vector4::operator[]
	mov	DWORD PTR tv94[ebp], eax
	push	0
	mov	ecx, 16					; 00000010H
	shl	ecx, 0
	add	ecx, DWORD PTR _this$[ebp]
	call	??AVector4@@QAEAAMH@Z			; Vector4::operator[]
	movss	xmm0, DWORD PTR [eax]
	mulss	xmm0, DWORD PTR _x$[ebp]
	mov	eax, DWORD PTR tv94[ebp]
	addss	xmm0, DWORD PTR [eax]
	mov	ecx, DWORD PTR tv94[ebp]
	movss	DWORD PTR [ecx], xmm0

; 177  : 		Row[2][3]  += (float)(Row[2][0]*x);

	push	3
	mov	ecx, 16					; 00000010H
	shl	ecx, 1
	add	ecx, DWORD PTR _this$[ebp]
	call	??AVector4@@QAEAAMH@Z			; Vector4::operator[]
	mov	DWORD PTR tv142[ebp], eax
	push	0
	mov	ecx, 16					; 00000010H
	shl	ecx, 1
	add	ecx, DWORD PTR _this$[ebp]
	call	??AVector4@@QAEAAMH@Z			; Vector4::operator[]
	movss	xmm0, DWORD PTR [eax]
	mulss	xmm0, DWORD PTR _x$[ebp]
	mov	eax, DWORD PTR tv142[ebp]
	addss	xmm0, DWORD PTR [eax]
	mov	ecx, DWORD PTR tv142[ebp]
	movss	DWORD PTR [ecx], xmm0

; 178  : 	}

	pop	edi
	pop	esi
	pop	ebx
	mov	esp, ebp
	pop	ebp
	ret	4
?Translate_X@Matrix3D@@QAEXM@Z ENDP			; Matrix3D::Translate_X
_TEXT	ENDS
; Function compile flags: /Odtp /ZI
; File x:\github\renegade\dragonade_rxd\scripts\matrix3d.h
;	COMDAT ?Translate@Matrix3D@@QAEXABVVector3@@@Z
_TEXT	SEGMENT
tv278 = -80						; size = 4
tv274 = -80						; size = 4
tv270 = -80						; size = 4
tv276 = -76						; size = 4
tv272 = -76						; size = 4
tv268 = -76						; size = 4
tv214 = -72						; size = 4
tv174 = -72						; size = 4
tv134 = -72						; size = 4
_this$ = -4						; size = 4
_t$ = 8							; size = 4
?Translate@Matrix3D@@QAEXABVVector3@@@Z PROC		; Matrix3D::Translate, COMDAT
; _this$ = ecx

; 168  : 	{

	push	ebp
	mov	ebp, esp
	sub	esp, 80					; 00000050H
	push	ebx
	push	esi
	push	edi
	mov	DWORD PTR _this$[ebp], ecx

; 169  : 		Row[0][3]  += Row[0][0]*t[0] + Row[0][1]*t[1] + Row[0][2]*t[2];

	push	3
	mov	ecx, 16					; 00000010H
	imul	ecx, 0
	add	ecx, DWORD PTR _this$[ebp]
	call	??AVector4@@QAEAAMH@Z			; Vector4::operator[]
	mov	DWORD PTR tv134[ebp], eax
	push	0
	mov	ecx, 16					; 00000010H
	imul	ecx, 0
	add	ecx, DWORD PTR _this$[ebp]
	call	??AVector4@@QAEAAMH@Z			; Vector4::operator[]
	mov	esi, eax
	push	0
	mov	ecx, DWORD PTR _t$[ebp]
	call	??AVector3@@QBEABMH@Z			; Vector3::operator[]
	movss	xmm0, DWORD PTR [esi]
	mulss	xmm0, DWORD PTR [eax]
	push	1
	mov	ecx, 16					; 00000010H
	imul	ecx, 0
	add	ecx, DWORD PTR _this$[ebp]
	movss	DWORD PTR tv268[ebp], xmm0
	call	??AVector4@@QAEAAMH@Z			; Vector4::operator[]
	mov	esi, eax
	push	1
	mov	ecx, DWORD PTR _t$[ebp]
	call	??AVector3@@QBEABMH@Z			; Vector3::operator[]
	movss	xmm0, DWORD PTR [esi]
	mulss	xmm0, DWORD PTR [eax]
	movss	xmm1, DWORD PTR tv268[ebp]
	addss	xmm1, xmm0
	push	2
	mov	ecx, 16					; 00000010H
	imul	ecx, 0
	add	ecx, DWORD PTR _this$[ebp]
	movss	DWORD PTR tv270[ebp], xmm1
	call	??AVector4@@QAEAAMH@Z			; Vector4::operator[]
	mov	esi, eax
	push	2
	mov	ecx, DWORD PTR _t$[ebp]
	call	??AVector3@@QBEABMH@Z			; Vector3::operator[]
	movss	xmm0, DWORD PTR [esi]
	mulss	xmm0, DWORD PTR [eax]
	movss	xmm1, DWORD PTR tv270[ebp]
	addss	xmm1, xmm0
	mov	eax, DWORD PTR tv134[ebp]
	addss	xmm1, DWORD PTR [eax]
	mov	ecx, DWORD PTR tv134[ebp]
	movss	DWORD PTR [ecx], xmm1

; 170  : 		Row[1][3]  += Row[1][0]*t[0] + Row[1][1]*t[1] + Row[1][2]*t[2];

	push	3
	mov	ecx, 16					; 00000010H
	shl	ecx, 0
	add	ecx, DWORD PTR _this$[ebp]
	call	??AVector4@@QAEAAMH@Z			; Vector4::operator[]
	mov	DWORD PTR tv174[ebp], eax
	push	0
	mov	ecx, 16					; 00000010H
	shl	ecx, 0
	add	ecx, DWORD PTR _this$[ebp]
	call	??AVector4@@QAEAAMH@Z			; Vector4::operator[]
	mov	esi, eax
	push	0
	mov	ecx, DWORD PTR _t$[ebp]
	call	??AVector3@@QBEABMH@Z			; Vector3::operator[]
	movss	xmm0, DWORD PTR [esi]
	mulss	xmm0, DWORD PTR [eax]
	push	1
	mov	ecx, 16					; 00000010H
	shl	ecx, 0
	add	ecx, DWORD PTR _this$[ebp]
	movss	DWORD PTR tv272[ebp], xmm0
	call	??AVector4@@QAEAAMH@Z			; Vector4::operator[]
	mov	esi, eax
	push	1
	mov	ecx, DWORD PTR _t$[ebp]
	call	??AVector3@@QBEABMH@Z			; Vector3::operator[]
	movss	xmm0, DWORD PTR [esi]
	mulss	xmm0, DWORD PTR [eax]
	movss	xmm1, DWORD PTR tv272[ebp]
	addss	xmm1, xmm0
	push	2
	mov	ecx, 16					; 00000010H
	shl	ecx, 0
	add	ecx, DWORD PTR _this$[ebp]
	movss	DWORD PTR tv274[ebp], xmm1
	call	??AVector4@@QAEAAMH@Z			; Vector4::operator[]
	mov	esi, eax
	push	2
	mov	ecx, DWORD PTR _t$[ebp]
	call	??AVector3@@QBEABMH@Z			; Vector3::operator[]
	movss	xmm0, DWORD PTR [esi]
	mulss	xmm0, DWORD PTR [eax]
	movss	xmm1, DWORD PTR tv274[ebp]
	addss	xmm1, xmm0
	mov	eax, DWORD PTR tv174[ebp]
	addss	xmm1, DWORD PTR [eax]
	mov	ecx, DWORD PTR tv174[ebp]
	movss	DWORD PTR [ecx], xmm1

; 171  : 		Row[2][3]  += Row[2][0]*t[0] + Row[2][1]*t[1] + Row[2][2]*t[2];

	push	3
	mov	ecx, 16					; 00000010H
	shl	ecx, 1
	add	ecx, DWORD PTR _this$[ebp]
	call	??AVector4@@QAEAAMH@Z			; Vector4::operator[]
	mov	DWORD PTR tv214[ebp], eax
	push	0
	mov	ecx, 16					; 00000010H
	shl	ecx, 1
	add	ecx, DWORD PTR _this$[ebp]
	call	??AVector4@@QAEAAMH@Z			; Vector4::operator[]
	mov	esi, eax
	push	0
	mov	ecx, DWORD PTR _t$[ebp]
	call	??AVector3@@QBEABMH@Z			; Vector3::operator[]
	movss	xmm0, DWORD PTR [esi]
	mulss	xmm0, DWORD PTR [eax]
	push	1
	mov	ecx, 16					; 00000010H
	shl	ecx, 1
	add	ecx, DWORD PTR _this$[ebp]
	movss	DWORD PTR tv276[ebp], xmm0
	call	??AVector4@@QAEAAMH@Z			; Vector4::operator[]
	mov	esi, eax
	push	1
	mov	ecx, DWORD PTR _t$[ebp]
	call	??AVector3@@QBEABMH@Z			; Vector3::operator[]
	movss	xmm0, DWORD PTR [esi]
	mulss	xmm0, DWORD PTR [eax]
	movss	xmm1, DWORD PTR tv276[ebp]
	addss	xmm1, xmm0
	push	2
	mov	ecx, 16					; 00000010H
	shl	ecx, 1
	add	ecx, DWORD PTR _this$[ebp]
	movss	DWORD PTR tv278[ebp], xmm1
	call	??AVector4@@QAEAAMH@Z			; Vector4::operator[]
	mov	esi, eax
	push	2
	mov	ecx, DWORD PTR _t$[ebp]
	call	??AVector3@@QBEABMH@Z			; Vector3::operator[]
	movss	xmm0, DWORD PTR [esi]
	mulss	xmm0, DWORD PTR [eax]
	movss	xmm1, DWORD PTR tv278[ebp]
	addss	xmm1, xmm0
	mov	eax, DWORD PTR tv214[ebp]
	addss	xmm1, DWORD PTR [eax]
	mov	ecx, DWORD PTR tv214[ebp]
	movss	DWORD PTR [ecx], xmm1

; 172  : 	}

	pop	edi
	pop	esi
	pop	ebx
	mov	esp, ebp
	pop	ebp
	ret	4
?Translate@Matrix3D@@QAEXABVVector3@@@Z ENDP		; Matrix3D::Translate
_TEXT	ENDS
; Function compile flags: /Odtp /ZI
; File x:\github\renegade\dragonade_rxd\scripts\matrix3d.h
;	COMDAT ?Translate@Matrix3D@@QAEXMMM@Z
_TEXT	SEGMENT
tv245 = -80						; size = 4
tv241 = -80						; size = 4
tv237 = -80						; size = 4
tv243 = -76						; size = 4
tv239 = -76						; size = 4
tv235 = -76						; size = 4
tv190 = -72						; size = 4
tv158 = -72						; size = 4
tv94 = -72						; size = 4
_this$ = -4						; size = 4
_x$ = 8							; size = 4
_y$ = 12						; size = 4
_z$ = 16						; size = 4
?Translate@Matrix3D@@QAEXMMM@Z PROC			; Matrix3D::Translate, COMDAT
; _this$ = ecx

; 162  : 	{

	push	ebp
	mov	ebp, esp
	sub	esp, 80					; 00000050H
	push	ebx
	push	esi
	push	edi
	mov	DWORD PTR _this$[ebp], ecx

; 163  : 		Row[0][3]  += (float)(Row[0][0]*x + Row[0][1]*y + Row[0][2]*z);

	push	3
	mov	ecx, 16					; 00000010H
	imul	ecx, 0
	add	ecx, DWORD PTR _this$[ebp]
	call	??AVector4@@QAEAAMH@Z			; Vector4::operator[]
	mov	DWORD PTR tv94[ebp], eax
	push	0
	mov	ecx, 16					; 00000010H
	imul	ecx, 0
	add	ecx, DWORD PTR _this$[ebp]
	call	??AVector4@@QAEAAMH@Z			; Vector4::operator[]
	movss	xmm0, DWORD PTR [eax]
	mulss	xmm0, DWORD PTR _x$[ebp]
	push	1
	mov	ecx, 16					; 00000010H
	imul	ecx, 0
	add	ecx, DWORD PTR _this$[ebp]
	movss	DWORD PTR tv235[ebp], xmm0
	call	??AVector4@@QAEAAMH@Z			; Vector4::operator[]
	movss	xmm0, DWORD PTR [eax]
	mulss	xmm0, DWORD PTR _y$[ebp]
	movss	xmm1, DWORD PTR tv235[ebp]
	addss	xmm1, xmm0
	push	2
	mov	ecx, 16					; 00000010H
	imul	ecx, 0
	add	ecx, DWORD PTR _this$[ebp]
	movss	DWORD PTR tv237[ebp], xmm1
	call	??AVector4@@QAEAAMH@Z			; Vector4::operator[]
	movss	xmm0, DWORD PTR [eax]
	mulss	xmm0, DWORD PTR _z$[ebp]
	movss	xmm1, DWORD PTR tv237[ebp]
	addss	xmm1, xmm0
	mov	eax, DWORD PTR tv94[ebp]
	addss	xmm1, DWORD PTR [eax]
	mov	ecx, DWORD PTR tv94[ebp]
	movss	DWORD PTR [ecx], xmm1

; 164  : 		Row[1][3]  += (float)(Row[1][0]*x + Row[1][1]*y + Row[1][2]*z);

	push	3
	mov	ecx, 16					; 00000010H
	shl	ecx, 0
	add	ecx, DWORD PTR _this$[ebp]
	call	??AVector4@@QAEAAMH@Z			; Vector4::operator[]
	mov	DWORD PTR tv158[ebp], eax
	push	0
	mov	ecx, 16					; 00000010H
	shl	ecx, 0
	add	ecx, DWORD PTR _this$[ebp]
	call	??AVector4@@QAEAAMH@Z			; Vector4::operator[]
	movss	xmm0, DWORD PTR [eax]
	mulss	xmm0, DWORD PTR _x$[ebp]
	push	1
	mov	ecx, 16					; 00000010H
	shl	ecx, 0
	add	ecx, DWORD PTR _this$[ebp]
	movss	DWORD PTR tv239[ebp], xmm0
	call	??AVector4@@QAEAAMH@Z			; Vector4::operator[]
	movss	xmm0, DWORD PTR [eax]
	mulss	xmm0, DWORD PTR _y$[ebp]
	movss	xmm1, DWORD PTR tv239[ebp]
	addss	xmm1, xmm0
	push	2
	mov	ecx, 16					; 00000010H
	shl	ecx, 0
	add	ecx, DWORD PTR _this$[ebp]
	movss	DWORD PTR tv241[ebp], xmm1
	call	??AVector4@@QAEAAMH@Z			; Vector4::operator[]
	movss	xmm0, DWORD PTR [eax]
	mulss	xmm0, DWORD PTR _z$[ebp]
	movss	xmm1, DWORD PTR tv241[ebp]
	addss	xmm1, xmm0
	mov	eax, DWORD PTR tv158[ebp]
	addss	xmm1, DWORD PTR [eax]
	mov	ecx, DWORD PTR tv158[ebp]
	movss	DWORD PTR [ecx], xmm1

; 165  : 		Row[2][3]  += (float)(Row[2][0]*x + Row[2][1]*y + Row[2][2]*z);

	push	3
	mov	ecx, 16					; 00000010H
	shl	ecx, 1
	add	ecx, DWORD PTR _this$[ebp]
	call	??AVector4@@QAEAAMH@Z			; Vector4::operator[]
	mov	DWORD PTR tv190[ebp], eax
	push	0
	mov	ecx, 16					; 00000010H
	shl	ecx, 1
	add	ecx, DWORD PTR _this$[ebp]
	call	??AVector4@@QAEAAMH@Z			; Vector4::operator[]
	movss	xmm0, DWORD PTR [eax]
	mulss	xmm0, DWORD PTR _x$[ebp]
	push	1
	mov	ecx, 16					; 00000010H
	shl	ecx, 1
	add	ecx, DWORD PTR _this$[ebp]
	movss	DWORD PTR tv243[ebp], xmm0
	call	??AVector4@@QAEAAMH@Z			; Vector4::operator[]
	movss	xmm0, DWORD PTR [eax]
	mulss	xmm0, DWORD PTR _y$[ebp]
	movss	xmm1, DWORD PTR tv243[ebp]
	addss	xmm1, xmm0
	push	2
	mov	ecx, 16					; 00000010H
	shl	ecx, 1
	add	ecx, DWORD PTR _this$[ebp]
	movss	DWORD PTR tv245[ebp], xmm1
	call	??AVector4@@QAEAAMH@Z			; Vector4::operator[]
	movss	xmm0, DWORD PTR [eax]
	mulss	xmm0, DWORD PTR _z$[ebp]
	movss	xmm1, DWORD PTR tv245[ebp]
	addss	xmm1, xmm0
	mov	eax, DWORD PTR tv190[ebp]
	addss	xmm1, DWORD PTR [eax]
	mov	ecx, DWORD PTR tv190[ebp]
	movss	DWORD PTR [ecx], xmm1

; 166  : 	}

	pop	edi
	pop	esi
	pop	ebx
	mov	esp, ebp
	pop	ebp
	ret	12					; 0000000cH
?Translate@Matrix3D@@QAEXMMM@Z ENDP			; Matrix3D::Translate
_TEXT	ENDS
; Function compile flags: /Odtp /ZI
; File x:\github\renegade\dragonade_rxd\scripts\matrix3d.h
;	COMDAT ?Make_Identity@Matrix3D@@QAEXXZ
_TEXT	SEGMENT
_this$ = -4						; size = 4
?Make_Identity@Matrix3D@@QAEXXZ PROC			; Matrix3D::Make_Identity, COMDAT
; _this$ = ecx

; 156  : 	{

	push	ebp
	mov	ebp, esp
	sub	esp, 68					; 00000044H
	push	ebx
	push	esi
	push	edi
	mov	DWORD PTR _this$[ebp], ecx

; 157  : 		Row[0].Set(1.0f,0.0f,0.0f,0.0f);

	push	ecx
	movss	xmm0, DWORD PTR __real@00000000
	movss	DWORD PTR [esp], xmm0
	push	ecx
	movss	xmm0, DWORD PTR __real@00000000
	movss	DWORD PTR [esp], xmm0
	push	ecx
	movss	xmm0, DWORD PTR __real@00000000
	movss	DWORD PTR [esp], xmm0
	push	ecx
	movss	xmm0, DWORD PTR __real@3f800000
	movss	DWORD PTR [esp], xmm0
	mov	ecx, 16					; 00000010H
	imul	ecx, 0
	add	ecx, DWORD PTR _this$[ebp]
	call	?Set@Vector4@@QAEXMMMM@Z		; Vector4::Set

; 158  : 		Row[1].Set(0.0f,1.0f,0.0f,0.0f);

	push	ecx
	movss	xmm0, DWORD PTR __real@00000000
	movss	DWORD PTR [esp], xmm0
	push	ecx
	movss	xmm0, DWORD PTR __real@00000000
	movss	DWORD PTR [esp], xmm0
	push	ecx
	movss	xmm0, DWORD PTR __real@3f800000
	movss	DWORD PTR [esp], xmm0
	push	ecx
	movss	xmm0, DWORD PTR __real@00000000
	movss	DWORD PTR [esp], xmm0
	mov	ecx, 16					; 00000010H
	shl	ecx, 0
	add	ecx, DWORD PTR _this$[ebp]
	call	?Set@Vector4@@QAEXMMMM@Z		; Vector4::Set

; 159  : 		Row[2].Set(0.0f,0.0f,1.0f,0.0f);

	push	ecx
	movss	xmm0, DWORD PTR __real@00000000
	movss	DWORD PTR [esp], xmm0
	push	ecx
	movss	xmm0, DWORD PTR __real@3f800000
	movss	DWORD PTR [esp], xmm0
	push	ecx
	movss	xmm0, DWORD PTR __real@00000000
	movss	DWORD PTR [esp], xmm0
	push	ecx
	movss	xmm0, DWORD PTR __real@00000000
	movss	DWORD PTR [esp], xmm0
	mov	ecx, 16					; 00000010H
	shl	ecx, 1
	add	ecx, DWORD PTR _this$[ebp]
	call	?Set@Vector4@@QAEXMMMM@Z		; Vector4::Set

; 160  : 	}

	pop	edi
	pop	esi
	pop	ebx
	mov	esp, ebp
	pop	ebp
	ret	0
?Make_Identity@Matrix3D@@QAEXXZ ENDP			; Matrix3D::Make_Identity
_TEXT	ENDS
; Function compile flags: /Odtp /ZI
; File x:\github\renegade\dragonade_rxd\scripts\matrix3d.h
;	COMDAT ?Adjust_Z_Translation@Matrix3D@@QAEXM@Z
_TEXT	SEGMENT
tv70 = -72						; size = 4
_this$ = -4						; size = 4
_z$ = 8							; size = 4
?Adjust_Z_Translation@Matrix3D@@QAEXM@Z PROC		; Matrix3D::Adjust_Z_Translation, COMDAT
; _this$ = ecx

; 154  : 	TT_INLINE void Adjust_Z_Translation(float z) { Row[2][3] += z; };

	push	ebp
	mov	ebp, esp
	sub	esp, 72					; 00000048H
	push	ebx
	push	esi
	push	edi
	mov	DWORD PTR _this$[ebp], ecx
	push	3
	mov	ecx, 16					; 00000010H
	shl	ecx, 1
	add	ecx, DWORD PTR _this$[ebp]
	call	??AVector4@@QAEAAMH@Z			; Vector4::operator[]
	mov	DWORD PTR tv70[ebp], eax
	mov	eax, DWORD PTR tv70[ebp]
	movss	xmm0, DWORD PTR [eax]
	addss	xmm0, DWORD PTR _z$[ebp]
	mov	ecx, DWORD PTR tv70[ebp]
	movss	DWORD PTR [ecx], xmm0
	pop	edi
	pop	esi
	pop	ebx
	mov	esp, ebp
	pop	ebp
	ret	4
?Adjust_Z_Translation@Matrix3D@@QAEXM@Z ENDP		; Matrix3D::Adjust_Z_Translation
_TEXT	ENDS
; Function compile flags: /Odtp /ZI
; File x:\github\renegade\dragonade_rxd\scripts\matrix3d.h
;	COMDAT ?Adjust_Y_Translation@Matrix3D@@QAEXM@Z
_TEXT	SEGMENT
tv70 = -72						; size = 4
_this$ = -4						; size = 4
_y$ = 8							; size = 4
?Adjust_Y_Translation@Matrix3D@@QAEXM@Z PROC		; Matrix3D::Adjust_Y_Translation, COMDAT
; _this$ = ecx

; 153  : 	TT_INLINE void Adjust_Y_Translation(float y) { Row[1][3] += y; };

	push	ebp
	mov	ebp, esp
	sub	esp, 72					; 00000048H
	push	ebx
	push	esi
	push	edi
	mov	DWORD PTR _this$[ebp], ecx
	push	3
	mov	ecx, 16					; 00000010H
	shl	ecx, 0
	add	ecx, DWORD PTR _this$[ebp]
	call	??AVector4@@QAEAAMH@Z			; Vector4::operator[]
	mov	DWORD PTR tv70[ebp], eax
	mov	eax, DWORD PTR tv70[ebp]
	movss	xmm0, DWORD PTR [eax]
	addss	xmm0, DWORD PTR _y$[ebp]
	mov	ecx, DWORD PTR tv70[ebp]
	movss	DWORD PTR [ecx], xmm0
	pop	edi
	pop	esi
	pop	ebx
	mov	esp, ebp
	pop	ebp
	ret	4
?Adjust_Y_Translation@Matrix3D@@QAEXM@Z ENDP		; Matrix3D::Adjust_Y_Translation
_TEXT	ENDS
; Function compile flags: /Odtp /ZI
; File x:\github\renegade\dragonade_rxd\scripts\matrix3d.h
;	COMDAT ?Adjust_X_Translation@Matrix3D@@QAEXM@Z
_TEXT	SEGMENT
tv70 = -72						; size = 4
_this$ = -4						; size = 4
_x$ = 8							; size = 4
?Adjust_X_Translation@Matrix3D@@QAEXM@Z PROC		; Matrix3D::Adjust_X_Translation, COMDAT
; _this$ = ecx

; 152  : 	TT_INLINE void Adjust_X_Translation(float x) { Row[0][3] += x; };

	push	ebp
	mov	ebp, esp
	sub	esp, 72					; 00000048H
	push	ebx
	push	esi
	push	edi
	mov	DWORD PTR _this$[ebp], ecx
	push	3
	mov	ecx, 16					; 00000010H
	imul	ecx, 0
	add	ecx, DWORD PTR _this$[ebp]
	call	??AVector4@@QAEAAMH@Z			; Vector4::operator[]
	mov	DWORD PTR tv70[ebp], eax
	mov	eax, DWORD PTR tv70[ebp]
	movss	xmm0, DWORD PTR [eax]
	addss	xmm0, DWORD PTR _x$[ebp]
	mov	ecx, DWORD PTR tv70[ebp]
	movss	DWORD PTR [ecx], xmm0
	pop	edi
	pop	esi
	pop	ebx
	mov	esp, ebp
	pop	ebp
	ret	4
?Adjust_X_Translation@Matrix3D@@QAEXM@Z ENDP		; Matrix3D::Adjust_X_Translation
_TEXT	ENDS
; Function compile flags: /Odtp /ZI
; File x:\github\renegade\dragonade_rxd\scripts\matrix3d.h
;	COMDAT ?Adjust_Translation@Matrix3D@@QAEXABVVector3@@@Z
_TEXT	SEGMENT
tv95 = -72						; size = 4
tv84 = -72						; size = 4
tv73 = -72						; size = 4
_this$ = -4						; size = 4
_t$ = 8							; size = 4
?Adjust_Translation@Matrix3D@@QAEXABVVector3@@@Z PROC	; Matrix3D::Adjust_Translation, COMDAT
; _this$ = ecx

; 151  : 	TT_INLINE void Adjust_Translation(const Vector3 & t) { Row[0][3] += t[0]; Row[1][3] += t[1]; Row[2][3] += t[2]; };

	push	ebp
	mov	ebp, esp
	sub	esp, 72					; 00000048H
	push	ebx
	push	esi
	push	edi
	mov	DWORD PTR _this$[ebp], ecx
	push	3
	mov	ecx, 16					; 00000010H
	imul	ecx, 0
	add	ecx, DWORD PTR _this$[ebp]
	call	??AVector4@@QAEAAMH@Z			; Vector4::operator[]
	mov	DWORD PTR tv73[ebp], eax
	push	0
	mov	ecx, DWORD PTR _t$[ebp]
	call	??AVector3@@QBEABMH@Z			; Vector3::operator[]
	mov	ecx, DWORD PTR tv73[ebp]
	movss	xmm0, DWORD PTR [ecx]
	addss	xmm0, DWORD PTR [eax]
	mov	edx, DWORD PTR tv73[ebp]
	movss	DWORD PTR [edx], xmm0
	push	3
	mov	ecx, 16					; 00000010H
	shl	ecx, 0
	add	ecx, DWORD PTR _this$[ebp]
	call	??AVector4@@QAEAAMH@Z			; Vector4::operator[]
	mov	DWORD PTR tv84[ebp], eax
	push	1
	mov	ecx, DWORD PTR _t$[ebp]
	call	??AVector3@@QBEABMH@Z			; Vector3::operator[]
	mov	ecx, DWORD PTR tv84[ebp]
	movss	xmm0, DWORD PTR [ecx]
	addss	xmm0, DWORD PTR [eax]
	mov	edx, DWORD PTR tv84[ebp]
	movss	DWORD PTR [edx], xmm0
	push	3
	mov	ecx, 16					; 00000010H
	shl	ecx, 1
	add	ecx, DWORD PTR _this$[ebp]
	call	??AVector4@@QAEAAMH@Z			; Vector4::operator[]
	mov	DWORD PTR tv95[ebp], eax
	push	2
	mov	ecx, DWORD PTR _t$[ebp]
	call	??AVector3@@QBEABMH@Z			; Vector3::operator[]
	mov	ecx, DWORD PTR tv95[ebp]
	movss	xmm0, DWORD PTR [ecx]
	addss	xmm0, DWORD PTR [eax]
	mov	edx, DWORD PTR tv95[ebp]
	movss	DWORD PTR [edx], xmm0
	pop	edi
	pop	esi
	pop	ebx
	mov	esp, ebp
	pop	ebp
	ret	4
?Adjust_Translation@Matrix3D@@QAEXABVVector3@@@Z ENDP	; Matrix3D::Adjust_Translation
_TEXT	ENDS
; Function compile flags: /Odtp /ZI
; File x:\github\renegade\dragonade_rxd\scripts\matrix3d.h
;	COMDAT ?Set_Z_Translation@Matrix3D@@QAEXM@Z
_TEXT	SEGMENT
_this$ = -4						; size = 4
_z$ = 8							; size = 4
?Set_Z_Translation@Matrix3D@@QAEXM@Z PROC		; Matrix3D::Set_Z_Translation, COMDAT
; _this$ = ecx

; 150  : 	TT_INLINE void Set_Z_Translation(float z) { Row[2][3] = z; };

	push	ebp
	mov	ebp, esp
	sub	esp, 68					; 00000044H
	push	ebx
	push	esi
	push	edi
	mov	DWORD PTR _this$[ebp], ecx
	push	3
	mov	ecx, 16					; 00000010H
	shl	ecx, 1
	add	ecx, DWORD PTR _this$[ebp]
	call	??AVector4@@QAEAAMH@Z			; Vector4::operator[]
	movss	xmm0, DWORD PTR _z$[ebp]
	movss	DWORD PTR [eax], xmm0
	pop	edi
	pop	esi
	pop	ebx
	mov	esp, ebp
	pop	ebp
	ret	4
?Set_Z_Translation@Matrix3D@@QAEXM@Z ENDP		; Matrix3D::Set_Z_Translation
_TEXT	ENDS
; Function compile flags: /Odtp /ZI
; File x:\github\renegade\dragonade_rxd\scripts\matrix3d.h
;	COMDAT ?Set_Y_Translation@Matrix3D@@QAEXM@Z
_TEXT	SEGMENT
_this$ = -4						; size = 4
_y$ = 8							; size = 4
?Set_Y_Translation@Matrix3D@@QAEXM@Z PROC		; Matrix3D::Set_Y_Translation, COMDAT
; _this$ = ecx

; 149  : 	TT_INLINE void Set_Y_Translation(float y) { Row[1][3] = y; };

	push	ebp
	mov	ebp, esp
	sub	esp, 68					; 00000044H
	push	ebx
	push	esi
	push	edi
	mov	DWORD PTR _this$[ebp], ecx
	push	3
	mov	ecx, 16					; 00000010H
	shl	ecx, 0
	add	ecx, DWORD PTR _this$[ebp]
	call	??AVector4@@QAEAAMH@Z			; Vector4::operator[]
	movss	xmm0, DWORD PTR _y$[ebp]
	movss	DWORD PTR [eax], xmm0
	pop	edi
	pop	esi
	pop	ebx
	mov	esp, ebp
	pop	ebp
	ret	4
?Set_Y_Translation@Matrix3D@@QAEXM@Z ENDP		; Matrix3D::Set_Y_Translation
_TEXT	ENDS
; Function compile flags: /Odtp /ZI
; File x:\github\renegade\dragonade_rxd\scripts\matrix3d.h
;	COMDAT ?Set_X_Translation@Matrix3D@@QAEXM@Z
_TEXT	SEGMENT
_this$ = -4						; size = 4
_x$ = 8							; size = 4
?Set_X_Translation@Matrix3D@@QAEXM@Z PROC		; Matrix3D::Set_X_Translation, COMDAT
; _this$ = ecx

; 148  : 	TT_INLINE void Set_X_Translation(float x) { Row[0][3] = x; };

	push	ebp
	mov	ebp, esp
	sub	esp, 68					; 00000044H
	push	ebx
	push	esi
	push	edi
	mov	DWORD PTR _this$[ebp], ecx
	push	3
	mov	ecx, 16					; 00000010H
	imul	ecx, 0
	add	ecx, DWORD PTR _this$[ebp]
	call	??AVector4@@QAEAAMH@Z			; Vector4::operator[]
	movss	xmm0, DWORD PTR _x$[ebp]
	movss	DWORD PTR [eax], xmm0
	pop	edi
	pop	esi
	pop	ebx
	mov	esp, ebp
	pop	ebp
	ret	4
?Set_X_Translation@Matrix3D@@QAEXM@Z ENDP		; Matrix3D::Set_X_Translation
_TEXT	ENDS
; Function compile flags: /Odtp /ZI
; File x:\github\renegade\dragonade_rxd\scripts\matrix3d.h
;	COMDAT ?Get_Z_Translation@Matrix3D@@QBEMXZ
_TEXT	SEGMENT
_this$ = -4						; size = 4
?Get_Z_Translation@Matrix3D@@QBEMXZ PROC		; Matrix3D::Get_Z_Translation, COMDAT
; _this$ = ecx

; 147  : 	TT_INLINE float Get_Z_Translation(void) const { return Row[2][3]; };

	push	ebp
	mov	ebp, esp
	sub	esp, 68					; 00000044H
	push	ebx
	push	esi
	push	edi
	mov	DWORD PTR _this$[ebp], ecx
	push	3
	mov	ecx, 16					; 00000010H
	shl	ecx, 1
	add	ecx, DWORD PTR _this$[ebp]
	call	??AVector4@@QBEABMH@Z			; Vector4::operator[]
	fld	DWORD PTR [eax]
	pop	edi
	pop	esi
	pop	ebx
	mov	esp, ebp
	pop	ebp
	ret	0
?Get_Z_Translation@Matrix3D@@QBEMXZ ENDP		; Matrix3D::Get_Z_Translation
_TEXT	ENDS
; Function compile flags: /Odtp /ZI
; File x:\github\renegade\dragonade_rxd\scripts\matrix3d.h
;	COMDAT ?Get_Y_Translation@Matrix3D@@QBEMXZ
_TEXT	SEGMENT
_this$ = -4						; size = 4
?Get_Y_Translation@Matrix3D@@QBEMXZ PROC		; Matrix3D::Get_Y_Translation, COMDAT
; _this$ = ecx

; 146  : 	TT_INLINE float Get_Y_Translation(void) const { return Row[1][3]; };

	push	ebp
	mov	ebp, esp
	sub	esp, 68					; 00000044H
	push	ebx
	push	esi
	push	edi
	mov	DWORD PTR _this$[ebp], ecx
	push	3
	mov	ecx, 16					; 00000010H
	shl	ecx, 0
	add	ecx, DWORD PTR _this$[ebp]
	call	??AVector4@@QBEABMH@Z			; Vector4::operator[]
	fld	DWORD PTR [eax]
	pop	edi
	pop	esi
	pop	ebx
	mov	esp, ebp
	pop	ebp
	ret	0
?Get_Y_Translation@Matrix3D@@QBEMXZ ENDP		; Matrix3D::Get_Y_Translation
_TEXT	ENDS
; Function compile flags: /Odtp /ZI
; File x:\github\renegade\dragonade_rxd\scripts\matrix3d.h
;	COMDAT ?Get_X_Translation@Matrix3D@@QBEMXZ
_TEXT	SEGMENT
_this$ = -4						; size = 4
?Get_X_Translation@Matrix3D@@QBEMXZ PROC		; Matrix3D::Get_X_Translation, COMDAT
; _this$ = ecx

; 145  : 	TT_INLINE float Get_X_Translation(void) const { return Row[0][3]; };

	push	ebp
	mov	ebp, esp
	sub	esp, 68					; 00000044H
	push	ebx
	push	esi
	push	edi
	mov	DWORD PTR _this$[ebp], ecx
	push	3
	mov	ecx, 16					; 00000010H
	imul	ecx, 0
	add	ecx, DWORD PTR _this$[ebp]
	call	??AVector4@@QBEABMH@Z			; Vector4::operator[]
	fld	DWORD PTR [eax]
	pop	edi
	pop	esi
	pop	ebx
	mov	esp, ebp
	pop	ebp
	ret	0
?Get_X_Translation@Matrix3D@@QBEMXZ ENDP		; Matrix3D::Get_X_Translation
_TEXT	ENDS
; Function compile flags: /Odtp /ZI
; File x:\github\renegade\dragonade_rxd\scripts\matrix3d.h
;	COMDAT ?Set_Translation@Matrix3D@@QAEXABVVector3@@@Z
_TEXT	SEGMENT
_this$ = -4						; size = 4
_t$ = 8							; size = 4
?Set_Translation@Matrix3D@@QAEXABVVector3@@@Z PROC	; Matrix3D::Set_Translation, COMDAT
; _this$ = ecx

; 143  : 	TT_INLINE void Set_Translation(const Vector3 & t)  { Row[0][3] = t[0]; Row[1][3] = t[1];Row[2][3] = t[2]; }

	push	ebp
	mov	ebp, esp
	sub	esp, 68					; 00000044H
	push	ebx
	push	esi
	push	edi
	mov	DWORD PTR _this$[ebp], ecx
	push	0
	mov	ecx, DWORD PTR _t$[ebp]
	call	??AVector3@@QBEABMH@Z			; Vector3::operator[]
	mov	esi, eax
	push	3
	mov	ecx, 16					; 00000010H
	imul	ecx, 0
	add	ecx, DWORD PTR _this$[ebp]
	call	??AVector4@@QAEAAMH@Z			; Vector4::operator[]
	mov	ecx, DWORD PTR [esi]
	mov	DWORD PTR [eax], ecx
	push	1
	mov	ecx, DWORD PTR _t$[ebp]
	call	??AVector3@@QBEABMH@Z			; Vector3::operator[]
	mov	esi, eax
	push	3
	mov	ecx, 16					; 00000010H
	shl	ecx, 0
	add	ecx, DWORD PTR _this$[ebp]
	call	??AVector4@@QAEAAMH@Z			; Vector4::operator[]
	mov	ecx, DWORD PTR [esi]
	mov	DWORD PTR [eax], ecx
	push	2
	mov	ecx, DWORD PTR _t$[ebp]
	call	??AVector3@@QBEABMH@Z			; Vector3::operator[]
	mov	esi, eax
	push	3
	mov	ecx, 16					; 00000010H
	shl	ecx, 1
	add	ecx, DWORD PTR _this$[ebp]
	call	??AVector4@@QAEAAMH@Z			; Vector4::operator[]
	mov	ecx, DWORD PTR [esi]
	mov	DWORD PTR [eax], ecx
	pop	edi
	pop	esi
	pop	ebx
	mov	esp, ebp
	pop	ebp
	ret	4
?Set_Translation@Matrix3D@@QAEXABVVector3@@@Z ENDP	; Matrix3D::Set_Translation
_TEXT	ENDS
; Function compile flags: /Odtp /ZI
; File x:\github\renegade\dragonade_rxd\scripts\matrix3d.h
;	COMDAT ?Get_Translation@Matrix3D@@QBEXPAVVector3@@@Z
_TEXT	SEGMENT
_this$ = -4						; size = 4
_set$ = 8						; size = 4
?Get_Translation@Matrix3D@@QBEXPAVVector3@@@Z PROC	; Matrix3D::Get_Translation, COMDAT
; _this$ = ecx

; 142  : 	TT_INLINE void Get_Translation(Vector3 * set) const { set->X = Row[0][3]; set->Y = Row[1][3]; set->Z = Row[2][3]; }

	push	ebp
	mov	ebp, esp
	sub	esp, 68					; 00000044H
	push	ebx
	push	esi
	push	edi
	mov	DWORD PTR _this$[ebp], ecx
	push	3
	mov	ecx, 16					; 00000010H
	imul	ecx, 0
	add	ecx, DWORD PTR _this$[ebp]
	call	??AVector4@@QBEABMH@Z			; Vector4::operator[]
	mov	ecx, DWORD PTR _set$[ebp]
	mov	edx, DWORD PTR [eax]
	mov	DWORD PTR [ecx], edx
	push	3
	mov	ecx, 16					; 00000010H
	shl	ecx, 0
	add	ecx, DWORD PTR _this$[ebp]
	call	??AVector4@@QBEABMH@Z			; Vector4::operator[]
	mov	ecx, DWORD PTR _set$[ebp]
	mov	edx, DWORD PTR [eax]
	mov	DWORD PTR [ecx+4], edx
	push	3
	mov	ecx, 16					; 00000010H
	shl	ecx, 1
	add	ecx, DWORD PTR _this$[ebp]
	call	??AVector4@@QBEABMH@Z			; Vector4::operator[]
	mov	ecx, DWORD PTR _set$[ebp]
	mov	edx, DWORD PTR [eax]
	mov	DWORD PTR [ecx+8], edx
	pop	edi
	pop	esi
	pop	ebx
	mov	esp, ebp
	pop	ebp
	ret	4
?Get_Translation@Matrix3D@@QBEXPAVVector3@@@Z ENDP	; Matrix3D::Get_Translation
_TEXT	ENDS
; Function compile flags: /Odtp /ZI
; File x:\github\renegade\dragonade_rxd\scripts\matrix3d.h
;	COMDAT ?Get_Translation@Matrix3D@@QBE?AVVector3@@XZ
_TEXT	SEGMENT
_this$ = -4						; size = 4
___$ReturnUdt$ = 8					; size = 4
?Get_Translation@Matrix3D@@QBE?AVVector3@@XZ PROC	; Matrix3D::Get_Translation, COMDAT
; _this$ = ecx

; 141  : 	TT_INLINE Vector3 Get_Translation(void) const { return Vector3(Row[0][3],Row[1][3],Row[2][3]); }

	push	ebp
	mov	ebp, esp
	sub	esp, 68					; 00000044H
	push	ebx
	push	esi
	push	edi
	mov	DWORD PTR _this$[ebp], ecx
	push	3
	mov	ecx, 16					; 00000010H
	shl	ecx, 1
	add	ecx, DWORD PTR _this$[ebp]
	call	??AVector4@@QBEABMH@Z			; Vector4::operator[]
	push	ecx
	movss	xmm0, DWORD PTR [eax]
	movss	DWORD PTR [esp], xmm0
	push	3
	mov	ecx, 16					; 00000010H
	shl	ecx, 0
	add	ecx, DWORD PTR _this$[ebp]
	call	??AVector4@@QBEABMH@Z			; Vector4::operator[]
	push	ecx
	movss	xmm0, DWORD PTR [eax]
	movss	DWORD PTR [esp], xmm0
	push	3
	mov	ecx, 16					; 00000010H
	imul	ecx, 0
	add	ecx, DWORD PTR _this$[ebp]
	call	??AVector4@@QBEABMH@Z			; Vector4::operator[]
	push	ecx
	movss	xmm0, DWORD PTR [eax]
	movss	DWORD PTR [esp], xmm0
	mov	ecx, DWORD PTR ___$ReturnUdt$[ebp]
	call	??0Vector3@@QAE@MMM@Z			; Vector3::Vector3
	mov	eax, DWORD PTR ___$ReturnUdt$[ebp]
	pop	edi
	pop	esi
	pop	ebx
	mov	esp, ebp
	pop	ebp
	ret	4
?Get_Translation@Matrix3D@@QBE?AVVector3@@XZ ENDP	; Matrix3D::Get_Translation
_TEXT	ENDS
; Function compile flags: /Odtp /ZI
; File x:\github\renegade\dragonade_rxd\scripts\matrix3d.h
;	COMDAT ?Set@Matrix3D@@QAEXABVVector3@@@Z
_TEXT	SEGMENT
_this$ = -4						; size = 4
_position$ = 8						; size = 4
?Set@Matrix3D@@QAEXABVVector3@@@Z PROC			; Matrix3D::Set, COMDAT
; _this$ = ecx

; 133  : 	{

	push	ebp
	mov	ebp, esp
	sub	esp, 68					; 00000044H
	push	ebx
	push	esi
	push	edi
	mov	DWORD PTR _this$[ebp], ecx

; 134  : 		Row[0].Set(1.0f,0.0f,0.0f,position[0]);

	push	0
	mov	ecx, DWORD PTR _position$[ebp]
	call	??AVector3@@QBEABMH@Z			; Vector3::operator[]
	push	ecx
	movss	xmm0, DWORD PTR [eax]
	movss	DWORD PTR [esp], xmm0
	push	ecx
	movss	xmm0, DWORD PTR __real@00000000
	movss	DWORD PTR [esp], xmm0
	push	ecx
	movss	xmm0, DWORD PTR __real@00000000
	movss	DWORD PTR [esp], xmm0
	push	ecx
	movss	xmm0, DWORD PTR __real@3f800000
	movss	DWORD PTR [esp], xmm0
	mov	ecx, 16					; 00000010H
	imul	ecx, 0
	add	ecx, DWORD PTR _this$[ebp]
	call	?Set@Vector4@@QAEXMMMM@Z		; Vector4::Set

; 135  : 		Row[1].Set(0.0f,1.0f,0.0f,position[1]);

	push	1
	mov	ecx, DWORD PTR _position$[ebp]
	call	??AVector3@@QBEABMH@Z			; Vector3::operator[]
	push	ecx
	movss	xmm0, DWORD PTR [eax]
	movss	DWORD PTR [esp], xmm0
	push	ecx
	movss	xmm0, DWORD PTR __real@00000000
	movss	DWORD PTR [esp], xmm0
	push	ecx
	movss	xmm0, DWORD PTR __real@3f800000
	movss	DWORD PTR [esp], xmm0
	push	ecx
	movss	xmm0, DWORD PTR __real@00000000
	movss	DWORD PTR [esp], xmm0
	mov	ecx, 16					; 00000010H
	shl	ecx, 0
	add	ecx, DWORD PTR _this$[ebp]
	call	?Set@Vector4@@QAEXMMMM@Z		; Vector4::Set

; 136  : 		Row[2].Set(0.0f,0.0f,1.0f,position[2]);

	push	2
	mov	ecx, DWORD PTR _position$[ebp]
	call	??AVector3@@QBEABMH@Z			; Vector3::operator[]
	push	ecx
	movss	xmm0, DWORD PTR [eax]
	movss	DWORD PTR [esp], xmm0
	push	ecx
	movss	xmm0, DWORD PTR __real@3f800000
	movss	DWORD PTR [esp], xmm0
	push	ecx
	movss	xmm0, DWORD PTR __real@00000000
	movss	DWORD PTR [esp], xmm0
	push	ecx
	movss	xmm0, DWORD PTR __real@00000000
	movss	DWORD PTR [esp], xmm0
	mov	ecx, 16					; 00000010H
	shl	ecx, 1
	add	ecx, DWORD PTR _this$[ebp]
	call	?Set@Vector4@@QAEXMMMM@Z		; Vector4::Set

; 137  : 	}

	pop	edi
	pop	esi
	pop	ebx
	mov	esp, ebp
	pop	ebp
	ret	4
?Set@Matrix3D@@QAEXABVVector3@@@Z ENDP			; Matrix3D::Set
_TEXT	ENDS
; Function compile flags: /Odtp /ZI
; File x:\github\renegade\dragonade_rxd\scripts\matrix3d.h
;	COMDAT ?Set@Matrix3D@@QAEXABVVector3@@MM@Z
_TEXT	SEGMENT
tv368 = -80						; size = 4
tv362 = -80						; size = 4
tv356 = -80						; size = 4
tv366 = -76						; size = 4
tv360 = -76						; size = 4
tv354 = -76						; size = 4
tv364 = -72						; size = 4
tv358 = -72						; size = 4
tv352 = -72						; size = 4
_this$ = -4						; size = 4
_axis$ = 8						; size = 4
_s$ = 12						; size = 4
_c$ = 16						; size = 4
?Set@Matrix3D@@QAEXABVVector3@@MM@Z PROC		; Matrix3D::Set, COMDAT
; _this$ = ecx

; 112  : 	{

	push	ebp
	mov	ebp, esp
	sub	esp, 80					; 00000050H
	push	ebx
	push	esi
	push	edi
	mov	DWORD PTR _this$[ebp], ecx

; 113  : 		Row[0].Set(
; 114  : 			(float)(axis[0]*axis[0] + c*(1.0f - axis[0]*axis[0])),
; 115  : 			(float)(axis[0]*axis[1]*(1.0f - c) - axis[2]*s),
; 116  : 			(float)(axis[2]*axis[0]*(1.0f - c) + axis[1]*s),
; 117  : 			0.0f
; 118  : 		);

	push	ecx
	movss	xmm0, DWORD PTR __real@00000000
	movss	DWORD PTR [esp], xmm0
	push	2
	mov	ecx, DWORD PTR _axis$[ebp]
	call	??AVector3@@QBEABMH@Z			; Vector3::operator[]
	mov	esi, eax
	push	0
	mov	ecx, DWORD PTR _axis$[ebp]
	call	??AVector3@@QBEABMH@Z			; Vector3::operator[]
	movss	xmm0, DWORD PTR [esi]
	mulss	xmm0, DWORD PTR [eax]
	movss	xmm1, DWORD PTR __real@3f800000
	subss	xmm1, DWORD PTR _c$[ebp]
	mulss	xmm0, xmm1
	push	1
	mov	ecx, DWORD PTR _axis$[ebp]
	movss	DWORD PTR tv352[ebp], xmm0
	call	??AVector3@@QBEABMH@Z			; Vector3::operator[]
	movss	xmm0, DWORD PTR [eax]
	mulss	xmm0, DWORD PTR _s$[ebp]
	movss	xmm1, DWORD PTR tv352[ebp]
	addss	xmm1, xmm0
	push	ecx
	movss	DWORD PTR [esp], xmm1
	push	0
	mov	ecx, DWORD PTR _axis$[ebp]
	call	??AVector3@@QBEABMH@Z			; Vector3::operator[]
	mov	esi, eax
	push	1
	mov	ecx, DWORD PTR _axis$[ebp]
	call	??AVector3@@QBEABMH@Z			; Vector3::operator[]
	movss	xmm0, DWORD PTR [esi]
	mulss	xmm0, DWORD PTR [eax]
	movss	xmm1, DWORD PTR __real@3f800000
	subss	xmm1, DWORD PTR _c$[ebp]
	mulss	xmm0, xmm1
	push	2
	mov	ecx, DWORD PTR _axis$[ebp]
	movss	DWORD PTR tv354[ebp], xmm0
	call	??AVector3@@QBEABMH@Z			; Vector3::operator[]
	movss	xmm0, DWORD PTR [eax]
	mulss	xmm0, DWORD PTR _s$[ebp]
	movss	xmm1, DWORD PTR tv354[ebp]
	subss	xmm1, xmm0
	push	ecx
	movss	DWORD PTR [esp], xmm1
	push	0
	mov	ecx, DWORD PTR _axis$[ebp]
	call	??AVector3@@QBEABMH@Z			; Vector3::operator[]
	mov	esi, eax
	push	0
	mov	ecx, DWORD PTR _axis$[ebp]
	call	??AVector3@@QBEABMH@Z			; Vector3::operator[]
	movss	xmm0, DWORD PTR [esi]
	mulss	xmm0, DWORD PTR [eax]
	push	0
	mov	ecx, DWORD PTR _axis$[ebp]
	movss	DWORD PTR tv356[ebp], xmm0
	call	??AVector3@@QBEABMH@Z			; Vector3::operator[]
	mov	esi, eax
	push	0
	mov	ecx, DWORD PTR _axis$[ebp]
	call	??AVector3@@QBEABMH@Z			; Vector3::operator[]
	movss	xmm0, DWORD PTR [esi]
	mulss	xmm0, DWORD PTR [eax]
	movss	xmm1, DWORD PTR __real@3f800000
	subss	xmm1, xmm0
	mulss	xmm1, DWORD PTR _c$[ebp]
	movss	xmm0, DWORD PTR tv356[ebp]
	addss	xmm0, xmm1
	push	ecx
	movss	DWORD PTR [esp], xmm0
	mov	ecx, 16					; 00000010H
	imul	ecx, 0
	add	ecx, DWORD PTR _this$[ebp]
	call	?Set@Vector4@@QAEXMMMM@Z		; Vector4::Set

; 119  : 		Row[1].Set(
; 120  : 			(float)(axis[0]*axis[1]*(1.0f - c) + axis[2]*s),
; 121  : 			(float)(axis[1]*axis[1] + c*(1.0f - axis[1]*axis[1])),
; 122  : 			(float)(axis[1]*axis[2]*(1.0f - c) - axis[0]*s),
; 123  : 			0.0f
; 124  : 		);

	push	ecx
	movss	xmm0, DWORD PTR __real@00000000
	movss	DWORD PTR [esp], xmm0
	push	1
	mov	ecx, DWORD PTR _axis$[ebp]
	call	??AVector3@@QBEABMH@Z			; Vector3::operator[]
	mov	esi, eax
	push	2
	mov	ecx, DWORD PTR _axis$[ebp]
	call	??AVector3@@QBEABMH@Z			; Vector3::operator[]
	movss	xmm0, DWORD PTR [esi]
	mulss	xmm0, DWORD PTR [eax]
	movss	xmm1, DWORD PTR __real@3f800000
	subss	xmm1, DWORD PTR _c$[ebp]
	mulss	xmm0, xmm1
	push	0
	mov	ecx, DWORD PTR _axis$[ebp]
	movss	DWORD PTR tv358[ebp], xmm0
	call	??AVector3@@QBEABMH@Z			; Vector3::operator[]
	movss	xmm0, DWORD PTR [eax]
	mulss	xmm0, DWORD PTR _s$[ebp]
	movss	xmm1, DWORD PTR tv358[ebp]
	subss	xmm1, xmm0
	push	ecx
	movss	DWORD PTR [esp], xmm1
	push	1
	mov	ecx, DWORD PTR _axis$[ebp]
	call	??AVector3@@QBEABMH@Z			; Vector3::operator[]
	mov	esi, eax
	push	1
	mov	ecx, DWORD PTR _axis$[ebp]
	call	??AVector3@@QBEABMH@Z			; Vector3::operator[]
	movss	xmm0, DWORD PTR [esi]
	mulss	xmm0, DWORD PTR [eax]
	push	1
	mov	ecx, DWORD PTR _axis$[ebp]
	movss	DWORD PTR tv360[ebp], xmm0
	call	??AVector3@@QBEABMH@Z			; Vector3::operator[]
	mov	esi, eax
	push	1
	mov	ecx, DWORD PTR _axis$[ebp]
	call	??AVector3@@QBEABMH@Z			; Vector3::operator[]
	movss	xmm0, DWORD PTR [esi]
	mulss	xmm0, DWORD PTR [eax]
	movss	xmm1, DWORD PTR __real@3f800000
	subss	xmm1, xmm0
	mulss	xmm1, DWORD PTR _c$[ebp]
	movss	xmm0, DWORD PTR tv360[ebp]
	addss	xmm0, xmm1
	push	ecx
	movss	DWORD PTR [esp], xmm0
	push	0
	mov	ecx, DWORD PTR _axis$[ebp]
	call	??AVector3@@QBEABMH@Z			; Vector3::operator[]
	mov	esi, eax
	push	1
	mov	ecx, DWORD PTR _axis$[ebp]
	call	??AVector3@@QBEABMH@Z			; Vector3::operator[]
	movss	xmm0, DWORD PTR [esi]
	mulss	xmm0, DWORD PTR [eax]
	movss	xmm1, DWORD PTR __real@3f800000
	subss	xmm1, DWORD PTR _c$[ebp]
	mulss	xmm0, xmm1
	push	2
	mov	ecx, DWORD PTR _axis$[ebp]
	movss	DWORD PTR tv362[ebp], xmm0
	call	??AVector3@@QBEABMH@Z			; Vector3::operator[]
	movss	xmm0, DWORD PTR [eax]
	mulss	xmm0, DWORD PTR _s$[ebp]
	movss	xmm1, DWORD PTR tv362[ebp]
	addss	xmm1, xmm0
	push	ecx
	movss	DWORD PTR [esp], xmm1
	mov	ecx, 16					; 00000010H
	shl	ecx, 0
	add	ecx, DWORD PTR _this$[ebp]
	call	?Set@Vector4@@QAEXMMMM@Z		; Vector4::Set

; 125  : 		Row[2].Set(
; 126  : 			(float)(axis[2]*axis[0]*(1.0f - c) - axis[1]*s),
; 127  : 			(float)(axis[1]*axis[2]*(1.0f - c) + axis[0]*s),
; 128  : 			(float)(axis[2]*axis[2] + c*(1 - axis[2]*axis[2])),
; 129  : 			0.0f
; 130  : 		);

	push	ecx
	movss	xmm0, DWORD PTR __real@00000000
	movss	DWORD PTR [esp], xmm0
	push	2
	mov	ecx, DWORD PTR _axis$[ebp]
	call	??AVector3@@QBEABMH@Z			; Vector3::operator[]
	mov	esi, eax
	push	2
	mov	ecx, DWORD PTR _axis$[ebp]
	call	??AVector3@@QBEABMH@Z			; Vector3::operator[]
	movss	xmm0, DWORD PTR [esi]
	mulss	xmm0, DWORD PTR [eax]
	push	2
	mov	ecx, DWORD PTR _axis$[ebp]
	movss	DWORD PTR tv364[ebp], xmm0
	call	??AVector3@@QBEABMH@Z			; Vector3::operator[]
	mov	esi, eax
	push	2
	mov	ecx, DWORD PTR _axis$[ebp]
	call	??AVector3@@QBEABMH@Z			; Vector3::operator[]
	movss	xmm0, DWORD PTR [esi]
	mulss	xmm0, DWORD PTR [eax]
	movss	xmm1, DWORD PTR __real@3f800000
	subss	xmm1, xmm0
	mulss	xmm1, DWORD PTR _c$[ebp]
	movss	xmm0, DWORD PTR tv364[ebp]
	addss	xmm0, xmm1
	push	ecx
	movss	DWORD PTR [esp], xmm0
	push	1
	mov	ecx, DWORD PTR _axis$[ebp]
	call	??AVector3@@QBEABMH@Z			; Vector3::operator[]
	mov	esi, eax
	push	2
	mov	ecx, DWORD PTR _axis$[ebp]
	call	??AVector3@@QBEABMH@Z			; Vector3::operator[]
	movss	xmm0, DWORD PTR [esi]
	mulss	xmm0, DWORD PTR [eax]
	movss	xmm1, DWORD PTR __real@3f800000
	subss	xmm1, DWORD PTR _c$[ebp]
	mulss	xmm0, xmm1
	push	0
	mov	ecx, DWORD PTR _axis$[ebp]
	movss	DWORD PTR tv366[ebp], xmm0
	call	??AVector3@@QBEABMH@Z			; Vector3::operator[]
	movss	xmm0, DWORD PTR [eax]
	mulss	xmm0, DWORD PTR _s$[ebp]
	movss	xmm1, DWORD PTR tv366[ebp]
	addss	xmm1, xmm0
	push	ecx
	movss	DWORD PTR [esp], xmm1
	push	2
	mov	ecx, DWORD PTR _axis$[ebp]
	call	??AVector3@@QBEABMH@Z			; Vector3::operator[]
	mov	esi, eax
	push	0
	mov	ecx, DWORD PTR _axis$[ebp]
	call	??AVector3@@QBEABMH@Z			; Vector3::operator[]
	movss	xmm0, DWORD PTR [esi]
	mulss	xmm0, DWORD PTR [eax]
	movss	xmm1, DWORD PTR __real@3f800000
	subss	xmm1, DWORD PTR _c$[ebp]
	mulss	xmm0, xmm1
	push	1
	mov	ecx, DWORD PTR _axis$[ebp]
	movss	DWORD PTR tv368[ebp], xmm0
	call	??AVector3@@QBEABMH@Z			; Vector3::operator[]
	movss	xmm0, DWORD PTR [eax]
	mulss	xmm0, DWORD PTR _s$[ebp]
	movss	xmm1, DWORD PTR tv368[ebp]
	subss	xmm1, xmm0
	push	ecx
	movss	DWORD PTR [esp], xmm1
	mov	ecx, 16					; 00000010H
	shl	ecx, 1
	add	ecx, DWORD PTR _this$[ebp]
	call	?Set@Vector4@@QAEXMMMM@Z		; Vector4::Set

; 131  : 	}

	pop	edi
	pop	esi
	pop	ebx
	mov	esp, ebp
	pop	ebp
	ret	12					; 0000000cH
?Set@Matrix3D@@QAEXABVVector3@@MM@Z ENDP		; Matrix3D::Set
_TEXT	ENDS
; Function compile flags: /Odtp /ZI
; File x:\github\renegade\dragonade_rxd\scripts\matrix3d.h
;	COMDAT ?Set@Matrix3D@@QAEXABVVector3@@M@Z
_TEXT	SEGMENT
_s$ = -12						; size = 4
_c$ = -8						; size = 4
_this$ = -4						; size = 4
_axis$ = 8						; size = 4
_angle$ = 12						; size = 4
?Set@Matrix3D@@QAEXABVVector3@@M@Z PROC			; Matrix3D::Set, COMDAT
; _this$ = ecx

; 106  : 	{

	push	ebp
	mov	ebp, esp
	sub	esp, 76					; 0000004cH
	push	ebx
	push	esi
	push	edi
	mov	DWORD PTR _this$[ebp], ecx

; 107  : 		float c = cosf(angle);

	push	ecx
	movss	xmm0, DWORD PTR _angle$[ebp]
	movss	DWORD PTR [esp], xmm0
	call	_cosf
	add	esp, 4
	fstp	DWORD PTR _c$[ebp]

; 108  : 		float s = sinf(angle);

	push	ecx
	movss	xmm0, DWORD PTR _angle$[ebp]
	movss	DWORD PTR [esp], xmm0
	call	_sinf
	add	esp, 4
	fstp	DWORD PTR _s$[ebp]

; 109  : 		Set(axis,s,c);

	push	ecx
	movss	xmm0, DWORD PTR _c$[ebp]
	movss	DWORD PTR [esp], xmm0
	push	ecx
	movss	xmm0, DWORD PTR _s$[ebp]
	movss	DWORD PTR [esp], xmm0
	mov	eax, DWORD PTR _axis$[ebp]
	push	eax
	mov	ecx, DWORD PTR _this$[ebp]
	call	?Set@Matrix3D@@QAEXABVVector3@@MM@Z	; Matrix3D::Set

; 110  : 	}

	pop	edi
	pop	esi
	pop	ebx
	mov	esp, ebp
	pop	ebp
	ret	8
?Set@Matrix3D@@QAEXABVVector3@@M@Z ENDP			; Matrix3D::Set
_TEXT	ENDS
; Function compile flags: /Odtp /ZI
; File x:\github\renegade\dragonade_rxd\scripts\matrix3d.h
;	COMDAT ?Set@Matrix3D@@QAEXABVVector3@@000@Z
_TEXT	SEGMENT
_this$ = -4						; size = 4
_x$ = 8							; size = 4
_y$ = 12						; size = 4
_z$ = 16						; size = 4
_pos$ = 20						; size = 4
?Set@Matrix3D@@QAEXABVVector3@@000@Z PROC		; Matrix3D::Set, COMDAT
; _this$ = ecx

; 100  : 	{

	push	ebp
	mov	ebp, esp
	sub	esp, 68					; 00000044H
	push	ebx
	push	esi
	push	edi
	mov	DWORD PTR _this$[ebp], ecx

; 101  : 		Row[0].Set(x[0],y[0],z[0],pos[0]);

	push	0
	mov	ecx, DWORD PTR _pos$[ebp]
	call	??AVector3@@QBEABMH@Z			; Vector3::operator[]
	push	ecx
	movss	xmm0, DWORD PTR [eax]
	movss	DWORD PTR [esp], xmm0
	push	0
	mov	ecx, DWORD PTR _z$[ebp]
	call	??AVector3@@QBEABMH@Z			; Vector3::operator[]
	push	ecx
	movss	xmm0, DWORD PTR [eax]
	movss	DWORD PTR [esp], xmm0
	push	0
	mov	ecx, DWORD PTR _y$[ebp]
	call	??AVector3@@QBEABMH@Z			; Vector3::operator[]
	push	ecx
	movss	xmm0, DWORD PTR [eax]
	movss	DWORD PTR [esp], xmm0
	push	0
	mov	ecx, DWORD PTR _x$[ebp]
	call	??AVector3@@QBEABMH@Z			; Vector3::operator[]
	push	ecx
	movss	xmm0, DWORD PTR [eax]
	movss	DWORD PTR [esp], xmm0
	mov	ecx, 16					; 00000010H
	imul	ecx, 0
	add	ecx, DWORD PTR _this$[ebp]
	call	?Set@Vector4@@QAEXMMMM@Z		; Vector4::Set

; 102  : 		Row[1].Set(x[1],y[1],z[1],pos[1]);

	push	1
	mov	ecx, DWORD PTR _pos$[ebp]
	call	??AVector3@@QBEABMH@Z			; Vector3::operator[]
	push	ecx
	movss	xmm0, DWORD PTR [eax]
	movss	DWORD PTR [esp], xmm0
	push	1
	mov	ecx, DWORD PTR _z$[ebp]
	call	??AVector3@@QBEABMH@Z			; Vector3::operator[]
	push	ecx
	movss	xmm0, DWORD PTR [eax]
	movss	DWORD PTR [esp], xmm0
	push	1
	mov	ecx, DWORD PTR _y$[ebp]
	call	??AVector3@@QBEABMH@Z			; Vector3::operator[]
	push	ecx
	movss	xmm0, DWORD PTR [eax]
	movss	DWORD PTR [esp], xmm0
	push	1
	mov	ecx, DWORD PTR _x$[ebp]
	call	??AVector3@@QBEABMH@Z			; Vector3::operator[]
	push	ecx
	movss	xmm0, DWORD PTR [eax]
	movss	DWORD PTR [esp], xmm0
	mov	ecx, 16					; 00000010H
	shl	ecx, 0
	add	ecx, DWORD PTR _this$[ebp]
	call	?Set@Vector4@@QAEXMMMM@Z		; Vector4::Set

; 103  : 		Row[2].Set(x[2],y[2],z[2],pos[2]);

	push	2
	mov	ecx, DWORD PTR _pos$[ebp]
	call	??AVector3@@QBEABMH@Z			; Vector3::operator[]
	push	ecx
	movss	xmm0, DWORD PTR [eax]
	movss	DWORD PTR [esp], xmm0
	push	2
	mov	ecx, DWORD PTR _z$[ebp]
	call	??AVector3@@QBEABMH@Z			; Vector3::operator[]
	push	ecx
	movss	xmm0, DWORD PTR [eax]
	movss	DWORD PTR [esp], xmm0
	push	2
	mov	ecx, DWORD PTR _y$[ebp]
	call	??AVector3@@QBEABMH@Z			; Vector3::operator[]
	push	ecx
	movss	xmm0, DWORD PTR [eax]
	movss	DWORD PTR [esp], xmm0
	push	2
	mov	ecx, DWORD PTR _x$[ebp]
	call	??AVector3@@QBEABMH@Z			; Vector3::operator[]
	push	ecx
	movss	xmm0, DWORD PTR [eax]
	movss	DWORD PTR [esp], xmm0
	mov	ecx, 16					; 00000010H
	shl	ecx, 1
	add	ecx, DWORD PTR _this$[ebp]
	call	?Set@Vector4@@QAEXMMMM@Z		; Vector4::Set

; 104  : 	}

	pop	edi
	pop	esi
	pop	ebx
	mov	esp, ebp
	pop	ebp
	ret	16					; 00000010H
?Set@Matrix3D@@QAEXABVVector3@@000@Z ENDP		; Matrix3D::Set
_TEXT	ENDS
; Function compile flags: /Odtp /ZI
; File x:\github\renegade\dragonade_rxd\scripts\matrix3d.h
;	COMDAT ?Set@Matrix3D@@QAEXMMMMMMMMMMMM@Z
_TEXT	SEGMENT
_this$ = -4						; size = 4
_m11$ = 8						; size = 4
_m12$ = 12						; size = 4
_m13$ = 16						; size = 4
_m14$ = 20						; size = 4
_m21$ = 24						; size = 4
_m22$ = 28						; size = 4
_m23$ = 32						; size = 4
_m24$ = 36						; size = 4
_m31$ = 40						; size = 4
_m32$ = 44						; size = 4
_m33$ = 48						; size = 4
_m34$ = 52						; size = 4
?Set@Matrix3D@@QAEXMMMMMMMMMMMM@Z PROC			; Matrix3D::Set, COMDAT
; _this$ = ecx

; 94   : 	{

	push	ebp
	mov	ebp, esp
	sub	esp, 68					; 00000044H
	push	ebx
	push	esi
	push	edi
	mov	DWORD PTR _this$[ebp], ecx

; 95   : 		Row[0].Set(m11,m12,m13,m14);

	push	ecx
	movss	xmm0, DWORD PTR _m14$[ebp]
	movss	DWORD PTR [esp], xmm0
	push	ecx
	movss	xmm0, DWORD PTR _m13$[ebp]
	movss	DWORD PTR [esp], xmm0
	push	ecx
	movss	xmm0, DWORD PTR _m12$[ebp]
	movss	DWORD PTR [esp], xmm0
	push	ecx
	movss	xmm0, DWORD PTR _m11$[ebp]
	movss	DWORD PTR [esp], xmm0
	mov	ecx, 16					; 00000010H
	imul	ecx, 0
	add	ecx, DWORD PTR _this$[ebp]
	call	?Set@Vector4@@QAEXMMMM@Z		; Vector4::Set

; 96   : 		Row[1].Set(m21,m22,m23,m24);

	push	ecx
	movss	xmm0, DWORD PTR _m24$[ebp]
	movss	DWORD PTR [esp], xmm0
	push	ecx
	movss	xmm0, DWORD PTR _m23$[ebp]
	movss	DWORD PTR [esp], xmm0
	push	ecx
	movss	xmm0, DWORD PTR _m22$[ebp]
	movss	DWORD PTR [esp], xmm0
	push	ecx
	movss	xmm0, DWORD PTR _m21$[ebp]
	movss	DWORD PTR [esp], xmm0
	mov	ecx, 16					; 00000010H
	shl	ecx, 0
	add	ecx, DWORD PTR _this$[ebp]
	call	?Set@Vector4@@QAEXMMMM@Z		; Vector4::Set

; 97   : 		Row[2].Set(m31,m32,m33,m34);

	push	ecx
	movss	xmm0, DWORD PTR _m34$[ebp]
	movss	DWORD PTR [esp], xmm0
	push	ecx
	movss	xmm0, DWORD PTR _m33$[ebp]
	movss	DWORD PTR [esp], xmm0
	push	ecx
	movss	xmm0, DWORD PTR _m32$[ebp]
	movss	DWORD PTR [esp], xmm0
	push	ecx
	movss	xmm0, DWORD PTR _m31$[ebp]
	movss	DWORD PTR [esp], xmm0
	mov	ecx, 16					; 00000010H
	shl	ecx, 1
	add	ecx, DWORD PTR _this$[ebp]
	call	?Set@Vector4@@QAEXMMMM@Z		; Vector4::Set

; 98   : 	}

	pop	edi
	pop	esi
	pop	ebx
	mov	esp, ebp
	pop	ebp
	ret	48					; 00000030H
?Set@Matrix3D@@QAEXMMMMMMMMMMMM@Z ENDP			; Matrix3D::Set
_TEXT	ENDS
; Function compile flags: /Odtp /ZI
; File x:\github\renegade\dragonade_rxd\scripts\matrix3d.h
;	COMDAT ?Set@Matrix3D@@QAEXQAM@Z
_TEXT	SEGMENT
_this$ = -4						; size = 4
_m$ = 8							; size = 4
?Set@Matrix3D@@QAEXQAM@Z PROC				; Matrix3D::Set, COMDAT
; _this$ = ecx

; 88   : 	{

	push	ebp
	mov	ebp, esp
	sub	esp, 68					; 00000044H
	push	ebx
	push	esi
	push	edi
	mov	DWORD PTR _this$[ebp], ecx

; 89   : 		Row[0].Set(m[0],m[1],m[2],m[3]);

	mov	eax, 4
	imul	eax, 3
	mov	ecx, DWORD PTR _m$[ebp]
	push	ecx
	movss	xmm0, DWORD PTR [ecx+eax]
	movss	DWORD PTR [esp], xmm0
	mov	edx, 4
	shl	edx, 1
	mov	eax, DWORD PTR _m$[ebp]
	push	ecx
	movss	xmm0, DWORD PTR [eax+edx]
	movss	DWORD PTR [esp], xmm0
	mov	ecx, 4
	shl	ecx, 0
	mov	edx, DWORD PTR _m$[ebp]
	push	ecx
	movss	xmm0, DWORD PTR [edx+ecx]
	movss	DWORD PTR [esp], xmm0
	mov	eax, 4
	imul	eax, 0
	mov	ecx, DWORD PTR _m$[ebp]
	push	ecx
	movss	xmm0, DWORD PTR [ecx+eax]
	movss	DWORD PTR [esp], xmm0
	mov	ecx, 16					; 00000010H
	imul	ecx, 0
	add	ecx, DWORD PTR _this$[ebp]
	call	?Set@Vector4@@QAEXMMMM@Z		; Vector4::Set

; 90   : 		Row[1].Set(m[4],m[5],m[6],m[7]);

	mov	eax, 4
	imul	eax, 7
	mov	ecx, DWORD PTR _m$[ebp]
	push	ecx
	movss	xmm0, DWORD PTR [ecx+eax]
	movss	DWORD PTR [esp], xmm0
	mov	edx, 4
	imul	edx, 6
	mov	eax, DWORD PTR _m$[ebp]
	push	ecx
	movss	xmm0, DWORD PTR [eax+edx]
	movss	DWORD PTR [esp], xmm0
	mov	ecx, 4
	imul	ecx, 5
	mov	edx, DWORD PTR _m$[ebp]
	push	ecx
	movss	xmm0, DWORD PTR [edx+ecx]
	movss	DWORD PTR [esp], xmm0
	mov	eax, 4
	shl	eax, 2
	mov	ecx, DWORD PTR _m$[ebp]
	push	ecx
	movss	xmm0, DWORD PTR [ecx+eax]
	movss	DWORD PTR [esp], xmm0
	mov	ecx, 16					; 00000010H
	shl	ecx, 0
	add	ecx, DWORD PTR _this$[ebp]
	call	?Set@Vector4@@QAEXMMMM@Z		; Vector4::Set

; 91   : 		Row[2].Set(m[8],m[9],m[10],m[11]);

	mov	eax, 4
	imul	eax, 11					; 0000000bH
	mov	ecx, DWORD PTR _m$[ebp]
	push	ecx
	movss	xmm0, DWORD PTR [ecx+eax]
	movss	DWORD PTR [esp], xmm0
	mov	edx, 4
	imul	edx, 10					; 0000000aH
	mov	eax, DWORD PTR _m$[ebp]
	push	ecx
	movss	xmm0, DWORD PTR [eax+edx]
	movss	DWORD PTR [esp], xmm0
	mov	ecx, 4
	imul	ecx, 9
	mov	edx, DWORD PTR _m$[ebp]
	push	ecx
	movss	xmm0, DWORD PTR [edx+ecx]
	movss	DWORD PTR [esp], xmm0
	mov	eax, 4
	shl	eax, 3
	mov	ecx, DWORD PTR _m$[ebp]
	push	ecx
	movss	xmm0, DWORD PTR [ecx+eax]
	movss	DWORD PTR [esp], xmm0
	mov	ecx, 16					; 00000010H
	shl	ecx, 1
	add	ecx, DWORD PTR _this$[ebp]
	call	?Set@Vector4@@QAEXMMMM@Z		; Vector4::Set

; 92   : 	}

	pop	edi
	pop	esi
	pop	ebx
	mov	esp, ebp
	pop	ebp
	ret	4
?Set@Matrix3D@@QAEXQAM@Z ENDP				; Matrix3D::Set
_TEXT	ENDS
; Function compile flags: /Odtp /ZI
; File x:\github\renegade\dragonade_rxd\scripts\matrix3d.h
;	COMDAT ??4Matrix3D@@QAEAAV0@ABV0@@Z
_TEXT	SEGMENT
_this$ = -4						; size = 4
_m$ = 8							; size = 4
??4Matrix3D@@QAEAAV0@ABV0@@Z PROC			; Matrix3D::operator=, COMDAT
; _this$ = ecx

; 68   : 	{

	push	ebp
	mov	ebp, esp
	sub	esp, 68					; 00000044H
	push	ebx
	push	esi
	push	edi
	mov	DWORD PTR _this$[ebp], ecx

; 69   : 		Row[0] = m.Row[0];

	mov	eax, 16					; 00000010H
	imul	eax, 0
	add	eax, DWORD PTR _m$[ebp]
	push	eax
	mov	ecx, 16					; 00000010H
	imul	ecx, 0
	add	ecx, DWORD PTR _this$[ebp]
	call	??4Vector4@@QAEAAV0@ABV0@@Z		; Vector4::operator=

; 70   : 		Row[1] = m.Row[1];

	mov	eax, 16					; 00000010H
	shl	eax, 0
	add	eax, DWORD PTR _m$[ebp]
	push	eax
	mov	ecx, 16					; 00000010H
	shl	ecx, 0
	add	ecx, DWORD PTR _this$[ebp]
	call	??4Vector4@@QAEAAV0@ABV0@@Z		; Vector4::operator=

; 71   : 		Row[2] = m.Row[2];

	mov	eax, 16					; 00000010H
	shl	eax, 1
	add	eax, DWORD PTR _m$[ebp]
	push	eax
	mov	ecx, 16					; 00000010H
	shl	ecx, 1
	add	ecx, DWORD PTR _this$[ebp]
	call	??4Vector4@@QAEAAV0@ABV0@@Z		; Vector4::operator=

; 72   : 		return *this; 

	mov	eax, DWORD PTR _this$[ebp]

; 73   : 	}

	pop	edi
	pop	esi
	pop	ebx
	mov	esp, ebp
	pop	ebp
	ret	4
??4Matrix3D@@QAEAAV0@ABV0@@Z ENDP			; Matrix3D::operator=
_TEXT	ENDS
; Function compile flags: /Odtp /ZI
; File x:\github\renegade\dragonade_rxd\scripts\matrix3d.h
;	COMDAT ??0Matrix3D@@QAE@ABV0@@Z
_TEXT	SEGMENT
_this$ = -4						; size = 4
_m$ = 8							; size = 4
??0Matrix3D@@QAE@ABV0@@Z PROC				; Matrix3D::Matrix3D, COMDAT
; _this$ = ecx

; 61   : 	TT_INLINE Matrix3D(const Matrix3D & m)

	push	ebp
	mov	ebp, esp
	sub	esp, 68					; 00000044H
	push	ebx
	push	esi
	push	edi
	mov	DWORD PTR _this$[ebp], ecx
	push	OFFSET ??0Vector4@@QAE@XZ		; Vector4::Vector4
	push	3
	push	16					; 00000010H
	mov	eax, DWORD PTR _this$[ebp]
	push	eax
	call	??_H@YGXPAXIHP6EPAX0@Z@Z

; 62   : 	{
; 63   : 		Row[0] = m.Row[0];

	mov	eax, 16					; 00000010H
	imul	eax, 0
	add	eax, DWORD PTR _m$[ebp]
	push	eax
	mov	ecx, 16					; 00000010H
	imul	ecx, 0
	add	ecx, DWORD PTR _this$[ebp]
	call	??4Vector4@@QAEAAV0@ABV0@@Z		; Vector4::operator=

; 64   : 		Row[1] = m.Row[1];

	mov	eax, 16					; 00000010H
	shl	eax, 0
	add	eax, DWORD PTR _m$[ebp]
	push	eax
	mov	ecx, 16					; 00000010H
	shl	ecx, 0
	add	ecx, DWORD PTR _this$[ebp]
	call	??4Vector4@@QAEAAV0@ABV0@@Z		; Vector4::operator=

; 65   : 		Row[2] = m.Row[2];

	mov	eax, 16					; 00000010H
	shl	eax, 1
	add	eax, DWORD PTR _m$[ebp]
	push	eax
	mov	ecx, 16					; 00000010H
	shl	ecx, 1
	add	ecx, DWORD PTR _this$[ebp]
	call	??4Vector4@@QAEAAV0@ABV0@@Z		; Vector4::operator=

; 66   : 	}

	mov	eax, DWORD PTR _this$[ebp]
	pop	edi
	pop	esi
	pop	ebx
	mov	esp, ebp
	pop	ebp
	ret	4
??0Matrix3D@@QAE@ABV0@@Z ENDP				; Matrix3D::Matrix3D
_TEXT	ENDS
; Function compile flags: /Odtp /ZI
; File x:\github\renegade\dragonade_rxd\scripts\matrix3d.h
;	COMDAT ??0Matrix3D@@QAE@ABVVector3@@@Z
_TEXT	SEGMENT
_this$ = -4						; size = 4
_position$ = 8						; size = 4
??0Matrix3D@@QAE@ABVVector3@@@Z PROC			; Matrix3D::Matrix3D, COMDAT
; _this$ = ecx

; 57   : 	TT_INLINE explicit Matrix3D(const Vector3 & position)

	push	ebp
	mov	ebp, esp
	sub	esp, 68					; 00000044H
	push	ebx
	push	esi
	push	edi
	mov	DWORD PTR _this$[ebp], ecx
	push	OFFSET ??0Vector4@@QAE@XZ		; Vector4::Vector4
	push	3
	push	16					; 00000010H
	mov	eax, DWORD PTR _this$[ebp]
	push	eax
	call	??_H@YGXPAXIHP6EPAX0@Z@Z

; 58   : 	{
; 59   : 		Set(position);

	mov	eax, DWORD PTR _position$[ebp]
	push	eax
	mov	ecx, DWORD PTR _this$[ebp]
	call	?Set@Matrix3D@@QAEXABVVector3@@@Z	; Matrix3D::Set

; 60   : 	}

	mov	eax, DWORD PTR _this$[ebp]
	pop	edi
	pop	esi
	pop	ebx
	mov	esp, ebp
	pop	ebp
	ret	4
??0Matrix3D@@QAE@ABVVector3@@@Z ENDP			; Matrix3D::Matrix3D
_TEXT	ENDS
; Function compile flags: /Odtp /ZI
; File x:\github\renegade\dragonade_rxd\scripts\matrix3d.h
;	COMDAT ??0Matrix3D@@QAE@ABVQuaternion@@ABVVector3@@@Z
_TEXT	SEGMENT
_this$ = -4						; size = 4
_rotation$ = 8						; size = 4
_position$ = 12						; size = 4
??0Matrix3D@@QAE@ABVQuaternion@@ABVVector3@@@Z PROC	; Matrix3D::Matrix3D, COMDAT
; _this$ = ecx

; 53   : 	TT_INLINE explicit Matrix3D(const Quaternion & rotation,const Vector3 & position)

	push	ebp
	mov	ebp, esp
	sub	esp, 68					; 00000044H
	push	ebx
	push	esi
	push	edi
	mov	DWORD PTR _this$[ebp], ecx
	push	OFFSET ??0Vector4@@QAE@XZ		; Vector4::Vector4
	push	3
	push	16					; 00000010H
	mov	eax, DWORD PTR _this$[ebp]
	push	eax
	call	??_H@YGXPAXIHP6EPAX0@Z@Z

; 54   : 	{
; 55   : 		Set(rotation,position);

	mov	eax, DWORD PTR _position$[ebp]
	push	eax
	mov	ecx, DWORD PTR _rotation$[ebp]
	push	ecx
	mov	ecx, DWORD PTR _this$[ebp]
	call	?Set@Matrix3D@@QAEXABVQuaternion@@ABVVector3@@@Z ; Matrix3D::Set

; 56   : 	}

	mov	eax, DWORD PTR _this$[ebp]
	pop	edi
	pop	esi
	pop	ebx
	mov	esp, ebp
	pop	ebp
	ret	8
??0Matrix3D@@QAE@ABVQuaternion@@ABVVector3@@@Z ENDP	; Matrix3D::Matrix3D
_TEXT	ENDS
; Function compile flags: /Odtp /ZI
; File x:\github\renegade\dragonade_rxd\scripts\matrix3d.h
;	COMDAT ??0Matrix3D@@QAE@ABVMatrix3@@ABVVector3@@@Z
_TEXT	SEGMENT
_this$ = -4						; size = 4
_rotation$ = 8						; size = 4
_position$ = 12						; size = 4
??0Matrix3D@@QAE@ABVMatrix3@@ABVVector3@@@Z PROC	; Matrix3D::Matrix3D, COMDAT
; _this$ = ecx

; 49   : 	TT_INLINE explicit Matrix3D(const Matrix3 & rotation,const Vector3 & position)

	push	ebp
	mov	ebp, esp
	sub	esp, 68					; 00000044H
	push	ebx
	push	esi
	push	edi
	mov	DWORD PTR _this$[ebp], ecx
	push	OFFSET ??0Vector4@@QAE@XZ		; Vector4::Vector4
	push	3
	push	16					; 00000010H
	mov	eax, DWORD PTR _this$[ebp]
	push	eax
	call	??_H@YGXPAXIHP6EPAX0@Z@Z

; 50   : 	{
; 51   : 		Set(rotation,position);

	mov	eax, DWORD PTR _position$[ebp]
	push	eax
	mov	ecx, DWORD PTR _rotation$[ebp]
	push	ecx
	mov	ecx, DWORD PTR _this$[ebp]
	call	?Set@Matrix3D@@QAEXABVMatrix3@@ABVVector3@@@Z ; Matrix3D::Set

; 52   : 	}

	mov	eax, DWORD PTR _this$[ebp]
	pop	edi
	pop	esi
	pop	ebx
	mov	esp, ebp
	pop	ebp
	ret	8
??0Matrix3D@@QAE@ABVMatrix3@@ABVVector3@@@Z ENDP	; Matrix3D::Matrix3D
_TEXT	ENDS
; Function compile flags: /Odtp /ZI
; File x:\github\renegade\dragonade_rxd\scripts\matrix3d.h
;	COMDAT ??0Matrix3D@@QAE@ABVVector3@@MM@Z
_TEXT	SEGMENT
_this$ = -4						; size = 4
_axis$ = 8						; size = 4
_sine$ = 12						; size = 4
_cosine$ = 16						; size = 4
??0Matrix3D@@QAE@ABVVector3@@MM@Z PROC			; Matrix3D::Matrix3D, COMDAT
; _this$ = ecx

; 45   : 	TT_INLINE explicit Matrix3D(const Vector3	&axis,float sine,float cosine)

	push	ebp
	mov	ebp, esp
	sub	esp, 68					; 00000044H
	push	ebx
	push	esi
	push	edi
	mov	DWORD PTR _this$[ebp], ecx
	push	OFFSET ??0Vector4@@QAE@XZ		; Vector4::Vector4
	push	3
	push	16					; 00000010H
	mov	eax, DWORD PTR _this$[ebp]
	push	eax
	call	??_H@YGXPAXIHP6EPAX0@Z@Z

; 46   : 	{
; 47   : 		Set(axis,sine,cosine);

	push	ecx
	movss	xmm0, DWORD PTR _cosine$[ebp]
	movss	DWORD PTR [esp], xmm0
	push	ecx
	movss	xmm0, DWORD PTR _sine$[ebp]
	movss	DWORD PTR [esp], xmm0
	mov	eax, DWORD PTR _axis$[ebp]
	push	eax
	mov	ecx, DWORD PTR _this$[ebp]
	call	?Set@Matrix3D@@QAEXABVVector3@@MM@Z	; Matrix3D::Set

; 48   : 	}

	mov	eax, DWORD PTR _this$[ebp]
	pop	edi
	pop	esi
	pop	ebx
	mov	esp, ebp
	pop	ebp
	ret	12					; 0000000cH
??0Matrix3D@@QAE@ABVVector3@@MM@Z ENDP			; Matrix3D::Matrix3D
_TEXT	ENDS
; Function compile flags: /Odtp /ZI
; File x:\github\renegade\dragonade_rxd\scripts\matrix3d.h
;	COMDAT ??0Matrix3D@@QAE@ABVVector3@@M@Z
_TEXT	SEGMENT
_this$ = -4						; size = 4
_axis$ = 8						; size = 4
_angle$ = 12						; size = 4
??0Matrix3D@@QAE@ABVVector3@@M@Z PROC			; Matrix3D::Matrix3D, COMDAT
; _this$ = ecx

; 41   : 	TT_INLINE explicit Matrix3D(const Vector3	&axis,float angle)

	push	ebp
	mov	ebp, esp
	sub	esp, 68					; 00000044H
	push	ebx
	push	esi
	push	edi
	mov	DWORD PTR _this$[ebp], ecx
	push	OFFSET ??0Vector4@@QAE@XZ		; Vector4::Vector4
	push	3
	push	16					; 00000010H
	mov	eax, DWORD PTR _this$[ebp]
	push	eax
	call	??_H@YGXPAXIHP6EPAX0@Z@Z

; 42   : 	{
; 43   : 		Set(axis,angle);

	push	ecx
	movss	xmm0, DWORD PTR _angle$[ebp]
	movss	DWORD PTR [esp], xmm0
	mov	eax, DWORD PTR _axis$[ebp]
	push	eax
	mov	ecx, DWORD PTR _this$[ebp]
	call	?Set@Matrix3D@@QAEXABVVector3@@M@Z	; Matrix3D::Set

; 44   : 	}

	mov	eax, DWORD PTR _this$[ebp]
	pop	edi
	pop	esi
	pop	ebx
	mov	esp, ebp
	pop	ebp
	ret	8
??0Matrix3D@@QAE@ABVVector3@@M@Z ENDP			; Matrix3D::Matrix3D
_TEXT	ENDS
; Function compile flags: /Odtp /ZI
; File x:\github\renegade\dragonade_rxd\scripts\matrix3d.h
;	COMDAT ??0Matrix3D@@QAE@ABVVector3@@000@Z
_TEXT	SEGMENT
_this$ = -4						; size = 4
_x$ = 8							; size = 4
_y$ = 12						; size = 4
_z$ = 16						; size = 4
_pos$ = 20						; size = 4
??0Matrix3D@@QAE@ABVVector3@@000@Z PROC			; Matrix3D::Matrix3D, COMDAT
; _this$ = ecx

; 37   : 	TT_INLINE explicit Matrix3D(const Vector3	&x,const Vector3	&y,const Vector3	&z,const Vector3	&pos)

	push	ebp
	mov	ebp, esp
	sub	esp, 68					; 00000044H
	push	ebx
	push	esi
	push	edi
	mov	DWORD PTR _this$[ebp], ecx
	push	OFFSET ??0Vector4@@QAE@XZ		; Vector4::Vector4
	push	3
	push	16					; 00000010H
	mov	eax, DWORD PTR _this$[ebp]
	push	eax
	call	??_H@YGXPAXIHP6EPAX0@Z@Z

; 38   : 	{
; 39   : 		Set(x,y,z,pos);

	mov	eax, DWORD PTR _pos$[ebp]
	push	eax
	mov	ecx, DWORD PTR _z$[ebp]
	push	ecx
	mov	edx, DWORD PTR _y$[ebp]
	push	edx
	mov	eax, DWORD PTR _x$[ebp]
	push	eax
	mov	ecx, DWORD PTR _this$[ebp]
	call	?Set@Matrix3D@@QAEXABVVector3@@000@Z	; Matrix3D::Set

; 40   : 	}

	mov	eax, DWORD PTR _this$[ebp]
	pop	edi
	pop	esi
	pop	ebx
	mov	esp, ebp
	pop	ebp
	ret	16					; 00000010H
??0Matrix3D@@QAE@ABVVector3@@000@Z ENDP			; Matrix3D::Matrix3D
_TEXT	ENDS
; Function compile flags: /Odtp /ZI
; File x:\github\renegade\dragonade_rxd\scripts\matrix3d.h
;	COMDAT ??0Matrix3D@@QAE@QAM@Z
_TEXT	SEGMENT
_this$ = -4						; size = 4
_m$ = 8							; size = 4
??0Matrix3D@@QAE@QAM@Z PROC				; Matrix3D::Matrix3D, COMDAT
; _this$ = ecx

; 31   : 	TT_INLINE explicit Matrix3D(float m[12])

	push	ebp
	mov	ebp, esp
	sub	esp, 68					; 00000044H
	push	ebx
	push	esi
	push	edi
	mov	DWORD PTR _this$[ebp], ecx
	push	OFFSET ??0Vector4@@QAE@XZ		; Vector4::Vector4
	push	3
	push	16					; 00000010H
	mov	eax, DWORD PTR _this$[ebp]
	push	eax
	call	??_H@YGXPAXIHP6EPAX0@Z@Z

; 32   : 	{
; 33   : 		Row[0].Set(m[0],m[1],m[2],m[3]);

	mov	eax, 4
	imul	eax, 3
	mov	ecx, DWORD PTR _m$[ebp]
	push	ecx
	movss	xmm0, DWORD PTR [ecx+eax]
	movss	DWORD PTR [esp], xmm0
	mov	edx, 4
	shl	edx, 1
	mov	eax, DWORD PTR _m$[ebp]
	push	ecx
	movss	xmm0, DWORD PTR [eax+edx]
	movss	DWORD PTR [esp], xmm0
	mov	ecx, 4
	shl	ecx, 0
	mov	edx, DWORD PTR _m$[ebp]
	push	ecx
	movss	xmm0, DWORD PTR [edx+ecx]
	movss	DWORD PTR [esp], xmm0
	mov	eax, 4
	imul	eax, 0
	mov	ecx, DWORD PTR _m$[ebp]
	push	ecx
	movss	xmm0, DWORD PTR [ecx+eax]
	movss	DWORD PTR [esp], xmm0
	mov	ecx, 16					; 00000010H
	imul	ecx, 0
	add	ecx, DWORD PTR _this$[ebp]
	call	?Set@Vector4@@QAEXMMMM@Z		; Vector4::Set

; 34   : 		Row[1].Set(m[4],m[5],m[6],m[7]);

	mov	eax, 4
	imul	eax, 7
	mov	ecx, DWORD PTR _m$[ebp]
	push	ecx
	movss	xmm0, DWORD PTR [ecx+eax]
	movss	DWORD PTR [esp], xmm0
	mov	edx, 4
	imul	edx, 6
	mov	eax, DWORD PTR _m$[ebp]
	push	ecx
	movss	xmm0, DWORD PTR [eax+edx]
	movss	DWORD PTR [esp], xmm0
	mov	ecx, 4
	imul	ecx, 5
	mov	edx, DWORD PTR _m$[ebp]
	push	ecx
	movss	xmm0, DWORD PTR [edx+ecx]
	movss	DWORD PTR [esp], xmm0
	mov	eax, 4
	shl	eax, 2
	mov	ecx, DWORD PTR _m$[ebp]
	push	ecx
	movss	xmm0, DWORD PTR [ecx+eax]
	movss	DWORD PTR [esp], xmm0
	mov	ecx, 16					; 00000010H
	shl	ecx, 0
	add	ecx, DWORD PTR _this$[ebp]
	call	?Set@Vector4@@QAEXMMMM@Z		; Vector4::Set

; 35   : 		Row[2].Set(m[8],m[9],m[10],m[11]);

	mov	eax, 4
	imul	eax, 11					; 0000000bH
	mov	ecx, DWORD PTR _m$[ebp]
	push	ecx
	movss	xmm0, DWORD PTR [ecx+eax]
	movss	DWORD PTR [esp], xmm0
	mov	edx, 4
	imul	edx, 10					; 0000000aH
	mov	eax, DWORD PTR _m$[ebp]
	push	ecx
	movss	xmm0, DWORD PTR [eax+edx]
	movss	DWORD PTR [esp], xmm0
	mov	ecx, 4
	imul	ecx, 9
	mov	edx, DWORD PTR _m$[ebp]
	push	ecx
	movss	xmm0, DWORD PTR [edx+ecx]
	movss	DWORD PTR [esp], xmm0
	mov	eax, 4
	shl	eax, 3
	mov	ecx, DWORD PTR _m$[ebp]
	push	ecx
	movss	xmm0, DWORD PTR [ecx+eax]
	movss	DWORD PTR [esp], xmm0
	mov	ecx, 16					; 00000010H
	shl	ecx, 1
	add	ecx, DWORD PTR _this$[ebp]
	call	?Set@Vector4@@QAEXMMMM@Z		; Vector4::Set

; 36   : 	}

	mov	eax, DWORD PTR _this$[ebp]
	pop	edi
	pop	esi
	pop	ebx
	mov	esp, ebp
	pop	ebp
	ret	4
??0Matrix3D@@QAE@QAM@Z ENDP				; Matrix3D::Matrix3D
_TEXT	ENDS
; Function compile flags: /Odtp /ZI
; File x:\github\renegade\dragonade_rxd\scripts\matrix3d.h
;	COMDAT ??0Matrix3D@@QAE@_N@Z
_TEXT	SEGMENT
_this$ = -4						; size = 4
_init$ = 8						; size = 1
??0Matrix3D@@QAE@_N@Z PROC				; Matrix3D::Matrix3D, COMDAT
; _this$ = ecx

; 30   : 	TT_INLINE explicit Matrix3D(bool init) { if (init) Make_Identity(); }

	push	ebp
	mov	ebp, esp
	sub	esp, 68					; 00000044H
	push	ebx
	push	esi
	push	edi
	mov	DWORD PTR _this$[ebp], ecx
	push	OFFSET ??0Vector4@@QAE@XZ		; Vector4::Vector4
	push	3
	push	16					; 00000010H
	mov	eax, DWORD PTR _this$[ebp]
	push	eax
	call	??_H@YGXPAXIHP6EPAX0@Z@Z
	movzx	eax, BYTE PTR _init$[ebp]
	test	eax, eax
	je	SHORT $LN2@Matrix3D
	mov	ecx, DWORD PTR _this$[ebp]
	call	?Make_Identity@Matrix3D@@QAEXXZ		; Matrix3D::Make_Identity
$LN2@Matrix3D:
	mov	eax, DWORD PTR _this$[ebp]
	pop	edi
	pop	esi
	pop	ebx
	mov	esp, ebp
	pop	ebp
	ret	4
??0Matrix3D@@QAE@_N@Z ENDP				; Matrix3D::Matrix3D
_TEXT	ENDS
; Function compile flags: /Odtp /ZI
; File x:\github\renegade\dragonade_rxd\scripts\matrix3d.h
;	COMDAT ??AMatrix3D@@QBEABVVector4@@H@Z
_TEXT	SEGMENT
_this$ = -4						; size = 4
_i$ = 8							; size = 4
??AMatrix3D@@QBEABVVector4@@H@Z PROC			; Matrix3D::operator[], COMDAT
; _this$ = ecx

; 28   :    TT_INLINE const Vector4 & operator [] (int i) const { return Row[i]; }

	push	ebp
	mov	ebp, esp
	sub	esp, 68					; 00000044H
	push	ebx
	push	esi
	push	edi
	mov	DWORD PTR _this$[ebp], ecx
	mov	eax, DWORD PTR _i$[ebp]
	shl	eax, 4
	add	eax, DWORD PTR _this$[ebp]
	pop	edi
	pop	esi
	pop	ebx
	mov	esp, ebp
	pop	ebp
	ret	4
??AMatrix3D@@QBEABVVector4@@H@Z ENDP			; Matrix3D::operator[]
_TEXT	ENDS
; Function compile flags: /Odtp /ZI
; File x:\github\renegade\dragonade_rxd\scripts\matrix3d.h
;	COMDAT ??AMatrix3D@@QAEAAVVector4@@H@Z
_TEXT	SEGMENT
_this$ = -4						; size = 4
_i$ = 8							; size = 4
??AMatrix3D@@QAEAAVVector4@@H@Z PROC			; Matrix3D::operator[], COMDAT
; _this$ = ecx

; 27   :    TT_INLINE Vector4 & operator [] (int i) { return Row[i]; }

	push	ebp
	mov	ebp, esp
	sub	esp, 68					; 00000044H
	push	ebx
	push	esi
	push	edi
	mov	DWORD PTR _this$[ebp], ecx
	mov	eax, DWORD PTR _i$[ebp]
	shl	eax, 4
	add	eax, DWORD PTR _this$[ebp]
	pop	edi
	pop	esi
	pop	ebx
	mov	esp, ebp
	pop	ebp
	ret	4
??AMatrix3D@@QAEAAVVector4@@H@Z ENDP			; Matrix3D::operator[]
_TEXT	ENDS
; Function compile flags: /Odtp /ZI
; File x:\github\renegade\dragonade_rxd\scripts\vector4.h
;	COMDAT ??AVector4@@QBEABMH@Z
_TEXT	SEGMENT
_this$ = -4						; size = 4
_i$ = 8							; size = 4
??AVector4@@QBEABMH@Z PROC				; Vector4::operator[], COMDAT
; _this$ = ecx

; 39   : 	TT_INLINE const float& operator[](int i) const { return (&X)[i]; };

	push	ebp
	mov	ebp, esp
	sub	esp, 68					; 00000044H
	push	ebx
	push	esi
	push	edi
	mov	DWORD PTR _this$[ebp], ecx
	mov	eax, DWORD PTR _i$[ebp]
	mov	ecx, DWORD PTR _this$[ebp]
	lea	eax, DWORD PTR [ecx+eax*4]
	pop	edi
	pop	esi
	pop	ebx
	mov	esp, ebp
	pop	ebp
	ret	4
??AVector4@@QBEABMH@Z ENDP				; Vector4::operator[]
_TEXT	ENDS
; Function compile flags: /Odtp /ZI
; File x:\github\renegade\dragonade_rxd\scripts\vector4.h
;	COMDAT ??AVector4@@QAEAAMH@Z
_TEXT	SEGMENT
_this$ = -4						; size = 4
_i$ = 8							; size = 4
??AVector4@@QAEAAMH@Z PROC				; Vector4::operator[], COMDAT
; _this$ = ecx

; 38   : 	TT_INLINE float& operator[](int i) { return (&X)[i]; };

	push	ebp
	mov	ebp, esp
	sub	esp, 68					; 00000044H
	push	ebx
	push	esi
	push	edi
	mov	DWORD PTR _this$[ebp], ecx
	mov	eax, DWORD PTR _i$[ebp]
	mov	ecx, DWORD PTR _this$[ebp]
	lea	eax, DWORD PTR [ecx+eax*4]
	pop	edi
	pop	esi
	pop	ebx
	mov	esp, ebp
	pop	ebp
	ret	4
??AVector4@@QAEAAMH@Z ENDP				; Vector4::operator[]
_TEXT	ENDS
; Function compile flags: /Odtp /ZI
; File x:\github\renegade\dragonade_rxd\scripts\vector4.h
;	COMDAT ?Set@Vector4@@QAEXMMMM@Z
_TEXT	SEGMENT
_this$ = -4						; size = 4
_x$ = 8							; size = 4
_y$ = 12						; size = 4
_z$ = 16						; size = 4
_w$ = 20						; size = 4
?Set@Vector4@@QAEXMMMM@Z PROC				; Vector4::Set, COMDAT
; _this$ = ecx

; 35   : 	TT_INLINE void Set(float x, float y, float z, float w) { X = x; Y = y; Z = z; W = w; };

	push	ebp
	mov	ebp, esp
	sub	esp, 68					; 00000044H
	push	ebx
	push	esi
	push	edi
	mov	DWORD PTR _this$[ebp], ecx
	mov	eax, DWORD PTR _this$[ebp]
	movss	xmm0, DWORD PTR _x$[ebp]
	movss	DWORD PTR [eax], xmm0
	mov	eax, DWORD PTR _this$[ebp]
	movss	xmm0, DWORD PTR _y$[ebp]
	movss	DWORD PTR [eax+4], xmm0
	mov	eax, DWORD PTR _this$[ebp]
	movss	xmm0, DWORD PTR _z$[ebp]
	movss	DWORD PTR [eax+8], xmm0
	mov	eax, DWORD PTR _this$[ebp]
	movss	xmm0, DWORD PTR _w$[ebp]
	movss	DWORD PTR [eax+12], xmm0
	pop	edi
	pop	esi
	pop	ebx
	mov	esp, ebp
	pop	ebp
	ret	16					; 00000010H
?Set@Vector4@@QAEXMMMM@Z ENDP				; Vector4::Set
_TEXT	ENDS
; Function compile flags: /Odtp /ZI
; File x:\github\renegade\dragonade_rxd\scripts\vector4.h
;	COMDAT ??4Vector4@@QAEAAV0@ABV0@@Z
_TEXT	SEGMENT
_this$ = -4						; size = 4
_v$ = 8							; size = 4
??4Vector4@@QAEAAV0@ABV0@@Z PROC			; Vector4::operator=, COMDAT
; _this$ = ecx

; 34   : 	TT_INLINE Vector4& operator=(const Vector4& v) { X = v.X; Y = v.Y; Z = v.Z; W = v.W; return *this; };	

	push	ebp
	mov	ebp, esp
	sub	esp, 68					; 00000044H
	push	ebx
	push	esi
	push	edi
	mov	DWORD PTR _this$[ebp], ecx
	mov	eax, DWORD PTR _this$[ebp]
	mov	ecx, DWORD PTR _v$[ebp]
	mov	edx, DWORD PTR [ecx]
	mov	DWORD PTR [eax], edx
	mov	eax, DWORD PTR _this$[ebp]
	mov	ecx, DWORD PTR _v$[ebp]
	mov	edx, DWORD PTR [ecx+4]
	mov	DWORD PTR [eax+4], edx
	mov	eax, DWORD PTR _this$[ebp]
	mov	ecx, DWORD PTR _v$[ebp]
	mov	edx, DWORD PTR [ecx+8]
	mov	DWORD PTR [eax+8], edx
	mov	eax, DWORD PTR _this$[ebp]
	mov	ecx, DWORD PTR _v$[ebp]
	mov	edx, DWORD PTR [ecx+12]
	mov	DWORD PTR [eax+12], edx
	mov	eax, DWORD PTR _this$[ebp]
	pop	edi
	pop	esi
	pop	ebx
	mov	esp, ebp
	pop	ebp
	ret	4
??4Vector4@@QAEAAV0@ABV0@@Z ENDP			; Vector4::operator=
_TEXT	ENDS
; Function compile flags: /Odtp /ZI
; File x:\github\renegade\dragonade_rxd\scripts\vector4.h
;	COMDAT ??0Vector4@@QAE@XZ
_TEXT	SEGMENT
_this$ = -4						; size = 4
??0Vector4@@QAE@XZ PROC					; Vector4::Vector4, COMDAT
; _this$ = ecx

; 24   : 	TT_INLINE Vector4() {};

	push	ebp
	mov	ebp, esp
	sub	esp, 68					; 00000044H
	push	ebx
	push	esi
	push	edi
	mov	DWORD PTR _this$[ebp], ecx
	mov	eax, DWORD PTR _this$[ebp]
	pop	edi
	pop	esi
	pop	ebx
	mov	esp, ebp
	pop	ebp
	ret	0
??0Vector4@@QAE@XZ ENDP					; Vector4::Vector4
_TEXT	ENDS
; Function compile flags: /Odtp /ZI
; File x:\github\renegade\dragonade_rxd\scripts\vector3.h
;	COMDAT ?Add@Vector3@@SAXABV1@0PAV1@@Z
_TEXT	SEGMENT
_a$ = 8							; size = 4
_b$ = 12						; size = 4
_set_result$ = 16					; size = 4
?Add@Vector3@@SAXABV1@0PAV1@@Z PROC			; Vector3::Add, COMDAT

; 212  : 	{

	push	ebp
	mov	ebp, esp
	sub	esp, 64					; 00000040H
	push	ebx
	push	esi
	push	edi

; 213  : 		set_result->X = a.X + b.X;

	mov	eax, DWORD PTR _a$[ebp]
	mov	ecx, DWORD PTR _b$[ebp]
	movss	xmm0, DWORD PTR [eax]
	addss	xmm0, DWORD PTR [ecx]
	mov	edx, DWORD PTR _set_result$[ebp]
	movss	DWORD PTR [edx], xmm0

; 214  : 		set_result->Y = a.Y + b.Y;

	mov	eax, DWORD PTR _a$[ebp]
	mov	ecx, DWORD PTR _b$[ebp]
	movss	xmm0, DWORD PTR [eax+4]
	addss	xmm0, DWORD PTR [ecx+4]
	mov	edx, DWORD PTR _set_result$[ebp]
	movss	DWORD PTR [edx+4], xmm0

; 215  : 		set_result->Z = a.Z + b.Z;

	mov	eax, DWORD PTR _a$[ebp]
	mov	ecx, DWORD PTR _b$[ebp]
	movss	xmm0, DWORD PTR [eax+8]
	addss	xmm0, DWORD PTR [ecx+8]
	mov	edx, DWORD PTR _set_result$[ebp]
	movss	DWORD PTR [edx+8], xmm0

; 216  : 	}

	pop	edi
	pop	esi
	pop	ebx
	mov	esp, ebp
	pop	ebp
	ret	0
?Add@Vector3@@SAXABV1@0PAV1@@Z ENDP			; Vector3::Add
_TEXT	ENDS
; Function compile flags: /Odtp /ZI
; File x:\github\renegade\dragonade_rxd\scripts\vector3.h
;	COMDAT ?Cross_Product@Vector3@@SA?AV1@ABV1@0@Z
_TEXT	SEGMENT
___$ReturnUdt$ = 8					; size = 4
_a$ = 12						; size = 4
_b$ = 16						; size = 4
?Cross_Product@Vector3@@SA?AV1@ABV1@0@Z PROC		; Vector3::Cross_Product, COMDAT

; 189  : 	{

	push	ebp
	mov	ebp, esp
	sub	esp, 64					; 00000040H
	push	ebx
	push	esi
	push	edi

; 190  : 		return Vector3((a.Y * b.Z - a.Z * b.Y),(a.Z * b.X - a.X * b.Z),(a.X * b.Y - a.Y * b.X));

	mov	eax, DWORD PTR _a$[ebp]
	mov	ecx, DWORD PTR _b$[ebp]
	movss	xmm0, DWORD PTR [eax]
	mulss	xmm0, DWORD PTR [ecx+4]
	mov	edx, DWORD PTR _a$[ebp]
	mov	eax, DWORD PTR _b$[ebp]
	movss	xmm1, DWORD PTR [edx+4]
	mulss	xmm1, DWORD PTR [eax]
	subss	xmm0, xmm1
	push	ecx
	movss	DWORD PTR [esp], xmm0
	mov	ecx, DWORD PTR _a$[ebp]
	mov	edx, DWORD PTR _b$[ebp]
	movss	xmm0, DWORD PTR [ecx+8]
	mulss	xmm0, DWORD PTR [edx]
	mov	eax, DWORD PTR _a$[ebp]
	mov	ecx, DWORD PTR _b$[ebp]
	movss	xmm1, DWORD PTR [eax]
	mulss	xmm1, DWORD PTR [ecx+8]
	subss	xmm0, xmm1
	push	ecx
	movss	DWORD PTR [esp], xmm0
	mov	edx, DWORD PTR _a$[ebp]
	mov	eax, DWORD PTR _b$[ebp]
	movss	xmm0, DWORD PTR [edx+4]
	mulss	xmm0, DWORD PTR [eax+8]
	mov	ecx, DWORD PTR _a$[ebp]
	mov	edx, DWORD PTR _b$[ebp]
	movss	xmm1, DWORD PTR [ecx+8]
	mulss	xmm1, DWORD PTR [edx+4]
	subss	xmm0, xmm1
	push	ecx
	movss	DWORD PTR [esp], xmm0
	mov	ecx, DWORD PTR ___$ReturnUdt$[ebp]
	call	??0Vector3@@QAE@MMM@Z			; Vector3::Vector3
	mov	eax, DWORD PTR ___$ReturnUdt$[ebp]

; 191  : 	}

	pop	edi
	pop	esi
	pop	ebx
	mov	esp, ebp
	pop	ebp
	ret	0
?Cross_Product@Vector3@@SA?AV1@ABV1@0@Z ENDP		; Vector3::Cross_Product
_TEXT	ENDS
; Function compile flags: /Odtp /ZI
; File x:\github\renegade\dragonade_rxd\scripts\vector3.h
;	COMDAT ??D@YAMABVVector3@@0@Z
_TEXT	SEGMENT
tv85 = -68						; size = 4
_a$ = 8							; size = 4
_b$ = 12						; size = 4
??D@YAMABVVector3@@0@Z PROC				; operator*, COMDAT

; 381  : {

	push	ebp
	mov	ebp, esp
	sub	esp, 68					; 00000044H
	push	ebx
	push	esi
	push	edi

; 382  : 	return	a.X * b.X + a.Y * b.Y + a.Z * b.Z;

	mov	eax, DWORD PTR _a$[ebp]
	mov	ecx, DWORD PTR _b$[ebp]
	movss	xmm0, DWORD PTR [eax]
	mulss	xmm0, DWORD PTR [ecx]
	mov	edx, DWORD PTR _a$[ebp]
	mov	eax, DWORD PTR _b$[ebp]
	movss	xmm1, DWORD PTR [edx+4]
	mulss	xmm1, DWORD PTR [eax+4]
	addss	xmm0, xmm1
	mov	ecx, DWORD PTR _a$[ebp]
	mov	edx, DWORD PTR _b$[ebp]
	movss	xmm1, DWORD PTR [ecx+8]
	mulss	xmm1, DWORD PTR [edx+8]
	addss	xmm0, xmm1
	movss	DWORD PTR tv85[ebp], xmm0
	fld	DWORD PTR tv85[ebp]

; 383  : }

	pop	edi
	pop	esi
	pop	ebx
	mov	esp, ebp
	pop	ebp
	ret	0
??D@YAMABVVector3@@0@Z ENDP				; operator*
_TEXT	ENDS
; Function compile flags: /Odtp /ZI
; File x:\github\renegade\dragonade_rxd\scripts\vector3.h
;	COMDAT ??G@YA?AVVector3@@ABV0@0@Z
_TEXT	SEGMENT
___$ReturnUdt$ = 8					; size = 4
_a$ = 12						; size = 4
_b$ = 16						; size = 4
??G@YA?AVVector3@@ABV0@0@Z PROC				; operator-, COMDAT

; 377  : {

	push	ebp
	mov	ebp, esp
	sub	esp, 64					; 00000040H
	push	ebx
	push	esi
	push	edi

; 378  : 	return Vector3(a.X - b.X,a.Y - b.Y,a.Z - b.Z);

	mov	eax, DWORD PTR _a$[ebp]
	mov	ecx, DWORD PTR _b$[ebp]
	movss	xmm0, DWORD PTR [eax+8]
	subss	xmm0, DWORD PTR [ecx+8]
	push	ecx
	movss	DWORD PTR [esp], xmm0
	mov	edx, DWORD PTR _a$[ebp]
	mov	eax, DWORD PTR _b$[ebp]
	movss	xmm0, DWORD PTR [edx+4]
	subss	xmm0, DWORD PTR [eax+4]
	push	ecx
	movss	DWORD PTR [esp], xmm0
	mov	ecx, DWORD PTR _a$[ebp]
	mov	edx, DWORD PTR _b$[ebp]
	movss	xmm0, DWORD PTR [ecx]
	subss	xmm0, DWORD PTR [edx]
	push	ecx
	movss	DWORD PTR [esp], xmm0
	mov	ecx, DWORD PTR ___$ReturnUdt$[ebp]
	call	??0Vector3@@QAE@MMM@Z			; Vector3::Vector3
	mov	eax, DWORD PTR ___$ReturnUdt$[ebp]

; 379  : }

	pop	edi
	pop	esi
	pop	ebx
	mov	esp, ebp
	pop	ebp
	ret	0
??G@YA?AVVector3@@ABV0@0@Z ENDP				; operator-
_TEXT	ENDS
; Function compile flags: /Odtp /ZI
; File x:\github\renegade\dragonade_rxd\scripts\vector3.h
;	COMDAT ??H@YA?AVVector3@@ABV0@0@Z
_TEXT	SEGMENT
___$ReturnUdt$ = 8					; size = 4
_a$ = 12						; size = 4
_b$ = 16						; size = 4
??H@YA?AVVector3@@ABV0@0@Z PROC				; operator+, COMDAT

; 373  : {

	push	ebp
	mov	ebp, esp
	sub	esp, 64					; 00000040H
	push	ebx
	push	esi
	push	edi

; 374  : 	return Vector3(a.X + b.X,a.Y + b.Y,a.Z + b.Z);

	mov	eax, DWORD PTR _a$[ebp]
	mov	ecx, DWORD PTR _b$[ebp]
	movss	xmm0, DWORD PTR [eax+8]
	addss	xmm0, DWORD PTR [ecx+8]
	push	ecx
	movss	DWORD PTR [esp], xmm0
	mov	edx, DWORD PTR _a$[ebp]
	mov	eax, DWORD PTR _b$[ebp]
	movss	xmm0, DWORD PTR [edx+4]
	addss	xmm0, DWORD PTR [eax+4]
	push	ecx
	movss	DWORD PTR [esp], xmm0
	mov	ecx, DWORD PTR _a$[ebp]
	mov	edx, DWORD PTR _b$[ebp]
	movss	xmm0, DWORD PTR [ecx]
	addss	xmm0, DWORD PTR [edx]
	push	ecx
	movss	DWORD PTR [esp], xmm0
	mov	ecx, DWORD PTR ___$ReturnUdt$[ebp]
	call	??0Vector3@@QAE@MMM@Z			; Vector3::Vector3
	mov	eax, DWORD PTR ___$ReturnUdt$[ebp]

; 375  : }

	pop	edi
	pop	esi
	pop	ebx
	mov	esp, ebp
	pop	ebp
	ret	0
??H@YA?AVVector3@@ABV0@0@Z ENDP				; operator+
_TEXT	ENDS
; Function compile flags: /Odtp /ZI
; File x:\github\renegade\dragonade_rxd\scripts\vector3.h
;	COMDAT ??D@YA?AVVector3@@MABV0@@Z
_TEXT	SEGMENT
___$ReturnUdt$ = 8					; size = 4
_k$ = 12						; size = 4
_a$ = 16						; size = 4
??D@YA?AVVector3@@MABV0@@Z PROC				; operator*, COMDAT

; 365  : {

	push	ebp
	mov	ebp, esp
	sub	esp, 64					; 00000040H
	push	ebx
	push	esi
	push	edi

; 366  : 	return Vector3((a.X * k),(a.Y * k),(a.Z * k));

	mov	eax, DWORD PTR _a$[ebp]
	movss	xmm0, DWORD PTR [eax+8]
	mulss	xmm0, DWORD PTR _k$[ebp]
	push	ecx
	movss	DWORD PTR [esp], xmm0
	mov	ecx, DWORD PTR _a$[ebp]
	movss	xmm0, DWORD PTR [ecx+4]
	mulss	xmm0, DWORD PTR _k$[ebp]
	push	ecx
	movss	DWORD PTR [esp], xmm0
	mov	edx, DWORD PTR _a$[ebp]
	movss	xmm0, DWORD PTR [edx]
	mulss	xmm0, DWORD PTR _k$[ebp]
	push	ecx
	movss	DWORD PTR [esp], xmm0
	mov	ecx, DWORD PTR ___$ReturnUdt$[ebp]
	call	??0Vector3@@QAE@MMM@Z			; Vector3::Vector3
	mov	eax, DWORD PTR ___$ReturnUdt$[ebp]

; 367  : }

	pop	edi
	pop	esi
	pop	ebx
	mov	esp, ebp
	pop	ebp
	ret	0
??D@YA?AVVector3@@MABV0@@Z ENDP				; operator*
_TEXT	ENDS
; Function compile flags: /Odtp /ZI
; File x:\github\renegade\dragonade_rxd\scripts\vector3.h
;	COMDAT ??D@YA?AVVector3@@ABV0@M@Z
_TEXT	SEGMENT
___$ReturnUdt$ = 8					; size = 4
_a$ = 12						; size = 4
_k$ = 16						; size = 4
??D@YA?AVVector3@@ABV0@M@Z PROC				; operator*, COMDAT

; 361  : {

	push	ebp
	mov	ebp, esp
	sub	esp, 64					; 00000040H
	push	ebx
	push	esi
	push	edi

; 362  : 	return Vector3((a.X * k),(a.Y * k),(a.Z * k));

	mov	eax, DWORD PTR _a$[ebp]
	movss	xmm0, DWORD PTR [eax+8]
	mulss	xmm0, DWORD PTR _k$[ebp]
	push	ecx
	movss	DWORD PTR [esp], xmm0
	mov	ecx, DWORD PTR _a$[ebp]
	movss	xmm0, DWORD PTR [ecx+4]
	mulss	xmm0, DWORD PTR _k$[ebp]
	push	ecx
	movss	DWORD PTR [esp], xmm0
	mov	edx, DWORD PTR _a$[ebp]
	movss	xmm0, DWORD PTR [edx]
	mulss	xmm0, DWORD PTR _k$[ebp]
	push	ecx
	movss	DWORD PTR [esp], xmm0
	mov	ecx, DWORD PTR ___$ReturnUdt$[ebp]
	call	??0Vector3@@QAE@MMM@Z			; Vector3::Vector3
	mov	eax, DWORD PTR ___$ReturnUdt$[ebp]

; 363  : }

	pop	edi
	pop	esi
	pop	ebx
	mov	esp, ebp
	pop	ebp
	ret	0
??D@YA?AVVector3@@ABV0@M@Z ENDP				; operator*
_TEXT	ENDS
; Function compile flags: /Odtp /ZI
; File x:\github\renegade\dragonade_rxd\scripts\vector3.h
;	COMDAT ?Length2@Vector3@@QBEMXZ
_TEXT	SEGMENT
tv85 = -72						; size = 4
_this$ = -4						; size = 4
?Length2@Vector3@@QBEMXZ PROC				; Vector3::Length2, COMDAT
; _this$ = ecx

; 92   : 	{

	push	ebp
	mov	ebp, esp
	sub	esp, 72					; 00000048H
	push	ebx
	push	esi
	push	edi
	mov	DWORD PTR _this$[ebp], ecx

; 93   : 		return X * X + Y * Y + Z * Z;

	mov	eax, DWORD PTR _this$[ebp]
	mov	ecx, DWORD PTR _this$[ebp]
	movss	xmm0, DWORD PTR [eax]
	mulss	xmm0, DWORD PTR [ecx]
	mov	edx, DWORD PTR _this$[ebp]
	mov	eax, DWORD PTR _this$[ebp]
	movss	xmm1, DWORD PTR [edx+4]
	mulss	xmm1, DWORD PTR [eax+4]
	addss	xmm0, xmm1
	mov	ecx, DWORD PTR _this$[ebp]
	mov	edx, DWORD PTR _this$[ebp]
	movss	xmm1, DWORD PTR [ecx+8]
	mulss	xmm1, DWORD PTR [edx+8]
	addss	xmm0, xmm1
	movss	DWORD PTR tv85[ebp], xmm0
	fld	DWORD PTR tv85[ebp]

; 94   : 	}

	pop	edi
	pop	esi
	pop	ebx
	mov	esp, ebp
	pop	ebp
	ret	0
?Length2@Vector3@@QBEMXZ ENDP				; Vector3::Length2
_TEXT	ENDS
; Function compile flags: /Odtp /ZI
; File x:\github\renegade\dragonade_rxd\scripts\vector3.h
;	COMDAT ?Length@Vector3@@QBEMXZ
_TEXT	SEGMENT
_this$ = -4						; size = 4
?Length@Vector3@@QBEMXZ PROC				; Vector3::Length, COMDAT
; _this$ = ecx

; 88   : 	{

	push	ebp
	mov	ebp, esp
	sub	esp, 68					; 00000044H
	push	ebx
	push	esi
	push	edi
	mov	DWORD PTR _this$[ebp], ecx

; 89   : 		return WWMath::Sqrt(Length2());

	mov	ecx, DWORD PTR _this$[ebp]
	call	?Length2@Vector3@@QBEMXZ		; Vector3::Length2
	push	ecx
	fstp	DWORD PTR [esp]
	call	?Sqrt@WWMath@@SAMM@Z			; WWMath::Sqrt
	add	esp, 4

; 90   : 	}

	pop	edi
	pop	esi
	pop	ebx
	mov	esp, ebp
	pop	ebp
	ret	0
?Length@Vector3@@QBEMXZ ENDP				; Vector3::Length
_TEXT	ENDS
; Function compile flags: /Odtp /ZI
; File x:\github\renegade\dragonade_rxd\scripts\vector3.h
;	COMDAT ?Normalize@Vector3@@QAEXXZ
_TEXT	SEGMENT
tv81 = -80						; size = 4
_oolen$ = -12						; size = 4
_len2$ = -8						; size = 4
_this$ = -4						; size = 4
?Normalize@Vector3@@QAEXXZ PROC				; Vector3::Normalize, COMDAT
; _this$ = ecx

; 74   : 	{

	push	ebp
	mov	ebp, esp
	sub	esp, 80					; 00000050H
	push	ebx
	push	esi
	push	edi
	mov	DWORD PTR _this$[ebp], ecx

; 75   : 		float len2 = WWMATH_FLOAT_TINY + Length2();

	mov	ecx, DWORD PTR _this$[ebp]
	call	?Length2@Vector3@@QBEMXZ		; Vector3::Length2
	fstp	DWORD PTR tv81[ebp]
	movss	xmm0, DWORD PTR tv81[ebp]
	addss	xmm0, DWORD PTR __real@02081cea
	movss	DWORD PTR _len2$[ebp], xmm0

; 76   : 		float oolen = WWMath::Inv_Sqrt(len2);

	push	ecx
	movss	xmm0, DWORD PTR _len2$[ebp]
	movss	DWORD PTR [esp], xmm0
	call	?Inv_Sqrt@WWMath@@SIMM@Z		; WWMath::Inv_Sqrt
	fstp	DWORD PTR _oolen$[ebp]

; 77   : 		X *= oolen;

	mov	eax, DWORD PTR _this$[ebp]
	movss	xmm0, DWORD PTR [eax]
	mulss	xmm0, DWORD PTR _oolen$[ebp]
	mov	ecx, DWORD PTR _this$[ebp]
	movss	DWORD PTR [ecx], xmm0

; 78   : 		Y *= oolen;

	mov	eax, DWORD PTR _this$[ebp]
	movss	xmm0, DWORD PTR [eax+4]
	mulss	xmm0, DWORD PTR _oolen$[ebp]
	mov	ecx, DWORD PTR _this$[ebp]
	movss	DWORD PTR [ecx+4], xmm0

; 79   : 		Z *= oolen;

	mov	eax, DWORD PTR _this$[ebp]
	movss	xmm0, DWORD PTR [eax+8]
	mulss	xmm0, DWORD PTR _oolen$[ebp]
	mov	ecx, DWORD PTR _this$[ebp]
	movss	DWORD PTR [ecx+8], xmm0

; 80   : 	}

	pop	edi
	pop	esi
	pop	ebx
	mov	esp, ebp
	pop	ebp
	ret	0
?Normalize@Vector3@@QAEXXZ ENDP				; Vector3::Normalize
_TEXT	ENDS
; Function compile flags: /Odtp /ZI
; File x:\github\renegade\dragonade_rxd\scripts\vector3.h
;	COMDAT ??AVector3@@QBEABMH@Z
_TEXT	SEGMENT
_this$ = -4						; size = 4
_i$ = 8							; size = 4
??AVector3@@QBEABMH@Z PROC				; Vector3::operator[], COMDAT
; _this$ = ecx

; 70   : 	{

	push	ebp
	mov	ebp, esp
	sub	esp, 68					; 00000044H
	push	ebx
	push	esi
	push	edi
	mov	DWORD PTR _this$[ebp], ecx

; 71   : 		return (&X)[i];

	mov	eax, DWORD PTR _i$[ebp]
	mov	ecx, DWORD PTR _this$[ebp]
	lea	eax, DWORD PTR [ecx+eax*4]

; 72   : 	}

	pop	edi
	pop	esi
	pop	ebx
	mov	esp, ebp
	pop	ebp
	ret	4
??AVector3@@QBEABMH@Z ENDP				; Vector3::operator[]
_TEXT	ENDS
; Function compile flags: /Odtp /ZI
; File x:\github\renegade\dragonade_rxd\scripts\vector3.h
;	COMDAT ?Set@Vector3@@QAEXMMM@Z
_TEXT	SEGMENT
_this$ = -4						; size = 4
_x$ = 8							; size = 4
_y$ = 12						; size = 4
_z$ = 16						; size = 4
?Set@Vector3@@QAEXMMM@Z PROC				; Vector3::Set, COMDAT
; _this$ = ecx

; 54   : 	{

	push	ebp
	mov	ebp, esp
	sub	esp, 68					; 00000044H
	push	ebx
	push	esi
	push	edi
	mov	DWORD PTR _this$[ebp], ecx

; 55   : 		X = x;

	mov	eax, DWORD PTR _this$[ebp]
	movss	xmm0, DWORD PTR _x$[ebp]
	movss	DWORD PTR [eax], xmm0

; 56   : 		Y = y;

	mov	eax, DWORD PTR _this$[ebp]
	movss	xmm0, DWORD PTR _y$[ebp]
	movss	DWORD PTR [eax+4], xmm0

; 57   : 		Z = z;

	mov	eax, DWORD PTR _this$[ebp]
	movss	xmm0, DWORD PTR _z$[ebp]
	movss	DWORD PTR [eax+8], xmm0

; 58   : 	}

	pop	edi
	pop	esi
	pop	ebx
	mov	esp, ebp
	pop	ebp
	ret	12					; 0000000cH
?Set@Vector3@@QAEXMMM@Z ENDP				; Vector3::Set
_TEXT	ENDS
; Function compile flags: /Odtp /ZI
; File x:\github\renegade\dragonade_rxd\scripts\vector3.h
;	COMDAT ??4Vector3@@QAEAAV0@ABV0@@Z
_TEXT	SEGMENT
_this$ = -4						; size = 4
_v$ = 8							; size = 4
??4Vector3@@QAEAAV0@ABV0@@Z PROC			; Vector3::operator=, COMDAT
; _this$ = ecx

; 47   : 	{

	push	ebp
	mov	ebp, esp
	sub	esp, 68					; 00000044H
	push	ebx
	push	esi
	push	edi
	mov	DWORD PTR _this$[ebp], ecx

; 48   : 		X = v.X;

	mov	eax, DWORD PTR _this$[ebp]
	mov	ecx, DWORD PTR _v$[ebp]
	mov	edx, DWORD PTR [ecx]
	mov	DWORD PTR [eax], edx

; 49   : 		Y = v.Y;

	mov	eax, DWORD PTR _this$[ebp]
	mov	ecx, DWORD PTR _v$[ebp]
	mov	edx, DWORD PTR [ecx+4]
	mov	DWORD PTR [eax+4], edx

; 50   : 		Z = v.Z;

	mov	eax, DWORD PTR _this$[ebp]
	mov	ecx, DWORD PTR _v$[ebp]
	mov	edx, DWORD PTR [ecx+8]
	mov	DWORD PTR [eax+8], edx

; 51   : 		return *this;

	mov	eax, DWORD PTR _this$[ebp]

; 52   : 	}

	pop	edi
	pop	esi
	pop	ebx
	mov	esp, ebp
	pop	ebp
	ret	4
??4Vector3@@QAEAAV0@ABV0@@Z ENDP			; Vector3::operator=
_TEXT	ENDS
; Function compile flags: /Odtp /ZI
; File x:\github\renegade\dragonade_rxd\scripts\vector3.h
;	COMDAT ??0Vector3@@QAE@MMM@Z
_TEXT	SEGMENT
_this$ = -4						; size = 4
_x$ = 8							; size = 4
_y$ = 12						; size = 4
_z$ = 16						; size = 4
??0Vector3@@QAE@MMM@Z PROC				; Vector3::Vector3, COMDAT
; _this$ = ecx

; 33   : 	TT_INLINE Vector3(float x, float y, float z)

	push	ebp
	mov	ebp, esp
	sub	esp, 68					; 00000044H
	push	ebx
	push	esi
	push	edi
	mov	DWORD PTR _this$[ebp], ecx

; 34   : 	{
; 35   : 		X = x;

	mov	eax, DWORD PTR _this$[ebp]
	movss	xmm0, DWORD PTR _x$[ebp]
	movss	DWORD PTR [eax], xmm0

; 36   : 		Y = y;

	mov	eax, DWORD PTR _this$[ebp]
	movss	xmm0, DWORD PTR _y$[ebp]
	movss	DWORD PTR [eax+4], xmm0

; 37   : 		Z = z;

	mov	eax, DWORD PTR _this$[ebp]
	movss	xmm0, DWORD PTR _z$[ebp]
	movss	DWORD PTR [eax+8], xmm0

; 38   : 	}

	mov	eax, DWORD PTR _this$[ebp]
	pop	edi
	pop	esi
	pop	ebx
	mov	esp, ebp
	pop	ebp
	ret	12					; 0000000cH
??0Vector3@@QAE@MMM@Z ENDP				; Vector3::Vector3
_TEXT	ENDS
; Function compile flags: /Odtp /ZI
; File x:\github\renegade\dragonade_rxd\scripts\vector3.h
;	COMDAT ??0Vector3@@QAE@ABV0@@Z
_TEXT	SEGMENT
_this$ = -4						; size = 4
_v$ = 8							; size = 4
??0Vector3@@QAE@ABV0@@Z PROC				; Vector3::Vector3, COMDAT
; _this$ = ecx

; 27   : 	TT_INLINE Vector3(const Vector3 &v)

	push	ebp
	mov	ebp, esp
	sub	esp, 68					; 00000044H
	push	ebx
	push	esi
	push	edi
	mov	DWORD PTR _this$[ebp], ecx

; 28   : 	{
; 29   : 		X = v.X;

	mov	eax, DWORD PTR _this$[ebp]
	mov	ecx, DWORD PTR _v$[ebp]
	mov	edx, DWORD PTR [ecx]
	mov	DWORD PTR [eax], edx

; 30   : 		Y = v.Y;

	mov	eax, DWORD PTR _this$[ebp]
	mov	ecx, DWORD PTR _v$[ebp]
	mov	edx, DWORD PTR [ecx+4]
	mov	DWORD PTR [eax+4], edx

; 31   : 		Z = v.Z;

	mov	eax, DWORD PTR _this$[ebp]
	mov	ecx, DWORD PTR _v$[ebp]
	mov	edx, DWORD PTR [ecx+8]
	mov	DWORD PTR [eax+8], edx

; 32   : 	}

	mov	eax, DWORD PTR _this$[ebp]
	pop	edi
	pop	esi
	pop	ebx
	mov	esp, ebp
	pop	ebp
	ret	4
??0Vector3@@QAE@ABV0@@Z ENDP				; Vector3::Vector3
_TEXT	ENDS
; Function compile flags: /Odtp /ZI
; File x:\github\renegade\dragonade_rxd\scripts\vector3.h
;	COMDAT ??0Vector3@@QAE@XZ
_TEXT	SEGMENT
_this$ = -4						; size = 4
??0Vector3@@QAE@XZ PROC					; Vector3::Vector3, COMDAT
; _this$ = ecx

; 23   : 	TT_INLINE Vector3()

	push	ebp
	mov	ebp, esp
	sub	esp, 68					; 00000044H
	push	ebx
	push	esi
	push	edi
	mov	DWORD PTR _this$[ebp], ecx

; 24   : 	{
; 25   : 		X = Y = Z = 0.0f;

	mov	eax, DWORD PTR _this$[ebp]
	movss	xmm0, DWORD PTR __real@00000000
	movss	DWORD PTR [eax+8], xmm0
	mov	ecx, DWORD PTR _this$[ebp]
	movss	xmm0, DWORD PTR __real@00000000
	movss	DWORD PTR [ecx+4], xmm0
	mov	edx, DWORD PTR _this$[ebp]
	movss	xmm0, DWORD PTR __real@00000000
	movss	DWORD PTR [edx], xmm0

; 26   : 	}

	mov	eax, DWORD PTR _this$[ebp]
	pop	edi
	pop	esi
	pop	ebx
	mov	esp, ebp
	pop	ebp
	ret	0
??0Vector3@@QAE@XZ ENDP					; Vector3::Vector3
_TEXT	ENDS
; Function compile flags: /Odtp /ZI
; File x:\github\renegade\dragonade_rxd\scripts\defines.h
;	COMDAT ??B?$RefArrayHelper@M$0EAA@@@QAEPAMXZ
_TEXT	SEGMENT
_this$ = -4						; size = 4
??B?$RefArrayHelper@M$0EAA@@@QAEPAMXZ PROC		; RefArrayHelper<float,1024>::operator float *, COMDAT
; _this$ = ecx

; 161  : 	{

	push	ebp
	mov	ebp, esp
	sub	esp, 68					; 00000044H
	push	ebx
	push	esi
	push	edi
	mov	DWORD PTR _this$[ebp], ecx

; 162  : 		return (T*) this;

	mov	eax, DWORD PTR _this$[ebp]

; 163  : 	};

	pop	edi
	pop	esi
	pop	ebx
	mov	esp, ebp
	pop	ebp
	ret	0
??B?$RefArrayHelper@M$0EAA@@@QAEPAMXZ ENDP		; RefArrayHelper<float,1024>::operator float *
_TEXT	ENDS
; Function compile flags: /Odtp /ZI
;	COMDAT ??4WWMath@@QAEAAV0@ABV0@@Z
_TEXT	SEGMENT
_this$ = -4						; size = 4
___that$ = 8						; size = 4
??4WWMath@@QAEAAV0@ABV0@@Z PROC				; WWMath::operator=, COMDAT
; _this$ = ecx
	push	ebp
	mov	ebp, esp
	sub	esp, 68					; 00000044H
	push	ebx
	push	esi
	push	edi
	mov	DWORD PTR _this$[ebp], ecx
	mov	eax, DWORD PTR _this$[ebp]
	pop	edi
	pop	esi
	pop	ebx
	mov	esp, ebp
	pop	ebp
	ret	4
??4WWMath@@QAEAAV0@ABV0@@Z ENDP				; WWMath::operator=
_TEXT	ENDS
; Function compile flags: /Odtp /ZI
; File x:\github\renegade\dragonade_rxd\scripts\wwmath.h
;	COMDAT ?Is_Valid_Double@WWMath@@SA_NN@Z
_TEXT	SEGMENT
_exponent$ = -8						; size = 4
_plong$ = -4						; size = 4
_x$ = 8							; size = 8
?Is_Valid_Double@WWMath@@SA_NN@Z PROC			; WWMath::Is_Valid_Double, COMDAT

; 207  : {

	push	ebp
	mov	ebp, esp
	sub	esp, 72					; 00000048H
	push	ebx
	push	esi
	push	edi

; 208  : 	unsigned long * plong = (unsigned long *)(&x) + 1;

	lea	eax, DWORD PTR _x$[ebp+4]
	mov	DWORD PTR _plong$[ebp], eax

; 209  : 	unsigned long exponent = ((*plong) & 0x7FF00000) >> (32-12);

	mov	eax, DWORD PTR _plong$[ebp]
	mov	ecx, DWORD PTR [eax]
	and	ecx, 2146435072				; 7ff00000H
	shr	ecx, 20					; 00000014H
	mov	DWORD PTR _exponent$[ebp], ecx

; 210  : 	if (exponent == 0x7FF) {

	cmp	DWORD PTR _exponent$[ebp], 2047		; 000007ffH
	jne	SHORT $LN1@Is_Valid_D

; 211  : 		return false;

	xor	al, al
	jmp	SHORT $LN2@Is_Valid_D
$LN1@Is_Valid_D:

; 212  : 	}
; 213  : 	return true;

	mov	al, 1
$LN2@Is_Valid_D:

; 214  : }

	pop	edi
	pop	esi
	pop	ebx
	mov	esp, ebp
	pop	ebp
	ret	0
?Is_Valid_Double@WWMath@@SA_NN@Z ENDP			; WWMath::Is_Valid_Double
_TEXT	ENDS
; Function compile flags: /Odtp /ZI
; File x:\github\renegade\dragonade_rxd\scripts\wwmath.h
;	COMDAT ?Is_Valid_Float@WWMath@@SA_NM@Z
_TEXT	SEGMENT
_exponent$ = -8						; size = 4
_plong$ = -4						; size = 4
_x$ = 8							; size = 4
?Is_Valid_Float@WWMath@@SA_NM@Z PROC			; WWMath::Is_Valid_Float, COMDAT

; 197  : {

	push	ebp
	mov	ebp, esp
	sub	esp, 72					; 00000048H
	push	ebx
	push	esi
	push	edi

; 198  : 	unsigned long * plong = (unsigned long *)(&x);

	lea	eax, DWORD PTR _x$[ebp]
	mov	DWORD PTR _plong$[ebp], eax

; 199  : 	unsigned long exponent = ((*plong) & 0x7F800000) >> (32-9);

	mov	eax, DWORD PTR _plong$[ebp]
	mov	ecx, DWORD PTR [eax]
	and	ecx, 2139095040				; 7f800000H
	shr	ecx, 23					; 00000017H
	mov	DWORD PTR _exponent$[ebp], ecx

; 200  : 	if (exponent == 0xFF) {

	cmp	DWORD PTR _exponent$[ebp], 255		; 000000ffH
	jne	SHORT $LN1@Is_Valid_F

; 201  : 		return false;

	xor	al, al
	jmp	SHORT $LN2@Is_Valid_F
$LN1@Is_Valid_F:

; 202  : 	}
; 203  : 	return true;

	mov	al, 1
$LN2@Is_Valid_F:

; 204  : }

	pop	edi
	pop	esi
	pop	ebx
	mov	esp, ebp
	pop	ebp
	ret	0
?Is_Valid_Float@WWMath@@SA_NM@Z ENDP			; WWMath::Is_Valid_Float
_TEXT	ENDS
; Function compile flags: /Odtp /ZI
; File x:\github\renegade\dragonade_rxd\scripts\wwmath.h
;	COMDAT ?Byte_To_Unit_Float@WWMath@@SAME@Z
_TEXT	SEGMENT
tv69 = -68						; size = 4
_byte$ = 8						; size = 1
?Byte_To_Unit_Float@WWMath@@SAME@Z PROC			; WWMath::Byte_To_Unit_Float, COMDAT

; 97   : 	static float Byte_To_Unit_Float(unsigned char byte) { return ((float)byte) / 255.0f; }

	push	ebp
	mov	ebp, esp
	sub	esp, 68					; 00000044H
	push	ebx
	push	esi
	push	edi
	movzx	eax, BYTE PTR _byte$[ebp]
	cvtsi2ss xmm0, eax
	divss	xmm0, DWORD PTR __real@437f0000
	movss	DWORD PTR tv69[ebp], xmm0
	fld	DWORD PTR tv69[ebp]
	pop	edi
	pop	esi
	pop	ebx
	mov	esp, ebp
	pop	ebp
	ret	0
?Byte_To_Unit_Float@WWMath@@SAME@Z ENDP			; WWMath::Byte_To_Unit_Float
_TEXT	ENDS
; Function compile flags: /Odtp /ZI
; File x:\github\renegade\dragonade_rxd\scripts\wwmath.h
;	COMDAT ?Unit_Float_To_Byte@WWMath@@SAEM@Z
_TEXT	SEGMENT
_f$ = 8							; size = 4
?Unit_Float_To_Byte@WWMath@@SAEM@Z PROC			; WWMath::Unit_Float_To_Byte, COMDAT

; 96   : 	static unsigned char Unit_Float_To_Byte(float f) { return (unsigned char)(f*255.0f); }

	push	ebp
	mov	ebp, esp
	sub	esp, 64					; 00000040H
	push	ebx
	push	esi
	push	edi
	movss	xmm0, DWORD PTR _f$[ebp]
	mulss	xmm0, DWORD PTR __real@437f0000
	cvttss2si eax, xmm0
	pop	edi
	pop	esi
	pop	ebx
	mov	esp, ebp
	pop	ebp
	ret	0
?Unit_Float_To_Byte@WWMath@@SAEM@Z ENDP			; WWMath::Unit_Float_To_Byte
_TEXT	ENDS
; Function compile flags: /Odtp /ZI
; File x:\github\renegade\dragonade_rxd\scripts\wwmath.h
;	COMDAT ?Float_To_Long@WWMath@@SAJN@Z
_TEXT	SEGMENT
$T1 = -80						; size = 16
_f$ = 8							; size = 8
?Float_To_Long@WWMath@@SAJN@Z PROC			; WWMath::Float_To_Long, COMDAT

; 222  : {

	push	ebx
	mov	ebx, esp
	sub	esp, 8
	and	esp, -16				; fffffff0H
	add	esp, 4
	push	ebp
	mov	ebp, DWORD PTR [ebx+4]
	mov	DWORD PTR [esp+4], ebp
	mov	ebp, esp
	sub	esp, 88					; 00000058H
	push	esi
	push	edi

; 223  :     return _mm_cvttsd_si32(_mm_load_pd(&f));

	movupd	xmm0, XMMWORD PTR _f$[ebx]
	movapd	XMMWORD PTR $T1[ebp], xmm0
	movapd	xmm0, XMMWORD PTR $T1[ebp]
	cvttsd2si eax, xmm0

; 224  : }

	pop	edi
	pop	esi
	mov	esp, ebp
	pop	ebp
	mov	esp, ebx
	pop	ebx
	ret	0
?Float_To_Long@WWMath@@SAJN@Z ENDP			; WWMath::Float_To_Long
_TEXT	ENDS
; Function compile flags: /Odtp /ZI
; File x:\github\renegade\dragonade_rxd\scripts\wwmath.h
;	COMDAT ?Lerp@WWMath@@SAHHHM@Z
_TEXT	SEGMENT
_a$ = 8							; size = 4
_b$ = 12						; size = 4
_lerp$ = 16						; size = 4
?Lerp@WWMath@@SAHHHM@Z PROC				; WWMath::Lerp, COMDAT

; 192  : {

	push	ebp
	mov	ebp, esp
	sub	esp, 64					; 00000040H
	push	ebx
	push	esi
	push	edi

; 193  : 	return (a + (int)((b - a)*lerp));

	mov	eax, DWORD PTR _b$[ebp]
	sub	eax, DWORD PTR _a$[ebp]
	cvtsi2ss xmm0, eax
	mulss	xmm0, DWORD PTR _lerp$[ebp]
	cvttss2si eax, xmm0
	add	eax, DWORD PTR _a$[ebp]

; 194  : }

	pop	edi
	pop	esi
	pop	ebx
	mov	esp, ebp
	pop	ebp
	ret	0
?Lerp@WWMath@@SAHHHM@Z ENDP				; WWMath::Lerp
_TEXT	ENDS
; Function compile flags: /Odtp /ZI
; File x:\github\renegade\dragonade_rxd\scripts\wwmath.h
;	COMDAT ?Lerp@WWMath@@SANNNM@Z
_TEXT	SEGMENT
tv73 = -72						; size = 8
_a$ = 8							; size = 8
_b$ = 16						; size = 8
_lerp$ = 24						; size = 4
?Lerp@WWMath@@SANNNM@Z PROC				; WWMath::Lerp, COMDAT

; 187  : {

	push	ebp
	mov	ebp, esp
	sub	esp, 72					; 00000048H
	push	ebx
	push	esi
	push	edi

; 188  : 	return (a + (b - a)*lerp);

	movsd	xmm0, QWORD PTR _b$[ebp]
	subsd	xmm0, QWORD PTR _a$[ebp]
	cvtss2sd xmm1, DWORD PTR _lerp$[ebp]
	mulsd	xmm0, xmm1
	addsd	xmm0, QWORD PTR _a$[ebp]
	movsd	QWORD PTR tv73[ebp], xmm0
	fld	QWORD PTR tv73[ebp]

; 189  : }

	pop	edi
	pop	esi
	pop	ebx
	mov	esp, ebp
	pop	ebp
	ret	0
?Lerp@WWMath@@SANNNM@Z ENDP				; WWMath::Lerp
_TEXT	ENDS
; Function compile flags: /Odtp /ZI
; File x:\github\renegade\dragonade_rxd\scripts\wwmath.h
;	COMDAT ?Lerp@WWMath@@SAMMMM@Z
_TEXT	SEGMENT
tv72 = -68						; size = 4
_a$ = 8							; size = 4
_b$ = 12						; size = 4
_lerp$ = 16						; size = 4
?Lerp@WWMath@@SAMMMM@Z PROC				; WWMath::Lerp, COMDAT

; 182  : {

	push	ebp
	mov	ebp, esp
	sub	esp, 68					; 00000044H
	push	ebx
	push	esi
	push	edi

; 183  : 	return (a + (b - a)*lerp);

	movss	xmm0, DWORD PTR _b$[ebp]
	subss	xmm0, DWORD PTR _a$[ebp]
	mulss	xmm0, DWORD PTR _lerp$[ebp]
	addss	xmm0, DWORD PTR _a$[ebp]
	movss	DWORD PTR tv72[ebp], xmm0
	fld	DWORD PTR tv72[ebp]

; 184  : }

	pop	edi
	pop	esi
	pop	ebx
	mov	esp, ebp
	pop	ebp
	ret	0
?Lerp@WWMath@@SAMMMM@Z ENDP				; WWMath::Lerp
_TEXT	ENDS
; Function compile flags: /Odtp /ZI
; File x:\github\renegade\dragonade_rxd\scripts\wwmath.h
;	COMDAT ?Max@WWMath@@SAMMM@Z
_TEXT	SEGMENT
_a$ = 8							; size = 4
_b$ = 12						; size = 4
?Max@WWMath@@SAMMM@Z PROC				; WWMath::Max, COMDAT

; 176  : {

	push	ebp
	mov	ebp, esp
	sub	esp, 64					; 00000040H
	push	ebx
	push	esi
	push	edi

; 177  : 	if (a>b) return a;

	movss	xmm0, DWORD PTR _a$[ebp]
	comiss	xmm0, DWORD PTR _b$[ebp]
	jbe	SHORT $LN1@Max
	fld	DWORD PTR _a$[ebp]
	jmp	SHORT $LN2@Max
$LN1@Max:

; 178  : 	return b;

	fld	DWORD PTR _b$[ebp]
$LN2@Max:

; 179  : }

	pop	edi
	pop	esi
	pop	ebx
	mov	esp, ebp
	pop	ebp
	ret	0
?Max@WWMath@@SAMMM@Z ENDP				; WWMath::Max
_TEXT	ENDS
; Function compile flags: /Odtp /ZI
; File x:\github\renegade\dragonade_rxd\scripts\wwmath.h
;	COMDAT ?Min@WWMath@@SAMMM@Z
_TEXT	SEGMENT
_a$ = 8							; size = 4
_b$ = 12						; size = 4
?Min@WWMath@@SAMMM@Z PROC				; WWMath::Min, COMDAT

; 170  : {

	push	ebp
	mov	ebp, esp
	sub	esp, 64					; 00000040H
	push	ebx
	push	esi
	push	edi

; 171  : 	if (a<b) return a;

	movss	xmm0, DWORD PTR _b$[ebp]
	comiss	xmm0, DWORD PTR _a$[ebp]
	jbe	SHORT $LN1@Min
	fld	DWORD PTR _a$[ebp]
	jmp	SHORT $LN2@Min
$LN1@Min:

; 172  : 	return b;

	fld	DWORD PTR _b$[ebp]
$LN2@Min:

; 173  : }

	pop	edi
	pop	esi
	pop	ebx
	mov	esp, ebp
	pop	ebp
	ret	0
?Min@WWMath@@SAMMM@Z ENDP				; WWMath::Min
_TEXT	ENDS
; Function compile flags: /Odtp /ZI
; File x:\github\renegade\dragonade_rxd\scripts\wwmath.h
;	COMDAT ?Wrap@WWMath@@SANNNN@Z
_TEXT	SEGMENT
_val$ = 8						; size = 8
_min$ = 16						; size = 8
_max$ = 24						; size = 8
?Wrap@WWMath@@SANNNN@Z PROC				; WWMath::Wrap, COMDAT

; 157  : {

	push	ebp
	mov	ebp, esp
	sub	esp, 64					; 00000040H
	push	ebx
	push	esi
	push	edi

; 158  : 	if ( val >= max )	val -= (max-min);

	movsd	xmm0, QWORD PTR _val$[ebp]
	comisd	xmm0, QWORD PTR _max$[ebp]
	jb	SHORT $LN4@Wrap
	movsd	xmm0, QWORD PTR _max$[ebp]
	subsd	xmm0, QWORD PTR _min$[ebp]
	movsd	xmm1, QWORD PTR _val$[ebp]
	subsd	xmm1, xmm0
	movsd	QWORD PTR _val$[ebp], xmm1
$LN4@Wrap:

; 159  : 	if ( val < min )	val += (max-min);

	movsd	xmm0, QWORD PTR _min$[ebp]
	comisd	xmm0, QWORD PTR _val$[ebp]
	jbe	SHORT $LN3@Wrap
	movsd	xmm0, QWORD PTR _max$[ebp]
	subsd	xmm0, QWORD PTR _min$[ebp]
	addsd	xmm0, QWORD PTR _val$[ebp]
	movsd	QWORD PTR _val$[ebp], xmm0
$LN3@Wrap:

; 160  : 	if ( val < min ) {

	movsd	xmm0, QWORD PTR _min$[ebp]
	comisd	xmm0, QWORD PTR _val$[ebp]
	jbe	SHORT $LN2@Wrap

; 161  : 		val = min;

	movsd	xmm0, QWORD PTR _min$[ebp]
	movsd	QWORD PTR _val$[ebp], xmm0
$LN2@Wrap:

; 162  : 	}
; 163  : 	if ( val > max ) {

	movsd	xmm0, QWORD PTR _val$[ebp]
	comisd	xmm0, QWORD PTR _max$[ebp]
	jbe	SHORT $LN1@Wrap

; 164  : 		val = max;

	movsd	xmm0, QWORD PTR _max$[ebp]
	movsd	QWORD PTR _val$[ebp], xmm0
$LN1@Wrap:

; 165  : 	}
; 166  : 	return val;

	fld	QWORD PTR _val$[ebp]

; 167  : }

	pop	edi
	pop	esi
	pop	ebx
	mov	esp, ebp
	pop	ebp
	ret	0
?Wrap@WWMath@@SANNNN@Z ENDP				; WWMath::Wrap
_TEXT	ENDS
; Function compile flags: /Odtp /ZI
; File x:\github\renegade\dragonade_rxd\scripts\wwmath.h
;	COMDAT ?Wrap@WWMath@@SAMMMM@Z
_TEXT	SEGMENT
_val$ = 8						; size = 4
_min$ = 12						; size = 4
_max$ = 16						; size = 4
?Wrap@WWMath@@SAMMMM@Z PROC				; WWMath::Wrap, COMDAT

; 144  : {

	push	ebp
	mov	ebp, esp
	sub	esp, 64					; 00000040H
	push	ebx
	push	esi
	push	edi

; 145  : 	if ( val >= max )	val -= (max-min);

	movss	xmm0, DWORD PTR _val$[ebp]
	comiss	xmm0, DWORD PTR _max$[ebp]
	jb	SHORT $LN4@Wrap
	movss	xmm0, DWORD PTR _max$[ebp]
	subss	xmm0, DWORD PTR _min$[ebp]
	movss	xmm1, DWORD PTR _val$[ebp]
	subss	xmm1, xmm0
	movss	DWORD PTR _val$[ebp], xmm1
$LN4@Wrap:

; 146  : 	if ( val < min )	val += (max-min);

	movss	xmm0, DWORD PTR _min$[ebp]
	comiss	xmm0, DWORD PTR _val$[ebp]
	jbe	SHORT $LN3@Wrap
	movss	xmm0, DWORD PTR _max$[ebp]
	subss	xmm0, DWORD PTR _min$[ebp]
	addss	xmm0, DWORD PTR _val$[ebp]
	movss	DWORD PTR _val$[ebp], xmm0
$LN3@Wrap:

; 147  : 	if ( val < min ) {

	movss	xmm0, DWORD PTR _min$[ebp]
	comiss	xmm0, DWORD PTR _val$[ebp]
	jbe	SHORT $LN2@Wrap

; 148  : 		val = min;

	movss	xmm0, DWORD PTR _min$[ebp]
	movss	DWORD PTR _val$[ebp], xmm0
$LN2@Wrap:

; 149  : 	}
; 150  : 	if ( val > max ) {

	movss	xmm0, DWORD PTR _val$[ebp]
	comiss	xmm0, DWORD PTR _max$[ebp]
	jbe	SHORT $LN1@Wrap

; 151  : 		val = max;

	movss	xmm0, DWORD PTR _max$[ebp]
	movss	DWORD PTR _val$[ebp], xmm0
$LN1@Wrap:

; 152  : 	}
; 153  : 	return val;

	fld	DWORD PTR _val$[ebp]

; 154  : }

	pop	edi
	pop	esi
	pop	ebx
	mov	esp, ebp
	pop	ebp
	ret	0
?Wrap@WWMath@@SAMMMM@Z ENDP				; WWMath::Wrap
_TEXT	ENDS
; Function compile flags: /Odtp /ZI
; File x:\github\renegade\dragonade_rxd\scripts\wwmath.h
;	COMDAT ?Clamp_Int@WWMath@@SAHHHH@Z
_TEXT	SEGMENT
_val$ = 8						; size = 4
_min_val$ = 12						; size = 4
_max_val$ = 16						; size = 4
?Clamp_Int@WWMath@@SAHHHH@Z PROC			; WWMath::Clamp_Int, COMDAT

; 137  : {

	push	ebp
	mov	ebp, esp
	sub	esp, 64					; 00000040H
	push	ebx
	push	esi
	push	edi

; 138  : 	if(val < min_val) return min_val;

	mov	eax, DWORD PTR _val$[ebp]
	cmp	eax, DWORD PTR _min_val$[ebp]
	jge	SHORT $LN2@Clamp_Int
	mov	eax, DWORD PTR _min_val$[ebp]
	jmp	SHORT $LN3@Clamp_Int
$LN2@Clamp_Int:

; 139  : 	if(val > max_val) return max_val;

	mov	eax, DWORD PTR _val$[ebp]
	cmp	eax, DWORD PTR _max_val$[ebp]
	jle	SHORT $LN1@Clamp_Int
	mov	eax, DWORD PTR _max_val$[ebp]
	jmp	SHORT $LN3@Clamp_Int
$LN1@Clamp_Int:

; 140  : 	return val;

	mov	eax, DWORD PTR _val$[ebp]
$LN3@Clamp_Int:

; 141  : }

	pop	edi
	pop	esi
	pop	ebx
	mov	esp, ebp
	pop	ebp
	ret	0
?Clamp_Int@WWMath@@SAHHHH@Z ENDP			; WWMath::Clamp_Int
_TEXT	ENDS
; Function compile flags: /Odtp /ZI
; File x:\github\renegade\dragonade_rxd\scripts\wwmath.h
;	COMDAT ?Clamp@WWMath@@SANNNN@Z
_TEXT	SEGMENT
_val$ = 8						; size = 8
_min$ = 16						; size = 8
_max$ = 24						; size = 8
?Clamp@WWMath@@SANNNN@Z PROC				; WWMath::Clamp, COMDAT

; 130  : {

	push	ebp
	mov	ebp, esp
	sub	esp, 64					; 00000040H
	push	ebx
	push	esi
	push	edi

; 131  : 	if(val < min) return min;

	movsd	xmm0, QWORD PTR _min$[ebp]
	comisd	xmm0, QWORD PTR _val$[ebp]
	jbe	SHORT $LN2@Clamp
	fld	QWORD PTR _min$[ebp]
	jmp	SHORT $LN3@Clamp
$LN2@Clamp:

; 132  : 	if(val > max) return max;

	movsd	xmm0, QWORD PTR _val$[ebp]
	comisd	xmm0, QWORD PTR _max$[ebp]
	jbe	SHORT $LN1@Clamp
	fld	QWORD PTR _max$[ebp]
	jmp	SHORT $LN3@Clamp
$LN1@Clamp:

; 133  : 	return val;

	fld	QWORD PTR _val$[ebp]
$LN3@Clamp:

; 134  : }

	pop	edi
	pop	esi
	pop	ebx
	mov	esp, ebp
	pop	ebp
	ret	0
?Clamp@WWMath@@SANNNN@Z ENDP				; WWMath::Clamp
_TEXT	ENDS
; Function compile flags: /Odtp /ZI
; File x:\github\renegade\dragonade_rxd\scripts\wwmath.h
;	COMDAT ?Clamp@WWMath@@SAMMMM@Z
_TEXT	SEGMENT
_val$ = 8						; size = 4
_min$ = 12						; size = 4
_max$ = 16						; size = 4
?Clamp@WWMath@@SAMMMM@Z PROC				; WWMath::Clamp, COMDAT

; 123  : {

	push	ebp
	mov	ebp, esp
	sub	esp, 64					; 00000040H
	push	ebx
	push	esi
	push	edi

; 124  : 	if(val < min) return min;

	movss	xmm0, DWORD PTR _min$[ebp]
	comiss	xmm0, DWORD PTR _val$[ebp]
	jbe	SHORT $LN2@Clamp
	fld	DWORD PTR _min$[ebp]
	jmp	SHORT $LN3@Clamp
$LN2@Clamp:

; 125  : 	if(val > max) return max;

	movss	xmm0, DWORD PTR _val$[ebp]
	comiss	xmm0, DWORD PTR _max$[ebp]
	jbe	SHORT $LN1@Clamp
	fld	DWORD PTR _max$[ebp]
	jmp	SHORT $LN3@Clamp
$LN1@Clamp:

; 126  : 	return val;

	fld	DWORD PTR _val$[ebp]
$LN3@Clamp:

; 127  : }

	pop	edi
	pop	esi
	pop	ebx
	mov	esp, ebp
	pop	ebp
	ret	0
?Clamp@WWMath@@SAMMMM@Z ENDP				; WWMath::Clamp
_TEXT	ENDS
; Function compile flags: /Odtp /ZI
; File x:\github\renegade\dragonade_rxd\scripts\wwmath.h
;	COMDAT ?Random_Float@WWMath@@SAMMM@Z
_TEXT	SEGMENT
tv76 = -72						; size = 4
tv73 = -68						; size = 4
_min$ = 8						; size = 4
_max$ = 12						; size = 4
?Random_Float@WWMath@@SAMMM@Z PROC			; WWMath::Random_Float, COMDAT

; 118  : { 

	push	ebp
	mov	ebp, esp
	sub	esp, 72					; 00000048H
	push	ebx
	push	esi
	push	edi

; 119  : 	return Random_Float() * (max-min) + min; 

	call	?Random_Float@WWMath@@SAMXZ		; WWMath::Random_Float
	fstp	DWORD PTR tv73[ebp]
	movss	xmm0, DWORD PTR tv73[ebp]
	movss	xmm1, DWORD PTR _max$[ebp]
	subss	xmm1, DWORD PTR _min$[ebp]
	mulss	xmm0, xmm1
	addss	xmm0, DWORD PTR _min$[ebp]
	movss	DWORD PTR tv76[ebp], xmm0
	fld	DWORD PTR tv76[ebp]

; 120  : }

	pop	edi
	pop	esi
	pop	ebx
	mov	esp, ebp
	pop	ebp
	ret	0
?Random_Float@WWMath@@SAMMM@Z ENDP			; WWMath::Random_Float
_TEXT	ENDS
; Function compile flags: /Odtp /ZI
; File x:\github\renegade\dragonade_rxd\scripts\wwmath.h
;	COMDAT ?Fast_Is_Float_Positive@WWMath@@SA_NABM@Z
_TEXT	SEGMENT
tv66 = -68						; size = 4
_val$ = 8						; size = 4
?Fast_Is_Float_Positive@WWMath@@SA_NABM@Z PROC		; WWMath::Fast_Is_Float_Positive, COMDAT

; 113  : {

	push	ebp
	mov	ebp, esp
	sub	esp, 68					; 00000044H
	push	ebx
	push	esi
	push	edi

; 114  : 	return !((*(int *)(&val)) & 0x80000000);

	mov	eax, DWORD PTR _val$[ebp]
	mov	ecx, DWORD PTR [eax]
	and	ecx, -2147483648			; 80000000H
	jne	SHORT $LN3@Fast_Is_Fl
	mov	DWORD PTR tv66[ebp], 1
	jmp	SHORT $LN4@Fast_Is_Fl
$LN3@Fast_Is_Fl:
	mov	DWORD PTR tv66[ebp], 0
$LN4@Fast_Is_Fl:
	mov	al, BYTE PTR tv66[ebp]

; 115  : }

	pop	edi
	pop	esi
	pop	ebx
	mov	esp, ebp
	pop	ebp
	ret	0
?Fast_Is_Float_Positive@WWMath@@SA_NABM@Z ENDP		; WWMath::Fast_Is_Float_Positive
_TEXT	ENDS
; Function compile flags: /Odtp /ZI
; File x:\github\renegade\dragonade_rxd\scripts\wwmath.h
;	COMDAT ?Floor@WWMath@@SAMM@Z
_TEXT	SEGMENT
_val$ = 8						; size = 4
?Floor@WWMath@@SAMM@Z PROC				; WWMath::Floor, COMDAT

; 81   : 	static float Floor(float val) { return floorf(val); }

	push	ebp
	mov	ebp, esp
	sub	esp, 64					; 00000040H
	push	ebx
	push	esi
	push	edi
	push	ecx
	movss	xmm0, DWORD PTR _val$[ebp]
	movss	DWORD PTR [esp], xmm0
	call	_floorf
	add	esp, 4
	pop	edi
	pop	esi
	pop	ebx
	mov	esp, ebp
	pop	ebp
	ret	0
?Floor@WWMath@@SAMM@Z ENDP				; WWMath::Floor
_TEXT	ENDS
; Function compile flags: /Odtp /ZI
; File x:\github\renegade\dragonade_rxd\scripts\wwmath.h
;	COMDAT ?Ceil@WWMath@@SAMM@Z
_TEXT	SEGMENT
_val$ = 8						; size = 4
?Ceil@WWMath@@SAMM@Z PROC				; WWMath::Ceil, COMDAT

; 80   : 	static float Ceil(float val) { return ceilf(val); }

	push	ebp
	mov	ebp, esp
	sub	esp, 64					; 00000040H
	push	ebx
	push	esi
	push	edi
	push	ecx
	movss	xmm0, DWORD PTR _val$[ebp]
	movss	DWORD PTR [esp], xmm0
	call	_ceilf
	add	esp, 4
	pop	edi
	pop	esi
	pop	ebx
	mov	esp, ebp
	pop	ebp
	ret	0
?Ceil@WWMath@@SAMM@Z ENDP				; WWMath::Ceil
_TEXT	ENDS
; Function compile flags: /Odtp /ZI
; File x:\github\renegade\dragonade_rxd\scripts\wwmath.h
;	COMDAT ?Sign@WWMath@@SAMM@Z
_TEXT	SEGMENT
_val$ = 8						; size = 4
?Sign@WWMath@@SAMM@Z PROC				; WWMath::Sign, COMDAT

; 102  : { 

	push	ebp
	mov	ebp, esp
	sub	esp, 64					; 00000040H
	push	ebx
	push	esi
	push	edi

; 103  : 	if (val > 0.0f) { 

	movss	xmm0, DWORD PTR _val$[ebp]
	comiss	xmm0, DWORD PTR __real@00000000
	jbe	SHORT $LN2@Sign

; 104  : 		return +1.0f; 

	fld1
	jmp	SHORT $LN3@Sign
$LN2@Sign:

; 105  : 	} 
; 106  : 	if (val < 0.0f) { 

	movss	xmm0, DWORD PTR __real@00000000
	comiss	xmm0, DWORD PTR _val$[ebp]
	jbe	SHORT $LN1@Sign

; 107  : 		return -1.0f; 

	fld	DWORD PTR __real@bf800000
	jmp	SHORT $LN3@Sign
$LN1@Sign:

; 108  : 	} 
; 109  : 	return 0.0f; 

	fldz
$LN3@Sign:

; 110  : }

	pop	edi
	pop	esi
	pop	ebx
	mov	esp, ebp
	pop	ebp
	ret	0
?Sign@WWMath@@SAMM@Z ENDP				; WWMath::Sign
_TEXT	ENDS
; Function compile flags: /Odtp /ZI
; File x:\github\renegade\dragonade_rxd\scripts\wwmath.h
;	COMDAT ?Atan2@WWMath@@SAMMM@Z
_TEXT	SEGMENT
_y$ = 8							; size = 4
_x$ = 12						; size = 4
?Atan2@WWMath@@SAMMM@Z PROC				; WWMath::Atan2, COMDAT

; 78   : 	static float Atan2(float y,float x) { return static_cast<float>(atan2(y,x)); }

	push	ebp
	mov	ebp, esp
	sub	esp, 64					; 00000040H
	push	ebx
	push	esi
	push	edi
	push	ecx
	movss	xmm0, DWORD PTR _x$[ebp]
	movss	DWORD PTR [esp], xmm0
	push	ecx
	movss	xmm0, DWORD PTR _y$[ebp]
	movss	DWORD PTR [esp], xmm0
	call	?atan2@@YAMMM@Z				; atan2
	add	esp, 8
	pop	edi
	pop	esi
	pop	ebx
	mov	esp, ebp
	pop	ebp
	ret	0
?Atan2@WWMath@@SAMMM@Z ENDP				; WWMath::Atan2
_TEXT	ENDS
; Function compile flags: /Odtp /ZI
; File x:\github\renegade\dragonade_rxd\scripts\wwmath.h
;	COMDAT ?Atan@WWMath@@SAMM@Z
_TEXT	SEGMENT
_x$ = 8							; size = 4
?Atan@WWMath@@SAMM@Z PROC				; WWMath::Atan, COMDAT

; 77   : 	static float Atan(float x) { return static_cast<float>(atan(x)); }

	push	ebp
	mov	ebp, esp
	sub	esp, 64					; 00000040H
	push	ebx
	push	esi
	push	edi
	push	ecx
	movss	xmm0, DWORD PTR _x$[ebp]
	movss	DWORD PTR [esp], xmm0
	call	?atan@@YAMM@Z				; atan
	add	esp, 4
	pop	edi
	pop	esi
	pop	ebx
	mov	esp, ebp
	pop	ebp
	ret	0
?Atan@WWMath@@SAMM@Z ENDP				; WWMath::Atan
_TEXT	ENDS
; Function compile flags: /Odtp /ZI
; File x:\github\renegade\dragonade_rxd\scripts\wwmath.h
;	COMDAT ?Asin@WWMath@@SAMM@Z
_TEXT	SEGMENT
_val$ = 8						; size = 4
?Asin@WWMath@@SAMM@Z PROC				; WWMath::Asin, COMDAT

; 306  : {

	push	ebp
	mov	ebp, esp
	sub	esp, 64					; 00000040H
	push	ebx
	push	esi
	push	edi

; 307  : 	return (float)asin(val);

	push	ecx
	movss	xmm0, DWORD PTR _val$[ebp]
	movss	DWORD PTR [esp], xmm0
	call	?asin@@YAMM@Z				; asin
	add	esp, 4

; 308  : }

	pop	edi
	pop	esi
	pop	ebx
	mov	esp, ebp
	pop	ebp
	ret	0
?Asin@WWMath@@SAMM@Z ENDP				; WWMath::Asin
_TEXT	ENDS
; Function compile flags: /Odtp /ZI
; File x:\github\renegade\dragonade_rxd\scripts\wwmath.h
;	COMDAT ?Acos@WWMath@@SAMM@Z
_TEXT	SEGMENT
_val$ = 8						; size = 4
?Acos@WWMath@@SAMM@Z PROC				; WWMath::Acos, COMDAT

; 286  : {

	push	ebp
	mov	ebp, esp
	sub	esp, 64					; 00000040H
	push	ebx
	push	esi
	push	edi

; 287  : 	return (float)acos(val);

	push	ecx
	movss	xmm0, DWORD PTR _val$[ebp]
	movss	DWORD PTR [esp], xmm0
	call	?acos@@YAMM@Z				; acos
	add	esp, 4

; 288  : }

	pop	edi
	pop	esi
	pop	ebx
	mov	esp, ebp
	pop	ebp
	ret	0
?Acos@WWMath@@SAMM@Z ENDP				; WWMath::Acos
_TEXT	ENDS
; Function compile flags: /Odtp /ZI
; File x:\github\renegade\dragonade_rxd\scripts\wwmath.h
;	COMDAT ?Fast_Asin@WWMath@@SAMM@Z
_TEXT	SEGMENT
tv156 = -88						; size = 4
tv161 = -84						; size = 4
tv159 = -80						; size = 4
tv134 = -80						; size = 4
_frac$ = -12						; size = 4
_idx1$ = -8						; size = 4
_idx0$ = -4						; size = 4
_val$ = 8						; size = 4
?Fast_Asin@WWMath@@SAMM@Z PROC				; WWMath::Fast_Asin, COMDAT

; 291  : {

	push	ebp
	mov	ebp, esp
	sub	esp, 88					; 00000058H
	push	ebx
	push	esi
	push	edi

; 292  : 	if (WWMath::Fabs(val) > 0.975f) {

	push	ecx
	movss	xmm0, DWORD PTR _val$[ebp]
	movss	DWORD PTR [esp], xmm0
	call	?Fabs@WWMath@@SAMM@Z			; WWMath::Fabs
	add	esp, 4
	fstp	DWORD PTR tv134[ebp]
	movss	xmm0, DWORD PTR tv134[ebp]
	comiss	xmm0, DWORD PTR __real@3f79999a
	jbe	SHORT $LN11@Fast_Asin

; 293  : 		return WWMath::Asin(val);

	push	ecx
	movss	xmm0, DWORD PTR _val$[ebp]
	movss	DWORD PTR [esp], xmm0
	call	?Asin@WWMath@@SAMM@Z			; WWMath::Asin
	add	esp, 4
	jmp	$LN12@Fast_Asin
$LN11@Fast_Asin:

; 294  : 	}
; 295  : 	val*=float(ARC_TABLE_SIZE/2);

	movss	xmm0, DWORD PTR _val$[ebp]
	mulss	xmm0, DWORD PTR __real@44000000
	movss	DWORD PTR _val$[ebp], xmm0

; 296  : 	int idx0=Float_To_Int_Floor(val); 

	lea	eax, DWORD PTR _val$[ebp]
	push	eax
	call	?Float_To_Int_Floor@WWMath@@SAHABM@Z	; WWMath::Float_To_Int_Floor
	add	esp, 4
	mov	DWORD PTR _idx0$[ebp], eax

; 297  : 	int idx1=idx0+1;

	mov	eax, DWORD PTR _idx0$[ebp]
	add	eax, 1
	mov	DWORD PTR _idx1$[ebp], eax

; 298  : 	float frac=val-(float)idx0;

	cvtsi2ss xmm0, DWORD PTR _idx0$[ebp]
	movss	xmm1, DWORD PTR _val$[ebp]
	subss	xmm1, xmm0
	movss	DWORD PTR _frac$[ebp], xmm1

; 299  : 	idx0+=ARC_TABLE_SIZE/2;

	mov	eax, DWORD PTR _idx0$[ebp]
	add	eax, 512				; 00000200H
	mov	DWORD PTR _idx0$[ebp], eax

; 300  : 	idx1+=ARC_TABLE_SIZE/2;

	mov	eax, DWORD PTR _idx1$[ebp]
	add	eax, 512				; 00000200H
	mov	DWORD PTR _idx1$[ebp], eax
$LN10@Fast_Asin:

; 301  : 	TT_ASSERT((idx0 >= 0) && (idx0 < ARC_TABLE_SIZE));

	xor	eax, eax
	jne	SHORT $LN10@Fast_Asin
	cmp	DWORD PTR _idx0$[ebp], 0
	jl	SHORT $LN6@Fast_Asin
	cmp	DWORD PTR _idx0$[ebp], 1024		; 00000400H
	jl	SHORT $LN7@Fast_Asin
$LN6@Fast_Asin:
	int	3
$LN7@Fast_Asin:

; 302  : 	TT_ASSERT((idx1 >= 0) && (idx1 < ARC_TABLE_SIZE));

	xor	eax, eax
	jne	SHORT $LN7@Fast_Asin
	cmp	DWORD PTR _idx1$[ebp], 0
	jl	SHORT $LN1@Fast_Asin
	cmp	DWORD PTR _idx1$[ebp], 1024		; 00000400H
	jl	SHORT $LN2@Fast_Asin
$LN1@Fast_Asin:
	int	3
$LN2@Fast_Asin:

; 303  : 	return (1.0f - frac) * _FastAsinTable[idx0] + frac * _FastAsinTable[idx1];

	movss	xmm0, DWORD PTR __real@3f800000
	subss	xmm0, DWORD PTR _frac$[ebp]
	mov	ecx, DWORD PTR ?_FastAsinTable@@3AAV?$RefArrayHelper@M$0EAA@@@A ; _FastAsinTable
	movss	DWORD PTR tv159[ebp], xmm0
	call	??B?$RefArrayHelper@M$0EAA@@@QAEPAMXZ	; RefArrayHelper<float,1024>::operator float *
	mov	ecx, DWORD PTR _idx0$[ebp]
	movss	xmm0, DWORD PTR tv159[ebp]
	mulss	xmm0, DWORD PTR [eax+ecx*4]
	mov	ecx, DWORD PTR ?_FastAsinTable@@3AAV?$RefArrayHelper@M$0EAA@@@A ; _FastAsinTable
	movss	DWORD PTR tv161[ebp], xmm0
	call	??B?$RefArrayHelper@M$0EAA@@@QAEPAMXZ	; RefArrayHelper<float,1024>::operator float *
	mov	edx, DWORD PTR _idx1$[ebp]
	movss	xmm0, DWORD PTR _frac$[ebp]
	mulss	xmm0, DWORD PTR [eax+edx*4]
	movss	xmm1, DWORD PTR tv161[ebp]
	addss	xmm1, xmm0
	movss	DWORD PTR tv156[ebp], xmm1
	fld	DWORD PTR tv156[ebp]
$LN12@Fast_Asin:

; 304  : }

	pop	edi
	pop	esi
	pop	ebx
	mov	esp, ebp
	pop	ebp
	ret	0
?Fast_Asin@WWMath@@SAMM@Z ENDP				; WWMath::Fast_Asin
_TEXT	ENDS
; Function compile flags: /Odtp /ZI
; File x:\github\renegade\dragonade_rxd\scripts\wwmath.h
;	COMDAT ?Fast_Acos@WWMath@@SAMM@Z
_TEXT	SEGMENT
tv156 = -88						; size = 4
tv161 = -84						; size = 4
tv159 = -80						; size = 4
tv134 = -80						; size = 4
_frac$ = -12						; size = 4
_idx1$ = -8						; size = 4
_idx0$ = -4						; size = 4
_val$ = 8						; size = 4
?Fast_Acos@WWMath@@SAMM@Z PROC				; WWMath::Fast_Acos, COMDAT

; 270  : {

	push	ebp
	mov	ebp, esp
	sub	esp, 88					; 00000058H
	push	ebx
	push	esi
	push	edi

; 271  : 	if (WWMath::Fabs(val) > 0.975f) {

	push	ecx
	movss	xmm0, DWORD PTR _val$[ebp]
	movss	DWORD PTR [esp], xmm0
	call	?Fabs@WWMath@@SAMM@Z			; WWMath::Fabs
	add	esp, 4
	fstp	DWORD PTR tv134[ebp]
	movss	xmm0, DWORD PTR tv134[ebp]
	comiss	xmm0, DWORD PTR __real@3f79999a
	jbe	SHORT $LN11@Fast_Acos

; 272  : 		return WWMath::Acos(val);

	push	ecx
	movss	xmm0, DWORD PTR _val$[ebp]
	movss	DWORD PTR [esp], xmm0
	call	?Acos@WWMath@@SAMM@Z			; WWMath::Acos
	add	esp, 4
	jmp	$LN12@Fast_Acos
$LN11@Fast_Acos:

; 273  : 	}
; 274  : 	val*=float(ARC_TABLE_SIZE/2);

	movss	xmm0, DWORD PTR _val$[ebp]
	mulss	xmm0, DWORD PTR __real@44000000
	movss	DWORD PTR _val$[ebp], xmm0

; 275  : 	int idx0=Float_To_Int_Floor(val);

	lea	eax, DWORD PTR _val$[ebp]
	push	eax
	call	?Float_To_Int_Floor@WWMath@@SAHABM@Z	; WWMath::Float_To_Int_Floor
	add	esp, 4
	mov	DWORD PTR _idx0$[ebp], eax

; 276  : 	int idx1=idx0+1;

	mov	eax, DWORD PTR _idx0$[ebp]
	add	eax, 1
	mov	DWORD PTR _idx1$[ebp], eax

; 277  : 	float frac=val-(float)idx0;

	cvtsi2ss xmm0, DWORD PTR _idx0$[ebp]
	movss	xmm1, DWORD PTR _val$[ebp]
	subss	xmm1, xmm0
	movss	DWORD PTR _frac$[ebp], xmm1

; 278  : 	idx0+=ARC_TABLE_SIZE/2;

	mov	eax, DWORD PTR _idx0$[ebp]
	add	eax, 512				; 00000200H
	mov	DWORD PTR _idx0$[ebp], eax

; 279  : 	idx1+=ARC_TABLE_SIZE/2;

	mov	eax, DWORD PTR _idx1$[ebp]
	add	eax, 512				; 00000200H
	mov	DWORD PTR _idx1$[ebp], eax
$LN10@Fast_Acos:

; 280  : 	TT_ASSERT((idx0 >= 0) && (idx0 < ARC_TABLE_SIZE));

	xor	eax, eax
	jne	SHORT $LN10@Fast_Acos
	cmp	DWORD PTR _idx0$[ebp], 0
	jl	SHORT $LN6@Fast_Acos
	cmp	DWORD PTR _idx0$[ebp], 1024		; 00000400H
	jl	SHORT $LN7@Fast_Acos
$LN6@Fast_Acos:
	int	3
$LN7@Fast_Acos:

; 281  : 	TT_ASSERT((idx1 >= 0) && (idx1 < ARC_TABLE_SIZE));

	xor	eax, eax
	jne	SHORT $LN7@Fast_Acos
	cmp	DWORD PTR _idx1$[ebp], 0
	jl	SHORT $LN1@Fast_Acos
	cmp	DWORD PTR _idx1$[ebp], 1024		; 00000400H
	jl	SHORT $LN2@Fast_Acos
$LN1@Fast_Acos:
	int	3
$LN2@Fast_Acos:

; 282  : 	return (1.0f - frac) * _FastAcosTable[idx0] + frac * _FastAcosTable[idx1];

	movss	xmm0, DWORD PTR __real@3f800000
	subss	xmm0, DWORD PTR _frac$[ebp]
	mov	ecx, DWORD PTR ?_FastAcosTable@@3AAV?$RefArrayHelper@M$0EAA@@@A ; _FastAcosTable
	movss	DWORD PTR tv159[ebp], xmm0
	call	??B?$RefArrayHelper@M$0EAA@@@QAEPAMXZ	; RefArrayHelper<float,1024>::operator float *
	mov	ecx, DWORD PTR _idx0$[ebp]
	movss	xmm0, DWORD PTR tv159[ebp]
	mulss	xmm0, DWORD PTR [eax+ecx*4]
	mov	ecx, DWORD PTR ?_FastAcosTable@@3AAV?$RefArrayHelper@M$0EAA@@@A ; _FastAcosTable
	movss	DWORD PTR tv161[ebp], xmm0
	call	??B?$RefArrayHelper@M$0EAA@@@QAEPAMXZ	; RefArrayHelper<float,1024>::operator float *
	mov	edx, DWORD PTR _idx1$[ebp]
	movss	xmm0, DWORD PTR _frac$[ebp]
	mulss	xmm0, DWORD PTR [eax+edx*4]
	movss	xmm1, DWORD PTR tv161[ebp]
	addss	xmm1, xmm0
	movss	DWORD PTR tv156[ebp], xmm1
	fld	DWORD PTR tv156[ebp]
$LN12@Fast_Acos:

; 283  : }

	pop	edi
	pop	esi
	pop	ebx
	mov	esp, ebp
	pop	ebp
	ret	0
?Fast_Acos@WWMath@@SAMM@Z ENDP				; WWMath::Fast_Acos
_TEXT	ENDS
; Function compile flags: /Odtp /ZI
; File x:\github\renegade\dragonade_rxd\scripts\wwmath.h
;	COMDAT ?Fast_Inv_Cos@WWMath@@SAMM@Z
_TEXT	SEGMENT
tv76 = -72						; size = 4
tv73 = -68						; size = 4
_val$ = 8						; size = 4
?Fast_Inv_Cos@WWMath@@SAMM@Z PROC			; WWMath::Fast_Inv_Cos, COMDAT

; 265  : {

	push	ebp
	mov	ebp, esp
	sub	esp, 72					; 00000048H
	push	ebx
	push	esi
	push	edi

; 266  : 	return 1.0f / WWMath::Fast_Cos(val);

	push	ecx
	movss	xmm0, DWORD PTR _val$[ebp]
	movss	DWORD PTR [esp], xmm0
	call	?Fast_Cos@WWMath@@SAMM@Z		; WWMath::Fast_Cos
	add	esp, 4
	fstp	DWORD PTR tv73[ebp]
	movss	xmm0, DWORD PTR __real@3f800000
	divss	xmm0, DWORD PTR tv73[ebp]
	movss	DWORD PTR tv76[ebp], xmm0
	fld	DWORD PTR tv76[ebp]

; 267  : }

	pop	edi
	pop	esi
	pop	ebx
	mov	esp, ebp
	pop	ebp
	ret	0
?Fast_Inv_Cos@WWMath@@SAMM@Z ENDP			; WWMath::Fast_Inv_Cos
_TEXT	ENDS
; Function compile flags: /Odtp /ZI
; File x:\github\renegade\dragonade_rxd\scripts\wwmath.h
;	COMDAT ?Fast_Cos@WWMath@@SAMM@Z
_TEXT	SEGMENT
tv135 = -88						; size = 4
tv140 = -84						; size = 4
tv138 = -80						; size = 4
_frac$ = -12						; size = 4
_idx1$ = -8						; size = 4
_idx0$ = -4						; size = 4
_val$ = 8						; size = 4
?Fast_Cos@WWMath@@SAMM@Z PROC				; WWMath::Fast_Cos, COMDAT

; 253  : {

	push	ebp
	mov	ebp, esp
	sub	esp, 88					; 00000058H
	push	ebx
	push	esi
	push	edi

; 254  : 	val+=(WWMATH_PI * 0.5f);

	movss	xmm0, DWORD PTR _val$[ebp]
	addss	xmm0, DWORD PTR __real@3fc90fdb
	movss	DWORD PTR _val$[ebp], xmm0

; 255  : 	val*=float(SIN_TABLE_SIZE) / (2.0f * WWMATH_PI);

	movss	xmm0, DWORD PTR __real@44800000
	divss	xmm0, DWORD PTR __real@40c90fdb
	mulss	xmm0, DWORD PTR _val$[ebp]
	movss	DWORD PTR _val$[ebp], xmm0

; 256  : 	int idx0=Float_To_Int_Floor(val);

	lea	eax, DWORD PTR _val$[ebp]
	push	eax
	call	?Float_To_Int_Floor@WWMath@@SAHABM@Z	; WWMath::Float_To_Int_Floor
	add	esp, 4
	mov	DWORD PTR _idx0$[ebp], eax

; 257  : 	int idx1=idx0+1;

	mov	eax, DWORD PTR _idx0$[ebp]
	add	eax, 1
	mov	DWORD PTR _idx1$[ebp], eax

; 258  : 	float frac=val-(float)idx0;

	cvtsi2ss xmm0, DWORD PTR _idx0$[ebp]
	movss	xmm1, DWORD PTR _val$[ebp]
	subss	xmm1, xmm0
	movss	DWORD PTR _frac$[ebp], xmm1

; 259  : 	idx0 = ((unsigned)idx0) & (SIN_TABLE_SIZE-1);

	mov	eax, DWORD PTR _idx0$[ebp]
	and	eax, 1023				; 000003ffH
	mov	DWORD PTR _idx0$[ebp], eax

; 260  : 	idx1 = ((unsigned)idx1) & (SIN_TABLE_SIZE-1);

	mov	eax, DWORD PTR _idx1$[ebp]
	and	eax, 1023				; 000003ffH
	mov	DWORD PTR _idx1$[ebp], eax

; 261  : 	return (1.0f - frac) * _FastSinTable[idx0] + frac * _FastSinTable[idx1];

	movss	xmm0, DWORD PTR __real@3f800000
	subss	xmm0, DWORD PTR _frac$[ebp]
	mov	ecx, DWORD PTR ?_FastSinTable@@3AAV?$RefArrayHelper@M$0EAA@@@A ; _FastSinTable
	movss	DWORD PTR tv138[ebp], xmm0
	call	??B?$RefArrayHelper@M$0EAA@@@QAEPAMXZ	; RefArrayHelper<float,1024>::operator float *
	mov	ecx, DWORD PTR _idx0$[ebp]
	movss	xmm0, DWORD PTR tv138[ebp]
	mulss	xmm0, DWORD PTR [eax+ecx*4]
	mov	ecx, DWORD PTR ?_FastSinTable@@3AAV?$RefArrayHelper@M$0EAA@@@A ; _FastSinTable
	movss	DWORD PTR tv140[ebp], xmm0
	call	??B?$RefArrayHelper@M$0EAA@@@QAEPAMXZ	; RefArrayHelper<float,1024>::operator float *
	mov	edx, DWORD PTR _idx1$[ebp]
	movss	xmm0, DWORD PTR _frac$[ebp]
	mulss	xmm0, DWORD PTR [eax+edx*4]
	movss	xmm1, DWORD PTR tv140[ebp]
	addss	xmm1, xmm0
	movss	DWORD PTR tv135[ebp], xmm1
	fld	DWORD PTR tv135[ebp]

; 262  : }

	pop	edi
	pop	esi
	pop	ebx
	mov	esp, ebp
	pop	ebp
	ret	0
?Fast_Cos@WWMath@@SAMM@Z ENDP				; WWMath::Fast_Cos
_TEXT	ENDS
; Function compile flags: /Odtp /ZI
; File x:\github\renegade\dragonade_rxd\scripts\wwmath.h
;	COMDAT ?Fast_Inv_Sin@WWMath@@SAMM@Z
_TEXT	SEGMENT
tv76 = -72						; size = 4
tv73 = -68						; size = 4
_val$ = 8						; size = 4
?Fast_Inv_Sin@WWMath@@SAMM@Z PROC			; WWMath::Fast_Inv_Sin, COMDAT

; 248  : {

	push	ebp
	mov	ebp, esp
	sub	esp, 72					; 00000048H
	push	ebx
	push	esi
	push	edi

; 249  : 	return 1.0f / WWMath::Fast_Sin(val);

	push	ecx
	movss	xmm0, DWORD PTR _val$[ebp]
	movss	DWORD PTR [esp], xmm0
	call	?Fast_Sin@WWMath@@SAMM@Z		; WWMath::Fast_Sin
	add	esp, 4
	fstp	DWORD PTR tv73[ebp]
	movss	xmm0, DWORD PTR __real@3f800000
	divss	xmm0, DWORD PTR tv73[ebp]
	movss	DWORD PTR tv76[ebp], xmm0
	fld	DWORD PTR tv76[ebp]

; 250  : }

	pop	edi
	pop	esi
	pop	ebx
	mov	esp, ebp
	pop	ebp
	ret	0
?Fast_Inv_Sin@WWMath@@SAMM@Z ENDP			; WWMath::Fast_Inv_Sin
_TEXT	ENDS
; Function compile flags: /Odtp /ZI
; File x:\github\renegade\dragonade_rxd\scripts\wwmath.h
;	COMDAT ?Fast_Sin@WWMath@@SAMM@Z
_TEXT	SEGMENT
tv133 = -88						; size = 4
tv138 = -84						; size = 4
tv136 = -80						; size = 4
_frac$ = -12						; size = 4
_idx1$ = -8						; size = 4
_idx0$ = -4						; size = 4
_val$ = 8						; size = 4
?Fast_Sin@WWMath@@SAMM@Z PROC				; WWMath::Fast_Sin, COMDAT

; 237  : {

	push	ebp
	mov	ebp, esp
	sub	esp, 88					; 00000058H
	push	ebx
	push	esi
	push	edi

; 238  : 	val*=float(SIN_TABLE_SIZE) / (2.0f * WWMATH_PI);

	movss	xmm0, DWORD PTR __real@44800000
	divss	xmm0, DWORD PTR __real@40c90fdb
	mulss	xmm0, DWORD PTR _val$[ebp]
	movss	DWORD PTR _val$[ebp], xmm0

; 239  : 	int idx0=Float_To_Int_Floor(val);

	lea	eax, DWORD PTR _val$[ebp]
	push	eax
	call	?Float_To_Int_Floor@WWMath@@SAHABM@Z	; WWMath::Float_To_Int_Floor
	add	esp, 4
	mov	DWORD PTR _idx0$[ebp], eax

; 240  : 	int idx1=idx0+1;

	mov	eax, DWORD PTR _idx0$[ebp]
	add	eax, 1
	mov	DWORD PTR _idx1$[ebp], eax

; 241  : 	float frac=val-(float)idx0;

	cvtsi2ss xmm0, DWORD PTR _idx0$[ebp]
	movss	xmm1, DWORD PTR _val$[ebp]
	subss	xmm1, xmm0
	movss	DWORD PTR _frac$[ebp], xmm1

; 242  : 	idx0 = ((unsigned)idx0) & (SIN_TABLE_SIZE-1);

	mov	eax, DWORD PTR _idx0$[ebp]
	and	eax, 1023				; 000003ffH
	mov	DWORD PTR _idx0$[ebp], eax

; 243  : 	idx1 = ((unsigned)idx1) & (SIN_TABLE_SIZE-1);

	mov	eax, DWORD PTR _idx1$[ebp]
	and	eax, 1023				; 000003ffH
	mov	DWORD PTR _idx1$[ebp], eax

; 244  : 	return (1.0f - frac) * _FastSinTable[idx0] + frac * _FastSinTable[idx1];

	movss	xmm0, DWORD PTR __real@3f800000
	subss	xmm0, DWORD PTR _frac$[ebp]
	mov	ecx, DWORD PTR ?_FastSinTable@@3AAV?$RefArrayHelper@M$0EAA@@@A ; _FastSinTable
	movss	DWORD PTR tv136[ebp], xmm0
	call	??B?$RefArrayHelper@M$0EAA@@@QAEPAMXZ	; RefArrayHelper<float,1024>::operator float *
	mov	ecx, DWORD PTR _idx0$[ebp]
	movss	xmm0, DWORD PTR tv136[ebp]
	mulss	xmm0, DWORD PTR [eax+ecx*4]
	mov	ecx, DWORD PTR ?_FastSinTable@@3AAV?$RefArrayHelper@M$0EAA@@@A ; _FastSinTable
	movss	DWORD PTR tv138[ebp], xmm0
	call	??B?$RefArrayHelper@M$0EAA@@@QAEPAMXZ	; RefArrayHelper<float,1024>::operator float *
	mov	edx, DWORD PTR _idx1$[ebp]
	movss	xmm0, DWORD PTR _frac$[ebp]
	mulss	xmm0, DWORD PTR [eax+edx*4]
	movss	xmm1, DWORD PTR tv138[ebp]
	addss	xmm1, xmm0
	movss	DWORD PTR tv133[ebp], xmm1
	fld	DWORD PTR tv133[ebp]

; 245  : }

	pop	edi
	pop	esi
	pop	ebx
	mov	esp, ebp
	pop	ebp
	ret	0
?Fast_Sin@WWMath@@SAMM@Z ENDP				; WWMath::Fast_Sin
_TEXT	ENDS
; Function compile flags: /Odtp /ZI
; File x:\github\renegade\dragonade_rxd\scripts\wwmath.h
;	COMDAT ?Float_To_Long@WWMath@@SAJM@Z
_TEXT	SEGMENT
$T1 = -80						; size = 16
_f$ = 8							; size = 4
?Float_To_Long@WWMath@@SAJM@Z PROC			; WWMath::Float_To_Long, COMDAT

; 217  : {

	push	ebx
	mov	ebx, esp
	sub	esp, 8
	and	esp, -16				; fffffff0H
	add	esp, 4
	push	ebp
	mov	ebp, DWORD PTR [ebx+4]
	mov	DWORD PTR [esp+4], ebp
	mov	ebp, esp
	sub	esp, 88					; 00000058H
	push	esi
	push	edi

; 218  :     return _mm_cvtt_ss2si(_mm_load_ss(&f));

	movss	xmm0, DWORD PTR _f$[ebx]
	movaps	XMMWORD PTR $T1[ebp], xmm0
	movaps	xmm0, XMMWORD PTR $T1[ebp]
	cvttss2si eax, xmm0

; 219  : }

	pop	edi
	pop	esi
	mov	esp, ebp
	pop	ebp
	mov	esp, ebx
	pop	ebx
	ret	0
?Float_To_Long@WWMath@@SAJM@Z ENDP			; WWMath::Float_To_Long
_TEXT	ENDS
; Function compile flags: /Odtp /ZI
; File x:\github\renegade\dragonade_rxd\scripts\wwmath.h
;	COMDAT ?Inv_Sqrt@WWMath@@SIMM@Z
_TEXT	SEGMENT
tv76 = -72						; size = 4
tv73 = -68						; size = 4
_number$ = 8						; size = 4
?Inv_Sqrt@WWMath@@SIMM@Z PROC				; WWMath::Inv_Sqrt, COMDAT

; 341  : {

	push	ebp
	mov	ebp, esp
	sub	esp, 72					; 00000048H
	push	ebx
	push	esi
	push	edi

; 342  : 	return 1.f / sqrt(number);

	push	ecx
	movss	xmm0, DWORD PTR _number$[ebp]
	movss	DWORD PTR [esp], xmm0
	call	?sqrt@@YAMM@Z				; sqrt
	add	esp, 4
	fstp	DWORD PTR tv73[ebp]
	movss	xmm0, DWORD PTR __real@3f800000
	divss	xmm0, DWORD PTR tv73[ebp]
	movss	DWORD PTR tv76[ebp], xmm0
	fld	DWORD PTR tv76[ebp]

; 343  : }

	pop	edi
	pop	esi
	pop	ebx
	mov	esp, ebp
	pop	ebp
	ret	4
?Inv_Sqrt@WWMath@@SIMM@Z ENDP				; WWMath::Inv_Sqrt
_TEXT	ENDS
; Function compile flags: /Odtp /ZI
; File x:\github\renegade\dragonade_rxd\scripts\wwmath.h
;	COMDAT ?Sqrt@WWMath@@SAMM@Z
_TEXT	SEGMENT
_val$ = 8						; size = 4
?Sqrt@WWMath@@SAMM@Z PROC				; WWMath::Sqrt, COMDAT

; 311  : {

	push	ebp
	mov	ebp, esp
	sub	esp, 64					; 00000040H
	push	ebx
	push	esi
	push	edi

; 312  :     return ::sqrtf(val);

	push	ecx
	movss	xmm0, DWORD PTR _val$[ebp]
	movss	DWORD PTR [esp], xmm0
	call	_sqrtf
	add	esp, 4

; 313  : }

	pop	edi
	pop	esi
	pop	ebx
	mov	esp, ebp
	pop	ebp
	ret	0
?Sqrt@WWMath@@SAMM@Z ENDP				; WWMath::Sqrt
_TEXT	ENDS
; Function compile flags: /Odtp /ZI
; File x:\github\renegade\dragonade_rxd\scripts\wwmath.h
;	COMDAT ?Sin@WWMath@@SAMM@Z
_TEXT	SEGMENT
_val$ = 8						; size = 4
?Sin@WWMath@@SAMM@Z PROC				; WWMath::Sin, COMDAT

; 232  : {

	push	ebp
	mov	ebp, esp
	sub	esp, 64					; 00000040H
	push	ebx
	push	esi
	push	edi

; 233  :     return ::sin(val);

	push	ecx
	movss	xmm0, DWORD PTR _val$[ebp]
	movss	DWORD PTR [esp], xmm0
	call	?sin@@YAMM@Z				; sin
	add	esp, 4

; 234  : }

	pop	edi
	pop	esi
	pop	ebx
	mov	esp, ebp
	pop	ebp
	ret	0
?Sin@WWMath@@SAMM@Z ENDP				; WWMath::Sin
_TEXT	ENDS
; Function compile flags: /Odtp /ZI
; File x:\github\renegade\dragonade_rxd\scripts\wwmath.h
;	COMDAT ?Cos@WWMath@@SAMM@Z
_TEXT	SEGMENT
_val$ = 8						; size = 4
?Cos@WWMath@@SAMM@Z PROC				; WWMath::Cos, COMDAT

; 227  : {

	push	ebp
	mov	ebp, esp
	sub	esp, 64					; 00000040H
	push	ebx
	push	esi
	push	edi

; 228  :     return ::cos(val);

	push	ecx
	movss	xmm0, DWORD PTR _val$[ebp]
	movss	DWORD PTR [esp], xmm0
	call	?cos@@YAMM@Z				; cos
	add	esp, 4

; 229  : }

	pop	edi
	pop	esi
	pop	ebx
	mov	esp, ebp
	pop	ebp
	ret	0
?Cos@WWMath@@SAMM@Z ENDP				; WWMath::Cos
_TEXT	ENDS
; Function compile flags: /Odtp /ZI
; File x:\github\renegade\dragonade_rxd\scripts\wwmath.h
;	COMDAT ?Float_To_Int_Floor@WWMath@@SAHABM@Z
_TEXT	SEGMENT
tv83 = -96						; size = 4
_r$ = -28						; size = 4
_mantissa$ = -24					; size = 4
_imask$ = -20						; size = 4
_expsign$ = -16						; size = 4
_exponent$ = -12					; size = 4
_sign$ = -8						; size = 4
_a$ = -4						; size = 4
_f$ = 8							; size = 4
?Float_To_Int_Floor@WWMath@@SAHABM@Z PROC		; WWMath::Float_To_Int_Floor, COMDAT

; 326  : {

	push	ebp
	mov	ebp, esp
	sub	esp, 96					; 00000060H
	push	ebx
	push	esi
	push	edi

; 327  : 	int a = *reinterpret_cast<const int*>(&f);

	mov	eax, DWORD PTR _f$[ebp]
	mov	ecx, DWORD PTR [eax]
	mov	DWORD PTR _a$[ebp], ecx

; 328  : 	int sign = (a>>31);

	mov	eax, DWORD PTR _a$[ebp]
	sar	eax, 31					; 0000001fH
	mov	DWORD PTR _sign$[ebp], eax

; 329  : 	a&=0x7fffffff;

	mov	eax, DWORD PTR _a$[ebp]
	and	eax, 2147483647				; 7fffffffH
	mov	DWORD PTR _a$[ebp], eax

; 330  : 	int exponent = (a>>23)-127;

	mov	eax, DWORD PTR _a$[ebp]
	sar	eax, 23					; 00000017H
	sub	eax, 127				; 0000007fH
	mov	DWORD PTR _exponent$[ebp], eax

; 331  : 	int expsign	= ~(exponent>>31);

	mov	eax, DWORD PTR _exponent$[ebp]
	sar	eax, 31					; 0000001fH
	not	eax
	mov	DWORD PTR _expsign$[ebp], eax

; 332  : 	int imask = ( (1<<(31-(exponent))))-1;

	mov	ecx, 31					; 0000001fH
	sub	ecx, DWORD PTR _exponent$[ebp]
	mov	eax, 1
	shl	eax, cl
	sub	eax, 1
	mov	DWORD PTR _imask$[ebp], eax

; 333  : 	int mantissa = (a&((1<<23)-1));

	mov	eax, DWORD PTR _a$[ebp]
	and	eax, 8388607				; 007fffffH
	mov	DWORD PTR _mantissa$[ebp], eax

; 334  : 	int r = ((unsigned int)(mantissa|(1<<23))<<8)>>(31-exponent);

	mov	eax, DWORD PTR _mantissa$[ebp]
	or	eax, 8388608				; 00800000H
	shl	eax, 8
	mov	ecx, 31					; 0000001fH
	sub	ecx, DWORD PTR _exponent$[ebp]
	shr	eax, cl
	mov	DWORD PTR _r$[ebp], eax

; 335  : #pragma warning(suppress: 6290) //warning C6290: Bitwise operation on logical result: ! has higher precedence than &. Use && or (!(x & y)) instead
; 336  : 	r = ((r & expsign) ^ (sign)) + ((!((mantissa<<8)&imask)&(expsign^((a-1)>>31)))&sign);

	mov	eax, DWORD PTR _mantissa$[ebp]
	shl	eax, 8
	and	eax, DWORD PTR _imask$[ebp]
	jne	SHORT $LN3@Float_To_I
	mov	DWORD PTR tv83[ebp], 1
	jmp	SHORT $LN4@Float_To_I
$LN3@Float_To_I:
	mov	DWORD PTR tv83[ebp], 0
$LN4@Float_To_I:
	mov	ecx, DWORD PTR _r$[ebp]
	and	ecx, DWORD PTR _expsign$[ebp]
	xor	ecx, DWORD PTR _sign$[ebp]
	mov	edx, DWORD PTR _a$[ebp]
	sub	edx, 1
	sar	edx, 31					; 0000001fH
	xor	edx, DWORD PTR _expsign$[ebp]
	and	edx, DWORD PTR tv83[ebp]
	and	edx, DWORD PTR _sign$[ebp]
	add	ecx, edx
	mov	DWORD PTR _r$[ebp], ecx

; 337  : 	return r;

	mov	eax, DWORD PTR _r$[ebp]

; 338  : }

	pop	edi
	pop	esi
	pop	ebx
	mov	esp, ebp
	pop	ebp
	ret	0
?Float_To_Int_Floor@WWMath@@SAHABM@Z ENDP		; WWMath::Float_To_Int_Floor
_TEXT	ENDS
; Function compile flags: /Odtp /ZI
; File x:\github\renegade\dragonade_rxd\scripts\wwmath.h
;	COMDAT ?Float_To_Int_Chop@WWMath@@SAHABM@Z
_TEXT	SEGMENT
_r$ = -20						; size = 4
_exponent$ = -16					; size = 4
_mantissa$ = -12					; size = 4
_sign$ = -8						; size = 4
_a$ = -4						; size = 4
_f$ = 8							; size = 4
?Float_To_Int_Chop@WWMath@@SAHABM@Z PROC		; WWMath::Float_To_Int_Chop, COMDAT

; 316  : {

	push	ebp
	mov	ebp, esp
	sub	esp, 84					; 00000054H
	push	ebx
	push	esi
	push	edi

; 317  :     int a = *reinterpret_cast<const int*>(&f);

	mov	eax, DWORD PTR _f$[ebp]
	mov	ecx, DWORD PTR [eax]
	mov	DWORD PTR _a$[ebp], ecx

; 318  :     int sign = (a>>31);

	mov	eax, DWORD PTR _a$[ebp]
	sar	eax, 31					; 0000001fH
	mov	DWORD PTR _sign$[ebp], eax

; 319  :     int mantissa = (a&((1<<23)-1))|(1<<23);

	mov	eax, DWORD PTR _a$[ebp]
	and	eax, 8388607				; 007fffffH
	or	eax, 8388608				; 00800000H
	mov	DWORD PTR _mantissa$[ebp], eax

; 320  :     int exponent = ((a&0x7fffffff)>>23)-127;

	mov	eax, DWORD PTR _a$[ebp]
	and	eax, 2147483647				; 7fffffffH
	sar	eax, 23					; 00000017H
	sub	eax, 127				; 0000007fH
	mov	DWORD PTR _exponent$[ebp], eax

; 321  :     int r = ((unsigned int)(mantissa)<<8)>>(31-exponent);

	mov	eax, DWORD PTR _mantissa$[ebp]
	shl	eax, 8
	mov	ecx, 31					; 0000001fH
	sub	ecx, DWORD PTR _exponent$[ebp]
	shr	eax, cl
	mov	DWORD PTR _r$[ebp], eax

; 322  :     return ((r ^ (sign)) - sign ) &~ (exponent>>31);

	mov	eax, DWORD PTR _r$[ebp]
	xor	eax, DWORD PTR _sign$[ebp]
	sub	eax, DWORD PTR _sign$[ebp]
	mov	ecx, DWORD PTR _exponent$[ebp]
	sar	ecx, 31					; 0000001fH
	not	ecx
	and	eax, ecx

; 323  : }

	pop	edi
	pop	esi
	pop	ebx
	mov	esp, ebp
	pop	ebp
	ret	0
?Float_To_Int_Chop@WWMath@@SAHABM@Z ENDP		; WWMath::Float_To_Int_Chop
_TEXT	ENDS
; Function compile flags: /Odtp /ZI
; File x:\github\renegade\dragonade_rxd\scripts\wwmath.h
;	COMDAT ?Fabs@WWMath@@SAMM@Z
_TEXT	SEGMENT
_value$ = -4						; size = 4
_val$ = 8						; size = 4
?Fabs@WWMath@@SAMM@Z PROC				; WWMath::Fabs, COMDAT

; 57   : 	{

	push	ebp
	mov	ebp, esp
	sub	esp, 68					; 00000044H
	push	ebx
	push	esi
	push	edi

; 58   : 		int value=*(int*)&val;

	mov	eax, DWORD PTR _val$[ebp]
	mov	DWORD PTR _value$[ebp], eax

; 59   : 		value&=0x7fffffff;

	mov	eax, DWORD PTR _value$[ebp]
	and	eax, 2147483647				; 7fffffffH
	mov	DWORD PTR _value$[ebp], eax

; 60   : 		return *(float*)&value;

	fld	DWORD PTR _value$[ebp]

; 61   : 	}

	pop	edi
	pop	esi
	pop	ebx
	mov	esp, ebp
	pop	ebp
	ret	0
?Fabs@WWMath@@SAMM@Z ENDP				; WWMath::Fabs
_TEXT	ENDS
; Function compile flags: /Odtp /ZI
; File c:\program files (x86)\microsoft visual studio 11.0\vc\include\math.h
;	COMDAT ?sqrt@@YAMM@Z
_TEXT	SEGMENT
__X$ = 8						; size = 4
?sqrt@@YAMM@Z PROC					; sqrt, COMDAT

; 541  :         {return (sqrtf(_X)); }

	push	ebp
	mov	ebp, esp
	sub	esp, 64					; 00000040H
	push	ebx
	push	esi
	push	edi
	push	ecx
	movss	xmm0, DWORD PTR __X$[ebp]
	movss	DWORD PTR [esp], xmm0
	call	_sqrtf
	add	esp, 4
	pop	edi
	pop	esi
	pop	ebx
	mov	esp, ebp
	pop	ebp
	ret	0
?sqrt@@YAMM@Z ENDP					; sqrt
_TEXT	ENDS
; Function compile flags: /Odtp /ZI
; File c:\program files (x86)\microsoft visual studio 11.0\vc\include\math.h
;	COMDAT ?sin@@YAMM@Z
_TEXT	SEGMENT
__X$ = 8						; size = 4
?sin@@YAMM@Z PROC					; sin, COMDAT

; 537  :         {return (sinf(_X)); }

	push	ebp
	mov	ebp, esp
	sub	esp, 64					; 00000040H
	push	ebx
	push	esi
	push	edi
	push	ecx
	movss	xmm0, DWORD PTR __X$[ebp]
	movss	DWORD PTR [esp], xmm0
	call	_sinf
	add	esp, 4
	pop	edi
	pop	esi
	pop	ebx
	mov	esp, ebp
	pop	ebp
	ret	0
?sin@@YAMM@Z ENDP					; sin
_TEXT	ENDS
; Function compile flags: /Odtp /ZI
; File c:\program files (x86)\microsoft visual studio 11.0\vc\include\math.h
;	COMDAT ?cos@@YAMM@Z
_TEXT	SEGMENT
__X$ = 8						; size = 4
?cos@@YAMM@Z PROC					; cos, COMDAT

; 511  :         {return (cosf(_X)); }

	push	ebp
	mov	ebp, esp
	sub	esp, 64					; 00000040H
	push	ebx
	push	esi
	push	edi
	push	ecx
	movss	xmm0, DWORD PTR __X$[ebp]
	movss	DWORD PTR [esp], xmm0
	call	_cosf
	add	esp, 4
	pop	edi
	pop	esi
	pop	ebx
	mov	esp, ebp
	pop	ebp
	ret	0
?cos@@YAMM@Z ENDP					; cos
_TEXT	ENDS
; Function compile flags: /Odtp /ZI
; File c:\program files (x86)\microsoft visual studio 11.0\vc\include\math.h
;	COMDAT ?atan2@@YAMMM@Z
_TEXT	SEGMENT
__Y$ = 8						; size = 4
__X$ = 12						; size = 4
?atan2@@YAMMM@Z PROC					; atan2, COMDAT

; 507  :         {return (atan2f(_Y, _X)); }

	push	ebp
	mov	ebp, esp
	sub	esp, 64					; 00000040H
	push	ebx
	push	esi
	push	edi
	push	ecx
	movss	xmm0, DWORD PTR __X$[ebp]
	movss	DWORD PTR [esp], xmm0
	push	ecx
	movss	xmm0, DWORD PTR __Y$[ebp]
	movss	DWORD PTR [esp], xmm0
	call	_atan2f
	add	esp, 8
	pop	edi
	pop	esi
	pop	ebx
	mov	esp, ebp
	pop	ebp
	ret	0
?atan2@@YAMMM@Z ENDP					; atan2
_TEXT	ENDS
; Function compile flags: /Odtp /ZI
; File c:\program files (x86)\microsoft visual studio 11.0\vc\include\math.h
;	COMDAT ?atan@@YAMM@Z
_TEXT	SEGMENT
__X$ = 8						; size = 4
?atan@@YAMM@Z PROC					; atan, COMDAT

; 505  :         {return (atanf(_X)); }

	push	ebp
	mov	ebp, esp
	sub	esp, 64					; 00000040H
	push	ebx
	push	esi
	push	edi
	push	ecx
	movss	xmm0, DWORD PTR __X$[ebp]
	movss	DWORD PTR [esp], xmm0
	call	_atanf
	add	esp, 4
	pop	edi
	pop	esi
	pop	ebx
	mov	esp, ebp
	pop	ebp
	ret	0
?atan@@YAMM@Z ENDP					; atan
_TEXT	ENDS
; Function compile flags: /Odtp /ZI
; File c:\program files (x86)\microsoft visual studio 11.0\vc\include\math.h
;	COMDAT ?asin@@YAMM@Z
_TEXT	SEGMENT
__X$ = 8						; size = 4
?asin@@YAMM@Z PROC					; asin, COMDAT

; 503  :         {return (asinf(_X)); }

	push	ebp
	mov	ebp, esp
	sub	esp, 64					; 00000040H
	push	ebx
	push	esi
	push	edi
	push	ecx
	movss	xmm0, DWORD PTR __X$[ebp]
	movss	DWORD PTR [esp], xmm0
	call	_asinf
	add	esp, 4
	pop	edi
	pop	esi
	pop	ebx
	mov	esp, ebp
	pop	ebp
	ret	0
?asin@@YAMM@Z ENDP					; asin
_TEXT	ENDS
; Function compile flags: /Odtp /ZI
; File c:\program files (x86)\microsoft visual studio 11.0\vc\include\math.h
;	COMDAT ?acos@@YAMM@Z
_TEXT	SEGMENT
__X$ = 8						; size = 4
?acos@@YAMM@Z PROC					; acos, COMDAT

; 501  :         {return (acosf(_X)); }

	push	ebp
	mov	ebp, esp
	sub	esp, 64					; 00000040H
	push	ebx
	push	esi
	push	edi
	push	ecx
	movss	xmm0, DWORD PTR __X$[ebp]
	movss	DWORD PTR [esp], xmm0
	call	_acosf
	add	esp, 4
	pop	edi
	pop	esi
	pop	ebx
	mov	esp, ebp
	pop	ebp
	ret	0
?acos@@YAMM@Z ENDP					; acos
_TEXT	ENDS
; Function compile flags: /Odtp /ZI
; File c:\program files (x86)\microsoft visual studio 11.0\vc\include\math.h
;	COMDAT _sqrtf
_TEXT	SEGMENT
tv71 = -68						; size = 4
__X$ = 8						; size = 4
_sqrtf	PROC						; COMDAT

; 434  :         {return ((float)sqrt((double)_X)); }

	push	ebp
	mov	ebp, esp
	sub	esp, 68					; 00000044H
	push	ebx
	push	esi
	push	edi
	cvtss2sd xmm0, DWORD PTR __X$[ebp]
	call	__libm_sse2_sqrt_precise
	cvtsd2ss xmm0, xmm0
	movss	DWORD PTR tv71[ebp], xmm0
	fld	DWORD PTR tv71[ebp]
	pop	edi
	pop	esi
	pop	ebx
	mov	esp, ebp
	pop	ebp
	ret	0
_sqrtf	ENDP
_TEXT	ENDS
; Function compile flags: /Odtp /ZI
; File c:\program files (x86)\microsoft visual studio 11.0\vc\include\math.h
;	COMDAT _sinf
_TEXT	SEGMENT
tv71 = -68						; size = 4
__X$ = 8						; size = 4
_sinf	PROC						; COMDAT

; 430  :         {return ((float)sin((double)_X)); }

	push	ebp
	mov	ebp, esp
	sub	esp, 68					; 00000044H
	push	ebx
	push	esi
	push	edi
	cvtss2sd xmm0, DWORD PTR __X$[ebp]
	call	__libm_sse2_sin_precise
	cvtsd2ss xmm0, xmm0
	movss	DWORD PTR tv71[ebp], xmm0
	fld	DWORD PTR tv71[ebp]
	pop	edi
	pop	esi
	pop	ebx
	mov	esp, ebp
	pop	ebp
	ret	0
_sinf	ENDP
_TEXT	ENDS
; Function compile flags: /Odtp /ZI
; File c:\program files (x86)\microsoft visual studio 11.0\vc\include\math.h
;	COMDAT _floorf
_TEXT	SEGMENT
tv80 = -84						; size = 4
tv78 = -80						; size = 8
tv72 = -72						; size = 8
__X$ = 8						; size = 4
_floorf	PROC						; COMDAT

; 416  :         {return ((float)floor((double)_X)); }

	push	ebp
	mov	ebp, esp
	sub	esp, 84					; 00000054H
	push	ebx
	push	esi
	push	edi
	cvtss2sd xmm0, DWORD PTR __X$[ebp]
	movsd	QWORD PTR tv72[ebp], xmm0
	fld	QWORD PTR tv72[ebp]
	sub	esp, 8
	fstp	QWORD PTR [esp]
	call	_floor
	add	esp, 8
	fstp	QWORD PTR tv78[ebp]
	movsd	xmm0, QWORD PTR tv78[ebp]
	cvtsd2ss xmm0, xmm0
	movss	DWORD PTR tv80[ebp], xmm0
	fld	DWORD PTR tv80[ebp]
	pop	edi
	pop	esi
	pop	ebx
	mov	esp, ebp
	pop	ebp
	ret	0
_floorf	ENDP
_TEXT	ENDS
; Function compile flags: /Odtp /ZI
; File c:\program files (x86)\microsoft visual studio 11.0\vc\include\math.h
;	COMDAT _cosf
_TEXT	SEGMENT
tv71 = -68						; size = 4
__X$ = 8						; size = 4
_cosf	PROC						; COMDAT

; 410  :         {return ((float)cos((double)_X)); }

	push	ebp
	mov	ebp, esp
	sub	esp, 68					; 00000044H
	push	ebx
	push	esi
	push	edi
	cvtss2sd xmm0, DWORD PTR __X$[ebp]
	call	__libm_sse2_cos_precise
	cvtsd2ss xmm0, xmm0
	movss	DWORD PTR tv71[ebp], xmm0
	fld	DWORD PTR tv71[ebp]
	pop	edi
	pop	esi
	pop	ebx
	mov	esp, ebp
	pop	ebp
	ret	0
_cosf	ENDP
_TEXT	ENDS
; Function compile flags: /Odtp /ZI
; File c:\program files (x86)\microsoft visual studio 11.0\vc\include\math.h
;	COMDAT _ceilf
_TEXT	SEGMENT
tv76 = -76						; size = 4
tv74 = -72						; size = 8
__X$ = 8						; size = 4
_ceilf	PROC						; COMDAT

; 408  :         {return ((float)ceil((double)_X)); }

	push	ebp
	mov	ebp, esp
	sub	esp, 76					; 0000004cH
	push	ebx
	push	esi
	push	edi
	cvtss2sd xmm0, DWORD PTR __X$[ebp]
	sub	esp, 8
	movsd	QWORD PTR [esp], xmm0
	call	DWORD PTR __imp__ceil
	add	esp, 8
	fstp	QWORD PTR tv74[ebp]
	movsd	xmm0, QWORD PTR tv74[ebp]
	cvtsd2ss xmm0, xmm0
	movss	DWORD PTR tv76[ebp], xmm0
	fld	DWORD PTR tv76[ebp]
	pop	edi
	pop	esi
	pop	ebx
	mov	esp, ebp
	pop	ebp
	ret	0
_ceilf	ENDP
_TEXT	ENDS
; Function compile flags: /Odtp /ZI
; File c:\program files (x86)\microsoft visual studio 11.0\vc\include\math.h
;	COMDAT _atan2f
_TEXT	SEGMENT
tv85 = -92						; size = 4
tv83 = -88						; size = 8
tv77 = -80						; size = 8
tv75 = -72						; size = 8
__Y$ = 8						; size = 4
__X$ = 12						; size = 4
_atan2f	PROC						; COMDAT

; 406  :         {return ((float)atan2((double)_Y, (double)_X)); }

	push	ebp
	mov	ebp, esp
	sub	esp, 92					; 0000005cH
	push	ebx
	push	esi
	push	edi
	cvtss2sd xmm0, DWORD PTR __Y$[ebp]
	movsd	QWORD PTR tv75[ebp], xmm0
	fld	QWORD PTR tv75[ebp]
	cvtss2sd xmm0, DWORD PTR __X$[ebp]
	movsd	QWORD PTR tv77[ebp], xmm0
	fld	QWORD PTR tv77[ebp]
	call	__CIatan2
	fstp	QWORD PTR tv83[ebp]
	movsd	xmm0, QWORD PTR tv83[ebp]
	cvtsd2ss xmm0, xmm0
	movss	DWORD PTR tv85[ebp], xmm0
	fld	DWORD PTR tv85[ebp]
	pop	edi
	pop	esi
	pop	ebx
	mov	esp, ebp
	pop	ebp
	ret	0
_atan2f	ENDP
_TEXT	ENDS
; Function compile flags: /Odtp /ZI
; File c:\program files (x86)\microsoft visual studio 11.0\vc\include\math.h
;	COMDAT _atanf
_TEXT	SEGMENT
tv71 = -68						; size = 4
__X$ = 8						; size = 4
_atanf	PROC						; COMDAT

; 404  :         {return ((float)atan((double)_X)); }

	push	ebp
	mov	ebp, esp
	sub	esp, 68					; 00000044H
	push	ebx
	push	esi
	push	edi
	cvtss2sd xmm0, DWORD PTR __X$[ebp]
	call	__libm_sse2_atan_precise
	cvtsd2ss xmm0, xmm0
	movss	DWORD PTR tv71[ebp], xmm0
	fld	DWORD PTR tv71[ebp]
	pop	edi
	pop	esi
	pop	ebx
	mov	esp, ebp
	pop	ebp
	ret	0
_atanf	ENDP
_TEXT	ENDS
; Function compile flags: /Odtp /ZI
; File c:\program files (x86)\microsoft visual studio 11.0\vc\include\math.h
;	COMDAT _asinf
_TEXT	SEGMENT
tv71 = -68						; size = 4
__X$ = 8						; size = 4
_asinf	PROC						; COMDAT

; 402  :         {return ((float)asin((double)_X)); }

	push	ebp
	mov	ebp, esp
	sub	esp, 68					; 00000044H
	push	ebx
	push	esi
	push	edi
	cvtss2sd xmm0, DWORD PTR __X$[ebp]
	call	__libm_sse2_asin_precise
	cvtsd2ss xmm0, xmm0
	movss	DWORD PTR tv71[ebp], xmm0
	fld	DWORD PTR tv71[ebp]
	pop	edi
	pop	esi
	pop	ebx
	mov	esp, ebp
	pop	ebp
	ret	0
_asinf	ENDP
_TEXT	ENDS
; Function compile flags: /Odtp /ZI
; File c:\program files (x86)\microsoft visual studio 11.0\vc\include\math.h
;	COMDAT _acosf
_TEXT	SEGMENT
tv71 = -68						; size = 4
__X$ = 8						; size = 4
_acosf	PROC						; COMDAT

; 400  :         {return ((float)acos((double)_X)); }

	push	ebp
	mov	ebp, esp
	sub	esp, 68					; 00000044H
	push	ebx
	push	esi
	push	edi
	cvtss2sd xmm0, DWORD PTR __X$[ebp]
	call	__libm_sse2_acos_precise
	cvtsd2ss xmm0, xmm0
	movss	DWORD PTR tv71[ebp], xmm0
	fld	DWORD PTR tv71[ebp]
	pop	edi
	pop	esi
	pop	ebx
	mov	esp, ebp
	pop	ebp
	ret	0
_acosf	ENDP
_TEXT	ENDS
; Function compile flags: /Odtp /ZI
;	COMDAT ??_H@YGXPAXIHP6EPAX0@Z@Z
_TEXT	SEGMENT
___t$ = 8						; size = 4
___s$ = 12						; size = 4
___n$ = 16						; size = 4
___f$ = 20						; size = 4
??_H@YGXPAXIHP6EPAX0@Z@Z PROC				; `vector constructor iterator', COMDAT
	push	ebp
	mov	ebp, esp
	sub	esp, 64					; 00000040H
	push	ebx
	push	esi
	push	edi
$LN2@vector:
	mov	eax, DWORD PTR ___n$[ebp]
	sub	eax, 1
	mov	DWORD PTR ___n$[ebp], eax
	js	SHORT $LN3@vector
	mov	ecx, DWORD PTR ___t$[ebp]
	call	DWORD PTR ___f$[ebp]
	mov	eax, DWORD PTR ___t$[ebp]
	add	eax, DWORD PTR ___s$[ebp]
	mov	DWORD PTR ___t$[ebp], eax
	jmp	SHORT $LN2@vector
$LN3@vector:
	pop	edi
	pop	esi
	pop	ebx
	mov	esp, ebp
	pop	ebp
	ret	16					; 00000010H
??_H@YGXPAXIHP6EPAX0@Z@Z ENDP				; `vector constructor iterator'
_TEXT	ENDS
END
