; Listing generated by Microsoft (R) Optimizing Compiler Version 17.00.61219.0 

	TITLE	X:\GitHub\Renegade\Dragonade_RxD\scripts\MasterCan_Scripts.cpp
	.686P
	.XMM
	include listing.inc
	.model	flat

INCLUDELIB MSVCRTD
INCLUDELIB OLDNAMES

PUBLIC	?skipws@?$_Iosb@H@std@@2W4_Fmtflags@12@B	; std::_Iosb<int>::skipws
PUBLIC	?unitbuf@?$_Iosb@H@std@@2W4_Fmtflags@12@B	; std::_Iosb<int>::unitbuf
PUBLIC	?uppercase@?$_Iosb@H@std@@2W4_Fmtflags@12@B	; std::_Iosb<int>::uppercase
PUBLIC	?showbase@?$_Iosb@H@std@@2W4_Fmtflags@12@B	; std::_Iosb<int>::showbase
PUBLIC	?showpoint@?$_Iosb@H@std@@2W4_Fmtflags@12@B	; std::_Iosb<int>::showpoint
PUBLIC	?showpos@?$_Iosb@H@std@@2W4_Fmtflags@12@B	; std::_Iosb<int>::showpos
PUBLIC	?left@?$_Iosb@H@std@@2W4_Fmtflags@12@B		; std::_Iosb<int>::left
PUBLIC	?right@?$_Iosb@H@std@@2W4_Fmtflags@12@B		; std::_Iosb<int>::right
PUBLIC	?internal@?$_Iosb@H@std@@2W4_Fmtflags@12@B	; std::_Iosb<int>::internal
PUBLIC	?dec@?$_Iosb@H@std@@2W4_Fmtflags@12@B		; std::_Iosb<int>::dec
PUBLIC	?oct@?$_Iosb@H@std@@2W4_Fmtflags@12@B		; std::_Iosb<int>::oct
PUBLIC	?hex@?$_Iosb@H@std@@2W4_Fmtflags@12@B		; std::_Iosb<int>::hex
PUBLIC	?scientific@?$_Iosb@H@std@@2W4_Fmtflags@12@B	; std::_Iosb<int>::scientific
PUBLIC	?fixed@?$_Iosb@H@std@@2W4_Fmtflags@12@B		; std::_Iosb<int>::fixed
PUBLIC	?hexfloat@?$_Iosb@H@std@@2W4_Fmtflags@12@B	; std::_Iosb<int>::hexfloat
PUBLIC	?boolalpha@?$_Iosb@H@std@@2W4_Fmtflags@12@B	; std::_Iosb<int>::boolalpha
PUBLIC	?_Stdio@?$_Iosb@H@std@@2W4_Fmtflags@12@B	; std::_Iosb<int>::_Stdio
PUBLIC	?adjustfield@?$_Iosb@H@std@@2W4_Fmtflags@12@B	; std::_Iosb<int>::adjustfield
PUBLIC	?basefield@?$_Iosb@H@std@@2W4_Fmtflags@12@B	; std::_Iosb<int>::basefield
PUBLIC	?floatfield@?$_Iosb@H@std@@2W4_Fmtflags@12@B	; std::_Iosb<int>::floatfield
PUBLIC	?goodbit@?$_Iosb@H@std@@2W4_Iostate@12@B	; std::_Iosb<int>::goodbit
PUBLIC	?eofbit@?$_Iosb@H@std@@2W4_Iostate@12@B		; std::_Iosb<int>::eofbit
PUBLIC	?failbit@?$_Iosb@H@std@@2W4_Iostate@12@B	; std::_Iosb<int>::failbit
PUBLIC	?badbit@?$_Iosb@H@std@@2W4_Iostate@12@B		; std::_Iosb<int>::badbit
PUBLIC	?_Hardfail@?$_Iosb@H@std@@2W4_Iostate@12@B	; std::_Iosb<int>::_Hardfail
PUBLIC	?in@?$_Iosb@H@std@@2W4_Openmode@12@B		; std::_Iosb<int>::in
PUBLIC	?out@?$_Iosb@H@std@@2W4_Openmode@12@B		; std::_Iosb<int>::out
PUBLIC	?ate@?$_Iosb@H@std@@2W4_Openmode@12@B		; std::_Iosb<int>::ate
PUBLIC	?app@?$_Iosb@H@std@@2W4_Openmode@12@B		; std::_Iosb<int>::app
PUBLIC	?trunc@?$_Iosb@H@std@@2W4_Openmode@12@B		; std::_Iosb<int>::trunc
PUBLIC	?_Nocreate@?$_Iosb@H@std@@2W4_Openmode@12@B	; std::_Iosb<int>::_Nocreate
PUBLIC	?_Noreplace@?$_Iosb@H@std@@2W4_Openmode@12@B	; std::_Iosb<int>::_Noreplace
PUBLIC	?binary@?$_Iosb@H@std@@2W4_Openmode@12@B	; std::_Iosb<int>::binary
PUBLIC	?beg@?$_Iosb@H@std@@2W4_Seekdir@12@B		; std::_Iosb<int>::beg
PUBLIC	?cur@?$_Iosb@H@std@@2W4_Seekdir@12@B		; std::_Iosb<int>::cur
PUBLIC	?end@?$_Iosb@H@std@@2W4_Seekdir@12@B		; std::_Iosb<int>::end
PUBLIC	?_Stream_err@failure@ios_base@std@@0W4io_errc@43@B ; std::ios_base::failure::_Stream_err
PUBLIC	?collate@?$_Locbase@H@std@@2HB			; std::_Locbase<int>::collate
PUBLIC	?ctype@?$_Locbase@H@std@@2HB			; std::_Locbase<int>::ctype
PUBLIC	?monetary@?$_Locbase@H@std@@2HB			; std::_Locbase<int>::monetary
PUBLIC	?numeric@?$_Locbase@H@std@@2HB			; std::_Locbase<int>::numeric
PUBLIC	?time@?$_Locbase@H@std@@2HB			; std::_Locbase<int>::time
PUBLIC	?messages@?$_Locbase@H@std@@2HB			; std::_Locbase<int>::messages
PUBLIC	?all@?$_Locbase@H@std@@2HB			; std::_Locbase<int>::all
PUBLIC	?none@?$_Locbase@H@std@@2HB			; std::_Locbase<int>::none
;	COMDAT ?none@?$_Locbase@H@std@@2HB
CONST	SEGMENT
?none@?$_Locbase@H@std@@2HB DD 00H			; std::_Locbase<int>::none
CONST	ENDS
;	COMDAT ?all@?$_Locbase@H@std@@2HB
CONST	SEGMENT
?all@?$_Locbase@H@std@@2HB DD 03fH			; std::_Locbase<int>::all
CONST	ENDS
;	COMDAT ?messages@?$_Locbase@H@std@@2HB
CONST	SEGMENT
?messages@?$_Locbase@H@std@@2HB DD 020H			; std::_Locbase<int>::messages
CONST	ENDS
;	COMDAT ?time@?$_Locbase@H@std@@2HB
CONST	SEGMENT
?time@?$_Locbase@H@std@@2HB DD 010H			; std::_Locbase<int>::time
CONST	ENDS
;	COMDAT ?numeric@?$_Locbase@H@std@@2HB
CONST	SEGMENT
?numeric@?$_Locbase@H@std@@2HB DD 08H			; std::_Locbase<int>::numeric
CONST	ENDS
;	COMDAT ?monetary@?$_Locbase@H@std@@2HB
CONST	SEGMENT
?monetary@?$_Locbase@H@std@@2HB DD 04H			; std::_Locbase<int>::monetary
CONST	ENDS
;	COMDAT ?ctype@?$_Locbase@H@std@@2HB
CONST	SEGMENT
?ctype@?$_Locbase@H@std@@2HB DD 02H			; std::_Locbase<int>::ctype
CONST	ENDS
CONST	SEGMENT
_DONT_MOVE_ARRIVED_DIST DD 0447a0000r		; 1000
CONST	ENDS
;	COMDAT ?collate@?$_Locbase@H@std@@2HB
CONST	SEGMENT
?collate@?$_Locbase@H@std@@2HB DD 01H			; std::_Locbase<int>::collate
CONST	ENDS
;	COMDAT ?_Stream_err@failure@ios_base@std@@0W4io_errc@43@B
CONST	SEGMENT
?_Stream_err@failure@ios_base@std@@0W4io_errc@43@B DD 01H ; std::ios_base::failure::_Stream_err
CONST	ENDS
;	COMDAT ?end@?$_Iosb@H@std@@2W4_Seekdir@12@B
CONST	SEGMENT
?end@?$_Iosb@H@std@@2W4_Seekdir@12@B DD 02H		; std::_Iosb<int>::end
CONST	ENDS
;	COMDAT ?cur@?$_Iosb@H@std@@2W4_Seekdir@12@B
CONST	SEGMENT
?cur@?$_Iosb@H@std@@2W4_Seekdir@12@B DD 01H		; std::_Iosb<int>::cur
CONST	ENDS
;	COMDAT ?beg@?$_Iosb@H@std@@2W4_Seekdir@12@B
CONST	SEGMENT
?beg@?$_Iosb@H@std@@2W4_Seekdir@12@B DD 00H		; std::_Iosb<int>::beg
CONST	ENDS
;	COMDAT ?binary@?$_Iosb@H@std@@2W4_Openmode@12@B
CONST	SEGMENT
?binary@?$_Iosb@H@std@@2W4_Openmode@12@B DD 020H	; std::_Iosb<int>::binary
CONST	ENDS
;	COMDAT ?_Noreplace@?$_Iosb@H@std@@2W4_Openmode@12@B
CONST	SEGMENT
?_Noreplace@?$_Iosb@H@std@@2W4_Openmode@12@B DD 080H	; std::_Iosb<int>::_Noreplace
CONST	ENDS
;	COMDAT ?_Nocreate@?$_Iosb@H@std@@2W4_Openmode@12@B
CONST	SEGMENT
?_Nocreate@?$_Iosb@H@std@@2W4_Openmode@12@B DD 040H	; std::_Iosb<int>::_Nocreate
CONST	ENDS
;	COMDAT ?trunc@?$_Iosb@H@std@@2W4_Openmode@12@B
CONST	SEGMENT
?trunc@?$_Iosb@H@std@@2W4_Openmode@12@B DD 010H		; std::_Iosb<int>::trunc
CONST	ENDS
;	COMDAT ?app@?$_Iosb@H@std@@2W4_Openmode@12@B
CONST	SEGMENT
?app@?$_Iosb@H@std@@2W4_Openmode@12@B DD 08H		; std::_Iosb<int>::app
CONST	ENDS
;	COMDAT ?ate@?$_Iosb@H@std@@2W4_Openmode@12@B
CONST	SEGMENT
?ate@?$_Iosb@H@std@@2W4_Openmode@12@B DD 04H		; std::_Iosb<int>::ate
CONST	ENDS
;	COMDAT ?out@?$_Iosb@H@std@@2W4_Openmode@12@B
CONST	SEGMENT
?out@?$_Iosb@H@std@@2W4_Openmode@12@B DD 02H		; std::_Iosb<int>::out
CONST	ENDS
;	COMDAT ?in@?$_Iosb@H@std@@2W4_Openmode@12@B
CONST	SEGMENT
?in@?$_Iosb@H@std@@2W4_Openmode@12@B DD 01H		; std::_Iosb<int>::in
CONST	ENDS
;	COMDAT ?_Hardfail@?$_Iosb@H@std@@2W4_Iostate@12@B
CONST	SEGMENT
?_Hardfail@?$_Iosb@H@std@@2W4_Iostate@12@B DD 010H	; std::_Iosb<int>::_Hardfail
CONST	ENDS
;	COMDAT ?badbit@?$_Iosb@H@std@@2W4_Iostate@12@B
CONST	SEGMENT
?badbit@?$_Iosb@H@std@@2W4_Iostate@12@B DD 04H		; std::_Iosb<int>::badbit
CONST	ENDS
;	COMDAT ?failbit@?$_Iosb@H@std@@2W4_Iostate@12@B
CONST	SEGMENT
?failbit@?$_Iosb@H@std@@2W4_Iostate@12@B DD 02H		; std::_Iosb<int>::failbit
CONST	ENDS
;	COMDAT ?eofbit@?$_Iosb@H@std@@2W4_Iostate@12@B
CONST	SEGMENT
?eofbit@?$_Iosb@H@std@@2W4_Iostate@12@B DD 01H		; std::_Iosb<int>::eofbit
CONST	ENDS
;	COMDAT ?goodbit@?$_Iosb@H@std@@2W4_Iostate@12@B
CONST	SEGMENT
?goodbit@?$_Iosb@H@std@@2W4_Iostate@12@B DD 00H		; std::_Iosb<int>::goodbit
CONST	ENDS
;	COMDAT ?floatfield@?$_Iosb@H@std@@2W4_Fmtflags@12@B
CONST	SEGMENT
?floatfield@?$_Iosb@H@std@@2W4_Fmtflags@12@B DD 03000H	; std::_Iosb<int>::floatfield
CONST	ENDS
;	COMDAT ?basefield@?$_Iosb@H@std@@2W4_Fmtflags@12@B
CONST	SEGMENT
?basefield@?$_Iosb@H@std@@2W4_Fmtflags@12@B DD 0e00H	; std::_Iosb<int>::basefield
CONST	ENDS
;	COMDAT ?adjustfield@?$_Iosb@H@std@@2W4_Fmtflags@12@B
CONST	SEGMENT
?adjustfield@?$_Iosb@H@std@@2W4_Fmtflags@12@B DD 01c0H	; std::_Iosb<int>::adjustfield
CONST	ENDS
;	COMDAT ?_Stdio@?$_Iosb@H@std@@2W4_Fmtflags@12@B
CONST	SEGMENT
?_Stdio@?$_Iosb@H@std@@2W4_Fmtflags@12@B DD 08000H	; std::_Iosb<int>::_Stdio
CONST	ENDS
;	COMDAT ?boolalpha@?$_Iosb@H@std@@2W4_Fmtflags@12@B
CONST	SEGMENT
?boolalpha@?$_Iosb@H@std@@2W4_Fmtflags@12@B DD 04000H	; std::_Iosb<int>::boolalpha
CONST	ENDS
;	COMDAT ?hexfloat@?$_Iosb@H@std@@2W4_Fmtflags@12@B
CONST	SEGMENT
?hexfloat@?$_Iosb@H@std@@2W4_Fmtflags@12@B DD 03000H	; std::_Iosb<int>::hexfloat
CONST	ENDS
;	COMDAT ?fixed@?$_Iosb@H@std@@2W4_Fmtflags@12@B
CONST	SEGMENT
?fixed@?$_Iosb@H@std@@2W4_Fmtflags@12@B DD 02000H	; std::_Iosb<int>::fixed
CONST	ENDS
;	COMDAT ?scientific@?$_Iosb@H@std@@2W4_Fmtflags@12@B
CONST	SEGMENT
?scientific@?$_Iosb@H@std@@2W4_Fmtflags@12@B DD 01000H	; std::_Iosb<int>::scientific
CONST	ENDS
;	COMDAT ?hex@?$_Iosb@H@std@@2W4_Fmtflags@12@B
CONST	SEGMENT
?hex@?$_Iosb@H@std@@2W4_Fmtflags@12@B DD 0800H		; std::_Iosb<int>::hex
CONST	ENDS
;	COMDAT ?oct@?$_Iosb@H@std@@2W4_Fmtflags@12@B
CONST	SEGMENT
?oct@?$_Iosb@H@std@@2W4_Fmtflags@12@B DD 0400H		; std::_Iosb<int>::oct
CONST	ENDS
;	COMDAT ?dec@?$_Iosb@H@std@@2W4_Fmtflags@12@B
CONST	SEGMENT
?dec@?$_Iosb@H@std@@2W4_Fmtflags@12@B DD 0200H		; std::_Iosb<int>::dec
CONST	ENDS
;	COMDAT ?internal@?$_Iosb@H@std@@2W4_Fmtflags@12@B
CONST	SEGMENT
?internal@?$_Iosb@H@std@@2W4_Fmtflags@12@B DD 0100H	; std::_Iosb<int>::internal
CONST	ENDS
;	COMDAT ?right@?$_Iosb@H@std@@2W4_Fmtflags@12@B
CONST	SEGMENT
?right@?$_Iosb@H@std@@2W4_Fmtflags@12@B DD 080H		; std::_Iosb<int>::right
CONST	ENDS
;	COMDAT ?left@?$_Iosb@H@std@@2W4_Fmtflags@12@B
CONST	SEGMENT
?left@?$_Iosb@H@std@@2W4_Fmtflags@12@B DD 040H		; std::_Iosb<int>::left
CONST	ENDS
;	COMDAT ?showpos@?$_Iosb@H@std@@2W4_Fmtflags@12@B
CONST	SEGMENT
?showpos@?$_Iosb@H@std@@2W4_Fmtflags@12@B DD 020H	; std::_Iosb<int>::showpos
CONST	ENDS
;	COMDAT ?showpoint@?$_Iosb@H@std@@2W4_Fmtflags@12@B
CONST	SEGMENT
?showpoint@?$_Iosb@H@std@@2W4_Fmtflags@12@B DD 010H	; std::_Iosb<int>::showpoint
CONST	ENDS
;	COMDAT ?showbase@?$_Iosb@H@std@@2W4_Fmtflags@12@B
CONST	SEGMENT
?showbase@?$_Iosb@H@std@@2W4_Fmtflags@12@B DD 08H	; std::_Iosb<int>::showbase
CONST	ENDS
;	COMDAT ?uppercase@?$_Iosb@H@std@@2W4_Fmtflags@12@B
CONST	SEGMENT
?uppercase@?$_Iosb@H@std@@2W4_Fmtflags@12@B DD 04H	; std::_Iosb<int>::uppercase
CONST	ENDS
;	COMDAT ?unitbuf@?$_Iosb@H@std@@2W4_Fmtflags@12@B
CONST	SEGMENT
?unitbuf@?$_Iosb@H@std@@2W4_Fmtflags@12@B DD 02H	; std::_Iosb<int>::unitbuf
CONST	ENDS
;	COMDAT ?skipws@?$_Iosb@H@std@@2W4_Fmtflags@12@B
CONST	SEGMENT
?skipws@?$_Iosb@H@std@@2W4_Fmtflags@12@B DD 01H		; std::_Iosb<int>::skipws
CONST	ENDS
PUBLIC	??_H@YGXPAXIHP6EPAX0@Z@Z			; `vector constructor iterator'
PUBLIC	??_I@YGXPAXIHP6EX0@Z@Z				; `vector destructor iterator'
PUBLIC	_acosf
PUBLIC	_asinf
PUBLIC	_atanf
PUBLIC	_atan2f
PUBLIC	_ceilf
PUBLIC	_cosf
PUBLIC	_floorf
PUBLIC	_sinf
PUBLIC	_sqrtf
PUBLIC	?acos@@YAMM@Z					; acos
PUBLIC	?asin@@YAMM@Z					; asin
PUBLIC	?atan@@YAMM@Z					; atan
PUBLIC	?atan2@@YAMMM@Z					; atan2
PUBLIC	?cos@@YAMM@Z					; cos
PUBLIC	?sin@@YAMM@Z					; sin
PUBLIC	?sqrt@@YAMM@Z					; sqrt
PUBLIC	??2@YAPAXIPAX@Z					; operator new
PUBLIC	??_U@YAPAXIPAX@Z				; operator new[]
PUBLIC	?compare@?$char_traits@D@std@@SAHPBD0I@Z	; std::char_traits<char>::compare
PUBLIC	?length@?$char_traits@D@std@@SAIPBD@Z		; std::char_traits<char>::length
PUBLIC	?copy@?$char_traits@D@std@@SAPADPADPBDI@Z	; std::char_traits<char>::copy
PUBLIC	?find@?$char_traits@D@std@@SAPBDPBDIABD@Z	; std::char_traits<char>::find
PUBLIC	?move@?$char_traits@D@std@@SAPADPADPBDI@Z	; std::char_traits<char>::move
PUBLIC	?assign@?$char_traits@D@std@@SAPADPADID@Z	; std::char_traits<char>::assign
PUBLIC	?assign@?$char_traits@D@std@@SAXAADABD@Z	; std::char_traits<char>::assign
PUBLIC	?eq@?$char_traits@D@std@@SA_NABD0@Z		; std::char_traits<char>::eq
PUBLIC	?to_char_type@?$char_traits@D@std@@SADABH@Z	; std::char_traits<char>::to_char_type
PUBLIC	?to_int_type@?$char_traits@D@std@@SAHABD@Z	; std::char_traits<char>::to_int_type
PUBLIC	?eq_int_type@?$char_traits@D@std@@SA_NABH0@Z	; std::char_traits<char>::eq_int_type
PUBLIC	?not_eof@?$char_traits@D@std@@SAHABH@Z		; std::char_traits<char>::not_eof
PUBLIC	?eof@?$char_traits@D@std@@SAHXZ			; std::char_traits<char>::eof
PUBLIC	??0_Container_proxy@std@@QAE@XZ			; std::_Container_proxy::_Container_proxy
PUBLIC	??0_Iterator_base12@std@@QAE@XZ			; std::_Iterator_base12::_Iterator_base12
PUBLIC	??0_Iterator_base12@std@@QAE@ABU01@@Z		; std::_Iterator_base12::_Iterator_base12
PUBLIC	??4_Iterator_base12@std@@QAEAAU01@ABU01@@Z	; std::_Iterator_base12::operator=
PUBLIC	??1_Iterator_base12@std@@QAE@XZ			; std::_Iterator_base12::~_Iterator_base12
PUBLIC	?_Adopt@_Iterator_base12@std@@QAEXPBU_Container_base12@2@@Z ; std::_Iterator_base12::_Adopt
PUBLIC	?_Clrcont@_Iterator_base12@std@@QAEXXZ		; std::_Iterator_base12::_Clrcont
PUBLIC	?_Getcont@_Iterator_base12@std@@QBEPBU_Container_base12@2@XZ ; std::_Iterator_base12::_Getcont
PUBLIC	?_Getpnext@_Iterator_base12@std@@QAEPAPAU12@XZ	; std::_Iterator_base12::_Getpnext
PUBLIC	?_Orphan_me@_Iterator_base12@std@@QAEXXZ	; std::_Iterator_base12::_Orphan_me
PUBLIC	?Is_Running@ThreadClass@@QAE_NXZ		; ThreadClass::Is_Running
PUBLIC	?Get_Current_Thread_ID@ThreadClass@@SAHXZ	; ThreadClass::Get_Current_Thread_ID
PUBLIC	?Get_Name@ThreadClass@@QAEPBDXZ			; ThreadClass::Get_Name
PUBLIC	??0ThreadClass@@QAE@ABV0@@Z			; ThreadClass::ThreadClass
PUBLIC	??4ThreadClass@@QAEAAV0@ABV0@@Z			; ThreadClass::operator=
PUBLIC	??_GThreadClass@@UAEPAXI@Z			; ThreadClass::`scalar deleting destructor'
PUBLIC	??_EThreadClass@@UAEPAXI@Z			; ThreadClass::`vector deleting destructor'
PUBLIC	??4CriticalSectionClass@@QAEAAV0@ABV0@@Z	; CriticalSectionClass::operator=
PUBLIC	?Enter@FastCriticalSectionClass@@AAEXXZ		; FastCriticalSectionClass::Enter
PUBLIC	?Leave@FastCriticalSectionClass@@AAEXXZ		; FastCriticalSectionClass::Leave
PUBLIC	??0LockClass@FastCriticalSectionClass@@QAE@AAV1@@Z ; FastCriticalSectionClass::LockClass::LockClass
PUBLIC	??1LockClass@FastCriticalSectionClass@@QAE@XZ	; FastCriticalSectionClass::LockClass::~LockClass
PUBLIC	??0FastCriticalSectionClass@@QAE@XZ		; FastCriticalSectionClass::FastCriticalSectionClass
PUBLIC	?Release_Ref@RefCountClass@@QAEXXZ		; RefCountClass::Release_Ref
PUBLIC	??0StringClass@@QAE@H_N@Z			; StringClass::StringClass
PUBLIC	??0StringClass@@QAE@ABV0@_N@Z			; StringClass::StringClass
PUBLIC	??0StringClass@@QAE@PBD_N@Z			; StringClass::StringClass
PUBLIC	??1StringClass@@QAE@XZ				; StringClass::~StringClass
PUBLIC	??4StringClass@@QAEABV0@PBD@Z			; StringClass::operator=
PUBLIC	??4StringClass@@QAEABV0@ABV0@@Z			; StringClass::operator=
PUBLIC	??BStringClass@@QBEPBDXZ			; StringClass::operator char const *
PUBLIC	?Get_Length@StringClass@@QBEHXZ			; StringClass::Get_Length
PUBLIC	?getFormattedString@StringClass@@SA?AV1@PBDZZ	; StringClass::getFormattedString
PUBLIC	?Store_Length@StringClass@@AAEXH@Z		; StringClass::Store_Length
PUBLIC	?Get_Header@StringClass@@ABEPAU_HEADER@1@XZ	; StringClass::Get_Header
PUBLIC	??_EStringClass@@QAEPAXI@Z			; StringClass::`vector deleting destructor'
PUBLIC	??0WideStringClass@@QAE@H_N@Z			; WideStringClass::WideStringClass
PUBLIC	??1WideStringClass@@QAE@XZ			; WideStringClass::~WideStringClass
PUBLIC	??_EWideStringClass@@QAEPAXI@Z			; WideStringClass::`vector deleting destructor'
PUBLIC	??4ChunkLoadClass@@QAEAAV0@ABV0@@Z		; ChunkLoadClass::operator=
PUBLIC	?Set_Contains_Chunks@ChunkSaveClass@@QAEXXZ	; ChunkSaveClass::Set_Contains_Chunks
PUBLIC	??4ChunkSaveClass@@QAEAAV0@ABV0@@Z		; ChunkSaveClass::operator=
PUBLIC	?Is_Present@INIClass@@QBE_NPBD0@Z		; INIClass::Is_Present
PUBLIC	?Section_Present@INIClass@@QBE_NPBD@Z		; INIClass::Section_Present
PUBLIC	?Get_Section_List@INIClass@@QAEAAV?$List@PAUINISection@@@@XZ ; INIClass::Get_Section_List
PUBLIC	?Get_Section_Index@INIClass@@QAEAAV?$IndexClass@HPAUINISection@@@@XZ ; INIClass::Get_Section_Index
PUBLIC	?Get_File_Name@INIClass@@QAEPBDXZ		; INIClass::Get_File_Name
PUBLIC	??0INIClass@@QAE@ABV0@@Z			; INIClass::INIClass
PUBLIC	??4INIClass@@QAEAAV0@ABV0@@Z			; INIClass::operator=
PUBLIC	??_GINIClass@@UAEPAXI@Z				; INIClass::`scalar deleting destructor'
PUBLIC	??_EINIClass@@UAEPAXI@Z				; INIClass::`vector deleting destructor'
PUBLIC	??Cfile_auto_ptr@@QAEPAVFileClass@@XZ		; file_auto_ptr::operator->
PUBLIC	??Bfile_auto_ptr@@QAEPAVFileClass@@XZ		; file_auto_ptr::operator FileClass *
PUBLIC	??Dfile_auto_ptr@@QAEAAVFileClass@@XZ		; file_auto_ptr::operator*
PUBLIC	?get@file_auto_ptr@@QAEPAVFileClass@@XZ		; file_auto_ptr::get
PUBLIC	??4file_auto_ptr@@QAEAAV0@ABV0@@Z		; file_auto_ptr::operator=
PUBLIC	?Fabs@WWMath@@SAMM@Z				; WWMath::Fabs
PUBLIC	?Float_To_Int_Chop@WWMath@@SAHABM@Z		; WWMath::Float_To_Int_Chop
PUBLIC	?Float_To_Int_Floor@WWMath@@SAHABM@Z		; WWMath::Float_To_Int_Floor
PUBLIC	?Cos@WWMath@@SAMM@Z				; WWMath::Cos
PUBLIC	?Sin@WWMath@@SAMM@Z				; WWMath::Sin
PUBLIC	?Sqrt@WWMath@@SAMM@Z				; WWMath::Sqrt
PUBLIC	?Inv_Sqrt@WWMath@@SIMM@Z			; WWMath::Inv_Sqrt
PUBLIC	?Float_To_Long@WWMath@@SAJM@Z			; WWMath::Float_To_Long
PUBLIC	?Fast_Sin@WWMath@@SAMM@Z			; WWMath::Fast_Sin
PUBLIC	?Fast_Inv_Sin@WWMath@@SAMM@Z			; WWMath::Fast_Inv_Sin
PUBLIC	?Fast_Cos@WWMath@@SAMM@Z			; WWMath::Fast_Cos
PUBLIC	?Fast_Inv_Cos@WWMath@@SAMM@Z			; WWMath::Fast_Inv_Cos
PUBLIC	?Fast_Acos@WWMath@@SAMM@Z			; WWMath::Fast_Acos
PUBLIC	?Fast_Asin@WWMath@@SAMM@Z			; WWMath::Fast_Asin
PUBLIC	?Acos@WWMath@@SAMM@Z				; WWMath::Acos
PUBLIC	?Asin@WWMath@@SAMM@Z				; WWMath::Asin
PUBLIC	?Atan@WWMath@@SAMM@Z				; WWMath::Atan
PUBLIC	?Atan2@WWMath@@SAMMM@Z				; WWMath::Atan2
PUBLIC	?Sign@WWMath@@SAMM@Z				; WWMath::Sign
PUBLIC	?Ceil@WWMath@@SAMM@Z				; WWMath::Ceil
PUBLIC	?Floor@WWMath@@SAMM@Z				; WWMath::Floor
PUBLIC	?Fast_Is_Float_Positive@WWMath@@SA_NABM@Z	; WWMath::Fast_Is_Float_Positive
PUBLIC	?Random_Float@WWMath@@SAMMM@Z			; WWMath::Random_Float
PUBLIC	?Clamp@WWMath@@SAMMMM@Z				; WWMath::Clamp
PUBLIC	?Clamp@WWMath@@SANNNN@Z				; WWMath::Clamp
PUBLIC	?Clamp_Int@WWMath@@SAHHHH@Z			; WWMath::Clamp_Int
PUBLIC	?Wrap@WWMath@@SAMMMM@Z				; WWMath::Wrap
PUBLIC	?Wrap@WWMath@@SANNNN@Z				; WWMath::Wrap
PUBLIC	?Min@WWMath@@SAMMM@Z				; WWMath::Min
PUBLIC	?Max@WWMath@@SAMMM@Z				; WWMath::Max
PUBLIC	?Lerp@WWMath@@SAMMMM@Z				; WWMath::Lerp
PUBLIC	?Lerp@WWMath@@SANNNM@Z				; WWMath::Lerp
PUBLIC	?Lerp@WWMath@@SAHHHM@Z				; WWMath::Lerp
PUBLIC	?Float_To_Long@WWMath@@SAJN@Z			; WWMath::Float_To_Long
PUBLIC	?Unit_Float_To_Byte@WWMath@@SAEM@Z		; WWMath::Unit_Float_To_Byte
PUBLIC	?Byte_To_Unit_Float@WWMath@@SAME@Z		; WWMath::Byte_To_Unit_Float
PUBLIC	?Is_Valid_Float@WWMath@@SA_NM@Z			; WWMath::Is_Valid_Float
PUBLIC	?Is_Valid_Double@WWMath@@SA_NN@Z		; WWMath::Is_Valid_Double
PUBLIC	??4WWMath@@QAEAAV0@ABV0@@Z			; WWMath::operator=
PUBLIC	??B?$RefArrayHelper@M$0EAA@@@QAEPAMXZ		; RefArrayHelper<float,1024>::operator float *
PUBLIC	??0Vector3@@QAE@XZ				; Vector3::Vector3
PUBLIC	??0Vector3@@QAE@ABV0@@Z				; Vector3::Vector3
PUBLIC	??0Vector3@@QAE@MMM@Z				; Vector3::Vector3
PUBLIC	??4Vector3@@QAEAAV0@ABV0@@Z			; Vector3::operator=
PUBLIC	?Set@Vector3@@QAEXMMM@Z				; Vector3::Set
PUBLIC	??AVector3@@QAEAAMH@Z				; Vector3::operator[]
PUBLIC	??AVector3@@QBEABMH@Z				; Vector3::operator[]
PUBLIC	?Normalize@Vector3@@QAEXXZ			; Vector3::Normalize
PUBLIC	?Length@Vector3@@QBEMXZ				; Vector3::Length
PUBLIC	?Length2@Vector3@@QBEMXZ			; Vector3::Length2
PUBLIC	??YVector3@@QAEAAV0@ABV0@@Z			; Vector3::operator+=
PUBLIC	??ZVector3@@QAEAAV0@ABV0@@Z			; Vector3::operator-=
PUBLIC	??XVector3@@QAEAAV0@M@Z				; Vector3::operator*=
PUBLIC	??_0Vector3@@QAEAAV0@M@Z			; Vector3::operator/=
PUBLIC	??D@YA?AVVector3@@ABV0@M@Z			; operator*
PUBLIC	??D@YA?AVVector3@@MABV0@@Z			; operator*
PUBLIC	??H@YA?AVVector3@@ABV0@0@Z			; operator+
PUBLIC	??G@YA?AVVector3@@ABV0@0@Z			; operator-
PUBLIC	?Add@Vector3@@SAXABV1@0PAV1@@Z			; Vector3::Add
PUBLIC	?Subtract@Vector3@@SAXABV1@0PAV1@@Z		; Vector3::Subtract
PUBLIC	?Swap@@YAXAAVVector3@@0@Z			; Swap
PUBLIC	??0GameObjObserverClass@@QAE@XZ			; GameObjObserverClass::GameObjObserverClass
PUBLIC	??1GameObjObserverClass@@UAE@XZ			; GameObjObserverClass::~GameObjObserverClass
PUBLIC	?Set_ID@GameObjObserverClass@@QAEXH@Z		; GameObjObserverClass::Set_ID
PUBLIC	?Get_ID@GameObjObserverClass@@QAEHXZ		; GameObjObserverClass::Get_ID
PUBLIC	?Owner@GameObjObserverClass@@UAEPAVScriptableGameObj@@XZ ; GameObjObserverClass::Owner
PUBLIC	??0GameObjObserverClass@@QAE@ABV0@@Z		; GameObjObserverClass::GameObjObserverClass
PUBLIC	??4GameObjObserverClass@@QAEAAV0@ABV0@@Z	; GameObjObserverClass::operator=
PUBLIC	??_GGameObjObserverClass@@UAEPAXI@Z		; GameObjObserverClass::`scalar deleting destructor'
PUBLIC	??_EGameObjObserverClass@@UAEPAXI@Z		; GameObjObserverClass::`vector deleting destructor'
PUBLIC	??1ScriptClass@@UAE@XZ				; ScriptClass::~ScriptClass
PUBLIC	??0ScriptClass@@QAE@XZ				; ScriptClass::ScriptClass
PUBLIC	??0ScriptClass@@QAE@ABV0@@Z			; ScriptClass::ScriptClass
PUBLIC	??4ScriptClass@@QAEAAV0@ABV0@@Z			; ScriptClass::operator=
PUBLIC	??_GScriptClass@@UAEPAXI@Z			; ScriptClass::`scalar deleting destructor'
PUBLIC	??_EScriptClass@@UAEPAXI@Z			; ScriptClass::`vector deleting destructor'
PUBLIC	?SetFactory@ScriptImpClass@@QAEXPAVScriptFactory@@@Z ; ScriptImpClass::SetFactory
PUBLIC	?Created@ScriptImpClass@@UAEXPAVScriptableGameObj@@@Z ; ScriptImpClass::Created
PUBLIC	?Destroyed@ScriptImpClass@@UAEXPAVScriptableGameObj@@@Z ; ScriptImpClass::Destroyed
PUBLIC	?Killed@ScriptImpClass@@UAEXPAVScriptableGameObj@@0@Z ; ScriptImpClass::Killed
PUBLIC	?Damaged@ScriptImpClass@@UAEXPAVScriptableGameObj@@0M@Z ; ScriptImpClass::Damaged
PUBLIC	?Custom@ScriptImpClass@@UAEXPAVScriptableGameObj@@HH0@Z ; ScriptImpClass::Custom
PUBLIC	?Sound_Heard@ScriptImpClass@@UAEXPAVScriptableGameObj@@ABUCombatSound@@@Z ; ScriptImpClass::Sound_Heard
PUBLIC	?Enemy_Seen@ScriptImpClass@@UAEXPAVScriptableGameObj@@0@Z ; ScriptImpClass::Enemy_Seen
PUBLIC	?Action_Complete@ScriptImpClass@@UAEXPAVScriptableGameObj@@HW4ActionCompleteReason@@@Z ; ScriptImpClass::Action_Complete
PUBLIC	?Timer_Expired@ScriptImpClass@@UAEXPAVScriptableGameObj@@H@Z ; ScriptImpClass::Timer_Expired
PUBLIC	?Animation_Complete@ScriptImpClass@@UAEXPAVScriptableGameObj@@PBD@Z ; ScriptImpClass::Animation_Complete
PUBLIC	?Poked@ScriptImpClass@@UAEXPAVScriptableGameObj@@0@Z ; ScriptImpClass::Poked
PUBLIC	?Entered@ScriptImpClass@@UAEXPAVScriptableGameObj@@0@Z ; ScriptImpClass::Entered
PUBLIC	?Exited@ScriptImpClass@@UAEXPAVScriptableGameObj@@0@Z ; ScriptImpClass::Exited
PUBLIC	?Owner@ScriptImpClass@@UAEPAVScriptableGameObj@@XZ ; ScriptImpClass::Owner
PUBLIC	?Get_Owner_Ptr@ScriptImpClass@@UAEPAPAVScriptableGameObj@@XZ ; ScriptImpClass::Get_Owner_Ptr
PUBLIC	?Save_Data@ScriptImpClass@@UAEXAAVScriptSaver@@@Z ; ScriptImpClass::Save_Data
PUBLIC	?Load_Data@ScriptImpClass@@UAEXAAVScriptLoader@@@Z ; ScriptImpClass::Load_Data
PUBLIC	?Register_Auto_Save_Variables@ScriptImpClass@@UAEXXZ ; ScriptImpClass::Register_Auto_Save_Variables
PUBLIC	?Get_Parameter_Count@ScriptImpClass@@QAEHXZ	; ScriptImpClass::Get_Parameter_Count
PUBLIC	?Get_Int_Parameter@ScriptImpClass@@QAEHH@Z	; ScriptImpClass::Get_Int_Parameter
PUBLIC	?Get_Float_Parameter@ScriptImpClass@@QAEMH@Z	; ScriptImpClass::Get_Float_Parameter
PUBLIC	?Get_Bool_Parameter@ScriptImpClass@@QAE_NPBD@Z	; ScriptImpClass::Get_Bool_Parameter
PUBLIC	?Get_Bool_Parameter@ScriptImpClass@@QAE_NH@Z	; ScriptImpClass::Get_Bool_Parameter
PUBLIC	??0ScriptImpClass@@QAE@ABV0@@Z			; ScriptImpClass::ScriptImpClass
PUBLIC	??4ScriptImpClass@@QAEAAV0@ABV0@@Z		; ScriptImpClass::operator=
PUBLIC	??_GScriptImpClass@@UAEPAXI@Z			; ScriptImpClass::`scalar deleting destructor'
PUBLIC	??_EScriptImpClass@@UAEPAXI@Z			; ScriptImpClass::`vector deleting destructor'
PUBLIC	??0ScriptFactory@@QAE@ABV0@@Z			; ScriptFactory::ScriptFactory
PUBLIC	??4ScriptFactory@@QAEAAV0@ABV0@@Z		; ScriptFactory::operator=
PUBLIC	??_GScriptFactory@@UAEPAXI@Z			; ScriptFactory::`scalar deleting destructor'
PUBLIC	??_EScriptFactory@@UAEPAXI@Z			; ScriptFactory::`vector deleting destructor'
PUBLIC	??4ScriptRegistrar@@QAEAAV0@ABV0@@Z		; ScriptRegistrar::operator=
PUBLIC	??0Vector4@@QAE@XZ				; Vector4::Vector4
PUBLIC	??0Vector4@@QAE@MMMM@Z				; Vector4::Vector4
PUBLIC	??4Vector4@@QAEAAV0@ABV0@@Z			; Vector4::operator=
PUBLIC	?Set@Vector4@@QAEXMMMM@Z			; Vector4::Set
PUBLIC	??AVector4@@QAEAAMH@Z				; Vector4::operator[]
PUBLIC	??AVector4@@QBEABMH@Z				; Vector4::operator[]
PUBLIC	??YVector4@@QAEAAV0@ABV0@@Z			; Vector4::operator+=
PUBLIC	??ZVector4@@QAEAAV0@ABV0@@Z			; Vector4::operator-=
PUBLIC	??XVector4@@QAEAAV0@M@Z				; Vector4::operator*=
PUBLIC	??AMatrix3D@@QAEAAVVector4@@H@Z			; Matrix3D::operator[]
PUBLIC	??AMatrix3D@@QBEABVVector4@@H@Z			; Matrix3D::operator[]
PUBLIC	??0Matrix3D@@QAE@_N@Z				; Matrix3D::Matrix3D
PUBLIC	??0Matrix3D@@QAE@QAM@Z				; Matrix3D::Matrix3D
PUBLIC	??0Matrix3D@@QAE@ABVVector3@@000@Z		; Matrix3D::Matrix3D
PUBLIC	??0Matrix3D@@QAE@ABVVector3@@M@Z		; Matrix3D::Matrix3D
PUBLIC	??0Matrix3D@@QAE@ABVVector3@@MM@Z		; Matrix3D::Matrix3D
PUBLIC	??0Matrix3D@@QAE@ABVMatrix3@@ABVVector3@@@Z	; Matrix3D::Matrix3D
PUBLIC	??0Matrix3D@@QAE@ABVQuaternion@@ABVVector3@@@Z	; Matrix3D::Matrix3D
PUBLIC	??0Matrix3D@@QAE@ABVVector3@@@Z			; Matrix3D::Matrix3D
PUBLIC	??0Matrix3D@@QAE@ABV0@@Z			; Matrix3D::Matrix3D
PUBLIC	??4Matrix3D@@QAEAAV0@ABV0@@Z			; Matrix3D::operator=
PUBLIC	?Set@Matrix3D@@QAEXQAM@Z			; Matrix3D::Set
PUBLIC	?Set@Matrix3D@@QAEXMMMMMMMMMMMM@Z		; Matrix3D::Set
PUBLIC	?Set@Matrix3D@@QAEXABVVector3@@000@Z		; Matrix3D::Set
PUBLIC	?Set@Matrix3D@@QAEXABVVector3@@M@Z		; Matrix3D::Set
PUBLIC	?Set@Matrix3D@@QAEXABVVector3@@MM@Z		; Matrix3D::Set
PUBLIC	?Set@Matrix3D@@QAEXABVVector3@@@Z		; Matrix3D::Set
PUBLIC	?Get_Translation@Matrix3D@@QBE?AVVector3@@XZ	; Matrix3D::Get_Translation
PUBLIC	?Get_Translation@Matrix3D@@QBEXPAVVector3@@@Z	; Matrix3D::Get_Translation
PUBLIC	?Set_Translation@Matrix3D@@QAEXABVVector3@@@Z	; Matrix3D::Set_Translation
PUBLIC	?Get_X_Translation@Matrix3D@@QBEMXZ		; Matrix3D::Get_X_Translation
PUBLIC	?Get_Y_Translation@Matrix3D@@QBEMXZ		; Matrix3D::Get_Y_Translation
PUBLIC	?Get_Z_Translation@Matrix3D@@QBEMXZ		; Matrix3D::Get_Z_Translation
PUBLIC	?Set_X_Translation@Matrix3D@@QAEXM@Z		; Matrix3D::Set_X_Translation
PUBLIC	?Set_Y_Translation@Matrix3D@@QAEXM@Z		; Matrix3D::Set_Y_Translation
PUBLIC	?Set_Z_Translation@Matrix3D@@QAEXM@Z		; Matrix3D::Set_Z_Translation
PUBLIC	?Adjust_Translation@Matrix3D@@QAEXABVVector3@@@Z ; Matrix3D::Adjust_Translation
PUBLIC	?Adjust_X_Translation@Matrix3D@@QAEXM@Z		; Matrix3D::Adjust_X_Translation
PUBLIC	?Adjust_Y_Translation@Matrix3D@@QAEXM@Z		; Matrix3D::Adjust_Y_Translation
PUBLIC	?Adjust_Z_Translation@Matrix3D@@QAEXM@Z		; Matrix3D::Adjust_Z_Translation
PUBLIC	?Make_Identity@Matrix3D@@QAEXXZ			; Matrix3D::Make_Identity
PUBLIC	?Translate@Matrix3D@@QAEXMMM@Z			; Matrix3D::Translate
PUBLIC	?Translate@Matrix3D@@QAEXABVVector3@@@Z		; Matrix3D::Translate
PUBLIC	?Translate_X@Matrix3D@@QAEXM@Z			; Matrix3D::Translate_X
PUBLIC	?Translate_Y@Matrix3D@@QAEXM@Z			; Matrix3D::Translate_Y
PUBLIC	?Translate_Z@Matrix3D@@QAEXM@Z			; Matrix3D::Translate_Z
PUBLIC	?Rotate_X@Matrix3D@@QAEXM@Z			; Matrix3D::Rotate_X
PUBLIC	?Rotate_Y@Matrix3D@@QAEXM@Z			; Matrix3D::Rotate_Y
PUBLIC	?Rotate_Z@Matrix3D@@QAEXM@Z			; Matrix3D::Rotate_Z
PUBLIC	?Rotate_X@Matrix3D@@QAEXMM@Z			; Matrix3D::Rotate_X
PUBLIC	?Rotate_Y@Matrix3D@@QAEXMM@Z			; Matrix3D::Rotate_Y
PUBLIC	?Rotate_Z@Matrix3D@@QAEXMM@Z			; Matrix3D::Rotate_Z
PUBLIC	?Scale@Matrix3D@@QAEXM@Z			; Matrix3D::Scale
PUBLIC	?Scale@Matrix3D@@QAEXMMM@Z			; Matrix3D::Scale
PUBLIC	?Scale@Matrix3D@@QAEXAAVVector3@@@Z		; Matrix3D::Scale
PUBLIC	?Pre_Rotate_X@Matrix3D@@QAEXM@Z			; Matrix3D::Pre_Rotate_X
PUBLIC	?Pre_Rotate_Y@Matrix3D@@QAEXM@Z			; Matrix3D::Pre_Rotate_Y
PUBLIC	?Pre_Rotate_Z@Matrix3D@@QAEXM@Z			; Matrix3D::Pre_Rotate_Z
PUBLIC	?Pre_Rotate_X@Matrix3D@@QAEXMM@Z		; Matrix3D::Pre_Rotate_X
PUBLIC	?Pre_Rotate_Y@Matrix3D@@QAEXMM@Z		; Matrix3D::Pre_Rotate_Y
PUBLIC	?Pre_Rotate_Z@Matrix3D@@QAEXMM@Z		; Matrix3D::Pre_Rotate_Z
PUBLIC	?In_Place_Pre_Rotate_X@Matrix3D@@QAEXM@Z	; Matrix3D::In_Place_Pre_Rotate_X
PUBLIC	?In_Place_Pre_Rotate_Y@Matrix3D@@QAEXM@Z	; Matrix3D::In_Place_Pre_Rotate_Y
PUBLIC	?In_Place_Pre_Rotate_Z@Matrix3D@@QAEXM@Z	; Matrix3D::In_Place_Pre_Rotate_Z
PUBLIC	?In_Place_Pre_Rotate_X@Matrix3D@@QAEXMM@Z	; Matrix3D::In_Place_Pre_Rotate_X
PUBLIC	?In_Place_Pre_Rotate_Y@Matrix3D@@QAEXMM@Z	; Matrix3D::In_Place_Pre_Rotate_Y
PUBLIC	?In_Place_Pre_Rotate_Z@Matrix3D@@QAEXMM@Z	; Matrix3D::In_Place_Pre_Rotate_Z
PUBLIC	?Transform_Vector@Matrix3D@@SAXABV1@ABVVector3@@PAV2@@Z ; Matrix3D::Transform_Vector
PUBLIC	?Get_X_Vector@Matrix3D@@QBE?AVVector3@@XZ	; Matrix3D::Get_X_Vector
PUBLIC	?Get_Y_Vector@Matrix3D@@QBE?AVVector3@@XZ	; Matrix3D::Get_Y_Vector
PUBLIC	?Get_Z_Vector@Matrix3D@@QBE?AVVector3@@XZ	; Matrix3D::Get_Z_Vector
PUBLIC	?Get_X_Vector@Matrix3D@@QBEXPAVVector3@@@Z	; Matrix3D::Get_X_Vector
PUBLIC	?Get_Y_Vector@Matrix3D@@QBEXPAVVector3@@@Z	; Matrix3D::Get_Y_Vector
PUBLIC	?Get_Z_Vector@Matrix3D@@QBEXPAVVector3@@@Z	; Matrix3D::Get_Z_Vector
PUBLIC	?Rotate_Vector@Matrix3D@@SAXABV1@ABVVector3@@PAV2@@Z ; Matrix3D::Rotate_Vector
PUBLIC	?Inverse_Transform_Vector@Matrix3D@@SAXABV1@ABVVector3@@PAV2@@Z ; Matrix3D::Inverse_Transform_Vector
PUBLIC	?Inverse_Rotate_Vector@Matrix3D@@SAXABV1@ABVVector3@@PAV2@@Z ; Matrix3D::Inverse_Rotate_Vector
PUBLIC	?Is_Delete_Pending@NetworkObjectClass@@QAE_NXZ	; NetworkObjectClass::Is_Delete_Pending
PUBLIC	?Set_Is_Delete_Pending@NetworkObjectClass@@QAEX_N@Z ; NetworkObjectClass::Set_Is_Delete_Pending
PUBLIC	??0Matrix4@@QAE@XZ				; Matrix4::Matrix4
PUBLIC	??0Matrix4@@QAE@ABV0@@Z				; Matrix4::Matrix4
PUBLIC	??0Matrix4@@QAE@_N@Z				; Matrix4::Matrix4
PUBLIC	??0Matrix4@@QAE@ABVMatrix3D@@@Z			; Matrix4::Matrix4
PUBLIC	??0Matrix4@@QAE@ABVVector4@@000@Z		; Matrix4::Matrix4
PUBLIC	?Make_Identity@Matrix4@@QAEXXZ			; Matrix4::Make_Identity
PUBLIC	?Init@Matrix4@@QAEXABVMatrix3D@@@Z		; Matrix4::Init
PUBLIC	?Init@Matrix4@@QAEXABVVector4@@000@Z		; Matrix4::Init
PUBLIC	?Init_Ortho_OGL@Matrix4@@QAEXMMMMMM@Z		; Matrix4::Init_Ortho_OGL
PUBLIC	?Init_Perspective_OGL@Matrix4@@QAEXMMMM@Z	; Matrix4::Init_Perspective_OGL
PUBLIC	?Init_Perspective_OGL@Matrix4@@QAEXMMMMMM@Z	; Matrix4::Init_Perspective_OGL
PUBLIC	?Init_Ortho@Matrix4@@QAEXMMMMMM@Z		; Matrix4::Init_Ortho
PUBLIC	?Init_Perspective@Matrix4@@QAEXMMMMMM@Z		; Matrix4::Init_Perspective
PUBLIC	??AMatrix4@@QAEAAVVector4@@H@Z			; Matrix4::operator[]
PUBLIC	??AMatrix4@@QBEABVVector4@@H@Z			; Matrix4::operator[]
PUBLIC	?Transpose@Matrix4@@QBE?AV1@XZ			; Matrix4::Transpose
PUBLIC	?Determinant@Matrix4@@QBEMXZ			; Matrix4::Determinant
PUBLIC	?Inverse@Matrix4@@QBE?AV1@XZ			; Matrix4::Inverse
PUBLIC	??4Matrix4@@QAEAAV0@ABV0@@Z			; Matrix4::operator=
PUBLIC	??YMatrix4@@QAEAAV0@ABV0@@Z			; Matrix4::operator+=
PUBLIC	??ZMatrix4@@QAEAAV0@ABV0@@Z			; Matrix4::operator-=
PUBLIC	??XMatrix4@@QAEAAV0@M@Z				; Matrix4::operator*=
PUBLIC	??_0Matrix4@@QAEAAV0@M@Z			; Matrix4::operator/=
PUBLIC	?Transform_Vector@Matrix4@@SAXABV1@ABVVector3@@PAV2@@Z ; Matrix4::Transform_Vector
PUBLIC	?Transform_Vector@Matrix4@@SAXABV1@ABVVector3@@PAVVector4@@@Z ; Matrix4::Transform_Vector
PUBLIC	?Transform_Vector@Matrix4@@SAXABV1@ABVVector4@@PAV2@@Z ; Matrix4::Transform_Vector
PUBLIC	??0Matrix3@@QAE@XZ				; Matrix3::Matrix3
PUBLIC	??0Matrix3@@QAE@ABV0@@Z				; Matrix3::Matrix3
PUBLIC	??0Matrix3@@QAE@_N@Z				; Matrix3::Matrix3
PUBLIC	??0Matrix3@@QAE@ABVVector3@@00@Z		; Matrix3::Matrix3
PUBLIC	??0Matrix3@@QAE@MMMMMMMMM@Z			; Matrix3::Matrix3
PUBLIC	??0Matrix3@@QAE@ABVVector3@@M@Z			; Matrix3::Matrix3
PUBLIC	??0Matrix3@@QAE@ABVVector3@@MM@Z		; Matrix3::Matrix3
PUBLIC	??0Matrix3@@QAE@ABVQuaternion@@@Z		; Matrix3::Matrix3
PUBLIC	?Set@Matrix3@@QAEXABVVector3@@00@Z		; Matrix3::Set
PUBLIC	?Set@Matrix3@@QAEXMMMMMMMMM@Z			; Matrix3::Set
PUBLIC	?Set@Matrix3@@QAEXABVVector3@@M@Z		; Matrix3::Set
PUBLIC	?Set@Matrix3@@QAEXABVVector3@@MM@Z		; Matrix3::Set
PUBLIC	??AMatrix3@@QAEAAVVector3@@H@Z			; Matrix3::operator[]
PUBLIC	??AMatrix3@@QBEABVVector3@@H@Z			; Matrix3::operator[]
PUBLIC	?Transpose@Matrix3@@QBE?AV1@XZ			; Matrix3::Transpose
PUBLIC	?Determinant@Matrix3@@QBEMXZ			; Matrix3::Determinant
PUBLIC	??4Matrix3@@QAEAAV0@ABV0@@Z			; Matrix3::operator=
PUBLIC	??YMatrix3@@QAEAAV0@ABV0@@Z			; Matrix3::operator+=
PUBLIC	??ZMatrix3@@QAEAAV0@ABV0@@Z			; Matrix3::operator-=
PUBLIC	??XMatrix3@@QAEAAV0@M@Z				; Matrix3::operator*=
PUBLIC	??_0Matrix3@@QAEAAV0@M@Z			; Matrix3::operator/=
PUBLIC	?Make_Identity@Matrix3@@QAEXXZ			; Matrix3::Make_Identity
PUBLIC	?Rotate_X@Matrix3@@QAEXM@Z			; Matrix3::Rotate_X
PUBLIC	?Rotate_X@Matrix3@@QAEXMM@Z			; Matrix3::Rotate_X
PUBLIC	?Rotate_Y@Matrix3@@QAEXM@Z			; Matrix3::Rotate_Y
PUBLIC	?Rotate_Y@Matrix3@@QAEXMM@Z			; Matrix3::Rotate_Y
PUBLIC	?Rotate_Z@Matrix3@@QAEXM@Z			; Matrix3::Rotate_Z
PUBLIC	?Rotate_Z@Matrix3@@QAEXMM@Z			; Matrix3::Rotate_Z
PUBLIC	?Get_X_Rotation@Matrix3@@QBEMXZ			; Matrix3::Get_X_Rotation
PUBLIC	?Get_Y_Rotation@Matrix3@@QBEMXZ			; Matrix3::Get_Y_Rotation
PUBLIC	?Get_Z_Rotation@Matrix3@@QBEMXZ			; Matrix3::Get_Z_Rotation
PUBLIC	?Get_X_Vector@Matrix3@@QBE?AVVector3@@XZ	; Matrix3::Get_X_Vector
PUBLIC	?Get_Y_Vector@Matrix3@@QBE?AVVector3@@XZ	; Matrix3::Get_Y_Vector
PUBLIC	?Get_Z_Vector@Matrix3@@QBE?AVVector3@@XZ	; Matrix3::Get_Z_Vector
PUBLIC	?Get_X_Vector@Matrix3@@QBEXPAVVector3@@@Z	; Matrix3::Get_X_Vector
PUBLIC	?Get_Y_Vector@Matrix3@@QBEXPAVVector3@@@Z	; Matrix3::Get_Y_Vector
PUBLIC	?Get_Z_Vector@Matrix3@@QBEXPAVVector3@@@Z	; Matrix3::Get_Z_Vector
PUBLIC	??D@YA?AVVector3@@ABVMatrix3@@ABV0@@Z		; operator*
PUBLIC	?Add@Matrix3@@SAXABV1@0PAV1@@Z			; Matrix3::Add
PUBLIC	?Subtract@Matrix3@@SAXABV1@0PAV1@@Z		; Matrix3::Subtract
PUBLIC	?Rotate_Vector@Matrix3@@SAXABV1@ABVVector3@@PAV2@@Z ; Matrix3::Rotate_Vector
PUBLIC	?Transpose_Rotate_Vector@Matrix3@@SAXABV1@ABVVector3@@PAV2@@Z ; Matrix3::Transpose_Rotate_Vector
PUBLIC	?Rotate_AABox_Extent@Matrix3@@QAEXABVVector3@@PAV2@@Z ; Matrix3::Rotate_AABox_Extent
PUBLIC	?Inverse@Matrix3@@QBE?AV1@XZ			; Matrix3::Inverse
PUBLIC	??4SysTimeClass@@QAEAAV0@ABV0@@Z		; SysTimeClass::operator=
PUBLIC	??0PostLoadableClass@@QAE@XZ			; PostLoadableClass::PostLoadableClass
PUBLIC	??1PostLoadableClass@@UAE@XZ			; PostLoadableClass::~PostLoadableClass
PUBLIC	?On_Post_Load@PostLoadableClass@@UAEXXZ		; PostLoadableClass::On_Post_Load
PUBLIC	?Is_Post_Load_Registered@PostLoadableClass@@QBE_NXZ ; PostLoadableClass::Is_Post_Load_Registered
PUBLIC	?Set_Post_Load_Registered@PostLoadableClass@@QAEX_N@Z ; PostLoadableClass::Set_Post_Load_Registered
PUBLIC	??0PostLoadableClass@@QAE@ABV0@@Z		; PostLoadableClass::PostLoadableClass
PUBLIC	??4PostLoadableClass@@QAEAAV0@ABV0@@Z		; PostLoadableClass::operator=
PUBLIC	??_GPostLoadableClass@@UAEPAXI@Z		; PostLoadableClass::`scalar deleting destructor'
PUBLIC	??_EPostLoadableClass@@UAEPAXI@Z		; PostLoadableClass::`vector deleting destructor'
PUBLIC	??CReferencerClass@@QAEPAVScriptableGameObj@@XZ	; ReferencerClass::operator->
PUBLIC	??0ReferencerClass@@QAE@XZ			; ReferencerClass::ReferencerClass
PUBLIC	??0ReferencerClass@@QAE@PAVScriptableGameObj@@@Z ; ReferencerClass::ReferencerClass
PUBLIC	?Get_Ptr@ReferencerClass@@QBEPAVScriptableGameObj@@XZ ; ReferencerClass::Get_Ptr
PUBLIC	?Set_Ptr@ReferencerClass@@QAEXPAVScriptableGameObj@@@Z ; ReferencerClass::Set_Ptr
PUBLIC	??0ReferencerClass@@QAE@ABV0@@Z			; ReferencerClass::ReferencerClass
PUBLIC	??_GReferencerClass@@UAEPAXI@Z			; ReferencerClass::`scalar deleting destructor'
PUBLIC	??_EReferencerClass@@UAEPAXI@Z			; ReferencerClass::`vector deleting destructor'
PUBLIC	?Get_Data@?$ReferenceableClass@VScriptableGameObj@@@@IBEPAVScriptableGameObj@@XZ ; ReferenceableClass<ScriptableGameObj>::Get_Data
PUBLIC	??0LineSegClass@@QAE@XZ				; LineSegClass::LineSegClass
PUBLIC	??0LineSegClass@@QAE@ABVVector3@@0@Z		; LineSegClass::LineSegClass
PUBLIC	??0LineSegClass@@QAE@ABVVector3@@0M@Z		; LineSegClass::LineSegClass
PUBLIC	??0LineSegClass@@QAE@ABV0@ABVMatrix3D@@@Z	; LineSegClass::LineSegClass
PUBLIC	?Set@LineSegClass@@QAEXABVVector3@@0@Z		; LineSegClass::Set
PUBLIC	?Set@LineSegClass@@QAEXABVVector3@@0M@Z		; LineSegClass::Set
PUBLIC	?Get_P0@LineSegClass@@QBEABVVector3@@XZ		; LineSegClass::Get_P0
PUBLIC	?Get_P1@LineSegClass@@QBEABVVector3@@XZ		; LineSegClass::Get_P1
PUBLIC	?Get_DP@LineSegClass@@QBEABVVector3@@XZ		; LineSegClass::Get_DP
PUBLIC	?Get_Dir@LineSegClass@@QBEABVVector3@@XZ	; LineSegClass::Get_Dir
PUBLIC	?Get_Length@LineSegClass@@QBEMXZ		; LineSegClass::Get_Length
PUBLIC	?Compute_Point@LineSegClass@@QBEXMPAVVector3@@@Z ; LineSegClass::Compute_Point
PUBLIC	?recalculate@LineSegClass@@IAEXXZ		; LineSegClass::recalculate
PUBLIC	??0LineSegClass@@QAE@ABV0@@Z			; LineSegClass::LineSegClass
PUBLIC	??4LineSegClass@@QAEAAV0@ABV0@@Z		; LineSegClass::operator=
PUBLIC	?Get_Position@PhysClass@@QBEXPAVVector3@@@Z	; PhysClass::Get_Position
PUBLIC	?Peek_Physical_Object@PhysicalGameObj@@QBEPAVPhysClass@@XZ ; PhysicalGameObj::Peek_Physical_Object
PUBLIC	?Get_Position@PhysicalGameObj@@QAE?AVVector3@@XZ ; PhysicalGameObj::Get_Position
PUBLIC	?Get_Id@cPlayer@@QBEHXZ				; cPlayer::Get_Id
PUBLIC	?Is_Active@cPlayer@@QAE_NXZ			; cPlayer::Is_Active
PUBLIC	?Get_GameObj@cPlayer@@QBEPAVSoldierGameObj@@XZ	; cPlayer::Get_GameObj
PUBLIC	??2?$AutoPoolClass@VGenericSLNode@@$0BAA@@@SAPAXIPBDI0@Z ; AutoPoolClass<GenericSLNode,256>::operator new
PUBLIC	??3?$AutoPoolClass@VGenericSLNode@@$0BAA@@@SAXPAX@Z ; AutoPoolClass<GenericSLNode,256>::operator delete
PUBLIC	??0GenericSLNode@@IAE@PAX@Z			; GenericSLNode::GenericSLNode
PUBLIC	??0JFW_Key_Hook_Base@@QAE@XZ			; JFW_Key_Hook_Base::JFW_Key_Hook_Base
PUBLIC	??0JFW_Key_Hook_Base@@QAE@ABV0@@Z		; JFW_Key_Hook_Base::JFW_Key_Hook_Base
PUBLIC	??4JFW_Key_Hook_Base@@QAEAAV0@ABV0@@Z		; JFW_Key_Hook_Base::operator=
PUBLIC	??_GJFW_Key_Hook_Base@@UAEPAXI@Z		; JFW_Key_Hook_Base::`scalar deleting destructor'
PUBLIC	??_EJFW_Key_Hook_Base@@UAEPAXI@Z		; JFW_Key_Hook_Base::`vector deleting destructor'
PUBLIC	??0?$SList@UKeyHookWrapperStruct@MultiKeyHookScriptImpClass@@@@QAE@XZ ; SList<MultiKeyHookScriptImpClass::KeyHookWrapperStruct>::SList<MultiKeyHookScriptImpClass::KeyHookWrapperStruct>
PUBLIC	??1?$SList@UKeyHookWrapperStruct@MultiKeyHookScriptImpClass@@@@UAE@XZ ; SList<MultiKeyHookScriptImpClass::KeyHookWrapperStruct>::~SList<MultiKeyHookScriptImpClass::KeyHookWrapperStruct>
PUBLIC	?Add_Head@?$SList@UKeyHookWrapperStruct@MultiKeyHookScriptImpClass@@@@UAE_NPAUKeyHookWrapperStruct@MultiKeyHookScriptImpClass@@@Z ; SList<MultiKeyHookScriptImpClass::KeyHookWrapperStruct>::Add_Head
PUBLIC	?Add_Head@?$SList@UKeyHookWrapperStruct@MultiKeyHookScriptImpClass@@@@UAE_NAAV1@@Z ; SList<MultiKeyHookScriptImpClass::KeyHookWrapperStruct>::Add_Head
PUBLIC	?Add_Tail@?$SList@UKeyHookWrapperStruct@MultiKeyHookScriptImpClass@@@@UAE_NPAUKeyHookWrapperStruct@MultiKeyHookScriptImpClass@@@Z ; SList<MultiKeyHookScriptImpClass::KeyHookWrapperStruct>::Add_Tail
PUBLIC	?Add_Tail@?$SList@UKeyHookWrapperStruct@MultiKeyHookScriptImpClass@@@@UAE_NAAV1@@Z ; SList<MultiKeyHookScriptImpClass::KeyHookWrapperStruct>::Add_Tail
PUBLIC	?Remove_Head@?$SList@UKeyHookWrapperStruct@MultiKeyHookScriptImpClass@@@@UAEPAUKeyHookWrapperStruct@MultiKeyHookScriptImpClass@@XZ ; SList<MultiKeyHookScriptImpClass::KeyHookWrapperStruct>::Remove_Head
PUBLIC	?Remove_Tail@?$SList@UKeyHookWrapperStruct@MultiKeyHookScriptImpClass@@@@UAEPAUKeyHookWrapperStruct@MultiKeyHookScriptImpClass@@XZ ; SList<MultiKeyHookScriptImpClass::KeyHookWrapperStruct>::Remove_Tail
PUBLIC	?Remove@?$SList@UKeyHookWrapperStruct@MultiKeyHookScriptImpClass@@@@UAE_NPBUKeyHookWrapperStruct@MultiKeyHookScriptImpClass@@@Z ; SList<MultiKeyHookScriptImpClass::KeyHookWrapperStruct>::Remove
PUBLIC	?Remove_All@?$SList@UKeyHookWrapperStruct@MultiKeyHookScriptImpClass@@@@UAEXXZ ; SList<MultiKeyHookScriptImpClass::KeyHookWrapperStruct>::Remove_All
PUBLIC	?Insert_Before@?$SList@UKeyHookWrapperStruct@MultiKeyHookScriptImpClass@@@@UAE_NPAUKeyHookWrapperStruct@MultiKeyHookScriptImpClass@@PBU23@@Z ; SList<MultiKeyHookScriptImpClass::KeyHookWrapperStruct>::Insert_Before
PUBLIC	?Insert_After@?$SList@UKeyHookWrapperStruct@MultiKeyHookScriptImpClass@@@@UAE_NPAUKeyHookWrapperStruct@MultiKeyHookScriptImpClass@@PBU23@@Z ; SList<MultiKeyHookScriptImpClass::KeyHookWrapperStruct>::Insert_After
PUBLIC	?Is_Empty@?$SList@UKeyHookWrapperStruct@MultiKeyHookScriptImpClass@@@@UBE_NXZ ; SList<MultiKeyHookScriptImpClass::KeyHookWrapperStruct>::Is_Empty
PUBLIC	?Get_Count@?$SList@UKeyHookWrapperStruct@MultiKeyHookScriptImpClass@@@@UBEIXZ ; SList<MultiKeyHookScriptImpClass::KeyHookWrapperStruct>::Get_Count
PUBLIC	??0?$SList@UKeyHookWrapperStruct@MultiKeyHookScriptImpClass@@@@QAE@ABV0@@Z ; SList<MultiKeyHookScriptImpClass::KeyHookWrapperStruct>::SList<MultiKeyHookScriptImpClass::KeyHookWrapperStruct>
PUBLIC	??4?$SList@UKeyHookWrapperStruct@MultiKeyHookScriptImpClass@@@@QAEAAV0@ABV0@@Z ; SList<MultiKeyHookScriptImpClass::KeyHookWrapperStruct>::operator=
PUBLIC	??_G?$SList@UKeyHookWrapperStruct@MultiKeyHookScriptImpClass@@@@UAEPAXI@Z ; SList<MultiKeyHookScriptImpClass::KeyHookWrapperStruct>::`scalar deleting destructor'
PUBLIC	??0MultiKeyHookScriptImpClass@@QAE@XZ		; MultiKeyHookScriptImpClass::MultiKeyHookScriptImpClass
PUBLIC	??1MultiKeyHookScriptImpClass@@UAE@XZ		; MultiKeyHookScriptImpClass::~MultiKeyHookScriptImpClass
PUBLIC	??0MultiKeyHookScriptImpClass@@QAE@ABV0@@Z	; MultiKeyHookScriptImpClass::MultiKeyHookScriptImpClass
PUBLIC	??4MultiKeyHookScriptImpClass@@QAEAAV0@ABV0@@Z	; MultiKeyHookScriptImpClass::operator=
PUBLIC	??_GMultiKeyHookScriptImpClass@@UAEPAXI@Z	; MultiKeyHookScriptImpClass::`scalar deleting destructor'
PUBLIC	??_EMultiKeyHookScriptImpClass@@UAEPAXI@Z	; MultiKeyHookScriptImpClass::`vector deleting destructor'
PUBLIC	??0JFW_Object_Created_Hook_Base@@QAE@XZ		; JFW_Object_Created_Hook_Base::JFW_Object_Created_Hook_Base
PUBLIC	??0JFW_Object_Created_Hook_Base@@QAE@ABV0@@Z	; JFW_Object_Created_Hook_Base::JFW_Object_Created_Hook_Base
PUBLIC	??4JFW_Object_Created_Hook_Base@@QAEAAV0@ABV0@@Z ; JFW_Object_Created_Hook_Base::operator=
PUBLIC	??_GJFW_Object_Created_Hook_Base@@UAEPAXI@Z	; JFW_Object_Created_Hook_Base::`scalar deleting destructor'
PUBLIC	??_EJFW_Object_Created_Hook_Base@@UAEPAXI@Z	; JFW_Object_Created_Hook_Base::`vector deleting destructor'
PUBLIC	??4ArmorWarheadManager@@QAEAAV0@ABV0@@Z		; ArmorWarheadManager::operator=
PUBLIC	?Get_Vehicle@SoldierGameObj@@QAEPAVVehicleGameObj@@XZ ; SoldierGameObj::Get_Vehicle
PUBLIC	??1CollideableObjClass@AnimCollisionManagerClass@@QAE@XZ ; AnimCollisionManagerClass::CollideableObjClass::~CollideableObjClass
PUBLIC	??_ECollideableObjClass@AnimCollisionManagerClass@@QAEPAXI@Z ; AnimCollisionManagerClass::CollideableObjClass::`vector deleting destructor'
PUBLIC	??0CollisionTestClass@@QAE@PAUCastResultStruct@@W4Collision_Type@@@Z ; CollisionTestClass::CollisionTestClass
PUBLIC	??0CollisionTestClass@@QAE@ABV0@@Z		; CollisionTestClass::CollisionTestClass
PUBLIC	??4CollisionTestClass@@QAEAAV0@ABV0@@Z		; CollisionTestClass::operator=
PUBLIC	?Cull@AABoxCollisionTestClass@@QAE_NABVVector3@@0@Z ; AABoxCollisionTestClass::Cull
PUBLIC	?Translate@AABoxCollisionTestClass@@QAEXABVVector3@@@Z ; AABoxCollisionTestClass::Translate
PUBLIC	?Cull@OBBoxCollisionTestClass@@QAE_NABVVector3@@0@Z ; OBBoxCollisionTestClass::Cull
PUBLIC	?select_on_container_copy_construction@?$allocator@D@std@@QBE?AV12@XZ ; std::allocator<char>::select_on_container_copy_construction
PUBLIC	??0?$allocator@D@std@@QAE@XZ			; std::allocator<char>::allocator<char>
PUBLIC	??0?$allocator@D@std@@QAE@ABV01@@Z		; std::allocator<char>::allocator<char>
PUBLIC	?deallocate@?$allocator@D@std@@QAEXPADI@Z	; std::allocator<char>::deallocate
PUBLIC	?allocate@?$allocator@D@std@@QAEPADI@Z		; std::allocator<char>::allocate
PUBLIC	?max_size@?$allocator@D@std@@QBEIXZ		; std::allocator<char>::max_size
PUBLIC	?max_size@?$allocator_traits@V?$allocator@D@std@@@std@@SAIABV?$allocator@D@2@@Z ; std::allocator_traits<std::allocator<char> >::max_size
PUBLIC	?select_on_container_copy_construction@?$allocator_traits@V?$allocator@D@std@@@std@@SA?AV?$allocator@D@2@ABV32@@Z ; std::allocator_traits<std::allocator<char> >::select_on_container_copy_construction
PUBLIC	?select_on_container_copy_construction@?$_Wrap_alloc@V?$allocator@D@std@@@std@@QBE?AU12@XZ ; std::_Wrap_alloc<std::allocator<char> >::select_on_container_copy_construction
PUBLIC	??0?$_Wrap_alloc@V?$allocator@D@std@@@std@@QAE@XZ ; std::_Wrap_alloc<std::allocator<char> >::_Wrap_alloc<std::allocator<char> >
PUBLIC	??0?$_Wrap_alloc@V?$allocator@D@std@@@std@@QAE@ABV?$allocator@D@1@@Z ; std::_Wrap_alloc<std::allocator<char> >::_Wrap_alloc<std::allocator<char> >
PUBLIC	?allocate@?$_Wrap_alloc@V?$allocator@D@std@@@std@@QAEPADI@Z ; std::_Wrap_alloc<std::allocator<char> >::allocate
PUBLIC	?deallocate@?$_Wrap_alloc@V?$allocator@D@std@@@std@@QAEXPADI@Z ; std::_Wrap_alloc<std::allocator<char> >::deallocate
PUBLIC	?max_size@?$_Wrap_alloc@V?$allocator@D@std@@@std@@QBEIXZ ; std::_Wrap_alloc<std::allocator<char> >::max_size
PUBLIC	??0?$_String_val@U?$_Simple_types@D@std@@@std@@QAE@XZ ; std::_String_val<std::_Simple_types<char> >::_String_val<std::_Simple_types<char> >
PUBLIC	?_Myptr@?$_String_val@U?$_Simple_types@D@std@@@std@@QAEPADXZ ; std::_String_val<std::_Simple_types<char> >::_Myptr
PUBLIC	?_Myptr@?$_String_val@U?$_Simple_types@D@std@@@std@@QBEPBDXZ ; std::_String_val<std::_Simple_types<char> >::_Myptr
PUBLIC	??1?$_String_val@U?$_Simple_types@D@std@@@std@@QAE@XZ ; std::_String_val<std::_Simple_types<char> >::~_String_val<std::_Simple_types<char> >
PUBLIC	??0?$_String_alloc@$0A@U?$_String_base_types@DV?$allocator@D@std@@@std@@@std@@QAE@ABV?$allocator@D@1@@Z ; std::_String_alloc<0,std::_String_base_types<char,std::allocator<char> > >::_String_alloc<0,std::_String_base_types<char,std::allocator<char> > >
PUBLIC	??1?$_String_alloc@$0A@U?$_String_base_types@DV?$allocator@D@std@@@std@@@std@@QAE@XZ ; std::_String_alloc<0,std::_String_base_types<char,std::allocator<char> > >::~_String_alloc<0,std::_String_base_types<char,std::allocator<char> > >
PUBLIC	?_Change_alloc@?$_String_alloc@$0A@U?$_String_base_types@DV?$allocator@D@std@@@std@@@std@@QAEXABU?$_Wrap_alloc@V?$allocator@D@std@@@2@@Z ; std::_String_alloc<0,std::_String_base_types<char,std::allocator<char> > >::_Change_alloc
PUBLIC	?_Alloc_proxy@?$_String_alloc@$0A@U?$_String_base_types@DV?$allocator@D@std@@@std@@@std@@QAEXXZ ; std::_String_alloc<0,std::_String_base_types<char,std::allocator<char> > >::_Alloc_proxy
PUBLIC	?_Free_proxy@?$_String_alloc@$0A@U?$_String_base_types@DV?$allocator@D@std@@@std@@@std@@QAEXXZ ; std::_String_alloc<0,std::_String_base_types<char,std::allocator<char> > >::_Free_proxy
PUBLIC	?_Getal@?$_String_alloc@$0A@U?$_String_base_types@DV?$allocator@D@std@@@std@@@std@@QBE?AU?$_Wrap_alloc@V?$allocator@D@std@@@2@XZ ; std::_String_alloc<0,std::_String_base_types<char,std::allocator<char> > >::_Getal
PUBLIC	??0?$basic_string@DU?$char_traits@D@std@@V?$allocator@D@2@@std@@QAE@ABV01@@Z ; std::basic_string<char,std::char_traits<char>,std::allocator<char> >::basic_string<char,std::char_traits<char>,std::allocator<char> >
PUBLIC	??0?$basic_string@DU?$char_traits@D@std@@V?$allocator@D@2@@std@@QAE@XZ ; std::basic_string<char,std::char_traits<char>,std::allocator<char> >::basic_string<char,std::char_traits<char>,std::allocator<char> >
PUBLIC	??0?$basic_string@DU?$char_traits@D@std@@V?$allocator@D@2@@std@@QAE@ABV01@IIABV?$allocator@D@1@@Z ; std::basic_string<char,std::char_traits<char>,std::allocator<char> >::basic_string<char,std::char_traits<char>,std::allocator<char> >
PUBLIC	??0?$basic_string@DU?$char_traits@D@std@@V?$allocator@D@2@@std@@QAE@PBD@Z ; std::basic_string<char,std::char_traits<char>,std::allocator<char> >::basic_string<char,std::char_traits<char>,std::allocator<char> >
PUBLIC	??0?$basic_string@DU?$char_traits@D@std@@V?$allocator@D@2@@std@@QAE@$$QAV01@@Z ; std::basic_string<char,std::char_traits<char>,std::allocator<char> >::basic_string<char,std::char_traits<char>,std::allocator<char> >
PUBLIC	??4?$basic_string@DU?$char_traits@D@std@@V?$allocator@D@2@@std@@QAEAAV01@$$QAV01@@Z ; std::basic_string<char,std::char_traits<char>,std::allocator<char> >::operator=
PUBLIC	?_Assign_rv@?$basic_string@DU?$char_traits@D@std@@V?$allocator@D@2@@std@@QAEX$$QAV12@@Z ; std::basic_string<char,std::char_traits<char>,std::allocator<char> >::_Assign_rv
PUBLIC	??1?$basic_string@DU?$char_traits@D@std@@V?$allocator@D@2@@std@@QAE@XZ ; std::basic_string<char,std::char_traits<char>,std::allocator<char> >::~basic_string<char,std::char_traits<char>,std::allocator<char> >
PUBLIC	??4?$basic_string@DU?$char_traits@D@std@@V?$allocator@D@2@@std@@QAEAAV01@PBD@Z ; std::basic_string<char,std::char_traits<char>,std::allocator<char> >::operator=
PUBLIC	??Y?$basic_string@DU?$char_traits@D@std@@V?$allocator@D@2@@std@@QAEAAV01@ABV01@@Z ; std::basic_string<char,std::char_traits<char>,std::allocator<char> >::operator+=
PUBLIC	??Y?$basic_string@DU?$char_traits@D@std@@V?$allocator@D@2@@std@@QAEAAV01@D@Z ; std::basic_string<char,std::char_traits<char>,std::allocator<char> >::operator+=
PUBLIC	?append@?$basic_string@DU?$char_traits@D@std@@V?$allocator@D@2@@std@@QAEAAV12@ABV12@@Z ; std::basic_string<char,std::char_traits<char>,std::allocator<char> >::append
PUBLIC	?append@?$basic_string@DU?$char_traits@D@std@@V?$allocator@D@2@@std@@QAEAAV12@ABV12@II@Z ; std::basic_string<char,std::char_traits<char>,std::allocator<char> >::append
PUBLIC	?append@?$basic_string@DU?$char_traits@D@std@@V?$allocator@D@2@@std@@QAEAAV12@ID@Z ; std::basic_string<char,std::char_traits<char>,std::allocator<char> >::append
PUBLIC	?assign@?$basic_string@DU?$char_traits@D@std@@V?$allocator@D@2@@std@@QAEAAV12@ABV12@II@Z ; std::basic_string<char,std::char_traits<char>,std::allocator<char> >::assign
PUBLIC	?assign@?$basic_string@DU?$char_traits@D@std@@V?$allocator@D@2@@std@@QAEAAV12@PBDI@Z ; std::basic_string<char,std::char_traits<char>,std::allocator<char> >::assign
PUBLIC	?assign@?$basic_string@DU?$char_traits@D@std@@V?$allocator@D@2@@std@@QAEAAV12@PBD@Z ; std::basic_string<char,std::char_traits<char>,std::allocator<char> >::assign
PUBLIC	?erase@?$basic_string@DU?$char_traits@D@std@@V?$allocator@D@2@@std@@QAEAAV12@I@Z ; std::basic_string<char,std::char_traits<char>,std::allocator<char> >::erase
PUBLIC	?erase@?$basic_string@DU?$char_traits@D@std@@V?$allocator@D@2@@std@@QAEAAV12@II@Z ; std::basic_string<char,std::char_traits<char>,std::allocator<char> >::erase
PUBLIC	?replace@?$basic_string@DU?$char_traits@D@std@@V?$allocator@D@2@@std@@QAEAAV12@IIABV12@II@Z ; std::basic_string<char,std::char_traits<char>,std::allocator<char> >::replace
PUBLIC	?replace@?$basic_string@DU?$char_traits@D@std@@V?$allocator@D@2@@std@@QAEAAV12@IIPBDI@Z ; std::basic_string<char,std::char_traits<char>,std::allocator<char> >::replace
PUBLIC	?replace@?$basic_string@DU?$char_traits@D@std@@V?$allocator@D@2@@std@@QAEAAV12@V?$_String_const_iterator@V?$_String_val@U?$_Simple_types@D@std@@@std@@@2@0V?$_String_iterator@V?$_String_val@U?$_Simple_types@D@std@@@std@@@2@1@Z ; std::basic_string<char,std::char_traits<char>,std::allocator<char> >::replace
PUBLIC	?begin@?$basic_string@DU?$char_traits@D@std@@V?$allocator@D@2@@std@@QAE?AV?$_String_iterator@V?$_String_val@U?$_Simple_types@D@std@@@std@@@2@XZ ; std::basic_string<char,std::char_traits<char>,std::allocator<char> >::begin
PUBLIC	?end@?$basic_string@DU?$char_traits@D@std@@V?$allocator@D@2@@std@@QAE?AV?$_String_iterator@V?$_String_val@U?$_Simple_types@D@std@@@std@@@2@XZ ; std::basic_string<char,std::char_traits<char>,std::allocator<char> >::end
PUBLIC	?c_str@?$basic_string@DU?$char_traits@D@std@@V?$allocator@D@2@@std@@QBEPBDXZ ; std::basic_string<char,std::char_traits<char>,std::allocator<char> >::c_str
PUBLIC	?size@?$basic_string@DU?$char_traits@D@std@@V?$allocator@D@2@@std@@QBEIXZ ; std::basic_string<char,std::char_traits<char>,std::allocator<char> >::size
PUBLIC	?max_size@?$basic_string@DU?$char_traits@D@std@@V?$allocator@D@2@@std@@QBEIXZ ; std::basic_string<char,std::char_traits<char>,std::allocator<char> >::max_size
PUBLIC	?reserve@?$basic_string@DU?$char_traits@D@std@@V?$allocator@D@2@@std@@QAEXI@Z ; std::basic_string<char,std::char_traits<char>,std::allocator<char> >::reserve
PUBLIC	?find@?$basic_string@DU?$char_traits@D@std@@V?$allocator@D@2@@std@@QBEIPBDII@Z ; std::basic_string<char,std::char_traits<char>,std::allocator<char> >::find
PUBLIC	?find@?$basic_string@DU?$char_traits@D@std@@V?$allocator@D@2@@std@@QBEIPBDI@Z ; std::basic_string<char,std::char_traits<char>,std::allocator<char> >::find
PUBLIC	?substr@?$basic_string@DU?$char_traits@D@std@@V?$allocator@D@2@@std@@QBE?AV12@II@Z ; std::basic_string<char,std::char_traits<char>,std::allocator<char> >::substr
PUBLIC	?compare@?$basic_string@DU?$char_traits@D@std@@V?$allocator@D@2@@std@@QBEHPBD@Z ; std::basic_string<char,std::char_traits<char>,std::allocator<char> >::compare
PUBLIC	?compare@?$basic_string@DU?$char_traits@D@std@@V?$allocator@D@2@@std@@QBEHIIPBDI@Z ; std::basic_string<char,std::char_traits<char>,std::allocator<char> >::compare
PUBLIC	?get_allocator@?$basic_string@DU?$char_traits@D@std@@V?$allocator@D@2@@std@@QBE?AV?$allocator@D@2@XZ ; std::basic_string<char,std::char_traits<char>,std::allocator<char> >::get_allocator
PUBLIC	?_Chassign@?$basic_string@DU?$char_traits@D@std@@V?$allocator@D@2@@std@@QAEXIID@Z ; std::basic_string<char,std::char_traits<char>,std::allocator<char> >::_Chassign
PUBLIC	?_Copy@?$basic_string@DU?$char_traits@D@std@@V?$allocator@D@2@@std@@QAEXII@Z ; std::basic_string<char,std::char_traits<char>,std::allocator<char> >::_Copy
PUBLIC	?_Eos@?$basic_string@DU?$char_traits@D@std@@V?$allocator@D@2@@std@@QAEXI@Z ; std::basic_string<char,std::char_traits<char>,std::allocator<char> >::_Eos
PUBLIC	?_Grow@?$basic_string@DU?$char_traits@D@std@@V?$allocator@D@2@@std@@QAE_NI_N@Z ; std::basic_string<char,std::char_traits<char>,std::allocator<char> >::_Grow
PUBLIC	?_Inside@?$basic_string@DU?$char_traits@D@std@@V?$allocator@D@2@@std@@QAE_NPBD@Z ; std::basic_string<char,std::char_traits<char>,std::allocator<char> >::_Inside
PUBLIC	?_Pdif@?$basic_string@DU?$char_traits@D@std@@V?$allocator@D@2@@std@@SAIV?$_String_const_iterator@V?$_String_val@U?$_Simple_types@D@std@@@std@@@2@0@Z ; std::basic_string<char,std::char_traits<char>,std::allocator<char> >::_Pdif
PUBLIC	?_Tidy@?$basic_string@DU?$char_traits@D@std@@V?$allocator@D@2@@std@@QAEX_NI@Z ; std::basic_string<char,std::char_traits<char>,std::allocator<char> >::_Tidy
PUBLIC	?_Xlen@?$basic_string@DU?$char_traits@D@std@@V?$allocator@D@2@@std@@QBEXXZ ; std::basic_string<char,std::char_traits<char>,std::allocator<char> >::_Xlen
PUBLIC	?_Xran@?$basic_string@DU?$char_traits@D@std@@V?$allocator@D@2@@std@@QBEXXZ ; std::basic_string<char,std::char_traits<char>,std::allocator<char> >::_Xran
PUBLIC	??_G?$basic_string@DU?$char_traits@D@std@@V?$allocator@D@2@@std@@QAEPAXI@Z ; std::basic_string<char,std::char_traits<char>,std::allocator<char> >::`scalar deleting destructor'
PUBLIC	??$_Debug_pointer@D@std@@YAXPBDPB_WI@Z		; std::_Debug_pointer<char>
PUBLIC	?generic_category@std@@YAABVerror_category@1@XZ	; std::generic_category
PUBLIC	?system_category@std@@YAABVerror_category@1@XZ	; std::system_category
PUBLIC	??0error_category@std@@QAE@XZ			; std::error_category::error_category
PUBLIC	??1error_category@std@@UAE@XZ			; std::error_category::~error_category
PUBLIC	?default_error_condition@error_category@std@@UBE?AVerror_condition@2@H@Z ; std::error_category::default_error_condition
PUBLIC	?equivalent@error_category@std@@UBE_NHABVerror_condition@2@@Z ; std::error_category::equivalent
PUBLIC	?equivalent@error_category@std@@UBE_NABVerror_code@2@H@Z ; std::error_category::equivalent
PUBLIC	??8error_category@std@@QBE_NABV01@@Z		; std::error_category::operator==
PUBLIC	??_Gerror_category@std@@UAEPAXI@Z		; std::error_category::`scalar deleting destructor'
PUBLIC	?value@error_code@std@@QBEHXZ			; std::error_code::value
PUBLIC	?category@error_code@std@@QBEABVerror_category@2@XZ ; std::error_code::category
PUBLIC	??0error_condition@std@@QAE@HABVerror_category@1@@Z ; std::error_condition::error_condition
PUBLIC	?value@error_condition@std@@QBEHXZ		; std::error_condition::value
PUBLIC	?category@error_condition@std@@QBEABVerror_category@2@XZ ; std::error_condition::category
PUBLIC	??8error_condition@std@@QBE_NABV01@@Z		; std::error_condition::operator==
PUBLIC	??0_Generic_error_category@std@@QAE@XZ		; std::_Generic_error_category::_Generic_error_category
PUBLIC	?name@_Generic_error_category@std@@UBEPBDXZ	; std::_Generic_error_category::name
PUBLIC	?message@_Generic_error_category@std@@UBE?AV?$basic_string@DU?$char_traits@D@std@@V?$allocator@D@2@@2@H@Z ; std::_Generic_error_category::message
PUBLIC	??1_Generic_error_category@std@@UAE@XZ		; std::_Generic_error_category::~_Generic_error_category
PUBLIC	??_G_Generic_error_category@std@@UAEPAXI@Z	; std::_Generic_error_category::`scalar deleting destructor'
PUBLIC	??0_Iostream_error_category@std@@QAE@XZ		; std::_Iostream_error_category::_Iostream_error_category
PUBLIC	?name@_Iostream_error_category@std@@UBEPBDXZ	; std::_Iostream_error_category::name
PUBLIC	?message@_Iostream_error_category@std@@UBE?AV?$basic_string@DU?$char_traits@D@std@@V?$allocator@D@2@@2@H@Z ; std::_Iostream_error_category::message
PUBLIC	??1_Iostream_error_category@std@@UAE@XZ		; std::_Iostream_error_category::~_Iostream_error_category
PUBLIC	??_G_Iostream_error_category@std@@UAEPAXI@Z	; std::_Iostream_error_category::`scalar deleting destructor'
PUBLIC	??0_System_error_category@std@@QAE@XZ		; std::_System_error_category::_System_error_category
PUBLIC	?name@_System_error_category@std@@UBEPBDXZ	; std::_System_error_category::name
PUBLIC	?message@_System_error_category@std@@UBE?AV?$basic_string@DU?$char_traits@D@std@@V?$allocator@D@2@@2@H@Z ; std::_System_error_category::message
PUBLIC	?default_error_condition@_System_error_category@std@@UBE?AVerror_condition@2@H@Z ; std::_System_error_category::default_error_condition
PUBLIC	??1_System_error_category@std@@UAE@XZ		; std::_System_error_category::~_System_error_category
PUBLIC	??_G_System_error_category@std@@UAEPAXI@Z	; std::_System_error_category::`scalar deleting destructor'
PUBLIC	??0_Sentry_base@?$basic_istream@DU?$char_traits@D@std@@@std@@QAE@AAV12@@Z ; std::basic_istream<char,std::char_traits<char> >::_Sentry_base::_Sentry_base
PUBLIC	??1_Sentry_base@?$basic_istream@DU?$char_traits@D@std@@@std@@QAE@XZ ; std::basic_istream<char,std::char_traits<char> >::_Sentry_base::~_Sentry_base
PUBLIC	??0sentry@?$basic_istream@DU?$char_traits@D@std@@@std@@QAE@AAV12@_N@Z ; std::basic_istream<char,std::char_traits<char> >::sentry::sentry
PUBLIC	??Bsentry@?$basic_istream@DU?$char_traits@D@std@@@std@@QBEPQ?$_Bool_struct@V?$basic_istream@DU?$char_traits@D@std@@@std@@@2@HXZ ; std::basic_istream<char,std::char_traits<char> >::sentry::operator int std::_Bool_struct<std::basic_istream<char,std::char_traits<char> > >::*
PUBLIC	??1sentry@?$basic_istream@DU?$char_traits@D@std@@@std@@QAE@XZ ; std::basic_istream<char,std::char_traits<char> >::sentry::~sentry
PUBLIC	?stoi@std@@YAHABV?$basic_string@DU?$char_traits@D@std@@V?$allocator@D@2@@1@PAIH@Z ; std::stoi
PUBLIC	?Entered@MC_Teleport@@EAEXPAVScriptableGameObj@@0@Z ; MC_Teleport::Entered
PUBLIC	??0MC_Teleport@@QAE@XZ				; MC_Teleport::MC_Teleport
PUBLIC	??1MC_Teleport@@UAE@XZ				; MC_Teleport::~MC_Teleport
PUBLIC	??_GMC_Teleport@@UAEPAXI@Z			; MC_Teleport::`scalar deleting destructor'
PUBLIC	?Entered@MC_HUD_Message_Zone@@EAEXPAVScriptableGameObj@@0@Z ; MC_HUD_Message_Zone::Entered
PUBLIC	??0MC_HUD_Message_Zone@@QAE@XZ			; MC_HUD_Message_Zone::MC_HUD_Message_Zone
PUBLIC	??1MC_HUD_Message_Zone@@UAE@XZ			; MC_HUD_Message_Zone::~MC_HUD_Message_Zone
PUBLIC	??_GMC_HUD_Message_Zone@@UAEPAXI@Z		; MC_HUD_Message_Zone::`scalar deleting destructor'
PUBLIC	?Created@MC_Stop_Vehicle_Engine@@EAEXPAVScriptableGameObj@@@Z ; MC_Stop_Vehicle_Engine::Created
PUBLIC	?Custom@MC_Stop_Vehicle_Engine@@EAEXPAVScriptableGameObj@@HH0@Z ; MC_Stop_Vehicle_Engine::Custom
PUBLIC	?Timer_Expired@MC_Stop_Vehicle_Engine@@EAEXPAVScriptableGameObj@@H@Z ; MC_Stop_Vehicle_Engine::Timer_Expired
PUBLIC	??0MC_Stop_Vehicle_Engine@@QAE@XZ		; MC_Stop_Vehicle_Engine::MC_Stop_Vehicle_Engine
PUBLIC	??1MC_Stop_Vehicle_Engine@@UAE@XZ		; MC_Stop_Vehicle_Engine::~MC_Stop_Vehicle_Engine
PUBLIC	??_GMC_Stop_Vehicle_Engine@@UAEPAXI@Z		; MC_Stop_Vehicle_Engine::`scalar deleting destructor'
PUBLIC	?Created@MC_Change_Vehicle_Weapon@@EAEXPAVScriptableGameObj@@@Z ; MC_Change_Vehicle_Weapon::Created
PUBLIC	??0MC_Change_Vehicle_Weapon@@QAE@XZ		; MC_Change_Vehicle_Weapon::MC_Change_Vehicle_Weapon
PUBLIC	??1MC_Change_Vehicle_Weapon@@UAE@XZ		; MC_Change_Vehicle_Weapon::~MC_Change_Vehicle_Weapon
PUBLIC	??_GMC_Change_Vehicle_Weapon@@UAEPAXI@Z		; MC_Change_Vehicle_Weapon::`scalar deleting destructor'
PUBLIC	?Created@MC_MCTMainSyncObject@@EAEXPAVScriptableGameObj@@@Z ; MC_MCTMainSyncObject::Created
PUBLIC	?Damaged@MC_MCTMainSyncObject@@EAEXPAVScriptableGameObj@@0M@Z ; MC_MCTMainSyncObject::Damaged
PUBLIC	??0MC_MCTMainSyncObject@@QAE@XZ			; MC_MCTMainSyncObject::MC_MCTMainSyncObject
PUBLIC	??1MC_MCTMainSyncObject@@UAE@XZ			; MC_MCTMainSyncObject::~MC_MCTMainSyncObject
PUBLIC	??_GMC_MCTMainSyncObject@@UAEPAXI@Z		; MC_MCTMainSyncObject::`scalar deleting destructor'
PUBLIC	?Created@MC_MasterControlTerminal_Object@@EAEXPAVScriptableGameObj@@@Z ; MC_MasterControlTerminal_Object::Created
PUBLIC	?Damaged@MC_MasterControlTerminal_Object@@EAEXPAVScriptableGameObj@@0M@Z ; MC_MasterControlTerminal_Object::Damaged
PUBLIC	?Timer_Expired@MC_MasterControlTerminal_Object@@EAEXPAVScriptableGameObj@@H@Z ; MC_MasterControlTerminal_Object::Timer_Expired
PUBLIC	??0MC_MasterControlTerminal_Object@@QAE@XZ	; MC_MasterControlTerminal_Object::MC_MasterControlTerminal_Object
PUBLIC	??1MC_MasterControlTerminal_Object@@UAE@XZ	; MC_MasterControlTerminal_Object::~MC_MasterControlTerminal_Object
PUBLIC	??_GMC_MasterControlTerminal_Object@@UAEPAXI@Z	; MC_MasterControlTerminal_Object::`scalar deleting destructor'
PUBLIC	?Entered@MC_Change_Vehicle_Weapon_Zone@@EAEXPAVScriptableGameObj@@0@Z ; MC_Change_Vehicle_Weapon_Zone::Entered
PUBLIC	??0MC_Change_Vehicle_Weapon_Zone@@QAE@XZ	; MC_Change_Vehicle_Weapon_Zone::MC_Change_Vehicle_Weapon_Zone
PUBLIC	??1MC_Change_Vehicle_Weapon_Zone@@UAE@XZ	; MC_Change_Vehicle_Weapon_Zone::~MC_Change_Vehicle_Weapon_Zone
PUBLIC	??_GMC_Change_Vehicle_Weapon_Zone@@UAEPAXI@Z	; MC_Change_Vehicle_Weapon_Zone::`scalar deleting destructor'
PUBLIC	?Created@MC_Grant_Weapon@@EAEXPAVScriptableGameObj@@@Z ; MC_Grant_Weapon::Created
PUBLIC	??0MC_Grant_Weapon@@QAE@XZ			; MC_Grant_Weapon::MC_Grant_Weapon
PUBLIC	??1MC_Grant_Weapon@@UAE@XZ			; MC_Grant_Weapon::~MC_Grant_Weapon
PUBLIC	??_GMC_Grant_Weapon@@UAEPAXI@Z			; MC_Grant_Weapon::`scalar deleting destructor'
PUBLIC	?Entered@MC_Grant_Weapon_Zone@@EAEXPAVScriptableGameObj@@0@Z ; MC_Grant_Weapon_Zone::Entered
PUBLIC	??0MC_Grant_Weapon_Zone@@QAE@XZ			; MC_Grant_Weapon_Zone::MC_Grant_Weapon_Zone
PUBLIC	??1MC_Grant_Weapon_Zone@@UAE@XZ			; MC_Grant_Weapon_Zone::~MC_Grant_Weapon_Zone
PUBLIC	??_GMC_Grant_Weapon_Zone@@UAEPAXI@Z		; MC_Grant_Weapon_Zone::`scalar deleting destructor'
PUBLIC	?Killed@MC_Spawn_When_Death@@EAEXPAVScriptableGameObj@@0@Z ; MC_Spawn_When_Death::Killed
PUBLIC	??0MC_Spawn_When_Death@@QAE@XZ			; MC_Spawn_When_Death::MC_Spawn_When_Death
PUBLIC	??1MC_Spawn_When_Death@@UAE@XZ			; MC_Spawn_When_Death::~MC_Spawn_When_Death
PUBLIC	??_GMC_Spawn_When_Death@@UAEPAXI@Z		; MC_Spawn_When_Death::`scalar deleting destructor'
PUBLIC	?Killed@MC_GameOver_When_Kill@@EAEXPAVScriptableGameObj@@0@Z ; MC_GameOver_When_Kill::Killed
PUBLIC	??0MC_GameOver_When_Kill@@QAE@XZ		; MC_GameOver_When_Kill::MC_GameOver_When_Kill
PUBLIC	??1MC_GameOver_When_Kill@@UAE@XZ		; MC_GameOver_When_Kill::~MC_GameOver_When_Kill
PUBLIC	??_GMC_GameOver_When_Kill@@UAEPAXI@Z		; MC_GameOver_When_Kill::`scalar deleting destructor'
PUBLIC	?Created@MC_Grant_Character@@EAEXPAVScriptableGameObj@@@Z ; MC_Grant_Character::Created
PUBLIC	??0MC_Grant_Character@@QAE@XZ			; MC_Grant_Character::MC_Grant_Character
PUBLIC	??1MC_Grant_Character@@UAE@XZ			; MC_Grant_Character::~MC_Grant_Character
PUBLIC	??_GMC_Grant_Character@@UAEPAXI@Z		; MC_Grant_Character::`scalar deleting destructor'
PUBLIC	?Entered@MC_Grant_Character_Zone@@EAEXPAVScriptableGameObj@@0@Z ; MC_Grant_Character_Zone::Entered
PUBLIC	??0MC_Grant_Character_Zone@@QAE@XZ		; MC_Grant_Character_Zone::MC_Grant_Character_Zone
PUBLIC	??1MC_Grant_Character_Zone@@UAE@XZ		; MC_Grant_Character_Zone::~MC_Grant_Character_Zone
PUBLIC	??_GMC_Grant_Character_Zone@@UAEPAXI@Z		; MC_Grant_Character_Zone::`scalar deleting destructor'
PUBLIC	?Damaged@MC_Spawn_When_Fully_Repaired@@EAEXPAVScriptableGameObj@@0M@Z ; MC_Spawn_When_Fully_Repaired::Damaged
PUBLIC	?Killed@MC_Spawn_When_Fully_Repaired@@EAEXPAVScriptableGameObj@@0@Z ; MC_Spawn_When_Fully_Repaired::Killed
PUBLIC	??0MC_Spawn_When_Fully_Repaired@@QAE@XZ		; MC_Spawn_When_Fully_Repaired::MC_Spawn_When_Fully_Repaired
PUBLIC	??1MC_Spawn_When_Fully_Repaired@@UAE@XZ		; MC_Spawn_When_Fully_Repaired::~MC_Spawn_When_Fully_Repaired
PUBLIC	??_GMC_Spawn_When_Fully_Repaired@@UAEPAXI@Z	; MC_Spawn_When_Fully_Repaired::`scalar deleting destructor'
PUBLIC	?Created@MC_Refinery_Object@@EAEXPAVScriptableGameObj@@@Z ; MC_Refinery_Object::Created
PUBLIC	?Timer_Expired@MC_Refinery_Object@@EAEXPAVScriptableGameObj@@H@Z ; MC_Refinery_Object::Timer_Expired
PUBLIC	??0MC_Refinery_Object@@QAE@XZ			; MC_Refinery_Object::MC_Refinery_Object
PUBLIC	??1MC_Refinery_Object@@UAE@XZ			; MC_Refinery_Object::~MC_Refinery_Object
PUBLIC	??_GMC_Refinery_Object@@UAEPAXI@Z		; MC_Refinery_Object::`scalar deleting destructor'
PUBLIC	?Head@?$SList@VcPlayer@@@@QBEPAV?$SLNode@VcPlayer@@@@XZ ; SList<cPlayer>::Head
PUBLIC	?Next@?$SLNode@VcPlayer@@@@QBEPAV1@XZ		; SLNode<cPlayer>::Next
PUBLIC	?Data@?$SLNode@VcPlayer@@@@QBEPAVcPlayer@@XZ	; SLNode<cPlayer>::Data
PUBLIC	?Created@MC_Vehicle_Purchase_Terminal@@EAEXPAVScriptableGameObj@@@Z ; MC_Vehicle_Purchase_Terminal::Created
PUBLIC	?Poked@MC_Vehicle_Purchase_Terminal@@EAEXPAVScriptableGameObj@@0@Z ; MC_Vehicle_Purchase_Terminal::Poked
PUBLIC	?Timer_Expired@MC_Vehicle_Purchase_Terminal@@EAEXPAVScriptableGameObj@@H@Z ; MC_Vehicle_Purchase_Terminal::Timer_Expired
PUBLIC	??0MC_Vehicle_Purchase_Terminal@@QAE@XZ		; MC_Vehicle_Purchase_Terminal::MC_Vehicle_Purchase_Terminal
PUBLIC	??1MC_Vehicle_Purchase_Terminal@@UAE@XZ		; MC_Vehicle_Purchase_Terminal::~MC_Vehicle_Purchase_Terminal
PUBLIC	??_GMC_Vehicle_Purchase_Terminal@@UAEPAXI@Z	; MC_Vehicle_Purchase_Terminal::`scalar deleting destructor'
PUBLIC	?Created@MC_Character_Purchase_Terminal@@EAEXPAVScriptableGameObj@@@Z ; MC_Character_Purchase_Terminal::Created
PUBLIC	?Poked@MC_Character_Purchase_Terminal@@EAEXPAVScriptableGameObj@@0@Z ; MC_Character_Purchase_Terminal::Poked
PUBLIC	?Timer_Expired@MC_Character_Purchase_Terminal@@EAEXPAVScriptableGameObj@@H@Z ; MC_Character_Purchase_Terminal::Timer_Expired
PUBLIC	??0MC_Character_Purchase_Terminal@@QAE@XZ	; MC_Character_Purchase_Terminal::MC_Character_Purchase_Terminal
PUBLIC	??1MC_Character_Purchase_Terminal@@UAE@XZ	; MC_Character_Purchase_Terminal::~MC_Character_Purchase_Terminal
PUBLIC	??_GMC_Character_Purchase_Terminal@@UAEPAXI@Z	; MC_Character_Purchase_Terminal::`scalar deleting destructor'
PUBLIC	?Created@MC_Set_Team_When_Exit@@EAEXPAVScriptableGameObj@@@Z ; MC_Set_Team_When_Exit::Created
PUBLIC	?Custom@MC_Set_Team_When_Exit@@EAEXPAVScriptableGameObj@@HH0@Z ; MC_Set_Team_When_Exit::Custom
PUBLIC	?Timer_Expired@MC_Set_Team_When_Exit@@EAEXPAVScriptableGameObj@@H@Z ; MC_Set_Team_When_Exit::Timer_Expired
PUBLIC	??0MC_Set_Team_When_Exit@@QAE@XZ		; MC_Set_Team_When_Exit::MC_Set_Team_When_Exit
PUBLIC	??1MC_Set_Team_When_Exit@@UAE@XZ		; MC_Set_Team_When_Exit::~MC_Set_Team_When_Exit
PUBLIC	??_GMC_Set_Team_When_Exit@@UAEPAXI@Z		; MC_Set_Team_When_Exit::`scalar deleting destructor'
PUBLIC	?Killed@MC_IonExplosion_When_Death@@EAEXPAVScriptableGameObj@@0@Z ; MC_IonExplosion_When_Death::Killed
PUBLIC	??0MC_IonExplosion_When_Death@@QAE@XZ		; MC_IonExplosion_When_Death::MC_IonExplosion_When_Death
PUBLIC	??1MC_IonExplosion_When_Death@@UAE@XZ		; MC_IonExplosion_When_Death::~MC_IonExplosion_When_Death
PUBLIC	??_GMC_IonExplosion_When_Death@@UAEPAXI@Z	; MC_IonExplosion_When_Death::`scalar deleting destructor'
PUBLIC	?Created@MC_Capturable_Object@@EAEXPAVScriptableGameObj@@@Z ; MC_Capturable_Object::Created
PUBLIC	?Damaged@MC_Capturable_Object@@EAEXPAVScriptableGameObj@@0M@Z ; MC_Capturable_Object::Damaged
PUBLIC	??0MC_Capturable_Object@@QAE@XZ			; MC_Capturable_Object::MC_Capturable_Object
PUBLIC	??1MC_Capturable_Object@@UAE@XZ			; MC_Capturable_Object::~MC_Capturable_Object
PUBLIC	??_GMC_Capturable_Object@@UAEPAXI@Z		; MC_Capturable_Object::`scalar deleting destructor'
PUBLIC	?Created@MC_FlyMode_On@@EAEXPAVScriptableGameObj@@@Z ; MC_FlyMode_On::Created
PUBLIC	??0MC_FlyMode_On@@QAE@XZ			; MC_FlyMode_On::MC_FlyMode_On
PUBLIC	??1MC_FlyMode_On@@UAE@XZ			; MC_FlyMode_On::~MC_FlyMode_On
PUBLIC	??_GMC_FlyMode_On@@UAEPAXI@Z			; MC_FlyMode_On::`scalar deleting destructor'
PUBLIC	?Created@MC_FlyMode_Off@@EAEXPAVScriptableGameObj@@@Z ; MC_FlyMode_Off::Created
PUBLIC	??0MC_FlyMode_Off@@QAE@XZ			; MC_FlyMode_Off::MC_FlyMode_Off
PUBLIC	??1MC_FlyMode_Off@@UAE@XZ			; MC_FlyMode_Off::~MC_FlyMode_Off
PUBLIC	??_GMC_FlyMode_Off@@UAEPAXI@Z			; MC_FlyMode_Off::`scalar deleting destructor'
PUBLIC	?Entered@MC_FlyModeZone_On@@EAEXPAVScriptableGameObj@@0@Z ; MC_FlyModeZone_On::Entered
PUBLIC	??0MC_FlyModeZone_On@@QAE@XZ			; MC_FlyModeZone_On::MC_FlyModeZone_On
PUBLIC	??1MC_FlyModeZone_On@@UAE@XZ			; MC_FlyModeZone_On::~MC_FlyModeZone_On
PUBLIC	??_GMC_FlyModeZone_On@@UAEPAXI@Z		; MC_FlyModeZone_On::`scalar deleting destructor'
PUBLIC	?Entered@MC_FlyModeZone_Off@@EAEXPAVScriptableGameObj@@0@Z ; MC_FlyModeZone_Off::Entered
PUBLIC	??0MC_FlyModeZone_Off@@QAE@XZ			; MC_FlyModeZone_Off::MC_FlyModeZone_Off
PUBLIC	??1MC_FlyModeZone_Off@@UAE@XZ			; MC_FlyModeZone_Off::~MC_FlyModeZone_Off
PUBLIC	??_GMC_FlyModeZone_Off@@UAEPAXI@Z		; MC_FlyModeZone_Off::`scalar deleting destructor'
PUBLIC	?Created@MC_Spectate@@EAEXPAVScriptableGameObj@@@Z ; MC_Spectate::Created
PUBLIC	??0MC_Spectate@@QAE@XZ				; MC_Spectate::MC_Spectate
PUBLIC	??1MC_Spectate@@UAE@XZ				; MC_Spectate::~MC_Spectate
PUBLIC	??_GMC_Spectate@@UAEPAXI@Z			; MC_Spectate::`scalar deleting destructor'
PUBLIC	?Entered@MC_Spectate_Zone@@EAEXPAVScriptableGameObj@@0@Z ; MC_Spectate_Zone::Entered
PUBLIC	??0MC_Spectate_Zone@@QAE@XZ			; MC_Spectate_Zone::MC_Spectate_Zone
PUBLIC	??1MC_Spectate_Zone@@UAE@XZ			; MC_Spectate_Zone::~MC_Spectate_Zone
PUBLIC	??_GMC_Spectate_Zone@@UAEPAXI@Z			; MC_Spectate_Zone::`scalar deleting destructor'
PUBLIC	?Created@MC_Beacon_Block_Zone@@EAEXPAVScriptableGameObj@@@Z ; MC_Beacon_Block_Zone::Created
PUBLIC	?Entered@MC_Beacon_Block_Zone@@EAEXPAVScriptableGameObj@@0@Z ; MC_Beacon_Block_Zone::Entered
PUBLIC	?Exited@MC_Beacon_Block_Zone@@EAEXPAVScriptableGameObj@@0@Z ; MC_Beacon_Block_Zone::Exited
PUBLIC	?Timer_Expired@MC_Beacon_Block_Zone@@EAEXPAVScriptableGameObj@@H@Z ; MC_Beacon_Block_Zone::Timer_Expired
PUBLIC	??0MC_Beacon_Block_Zone@@QAE@XZ			; MC_Beacon_Block_Zone::MC_Beacon_Block_Zone
PUBLIC	??1MC_Beacon_Block_Zone@@UAE@XZ			; MC_Beacon_Block_Zone::~MC_Beacon_Block_Zone
PUBLIC	??_GMC_Beacon_Block_Zone@@UAEPAXI@Z		; MC_Beacon_Block_Zone::`scalar deleting destructor'
PUBLIC	?Underscore_To_Space@MC_Objective_Message_Sender@@CA?AVStringClass@@V2@@Z ; MC_Objective_Message_Sender::Underscore_To_Space
PUBLIC	?Created@MC_Objective_Message_Sender@@EAEXPAVScriptableGameObj@@@Z ; MC_Objective_Message_Sender::Created
PUBLIC	?Poked@MC_Objective_Message_Sender@@EAEXPAVScriptableGameObj@@0@Z ; MC_Objective_Message_Sender::Poked
PUBLIC	?Timer_Expired@MC_Objective_Message_Sender@@EAEXPAVScriptableGameObj@@H@Z ; MC_Objective_Message_Sender::Timer_Expired
PUBLIC	?Custom@MC_Objective_Message_Sender@@EAEXPAVScriptableGameObj@@HH0@Z ; MC_Objective_Message_Sender::Custom
PUBLIC	??0MC_Objective_Message_Sender@@QAE@XZ		; MC_Objective_Message_Sender::MC_Objective_Message_Sender
PUBLIC	??1MC_Objective_Message_Sender@@UAE@XZ		; MC_Objective_Message_Sender::~MC_Objective_Message_Sender
PUBLIC	??_GMC_Objective_Message_Sender@@UAEPAXI@Z	; MC_Objective_Message_Sender::`scalar deleting destructor'
PUBLIC	??$?8DU?$char_traits@D@std@@V?$allocator@D@1@@std@@YA_NABV?$basic_string@DU?$char_traits@D@std@@V?$allocator@D@2@@0@PBD@Z ; std::operator==<char,std::char_traits<char>,std::allocator<char> >
PUBLIC	??$?HDU?$char_traits@D@std@@V?$allocator@D@1@@std@@YA?AV?$basic_string@DU?$char_traits@D@std@@V?$allocator@D@2@@0@ABV10@0@Z ; std::operator+<char,std::char_traits<char>,std::allocator<char> >
PUBLIC	?Send_Debug_Message@MC_Objective@@QAEXPBD@Z	; MC_Objective::Send_Debug_Message
PUBLIC	?Created@MC_Objective@@UAEXPAVScriptableGameObj@@@Z ; MC_Objective::Created
PUBLIC	?Custom@MC_Objective@@UAEXPAVScriptableGameObj@@HH0@Z ; MC_Objective::Custom
PUBLIC	??0MC_Objective@@QAE@XZ				; MC_Objective::MC_Objective
PUBLIC	??1MC_Objective@@UAE@XZ				; MC_Objective::~MC_Objective
PUBLIC	??_GMC_Objective@@UAEPAXI@Z			; MC_Objective::`scalar deleting destructor'
PUBLIC	??0?$VectorClass@PAVScriptableGameObj@@@@QAE@HPBQAVScriptableGameObj@@@Z ; VectorClass<ScriptableGameObj *>::VectorClass<ScriptableGameObj *>
PUBLIC	??1?$VectorClass@PAVScriptableGameObj@@@@UAE@XZ	; VectorClass<ScriptableGameObj *>::~VectorClass<ScriptableGameObj *>
PUBLIC	??A?$VectorClass@PAVScriptableGameObj@@@@QAEAAPAVScriptableGameObj@@H@Z ; VectorClass<ScriptableGameObj *>::operator[]
PUBLIC	??A?$VectorClass@PAVScriptableGameObj@@@@QBEABQAVScriptableGameObj@@H@Z ; VectorClass<ScriptableGameObj *>::operator[]
PUBLIC	??8?$VectorClass@PAVScriptableGameObj@@@@UBE_NABV0@@Z ; VectorClass<ScriptableGameObj *>::operator==
PUBLIC	?Resize@?$VectorClass@PAVScriptableGameObj@@@@UAE_NHPBQAVScriptableGameObj@@@Z ; VectorClass<ScriptableGameObj *>::Resize
PUBLIC	?Clear@?$VectorClass@PAVScriptableGameObj@@@@UAEXXZ ; VectorClass<ScriptableGameObj *>::Clear
PUBLIC	?Length@?$VectorClass@PAVScriptableGameObj@@@@QBEHXZ ; VectorClass<ScriptableGameObj *>::Length
PUBLIC	?ID@?$VectorClass@PAVScriptableGameObj@@@@UAEHPBQAVScriptableGameObj@@@Z ; VectorClass<ScriptableGameObj *>::ID
PUBLIC	?ID@?$VectorClass@PAVScriptableGameObj@@@@UAEHABQAVScriptableGameObj@@@Z ; VectorClass<ScriptableGameObj *>::ID
PUBLIC	??_G?$VectorClass@PAVScriptableGameObj@@@@UAEPAXI@Z ; VectorClass<ScriptableGameObj *>::`scalar deleting destructor'
PUBLIC	??0?$DynamicVectorClass@PAVScriptableGameObj@@@@QAE@IPBQAVScriptableGameObj@@@Z ; DynamicVectorClass<ScriptableGameObj *>::DynamicVectorClass<ScriptableGameObj *>
PUBLIC	?Resize@?$DynamicVectorClass@PAVScriptableGameObj@@@@UAE_NHPBQAVScriptableGameObj@@@Z ; DynamicVectorClass<ScriptableGameObj *>::Resize
PUBLIC	?Clear@?$DynamicVectorClass@PAVScriptableGameObj@@@@UAEXXZ ; DynamicVectorClass<ScriptableGameObj *>::Clear
PUBLIC	?Count@?$DynamicVectorClass@PAVScriptableGameObj@@@@QBEHXZ ; DynamicVectorClass<ScriptableGameObj *>::Count
PUBLIC	?Insert@?$DynamicVectorClass@PAVScriptableGameObj@@@@QAE_NHABQAVScriptableGameObj@@@Z ; DynamicVectorClass<ScriptableGameObj *>::Insert
PUBLIC	?ID@?$DynamicVectorClass@PAVScriptableGameObj@@@@UAEHPBQAVScriptableGameObj@@@Z ; DynamicVectorClass<ScriptableGameObj *>::ID
PUBLIC	?ID@?$DynamicVectorClass@PAVScriptableGameObj@@@@UAEHABQAVScriptableGameObj@@@Z ; DynamicVectorClass<ScriptableGameObj *>::ID
PUBLIC	??1?$DynamicVectorClass@PAVScriptableGameObj@@@@UAE@XZ ; DynamicVectorClass<ScriptableGameObj *>::~DynamicVectorClass<ScriptableGameObj *>
PUBLIC	??_G?$DynamicVectorClass@PAVScriptableGameObj@@@@UAEPAXI@Z ; DynamicVectorClass<ScriptableGameObj *>::`scalar deleting destructor'
PUBLIC	??0?$SList@VMC_Objective@@@@QAE@XZ		; SList<MC_Objective>::SList<MC_Objective>
PUBLIC	??1?$SList@VMC_Objective@@@@UAE@XZ		; SList<MC_Objective>::~SList<MC_Objective>
PUBLIC	?Add_Head@?$SList@VMC_Objective@@@@UAE_NPAVMC_Objective@@@Z ; SList<MC_Objective>::Add_Head
PUBLIC	?Add_Head@?$SList@VMC_Objective@@@@UAE_NAAV1@@Z	; SList<MC_Objective>::Add_Head
PUBLIC	?Add_Tail@?$SList@VMC_Objective@@@@UAE_NPAVMC_Objective@@@Z ; SList<MC_Objective>::Add_Tail
PUBLIC	?Add_Tail@?$SList@VMC_Objective@@@@UAE_NAAV1@@Z	; SList<MC_Objective>::Add_Tail
PUBLIC	?Remove_Head@?$SList@VMC_Objective@@@@UAEPAVMC_Objective@@XZ ; SList<MC_Objective>::Remove_Head
PUBLIC	?Remove_Tail@?$SList@VMC_Objective@@@@UAEPAVMC_Objective@@XZ ; SList<MC_Objective>::Remove_Tail
PUBLIC	?Remove@?$SList@VMC_Objective@@@@UAE_NPBVMC_Objective@@@Z ; SList<MC_Objective>::Remove
PUBLIC	?Remove_All@?$SList@VMC_Objective@@@@UAEXXZ	; SList<MC_Objective>::Remove_All
PUBLIC	?Insert_Before@?$SList@VMC_Objective@@@@UAE_NPAVMC_Objective@@PBV2@@Z ; SList<MC_Objective>::Insert_Before
PUBLIC	?Insert_After@?$SList@VMC_Objective@@@@UAE_NPAVMC_Objective@@PBV2@@Z ; SList<MC_Objective>::Insert_After
PUBLIC	?Is_Empty@?$SList@VMC_Objective@@@@UBE_NXZ	; SList<MC_Objective>::Is_Empty
PUBLIC	?Get_Count@?$SList@VMC_Objective@@@@UBEIXZ	; SList<MC_Objective>::Get_Count
PUBLIC	??4?$SList@VMC_Objective@@@@QAEAAV0@ABV0@@Z	; SList<MC_Objective>::operator=
PUBLIC	??_G?$SList@VMC_Objective@@@@UAEPAXI@Z		; SList<MC_Objective>::`scalar deleting destructor'
PUBLIC	?Send_Debug_Message@MC_Objective_Controller@@QAEXPBD@Z ; MC_Objective_Controller::Send_Debug_Message
PUBLIC	?Created@MC_Objective_Controller@@UAEXPAVScriptableGameObj@@@Z ; MC_Objective_Controller::Created
PUBLIC	?Custom@MC_Objective_Controller@@UAEXPAVScriptableGameObj@@HH0@Z ; MC_Objective_Controller::Custom
PUBLIC	?Timer_Expired@MC_Objective_Controller@@UAEXPAVScriptableGameObj@@H@Z ; MC_Objective_Controller::Timer_Expired
PUBLIC	?split@MC_Objective_Controller@@QAE?AV?$vector@V?$basic_string@DU?$char_traits@D@std@@V?$allocator@D@2@@std@@V?$allocator@V?$basic_string@DU?$char_traits@D@std@@V?$allocator@D@2@@std@@@2@@std@@V?$basic_string@DU?$char_traits@D@std@@V?$allocator@D@2@@3@D@Z ; MC_Objective_Controller::split
PUBLIC	?Get_Objective@MC_Objective_Controller@@QAEPAVMC_Objective@@H@Z ; MC_Objective_Controller::Get_Objective
PUBLIC	??0MC_Objective_Controller@@QAE@XZ		; MC_Objective_Controller::MC_Objective_Controller
PUBLIC	??1MC_Objective_Controller@@UAE@XZ		; MC_Objective_Controller::~MC_Objective_Controller
PUBLIC	??_GMC_Objective_Controller@@UAEPAXI@Z		; MC_Objective_Controller::`scalar deleting destructor'
PUBLIC	??0?$allocator@V?$basic_string@DU?$char_traits@D@std@@V?$allocator@D@2@@std@@@std@@QAE@XZ ; std::allocator<std::basic_string<char,std::char_traits<char>,std::allocator<char> > >::allocator<std::basic_string<char,std::char_traits<char>,std::allocator<char> > >
PUBLIC	?deallocate@?$allocator@V?$basic_string@DU?$char_traits@D@std@@V?$allocator@D@2@@std@@@std@@QAEXPAV?$basic_string@DU?$char_traits@D@std@@V?$allocator@D@2@@2@I@Z ; std::allocator<std::basic_string<char,std::char_traits<char>,std::allocator<char> > >::deallocate
PUBLIC	?allocate@?$allocator@V?$basic_string@DU?$char_traits@D@std@@V?$allocator@D@2@@std@@@std@@QAEPAV?$basic_string@DU?$char_traits@D@std@@V?$allocator@D@2@@2@I@Z ; std::allocator<std::basic_string<char,std::char_traits<char>,std::allocator<char> > >::allocate
PUBLIC	?construct@?$allocator@V?$basic_string@DU?$char_traits@D@std@@V?$allocator@D@2@@std@@@std@@QAEXPAV?$basic_string@DU?$char_traits@D@std@@V?$allocator@D@2@@2@ABV32@@Z ; std::allocator<std::basic_string<char,std::char_traits<char>,std::allocator<char> > >::construct
PUBLIC	?max_size@?$allocator@V?$basic_string@DU?$char_traits@D@std@@V?$allocator@D@2@@std@@@std@@QBEIXZ ; std::allocator<std::basic_string<char,std::char_traits<char>,std::allocator<char> > >::max_size
PUBLIC	?max_size@?$allocator_traits@V?$allocator@V?$basic_string@DU?$char_traits@D@std@@V?$allocator@D@2@@std@@@std@@@std@@SAIABV?$allocator@V?$basic_string@DU?$char_traits@D@std@@V?$allocator@D@2@@std@@@2@@Z ; std::allocator_traits<std::allocator<std::basic_string<char,std::char_traits<char>,std::allocator<char> > > >::max_size
PUBLIC	??0?$_Wrap_alloc@V?$allocator@V?$basic_string@DU?$char_traits@D@std@@V?$allocator@D@2@@std@@@std@@@std@@QAE@XZ ; std::_Wrap_alloc<std::allocator<std::basic_string<char,std::char_traits<char>,std::allocator<char> > > >::_Wrap_alloc<std::allocator<std::basic_string<char,std::char_traits<char>,std::allocator<char> > > >
PUBLIC	?allocate@?$_Wrap_alloc@V?$allocator@V?$basic_string@DU?$char_traits@D@std@@V?$allocator@D@2@@std@@@std@@@std@@QAEPAV?$basic_string@DU?$char_traits@D@std@@V?$allocator@D@2@@2@I@Z ; std::_Wrap_alloc<std::allocator<std::basic_string<char,std::char_traits<char>,std::allocator<char> > > >::allocate
PUBLIC	?deallocate@?$_Wrap_alloc@V?$allocator@V?$basic_string@DU?$char_traits@D@std@@V?$allocator@D@2@@std@@@std@@@std@@QAEXPAV?$basic_string@DU?$char_traits@D@std@@V?$allocator@D@2@@2@I@Z ; std::_Wrap_alloc<std::allocator<std::basic_string<char,std::char_traits<char>,std::allocator<char> > > >::deallocate
PUBLIC	?max_size@?$_Wrap_alloc@V?$allocator@V?$basic_string@DU?$char_traits@D@std@@V?$allocator@D@2@@std@@@std@@@std@@QBEIXZ ; std::_Wrap_alloc<std::allocator<std::basic_string<char,std::char_traits<char>,std::allocator<char> > > >::max_size
PUBLIC	??0?$_Vector_val@U?$_Simple_types@V?$basic_string@DU?$char_traits@D@std@@V?$allocator@D@2@@std@@@std@@@std@@QAE@XZ ; std::_Vector_val<std::_Simple_types<std::basic_string<char,std::char_traits<char>,std::allocator<char> > > >::_Vector_val<std::_Simple_types<std::basic_string<char,std::char_traits<char>,std::allocator<char> > > >
PUBLIC	??1?$_Vector_val@U?$_Simple_types@V?$basic_string@DU?$char_traits@D@std@@V?$allocator@D@2@@std@@@std@@@std@@QAE@XZ ; std::_Vector_val<std::_Simple_types<std::basic_string<char,std::char_traits<char>,std::allocator<char> > > >::~_Vector_val<std::_Simple_types<std::basic_string<char,std::char_traits<char>,std::allocator<char> > > >
PUBLIC	??0?$_Vector_alloc@$0A@U?$_Vec_base_types@V?$basic_string@DU?$char_traits@D@std@@V?$allocator@D@2@@std@@V?$allocator@V?$basic_string@DU?$char_traits@D@std@@V?$allocator@D@2@@std@@@2@@std@@@std@@QAE@ABV?$allocator@V?$basic_string@DU?$char_traits@D@std@@V?$allocator@D@2@@std@@@1@@Z ; std::_Vector_alloc<0,std::_Vec_base_types<std::basic_string<char,std::char_traits<char>,std::allocator<char> >,std::allocator<std::basic_string<char,std::char_traits<char>,std::allocator<char> > > > >::_Vector_alloc<0,std::_Vec_base_types<std::basic_string<char,std::char_traits<char>,std::allocator<char> >,std::allocator<std::basic_string<char,std::char_traits<char>,std::allocator<char> > > > >
PUBLIC	??1?$_Vector_alloc@$0A@U?$_Vec_base_types@V?$basic_string@DU?$char_traits@D@std@@V?$allocator@D@2@@std@@V?$allocator@V?$basic_string@DU?$char_traits@D@std@@V?$allocator@D@2@@std@@@2@@std@@@std@@QAE@XZ ; std::_Vector_alloc<0,std::_Vec_base_types<std::basic_string<char,std::char_traits<char>,std::allocator<char> >,std::allocator<std::basic_string<char,std::char_traits<char>,std::allocator<char> > > > >::~_Vector_alloc<0,std::_Vec_base_types<std::basic_string<char,std::char_traits<char>,std::allocator<char> >,std::allocator<std::basic_string<char,std::char_traits<char>,std::allocator<char> > > > >
PUBLIC	?_Alloc_proxy@?$_Vector_alloc@$0A@U?$_Vec_base_types@V?$basic_string@DU?$char_traits@D@std@@V?$allocator@D@2@@std@@V?$allocator@V?$basic_string@DU?$char_traits@D@std@@V?$allocator@D@2@@std@@@2@@std@@@std@@QAEXXZ ; std::_Vector_alloc<0,std::_Vec_base_types<std::basic_string<char,std::char_traits<char>,std::allocator<char> >,std::allocator<std::basic_string<char,std::char_traits<char>,std::allocator<char> > > > >::_Alloc_proxy
PUBLIC	?_Free_proxy@?$_Vector_alloc@$0A@U?$_Vec_base_types@V?$basic_string@DU?$char_traits@D@std@@V?$allocator@D@2@@std@@V?$allocator@V?$basic_string@DU?$char_traits@D@std@@V?$allocator@D@2@@std@@@2@@std@@@std@@QAEXXZ ; std::_Vector_alloc<0,std::_Vec_base_types<std::basic_string<char,std::char_traits<char>,std::allocator<char> >,std::allocator<std::basic_string<char,std::char_traits<char>,std::allocator<char> > > > >::_Free_proxy
PUBLIC	?_Getal@?$_Vector_alloc@$0A@U?$_Vec_base_types@V?$basic_string@DU?$char_traits@D@std@@V?$allocator@D@2@@std@@V?$allocator@V?$basic_string@DU?$char_traits@D@std@@V?$allocator@D@2@@std@@@2@@std@@@std@@QBE?AU?$_Wrap_alloc@V?$allocator@V?$basic_string@DU?$char_traits@D@std@@V?$allocator@D@2@@std@@@std@@@2@XZ ; std::_Vector_alloc<0,std::_Vec_base_types<std::basic_string<char,std::char_traits<char>,std::allocator<char> >,std::allocator<std::basic_string<char,std::char_traits<char>,std::allocator<char> > > > >::_Getal
PUBLIC	??0?$vector@V?$basic_string@DU?$char_traits@D@std@@V?$allocator@D@2@@std@@V?$allocator@V?$basic_string@DU?$char_traits@D@std@@V?$allocator@D@2@@std@@@2@@std@@QAE@XZ ; std::vector<std::basic_string<char,std::char_traits<char>,std::allocator<char> >,std::allocator<std::basic_string<char,std::char_traits<char>,std::allocator<char> > > >::vector<std::basic_string<char,std::char_traits<char>,std::allocator<char> >,std::allocator<std::basic_string<char,std::char_traits<char>,std::allocator<char> > > >
PUBLIC	??0?$vector@V?$basic_string@DU?$char_traits@D@std@@V?$allocator@D@2@@std@@V?$allocator@V?$basic_string@DU?$char_traits@D@std@@V?$allocator@D@2@@std@@@2@@std@@QAE@$$QAV01@@Z ; std::vector<std::basic_string<char,std::char_traits<char>,std::allocator<char> >,std::allocator<std::basic_string<char,std::char_traits<char>,std::allocator<char> > > >::vector<std::basic_string<char,std::char_traits<char>,std::allocator<char> >,std::allocator<std::basic_string<char,std::char_traits<char>,std::allocator<char> > > >
PUBLIC	?_Assign_rv@?$vector@V?$basic_string@DU?$char_traits@D@std@@V?$allocator@D@2@@std@@V?$allocator@V?$basic_string@DU?$char_traits@D@std@@V?$allocator@D@2@@std@@@2@@std@@QAEX$$QAV12@@Z ; std::vector<std::basic_string<char,std::char_traits<char>,std::allocator<char> >,std::allocator<std::basic_string<char,std::char_traits<char>,std::allocator<char> > > >::_Assign_rv
PUBLIC	??1?$vector@V?$basic_string@DU?$char_traits@D@std@@V?$allocator@D@2@@std@@V?$allocator@V?$basic_string@DU?$char_traits@D@std@@V?$allocator@D@2@@std@@@2@@std@@QAE@XZ ; std::vector<std::basic_string<char,std::char_traits<char>,std::allocator<char> >,std::allocator<std::basic_string<char,std::char_traits<char>,std::allocator<char> > > >::~vector<std::basic_string<char,std::char_traits<char>,std::allocator<char> >,std::allocator<std::basic_string<char,std::char_traits<char>,std::allocator<char> > > >
PUBLIC	?capacity@?$vector@V?$basic_string@DU?$char_traits@D@std@@V?$allocator@D@2@@std@@V?$allocator@V?$basic_string@DU?$char_traits@D@std@@V?$allocator@D@2@@std@@@2@@std@@QBEIXZ ; std::vector<std::basic_string<char,std::char_traits<char>,std::allocator<char> >,std::allocator<std::basic_string<char,std::char_traits<char>,std::allocator<char> > > >::capacity
PUBLIC	?_Unused_capacity@?$vector@V?$basic_string@DU?$char_traits@D@std@@V?$allocator@D@2@@std@@V?$allocator@V?$basic_string@DU?$char_traits@D@std@@V?$allocator@D@2@@std@@@2@@std@@QBEIXZ ; std::vector<std::basic_string<char,std::char_traits<char>,std::allocator<char> >,std::allocator<std::basic_string<char,std::char_traits<char>,std::allocator<char> > > >::_Unused_capacity
PUBLIC	?size@?$vector@V?$basic_string@DU?$char_traits@D@std@@V?$allocator@D@2@@std@@V?$allocator@V?$basic_string@DU?$char_traits@D@std@@V?$allocator@D@2@@std@@@2@@std@@QBEIXZ ; std::vector<std::basic_string<char,std::char_traits<char>,std::allocator<char> >,std::allocator<std::basic_string<char,std::char_traits<char>,std::allocator<char> > > >::size
PUBLIC	?max_size@?$vector@V?$basic_string@DU?$char_traits@D@std@@V?$allocator@D@2@@std@@V?$allocator@V?$basic_string@DU?$char_traits@D@std@@V?$allocator@D@2@@std@@@2@@std@@QBEIXZ ; std::vector<std::basic_string<char,std::char_traits<char>,std::allocator<char> >,std::allocator<std::basic_string<char,std::char_traits<char>,std::allocator<char> > > >::max_size
PUBLIC	??A?$vector@V?$basic_string@DU?$char_traits@D@std@@V?$allocator@D@2@@std@@V?$allocator@V?$basic_string@DU?$char_traits@D@std@@V?$allocator@D@2@@std@@@2@@std@@QAEAAV?$basic_string@DU?$char_traits@D@std@@V?$allocator@D@2@@1@I@Z ; std::vector<std::basic_string<char,std::char_traits<char>,std::allocator<char> >,std::allocator<std::basic_string<char,std::char_traits<char>,std::allocator<char> > > >::operator[]
PUBLIC	?push_back@?$vector@V?$basic_string@DU?$char_traits@D@std@@V?$allocator@D@2@@std@@V?$allocator@V?$basic_string@DU?$char_traits@D@std@@V?$allocator@D@2@@std@@@2@@std@@QAEXABV?$basic_string@DU?$char_traits@D@std@@V?$allocator@D@2@@2@@Z ; std::vector<std::basic_string<char,std::char_traits<char>,std::allocator<char> >,std::allocator<std::basic_string<char,std::char_traits<char>,std::allocator<char> > > >::push_back
PUBLIC	?_Destroy@?$vector@V?$basic_string@DU?$char_traits@D@std@@V?$allocator@D@2@@std@@V?$allocator@V?$basic_string@DU?$char_traits@D@std@@V?$allocator@D@2@@std@@@2@@std@@IAEXPAV?$basic_string@DU?$char_traits@D@std@@V?$allocator@D@2@@2@0@Z ; std::vector<std::basic_string<char,std::char_traits<char>,std::allocator<char> >,std::allocator<std::basic_string<char,std::char_traits<char>,std::allocator<char> > > >::_Destroy
PUBLIC	?_Grow_to@?$vector@V?$basic_string@DU?$char_traits@D@std@@V?$allocator@D@2@@std@@V?$allocator@V?$basic_string@DU?$char_traits@D@std@@V?$allocator@D@2@@std@@@2@@std@@IBEII@Z ; std::vector<std::basic_string<char,std::char_traits<char>,std::allocator<char> >,std::allocator<std::basic_string<char,std::char_traits<char>,std::allocator<char> > > >::_Grow_to
PUBLIC	?_Inside@?$vector@V?$basic_string@DU?$char_traits@D@std@@V?$allocator@D@2@@std@@V?$allocator@V?$basic_string@DU?$char_traits@D@std@@V?$allocator@D@2@@std@@@2@@std@@IBE_NPBV?$basic_string@DU?$char_traits@D@std@@V?$allocator@D@2@@2@@Z ; std::vector<std::basic_string<char,std::char_traits<char>,std::allocator<char> >,std::allocator<std::basic_string<char,std::char_traits<char>,std::allocator<char> > > >::_Inside
PUBLIC	?_Reallocate@?$vector@V?$basic_string@DU?$char_traits@D@std@@V?$allocator@D@2@@std@@V?$allocator@V?$basic_string@DU?$char_traits@D@std@@V?$allocator@D@2@@std@@@2@@std@@IAEXI@Z ; std::vector<std::basic_string<char,std::char_traits<char>,std::allocator<char> >,std::allocator<std::basic_string<char,std::char_traits<char>,std::allocator<char> > > >::_Reallocate
PUBLIC	?_Reserve@?$vector@V?$basic_string@DU?$char_traits@D@std@@V?$allocator@D@2@@std@@V?$allocator@V?$basic_string@DU?$char_traits@D@std@@V?$allocator@D@2@@std@@@2@@std@@IAEXI@Z ; std::vector<std::basic_string<char,std::char_traits<char>,std::allocator<char> >,std::allocator<std::basic_string<char,std::char_traits<char>,std::allocator<char> > > >::_Reserve
PUBLIC	?_Tidy@?$vector@V?$basic_string@DU?$char_traits@D@std@@V?$allocator@D@2@@std@@V?$allocator@V?$basic_string@DU?$char_traits@D@std@@V?$allocator@D@2@@std@@@2@@std@@IAEXXZ ; std::vector<std::basic_string<char,std::char_traits<char>,std::allocator<char> >,std::allocator<std::basic_string<char,std::char_traits<char>,std::allocator<char> > > >::_Tidy
PUBLIC	?_Xlen@?$vector@V?$basic_string@DU?$char_traits@D@std@@V?$allocator@D@2@@std@@V?$allocator@V?$basic_string@DU?$char_traits@D@std@@V?$allocator@D@2@@std@@@2@@std@@IBEXXZ ; std::vector<std::basic_string<char,std::char_traits<char>,std::allocator<char> >,std::allocator<std::basic_string<char,std::char_traits<char>,std::allocator<char> > > >::_Xlen
PUBLIC	?_Orphan_range@?$vector@V?$basic_string@DU?$char_traits@D@std@@V?$allocator@D@2@@std@@V?$allocator@V?$basic_string@DU?$char_traits@D@std@@V?$allocator@D@2@@std@@@2@@std@@IBEXPAV?$basic_string@DU?$char_traits@D@std@@V?$allocator@D@2@@2@0@Z ; std::vector<std::basic_string<char,std::char_traits<char>,std::allocator<char> >,std::allocator<std::basic_string<char,std::char_traits<char>,std::allocator<char> > > >::_Orphan_range
PUBLIC	??0?$basic_stringstream@DU?$char_traits@D@std@@V?$allocator@D@2@@std@@QAE@ABV?$basic_string@DU?$char_traits@D@std@@V?$allocator@D@2@@1@H@Z ; std::basic_stringstream<char,std::char_traits<char>,std::allocator<char> >::basic_stringstream<char,std::char_traits<char>,std::allocator<char> >
PUBLIC	??1?$basic_stringstream@DU?$char_traits@D@std@@V?$allocator@D@2@@std@@UAE@XZ ; std::basic_stringstream<char,std::char_traits<char>,std::allocator<char> >::~basic_stringstream<char,std::char_traits<char>,std::allocator<char> >
PUBLIC	??0?$basic_stringbuf@DU?$char_traits@D@std@@V?$allocator@D@2@@std@@QAE@ABV?$basic_string@DU?$char_traits@D@std@@V?$allocator@D@2@@1@H@Z ; std::basic_stringbuf<char,std::char_traits<char>,std::allocator<char> >::basic_stringbuf<char,std::char_traits<char>,std::allocator<char> >
PUBLIC	??1?$basic_stringbuf@DU?$char_traits@D@std@@V?$allocator@D@2@@std@@UAE@XZ ; std::basic_stringbuf<char,std::char_traits<char>,std::allocator<char> >::~basic_stringbuf<char,std::char_traits<char>,std::allocator<char> >
PUBLIC	?overflow@?$basic_stringbuf@DU?$char_traits@D@std@@V?$allocator@D@2@@std@@MAEHH@Z ; std::basic_stringbuf<char,std::char_traits<char>,std::allocator<char> >::overflow
PUBLIC	?pbackfail@?$basic_stringbuf@DU?$char_traits@D@std@@V?$allocator@D@2@@std@@MAEHH@Z ; std::basic_stringbuf<char,std::char_traits<char>,std::allocator<char> >::pbackfail
PUBLIC	?underflow@?$basic_stringbuf@DU?$char_traits@D@std@@V?$allocator@D@2@@std@@MAEHXZ ; std::basic_stringbuf<char,std::char_traits<char>,std::allocator<char> >::underflow
PUBLIC	?seekoff@?$basic_stringbuf@DU?$char_traits@D@std@@V?$allocator@D@2@@std@@MAE?AV?$fpos@H@2@_JHH@Z ; std::basic_stringbuf<char,std::char_traits<char>,std::allocator<char> >::seekoff
PUBLIC	?seekpos@?$basic_stringbuf@DU?$char_traits@D@std@@V?$allocator@D@2@@std@@MAE?AV?$fpos@H@2@V32@H@Z ; std::basic_stringbuf<char,std::char_traits<char>,std::allocator<char> >::seekpos
PUBLIC	?_Init@?$basic_stringbuf@DU?$char_traits@D@std@@V?$allocator@D@2@@std@@IAEXPBDIH@Z ; std::basic_stringbuf<char,std::char_traits<char>,std::allocator<char> >::_Init
PUBLIC	?_Tidy@?$basic_stringbuf@DU?$char_traits@D@std@@V?$allocator@D@2@@std@@IAEXXZ ; std::basic_stringbuf<char,std::char_traits<char>,std::allocator<char> >::_Tidy
PUBLIC	?_Getstate@?$basic_stringbuf@DU?$char_traits@D@std@@V?$allocator@D@2@@std@@AAEHH@Z ; std::basic_stringbuf<char,std::char_traits<char>,std::allocator<char> >::_Getstate
PUBLIC	??_G?$basic_stringbuf@DU?$char_traits@D@std@@V?$allocator@D@2@@std@@UAEPAXI@Z ; std::basic_stringbuf<char,std::char_traits<char>,std::allocator<char> >::`scalar deleting destructor'
PUBLIC	??_G?$basic_stringstream@DU?$char_traits@D@std@@V?$allocator@D@2@@std@@UAEPAXI@Z ; std::basic_stringstream<char,std::char_traits<char>,std::allocator<char> >::`scalar deleting destructor'
PUBLIC	??_D?$basic_stringstream@DU?$char_traits@D@std@@V?$allocator@D@2@@std@@QAEXXZ ; std::basic_stringstream<char,std::char_traits<char>,std::allocator<char> >::`vbase destructor'
PUBLIC	??$getline@DU?$char_traits@D@std@@V?$allocator@D@2@@std@@YAAAV?$basic_istream@DU?$char_traits@D@std@@@0@AAV10@AAV?$basic_string@DU?$char_traits@D@std@@V?$allocator@D@2@@0@D@Z ; std::getline<char,std::char_traits<char>,std::allocator<char> >
PUBLIC	??$getline@DU?$char_traits@D@std@@V?$allocator@D@2@@std@@YAAAV?$basic_istream@DU?$char_traits@D@std@@@0@$$QAV10@AAV?$basic_string@DU?$char_traits@D@std@@V?$allocator@D@2@@0@D@Z ; std::getline<char,std::char_traits<char>,std::allocator<char> >
PUBLIC	?Set_Next@?$SLNode@VMC_Objective@@@@QAEXPAV1@@Z	; SLNode<MC_Objective>::Set_Next
PUBLIC	?Next@?$SLNode@VMC_Objective@@@@QBEPAV1@XZ	; SLNode<MC_Objective>::Next
PUBLIC	?Data@?$SLNode@VMC_Objective@@@@QBEPAVMC_Objective@@XZ ; SLNode<MC_Objective>::Data
PUBLIC	??0?$SLNode@VMC_Objective@@@@IAE@PAVMC_Objective@@@Z ; SLNode<MC_Objective>::SLNode<MC_Objective>
PUBLIC	?Send_Debug_Message@MC_Objective_Listener@@AAEXPBD@Z ; MC_Objective_Listener::Send_Debug_Message
PUBLIC	?Created@MC_Objective_Listener@@EAEXPAVScriptableGameObj@@@Z ; MC_Objective_Listener::Created
PUBLIC	?Killed@MC_Objective_Listener@@EAEXPAVScriptableGameObj@@0@Z ; MC_Objective_Listener::Killed
PUBLIC	?Destroyed@MC_Objective_Listener@@EAEXPAVScriptableGameObj@@@Z ; MC_Objective_Listener::Destroyed
PUBLIC	?Poked@MC_Objective_Listener@@EAEXPAVScriptableGameObj@@0@Z ; MC_Objective_Listener::Poked
PUBLIC	?Entered@MC_Objective_Listener@@EAEXPAVScriptableGameObj@@0@Z ; MC_Objective_Listener::Entered
PUBLIC	?Custom@MC_Objective_Listener@@EAEXPAVScriptableGameObj@@HH0@Z ; MC_Objective_Listener::Custom
PUBLIC	??0MC_Objective_Listener@@QAE@XZ		; MC_Objective_Listener::MC_Objective_Listener
PUBLIC	??1MC_Objective_Listener@@UAE@XZ		; MC_Objective_Listener::~MC_Objective_Listener
PUBLIC	??_GMC_Objective_Listener@@UAEPAXI@Z		; MC_Objective_Listener::`scalar deleting destructor'
PUBLIC	?Created@MC_Destroy_When_Objective_Completed@@EAEXPAVScriptableGameObj@@@Z ; MC_Destroy_When_Objective_Completed::Created
PUBLIC	?Timer_Expired@MC_Destroy_When_Objective_Completed@@EAEXPAVScriptableGameObj@@H@Z ; MC_Destroy_When_Objective_Completed::Timer_Expired
PUBLIC	??0MC_Destroy_When_Objective_Completed@@QAE@XZ	; MC_Destroy_When_Objective_Completed::MC_Destroy_When_Objective_Completed
PUBLIC	??1MC_Destroy_When_Objective_Completed@@UAE@XZ	; MC_Destroy_When_Objective_Completed::~MC_Destroy_When_Objective_Completed
PUBLIC	??_GMC_Destroy_When_Objective_Completed@@UAEPAXI@Z ; MC_Destroy_When_Objective_Completed::`scalar deleting destructor'
PUBLIC	?Entered@MC_Select_Weapon_On_Zone_Enter@@EAEXPAVScriptableGameObj@@0@Z ; MC_Select_Weapon_On_Zone_Enter::Entered
PUBLIC	??0MC_Select_Weapon_On_Zone_Enter@@QAE@XZ	; MC_Select_Weapon_On_Zone_Enter::MC_Select_Weapon_On_Zone_Enter
PUBLIC	??1MC_Select_Weapon_On_Zone_Enter@@UAE@XZ	; MC_Select_Weapon_On_Zone_Enter::~MC_Select_Weapon_On_Zone_Enter
PUBLIC	??_GMC_Select_Weapon_On_Zone_Enter@@UAEPAXI@Z	; MC_Select_Weapon_On_Zone_Enter::`scalar deleting destructor'
PUBLIC	?Exited@MC_Select_Weapon_On_Zone_Exit@@EAEXPAVScriptableGameObj@@0@Z ; MC_Select_Weapon_On_Zone_Exit::Exited
PUBLIC	??0MC_Select_Weapon_On_Zone_Exit@@QAE@XZ	; MC_Select_Weapon_On_Zone_Exit::MC_Select_Weapon_On_Zone_Exit
PUBLIC	??1MC_Select_Weapon_On_Zone_Exit@@UAE@XZ	; MC_Select_Weapon_On_Zone_Exit::~MC_Select_Weapon_On_Zone_Exit
PUBLIC	??_GMC_Select_Weapon_On_Zone_Exit@@UAEPAXI@Z	; MC_Select_Weapon_On_Zone_Exit::`scalar deleting destructor'
PUBLIC	?Entered@MC_Select_Weapon_On_Zone@@EAEXPAVScriptableGameObj@@0@Z ; MC_Select_Weapon_On_Zone::Entered
PUBLIC	?Exited@MC_Select_Weapon_On_Zone@@EAEXPAVScriptableGameObj@@0@Z ; MC_Select_Weapon_On_Zone::Exited
PUBLIC	??0MC_Select_Weapon_On_Zone@@QAE@XZ		; MC_Select_Weapon_On_Zone::MC_Select_Weapon_On_Zone
PUBLIC	??1MC_Select_Weapon_On_Zone@@UAE@XZ		; MC_Select_Weapon_On_Zone::~MC_Select_Weapon_On_Zone
PUBLIC	??_GMC_Select_Weapon_On_Zone@@UAEPAXI@Z		; MC_Select_Weapon_On_Zone::`scalar deleting destructor'
PUBLIC	?Register_Auto_Save_Variables@MC_Chinook_Reinforcements_Paradrop@@UAEXXZ ; MC_Chinook_Reinforcements_Paradrop::Register_Auto_Save_Variables
PUBLIC	?Send_Debug_Message@MC_Chinook_Reinforcements_Paradrop@@AAAXPBDZZ ; MC_Chinook_Reinforcements_Paradrop::Send_Debug_Message
PUBLIC	?Check_Object@MC_Chinook_Reinforcements_Paradrop@@AAE_NPAVScriptableGameObj@@@Z ; MC_Chinook_Reinforcements_Paradrop::Check_Object
PUBLIC	?Created@MC_Chinook_Reinforcements_Paradrop@@EAEXPAVScriptableGameObj@@@Z ; MC_Chinook_Reinforcements_Paradrop::Created
PUBLIC	?Custom@MC_Chinook_Reinforcements_Paradrop@@EAEXPAVScriptableGameObj@@HH0@Z ; MC_Chinook_Reinforcements_Paradrop::Custom
PUBLIC	?Timer_Expired@MC_Chinook_Reinforcements_Paradrop@@EAEXPAVScriptableGameObj@@H@Z ; MC_Chinook_Reinforcements_Paradrop::Timer_Expired
PUBLIC	??0MC_Chinook_Reinforcements_Paradrop@@QAE@XZ	; MC_Chinook_Reinforcements_Paradrop::MC_Chinook_Reinforcements_Paradrop
PUBLIC	??1MC_Chinook_Reinforcements_Paradrop@@UAE@XZ	; MC_Chinook_Reinforcements_Paradrop::~MC_Chinook_Reinforcements_Paradrop
PUBLIC	??_GMC_Chinook_Reinforcements_Paradrop@@UAEPAXI@Z ; MC_Chinook_Reinforcements_Paradrop::`scalar deleting destructor'
PUBLIC	?Custom@MC_Unkillable_Until_Custom@@EAEXPAVScriptableGameObj@@HH0@Z ; MC_Unkillable_Until_Custom::Custom
PUBLIC	?Damaged@MC_Unkillable_Until_Custom@@EAEXPAVScriptableGameObj@@0M@Z ; MC_Unkillable_Until_Custom::Damaged
PUBLIC	??0MC_Unkillable_Until_Custom@@QAE@XZ		; MC_Unkillable_Until_Custom::MC_Unkillable_Until_Custom
PUBLIC	??1MC_Unkillable_Until_Custom@@UAE@XZ		; MC_Unkillable_Until_Custom::~MC_Unkillable_Until_Custom
PUBLIC	??_GMC_Unkillable_Until_Custom@@UAEPAXI@Z	; MC_Unkillable_Until_Custom::`scalar deleting destructor'
PUBLIC	?Killed@MC_AttachScript_On_Kill@@EAEXPAVScriptableGameObj@@0@Z ; MC_AttachScript_On_Kill::Killed
PUBLIC	?Destroyed@MC_AttachScript_On_Kill@@EAEXPAVScriptableGameObj@@@Z ; MC_AttachScript_On_Kill::Destroyed
PUBLIC	??0MC_AttachScript_On_Kill@@QAE@XZ		; MC_AttachScript_On_Kill::MC_AttachScript_On_Kill
PUBLIC	??1MC_AttachScript_On_Kill@@UAE@XZ		; MC_AttachScript_On_Kill::~MC_AttachScript_On_Kill
PUBLIC	??_GMC_AttachScript_On_Kill@@UAEPAXI@Z		; MC_AttachScript_On_Kill::`scalar deleting destructor'
PUBLIC	?Created@MC_AttachScript_Interval_Self@@EAEXPAVScriptableGameObj@@@Z ; MC_AttachScript_Interval_Self::Created
PUBLIC	?Timer_Expired@MC_AttachScript_Interval_Self@@EAEXPAVScriptableGameObj@@H@Z ; MC_AttachScript_Interval_Self::Timer_Expired
PUBLIC	??0MC_AttachScript_Interval_Self@@QAE@XZ	; MC_AttachScript_Interval_Self::MC_AttachScript_Interval_Self
PUBLIC	??1MC_AttachScript_Interval_Self@@UAE@XZ	; MC_AttachScript_Interval_Self::~MC_AttachScript_Interval_Self
PUBLIC	??_GMC_AttachScript_Interval_Self@@UAEPAXI@Z	; MC_AttachScript_Interval_Self::`scalar deleting destructor'
PUBLIC	?Created@MC_AttachScript_Interval@@EAEXPAVScriptableGameObj@@@Z ; MC_AttachScript_Interval::Created
PUBLIC	?Timer_Expired@MC_AttachScript_Interval@@EAEXPAVScriptableGameObj@@H@Z ; MC_AttachScript_Interval::Timer_Expired
PUBLIC	??0MC_AttachScript_Interval@@QAE@XZ		; MC_AttachScript_Interval::MC_AttachScript_Interval
PUBLIC	??1MC_AttachScript_Interval@@UAE@XZ		; MC_AttachScript_Interval::~MC_AttachScript_Interval
PUBLIC	??_GMC_AttachScript_Interval@@UAEPAXI@Z		; MC_AttachScript_Interval::`scalar deleting destructor'
PUBLIC	?Created@MC_Private_Color_Message_On_Poke@@EAEXPAVScriptableGameObj@@@Z ; MC_Private_Color_Message_On_Poke::Created
PUBLIC	?Timer_Expired@MC_Private_Color_Message_On_Poke@@EAEXPAVScriptableGameObj@@H@Z ; MC_Private_Color_Message_On_Poke::Timer_Expired
PUBLIC	?Poked@MC_Private_Color_Message_On_Poke@@EAEXPAVScriptableGameObj@@0@Z ; MC_Private_Color_Message_On_Poke::Poked
PUBLIC	??0MC_Private_Color_Message_On_Poke@@QAE@XZ	; MC_Private_Color_Message_On_Poke::MC_Private_Color_Message_On_Poke
PUBLIC	??1MC_Private_Color_Message_On_Poke@@UAE@XZ	; MC_Private_Color_Message_On_Poke::~MC_Private_Color_Message_On_Poke
PUBLIC	??_GMC_Private_Color_Message_On_Poke@@UAEPAXI@Z	; MC_Private_Color_Message_On_Poke::`scalar deleting destructor'
PUBLIC	??0?$ScriptRegistrant@VMC_Stop_Vehicle_Engine@@@@QAE@PBD0@Z ; ScriptRegistrant<MC_Stop_Vehicle_Engine>::ScriptRegistrant<MC_Stop_Vehicle_Engine>
PUBLIC	?Create@?$ScriptRegistrant@VMC_Stop_Vehicle_Engine@@@@UAEPAVScriptImpClass@@XZ ; ScriptRegistrant<MC_Stop_Vehicle_Engine>::Create
PUBLIC	??1?$ScriptRegistrant@VMC_Stop_Vehicle_Engine@@@@UAE@XZ ; ScriptRegistrant<MC_Stop_Vehicle_Engine>::~ScriptRegistrant<MC_Stop_Vehicle_Engine>
PUBLIC	??_G?$ScriptRegistrant@VMC_Stop_Vehicle_Engine@@@@UAEPAXI@Z ; ScriptRegistrant<MC_Stop_Vehicle_Engine>::`scalar deleting destructor'
PUBLIC	??0?$ScriptRegistrant@VMC_Vehicle_Purchase_Terminal@@@@QAE@PBD0@Z ; ScriptRegistrant<MC_Vehicle_Purchase_Terminal>::ScriptRegistrant<MC_Vehicle_Purchase_Terminal>
PUBLIC	?Create@?$ScriptRegistrant@VMC_Vehicle_Purchase_Terminal@@@@UAEPAVScriptImpClass@@XZ ; ScriptRegistrant<MC_Vehicle_Purchase_Terminal>::Create
PUBLIC	??1?$ScriptRegistrant@VMC_Vehicle_Purchase_Terminal@@@@UAE@XZ ; ScriptRegistrant<MC_Vehicle_Purchase_Terminal>::~ScriptRegistrant<MC_Vehicle_Purchase_Terminal>
PUBLIC	??_G?$ScriptRegistrant@VMC_Vehicle_Purchase_Terminal@@@@UAEPAXI@Z ; ScriptRegistrant<MC_Vehicle_Purchase_Terminal>::`scalar deleting destructor'
PUBLIC	??0?$ScriptRegistrant@VMC_Character_Purchase_Terminal@@@@QAE@PBD0@Z ; ScriptRegistrant<MC_Character_Purchase_Terminal>::ScriptRegistrant<MC_Character_Purchase_Terminal>
PUBLIC	?Create@?$ScriptRegistrant@VMC_Character_Purchase_Terminal@@@@UAEPAVScriptImpClass@@XZ ; ScriptRegistrant<MC_Character_Purchase_Terminal>::Create
PUBLIC	??1?$ScriptRegistrant@VMC_Character_Purchase_Terminal@@@@UAE@XZ ; ScriptRegistrant<MC_Character_Purchase_Terminal>::~ScriptRegistrant<MC_Character_Purchase_Terminal>
PUBLIC	??_G?$ScriptRegistrant@VMC_Character_Purchase_Terminal@@@@UAEPAXI@Z ; ScriptRegistrant<MC_Character_Purchase_Terminal>::`scalar deleting destructor'
PUBLIC	??0?$ScriptRegistrant@VMC_HUD_Message_Zone@@@@QAE@PBD0@Z ; ScriptRegistrant<MC_HUD_Message_Zone>::ScriptRegistrant<MC_HUD_Message_Zone>
PUBLIC	?Create@?$ScriptRegistrant@VMC_HUD_Message_Zone@@@@UAEPAVScriptImpClass@@XZ ; ScriptRegistrant<MC_HUD_Message_Zone>::Create
PUBLIC	??1?$ScriptRegistrant@VMC_HUD_Message_Zone@@@@UAE@XZ ; ScriptRegistrant<MC_HUD_Message_Zone>::~ScriptRegistrant<MC_HUD_Message_Zone>
PUBLIC	??_G?$ScriptRegistrant@VMC_HUD_Message_Zone@@@@UAEPAXI@Z ; ScriptRegistrant<MC_HUD_Message_Zone>::`scalar deleting destructor'
PUBLIC	??0?$ScriptRegistrant@VMC_Teleport@@@@QAE@PBD0@Z ; ScriptRegistrant<MC_Teleport>::ScriptRegistrant<MC_Teleport>
PUBLIC	?Create@?$ScriptRegistrant@VMC_Teleport@@@@UAEPAVScriptImpClass@@XZ ; ScriptRegistrant<MC_Teleport>::Create
PUBLIC	??1?$ScriptRegistrant@VMC_Teleport@@@@UAE@XZ	; ScriptRegistrant<MC_Teleport>::~ScriptRegistrant<MC_Teleport>
PUBLIC	??_G?$ScriptRegistrant@VMC_Teleport@@@@UAEPAXI@Z ; ScriptRegistrant<MC_Teleport>::`scalar deleting destructor'
PUBLIC	??0?$ScriptRegistrant@VMC_Change_Vehicle_Weapon@@@@QAE@PBD0@Z ; ScriptRegistrant<MC_Change_Vehicle_Weapon>::ScriptRegistrant<MC_Change_Vehicle_Weapon>
PUBLIC	?Create@?$ScriptRegistrant@VMC_Change_Vehicle_Weapon@@@@UAEPAVScriptImpClass@@XZ ; ScriptRegistrant<MC_Change_Vehicle_Weapon>::Create
PUBLIC	??1?$ScriptRegistrant@VMC_Change_Vehicle_Weapon@@@@UAE@XZ ; ScriptRegistrant<MC_Change_Vehicle_Weapon>::~ScriptRegistrant<MC_Change_Vehicle_Weapon>
PUBLIC	??_G?$ScriptRegistrant@VMC_Change_Vehicle_Weapon@@@@UAEPAXI@Z ; ScriptRegistrant<MC_Change_Vehicle_Weapon>::`scalar deleting destructor'
PUBLIC	??0?$ScriptRegistrant@VMC_Change_Vehicle_Weapon_Zone@@@@QAE@PBD0@Z ; ScriptRegistrant<MC_Change_Vehicle_Weapon_Zone>::ScriptRegistrant<MC_Change_Vehicle_Weapon_Zone>
PUBLIC	?Create@?$ScriptRegistrant@VMC_Change_Vehicle_Weapon_Zone@@@@UAEPAVScriptImpClass@@XZ ; ScriptRegistrant<MC_Change_Vehicle_Weapon_Zone>::Create
PUBLIC	??1?$ScriptRegistrant@VMC_Change_Vehicle_Weapon_Zone@@@@UAE@XZ ; ScriptRegistrant<MC_Change_Vehicle_Weapon_Zone>::~ScriptRegistrant<MC_Change_Vehicle_Weapon_Zone>
PUBLIC	??_G?$ScriptRegistrant@VMC_Change_Vehicle_Weapon_Zone@@@@UAEPAXI@Z ; ScriptRegistrant<MC_Change_Vehicle_Weapon_Zone>::`scalar deleting destructor'
PUBLIC	??0?$ScriptRegistrant@VMC_Grant_Weapon@@@@QAE@PBD0@Z ; ScriptRegistrant<MC_Grant_Weapon>::ScriptRegistrant<MC_Grant_Weapon>
PUBLIC	?Create@?$ScriptRegistrant@VMC_Grant_Weapon@@@@UAEPAVScriptImpClass@@XZ ; ScriptRegistrant<MC_Grant_Weapon>::Create
PUBLIC	??1?$ScriptRegistrant@VMC_Grant_Weapon@@@@UAE@XZ ; ScriptRegistrant<MC_Grant_Weapon>::~ScriptRegistrant<MC_Grant_Weapon>
PUBLIC	??_G?$ScriptRegistrant@VMC_Grant_Weapon@@@@UAEPAXI@Z ; ScriptRegistrant<MC_Grant_Weapon>::`scalar deleting destructor'
PUBLIC	??0?$ScriptRegistrant@VMC_Grant_Weapon_Zone@@@@QAE@PBD0@Z ; ScriptRegistrant<MC_Grant_Weapon_Zone>::ScriptRegistrant<MC_Grant_Weapon_Zone>
PUBLIC	?Create@?$ScriptRegistrant@VMC_Grant_Weapon_Zone@@@@UAEPAVScriptImpClass@@XZ ; ScriptRegistrant<MC_Grant_Weapon_Zone>::Create
PUBLIC	??1?$ScriptRegistrant@VMC_Grant_Weapon_Zone@@@@UAE@XZ ; ScriptRegistrant<MC_Grant_Weapon_Zone>::~ScriptRegistrant<MC_Grant_Weapon_Zone>
PUBLIC	??_G?$ScriptRegistrant@VMC_Grant_Weapon_Zone@@@@UAEPAXI@Z ; ScriptRegistrant<MC_Grant_Weapon_Zone>::`scalar deleting destructor'
PUBLIC	??0?$ScriptRegistrant@VMC_Grant_Character@@@@QAE@PBD0@Z ; ScriptRegistrant<MC_Grant_Character>::ScriptRegistrant<MC_Grant_Character>
PUBLIC	?Create@?$ScriptRegistrant@VMC_Grant_Character@@@@UAEPAVScriptImpClass@@XZ ; ScriptRegistrant<MC_Grant_Character>::Create
PUBLIC	??1?$ScriptRegistrant@VMC_Grant_Character@@@@UAE@XZ ; ScriptRegistrant<MC_Grant_Character>::~ScriptRegistrant<MC_Grant_Character>
PUBLIC	??_G?$ScriptRegistrant@VMC_Grant_Character@@@@UAEPAXI@Z ; ScriptRegistrant<MC_Grant_Character>::`scalar deleting destructor'
PUBLIC	??0?$ScriptRegistrant@VMC_Grant_Character_Zone@@@@QAE@PBD0@Z ; ScriptRegistrant<MC_Grant_Character_Zone>::ScriptRegistrant<MC_Grant_Character_Zone>
PUBLIC	?Create@?$ScriptRegistrant@VMC_Grant_Character_Zone@@@@UAEPAVScriptImpClass@@XZ ; ScriptRegistrant<MC_Grant_Character_Zone>::Create
PUBLIC	??1?$ScriptRegistrant@VMC_Grant_Character_Zone@@@@UAE@XZ ; ScriptRegistrant<MC_Grant_Character_Zone>::~ScriptRegistrant<MC_Grant_Character_Zone>
PUBLIC	??_G?$ScriptRegistrant@VMC_Grant_Character_Zone@@@@UAEPAXI@Z ; ScriptRegistrant<MC_Grant_Character_Zone>::`scalar deleting destructor'
PUBLIC	??0?$ScriptRegistrant@VMC_Spawn_When_Fully_Repaired@@@@QAE@PBD0@Z ; ScriptRegistrant<MC_Spawn_When_Fully_Repaired>::ScriptRegistrant<MC_Spawn_When_Fully_Repaired>
PUBLIC	?Create@?$ScriptRegistrant@VMC_Spawn_When_Fully_Repaired@@@@UAEPAVScriptImpClass@@XZ ; ScriptRegistrant<MC_Spawn_When_Fully_Repaired>::Create
PUBLIC	??1?$ScriptRegistrant@VMC_Spawn_When_Fully_Repaired@@@@UAE@XZ ; ScriptRegistrant<MC_Spawn_When_Fully_Repaired>::~ScriptRegistrant<MC_Spawn_When_Fully_Repaired>
PUBLIC	??_G?$ScriptRegistrant@VMC_Spawn_When_Fully_Repaired@@@@UAEPAXI@Z ; ScriptRegistrant<MC_Spawn_When_Fully_Repaired>::`scalar deleting destructor'
PUBLIC	??0?$ScriptRegistrant@VMC_Refinery_Object@@@@QAE@PBD0@Z ; ScriptRegistrant<MC_Refinery_Object>::ScriptRegistrant<MC_Refinery_Object>
PUBLIC	?Create@?$ScriptRegistrant@VMC_Refinery_Object@@@@UAEPAVScriptImpClass@@XZ ; ScriptRegistrant<MC_Refinery_Object>::Create
PUBLIC	??1?$ScriptRegistrant@VMC_Refinery_Object@@@@UAE@XZ ; ScriptRegistrant<MC_Refinery_Object>::~ScriptRegistrant<MC_Refinery_Object>
PUBLIC	??_G?$ScriptRegistrant@VMC_Refinery_Object@@@@UAEPAXI@Z ; ScriptRegistrant<MC_Refinery_Object>::`scalar deleting destructor'
PUBLIC	??0?$ScriptRegistrant@VMC_GameOver_When_Kill@@@@QAE@PBD0@Z ; ScriptRegistrant<MC_GameOver_When_Kill>::ScriptRegistrant<MC_GameOver_When_Kill>
PUBLIC	?Create@?$ScriptRegistrant@VMC_GameOver_When_Kill@@@@UAEPAVScriptImpClass@@XZ ; ScriptRegistrant<MC_GameOver_When_Kill>::Create
PUBLIC	??1?$ScriptRegistrant@VMC_GameOver_When_Kill@@@@UAE@XZ ; ScriptRegistrant<MC_GameOver_When_Kill>::~ScriptRegistrant<MC_GameOver_When_Kill>
PUBLIC	??_G?$ScriptRegistrant@VMC_GameOver_When_Kill@@@@UAEPAXI@Z ; ScriptRegistrant<MC_GameOver_When_Kill>::`scalar deleting destructor'
PUBLIC	??0?$ScriptRegistrant@VMC_Spawn_When_Death@@@@QAE@PBD0@Z ; ScriptRegistrant<MC_Spawn_When_Death>::ScriptRegistrant<MC_Spawn_When_Death>
PUBLIC	?Create@?$ScriptRegistrant@VMC_Spawn_When_Death@@@@UAEPAVScriptImpClass@@XZ ; ScriptRegistrant<MC_Spawn_When_Death>::Create
PUBLIC	??1?$ScriptRegistrant@VMC_Spawn_When_Death@@@@UAE@XZ ; ScriptRegistrant<MC_Spawn_When_Death>::~ScriptRegistrant<MC_Spawn_When_Death>
PUBLIC	??_G?$ScriptRegistrant@VMC_Spawn_When_Death@@@@UAEPAXI@Z ; ScriptRegistrant<MC_Spawn_When_Death>::`scalar deleting destructor'
PUBLIC	??0?$ScriptRegistrant@VMC_MasterControlTerminal_Object@@@@QAE@PBD0@Z ; ScriptRegistrant<MC_MasterControlTerminal_Object>::ScriptRegistrant<MC_MasterControlTerminal_Object>
PUBLIC	?Create@?$ScriptRegistrant@VMC_MasterControlTerminal_Object@@@@UAEPAVScriptImpClass@@XZ ; ScriptRegistrant<MC_MasterControlTerminal_Object>::Create
PUBLIC	??1?$ScriptRegistrant@VMC_MasterControlTerminal_Object@@@@UAE@XZ ; ScriptRegistrant<MC_MasterControlTerminal_Object>::~ScriptRegistrant<MC_MasterControlTerminal_Object>
PUBLIC	??_G?$ScriptRegistrant@VMC_MasterControlTerminal_Object@@@@UAEPAXI@Z ; ScriptRegistrant<MC_MasterControlTerminal_Object>::`scalar deleting destructor'
PUBLIC	??0?$ScriptRegistrant@VMC_MCTMainSyncObject@@@@QAE@PBD0@Z ; ScriptRegistrant<MC_MCTMainSyncObject>::ScriptRegistrant<MC_MCTMainSyncObject>
PUBLIC	?Create@?$ScriptRegistrant@VMC_MCTMainSyncObject@@@@UAEPAVScriptImpClass@@XZ ; ScriptRegistrant<MC_MCTMainSyncObject>::Create
PUBLIC	??1?$ScriptRegistrant@VMC_MCTMainSyncObject@@@@UAE@XZ ; ScriptRegistrant<MC_MCTMainSyncObject>::~ScriptRegistrant<MC_MCTMainSyncObject>
PUBLIC	??_G?$ScriptRegistrant@VMC_MCTMainSyncObject@@@@UAEPAXI@Z ; ScriptRegistrant<MC_MCTMainSyncObject>::`scalar deleting destructor'
PUBLIC	??0?$ScriptRegistrant@VMC_Set_Team_When_Exit@@@@QAE@PBD0@Z ; ScriptRegistrant<MC_Set_Team_When_Exit>::ScriptRegistrant<MC_Set_Team_When_Exit>
PUBLIC	?Create@?$ScriptRegistrant@VMC_Set_Team_When_Exit@@@@UAEPAVScriptImpClass@@XZ ; ScriptRegistrant<MC_Set_Team_When_Exit>::Create
PUBLIC	??1?$ScriptRegistrant@VMC_Set_Team_When_Exit@@@@UAE@XZ ; ScriptRegistrant<MC_Set_Team_When_Exit>::~ScriptRegistrant<MC_Set_Team_When_Exit>
PUBLIC	??_G?$ScriptRegistrant@VMC_Set_Team_When_Exit@@@@UAEPAXI@Z ; ScriptRegistrant<MC_Set_Team_When_Exit>::`scalar deleting destructor'
PUBLIC	??0?$ScriptRegistrant@VMC_IonExplosion_When_Death@@@@QAE@PBD0@Z ; ScriptRegistrant<MC_IonExplosion_When_Death>::ScriptRegistrant<MC_IonExplosion_When_Death>
PUBLIC	?Create@?$ScriptRegistrant@VMC_IonExplosion_When_Death@@@@UAEPAVScriptImpClass@@XZ ; ScriptRegistrant<MC_IonExplosion_When_Death>::Create
PUBLIC	??1?$ScriptRegistrant@VMC_IonExplosion_When_Death@@@@UAE@XZ ; ScriptRegistrant<MC_IonExplosion_When_Death>::~ScriptRegistrant<MC_IonExplosion_When_Death>
PUBLIC	??_G?$ScriptRegistrant@VMC_IonExplosion_When_Death@@@@UAEPAXI@Z ; ScriptRegistrant<MC_IonExplosion_When_Death>::`scalar deleting destructor'
PUBLIC	??0?$ScriptRegistrant@VMC_Capturable_Object@@@@QAE@PBD0@Z ; ScriptRegistrant<MC_Capturable_Object>::ScriptRegistrant<MC_Capturable_Object>
PUBLIC	?Create@?$ScriptRegistrant@VMC_Capturable_Object@@@@UAEPAVScriptImpClass@@XZ ; ScriptRegistrant<MC_Capturable_Object>::Create
PUBLIC	??1?$ScriptRegistrant@VMC_Capturable_Object@@@@UAE@XZ ; ScriptRegistrant<MC_Capturable_Object>::~ScriptRegistrant<MC_Capturable_Object>
PUBLIC	??_G?$ScriptRegistrant@VMC_Capturable_Object@@@@UAEPAXI@Z ; ScriptRegistrant<MC_Capturable_Object>::`scalar deleting destructor'
PUBLIC	??0?$ScriptRegistrant@VMC_FlyMode_On@@@@QAE@PBD0@Z ; ScriptRegistrant<MC_FlyMode_On>::ScriptRegistrant<MC_FlyMode_On>
PUBLIC	?Create@?$ScriptRegistrant@VMC_FlyMode_On@@@@UAEPAVScriptImpClass@@XZ ; ScriptRegistrant<MC_FlyMode_On>::Create
PUBLIC	??1?$ScriptRegistrant@VMC_FlyMode_On@@@@UAE@XZ	; ScriptRegistrant<MC_FlyMode_On>::~ScriptRegistrant<MC_FlyMode_On>
PUBLIC	??_G?$ScriptRegistrant@VMC_FlyMode_On@@@@UAEPAXI@Z ; ScriptRegistrant<MC_FlyMode_On>::`scalar deleting destructor'
PUBLIC	??0?$ScriptRegistrant@VMC_FlyMode_Off@@@@QAE@PBD0@Z ; ScriptRegistrant<MC_FlyMode_Off>::ScriptRegistrant<MC_FlyMode_Off>
PUBLIC	?Create@?$ScriptRegistrant@VMC_FlyMode_Off@@@@UAEPAVScriptImpClass@@XZ ; ScriptRegistrant<MC_FlyMode_Off>::Create
PUBLIC	??1?$ScriptRegistrant@VMC_FlyMode_Off@@@@UAE@XZ	; ScriptRegistrant<MC_FlyMode_Off>::~ScriptRegistrant<MC_FlyMode_Off>
PUBLIC	??_G?$ScriptRegistrant@VMC_FlyMode_Off@@@@UAEPAXI@Z ; ScriptRegistrant<MC_FlyMode_Off>::`scalar deleting destructor'
PUBLIC	??0?$ScriptRegistrant@VMC_FlyModeZone_On@@@@QAE@PBD0@Z ; ScriptRegistrant<MC_FlyModeZone_On>::ScriptRegistrant<MC_FlyModeZone_On>
PUBLIC	?Create@?$ScriptRegistrant@VMC_FlyModeZone_On@@@@UAEPAVScriptImpClass@@XZ ; ScriptRegistrant<MC_FlyModeZone_On>::Create
PUBLIC	??1?$ScriptRegistrant@VMC_FlyModeZone_On@@@@UAE@XZ ; ScriptRegistrant<MC_FlyModeZone_On>::~ScriptRegistrant<MC_FlyModeZone_On>
PUBLIC	??_G?$ScriptRegistrant@VMC_FlyModeZone_On@@@@UAEPAXI@Z ; ScriptRegistrant<MC_FlyModeZone_On>::`scalar deleting destructor'
PUBLIC	??0?$ScriptRegistrant@VMC_FlyModeZone_Off@@@@QAE@PBD0@Z ; ScriptRegistrant<MC_FlyModeZone_Off>::ScriptRegistrant<MC_FlyModeZone_Off>
PUBLIC	?Create@?$ScriptRegistrant@VMC_FlyModeZone_Off@@@@UAEPAVScriptImpClass@@XZ ; ScriptRegistrant<MC_FlyModeZone_Off>::Create
PUBLIC	??1?$ScriptRegistrant@VMC_FlyModeZone_Off@@@@UAE@XZ ; ScriptRegistrant<MC_FlyModeZone_Off>::~ScriptRegistrant<MC_FlyModeZone_Off>
PUBLIC	??_G?$ScriptRegistrant@VMC_FlyModeZone_Off@@@@UAEPAXI@Z ; ScriptRegistrant<MC_FlyModeZone_Off>::`scalar deleting destructor'
PUBLIC	??0?$ScriptRegistrant@VMC_Spectate@@@@QAE@PBD0@Z ; ScriptRegistrant<MC_Spectate>::ScriptRegistrant<MC_Spectate>
PUBLIC	?Create@?$ScriptRegistrant@VMC_Spectate@@@@UAEPAVScriptImpClass@@XZ ; ScriptRegistrant<MC_Spectate>::Create
PUBLIC	??1?$ScriptRegistrant@VMC_Spectate@@@@UAE@XZ	; ScriptRegistrant<MC_Spectate>::~ScriptRegistrant<MC_Spectate>
PUBLIC	??_G?$ScriptRegistrant@VMC_Spectate@@@@UAEPAXI@Z ; ScriptRegistrant<MC_Spectate>::`scalar deleting destructor'
PUBLIC	??0?$ScriptRegistrant@VMC_Spectate_Zone@@@@QAE@PBD0@Z ; ScriptRegistrant<MC_Spectate_Zone>::ScriptRegistrant<MC_Spectate_Zone>
PUBLIC	?Create@?$ScriptRegistrant@VMC_Spectate_Zone@@@@UAEPAVScriptImpClass@@XZ ; ScriptRegistrant<MC_Spectate_Zone>::Create
PUBLIC	??1?$ScriptRegistrant@VMC_Spectate_Zone@@@@UAE@XZ ; ScriptRegistrant<MC_Spectate_Zone>::~ScriptRegistrant<MC_Spectate_Zone>
PUBLIC	??_G?$ScriptRegistrant@VMC_Spectate_Zone@@@@UAEPAXI@Z ; ScriptRegistrant<MC_Spectate_Zone>::`scalar deleting destructor'
PUBLIC	??0?$ScriptRegistrant@VMC_Beacon_Block_Zone@@@@QAE@PBD0@Z ; ScriptRegistrant<MC_Beacon_Block_Zone>::ScriptRegistrant<MC_Beacon_Block_Zone>
PUBLIC	?Create@?$ScriptRegistrant@VMC_Beacon_Block_Zone@@@@UAEPAVScriptImpClass@@XZ ; ScriptRegistrant<MC_Beacon_Block_Zone>::Create
PUBLIC	??1?$ScriptRegistrant@VMC_Beacon_Block_Zone@@@@UAE@XZ ; ScriptRegistrant<MC_Beacon_Block_Zone>::~ScriptRegistrant<MC_Beacon_Block_Zone>
PUBLIC	??_G?$ScriptRegistrant@VMC_Beacon_Block_Zone@@@@UAEPAXI@Z ; ScriptRegistrant<MC_Beacon_Block_Zone>::`scalar deleting destructor'
PUBLIC	??0?$ScriptRegistrant@VMC_Objective_Message_Sender@@@@QAE@PBD0@Z ; ScriptRegistrant<MC_Objective_Message_Sender>::ScriptRegistrant<MC_Objective_Message_Sender>
PUBLIC	?Create@?$ScriptRegistrant@VMC_Objective_Message_Sender@@@@UAEPAVScriptImpClass@@XZ ; ScriptRegistrant<MC_Objective_Message_Sender>::Create
PUBLIC	??1?$ScriptRegistrant@VMC_Objective_Message_Sender@@@@UAE@XZ ; ScriptRegistrant<MC_Objective_Message_Sender>::~ScriptRegistrant<MC_Objective_Message_Sender>
PUBLIC	??_G?$ScriptRegistrant@VMC_Objective_Message_Sender@@@@UAEPAXI@Z ; ScriptRegistrant<MC_Objective_Message_Sender>::`scalar deleting destructor'
PUBLIC	??0?$ScriptRegistrant@VMC_Objective_Controller@@@@QAE@PBD0@Z ; ScriptRegistrant<MC_Objective_Controller>::ScriptRegistrant<MC_Objective_Controller>
PUBLIC	?Create@?$ScriptRegistrant@VMC_Objective_Controller@@@@UAEPAVScriptImpClass@@XZ ; ScriptRegistrant<MC_Objective_Controller>::Create
PUBLIC	??1?$ScriptRegistrant@VMC_Objective_Controller@@@@UAE@XZ ; ScriptRegistrant<MC_Objective_Controller>::~ScriptRegistrant<MC_Objective_Controller>
PUBLIC	??_G?$ScriptRegistrant@VMC_Objective_Controller@@@@UAEPAXI@Z ; ScriptRegistrant<MC_Objective_Controller>::`scalar deleting destructor'
PUBLIC	??0?$ScriptRegistrant@VMC_Objective_Listener@@@@QAE@PBD0@Z ; ScriptRegistrant<MC_Objective_Listener>::ScriptRegistrant<MC_Objective_Listener>
PUBLIC	?Create@?$ScriptRegistrant@VMC_Objective_Listener@@@@UAEPAVScriptImpClass@@XZ ; ScriptRegistrant<MC_Objective_Listener>::Create
PUBLIC	??1?$ScriptRegistrant@VMC_Objective_Listener@@@@UAE@XZ ; ScriptRegistrant<MC_Objective_Listener>::~ScriptRegistrant<MC_Objective_Listener>
PUBLIC	??_G?$ScriptRegistrant@VMC_Objective_Listener@@@@UAEPAXI@Z ; ScriptRegistrant<MC_Objective_Listener>::`scalar deleting destructor'
PUBLIC	??0?$ScriptRegistrant@VMC_Objective@@@@QAE@PBD0@Z ; ScriptRegistrant<MC_Objective>::ScriptRegistrant<MC_Objective>
PUBLIC	?Create@?$ScriptRegistrant@VMC_Objective@@@@UAEPAVScriptImpClass@@XZ ; ScriptRegistrant<MC_Objective>::Create
PUBLIC	??1?$ScriptRegistrant@VMC_Objective@@@@UAE@XZ	; ScriptRegistrant<MC_Objective>::~ScriptRegistrant<MC_Objective>
PUBLIC	??_G?$ScriptRegistrant@VMC_Objective@@@@UAEPAXI@Z ; ScriptRegistrant<MC_Objective>::`scalar deleting destructor'
PUBLIC	??0?$ScriptRegistrant@VMC_Destroy_When_Objective_Completed@@@@QAE@PBD0@Z ; ScriptRegistrant<MC_Destroy_When_Objective_Completed>::ScriptRegistrant<MC_Destroy_When_Objective_Completed>
PUBLIC	?Create@?$ScriptRegistrant@VMC_Destroy_When_Objective_Completed@@@@UAEPAVScriptImpClass@@XZ ; ScriptRegistrant<MC_Destroy_When_Objective_Completed>::Create
PUBLIC	??1?$ScriptRegistrant@VMC_Destroy_When_Objective_Completed@@@@UAE@XZ ; ScriptRegistrant<MC_Destroy_When_Objective_Completed>::~ScriptRegistrant<MC_Destroy_When_Objective_Completed>
PUBLIC	??_G?$ScriptRegistrant@VMC_Destroy_When_Objective_Completed@@@@UAEPAXI@Z ; ScriptRegistrant<MC_Destroy_When_Objective_Completed>::`scalar deleting destructor'
PUBLIC	??0?$ScriptRegistrant@VMC_Select_Weapon_On_Zone@@@@QAE@PBD0@Z ; ScriptRegistrant<MC_Select_Weapon_On_Zone>::ScriptRegistrant<MC_Select_Weapon_On_Zone>
PUBLIC	?Create@?$ScriptRegistrant@VMC_Select_Weapon_On_Zone@@@@UAEPAVScriptImpClass@@XZ ; ScriptRegistrant<MC_Select_Weapon_On_Zone>::Create
PUBLIC	??1?$ScriptRegistrant@VMC_Select_Weapon_On_Zone@@@@UAE@XZ ; ScriptRegistrant<MC_Select_Weapon_On_Zone>::~ScriptRegistrant<MC_Select_Weapon_On_Zone>
PUBLIC	??_G?$ScriptRegistrant@VMC_Select_Weapon_On_Zone@@@@UAEPAXI@Z ; ScriptRegistrant<MC_Select_Weapon_On_Zone>::`scalar deleting destructor'
PUBLIC	??0?$ScriptRegistrant@VMC_Select_Weapon_On_Zone_Enter@@@@QAE@PBD0@Z ; ScriptRegistrant<MC_Select_Weapon_On_Zone_Enter>::ScriptRegistrant<MC_Select_Weapon_On_Zone_Enter>
PUBLIC	?Create@?$ScriptRegistrant@VMC_Select_Weapon_On_Zone_Enter@@@@UAEPAVScriptImpClass@@XZ ; ScriptRegistrant<MC_Select_Weapon_On_Zone_Enter>::Create
PUBLIC	??1?$ScriptRegistrant@VMC_Select_Weapon_On_Zone_Enter@@@@UAE@XZ ; ScriptRegistrant<MC_Select_Weapon_On_Zone_Enter>::~ScriptRegistrant<MC_Select_Weapon_On_Zone_Enter>
PUBLIC	??_G?$ScriptRegistrant@VMC_Select_Weapon_On_Zone_Enter@@@@UAEPAXI@Z ; ScriptRegistrant<MC_Select_Weapon_On_Zone_Enter>::`scalar deleting destructor'
PUBLIC	??0?$ScriptRegistrant@VMC_Select_Weapon_On_Zone_Exit@@@@QAE@PBD0@Z ; ScriptRegistrant<MC_Select_Weapon_On_Zone_Exit>::ScriptRegistrant<MC_Select_Weapon_On_Zone_Exit>
PUBLIC	?Create@?$ScriptRegistrant@VMC_Select_Weapon_On_Zone_Exit@@@@UAEPAVScriptImpClass@@XZ ; ScriptRegistrant<MC_Select_Weapon_On_Zone_Exit>::Create
PUBLIC	??1?$ScriptRegistrant@VMC_Select_Weapon_On_Zone_Exit@@@@UAE@XZ ; ScriptRegistrant<MC_Select_Weapon_On_Zone_Exit>::~ScriptRegistrant<MC_Select_Weapon_On_Zone_Exit>
PUBLIC	??_G?$ScriptRegistrant@VMC_Select_Weapon_On_Zone_Exit@@@@UAEPAXI@Z ; ScriptRegistrant<MC_Select_Weapon_On_Zone_Exit>::`scalar deleting destructor'
PUBLIC	??0?$ScriptRegistrant@VMC_Chinook_Reinforcements_Paradrop@@@@QAE@PBD0@Z ; ScriptRegistrant<MC_Chinook_Reinforcements_Paradrop>::ScriptRegistrant<MC_Chinook_Reinforcements_Paradrop>
PUBLIC	?Create@?$ScriptRegistrant@VMC_Chinook_Reinforcements_Paradrop@@@@UAEPAVScriptImpClass@@XZ ; ScriptRegistrant<MC_Chinook_Reinforcements_Paradrop>::Create
PUBLIC	??1?$ScriptRegistrant@VMC_Chinook_Reinforcements_Paradrop@@@@UAE@XZ ; ScriptRegistrant<MC_Chinook_Reinforcements_Paradrop>::~ScriptRegistrant<MC_Chinook_Reinforcements_Paradrop>
PUBLIC	??_G?$ScriptRegistrant@VMC_Chinook_Reinforcements_Paradrop@@@@UAEPAXI@Z ; ScriptRegistrant<MC_Chinook_Reinforcements_Paradrop>::`scalar deleting destructor'
PUBLIC	??0?$ScriptRegistrant@VMC_Unkillable_Until_Custom@@@@QAE@PBD0@Z ; ScriptRegistrant<MC_Unkillable_Until_Custom>::ScriptRegistrant<MC_Unkillable_Until_Custom>
PUBLIC	?Create@?$ScriptRegistrant@VMC_Unkillable_Until_Custom@@@@UAEPAVScriptImpClass@@XZ ; ScriptRegistrant<MC_Unkillable_Until_Custom>::Create
PUBLIC	??1?$ScriptRegistrant@VMC_Unkillable_Until_Custom@@@@UAE@XZ ; ScriptRegistrant<MC_Unkillable_Until_Custom>::~ScriptRegistrant<MC_Unkillable_Until_Custom>
PUBLIC	??_G?$ScriptRegistrant@VMC_Unkillable_Until_Custom@@@@UAEPAXI@Z ; ScriptRegistrant<MC_Unkillable_Until_Custom>::`scalar deleting destructor'
PUBLIC	??0?$ScriptRegistrant@VMC_AttachScript_On_Kill@@@@QAE@PBD0@Z ; ScriptRegistrant<MC_AttachScript_On_Kill>::ScriptRegistrant<MC_AttachScript_On_Kill>
PUBLIC	?Create@?$ScriptRegistrant@VMC_AttachScript_On_Kill@@@@UAEPAVScriptImpClass@@XZ ; ScriptRegistrant<MC_AttachScript_On_Kill>::Create
PUBLIC	??1?$ScriptRegistrant@VMC_AttachScript_On_Kill@@@@UAE@XZ ; ScriptRegistrant<MC_AttachScript_On_Kill>::~ScriptRegistrant<MC_AttachScript_On_Kill>
PUBLIC	??_G?$ScriptRegistrant@VMC_AttachScript_On_Kill@@@@UAEPAXI@Z ; ScriptRegistrant<MC_AttachScript_On_Kill>::`scalar deleting destructor'
PUBLIC	??0?$ScriptRegistrant@VMC_AttachScript_Interval_Self@@@@QAE@PBD0@Z ; ScriptRegistrant<MC_AttachScript_Interval_Self>::ScriptRegistrant<MC_AttachScript_Interval_Self>
PUBLIC	?Create@?$ScriptRegistrant@VMC_AttachScript_Interval_Self@@@@UAEPAVScriptImpClass@@XZ ; ScriptRegistrant<MC_AttachScript_Interval_Self>::Create
PUBLIC	??1?$ScriptRegistrant@VMC_AttachScript_Interval_Self@@@@UAE@XZ ; ScriptRegistrant<MC_AttachScript_Interval_Self>::~ScriptRegistrant<MC_AttachScript_Interval_Self>
PUBLIC	??_G?$ScriptRegistrant@VMC_AttachScript_Interval_Self@@@@UAEPAXI@Z ; ScriptRegistrant<MC_AttachScript_Interval_Self>::`scalar deleting destructor'
PUBLIC	??0?$ScriptRegistrant@VMC_AttachScript_Interval@@@@QAE@PBD0@Z ; ScriptRegistrant<MC_AttachScript_Interval>::ScriptRegistrant<MC_AttachScript_Interval>
PUBLIC	?Create@?$ScriptRegistrant@VMC_AttachScript_Interval@@@@UAEPAVScriptImpClass@@XZ ; ScriptRegistrant<MC_AttachScript_Interval>::Create
PUBLIC	??1?$ScriptRegistrant@VMC_AttachScript_Interval@@@@UAE@XZ ; ScriptRegistrant<MC_AttachScript_Interval>::~ScriptRegistrant<MC_AttachScript_Interval>
PUBLIC	??_G?$ScriptRegistrant@VMC_AttachScript_Interval@@@@UAEPAXI@Z ; ScriptRegistrant<MC_AttachScript_Interval>::`scalar deleting destructor'
PUBLIC	??0?$ScriptRegistrant@VMC_Private_Color_Message_On_Poke@@@@QAE@PBD0@Z ; ScriptRegistrant<MC_Private_Color_Message_On_Poke>::ScriptRegistrant<MC_Private_Color_Message_On_Poke>
PUBLIC	?Create@?$ScriptRegistrant@VMC_Private_Color_Message_On_Poke@@@@UAEPAVScriptImpClass@@XZ ; ScriptRegistrant<MC_Private_Color_Message_On_Poke>::Create
PUBLIC	??1?$ScriptRegistrant@VMC_Private_Color_Message_On_Poke@@@@UAE@XZ ; ScriptRegistrant<MC_Private_Color_Message_On_Poke>::~ScriptRegistrant<MC_Private_Color_Message_On_Poke>
PUBLIC	??_G?$ScriptRegistrant@VMC_Private_Color_Message_On_Poke@@@@UAEPAXI@Z ; ScriptRegistrant<MC_Private_Color_Message_On_Poke>::`scalar deleting destructor'
PUBLIC	?Set_Next@?$SLNode@UKeyHookWrapperStruct@MultiKeyHookScriptImpClass@@@@QAEXPAV1@@Z ; SLNode<MultiKeyHookScriptImpClass::KeyHookWrapperStruct>::Set_Next
PUBLIC	?Next@?$SLNode@UKeyHookWrapperStruct@MultiKeyHookScriptImpClass@@@@QBEPAV1@XZ ; SLNode<MultiKeyHookScriptImpClass::KeyHookWrapperStruct>::Next
PUBLIC	?Data@?$SLNode@UKeyHookWrapperStruct@MultiKeyHookScriptImpClass@@@@QBEPAUKeyHookWrapperStruct@MultiKeyHookScriptImpClass@@XZ ; SLNode<MultiKeyHookScriptImpClass::KeyHookWrapperStruct>::Data
PUBLIC	??0?$SLNode@UKeyHookWrapperStruct@MultiKeyHookScriptImpClass@@@@IAE@PAUKeyHookWrapperStruct@MultiKeyHookScriptImpClass@@@Z ; SLNode<MultiKeyHookScriptImpClass::KeyHookWrapperStruct>::SLNode<MultiKeyHookScriptImpClass::KeyHookWrapperStruct>
PUBLIC	??$forward@V?$basic_string@DU?$char_traits@D@std@@V?$allocator@D@2@@std@@@std@@YA$$QAV?$basic_string@DU?$char_traits@D@std@@V?$allocator@D@2@@0@AAV10@@Z ; std::forward<std::basic_string<char,std::char_traits<char>,std::allocator<char> > >
PUBLIC	??$?9V?$allocator@D@std@@V01@@std@@YA_NABU?$_Wrap_alloc@V?$allocator@D@std@@@0@0@Z ; std::operator!=<std::allocator<char>,std::allocator<char> >
PUBLIC	??0?$_Iterator012@Urandom_access_iterator_tag@std@@DHPBDABDU_Iterator_base12@2@@std@@QAE@XZ ; std::_Iterator012<std::random_access_iterator_tag,char,int,char const *,char const &,std::_Iterator_base12>::_Iterator012<std::random_access_iterator_tag,char,int,char const *,char const &,std::_Iterator_base12>
PUBLIC	??1?$_Iterator012@Urandom_access_iterator_tag@std@@DHPBDABDU_Iterator_base12@2@@std@@QAE@XZ ; std::_Iterator012<std::random_access_iterator_tag,char,int,char const *,char const &,std::_Iterator_base12>::~_Iterator012<std::random_access_iterator_tag,char,int,char const *,char const &,std::_Iterator_base12>
PUBLIC	??0?$_Iterator012@Urandom_access_iterator_tag@std@@DHPBDABDU_Iterator_base12@2@@std@@QAE@ABU01@@Z ; std::_Iterator012<std::random_access_iterator_tag,char,int,char const *,char const &,std::_Iterator_base12>::_Iterator012<std::random_access_iterator_tag,char,int,char const *,char const &,std::_Iterator_base12>
PUBLIC	??0?$_String_const_iterator@V?$_String_val@U?$_Simple_types@D@std@@@std@@@std@@QAE@PBDPBU_Container_base12@1@@Z ; std::_String_const_iterator<std::_String_val<std::_Simple_types<char> > >::_String_const_iterator<std::_String_val<std::_Simple_types<char> > >
PUBLIC	??D?$_String_const_iterator@V?$_String_val@U?$_Simple_types@D@std@@@std@@@std@@QBEABDXZ ; std::_String_const_iterator<std::_String_val<std::_Simple_types<char> > >::operator*
PUBLIC	??G?$_String_const_iterator@V?$_String_val@U?$_Simple_types@D@std@@@std@@@std@@QBEHABV01@@Z ; std::_String_const_iterator<std::_String_val<std::_Simple_types<char> > >::operator-
PUBLIC	??8?$_String_const_iterator@V?$_String_val@U?$_Simple_types@D@std@@@std@@@std@@QBE_NABV01@@Z ; std::_String_const_iterator<std::_String_val<std::_Simple_types<char> > >::operator==
PUBLIC	?_Compat@?$_String_const_iterator@V?$_String_val@U?$_Simple_types@D@std@@@std@@@std@@QBEXABV12@@Z ; std::_String_const_iterator<std::_String_val<std::_Simple_types<char> > >::_Compat
PUBLIC	??1?$_String_const_iterator@V?$_String_val@U?$_Simple_types@D@std@@@std@@@std@@QAE@XZ ; std::_String_const_iterator<std::_String_val<std::_Simple_types<char> > >::~_String_const_iterator<std::_String_val<std::_Simple_types<char> > >
PUBLIC	??0?$_String_const_iterator@V?$_String_val@U?$_Simple_types@D@std@@@std@@@std@@QAE@ABV01@@Z ; std::_String_const_iterator<std::_String_val<std::_Simple_types<char> > >::_String_const_iterator<std::_String_val<std::_Simple_types<char> > >
PUBLIC	??0?$_String_iterator@V?$_String_val@U?$_Simple_types@D@std@@@std@@@std@@QAE@PADPBU_Container_base12@1@@Z ; std::_String_iterator<std::_String_val<std::_Simple_types<char> > >::_String_iterator<std::_String_val<std::_Simple_types<char> > >
PUBLIC	??D?$_String_iterator@V?$_String_val@U?$_Simple_types@D@std@@@std@@@std@@QBEAADXZ ; std::_String_iterator<std::_String_val<std::_Simple_types<char> > >::operator*
PUBLIC	??G?$_String_iterator@V?$_String_val@U?$_Simple_types@D@std@@@std@@@std@@QBEHABV?$_String_const_iterator@V?$_String_val@U?$_Simple_types@D@std@@@std@@@1@@Z ; std::_String_iterator<std::_String_val<std::_Simple_types<char> > >::operator-
PUBLIC	??1?$_String_iterator@V?$_String_val@U?$_Simple_types@D@std@@@std@@@std@@QAE@XZ ; std::_String_iterator<std::_String_val<std::_Simple_types<char> > >::~_String_iterator<std::_String_val<std::_Simple_types<char> > >
PUBLIC	??0?$_String_iterator@V?$_String_val@U?$_Simple_types@D@std@@@std@@@std@@QAE@ABV01@@Z ; std::_String_iterator<std::_String_val<std::_Simple_types<char> > >::_String_iterator<std::_String_val<std::_Simple_types<char> > >
PUBLIC	??$assign@V?$_String_iterator@V?$_String_val@U?$_Simple_types@D@std@@@std@@@std@@@?$basic_string@DU?$char_traits@D@std@@V?$allocator@D@2@@std@@QAEAAV01@V?$_String_iterator@V?$_String_val@U?$_Simple_types@D@std@@@std@@@1@0@Z ; std::basic_string<char,std::char_traits<char>,std::allocator<char> >::assign<std::_String_iterator<std::_String_val<std::_Simple_types<char> > > >
PUBLIC	??0?$fpos@H@std@@QAE@_J@Z			; std::fpos<int>::fpos<int>
PUBLIC	??B?$fpos@H@std@@QBE_JXZ			; std::fpos<int>::operator __int64
PUBLIC	??$move@AAPAVScriptableGameObj@@@std@@YA$$QAPAVScriptableGameObj@@AAPAV1@@Z ; std::move<ScriptableGameObj * &>
PUBLIC	??$forward@V?$vector@V?$basic_string@DU?$char_traits@D@std@@V?$allocator@D@2@@std@@V?$allocator@V?$basic_string@DU?$char_traits@D@std@@V?$allocator@D@2@@std@@@2@@std@@@std@@YA$$QAV?$vector@V?$basic_string@DU?$char_traits@D@std@@V?$allocator@D@2@@std@@V?$allocator@V?$basic_string@DU?$char_traits@D@std@@V?$allocator@D@2@@std@@@2@@0@AAV10@@Z ; std::forward<std::vector<std::basic_string<char,std::char_traits<char>,std::allocator<char> >,std::allocator<std::basic_string<char,std::char_traits<char>,std::allocator<char> > > > >
PUBLIC	??$addressof@$$CBV?$basic_string@DU?$char_traits@D@std@@V?$allocator@D@2@@std@@@std@@YAPBV?$basic_string@DU?$char_traits@D@std@@V?$allocator@D@2@@0@ABV10@@Z ; std::addressof<std::basic_string<char,std::char_traits<char>,std::allocator<char> > const >
PUBLIC	??$construct@V?$basic_string@DU?$char_traits@D@std@@V?$allocator@D@2@@std@@AAV12@@?$_Wrap_alloc@V?$allocator@V?$basic_string@DU?$char_traits@D@std@@V?$allocator@D@2@@std@@@std@@@std@@QAEXPAV?$basic_string@DU?$char_traits@D@std@@V?$allocator@D@2@@1@AAV21@@Z ; std::_Wrap_alloc<std::allocator<std::basic_string<char,std::char_traits<char>,std::allocator<char> > > >::construct<std::basic_string<char,std::char_traits<char>,std::allocator<char> >,std::basic_string<char,std::char_traits<char>,std::allocator<char> > &>
PUBLIC	??$construct@V?$basic_string@DU?$char_traits@D@std@@V?$allocator@D@2@@std@@ABV12@@?$_Wrap_alloc@V?$allocator@V?$basic_string@DU?$char_traits@D@std@@V?$allocator@D@2@@std@@@std@@@std@@QAEXPAV?$basic_string@DU?$char_traits@D@std@@V?$allocator@D@2@@1@ABV21@@Z ; std::_Wrap_alloc<std::allocator<std::basic_string<char,std::char_traits<char>,std::allocator<char> > > >::construct<std::basic_string<char,std::char_traits<char>,std::allocator<char> >,std::basic_string<char,std::char_traits<char>,std::allocator<char> > const &>
PUBLIC	?getInstance@?$Singleton@V?$ObjectPoolClass@VGenericSLNode@@$0BAA@@@@@SAAAV?$ObjectPoolClass@VGenericSLNode@@$0BAA@@@XZ ; Singleton<ObjectPoolClass<GenericSLNode,256> >::getInstance
PUBLIC	??0?$ObjectPoolClass@VGenericSLNode@@$0BAA@@@QAE@XZ ; ObjectPoolClass<GenericSLNode,256>::ObjectPoolClass<GenericSLNode,256>
PUBLIC	??1?$ObjectPoolClass@VGenericSLNode@@$0BAA@@@QAE@XZ ; ObjectPoolClass<GenericSLNode,256>::~ObjectPoolClass<GenericSLNode,256>
PUBLIC	?Allocate_Object_Memory@?$ObjectPoolClass@VGenericSLNode@@$0BAA@@@QAEPAVGenericSLNode@@XZ ; ObjectPoolClass<GenericSLNode,256>::Allocate_Object_Memory
PUBLIC	?Free_Object_Memory@?$ObjectPoolClass@VGenericSLNode@@$0BAA@@@QAEXAAVGenericSLNode@@@Z ; ObjectPoolClass<GenericSLNode,256>::Free_Object_Memory
PUBLIC	?writeDummyPattern@?$ObjectPoolClass@VGenericSLNode@@$0BAA@@@QAEXAAVGenericSLNode@@K@Z ; ObjectPoolClass<GenericSLNode,256>::writeDummyPattern
PUBLIC	??$construct@PADAAPAD@?$_Wrap_alloc@V?$allocator@D@std@@@std@@QAEXPAPADAAPAD@Z ; std::_Wrap_alloc<std::allocator<char> >::construct<char *,char * &>
PUBLIC	??$destroy@PAD@?$_Wrap_alloc@V?$allocator@D@std@@@std@@QAEXPAPAD@Z ; std::_Wrap_alloc<std::allocator<char> >::destroy<char *>
PUBLIC	??$addressof@D@std@@YAPADAAD@Z			; std::addressof<char>
PUBLIC	??$_Allocate@D@std@@YAPADIPAD@Z			; std::_Allocate<char>
PUBLIC	??0?$allocator@U_Container_proxy@std@@@std@@QAE@XZ ; std::allocator<std::_Container_proxy>::allocator<std::_Container_proxy>
PUBLIC	?deallocate@?$allocator@U_Container_proxy@std@@@std@@QAEXPAU_Container_proxy@2@I@Z ; std::allocator<std::_Container_proxy>::deallocate
PUBLIC	?allocate@?$allocator@U_Container_proxy@std@@@std@@QAEPAU_Container_proxy@2@I@Z ; std::allocator<std::_Container_proxy>::allocate
PUBLIC	??$construct@U_Container_proxy@std@@U12@@?$allocator@U_Container_proxy@std@@@std@@QAEXPAU_Container_proxy@1@$$QAU21@@Z ; std::allocator<std::_Container_proxy>::construct<std::_Container_proxy,std::_Container_proxy>
PUBLIC	??$destroy@U_Container_proxy@std@@@?$allocator@U_Container_proxy@std@@@std@@QAEXPAU_Container_proxy@1@@Z ; std::allocator<std::_Container_proxy>::destroy<std::_Container_proxy>
PUBLIC	??$_Destroy_range@U?$_Wrap_alloc@V?$allocator@V?$basic_string@DU?$char_traits@D@std@@V?$allocator@D@2@@std@@@std@@@std@@@std@@YAXPAV?$basic_string@DU?$char_traits@D@std@@V?$allocator@D@2@@0@0AAU?$_Wrap_alloc@V?$allocator@V?$basic_string@DU?$char_traits@D@std@@V?$allocator@D@2@@std@@@std@@@0@@Z ; std::_Destroy_range<std::_Wrap_alloc<std::allocator<std::basic_string<char,std::char_traits<char>,std::allocator<char> > > > >
PUBLIC	??$_Umove@PAV?$basic_string@DU?$char_traits@D@std@@V?$allocator@D@2@@std@@@?$vector@V?$basic_string@DU?$char_traits@D@std@@V?$allocator@D@2@@std@@V?$allocator@V?$basic_string@DU?$char_traits@D@std@@V?$allocator@D@2@@std@@@2@@std@@IAEPAV?$basic_string@DU?$char_traits@D@std@@V?$allocator@D@2@@1@PAV21@00@Z ; std::vector<std::basic_string<char,std::char_traits<char>,std::allocator<char> >,std::allocator<std::basic_string<char,std::char_traits<char>,std::allocator<char> > > >::_Umove<std::basic_string<char,std::char_traits<char>,std::allocator<char> > *>
PUBLIC	??__Finstancex@?1??getInstance@?$Singleton@V?$ObjectPoolClass@VGenericSLNode@@$0BAA@@@@@SAAAV?$ObjectPoolClass@VGenericSLNode@@$0BAA@@@XZ@YAXXZ ; `Singleton<ObjectPoolClass<GenericSLNode,256> >::getInstance'::`2'::`dynamic atexit destructor for 'instancex''
PUBLIC	??$_Allocate@U_Container_proxy@std@@@std@@YAPAU_Container_proxy@0@IPAU10@@Z ; std::_Allocate<std::_Container_proxy>
PUBLIC	??$_Allocate@V?$basic_string@DU?$char_traits@D@std@@V?$allocator@D@2@@std@@@std@@YAPAV?$basic_string@DU?$char_traits@D@std@@V?$allocator@D@2@@0@IPAV10@@Z ; std::_Allocate<std::basic_string<char,std::char_traits<char>,std::allocator<char> > >
PUBLIC	??$move@AAV?$basic_istream@DU?$char_traits@D@std@@@std@@@std@@YA$$QAV?$basic_istream@DU?$char_traits@D@std@@@0@AAV10@@Z ; std::move<std::basic_istream<char,std::char_traits<char> > &>
PUBLIC	??$?8V?$allocator@D@std@@V01@@std@@YA_NABU?$_Wrap_alloc@V?$allocator@D@std@@@0@0@Z ; std::operator==<std::allocator<char>,std::allocator<char> >
PUBLIC	??$?8DD@std@@YA_NABV?$allocator@D@0@0@Z		; std::operator==<char,char>
PUBLIC	??$forward@AAV?$basic_string@DU?$char_traits@D@std@@V?$allocator@D@2@@std@@@std@@YAAAV?$basic_string@DU?$char_traits@D@std@@V?$allocator@D@2@@0@AAV10@@Z ; std::forward<std::basic_string<char,std::char_traits<char>,std::allocator<char> > &>
PUBLIC	??$construct@V?$basic_string@DU?$char_traits@D@std@@V?$allocator@D@2@@std@@AAV12@@?$allocator_traits@V?$allocator@V?$basic_string@DU?$char_traits@D@std@@V?$allocator@D@2@@std@@@std@@@std@@SAXAAV?$allocator@V?$basic_string@DU?$char_traits@D@std@@V?$allocator@D@2@@std@@@1@PAV?$basic_string@DU?$char_traits@D@std@@V?$allocator@D@2@@1@AAV31@@Z ; std::allocator_traits<std::allocator<std::basic_string<char,std::char_traits<char>,std::allocator<char> > > >::construct<std::basic_string<char,std::char_traits<char>,std::allocator<char> >,std::basic_string<char,std::char_traits<char>,std::allocator<char> > &>
PUBLIC	??$forward@ABV?$basic_string@DU?$char_traits@D@std@@V?$allocator@D@2@@std@@@std@@YAABV?$basic_string@DU?$char_traits@D@std@@V?$allocator@D@2@@0@ABV10@@Z ; std::forward<std::basic_string<char,std::char_traits<char>,std::allocator<char> > const &>
PUBLIC	??$construct@V?$basic_string@DU?$char_traits@D@std@@V?$allocator@D@2@@std@@ABV12@@?$allocator_traits@V?$allocator@V?$basic_string@DU?$char_traits@D@std@@V?$allocator@D@2@@std@@@std@@@std@@SAXAAV?$allocator@V?$basic_string@DU?$char_traits@D@std@@V?$allocator@D@2@@std@@@1@PAV?$basic_string@DU?$char_traits@D@std@@V?$allocator@D@2@@1@ABV31@@Z ; std::allocator_traits<std::allocator<std::basic_string<char,std::char_traits<char>,std::allocator<char> > > >::construct<std::basic_string<char,std::char_traits<char>,std::allocator<char> >,std::basic_string<char,std::char_traits<char>,std::allocator<char> > const &>
PUBLIC	??$forward@AAPAD@std@@YAAAPADAAPAD@Z		; std::forward<char * &>
PUBLIC	??$construct@PADAAPAD@?$allocator_traits@V?$allocator@D@std@@@std@@SAXAAV?$allocator@D@1@PAPADAAPAD@Z ; std::allocator_traits<std::allocator<char> >::construct<char *,char * &>
PUBLIC	??$destroy@PAD@?$allocator_traits@V?$allocator@D@std@@@std@@SAXAAV?$allocator@D@1@PAPAD@Z ; std::allocator_traits<std::allocator<char> >::destroy<char *>
PUBLIC	??$forward@U_Container_proxy@std@@@std@@YA$$QAU_Container_proxy@0@AAU10@@Z ; std::forward<std::_Container_proxy>
PUBLIC	??$_Ptr_cat@V?$basic_string@DU?$char_traits@D@std@@V?$allocator@D@2@@std@@V12@@std@@YA?AU_Nonscalar_ptr_iterator_tag@0@PAV?$basic_string@DU?$char_traits@D@std@@V?$allocator@D@2@@0@0@Z ; std::_Ptr_cat<std::basic_string<char,std::char_traits<char>,std::allocator<char> >,std::basic_string<char,std::char_traits<char>,std::allocator<char> > >
PUBLIC	??$_Destroy_range@U?$_Wrap_alloc@V?$allocator@V?$basic_string@DU?$char_traits@D@std@@V?$allocator@D@2@@std@@@std@@@std@@@std@@YAXPAV?$basic_string@DU?$char_traits@D@std@@V?$allocator@D@2@@0@0AAU?$_Wrap_alloc@V?$allocator@V?$basic_string@DU?$char_traits@D@std@@V?$allocator@D@2@@std@@@std@@@0@U_Nonscalar_ptr_iterator_tag@0@@Z ; std::_Destroy_range<std::_Wrap_alloc<std::allocator<std::basic_string<char,std::char_traits<char>,std::allocator<char> > > > >
PUBLIC	??$_Uninitialized_move@PAV?$basic_string@DU?$char_traits@D@std@@V?$allocator@D@2@@std@@PAV12@U?$_Wrap_alloc@V?$allocator@V?$basic_string@DU?$char_traits@D@std@@V?$allocator@D@2@@std@@@std@@@2@@std@@YAPAV?$basic_string@DU?$char_traits@D@std@@V?$allocator@D@2@@0@PAV10@00AAU?$_Wrap_alloc@V?$allocator@V?$basic_string@DU?$char_traits@D@std@@V?$allocator@D@2@@std@@@std@@@0@@Z ; std::_Uninitialized_move<std::basic_string<char,std::char_traits<char>,std::allocator<char> > *,std::basic_string<char,std::char_traits<char>,std::allocator<char> > *,std::_Wrap_alloc<std::allocator<std::basic_string<char,std::char_traits<char>,std::allocator<char> > > > >
PUBLIC	??$construct@V?$basic_string@DU?$char_traits@D@std@@V?$allocator@D@2@@std@@AAV12@@?$allocator@V?$basic_string@DU?$char_traits@D@std@@V?$allocator@D@2@@std@@@std@@QAEXPAV?$basic_string@DU?$char_traits@D@std@@V?$allocator@D@2@@1@AAV21@@Z ; std::allocator<std::basic_string<char,std::char_traits<char>,std::allocator<char> > >::construct<std::basic_string<char,std::char_traits<char>,std::allocator<char> >,std::basic_string<char,std::char_traits<char>,std::allocator<char> > &>
PUBLIC	??$construct@PADAAPAD@?$allocator@D@std@@QAEXPAPADAAPAD@Z ; std::allocator<char>::construct<char *,char * &>
PUBLIC	??$destroy@PAD@?$allocator@D@std@@QAEXPAPAD@Z	; std::allocator<char>::destroy<char *>
PUBLIC	??$destroy@V?$basic_string@DU?$char_traits@D@std@@V?$allocator@D@2@@std@@@?$_Wrap_alloc@V?$allocator@V?$basic_string@DU?$char_traits@D@std@@V?$allocator@D@2@@std@@@std@@@std@@QAEXPAV?$basic_string@DU?$char_traits@D@std@@V?$allocator@D@2@@1@@Z ; std::_Wrap_alloc<std::allocator<std::basic_string<char,std::char_traits<char>,std::allocator<char> > > >::destroy<std::basic_string<char,std::char_traits<char>,std::allocator<char> > >
PUBLIC	??$_Val_type@PAV?$basic_string@DU?$char_traits@D@std@@V?$allocator@D@2@@std@@@std@@YAPAV?$basic_string@DU?$char_traits@D@std@@V?$allocator@D@2@@0@PAV10@@Z ; std::_Val_type<std::basic_string<char,std::char_traits<char>,std::allocator<char> > *>
PUBLIC	??$_Uninit_move@PAV?$basic_string@DU?$char_traits@D@std@@V?$allocator@D@2@@std@@PAV12@V?$allocator@V?$basic_string@DU?$char_traits@D@std@@V?$allocator@D@2@@std@@@2@V12@@std@@YAPAV?$basic_string@DU?$char_traits@D@std@@V?$allocator@D@2@@0@PAV10@00AAU?$_Wrap_alloc@V?$allocator@V?$basic_string@DU?$char_traits@D@std@@V?$allocator@D@2@@std@@@std@@@0@0U_Nonscalar_ptr_iterator_tag@0@@Z ; std::_Uninit_move<std::basic_string<char,std::char_traits<char>,std::allocator<char> > *,std::basic_string<char,std::char_traits<char>,std::allocator<char> > *,std::allocator<std::basic_string<char,std::char_traits<char>,std::allocator<char> > >,std::basic_string<char,std::char_traits<char>,std::allocator<char> > >
PUBLIC	??$destroy@V?$basic_string@DU?$char_traits@D@std@@V?$allocator@D@2@@std@@@?$allocator_traits@V?$allocator@V?$basic_string@DU?$char_traits@D@std@@V?$allocator@D@2@@std@@@std@@@std@@SAXAAV?$allocator@V?$basic_string@DU?$char_traits@D@std@@V?$allocator@D@2@@std@@@1@PAV?$basic_string@DU?$char_traits@D@std@@V?$allocator@D@2@@1@@Z ; std::allocator_traits<std::allocator<std::basic_string<char,std::char_traits<char>,std::allocator<char> > > >::destroy<std::basic_string<char,std::char_traits<char>,std::allocator<char> > >
PUBLIC	??$_Debug_range@PAV?$basic_string@DU?$char_traits@D@std@@V?$allocator@D@2@@std@@@std@@YAXPAV?$basic_string@DU?$char_traits@D@std@@V?$allocator@D@2@@0@0PB_WI@Z ; std::_Debug_range<std::basic_string<char,std::char_traits<char>,std::allocator<char> > *>
PUBLIC	??$_Debug_pointer@V?$basic_string@DU?$char_traits@D@std@@V?$allocator@D@2@@std@@@std@@YAXPAV?$basic_string@DU?$char_traits@D@std@@V?$allocator@D@2@@0@PB_WI@Z ; std::_Debug_pointer<std::basic_string<char,std::char_traits<char>,std::allocator<char> > >
PUBLIC	??$construct@V?$basic_string@DU?$char_traits@D@std@@V?$allocator@D@2@@std@@V12@@?$_Wrap_alloc@V?$allocator@V?$basic_string@DU?$char_traits@D@std@@V?$allocator@D@2@@std@@@std@@@std@@QAEXPAV?$basic_string@DU?$char_traits@D@std@@V?$allocator@D@2@@1@$$QAV21@@Z ; std::_Wrap_alloc<std::allocator<std::basic_string<char,std::char_traits<char>,std::allocator<char> > > >::construct<std::basic_string<char,std::char_traits<char>,std::allocator<char> >,std::basic_string<char,std::char_traits<char>,std::allocator<char> > >
PUBLIC	??$destroy@V?$basic_string@DU?$char_traits@D@std@@V?$allocator@D@2@@std@@@?$allocator@V?$basic_string@DU?$char_traits@D@std@@V?$allocator@D@2@@std@@@std@@QAEXPAV?$basic_string@DU?$char_traits@D@std@@V?$allocator@D@2@@1@@Z ; std::allocator<std::basic_string<char,std::char_traits<char>,std::allocator<char> > >::destroy<std::basic_string<char,std::char_traits<char>,std::allocator<char> > >
PUBLIC	??$_Iter_cat@PAV?$basic_string@DU?$char_traits@D@std@@V?$allocator@D@2@@std@@@std@@YA?AUrandom_access_iterator_tag@0@ABQAV?$basic_string@DU?$char_traits@D@std@@V?$allocator@D@2@@0@@Z ; std::_Iter_cat<std::basic_string<char,std::char_traits<char>,std::allocator<char> > *>
PUBLIC	??$_Debug_range2@PAV?$basic_string@DU?$char_traits@D@std@@V?$allocator@D@2@@std@@@std@@YAXPAV?$basic_string@DU?$char_traits@D@std@@V?$allocator@D@2@@0@0PB_WIUrandom_access_iterator_tag@0@@Z ; std::_Debug_range2<std::basic_string<char,std::char_traits<char>,std::allocator<char> > *>
PUBLIC	??$construct@V?$basic_string@DU?$char_traits@D@std@@V?$allocator@D@2@@std@@V12@@?$allocator_traits@V?$allocator@V?$basic_string@DU?$char_traits@D@std@@V?$allocator@D@2@@std@@@std@@@std@@SAXAAV?$allocator@V?$basic_string@DU?$char_traits@D@std@@V?$allocator@D@2@@std@@@1@PAV?$basic_string@DU?$char_traits@D@std@@V?$allocator@D@2@@1@$$QAV31@@Z ; std::allocator_traits<std::allocator<std::basic_string<char,std::char_traits<char>,std::allocator<char> > > >::construct<std::basic_string<char,std::char_traits<char>,std::allocator<char> >,std::basic_string<char,std::char_traits<char>,std::allocator<char> > >
PUBLIC	??$construct@V?$basic_string@DU?$char_traits@D@std@@V?$allocator@D@2@@std@@V12@@?$allocator@V?$basic_string@DU?$char_traits@D@std@@V?$allocator@D@2@@std@@@std@@QAEXPAV?$basic_string@DU?$char_traits@D@std@@V?$allocator@D@2@@1@$$QAV21@@Z ; std::allocator<std::basic_string<char,std::char_traits<char>,std::allocator<char> > >::construct<std::basic_string<char,std::char_traits<char>,std::allocator<char> >,std::basic_string<char,std::char_traits<char>,std::allocator<char> > >
PUBLIC	??_E?$basic_stringstream@DU?$char_traits@D@std@@V?$allocator@D@2@@std@@$4PPPPPPPM@A@AEPAXI@Z ; std::basic_stringstream<char,std::char_traits<char>,std::allocator<char> >::`vector deleting destructor'
PUBLIC	?_Add_vtordisp1@?$basic_istream@DU?$char_traits@D@std@@@std@@$4PPPPPPPM@FA@AEXXZ ; std::basic_istream<char,std::char_traits<char> >::_Add_vtordisp1
PUBLIC	?_Add_vtordisp2@?$basic_ostream@DU?$char_traits@D@std@@@std@@$4PPPPPPPM@FA@AEXXZ ; std::basic_ostream<char,std::char_traits<char> >::_Add_vtordisp2
PUBLIC	??_C@_1JA@MHFMCCH@?$AAc?$AA?3?$AA?2?$AAp?$AAr?$AAo?$AAg?$AAr?$AAa?$AAm?$AA?5?$AAf?$AAi?$AAl?$AAe?$AAs?$AA?5?$AA?$CI?$AAx?$AA8?$AA6?$AA?$CJ?$AA?2?$AAm?$AAi?$AAc?$AAr?$AAo?$AAs?$AAo?$AAf?$AAt@ ; `string'
PUBLIC	??_C@_1DC@POOIKBAO@?$AAI?$AAT?$AAE?$AAR?$AAA?$AAT?$AAO?$AAR?$AA?5?$AAL?$AAI?$AAS?$AAT?$AA?5?$AAC?$AAO?$AAR?$AAR?$AAU?$AAP?$AAT?$AAE?$AAD?$AA?$CB?$AA?$AA@ ; `string'
PUBLIC	??_7ThreadClass@@6B@				; ThreadClass::`vftable'
PUBLIC	??_C@_0DJ@NKJHEMPA@x?3?2github?2renegade?2dragonade_rxd@ ; `string'
PUBLIC	??_C@_1HC@JEIHKHFK@?$AAx?$AA?3?$AA?2?$AAg?$AAi?$AAt?$AAh?$AAu?$AAb?$AA?2?$AAr?$AAe?$AAn?$AAe?$AAg?$AAa?$AAd?$AAe?$AA?2?$AAd?$AAr?$AAa?$AAg?$AAo?$AAn?$AAa?$AAd?$AAe?$AA_?$AAr?$AAx?$AAd@ ; `string'
PUBLIC	??_C@_1M@HLGKFCJM@?$AAf?$AAa?$AAl?$AAs?$AAe?$AA?$AA@ ; `string'
PUBLIC	??_7INIClass@@6B@				; INIClass::`vftable'
PUBLIC	??_7GameObjObserverClass@@6B@			; GameObjObserverClass::`vftable'
PUBLIC	??_7ScriptClass@@6B@				; ScriptClass::`vftable'
PUBLIC	??_7ScriptImpClass@@6B@				; ScriptImpClass::`vftable'
PUBLIC	??_7ScriptFactory@@6B@				; ScriptFactory::`vftable'
PUBLIC	??_7PostLoadableClass@@6B@			; PostLoadableClass::`vftable'
PUBLIC	??_7ReferencerClass@@6B@			; ReferencerClass::`vftable'
PUBLIC	??_7JFW_Key_Hook_Base@@6B@			; JFW_Key_Hook_Base::`vftable'
PUBLIC	??_7?$SList@UKeyHookWrapperStruct@MultiKeyHookScriptImpClass@@@@6B@ ; SList<MultiKeyHookScriptImpClass::KeyHookWrapperStruct>::`vftable'
PUBLIC	??_7MultiKeyHookScriptImpClass@@6B@		; MultiKeyHookScriptImpClass::`vftable'
PUBLIC	??_7JFW_Object_Created_Hook_Base@@6B@		; JFW_Object_Created_Hook_Base::`vftable'
PUBLIC	?npos@?$basic_string@DU?$char_traits@D@std@@V?$allocator@D@2@@std@@2IB ; std::basic_string<char,std::char_traits<char>,std::allocator<char> >::npos
PUBLIC	??_7error_category@std@@6B@			; std::error_category::`vftable'
PUBLIC	??_7_Generic_error_category@std@@6B@		; std::_Generic_error_category::`vftable'
PUBLIC	??_C@_07DCLBNMLN@generic?$AA@			; `string'
PUBLIC	??_C@_0O@BFJCFAAK@unknown?5error?$AA@		; `string'
PUBLIC	??_7_Iostream_error_category@std@@6B@		; std::_Iostream_error_category::`vftable'
PUBLIC	??_C@_08LLGCOLLL@iostream?$AA@			; `string'
PUBLIC	??_C@_0BG@PADBLCHM@iostream?5stream?5error?$AA@	; `string'
PUBLIC	??_7_System_error_category@std@@6B@		; std::_System_error_category::`vftable'
PUBLIC	??_C@_06FHFOAHML@system?$AA@			; `string'
PUBLIC	?_Generic_object@?$_Error_objects@H@std@@2V_Generic_error_category@2@A ; std::_Error_objects<int>::_Generic_object
PUBLIC	?_Iostream_object@?$_Error_objects@H@std@@2V_Iostream_error_category@2@A ; std::_Error_objects<int>::_Iostream_object
PUBLIC	?_System_object@?$_Error_objects@H@std@@2V_System_error_category@2@A ; std::_Error_objects<int>::_System_object
PUBLIC	??_C@_0BG@HGEDEDEC@invalid?5stoi?5argument?$AA@	; `string'
PUBLIC	??_C@_0BL@MFFNMGGC@stoi?5argument?5out?5of?5range?$AA@ ; `string'
PUBLIC	??_C@_02DPKJAMEF@?$CFd?$AA@			; `string'
PUBLIC	?id@?$num_put@DV?$back_insert_iterator@V?$basic_string@DU?$char_traits@D@std@@V?$allocator@D@2@@std@@@std@@@std@@2V0locale@2@A ; std::num_put<char,std::back_insert_iterator<std::basic_string<char,std::char_traits<char>,std::allocator<char> > > >::id
PUBLIC	?id@?$num_put@_WV?$back_insert_iterator@V?$basic_string@_WU?$char_traits@_W@std@@V?$allocator@_W@2@@std@@@std@@@std@@2V0locale@2@A ; std::num_put<wchar_t,std::back_insert_iterator<std::basic_string<wchar_t,std::char_traits<wchar_t>,std::allocator<wchar_t> > > >::id
PUBLIC	??_7MC_Teleport@@6B@				; MC_Teleport::`vftable'
PUBLIC	??_C@_07EECDMLNK@ArrowID?$AA@			; `string'
PUBLIC	??_C@_0O@CGEJLNK@TeleportSound?$AA@		; `string'
PUBLIC	??_7MC_HUD_Message_Zone@@6B@			; MC_HUD_Message_Zone::`vftable'
PUBLIC	??_C@_05FCBKKBJK@BoxID?$AA@			; `string'
PUBLIC	??_C@_07BEIHKDLJ@Message?$AA@			; `string'
PUBLIC	??_C@_04CAKOHOCJ@Blue?$AA@			; `string'
PUBLIC	??_C@_05GGOIJPPE@Green?$AA@			; `string'
PUBLIC	??_C@_03PADCEAKC@Red?$AA@			; `string'
PUBLIC	??_C@_05MAHMNMLO@Sound?$AA@			; `string'
PUBLIC	??_7MC_Stop_Vehicle_Engine@@6B@			; MC_Stop_Vehicle_Engine::`vftable'
PUBLIC	??_C@_08DEOOAPOB@Duration?$AA@			; `string'
PUBLIC	??_7MC_Change_Vehicle_Weapon@@6B@		; MC_Change_Vehicle_Weapon::`vftable'
PUBLIC	??_C@_06IOHMMDNG@Rounds?$AA@			; `string'
PUBLIC	??_C@_06CKLLCHIK@Preset?$AA@			; `string'
PUBLIC	??_7MC_MCTMainSyncObject@@6B@			; MC_MCTMainSyncObject::`vftable'
PUBLIC	??_C@_0N@PICELOIB@MCT_ObjectID?$AA@		; `string'
PUBLIC	??_C@_04OHJIHAFH@None?$AA@			; `string'
PUBLIC	??_7MC_MasterControlTerminal_Object@@6B@	; MC_MasterControlTerminal_Object::`vftable'
PUBLIC	??_C@_06ELFECKBG@Object?$AA@			; `string'
PUBLIC	??_C@_08EOBDLMOI@Multiply?$AA@			; `string'
PUBLIC	??_7MC_Change_Vehicle_Weapon_Zone@@6B@		; MC_Change_Vehicle_Weapon_Zone::`vftable'
PUBLIC	??_7MC_Grant_Weapon@@6B@			; MC_Grant_Weapon::`vftable'
PUBLIC	??_7MC_Grant_Weapon_Zone@@6B@			; MC_Grant_Weapon_Zone::`vftable'
PUBLIC	??_7MC_Spawn_When_Death@@6B@			; MC_Spawn_When_Death::`vftable'
PUBLIC	??_7MC_GameOver_When_Kill@@6B@			; MC_GameOver_When_Kill::`vftable'
PUBLIC	??_C@_08IJMOBJLG@gameover?$AA@			; `string'
PUBLIC	??_7MC_Grant_Character@@6B@			; MC_Grant_Character::`vftable'
PUBLIC	??_7MC_Grant_Character_Zone@@6B@		; MC_Grant_Character_Zone::`vftable'
PUBLIC	??_7MC_Spawn_When_Fully_Repaired@@6B@		; MC_Spawn_When_Fully_Repaired::`vftable'
PUBLIC	??_7MC_Refinery_Object@@6B@			; MC_Refinery_Object::`vftable'
PUBLIC	??_C@_04GBPANCCF@Team?$AA@			; `string'
PUBLIC	??_C@_08KDKDEPAG@Interval?$AA@			; `string'
PUBLIC	??_C@_06HKBMKICC@Amount?$AA@			; `string'
PUBLIC	??_7MC_Vehicle_Purchase_Terminal@@6B@		; MC_Vehicle_Purchase_Terminal::`vftable'
PUBLIC	??_C@_0O@LHDCLJAC@VehiclePreset?$AA@		; `string'
PUBLIC	??_C@_09MCDPOFNJ@SpawnerID?$AA@			; `string'
PUBLIC	??_C@_07GDHHDJMO@Credits?$AA@			; `string'
PUBLIC	??_C@_0BK@DKJFKFMM@Purchase?5request?5granted?$CB?$AA@ ; `string'
PUBLIC	??_C@_0BP@CKMJCAAE@M00GBMG_SECX0002I1GBMG_snd?4wav?$AA@ ; `string'
PUBLIC	??_C@_0BE@BOEFFKPE@Insufficient?5funds?$CB?$AA@	; `string'
PUBLIC	??_C@_0BP@HLLPGDGB@m00evan_dsgn0024i1evan_snd?4wav?$AA@ ; `string'
PUBLIC	??_C@_0BP@KJAIJINK@m00evag_dsgn0028i1evag_snd?4wav?$AA@ ; `string'
PUBLIC	??_C@_0CF@PMMMCCAN@Access?5Denied?$CB?5You?5aren?8t?5in?5tea@ ; `string'
PUBLIC	??_7MC_Character_Purchase_Terminal@@6B@		; MC_Character_Purchase_Terminal::`vftable'
PUBLIC	??_C@_0BA@GHPFHIOH@CharacterPreset?$AA@		; `string'
PUBLIC	??_7MC_Set_Team_When_Exit@@6B@			; MC_Set_Team_When_Exit::`vftable'
PUBLIC	??_7MC_IonExplosion_When_Death@@6B@		; MC_IonExplosion_When_Death::`vftable'
PUBLIC	??_C@_0BK@OCFPJECF@Explosion_IonCannonBeacon?$AA@ ; `string'
PUBLIC	??_C@_0BM@HFFMNHJD@Beacon_Ion_Cannon_Anim_Post?$AA@ ; `string'
PUBLIC	??_7MC_Capturable_Object@@6B@			; MC_Capturable_Object::`vftable'
PUBLIC	??_C@_0M@PCKKCPHG@RepairSound?$AA@		; `string'
PUBLIC	??_C@_0N@IFADAGBG@DestroySound?$AA@		; `string'
PUBLIC	??_C@_0O@DDBAGPIP@RepairMessage?$AA@		; `string'
PUBLIC	??_C@_0P@BEFPOLON@DestroyMessage?$AA@		; `string'
PUBLIC	??_C@_0M@GOIBFNIL@InitialTeam?$AA@		; `string'
PUBLIC	??_7MC_FlyMode_On@@6B@				; MC_FlyMode_On::`vftable'
PUBLIC	??_7MC_FlyMode_Off@@6B@				; MC_FlyMode_Off::`vftable'
PUBLIC	??_7MC_FlyModeZone_On@@6B@			; MC_FlyModeZone_On::`vftable'
PUBLIC	??_7MC_FlyModeZone_Off@@6B@			; MC_FlyModeZone_Off::`vftable'
PUBLIC	??_7MC_Spectate@@6B@				; MC_Spectate::`vftable'
PUBLIC	??_C@_04HIBGFPH@NULL?$AA@			; `string'
PUBLIC	??_C@_05HBJPNAAK@Blamo?$AA@			; `string'
PUBLIC	??_7MC_Spectate_Zone@@6B@			; MC_Spectate_Zone::`vftable'
PUBLIC	??_7MC_Beacon_Block_Zone@@6B@			; MC_Beacon_Block_Zone::`vftable'
PUBLIC	??_C@_0CC@EJAOAPHI@CnC_Weapon_IonCannonBeacon_Playe@ ; `string'
PUBLIC	??_C@_0BO@JCFCPCNL@Weapon_IonCannonBeacon_Player?$AA@ ; `string'
PUBLIC	??_C@_0BK@GPGENIJA@Weapon_IonCannonBeacon_Ai?$AA@ ; `string'
PUBLIC	??_C@_0BN@IFDDNBHL@CnC_Weapon_NukeBeacon_Player?$AA@ ; `string'
PUBLIC	??_C@_0BF@JJJDFDLI@Weapon_NukeBeacon_Ai?$AA@	; `string'
PUBLIC	??_C@_00CNPNBAHC@?$AA@				; `string'
PUBLIC	??_C@_0N@KJJCPNMP@BlockMessage?$AA@		; `string'
PUBLIC	??_7MC_Objective_Message_Sender@@6B@		; MC_Objective_Message_Sender::`vftable'
PUBLIC	??_C@_01IDAFKMJL@_?$AA@				; `string'
PUBLIC	??_C@_01CLKCMJKC@?5?$AA@			; `string'
PUBLIC	??_C@_0BC@HCLMECMP@New?5Objective?3?5?$CFs?$AA@	; `string'
PUBLIC	??_C@_0BI@MIEDFIHE@New?5Objective?5Available?$AA@ ; `string'
PUBLIC	??_C@_1DC@BMPCBFKK@?$AAj?$AA?6?$AA9?$AA0?$AA?6?$AA8?$AA2?$AA6?$AA9?$AA?6?$AA?$CF?$AAh?$AAs?$AA?6?$AA?$CF?$AAf?$AA?6?$AA?$CF?$AAf?$AA?6?$AA?$CF?$AAf?$AA?6?$AA?0?$AA?$AA@ ; `string'
PUBLIC	??_C@_0BH@MLBJGPFL@paging_attention_1?4wav?$AA@	; `string'
PUBLIC	??_C@_0BG@NOPDKOMA@Current?5Objective?3?5?$CFs?$AA@ ; `string'
PUBLIC	??_7MC_Objective@@6B@				; MC_Objective::`vftable'
PUBLIC	??_C@_05GCIPIGEI@Debug?$AA@			; `string'
PUBLIC	??_C@_0L@HFIHDPEI@?$FLMCDBG?$FN?5?$CFs?$AA@	; `string'
PUBLIC	??_C@_0M@ICJNKGBH@?$FLMCDBG?$FN?5?$CFs?6?$AA@	; `string'
PUBLIC	??_C@_02DKCKIIND@?$CFs?$AA@			; `string'
PUBLIC	??_C@_0P@LABJMIJA@ObjectiveOrder?$AA@		; `string'
PUBLIC	??_C@_0BG@PLPOFMAO@ObjectiveCompleteType?$AA@	; `string'
PUBLIC	??_C@_0M@DKNCAAPE@StarTrigger?$AA@		; `string'
PUBLIC	??_C@_08HKPJEPAB@Listener?$AA@			; `string'
PUBLIC	??_C@_0BA@DDJAEJKI@Over?5Type?5is?5?$CFs?$AA@	; `string'
PUBLIC	??_C@_04OKGDLNCL@NONE?$AA@			; `string'
PUBLIC	??_C@_0BA@EBCGLMBJ@ParameterObject?$AA@		; `string'
PUBLIC	??_C@_0L@KHHLDGLK@KILLOBJECT?$AA@		; `string'
PUBLIC	??_C@_0CH@NFOBPMJH@Created?5listener?5with?5type?5KILLO@ ; `string'
PUBLIC	??_C@_0M@DLPKBJDG@?$CFi?0?$CFs?0?$CFi?0?$CFi?$AA@ ; `string'
PUBLIC	??_C@_0BG@EPFHKNGC@MC_Objective_Listener?$AA@	; `string'
PUBLIC	??_C@_05EMNIMLKD@ENTER?$AA@			; `string'
PUBLIC	??_C@_0CC@JCPJJGEF@Created?5listener?5with?5type?5ENTER@ ; `string'
PUBLIC	??_C@_04DDHIFGCD@POKE?$AA@			; `string'
PUBLIC	??_C@_0CB@BCEFBIKI@Created?5listener?5with?5type?5POKE?4@ ; `string'
PUBLIC	??_C@_0CJ@OJJOBLLA@Can?8t?5create?5listener?4?5Event?5is?5@ ; `string'
PUBLIC	??_C@_0CB@BMEHILHB@Created?5listener?5with?5type?5NONE?4@ ; `string'
PUBLIC	??_7?$VectorClass@PAVScriptableGameObj@@@@6B@	; VectorClass<ScriptableGameObj *>::`vftable'
PUBLIC	??_7?$DynamicVectorClass@PAVScriptableGameObj@@@@6B@ ; DynamicVectorClass<ScriptableGameObj *>::`vftable'
PUBLIC	??_7?$SList@VMC_Objective@@@@6B@		; SList<MC_Objective>::`vftable'
PUBLIC	??_7MC_Objective_Controller@@6B@		; MC_Objective_Controller::`vftable'
PUBLIC	??_C@_0BE@FLAPJHLJ@Controller?5created?4?$AA@	; `string'
PUBLIC	??_C@_0O@EICECIEC@MessageObject?$AA@		; `string'
PUBLIC	??_C@_0L@OPAJACLP@Objectives?$AA@		; `string'
PUBLIC	??_C@_0CC@JHNPBKMJ@?$CFi?5objectives?5found?5and?5included@ ; `string'
PUBLIC	??_C@_0BJ@COAJBBEG@Started?5first?5objective?4?$AA@ ; `string'
PUBLIC	??_C@_0BM@KCOJFCBB@MC_Objective_Message_Sender?$AA@ ; `string'
PUBLIC	??_C@_0BJ@PCBFKKEK@Attached?5message?5sender?4?$AA@ ; `string'
PUBLIC	??_C@_0DA@HFLNJAFA@Received?5finish?5objective?5custom@ ; `string'
PUBLIC	??_C@_0CA@MNKIKBOC@Found?5a?5new?5objective?5to?5start?4?$AA@ ; `string'
PUBLIC	??_C@_0BM@PONGNHLH@No?5new?5objectives?5detected?4?$AA@ ; `string'
PUBLIC	??_C@_0BJ@NPLDLIJG@Started?5a?5new?5objective?4?$AA@ ; `string'
PUBLIC	??_C@_0M@IDABADGB@Daves?5Arrow?$AA@		; `string'
PUBLIC	??_C@_0EK@BFHNICHK@There_are_no_new_objectives_dete@ ; `string'
PUBLIC	??_C@_0N@KPPKCGAG@MC_Objective?$AA@		; `string'
PUBLIC	??_C@_0DL@NBOPFPDB@There_are_no_new_objectives_dete@ ; `string'
PUBLIC	??_C@_0CA@MKKIACNA@Attached?5no?5objectives?5message?4?$AA@ ; `string'
PUBLIC	??_7?$basic_stringbuf@DU?$char_traits@D@std@@V?$allocator@D@2@@std@@6B@ ; std::basic_stringbuf<char,std::char_traits<char>,std::allocator<char> >::`vftable'
PUBLIC	??_7?$basic_stringstream@DU?$char_traits@D@std@@V?$allocator@D@2@@std@@6B@ ; std::basic_stringstream<char,std::char_traits<char>,std::allocator<char> >::`vftable'
PUBLIC	??_8?$basic_stringstream@DU?$char_traits@D@std@@V?$allocator@D@2@@std@@7B?$basic_istream@DU?$char_traits@D@std@@@1@@ ; std::basic_stringstream<char,std::char_traits<char>,std::allocator<char> >::`vbtable'
PUBLIC	??_8?$basic_stringstream@DU?$char_traits@D@std@@V?$allocator@D@2@@std@@7B?$basic_ostream@DU?$char_traits@D@std@@@1@@ ; std::basic_stringstream<char,std::char_traits<char>,std::allocator<char> >::`vbtable'
PUBLIC	??_7MC_Objective_Listener@@6B@			; MC_Objective_Listener::`vftable'
PUBLIC	??_C@_0CE@LCCIOKHK@LISTENER?3?5Created?5listener?5at?5?$CFi@ ; `string'
PUBLIC	??_C@_09BFBOLFMF@Objective?$AA@			; `string'
PUBLIC	??_C@_07MBELDEGC@Trigger?$AA@			; `string'
PUBLIC	??_C@_08GOBKDNAK@CustomID?$AA@			; `string'
PUBLIC	??_C@_0BD@PIONOEPA@OnlyStarCanTrigger?$AA@	; `string'
PUBLIC	??_C@_0FF@PAJNHGBM@LISTENER?3?5Received?5end?5objective@ ; `string'
PUBLIC	??_7MC_Destroy_When_Objective_Completed@@6B@	; MC_Destroy_When_Objective_Completed::`vftable'
PUBLIC	??_C@_0P@IPIBNADA@ObjectiveArrow?$AA@		; `string'
PUBLIC	??_7MC_Select_Weapon_On_Zone_Enter@@6B@		; MC_Select_Weapon_On_Zone_Enter::`vftable'
PUBLIC	??_C@_0N@FNADKENL@WeaponPreset?$AA@		; `string'
PUBLIC	??_7MC_Select_Weapon_On_Zone_Exit@@6B@		; MC_Select_Weapon_On_Zone_Exit::`vftable'
PUBLIC	??_7MC_Select_Weapon_On_Zone@@6B@		; MC_Select_Weapon_On_Zone::`vftable'
PUBLIC	??_C@_0BC@CIDFOABF@EnterWeaponPreset?$AA@	; `string'
PUBLIC	??_C@_0BB@FJIKNIBI@ExitWeaponPreset?$AA@	; `string'
PUBLIC	??_7MC_Chinook_Reinforcements_Paradrop@@6B@	; MC_Chinook_Reinforcements_Paradrop::`vftable'
PUBLIC	??_C@_0CL@CNODNEHN@Chinook?5Drop?5script?5is?5now?5initi@ ; `string'
PUBLIC	??_C@_0BC@HOIKKGNK@Generic_Cinematic?$AA@	; `string'
PUBLIC	??_C@_0P@GGKOBND@X5D_Chinookfly?$AA@		; `string'
PUBLIC	??_C@_0BO@IBKIHGMI@X5D_Chinookfly?4X5D_Chinookfly?$AA@ ; `string'
PUBLIC	??_C@_0CA@LJNFJEIB@Created?5main?5Trajectory?5object?4?$AA@ ; `string'
PUBLIC	??_C@_0BI@DCNEEGLC@Creating?5Nod?5Chinook?4?4?4?$AA@ ; `string'
PUBLIC	??_C@_0CB@LJPJOMFN@Nod_Transport_Helicopter_Flyover@ ; `string'
PUBLIC	??_C@_0BK@CFDEGCKI@v_Nod_trnspt?4v_Nod_trnspt?$AA@ ; `string'
PUBLIC	??_C@_0N@DGAPIAII@BN_Chinook_1?$AA@		; `string'
PUBLIC	??_C@_0BM@MIEGKFD@Chinook?5creation?5succesful?4?$AA@ ; `string'
PUBLIC	??_C@_0BI@DCKIDJGD@Creating?5GDI?5Chinook?4?4?4?$AA@ ; `string'
PUBLIC	??_C@_0CB@LGJMANDC@GDI_Transport_Helicopter_Flyover@ ; `string'
PUBLIC	??_C@_0BK@MHLOKNOH@v_GDI_trnspt?4v_GDI_trnspt?$AA@ ; `string'
PUBLIC	??_C@_0BM@MCOAFCEL@Finishing?5initialization?4?4?4?$AA@ ; `string'
PUBLIC	??_C@_0BK@ICHKJGIE@M03_Reinforcement_Chinook?$AA@ ; `string'
PUBLIC	??_C@_0BD@CKOFHFFB@Starting?5timers?4?4?4?$AA@	; `string'
PUBLIC	??_C@_0CP@DMCAJAJG@Script?5is?5now?5enabled?5and?5playin@ ; `string'
PUBLIC	??_C@_0DK@JIEDNEBF@Object?5at?5Slot?51?5has?5changed?5to?5@ ; `string'
PUBLIC	??_C@_0FE@FHLLHMJ@Object?5at?5Slot?51?5was?5tried?5to?5ch@ ; `string'
PUBLIC	??_C@_0DK@FBHHMPBI@Object?5at?5Slot?52?5has?5changed?5to?5@ ; `string'
PUBLIC	??_C@_0FE@KBAFDFAM@Object?5at?5Slot?52?5was?5tried?5to?5ch@ ; `string'
PUBLIC	??_C@_0DK@BGGEDJOD@Object?5at?5Slot?53?5has?5changed?5to?5@ ; `string'
PUBLIC	??_C@_0FE@HEAAEJHA@Object?5at?5Slot?53?5was?5tried?5to?5ch@ ; `string'
PUBLIC	??_C@_0M@CLENLBOJ@FirstPreset?$AA@		; `string'
PUBLIC	??_C@_0N@JFMIKFGC@SecondPreset?$AA@		; `string'
PUBLIC	??_C@_0M@LOGOECDN@ThirdPreset?$AA@		; `string'
PUBLIC	??_C@_0DF@OJFLJMKH@Cinematic?5ended?5and?5now?5scripts?5@ ; `string'
PUBLIC	??_C@_0DD@KKLNDCED@Cinematic?5played?5successfully?$CB?5D@ ; `string'
PUBLIC	??_C@_0BD@BHOPAGIM@Destroyed?5Chinook?4?$AA@	; `string'
PUBLIC	??_C@_0DA@IFKHOFMJ@Couldn?8t?5destroy?5Chinook?3?5Object@ ; `string'
PUBLIC	??_C@_0BI@PDENOJIM@Enabled?5Chinook?5engine?4?$AA@ ; `string'
PUBLIC	??_C@_0DG@IICHJANO@Couldn?8t?5enable?5Chinook?5engine?3?5@ ; `string'
PUBLIC	??_C@_0O@PJGKCEGJ@X5D_Parachute?$AA@		; `string'
PUBLIC	??_C@_0BK@NNAFDBGM@X5D_Parachute?4X5D_ParaC_1?$AA@ ; `string'
PUBLIC	??_C@_0O@FBCFJMGJ@ROOTTRANSFORM?$AA@		; `string'
PUBLIC	??_C@_0P@COLMNKIM@parachute_open?$AA@		; `string'
PUBLIC	??_C@_0BG@MHOGJAHI@M03_No_More_Parachute?$AA@	; `string'
PUBLIC	??_C@_0CI@NBLLPJE@Enabled?5chute?5for?5the?5object?5at?5@ ; `string'
PUBLIC	??_C@_0EH@BHBGALBH@Couldn?8t?5enabled?5chute?5for?5the?5o@ ; `string'
PUBLIC	??_C@_0BK@PGCIGCKP@X5D_Parachute?4X5D_ParaC_2?$AA@ ; `string'
PUBLIC	??_C@_0CI@PFNABMN@Enabled?5chute?5for?5the?5object?5at?5@ ; `string'
PUBLIC	??_C@_0EH@CCPLLNEE@Couldn?8t?5enabled?5chute?5for?5the?5o@ ; `string'
PUBLIC	??_C@_0BK@OPDDFDOO@X5D_Parachute?4X5D_ParaC_3?$AA@ ; `string'
PUBLIC	??_C@_0CI@OJPGLPK@Enabled?5chute?5for?5the?5object?5at?5@ ; `string'
PUBLIC	??_C@_0EH@IHHACNEK@Couldn?8t?5enabled?5chute?5for?5the?5o@ ; `string'
PUBLIC	??_C@_0DE@MKOIPFKA@Initializing?5drop?5animation?5for?5@ ; `string'
PUBLIC	??_C@_09LPBFKAEL@X5D_Box01?$AA@			; `string'
PUBLIC	??_C@_0BE@BHBCONKO@X5D_Box01?4X5D_Box01?$AA@	; `string'
PUBLIC	??_C@_0DA@ODLHBAJN@?$DMSlot?51?$DO?5Animation?5created?$CB?5Atta@ ; `string'
PUBLIC	??_C@_05FLHCHPPG@Box01?$AA@			; `string'
PUBLIC	??_C@_0CH@EDCCNBIP@?$DMSlot?51?$DO?5The?5object?5have?5been?5cr@ ; `string'
PUBLIC	??_C@_0DH@MODCIMOP@?$DMSlot?51?$DO?5Object?5is?5already?5attac@ ; `string'
PUBLIC	??_C@_0BK@LGPLPINO@?$DMSlot?51?$DO?5Facing?5adjusted?4?$AA@ ; `string'
PUBLIC	??_C@_09OFPEPGAP@0?45?00?00?00?$AA@		; `string'
PUBLIC	??_C@_0BC@COBDJBNK@DB_Innate_Soldier?$AA@	; `string'
PUBLIC	??_C@_07FJMLPDKB@1248753?$AA@			; `string'
PUBLIC	??_C@_0BL@NMLBDOEM@MC_Unkillable_Until_Custom?$AA@ ; `string'
PUBLIC	??_C@_0BE@ONIEJANE@1144444?0?51000?0?51000?$AA@	; `string'
PUBLIC	??_C@_0BD@CAMNFDKH@RMV_Trigger_Killed?$AA@	; `string'
PUBLIC	??_C@_0BB@EDJGNAAC@M03_Killed_Sound?$AA@	; `string'
PUBLIC	??_C@_0BE@EBFFJDOA@DLS_Volcano_Stumble?$AA@	; `string'
PUBLIC	??_C@_0BL@FJAFKECE@?$DMSlot?51?$DO?5Scripts?5attached?4?$AA@ ; `string'
PUBLIC	??_C@_0BK@NAIEKIKM@s_a_human?4H_A_X5D_ParaT_1?$AA@ ; `string'
PUBLIC	??_C@_0BI@GCFBKHHF@?$DMSlot?51?$DO?5Animation?5set?4?$AA@ ; `string'
PUBLIC	??_C@_0CI@GBMCNBJH@?$DMSlot?51?$DO?5Object?5attached?5to?5traj@ ; `string'
PUBLIC	??_C@_0DG@DLNFGNFG@?$DMSlot?51?$DO?5This?5slot?5has?5completed@ ; `string'
PUBLIC	??_C@_0GI@ICMDOHLM@Initialization?5of?5slot?51?5has?5can@ ; `string'
PUBLIC	??_C@_0DE@INEIIPHA@Initializing?5drop?5animation?5for?5@ ; `string'
PUBLIC	??_C@_09JEDIPDII@X5D_Box02?$AA@			; `string'
PUBLIC	??_C@_0BE@ELKBGMJN@X5D_Box02?4X5D_Box02?$AA@	; `string'
PUBLIC	??_C@_0DA@NLIMJLOO@?$DMSlot?52?$DO?5Animation?5created?$CB?5Atta@ ; `string'
PUBLIC	??_C@_05HAFPCMDF@Box02?$AA@			; `string'
PUBLIC	??_C@_0CH@BIDFGAJK@?$DMSlot?52?$DO?5The?5object?5have?5been?5cr@ ; `string'
PUBLIC	??_C@_0DH@IEKLPLJL@?$DMSlot?52?$DO?5Object?5is?5already?5attac@ ; `string'
PUBLIC	??_C@_0BK@BJFCLFBE@?$DMSlot?52?$DO?5Facing?5adjusted?4?$AA@ ; `string'
PUBLIC	??_C@_0BL@CCBLCGMH@?$DMSlot?52?$DO?5Scripts?5attached?4?$AA@ ; `string'
PUBLIC	??_C@_0BK@PLKJPLGP@s_a_human?4H_A_X5D_ParaT_2?$AA@ ; `string'
PUBLIC	??_C@_0BI@IINHHKBH@?$DMSlot?52?$DO?5Animation?5set?4?$AA@ ; `string'
PUBLIC	??_C@_0CI@MEECCMN@?$DMSlot?52?$DO?5Object?5attached?5to?5traj@ ; `string'
PUBLIC	??_C@_0DG@HNAHFIDC@?$DMSlot?52?$DO?5This?5slot?5has?5completed@ ; `string'
PUBLIC	??_C@_0GI@DEIBKCCJ@Initialization?5of?5slot?52?5has?5can@ ; `string'
PUBLIC	??_C@_0DE@LACIKGMA@Initializing?5drop?5animation?5for?5@ ; `string'
PUBLIC	??_C@_09INCDMCMJ@X5D_Box03?$AA@			; `string'
PUBLIC	??_C@_0BE@MJBPBBLD@X5D_Box03?4X5D_Box03?$AA@	; `string'
PUBLIC	??_C@_0DA@HKLFBPAA@?$DMSlot?53?$DO?5Animation?5created?$CB?5Atta@ ; `string'
PUBLIC	??_C@_05GJEEBNHE@Box03?$AA@			; `string'
PUBLIC	??_C@_0CH@COMHPAGJ@?$DMSlot?53?$DO?5The?5object?5have?5been?5cr@ ; `string'
PUBLIC	??_C@_0DH@LPDNEII@?$DMSlot?53?$DO?5Object?5is?5already?5attac@ ; `string'
PUBLIC	??_C@_0BK@HMDFIOFC@?$DMSlot?53?$DO?5Facing?5adjusted?4?$AA@ ; `string'
PUBLIC	??_C@_0BL@LNMBKFFJ@?$DMSlot?53?$DO?5Scripts?5attached?4?$AA@ ; `string'
PUBLIC	??_C@_0BK@OCLCMKCO@s_a_human?4H_A_X5D_ParaT_3?$AA@ ; `string'
PUBLIC	??_C@_0BI@GHIFMMPG@?$DMSlot?53?$DO?5Animation?5set?4?$AA@ ; `string'
PUBLIC	??_C@_0CI@CIMGHDPL@?$DMSlot?53?$DO?5Object?5attached?5to?5traj@ ; `string'
PUBLIC	??_C@_0DG@EALGLEOO@?$DMSlot?53?$DO?5This?5slot?5has?5completed@ ; `string'
PUBLIC	??_C@_0GI@FJEAGBFK@Initialization?5of?5slot?53?5has?5can@ ; `string'
PUBLIC	??_7MC_Unkillable_Until_Custom@@6B@		; MC_Unkillable_Until_Custom::`vftable'
PUBLIC	??_7MC_AttachScript_On_Kill@@6B@		; MC_AttachScript_On_Kill::`vftable'
PUBLIC	??_C@_0L@PBGCNDPG@Parameters?$AA@		; `string'
PUBLIC	??_C@_06CEFAHBNL@Script?$AA@			; `string'
PUBLIC	??_C@_08CMHNALBL@ObjectID?$AA@			; `string'
PUBLIC	??_7MC_AttachScript_Interval_Self@@6B@		; MC_AttachScript_Interval_Self::`vftable'
PUBLIC	??_C@_09DJNPMOMG@LoopCount?$AA@			; `string'
PUBLIC	??_7MC_AttachScript_Interval@@6B@		; MC_AttachScript_Interval::`vftable'
PUBLIC	??_7MC_Private_Color_Message_On_Poke@@6B@	; MC_Private_Color_Message_On_Poke::`vftable'
PUBLIC	??_7?$ScriptRegistrant@VMC_Stop_Vehicle_Engine@@@@6B@ ; ScriptRegistrant<MC_Stop_Vehicle_Engine>::`vftable'
PUBLIC	?MC_Stop_Vehicle_Engine_Registrant@@3V?$ScriptRegistrant@VMC_Stop_Vehicle_Engine@@@@A ; MC_Stop_Vehicle_Engine_Registrant
PUBLIC	??_C@_0BB@HEBBDDPN@Duration?$DN0?3float?$AA@	; `string'
PUBLIC	??_C@_0BH@FJMJCOG@MC_Stop_Vehicle_Engine?$AA@	; `string'
PUBLIC	??_7?$ScriptRegistrant@VMC_Vehicle_Purchase_Terminal@@@@6B@ ; ScriptRegistrant<MC_Vehicle_Purchase_Terminal>::`vftable'
PUBLIC	?MC_Vehicle_Purchase_Terminal_Registrant@@3V?$ScriptRegistrant@VMC_Vehicle_Purchase_Terminal@@@@A ; MC_Vehicle_Purchase_Terminal_Registrant
PUBLIC	??_C@_0EA@CKGCDJGF@Team?$DN0?3int?0SpawnerID?$DN0?3int?0Vehic@ ; `string'
PUBLIC	??_C@_0BN@NBGJDKKG@MC_Vehicle_Purchase_Terminal?$AA@ ; `string'
PUBLIC	??_7?$ScriptRegistrant@VMC_Character_Purchase_Terminal@@@@6B@ ; ScriptRegistrant<MC_Character_Purchase_Terminal>::`vftable'
PUBLIC	?MC_Character_Purchase_Terminal_Registrant@@3V?$ScriptRegistrant@VMC_Character_Purchase_Terminal@@@@A ; MC_Character_Purchase_Terminal_Registrant
PUBLIC	??_C@_0DC@CNGBDLBP@Team?$DN0?3int?0CharacterPreset?3strin@ ; `string'
PUBLIC	??_C@_0BP@HAAEEAKK@MC_Character_Purchase_Terminal?$AA@ ; `string'
PUBLIC	??_7?$ScriptRegistrant@VMC_HUD_Message_Zone@@@@6B@ ; ScriptRegistrant<MC_HUD_Message_Zone>::`vftable'
PUBLIC	?MC_HUD_Message_Zone_Registrant@@3V?$ScriptRegistrant@VMC_HUD_Message_Zone@@@@A ; MC_HUD_Message_Zone_Registrant
PUBLIC	??_C@_0GH@DHFAIICI@Message?$DNYourMessage?3string?0Sound@ ; `string'
PUBLIC	??_C@_0BE@JGJDCED@MC_HUD_Message_Zone?$AA@	; `string'
PUBLIC	??_7?$ScriptRegistrant@VMC_Teleport@@@@6B@	; ScriptRegistrant<MC_Teleport>::`vftable'
PUBLIC	?MC_Teleport_Registrant@@3V?$ScriptRegistrant@VMC_Teleport@@@@A ; MC_Teleport_Registrant
PUBLIC	??_C@_0DB@KGMFODJM@ArrowID?$DN0?3int?0TeleportSound?$DNSoun@ ; `string'
PUBLIC	??_C@_0M@IHICMCO@MC_Teleport?$AA@		; `string'
PUBLIC	??_7?$ScriptRegistrant@VMC_Change_Vehicle_Weapon@@@@6B@ ; ScriptRegistrant<MC_Change_Vehicle_Weapon>::`vftable'
PUBLIC	?MC_Change_Vehicle_Weapon_Registrant@@3V?$ScriptRegistrant@VMC_Change_Vehicle_Weapon@@@@A ; MC_Change_Vehicle_Weapon_Registrant
PUBLIC	??_C@_0CC@OGNKNJGM@Preset?$DNWeapon?3string?0Rounds?$DN1?3in@ ; `string'
PUBLIC	??_C@_0BJ@OCIIIO@MC_Change_Vehicle_Weapon?$AA@	; `string'
PUBLIC	??_7?$ScriptRegistrant@VMC_Change_Vehicle_Weapon_Zone@@@@6B@ ; ScriptRegistrant<MC_Change_Vehicle_Weapon_Zone>::`vftable'
PUBLIC	?MC_Change_Vehicle_Weapon_Zone_Registrant@@3V?$ScriptRegistrant@VMC_Change_Vehicle_Weapon_Zone@@@@A ; MC_Change_Vehicle_Weapon_Zone_Registrant
PUBLIC	??_C@_0BO@DKKAGHDM@MC_Change_Vehicle_Weapon_Zone?$AA@ ; `string'
PUBLIC	??_7?$ScriptRegistrant@VMC_Grant_Weapon@@@@6B@	; ScriptRegistrant<MC_Grant_Weapon>::`vftable'
PUBLIC	?MC_Grant_Weapon_Registrant@@3V?$ScriptRegistrant@VMC_Grant_Weapon@@@@A ; MC_Grant_Weapon_Registrant
PUBLIC	??_C@_0BA@CAAIJFPD@MC_Grant_Weapon?$AA@		; `string'
PUBLIC	??_7?$ScriptRegistrant@VMC_Grant_Weapon_Zone@@@@6B@ ; ScriptRegistrant<MC_Grant_Weapon_Zone>::`vftable'
PUBLIC	?MC_Grant_Weapon_Zone_Registrant@@3V?$ScriptRegistrant@VMC_Grant_Weapon_Zone@@@@A ; MC_Grant_Weapon_Zone_Registrant
PUBLIC	??_C@_0BF@KIGALNNE@MC_Grant_Weapon_Zone?$AA@	; `string'
PUBLIC	??_7?$ScriptRegistrant@VMC_Grant_Character@@@@6B@ ; ScriptRegistrant<MC_Grant_Character>::`vftable'
PUBLIC	?MC_Grant_Character_Registrant@@3V?$ScriptRegistrant@VMC_Grant_Character@@@@A ; MC_Grant_Character_Registrant
PUBLIC	??_C@_0BI@MKNLEOHL@Preset?$DNCharacter?3string?$AA@ ; `string'
PUBLIC	??_C@_0BD@IICIGMJN@MC_Grant_Character?$AA@	; `string'
PUBLIC	??_7?$ScriptRegistrant@VMC_Grant_Character_Zone@@@@6B@ ; ScriptRegistrant<MC_Grant_Character_Zone>::`vftable'
PUBLIC	?MC_Grant_Character_Zone_Registrant@@3V?$ScriptRegistrant@VMC_Grant_Character_Zone@@@@A ; MC_Grant_Character_Zone_Registrant
PUBLIC	??_C@_0BI@CLJPFNNE@MC_Grant_Character_Zone?$AA@	; `string'
PUBLIC	??_7?$ScriptRegistrant@VMC_Spawn_When_Fully_Repaired@@@@6B@ ; ScriptRegistrant<MC_Spawn_When_Fully_Repaired>::`vftable'
PUBLIC	?MC_Spawn_When_Fully_Repaired_Registrant@@3V?$ScriptRegistrant@VMC_Spawn_When_Fully_Repaired@@@@A ; MC_Spawn_When_Fully_Repaired_Registrant
PUBLIC	??_C@_0BF@JCNKCEEH@Preset?$DNWeapon?3string?$AA@ ; `string'
PUBLIC	??_C@_0BN@CFLDONGH@MC_Spawn_When_Fully_Repaired?$AA@ ; `string'
PUBLIC	??_7?$ScriptRegistrant@VMC_Refinery_Object@@@@6B@ ; ScriptRegistrant<MC_Refinery_Object>::`vftable'
PUBLIC	?MC_Refinery_Object_Registrant@@3V?$ScriptRegistrant@VMC_Refinery_Object@@@@A ; MC_Refinery_Object_Registrant
PUBLIC	??_C@_0CP@PDPLAPMJ@Team?$DN0?3int?0Interval?$DN1?40?3float?0Am@ ; `string'
PUBLIC	??_C@_0BD@KLOOGECF@MC_Refinery_Object?$AA@	; `string'
PUBLIC	??_7?$ScriptRegistrant@VMC_GameOver_When_Kill@@@@6B@ ; ScriptRegistrant<MC_GameOver_When_Kill>::`vftable'
PUBLIC	?MC_GameOver_When_Kill_Registrant@@3V?$ScriptRegistrant@VMC_GameOver_When_Kill@@@@A ; MC_GameOver_When_Kill_Registrant
PUBLIC	??_C@_0BG@DLHEPAGG@MC_GameOver_When_Kill?$AA@	; `string'
PUBLIC	??_7?$ScriptRegistrant@VMC_Spawn_When_Death@@@@6B@ ; ScriptRegistrant<MC_Spawn_When_Death>::`vftable'
PUBLIC	?MC_Spawn_When_Death_Registrant@@3V?$ScriptRegistrant@VMC_Spawn_When_Death@@@@A ; MC_Spawn_When_Death_Registrant
PUBLIC	??_C@_0BF@DHKDOEKD@Preset?$DNObject?3string?$AA@ ; `string'
PUBLIC	??_C@_0BE@NKBKMCEM@MC_Spawn_When_Death?$AA@	; `string'
PUBLIC	??_7?$ScriptRegistrant@VMC_MasterControlTerminal_Object@@@@6B@ ; ScriptRegistrant<MC_MasterControlTerminal_Object>::`vftable'
PUBLIC	?MC_MasterControlTerminal_Object_Registrant@@3V?$ScriptRegistrant@VMC_MasterControlTerminal_Object@@@@A ; MC_MasterControlTerminal_Object_Registrant
PUBLIC	??_C@_0BN@LPGCIBDK@Object?3int?0Multiply?$DN1?400?3int?$AA@ ; `string'
PUBLIC	??_C@_0CA@DCJLMAFK@MC_MasterControlTerminal_Object?$AA@ ; `string'
PUBLIC	??_7?$ScriptRegistrant@VMC_MCTMainSyncObject@@@@6B@ ; ScriptRegistrant<MC_MCTMainSyncObject>::`vftable'
PUBLIC	?MC_MCTMainSyncObject_Registrant@@3V?$ScriptRegistrant@VMC_MCTMainSyncObject@@@@A ; MC_MCTMainSyncObject_Registrant
PUBLIC	??_C@_0BB@HMAONLLK@MCT_ObjectID?3int?$AA@	; `string'
PUBLIC	??_C@_0BF@FJPNLKPO@MC_MCTMainSyncObject?$AA@	; `string'
PUBLIC	??_7?$ScriptRegistrant@VMC_Set_Team_When_Exit@@@@6B@ ; ScriptRegistrant<MC_Set_Team_When_Exit>::`vftable'
PUBLIC	?MC_Set_Team_When_Exit_Registrant@@3V?$ScriptRegistrant@VMC_Set_Team_When_Exit@@@@A ; MC_Set_Team_When_Exit_Registrant
PUBLIC	??_C@_0M@NCPMODKK@Team?$DN?91?3int?$AA@		; `string'
PUBLIC	??_C@_0BG@FEIPBPND@MC_Set_Team_When_Exit?$AA@	; `string'
PUBLIC	??_7?$ScriptRegistrant@VMC_IonExplosion_When_Death@@@@6B@ ; ScriptRegistrant<MC_IonExplosion_When_Death>::`vftable'
PUBLIC	?MC_IonExplosion_When_Death_Registrant@@3V?$ScriptRegistrant@VMC_IonExplosion_When_Death@@@@A ; MC_IonExplosion_When_Death_Registrant
PUBLIC	??_C@_0BL@KCMMHFND@MC_IonExplosion_When_Death?$AA@ ; `string'
PUBLIC	??_7?$ScriptRegistrant@VMC_Capturable_Object@@@@6B@ ; ScriptRegistrant<MC_Capturable_Object>::`vftable'
PUBLIC	?MC_Capturable_Object_Registrant@@3V?$ScriptRegistrant@VMC_Capturable_Object@@@@A ; MC_Capturable_Object_Registrant
PUBLIC	??_C@_0IK@HGCODGOL@Red?$DN16?3int?0Green?$DN255?3int?0Blue?$DN16@ ; `string'
PUBLIC	??_C@_0BF@OFIELIOO@MC_Capturable_Object?$AA@	; `string'
PUBLIC	??_7?$ScriptRegistrant@VMC_FlyMode_On@@@@6B@	; ScriptRegistrant<MC_FlyMode_On>::`vftable'
PUBLIC	?MC_FlyMode_On_Registrant@@3V?$ScriptRegistrant@VMC_FlyMode_On@@@@A ; MC_FlyMode_On_Registrant
PUBLIC	??_C@_0O@CBIOLGDH@MC_FlyMode_On?$AA@		; `string'
PUBLIC	??_7?$ScriptRegistrant@VMC_FlyMode_Off@@@@6B@	; ScriptRegistrant<MC_FlyMode_Off>::`vftable'
PUBLIC	?MC_FlyMode_Off_Registrant@@3V?$ScriptRegistrant@VMC_FlyMode_Off@@@@A ; MC_FlyMode_Off_Registrant
PUBLIC	??_C@_0P@IFCILGCA@MC_FlyMode_Off?$AA@		; `string'
PUBLIC	??_7?$ScriptRegistrant@VMC_FlyModeZone_On@@@@6B@ ; ScriptRegistrant<MC_FlyModeZone_On>::`vftable'
PUBLIC	?MC_FlyModeZone_On_Registrant@@3V?$ScriptRegistrant@VMC_FlyModeZone_On@@@@A ; MC_FlyModeZone_On_Registrant
PUBLIC	??_C@_0BC@IABPLLME@MC_FlyModeZone_On?$AA@	; `string'
PUBLIC	??_7?$ScriptRegistrant@VMC_FlyModeZone_Off@@@@6B@ ; ScriptRegistrant<MC_FlyModeZone_Off>::`vftable'
PUBLIC	?MC_FlyModeZone_Off_Registrant@@3V?$ScriptRegistrant@VMC_FlyModeZone_Off@@@@A ; MC_FlyModeZone_Off_Registrant
PUBLIC	??_C@_0BD@KBDNIEIL@MC_FlyModeZone_Off?$AA@	; `string'
PUBLIC	??_7?$ScriptRegistrant@VMC_Spectate@@@@6B@	; ScriptRegistrant<MC_Spectate>::`vftable'
PUBLIC	?MC_Spectate_Registrant@@3V?$ScriptRegistrant@VMC_Spectate@@@@A ; MC_Spectate_Registrant
PUBLIC	??_C@_0M@FJIIFGDH@MC_Spectate?$AA@		; `string'
PUBLIC	??_7?$ScriptRegistrant@VMC_Spectate_Zone@@@@6B@	; ScriptRegistrant<MC_Spectate_Zone>::`vftable'
PUBLIC	?MC_Spectate_Zone_Registrant@@3V?$ScriptRegistrant@VMC_Spectate_Zone@@@@A ; MC_Spectate_Zone_Registrant
PUBLIC	??_C@_0BB@MPMFGLBI@MC_Spectate_Zone?$AA@	; `string'
PUBLIC	??_7?$ScriptRegistrant@VMC_Beacon_Block_Zone@@@@6B@ ; ScriptRegistrant<MC_Beacon_Block_Zone>::`vftable'
PUBLIC	?MC_Beacon_Block_Zone_Registrant@@3V?$ScriptRegistrant@VMC_Beacon_Block_Zone@@@@A ; MC_Beacon_Block_Zone_Registrant
PUBLIC	??_C@_0DJ@DIFIBPCC@Red?$DN16?3int?0Green?$DN255?3int?0Blue?$DN16@ ; `string'
PUBLIC	??_C@_0BF@FOIJKIHA@MC_Beacon_Block_Zone?$AA@	; `string'
PUBLIC	??_7?$ScriptRegistrant@VMC_Objective_Message_Sender@@@@6B@ ; ScriptRegistrant<MC_Objective_Message_Sender>::`vftable'
PUBLIC	?MC_Objective_Message_Sender_Registrant@@3V?$ScriptRegistrant@VMC_Objective_Message_Sender@@@@A ; MC_Objective_Message_Sender_Registrant
PUBLIC	??_C@_0CI@DDFFHCOH@Message?$DNUse_Underscore_For_Space@ ; `string'
PUBLIC	??_7?$ScriptRegistrant@VMC_Objective_Controller@@@@6B@ ; ScriptRegistrant<MC_Objective_Controller>::`vftable'
PUBLIC	?MC_Objective_Controller_Registrant@@3V?$ScriptRegistrant@VMC_Objective_Controller@@@@A ; MC_Objective_Controller_Registrant
PUBLIC	??_C@_0GF@MMCJCNDO@Objectives?$DNObjective?9Objects?9IDs@ ; `string'
PUBLIC	??_C@_0BI@LLCDJJAH@MC_Objective_Controller?$AA@	; `string'
PUBLIC	??_7?$ScriptRegistrant@VMC_Objective_Listener@@@@6B@ ; ScriptRegistrant<MC_Objective_Listener>::`vftable'
PUBLIC	?MC_Objective_Listener_Registrant@@3V?$ScriptRegistrant@VMC_Objective_Listener@@@@A ; MC_Objective_Listener_Registrant
PUBLIC	??_C@_0FE@BJMGOCMG@Objective?$DN100000?3int?0Trigger?3str@ ; `string'
PUBLIC	??_7?$ScriptRegistrant@VMC_Objective@@@@6B@	; ScriptRegistrant<MC_Objective>::`vftable'
PUBLIC	?MC_Objective_Registrant@@3V?$ScriptRegistrant@VMC_Objective@@@@A ; MC_Objective_Registrant
PUBLIC	??_C@_0MN@BLGNPFPJ@Message?$DNUse_Underscore_For_Space@ ; `string'
PUBLIC	??_7?$ScriptRegistrant@VMC_Destroy_When_Objective_Completed@@@@6B@ ; ScriptRegistrant<MC_Destroy_When_Objective_Completed>::`vftable'
PUBLIC	?MC_Destroy_When_Objective_Completed_Registrant@@3V?$ScriptRegistrant@VMC_Destroy_When_Objective_Completed@@@@A ; MC_Destroy_When_Objective_Completed_Registrant
PUBLIC	??_C@_0BK@CEJPBFAH@ObjectiveArrow?$DN100000?3int?$AA@ ; `string'
PUBLIC	??_C@_0CE@JMFHIIIA@MC_Destroy_When_Objective_Comple@ ; `string'
PUBLIC	??_7?$ScriptRegistrant@VMC_Select_Weapon_On_Zone@@@@6B@ ; ScriptRegistrant<MC_Select_Weapon_On_Zone>::`vftable'
PUBLIC	?MC_Select_Weapon_On_Zone_Registrant@@3V?$ScriptRegistrant@VMC_Select_Weapon_On_Zone@@@@A ; MC_Select_Weapon_On_Zone_Registrant
PUBLIC	??_C@_0DB@FBAMALPJ@EnterWeaponPreset?3string?0ExitWea@ ; `string'
PUBLIC	??_C@_0BJ@EEAONCDN@MC_Select_Weapon_On_Zone?$AA@ ; `string'
PUBLIC	??_7?$ScriptRegistrant@VMC_Select_Weapon_On_Zone_Enter@@@@6B@ ; ScriptRegistrant<MC_Select_Weapon_On_Zone_Enter>::`vftable'
PUBLIC	?MC_Select_Weapon_On_Zone_Enter_Registrant@@3V?$ScriptRegistrant@VMC_Select_Weapon_On_Zone_Enter@@@@A ; MC_Select_Weapon_On_Zone_Enter_Registrant
PUBLIC	??_C@_0BE@KBHJHDFA@WeaponPreset?3string?$AA@	; `string'
PUBLIC	??_C@_0BP@MHNPIELM@MC_Select_Weapon_On_Zone_Enter?$AA@ ; `string'
PUBLIC	??_7?$ScriptRegistrant@VMC_Select_Weapon_On_Zone_Exit@@@@6B@ ; ScriptRegistrant<MC_Select_Weapon_On_Zone_Exit>::`vftable'
PUBLIC	?MC_Select_Weapon_On_Zone_Exit_Registrant@@3V?$ScriptRegistrant@VMC_Select_Weapon_On_Zone_Exit@@@@A ; MC_Select_Weapon_On_Zone_Exit_Registrant
PUBLIC	??_C@_0BO@IEHCADBL@MC_Select_Weapon_On_Zone_Exit?$AA@ ; `string'
PUBLIC	??_7?$ScriptRegistrant@VMC_Chinook_Reinforcements_Paradrop@@@@6B@ ; ScriptRegistrant<MC_Chinook_Reinforcements_Paradrop>::`vftable'
PUBLIC	?MC_Chinook_Reinforcements_Paradrop_Registrant@@3V?$ScriptRegistrant@VMC_Chinook_Reinforcements_Paradrop@@@@A ; MC_Chinook_Reinforcements_Paradrop_Registrant
PUBLIC	??_C@_0EG@DPKMHNED@FirstPreset?3string?0SecondPreset?3@ ; `string'
PUBLIC	??_C@_0CD@KBGPNPHI@MC_Chinook_Reinforcements_Paradr@ ; `string'
PUBLIC	??_7?$ScriptRegistrant@VMC_Unkillable_Until_Custom@@@@6B@ ; ScriptRegistrant<MC_Unkillable_Until_Custom>::`vftable'
PUBLIC	?MC_Unkillable_Until_Custom_Registrant@@3V?$ScriptRegistrant@VMC_Unkillable_Until_Custom@@@@A ; MC_Unkillable_Until_Custom_Registrant
PUBLIC	??_C@_0M@HBPJHKKO@Message?3int?$AA@		; `string'
PUBLIC	??_7?$ScriptRegistrant@VMC_AttachScript_On_Kill@@@@6B@ ; ScriptRegistrant<MC_AttachScript_On_Kill>::`vftable'
PUBLIC	?MC_AttachScript_On_Kill_Registrant@@3V?$ScriptRegistrant@VMC_AttachScript_On_Kill@@@@A ; MC_AttachScript_On_Kill_Registrant
PUBLIC	??_C@_0CN@GKCBHINB@ObjectID?3int?0Script?3string?0Param@ ; `string'
PUBLIC	??_C@_0BI@OMCDDPC@MC_AttachScript_On_Kill?$AA@	; `string'
PUBLIC	??_7?$ScriptRegistrant@VMC_AttachScript_Interval_Self@@@@6B@ ; ScriptRegistrant<MC_AttachScript_Interval_Self>::`vftable'
PUBLIC	?MC_AttachScript_Interval_Self_Registrant@@3V?$ScriptRegistrant@VMC_AttachScript_Interval_Self@@@@A ; MC_AttachScript_Interval_Self_Registrant
PUBLIC	??_C@_0DB@JIAKGFMC@Script?3string?0Parameters?3string?0@ ; `string'
PUBLIC	??_C@_0BO@OAMAJGIP@MC_AttachScript_Interval_Self?$AA@ ; `string'
PUBLIC	??_7?$ScriptRegistrant@VMC_AttachScript_Interval@@@@6B@ ; ScriptRegistrant<MC_AttachScript_Interval>::`vftable'
PUBLIC	?MC_AttachScript_Interval_Registrant@@3V?$ScriptRegistrant@VMC_AttachScript_Interval@@@@A ; MC_AttachScript_Interval_Registrant
PUBLIC	??_C@_0DO@BKLLKNJA@ObjectID?3int?0Script?3string?0Param@ ; `string'
PUBLIC	??_C@_0BJ@DJLPIHDJ@MC_AttachScript_Interval?$AA@ ; `string'
PUBLIC	??_7?$ScriptRegistrant@VMC_Private_Color_Message_On_Poke@@@@6B@ ; ScriptRegistrant<MC_Private_Color_Message_On_Poke>::`vftable'
PUBLIC	?MC_Private_Color_Message_On_Poke_Registrant@@3V?$ScriptRegistrant@VMC_Private_Color_Message_On_Poke@@@@A ; MC_Private_Color_Message_On_Poke_Registrant
PUBLIC	??_C@_0DO@OMHMKFDE@Red?$DN255?3int?0Green?$DN255?3int?0Blue?$DN2@ ; `string'
PUBLIC	??_C@_0CB@LMBIGNNJ@MC_Private_Color_Message_On_Poke@ ; `string'
PUBLIC	??_C@_0EJ@ENMBJFB@SList?$DMstruct?5MultiKeyHookScriptI@ ; `string'
PUBLIC	??_C@_0DB@DFBFLIIO@x?3?2github?2renegade?2dragonade_rxd@ ; `string'
PUBLIC	??_C@_1GC@LJHGOLFN@?$AAx?$AA?3?$AA?2?$AAg?$AAi?$AAt?$AAh?$AAu?$AAb?$AA?2?$AAr?$AAe?$AAn?$AAe?$AAg?$AAa?$AAd?$AAe?$AA?2?$AAd?$AAr?$AAa?$AAg?$AAo?$AAn?$AAa?$AAd?$AAe?$AA_?$AAr?$AAx?$AAd@ ; `string'
PUBLIC	??_C@_0EJ@OIGECPDF@SList?$DMstruct?5MultiKeyHookScriptI@ ; `string'
PUBLIC	??_C@_0EM@PPENJFKC@SList?$DMstruct?5MultiKeyHookScriptI@ ; `string'
PUBLIC	??_C@_0EH@CGJBMJBC@SList?$DMstruct?5MultiKeyHookScriptI@ ; `string'
PUBLIC	??_C@_0EL@MPFHHNNA@SList?$DMstruct?5MultiKeyHookScriptI@ ; `string'
PUBLIC	??_C@_0EO@OJGPEJGC@SList?$DMstruct?5MultiKeyHookScriptI@ ; `string'
PUBLIC	??_C@_0EN@HIHNAGN@SList?$DMstruct?5MultiKeyHookScriptI@ ; `string'
PUBLIC	??_C@_1IO@BLKJFPEG@?$AAc?$AA?3?$AA?2?$AAp?$AAr?$AAo?$AAg?$AAr?$AAa?$AAm?$AA?5?$AAf?$AAi?$AAl?$AAe?$AAs?$AA?5?$AA?$CI?$AAx?$AA8?$AA6?$AA?$CJ?$AA?2?$AAm?$AAi?$AAc?$AAr?$AAo?$AAs?$AAo?$AAf?$AAt@ ; `string'
PUBLIC	??_C@_0CP@MBHJHLNO@VectorClass?$DMclass?5ScriptableGame@ ; `string'
PUBLIC	??_C@_0CO@FDJMIAFF@VectorClass?$DMclass?5ScriptableGame@ ; `string'
PUBLIC	??_C@_0CE@CNPJKPFN@SList?$DMclass?5MC_Objective?$DO?3?3Add_H@ ; `string'
PUBLIC	??_C@_0CE@MBEBJJDJ@SList?$DMclass?5MC_Objective?$DO?3?3Add_T@ ; `string'
PUBLIC	??_C@_0CH@PMMLBJG@SList?$DMclass?5MC_Objective?$DO?3?3Remov@ ; `string'
PUBLIC	??_C@_0CC@OAINMMEJ@SList?$DMclass?5MC_Objective?$DO?3?3Remov@ ; `string'
PUBLIC	??_C@_0CG@EBOAANEA@SList?$DMclass?5MC_Objective?$DO?3?3Remov@ ; `string'
PUBLIC	??_C@_0CJ@GOEGKOMF@SList?$DMclass?5MC_Objective?$DO?3?3Inser@ ; `string'
PUBLIC	??_C@_0CI@CGMDKFPM@SList?$DMclass?5MC_Objective?$DO?3?3Inser@ ; `string'
PUBLIC	??_C@_1IM@FAGLHIHN@?$AAc?$AA?3?$AA?2?$AAp?$AAr?$AAo?$AAg?$AAr?$AAa?$AAm?$AA?5?$AAf?$AAi?$AAl?$AAe?$AAs?$AA?5?$AA?$CI?$AAx?$AA8?$AA6?$AA?$CJ?$AA?2?$AAm?$AAi?$AAc?$AAr?$AAo?$AAs?$AAo?$AAf?$AAt@ ; `string'
PUBLIC	??_C@_1DM@LHGCHCBA@?$AAv?$AAe?$AAc?$AAt?$AAo?$AAr?$AA?5?$AAs?$AAu?$AAb?$AAs?$AAc?$AAr?$AAi?$AAp?$AAt?$AA?5?$AAo?$AAu?$AAt?$AA?5?$AAo?$AAf?$AA?5?$AAr?$AAa?$AAn?$AAg?$AAe?$AA?$AA@ ; `string'
PUBLIC	??_C@_0CE@OFMIGAMM@Standard?5C?$CL?$CL?5Libraries?5Out?5of?5Ra@ ; `string'
PUBLIC	??_C@_1FG@IBPIFFN@?$AA?$CC?$AAS?$AAt?$AAa?$AAn?$AAd?$AAa?$AAr?$AAd?$AA?5?$AAC?$AA?$CL?$AA?$CL?$AA?5?$AAL?$AAi?$AAb?$AAr?$AAa?$AAr?$AAi?$AAe?$AAs?$AA?5?$AAO?$AAu?$AAt?$AA?5?$AAo?$AAf?$AA?5?$AAR@ ; `string'
PUBLIC	??_C@_15GANGMFKL@?$AA?$CF?$AAs?$AA?$AA@		; `string'
PUBLIC	??_C@_1BME@NCIPHHDN@?$AAs?$AAt?$AAd?$AA?3?$AA?3?$AAv?$AAe?$AAc?$AAt?$AAo?$AAr?$AA?$DM?$AAc?$AAl?$AAa?$AAs?$AAs?$AA?5?$AAs?$AAt?$AAd?$AA?3?$AA?3?$AAb?$AAa?$AAs?$AAi?$AAc?$AA_?$AAs?$AAt?$AAr@ ; `string'
PUBLIC	??_C@_1BO@MEPPHOO@?$AA?$CC?$AAo?$AAu?$AAt?$AA?5?$AAo?$AAf?$AA?5?$AAr?$AAa?$AAn?$AAg?$AAe?$AA?$CC?$AA?$AA@ ; `string'
PUBLIC	??_C@_0DH@OGFEBCCD@ScriptRegistrant?$DMclass?5MC_Stop_V@ ; `string'
PUBLIC	??_C@_0DD@KMKBFFOF@x?3?2github?2renegade?2dragonade_rxd@ ; `string'
PUBLIC	??_C@_1GG@OGNLNBPD@?$AAx?$AA?3?$AA?2?$AAg?$AAi?$AAt?$AAh?$AAu?$AAb?$AA?2?$AAr?$AAe?$AAn?$AAe?$AAg?$AAa?$AAd?$AAe?$AA?2?$AAd?$AAr?$AAa?$AAg?$AAo?$AAn?$AAa?$AAd?$AAe?$AA_?$AAr?$AAx?$AAd@ ; `string'
PUBLIC	??_C@_0DN@JIGDPHKI@ScriptRegistrant?$DMclass?5MC_Vehicl@ ; `string'
PUBLIC	??_C@_0DP@JGOCPJEB@ScriptRegistrant?$DMclass?5MC_Charac@ ; `string'
PUBLIC	??_C@_0DE@KKJLLPFB@ScriptRegistrant?$DMclass?5MC_HUD_Me@ ; `string'
PUBLIC	??_C@_0CM@PECPJKND@ScriptRegistrant?$DMclass?5MC_Telepo@ ; `string'
PUBLIC	??_C@_0DJ@LBAIGMDJ@ScriptRegistrant?$DMclass?5MC_Change@ ; `string'
PUBLIC	??_C@_0DO@LCLLCHIB@ScriptRegistrant?$DMclass?5MC_Change@ ; `string'
PUBLIC	??_C@_0DA@LELHCKLJ@ScriptRegistrant?$DMclass?5MC_Grant_@ ; `string'
PUBLIC	??_C@_0DF@OFHNNJK@ScriptRegistrant?$DMclass?5MC_Grant_@ ; `string'
PUBLIC	??_C@_0DD@CNJHBLMF@ScriptRegistrant?$DMclass?5MC_Grant_@ ; `string'
PUBLIC	??_C@_0DI@OCCMDICD@ScriptRegistrant?$DMclass?5MC_Grant_@ ; `string'
PUBLIC	??_C@_0DN@LKLHJIKC@ScriptRegistrant?$DMclass?5MC_Spawn_@ ; `string'
PUBLIC	??_C@_0DD@CDDLLPNM@ScriptRegistrant?$DMclass?5MC_Refine@ ; `string'
PUBLIC	??_C@_0DG@LKCEHGCI@ScriptRegistrant?$DMclass?5MC_GameOv@ ; `string'
PUBLIC	??_C@_0DE@MDGDMAPN@ScriptRegistrant?$DMclass?5MC_Spawn_@ ; `string'
PUBLIC	??_C@_0EA@HHCGFNFI@ScriptRegistrant?$DMclass?5MC_Master@ ; `string'
PUBLIC	??_C@_0DF@EDJMABPO@ScriptRegistrant?$DMclass?5MC_MCTMai@ ; `string'
PUBLIC	??_C@_0DG@HNPMBHJL@ScriptRegistrant?$DMclass?5MC_Set_Te@ ; `string'
PUBLIC	??_C@_0DL@DAKHLIGE@ScriptRegistrant?$DMclass?5MC_IonExp@ ; `string'
PUBLIC	??_C@_0DF@LJIBACAE@ScriptRegistrant?$DMclass?5MC_Captur@ ; `string'
PUBLIC	??_C@_0CO@MFDLOAOP@ScriptRegistrant?$DMclass?5MC_FlyMod@ ; `string'
PUBLIC	??_C@_0CP@MJBLGPFK@ScriptRegistrant?$DMclass?5MC_FlyMod@ ; `string'
PUBLIC	??_C@_0DC@FCNBHKOC@ScriptRegistrant?$DMclass?5MC_FlyMod@ ; `string'
PUBLIC	??_C@_0DD@LHDNPJHN@ScriptRegistrant?$DMclass?5MC_FlyMod@ ; `string'
PUBLIC	??_C@_0CM@GKHAACCK@ScriptRegistrant?$DMclass?5MC_Specta@ ; `string'
PUBLIC	??_C@_0DB@HGCMGPNP@ScriptRegistrant?$DMclass?5MC_Specta@ ; `string'
PUBLIC	??_C@_0DF@NGLHCIPF@ScriptRegistrant?$DMclass?5MC_Beacon@ ; `string'
PUBLIC	??_C@_0DM@JAJCFAGI@ScriptRegistrant?$DMclass?5MC_Object@ ; `string'
PUBLIC	??_C@_0DI@MLPJDPIF@ScriptRegistrant?$DMclass?5MC_Object@ ; `string'
PUBLIC	??_C@_0DG@EHANKNOF@ScriptRegistrant?$DMclass?5MC_Object@ ; `string'
PUBLIC	??_C@_0CN@EFGEHPED@ScriptRegistrant?$DMclass?5MC_Object@ ; `string'
PUBLIC	??_C@_0EE@NPKNOMAD@ScriptRegistrant?$DMclass?5MC_Destro@ ; `string'
PUBLIC	??_C@_0DJ@FEMOPLHG@ScriptRegistrant?$DMclass?5MC_Select@ ; `string'
PUBLIC	??_C@_0DP@BJNPPPAF@ScriptRegistrant?$DMclass?5MC_Select@ ; `string'
PUBLIC	??_C@_0DO@BMBGAGMD@ScriptRegistrant?$DMclass?5MC_Select@ ; `string'
PUBLIC	??_C@_0ED@KPAKEBGJ@ScriptRegistrant?$DMclass?5MC_Chinoo@ ; `string'
PUBLIC	??_C@_0DL@ONOLDGGK@ScriptRegistrant?$DMclass?5MC_Unkill@ ; `string'
PUBLIC	??_C@_0DI@MDMFGNHB@ScriptRegistrant?$DMclass?5MC_Attach@ ; `string'
PUBLIC	??_C@_0DO@MIIALMKB@ScriptRegistrant?$DMclass?5MC_Attach@ ; `string'
PUBLIC	??_C@_0DJ@CFFKANND@ScriptRegistrant?$DMclass?5MC_Attach@ ; `string'
PUBLIC	??_C@_0EB@LDFFDEPH@ScriptRegistrant?$DMclass?5MC_Privat@ ; `string'
PUBLIC	??_C@_0BI@CFPLBAOH@invalid?5string?5position?$AA@ ; `string'
PUBLIC	??_C@_0DE@OIAOFPBP@VectorClass?$DMclass?5ScriptableGame@ ; `string'
PUBLIC	??_C@_0BD@OLBABOEK@vector?$DMT?$DO?5too?5long?$AA@ ; `string'
PUBLIC	?instancex@?1??getInstance@?$Singleton@V?$ObjectPoolClass@VGenericSLNode@@$0BAA@@@@@SAAAV?$ObjectPoolClass@VGenericSLNode@@$0BAA@@@XZ@4V3@A ; `Singleton<ObjectPoolClass<GenericSLNode,256> >::getInstance'::`2'::instancex
PUBLIC	??_B?1??getInstance@?$Singleton@V?$ObjectPoolClass@VGenericSLNode@@$0BAA@@@@@SAAAV?$ObjectPoolClass@VGenericSLNode@@$0BAA@@@XZ@51 ; `Singleton<ObjectPoolClass<GenericSLNode,256> >::getInstance'::`2'::`local static guard'
PUBLIC	??_C@_0EB@IOGKEECK@ObjectPoolClass?$DMclass?5GenericSLN@ ; `string'
PUBLIC	??_C@_0BA@JFNIOLAK@string?5too?5long?$AA@	; `string'
PUBLIC	??_C@_0FF@NOANHENP@?$CFd?5memory?5leaks?5found?5in?5ObjectP@ ; `string'
PUBLIC	??_C@_0DL@BOENBDGI@ObjectPoolClass?$DMclass?5GenericSLN@ ; `string'
PUBLIC	??_C@_1DM@KDEKGMPF@?$AAs?$AAt?$AAr?$AAi?$AAn?$AAg?$AA?5?$AAi?$AAt?$AAe?$AAr?$AAa?$AAt?$AAo?$AAr?$AAs?$AA?5?$AAi?$AAn?$AAc?$AAo?$AAm?$AAp?$AAa?$AAt?$AAi?$AAb?$AAl?$AAe?$AA?$AA@ ; `string'
PUBLIC	??_C@_0CI@FNPHFCCM@Standard?5C?$CL?$CL?5Libraries?5Invalid?5A@ ; `string'
PUBLIC	??_C@_1FO@GJIHNDLM@?$AA?$CC?$AAS?$AAt?$AAa?$AAn?$AAd?$AAa?$AAr?$AAd?$AA?5?$AAC?$AA?$CL?$AA?$CL?$AA?5?$AAL?$AAi?$AAb?$AAr?$AAa?$AAr?$AAi?$AAe?$AAs?$AA?5?$AAI?$AAn?$AAv?$AAa?$AAl?$AAi?$AAd?$AA?5@ ; `string'
PUBLIC	??_C@_1MA@BDELDFHB@?$AAs?$AAt?$AAd?$AA?3?$AA?3?$AA_?$AAS?$AAt?$AAr?$AAi?$AAn?$AAg?$AA_?$AAc?$AAo?$AAn?$AAs?$AAt?$AA_?$AAi?$AAt?$AAe?$AAr?$AAa?$AAt?$AAo?$AAr?$AA?$DM?$AAc?$AAl?$AAa?$AAs@ ; `string'
PUBLIC	??_C@_1CG@JNLFBNGN@?$AA?$CC?$AAi?$AAn?$AAv?$AAa?$AAl?$AAi?$AAd?$AA?5?$AAa?$AAr?$AAg?$AAu?$AAm?$AAe?$AAn?$AAt?$AA?$CC?$AA?$AA@ ; `string'
PUBLIC	??_C@_1CK@EOPGIILJ@?$AAi?$AAn?$AAv?$AAa?$AAl?$AAi?$AAd?$AA?5?$AAn?$AAu?$AAl?$AAl?$AA?5?$AAp?$AAo?$AAi?$AAn?$AAt?$AAe?$AAr?$AA?$AA@ ; `string'
PUBLIC	??_C@_1EG@CNCHLAOB@?$AAs?$AAt?$AAr?$AAi?$AAn?$AAg?$AA?5?$AAi?$AAt?$AAe?$AAr?$AAa?$AAt?$AAo?$AAr?$AA?5?$AAn?$AAo?$AAt?$AA?5?$AAd?$AAe?$AAr?$AAe?$AAf?$AAe?$AAr?$AAe?$AAn?$AAc?$AAa?$AAb@ ; `string'
PUBLIC	??_C@_1MG@GDGHDIKC@?$AAs?$AAt?$AAd?$AA?3?$AA?3?$AA_?$AAS?$AAt?$AAr?$AAi?$AAn?$AAg?$AA_?$AAc?$AAo?$AAn?$AAs?$AAt?$AA_?$AAi?$AAt?$AAe?$AAr?$AAa?$AAt?$AAo?$AAr?$AA?$DM?$AAc?$AAl?$AAa?$AAs@ ; `string'
PUBLIC	??_C@_1CO@DGLIKNHI@?$AAi?$AAn?$AAv?$AAa?$AAl?$AAi?$AAd?$AA?5?$AAi?$AAt?$AAe?$AAr?$AAa?$AAt?$AAo?$AAr?$AA?5?$AAr?$AAa?$AAn?$AAg?$AAe?$AA?$AA@ ; `string'
PUBLIC	??_C@_1IO@PFCFKGJH@?$AAc?$AA?3?$AA?2?$AAp?$AAr?$AAo?$AAg?$AAr?$AAa?$AAm?$AA?5?$AAf?$AAi?$AAl?$AAe?$AAs?$AA?5?$AA?$CI?$AAx?$AA8?$AA6?$AA?$CJ?$AA?2?$AAm?$AAi?$AAc?$AAr?$AAo?$AAs?$AAo?$AAf?$AAt@ ; `string'
PUBLIC	??_R4?$basic_stringbuf@DU?$char_traits@D@std@@V?$allocator@D@2@@std@@6B@ ; std::basic_stringbuf<char,std::char_traits<char>,std::allocator<char> >::`RTTI Complete Object Locator'
PUBLIC	??_R0?AV?$basic_stringbuf@DU?$char_traits@D@std@@V?$allocator@D@2@@std@@@8 ; std::basic_stringbuf<char,std::char_traits<char>,std::allocator<char> > `RTTI Type Descriptor'
PUBLIC	??_R3?$basic_stringbuf@DU?$char_traits@D@std@@V?$allocator@D@2@@std@@8 ; std::basic_stringbuf<char,std::char_traits<char>,std::allocator<char> >::`RTTI Class Hierarchy Descriptor'
PUBLIC	??_R2?$basic_stringbuf@DU?$char_traits@D@std@@V?$allocator@D@2@@std@@8 ; std::basic_stringbuf<char,std::char_traits<char>,std::allocator<char> >::`RTTI Base Class Array'
PUBLIC	??_R1A@?0A@EA@?$basic_stringbuf@DU?$char_traits@D@std@@V?$allocator@D@2@@std@@8 ; std::basic_stringbuf<char,std::char_traits<char>,std::allocator<char> >::`RTTI Base Class Descriptor at (0,-1,0,64)'
PUBLIC	??_R1A@?0A@EA@?$basic_streambuf@DU?$char_traits@D@std@@@std@@8 ; std::basic_streambuf<char,std::char_traits<char> >::`RTTI Base Class Descriptor at (0,-1,0,64)'
PUBLIC	??_R0?AV?$basic_streambuf@DU?$char_traits@D@std@@@std@@@8 ; std::basic_streambuf<char,std::char_traits<char> > `RTTI Type Descriptor'
PUBLIC	??_R3?$basic_streambuf@DU?$char_traits@D@std@@@std@@8 ; std::basic_streambuf<char,std::char_traits<char> >::`RTTI Class Hierarchy Descriptor'
PUBLIC	??_R2?$basic_streambuf@DU?$char_traits@D@std@@@std@@8 ; std::basic_streambuf<char,std::char_traits<char> >::`RTTI Base Class Array'
PUBLIC	??_R4?$basic_stringstream@DU?$char_traits@D@std@@V?$allocator@D@2@@std@@6B@ ; std::basic_stringstream<char,std::char_traits<char>,std::allocator<char> >::`RTTI Complete Object Locator'
PUBLIC	??_R0?AV?$basic_stringstream@DU?$char_traits@D@std@@V?$allocator@D@2@@std@@@8 ; std::basic_stringstream<char,std::char_traits<char>,std::allocator<char> > `RTTI Type Descriptor'
PUBLIC	??_R3?$basic_stringstream@DU?$char_traits@D@std@@V?$allocator@D@2@@std@@8 ; std::basic_stringstream<char,std::char_traits<char>,std::allocator<char> >::`RTTI Class Hierarchy Descriptor'
PUBLIC	??_R2?$basic_stringstream@DU?$char_traits@D@std@@V?$allocator@D@2@@std@@8 ; std::basic_stringstream<char,std::char_traits<char>,std::allocator<char> >::`RTTI Base Class Array'
PUBLIC	??_R1A@?0A@EA@?$basic_stringstream@DU?$char_traits@D@std@@V?$allocator@D@2@@std@@8 ; std::basic_stringstream<char,std::char_traits<char>,std::allocator<char> >::`RTTI Base Class Descriptor at (0,-1,0,64)'
PUBLIC	??_R1A@?0A@EA@?$basic_iostream@DU?$char_traits@D@std@@@std@@8 ; std::basic_iostream<char,std::char_traits<char> >::`RTTI Base Class Descriptor at (0,-1,0,64)'
PUBLIC	??_R0?AV?$basic_iostream@DU?$char_traits@D@std@@@std@@@8 ; std::basic_iostream<char,std::char_traits<char> > `RTTI Type Descriptor'
PUBLIC	??_R3?$basic_iostream@DU?$char_traits@D@std@@@std@@8 ; std::basic_iostream<char,std::char_traits<char> >::`RTTI Class Hierarchy Descriptor'
PUBLIC	??_R2?$basic_iostream@DU?$char_traits@D@std@@@std@@8 ; std::basic_iostream<char,std::char_traits<char> >::`RTTI Base Class Array'
PUBLIC	??_R1A@?0A@EA@?$basic_istream@DU?$char_traits@D@std@@@std@@8 ; std::basic_istream<char,std::char_traits<char> >::`RTTI Base Class Descriptor at (0,-1,0,64)'
PUBLIC	??_R0?AV?$basic_istream@DU?$char_traits@D@std@@@std@@@8 ; std::basic_istream<char,std::char_traits<char> > `RTTI Type Descriptor'
PUBLIC	??_R3?$basic_istream@DU?$char_traits@D@std@@@std@@8 ; std::basic_istream<char,std::char_traits<char> >::`RTTI Class Hierarchy Descriptor'
PUBLIC	??_R2?$basic_istream@DU?$char_traits@D@std@@@std@@8 ; std::basic_istream<char,std::char_traits<char> >::`RTTI Base Class Array'
PUBLIC	??_R1A@A@3FA@?$basic_ios@DU?$char_traits@D@std@@@std@@8 ; std::basic_ios<char,std::char_traits<char> >::`RTTI Base Class Descriptor at (0,0,4,80)'
PUBLIC	??_R0?AV?$basic_ios@DU?$char_traits@D@std@@@std@@@8 ; std::basic_ios<char,std::char_traits<char> > `RTTI Type Descriptor'
PUBLIC	??_R3?$basic_ios@DU?$char_traits@D@std@@@std@@8	; std::basic_ios<char,std::char_traits<char> >::`RTTI Class Hierarchy Descriptor'
PUBLIC	??_R2?$basic_ios@DU?$char_traits@D@std@@@std@@8	; std::basic_ios<char,std::char_traits<char> >::`RTTI Base Class Array'
PUBLIC	??_R1A@?0A@EA@?$basic_ios@DU?$char_traits@D@std@@@std@@8 ; std::basic_ios<char,std::char_traits<char> >::`RTTI Base Class Descriptor at (0,-1,0,64)'
PUBLIC	??_R1A@?0A@EA@ios_base@std@@8			; std::ios_base::`RTTI Base Class Descriptor at (0,-1,0,64)'
PUBLIC	??_R0?AVios_base@std@@@8			; std::ios_base `RTTI Type Descriptor'
PUBLIC	??_R3ios_base@std@@8				; std::ios_base::`RTTI Class Hierarchy Descriptor'
PUBLIC	??_R2ios_base@std@@8				; std::ios_base::`RTTI Base Class Array'
PUBLIC	??_R17?0A@EA@?$_Iosb@H@std@@8			; std::_Iosb<int>::`RTTI Base Class Descriptor at (8,-1,0,64)'
PUBLIC	??_R0?AV?$_Iosb@H@std@@@8			; std::_Iosb<int> `RTTI Type Descriptor'
PUBLIC	??_R3?$_Iosb@H@std@@8				; std::_Iosb<int>::`RTTI Class Hierarchy Descriptor'
PUBLIC	??_R2?$_Iosb@H@std@@8				; std::_Iosb<int>::`RTTI Base Class Array'
PUBLIC	??_R1A@?0A@EA@?$_Iosb@H@std@@8			; std::_Iosb<int>::`RTTI Base Class Descriptor at (0,-1,0,64)'
PUBLIC	??_R1A@A@3EA@ios_base@std@@8			; std::ios_base::`RTTI Base Class Descriptor at (0,0,4,64)'
PUBLIC	??_R17A@3EA@?$_Iosb@H@std@@8			; std::_Iosb<int>::`RTTI Base Class Descriptor at (8,0,4,64)'
PUBLIC	??_R1BA@?0A@EA@?$basic_ostream@DU?$char_traits@D@std@@@std@@8 ; std::basic_ostream<char,std::char_traits<char> >::`RTTI Base Class Descriptor at (16,-1,0,64)'
PUBLIC	??_R0?AV?$basic_ostream@DU?$char_traits@D@std@@@std@@@8 ; std::basic_ostream<char,std::char_traits<char> > `RTTI Type Descriptor'
PUBLIC	??_R3?$basic_ostream@DU?$char_traits@D@std@@@std@@8 ; std::basic_ostream<char,std::char_traits<char> >::`RTTI Class Hierarchy Descriptor'
PUBLIC	??_R2?$basic_ostream@DU?$char_traits@D@std@@@std@@8 ; std::basic_ostream<char,std::char_traits<char> >::`RTTI Base Class Array'
PUBLIC	??_R1A@?0A@EA@?$basic_ostream@DU?$char_traits@D@std@@@std@@8 ; std::basic_ostream<char,std::char_traits<char> >::`RTTI Base Class Descriptor at (0,-1,0,64)'
PUBLIC	??_R4ThreadClass@@6B@				; ThreadClass::`RTTI Complete Object Locator'
PUBLIC	??_R0?AVThreadClass@@@8				; ThreadClass `RTTI Type Descriptor'
PUBLIC	??_R3ThreadClass@@8				; ThreadClass::`RTTI Class Hierarchy Descriptor'
PUBLIC	??_R2ThreadClass@@8				; ThreadClass::`RTTI Base Class Array'
PUBLIC	??_R1A@?0A@EA@ThreadClass@@8			; ThreadClass::`RTTI Base Class Descriptor at (0,-1,0,64)'
PUBLIC	??_R4INIClass@@6B@				; INIClass::`RTTI Complete Object Locator'
PUBLIC	??_R0?AVINIClass@@@8				; INIClass `RTTI Type Descriptor'
PUBLIC	??_R3INIClass@@8				; INIClass::`RTTI Class Hierarchy Descriptor'
PUBLIC	??_R2INIClass@@8				; INIClass::`RTTI Base Class Array'
PUBLIC	??_R1A@?0A@EA@INIClass@@8			; INIClass::`RTTI Base Class Descriptor at (0,-1,0,64)'
PUBLIC	??_R4ScriptFactory@@6B@				; ScriptFactory::`RTTI Complete Object Locator'
PUBLIC	??_R0?AVScriptFactory@@@8			; ScriptFactory `RTTI Type Descriptor'
PUBLIC	??_R3ScriptFactory@@8				; ScriptFactory::`RTTI Class Hierarchy Descriptor'
PUBLIC	??_R2ScriptFactory@@8				; ScriptFactory::`RTTI Base Class Array'
PUBLIC	??_R1A@?0A@EA@ScriptFactory@@8			; ScriptFactory::`RTTI Base Class Descriptor at (0,-1,0,64)'
PUBLIC	??_R4ScriptClass@@6B@				; ScriptClass::`RTTI Complete Object Locator'
PUBLIC	??_R0?AVScriptClass@@@8				; ScriptClass `RTTI Type Descriptor'
PUBLIC	??_R3ScriptClass@@8				; ScriptClass::`RTTI Class Hierarchy Descriptor'
PUBLIC	??_R2ScriptClass@@8				; ScriptClass::`RTTI Base Class Array'
PUBLIC	??_R1A@?0A@EA@ScriptClass@@8			; ScriptClass::`RTTI Base Class Descriptor at (0,-1,0,64)'
PUBLIC	??_R1A@?0A@EA@GameObjObserverClass@@8		; GameObjObserverClass::`RTTI Base Class Descriptor at (0,-1,0,64)'
PUBLIC	??_R0?AVGameObjObserverClass@@@8		; GameObjObserverClass `RTTI Type Descriptor'
PUBLIC	??_R3GameObjObserverClass@@8			; GameObjObserverClass::`RTTI Class Hierarchy Descriptor'
PUBLIC	??_R2GameObjObserverClass@@8			; GameObjObserverClass::`RTTI Base Class Array'
PUBLIC	??_R4GameObjObserverClass@@6B@			; GameObjObserverClass::`RTTI Complete Object Locator'
PUBLIC	??_R4ScriptImpClass@@6B@			; ScriptImpClass::`RTTI Complete Object Locator'
PUBLIC	??_R0?AVScriptImpClass@@@8			; ScriptImpClass `RTTI Type Descriptor'
PUBLIC	??_R3ScriptImpClass@@8				; ScriptImpClass::`RTTI Class Hierarchy Descriptor'
PUBLIC	??_R2ScriptImpClass@@8				; ScriptImpClass::`RTTI Base Class Array'
PUBLIC	??_R1A@?0A@EA@ScriptImpClass@@8			; ScriptImpClass::`RTTI Base Class Descriptor at (0,-1,0,64)'
PUBLIC	??_R1A@?0A@EA@PostLoadableClass@@8		; PostLoadableClass::`RTTI Base Class Descriptor at (0,-1,0,64)'
PUBLIC	??_R0?AVPostLoadableClass@@@8			; PostLoadableClass `RTTI Type Descriptor'
PUBLIC	??_R3PostLoadableClass@@8			; PostLoadableClass::`RTTI Class Hierarchy Descriptor'
PUBLIC	??_R2PostLoadableClass@@8			; PostLoadableClass::`RTTI Base Class Array'
PUBLIC	??_R4PostLoadableClass@@6B@			; PostLoadableClass::`RTTI Complete Object Locator'
PUBLIC	??_R4ReferencerClass@@6B@			; ReferencerClass::`RTTI Complete Object Locator'
PUBLIC	??_R0?AVReferencerClass@@@8			; ReferencerClass `RTTI Type Descriptor'
PUBLIC	??_R3ReferencerClass@@8				; ReferencerClass::`RTTI Class Hierarchy Descriptor'
PUBLIC	??_R2ReferencerClass@@8				; ReferencerClass::`RTTI Base Class Array'
PUBLIC	??_R1A@?0A@EA@ReferencerClass@@8		; ReferencerClass::`RTTI Base Class Descriptor at (0,-1,0,64)'
PUBLIC	??_R4JFW_Key_Hook_Base@@6B@			; JFW_Key_Hook_Base::`RTTI Complete Object Locator'
PUBLIC	??_R0?AVJFW_Key_Hook_Base@@@8			; JFW_Key_Hook_Base `RTTI Type Descriptor'
PUBLIC	??_R3JFW_Key_Hook_Base@@8			; JFW_Key_Hook_Base::`RTTI Class Hierarchy Descriptor'
PUBLIC	??_R2JFW_Key_Hook_Base@@8			; JFW_Key_Hook_Base::`RTTI Base Class Array'
PUBLIC	??_R1A@?0A@EA@JFW_Key_Hook_Base@@8		; JFW_Key_Hook_Base::`RTTI Base Class Descriptor at (0,-1,0,64)'
PUBLIC	??_R4MultiKeyHookScriptImpClass@@6B@		; MultiKeyHookScriptImpClass::`RTTI Complete Object Locator'
PUBLIC	??_R0?AVMultiKeyHookScriptImpClass@@@8		; MultiKeyHookScriptImpClass `RTTI Type Descriptor'
PUBLIC	??_R3MultiKeyHookScriptImpClass@@8		; MultiKeyHookScriptImpClass::`RTTI Class Hierarchy Descriptor'
PUBLIC	??_R2MultiKeyHookScriptImpClass@@8		; MultiKeyHookScriptImpClass::`RTTI Base Class Array'
PUBLIC	??_R1A@?0A@EA@MultiKeyHookScriptImpClass@@8	; MultiKeyHookScriptImpClass::`RTTI Base Class Descriptor at (0,-1,0,64)'
PUBLIC	??_R4?$SList@UKeyHookWrapperStruct@MultiKeyHookScriptImpClass@@@@6B@ ; SList<MultiKeyHookScriptImpClass::KeyHookWrapperStruct>::`RTTI Complete Object Locator'
PUBLIC	??_R0?AV?$SList@UKeyHookWrapperStruct@MultiKeyHookScriptImpClass@@@@@8 ; SList<MultiKeyHookScriptImpClass::KeyHookWrapperStruct> `RTTI Type Descriptor'
PUBLIC	??_R3?$SList@UKeyHookWrapperStruct@MultiKeyHookScriptImpClass@@@@8 ; SList<MultiKeyHookScriptImpClass::KeyHookWrapperStruct>::`RTTI Class Hierarchy Descriptor'
PUBLIC	??_R2?$SList@UKeyHookWrapperStruct@MultiKeyHookScriptImpClass@@@@8 ; SList<MultiKeyHookScriptImpClass::KeyHookWrapperStruct>::`RTTI Base Class Array'
PUBLIC	??_R1A@?0A@EA@?$SList@UKeyHookWrapperStruct@MultiKeyHookScriptImpClass@@@@8 ; SList<MultiKeyHookScriptImpClass::KeyHookWrapperStruct>::`RTTI Base Class Descriptor at (0,-1,0,64)'
PUBLIC	??_R4JFW_Object_Created_Hook_Base@@6B@		; JFW_Object_Created_Hook_Base::`RTTI Complete Object Locator'
PUBLIC	??_R0?AVJFW_Object_Created_Hook_Base@@@8	; JFW_Object_Created_Hook_Base `RTTI Type Descriptor'
PUBLIC	??_R3JFW_Object_Created_Hook_Base@@8		; JFW_Object_Created_Hook_Base::`RTTI Class Hierarchy Descriptor'
PUBLIC	??_R2JFW_Object_Created_Hook_Base@@8		; JFW_Object_Created_Hook_Base::`RTTI Base Class Array'
PUBLIC	??_R1A@?0A@EA@JFW_Object_Created_Hook_Base@@8	; JFW_Object_Created_Hook_Base::`RTTI Base Class Descriptor at (0,-1,0,64)'
PUBLIC	??_R4error_category@std@@6B@			; std::error_category::`RTTI Complete Object Locator'
PUBLIC	??_R0?AVerror_category@std@@@8			; std::error_category `RTTI Type Descriptor'
PUBLIC	??_R3error_category@std@@8			; std::error_category::`RTTI Class Hierarchy Descriptor'
PUBLIC	??_R2error_category@std@@8			; std::error_category::`RTTI Base Class Array'
PUBLIC	??_R1A@?0A@EA@error_category@std@@8		; std::error_category::`RTTI Base Class Descriptor at (0,-1,0,64)'
PUBLIC	??_R4_Generic_error_category@std@@6B@		; std::_Generic_error_category::`RTTI Complete Object Locator'
PUBLIC	??_R0?AV_Generic_error_category@std@@@8		; std::_Generic_error_category `RTTI Type Descriptor'
PUBLIC	??_R3_Generic_error_category@std@@8		; std::_Generic_error_category::`RTTI Class Hierarchy Descriptor'
PUBLIC	??_R2_Generic_error_category@std@@8		; std::_Generic_error_category::`RTTI Base Class Array'
PUBLIC	??_R1A@?0A@EA@_Generic_error_category@std@@8	; std::_Generic_error_category::`RTTI Base Class Descriptor at (0,-1,0,64)'
PUBLIC	??_R4_Iostream_error_category@std@@6B@		; std::_Iostream_error_category::`RTTI Complete Object Locator'
PUBLIC	??_R0?AV_Iostream_error_category@std@@@8	; std::_Iostream_error_category `RTTI Type Descriptor'
PUBLIC	??_R3_Iostream_error_category@std@@8		; std::_Iostream_error_category::`RTTI Class Hierarchy Descriptor'
PUBLIC	??_R2_Iostream_error_category@std@@8		; std::_Iostream_error_category::`RTTI Base Class Array'
PUBLIC	??_R1A@?0A@EA@_Iostream_error_category@std@@8	; std::_Iostream_error_category::`RTTI Base Class Descriptor at (0,-1,0,64)'
PUBLIC	??_R4_System_error_category@std@@6B@		; std::_System_error_category::`RTTI Complete Object Locator'
PUBLIC	??_R0?AV_System_error_category@std@@@8		; std::_System_error_category `RTTI Type Descriptor'
PUBLIC	??_R3_System_error_category@std@@8		; std::_System_error_category::`RTTI Class Hierarchy Descriptor'
PUBLIC	??_R2_System_error_category@std@@8		; std::_System_error_category::`RTTI Base Class Array'
PUBLIC	??_R1A@?0A@EA@_System_error_category@std@@8	; std::_System_error_category::`RTTI Base Class Descriptor at (0,-1,0,64)'
PUBLIC	??_R4MC_Teleport@@6B@				; MC_Teleport::`RTTI Complete Object Locator'
PUBLIC	??_R0?AVMC_Teleport@@@8				; MC_Teleport `RTTI Type Descriptor'
PUBLIC	??_R3MC_Teleport@@8				; MC_Teleport::`RTTI Class Hierarchy Descriptor'
PUBLIC	??_R2MC_Teleport@@8				; MC_Teleport::`RTTI Base Class Array'
PUBLIC	??_R1A@?0A@EA@MC_Teleport@@8			; MC_Teleport::`RTTI Base Class Descriptor at (0,-1,0,64)'
PUBLIC	??_R4MC_HUD_Message_Zone@@6B@			; MC_HUD_Message_Zone::`RTTI Complete Object Locator'
PUBLIC	??_R0?AVMC_HUD_Message_Zone@@@8			; MC_HUD_Message_Zone `RTTI Type Descriptor'
PUBLIC	??_R3MC_HUD_Message_Zone@@8			; MC_HUD_Message_Zone::`RTTI Class Hierarchy Descriptor'
PUBLIC	??_R2MC_HUD_Message_Zone@@8			; MC_HUD_Message_Zone::`RTTI Base Class Array'
PUBLIC	??_R1A@?0A@EA@MC_HUD_Message_Zone@@8		; MC_HUD_Message_Zone::`RTTI Base Class Descriptor at (0,-1,0,64)'
PUBLIC	??_R4MC_Stop_Vehicle_Engine@@6B@		; MC_Stop_Vehicle_Engine::`RTTI Complete Object Locator'
PUBLIC	??_R0?AVMC_Stop_Vehicle_Engine@@@8		; MC_Stop_Vehicle_Engine `RTTI Type Descriptor'
PUBLIC	??_R3MC_Stop_Vehicle_Engine@@8			; MC_Stop_Vehicle_Engine::`RTTI Class Hierarchy Descriptor'
PUBLIC	??_R2MC_Stop_Vehicle_Engine@@8			; MC_Stop_Vehicle_Engine::`RTTI Base Class Array'
PUBLIC	??_R1A@?0A@EA@MC_Stop_Vehicle_Engine@@8		; MC_Stop_Vehicle_Engine::`RTTI Base Class Descriptor at (0,-1,0,64)'
PUBLIC	??_R4MC_Change_Vehicle_Weapon@@6B@		; MC_Change_Vehicle_Weapon::`RTTI Complete Object Locator'
PUBLIC	??_R0?AVMC_Change_Vehicle_Weapon@@@8		; MC_Change_Vehicle_Weapon `RTTI Type Descriptor'
PUBLIC	??_R3MC_Change_Vehicle_Weapon@@8		; MC_Change_Vehicle_Weapon::`RTTI Class Hierarchy Descriptor'
PUBLIC	??_R2MC_Change_Vehicle_Weapon@@8		; MC_Change_Vehicle_Weapon::`RTTI Base Class Array'
PUBLIC	??_R1A@?0A@EA@MC_Change_Vehicle_Weapon@@8	; MC_Change_Vehicle_Weapon::`RTTI Base Class Descriptor at (0,-1,0,64)'
PUBLIC	??_R4MC_MCTMainSyncObject@@6B@			; MC_MCTMainSyncObject::`RTTI Complete Object Locator'
PUBLIC	??_R0?AVMC_MCTMainSyncObject@@@8		; MC_MCTMainSyncObject `RTTI Type Descriptor'
PUBLIC	??_R3MC_MCTMainSyncObject@@8			; MC_MCTMainSyncObject::`RTTI Class Hierarchy Descriptor'
PUBLIC	??_R2MC_MCTMainSyncObject@@8			; MC_MCTMainSyncObject::`RTTI Base Class Array'
PUBLIC	??_R1A@?0A@EA@MC_MCTMainSyncObject@@8		; MC_MCTMainSyncObject::`RTTI Base Class Descriptor at (0,-1,0,64)'
PUBLIC	??_R4MC_MasterControlTerminal_Object@@6B@	; MC_MasterControlTerminal_Object::`RTTI Complete Object Locator'
PUBLIC	??_R0?AVMC_MasterControlTerminal_Object@@@8	; MC_MasterControlTerminal_Object `RTTI Type Descriptor'
PUBLIC	??_R3MC_MasterControlTerminal_Object@@8		; MC_MasterControlTerminal_Object::`RTTI Class Hierarchy Descriptor'
PUBLIC	??_R2MC_MasterControlTerminal_Object@@8		; MC_MasterControlTerminal_Object::`RTTI Base Class Array'
PUBLIC	??_R1A@?0A@EA@MC_MasterControlTerminal_Object@@8 ; MC_MasterControlTerminal_Object::`RTTI Base Class Descriptor at (0,-1,0,64)'
PUBLIC	??_R4MC_Change_Vehicle_Weapon_Zone@@6B@		; MC_Change_Vehicle_Weapon_Zone::`RTTI Complete Object Locator'
PUBLIC	??_R0?AVMC_Change_Vehicle_Weapon_Zone@@@8	; MC_Change_Vehicle_Weapon_Zone `RTTI Type Descriptor'
PUBLIC	??_R3MC_Change_Vehicle_Weapon_Zone@@8		; MC_Change_Vehicle_Weapon_Zone::`RTTI Class Hierarchy Descriptor'
PUBLIC	??_R2MC_Change_Vehicle_Weapon_Zone@@8		; MC_Change_Vehicle_Weapon_Zone::`RTTI Base Class Array'
PUBLIC	??_R1A@?0A@EA@MC_Change_Vehicle_Weapon_Zone@@8	; MC_Change_Vehicle_Weapon_Zone::`RTTI Base Class Descriptor at (0,-1,0,64)'
PUBLIC	??_R4MC_Grant_Weapon@@6B@			; MC_Grant_Weapon::`RTTI Complete Object Locator'
PUBLIC	??_R0?AVMC_Grant_Weapon@@@8			; MC_Grant_Weapon `RTTI Type Descriptor'
PUBLIC	??_R3MC_Grant_Weapon@@8				; MC_Grant_Weapon::`RTTI Class Hierarchy Descriptor'
PUBLIC	??_R2MC_Grant_Weapon@@8				; MC_Grant_Weapon::`RTTI Base Class Array'
PUBLIC	??_R1A@?0A@EA@MC_Grant_Weapon@@8		; MC_Grant_Weapon::`RTTI Base Class Descriptor at (0,-1,0,64)'
PUBLIC	??_R4MC_Grant_Weapon_Zone@@6B@			; MC_Grant_Weapon_Zone::`RTTI Complete Object Locator'
PUBLIC	??_R0?AVMC_Grant_Weapon_Zone@@@8		; MC_Grant_Weapon_Zone `RTTI Type Descriptor'
PUBLIC	??_R3MC_Grant_Weapon_Zone@@8			; MC_Grant_Weapon_Zone::`RTTI Class Hierarchy Descriptor'
PUBLIC	??_R2MC_Grant_Weapon_Zone@@8			; MC_Grant_Weapon_Zone::`RTTI Base Class Array'
PUBLIC	??_R1A@?0A@EA@MC_Grant_Weapon_Zone@@8		; MC_Grant_Weapon_Zone::`RTTI Base Class Descriptor at (0,-1,0,64)'
PUBLIC	??_R4MC_Spawn_When_Death@@6B@			; MC_Spawn_When_Death::`RTTI Complete Object Locator'
PUBLIC	??_R0?AVMC_Spawn_When_Death@@@8			; MC_Spawn_When_Death `RTTI Type Descriptor'
PUBLIC	??_R3MC_Spawn_When_Death@@8			; MC_Spawn_When_Death::`RTTI Class Hierarchy Descriptor'
PUBLIC	??_R2MC_Spawn_When_Death@@8			; MC_Spawn_When_Death::`RTTI Base Class Array'
PUBLIC	??_R1A@?0A@EA@MC_Spawn_When_Death@@8		; MC_Spawn_When_Death::`RTTI Base Class Descriptor at (0,-1,0,64)'
PUBLIC	??_R4MC_GameOver_When_Kill@@6B@			; MC_GameOver_When_Kill::`RTTI Complete Object Locator'
PUBLIC	??_R0?AVMC_GameOver_When_Kill@@@8		; MC_GameOver_When_Kill `RTTI Type Descriptor'
PUBLIC	??_R3MC_GameOver_When_Kill@@8			; MC_GameOver_When_Kill::`RTTI Class Hierarchy Descriptor'
PUBLIC	??_R2MC_GameOver_When_Kill@@8			; MC_GameOver_When_Kill::`RTTI Base Class Array'
PUBLIC	??_R1A@?0A@EA@MC_GameOver_When_Kill@@8		; MC_GameOver_When_Kill::`RTTI Base Class Descriptor at (0,-1,0,64)'
PUBLIC	??_R4MC_Grant_Character@@6B@			; MC_Grant_Character::`RTTI Complete Object Locator'
PUBLIC	??_R0?AVMC_Grant_Character@@@8			; MC_Grant_Character `RTTI Type Descriptor'
PUBLIC	??_R3MC_Grant_Character@@8			; MC_Grant_Character::`RTTI Class Hierarchy Descriptor'
PUBLIC	??_R2MC_Grant_Character@@8			; MC_Grant_Character::`RTTI Base Class Array'
PUBLIC	??_R1A@?0A@EA@MC_Grant_Character@@8		; MC_Grant_Character::`RTTI Base Class Descriptor at (0,-1,0,64)'
PUBLIC	??_R4MC_Grant_Character_Zone@@6B@		; MC_Grant_Character_Zone::`RTTI Complete Object Locator'
PUBLIC	??_R0?AVMC_Grant_Character_Zone@@@8		; MC_Grant_Character_Zone `RTTI Type Descriptor'
PUBLIC	??_R3MC_Grant_Character_Zone@@8			; MC_Grant_Character_Zone::`RTTI Class Hierarchy Descriptor'
PUBLIC	??_R2MC_Grant_Character_Zone@@8			; MC_Grant_Character_Zone::`RTTI Base Class Array'
PUBLIC	??_R1A@?0A@EA@MC_Grant_Character_Zone@@8	; MC_Grant_Character_Zone::`RTTI Base Class Descriptor at (0,-1,0,64)'
PUBLIC	??_R4MC_Spawn_When_Fully_Repaired@@6B@		; MC_Spawn_When_Fully_Repaired::`RTTI Complete Object Locator'
PUBLIC	??_R0?AVMC_Spawn_When_Fully_Repaired@@@8	; MC_Spawn_When_Fully_Repaired `RTTI Type Descriptor'
PUBLIC	??_R3MC_Spawn_When_Fully_Repaired@@8		; MC_Spawn_When_Fully_Repaired::`RTTI Class Hierarchy Descriptor'
PUBLIC	??_R2MC_Spawn_When_Fully_Repaired@@8		; MC_Spawn_When_Fully_Repaired::`RTTI Base Class Array'
PUBLIC	??_R1A@?0A@EA@MC_Spawn_When_Fully_Repaired@@8	; MC_Spawn_When_Fully_Repaired::`RTTI Base Class Descriptor at (0,-1,0,64)'
PUBLIC	??_R4MC_Refinery_Object@@6B@			; MC_Refinery_Object::`RTTI Complete Object Locator'
PUBLIC	??_R0?AVMC_Refinery_Object@@@8			; MC_Refinery_Object `RTTI Type Descriptor'
PUBLIC	??_R3MC_Refinery_Object@@8			; MC_Refinery_Object::`RTTI Class Hierarchy Descriptor'
PUBLIC	??_R2MC_Refinery_Object@@8			; MC_Refinery_Object::`RTTI Base Class Array'
PUBLIC	??_R1A@?0A@EA@MC_Refinery_Object@@8		; MC_Refinery_Object::`RTTI Base Class Descriptor at (0,-1,0,64)'
PUBLIC	??_R4MC_Vehicle_Purchase_Terminal@@6B@		; MC_Vehicle_Purchase_Terminal::`RTTI Complete Object Locator'
PUBLIC	??_R0?AVMC_Vehicle_Purchase_Terminal@@@8	; MC_Vehicle_Purchase_Terminal `RTTI Type Descriptor'
PUBLIC	??_R3MC_Vehicle_Purchase_Terminal@@8		; MC_Vehicle_Purchase_Terminal::`RTTI Class Hierarchy Descriptor'
PUBLIC	??_R2MC_Vehicle_Purchase_Terminal@@8		; MC_Vehicle_Purchase_Terminal::`RTTI Base Class Array'
PUBLIC	??_R1A@?0A@EA@MC_Vehicle_Purchase_Terminal@@8	; MC_Vehicle_Purchase_Terminal::`RTTI Base Class Descriptor at (0,-1,0,64)'
PUBLIC	??_R4MC_Character_Purchase_Terminal@@6B@	; MC_Character_Purchase_Terminal::`RTTI Complete Object Locator'
PUBLIC	??_R0?AVMC_Character_Purchase_Terminal@@@8	; MC_Character_Purchase_Terminal `RTTI Type Descriptor'
PUBLIC	??_R3MC_Character_Purchase_Terminal@@8		; MC_Character_Purchase_Terminal::`RTTI Class Hierarchy Descriptor'
PUBLIC	??_R2MC_Character_Purchase_Terminal@@8		; MC_Character_Purchase_Terminal::`RTTI Base Class Array'
PUBLIC	??_R1A@?0A@EA@MC_Character_Purchase_Terminal@@8	; MC_Character_Purchase_Terminal::`RTTI Base Class Descriptor at (0,-1,0,64)'
PUBLIC	??_R4MC_Set_Team_When_Exit@@6B@			; MC_Set_Team_When_Exit::`RTTI Complete Object Locator'
PUBLIC	??_R0?AVMC_Set_Team_When_Exit@@@8		; MC_Set_Team_When_Exit `RTTI Type Descriptor'
PUBLIC	??_R3MC_Set_Team_When_Exit@@8			; MC_Set_Team_When_Exit::`RTTI Class Hierarchy Descriptor'
PUBLIC	??_R2MC_Set_Team_When_Exit@@8			; MC_Set_Team_When_Exit::`RTTI Base Class Array'
PUBLIC	??_R1A@?0A@EA@MC_Set_Team_When_Exit@@8		; MC_Set_Team_When_Exit::`RTTI Base Class Descriptor at (0,-1,0,64)'
PUBLIC	??_R4MC_IonExplosion_When_Death@@6B@		; MC_IonExplosion_When_Death::`RTTI Complete Object Locator'
PUBLIC	??_R0?AVMC_IonExplosion_When_Death@@@8		; MC_IonExplosion_When_Death `RTTI Type Descriptor'
PUBLIC	??_R3MC_IonExplosion_When_Death@@8		; MC_IonExplosion_When_Death::`RTTI Class Hierarchy Descriptor'
PUBLIC	??_R2MC_IonExplosion_When_Death@@8		; MC_IonExplosion_When_Death::`RTTI Base Class Array'
PUBLIC	??_R1A@?0A@EA@MC_IonExplosion_When_Death@@8	; MC_IonExplosion_When_Death::`RTTI Base Class Descriptor at (0,-1,0,64)'
PUBLIC	??_R4MC_Capturable_Object@@6B@			; MC_Capturable_Object::`RTTI Complete Object Locator'
PUBLIC	??_R0?AVMC_Capturable_Object@@@8		; MC_Capturable_Object `RTTI Type Descriptor'
PUBLIC	??_R3MC_Capturable_Object@@8			; MC_Capturable_Object::`RTTI Class Hierarchy Descriptor'
PUBLIC	??_R2MC_Capturable_Object@@8			; MC_Capturable_Object::`RTTI Base Class Array'
PUBLIC	??_R1A@?0A@EA@MC_Capturable_Object@@8		; MC_Capturable_Object::`RTTI Base Class Descriptor at (0,-1,0,64)'
PUBLIC	??_R4MC_FlyMode_On@@6B@				; MC_FlyMode_On::`RTTI Complete Object Locator'
PUBLIC	??_R0?AVMC_FlyMode_On@@@8			; MC_FlyMode_On `RTTI Type Descriptor'
PUBLIC	??_R3MC_FlyMode_On@@8				; MC_FlyMode_On::`RTTI Class Hierarchy Descriptor'
PUBLIC	??_R2MC_FlyMode_On@@8				; MC_FlyMode_On::`RTTI Base Class Array'
PUBLIC	??_R1A@?0A@EA@MC_FlyMode_On@@8			; MC_FlyMode_On::`RTTI Base Class Descriptor at (0,-1,0,64)'
PUBLIC	??_R4MC_FlyMode_Off@@6B@			; MC_FlyMode_Off::`RTTI Complete Object Locator'
PUBLIC	??_R0?AVMC_FlyMode_Off@@@8			; MC_FlyMode_Off `RTTI Type Descriptor'
PUBLIC	??_R3MC_FlyMode_Off@@8				; MC_FlyMode_Off::`RTTI Class Hierarchy Descriptor'
PUBLIC	??_R2MC_FlyMode_Off@@8				; MC_FlyMode_Off::`RTTI Base Class Array'
PUBLIC	??_R1A@?0A@EA@MC_FlyMode_Off@@8			; MC_FlyMode_Off::`RTTI Base Class Descriptor at (0,-1,0,64)'
PUBLIC	??_R4MC_FlyModeZone_On@@6B@			; MC_FlyModeZone_On::`RTTI Complete Object Locator'
PUBLIC	??_R0?AVMC_FlyModeZone_On@@@8			; MC_FlyModeZone_On `RTTI Type Descriptor'
PUBLIC	??_R3MC_FlyModeZone_On@@8			; MC_FlyModeZone_On::`RTTI Class Hierarchy Descriptor'
PUBLIC	??_R2MC_FlyModeZone_On@@8			; MC_FlyModeZone_On::`RTTI Base Class Array'
PUBLIC	??_R1A@?0A@EA@MC_FlyModeZone_On@@8		; MC_FlyModeZone_On::`RTTI Base Class Descriptor at (0,-1,0,64)'
PUBLIC	??_R4MC_FlyModeZone_Off@@6B@			; MC_FlyModeZone_Off::`RTTI Complete Object Locator'
PUBLIC	??_R0?AVMC_FlyModeZone_Off@@@8			; MC_FlyModeZone_Off `RTTI Type Descriptor'
PUBLIC	??_R3MC_FlyModeZone_Off@@8			; MC_FlyModeZone_Off::`RTTI Class Hierarchy Descriptor'
PUBLIC	??_R2MC_FlyModeZone_Off@@8			; MC_FlyModeZone_Off::`RTTI Base Class Array'
PUBLIC	??_R1A@?0A@EA@MC_FlyModeZone_Off@@8		; MC_FlyModeZone_Off::`RTTI Base Class Descriptor at (0,-1,0,64)'
PUBLIC	??_R4MC_Spectate@@6B@				; MC_Spectate::`RTTI Complete Object Locator'
PUBLIC	??_R0?AVMC_Spectate@@@8				; MC_Spectate `RTTI Type Descriptor'
PUBLIC	??_R3MC_Spectate@@8				; MC_Spectate::`RTTI Class Hierarchy Descriptor'
PUBLIC	??_R2MC_Spectate@@8				; MC_Spectate::`RTTI Base Class Array'
PUBLIC	??_R1A@?0A@EA@MC_Spectate@@8			; MC_Spectate::`RTTI Base Class Descriptor at (0,-1,0,64)'
PUBLIC	??_R4MC_Spectate_Zone@@6B@			; MC_Spectate_Zone::`RTTI Complete Object Locator'
PUBLIC	??_R0?AVMC_Spectate_Zone@@@8			; MC_Spectate_Zone `RTTI Type Descriptor'
PUBLIC	??_R3MC_Spectate_Zone@@8			; MC_Spectate_Zone::`RTTI Class Hierarchy Descriptor'
PUBLIC	??_R2MC_Spectate_Zone@@8			; MC_Spectate_Zone::`RTTI Base Class Array'
PUBLIC	??_R1A@?0A@EA@MC_Spectate_Zone@@8		; MC_Spectate_Zone::`RTTI Base Class Descriptor at (0,-1,0,64)'
PUBLIC	??_R4MC_Beacon_Block_Zone@@6B@			; MC_Beacon_Block_Zone::`RTTI Complete Object Locator'
PUBLIC	??_R0?AVMC_Beacon_Block_Zone@@@8		; MC_Beacon_Block_Zone `RTTI Type Descriptor'
PUBLIC	??_R3MC_Beacon_Block_Zone@@8			; MC_Beacon_Block_Zone::`RTTI Class Hierarchy Descriptor'
PUBLIC	??_R2MC_Beacon_Block_Zone@@8			; MC_Beacon_Block_Zone::`RTTI Base Class Array'
PUBLIC	??_R1A@?0A@EA@MC_Beacon_Block_Zone@@8		; MC_Beacon_Block_Zone::`RTTI Base Class Descriptor at (0,-1,0,64)'
PUBLIC	??_R4MC_Objective_Message_Sender@@6B@		; MC_Objective_Message_Sender::`RTTI Complete Object Locator'
PUBLIC	??_R0?AVMC_Objective_Message_Sender@@@8		; MC_Objective_Message_Sender `RTTI Type Descriptor'
PUBLIC	??_R3MC_Objective_Message_Sender@@8		; MC_Objective_Message_Sender::`RTTI Class Hierarchy Descriptor'
PUBLIC	??_R2MC_Objective_Message_Sender@@8		; MC_Objective_Message_Sender::`RTTI Base Class Array'
PUBLIC	??_R1A@?0A@EA@MC_Objective_Message_Sender@@8	; MC_Objective_Message_Sender::`RTTI Base Class Descriptor at (0,-1,0,64)'
PUBLIC	??_R4MC_Objective@@6B@				; MC_Objective::`RTTI Complete Object Locator'
PUBLIC	??_R0?AVMC_Objective@@@8			; MC_Objective `RTTI Type Descriptor'
PUBLIC	??_R3MC_Objective@@8				; MC_Objective::`RTTI Class Hierarchy Descriptor'
PUBLIC	??_R2MC_Objective@@8				; MC_Objective::`RTTI Base Class Array'
PUBLIC	??_R1A@?0A@EA@MC_Objective@@8			; MC_Objective::`RTTI Base Class Descriptor at (0,-1,0,64)'
PUBLIC	??_R4MC_Objective_Controller@@6B@		; MC_Objective_Controller::`RTTI Complete Object Locator'
PUBLIC	??_R0?AVMC_Objective_Controller@@@8		; MC_Objective_Controller `RTTI Type Descriptor'
PUBLIC	??_R3MC_Objective_Controller@@8			; MC_Objective_Controller::`RTTI Class Hierarchy Descriptor'
PUBLIC	??_R2MC_Objective_Controller@@8			; MC_Objective_Controller::`RTTI Base Class Array'
PUBLIC	??_R1A@?0A@EA@MC_Objective_Controller@@8	; MC_Objective_Controller::`RTTI Base Class Descriptor at (0,-1,0,64)'
PUBLIC	??_R4?$DynamicVectorClass@PAVScriptableGameObj@@@@6B@ ; DynamicVectorClass<ScriptableGameObj *>::`RTTI Complete Object Locator'
PUBLIC	??_R0?AV?$DynamicVectorClass@PAVScriptableGameObj@@@@@8 ; DynamicVectorClass<ScriptableGameObj *> `RTTI Type Descriptor'
PUBLIC	??_R3?$DynamicVectorClass@PAVScriptableGameObj@@@@8 ; DynamicVectorClass<ScriptableGameObj *>::`RTTI Class Hierarchy Descriptor'
PUBLIC	??_R2?$DynamicVectorClass@PAVScriptableGameObj@@@@8 ; DynamicVectorClass<ScriptableGameObj *>::`RTTI Base Class Array'
PUBLIC	??_R1A@?0A@EA@?$DynamicVectorClass@PAVScriptableGameObj@@@@8 ; DynamicVectorClass<ScriptableGameObj *>::`RTTI Base Class Descriptor at (0,-1,0,64)'
PUBLIC	??_R1A@?0A@EA@?$VectorClass@PAVScriptableGameObj@@@@8 ; VectorClass<ScriptableGameObj *>::`RTTI Base Class Descriptor at (0,-1,0,64)'
PUBLIC	??_R0?AV?$VectorClass@PAVScriptableGameObj@@@@@8 ; VectorClass<ScriptableGameObj *> `RTTI Type Descriptor'
PUBLIC	??_R3?$VectorClass@PAVScriptableGameObj@@@@8	; VectorClass<ScriptableGameObj *>::`RTTI Class Hierarchy Descriptor'
PUBLIC	??_R2?$VectorClass@PAVScriptableGameObj@@@@8	; VectorClass<ScriptableGameObj *>::`RTTI Base Class Array'
PUBLIC	??_R4?$VectorClass@PAVScriptableGameObj@@@@6B@	; VectorClass<ScriptableGameObj *>::`RTTI Complete Object Locator'
PUBLIC	??_R4?$SList@VMC_Objective@@@@6B@		; SList<MC_Objective>::`RTTI Complete Object Locator'
PUBLIC	??_R0?AV?$SList@VMC_Objective@@@@@8		; SList<MC_Objective> `RTTI Type Descriptor'
PUBLIC	??_R3?$SList@VMC_Objective@@@@8			; SList<MC_Objective>::`RTTI Class Hierarchy Descriptor'
PUBLIC	??_R2?$SList@VMC_Objective@@@@8			; SList<MC_Objective>::`RTTI Base Class Array'
PUBLIC	??_R1A@?0A@EA@?$SList@VMC_Objective@@@@8	; SList<MC_Objective>::`RTTI Base Class Descriptor at (0,-1,0,64)'
PUBLIC	??_R4MC_Objective_Listener@@6B@			; MC_Objective_Listener::`RTTI Complete Object Locator'
PUBLIC	??_R0?AVMC_Objective_Listener@@@8		; MC_Objective_Listener `RTTI Type Descriptor'
PUBLIC	??_R3MC_Objective_Listener@@8			; MC_Objective_Listener::`RTTI Class Hierarchy Descriptor'
PUBLIC	??_R2MC_Objective_Listener@@8			; MC_Objective_Listener::`RTTI Base Class Array'
PUBLIC	??_R1A@?0A@EA@MC_Objective_Listener@@8		; MC_Objective_Listener::`RTTI Base Class Descriptor at (0,-1,0,64)'
PUBLIC	??_R4MC_Destroy_When_Objective_Completed@@6B@	; MC_Destroy_When_Objective_Completed::`RTTI Complete Object Locator'
PUBLIC	??_R0?AVMC_Destroy_When_Objective_Completed@@@8	; MC_Destroy_When_Objective_Completed `RTTI Type Descriptor'
PUBLIC	??_R3MC_Destroy_When_Objective_Completed@@8	; MC_Destroy_When_Objective_Completed::`RTTI Class Hierarchy Descriptor'
PUBLIC	??_R2MC_Destroy_When_Objective_Completed@@8	; MC_Destroy_When_Objective_Completed::`RTTI Base Class Array'
PUBLIC	??_R1A@?0A@EA@MC_Destroy_When_Objective_Completed@@8 ; MC_Destroy_When_Objective_Completed::`RTTI Base Class Descriptor at (0,-1,0,64)'
PUBLIC	??_R4MC_Select_Weapon_On_Zone_Enter@@6B@	; MC_Select_Weapon_On_Zone_Enter::`RTTI Complete Object Locator'
PUBLIC	??_R0?AVMC_Select_Weapon_On_Zone_Enter@@@8	; MC_Select_Weapon_On_Zone_Enter `RTTI Type Descriptor'
PUBLIC	??_R3MC_Select_Weapon_On_Zone_Enter@@8		; MC_Select_Weapon_On_Zone_Enter::`RTTI Class Hierarchy Descriptor'
PUBLIC	??_R2MC_Select_Weapon_On_Zone_Enter@@8		; MC_Select_Weapon_On_Zone_Enter::`RTTI Base Class Array'
PUBLIC	??_R1A@?0A@EA@MC_Select_Weapon_On_Zone_Enter@@8	; MC_Select_Weapon_On_Zone_Enter::`RTTI Base Class Descriptor at (0,-1,0,64)'
PUBLIC	??_R4MC_Select_Weapon_On_Zone_Exit@@6B@		; MC_Select_Weapon_On_Zone_Exit::`RTTI Complete Object Locator'
PUBLIC	??_R0?AVMC_Select_Weapon_On_Zone_Exit@@@8	; MC_Select_Weapon_On_Zone_Exit `RTTI Type Descriptor'
PUBLIC	??_R3MC_Select_Weapon_On_Zone_Exit@@8		; MC_Select_Weapon_On_Zone_Exit::`RTTI Class Hierarchy Descriptor'
PUBLIC	??_R2MC_Select_Weapon_On_Zone_Exit@@8		; MC_Select_Weapon_On_Zone_Exit::`RTTI Base Class Array'
PUBLIC	??_R1A@?0A@EA@MC_Select_Weapon_On_Zone_Exit@@8	; MC_Select_Weapon_On_Zone_Exit::`RTTI Base Class Descriptor at (0,-1,0,64)'
PUBLIC	??_R4MC_Select_Weapon_On_Zone@@6B@		; MC_Select_Weapon_On_Zone::`RTTI Complete Object Locator'
PUBLIC	??_R0?AVMC_Select_Weapon_On_Zone@@@8		; MC_Select_Weapon_On_Zone `RTTI Type Descriptor'
PUBLIC	??_R3MC_Select_Weapon_On_Zone@@8		; MC_Select_Weapon_On_Zone::`RTTI Class Hierarchy Descriptor'
PUBLIC	??_R2MC_Select_Weapon_On_Zone@@8		; MC_Select_Weapon_On_Zone::`RTTI Base Class Array'
PUBLIC	??_R1A@?0A@EA@MC_Select_Weapon_On_Zone@@8	; MC_Select_Weapon_On_Zone::`RTTI Base Class Descriptor at (0,-1,0,64)'
PUBLIC	??_R4MC_Chinook_Reinforcements_Paradrop@@6B@	; MC_Chinook_Reinforcements_Paradrop::`RTTI Complete Object Locator'
PUBLIC	??_R0?AVMC_Chinook_Reinforcements_Paradrop@@@8	; MC_Chinook_Reinforcements_Paradrop `RTTI Type Descriptor'
PUBLIC	??_R3MC_Chinook_Reinforcements_Paradrop@@8	; MC_Chinook_Reinforcements_Paradrop::`RTTI Class Hierarchy Descriptor'
PUBLIC	??_R2MC_Chinook_Reinforcements_Paradrop@@8	; MC_Chinook_Reinforcements_Paradrop::`RTTI Base Class Array'
PUBLIC	??_R1A@?0A@EA@MC_Chinook_Reinforcements_Paradrop@@8 ; MC_Chinook_Reinforcements_Paradrop::`RTTI Base Class Descriptor at (0,-1,0,64)'
PUBLIC	??_R4MC_Unkillable_Until_Custom@@6B@		; MC_Unkillable_Until_Custom::`RTTI Complete Object Locator'
PUBLIC	??_R0?AVMC_Unkillable_Until_Custom@@@8		; MC_Unkillable_Until_Custom `RTTI Type Descriptor'
PUBLIC	??_R3MC_Unkillable_Until_Custom@@8		; MC_Unkillable_Until_Custom::`RTTI Class Hierarchy Descriptor'
PUBLIC	??_R2MC_Unkillable_Until_Custom@@8		; MC_Unkillable_Until_Custom::`RTTI Base Class Array'
PUBLIC	??_R1A@?0A@EA@MC_Unkillable_Until_Custom@@8	; MC_Unkillable_Until_Custom::`RTTI Base Class Descriptor at (0,-1,0,64)'
PUBLIC	??_R4MC_AttachScript_On_Kill@@6B@		; MC_AttachScript_On_Kill::`RTTI Complete Object Locator'
PUBLIC	??_R0?AVMC_AttachScript_On_Kill@@@8		; MC_AttachScript_On_Kill `RTTI Type Descriptor'
PUBLIC	??_R3MC_AttachScript_On_Kill@@8			; MC_AttachScript_On_Kill::`RTTI Class Hierarchy Descriptor'
PUBLIC	??_R2MC_AttachScript_On_Kill@@8			; MC_AttachScript_On_Kill::`RTTI Base Class Array'
PUBLIC	??_R1A@?0A@EA@MC_AttachScript_On_Kill@@8	; MC_AttachScript_On_Kill::`RTTI Base Class Descriptor at (0,-1,0,64)'
PUBLIC	??_R4MC_AttachScript_Interval_Self@@6B@		; MC_AttachScript_Interval_Self::`RTTI Complete Object Locator'
PUBLIC	??_R0?AVMC_AttachScript_Interval_Self@@@8	; MC_AttachScript_Interval_Self `RTTI Type Descriptor'
PUBLIC	??_R3MC_AttachScript_Interval_Self@@8		; MC_AttachScript_Interval_Self::`RTTI Class Hierarchy Descriptor'
PUBLIC	??_R2MC_AttachScript_Interval_Self@@8		; MC_AttachScript_Interval_Self::`RTTI Base Class Array'
PUBLIC	??_R1A@?0A@EA@MC_AttachScript_Interval_Self@@8	; MC_AttachScript_Interval_Self::`RTTI Base Class Descriptor at (0,-1,0,64)'
PUBLIC	??_R4MC_AttachScript_Interval@@6B@		; MC_AttachScript_Interval::`RTTI Complete Object Locator'
PUBLIC	??_R0?AVMC_AttachScript_Interval@@@8		; MC_AttachScript_Interval `RTTI Type Descriptor'
PUBLIC	??_R3MC_AttachScript_Interval@@8		; MC_AttachScript_Interval::`RTTI Class Hierarchy Descriptor'
PUBLIC	??_R2MC_AttachScript_Interval@@8		; MC_AttachScript_Interval::`RTTI Base Class Array'
PUBLIC	??_R1A@?0A@EA@MC_AttachScript_Interval@@8	; MC_AttachScript_Interval::`RTTI Base Class Descriptor at (0,-1,0,64)'
PUBLIC	??_R4MC_Private_Color_Message_On_Poke@@6B@	; MC_Private_Color_Message_On_Poke::`RTTI Complete Object Locator'
PUBLIC	??_R0?AVMC_Private_Color_Message_On_Poke@@@8	; MC_Private_Color_Message_On_Poke `RTTI Type Descriptor'
PUBLIC	??_R3MC_Private_Color_Message_On_Poke@@8	; MC_Private_Color_Message_On_Poke::`RTTI Class Hierarchy Descriptor'
PUBLIC	??_R2MC_Private_Color_Message_On_Poke@@8	; MC_Private_Color_Message_On_Poke::`RTTI Base Class Array'
PUBLIC	??_R1A@?0A@EA@MC_Private_Color_Message_On_Poke@@8 ; MC_Private_Color_Message_On_Poke::`RTTI Base Class Descriptor at (0,-1,0,64)'
PUBLIC	??_R4?$ScriptRegistrant@VMC_Stop_Vehicle_Engine@@@@6B@ ; ScriptRegistrant<MC_Stop_Vehicle_Engine>::`RTTI Complete Object Locator'
PUBLIC	??_R0?AV?$ScriptRegistrant@VMC_Stop_Vehicle_Engine@@@@@8 ; ScriptRegistrant<MC_Stop_Vehicle_Engine> `RTTI Type Descriptor'
PUBLIC	??_R3?$ScriptRegistrant@VMC_Stop_Vehicle_Engine@@@@8 ; ScriptRegistrant<MC_Stop_Vehicle_Engine>::`RTTI Class Hierarchy Descriptor'
PUBLIC	??_R2?$ScriptRegistrant@VMC_Stop_Vehicle_Engine@@@@8 ; ScriptRegistrant<MC_Stop_Vehicle_Engine>::`RTTI Base Class Array'
PUBLIC	??_R1A@?0A@EA@?$ScriptRegistrant@VMC_Stop_Vehicle_Engine@@@@8 ; ScriptRegistrant<MC_Stop_Vehicle_Engine>::`RTTI Base Class Descriptor at (0,-1,0,64)'
PUBLIC	??_R4?$ScriptRegistrant@VMC_Vehicle_Purchase_Terminal@@@@6B@ ; ScriptRegistrant<MC_Vehicle_Purchase_Terminal>::`RTTI Complete Object Locator'
PUBLIC	??_R0?AV?$ScriptRegistrant@VMC_Vehicle_Purchase_Terminal@@@@@8 ; ScriptRegistrant<MC_Vehicle_Purchase_Terminal> `RTTI Type Descriptor'
PUBLIC	??_R3?$ScriptRegistrant@VMC_Vehicle_Purchase_Terminal@@@@8 ; ScriptRegistrant<MC_Vehicle_Purchase_Terminal>::`RTTI Class Hierarchy Descriptor'
PUBLIC	??_R2?$ScriptRegistrant@VMC_Vehicle_Purchase_Terminal@@@@8 ; ScriptRegistrant<MC_Vehicle_Purchase_Terminal>::`RTTI Base Class Array'
PUBLIC	??_R1A@?0A@EA@?$ScriptRegistrant@VMC_Vehicle_Purchase_Terminal@@@@8 ; ScriptRegistrant<MC_Vehicle_Purchase_Terminal>::`RTTI Base Class Descriptor at (0,-1,0,64)'
PUBLIC	??_R4?$ScriptRegistrant@VMC_Character_Purchase_Terminal@@@@6B@ ; ScriptRegistrant<MC_Character_Purchase_Terminal>::`RTTI Complete Object Locator'
PUBLIC	??_R0?AV?$ScriptRegistrant@VMC_Character_Purchase_Terminal@@@@@8 ; ScriptRegistrant<MC_Character_Purchase_Terminal> `RTTI Type Descriptor'
PUBLIC	??_R3?$ScriptRegistrant@VMC_Character_Purchase_Terminal@@@@8 ; ScriptRegistrant<MC_Character_Purchase_Terminal>::`RTTI Class Hierarchy Descriptor'
PUBLIC	??_R2?$ScriptRegistrant@VMC_Character_Purchase_Terminal@@@@8 ; ScriptRegistrant<MC_Character_Purchase_Terminal>::`RTTI Base Class Array'
PUBLIC	??_R1A@?0A@EA@?$ScriptRegistrant@VMC_Character_Purchase_Terminal@@@@8 ; ScriptRegistrant<MC_Character_Purchase_Terminal>::`RTTI Base Class Descriptor at (0,-1,0,64)'
PUBLIC	??_R4?$ScriptRegistrant@VMC_HUD_Message_Zone@@@@6B@ ; ScriptRegistrant<MC_HUD_Message_Zone>::`RTTI Complete Object Locator'
PUBLIC	??_R0?AV?$ScriptRegistrant@VMC_HUD_Message_Zone@@@@@8 ; ScriptRegistrant<MC_HUD_Message_Zone> `RTTI Type Descriptor'
PUBLIC	??_R3?$ScriptRegistrant@VMC_HUD_Message_Zone@@@@8 ; ScriptRegistrant<MC_HUD_Message_Zone>::`RTTI Class Hierarchy Descriptor'
PUBLIC	??_R2?$ScriptRegistrant@VMC_HUD_Message_Zone@@@@8 ; ScriptRegistrant<MC_HUD_Message_Zone>::`RTTI Base Class Array'
PUBLIC	??_R1A@?0A@EA@?$ScriptRegistrant@VMC_HUD_Message_Zone@@@@8 ; ScriptRegistrant<MC_HUD_Message_Zone>::`RTTI Base Class Descriptor at (0,-1,0,64)'
PUBLIC	??_R4?$ScriptRegistrant@VMC_Teleport@@@@6B@	; ScriptRegistrant<MC_Teleport>::`RTTI Complete Object Locator'
PUBLIC	??_R0?AV?$ScriptRegistrant@VMC_Teleport@@@@@8	; ScriptRegistrant<MC_Teleport> `RTTI Type Descriptor'
PUBLIC	??_R3?$ScriptRegistrant@VMC_Teleport@@@@8	; ScriptRegistrant<MC_Teleport>::`RTTI Class Hierarchy Descriptor'
PUBLIC	??_R2?$ScriptRegistrant@VMC_Teleport@@@@8	; ScriptRegistrant<MC_Teleport>::`RTTI Base Class Array'
PUBLIC	??_R1A@?0A@EA@?$ScriptRegistrant@VMC_Teleport@@@@8 ; ScriptRegistrant<MC_Teleport>::`RTTI Base Class Descriptor at (0,-1,0,64)'
PUBLIC	??_R4?$ScriptRegistrant@VMC_Change_Vehicle_Weapon@@@@6B@ ; ScriptRegistrant<MC_Change_Vehicle_Weapon>::`RTTI Complete Object Locator'
PUBLIC	??_R0?AV?$ScriptRegistrant@VMC_Change_Vehicle_Weapon@@@@@8 ; ScriptRegistrant<MC_Change_Vehicle_Weapon> `RTTI Type Descriptor'
PUBLIC	??_R3?$ScriptRegistrant@VMC_Change_Vehicle_Weapon@@@@8 ; ScriptRegistrant<MC_Change_Vehicle_Weapon>::`RTTI Class Hierarchy Descriptor'
PUBLIC	??_R2?$ScriptRegistrant@VMC_Change_Vehicle_Weapon@@@@8 ; ScriptRegistrant<MC_Change_Vehicle_Weapon>::`RTTI Base Class Array'
PUBLIC	??_R1A@?0A@EA@?$ScriptRegistrant@VMC_Change_Vehicle_Weapon@@@@8 ; ScriptRegistrant<MC_Change_Vehicle_Weapon>::`RTTI Base Class Descriptor at (0,-1,0,64)'
PUBLIC	??_R4?$ScriptRegistrant@VMC_Change_Vehicle_Weapon_Zone@@@@6B@ ; ScriptRegistrant<MC_Change_Vehicle_Weapon_Zone>::`RTTI Complete Object Locator'
PUBLIC	??_R0?AV?$ScriptRegistrant@VMC_Change_Vehicle_Weapon_Zone@@@@@8 ; ScriptRegistrant<MC_Change_Vehicle_Weapon_Zone> `RTTI Type Descriptor'
PUBLIC	??_R3?$ScriptRegistrant@VMC_Change_Vehicle_Weapon_Zone@@@@8 ; ScriptRegistrant<MC_Change_Vehicle_Weapon_Zone>::`RTTI Class Hierarchy Descriptor'
PUBLIC	??_R2?$ScriptRegistrant@VMC_Change_Vehicle_Weapon_Zone@@@@8 ; ScriptRegistrant<MC_Change_Vehicle_Weapon_Zone>::`RTTI Base Class Array'
PUBLIC	??_R1A@?0A@EA@?$ScriptRegistrant@VMC_Change_Vehicle_Weapon_Zone@@@@8 ; ScriptRegistrant<MC_Change_Vehicle_Weapon_Zone>::`RTTI Base Class Descriptor at (0,-1,0,64)'
PUBLIC	??_R4?$ScriptRegistrant@VMC_Grant_Weapon@@@@6B@	; ScriptRegistrant<MC_Grant_Weapon>::`RTTI Complete Object Locator'
PUBLIC	??_R0?AV?$ScriptRegistrant@VMC_Grant_Weapon@@@@@8 ; ScriptRegistrant<MC_Grant_Weapon> `RTTI Type Descriptor'
PUBLIC	??_R3?$ScriptRegistrant@VMC_Grant_Weapon@@@@8	; ScriptRegistrant<MC_Grant_Weapon>::`RTTI Class Hierarchy Descriptor'
PUBLIC	??_R2?$ScriptRegistrant@VMC_Grant_Weapon@@@@8	; ScriptRegistrant<MC_Grant_Weapon>::`RTTI Base Class Array'
PUBLIC	??_R1A@?0A@EA@?$ScriptRegistrant@VMC_Grant_Weapon@@@@8 ; ScriptRegistrant<MC_Grant_Weapon>::`RTTI Base Class Descriptor at (0,-1,0,64)'
PUBLIC	??_R4?$ScriptRegistrant@VMC_Grant_Weapon_Zone@@@@6B@ ; ScriptRegistrant<MC_Grant_Weapon_Zone>::`RTTI Complete Object Locator'
PUBLIC	??_R0?AV?$ScriptRegistrant@VMC_Grant_Weapon_Zone@@@@@8 ; ScriptRegistrant<MC_Grant_Weapon_Zone> `RTTI Type Descriptor'
PUBLIC	??_R3?$ScriptRegistrant@VMC_Grant_Weapon_Zone@@@@8 ; ScriptRegistrant<MC_Grant_Weapon_Zone>::`RTTI Class Hierarchy Descriptor'
PUBLIC	??_R2?$ScriptRegistrant@VMC_Grant_Weapon_Zone@@@@8 ; ScriptRegistrant<MC_Grant_Weapon_Zone>::`RTTI Base Class Array'
PUBLIC	??_R1A@?0A@EA@?$ScriptRegistrant@VMC_Grant_Weapon_Zone@@@@8 ; ScriptRegistrant<MC_Grant_Weapon_Zone>::`RTTI Base Class Descriptor at (0,-1,0,64)'
PUBLIC	??_R4?$ScriptRegistrant@VMC_Grant_Character@@@@6B@ ; ScriptRegistrant<MC_Grant_Character>::`RTTI Complete Object Locator'
PUBLIC	??_R0?AV?$ScriptRegistrant@VMC_Grant_Character@@@@@8 ; ScriptRegistrant<MC_Grant_Character> `RTTI Type Descriptor'
PUBLIC	??_R3?$ScriptRegistrant@VMC_Grant_Character@@@@8 ; ScriptRegistrant<MC_Grant_Character>::`RTTI Class Hierarchy Descriptor'
PUBLIC	??_R2?$ScriptRegistrant@VMC_Grant_Character@@@@8 ; ScriptRegistrant<MC_Grant_Character>::`RTTI Base Class Array'
PUBLIC	??_R1A@?0A@EA@?$ScriptRegistrant@VMC_Grant_Character@@@@8 ; ScriptRegistrant<MC_Grant_Character>::`RTTI Base Class Descriptor at (0,-1,0,64)'
PUBLIC	??_R4?$ScriptRegistrant@VMC_Grant_Character_Zone@@@@6B@ ; ScriptRegistrant<MC_Grant_Character_Zone>::`RTTI Complete Object Locator'
PUBLIC	??_R0?AV?$ScriptRegistrant@VMC_Grant_Character_Zone@@@@@8 ; ScriptRegistrant<MC_Grant_Character_Zone> `RTTI Type Descriptor'
PUBLIC	??_R3?$ScriptRegistrant@VMC_Grant_Character_Zone@@@@8 ; ScriptRegistrant<MC_Grant_Character_Zone>::`RTTI Class Hierarchy Descriptor'
PUBLIC	??_R2?$ScriptRegistrant@VMC_Grant_Character_Zone@@@@8 ; ScriptRegistrant<MC_Grant_Character_Zone>::`RTTI Base Class Array'
PUBLIC	??_R1A@?0A@EA@?$ScriptRegistrant@VMC_Grant_Character_Zone@@@@8 ; ScriptRegistrant<MC_Grant_Character_Zone>::`RTTI Base Class Descriptor at (0,-1,0,64)'
PUBLIC	??_R4?$ScriptRegistrant@VMC_Spawn_When_Fully_Repaired@@@@6B@ ; ScriptRegistrant<MC_Spawn_When_Fully_Repaired>::`RTTI Complete Object Locator'
PUBLIC	??_R0?AV?$ScriptRegistrant@VMC_Spawn_When_Fully_Repaired@@@@@8 ; ScriptRegistrant<MC_Spawn_When_Fully_Repaired> `RTTI Type Descriptor'
PUBLIC	??_R3?$ScriptRegistrant@VMC_Spawn_When_Fully_Repaired@@@@8 ; ScriptRegistrant<MC_Spawn_When_Fully_Repaired>::`RTTI Class Hierarchy Descriptor'
PUBLIC	??_R2?$ScriptRegistrant@VMC_Spawn_When_Fully_Repaired@@@@8 ; ScriptRegistrant<MC_Spawn_When_Fully_Repaired>::`RTTI Base Class Array'
PUBLIC	??_R1A@?0A@EA@?$ScriptRegistrant@VMC_Spawn_When_Fully_Repaired@@@@8 ; ScriptRegistrant<MC_Spawn_When_Fully_Repaired>::`RTTI Base Class Descriptor at (0,-1,0,64)'
PUBLIC	??_R4?$ScriptRegistrant@VMC_Refinery_Object@@@@6B@ ; ScriptRegistrant<MC_Refinery_Object>::`RTTI Complete Object Locator'
PUBLIC	??_R0?AV?$ScriptRegistrant@VMC_Refinery_Object@@@@@8 ; ScriptRegistrant<MC_Refinery_Object> `RTTI Type Descriptor'
PUBLIC	??_R3?$ScriptRegistrant@VMC_Refinery_Object@@@@8 ; ScriptRegistrant<MC_Refinery_Object>::`RTTI Class Hierarchy Descriptor'
PUBLIC	??_R2?$ScriptRegistrant@VMC_Refinery_Object@@@@8 ; ScriptRegistrant<MC_Refinery_Object>::`RTTI Base Class Array'
PUBLIC	??_R1A@?0A@EA@?$ScriptRegistrant@VMC_Refinery_Object@@@@8 ; ScriptRegistrant<MC_Refinery_Object>::`RTTI Base Class Descriptor at (0,-1,0,64)'
PUBLIC	??_R4?$ScriptRegistrant@VMC_GameOver_When_Kill@@@@6B@ ; ScriptRegistrant<MC_GameOver_When_Kill>::`RTTI Complete Object Locator'
PUBLIC	??_R0?AV?$ScriptRegistrant@VMC_GameOver_When_Kill@@@@@8 ; ScriptRegistrant<MC_GameOver_When_Kill> `RTTI Type Descriptor'
PUBLIC	??_R3?$ScriptRegistrant@VMC_GameOver_When_Kill@@@@8 ; ScriptRegistrant<MC_GameOver_When_Kill>::`RTTI Class Hierarchy Descriptor'
PUBLIC	??_R2?$ScriptRegistrant@VMC_GameOver_When_Kill@@@@8 ; ScriptRegistrant<MC_GameOver_When_Kill>::`RTTI Base Class Array'
PUBLIC	??_R1A@?0A@EA@?$ScriptRegistrant@VMC_GameOver_When_Kill@@@@8 ; ScriptRegistrant<MC_GameOver_When_Kill>::`RTTI Base Class Descriptor at (0,-1,0,64)'
PUBLIC	??_R4?$ScriptRegistrant@VMC_Spawn_When_Death@@@@6B@ ; ScriptRegistrant<MC_Spawn_When_Death>::`RTTI Complete Object Locator'
PUBLIC	??_R0?AV?$ScriptRegistrant@VMC_Spawn_When_Death@@@@@8 ; ScriptRegistrant<MC_Spawn_When_Death> `RTTI Type Descriptor'
PUBLIC	??_R3?$ScriptRegistrant@VMC_Spawn_When_Death@@@@8 ; ScriptRegistrant<MC_Spawn_When_Death>::`RTTI Class Hierarchy Descriptor'
PUBLIC	??_R2?$ScriptRegistrant@VMC_Spawn_When_Death@@@@8 ; ScriptRegistrant<MC_Spawn_When_Death>::`RTTI Base Class Array'
PUBLIC	??_R1A@?0A@EA@?$ScriptRegistrant@VMC_Spawn_When_Death@@@@8 ; ScriptRegistrant<MC_Spawn_When_Death>::`RTTI Base Class Descriptor at (0,-1,0,64)'
PUBLIC	??_R4?$ScriptRegistrant@VMC_MasterControlTerminal_Object@@@@6B@ ; ScriptRegistrant<MC_MasterControlTerminal_Object>::`RTTI Complete Object Locator'
PUBLIC	??_R0?AV?$ScriptRegistrant@VMC_MasterControlTerminal_Object@@@@@8 ; ScriptRegistrant<MC_MasterControlTerminal_Object> `RTTI Type Descriptor'
PUBLIC	??_R3?$ScriptRegistrant@VMC_MasterControlTerminal_Object@@@@8 ; ScriptRegistrant<MC_MasterControlTerminal_Object>::`RTTI Class Hierarchy Descriptor'
PUBLIC	??_R2?$ScriptRegistrant@VMC_MasterControlTerminal_Object@@@@8 ; ScriptRegistrant<MC_MasterControlTerminal_Object>::`RTTI Base Class Array'
PUBLIC	??_R1A@?0A@EA@?$ScriptRegistrant@VMC_MasterControlTerminal_Object@@@@8 ; ScriptRegistrant<MC_MasterControlTerminal_Object>::`RTTI Base Class Descriptor at (0,-1,0,64)'
PUBLIC	??_R4?$ScriptRegistrant@VMC_MCTMainSyncObject@@@@6B@ ; ScriptRegistrant<MC_MCTMainSyncObject>::`RTTI Complete Object Locator'
PUBLIC	??_R0?AV?$ScriptRegistrant@VMC_MCTMainSyncObject@@@@@8 ; ScriptRegistrant<MC_MCTMainSyncObject> `RTTI Type Descriptor'
PUBLIC	??_R3?$ScriptRegistrant@VMC_MCTMainSyncObject@@@@8 ; ScriptRegistrant<MC_MCTMainSyncObject>::`RTTI Class Hierarchy Descriptor'
PUBLIC	??_R2?$ScriptRegistrant@VMC_MCTMainSyncObject@@@@8 ; ScriptRegistrant<MC_MCTMainSyncObject>::`RTTI Base Class Array'
PUBLIC	??_R1A@?0A@EA@?$ScriptRegistrant@VMC_MCTMainSyncObject@@@@8 ; ScriptRegistrant<MC_MCTMainSyncObject>::`RTTI Base Class Descriptor at (0,-1,0,64)'
PUBLIC	??_R4?$ScriptRegistrant@VMC_Set_Team_When_Exit@@@@6B@ ; ScriptRegistrant<MC_Set_Team_When_Exit>::`RTTI Complete Object Locator'
PUBLIC	??_R0?AV?$ScriptRegistrant@VMC_Set_Team_When_Exit@@@@@8 ; ScriptRegistrant<MC_Set_Team_When_Exit> `RTTI Type Descriptor'
PUBLIC	??_R3?$ScriptRegistrant@VMC_Set_Team_When_Exit@@@@8 ; ScriptRegistrant<MC_Set_Team_When_Exit>::`RTTI Class Hierarchy Descriptor'
PUBLIC	??_R2?$ScriptRegistrant@VMC_Set_Team_When_Exit@@@@8 ; ScriptRegistrant<MC_Set_Team_When_Exit>::`RTTI Base Class Array'
PUBLIC	??_R1A@?0A@EA@?$ScriptRegistrant@VMC_Set_Team_When_Exit@@@@8 ; ScriptRegistrant<MC_Set_Team_When_Exit>::`RTTI Base Class Descriptor at (0,-1,0,64)'
PUBLIC	??_R4?$ScriptRegistrant@VMC_IonExplosion_When_Death@@@@6B@ ; ScriptRegistrant<MC_IonExplosion_When_Death>::`RTTI Complete Object Locator'
PUBLIC	??_R0?AV?$ScriptRegistrant@VMC_IonExplosion_When_Death@@@@@8 ; ScriptRegistrant<MC_IonExplosion_When_Death> `RTTI Type Descriptor'
PUBLIC	??_R3?$ScriptRegistrant@VMC_IonExplosion_When_Death@@@@8 ; ScriptRegistrant<MC_IonExplosion_When_Death>::`RTTI Class Hierarchy Descriptor'
PUBLIC	??_R2?$ScriptRegistrant@VMC_IonExplosion_When_Death@@@@8 ; ScriptRegistrant<MC_IonExplosion_When_Death>::`RTTI Base Class Array'
PUBLIC	??_R1A@?0A@EA@?$ScriptRegistrant@VMC_IonExplosion_When_Death@@@@8 ; ScriptRegistrant<MC_IonExplosion_When_Death>::`RTTI Base Class Descriptor at (0,-1,0,64)'
PUBLIC	??_R4?$ScriptRegistrant@VMC_Capturable_Object@@@@6B@ ; ScriptRegistrant<MC_Capturable_Object>::`RTTI Complete Object Locator'
PUBLIC	??_R0?AV?$ScriptRegistrant@VMC_Capturable_Object@@@@@8 ; ScriptRegistrant<MC_Capturable_Object> `RTTI Type Descriptor'
PUBLIC	??_R3?$ScriptRegistrant@VMC_Capturable_Object@@@@8 ; ScriptRegistrant<MC_Capturable_Object>::`RTTI Class Hierarchy Descriptor'
PUBLIC	??_R2?$ScriptRegistrant@VMC_Capturable_Object@@@@8 ; ScriptRegistrant<MC_Capturable_Object>::`RTTI Base Class Array'
PUBLIC	??_R1A@?0A@EA@?$ScriptRegistrant@VMC_Capturable_Object@@@@8 ; ScriptRegistrant<MC_Capturable_Object>::`RTTI Base Class Descriptor at (0,-1,0,64)'
PUBLIC	??_R4?$ScriptRegistrant@VMC_FlyMode_On@@@@6B@	; ScriptRegistrant<MC_FlyMode_On>::`RTTI Complete Object Locator'
PUBLIC	??_R0?AV?$ScriptRegistrant@VMC_FlyMode_On@@@@@8	; ScriptRegistrant<MC_FlyMode_On> `RTTI Type Descriptor'
PUBLIC	??_R3?$ScriptRegistrant@VMC_FlyMode_On@@@@8	; ScriptRegistrant<MC_FlyMode_On>::`RTTI Class Hierarchy Descriptor'
PUBLIC	??_R2?$ScriptRegistrant@VMC_FlyMode_On@@@@8	; ScriptRegistrant<MC_FlyMode_On>::`RTTI Base Class Array'
PUBLIC	??_R1A@?0A@EA@?$ScriptRegistrant@VMC_FlyMode_On@@@@8 ; ScriptRegistrant<MC_FlyMode_On>::`RTTI Base Class Descriptor at (0,-1,0,64)'
PUBLIC	??_R4?$ScriptRegistrant@VMC_FlyMode_Off@@@@6B@	; ScriptRegistrant<MC_FlyMode_Off>::`RTTI Complete Object Locator'
PUBLIC	??_R0?AV?$ScriptRegistrant@VMC_FlyMode_Off@@@@@8 ; ScriptRegistrant<MC_FlyMode_Off> `RTTI Type Descriptor'
PUBLIC	??_R3?$ScriptRegistrant@VMC_FlyMode_Off@@@@8	; ScriptRegistrant<MC_FlyMode_Off>::`RTTI Class Hierarchy Descriptor'
PUBLIC	??_R2?$ScriptRegistrant@VMC_FlyMode_Off@@@@8	; ScriptRegistrant<MC_FlyMode_Off>::`RTTI Base Class Array'
PUBLIC	??_R1A@?0A@EA@?$ScriptRegistrant@VMC_FlyMode_Off@@@@8 ; ScriptRegistrant<MC_FlyMode_Off>::`RTTI Base Class Descriptor at (0,-1,0,64)'
PUBLIC	??_R4?$ScriptRegistrant@VMC_FlyModeZone_On@@@@6B@ ; ScriptRegistrant<MC_FlyModeZone_On>::`RTTI Complete Object Locator'
PUBLIC	??_R0?AV?$ScriptRegistrant@VMC_FlyModeZone_On@@@@@8 ; ScriptRegistrant<MC_FlyModeZone_On> `RTTI Type Descriptor'
PUBLIC	??_R3?$ScriptRegistrant@VMC_FlyModeZone_On@@@@8	; ScriptRegistrant<MC_FlyModeZone_On>::`RTTI Class Hierarchy Descriptor'
PUBLIC	??_R2?$ScriptRegistrant@VMC_FlyModeZone_On@@@@8	; ScriptRegistrant<MC_FlyModeZone_On>::`RTTI Base Class Array'
PUBLIC	??_R1A@?0A@EA@?$ScriptRegistrant@VMC_FlyModeZone_On@@@@8 ; ScriptRegistrant<MC_FlyModeZone_On>::`RTTI Base Class Descriptor at (0,-1,0,64)'
PUBLIC	??_R4?$ScriptRegistrant@VMC_FlyModeZone_Off@@@@6B@ ; ScriptRegistrant<MC_FlyModeZone_Off>::`RTTI Complete Object Locator'
PUBLIC	??_R0?AV?$ScriptRegistrant@VMC_FlyModeZone_Off@@@@@8 ; ScriptRegistrant<MC_FlyModeZone_Off> `RTTI Type Descriptor'
PUBLIC	??_R3?$ScriptRegistrant@VMC_FlyModeZone_Off@@@@8 ; ScriptRegistrant<MC_FlyModeZone_Off>::`RTTI Class Hierarchy Descriptor'
PUBLIC	??_R2?$ScriptRegistrant@VMC_FlyModeZone_Off@@@@8 ; ScriptRegistrant<MC_FlyModeZone_Off>::`RTTI Base Class Array'
PUBLIC	??_R1A@?0A@EA@?$ScriptRegistrant@VMC_FlyModeZone_Off@@@@8 ; ScriptRegistrant<MC_FlyModeZone_Off>::`RTTI Base Class Descriptor at (0,-1,0,64)'
PUBLIC	??_R4?$ScriptRegistrant@VMC_Spectate@@@@6B@	; ScriptRegistrant<MC_Spectate>::`RTTI Complete Object Locator'
PUBLIC	??_R0?AV?$ScriptRegistrant@VMC_Spectate@@@@@8	; ScriptRegistrant<MC_Spectate> `RTTI Type Descriptor'
PUBLIC	??_R3?$ScriptRegistrant@VMC_Spectate@@@@8	; ScriptRegistrant<MC_Spectate>::`RTTI Class Hierarchy Descriptor'
PUBLIC	??_R2?$ScriptRegistrant@VMC_Spectate@@@@8	; ScriptRegistrant<MC_Spectate>::`RTTI Base Class Array'
PUBLIC	??_R1A@?0A@EA@?$ScriptRegistrant@VMC_Spectate@@@@8 ; ScriptRegistrant<MC_Spectate>::`RTTI Base Class Descriptor at (0,-1,0,64)'
PUBLIC	??_R4?$ScriptRegistrant@VMC_Spectate_Zone@@@@6B@ ; ScriptRegistrant<MC_Spectate_Zone>::`RTTI Complete Object Locator'
PUBLIC	??_R0?AV?$ScriptRegistrant@VMC_Spectate_Zone@@@@@8 ; ScriptRegistrant<MC_Spectate_Zone> `RTTI Type Descriptor'
PUBLIC	??_R3?$ScriptRegistrant@VMC_Spectate_Zone@@@@8	; ScriptRegistrant<MC_Spectate_Zone>::`RTTI Class Hierarchy Descriptor'
PUBLIC	??_R2?$ScriptRegistrant@VMC_Spectate_Zone@@@@8	; ScriptRegistrant<MC_Spectate_Zone>::`RTTI Base Class Array'
PUBLIC	??_R1A@?0A@EA@?$ScriptRegistrant@VMC_Spectate_Zone@@@@8 ; ScriptRegistrant<MC_Spectate_Zone>::`RTTI Base Class Descriptor at (0,-1,0,64)'
PUBLIC	??_R4?$ScriptRegistrant@VMC_Beacon_Block_Zone@@@@6B@ ; ScriptRegistrant<MC_Beacon_Block_Zone>::`RTTI Complete Object Locator'
PUBLIC	??_R0?AV?$ScriptRegistrant@VMC_Beacon_Block_Zone@@@@@8 ; ScriptRegistrant<MC_Beacon_Block_Zone> `RTTI Type Descriptor'
PUBLIC	??_R3?$ScriptRegistrant@VMC_Beacon_Block_Zone@@@@8 ; ScriptRegistrant<MC_Beacon_Block_Zone>::`RTTI Class Hierarchy Descriptor'
PUBLIC	??_R2?$ScriptRegistrant@VMC_Beacon_Block_Zone@@@@8 ; ScriptRegistrant<MC_Beacon_Block_Zone>::`RTTI Base Class Array'
PUBLIC	??_R1A@?0A@EA@?$ScriptRegistrant@VMC_Beacon_Block_Zone@@@@8 ; ScriptRegistrant<MC_Beacon_Block_Zone>::`RTTI Base Class Descriptor at (0,-1,0,64)'
PUBLIC	??_R4?$ScriptRegistrant@VMC_Objective_Message_Sender@@@@6B@ ; ScriptRegistrant<MC_Objective_Message_Sender>::`RTTI Complete Object Locator'
PUBLIC	??_R0?AV?$ScriptRegistrant@VMC_Objective_Message_Sender@@@@@8 ; ScriptRegistrant<MC_Objective_Message_Sender> `RTTI Type Descriptor'
PUBLIC	??_R3?$ScriptRegistrant@VMC_Objective_Message_Sender@@@@8 ; ScriptRegistrant<MC_Objective_Message_Sender>::`RTTI Class Hierarchy Descriptor'
PUBLIC	??_R2?$ScriptRegistrant@VMC_Objective_Message_Sender@@@@8 ; ScriptRegistrant<MC_Objective_Message_Sender>::`RTTI Base Class Array'
PUBLIC	??_R1A@?0A@EA@?$ScriptRegistrant@VMC_Objective_Message_Sender@@@@8 ; ScriptRegistrant<MC_Objective_Message_Sender>::`RTTI Base Class Descriptor at (0,-1,0,64)'
PUBLIC	??_R4?$ScriptRegistrant@VMC_Objective_Controller@@@@6B@ ; ScriptRegistrant<MC_Objective_Controller>::`RTTI Complete Object Locator'
PUBLIC	??_R0?AV?$ScriptRegistrant@VMC_Objective_Controller@@@@@8 ; ScriptRegistrant<MC_Objective_Controller> `RTTI Type Descriptor'
PUBLIC	??_R3?$ScriptRegistrant@VMC_Objective_Controller@@@@8 ; ScriptRegistrant<MC_Objective_Controller>::`RTTI Class Hierarchy Descriptor'
PUBLIC	??_R2?$ScriptRegistrant@VMC_Objective_Controller@@@@8 ; ScriptRegistrant<MC_Objective_Controller>::`RTTI Base Class Array'
PUBLIC	??_R1A@?0A@EA@?$ScriptRegistrant@VMC_Objective_Controller@@@@8 ; ScriptRegistrant<MC_Objective_Controller>::`RTTI Base Class Descriptor at (0,-1,0,64)'
PUBLIC	??_R4?$ScriptRegistrant@VMC_Objective_Listener@@@@6B@ ; ScriptRegistrant<MC_Objective_Listener>::`RTTI Complete Object Locator'
PUBLIC	??_R0?AV?$ScriptRegistrant@VMC_Objective_Listener@@@@@8 ; ScriptRegistrant<MC_Objective_Listener> `RTTI Type Descriptor'
PUBLIC	??_R3?$ScriptRegistrant@VMC_Objective_Listener@@@@8 ; ScriptRegistrant<MC_Objective_Listener>::`RTTI Class Hierarchy Descriptor'
PUBLIC	??_R2?$ScriptRegistrant@VMC_Objective_Listener@@@@8 ; ScriptRegistrant<MC_Objective_Listener>::`RTTI Base Class Array'
PUBLIC	??_R1A@?0A@EA@?$ScriptRegistrant@VMC_Objective_Listener@@@@8 ; ScriptRegistrant<MC_Objective_Listener>::`RTTI Base Class Descriptor at (0,-1,0,64)'
PUBLIC	??_R4?$ScriptRegistrant@VMC_Objective@@@@6B@	; ScriptRegistrant<MC_Objective>::`RTTI Complete Object Locator'
PUBLIC	??_R0?AV?$ScriptRegistrant@VMC_Objective@@@@@8	; ScriptRegistrant<MC_Objective> `RTTI Type Descriptor'
PUBLIC	??_R3?$ScriptRegistrant@VMC_Objective@@@@8	; ScriptRegistrant<MC_Objective>::`RTTI Class Hierarchy Descriptor'
PUBLIC	??_R2?$ScriptRegistrant@VMC_Objective@@@@8	; ScriptRegistrant<MC_Objective>::`RTTI Base Class Array'
PUBLIC	??_R1A@?0A@EA@?$ScriptRegistrant@VMC_Objective@@@@8 ; ScriptRegistrant<MC_Objective>::`RTTI Base Class Descriptor at (0,-1,0,64)'
PUBLIC	??_R4?$ScriptRegistrant@VMC_Destroy_When_Objective_Completed@@@@6B@ ; ScriptRegistrant<MC_Destroy_When_Objective_Completed>::`RTTI Complete Object Locator'
PUBLIC	??_R0?AV?$ScriptRegistrant@VMC_Destroy_When_Objective_Completed@@@@@8 ; ScriptRegistrant<MC_Destroy_When_Objective_Completed> `RTTI Type Descriptor'
PUBLIC	??_R3?$ScriptRegistrant@VMC_Destroy_When_Objective_Completed@@@@8 ; ScriptRegistrant<MC_Destroy_When_Objective_Completed>::`RTTI Class Hierarchy Descriptor'
PUBLIC	??_R2?$ScriptRegistrant@VMC_Destroy_When_Objective_Completed@@@@8 ; ScriptRegistrant<MC_Destroy_When_Objective_Completed>::`RTTI Base Class Array'
PUBLIC	??_R1A@?0A@EA@?$ScriptRegistrant@VMC_Destroy_When_Objective_Completed@@@@8 ; ScriptRegistrant<MC_Destroy_When_Objective_Completed>::`RTTI Base Class Descriptor at (0,-1,0,64)'
PUBLIC	??_R4?$ScriptRegistrant@VMC_Select_Weapon_On_Zone@@@@6B@ ; ScriptRegistrant<MC_Select_Weapon_On_Zone>::`RTTI Complete Object Locator'
PUBLIC	??_R0?AV?$ScriptRegistrant@VMC_Select_Weapon_On_Zone@@@@@8 ; ScriptRegistrant<MC_Select_Weapon_On_Zone> `RTTI Type Descriptor'
