; Listing generated by Microsoft (R) Optimizing Compiler Version 17.00.61219.0 

	TITLE	X:\GitHub\Renegade\Dragonade_RxD\scripts\mdbevf.cpp
	.686P
	.XMM
	include listing.inc
	.model	flat

INCLUDELIB MSVCRTD
INCLUDELIB OLDNAMES

PUBLIC	?ExpVehFac@@3PAPAVExpVehFacClass@@A		; ExpVehFac
_BSS	SEGMENT
?ExpVehFac@@3PAPAVExpVehFacClass@@A DD 02H DUP (?)	; ExpVehFac
_BSS	ENDS
CONST	SEGMENT
_DONT_MOVE_ARRIVED_DIST DD 0447a0000r		; 1000
CONST	ENDS
PUBLIC	??_H@YGXPAXIHP6EPAX0@Z@Z			; `vector constructor iterator'
PUBLIC	??_I@YGXPAXIHP6EX0@Z@Z				; `vector destructor iterator'
PUBLIC	_acosf
PUBLIC	_asinf
PUBLIC	_atanf
PUBLIC	_atan2f
PUBLIC	_ceilf
PUBLIC	_cosf
PUBLIC	_floorf
PUBLIC	_sinf
PUBLIC	_sqrtf
PUBLIC	?acos@@YAMM@Z					; acos
PUBLIC	?asin@@YAMM@Z					; asin
PUBLIC	?atan@@YAMM@Z					; atan
PUBLIC	?atan2@@YAMMM@Z					; atan2
PUBLIC	?cos@@YAMM@Z					; cos
PUBLIC	?sin@@YAMM@Z					; sin
PUBLIC	?sqrt@@YAMM@Z					; sqrt
PUBLIC	?Fabs@WWMath@@SAMM@Z				; WWMath::Fabs
PUBLIC	?Float_To_Int_Chop@WWMath@@SAHABM@Z		; WWMath::Float_To_Int_Chop
PUBLIC	?Float_To_Int_Floor@WWMath@@SAHABM@Z		; WWMath::Float_To_Int_Floor
PUBLIC	?Cos@WWMath@@SAMM@Z				; WWMath::Cos
PUBLIC	?Sin@WWMath@@SAMM@Z				; WWMath::Sin
PUBLIC	?Sqrt@WWMath@@SAMM@Z				; WWMath::Sqrt
PUBLIC	?Inv_Sqrt@WWMath@@SIMM@Z			; WWMath::Inv_Sqrt
PUBLIC	?Float_To_Long@WWMath@@SAJM@Z			; WWMath::Float_To_Long
PUBLIC	?Fast_Sin@WWMath@@SAMM@Z			; WWMath::Fast_Sin
PUBLIC	?Fast_Inv_Sin@WWMath@@SAMM@Z			; WWMath::Fast_Inv_Sin
PUBLIC	?Fast_Cos@WWMath@@SAMM@Z			; WWMath::Fast_Cos
PUBLIC	?Fast_Inv_Cos@WWMath@@SAMM@Z			; WWMath::Fast_Inv_Cos
PUBLIC	?Fast_Acos@WWMath@@SAMM@Z			; WWMath::Fast_Acos
PUBLIC	?Fast_Asin@WWMath@@SAMM@Z			; WWMath::Fast_Asin
PUBLIC	?Acos@WWMath@@SAMM@Z				; WWMath::Acos
PUBLIC	?Asin@WWMath@@SAMM@Z				; WWMath::Asin
PUBLIC	?Atan@WWMath@@SAMM@Z				; WWMath::Atan
PUBLIC	?Atan2@WWMath@@SAMMM@Z				; WWMath::Atan2
PUBLIC	?Sign@WWMath@@SAMM@Z				; WWMath::Sign
PUBLIC	?Ceil@WWMath@@SAMM@Z				; WWMath::Ceil
PUBLIC	?Floor@WWMath@@SAMM@Z				; WWMath::Floor
PUBLIC	?Fast_Is_Float_Positive@WWMath@@SA_NABM@Z	; WWMath::Fast_Is_Float_Positive
PUBLIC	?Random_Float@WWMath@@SAMMM@Z			; WWMath::Random_Float
PUBLIC	?Clamp@WWMath@@SAMMMM@Z				; WWMath::Clamp
PUBLIC	?Clamp@WWMath@@SANNNN@Z				; WWMath::Clamp
PUBLIC	?Clamp_Int@WWMath@@SAHHHH@Z			; WWMath::Clamp_Int
PUBLIC	?Wrap@WWMath@@SAMMMM@Z				; WWMath::Wrap
PUBLIC	?Wrap@WWMath@@SANNNN@Z				; WWMath::Wrap
PUBLIC	?Min@WWMath@@SAMMM@Z				; WWMath::Min
PUBLIC	?Max@WWMath@@SAMMM@Z				; WWMath::Max
PUBLIC	?Lerp@WWMath@@SAMMMM@Z				; WWMath::Lerp
PUBLIC	?Lerp@WWMath@@SANNNM@Z				; WWMath::Lerp
PUBLIC	?Lerp@WWMath@@SAHHHM@Z				; WWMath::Lerp
PUBLIC	?Float_To_Long@WWMath@@SAJN@Z			; WWMath::Float_To_Long
PUBLIC	?Unit_Float_To_Byte@WWMath@@SAEM@Z		; WWMath::Unit_Float_To_Byte
PUBLIC	?Byte_To_Unit_Float@WWMath@@SAME@Z		; WWMath::Byte_To_Unit_Float
PUBLIC	?Is_Valid_Float@WWMath@@SA_NM@Z			; WWMath::Is_Valid_Float
PUBLIC	?Is_Valid_Double@WWMath@@SA_NN@Z		; WWMath::Is_Valid_Double
PUBLIC	??4WWMath@@QAEAAV0@ABV0@@Z			; WWMath::operator=
PUBLIC	??B?$RefArrayHelper@M$0EAA@@@QAEPAMXZ		; RefArrayHelper<float,1024>::operator float *
PUBLIC	??0Vector3@@QAE@XZ				; Vector3::Vector3
PUBLIC	??0Vector3@@QAE@ABV0@@Z				; Vector3::Vector3
PUBLIC	??0Vector3@@QAE@MMM@Z				; Vector3::Vector3
PUBLIC	??4Vector3@@QAEAAV0@ABV0@@Z			; Vector3::operator=
PUBLIC	?Set@Vector3@@QAEXMMM@Z				; Vector3::Set
PUBLIC	??AVector3@@QAEAAMH@Z				; Vector3::operator[]
PUBLIC	??AVector3@@QBEABMH@Z				; Vector3::operator[]
PUBLIC	?Normalize@Vector3@@QAEXXZ			; Vector3::Normalize
PUBLIC	?Length@Vector3@@QBEMXZ				; Vector3::Length
PUBLIC	?Length2@Vector3@@QBEMXZ			; Vector3::Length2
PUBLIC	??YVector3@@QAEAAV0@ABV0@@Z			; Vector3::operator+=
PUBLIC	??ZVector3@@QAEAAV0@ABV0@@Z			; Vector3::operator-=
PUBLIC	??XVector3@@QAEAAV0@M@Z				; Vector3::operator*=
PUBLIC	??_0Vector3@@QAEAAV0@M@Z			; Vector3::operator/=
PUBLIC	??D@YA?AVVector3@@ABV0@M@Z			; operator*
PUBLIC	??D@YA?AVVector3@@MABV0@@Z			; operator*
PUBLIC	??H@YA?AVVector3@@ABV0@0@Z			; operator+
PUBLIC	??G@YA?AVVector3@@ABV0@0@Z			; operator-
PUBLIC	?Add@Vector3@@SAXABV1@0PAV1@@Z			; Vector3::Add
PUBLIC	?Subtract@Vector3@@SAXABV1@0PAV1@@Z		; Vector3::Subtract
PUBLIC	?Swap@@YAXAAVVector3@@0@Z			; Swap
PUBLIC	??0GameObjObserverClass@@QAE@XZ			; GameObjObserverClass::GameObjObserverClass
PUBLIC	??1GameObjObserverClass@@UAE@XZ			; GameObjObserverClass::~GameObjObserverClass
PUBLIC	?Set_ID@GameObjObserverClass@@QAEXH@Z		; GameObjObserverClass::Set_ID
PUBLIC	?Get_ID@GameObjObserverClass@@QAEHXZ		; GameObjObserverClass::Get_ID
PUBLIC	?Owner@GameObjObserverClass@@UAEPAVScriptableGameObj@@XZ ; GameObjObserverClass::Owner
PUBLIC	??0GameObjObserverClass@@QAE@ABV0@@Z		; GameObjObserverClass::GameObjObserverClass
PUBLIC	??4GameObjObserverClass@@QAEAAV0@ABV0@@Z	; GameObjObserverClass::operator=
PUBLIC	??_GGameObjObserverClass@@UAEPAXI@Z		; GameObjObserverClass::`scalar deleting destructor'
PUBLIC	??_EGameObjObserverClass@@UAEPAXI@Z		; GameObjObserverClass::`vector deleting destructor'
PUBLIC	??1ScriptClass@@UAE@XZ				; ScriptClass::~ScriptClass
PUBLIC	??0ScriptClass@@QAE@XZ				; ScriptClass::ScriptClass
PUBLIC	??0ScriptClass@@QAE@ABV0@@Z			; ScriptClass::ScriptClass
PUBLIC	??4ScriptClass@@QAEAAV0@ABV0@@Z			; ScriptClass::operator=
PUBLIC	??_GScriptClass@@UAEPAXI@Z			; ScriptClass::`scalar deleting destructor'
PUBLIC	??_EScriptClass@@UAEPAXI@Z			; ScriptClass::`vector deleting destructor'
PUBLIC	?SetFactory@ScriptImpClass@@QAEXPAVScriptFactory@@@Z ; ScriptImpClass::SetFactory
PUBLIC	?Created@ScriptImpClass@@UAEXPAVScriptableGameObj@@@Z ; ScriptImpClass::Created
PUBLIC	?Destroyed@ScriptImpClass@@UAEXPAVScriptableGameObj@@@Z ; ScriptImpClass::Destroyed
PUBLIC	?Killed@ScriptImpClass@@UAEXPAVScriptableGameObj@@0@Z ; ScriptImpClass::Killed
PUBLIC	?Damaged@ScriptImpClass@@UAEXPAVScriptableGameObj@@0M@Z ; ScriptImpClass::Damaged
PUBLIC	?Custom@ScriptImpClass@@UAEXPAVScriptableGameObj@@HH0@Z ; ScriptImpClass::Custom
PUBLIC	?Sound_Heard@ScriptImpClass@@UAEXPAVScriptableGameObj@@ABUCombatSound@@@Z ; ScriptImpClass::Sound_Heard
PUBLIC	?Enemy_Seen@ScriptImpClass@@UAEXPAVScriptableGameObj@@0@Z ; ScriptImpClass::Enemy_Seen
PUBLIC	?Action_Complete@ScriptImpClass@@UAEXPAVScriptableGameObj@@HW4ActionCompleteReason@@@Z ; ScriptImpClass::Action_Complete
PUBLIC	?Timer_Expired@ScriptImpClass@@UAEXPAVScriptableGameObj@@H@Z ; ScriptImpClass::Timer_Expired
PUBLIC	?Animation_Complete@ScriptImpClass@@UAEXPAVScriptableGameObj@@PBD@Z ; ScriptImpClass::Animation_Complete
PUBLIC	?Poked@ScriptImpClass@@UAEXPAVScriptableGameObj@@0@Z ; ScriptImpClass::Poked
PUBLIC	?Entered@ScriptImpClass@@UAEXPAVScriptableGameObj@@0@Z ; ScriptImpClass::Entered
PUBLIC	?Exited@ScriptImpClass@@UAEXPAVScriptableGameObj@@0@Z ; ScriptImpClass::Exited
PUBLIC	?Owner@ScriptImpClass@@UAEPAVScriptableGameObj@@XZ ; ScriptImpClass::Owner
PUBLIC	?Get_Owner_Ptr@ScriptImpClass@@UAEPAPAVScriptableGameObj@@XZ ; ScriptImpClass::Get_Owner_Ptr
PUBLIC	?Save_Data@ScriptImpClass@@UAEXAAVScriptSaver@@@Z ; ScriptImpClass::Save_Data
PUBLIC	?Load_Data@ScriptImpClass@@UAEXAAVScriptLoader@@@Z ; ScriptImpClass::Load_Data
PUBLIC	?Register_Auto_Save_Variables@ScriptImpClass@@UAEXXZ ; ScriptImpClass::Register_Auto_Save_Variables
PUBLIC	?Get_Parameter_Count@ScriptImpClass@@QAEHXZ	; ScriptImpClass::Get_Parameter_Count
PUBLIC	?Get_Int_Parameter@ScriptImpClass@@QAEHH@Z	; ScriptImpClass::Get_Int_Parameter
PUBLIC	?Get_Float_Parameter@ScriptImpClass@@QAEMH@Z	; ScriptImpClass::Get_Float_Parameter
PUBLIC	?Get_Bool_Parameter@ScriptImpClass@@QAE_NPBD@Z	; ScriptImpClass::Get_Bool_Parameter
PUBLIC	?Get_Bool_Parameter@ScriptImpClass@@QAE_NH@Z	; ScriptImpClass::Get_Bool_Parameter
PUBLIC	??0ScriptImpClass@@QAE@ABV0@@Z			; ScriptImpClass::ScriptImpClass
PUBLIC	??4ScriptImpClass@@QAEAAV0@ABV0@@Z		; ScriptImpClass::operator=
PUBLIC	??_GScriptImpClass@@UAEPAXI@Z			; ScriptImpClass::`scalar deleting destructor'
PUBLIC	??_EScriptImpClass@@UAEPAXI@Z			; ScriptImpClass::`vector deleting destructor'
PUBLIC	??0ScriptFactory@@QAE@ABV0@@Z			; ScriptFactory::ScriptFactory
PUBLIC	??4ScriptFactory@@QAEAAV0@ABV0@@Z		; ScriptFactory::operator=
PUBLIC	??_GScriptFactory@@UAEPAXI@Z			; ScriptFactory::`scalar deleting destructor'
PUBLIC	??_EScriptFactory@@UAEPAXI@Z			; ScriptFactory::`vector deleting destructor'
PUBLIC	??4ScriptRegistrar@@QAEAAV0@ABV0@@Z		; ScriptRegistrar::operator=
PUBLIC	?Is_Running@ThreadClass@@QAE_NXZ		; ThreadClass::Is_Running
PUBLIC	?Get_Current_Thread_ID@ThreadClass@@SAHXZ	; ThreadClass::Get_Current_Thread_ID
PUBLIC	?Get_Name@ThreadClass@@QAEPBDXZ			; ThreadClass::Get_Name
PUBLIC	??0ThreadClass@@QAE@ABV0@@Z			; ThreadClass::ThreadClass
PUBLIC	??4ThreadClass@@QAEAAV0@ABV0@@Z			; ThreadClass::operator=
PUBLIC	??_GThreadClass@@UAEPAXI@Z			; ThreadClass::`scalar deleting destructor'
PUBLIC	??_EThreadClass@@UAEPAXI@Z			; ThreadClass::`vector deleting destructor'
PUBLIC	??4CriticalSectionClass@@QAEAAV0@ABV0@@Z	; CriticalSectionClass::operator=
PUBLIC	?Enter@FastCriticalSectionClass@@AAEXXZ		; FastCriticalSectionClass::Enter
PUBLIC	?Leave@FastCriticalSectionClass@@AAEXXZ		; FastCriticalSectionClass::Leave
PUBLIC	??0LockClass@FastCriticalSectionClass@@QAE@AAV1@@Z ; FastCriticalSectionClass::LockClass::LockClass
PUBLIC	??1LockClass@FastCriticalSectionClass@@QAE@XZ	; FastCriticalSectionClass::LockClass::~LockClass
PUBLIC	??0FastCriticalSectionClass@@QAE@XZ		; FastCriticalSectionClass::FastCriticalSectionClass
PUBLIC	??1StringClass@@QAE@XZ				; StringClass::~StringClass
PUBLIC	??_EStringClass@@QAEPAXI@Z			; StringClass::`vector deleting destructor'
PUBLIC	??1WideStringClass@@QAE@XZ			; WideStringClass::~WideStringClass
PUBLIC	??_EWideStringClass@@QAEPAXI@Z			; WideStringClass::`vector deleting destructor'
PUBLIC	??4ChunkLoadClass@@QAEAAV0@ABV0@@Z		; ChunkLoadClass::operator=
PUBLIC	?Set_Contains_Chunks@ChunkSaveClass@@QAEXXZ	; ChunkSaveClass::Set_Contains_Chunks
PUBLIC	??4ChunkSaveClass@@QAEAAV0@ABV0@@Z		; ChunkSaveClass::operator=
PUBLIC	?Is_Present@INIClass@@QBE_NPBD0@Z		; INIClass::Is_Present
PUBLIC	?Section_Present@INIClass@@QBE_NPBD@Z		; INIClass::Section_Present
PUBLIC	?Get_Section_List@INIClass@@QAEAAV?$List@PAUINISection@@@@XZ ; INIClass::Get_Section_List
PUBLIC	?Get_Section_Index@INIClass@@QAEAAV?$IndexClass@HPAUINISection@@@@XZ ; INIClass::Get_Section_Index
PUBLIC	?Get_File_Name@INIClass@@QAEPBDXZ		; INIClass::Get_File_Name
PUBLIC	??0INIClass@@QAE@ABV0@@Z			; INIClass::INIClass
PUBLIC	??4INIClass@@QAEAAV0@ABV0@@Z			; INIClass::operator=
PUBLIC	??_GINIClass@@UAEPAXI@Z				; INIClass::`scalar deleting destructor'
PUBLIC	??_EINIClass@@UAEPAXI@Z				; INIClass::`vector deleting destructor'
PUBLIC	??Cfile_auto_ptr@@QAEPAVFileClass@@XZ		; file_auto_ptr::operator->
PUBLIC	??Bfile_auto_ptr@@QAEPAVFileClass@@XZ		; file_auto_ptr::operator FileClass *
PUBLIC	??Dfile_auto_ptr@@QAEAAVFileClass@@XZ		; file_auto_ptr::operator*
PUBLIC	?get@file_auto_ptr@@QAEPAVFileClass@@XZ		; file_auto_ptr::get
PUBLIC	??4file_auto_ptr@@QAEAAV0@ABV0@@Z		; file_auto_ptr::operator=
PUBLIC	??0Vector4@@QAE@XZ				; Vector4::Vector4
PUBLIC	??0Vector4@@QAE@MMMM@Z				; Vector4::Vector4
PUBLIC	??4Vector4@@QAEAAV0@ABV0@@Z			; Vector4::operator=
PUBLIC	?Set@Vector4@@QAEXMMMM@Z			; Vector4::Set
PUBLIC	??AVector4@@QAEAAMH@Z				; Vector4::operator[]
PUBLIC	??AVector4@@QBEABMH@Z				; Vector4::operator[]
PUBLIC	??YVector4@@QAEAAV0@ABV0@@Z			; Vector4::operator+=
PUBLIC	??ZVector4@@QAEAAV0@ABV0@@Z			; Vector4::operator-=
PUBLIC	??XVector4@@QAEAAV0@M@Z				; Vector4::operator*=
PUBLIC	??AMatrix3D@@QAEAAVVector4@@H@Z			; Matrix3D::operator[]
PUBLIC	??AMatrix3D@@QBEABVVector4@@H@Z			; Matrix3D::operator[]
PUBLIC	??0Matrix3D@@QAE@_N@Z				; Matrix3D::Matrix3D
PUBLIC	??0Matrix3D@@QAE@QAM@Z				; Matrix3D::Matrix3D
PUBLIC	??0Matrix3D@@QAE@ABVVector3@@000@Z		; Matrix3D::Matrix3D
PUBLIC	??0Matrix3D@@QAE@ABVVector3@@M@Z		; Matrix3D::Matrix3D
PUBLIC	??0Matrix3D@@QAE@ABVVector3@@MM@Z		; Matrix3D::Matrix3D
PUBLIC	??0Matrix3D@@QAE@ABVMatrix3@@ABVVector3@@@Z	; Matrix3D::Matrix3D
PUBLIC	??0Matrix3D@@QAE@ABVQuaternion@@ABVVector3@@@Z	; Matrix3D::Matrix3D
PUBLIC	??0Matrix3D@@QAE@ABVVector3@@@Z			; Matrix3D::Matrix3D
PUBLIC	??0Matrix3D@@QAE@ABV0@@Z			; Matrix3D::Matrix3D
PUBLIC	??4Matrix3D@@QAEAAV0@ABV0@@Z			; Matrix3D::operator=
PUBLIC	?Set@Matrix3D@@QAEXQAM@Z			; Matrix3D::Set
PUBLIC	?Set@Matrix3D@@QAEXMMMMMMMMMMMM@Z		; Matrix3D::Set
PUBLIC	?Set@Matrix3D@@QAEXABVVector3@@000@Z		; Matrix3D::Set
PUBLIC	?Set@Matrix3D@@QAEXABVVector3@@M@Z		; Matrix3D::Set
PUBLIC	?Set@Matrix3D@@QAEXABVVector3@@MM@Z		; Matrix3D::Set
PUBLIC	?Set@Matrix3D@@QAEXABVVector3@@@Z		; Matrix3D::Set
PUBLIC	?Get_Translation@Matrix3D@@QBE?AVVector3@@XZ	; Matrix3D::Get_Translation
PUBLIC	?Get_Translation@Matrix3D@@QBEXPAVVector3@@@Z	; Matrix3D::Get_Translation
PUBLIC	?Set_Translation@Matrix3D@@QAEXABVVector3@@@Z	; Matrix3D::Set_Translation
PUBLIC	?Get_X_Translation@Matrix3D@@QBEMXZ		; Matrix3D::Get_X_Translation
PUBLIC	?Get_Y_Translation@Matrix3D@@QBEMXZ		; Matrix3D::Get_Y_Translation
PUBLIC	?Get_Z_Translation@Matrix3D@@QBEMXZ		; Matrix3D::Get_Z_Translation
PUBLIC	?Set_X_Translation@Matrix3D@@QAEXM@Z		; Matrix3D::Set_X_Translation
PUBLIC	?Set_Y_Translation@Matrix3D@@QAEXM@Z		; Matrix3D::Set_Y_Translation
PUBLIC	?Set_Z_Translation@Matrix3D@@QAEXM@Z		; Matrix3D::Set_Z_Translation
PUBLIC	?Adjust_Translation@Matrix3D@@QAEXABVVector3@@@Z ; Matrix3D::Adjust_Translation
PUBLIC	?Adjust_X_Translation@Matrix3D@@QAEXM@Z		; Matrix3D::Adjust_X_Translation
PUBLIC	?Adjust_Y_Translation@Matrix3D@@QAEXM@Z		; Matrix3D::Adjust_Y_Translation
PUBLIC	?Adjust_Z_Translation@Matrix3D@@QAEXM@Z		; Matrix3D::Adjust_Z_Translation
PUBLIC	?Make_Identity@Matrix3D@@QAEXXZ			; Matrix3D::Make_Identity
PUBLIC	?Translate@Matrix3D@@QAEXMMM@Z			; Matrix3D::Translate
PUBLIC	?Translate@Matrix3D@@QAEXABVVector3@@@Z		; Matrix3D::Translate
PUBLIC	?Translate_X@Matrix3D@@QAEXM@Z			; Matrix3D::Translate_X
PUBLIC	?Translate_Y@Matrix3D@@QAEXM@Z			; Matrix3D::Translate_Y
PUBLIC	?Translate_Z@Matrix3D@@QAEXM@Z			; Matrix3D::Translate_Z
PUBLIC	?Rotate_X@Matrix3D@@QAEXM@Z			; Matrix3D::Rotate_X
PUBLIC	?Rotate_Y@Matrix3D@@QAEXM@Z			; Matrix3D::Rotate_Y
PUBLIC	?Rotate_Z@Matrix3D@@QAEXM@Z			; Matrix3D::Rotate_Z
PUBLIC	?Rotate_X@Matrix3D@@QAEXMM@Z			; Matrix3D::Rotate_X
PUBLIC	?Rotate_Y@Matrix3D@@QAEXMM@Z			; Matrix3D::Rotate_Y
PUBLIC	?Rotate_Z@Matrix3D@@QAEXMM@Z			; Matrix3D::Rotate_Z
PUBLIC	?Scale@Matrix3D@@QAEXM@Z			; Matrix3D::Scale
PUBLIC	?Scale@Matrix3D@@QAEXMMM@Z			; Matrix3D::Scale
PUBLIC	?Scale@Matrix3D@@QAEXAAVVector3@@@Z		; Matrix3D::Scale
PUBLIC	?Pre_Rotate_X@Matrix3D@@QAEXM@Z			; Matrix3D::Pre_Rotate_X
PUBLIC	?Pre_Rotate_Y@Matrix3D@@QAEXM@Z			; Matrix3D::Pre_Rotate_Y
PUBLIC	?Pre_Rotate_Z@Matrix3D@@QAEXM@Z			; Matrix3D::Pre_Rotate_Z
PUBLIC	?Pre_Rotate_X@Matrix3D@@QAEXMM@Z		; Matrix3D::Pre_Rotate_X
PUBLIC	?Pre_Rotate_Y@Matrix3D@@QAEXMM@Z		; Matrix3D::Pre_Rotate_Y
PUBLIC	?Pre_Rotate_Z@Matrix3D@@QAEXMM@Z		; Matrix3D::Pre_Rotate_Z
PUBLIC	?In_Place_Pre_Rotate_X@Matrix3D@@QAEXM@Z	; Matrix3D::In_Place_Pre_Rotate_X
PUBLIC	?In_Place_Pre_Rotate_Y@Matrix3D@@QAEXM@Z	; Matrix3D::In_Place_Pre_Rotate_Y
PUBLIC	?In_Place_Pre_Rotate_Z@Matrix3D@@QAEXM@Z	; Matrix3D::In_Place_Pre_Rotate_Z
PUBLIC	?In_Place_Pre_Rotate_X@Matrix3D@@QAEXMM@Z	; Matrix3D::In_Place_Pre_Rotate_X
PUBLIC	?In_Place_Pre_Rotate_Y@Matrix3D@@QAEXMM@Z	; Matrix3D::In_Place_Pre_Rotate_Y
PUBLIC	?In_Place_Pre_Rotate_Z@Matrix3D@@QAEXMM@Z	; Matrix3D::In_Place_Pre_Rotate_Z
PUBLIC	?Transform_Vector@Matrix3D@@SAXABV1@ABVVector3@@PAV2@@Z ; Matrix3D::Transform_Vector
PUBLIC	?Get_X_Vector@Matrix3D@@QBE?AVVector3@@XZ	; Matrix3D::Get_X_Vector
PUBLIC	?Get_Y_Vector@Matrix3D@@QBE?AVVector3@@XZ	; Matrix3D::Get_Y_Vector
PUBLIC	?Get_Z_Vector@Matrix3D@@QBE?AVVector3@@XZ	; Matrix3D::Get_Z_Vector
PUBLIC	?Get_X_Vector@Matrix3D@@QBEXPAVVector3@@@Z	; Matrix3D::Get_X_Vector
PUBLIC	?Get_Y_Vector@Matrix3D@@QBEXPAVVector3@@@Z	; Matrix3D::Get_Y_Vector
PUBLIC	?Get_Z_Vector@Matrix3D@@QBEXPAVVector3@@@Z	; Matrix3D::Get_Z_Vector
PUBLIC	?Rotate_Vector@Matrix3D@@SAXABV1@ABVVector3@@PAV2@@Z ; Matrix3D::Rotate_Vector
PUBLIC	?Inverse_Transform_Vector@Matrix3D@@SAXABV1@ABVVector3@@PAV2@@Z ; Matrix3D::Inverse_Transform_Vector
PUBLIC	?Inverse_Rotate_Vector@Matrix3D@@SAXABV1@ABVVector3@@PAV2@@Z ; Matrix3D::Inverse_Rotate_Vector
PUBLIC	??0Matrix4@@QAE@XZ				; Matrix4::Matrix4
PUBLIC	??0Matrix4@@QAE@ABV0@@Z				; Matrix4::Matrix4
PUBLIC	??0Matrix4@@QAE@_N@Z				; Matrix4::Matrix4
PUBLIC	??0Matrix4@@QAE@ABVMatrix3D@@@Z			; Matrix4::Matrix4
PUBLIC	??0Matrix4@@QAE@ABVVector4@@000@Z		; Matrix4::Matrix4
PUBLIC	?Make_Identity@Matrix4@@QAEXXZ			; Matrix4::Make_Identity
PUBLIC	?Init@Matrix4@@QAEXABVMatrix3D@@@Z		; Matrix4::Init
PUBLIC	?Init@Matrix4@@QAEXABVVector4@@000@Z		; Matrix4::Init
PUBLIC	?Init_Ortho_OGL@Matrix4@@QAEXMMMMMM@Z		; Matrix4::Init_Ortho_OGL
PUBLIC	?Init_Perspective_OGL@Matrix4@@QAEXMMMM@Z	; Matrix4::Init_Perspective_OGL
PUBLIC	?Init_Perspective_OGL@Matrix4@@QAEXMMMMMM@Z	; Matrix4::Init_Perspective_OGL
PUBLIC	?Init_Ortho@Matrix4@@QAEXMMMMMM@Z		; Matrix4::Init_Ortho
PUBLIC	?Init_Perspective@Matrix4@@QAEXMMMMMM@Z		; Matrix4::Init_Perspective
PUBLIC	??AMatrix4@@QAEAAVVector4@@H@Z			; Matrix4::operator[]
PUBLIC	??AMatrix4@@QBEABVVector4@@H@Z			; Matrix4::operator[]
PUBLIC	?Transpose@Matrix4@@QBE?AV1@XZ			; Matrix4::Transpose
PUBLIC	?Determinant@Matrix4@@QBEMXZ			; Matrix4::Determinant
PUBLIC	?Inverse@Matrix4@@QBE?AV1@XZ			; Matrix4::Inverse
PUBLIC	??4Matrix4@@QAEAAV0@ABV0@@Z			; Matrix4::operator=
PUBLIC	??YMatrix4@@QAEAAV0@ABV0@@Z			; Matrix4::operator+=
PUBLIC	??ZMatrix4@@QAEAAV0@ABV0@@Z			; Matrix4::operator-=
PUBLIC	??XMatrix4@@QAEAAV0@M@Z				; Matrix4::operator*=
PUBLIC	??_0Matrix4@@QAEAAV0@M@Z			; Matrix4::operator/=
PUBLIC	?Transform_Vector@Matrix4@@SAXABV1@ABVVector3@@PAV2@@Z ; Matrix4::Transform_Vector
PUBLIC	?Transform_Vector@Matrix4@@SAXABV1@ABVVector3@@PAVVector4@@@Z ; Matrix4::Transform_Vector
PUBLIC	?Transform_Vector@Matrix4@@SAXABV1@ABVVector4@@PAV2@@Z ; Matrix4::Transform_Vector
PUBLIC	??0Matrix3@@QAE@XZ				; Matrix3::Matrix3
PUBLIC	??0Matrix3@@QAE@ABV0@@Z				; Matrix3::Matrix3
PUBLIC	??0Matrix3@@QAE@_N@Z				; Matrix3::Matrix3
PUBLIC	??0Matrix3@@QAE@ABVVector3@@00@Z		; Matrix3::Matrix3
PUBLIC	??0Matrix3@@QAE@MMMMMMMMM@Z			; Matrix3::Matrix3
PUBLIC	??0Matrix3@@QAE@ABVVector3@@M@Z			; Matrix3::Matrix3
PUBLIC	??0Matrix3@@QAE@ABVVector3@@MM@Z		; Matrix3::Matrix3
PUBLIC	??0Matrix3@@QAE@ABVQuaternion@@@Z		; Matrix3::Matrix3
PUBLIC	?Set@Matrix3@@QAEXABVVector3@@00@Z		; Matrix3::Set
PUBLIC	?Set@Matrix3@@QAEXMMMMMMMMM@Z			; Matrix3::Set
PUBLIC	?Set@Matrix3@@QAEXABVVector3@@M@Z		; Matrix3::Set
PUBLIC	?Set@Matrix3@@QAEXABVVector3@@MM@Z		; Matrix3::Set
PUBLIC	??AMatrix3@@QAEAAVVector3@@H@Z			; Matrix3::operator[]
PUBLIC	??AMatrix3@@QBEABVVector3@@H@Z			; Matrix3::operator[]
PUBLIC	?Transpose@Matrix3@@QBE?AV1@XZ			; Matrix3::Transpose
PUBLIC	?Determinant@Matrix3@@QBEMXZ			; Matrix3::Determinant
PUBLIC	??4Matrix3@@QAEAAV0@ABV0@@Z			; Matrix3::operator=
PUBLIC	??YMatrix3@@QAEAAV0@ABV0@@Z			; Matrix3::operator+=
PUBLIC	??ZMatrix3@@QAEAAV0@ABV0@@Z			; Matrix3::operator-=
PUBLIC	??XMatrix3@@QAEAAV0@M@Z				; Matrix3::operator*=
PUBLIC	??_0Matrix3@@QAEAAV0@M@Z			; Matrix3::operator/=
PUBLIC	?Make_Identity@Matrix3@@QAEXXZ			; Matrix3::Make_Identity
PUBLIC	?Rotate_X@Matrix3@@QAEXM@Z			; Matrix3::Rotate_X
PUBLIC	?Rotate_X@Matrix3@@QAEXMM@Z			; Matrix3::Rotate_X
PUBLIC	?Rotate_Y@Matrix3@@QAEXM@Z			; Matrix3::Rotate_Y
PUBLIC	?Rotate_Y@Matrix3@@QAEXMM@Z			; Matrix3::Rotate_Y
PUBLIC	?Rotate_Z@Matrix3@@QAEXM@Z			; Matrix3::Rotate_Z
PUBLIC	?Rotate_Z@Matrix3@@QAEXMM@Z			; Matrix3::Rotate_Z
PUBLIC	?Get_X_Rotation@Matrix3@@QBEMXZ			; Matrix3::Get_X_Rotation
PUBLIC	?Get_Y_Rotation@Matrix3@@QBEMXZ			; Matrix3::Get_Y_Rotation
PUBLIC	?Get_Z_Rotation@Matrix3@@QBEMXZ			; Matrix3::Get_Z_Rotation
PUBLIC	?Get_X_Vector@Matrix3@@QBE?AVVector3@@XZ	; Matrix3::Get_X_Vector
PUBLIC	?Get_Y_Vector@Matrix3@@QBE?AVVector3@@XZ	; Matrix3::Get_Y_Vector
PUBLIC	?Get_Z_Vector@Matrix3@@QBE?AVVector3@@XZ	; Matrix3::Get_Z_Vector
PUBLIC	?Get_X_Vector@Matrix3@@QBEXPAVVector3@@@Z	; Matrix3::Get_X_Vector
PUBLIC	?Get_Y_Vector@Matrix3@@QBEXPAVVector3@@@Z	; Matrix3::Get_Y_Vector
PUBLIC	?Get_Z_Vector@Matrix3@@QBEXPAVVector3@@@Z	; Matrix3::Get_Z_Vector
PUBLIC	??D@YA?AVVector3@@ABVMatrix3@@ABV0@@Z		; operator*
PUBLIC	?Add@Matrix3@@SAXABV1@0PAV1@@Z			; Matrix3::Add
PUBLIC	?Subtract@Matrix3@@SAXABV1@0PAV1@@Z		; Matrix3::Subtract
PUBLIC	?Rotate_Vector@Matrix3@@SAXABV1@ABVVector3@@PAV2@@Z ; Matrix3::Rotate_Vector
PUBLIC	?Transpose_Rotate_Vector@Matrix3@@SAXABV1@ABVVector3@@PAV2@@Z ; Matrix3::Transpose_Rotate_Vector
PUBLIC	?Rotate_AABox_Extent@Matrix3@@QAEXABVVector3@@PAV2@@Z ; Matrix3::Rotate_AABox_Extent
PUBLIC	?Inverse@Matrix3@@QBE?AV1@XZ			; Matrix3::Inverse
PUBLIC	?Get_Player_Type@BaseControllerClass@@QBEHXZ	; BaseControllerClass::Get_Player_Type
PUBLIC	??4SysTimeClass@@QAEAAV0@ABV0@@Z		; SysTimeClass::operator=
PUBLIC	??0PostLoadableClass@@QAE@XZ			; PostLoadableClass::PostLoadableClass
PUBLIC	??1PostLoadableClass@@UAE@XZ			; PostLoadableClass::~PostLoadableClass
PUBLIC	?On_Post_Load@PostLoadableClass@@UAEXXZ		; PostLoadableClass::On_Post_Load
PUBLIC	?Is_Post_Load_Registered@PostLoadableClass@@QBE_NXZ ; PostLoadableClass::Is_Post_Load_Registered
PUBLIC	?Set_Post_Load_Registered@PostLoadableClass@@QAEX_N@Z ; PostLoadableClass::Set_Post_Load_Registered
PUBLIC	??0PostLoadableClass@@QAE@ABV0@@Z		; PostLoadableClass::PostLoadableClass
PUBLIC	??4PostLoadableClass@@QAEAAV0@ABV0@@Z		; PostLoadableClass::operator=
PUBLIC	??_GPostLoadableClass@@UAEPAXI@Z		; PostLoadableClass::`scalar deleting destructor'
PUBLIC	??_EPostLoadableClass@@UAEPAXI@Z		; PostLoadableClass::`vector deleting destructor'
PUBLIC	??CReferencerClass@@QAEPAVScriptableGameObj@@XZ	; ReferencerClass::operator->
PUBLIC	??0ReferencerClass@@QAE@XZ			; ReferencerClass::ReferencerClass
PUBLIC	??0ReferencerClass@@QAE@PAVScriptableGameObj@@@Z ; ReferencerClass::ReferencerClass
PUBLIC	?Get_Ptr@ReferencerClass@@QBEPAVScriptableGameObj@@XZ ; ReferencerClass::Get_Ptr
PUBLIC	?Set_Ptr@ReferencerClass@@QAEXPAVScriptableGameObj@@@Z ; ReferencerClass::Set_Ptr
PUBLIC	??0ReferencerClass@@QAE@ABV0@@Z			; ReferencerClass::ReferencerClass
PUBLIC	??_GReferencerClass@@UAEPAXI@Z			; ReferencerClass::`scalar deleting destructor'
PUBLIC	??_EReferencerClass@@UAEPAXI@Z			; ReferencerClass::`vector deleting destructor'
PUBLIC	?Get_Data@?$ReferenceableClass@VScriptableGameObj@@@@IBEPAVScriptableGameObj@@XZ ; ReferenceableClass<ScriptableGameObj>::Get_Data
PUBLIC	??0LineSegClass@@QAE@XZ				; LineSegClass::LineSegClass
PUBLIC	??0LineSegClass@@QAE@ABVVector3@@0@Z		; LineSegClass::LineSegClass
PUBLIC	??0LineSegClass@@QAE@ABVVector3@@0M@Z		; LineSegClass::LineSegClass
PUBLIC	??0LineSegClass@@QAE@ABV0@ABVMatrix3D@@@Z	; LineSegClass::LineSegClass
PUBLIC	?Set@LineSegClass@@QAEXABVVector3@@0@Z		; LineSegClass::Set
PUBLIC	?Set@LineSegClass@@QAEXABVVector3@@0M@Z		; LineSegClass::Set
PUBLIC	?Get_P0@LineSegClass@@QBEABVVector3@@XZ		; LineSegClass::Get_P0
PUBLIC	?Get_P1@LineSegClass@@QBEABVVector3@@XZ		; LineSegClass::Get_P1
PUBLIC	?Get_DP@LineSegClass@@QBEABVVector3@@XZ		; LineSegClass::Get_DP
PUBLIC	?Get_Dir@LineSegClass@@QBEABVVector3@@XZ	; LineSegClass::Get_Dir
PUBLIC	?Get_Length@LineSegClass@@QBEMXZ		; LineSegClass::Get_Length
PUBLIC	?Compute_Point@LineSegClass@@QBEXMPAVVector3@@@Z ; LineSegClass::Compute_Point
PUBLIC	?recalculate@LineSegClass@@IAEXXZ		; LineSegClass::recalculate
PUBLIC	??0LineSegClass@@QAE@ABV0@@Z			; LineSegClass::LineSegClass
PUBLIC	??4LineSegClass@@QAEAAV0@ABV0@@Z		; LineSegClass::operator=
PUBLIC	?Get_Position@PhysClass@@QBEXPAVVector3@@@Z	; PhysClass::Get_Position
PUBLIC	?Peek_Physical_Object@PhysicalGameObj@@QBEPAVPhysClass@@XZ ; PhysicalGameObj::Peek_Physical_Object
PUBLIC	?Get_Position@PhysicalGameObj@@QAE?AVVector3@@XZ ; PhysicalGameObj::Get_Position
PUBLIC	??2?$AutoPoolClass@VGenericSLNode@@$0BAA@@@SAPAXIPBDI0@Z ; AutoPoolClass<GenericSLNode,256>::operator new
PUBLIC	??3?$AutoPoolClass@VGenericSLNode@@$0BAA@@@SAXPAX@Z ; AutoPoolClass<GenericSLNode,256>::operator delete
PUBLIC	??0GenericSLNode@@IAE@PAX@Z			; GenericSLNode::GenericSLNode
PUBLIC	??0?$SimpleVecClass@I@@QAE@H@Z			; SimpleVecClass<unsigned int>::SimpleVecClass<unsigned int>
PUBLIC	??1?$SimpleVecClass@I@@UAE@XZ			; SimpleVecClass<unsigned int>::~SimpleVecClass<unsigned int>
PUBLIC	?Resize@?$SimpleVecClass@I@@UAE_NH@Z		; SimpleVecClass<unsigned int>::Resize
PUBLIC	?Uninitialised_Grow@?$SimpleVecClass@I@@UAE_NH@Z ; SimpleVecClass<unsigned int>::Uninitialised_Grow
PUBLIC	??_G?$SimpleVecClass@I@@UAEPAXI@Z		; SimpleVecClass<unsigned int>::`scalar deleting destructor'
PUBLIC	?Get_Definition@PurchaseSettingsDefClass@@QAEHH@Z ; PurchaseSettingsDefClass::Get_Definition
PUBLIC	?Get_Alt_Definition@PurchaseSettingsDefClass@@QAEHHH@Z ; PurchaseSettingsDefClass::Get_Alt_Definition
PUBLIC	?Get_Disabled@PurchaseSettingsDefClass@@QAE_NH@Z ; PurchaseSettingsDefClass::Get_Disabled
PUBLIC	?Set_Disabled@PurchaseSettingsDefClass@@QAEXH_N@Z ; PurchaseSettingsDefClass::Set_Disabled
PUBLIC	?Set_Busy@PurchaseSettingsDefClass@@QAEXH_N@Z	; PurchaseSettingsDefClass::Set_Busy
PUBLIC	??0JFW_Key_Hook_Base@@QAE@XZ			; JFW_Key_Hook_Base::JFW_Key_Hook_Base
PUBLIC	??0JFW_Key_Hook_Base@@QAE@ABV0@@Z		; JFW_Key_Hook_Base::JFW_Key_Hook_Base
PUBLIC	??4JFW_Key_Hook_Base@@QAEAAV0@ABV0@@Z		; JFW_Key_Hook_Base::operator=
PUBLIC	??_GJFW_Key_Hook_Base@@UAEPAXI@Z		; JFW_Key_Hook_Base::`scalar deleting destructor'
PUBLIC	??_EJFW_Key_Hook_Base@@UAEPAXI@Z		; JFW_Key_Hook_Base::`vector deleting destructor'
PUBLIC	??0?$SList@UKeyHookWrapperStruct@MultiKeyHookScriptImpClass@@@@QAE@XZ ; SList<MultiKeyHookScriptImpClass::KeyHookWrapperStruct>::SList<MultiKeyHookScriptImpClass::KeyHookWrapperStruct>
PUBLIC	??1?$SList@UKeyHookWrapperStruct@MultiKeyHookScriptImpClass@@@@UAE@XZ ; SList<MultiKeyHookScriptImpClass::KeyHookWrapperStruct>::~SList<MultiKeyHookScriptImpClass::KeyHookWrapperStruct>
PUBLIC	?Add_Head@?$SList@UKeyHookWrapperStruct@MultiKeyHookScriptImpClass@@@@UAE_NPAUKeyHookWrapperStruct@MultiKeyHookScriptImpClass@@@Z ; SList<MultiKeyHookScriptImpClass::KeyHookWrapperStruct>::Add_Head
PUBLIC	?Add_Head@?$SList@UKeyHookWrapperStruct@MultiKeyHookScriptImpClass@@@@UAE_NAAV1@@Z ; SList<MultiKeyHookScriptImpClass::KeyHookWrapperStruct>::Add_Head
PUBLIC	?Add_Tail@?$SList@UKeyHookWrapperStruct@MultiKeyHookScriptImpClass@@@@UAE_NPAUKeyHookWrapperStruct@MultiKeyHookScriptImpClass@@@Z ; SList<MultiKeyHookScriptImpClass::KeyHookWrapperStruct>::Add_Tail
PUBLIC	?Add_Tail@?$SList@UKeyHookWrapperStruct@MultiKeyHookScriptImpClass@@@@UAE_NAAV1@@Z ; SList<MultiKeyHookScriptImpClass::KeyHookWrapperStruct>::Add_Tail
PUBLIC	?Remove_Head@?$SList@UKeyHookWrapperStruct@MultiKeyHookScriptImpClass@@@@UAEPAUKeyHookWrapperStruct@MultiKeyHookScriptImpClass@@XZ ; SList<MultiKeyHookScriptImpClass::KeyHookWrapperStruct>::Remove_Head
PUBLIC	?Remove_Tail@?$SList@UKeyHookWrapperStruct@MultiKeyHookScriptImpClass@@@@UAEPAUKeyHookWrapperStruct@MultiKeyHookScriptImpClass@@XZ ; SList<MultiKeyHookScriptImpClass::KeyHookWrapperStruct>::Remove_Tail
PUBLIC	?Remove@?$SList@UKeyHookWrapperStruct@MultiKeyHookScriptImpClass@@@@UAE_NPBUKeyHookWrapperStruct@MultiKeyHookScriptImpClass@@@Z ; SList<MultiKeyHookScriptImpClass::KeyHookWrapperStruct>::Remove
PUBLIC	?Remove_All@?$SList@UKeyHookWrapperStruct@MultiKeyHookScriptImpClass@@@@UAEXXZ ; SList<MultiKeyHookScriptImpClass::KeyHookWrapperStruct>::Remove_All
PUBLIC	?Insert_Before@?$SList@UKeyHookWrapperStruct@MultiKeyHookScriptImpClass@@@@UAE_NPAUKeyHookWrapperStruct@MultiKeyHookScriptImpClass@@PBU23@@Z ; SList<MultiKeyHookScriptImpClass::KeyHookWrapperStruct>::Insert_Before
PUBLIC	?Insert_After@?$SList@UKeyHookWrapperStruct@MultiKeyHookScriptImpClass@@@@UAE_NPAUKeyHookWrapperStruct@MultiKeyHookScriptImpClass@@PBU23@@Z ; SList<MultiKeyHookScriptImpClass::KeyHookWrapperStruct>::Insert_After
PUBLIC	?Is_Empty@?$SList@UKeyHookWrapperStruct@MultiKeyHookScriptImpClass@@@@UBE_NXZ ; SList<MultiKeyHookScriptImpClass::KeyHookWrapperStruct>::Is_Empty
PUBLIC	?Get_Count@?$SList@UKeyHookWrapperStruct@MultiKeyHookScriptImpClass@@@@UBEIXZ ; SList<MultiKeyHookScriptImpClass::KeyHookWrapperStruct>::Get_Count
PUBLIC	??0?$SList@UKeyHookWrapperStruct@MultiKeyHookScriptImpClass@@@@QAE@ABV0@@Z ; SList<MultiKeyHookScriptImpClass::KeyHookWrapperStruct>::SList<MultiKeyHookScriptImpClass::KeyHookWrapperStruct>
PUBLIC	??4?$SList@UKeyHookWrapperStruct@MultiKeyHookScriptImpClass@@@@QAEAAV0@ABV0@@Z ; SList<MultiKeyHookScriptImpClass::KeyHookWrapperStruct>::operator=
PUBLIC	??_G?$SList@UKeyHookWrapperStruct@MultiKeyHookScriptImpClass@@@@UAEPAXI@Z ; SList<MultiKeyHookScriptImpClass::KeyHookWrapperStruct>::`scalar deleting destructor'
PUBLIC	??0MultiKeyHookScriptImpClass@@QAE@XZ		; MultiKeyHookScriptImpClass::MultiKeyHookScriptImpClass
PUBLIC	??1MultiKeyHookScriptImpClass@@UAE@XZ		; MultiKeyHookScriptImpClass::~MultiKeyHookScriptImpClass
PUBLIC	??0MultiKeyHookScriptImpClass@@QAE@ABV0@@Z	; MultiKeyHookScriptImpClass::MultiKeyHookScriptImpClass
PUBLIC	??4MultiKeyHookScriptImpClass@@QAEAAV0@ABV0@@Z	; MultiKeyHookScriptImpClass::operator=
PUBLIC	??_GMultiKeyHookScriptImpClass@@UAEPAXI@Z	; MultiKeyHookScriptImpClass::`scalar deleting destructor'
PUBLIC	??_EMultiKeyHookScriptImpClass@@UAEPAXI@Z	; MultiKeyHookScriptImpClass::`vector deleting destructor'
PUBLIC	??0JFW_Object_Created_Hook_Base@@QAE@XZ		; JFW_Object_Created_Hook_Base::JFW_Object_Created_Hook_Base
PUBLIC	??0JFW_Object_Created_Hook_Base@@QAE@ABV0@@Z	; JFW_Object_Created_Hook_Base::JFW_Object_Created_Hook_Base
PUBLIC	??4JFW_Object_Created_Hook_Base@@QAEAAV0@ABV0@@Z ; JFW_Object_Created_Hook_Base::operator=
PUBLIC	??_GJFW_Object_Created_Hook_Base@@UAEPAXI@Z	; JFW_Object_Created_Hook_Base::`scalar deleting destructor'
PUBLIC	??_EJFW_Object_Created_Hook_Base@@UAEPAXI@Z	; JFW_Object_Created_Hook_Base::`vector deleting destructor'
PUBLIC	??0UnitInfo@@QAE@W4TYPE@PurchaseSettingsDefClass@@II_N@Z ; UnitInfo::UnitInfo
PUBLIC	??0?$SimpleVecClass@PAUUnitInfo@@@@QAE@H@Z	; SimpleVecClass<UnitInfo *>::SimpleVecClass<UnitInfo *>
PUBLIC	??1?$SimpleVecClass@PAUUnitInfo@@@@UAE@XZ	; SimpleVecClass<UnitInfo *>::~SimpleVecClass<UnitInfo *>
PUBLIC	?Resize@?$SimpleVecClass@PAUUnitInfo@@@@UAE_NH@Z ; SimpleVecClass<UnitInfo *>::Resize
PUBLIC	?Uninitialised_Grow@?$SimpleVecClass@PAUUnitInfo@@@@UAE_NH@Z ; SimpleVecClass<UnitInfo *>::Uninitialised_Grow
PUBLIC	??_G?$SimpleVecClass@PAUUnitInfo@@@@UAEPAXI@Z	; SimpleVecClass<UnitInfo *>::`scalar deleting destructor'
PUBLIC	?Grow@?$SimpleDynVecClass@PAUUnitInfo@@@@IAE_NH@Z ; SimpleDynVecClass<UnitInfo *>::Grow
PUBLIC	?Shrink@?$SimpleDynVecClass@PAUUnitInfo@@@@IAE_NXZ ; SimpleDynVecClass<UnitInfo *>::Shrink
PUBLIC	??1?$SimpleDynVecClass@PAUUnitInfo@@@@UAE@XZ	; SimpleDynVecClass<UnitInfo *>::~SimpleDynVecClass<UnitInfo *>
PUBLIC	??0?$SimpleDynVecClass@PAUUnitInfo@@@@QAE@H@Z	; SimpleDynVecClass<UnitInfo *>::SimpleDynVecClass<UnitInfo *>
PUBLIC	?Count@?$SimpleDynVecClass@PAUUnitInfo@@@@QBEHXZ ; SimpleDynVecClass<UnitInfo *>::Count
PUBLIC	??A?$SimpleDynVecClass@PAUUnitInfo@@@@QAEAAPAUUnitInfo@@H@Z ; SimpleDynVecClass<UnitInfo *>::operator[]
PUBLIC	?Resize@?$SimpleDynVecClass@PAUUnitInfo@@@@UAE_NH@Z ; SimpleDynVecClass<UnitInfo *>::Resize
PUBLIC	?Add@?$SimpleDynVecClass@PAUUnitInfo@@@@QAE_NABQAUUnitInfo@@H@Z ; SimpleDynVecClass<UnitInfo *>::Add
PUBLIC	?Delete_All@?$SimpleDynVecClass@PAUUnitInfo@@@@QAEX_N@Z ; SimpleDynVecClass<UnitInfo *>::Delete_All
PUBLIC	??_G?$SimpleDynVecClass@PAUUnitInfo@@@@UAEPAXI@Z ; SimpleDynVecClass<UnitInfo *>::`scalar deleting destructor'
PUBLIC	??0?$SimpleVecClass@PAUCreationPos@@@@QAE@H@Z	; SimpleVecClass<CreationPos *>::SimpleVecClass<CreationPos *>
PUBLIC	??1?$SimpleVecClass@PAUCreationPos@@@@UAE@XZ	; SimpleVecClass<CreationPos *>::~SimpleVecClass<CreationPos *>
PUBLIC	?Resize@?$SimpleVecClass@PAUCreationPos@@@@UAE_NH@Z ; SimpleVecClass<CreationPos *>::Resize
PUBLIC	?Uninitialised_Grow@?$SimpleVecClass@PAUCreationPos@@@@UAE_NH@Z ; SimpleVecClass<CreationPos *>::Uninitialised_Grow
PUBLIC	??_G?$SimpleVecClass@PAUCreationPos@@@@UAEPAXI@Z ; SimpleVecClass<CreationPos *>::`scalar deleting destructor'
PUBLIC	?Grow@?$SimpleDynVecClass@PAUCreationPos@@@@IAE_NH@Z ; SimpleDynVecClass<CreationPos *>::Grow
PUBLIC	?Shrink@?$SimpleDynVecClass@PAUCreationPos@@@@IAE_NXZ ; SimpleDynVecClass<CreationPos *>::Shrink
PUBLIC	??1?$SimpleDynVecClass@PAUCreationPos@@@@UAE@XZ	; SimpleDynVecClass<CreationPos *>::~SimpleDynVecClass<CreationPos *>
PUBLIC	??0?$SimpleDynVecClass@PAUCreationPos@@@@QAE@H@Z ; SimpleDynVecClass<CreationPos *>::SimpleDynVecClass<CreationPos *>
PUBLIC	?Count@?$SimpleDynVecClass@PAUCreationPos@@@@QBEHXZ ; SimpleDynVecClass<CreationPos *>::Count
PUBLIC	??A?$SimpleDynVecClass@PAUCreationPos@@@@QAEAAPAUCreationPos@@H@Z ; SimpleDynVecClass<CreationPos *>::operator[]
PUBLIC	?Resize@?$SimpleDynVecClass@PAUCreationPos@@@@UAE_NH@Z ; SimpleDynVecClass<CreationPos *>::Resize
PUBLIC	?Add@?$SimpleDynVecClass@PAUCreationPos@@@@QAE_NABQAUCreationPos@@H@Z ; SimpleDynVecClass<CreationPos *>::Add
PUBLIC	?Delete_All@?$SimpleDynVecClass@PAUCreationPos@@@@QAEX_N@Z ; SimpleDynVecClass<CreationPos *>::Delete_All
PUBLIC	??_G?$SimpleDynVecClass@PAUCreationPos@@@@UAEPAXI@Z ; SimpleDynVecClass<CreationPos *>::`scalar deleting destructor'
PUBLIC	?Is_In_Vector@ExpVehFacClass@@AAE_NAAV?$SimpleDynVecClass@I@@I@Z ; ExpVehFacClass::Is_In_Vector
PUBLIC	?Get_Flying_Landing_Position@ExpVehFacClass@@AAE?AVVector3@@XZ ; ExpVehFacClass::Get_Flying_Landing_Position
PUBLIC	?Get_Naval_Creation_Position@ExpVehFacClass@@AAEPAVScriptableGameObj@@I@Z ; ExpVehFacClass::Get_Naval_Creation_Position
PUBLIC	??0ExpVehFacClass@@QAE@I@Z			; ExpVehFacClass::ExpVehFacClass
PUBLIC	??1ExpVehFacClass@@QAE@XZ			; ExpVehFacClass::~ExpVehFacClass
PUBLIC	?Set_Ground_Currently_Building@ExpVehFacClass@@QAEX_N@Z ; ExpVehFacClass::Set_Ground_Currently_Building
PUBLIC	?Set_Flying_Currently_Building@ExpVehFacClass@@QAEX_N@Z ; ExpVehFacClass::Set_Flying_Currently_Building
PUBLIC	?Set_Naval_Currently_Building@ExpVehFacClass@@QAEX_N@Z ; ExpVehFacClass::Set_Naval_Currently_Building
PUBLIC	?Set_Ground_Limit_Reached@ExpVehFacClass@@QAEX_N@Z ; ExpVehFacClass::Set_Ground_Limit_Reached
PUBLIC	?Set_Flying_Limit_Reached@ExpVehFacClass@@QAEX_N@Z ; ExpVehFacClass::Set_Flying_Limit_Reached
PUBLIC	?Set_Naval_Limit_Reached@ExpVehFacClass@@QAEX_N@Z ; ExpVehFacClass::Set_Naval_Limit_Reached
PUBLIC	?Set_Support_Limit_Reached@ExpVehFacClass@@QAEX_N@Z ; ExpVehFacClass::Set_Support_Limit_Reached
PUBLIC	?Get_Unit_Info@ExpVehFacClass@@QAEPAUUnitInfo@@I@Z ; ExpVehFacClass::Get_Unit_Info
PUBLIC	?Load@ExpVehFacClass@@QAEXPBD0PAVScriptableGameObj@@0@Z ; ExpVehFacClass::Load
PUBLIC	?Clear@ExpVehFacClass@@QAEXXZ			; ExpVehFacClass::Clear
PUBLIC	?Purchase_Hook@ExpVehFacClass@@SAHPAVBaseControllerClass@@PAVScriptableGameObj@@IIPBD@Z ; ExpVehFacClass::Purchase_Hook
PUBLIC	?Object_Hook@ExpVehFacClass@@SAXPAXPAVScriptableGameObj@@@Z ; ExpVehFacClass::Object_Hook
PUBLIC	??_GExpVehFacClass@@QAEPAXI@Z			; ExpVehFacClass::`scalar deleting destructor'
PUBLIC	?Created@MDB_ExpVehFac_Helipad@@EAEXPAVScriptableGameObj@@@Z ; MDB_ExpVehFac_Helipad::Created
PUBLIC	?Killed@MDB_ExpVehFac_Helipad@@EAEXPAVScriptableGameObj@@0@Z ; MDB_ExpVehFac_Helipad::Killed
PUBLIC	?Custom@MDB_ExpVehFac_Helipad@@EAEXPAVScriptableGameObj@@HH0@Z ; MDB_ExpVehFac_Helipad::Custom
PUBLIC	?Destroyed@MDB_ExpVehFac_Helipad@@EAEXPAVScriptableGameObj@@@Z ; MDB_ExpVehFac_Helipad::Destroyed
PUBLIC	??0MDB_ExpVehFac_Helipad@@QAE@XZ		; MDB_ExpVehFac_Helipad::MDB_ExpVehFac_Helipad
PUBLIC	??1MDB_ExpVehFac_Helipad@@UAE@XZ		; MDB_ExpVehFac_Helipad::~MDB_ExpVehFac_Helipad
PUBLIC	??_GMDB_ExpVehFac_Helipad@@UAEPAXI@Z		; MDB_ExpVehFac_Helipad::`scalar deleting destructor'
PUBLIC	?Created@MDB_ExpVehFac_Naval@@EAEXPAVScriptableGameObj@@@Z ; MDB_ExpVehFac_Naval::Created
PUBLIC	?Killed@MDB_ExpVehFac_Naval@@EAEXPAVScriptableGameObj@@0@Z ; MDB_ExpVehFac_Naval::Killed
PUBLIC	?Custom@MDB_ExpVehFac_Naval@@EAEXPAVScriptableGameObj@@HH0@Z ; MDB_ExpVehFac_Naval::Custom
PUBLIC	?Destroyed@MDB_ExpVehFac_Naval@@EAEXPAVScriptableGameObj@@@Z ; MDB_ExpVehFac_Naval::Destroyed
PUBLIC	??0MDB_ExpVehFac_Naval@@QAE@XZ			; MDB_ExpVehFac_Naval::MDB_ExpVehFac_Naval
PUBLIC	??1MDB_ExpVehFac_Naval@@UAE@XZ			; MDB_ExpVehFac_Naval::~MDB_ExpVehFac_Naval
PUBLIC	??_GMDB_ExpVehFac_Naval@@UAEPAXI@Z		; MDB_ExpVehFac_Naval::`scalar deleting destructor'
PUBLIC	?Created@MDB_ExpVehFac_Vehicle_Factory@@EAEXPAVScriptableGameObj@@@Z ; MDB_ExpVehFac_Vehicle_Factory::Created
PUBLIC	?Killed@MDB_ExpVehFac_Vehicle_Factory@@EAEXPAVScriptableGameObj@@0@Z ; MDB_ExpVehFac_Vehicle_Factory::Killed
PUBLIC	?Custom@MDB_ExpVehFac_Vehicle_Factory@@EAEXPAVScriptableGameObj@@HH0@Z ; MDB_ExpVehFac_Vehicle_Factory::Custom
PUBLIC	?Timer_Expired@MDB_ExpVehFac_Vehicle_Factory@@EAEXPAVScriptableGameObj@@H@Z ; MDB_ExpVehFac_Vehicle_Factory::Timer_Expired
PUBLIC	?Destroyed@MDB_ExpVehFac_Vehicle_Factory@@EAEXPAVScriptableGameObj@@@Z ; MDB_ExpVehFac_Vehicle_Factory::Destroyed
PUBLIC	??0MDB_ExpVehFac_Vehicle_Factory@@QAE@XZ	; MDB_ExpVehFac_Vehicle_Factory::MDB_ExpVehFac_Vehicle_Factory
PUBLIC	??1MDB_ExpVehFac_Vehicle_Factory@@UAE@XZ	; MDB_ExpVehFac_Vehicle_Factory::~MDB_ExpVehFac_Vehicle_Factory
PUBLIC	??_GMDB_ExpVehFac_Vehicle_Factory@@UAEPAXI@Z	; MDB_ExpVehFac_Vehicle_Factory::`scalar deleting destructor'
PUBLIC	?Created@MDB_ExpVehFac_Cinematic@@EAEXPAVScriptableGameObj@@@Z ; MDB_ExpVehFac_Cinematic::Created
PUBLIC	?Timer_Expired@MDB_ExpVehFac_Cinematic@@EAEXPAVScriptableGameObj@@H@Z ; MDB_ExpVehFac_Cinematic::Timer_Expired
PUBLIC	?Register_Auto_Save_Variables@MDB_ExpVehFac_Cinematic@@UAEXXZ ; MDB_ExpVehFac_Cinematic::Register_Auto_Save_Variables
PUBLIC	??0MDB_ExpVehFac_Cinematic@@QAE@XZ		; MDB_ExpVehFac_Cinematic::MDB_ExpVehFac_Cinematic
PUBLIC	??1MDB_ExpVehFac_Cinematic@@UAE@XZ		; MDB_ExpVehFac_Cinematic::~MDB_ExpVehFac_Cinematic
PUBLIC	??_GMDB_ExpVehFac_Cinematic@@UAEPAXI@Z		; MDB_ExpVehFac_Cinematic::`scalar deleting destructor'
PUBLIC	?Damaged@MDB_ExpVehFac_Cinematic_Vehicle@@EAEXPAVScriptableGameObj@@0M@Z ; MDB_ExpVehFac_Cinematic_Vehicle::Damaged
PUBLIC	??0MDB_ExpVehFac_Cinematic_Vehicle@@QAE@XZ	; MDB_ExpVehFac_Cinematic_Vehicle::MDB_ExpVehFac_Cinematic_Vehicle
PUBLIC	??1MDB_ExpVehFac_Cinematic_Vehicle@@UAE@XZ	; MDB_ExpVehFac_Cinematic_Vehicle::~MDB_ExpVehFac_Cinematic_Vehicle
PUBLIC	??_GMDB_ExpVehFac_Cinematic_Vehicle@@UAEPAXI@Z	; MDB_ExpVehFac_Cinematic_Vehicle::`scalar deleting destructor'
PUBLIC	?Created@MDB_ExpVehFac_Limit@@EAEXPAVScriptableGameObj@@@Z ; MDB_ExpVehFac_Limit::Created
PUBLIC	?Destroyed@MDB_ExpVehFac_Limit@@EAEXPAVScriptableGameObj@@@Z ; MDB_ExpVehFac_Limit::Destroyed
PUBLIC	?Register_Auto_Save_Variables@MDB_ExpVehFac_Limit@@UAEXXZ ; MDB_ExpVehFac_Limit::Register_Auto_Save_Variables
PUBLIC	??0MDB_ExpVehFac_Limit@@QAE@XZ			; MDB_ExpVehFac_Limit::MDB_ExpVehFac_Limit
PUBLIC	??1MDB_ExpVehFac_Limit@@UAE@XZ			; MDB_ExpVehFac_Limit::~MDB_ExpVehFac_Limit
PUBLIC	??_GMDB_ExpVehFac_Limit@@UAEPAXI@Z		; MDB_ExpVehFac_Limit::`scalar deleting destructor'
PUBLIC	?DestroyExpVehFacClass@@YAXXZ			; DestroyExpVehFacClass
PUBLIC	?Grow@?$SimpleDynVecClass@I@@IAE_NH@Z		; SimpleDynVecClass<unsigned int>::Grow
PUBLIC	??1?$SimpleDynVecClass@I@@UAE@XZ		; SimpleDynVecClass<unsigned int>::~SimpleDynVecClass<unsigned int>
PUBLIC	??0?$SimpleDynVecClass@I@@QAE@H@Z		; SimpleDynVecClass<unsigned int>::SimpleDynVecClass<unsigned int>
PUBLIC	?Count@?$SimpleDynVecClass@I@@QBEHXZ		; SimpleDynVecClass<unsigned int>::Count
PUBLIC	??A?$SimpleDynVecClass@I@@QAEAAIH@Z		; SimpleDynVecClass<unsigned int>::operator[]
PUBLIC	?Resize@?$SimpleDynVecClass@I@@UAE_NH@Z		; SimpleDynVecClass<unsigned int>::Resize
PUBLIC	?Add@?$SimpleDynVecClass@I@@QAE_NABIH@Z		; SimpleDynVecClass<unsigned int>::Add
PUBLIC	??_G?$SimpleDynVecClass@I@@UAEPAXI@Z		; SimpleDynVecClass<unsigned int>::`scalar deleting destructor'
PUBLIC	??0?$SimpleVecClass@PAVScriptableGameObj@@@@QAE@H@Z ; SimpleVecClass<ScriptableGameObj *>::SimpleVecClass<ScriptableGameObj *>
PUBLIC	??1?$SimpleVecClass@PAVScriptableGameObj@@@@UAE@XZ ; SimpleVecClass<ScriptableGameObj *>::~SimpleVecClass<ScriptableGameObj *>
PUBLIC	?Resize@?$SimpleVecClass@PAVScriptableGameObj@@@@UAE_NH@Z ; SimpleVecClass<ScriptableGameObj *>::Resize
PUBLIC	?Uninitialised_Grow@?$SimpleVecClass@PAVScriptableGameObj@@@@UAE_NH@Z ; SimpleVecClass<ScriptableGameObj *>::Uninitialised_Grow
PUBLIC	??_G?$SimpleVecClass@PAVScriptableGameObj@@@@UAEPAXI@Z ; SimpleVecClass<ScriptableGameObj *>::`scalar deleting destructor'
PUBLIC	?Shrink@?$SimpleDynVecClass@PAVScriptableGameObj@@@@IAE_NXZ ; SimpleDynVecClass<ScriptableGameObj *>::Shrink
PUBLIC	??1?$SimpleDynVecClass@PAVScriptableGameObj@@@@UAE@XZ ; SimpleDynVecClass<ScriptableGameObj *>::~SimpleDynVecClass<ScriptableGameObj *>
PUBLIC	??0?$SimpleDynVecClass@PAVScriptableGameObj@@@@QAE@H@Z ; SimpleDynVecClass<ScriptableGameObj *>::SimpleDynVecClass<ScriptableGameObj *>
PUBLIC	?Count@?$SimpleDynVecClass@PAVScriptableGameObj@@@@QBEHXZ ; SimpleDynVecClass<ScriptableGameObj *>::Count
PUBLIC	??A?$SimpleDynVecClass@PAVScriptableGameObj@@@@QAEAAPAVScriptableGameObj@@H@Z ; SimpleDynVecClass<ScriptableGameObj *>::operator[]
PUBLIC	?Resize@?$SimpleDynVecClass@PAVScriptableGameObj@@@@UAE_NH@Z ; SimpleDynVecClass<ScriptableGameObj *>::Resize
PUBLIC	?Delete_All@?$SimpleDynVecClass@PAVScriptableGameObj@@@@QAEX_N@Z ; SimpleDynVecClass<ScriptableGameObj *>::Delete_All
PUBLIC	??_G?$SimpleDynVecClass@PAVScriptableGameObj@@@@UAEPAXI@Z ; SimpleDynVecClass<ScriptableGameObj *>::`scalar deleting destructor'
PUBLIC	??0?$ScriptRegistrant@VMDB_ExpVehFac_Helipad@@@@QAE@PBD0@Z ; ScriptRegistrant<MDB_ExpVehFac_Helipad>::ScriptRegistrant<MDB_ExpVehFac_Helipad>
PUBLIC	?Create@?$ScriptRegistrant@VMDB_ExpVehFac_Helipad@@@@UAEPAVScriptImpClass@@XZ ; ScriptRegistrant<MDB_ExpVehFac_Helipad>::Create
PUBLIC	??1?$ScriptRegistrant@VMDB_ExpVehFac_Helipad@@@@UAE@XZ ; ScriptRegistrant<MDB_ExpVehFac_Helipad>::~ScriptRegistrant<MDB_ExpVehFac_Helipad>
PUBLIC	??_G?$ScriptRegistrant@VMDB_ExpVehFac_Helipad@@@@UAEPAXI@Z ; ScriptRegistrant<MDB_ExpVehFac_Helipad>::`scalar deleting destructor'
PUBLIC	??0?$ScriptRegistrant@VMDB_ExpVehFac_Naval@@@@QAE@PBD0@Z ; ScriptRegistrant<MDB_ExpVehFac_Naval>::ScriptRegistrant<MDB_ExpVehFac_Naval>
PUBLIC	?Create@?$ScriptRegistrant@VMDB_ExpVehFac_Naval@@@@UAEPAVScriptImpClass@@XZ ; ScriptRegistrant<MDB_ExpVehFac_Naval>::Create
PUBLIC	??1?$ScriptRegistrant@VMDB_ExpVehFac_Naval@@@@UAE@XZ ; ScriptRegistrant<MDB_ExpVehFac_Naval>::~ScriptRegistrant<MDB_ExpVehFac_Naval>
PUBLIC	??_G?$ScriptRegistrant@VMDB_ExpVehFac_Naval@@@@UAEPAXI@Z ; ScriptRegistrant<MDB_ExpVehFac_Naval>::`scalar deleting destructor'
PUBLIC	??0?$ScriptRegistrant@VMDB_ExpVehFac_Vehicle_Factory@@@@QAE@PBD0@Z ; ScriptRegistrant<MDB_ExpVehFac_Vehicle_Factory>::ScriptRegistrant<MDB_ExpVehFac_Vehicle_Factory>
PUBLIC	?Create@?$ScriptRegistrant@VMDB_ExpVehFac_Vehicle_Factory@@@@UAEPAVScriptImpClass@@XZ ; ScriptRegistrant<MDB_ExpVehFac_Vehicle_Factory>::Create
PUBLIC	??1?$ScriptRegistrant@VMDB_ExpVehFac_Vehicle_Factory@@@@UAE@XZ ; ScriptRegistrant<MDB_ExpVehFac_Vehicle_Factory>::~ScriptRegistrant<MDB_ExpVehFac_Vehicle_Factory>
PUBLIC	??_G?$ScriptRegistrant@VMDB_ExpVehFac_Vehicle_Factory@@@@UAEPAXI@Z ; ScriptRegistrant<MDB_ExpVehFac_Vehicle_Factory>::`scalar deleting destructor'
PUBLIC	??0?$ScriptRegistrant@VMDB_ExpVehFac_Cinematic@@@@QAE@PBD0@Z ; ScriptRegistrant<MDB_ExpVehFac_Cinematic>::ScriptRegistrant<MDB_ExpVehFac_Cinematic>
PUBLIC	?Create@?$ScriptRegistrant@VMDB_ExpVehFac_Cinematic@@@@UAEPAVScriptImpClass@@XZ ; ScriptRegistrant<MDB_ExpVehFac_Cinematic>::Create
PUBLIC	??1?$ScriptRegistrant@VMDB_ExpVehFac_Cinematic@@@@UAE@XZ ; ScriptRegistrant<MDB_ExpVehFac_Cinematic>::~ScriptRegistrant<MDB_ExpVehFac_Cinematic>
PUBLIC	??_G?$ScriptRegistrant@VMDB_ExpVehFac_Cinematic@@@@UAEPAXI@Z ; ScriptRegistrant<MDB_ExpVehFac_Cinematic>::`scalar deleting destructor'
PUBLIC	??0?$ScriptRegistrant@VMDB_ExpVehFac_Cinematic_Vehicle@@@@QAE@PBD0@Z ; ScriptRegistrant<MDB_ExpVehFac_Cinematic_Vehicle>::ScriptRegistrant<MDB_ExpVehFac_Cinematic_Vehicle>
PUBLIC	?Create@?$ScriptRegistrant@VMDB_ExpVehFac_Cinematic_Vehicle@@@@UAEPAVScriptImpClass@@XZ ; ScriptRegistrant<MDB_ExpVehFac_Cinematic_Vehicle>::Create
PUBLIC	??1?$ScriptRegistrant@VMDB_ExpVehFac_Cinematic_Vehicle@@@@UAE@XZ ; ScriptRegistrant<MDB_ExpVehFac_Cinematic_Vehicle>::~ScriptRegistrant<MDB_ExpVehFac_Cinematic_Vehicle>
PUBLIC	??_G?$ScriptRegistrant@VMDB_ExpVehFac_Cinematic_Vehicle@@@@UAEPAXI@Z ; ScriptRegistrant<MDB_ExpVehFac_Cinematic_Vehicle>::`scalar deleting destructor'
PUBLIC	??0?$ScriptRegistrant@VMDB_ExpVehFac_Limit@@@@QAE@PBD0@Z ; ScriptRegistrant<MDB_ExpVehFac_Limit>::ScriptRegistrant<MDB_ExpVehFac_Limit>
PUBLIC	?Create@?$ScriptRegistrant@VMDB_ExpVehFac_Limit@@@@UAEPAVScriptImpClass@@XZ ; ScriptRegistrant<MDB_ExpVehFac_Limit>::Create
PUBLIC	??1?$ScriptRegistrant@VMDB_ExpVehFac_Limit@@@@UAE@XZ ; ScriptRegistrant<MDB_ExpVehFac_Limit>::~ScriptRegistrant<MDB_ExpVehFac_Limit>
PUBLIC	??_G?$ScriptRegistrant@VMDB_ExpVehFac_Limit@@@@UAEPAXI@Z ; ScriptRegistrant<MDB_ExpVehFac_Limit>::`scalar deleting destructor'
PUBLIC	?Set_Next@?$SLNode@UKeyHookWrapperStruct@MultiKeyHookScriptImpClass@@@@QAEXPAV1@@Z ; SLNode<MultiKeyHookScriptImpClass::KeyHookWrapperStruct>::Set_Next
PUBLIC	?Next@?$SLNode@UKeyHookWrapperStruct@MultiKeyHookScriptImpClass@@@@QBEPAV1@XZ ; SLNode<MultiKeyHookScriptImpClass::KeyHookWrapperStruct>::Next
PUBLIC	?Data@?$SLNode@UKeyHookWrapperStruct@MultiKeyHookScriptImpClass@@@@QBEPAUKeyHookWrapperStruct@MultiKeyHookScriptImpClass@@XZ ; SLNode<MultiKeyHookScriptImpClass::KeyHookWrapperStruct>::Data
PUBLIC	??0?$SLNode@UKeyHookWrapperStruct@MultiKeyHookScriptImpClass@@@@IAE@PAUKeyHookWrapperStruct@MultiKeyHookScriptImpClass@@@Z ; SLNode<MultiKeyHookScriptImpClass::KeyHookWrapperStruct>::SLNode<MultiKeyHookScriptImpClass::KeyHookWrapperStruct>
PUBLIC	?getInstance@?$Singleton@V?$ObjectPoolClass@VGenericSLNode@@$0BAA@@@@@SAAAV?$ObjectPoolClass@VGenericSLNode@@$0BAA@@@XZ ; Singleton<ObjectPoolClass<GenericSLNode,256> >::getInstance
PUBLIC	??0?$ObjectPoolClass@VGenericSLNode@@$0BAA@@@QAE@XZ ; ObjectPoolClass<GenericSLNode,256>::ObjectPoolClass<GenericSLNode,256>
PUBLIC	??1?$ObjectPoolClass@VGenericSLNode@@$0BAA@@@QAE@XZ ; ObjectPoolClass<GenericSLNode,256>::~ObjectPoolClass<GenericSLNode,256>
PUBLIC	?Allocate_Object_Memory@?$ObjectPoolClass@VGenericSLNode@@$0BAA@@@QAEPAVGenericSLNode@@XZ ; ObjectPoolClass<GenericSLNode,256>::Allocate_Object_Memory
PUBLIC	?Free_Object_Memory@?$ObjectPoolClass@VGenericSLNode@@$0BAA@@@QAEXAAVGenericSLNode@@@Z ; ObjectPoolClass<GenericSLNode,256>::Free_Object_Memory
PUBLIC	?writeDummyPattern@?$ObjectPoolClass@VGenericSLNode@@$0BAA@@@QAEXAAVGenericSLNode@@K@Z ; ObjectPoolClass<GenericSLNode,256>::writeDummyPattern
PUBLIC	??__Finstancex@?1??getInstance@?$Singleton@V?$ObjectPoolClass@VGenericSLNode@@$0BAA@@@@@SAAAV?$ObjectPoolClass@VGenericSLNode@@$0BAA@@@XZ@YAXXZ ; `Singleton<ObjectPoolClass<GenericSLNode,256> >::getInstance'::`2'::`dynamic atexit destructor for 'instancex''
PUBLIC	??_7GameObjObserverClass@@6B@			; GameObjObserverClass::`vftable'
PUBLIC	??_7ScriptClass@@6B@				; ScriptClass::`vftable'
PUBLIC	??_7ScriptImpClass@@6B@				; ScriptImpClass::`vftable'
PUBLIC	??_7ScriptFactory@@6B@				; ScriptFactory::`vftable'
PUBLIC	??_7ThreadClass@@6B@				; ThreadClass::`vftable'
PUBLIC	??_C@_0DJ@NKJHEMPA@x?3?2github?2renegade?2dragonade_rxd@ ; `string'
PUBLIC	??_C@_1HC@JEIHKHFK@?$AAx?$AA?3?$AA?2?$AAg?$AAi?$AAt?$AAh?$AAu?$AAb?$AA?2?$AAr?$AAe?$AAn?$AAe?$AAg?$AAa?$AAd?$AAe?$AA?2?$AAd?$AAr?$AAa?$AAg?$AAo?$AAn?$AAa?$AAd?$AAe?$AA_?$AAr?$AAx?$AAd@ ; `string'
PUBLIC	??_C@_1M@HLGKFCJM@?$AAf?$AAa?$AAl?$AAs?$AAe?$AA?$AA@ ; `string'
PUBLIC	??_7INIClass@@6B@				; INIClass::`vftable'
PUBLIC	??_7PostLoadableClass@@6B@			; PostLoadableClass::`vftable'
PUBLIC	??_7ReferencerClass@@6B@			; ReferencerClass::`vftable'
PUBLIC	??_7?$SimpleVecClass@I@@6B@			; SimpleVecClass<unsigned int>::`vftable'
PUBLIC	??_7JFW_Key_Hook_Base@@6B@			; JFW_Key_Hook_Base::`vftable'
PUBLIC	??_7?$SList@UKeyHookWrapperStruct@MultiKeyHookScriptImpClass@@@@6B@ ; SList<MultiKeyHookScriptImpClass::KeyHookWrapperStruct>::`vftable'
PUBLIC	??_7MultiKeyHookScriptImpClass@@6B@		; MultiKeyHookScriptImpClass::`vftable'
PUBLIC	??_7JFW_Object_Created_Hook_Base@@6B@		; JFW_Object_Created_Hook_Base::`vftable'
PUBLIC	??_7?$SimpleVecClass@PAUUnitInfo@@@@6B@		; SimpleVecClass<UnitInfo *>::`vftable'
PUBLIC	??_7?$SimpleDynVecClass@PAUUnitInfo@@@@6B@	; SimpleDynVecClass<UnitInfo *>::`vftable'
PUBLIC	??_7?$SimpleVecClass@PAUCreationPos@@@@6B@	; SimpleVecClass<CreationPos *>::`vftable'
PUBLIC	??_7?$SimpleDynVecClass@PAUCreationPos@@@@6B@	; SimpleDynVecClass<CreationPos *>::`vftable'
PUBLIC	??_7MDB_ExpVehFac_Helipad@@6B@			; MDB_ExpVehFac_Helipad::`vftable'
PUBLIC	??_7MDB_ExpVehFac_Naval@@6B@			; MDB_ExpVehFac_Naval::`vftable'
PUBLIC	??_7MDB_ExpVehFac_Vehicle_Factory@@6B@		; MDB_ExpVehFac_Vehicle_Factory::`vftable'
PUBLIC	??_7MDB_ExpVehFac_Cinematic@@6B@		; MDB_ExpVehFac_Cinematic::`vftable'
PUBLIC	??_7MDB_ExpVehFac_Cinematic_Vehicle@@6B@	; MDB_ExpVehFac_Cinematic_Vehicle::`vftable'
PUBLIC	??_7MDB_ExpVehFac_Limit@@6B@			; MDB_ExpVehFac_Limit::`vftable'
PUBLIC	?__LINE__Var@?1??DestroyExpVehFacClass@@YAXXZ@4JA ; `DestroyExpVehFacClass'::`2'::__LINE__Var
PUBLIC	??_C@_0BG@NFBKDC@DestroyExpVehFacClass?$AA@	; `string'
PUBLIC	??_C@_0DE@IMMGICCG@x?3?2github?2renegade?2dragonade_rxd@ ; `string'
PUBLIC	??_C@_1GI@KGOMGLBO@?$AAx?$AA?3?$AA?2?$AAg?$AAi?$AAt?$AAh?$AAu?$AAb?$AA?2?$AAr?$AAe?$AAn?$AAe?$AAg?$AAa?$AAd?$AAe?$AA?2?$AAd?$AAr?$AAa?$AAg?$AAo?$AAn?$AAa?$AAd?$AAe?$AA_?$AAr?$AAx?$AAd@ ; `string'
PUBLIC	??_7?$SimpleDynVecClass@I@@6B@			; SimpleDynVecClass<unsigned int>::`vftable'
PUBLIC	??_7?$SimpleVecClass@PAVScriptableGameObj@@@@6B@ ; SimpleVecClass<ScriptableGameObj *>::`vftable'
PUBLIC	??_7?$SimpleDynVecClass@PAVScriptableGameObj@@@@6B@ ; SimpleDynVecClass<ScriptableGameObj *>::`vftable'
PUBLIC	?__LINE__Var@?1??Load@ExpVehFacClass@@QAEXPBD0PAVScriptableGameObj@@0@Z@4JA ; `ExpVehFacClass::Load'::`2'::__LINE__Var
PUBLIC	??_C@_0BF@CHJIHGEH@ExpVehFacClass?3?3Load?$AA@	; `string'
PUBLIC	??_C@_01GBGANLPD@0?$AA@				; `string'
PUBLIC	??_C@_01ICJEACDI@?$DL?$AA@			; `string'
PUBLIC	??_C@_01NEMOKFLO@?$DN?$AA@			; `string'
PUBLIC	??_C@_0BB@MJEEGLIK@ExpVehFac_?$CFu?4cfg?$AA@	; `string'
PUBLIC	??_C@_0O@BCEKLIOD@ExpVehFac?4cfg?$AA@		; `string'
PUBLIC	??_C@_0N@BHHEMMEG@Ground_Limit?$AA@		; `string'
PUBLIC	??_C@_0N@NKJFEDCM@Flying_Limit?$AA@		; `string'
PUBLIC	??_C@_0M@HBFOELM@Naval_Limit?$AA@		; `string'
PUBLIC	??_C@_0O@CCACHKNM@Support_Limit?$AA@		; `string'
PUBLIC	??_C@_00CNPNBAHC@?$AA@				; `string'
PUBLIC	?__LINE__Var@?1??Clear@ExpVehFacClass@@QAEXXZ@4JA ; `ExpVehFacClass::Clear'::`2'::__LINE__Var
PUBLIC	??_C@_0BG@MKMJMKII@ExpVehFacClass?3?3Clear?$AA@	; `string'
PUBLIC	??_C@_0DB@EAPDLBJM@The?5limit?5for?5Support?5vehicles?5h@ ; `string'
PUBLIC	??_C@_0CP@NIACEBMO@The?5limit?5for?5Naval?5vehicles?5has@ ; `string'
PUBLIC	??_C@_04OHJIHAFH@None?$AA@			; `string'
PUBLIC	??_C@_0DA@DDGIFENP@The?5limit?5for?5Flying?5vehicles?5ha@ ; `string'
PUBLIC	??_C@_0BA@IACOJFFL@ExpVehFac_1?4txt?$AA@	; `string'
PUBLIC	??_C@_0BA@ELHCEGPO@ExpVehFac_0?4txt?$AA@	; `string'
PUBLIC	??_C@_0P@ILJCPIMA@Test_Cinematic?$AA@		; `string'
PUBLIC	??_C@_0BB@NHJNEILC@Invisible_Object?$AA@	; `string'
PUBLIC	??_C@_0DA@EHCLJPMO@The?5limit?5for?5Ground?5vehicles?5ha@ ; `string'
PUBLIC	??_C@_0BE@BKNPJNFJ@MDB_ExpVehFac_Limit?$AA@	; `string'
PUBLIC	??_C@_01FAMBOPH@4?$AA@				; `string'
PUBLIC	??_C@_01HIHLOKLC@1?$AA@				; `string'
PUBLIC	??_C@_01FDFGLJHB@2?$AA@				; `string'
PUBLIC	??_C@_01EKENIIDA@3?$AA@				; `string'
PUBLIC	?__LINE__Var@?1??Created@MDB_ExpVehFac_Helipad@@EAEXPAVScriptableGameObj@@@Z@4JA ; `MDB_ExpVehFac_Helipad::Created'::`2'::__LINE__Var
PUBLIC	??_C@_0BP@KAGBMPFB@MDB_ExpVehFac_Helipad?3?3Created?$AA@ ; `string'
PUBLIC	??_C@_0BE@GMHHGOOM@MDB_ExpVehFac_Naval?$AA@	; `string'
PUBLIC	??_C@_0BB@GKAKOOPG@Support_Vehicles?$AA@	; `string'
PUBLIC	??_C@_0P@HBCKFHDF@Landing_Preset?$AA@		; `string'
PUBLIC	??_C@_0L@CMKBOGCN@Build_Time?$AA@		; `string'
PUBLIC	??_C@_0BC@DOEJEHKP@Flying_Build_Time?$AA@	; `string'
PUBLIC	??_C@_0BG@KKJHDMPD@MDB_ExpVehFac_Helipad?$AA@	; `string'
PUBLIC	??_C@_0BO@IDCNIDOL@MDB_ExpVehFac_Vehicle_Factory?$AA@ ; `string'
PUBLIC	?__LINE__Var@?1??Created@MDB_ExpVehFac_Naval@@EAEXPAVScriptableGameObj@@@Z@4JA ; `MDB_ExpVehFac_Naval::Created'::`2'::__LINE__Var
PUBLIC	??_C@_0BN@KONPE@MDB_ExpVehFac_Naval?3?3Created?$AA@ ; `string'
PUBLIC	??_C@_0BA@BNIFIOJM@Creation_Preset?$AA@		; `string'
PUBLIC	??_C@_0P@EOMMAHKA@Naval_Vehicles?$AA@		; `string'
PUBLIC	??_C@_0BB@OKFAOBNB@Naval_Build_Time?$AA@	; `string'
PUBLIC	?__LINE__Var@?1??Created@MDB_ExpVehFac_Vehicle_Factory@@EAEXPAVScriptableGameObj@@@Z@4JA ; `MDB_ExpVehFac_Vehicle_Factory::Created'::`2'::__LINE__Var
PUBLIC	??_C@_0CH@BMAJKPCD@MDB_ExpVehFac_Vehicle_Factory?3?3C@ ; `string'
PUBLIC	??_C@_0BC@IOIFJNLK@Ground_Build_Time?$AA@	; `string'
PUBLIC	??_C@_04GBPANCCF@Team?$AA@			; `string'
PUBLIC	??_C@_06BIJBOFNL@Origin?$AA@			; `string'
PUBLIC	??_C@_0CA@HEBOGOMN@MDB_ExpVehFac_Cinematic_Vehicle?$AA@ ; `string'
PUBLIC	??_C@_04OKOFBOPB@Time?$AA@			; `string'
PUBLIC	??_C@_04KOACHJEN@Type?$AA@			; `string'
PUBLIC	??_7?$ScriptRegistrant@VMDB_ExpVehFac_Helipad@@@@6B@ ; ScriptRegistrant<MDB_ExpVehFac_Helipad>::`vftable'
PUBLIC	?MDB_ExpVehFac_Helipad_Registrant@@3V?$ScriptRegistrant@VMDB_ExpVehFac_Helipad@@@@A ; MDB_ExpVehFac_Helipad_Registrant
PUBLIC	??_C@_0JK@KIFIJHKB@Landing_Preset?$DNLanding?3string?0Bu@ ; `string'
PUBLIC	??_7?$ScriptRegistrant@VMDB_ExpVehFac_Naval@@@@6B@ ; ScriptRegistrant<MDB_ExpVehFac_Naval>::`vftable'
PUBLIC	?MDB_ExpVehFac_Naval_Registrant@@3V?$ScriptRegistrant@VMDB_ExpVehFac_Naval@@@@A ; MDB_ExpVehFac_Naval_Registrant
PUBLIC	??_C@_0LO@HHLONMGP@Creation_Preset?$DNPreset?3string?0Na@ ; `string'
PUBLIC	??_7?$ScriptRegistrant@VMDB_ExpVehFac_Vehicle_Factory@@@@6B@ ; ScriptRegistrant<MDB_ExpVehFac_Vehicle_Factory>::`vftable'
PUBLIC	?MDB_ExpVehFac_Vehicle_Factory_Registrant@@3V?$ScriptRegistrant@VMDB_ExpVehFac_Vehicle_Factory@@@@A ; MDB_ExpVehFac_Vehicle_Factory_Registrant
PUBLIC	??_C@_0HM@LIOKLNBO@Build_Time?$DN1?40?3float?0Ground_Buil@ ; `string'
PUBLIC	??_7?$ScriptRegistrant@VMDB_ExpVehFac_Cinematic@@@@6B@ ; ScriptRegistrant<MDB_ExpVehFac_Cinematic>::`vftable'
PUBLIC	?MDB_ExpVehFac_Cinematic_Registrant@@3V?$ScriptRegistrant@VMDB_ExpVehFac_Cinematic@@@@A ; MDB_ExpVehFac_Cinematic_Registrant
PUBLIC	??_C@_0BG@HKGNCJP@Team?$DN0?3int?0Time?3float?$AA@ ; `string'
PUBLIC	??_C@_0BI@GNCIIPJF@MDB_ExpVehFac_Cinematic?$AA@	; `string'
PUBLIC	??_7?$ScriptRegistrant@VMDB_ExpVehFac_Cinematic_Vehicle@@@@6B@ ; ScriptRegistrant<MDB_ExpVehFac_Cinematic_Vehicle>::`vftable'
PUBLIC	?MDB_ExpVehFac_Cinematic_Vehicle_Registrant@@3V?$ScriptRegistrant@VMDB_ExpVehFac_Cinematic_Vehicle@@@@A ; MDB_ExpVehFac_Cinematic_Vehicle_Registrant
PUBLIC	??_7?$ScriptRegistrant@VMDB_ExpVehFac_Limit@@@@6B@ ; ScriptRegistrant<MDB_ExpVehFac_Limit>::`vftable'
PUBLIC	?MDB_ExpVehFac_Limit_Registrant@@3V?$ScriptRegistrant@VMDB_ExpVehFac_Limit@@@@A ; MDB_ExpVehFac_Limit_Registrant
PUBLIC	??_C@_08JFKDHNCE@Type?3int?$AA@			; `string'
PUBLIC	??_C@_0CO@MPCNNKCB@SimpleVecClass?$DMunsigned?5int?$DO?3?3?$HOS@ ; `string'
PUBLIC	??_C@_0CF@JPCAAIGO@SimpleVecClass?$DMunsigned?5int?$DO?3?3Re@ ; `string'
PUBLIC	??_C@_0DB@HGKHGJNJ@SimpleVecClass?$DMunsigned?5int?$DO?3?3Un@ ; `string'
PUBLIC	??_C@_0EJ@ENMBJFB@SList?$DMstruct?5MultiKeyHookScriptI@ ; `string'
PUBLIC	??_C@_0DB@DFBFLIIO@x?3?2github?2renegade?2dragonade_rxd@ ; `string'
PUBLIC	??_C@_1GC@LJHGOLFN@?$AAx?$AA?3?$AA?2?$AAg?$AAi?$AAt?$AAh?$AAu?$AAb?$AA?2?$AAr?$AAe?$AAn?$AAe?$AAg?$AAa?$AAd?$AAe?$AA?2?$AAd?$AAr?$AAa?$AAg?$AAo?$AAn?$AAa?$AAd?$AAe?$AA_?$AAr?$AAx?$AAd@ ; `string'
PUBLIC	??_C@_0EJ@OIGECPDF@SList?$DMstruct?5MultiKeyHookScriptI@ ; `string'
PUBLIC	??_C@_0EM@PPENJFKC@SList?$DMstruct?5MultiKeyHookScriptI@ ; `string'
PUBLIC	??_C@_0EH@CGJBMJBC@SList?$DMstruct?5MultiKeyHookScriptI@ ; `string'
PUBLIC	??_C@_0EL@MPFHHNNA@SList?$DMstruct?5MultiKeyHookScriptI@ ; `string'
PUBLIC	??_C@_0EO@OJGPEJGC@SList?$DMstruct?5MultiKeyHookScriptI@ ; `string'
PUBLIC	??_C@_0EN@HIHNAGN@SList?$DMstruct?5MultiKeyHookScriptI@ ; `string'
PUBLIC	??_C@_0DD@IEMMGBBK@SimpleVecClass?$DMstruct?5UnitInfo?5?$CK@ ; `string'
PUBLIC	??_C@_0CK@FJJEAHKN@SimpleVecClass?$DMstruct?5UnitInfo?5?$CK@ ; `string'
PUBLIC	??_C@_0DG@IOKFMGHO@SimpleVecClass?$DMstruct?5UnitInfo?5?$CK@ ; `string'
PUBLIC	??_C@_0DG@OANNENMH@SimpleVecClass?$DMstruct?5CreationPo@ ; `string'
PUBLIC	??_C@_0CN@IICOJJHM@SimpleVecClass?$DMstruct?5CreationPo@ ; `string'
PUBLIC	??_C@_0DJ@FIHFCLCF@SimpleVecClass?$DMstruct?5CreationPo@ ; `string'
PUBLIC	??_C@_0DL@EOCHGIPP@SimpleVecClass?$DMclass?5ScriptableG@ ; `string'
PUBLIC	??_C@_0DC@KFEMMJDH@SimpleVecClass?$DMclass?5ScriptableG@ ; `string'
PUBLIC	??_C@_0DO@MHJGFEEG@SimpleVecClass?$DMclass?5ScriptableG@ ; `string'
PUBLIC	??_C@_0DG@PDFNFKEN@ScriptRegistrant?$DMclass?5MDB_ExpVe@ ; `string'
PUBLIC	??_C@_0DD@KMKBFFOF@x?3?2github?2renegade?2dragonade_rxd@ ; `string'
PUBLIC	??_C@_1GG@OGNLNBPD@?$AAx?$AA?3?$AA?2?$AAg?$AAi?$AAt?$AAh?$AAu?$AAb?$AA?2?$AAr?$AAe?$AAn?$AAe?$AAg?$AAa?$AAd?$AAe?$AA?2?$AAd?$AAr?$AAa?$AAg?$AAo?$AAn?$AAa?$AAd?$AAe?$AA_?$AAr?$AAx?$AAd@ ; `string'
PUBLIC	??_C@_0DE@PMNHGNJP@ScriptRegistrant?$DMclass?5MDB_ExpVe@ ; `string'
PUBLIC	??_C@_0DO@BBEDOJGF@ScriptRegistrant?$DMclass?5MDB_ExpVe@ ; `string'
PUBLIC	??_C@_0DI@FDCOMGFJ@ScriptRegistrant?$DMclass?5MDB_ExpVe@ ; `string'
PUBLIC	??_C@_0EA@GFDKKLDF@ScriptRegistrant?$DMclass?5MDB_ExpVe@ ; `string'
PUBLIC	??_C@_0DE@CGPPIIDB@ScriptRegistrant?$DMclass?5MDB_ExpVe@ ; `string'
PUBLIC	?instancex@?1??getInstance@?$Singleton@V?$ObjectPoolClass@VGenericSLNode@@$0BAA@@@@@SAAAV?$ObjectPoolClass@VGenericSLNode@@$0BAA@@@XZ@4V3@A ; `Singleton<ObjectPoolClass<GenericSLNode,256> >::getInstance'::`2'::instancex
PUBLIC	??_B?1??getInstance@?$Singleton@V?$ObjectPoolClass@VGenericSLNode@@$0BAA@@@@@SAAAV?$ObjectPoolClass@VGenericSLNode@@$0BAA@@@XZ@51 ; `Singleton<ObjectPoolClass<GenericSLNode,256> >::getInstance'::`2'::`local static guard'
PUBLIC	??_C@_0EB@IOGKEECK@ObjectPoolClass?$DMclass?5GenericSLN@ ; `string'
PUBLIC	??_C@_0FF@NOANHENP@?$CFd?5memory?5leaks?5found?5in?5ObjectP@ ; `string'
PUBLIC	??_C@_0DL@BOENBDGI@ObjectPoolClass?$DMclass?5GenericSLN@ ; `string'
PUBLIC	??_R4ScriptFactory@@6B@				; ScriptFactory::`RTTI Complete Object Locator'
PUBLIC	??_R0?AVScriptFactory@@@8			; ScriptFactory `RTTI Type Descriptor'
PUBLIC	??_R3ScriptFactory@@8				; ScriptFactory::`RTTI Class Hierarchy Descriptor'
PUBLIC	??_R2ScriptFactory@@8				; ScriptFactory::`RTTI Base Class Array'
PUBLIC	??_R1A@?0A@EA@ScriptFactory@@8			; ScriptFactory::`RTTI Base Class Descriptor at (0,-1,0,64)'
PUBLIC	??_R4ScriptClass@@6B@				; ScriptClass::`RTTI Complete Object Locator'
PUBLIC	??_R0?AVScriptClass@@@8				; ScriptClass `RTTI Type Descriptor'
PUBLIC	??_R3ScriptClass@@8				; ScriptClass::`RTTI Class Hierarchy Descriptor'
PUBLIC	??_R2ScriptClass@@8				; ScriptClass::`RTTI Base Class Array'
PUBLIC	??_R1A@?0A@EA@ScriptClass@@8			; ScriptClass::`RTTI Base Class Descriptor at (0,-1,0,64)'
PUBLIC	??_R1A@?0A@EA@GameObjObserverClass@@8		; GameObjObserverClass::`RTTI Base Class Descriptor at (0,-1,0,64)'
PUBLIC	??_R0?AVGameObjObserverClass@@@8		; GameObjObserverClass `RTTI Type Descriptor'
PUBLIC	??_R3GameObjObserverClass@@8			; GameObjObserverClass::`RTTI Class Hierarchy Descriptor'
PUBLIC	??_R2GameObjObserverClass@@8			; GameObjObserverClass::`RTTI Base Class Array'
PUBLIC	??_R4GameObjObserverClass@@6B@			; GameObjObserverClass::`RTTI Complete Object Locator'
PUBLIC	??_R4ScriptImpClass@@6B@			; ScriptImpClass::`RTTI Complete Object Locator'
PUBLIC	??_R0?AVScriptImpClass@@@8			; ScriptImpClass `RTTI Type Descriptor'
PUBLIC	??_R3ScriptImpClass@@8				; ScriptImpClass::`RTTI Class Hierarchy Descriptor'
PUBLIC	??_R2ScriptImpClass@@8				; ScriptImpClass::`RTTI Base Class Array'
PUBLIC	??_R1A@?0A@EA@ScriptImpClass@@8			; ScriptImpClass::`RTTI Base Class Descriptor at (0,-1,0,64)'
PUBLIC	??_R4ThreadClass@@6B@				; ThreadClass::`RTTI Complete Object Locator'
PUBLIC	??_R0?AVThreadClass@@@8				; ThreadClass `RTTI Type Descriptor'
PUBLIC	??_R3ThreadClass@@8				; ThreadClass::`RTTI Class Hierarchy Descriptor'
PUBLIC	??_R2ThreadClass@@8				; ThreadClass::`RTTI Base Class Array'
PUBLIC	??_R1A@?0A@EA@ThreadClass@@8			; ThreadClass::`RTTI Base Class Descriptor at (0,-1,0,64)'
PUBLIC	??_R4INIClass@@6B@				; INIClass::`RTTI Complete Object Locator'
PUBLIC	??_R0?AVINIClass@@@8				; INIClass `RTTI Type Descriptor'
PUBLIC	??_R3INIClass@@8				; INIClass::`RTTI Class Hierarchy Descriptor'
PUBLIC	??_R2INIClass@@8				; INIClass::`RTTI Base Class Array'
PUBLIC	??_R1A@?0A@EA@INIClass@@8			; INIClass::`RTTI Base Class Descriptor at (0,-1,0,64)'
PUBLIC	??_R1A@?0A@EA@PostLoadableClass@@8		; PostLoadableClass::`RTTI Base Class Descriptor at (0,-1,0,64)'
PUBLIC	??_R0?AVPostLoadableClass@@@8			; PostLoadableClass `RTTI Type Descriptor'
PUBLIC	??_R3PostLoadableClass@@8			; PostLoadableClass::`RTTI Class Hierarchy Descriptor'
PUBLIC	??_R2PostLoadableClass@@8			; PostLoadableClass::`RTTI Base Class Array'
PUBLIC	??_R4?$SimpleDynVecClass@PAVScriptableGameObj@@@@6B@ ; SimpleDynVecClass<ScriptableGameObj *>::`RTTI Complete Object Locator'
PUBLIC	??_R0?AV?$SimpleDynVecClass@PAVScriptableGameObj@@@@@8 ; SimpleDynVecClass<ScriptableGameObj *> `RTTI Type Descriptor'
PUBLIC	??_R3?$SimpleDynVecClass@PAVScriptableGameObj@@@@8 ; SimpleDynVecClass<ScriptableGameObj *>::`RTTI Class Hierarchy Descriptor'
PUBLIC	??_R2?$SimpleDynVecClass@PAVScriptableGameObj@@@@8 ; SimpleDynVecClass<ScriptableGameObj *>::`RTTI Base Class Array'
PUBLIC	??_R1A@?0A@EA@?$SimpleDynVecClass@PAVScriptableGameObj@@@@8 ; SimpleDynVecClass<ScriptableGameObj *>::`RTTI Base Class Descriptor at (0,-1,0,64)'
PUBLIC	??_R1A@?0A@EA@?$SimpleVecClass@PAVScriptableGameObj@@@@8 ; SimpleVecClass<ScriptableGameObj *>::`RTTI Base Class Descriptor at (0,-1,0,64)'
PUBLIC	??_R0?AV?$SimpleVecClass@PAVScriptableGameObj@@@@@8 ; SimpleVecClass<ScriptableGameObj *> `RTTI Type Descriptor'
PUBLIC	??_R3?$SimpleVecClass@PAVScriptableGameObj@@@@8	; SimpleVecClass<ScriptableGameObj *>::`RTTI Class Hierarchy Descriptor'
PUBLIC	??_R2?$SimpleVecClass@PAVScriptableGameObj@@@@8	; SimpleVecClass<ScriptableGameObj *>::`RTTI Base Class Array'
PUBLIC	??_R4PostLoadableClass@@6B@			; PostLoadableClass::`RTTI Complete Object Locator'
PUBLIC	??_R4ReferencerClass@@6B@			; ReferencerClass::`RTTI Complete Object Locator'
PUBLIC	??_R0?AVReferencerClass@@@8			; ReferencerClass `RTTI Type Descriptor'
PUBLIC	??_R3ReferencerClass@@8				; ReferencerClass::`RTTI Class Hierarchy Descriptor'
PUBLIC	??_R2ReferencerClass@@8				; ReferencerClass::`RTTI Base Class Array'
PUBLIC	??_R1A@?0A@EA@ReferencerClass@@8		; ReferencerClass::`RTTI Base Class Descriptor at (0,-1,0,64)'
PUBLIC	??_R4?$SimpleVecClass@I@@6B@			; SimpleVecClass<unsigned int>::`RTTI Complete Object Locator'
PUBLIC	??_R0?AV?$SimpleVecClass@I@@@8			; SimpleVecClass<unsigned int> `RTTI Type Descriptor'
PUBLIC	??_R3?$SimpleVecClass@I@@8			; SimpleVecClass<unsigned int>::`RTTI Class Hierarchy Descriptor'
PUBLIC	??_R2?$SimpleVecClass@I@@8			; SimpleVecClass<unsigned int>::`RTTI Base Class Array'
PUBLIC	??_R1A@?0A@EA@?$SimpleVecClass@I@@8		; SimpleVecClass<unsigned int>::`RTTI Base Class Descriptor at (0,-1,0,64)'
PUBLIC	??_R4JFW_Key_Hook_Base@@6B@			; JFW_Key_Hook_Base::`RTTI Complete Object Locator'
PUBLIC	??_R0?AVJFW_Key_Hook_Base@@@8			; JFW_Key_Hook_Base `RTTI Type Descriptor'
PUBLIC	??_R3JFW_Key_Hook_Base@@8			; JFW_Key_Hook_Base::`RTTI Class Hierarchy Descriptor'
PUBLIC	??_R2JFW_Key_Hook_Base@@8			; JFW_Key_Hook_Base::`RTTI Base Class Array'
PUBLIC	??_R1A@?0A@EA@JFW_Key_Hook_Base@@8		; JFW_Key_Hook_Base::`RTTI Base Class Descriptor at (0,-1,0,64)'
PUBLIC	??_R4MultiKeyHookScriptImpClass@@6B@		; MultiKeyHookScriptImpClass::`RTTI Complete Object Locator'
PUBLIC	??_R0?AVMultiKeyHookScriptImpClass@@@8		; MultiKeyHookScriptImpClass `RTTI Type Descriptor'
PUBLIC	??_R3MultiKeyHookScriptImpClass@@8		; MultiKeyHookScriptImpClass::`RTTI Class Hierarchy Descriptor'
PUBLIC	??_R2MultiKeyHookScriptImpClass@@8		; MultiKeyHookScriptImpClass::`RTTI Base Class Array'
PUBLIC	??_R1A@?0A@EA@MultiKeyHookScriptImpClass@@8	; MultiKeyHookScriptImpClass::`RTTI Base Class Descriptor at (0,-1,0,64)'
PUBLIC	??_R4?$SList@UKeyHookWrapperStruct@MultiKeyHookScriptImpClass@@@@6B@ ; SList<MultiKeyHookScriptImpClass::KeyHookWrapperStruct>::`RTTI Complete Object Locator'
PUBLIC	??_R0?AV?$SList@UKeyHookWrapperStruct@MultiKeyHookScriptImpClass@@@@@8 ; SList<MultiKeyHookScriptImpClass::KeyHookWrapperStruct> `RTTI Type Descriptor'
PUBLIC	??_R3?$SList@UKeyHookWrapperStruct@MultiKeyHookScriptImpClass@@@@8 ; SList<MultiKeyHookScriptImpClass::KeyHookWrapperStruct>::`RTTI Class Hierarchy Descriptor'
PUBLIC	??_R2?$SList@UKeyHookWrapperStruct@MultiKeyHookScriptImpClass@@@@8 ; SList<MultiKeyHookScriptImpClass::KeyHookWrapperStruct>::`RTTI Base Class Array'
PUBLIC	??_R1A@?0A@EA@?$SList@UKeyHookWrapperStruct@MultiKeyHookScriptImpClass@@@@8 ; SList<MultiKeyHookScriptImpClass::KeyHookWrapperStruct>::`RTTI Base Class Descriptor at (0,-1,0,64)'
PUBLIC	??_R4JFW_Object_Created_Hook_Base@@6B@		; JFW_Object_Created_Hook_Base::`RTTI Complete Object Locator'
PUBLIC	??_R0?AVJFW_Object_Created_Hook_Base@@@8	; JFW_Object_Created_Hook_Base `RTTI Type Descriptor'
PUBLIC	??_R3JFW_Object_Created_Hook_Base@@8		; JFW_Object_Created_Hook_Base::`RTTI Class Hierarchy Descriptor'
PUBLIC	??_R2JFW_Object_Created_Hook_Base@@8		; JFW_Object_Created_Hook_Base::`RTTI Base Class Array'
PUBLIC	??_R1A@?0A@EA@JFW_Object_Created_Hook_Base@@8	; JFW_Object_Created_Hook_Base::`RTTI Base Class Descriptor at (0,-1,0,64)'
PUBLIC	??_R4?$SimpleDynVecClass@PAUUnitInfo@@@@6B@	; SimpleDynVecClass<UnitInfo *>::`RTTI Complete Object Locator'
PUBLIC	??_R0?AV?$SimpleDynVecClass@PAUUnitInfo@@@@@8	; SimpleDynVecClass<UnitInfo *> `RTTI Type Descriptor'
PUBLIC	??_R3?$SimpleDynVecClass@PAUUnitInfo@@@@8	; SimpleDynVecClass<UnitInfo *>::`RTTI Class Hierarchy Descriptor'
PUBLIC	??_R2?$SimpleDynVecClass@PAUUnitInfo@@@@8	; SimpleDynVecClass<UnitInfo *>::`RTTI Base Class Array'
PUBLIC	??_R1A@?0A@EA@?$SimpleDynVecClass@PAUUnitInfo@@@@8 ; SimpleDynVecClass<UnitInfo *>::`RTTI Base Class Descriptor at (0,-1,0,64)'
PUBLIC	??_R1A@?0A@EA@?$SimpleVecClass@PAUUnitInfo@@@@8	; SimpleVecClass<UnitInfo *>::`RTTI Base Class Descriptor at (0,-1,0,64)'
PUBLIC	??_R0?AV?$SimpleVecClass@PAUUnitInfo@@@@@8	; SimpleVecClass<UnitInfo *> `RTTI Type Descriptor'
PUBLIC	??_R3?$SimpleVecClass@PAUUnitInfo@@@@8		; SimpleVecClass<UnitInfo *>::`RTTI Class Hierarchy Descriptor'
PUBLIC	??_R2?$SimpleVecClass@PAUUnitInfo@@@@8		; SimpleVecClass<UnitInfo *>::`RTTI Base Class Array'
PUBLIC	??_R4?$SimpleVecClass@PAUUnitInfo@@@@6B@	; SimpleVecClass<UnitInfo *>::`RTTI Complete Object Locator'
PUBLIC	??_R4?$SimpleDynVecClass@PAUCreationPos@@@@6B@	; SimpleDynVecClass<CreationPos *>::`RTTI Complete Object Locator'
PUBLIC	??_R0?AV?$SimpleDynVecClass@PAUCreationPos@@@@@8 ; SimpleDynVecClass<CreationPos *> `RTTI Type Descriptor'
PUBLIC	??_R3?$SimpleDynVecClass@PAUCreationPos@@@@8	; SimpleDynVecClass<CreationPos *>::`RTTI Class Hierarchy Descriptor'
PUBLIC	??_R2?$SimpleDynVecClass@PAUCreationPos@@@@8	; SimpleDynVecClass<CreationPos *>::`RTTI Base Class Array'
PUBLIC	??_R1A@?0A@EA@?$SimpleDynVecClass@PAUCreationPos@@@@8 ; SimpleDynVecClass<CreationPos *>::`RTTI Base Class Descriptor at (0,-1,0,64)'
PUBLIC	??_R1A@?0A@EA@?$SimpleVecClass@PAUCreationPos@@@@8 ; SimpleVecClass<CreationPos *>::`RTTI Base Class Descriptor at (0,-1,0,64)'
PUBLIC	??_R0?AV?$SimpleVecClass@PAUCreationPos@@@@@8	; SimpleVecClass<CreationPos *> `RTTI Type Descriptor'
PUBLIC	??_R3?$SimpleVecClass@PAUCreationPos@@@@8	; SimpleVecClass<CreationPos *>::`RTTI Class Hierarchy Descriptor'
PUBLIC	??_R2?$SimpleVecClass@PAUCreationPos@@@@8	; SimpleVecClass<CreationPos *>::`RTTI Base Class Array'
PUBLIC	??_R4?$SimpleVecClass@PAUCreationPos@@@@6B@	; SimpleVecClass<CreationPos *>::`RTTI Complete Object Locator'
PUBLIC	??_R4?$SimpleDynVecClass@I@@6B@			; SimpleDynVecClass<unsigned int>::`RTTI Complete Object Locator'
PUBLIC	??_R0?AV?$SimpleDynVecClass@I@@@8		; SimpleDynVecClass<unsigned int> `RTTI Type Descriptor'
PUBLIC	??_R3?$SimpleDynVecClass@I@@8			; SimpleDynVecClass<unsigned int>::`RTTI Class Hierarchy Descriptor'
PUBLIC	??_R2?$SimpleDynVecClass@I@@8			; SimpleDynVecClass<unsigned int>::`RTTI Base Class Array'
PUBLIC	??_R1A@?0A@EA@?$SimpleDynVecClass@I@@8		; SimpleDynVecClass<unsigned int>::`RTTI Base Class Descriptor at (0,-1,0,64)'
PUBLIC	??_R4MDB_ExpVehFac_Helipad@@6B@			; MDB_ExpVehFac_Helipad::`RTTI Complete Object Locator'
PUBLIC	??_R0?AVMDB_ExpVehFac_Helipad@@@8		; MDB_ExpVehFac_Helipad `RTTI Type Descriptor'
PUBLIC	??_R3MDB_ExpVehFac_Helipad@@8			; MDB_ExpVehFac_Helipad::`RTTI Class Hierarchy Descriptor'
PUBLIC	??_R2MDB_ExpVehFac_Helipad@@8			; MDB_ExpVehFac_Helipad::`RTTI Base Class Array'
PUBLIC	??_R1A@?0A@EA@MDB_ExpVehFac_Helipad@@8		; MDB_ExpVehFac_Helipad::`RTTI Base Class Descriptor at (0,-1,0,64)'
PUBLIC	??_R4MDB_ExpVehFac_Naval@@6B@			; MDB_ExpVehFac_Naval::`RTTI Complete Object Locator'
PUBLIC	??_R0?AVMDB_ExpVehFac_Naval@@@8			; MDB_ExpVehFac_Naval `RTTI Type Descriptor'
PUBLIC	??_R3MDB_ExpVehFac_Naval@@8			; MDB_ExpVehFac_Naval::`RTTI Class Hierarchy Descriptor'
PUBLIC	??_R2MDB_ExpVehFac_Naval@@8			; MDB_ExpVehFac_Naval::`RTTI Base Class Array'
PUBLIC	??_R1A@?0A@EA@MDB_ExpVehFac_Naval@@8		; MDB_ExpVehFac_Naval::`RTTI Base Class Descriptor at (0,-1,0,64)'
PUBLIC	??_R4MDB_ExpVehFac_Vehicle_Factory@@6B@		; MDB_ExpVehFac_Vehicle_Factory::`RTTI Complete Object Locator'
PUBLIC	??_R0?AVMDB_ExpVehFac_Vehicle_Factory@@@8	; MDB_ExpVehFac_Vehicle_Factory `RTTI Type Descriptor'
PUBLIC	??_R3MDB_ExpVehFac_Vehicle_Factory@@8		; MDB_ExpVehFac_Vehicle_Factory::`RTTI Class Hierarchy Descriptor'
PUBLIC	??_R2MDB_ExpVehFac_Vehicle_Factory@@8		; MDB_ExpVehFac_Vehicle_Factory::`RTTI Base Class Array'
PUBLIC	??_R1A@?0A@EA@MDB_ExpVehFac_Vehicle_Factory@@8	; MDB_ExpVehFac_Vehicle_Factory::`RTTI Base Class Descriptor at (0,-1,0,64)'
PUBLIC	??_R4MDB_ExpVehFac_Cinematic@@6B@		; MDB_ExpVehFac_Cinematic::`RTTI Complete Object Locator'
PUBLIC	??_R0?AVMDB_ExpVehFac_Cinematic@@@8		; MDB_ExpVehFac_Cinematic `RTTI Type Descriptor'
PUBLIC	??_R3MDB_ExpVehFac_Cinematic@@8			; MDB_ExpVehFac_Cinematic::`RTTI Class Hierarchy Descriptor'
PUBLIC	??_R2MDB_ExpVehFac_Cinematic@@8			; MDB_ExpVehFac_Cinematic::`RTTI Base Class Array'
PUBLIC	??_R1A@?0A@EA@MDB_ExpVehFac_Cinematic@@8	; MDB_ExpVehFac_Cinematic::`RTTI Base Class Descriptor at (0,-1,0,64)'
PUBLIC	??_R4MDB_ExpVehFac_Cinematic_Vehicle@@6B@	; MDB_ExpVehFac_Cinematic_Vehicle::`RTTI Complete Object Locator'
PUBLIC	??_R0?AVMDB_ExpVehFac_Cinematic_Vehicle@@@8	; MDB_ExpVehFac_Cinematic_Vehicle `RTTI Type Descriptor'
PUBLIC	??_R3MDB_ExpVehFac_Cinematic_Vehicle@@8		; MDB_ExpVehFac_Cinematic_Vehicle::`RTTI Class Hierarchy Descriptor'
PUBLIC	??_R2MDB_ExpVehFac_Cinematic_Vehicle@@8		; MDB_ExpVehFac_Cinematic_Vehicle::`RTTI Base Class Array'
PUBLIC	??_R1A@?0A@EA@MDB_ExpVehFac_Cinematic_Vehicle@@8 ; MDB_ExpVehFac_Cinematic_Vehicle::`RTTI Base Class Descriptor at (0,-1,0,64)'
PUBLIC	??_R4MDB_ExpVehFac_Limit@@6B@			; MDB_ExpVehFac_Limit::`RTTI Complete Object Locator'
PUBLIC	??_R0?AVMDB_ExpVehFac_Limit@@@8			; MDB_ExpVehFac_Limit `RTTI Type Descriptor'
PUBLIC	??_R3MDB_ExpVehFac_Limit@@8			; MDB_ExpVehFac_Limit::`RTTI Class Hierarchy Descriptor'
PUBLIC	??_R2MDB_ExpVehFac_Limit@@8			; MDB_ExpVehFac_Limit::`RTTI Base Class Array'
PUBLIC	??_R1A@?0A@EA@MDB_ExpVehFac_Limit@@8		; MDB_ExpVehFac_Limit::`RTTI Base Class Descriptor at (0,-1,0,64)'
PUBLIC	??_R4?$SimpleVecClass@PAVScriptableGameObj@@@@6B@ ; SimpleVecClass<ScriptableGameObj *>::`RTTI Complete Object Locator'
PUBLIC	??_R4?$ScriptRegistrant@VMDB_ExpVehFac_Helipad@@@@6B@ ; ScriptRegistrant<MDB_ExpVehFac_Helipad>::`RTTI Complete Object Locator'
PUBLIC	??_R0?AV?$ScriptRegistrant@VMDB_ExpVehFac_Helipad@@@@@8 ; ScriptRegistrant<MDB_ExpVehFac_Helipad> `RTTI Type Descriptor'
PUBLIC	??_R3?$ScriptRegistrant@VMDB_ExpVehFac_Helipad@@@@8 ; ScriptRegistrant<MDB_ExpVehFac_Helipad>::`RTTI Class Hierarchy Descriptor'
PUBLIC	??_R2?$ScriptRegistrant@VMDB_ExpVehFac_Helipad@@@@8 ; ScriptRegistrant<MDB_ExpVehFac_Helipad>::`RTTI Base Class Array'
PUBLIC	??_R1A@?0A@EA@?$ScriptRegistrant@VMDB_ExpVehFac_Helipad@@@@8 ; ScriptRegistrant<MDB_ExpVehFac_Helipad>::`RTTI Base Class Descriptor at (0,-1,0,64)'
PUBLIC	??_R4?$ScriptRegistrant@VMDB_ExpVehFac_Naval@@@@6B@ ; ScriptRegistrant<MDB_ExpVehFac_Naval>::`RTTI Complete Object Locator'
PUBLIC	??_R0?AV?$ScriptRegistrant@VMDB_ExpVehFac_Naval@@@@@8 ; ScriptRegistrant<MDB_ExpVehFac_Naval> `RTTI Type Descriptor'
PUBLIC	??_R3?$ScriptRegistrant@VMDB_ExpVehFac_Naval@@@@8 ; ScriptRegistrant<MDB_ExpVehFac_Naval>::`RTTI Class Hierarchy Descriptor'
PUBLIC	??_R2?$ScriptRegistrant@VMDB_ExpVehFac_Naval@@@@8 ; ScriptRegistrant<MDB_ExpVehFac_Naval>::`RTTI Base Class Array'
PUBLIC	??_R1A@?0A@EA@?$ScriptRegistrant@VMDB_ExpVehFac_Naval@@@@8 ; ScriptRegistrant<MDB_ExpVehFac_Naval>::`RTTI Base Class Descriptor at (0,-1,0,64)'
PUBLIC	??_R4?$ScriptRegistrant@VMDB_ExpVehFac_Vehicle_Factory@@@@6B@ ; ScriptRegistrant<MDB_ExpVehFac_Vehicle_Factory>::`RTTI Complete Object Locator'
PUBLIC	??_R0?AV?$ScriptRegistrant@VMDB_ExpVehFac_Vehicle_Factory@@@@@8 ; ScriptRegistrant<MDB_ExpVehFac_Vehicle_Factory> `RTTI Type Descriptor'
PUBLIC	??_R3?$ScriptRegistrant@VMDB_ExpVehFac_Vehicle_Factory@@@@8 ; ScriptRegistrant<MDB_ExpVehFac_Vehicle_Factory>::`RTTI Class Hierarchy Descriptor'
PUBLIC	??_R2?$ScriptRegistrant@VMDB_ExpVehFac_Vehicle_Factory@@@@8 ; ScriptRegistrant<MDB_ExpVehFac_Vehicle_Factory>::`RTTI Base Class Array'
PUBLIC	??_R1A@?0A@EA@?$ScriptRegistrant@VMDB_ExpVehFac_Vehicle_Factory@@@@8 ; ScriptRegistrant<MDB_ExpVehFac_Vehicle_Factory>::`RTTI Base Class Descriptor at (0,-1,0,64)'
PUBLIC	??_R4?$ScriptRegistrant@VMDB_ExpVehFac_Cinematic@@@@6B@ ; ScriptRegistrant<MDB_ExpVehFac_Cinematic>::`RTTI Complete Object Locator'
PUBLIC	??_R0?AV?$ScriptRegistrant@VMDB_ExpVehFac_Cinematic@@@@@8 ; ScriptRegistrant<MDB_ExpVehFac_Cinematic> `RTTI Type Descriptor'
PUBLIC	??_R3?$ScriptRegistrant@VMDB_ExpVehFac_Cinematic@@@@8 ; ScriptRegistrant<MDB_ExpVehFac_Cinematic>::`RTTI Class Hierarchy Descriptor'
PUBLIC	??_R2?$ScriptRegistrant@VMDB_ExpVehFac_Cinematic@@@@8 ; ScriptRegistrant<MDB_ExpVehFac_Cinematic>::`RTTI Base Class Array'
PUBLIC	??_R1A@?0A@EA@?$ScriptRegistrant@VMDB_ExpVehFac_Cinematic@@@@8 ; ScriptRegistrant<MDB_ExpVehFac_Cinematic>::`RTTI Base Class Descriptor at (0,-1,0,64)'
PUBLIC	??_R4?$ScriptRegistrant@VMDB_ExpVehFac_Cinematic_Vehicle@@@@6B@ ; ScriptRegistrant<MDB_ExpVehFac_Cinematic_Vehicle>::`RTTI Complete Object Locator'
PUBLIC	??_R0?AV?$ScriptRegistrant@VMDB_ExpVehFac_Cinematic_Vehicle@@@@@8 ; ScriptRegistrant<MDB_ExpVehFac_Cinematic_Vehicle> `RTTI Type Descriptor'
PUBLIC	??_R3?$ScriptRegistrant@VMDB_ExpVehFac_Cinematic_Vehicle@@@@8 ; ScriptRegistrant<MDB_ExpVehFac_Cinematic_Vehicle>::`RTTI Class Hierarchy Descriptor'
PUBLIC	??_R2?$ScriptRegistrant@VMDB_ExpVehFac_Cinematic_Vehicle@@@@8 ; ScriptRegistrant<MDB_ExpVehFac_Cinematic_Vehicle>::`RTTI Base Class Array'
PUBLIC	??_R1A@?0A@EA@?$ScriptRegistrant@VMDB_ExpVehFac_Cinematic_Vehicle@@@@8 ; ScriptRegistrant<MDB_ExpVehFac_Cinematic_Vehicle>::`RTTI Base Class Descriptor at (0,-1,0,64)'
PUBLIC	??_R4?$ScriptRegistrant@VMDB_ExpVehFac_Limit@@@@6B@ ; ScriptRegistrant<MDB_ExpVehFac_Limit>::`RTTI Complete Object Locator'
PUBLIC	??_R0?AV?$ScriptRegistrant@VMDB_ExpVehFac_Limit@@@@@8 ; ScriptRegistrant<MDB_ExpVehFac_Limit> `RTTI Type Descriptor'
PUBLIC	??_R3?$ScriptRegistrant@VMDB_ExpVehFac_Limit@@@@8 ; ScriptRegistrant<MDB_ExpVehFac_Limit>::`RTTI Class Hierarchy Descriptor'
PUBLIC	??_R2?$ScriptRegistrant@VMDB_ExpVehFac_Limit@@@@8 ; ScriptRegistrant<MDB_ExpVehFac_Limit>::`RTTI Base Class Array'
PUBLIC	??_R1A@?0A@EA@?$ScriptRegistrant@VMDB_ExpVehFac_Limit@@@@8 ; ScriptRegistrant<MDB_ExpVehFac_Limit>::`RTTI Base Class Descriptor at (0,-1,0,64)'
PUBLIC	__real@00000000
PUBLIC	__real@0000000000000000
PUBLIC	__real@02081cea
PUBLIC	__real@3f000000
PUBLIC	__real@3f79999a
PUBLIC	__real@3f800000
PUBLIC	__real@3fc90fdb
PUBLIC	__real@3fe0000000000000
PUBLIC	__real@3ff0000000000000
PUBLIC	__real@40000000
PUBLIC	__real@4000000000000000
PUBLIC	__real@40a00000
PUBLIC	__real@40c90fdb
PUBLIC	__real@437f0000
PUBLIC	__real@44000000
PUBLIC	__real@44800000
PUBLIC	__real@47c34f80
PUBLIC	__real@bf800000
PUBLIC	__real@c0000000
PUBLIC	__xmm@80000000000000008000000000000000
PUBLIC	__xmm@80000000800000008000000080000000
EXTRN	__purecall:PROC
EXTRN	??2@YAPAXI@Z:PROC				; operator new
EXTRN	??3@YAXPAX@Z:PROC				; operator delete
EXTRN	_atexit:PROC
EXTRN	__imp___wassert:PROC
EXTRN	__imp__atof:PROC
EXTRN	__imp__ceil:PROC
EXTRN	__imp__atoi:PROC
EXTRN	??_V@YAXPAX@Z:PROC				; operator delete[]
EXTRN	??_U@YAPAXI@Z:PROC				; operator new[]
EXTRN	__imp__sprintf:PROC
EXTRN	__imp___stricmp:PROC
EXTRN	__imp__strstr:PROC
EXTRN	__imp__strtok:PROC
EXTRN	__imp__GetCurrentThreadId@0:PROC
EXTRN	__imp__OutputDebugStringA@4:PROC
EXTRN	?SetThreadTrackingInformation@@YAXPBDI0@Z:PROC	; SetThreadTrackingInformation
EXTRN	?Random_Float@WWMath@@SAMXZ:PROC		; WWMath::Random_Float
EXTRN	??0ScriptImpClass@@QAE@XZ:PROC			; ScriptImpClass::ScriptImpClass
EXTRN	?Auto_Save_Variable@ScriptImpClass@@QAEXPAXHH@Z:PROC ; ScriptImpClass::Auto_Save_Variable
EXTRN	??1ScriptImpClass@@UAE@XZ:PROC			; ScriptImpClass::~ScriptImpClass
EXTRN	?Get_Name@ScriptImpClass@@UAEPBDXZ:PROC		; ScriptImpClass::Get_Name
EXTRN	?Set_Parameters_String@ScriptImpClass@@UAEXPBD@Z:PROC ; ScriptImpClass::Set_Parameters_String
EXTRN	?Get_Parameters_String@ScriptImpClass@@UAEXPADI@Z:PROC ; ScriptImpClass::Get_Parameters_String
EXTRN	?Get_Parameter@ScriptImpClass@@QAEPBDPBD@Z:PROC	; ScriptImpClass::Get_Parameter
EXTRN	?Get_Parameter@ScriptImpClass@@QAEPBDH@Z:PROC	; ScriptImpClass::Get_Parameter
EXTRN	?Get_Int_Parameter@ScriptImpClass@@QAEHPBD@Z:PROC ; ScriptImpClass::Get_Int_Parameter
EXTRN	?Get_Float_Parameter@ScriptImpClass@@QAEMPBD@Z:PROC ; ScriptImpClass::Get_Float_Parameter
EXTRN	?Attach@ScriptImpClass@@MAEXPAVScriptableGameObj@@@Z:PROC ; ScriptImpClass::Attach
EXTRN	?Detach@ScriptImpClass@@MAEXPAVScriptableGameObj@@@Z:PROC ; ScriptImpClass::Detach
EXTRN	?Save@ScriptImpClass@@MAEXAAVScriptSaver@@@Z:PROC ; ScriptImpClass::Save
EXTRN	?Load@ScriptImpClass@@MAEXAAVScriptLoader@@@Z:PROC ; ScriptImpClass::Load
EXTRN	??1ScriptFactory@@UAE@XZ:PROC			; ScriptFactory::~ScriptFactory
EXTRN	??0ScriptFactory@@IAE@PBD0@Z:PROC		; ScriptFactory::ScriptFactory
EXTRN	??1ThreadClass@@UAE@XZ:PROC			; ThreadClass::~ThreadClass
EXTRN	__imp_?Free_String@StringClass@@AAEXXZ:PROC
EXTRN	__imp_?Free_String@WideStringClass@@AAEXXZ:PROC
EXTRN	?newstr@@YAPADPBD@Z:PROC			; newstr
EXTRN	?Find_Entry@INIClass@@QBEPAUINIEntry@@PBD0@Z:PROC ; INIClass::Find_Entry
EXTRN	?Find_Section@INIClass@@QBEPAUINISection@@PBD@Z:PROC ; INIClass::Find_Section
EXTRN	??1INIClass@@UAE@XZ:PROC			; INIClass::~INIClass
EXTRN	?Get_Definition_Name@@YAPBDK@Z:PROC		; Get_Definition_Name
EXTRN	?Get_Definition_ID@@YAHPBD@Z:PROC		; Get_Definition_ID
EXTRN	?Set@Matrix3D@@QAEXABVMatrix3@@ABVVector3@@@Z:PROC ; Matrix3D::Set
EXTRN	?Set@Matrix3D@@QAEXABVQuaternion@@ABVVector3@@@Z:PROC ; Matrix3D::Set
EXTRN	?Get_Object_Type@@YAHPAVScriptableGameObj@@@Z:PROC ; Get_Object_Type
EXTRN	?Find_Object_By_Preset@@YAPAVScriptableGameObj@@HPBD@Z:PROC ; Find_Object_By_Preset
EXTRN	?Get_All_Objects_By_Preset@@YAPAV?$SimpleDynVecClass@PAVScriptableGameObj@@@@HPBD@Z:PROC ; Get_All_Objects_By_Preset
EXTRN	?Purchase_Item@@YA_NPAVScriptableGameObj@@H@Z:PROC ; Purchase_Item
EXTRN	?Create_Vehicle@@YA_NPBDMPAVScriptableGameObj@@H@Z:PROC ; Create_Vehicle
EXTRN	?Find_Closest_Zone@@YAPAVScriptableGameObj@@AAVVector3@@I@Z:PROC ; Find_Closest_Zone
EXTRN	?Get_Vehicle_Definition_Mode_By_ID@@YAIK@Z:PROC	; Get_Vehicle_Definition_Mode_By_ID
EXTRN	?Set@Matrix3@@QAEXABVQuaternion@@@Z:PROC	; Matrix3::Set
EXTRN	??1ReferencerClass@@UAE@XZ:PROC			; ReferencerClass::~ReferencerClass
EXTRN	?On_Post_Load@ReferencerClass@@UAEXXZ:PROC	; ReferencerClass::On_Post_Load
EXTRN	??4ReferencerClass@@QAEAAV0@PAVScriptableGameObj@@@Z:PROC ; ReferencerClass::operator=
EXTRN	?Set@LineSegClass@@QAEXABV1@ABVMatrix3D@@@Z:PROC ; LineSegClass::Set
EXTRN	?Set_Can_Generate_Vehicles@@YAXH_N@Z:PROC	; Set_Can_Generate_Vehicles
EXTRN	?Find_Refinery@@YAPAVScriptableGameObj@@H@Z:PROC ; Find_Refinery
EXTRN	?Damage_All_Objects_In_Zone@@YAXPAVScriptableGameObj@@MPBD0@Z:PROC ; Damage_All_Objects_In_Zone
EXTRN	?Remove_Script@@YAXPAVScriptableGameObj@@PBD@Z:PROC ; Remove_Script
EXTRN	?Is_Script_Attached@@YA_NPAVScriptableGameObj@@PBD@Z:PROC ; Is_Script_Attached
EXTRN	?Find_Building_With_Script@@YAPAVScriptableGameObj@@HHPBDPAV1@@Z:PROC ; Find_Building_With_Script
EXTRN	??_E?$SimpleVecClass@I@@UAEPAXI@Z:PROC		; SimpleVecClass<unsigned int>::`vector deleting destructor'
EXTRN	?Find_Definition@PurchaseSettingsDefClass@@SAPAV1@W4TYPE@1@W4TEAM@1@@Z:PROC ; PurchaseSettingsDefClass::Find_Definition
EXTRN	?Detach@JFW_Key_Hook_Base@@UAEXPAVScriptableGameObj@@@Z:PROC ; JFW_Key_Hook_Base::Detach
EXTRN	?Destroyed@JFW_Key_Hook_Base@@UAEXPAVScriptableGameObj@@@Z:PROC ; JFW_Key_Hook_Base::Destroyed
EXTRN	??1JFW_Key_Hook_Base@@UAE@XZ:PROC		; JFW_Key_Hook_Base::~JFW_Key_Hook_Base
EXTRN	?Detach@MultiKeyHookScriptImpClass@@UAEXPAVScriptableGameObj@@@Z:PROC ; MultiKeyHookScriptImpClass::Detach
EXTRN	?Destroyed@MultiKeyHookScriptImpClass@@UAEXPAVScriptableGameObj@@@Z:PROC ; MultiKeyHookScriptImpClass::Destroyed
EXTRN	??_E?$SList@UKeyHookWrapperStruct@MultiKeyHookScriptImpClass@@@@UAEPAXI@Z:PROC ; SList<MultiKeyHookScriptImpClass::KeyHookWrapperStruct>::`vector deleting destructor'
EXTRN	?Detach@JFW_Object_Created_Hook_Base@@UAEXPAVScriptableGameObj@@@Z:PROC ; JFW_Object_Created_Hook_Base::Detach
EXTRN	?Created@JFW_Object_Created_Hook_Base@@UAEXPAVScriptableGameObj@@@Z:PROC ; JFW_Object_Created_Hook_Base::Created
EXTRN	??1JFW_Object_Created_Hook_Base@@UAE@XZ:PROC	; JFW_Object_Created_Hook_Base::~JFW_Object_Created_Hook_Base
EXTRN	?Can_Team_Build_Vehicle@@YA_NH@Z:PROC		; Can_Team_Build_Vehicle
EXTRN	??_E?$SimpleVecClass@PAUUnitInfo@@@@UAEPAXI@Z:PROC ; SimpleVecClass<UnitInfo *>::`vector deleting destructor'
EXTRN	??_E?$SimpleDynVecClass@PAUUnitInfo@@@@UAEPAXI@Z:PROC ; SimpleDynVecClass<UnitInfo *>::`vector deleting destructor'
EXTRN	??_E?$SimpleVecClass@PAUCreationPos@@@@UAEPAXI@Z:PROC ; SimpleVecClass<CreationPos *>::`vector deleting destructor'
EXTRN	??_E?$SimpleDynVecClass@PAUCreationPos@@@@UAEPAXI@Z:PROC ; SimpleDynVecClass<CreationPos *>::`vector deleting destructor'
EXTRN	??_EMDB_ExpVehFac_Helipad@@UAEPAXI@Z:PROC	; MDB_ExpVehFac_Helipad::`vector deleting destructor'
EXTRN	??_EMDB_ExpVehFac_Naval@@UAEPAXI@Z:PROC		; MDB_ExpVehFac_Naval::`vector deleting destructor'
EXTRN	??_EMDB_ExpVehFac_Vehicle_Factory@@UAEPAXI@Z:PROC ; MDB_ExpVehFac_Vehicle_Factory::`vector deleting destructor'
EXTRN	??_EMDB_ExpVehFac_Cinematic@@UAEPAXI@Z:PROC	; MDB_ExpVehFac_Cinematic::`vector deleting destructor'
EXTRN	??_EMDB_ExpVehFac_Cinematic_Vehicle@@UAEPAXI@Z:PROC ; MDB_ExpVehFac_Cinematic_Vehicle::`vector deleting destructor'
EXTRN	??_EMDB_ExpVehFac_Limit@@UAEPAXI@Z:PROC		; MDB_ExpVehFac_Limit::`vector deleting destructor'
EXTRN	??_E?$SimpleDynVecClass@I@@UAEPAXI@Z:PROC	; SimpleDynVecClass<unsigned int>::`vector deleting destructor'
EXTRN	??_E?$SimpleVecClass@PAVScriptableGameObj@@@@UAEPAXI@Z:PROC ; SimpleVecClass<ScriptableGameObj *>::`vector deleting destructor'
EXTRN	??_E?$SimpleDynVecClass@PAVScriptableGameObj@@@@UAEPAXI@Z:PROC ; SimpleDynVecClass<ScriptableGameObj *>::`vector deleting destructor'
EXTRN	??_E?$ScriptRegistrant@VMDB_ExpVehFac_Helipad@@@@UAEPAXI@Z:PROC ; ScriptRegistrant<MDB_ExpVehFac_Helipad>::`vector deleting destructor'
EXTRN	??_E?$ScriptRegistrant@VMDB_ExpVehFac_Naval@@@@UAEPAXI@Z:PROC ; ScriptRegistrant<MDB_ExpVehFac_Naval>::`vector deleting destructor'
EXTRN	??_E?$ScriptRegistrant@VMDB_ExpVehFac_Vehicle_Factory@@@@UAEPAXI@Z:PROC ; ScriptRegistrant<MDB_ExpVehFac_Vehicle_Factory>::`vector deleting destructor'
EXTRN	??_E?$ScriptRegistrant@VMDB_ExpVehFac_Cinematic@@@@UAEPAXI@Z:PROC ; ScriptRegistrant<MDB_ExpVehFac_Cinematic>::`vector deleting destructor'
EXTRN	??_E?$ScriptRegistrant@VMDB_ExpVehFac_Cinematic_Vehicle@@@@UAEPAXI@Z:PROC ; ScriptRegistrant<MDB_ExpVehFac_Cinematic_Vehicle>::`vector deleting destructor'
EXTRN	??_E?$ScriptRegistrant@VMDB_ExpVehFac_Limit@@@@UAEPAXI@Z:PROC ; ScriptRegistrant<MDB_ExpVehFac_Limit>::`vector deleting destructor'
EXTRN	__CIatan2:PROC
EXTRN	__libm_sse2_acos_precise:PROC
EXTRN	__libm_sse2_asin_precise:PROC
EXTRN	__libm_sse2_atan_precise:PROC
EXTRN	__libm_sse2_cos_precise:PROC
EXTRN	__libm_sse2_sin_precise:PROC
EXTRN	__libm_sse2_sqrt_precise:PROC
EXTRN	__libm_sse2_tan_precise:PROC
EXTRN	_floor:PROC
EXTRN	_memcpy:PROC
EXTRN	??_7type_info@@6B@:QWORD			; type_info::`vftable'
EXTRN	?_FastAcosTable@@3AAV?$RefArrayHelper@M$0EAA@@@A:DWORD ; _FastAcosTable
EXTRN	?_FastAsinTable@@3AAV?$RefArrayHelper@M$0EAA@@@A:DWORD ; _FastAsinTable
EXTRN	?_FastSinTable@@3AAV?$RefArrayHelper@M$0EAA@@@A:DWORD ; _FastSinTable
EXTRN	?Commands@@3PAUScriptCommands@@A:DWORD		; Commands
EXTRN	?AddObjectCreateHook@@3P6AHPAUObjectCreateHookStruct@@@ZA:DWORD ; AddObjectCreateHook
EXTRN	?RemoveObjectCreateHook@@3P6AXH@ZA:DWORD	; RemoveObjectCreateHook
EXTRN	?AddVehiclePurchaseHook@@3P6AHP6AHPAVBaseControllerClass@@PAVScriptableGameObj@@IIPBD@Z2@ZA:DWORD ; AddVehiclePurchaseHook
EXTRN	?RemoveVehiclePurchaseHook@@3P6AXH@ZA:DWORD	; RemoveVehiclePurchaseHook
EXTRN	?Set_Vehicle_Limit@@3P6AXI@ZA:DWORD		; Set_Vehicle_Limit
EXTRN	?Get_Vehicle_Limit@@3P6AKXZA:DWORD		; Get_Vehicle_Limit
EXTRN	?Send_Message_Player@@3P6AXPAVScriptableGameObj@@IIIPBD@ZA:DWORD ; Send_Message_Player
EXTRN	?Get_Build_Time_Multiplier@@3P6AMH@ZA:DWORD	; Get_Build_Time_Multiplier
EXTRN	?Set_Currently_Building@@3P6AX_NH@ZA:DWORD	; Set_Currently_Building
EXTRN	__fltused:DWORD
_BSS	SEGMENT
?MDB_ExpVehFac_Helipad_Registrant@@3V?$ScriptRegistrant@VMDB_ExpVehFac_Helipad@@@@A DB 010H DUP (?) ; MDB_ExpVehFac_Helipad_Registrant
?MDB_ExpVehFac_Naval_Registrant@@3V?$ScriptRegistrant@VMDB_ExpVehFac_Naval@@@@A DB 010H DUP (?) ; MDB_ExpVehFac_Naval_Registrant
?MDB_ExpVehFac_Vehicle_Factory_Registrant@@3V?$ScriptRegistrant@VMDB_ExpVehFac_Vehicle_Factory@@@@A DB 010H DUP (?) ; MDB_ExpVehFac_Vehicle_Factory_Registrant
?MDB_ExpVehFac_Cinematic_Registrant@@3V?$ScriptRegistrant@VMDB_ExpVehFac_Cinematic@@@@A DB 010H DUP (?) ; MDB_ExpVehFac_Cinematic_Registrant
?MDB_ExpVehFac_Cinematic_Vehicle_Registrant@@3V?$ScriptRegistrant@VMDB_ExpVehFac_Cinematic_Vehicle@@@@A DB 010H DUP (?) ; MDB_ExpVehFac_Cinematic_Vehicle_Registrant
?MDB_ExpVehFac_Limit_Registrant@@3V?$ScriptRegistrant@VMDB_ExpVehFac_Limit@@@@A DB 010H DUP (?) ; MDB_ExpVehFac_Limit_Registrant
_BSS	ENDS
;	COMDAT ?instancex@?1??getInstance@?$Singleton@V?$ObjectPoolClass@VGenericSLNode@@$0BAA@@@@@SAAAV?$ObjectPoolClass@VGenericSLNode@@$0BAA@@@XZ@4V3@A
_BSS	SEGMENT
?instancex@?1??getInstance@?$Singleton@V?$ObjectPoolClass@VGenericSLNode@@$0BAA@@@@@SAAAV?$ObjectPoolClass@VGenericSLNode@@$0BAA@@@XZ@4V3@A DB 014H DUP (?) ; `Singleton<ObjectPoolClass<GenericSLNode,256> >::getInstance'::`2'::instancex
_BSS	ENDS
;	COMDAT ??_B?1??getInstance@?$Singleton@V?$ObjectPoolClass@VGenericSLNode@@$0BAA@@@@@SAAAV?$ObjectPoolClass@VGenericSLNode@@$0BAA@@@XZ@51
_BSS	SEGMENT
??_B?1??getInstance@?$Singleton@V?$ObjectPoolClass@VGenericSLNode@@$0BAA@@@@@SAAAV?$ObjectPoolClass@VGenericSLNode@@$0BAA@@@XZ@51 DD 01H DUP (?) ; `Singleton<ObjectPoolClass<GenericSLNode,256> >::getInstance'::`2'::`local static guard'
_BSS	ENDS
CRT$XCU	SEGMENT
_MDB_ExpVehFac_Helipad_Registrant$initializer$ DD FLAT:??__EMDB_ExpVehFac_Helipad_Registrant@@YAXXZ
CRT$XCU	ENDS
;	COMDAT __xmm@80000000800000008000000080000000
CONST	SEGMENT
__xmm@80000000800000008000000080000000 DB 00H, 00H, 00H, 080H, 00H, 00H, 00H
	DB	080H, 00H, 00H, 00H, 080H, 00H, 00H, 00H, 080H
CONST	ENDS
;	COMDAT __xmm@80000000000000008000000000000000
CONST	SEGMENT
__xmm@80000000000000008000000000000000 DB 00H, 00H, 00H, 00H, 00H, 00H, 00H
	DB	080H, 00H, 00H, 00H, 00H, 00H, 00H, 00H, 080H
CONST	ENDS
;	COMDAT __real@c0000000
CONST	SEGMENT
__real@c0000000 DD 0c0000000r			; -2
CONST	ENDS
;	COMDAT __real@bf800000
CONST	SEGMENT
__real@bf800000 DD 0bf800000r			; -1
CONST	ENDS
;	COMDAT __real@47c34f80
CONST	SEGMENT
__real@47c34f80 DD 047c34f80r			; 99999
CONST	ENDS
;	COMDAT __real@44800000
CONST	SEGMENT
__real@44800000 DD 044800000r			; 1024
CONST	ENDS
;	COMDAT __real@44000000
CONST	SEGMENT
__real@44000000 DD 044000000r			; 512
CONST	ENDS
;	COMDAT __real@437f0000
CONST	SEGMENT
__real@437f0000 DD 0437f0000r			; 255
CONST	ENDS
;	COMDAT __real@40c90fdb
CONST	SEGMENT
__real@40c90fdb DD 040c90fdbr			; 6.28319
CONST	ENDS
;	COMDAT __real@40a00000
CONST	SEGMENT
__real@40a00000 DD 040a00000r			; 5
CONST	ENDS
;	COMDAT __real@4000000000000000
CONST	SEGMENT
__real@4000000000000000 DQ 04000000000000000r	; 2
CONST	ENDS
;	COMDAT __real@40000000
CONST	SEGMENT
__real@40000000 DD 040000000r			; 2
CONST	ENDS
;	COMDAT __real@3ff0000000000000
CONST	SEGMENT
__real@3ff0000000000000 DQ 03ff0000000000000r	; 1
CONST	ENDS
;	COMDAT __real@3fe0000000000000
CONST	SEGMENT
__real@3fe0000000000000 DQ 03fe0000000000000r	; 0.5
CONST	ENDS
;	COMDAT __real@3fc90fdb
CONST	SEGMENT
__real@3fc90fdb DD 03fc90fdbr			; 1.5708
CONST	ENDS
;	COMDAT __real@3f800000
CONST	SEGMENT
__real@3f800000 DD 03f800000r			; 1
CONST	ENDS
;	COMDAT __real@3f79999a
CONST	SEGMENT
__real@3f79999a DD 03f79999ar			; 0.975
CONST	ENDS
;	COMDAT __real@3f000000
CONST	SEGMENT
__real@3f000000 DD 03f000000r			; 0.5
CONST	ENDS
;	COMDAT __real@02081cea
CONST	SEGMENT
__real@02081cea DD 002081cear			; 1e-037
CONST	ENDS
;	COMDAT __real@0000000000000000
CONST	SEGMENT
__real@0000000000000000 DQ 00000000000000000r	; 0
CONST	ENDS
;	COMDAT __real@00000000
CONST	SEGMENT
__real@00000000 DD 000000000r			; 0
CONST	ENDS
;	COMDAT ??_R1A@?0A@EA@?$ScriptRegistrant@VMDB_ExpVehFac_Limit@@@@8
rdata$r	SEGMENT
??_R1A@?0A@EA@?$ScriptRegistrant@VMDB_ExpVehFac_Limit@@@@8 DD FLAT:??_R0?AV?$ScriptRegistrant@VMDB_ExpVehFac_Limit@@@@@8 ; ScriptRegistrant<MDB_ExpVehFac_Limit>::`RTTI Base Class Descriptor at (0,-1,0,64)'
	DD	01H
	DD	00H
	DD	0ffffffffH
	DD	00H
	DD	040H
	DD	FLAT:??_R3?$ScriptRegistrant@VMDB_ExpVehFac_Limit@@@@8
rdata$r	ENDS
;	COMDAT ??_R2?$ScriptRegistrant@VMDB_ExpVehFac_Limit@@@@8
rdata$r	SEGMENT
??_R2?$ScriptRegistrant@VMDB_ExpVehFac_Limit@@@@8 DD FLAT:??_R1A@?0A@EA@?$ScriptRegistrant@VMDB_ExpVehFac_Limit@@@@8 ; ScriptRegistrant<MDB_ExpVehFac_Limit>::`RTTI Base Class Array'
	DD	FLAT:??_R1A@?0A@EA@ScriptFactory@@8
rdata$r	ENDS
;	COMDAT ??_R3?$ScriptRegistrant@VMDB_ExpVehFac_Limit@@@@8
rdata$r	SEGMENT
??_R3?$ScriptRegistrant@VMDB_ExpVehFac_Limit@@@@8 DD 00H ; ScriptRegistrant<MDB_ExpVehFac_Limit>::`RTTI Class Hierarchy Descriptor'
	DD	00H
	DD	02H
	DD	FLAT:??_R2?$ScriptRegistrant@VMDB_ExpVehFac_Limit@@@@8
rdata$r	ENDS
;	COMDAT ??_R0?AV?$ScriptRegistrant@VMDB_ExpVehFac_Limit@@@@@8
_DATA	SEGMENT
??_R0?AV?$ScriptRegistrant@VMDB_ExpVehFac_Limit@@@@@8 DD FLAT:??_7type_info@@6B@ ; ScriptRegistrant<MDB_ExpVehFac_Limit> `RTTI Type Descriptor'
	DD	00H
	DB	'.?AV?$ScriptRegistrant@VMDB_ExpVehFac_Limit@@@@', 00H
_DATA	ENDS
;	COMDAT ??_R4?$ScriptRegistrant@VMDB_ExpVehFac_Limit@@@@6B@
rdata$r	SEGMENT
??_R4?$ScriptRegistrant@VMDB_ExpVehFac_Limit@@@@6B@ DD 00H ; ScriptRegistrant<MDB_ExpVehFac_Limit>::`RTTI Complete Object Locator'
	DD	00H
	DD	00H
	DD	FLAT:??_R0?AV?$ScriptRegistrant@VMDB_ExpVehFac_Limit@@@@@8
	DD	FLAT:??_R3?$ScriptRegistrant@VMDB_ExpVehFac_Limit@@@@8
rdata$r	ENDS
;	COMDAT ??_R1A@?0A@EA@?$ScriptRegistrant@VMDB_ExpVehFac_Cinematic_Vehicle@@@@8
rdata$r	SEGMENT
??_R1A@?0A@EA@?$ScriptRegistrant@VMDB_ExpVehFac_Cinematic_Vehicle@@@@8 DD FLAT:??_R0?AV?$ScriptRegistrant@VMDB_ExpVehFac_Cinematic_Vehicle@@@@@8 ; ScriptRegistrant<MDB_ExpVehFac_Cinematic_Vehicle>::`RTTI Base Class Descriptor at (0,-1,0,64)'
	DD	01H
	DD	00H
	DD	0ffffffffH
	DD	00H
	DD	040H
	DD	FLAT:??_R3?$ScriptRegistrant@VMDB_ExpVehFac_Cinematic_Vehicle@@@@8
rdata$r	ENDS
;	COMDAT ??_R2?$ScriptRegistrant@VMDB_ExpVehFac_Cinematic_Vehicle@@@@8
rdata$r	SEGMENT
??_R2?$ScriptRegistrant@VMDB_ExpVehFac_Cinematic_Vehicle@@@@8 DD FLAT:??_R1A@?0A@EA@?$ScriptRegistrant@VMDB_ExpVehFac_Cinematic_Vehicle@@@@8 ; ScriptRegistrant<MDB_ExpVehFac_Cinematic_Vehicle>::`RTTI Base Class Array'
	DD	FLAT:??_R1A@?0A@EA@ScriptFactory@@8
rdata$r	ENDS
;	COMDAT ??_R3?$ScriptRegistrant@VMDB_ExpVehFac_Cinematic_Vehicle@@@@8
rdata$r	SEGMENT
??_R3?$ScriptRegistrant@VMDB_ExpVehFac_Cinematic_Vehicle@@@@8 DD 00H ; ScriptRegistrant<MDB_ExpVehFac_Cinematic_Vehicle>::`RTTI Class Hierarchy Descriptor'
	DD	00H
	DD	02H
	DD	FLAT:??_R2?$ScriptRegistrant@VMDB_ExpVehFac_Cinematic_Vehicle@@@@8
rdata$r	ENDS
;	COMDAT ??_R0?AV?$ScriptRegistrant@VMDB_ExpVehFac_Cinematic_Vehicle@@@@@8
_DATA	SEGMENT
??_R0?AV?$ScriptRegistrant@VMDB_ExpVehFac_Cinematic_Vehicle@@@@@8 DD FLAT:??_7type_info@@6B@ ; ScriptRegistrant<MDB_ExpVehFac_Cinematic_Vehicle> `RTTI Type Descriptor'
	DD	00H
	DB	'.?AV?$ScriptRegistrant@VMDB_ExpVehFac_Cinematic_Vehicle@'
	DB	'@@@', 00H
_DATA	ENDS
;	COMDAT ??_R4?$ScriptRegistrant@VMDB_ExpVehFac_Cinematic_Vehicle@@@@6B@
rdata$r	SEGMENT
??_R4?$ScriptRegistrant@VMDB_ExpVehFac_Cinematic_Vehicle@@@@6B@ DD 00H ; ScriptRegistrant<MDB_ExpVehFac_Cinematic_Vehicle>::`RTTI Complete Object Locator'
	DD	00H
	DD	00H
	DD	FLAT:??_R0?AV?$ScriptRegistrant@VMDB_ExpVehFac_Cinematic_Vehicle@@@@@8
	DD	FLAT:??_R3?$ScriptRegistrant@VMDB_ExpVehFac_Cinematic_Vehicle@@@@8
rdata$r	ENDS
;	COMDAT ??_R1A@?0A@EA@?$ScriptRegistrant@VMDB_ExpVehFac_Cinematic@@@@8
rdata$r	SEGMENT
??_R1A@?0A@EA@?$ScriptRegistrant@VMDB_ExpVehFac_Cinematic@@@@8 DD FLAT:??_R0?AV?$ScriptRegistrant@VMDB_ExpVehFac_Cinematic@@@@@8 ; ScriptRegistrant<MDB_ExpVehFac_Cinematic>::`RTTI Base Class Descriptor at (0,-1,0,64)'
	DD	01H
	DD	00H
	DD	0ffffffffH
	DD	00H
	DD	040H
	DD	FLAT:??_R3?$ScriptRegistrant@VMDB_ExpVehFac_Cinematic@@@@8
rdata$r	ENDS
;	COMDAT ??_R2?$ScriptRegistrant@VMDB_ExpVehFac_Cinematic@@@@8
rdata$r	SEGMENT
??_R2?$ScriptRegistrant@VMDB_ExpVehFac_Cinematic@@@@8 DD FLAT:??_R1A@?0A@EA@?$ScriptRegistrant@VMDB_ExpVehFac_Cinematic@@@@8 ; ScriptRegistrant<MDB_ExpVehFac_Cinematic>::`RTTI Base Class Array'
	DD	FLAT:??_R1A@?0A@EA@ScriptFactory@@8
rdata$r	ENDS
;	COMDAT ??_R3?$ScriptRegistrant@VMDB_ExpVehFac_Cinematic@@@@8
rdata$r	SEGMENT
??_R3?$ScriptRegistrant@VMDB_ExpVehFac_Cinematic@@@@8 DD 00H ; ScriptRegistrant<MDB_ExpVehFac_Cinematic>::`RTTI Class Hierarchy Descriptor'
	DD	00H
	DD	02H
	DD	FLAT:??_R2?$ScriptRegistrant@VMDB_ExpVehFac_Cinematic@@@@8
rdata$r	ENDS
;	COMDAT ??_R0?AV?$ScriptRegistrant@VMDB_ExpVehFac_Cinematic@@@@@8
_DATA	SEGMENT
??_R0?AV?$ScriptRegistrant@VMDB_ExpVehFac_Cinematic@@@@@8 DD FLAT:??_7type_info@@6B@ ; ScriptRegistrant<MDB_ExpVehFac_Cinematic> `RTTI Type Descriptor'
	DD	00H
	DB	'.?AV?$ScriptRegistrant@VMDB_ExpVehFac_Cinematic@@@@', 00H
_DATA	ENDS
;	COMDAT ??_R4?$ScriptRegistrant@VMDB_ExpVehFac_Cinematic@@@@6B@
rdata$r	SEGMENT
??_R4?$ScriptRegistrant@VMDB_ExpVehFac_Cinematic@@@@6B@ DD 00H ; ScriptRegistrant<MDB_ExpVehFac_Cinematic>::`RTTI Complete Object Locator'
	DD	00H
	DD	00H
	DD	FLAT:??_R0?AV?$ScriptRegistrant@VMDB_ExpVehFac_Cinematic@@@@@8
	DD	FLAT:??_R3?$ScriptRegistrant@VMDB_ExpVehFac_Cinematic@@@@8
rdata$r	ENDS
;	COMDAT ??_R1A@?0A@EA@?$ScriptRegistrant@VMDB_ExpVehFac_Vehicle_Factory@@@@8
rdata$r	SEGMENT
??_R1A@?0A@EA@?$ScriptRegistrant@VMDB_ExpVehFac_Vehicle_Factory@@@@8 DD FLAT:??_R0?AV?$ScriptRegistrant@VMDB_ExpVehFac_Vehicle_Factory@@@@@8 ; ScriptRegistrant<MDB_ExpVehFac_Vehicle_Factory>::`RTTI Base Class Descriptor at (0,-1,0,64)'
	DD	01H
	DD	00H
	DD	0ffffffffH
	DD	00H
	DD	040H
	DD	FLAT:??_R3?$ScriptRegistrant@VMDB_ExpVehFac_Vehicle_Factory@@@@8
rdata$r	ENDS
;	COMDAT ??_R2?$ScriptRegistrant@VMDB_ExpVehFac_Vehicle_Factory@@@@8
rdata$r	SEGMENT
??_R2?$ScriptRegistrant@VMDB_ExpVehFac_Vehicle_Factory@@@@8 DD FLAT:??_R1A@?0A@EA@?$ScriptRegistrant@VMDB_ExpVehFac_Vehicle_Factory@@@@8 ; ScriptRegistrant<MDB_ExpVehFac_Vehicle_Factory>::`RTTI Base Class Array'
	DD	FLAT:??_R1A@?0A@EA@ScriptFactory@@8
rdata$r	ENDS
;	COMDAT ??_R3?$ScriptRegistrant@VMDB_ExpVehFac_Vehicle_Factory@@@@8
rdata$r	SEGMENT
??_R3?$ScriptRegistrant@VMDB_ExpVehFac_Vehicle_Factory@@@@8 DD 00H ; ScriptRegistrant<MDB_ExpVehFac_Vehicle_Factory>::`RTTI Class Hierarchy Descriptor'
	DD	00H
	DD	02H
	DD	FLAT:??_R2?$ScriptRegistrant@VMDB_ExpVehFac_Vehicle_Factory@@@@8
rdata$r	ENDS
;	COMDAT ??_R0?AV?$ScriptRegistrant@VMDB_ExpVehFac_Vehicle_Factory@@@@@8
_DATA	SEGMENT
??_R0?AV?$ScriptRegistrant@VMDB_ExpVehFac_Vehicle_Factory@@@@@8 DD FLAT:??_7type_info@@6B@ ; ScriptRegistrant<MDB_ExpVehFac_Vehicle_Factory> `RTTI Type Descriptor'
	DD	00H
	DB	'.?AV?$ScriptRegistrant@VMDB_ExpVehFac_Vehicle_Factory@@@'
	DB	'@', 00H
_DATA	ENDS
;	COMDAT ??_R4?$ScriptRegistrant@VMDB_ExpVehFac_Vehicle_Factory@@@@6B@
rdata$r	SEGMENT
??_R4?$ScriptRegistrant@VMDB_ExpVehFac_Vehicle_Factory@@@@6B@ DD 00H ; ScriptRegistrant<MDB_ExpVehFac_Vehicle_Factory>::`RTTI Complete Object Locator'
	DD	00H
	DD	00H
	DD	FLAT:??_R0?AV?$ScriptRegistrant@VMDB_ExpVehFac_Vehicle_Factory@@@@@8
	DD	FLAT:??_R3?$ScriptRegistrant@VMDB_ExpVehFac_Vehicle_Factory@@@@8
rdata$r	ENDS
;	COMDAT ??_R1A@?0A@EA@?$ScriptRegistrant@VMDB_ExpVehFac_Naval@@@@8
rdata$r	SEGMENT
??_R1A@?0A@EA@?$ScriptRegistrant@VMDB_ExpVehFac_Naval@@@@8 DD FLAT:??_R0?AV?$ScriptRegistrant@VMDB_ExpVehFac_Naval@@@@@8 ; ScriptRegistrant<MDB_ExpVehFac_Naval>::`RTTI Base Class Descriptor at (0,-1,0,64)'
	DD	01H
	DD	00H
	DD	0ffffffffH
	DD	00H
	DD	040H
	DD	FLAT:??_R3?$ScriptRegistrant@VMDB_ExpVehFac_Naval@@@@8
rdata$r	ENDS
;	COMDAT ??_R2?$ScriptRegistrant@VMDB_ExpVehFac_Naval@@@@8
rdata$r	SEGMENT
??_R2?$ScriptRegistrant@VMDB_ExpVehFac_Naval@@@@8 DD FLAT:??_R1A@?0A@EA@?$ScriptRegistrant@VMDB_ExpVehFac_Naval@@@@8 ; ScriptRegistrant<MDB_ExpVehFac_Naval>::`RTTI Base Class Array'
	DD	FLAT:??_R1A@?0A@EA@ScriptFactory@@8
rdata$r	ENDS
;	COMDAT ??_R3?$ScriptRegistrant@VMDB_ExpVehFac_Naval@@@@8
rdata$r	SEGMENT
??_R3?$ScriptRegistrant@VMDB_ExpVehFac_Naval@@@@8 DD 00H ; ScriptRegistrant<MDB_ExpVehFac_Naval>::`RTTI Class Hierarchy Descriptor'
	DD	00H
	DD	02H
	DD	FLAT:??_R2?$ScriptRegistrant@VMDB_ExpVehFac_Naval@@@@8
rdata$r	ENDS
;	COMDAT ??_R0?AV?$ScriptRegistrant@VMDB_ExpVehFac_Naval@@@@@8
_DATA	SEGMENT
??_R0?AV?$ScriptRegistrant@VMDB_ExpVehFac_Naval@@@@@8 DD FLAT:??_7type_info@@6B@ ; ScriptRegistrant<MDB_ExpVehFac_Naval> `RTTI Type Descriptor'
	DD	00H
	DB	'.?AV?$ScriptRegistrant@VMDB_ExpVehFac_Naval@@@@', 00H
_DATA	ENDS
;	COMDAT ??_R4?$ScriptRegistrant@VMDB_ExpVehFac_Naval@@@@6B@
rdata$r	SEGMENT
??_R4?$ScriptRegistrant@VMDB_ExpVehFac_Naval@@@@6B@ DD 00H ; ScriptRegistrant<MDB_ExpVehFac_Naval>::`RTTI Complete Object Locator'
	DD	00H
	DD	00H
	DD	FLAT:??_R0?AV?$ScriptRegistrant@VMDB_ExpVehFac_Naval@@@@@8
	DD	FLAT:??_R3?$ScriptRegistrant@VMDB_ExpVehFac_Naval@@@@8
rdata$r	ENDS
;	COMDAT ??_R1A@?0A@EA@?$ScriptRegistrant@VMDB_ExpVehFac_Helipad@@@@8
rdata$r	SEGMENT
??_R1A@?0A@EA@?$ScriptRegistrant@VMDB_ExpVehFac_Helipad@@@@8 DD FLAT:??_R0?AV?$ScriptRegistrant@VMDB_ExpVehFac_Helipad@@@@@8 ; ScriptRegistrant<MDB_ExpVehFac_Helipad>::`RTTI Base Class Descriptor at (0,-1,0,64)'
	DD	01H
	DD	00H
	DD	0ffffffffH
	DD	00H
	DD	040H
	DD	FLAT:??_R3?$ScriptRegistrant@VMDB_ExpVehFac_Helipad@@@@8
rdata$r	ENDS
;	COMDAT ??_R2?$ScriptRegistrant@VMDB_ExpVehFac_Helipad@@@@8
rdata$r	SEGMENT
??_R2?$ScriptRegistrant@VMDB_ExpVehFac_Helipad@@@@8 DD FLAT:??_R1A@?0A@EA@?$ScriptRegistrant@VMDB_ExpVehFac_Helipad@@@@8 ; ScriptRegistrant<MDB_ExpVehFac_Helipad>::`RTTI Base Class Array'
	DD	FLAT:??_R1A@?0A@EA@ScriptFactory@@8
rdata$r	ENDS
;	COMDAT ??_R3?$ScriptRegistrant@VMDB_ExpVehFac_Helipad@@@@8
rdata$r	SEGMENT
??_R3?$ScriptRegistrant@VMDB_ExpVehFac_Helipad@@@@8 DD 00H ; ScriptRegistrant<MDB_ExpVehFac_Helipad>::`RTTI Class Hierarchy Descriptor'
	DD	00H
	DD	02H
	DD	FLAT:??_R2?$ScriptRegistrant@VMDB_ExpVehFac_Helipad@@@@8
rdata$r	ENDS
;	COMDAT ??_R0?AV?$ScriptRegistrant@VMDB_ExpVehFac_Helipad@@@@@8
_DATA	SEGMENT
??_R0?AV?$ScriptRegistrant@VMDB_ExpVehFac_Helipad@@@@@8 DD FLAT:??_7type_info@@6B@ ; ScriptRegistrant<MDB_ExpVehFac_Helipad> `RTTI Type Descriptor'
	DD	00H
	DB	'.?AV?$ScriptRegistrant@VMDB_ExpVehFac_Helipad@@@@', 00H
_DATA	ENDS
;	COMDAT ??_R4?$ScriptRegistrant@VMDB_ExpVehFac_Helipad@@@@6B@
rdata$r	SEGMENT
??_R4?$ScriptRegistrant@VMDB_ExpVehFac_Helipad@@@@6B@ DD 00H ; ScriptRegistrant<MDB_ExpVehFac_Helipad>::`RTTI Complete Object Locator'
	DD	00H
	DD	00H
	DD	FLAT:??_R0?AV?$ScriptRegistrant@VMDB_ExpVehFac_Helipad@@@@@8
	DD	FLAT:??_R3?$ScriptRegistrant@VMDB_ExpVehFac_Helipad@@@@8
rdata$r	ENDS
;	COMDAT ??_R4?$SimpleVecClass@PAVScriptableGameObj@@@@6B@
rdata$r	SEGMENT
??_R4?$SimpleVecClass@PAVScriptableGameObj@@@@6B@ DD 00H ; SimpleVecClass<ScriptableGameObj *>::`RTTI Complete Object Locator'
	DD	00H
	DD	00H
	DD	FLAT:??_R0?AV?$SimpleVecClass@PAVScriptableGameObj@@@@@8
	DD	FLAT:??_R3?$SimpleVecClass@PAVScriptableGameObj@@@@8
rdata$r	ENDS
;	COMDAT ??_R1A@?0A@EA@MDB_ExpVehFac_Limit@@8
rdata$r	SEGMENT
??_R1A@?0A@EA@MDB_ExpVehFac_Limit@@8 DD FLAT:??_R0?AVMDB_ExpVehFac_Limit@@@8 ; MDB_ExpVehFac_Limit::`RTTI Base Class Descriptor at (0,-1,0,64)'
	DD	03H
	DD	00H
	DD	0ffffffffH
	DD	00H
	DD	040H
	DD	FLAT:??_R3MDB_ExpVehFac_Limit@@8
rdata$r	ENDS
;	COMDAT ??_R2MDB_ExpVehFac_Limit@@8
rdata$r	SEGMENT
??_R2MDB_ExpVehFac_Limit@@8 DD FLAT:??_R1A@?0A@EA@MDB_ExpVehFac_Limit@@8 ; MDB_ExpVehFac_Limit::`RTTI Base Class Array'
	DD	FLAT:??_R1A@?0A@EA@ScriptImpClass@@8
	DD	FLAT:??_R1A@?0A@EA@ScriptClass@@8
	DD	FLAT:??_R1A@?0A@EA@GameObjObserverClass@@8
rdata$r	ENDS
;	COMDAT ??_R3MDB_ExpVehFac_Limit@@8
rdata$r	SEGMENT
??_R3MDB_ExpVehFac_Limit@@8 DD 00H			; MDB_ExpVehFac_Limit::`RTTI Class Hierarchy Descriptor'
	DD	00H
	DD	04H
	DD	FLAT:??_R2MDB_ExpVehFac_Limit@@8
rdata$r	ENDS
;	COMDAT ??_R0?AVMDB_ExpVehFac_Limit@@@8
_DATA	SEGMENT
??_R0?AVMDB_ExpVehFac_Limit@@@8 DD FLAT:??_7type_info@@6B@ ; MDB_ExpVehFac_Limit `RTTI Type Descriptor'
	DD	00H
	DB	'.?AVMDB_ExpVehFac_Limit@@', 00H
_DATA	ENDS
;	COMDAT ??_R4MDB_ExpVehFac_Limit@@6B@
rdata$r	SEGMENT
??_R4MDB_ExpVehFac_Limit@@6B@ DD 00H			; MDB_ExpVehFac_Limit::`RTTI Complete Object Locator'
	DD	00H
	DD	00H
	DD	FLAT:??_R0?AVMDB_ExpVehFac_Limit@@@8
	DD	FLAT:??_R3MDB_ExpVehFac_Limit@@8
rdata$r	ENDS
;	COMDAT ??_R1A@?0A@EA@MDB_ExpVehFac_Cinematic_Vehicle@@8
rdata$r	SEGMENT
??_R1A@?0A@EA@MDB_ExpVehFac_Cinematic_Vehicle@@8 DD FLAT:??_R0?AVMDB_ExpVehFac_Cinematic_Vehicle@@@8 ; MDB_ExpVehFac_Cinematic_Vehicle::`RTTI Base Class Descriptor at (0,-1,0,64)'
	DD	03H
	DD	00H
	DD	0ffffffffH
	DD	00H
	DD	040H
	DD	FLAT:??_R3MDB_ExpVehFac_Cinematic_Vehicle@@8
rdata$r	ENDS
;	COMDAT ??_R2MDB_ExpVehFac_Cinematic_Vehicle@@8
rdata$r	SEGMENT
??_R2MDB_ExpVehFac_Cinematic_Vehicle@@8 DD FLAT:??_R1A@?0A@EA@MDB_ExpVehFac_Cinematic_Vehicle@@8 ; MDB_ExpVehFac_Cinematic_Vehicle::`RTTI Base Class Array'
	DD	FLAT:??_R1A@?0A@EA@ScriptImpClass@@8
	DD	FLAT:??_R1A@?0A@EA@ScriptClass@@8
	DD	FLAT:??_R1A@?0A@EA@GameObjObserverClass@@8
rdata$r	ENDS
;	COMDAT ??_R3MDB_ExpVehFac_Cinematic_Vehicle@@8
rdata$r	SEGMENT
??_R3MDB_ExpVehFac_Cinematic_Vehicle@@8 DD 00H		; MDB_ExpVehFac_Cinematic_Vehicle::`RTTI Class Hierarchy Descriptor'
	DD	00H
	DD	04H
	DD	FLAT:??_R2MDB_ExpVehFac_Cinematic_Vehicle@@8
rdata$r	ENDS
;	COMDAT ??_R0?AVMDB_ExpVehFac_Cinematic_Vehicle@@@8
_DATA	SEGMENT
??_R0?AVMDB_ExpVehFac_Cinematic_Vehicle@@@8 DD FLAT:??_7type_info@@6B@ ; MDB_ExpVehFac_Cinematic_Vehicle `RTTI Type Descriptor'
	DD	00H
	DB	'.?AVMDB_ExpVehFac_Cinematic_Vehicle@@', 00H
_DATA	ENDS
;	COMDAT ??_R4MDB_ExpVehFac_Cinematic_Vehicle@@6B@
rdata$r	SEGMENT
??_R4MDB_ExpVehFac_Cinematic_Vehicle@@6B@ DD 00H	; MDB_ExpVehFac_Cinematic_Vehicle::`RTTI Complete Object Locator'
	DD	00H
	DD	00H
	DD	FLAT:??_R0?AVMDB_ExpVehFac_Cinematic_Vehicle@@@8
	DD	FLAT:??_R3MDB_ExpVehFac_Cinematic_Vehicle@@8
rdata$r	ENDS
;	COMDAT ??_R1A@?0A@EA@MDB_ExpVehFac_Cinematic@@8
rdata$r	SEGMENT
??_R1A@?0A@EA@MDB_ExpVehFac_Cinematic@@8 DD FLAT:??_R0?AVMDB_ExpVehFac_Cinematic@@@8 ; MDB_ExpVehFac_Cinematic::`RTTI Base Class Descriptor at (0,-1,0,64)'
	DD	03H
	DD	00H
	DD	0ffffffffH
	DD	00H
	DD	040H
	DD	FLAT:??_R3MDB_ExpVehFac_Cinematic@@8
rdata$r	ENDS
;	COMDAT ??_R2MDB_ExpVehFac_Cinematic@@8
rdata$r	SEGMENT
??_R2MDB_ExpVehFac_Cinematic@@8 DD FLAT:??_R1A@?0A@EA@MDB_ExpVehFac_Cinematic@@8 ; MDB_ExpVehFac_Cinematic::`RTTI Base Class Array'
	DD	FLAT:??_R1A@?0A@EA@ScriptImpClass@@8
	DD	FLAT:??_R1A@?0A@EA@ScriptClass@@8
	DD	FLAT:??_R1A@?0A@EA@GameObjObserverClass@@8
rdata$r	ENDS
;	COMDAT ??_R3MDB_ExpVehFac_Cinematic@@8
rdata$r	SEGMENT
??_R3MDB_ExpVehFac_Cinematic@@8 DD 00H			; MDB_ExpVehFac_Cinematic::`RTTI Class Hierarchy Descriptor'
	DD	00H
	DD	04H
	DD	FLAT:??_R2MDB_ExpVehFac_Cinematic@@8
rdata$r	ENDS
;	COMDAT ??_R0?AVMDB_ExpVehFac_Cinematic@@@8
_DATA	SEGMENT
??_R0?AVMDB_ExpVehFac_Cinematic@@@8 DD FLAT:??_7type_info@@6B@ ; MDB_ExpVehFac_Cinematic `RTTI Type Descriptor'
	DD	00H
	DB	'.?AVMDB_ExpVehFac_Cinematic@@', 00H
_DATA	ENDS
;	COMDAT ??_R4MDB_ExpVehFac_Cinematic@@6B@
rdata$r	SEGMENT
??_R4MDB_ExpVehFac_Cinematic@@6B@ DD 00H		; MDB_ExpVehFac_Cinematic::`RTTI Complete Object Locator'
	DD	00H
	DD	00H
	DD	FLAT:??_R0?AVMDB_ExpVehFac_Cinematic@@@8
	DD	FLAT:??_R3MDB_ExpVehFac_Cinematic@@8
rdata$r	ENDS
;	COMDAT ??_R1A@?0A@EA@MDB_ExpVehFac_Vehicle_Factory@@8
rdata$r	SEGMENT
??_R1A@?0A@EA@MDB_ExpVehFac_Vehicle_Factory@@8 DD FLAT:??_R0?AVMDB_ExpVehFac_Vehicle_Factory@@@8 ; MDB_ExpVehFac_Vehicle_Factory::`RTTI Base Class Descriptor at (0,-1,0,64)'
	DD	03H
	DD	00H
	DD	0ffffffffH
	DD	00H
	DD	040H
	DD	FLAT:??_R3MDB_ExpVehFac_Vehicle_Factory@@8
rdata$r	ENDS
;	COMDAT ??_R2MDB_ExpVehFac_Vehicle_Factory@@8
rdata$r	SEGMENT
??_R2MDB_ExpVehFac_Vehicle_Factory@@8 DD FLAT:??_R1A@?0A@EA@MDB_ExpVehFac_Vehicle_Factory@@8 ; MDB_ExpVehFac_Vehicle_Factory::`RTTI Base Class Array'
	DD	FLAT:??_R1A@?0A@EA@ScriptImpClass@@8
	DD	FLAT:??_R1A@?0A@EA@ScriptClass@@8
	DD	FLAT:??_R1A@?0A@EA@GameObjObserverClass@@8
rdata$r	ENDS
;	COMDAT ??_R3MDB_ExpVehFac_Vehicle_Factory@@8
rdata$r	SEGMENT
??_R3MDB_ExpVehFac_Vehicle_Factory@@8 DD 00H		; MDB_ExpVehFac_Vehicle_Factory::`RTTI Class Hierarchy Descriptor'
	DD	00H
	DD	04H
	DD	FLAT:??_R2MDB_ExpVehFac_Vehicle_Factory@@8
rdata$r	ENDS
;	COMDAT ??_R0?AVMDB_ExpVehFac_Vehicle_Factory@@@8
_DATA	SEGMENT
??_R0?AVMDB_ExpVehFac_Vehicle_Factory@@@8 DD FLAT:??_7type_info@@6B@ ; MDB_ExpVehFac_Vehicle_Factory `RTTI Type Descriptor'
	DD	00H
	DB	'.?AVMDB_ExpVehFac_Vehicle_Factory@@', 00H
_DATA	ENDS
;	COMDAT ??_R4MDB_ExpVehFac_Vehicle_Factory@@6B@
rdata$r	SEGMENT
??_R4MDB_ExpVehFac_Vehicle_Factory@@6B@ DD 00H		; MDB_ExpVehFac_Vehicle_Factory::`RTTI Complete Object Locator'
	DD	00H
	DD	00H
	DD	FLAT:??_R0?AVMDB_ExpVehFac_Vehicle_Factory@@@8
	DD	FLAT:??_R3MDB_ExpVehFac_Vehicle_Factory@@8
rdata$r	ENDS
;	COMDAT ??_R1A@?0A@EA@MDB_ExpVehFac_Naval@@8
rdata$r	SEGMENT
??_R1A@?0A@EA@MDB_ExpVehFac_Naval@@8 DD FLAT:??_R0?AVMDB_ExpVehFac_Naval@@@8 ; MDB_ExpVehFac_Naval::`RTTI Base Class Descriptor at (0,-1,0,64)'
	DD	03H
	DD	00H
	DD	0ffffffffH
	DD	00H
	DD	040H
	DD	FLAT:??_R3MDB_ExpVehFac_Naval@@8
rdata$r	ENDS
;	COMDAT ??_R2MDB_ExpVehFac_Naval@@8
rdata$r	SEGMENT
??_R2MDB_ExpVehFac_Naval@@8 DD FLAT:??_R1A@?0A@EA@MDB_ExpVehFac_Naval@@8 ; MDB_ExpVehFac_Naval::`RTTI Base Class Array'
	DD	FLAT:??_R1A@?0A@EA@ScriptImpClass@@8
	DD	FLAT:??_R1A@?0A@EA@ScriptClass@@8
	DD	FLAT:??_R1A@?0A@EA@GameObjObserverClass@@8
rdata$r	ENDS
;	COMDAT ??_R3MDB_ExpVehFac_Naval@@8
rdata$r	SEGMENT
??_R3MDB_ExpVehFac_Naval@@8 DD 00H			; MDB_ExpVehFac_Naval::`RTTI Class Hierarchy Descriptor'
	DD	00H
	DD	04H
	DD	FLAT:??_R2MDB_ExpVehFac_Naval@@8
rdata$r	ENDS
;	COMDAT ??_R0?AVMDB_ExpVehFac_Naval@@@8
_DATA	SEGMENT
??_R0?AVMDB_ExpVehFac_Naval@@@8 DD FLAT:??_7type_info@@6B@ ; MDB_ExpVehFac_Naval `RTTI Type Descriptor'
	DD	00H
	DB	'.?AVMDB_ExpVehFac_Naval@@', 00H
_DATA	ENDS
;	COMDAT ??_R4MDB_ExpVehFac_Naval@@6B@
rdata$r	SEGMENT
??_R4MDB_ExpVehFac_Naval@@6B@ DD 00H			; MDB_ExpVehFac_Naval::`RTTI Complete Object Locator'
	DD	00H
	DD	00H
	DD	FLAT:??_R0?AVMDB_ExpVehFac_Naval@@@8
	DD	FLAT:??_R3MDB_ExpVehFac_Naval@@8
rdata$r	ENDS
;	COMDAT ??_R1A@?0A@EA@MDB_ExpVehFac_Helipad@@8
rdata$r	SEGMENT
??_R1A@?0A@EA@MDB_ExpVehFac_Helipad@@8 DD FLAT:??_R0?AVMDB_ExpVehFac_Helipad@@@8 ; MDB_ExpVehFac_Helipad::`RTTI Base Class Descriptor at (0,-1,0,64)'
	DD	03H
	DD	00H
	DD	0ffffffffH
	DD	00H
	DD	040H
	DD	FLAT:??_R3MDB_ExpVehFac_Helipad@@8
rdata$r	ENDS
;	COMDAT ??_R2MDB_ExpVehFac_Helipad@@8
rdata$r	SEGMENT
??_R2MDB_ExpVehFac_Helipad@@8 DD FLAT:??_R1A@?0A@EA@MDB_ExpVehFac_Helipad@@8 ; MDB_ExpVehFac_Helipad::`RTTI Base Class Array'
	DD	FLAT:??_R1A@?0A@EA@ScriptImpClass@@8
	DD	FLAT:??_R1A@?0A@EA@ScriptClass@@8
	DD	FLAT:??_R1A@?0A@EA@GameObjObserverClass@@8
rdata$r	ENDS
;	COMDAT ??_R3MDB_ExpVehFac_Helipad@@8
rdata$r	SEGMENT
??_R3MDB_ExpVehFac_Helipad@@8 DD 00H			; MDB_ExpVehFac_Helipad::`RTTI Class Hierarchy Descriptor'
	DD	00H
	DD	04H
	DD	FLAT:??_R2MDB_ExpVehFac_Helipad@@8
rdata$r	ENDS
;	COMDAT ??_R0?AVMDB_ExpVehFac_Helipad@@@8
_DATA	SEGMENT
??_R0?AVMDB_ExpVehFac_Helipad@@@8 DD FLAT:??_7type_info@@6B@ ; MDB_ExpVehFac_Helipad `RTTI Type Descriptor'
	DD	00H
	DB	'.?AVMDB_ExpVehFac_Helipad@@', 00H
_DATA	ENDS
;	COMDAT ??_R4MDB_ExpVehFac_Helipad@@6B@
rdata$r	SEGMENT
??_R4MDB_ExpVehFac_Helipad@@6B@ DD 00H			; MDB_ExpVehFac_Helipad::`RTTI Complete Object Locator'
	DD	00H
	DD	00H
	DD	FLAT:??_R0?AVMDB_ExpVehFac_Helipad@@@8
	DD	FLAT:??_R3MDB_ExpVehFac_Helipad@@8
rdata$r	ENDS
;	COMDAT ??_R1A@?0A@EA@?$SimpleDynVecClass@I@@8
rdata$r	SEGMENT
??_R1A@?0A@EA@?$SimpleDynVecClass@I@@8 DD FLAT:??_R0?AV?$SimpleDynVecClass@I@@@8 ; SimpleDynVecClass<unsigned int>::`RTTI Base Class Descriptor at (0,-1,0,64)'
	DD	01H
	DD	00H
	DD	0ffffffffH
	DD	00H
	DD	040H
	DD	FLAT:??_R3?$SimpleDynVecClass@I@@8
rdata$r	ENDS
;	COMDAT ??_R2?$SimpleDynVecClass@I@@8
rdata$r	SEGMENT
??_R2?$SimpleDynVecClass@I@@8 DD FLAT:??_R1A@?0A@EA@?$SimpleDynVecClass@I@@8 ; SimpleDynVecClass<unsigned int>::`RTTI Base Class Array'
	DD	FLAT:??_R1A@?0A@EA@?$SimpleVecClass@I@@8
rdata$r	ENDS
;	COMDAT ??_R3?$SimpleDynVecClass@I@@8
rdata$r	SEGMENT
??_R3?$SimpleDynVecClass@I@@8 DD 00H			; SimpleDynVecClass<unsigned int>::`RTTI Class Hierarchy Descriptor'
	DD	00H
	DD	02H
	DD	FLAT:??_R2?$SimpleDynVecClass@I@@8
rdata$r	ENDS
;	COMDAT ??_R0?AV?$SimpleDynVecClass@I@@@8
_DATA	SEGMENT
??_R0?AV?$SimpleDynVecClass@I@@@8 DD FLAT:??_7type_info@@6B@ ; SimpleDynVecClass<unsigned int> `RTTI Type Descriptor'
	DD	00H
	DB	'.?AV?$SimpleDynVecClass@I@@', 00H
_DATA	ENDS
;	COMDAT ??_R4?$SimpleDynVecClass@I@@6B@
rdata$r	SEGMENT
??_R4?$SimpleDynVecClass@I@@6B@ DD 00H			; SimpleDynVecClass<unsigned int>::`RTTI Complete Object Locator'
	DD	00H
	DD	00H
	DD	FLAT:??_R0?AV?$SimpleDynVecClass@I@@@8
	DD	FLAT:??_R3?$SimpleDynVecClass@I@@8
rdata$r	ENDS
;	COMDAT ??_R4?$SimpleVecClass@PAUCreationPos@@@@6B@
rdata$r	SEGMENT
??_R4?$SimpleVecClass@PAUCreationPos@@@@6B@ DD 00H	; SimpleVecClass<CreationPos *>::`RTTI Complete Object Locator'
	DD	00H
	DD	00H
	DD	FLAT:??_R0?AV?$SimpleVecClass@PAUCreationPos@@@@@8
	DD	FLAT:??_R3?$SimpleVecClass@PAUCreationPos@@@@8
rdata$r	ENDS
;	COMDAT ??_R2?$SimpleVecClass@PAUCreationPos@@@@8
rdata$r	SEGMENT
??_R2?$SimpleVecClass@PAUCreationPos@@@@8 DD FLAT:??_R1A@?0A@EA@?$SimpleVecClass@PAUCreationPos@@@@8 ; SimpleVecClass<CreationPos *>::`RTTI Base Class Array'
rdata$r	ENDS
;	COMDAT ??_R3?$SimpleVecClass@PAUCreationPos@@@@8
rdata$r	SEGMENT
??_R3?$SimpleVecClass@PAUCreationPos@@@@8 DD 00H	; SimpleVecClass<CreationPos *>::`RTTI Class Hierarchy Descriptor'
	DD	00H
	DD	01H
	DD	FLAT:??_R2?$SimpleVecClass@PAUCreationPos@@@@8
rdata$r	ENDS
;	COMDAT ??_R0?AV?$SimpleVecClass@PAUCreationPos@@@@@8
_DATA	SEGMENT
??_R0?AV?$SimpleVecClass@PAUCreationPos@@@@@8 DD FLAT:??_7type_info@@6B@ ; SimpleVecClass<CreationPos *> `RTTI Type Descriptor'
	DD	00H
	DB	'.?AV?$SimpleVecClass@PAUCreationPos@@@@', 00H
_DATA	ENDS
;	COMDAT ??_R1A@?0A@EA@?$SimpleVecClass@PAUCreationPos@@@@8
rdata$r	SEGMENT
??_R1A@?0A@EA@?$SimpleVecClass@PAUCreationPos@@@@8 DD FLAT:??_R0?AV?$SimpleVecClass@PAUCreationPos@@@@@8 ; SimpleVecClass<CreationPos *>::`RTTI Base Class Descriptor at (0,-1,0,64)'
	DD	00H
	DD	00H
	DD	0ffffffffH
	DD	00H
	DD	040H
	DD	FLAT:??_R3?$SimpleVecClass@PAUCreationPos@@@@8
rdata$r	ENDS
;	COMDAT ??_R1A@?0A@EA@?$SimpleDynVecClass@PAUCreationPos@@@@8
rdata$r	SEGMENT
??_R1A@?0A@EA@?$SimpleDynVecClass@PAUCreationPos@@@@8 DD FLAT:??_R0?AV?$SimpleDynVecClass@PAUCreationPos@@@@@8 ; SimpleDynVecClass<CreationPos *>::`RTTI Base Class Descriptor at (0,-1,0,64)'
	DD	01H
	DD	00H
	DD	0ffffffffH
	DD	00H
	DD	040H
	DD	FLAT:??_R3?$SimpleDynVecClass@PAUCreationPos@@@@8
rdata$r	ENDS
;	COMDAT ??_R2?$SimpleDynVecClass@PAUCreationPos@@@@8
rdata$r	SEGMENT
??_R2?$SimpleDynVecClass@PAUCreationPos@@@@8 DD FLAT:??_R1A@?0A@EA@?$SimpleDynVecClass@PAUCreationPos@@@@8 ; SimpleDynVecClass<CreationPos *>::`RTTI Base Class Array'
	DD	FLAT:??_R1A@?0A@EA@?$SimpleVecClass@PAUCreationPos@@@@8
rdata$r	ENDS
;	COMDAT ??_R3?$SimpleDynVecClass@PAUCreationPos@@@@8
rdata$r	SEGMENT
??_R3?$SimpleDynVecClass@PAUCreationPos@@@@8 DD 00H	; SimpleDynVecClass<CreationPos *>::`RTTI Class Hierarchy Descriptor'
	DD	00H
	DD	02H
	DD	FLAT:??_R2?$SimpleDynVecClass@PAUCreationPos@@@@8
rdata$r	ENDS
;	COMDAT ??_R0?AV?$SimpleDynVecClass@PAUCreationPos@@@@@8
_DATA	SEGMENT
??_R0?AV?$SimpleDynVecClass@PAUCreationPos@@@@@8 DD FLAT:??_7type_info@@6B@ ; SimpleDynVecClass<CreationPos *> `RTTI Type Descriptor'
	DD	00H
	DB	'.?AV?$SimpleDynVecClass@PAUCreationPos@@@@', 00H
_DATA	ENDS
;	COMDAT ??_R4?$SimpleDynVecClass@PAUCreationPos@@@@6B@
rdata$r	SEGMENT
??_R4?$SimpleDynVecClass@PAUCreationPos@@@@6B@ DD 00H	; SimpleDynVecClass<CreationPos *>::`RTTI Complete Object Locator'
	DD	00H
	DD	00H
	DD	FLAT:??_R0?AV?$SimpleDynVecClass@PAUCreationPos@@@@@8
	DD	FLAT:??_R3?$SimpleDynVecClass@PAUCreationPos@@@@8
rdata$r	ENDS
;	COMDAT ??_R4?$SimpleVecClass@PAUUnitInfo@@@@6B@
rdata$r	SEGMENT
??_R4?$SimpleVecClass@PAUUnitInfo@@@@6B@ DD 00H		; SimpleVecClass<UnitInfo *>::`RTTI Complete Object Locator'
	DD	00H
	DD	00H
	DD	FLAT:??_R0?AV?$SimpleVecClass@PAUUnitInfo@@@@@8
	DD	FLAT:??_R3?$SimpleVecClass@PAUUnitInfo@@@@8
rdata$r	ENDS
;	COMDAT ??_R2?$SimpleVecClass@PAUUnitInfo@@@@8
rdata$r	SEGMENT
??_R2?$SimpleVecClass@PAUUnitInfo@@@@8 DD FLAT:??_R1A@?0A@EA@?$SimpleVecClass@PAUUnitInfo@@@@8 ; SimpleVecClass<UnitInfo *>::`RTTI Base Class Array'
rdata$r	ENDS
;	COMDAT ??_R3?$SimpleVecClass@PAUUnitInfo@@@@8
rdata$r	SEGMENT
??_R3?$SimpleVecClass@PAUUnitInfo@@@@8 DD 00H		; SimpleVecClass<UnitInfo *>::`RTTI Class Hierarchy Descriptor'
	DD	00H
	DD	01H
	DD	FLAT:??_R2?$SimpleVecClass@PAUUnitInfo@@@@8
rdata$r	ENDS
;	COMDAT ??_R0?AV?$SimpleVecClass@PAUUnitInfo@@@@@8
_DATA	SEGMENT
??_R0?AV?$SimpleVecClass@PAUUnitInfo@@@@@8 DD FLAT:??_7type_info@@6B@ ; SimpleVecClass<UnitInfo *> `RTTI Type Descriptor'
	DD	00H
	DB	'.?AV?$SimpleVecClass@PAUUnitInfo@@@@', 00H
_DATA	ENDS
;	COMDAT ??_R1A@?0A@EA@?$SimpleVecClass@PAUUnitInfo@@@@8
rdata$r	SEGMENT
??_R1A@?0A@EA@?$SimpleVecClass@PAUUnitInfo@@@@8 DD FLAT:??_R0?AV?$SimpleVecClass@PAUUnitInfo@@@@@8 ; SimpleVecClass<UnitInfo *>::`RTTI Base Class Descriptor at (0,-1,0,64)'
	DD	00H
	DD	00H
	DD	0ffffffffH
	DD	00H
	DD	040H
	DD	FLAT:??_R3?$SimpleVecClass@PAUUnitInfo@@@@8
rdata$r	ENDS
;	COMDAT ??_R1A@?0A@EA@?$SimpleDynVecClass@PAUUnitInfo@@@@8
rdata$r	SEGMENT
??_R1A@?0A@EA@?$SimpleDynVecClass@PAUUnitInfo@@@@8 DD FLAT:??_R0?AV?$SimpleDynVecClass@PAUUnitInfo@@@@@8 ; SimpleDynVecClass<UnitInfo *>::`RTTI Base Class Descriptor at (0,-1,0,64)'
	DD	01H
	DD	00H
	DD	0ffffffffH
	DD	00H
	DD	040H
	DD	FLAT:??_R3?$SimpleDynVecClass@PAUUnitInfo@@@@8
rdata$r	ENDS
;	COMDAT ??_R2?$SimpleDynVecClass@PAUUnitInfo@@@@8
rdata$r	SEGMENT
??_R2?$SimpleDynVecClass@PAUUnitInfo@@@@8 DD FLAT:??_R1A@?0A@EA@?$SimpleDynVecClass@PAUUnitInfo@@@@8 ; SimpleDynVecClass<UnitInfo *>::`RTTI Base Class Array'
	DD	FLAT:??_R1A@?0A@EA@?$SimpleVecClass@PAUUnitInfo@@@@8
rdata$r	ENDS
;	COMDAT ??_R3?$SimpleDynVecClass@PAUUnitInfo@@@@8
rdata$r	SEGMENT
??_R3?$SimpleDynVecClass@PAUUnitInfo@@@@8 DD 00H	; SimpleDynVecClass<UnitInfo *>::`RTTI Class Hierarchy Descriptor'
	DD	00H
	DD	02H
	DD	FLAT:??_R2?$SimpleDynVecClass@PAUUnitInfo@@@@8
rdata$r	ENDS
;	COMDAT ??_R0?AV?$SimpleDynVecClass@PAUUnitInfo@@@@@8
_DATA	SEGMENT
??_R0?AV?$SimpleDynVecClass@PAUUnitInfo@@@@@8 DD FLAT:??_7type_info@@6B@ ; SimpleDynVecClass<UnitInfo *> `RTTI Type Descriptor'
	DD	00H
	DB	'.?AV?$SimpleDynVecClass@PAUUnitInfo@@@@', 00H
_DATA	ENDS
;	COMDAT ??_R4?$SimpleDynVecClass@PAUUnitInfo@@@@6B@
rdata$r	SEGMENT
??_R4?$SimpleDynVecClass@PAUUnitInfo@@@@6B@ DD 00H	; SimpleDynVecClass<UnitInfo *>::`RTTI Complete Object Locator'
	DD	00H
	DD	00H
	DD	FLAT:??_R0?AV?$SimpleDynVecClass@PAUUnitInfo@@@@@8
	DD	FLAT:??_R3?$SimpleDynVecClass@PAUUnitInfo@@@@8
rdata$r	ENDS
;	COMDAT ??_R1A@?0A@EA@JFW_Object_Created_Hook_Base@@8
rdata$r	SEGMENT
??_R1A@?0A@EA@JFW_Object_Created_Hook_Base@@8 DD FLAT:??_R0?AVJFW_Object_Created_Hook_Base@@@8 ; JFW_Object_Created_Hook_Base::`RTTI Base Class Descriptor at (0,-1,0,64)'
	DD	03H
	DD	00H
	DD	0ffffffffH
	DD	00H
	DD	040H
	DD	FLAT:??_R3JFW_Object_Created_Hook_Base@@8
rdata$r	ENDS
;	COMDAT ??_R2JFW_Object_Created_Hook_Base@@8
rdata$r	SEGMENT
??_R2JFW_Object_Created_Hook_Base@@8 DD FLAT:??_R1A@?0A@EA@JFW_Object_Created_Hook_Base@@8 ; JFW_Object_Created_Hook_Base::`RTTI Base Class Array'
	DD	FLAT:??_R1A@?0A@EA@ScriptImpClass@@8
	DD	FLAT:??_R1A@?0A@EA@ScriptClass@@8
	DD	FLAT:??_R1A@?0A@EA@GameObjObserverClass@@8
rdata$r	ENDS
;	COMDAT ??_R3JFW_Object_Created_Hook_Base@@8
rdata$r	SEGMENT
??_R3JFW_Object_Created_Hook_Base@@8 DD 00H		; JFW_Object_Created_Hook_Base::`RTTI Class Hierarchy Descriptor'
	DD	00H
	DD	04H
	DD	FLAT:??_R2JFW_Object_Created_Hook_Base@@8
rdata$r	ENDS
;	COMDAT ??_R0?AVJFW_Object_Created_Hook_Base@@@8
_DATA	SEGMENT
??_R0?AVJFW_Object_Created_Hook_Base@@@8 DD FLAT:??_7type_info@@6B@ ; JFW_Object_Created_Hook_Base `RTTI Type Descriptor'
	DD	00H
	DB	'.?AVJFW_Object_Created_Hook_Base@@', 00H
_DATA	ENDS
;	COMDAT ??_R4JFW_Object_Created_Hook_Base@@6B@
rdata$r	SEGMENT
??_R4JFW_Object_Created_Hook_Base@@6B@ DD 00H		; JFW_Object_Created_Hook_Base::`RTTI Complete Object Locator'
	DD	00H
	DD	00H
	DD	FLAT:??_R0?AVJFW_Object_Created_Hook_Base@@@8
	DD	FLAT:??_R3JFW_Object_Created_Hook_Base@@8
rdata$r	ENDS
;	COMDAT ??_R1A@?0A@EA@?$SList@UKeyHookWrapperStruct@MultiKeyHookScriptImpClass@@@@8
rdata$r	SEGMENT
??_R1A@?0A@EA@?$SList@UKeyHookWrapperStruct@MultiKeyHookScriptImpClass@@@@8 DD FLAT:??_R0?AV?$SList@UKeyHookWrapperStruct@MultiKeyHookScriptImpClass@@@@@8 ; SList<MultiKeyHookScriptImpClass::KeyHookWrapperStruct>::`RTTI Base Class Descriptor at (0,-1,0,64)'
	DD	00H
	DD	00H
	DD	0ffffffffH
	DD	00H
	DD	040H
	DD	FLAT:??_R3?$SList@UKeyHookWrapperStruct@MultiKeyHookScriptImpClass@@@@8
rdata$r	ENDS
;	COMDAT ??_R2?$SList@UKeyHookWrapperStruct@MultiKeyHookScriptImpClass@@@@8
rdata$r	SEGMENT
??_R2?$SList@UKeyHookWrapperStruct@MultiKeyHookScriptImpClass@@@@8 DD FLAT:??_R1A@?0A@EA@?$SList@UKeyHookWrapperStruct@MultiKeyHookScriptImpClass@@@@8 ; SList<MultiKeyHookScriptImpClass::KeyHookWrapperStruct>::`RTTI Base Class Array'
rdata$r	ENDS
;	COMDAT ??_R3?$SList@UKeyHookWrapperStruct@MultiKeyHookScriptImpClass@@@@8
rdata$r	SEGMENT
??_R3?$SList@UKeyHookWrapperStruct@MultiKeyHookScriptImpClass@@@@8 DD 00H ; SList<MultiKeyHookScriptImpClass::KeyHookWrapperStruct>::`RTTI Class Hierarchy Descriptor'
	DD	00H
	DD	01H
	DD	FLAT:??_R2?$SList@UKeyHookWrapperStruct@MultiKeyHookScriptImpClass@@@@8
rdata$r	ENDS
;	COMDAT ??_R0?AV?$SList@UKeyHookWrapperStruct@MultiKeyHookScriptImpClass@@@@@8
_DATA	SEGMENT
??_R0?AV?$SList@UKeyHookWrapperStruct@MultiKeyHookScriptImpClass@@@@@8 DD FLAT:??_7type_info@@6B@ ; SList<MultiKeyHookScriptImpClass::KeyHookWrapperStruct> `RTTI Type Descriptor'
	DD	00H
	DB	'.?AV?$SList@UKeyHookWrapperStruct@MultiKeyHookScriptImpC'
	DB	'lass@@@@', 00H
_DATA	ENDS
;	COMDAT ??_R4?$SList@UKeyHookWrapperStruct@MultiKeyHookScriptImpClass@@@@6B@
rdata$r	SEGMENT
??_R4?$SList@UKeyHookWrapperStruct@MultiKeyHookScriptImpClass@@@@6B@ DD 00H ; SList<MultiKeyHookScriptImpClass::KeyHookWrapperStruct>::`RTTI Complete Object Locator'
	DD	00H
	DD	00H
	DD	FLAT:??_R0?AV?$SList@UKeyHookWrapperStruct@MultiKeyHookScriptImpClass@@@@@8
	DD	FLAT:??_R3?$SList@UKeyHookWrapperStruct@MultiKeyHookScriptImpClass@@@@8
rdata$r	ENDS
;	COMDAT ??_R1A@?0A@EA@MultiKeyHookScriptImpClass@@8
rdata$r	SEGMENT
??_R1A@?0A@EA@MultiKeyHookScriptImpClass@@8 DD FLAT:??_R0?AVMultiKeyHookScriptImpClass@@@8 ; MultiKeyHookScriptImpClass::`RTTI Base Class Descriptor at (0,-1,0,64)'
	DD	03H
	DD	00H
	DD	0ffffffffH
	DD	00H
	DD	040H
	DD	FLAT:??_R3MultiKeyHookScriptImpClass@@8
rdata$r	ENDS
;	COMDAT ??_R2MultiKeyHookScriptImpClass@@8
rdata$r	SEGMENT
??_R2MultiKeyHookScriptImpClass@@8 DD FLAT:??_R1A@?0A@EA@MultiKeyHookScriptImpClass@@8 ; MultiKeyHookScriptImpClass::`RTTI Base Class Array'
	DD	FLAT:??_R1A@?0A@EA@ScriptImpClass@@8
	DD	FLAT:??_R1A@?0A@EA@ScriptClass@@8
	DD	FLAT:??_R1A@?0A@EA@GameObjObserverClass@@8
rdata$r	ENDS
;	COMDAT ??_R3MultiKeyHookScriptImpClass@@8
rdata$r	SEGMENT
??_R3MultiKeyHookScriptImpClass@@8 DD 00H		; MultiKeyHookScriptImpClass::`RTTI Class Hierarchy Descriptor'
	DD	00H
	DD	04H
	DD	FLAT:??_R2MultiKeyHookScriptImpClass@@8
rdata$r	ENDS
;	COMDAT ??_R0?AVMultiKeyHookScriptImpClass@@@8
_DATA	SEGMENT
??_R0?AVMultiKeyHookScriptImpClass@@@8 DD FLAT:??_7type_info@@6B@ ; MultiKeyHookScriptImpClass `RTTI Type Descriptor'
	DD	00H
	DB	'.?AVMultiKeyHookScriptImpClass@@', 00H
_DATA	ENDS
;	COMDAT ??_R4MultiKeyHookScriptImpClass@@6B@
rdata$r	SEGMENT
??_R4MultiKeyHookScriptImpClass@@6B@ DD 00H		; MultiKeyHookScriptImpClass::`RTTI Complete Object Locator'
	DD	00H
	DD	00H
	DD	FLAT:??_R0?AVMultiKeyHookScriptImpClass@@@8
	DD	FLAT:??_R3MultiKeyHookScriptImpClass@@8
rdata$r	ENDS
;	COMDAT ??_R1A@?0A@EA@JFW_Key_Hook_Base@@8
rdata$r	SEGMENT
??_R1A@?0A@EA@JFW_Key_Hook_Base@@8 DD FLAT:??_R0?AVJFW_Key_Hook_Base@@@8 ; JFW_Key_Hook_Base::`RTTI Base Class Descriptor at (0,-1,0,64)'
	DD	03H
	DD	00H
	DD	0ffffffffH
	DD	00H
	DD	040H
	DD	FLAT:??_R3JFW_Key_Hook_Base@@8
rdata$r	ENDS
;	COMDAT ??_R2JFW_Key_Hook_Base@@8
rdata$r	SEGMENT
??_R2JFW_Key_Hook_Base@@8 DD FLAT:??_R1A@?0A@EA@JFW_Key_Hook_Base@@8 ; JFW_Key_Hook_Base::`RTTI Base Class Array'
	DD	FLAT:??_R1A@?0A@EA@ScriptImpClass@@8
	DD	FLAT:??_R1A@?0A@EA@ScriptClass@@8
	DD	FLAT:??_R1A@?0A@EA@GameObjObserverClass@@8
rdata$r	ENDS
;	COMDAT ??_R3JFW_Key_Hook_Base@@8
rdata$r	SEGMENT
??_R3JFW_Key_Hook_Base@@8 DD 00H			; JFW_Key_Hook_Base::`RTTI Class Hierarchy Descriptor'
	DD	00H
	DD	04H
	DD	FLAT:??_R2JFW_Key_Hook_Base@@8
rdata$r	ENDS
;	COMDAT ??_R0?AVJFW_Key_Hook_Base@@@8
_DATA	SEGMENT
??_R0?AVJFW_Key_Hook_Base@@@8 DD FLAT:??_7type_info@@6B@ ; JFW_Key_Hook_Base `RTTI Type Descriptor'
	DD	00H
	DB	'.?AVJFW_Key_Hook_Base@@', 00H
_DATA	ENDS
;	COMDAT ??_R4JFW_Key_Hook_Base@@6B@
rdata$r	SEGMENT
??_R4JFW_Key_Hook_Base@@6B@ DD 00H			; JFW_Key_Hook_Base::`RTTI Complete Object Locator'
	DD	00H
	DD	00H
	DD	FLAT:??_R0?AVJFW_Key_Hook_Base@@@8
	DD	FLAT:??_R3JFW_Key_Hook_Base@@8
rdata$r	ENDS
;	COMDAT ??_R1A@?0A@EA@?$SimpleVecClass@I@@8
rdata$r	SEGMENT
??_R1A@?0A@EA@?$SimpleVecClass@I@@8 DD FLAT:??_R0?AV?$SimpleVecClass@I@@@8 ; SimpleVecClass<unsigned int>::`RTTI Base Class Descriptor at (0,-1,0,64)'
	DD	00H
	DD	00H
	DD	0ffffffffH
	DD	00H
	DD	040H
	DD	FLAT:??_R3?$SimpleVecClass@I@@8
rdata$r	ENDS
;	COMDAT ??_R2?$SimpleVecClass@I@@8
rdata$r	SEGMENT
??_R2?$SimpleVecClass@I@@8 DD FLAT:??_R1A@?0A@EA@?$SimpleVecClass@I@@8 ; SimpleVecClass<unsigned int>::`RTTI Base Class Array'
rdata$r	ENDS
;	COMDAT ??_R3?$SimpleVecClass@I@@8
rdata$r	SEGMENT
??_R3?$SimpleVecClass@I@@8 DD 00H			; SimpleVecClass<unsigned int>::`RTTI Class Hierarchy Descriptor'
	DD	00H
	DD	01H
	DD	FLAT:??_R2?$SimpleVecClass@I@@8
rdata$r	ENDS
;	COMDAT ??_R0?AV?$SimpleVecClass@I@@@8
_DATA	SEGMENT
??_R0?AV?$SimpleVecClass@I@@@8 DD FLAT:??_7type_info@@6B@ ; SimpleVecClass<unsigned int> `RTTI Type Descriptor'
	DD	00H
	DB	'.?AV?$SimpleVecClass@I@@', 00H
_DATA	ENDS
;	COMDAT ??_R4?$SimpleVecClass@I@@6B@
rdata$r	SEGMENT
??_R4?$SimpleVecClass@I@@6B@ DD 00H			; SimpleVecClass<unsigned int>::`RTTI Complete Object Locator'
	DD	00H
	DD	00H
	DD	FLAT:??_R0?AV?$SimpleVecClass@I@@@8
	DD	FLAT:??_R3?$SimpleVecClass@I@@8
rdata$r	ENDS
;	COMDAT ??_R1A@?0A@EA@ReferencerClass@@8
rdata$r	SEGMENT
??_R1A@?0A@EA@ReferencerClass@@8 DD FLAT:??_R0?AVReferencerClass@@@8 ; ReferencerClass::`RTTI Base Class Descriptor at (0,-1,0,64)'
	DD	01H
	DD	00H
	DD	0ffffffffH
	DD	00H
	DD	040H
	DD	FLAT:??_R3ReferencerClass@@8
rdata$r	ENDS
;	COMDAT ??_R2ReferencerClass@@8
rdata$r	SEGMENT
??_R2ReferencerClass@@8 DD FLAT:??_R1A@?0A@EA@ReferencerClass@@8 ; ReferencerClass::`RTTI Base Class Array'
	DD	FLAT:??_R1A@?0A@EA@PostLoadableClass@@8
rdata$r	ENDS
;	COMDAT ??_R3ReferencerClass@@8
rdata$r	SEGMENT
??_R3ReferencerClass@@8 DD 00H				; ReferencerClass::`RTTI Class Hierarchy Descriptor'
	DD	00H
	DD	02H
	DD	FLAT:??_R2ReferencerClass@@8
rdata$r	ENDS
;	COMDAT ??_R0?AVReferencerClass@@@8
_DATA	SEGMENT
??_R0?AVReferencerClass@@@8 DD FLAT:??_7type_info@@6B@	; ReferencerClass `RTTI Type Descriptor'
	DD	00H
	DB	'.?AVReferencerClass@@', 00H
_DATA	ENDS
;	COMDAT ??_R4ReferencerClass@@6B@
rdata$r	SEGMENT
??_R4ReferencerClass@@6B@ DD 00H			; ReferencerClass::`RTTI Complete Object Locator'
	DD	00H
	DD	00H
	DD	FLAT:??_R0?AVReferencerClass@@@8
	DD	FLAT:??_R3ReferencerClass@@8
rdata$r	ENDS
;	COMDAT ??_R4PostLoadableClass@@6B@
rdata$r	SEGMENT
??_R4PostLoadableClass@@6B@ DD 00H			; PostLoadableClass::`RTTI Complete Object Locator'
	DD	00H
	DD	00H
	DD	FLAT:??_R0?AVPostLoadableClass@@@8
	DD	FLAT:??_R3PostLoadableClass@@8
rdata$r	ENDS
;	COMDAT ??_R2?$SimpleVecClass@PAVScriptableGameObj@@@@8
rdata$r	SEGMENT
??_R2?$SimpleVecClass@PAVScriptableGameObj@@@@8 DD FLAT:??_R1A@?0A@EA@?$SimpleVecClass@PAVScriptableGameObj@@@@8 ; SimpleVecClass<ScriptableGameObj *>::`RTTI Base Class Array'
rdata$r	ENDS
;	COMDAT ??_R3?$SimpleVecClass@PAVScriptableGameObj@@@@8
rdata$r	SEGMENT
??_R3?$SimpleVecClass@PAVScriptableGameObj@@@@8 DD 00H	; SimpleVecClass<ScriptableGameObj *>::`RTTI Class Hierarchy Descriptor'
	DD	00H
	DD	01H
	DD	FLAT:??_R2?$SimpleVecClass@PAVScriptableGameObj@@@@8
rdata$r	ENDS
;	COMDAT ??_R0?AV?$SimpleVecClass@PAVScriptableGameObj@@@@@8
_DATA	SEGMENT
??_R0?AV?$SimpleVecClass@PAVScriptableGameObj@@@@@8 DD FLAT:??_7type_info@@6B@ ; SimpleVecClass<ScriptableGameObj *> `RTTI Type Descriptor'
	DD	00H
	DB	'.?AV?$SimpleVecClass@PAVScriptableGameObj@@@@', 00H
_DATA	ENDS
;	COMDAT ??_R1A@?0A@EA@?$SimpleVecClass@PAVScriptableGameObj@@@@8
rdata$r	SEGMENT
??_R1A@?0A@EA@?$SimpleVecClass@PAVScriptableGameObj@@@@8 DD FLAT:??_R0?AV?$SimpleVecClass@PAVScriptableGameObj@@@@@8 ; SimpleVecClass<ScriptableGameObj *>::`RTTI Base Class Descriptor at (0,-1,0,64)'
	DD	00H
	DD	00H
	DD	0ffffffffH
	DD	00H
	DD	040H
	DD	FLAT:??_R3?$SimpleVecClass@PAVScriptableGameObj@@@@8
rdata$r	ENDS
;	COMDAT ??_R1A@?0A@EA@?$SimpleDynVecClass@PAVScriptableGameObj@@@@8
rdata$r	SEGMENT
??_R1A@?0A@EA@?$SimpleDynVecClass@PAVScriptableGameObj@@@@8 DD FLAT:??_R0?AV?$SimpleDynVecClass@PAVScriptableGameObj@@@@@8 ; SimpleDynVecClass<ScriptableGameObj *>::`RTTI Base Class Descriptor at (0,-1,0,64)'
	DD	01H
	DD	00H
	DD	0ffffffffH
	DD	00H
	DD	040H
	DD	FLAT:??_R3?$SimpleDynVecClass@PAVScriptableGameObj@@@@8
rdata$r	ENDS
;	COMDAT ??_R2?$SimpleDynVecClass@PAVScriptableGameObj@@@@8
rdata$r	SEGMENT
??_R2?$SimpleDynVecClass@PAVScriptableGameObj@@@@8 DD FLAT:??_R1A@?0A@EA@?$SimpleDynVecClass@PAVScriptableGameObj@@@@8 ; SimpleDynVecClass<ScriptableGameObj *>::`RTTI Base Class Array'
	DD	FLAT:??_R1A@?0A@EA@?$SimpleVecClass@PAVScriptableGameObj@@@@8
rdata$r	ENDS
;	COMDAT ??_R3?$SimpleDynVecClass@PAVScriptableGameObj@@@@8
rdata$r	SEGMENT
??_R3?$SimpleDynVecClass@PAVScriptableGameObj@@@@8 DD 00H ; SimpleDynVecClass<ScriptableGameObj *>::`RTTI Class Hierarchy Descriptor'
	DD	00H
	DD	02H
	DD	FLAT:??_R2?$SimpleDynVecClass@PAVScriptableGameObj@@@@8
rdata$r	ENDS
;	COMDAT ??_R0?AV?$SimpleDynVecClass@PAVScriptableGameObj@@@@@8
_DATA	SEGMENT
??_R0?AV?$SimpleDynVecClass@PAVScriptableGameObj@@@@@8 DD FLAT:??_7type_info@@6B@ ; SimpleDynVecClass<ScriptableGameObj *> `RTTI Type Descriptor'
	DD	00H
	DB	'.?AV?$SimpleDynVecClass@PAVScriptableGameObj@@@@', 00H
_DATA	ENDS
;	COMDAT ??_R4?$SimpleDynVecClass@PAVScriptableGameObj@@@@6B@
rdata$r	SEGMENT
??_R4?$SimpleDynVecClass@PAVScriptableGameObj@@@@6B@ DD 00H ; SimpleDynVecClass<ScriptableGameObj *>::`RTTI Complete Object Locator'
	DD	00H
	DD	00H
	DD	FLAT:??_R0?AV?$SimpleDynVecClass@PAVScriptableGameObj@@@@@8
	DD	FLAT:??_R3?$SimpleDynVecClass@PAVScriptableGameObj@@@@8
rdata$r	ENDS
;	COMDAT ??_R2PostLoadableClass@@8
rdata$r	SEGMENT
??_R2PostLoadableClass@@8 DD FLAT:??_R1A@?0A@EA@PostLoadableClass@@8 ; PostLoadableClass::`RTTI Base Class Array'
rdata$r	ENDS
;	COMDAT ??_R3PostLoadableClass@@8
rdata$r	SEGMENT
??_R3PostLoadableClass@@8 DD 00H			; PostLoadableClass::`RTTI Class Hierarchy Descriptor'
	DD	00H
	DD	01H
	DD	FLAT:??_R2PostLoadableClass@@8
rdata$r	ENDS
;	COMDAT ??_R0?AVPostLoadableClass@@@8
_DATA	SEGMENT
??_R0?AVPostLoadableClass@@@8 DD FLAT:??_7type_info@@6B@ ; PostLoadableClass `RTTI Type Descriptor'
	DD	00H
	DB	'.?AVPostLoadableClass@@', 00H
_DATA	ENDS
;	COMDAT ??_R1A@?0A@EA@PostLoadableClass@@8
rdata$r	SEGMENT
??_R1A@?0A@EA@PostLoadableClass@@8 DD FLAT:??_R0?AVPostLoadableClass@@@8 ; PostLoadableClass::`RTTI Base Class Descriptor at (0,-1,0,64)'
	DD	00H
	DD	00H
	DD	0ffffffffH
	DD	00H
	DD	040H
	DD	FLAT:??_R3PostLoadableClass@@8
rdata$r	ENDS
;	COMDAT ??_R1A@?0A@EA@INIClass@@8
rdata$r	SEGMENT
??_R1A@?0A@EA@INIClass@@8 DD FLAT:??_R0?AVINIClass@@@8	; INIClass::`RTTI Base Class Descriptor at (0,-1,0,64)'
	DD	00H
	DD	00H
	DD	0ffffffffH
	DD	00H
	DD	040H
	DD	FLAT:??_R3INIClass@@8
rdata$r	ENDS
;	COMDAT ??_R2INIClass@@8
rdata$r	SEGMENT
??_R2INIClass@@8 DD FLAT:??_R1A@?0A@EA@INIClass@@8	; INIClass::`RTTI Base Class Array'
rdata$r	ENDS
;	COMDAT ??_R3INIClass@@8
rdata$r	SEGMENT
??_R3INIClass@@8 DD 00H					; INIClass::`RTTI Class Hierarchy Descriptor'
	DD	00H
	DD	01H
	DD	FLAT:??_R2INIClass@@8
rdata$r	ENDS
;	COMDAT ??_R0?AVINIClass@@@8
_DATA	SEGMENT
??_R0?AVINIClass@@@8 DD FLAT:??_7type_info@@6B@		; INIClass `RTTI Type Descriptor'
	DD	00H
	DB	'.?AVINIClass@@', 00H
_DATA	ENDS
;	COMDAT ??_R4INIClass@@6B@
rdata$r	SEGMENT
??_R4INIClass@@6B@ DD 00H				; INIClass::`RTTI Complete Object Locator'
	DD	00H
	DD	00H
	DD	FLAT:??_R0?AVINIClass@@@8
	DD	FLAT:??_R3INIClass@@8
rdata$r	ENDS
;	COMDAT ??_R1A@?0A@EA@ThreadClass@@8
rdata$r	SEGMENT
??_R1A@?0A@EA@ThreadClass@@8 DD FLAT:??_R0?AVThreadClass@@@8 ; ThreadClass::`RTTI Base Class Descriptor at (0,-1,0,64)'
	DD	00H
	DD	00H
	DD	0ffffffffH
	DD	00H
	DD	040H
	DD	FLAT:??_R3ThreadClass@@8
rdata$r	ENDS
;	COMDAT ??_R2ThreadClass@@8
rdata$r	SEGMENT
??_R2ThreadClass@@8 DD FLAT:??_R1A@?0A@EA@ThreadClass@@8 ; ThreadClass::`RTTI Base Class Array'
rdata$r	ENDS
;	COMDAT ??_R3ThreadClass@@8
rdata$r	SEGMENT
??_R3ThreadClass@@8 DD 00H				; ThreadClass::`RTTI Class Hierarchy Descriptor'
	DD	00H
	DD	01H
	DD	FLAT:??_R2ThreadClass@@8
rdata$r	ENDS
;	COMDAT ??_R0?AVThreadClass@@@8
_DATA	SEGMENT
??_R0?AVThreadClass@@@8 DD FLAT:??_7type_info@@6B@	; ThreadClass `RTTI Type Descriptor'
	DD	00H
	DB	'.?AVThreadClass@@', 00H
_DATA	ENDS
;	COMDAT ??_R4ThreadClass@@6B@
rdata$r	SEGMENT
??_R4ThreadClass@@6B@ DD 00H				; ThreadClass::`RTTI Complete Object Locator'
	DD	00H
	DD	00H
	DD	FLAT:??_R0?AVThreadClass@@@8
	DD	FLAT:??_R3ThreadClass@@8
rdata$r	ENDS
;	COMDAT ??_R1A@?0A@EA@ScriptImpClass@@8
rdata$r	SEGMENT
??_R1A@?0A@EA@ScriptImpClass@@8 DD FLAT:??_R0?AVScriptImpClass@@@8 ; ScriptImpClass::`RTTI Base Class Descriptor at (0,-1,0,64)'
	DD	02H
	DD	00H
	DD	0ffffffffH
	DD	00H
	DD	040H
	DD	FLAT:??_R3ScriptImpClass@@8
rdata$r	ENDS
;	COMDAT ??_R2ScriptImpClass@@8
rdata$r	SEGMENT
??_R2ScriptImpClass@@8 DD FLAT:??_R1A@?0A@EA@ScriptImpClass@@8 ; ScriptImpClass::`RTTI Base Class Array'
	DD	FLAT:??_R1A@?0A@EA@ScriptClass@@8
	DD	FLAT:??_R1A@?0A@EA@GameObjObserverClass@@8
rdata$r	ENDS
;	COMDAT ??_R3ScriptImpClass@@8
rdata$r	SEGMENT
??_R3ScriptImpClass@@8 DD 00H				; ScriptImpClass::`RTTI Class Hierarchy Descriptor'
	DD	00H
	DD	03H
	DD	FLAT:??_R2ScriptImpClass@@8
rdata$r	ENDS
;	COMDAT ??_R0?AVScriptImpClass@@@8
_DATA	SEGMENT
??_R0?AVScriptImpClass@@@8 DD FLAT:??_7type_info@@6B@	; ScriptImpClass `RTTI Type Descriptor'
	DD	00H
	DB	'.?AVScriptImpClass@@', 00H
_DATA	ENDS
;	COMDAT ??_R4ScriptImpClass@@6B@
rdata$r	SEGMENT
??_R4ScriptImpClass@@6B@ DD 00H				; ScriptImpClass::`RTTI Complete Object Locator'
	DD	00H
	DD	00H
	DD	FLAT:??_R0?AVScriptImpClass@@@8
	DD	FLAT:??_R3ScriptImpClass@@8
rdata$r	ENDS
;	COMDAT ??_R4GameObjObserverClass@@6B@
rdata$r	SEGMENT
??_R4GameObjObserverClass@@6B@ DD 00H			; GameObjObserverClass::`RTTI Complete Object Locator'
	DD	00H
	DD	00H
	DD	FLAT:??_R0?AVGameObjObserverClass@@@8
	DD	FLAT:??_R3GameObjObserverClass@@8
rdata$r	ENDS
;	COMDAT ??_R2GameObjObserverClass@@8
rdata$r	SEGMENT
??_R2GameObjObserverClass@@8 DD FLAT:??_R1A@?0A@EA@GameObjObserverClass@@8 ; GameObjObserverClass::`RTTI Base Class Array'
rdata$r	ENDS
;	COMDAT ??_R3GameObjObserverClass@@8
rdata$r	SEGMENT
??_R3GameObjObserverClass@@8 DD 00H			; GameObjObserverClass::`RTTI Class Hierarchy Descriptor'
	DD	00H
	DD	01H
	DD	FLAT:??_R2GameObjObserverClass@@8
rdata$r	ENDS
;	COMDAT ??_R0?AVGameObjObserverClass@@@8
_DATA	SEGMENT
??_R0?AVGameObjObserverClass@@@8 DD FLAT:??_7type_info@@6B@ ; GameObjObserverClass `RTTI Type Descriptor'
	DD	00H
	DB	'.?AVGameObjObserverClass@@', 00H
_DATA	ENDS
;	COMDAT ??_R1A@?0A@EA@GameObjObserverClass@@8
rdata$r	SEGMENT
??_R1A@?0A@EA@GameObjObserverClass@@8 DD FLAT:??_R0?AVGameObjObserverClass@@@8 ; GameObjObserverClass::`RTTI Base Class Descriptor at (0,-1,0,64)'
	DD	00H
	DD	00H
	DD	0ffffffffH
	DD	00H
	DD	040H
	DD	FLAT:??_R3GameObjObserverClass@@8
rdata$r	ENDS
;	COMDAT ??_R1A@?0A@EA@ScriptClass@@8
rdata$r	SEGMENT
??_R1A@?0A@EA@ScriptClass@@8 DD FLAT:??_R0?AVScriptClass@@@8 ; ScriptClass::`RTTI Base Class Descriptor at (0,-1,0,64)'
	DD	01H
	DD	00H
	DD	0ffffffffH
	DD	00H
	DD	040H
	DD	FLAT:??_R3ScriptClass@@8
rdata$r	ENDS
;	COMDAT ??_R2ScriptClass@@8
rdata$r	SEGMENT
??_R2ScriptClass@@8 DD FLAT:??_R1A@?0A@EA@ScriptClass@@8 ; ScriptClass::`RTTI Base Class Array'
	DD	FLAT:??_R1A@?0A@EA@GameObjObserverClass@@8
rdata$r	ENDS
;	COMDAT ??_R3ScriptClass@@8
rdata$r	SEGMENT
??_R3ScriptClass@@8 DD 00H				; ScriptClass::`RTTI Class Hierarchy Descriptor'
	DD	00H
	DD	02H
	DD	FLAT:??_R2ScriptClass@@8
rdata$r	ENDS
;	COMDAT ??_R0?AVScriptClass@@@8
_DATA	SEGMENT
??_R0?AVScriptClass@@@8 DD FLAT:??_7type_info@@6B@	; ScriptClass `RTTI Type Descriptor'
	DD	00H
	DB	'.?AVScriptClass@@', 00H
_DATA	ENDS
;	COMDAT ??_R4ScriptClass@@6B@
rdata$r	SEGMENT
??_R4ScriptClass@@6B@ DD 00H				; ScriptClass::`RTTI Complete Object Locator'
	DD	00H
	DD	00H
	DD	FLAT:??_R0?AVScriptClass@@@8
	DD	FLAT:??_R3ScriptClass@@8
rdata$r	ENDS
;	COMDAT ??_R1A@?0A@EA@ScriptFactory@@8
rdata$r	SEGMENT
??_R1A@?0A@EA@ScriptFactory@@8 DD FLAT:??_R0?AVScriptFactory@@@8 ; ScriptFactory::`RTTI Base Class Descriptor at (0,-1,0,64)'
	DD	00H
	DD	00H
	DD	0ffffffffH
	DD	00H
	DD	040H
	DD	FLAT:??_R3ScriptFactory@@8
rdata$r	ENDS
;	COMDAT ??_R2ScriptFactory@@8
rdata$r	SEGMENT
??_R2ScriptFactory@@8 DD FLAT:??_R1A@?0A@EA@ScriptFactory@@8 ; ScriptFactory::`RTTI Base Class Array'
rdata$r	ENDS
;	COMDAT ??_R3ScriptFactory@@8
rdata$r	SEGMENT
??_R3ScriptFactory@@8 DD 00H				; ScriptFactory::`RTTI Class Hierarchy Descriptor'
	DD	00H
	DD	01H
	DD	FLAT:??_R2ScriptFactory@@8
rdata$r	ENDS
;	COMDAT ??_R0?AVScriptFactory@@@8
_DATA	SEGMENT
??_R0?AVScriptFactory@@@8 DD FLAT:??_7type_info@@6B@	; ScriptFactory `RTTI Type Descriptor'
	DD	00H
	DB	'.?AVScriptFactory@@', 00H
_DATA	ENDS
;	COMDAT ??_R4ScriptFactory@@6B@
rdata$r	SEGMENT
??_R4ScriptFactory@@6B@ DD 00H				; ScriptFactory::`RTTI Complete Object Locator'
	DD	00H
	DD	00H
	DD	FLAT:??_R0?AVScriptFactory@@@8
	DD	FLAT:??_R3ScriptFactory@@8
rdata$r	ENDS
;	COMDAT ??_C@_0DL@BOENBDGI@ObjectPoolClass?$DMclass?5GenericSLN@
CONST	SEGMENT
??_C@_0DL@BOENBDGI@ObjectPoolClass?$DMclass?5GenericSLN@ DB 'ObjectPoolCl'
	DB	'ass<class GenericSLNode,256>::~ObjectPoolClass', 00H ; `string'
CONST	ENDS
;	COMDAT ??_C@_0FF@NOANHENP@?$CFd?5memory?5leaks?5found?5in?5ObjectP@
CONST	SEGMENT
??_C@_0FF@NOANHENP@?$CFd?5memory?5leaks?5found?5in?5ObjectP@ DB '%d memor'
	DB	'y leaks found in ObjectPoolClass<class GenericSLNode,256>::~O'
	DB	'bjectPoolClass', 0aH, 00H			; `string'
CONST	ENDS
;	COMDAT ??_C@_0EB@IOGKEECK@ObjectPoolClass?$DMclass?5GenericSLN@
CONST	SEGMENT
??_C@_0EB@IOGKEECK@ObjectPoolClass?$DMclass?5GenericSLN@ DB 'ObjectPoolCl'
	DB	'ass<class GenericSLNode,256>::Allocate_Object_Memory', 00H ; `string'
CONST	ENDS
;	COMDAT ??_C@_0DE@CGPPIIDB@ScriptRegistrant?$DMclass?5MDB_ExpVe@
CONST	SEGMENT
??_C@_0DE@CGPPIIDB@ScriptRegistrant?$DMclass?5MDB_ExpVe@ DB 'ScriptRegist'
	DB	'rant<class MDB_ExpVehFac_Limit>::Create', 00H ; `string'
CONST	ENDS
;	COMDAT ??_C@_0EA@GFDKKLDF@ScriptRegistrant?$DMclass?5MDB_ExpVe@
CONST	SEGMENT
??_C@_0EA@GFDKKLDF@ScriptRegistrant?$DMclass?5MDB_ExpVe@ DB 'ScriptRegist'
	DB	'rant<class MDB_ExpVehFac_Cinematic_Vehicle>::Create', 00H ; `string'
CONST	ENDS
;	COMDAT ??_C@_0DI@FDCOMGFJ@ScriptRegistrant?$DMclass?5MDB_ExpVe@
CONST	SEGMENT
??_C@_0DI@FDCOMGFJ@ScriptRegistrant?$DMclass?5MDB_ExpVe@ DB 'ScriptRegist'
	DB	'rant<class MDB_ExpVehFac_Cinematic>::Create', 00H ; `string'
CONST	ENDS
;	COMDAT ??_C@_0DO@BBEDOJGF@ScriptRegistrant?$DMclass?5MDB_ExpVe@
CONST	SEGMENT
??_C@_0DO@BBEDOJGF@ScriptRegistrant?$DMclass?5MDB_ExpVe@ DB 'ScriptRegist'
	DB	'rant<class MDB_ExpVehFac_Vehicle_Factory>::Create', 00H ; `string'
CONST	ENDS
;	COMDAT ??_C@_0DE@PMNHGNJP@ScriptRegistrant?$DMclass?5MDB_ExpVe@
CONST	SEGMENT
??_C@_0DE@PMNHGNJP@ScriptRegistrant?$DMclass?5MDB_ExpVe@ DB 'ScriptRegist'
	DB	'rant<class MDB_ExpVehFac_Naval>::Create', 00H ; `string'
CONST	ENDS
;	COMDAT ??_C@_1GG@OGNLNBPD@?$AAx?$AA?3?$AA?2?$AAg?$AAi?$AAt?$AAh?$AAu?$AAb?$AA?2?$AAr?$AAe?$AAn?$AAe?$AAg?$AAa?$AAd?$AAe?$AA?2?$AAd?$AAr?$AAa?$AAg?$AAo?$AAn?$AAa?$AAd?$AAe?$AA_?$AAr?$AAx?$AAd@
CONST	SEGMENT
??_C@_1GG@OGNLNBPD@?$AAx?$AA?3?$AA?2?$AAg?$AAi?$AAt?$AAh?$AAu?$AAb?$AA?2?$AAr?$AAe?$AAn?$AAe?$AAg?$AAa?$AAd?$AAe?$AA?2?$AAd?$AAr?$AAa?$AAg?$AAo?$AAn?$AAa?$AAd?$AAe?$AA_?$AAr?$AAx?$AAd@ DB 'x'
	DB	00H, ':', 00H, '\', 00H, 'g', 00H, 'i', 00H, 't', 00H, 'h', 00H
	DB	'u', 00H, 'b', 00H, '\', 00H, 'r', 00H, 'e', 00H, 'n', 00H, 'e'
	DB	00H, 'g', 00H, 'a', 00H, 'd', 00H, 'e', 00H, '\', 00H, 'd', 00H
	DB	'r', 00H, 'a', 00H, 'g', 00H, 'o', 00H, 'n', 00H, 'a', 00H, 'd'
	DB	00H, 'e', 00H, '_', 00H, 'r', 00H, 'x', 00H, 'd', 00H, '\', 00H
	DB	's', 00H, 'c', 00H, 'r', 00H, 'i', 00H, 'p', 00H, 't', 00H, 's'
	DB	00H, '\', 00H, 's', 00H, 'c', 00H, 'r', 00H, 'i', 00H, 'p', 00H
	DB	't', 00H, 's', 00H, '.', 00H, 'h', 00H, 00H, 00H ; `string'
CONST	ENDS
;	COMDAT ??_C@_0DD@KMKBFFOF@x?3?2github?2renegade?2dragonade_rxd@
CONST	SEGMENT
??_C@_0DD@KMKBFFOF@x?3?2github?2renegade?2dragonade_rxd@ DB 'x:\github\re'
	DB	'negade\dragonade_rxd\scripts\scripts.h', 00H ; `string'
CONST	ENDS
;	COMDAT ??_C@_0DG@PDFNFKEN@ScriptRegistrant?$DMclass?5MDB_ExpVe@
CONST	SEGMENT
??_C@_0DG@PDFNFKEN@ScriptRegistrant?$DMclass?5MDB_ExpVe@ DB 'ScriptRegist'
	DB	'rant<class MDB_ExpVehFac_Helipad>::Create', 00H ; `string'
CONST	ENDS
;	COMDAT ??_C@_0DO@MHJGFEEG@SimpleVecClass?$DMclass?5ScriptableG@
CONST	SEGMENT
??_C@_0DO@MHJGFEEG@SimpleVecClass?$DMclass?5ScriptableG@ DB 'SimpleVecCla'
	DB	'ss<class ScriptableGameObj *>::Uninitialised_Grow', 00H ; `string'
CONST	ENDS
;	COMDAT ??_C@_0DC@KFEMMJDH@SimpleVecClass?$DMclass?5ScriptableG@
CONST	SEGMENT
??_C@_0DC@KFEMMJDH@SimpleVecClass?$DMclass?5ScriptableG@ DB 'SimpleVecCla'
	DB	'ss<class ScriptableGameObj *>::Resize', 00H	; `string'
CONST	ENDS
;	COMDAT ??_C@_0DL@EOCHGIPP@SimpleVecClass?$DMclass?5ScriptableG@
CONST	SEGMENT
??_C@_0DL@EOCHGIPP@SimpleVecClass?$DMclass?5ScriptableG@ DB 'SimpleVecCla'
	DB	'ss<class ScriptableGameObj *>::~SimpleVecClass', 00H ; `string'
CONST	ENDS
;	COMDAT ??_C@_0DJ@FIHFCLCF@SimpleVecClass?$DMstruct?5CreationPo@
CONST	SEGMENT
??_C@_0DJ@FIHFCLCF@SimpleVecClass?$DMstruct?5CreationPo@ DB 'SimpleVecCla'
	DB	'ss<struct CreationPos *>::Uninitialised_Grow', 00H ; `string'
CONST	ENDS
;	COMDAT ??_C@_0CN@IICOJJHM@SimpleVecClass?$DMstruct?5CreationPo@
CONST	SEGMENT
??_C@_0CN@IICOJJHM@SimpleVecClass?$DMstruct?5CreationPo@ DB 'SimpleVecCla'
	DB	'ss<struct CreationPos *>::Resize', 00H	; `string'
CONST	ENDS
;	COMDAT ??_C@_0DG@OANNENMH@SimpleVecClass?$DMstruct?5CreationPo@
CONST	SEGMENT
??_C@_0DG@OANNENMH@SimpleVecClass?$DMstruct?5CreationPo@ DB 'SimpleVecCla'
	DB	'ss<struct CreationPos *>::~SimpleVecClass', 00H ; `string'
CONST	ENDS
;	COMDAT ??_C@_0DG@IOKFMGHO@SimpleVecClass?$DMstruct?5UnitInfo?5?$CK@
CONST	SEGMENT
??_C@_0DG@IOKFMGHO@SimpleVecClass?$DMstruct?5UnitInfo?5?$CK@ DB 'SimpleVe'
	DB	'cClass<struct UnitInfo *>::Uninitialised_Grow', 00H ; `string'
CONST	ENDS
;	COMDAT ??_C@_0CK@FJJEAHKN@SimpleVecClass?$DMstruct?5UnitInfo?5?$CK@
CONST	SEGMENT
??_C@_0CK@FJJEAHKN@SimpleVecClass?$DMstruct?5UnitInfo?5?$CK@ DB 'SimpleVe'
	DB	'cClass<struct UnitInfo *>::Resize', 00H	; `string'
CONST	ENDS
;	COMDAT ??_C@_0DD@IEMMGBBK@SimpleVecClass?$DMstruct?5UnitInfo?5?$CK@
CONST	SEGMENT
??_C@_0DD@IEMMGBBK@SimpleVecClass?$DMstruct?5UnitInfo?5?$CK@ DB 'SimpleVe'
	DB	'cClass<struct UnitInfo *>::~SimpleVecClass', 00H ; `string'
CONST	ENDS
;	COMDAT ??_C@_0EN@HIHNAGN@SList?$DMstruct?5MultiKeyHookScriptI@
CONST	SEGMENT
??_C@_0EN@HIHNAGN@SList?$DMstruct?5MultiKeyHookScriptI@ DB 'SList<struct '
	DB	'MultiKeyHookScriptImpClass::KeyHookWrapperStruct>::Insert_Aft'
	DB	'er', 00H					; `string'
CONST	ENDS
;	COMDAT ??_C@_0EO@OJGPEJGC@SList?$DMstruct?5MultiKeyHookScriptI@
CONST	SEGMENT
??_C@_0EO@OJGPEJGC@SList?$DMstruct?5MultiKeyHookScriptI@ DB 'SList<struct'
	DB	' MultiKeyHookScriptImpClass::KeyHookWrapperStruct>::Insert_Be'
	DB	'fore', 00H					; `string'
CONST	ENDS
;	COMDAT ??_C@_0EL@MPFHHNNA@SList?$DMstruct?5MultiKeyHookScriptI@
CONST	SEGMENT
??_C@_0EL@MPFHHNNA@SList?$DMstruct?5MultiKeyHookScriptI@ DB 'SList<struct'
	DB	' MultiKeyHookScriptImpClass::KeyHookWrapperStruct>::Remove_Al'
	DB	'l', 00H					; `string'
CONST	ENDS
;	COMDAT ??_C@_0EH@CGJBMJBC@SList?$DMstruct?5MultiKeyHookScriptI@
CONST	SEGMENT
??_C@_0EH@CGJBMJBC@SList?$DMstruct?5MultiKeyHookScriptI@ DB 'SList<struct'
	DB	' MultiKeyHookScriptImpClass::KeyHookWrapperStruct>::Remove', 00H ; `string'
CONST	ENDS
;	COMDAT ??_C@_0EM@PPENJFKC@SList?$DMstruct?5MultiKeyHookScriptI@
CONST	SEGMENT
??_C@_0EM@PPENJFKC@SList?$DMstruct?5MultiKeyHookScriptI@ DB 'SList<struct'
	DB	' MultiKeyHookScriptImpClass::KeyHookWrapperStruct>::Remove_He'
	DB	'ad', 00H					; `string'
CONST	ENDS
;	COMDAT ??_C@_0EJ@OIGECPDF@SList?$DMstruct?5MultiKeyHookScriptI@
CONST	SEGMENT
??_C@_0EJ@OIGECPDF@SList?$DMstruct?5MultiKeyHookScriptI@ DB 'SList<struct'
	DB	' MultiKeyHookScriptImpClass::KeyHookWrapperStruct>::Add_Tail', 00H ; `string'
CONST	ENDS
;	COMDAT ??_C@_1GC@LJHGOLFN@?$AAx?$AA?3?$AA?2?$AAg?$AAi?$AAt?$AAh?$AAu?$AAb?$AA?2?$AAr?$AAe?$AAn?$AAe?$AAg?$AAa?$AAd?$AAe?$AA?2?$AAd?$AAr?$AAa?$AAg?$AAo?$AAn?$AAa?$AAd?$AAe?$AA_?$AAr?$AAx?$AAd@
CONST	SEGMENT
??_C@_1GC@LJHGOLFN@?$AAx?$AA?3?$AA?2?$AAg?$AAi?$AAt?$AAh?$AAu?$AAb?$AA?2?$AAr?$AAe?$AAn?$AAe?$AAg?$AAa?$AAd?$AAe?$AA?2?$AAd?$AAr?$AAa?$AAg?$AAo?$AAn?$AAa?$AAd?$AAe?$AA_?$AAr?$AAx?$AAd@ DB 'x'
	DB	00H, ':', 00H, '\', 00H, 'g', 00H, 'i', 00H, 't', 00H, 'h', 00H
	DB	'u', 00H, 'b', 00H, '\', 00H, 'r', 00H, 'e', 00H, 'n', 00H, 'e'
	DB	00H, 'g', 00H, 'a', 00H, 'd', 00H, 'e', 00H, '\', 00H, 'd', 00H
	DB	'r', 00H, 'a', 00H, 'g', 00H, 'o', 00H, 'n', 00H, 'a', 00H, 'd'
	DB	00H, 'e', 00H, '_', 00H, 'r', 00H, 'x', 00H, 'd', 00H, '\', 00H
	DB	's', 00H, 'c', 00H, 'r', 00H, 'i', 00H, 'p', 00H, 't', 00H, 's'
	DB	00H, '\', 00H, 's', 00H, 'l', 00H, 'i', 00H, 's', 00H, 't', 00H
	DB	'.', 00H, 'h', 00H, 00H, 00H			; `string'
CONST	ENDS
;	COMDAT ??_C@_0DB@DFBFLIIO@x?3?2github?2renegade?2dragonade_rxd@
CONST	SEGMENT
??_C@_0DB@DFBFLIIO@x?3?2github?2renegade?2dragonade_rxd@ DB 'x:\github\re'
	DB	'negade\dragonade_rxd\scripts\slist.h', 00H	; `string'
CONST	ENDS
;	COMDAT ??_C@_0EJ@ENMBJFB@SList?$DMstruct?5MultiKeyHookScriptI@
CONST	SEGMENT
??_C@_0EJ@ENMBJFB@SList?$DMstruct?5MultiKeyHookScriptI@ DB 'SList<struct '
	DB	'MultiKeyHookScriptImpClass::KeyHookWrapperStruct>::Add_Head', 00H ; `string'
CONST	ENDS
;	COMDAT ??_C@_0DB@HGKHGJNJ@SimpleVecClass?$DMunsigned?5int?$DO?3?3Un@
CONST	SEGMENT
??_C@_0DB@HGKHGJNJ@SimpleVecClass?$DMunsigned?5int?$DO?3?3Un@ DB 'SimpleV'
	DB	'ecClass<unsigned int>::Uninitialised_Grow', 00H ; `string'
CONST	ENDS
;	COMDAT ??_C@_0CF@JPCAAIGO@SimpleVecClass?$DMunsigned?5int?$DO?3?3Re@
CONST	SEGMENT
??_C@_0CF@JPCAAIGO@SimpleVecClass?$DMunsigned?5int?$DO?3?3Re@ DB 'SimpleV'
	DB	'ecClass<unsigned int>::Resize', 00H		; `string'
CONST	ENDS
;	COMDAT ??_C@_0CO@MPCNNKCB@SimpleVecClass?$DMunsigned?5int?$DO?3?3?$HOS@
CONST	SEGMENT
??_C@_0CO@MPCNNKCB@SimpleVecClass?$DMunsigned?5int?$DO?3?3?$HOS@ DB 'Simp'
	DB	'leVecClass<unsigned int>::~SimpleVecClass', 00H ; `string'
CONST	ENDS
;	COMDAT ??_C@_08JFKDHNCE@Type?3int?$AA@
CONST	SEGMENT
??_C@_08JFKDHNCE@Type?3int?$AA@ DB 'Type:int', 00H	; `string'
CONST	ENDS
;	COMDAT ??_7?$ScriptRegistrant@VMDB_ExpVehFac_Limit@@@@6B@
CONST	SEGMENT
??_7?$ScriptRegistrant@VMDB_ExpVehFac_Limit@@@@6B@ DD FLAT:??_R4?$ScriptRegistrant@VMDB_ExpVehFac_Limit@@@@6B@ ; ScriptRegistrant<MDB_ExpVehFac_Limit>::`vftable'
	DD	FLAT:??_E?$ScriptRegistrant@VMDB_ExpVehFac_Limit@@@@UAEPAXI@Z
	DD	FLAT:?Create@?$ScriptRegistrant@VMDB_ExpVehFac_Limit@@@@UAEPAVScriptImpClass@@XZ
CONST	ENDS
;	COMDAT ??_7?$ScriptRegistrant@VMDB_ExpVehFac_Cinematic_Vehicle@@@@6B@
CONST	SEGMENT
??_7?$ScriptRegistrant@VMDB_ExpVehFac_Cinematic_Vehicle@@@@6B@ DD FLAT:??_R4?$ScriptRegistrant@VMDB_ExpVehFac_Cinematic_Vehicle@@@@6B@ ; ScriptRegistrant<MDB_ExpVehFac_Cinematic_Vehicle>::`vftable'
	DD	FLAT:??_E?$ScriptRegistrant@VMDB_ExpVehFac_Cinematic_Vehicle@@@@UAEPAXI@Z
	DD	FLAT:?Create@?$ScriptRegistrant@VMDB_ExpVehFac_Cinematic_Vehicle@@@@UAEPAVScriptImpClass@@XZ
CONST	ENDS
;	COMDAT ??_C@_0BI@GNCIIPJF@MDB_ExpVehFac_Cinematic?$AA@
CONST	SEGMENT
??_C@_0BI@GNCIIPJF@MDB_ExpVehFac_Cinematic?$AA@ DB 'MDB_ExpVehFac_Cinemat'
	DB	'ic', 00H					; `string'
CONST	ENDS
;	COMDAT ??_C@_0BG@HKGNCJP@Team?$DN0?3int?0Time?3float?$AA@
CONST	SEGMENT
??_C@_0BG@HKGNCJP@Team?$DN0?3int?0Time?3float?$AA@ DB 'Team=0:int,Time:fl'
	DB	'oat', 00H					; `string'
CONST	ENDS
;	COMDAT ??_7?$ScriptRegistrant@VMDB_ExpVehFac_Cinematic@@@@6B@
CONST	SEGMENT
??_7?$ScriptRegistrant@VMDB_ExpVehFac_Cinematic@@@@6B@ DD FLAT:??_R4?$ScriptRegistrant@VMDB_ExpVehFac_Cinematic@@@@6B@ ; ScriptRegistrant<MDB_ExpVehFac_Cinematic>::`vftable'
	DD	FLAT:??_E?$ScriptRegistrant@VMDB_ExpVehFac_Cinematic@@@@UAEPAXI@Z
	DD	FLAT:?Create@?$ScriptRegistrant@VMDB_ExpVehFac_Cinematic@@@@UAEPAVScriptImpClass@@XZ
CONST	ENDS
;	COMDAT ??_C@_0HM@LIOKLNBO@Build_Time?$DN1?40?3float?0Ground_Buil@
CONST	SEGMENT
??_C@_0HM@LIOKLNBO@Build_Time?$DN1?40?3float?0Ground_Buil@ DB 'Build_Time'
	DB	'=1.0:float,Ground_Build_Time=1.0:float,Remove_on_Death=0:int,'
	DB	'Support_Vehicles=Veh1;Veh2;etc.:string,Sidebar=0:int', 00H ; `string'
CONST	ENDS
;	COMDAT ??_7?$ScriptRegistrant@VMDB_ExpVehFac_Vehicle_Factory@@@@6B@
CONST	SEGMENT
??_7?$ScriptRegistrant@VMDB_ExpVehFac_Vehicle_Factory@@@@6B@ DD FLAT:??_R4?$ScriptRegistrant@VMDB_ExpVehFac_Vehicle_Factory@@@@6B@ ; ScriptRegistrant<MDB_ExpVehFac_Vehicle_Factory>::`vftable'
	DD	FLAT:??_E?$ScriptRegistrant@VMDB_ExpVehFac_Vehicle_Factory@@@@UAEPAXI@Z
	DD	FLAT:?Create@?$ScriptRegistrant@VMDB_ExpVehFac_Vehicle_Factory@@@@UAEPAVScriptImpClass@@XZ
CONST	ENDS
;	COMDAT ??_C@_0LO@HHLONMGP@Creation_Preset?$DNPreset?3string?0Na@
CONST	SEGMENT
??_C@_0LO@HHLONMGP@Creation_Preset?$DNPreset?3string?0Na@ DB 'Creation_Pr'
	DB	'eset=Preset:string,Naval_Vehicles=Veh1;Veh2;etc.:string,Build'
	DB	'_Time=1.0:float,Naval_Build_Time=1.0:float,Remove_on_Death=0:'
	DB	'int,Support_Vehicles=Veh1;Veh2;etc.:string,Sidebar=0:int', 00H ; `string'
CONST	ENDS
;	COMDAT ??_7?$ScriptRegistrant@VMDB_ExpVehFac_Naval@@@@6B@
CONST	SEGMENT
??_7?$ScriptRegistrant@VMDB_ExpVehFac_Naval@@@@6B@ DD FLAT:??_R4?$ScriptRegistrant@VMDB_ExpVehFac_Naval@@@@6B@ ; ScriptRegistrant<MDB_ExpVehFac_Naval>::`vftable'
	DD	FLAT:??_E?$ScriptRegistrant@VMDB_ExpVehFac_Naval@@@@UAEPAXI@Z
	DD	FLAT:?Create@?$ScriptRegistrant@VMDB_ExpVehFac_Naval@@@@UAEPAVScriptImpClass@@XZ
CONST	ENDS
;	COMDAT ??_C@_0JK@KIFIJHKB@Landing_Preset?$DNLanding?3string?0Bu@
CONST	SEGMENT
??_C@_0JK@KIFIJHKB@Landing_Preset?$DNLanding?3string?0Bu@ DB 'Landing_Pre'
	DB	'set=Landing:string,Build_Time=1.0:float,Flying_Build_Time=1.0'
	DB	':float,Remove_on_Death=0:int,Support_Vehicles=Veh1;Veh2;etc.:'
	DB	'string,Sidebar=0:int', 00H			; `string'
CONST	ENDS
;	COMDAT ??_7?$ScriptRegistrant@VMDB_ExpVehFac_Helipad@@@@6B@
CONST	SEGMENT
??_7?$ScriptRegistrant@VMDB_ExpVehFac_Helipad@@@@6B@ DD FLAT:??_R4?$ScriptRegistrant@VMDB_ExpVehFac_Helipad@@@@6B@ ; ScriptRegistrant<MDB_ExpVehFac_Helipad>::`vftable'
	DD	FLAT:??_E?$ScriptRegistrant@VMDB_ExpVehFac_Helipad@@@@UAEPAXI@Z
	DD	FLAT:?Create@?$ScriptRegistrant@VMDB_ExpVehFac_Helipad@@@@UAEPAVScriptImpClass@@XZ
CONST	ENDS
;	COMDAT ??_C@_04KOACHJEN@Type?$AA@
CONST	SEGMENT
??_C@_04KOACHJEN@Type?$AA@ DB 'Type', 00H		; `string'
CONST	ENDS
;	COMDAT ??_C@_04OKOFBOPB@Time?$AA@
CONST	SEGMENT
??_C@_04OKOFBOPB@Time?$AA@ DB 'Time', 00H		; `string'
CONST	ENDS
;	COMDAT ??_C@_0CA@HEBOGOMN@MDB_ExpVehFac_Cinematic_Vehicle?$AA@
CONST	SEGMENT
??_C@_0CA@HEBOGOMN@MDB_ExpVehFac_Cinematic_Vehicle?$AA@ DB 'MDB_ExpVehFac'
	DB	'_Cinematic_Vehicle', 00H			; `string'
CONST	ENDS
;	COMDAT ??_C@_06BIJBOFNL@Origin?$AA@
CONST	SEGMENT
??_C@_06BIJBOFNL@Origin?$AA@ DB 'Origin', 00H		; `string'
CONST	ENDS
;	COMDAT ??_C@_04GBPANCCF@Team?$AA@
CONST	SEGMENT
??_C@_04GBPANCCF@Team?$AA@ DB 'Team', 00H		; `string'
CONST	ENDS
;	COMDAT ??_C@_0BC@IOIFJNLK@Ground_Build_Time?$AA@
CONST	SEGMENT
??_C@_0BC@IOIFJNLK@Ground_Build_Time?$AA@ DB 'Ground_Build_Time', 00H ; `string'
CONST	ENDS
;	COMDAT ??_C@_0CH@BMAJKPCD@MDB_ExpVehFac_Vehicle_Factory?3?3C@
CONST	SEGMENT
??_C@_0CH@BMAJKPCD@MDB_ExpVehFac_Vehicle_Factory?3?3C@ DB 'MDB_ExpVehFac_'
	DB	'Vehicle_Factory::Created', 00H		; `string'
CONST	ENDS
;	COMDAT ?__LINE__Var@?1??Created@MDB_ExpVehFac_Vehicle_Factory@@EAEXPAVScriptableGameObj@@@Z@4JA
_DATA	SEGMENT
?__LINE__Var@?1??Created@MDB_ExpVehFac_Vehicle_Factory@@EAEXPAVScriptableGameObj@@@Z@4JA DD 04e1H ; `MDB_ExpVehFac_Vehicle_Factory::Created'::`2'::__LINE__Var
_DATA	ENDS
;	COMDAT ??_C@_0BB@OKFAOBNB@Naval_Build_Time?$AA@
CONST	SEGMENT
??_C@_0BB@OKFAOBNB@Naval_Build_Time?$AA@ DB 'Naval_Build_Time', 00H ; `string'
CONST	ENDS
;	COMDAT ??_C@_0P@EOMMAHKA@Naval_Vehicles?$AA@
CONST	SEGMENT
??_C@_0P@EOMMAHKA@Naval_Vehicles?$AA@ DB 'Naval_Vehicles', 00H ; `string'
CONST	ENDS
;	COMDAT ??_C@_0BA@BNIFIOJM@Creation_Preset?$AA@
CONST	SEGMENT
??_C@_0BA@BNIFIOJM@Creation_Preset?$AA@ DB 'Creation_Preset', 00H ; `string'
CONST	ENDS
;	COMDAT ??_C@_0BN@KONPE@MDB_ExpVehFac_Naval?3?3Created?$AA@
CONST	SEGMENT
??_C@_0BN@KONPE@MDB_ExpVehFac_Naval?3?3Created?$AA@ DB 'MDB_ExpVehFac_Nav'
	DB	'al::Created', 00H				; `string'
CONST	ENDS
;	COMDAT ?__LINE__Var@?1??Created@MDB_ExpVehFac_Naval@@EAEXPAVScriptableGameObj@@@Z@4JA
_DATA	SEGMENT
?__LINE__Var@?1??Created@MDB_ExpVehFac_Naval@@EAEXPAVScriptableGameObj@@@Z@4JA DD 0494H ; `MDB_ExpVehFac_Naval::Created'::`2'::__LINE__Var
_DATA	ENDS
;	COMDAT ??_C@_0BO@IDCNIDOL@MDB_ExpVehFac_Vehicle_Factory?$AA@
CONST	SEGMENT
??_C@_0BO@IDCNIDOL@MDB_ExpVehFac_Vehicle_Factory?$AA@ DB 'MDB_ExpVehFac_V'
	DB	'ehicle_Factory', 00H			; `string'
CONST	ENDS
;	COMDAT ??_C@_0BG@KKJHDMPD@MDB_ExpVehFac_Helipad?$AA@
CONST	SEGMENT
??_C@_0BG@KKJHDMPD@MDB_ExpVehFac_Helipad?$AA@ DB 'MDB_ExpVehFac_Helipad', 00H ; `string'
CONST	ENDS
;	COMDAT ??_C@_0BC@DOEJEHKP@Flying_Build_Time?$AA@
CONST	SEGMENT
??_C@_0BC@DOEJEHKP@Flying_Build_Time?$AA@ DB 'Flying_Build_Time', 00H ; `string'
CONST	ENDS
;	COMDAT ??_C@_0L@CMKBOGCN@Build_Time?$AA@
CONST	SEGMENT
??_C@_0L@CMKBOGCN@Build_Time?$AA@ DB 'Build_Time', 00H	; `string'
CONST	ENDS
;	COMDAT ??_C@_0P@HBCKFHDF@Landing_Preset?$AA@
CONST	SEGMENT
??_C@_0P@HBCKFHDF@Landing_Preset?$AA@ DB 'Landing_Preset', 00H ; `string'
CONST	ENDS
;	COMDAT ??_C@_0BB@GKAKOOPG@Support_Vehicles?$AA@
CONST	SEGMENT
??_C@_0BB@GKAKOOPG@Support_Vehicles?$AA@ DB 'Support_Vehicles', 00H ; `string'
CONST	ENDS
;	COMDAT ??_C@_0BE@GMHHGOOM@MDB_ExpVehFac_Naval?$AA@
CONST	SEGMENT
??_C@_0BE@GMHHGOOM@MDB_ExpVehFac_Naval?$AA@ DB 'MDB_ExpVehFac_Naval', 00H ; `string'
CONST	ENDS
;	COMDAT ??_C@_0BP@KAGBMPFB@MDB_ExpVehFac_Helipad?3?3Created?$AA@
CONST	SEGMENT
??_C@_0BP@KAGBMPFB@MDB_ExpVehFac_Helipad?3?3Created?$AA@ DB 'MDB_ExpVehFa'
	DB	'c_Helipad::Created', 00H			; `string'
CONST	ENDS
;	COMDAT ?__LINE__Var@?1??Created@MDB_ExpVehFac_Helipad@@EAEXPAVScriptableGameObj@@@Z@4JA
_DATA	SEGMENT
?__LINE__Var@?1??Created@MDB_ExpVehFac_Helipad@@EAEXPAVScriptableGameObj@@@Z@4JA DD 0450H ; `MDB_ExpVehFac_Helipad::Created'::`2'::__LINE__Var
_DATA	ENDS
;	COMDAT ??_C@_01EKENIIDA@3?$AA@
CONST	SEGMENT
??_C@_01EKENIIDA@3?$AA@ DB '3', 00H			; `string'
CONST	ENDS
;	COMDAT ??_C@_01FDFGLJHB@2?$AA@
CONST	SEGMENT
??_C@_01FDFGLJHB@2?$AA@ DB '2', 00H			; `string'
CONST	ENDS
;	COMDAT ??_C@_01HIHLOKLC@1?$AA@
CONST	SEGMENT
??_C@_01HIHLOKLC@1?$AA@ DB '1', 00H			; `string'
CONST	ENDS
;	COMDAT ??_C@_01FAMBOPH@4?$AA@
CONST	SEGMENT
??_C@_01FAMBOPH@4?$AA@ DB '4', 00H			; `string'
CONST	ENDS
;	COMDAT ??_C@_0BE@BKNPJNFJ@MDB_ExpVehFac_Limit?$AA@
CONST	SEGMENT
??_C@_0BE@BKNPJNFJ@MDB_ExpVehFac_Limit?$AA@ DB 'MDB_ExpVehFac_Limit', 00H ; `string'
CONST	ENDS
;	COMDAT ??_C@_0DA@EHCLJPMO@The?5limit?5for?5Ground?5vehicles?5ha@
CONST	SEGMENT
??_C@_0DA@EHCLJPMO@The?5limit?5for?5Ground?5vehicles?5ha@ DB 'The limit f'
	DB	'or Ground vehicles has been reached.', 00H	; `string'
CONST	ENDS
;	COMDAT ??_C@_0BB@NHJNEILC@Invisible_Object?$AA@
CONST	SEGMENT
??_C@_0BB@NHJNEILC@Invisible_Object?$AA@ DB 'Invisible_Object', 00H ; `string'
CONST	ENDS
;	COMDAT ??_C@_0P@ILJCPIMA@Test_Cinematic?$AA@
CONST	SEGMENT
??_C@_0P@ILJCPIMA@Test_Cinematic?$AA@ DB 'Test_Cinematic', 00H ; `string'
CONST	ENDS
;	COMDAT ??_C@_0BA@ELHCEGPO@ExpVehFac_0?4txt?$AA@
CONST	SEGMENT
??_C@_0BA@ELHCEGPO@ExpVehFac_0?4txt?$AA@ DB 'ExpVehFac_0.txt', 00H ; `string'
CONST	ENDS
;	COMDAT ??_C@_0BA@IACOJFFL@ExpVehFac_1?4txt?$AA@
CONST	SEGMENT
??_C@_0BA@IACOJFFL@ExpVehFac_1?4txt?$AA@ DB 'ExpVehFac_1.txt', 00H ; `string'
CONST	ENDS
;	COMDAT ??_C@_0DA@DDGIFENP@The?5limit?5for?5Flying?5vehicles?5ha@
CONST	SEGMENT
??_C@_0DA@DDGIFENP@The?5limit?5for?5Flying?5vehicles?5ha@ DB 'The limit f'
	DB	'or Flying vehicles has been reached.', 00H	; `string'
CONST	ENDS
;	COMDAT ??_C@_04OHJIHAFH@None?$AA@
CONST	SEGMENT
??_C@_04OHJIHAFH@None?$AA@ DB 'None', 00H		; `string'
CONST	ENDS
;	COMDAT ??_C@_0CP@NIACEBMO@The?5limit?5for?5Naval?5vehicles?5has@
CONST	SEGMENT
??_C@_0CP@NIACEBMO@The?5limit?5for?5Naval?5vehicles?5has@ DB 'The limit f'
	DB	'or Naval vehicles has been reached.', 00H	; `string'
CONST	ENDS
;	COMDAT ??_C@_0DB@EAPDLBJM@The?5limit?5for?5Support?5vehicles?5h@
CONST	SEGMENT
??_C@_0DB@EAPDLBJM@The?5limit?5for?5Support?5vehicles?5h@ DB 'The limit f'
	DB	'or Support vehicles has been reached.', 00H	; `string'
CONST	ENDS
;	COMDAT ??_C@_0BG@MKMJMKII@ExpVehFacClass?3?3Clear?$AA@
CONST	SEGMENT
??_C@_0BG@MKMJMKII@ExpVehFacClass?3?3Clear?$AA@ DB 'ExpVehFacClass::Clear'
	DB	00H						; `string'
CONST	ENDS
;	COMDAT ?__LINE__Var@?1??Clear@ExpVehFacClass@@QAEXXZ@4JA
_DATA	SEGMENT
?__LINE__Var@?1??Clear@ExpVehFacClass@@QAEXXZ@4JA DD 0373H ; `ExpVehFacClass::Clear'::`2'::__LINE__Var
_DATA	ENDS
;	COMDAT ??_C@_00CNPNBAHC@?$AA@
CONST	SEGMENT
??_C@_00CNPNBAHC@?$AA@ DB 00H				; `string'
CONST	ENDS
;	COMDAT ??_C@_0O@CCACHKNM@Support_Limit?$AA@
CONST	SEGMENT
??_C@_0O@CCACHKNM@Support_Limit?$AA@ DB 'Support_Limit', 00H ; `string'
CONST	ENDS
;	COMDAT ??_C@_0M@HBFOELM@Naval_Limit?$AA@
CONST	SEGMENT
??_C@_0M@HBFOELM@Naval_Limit?$AA@ DB 'Naval_Limit', 00H	; `string'
CONST	ENDS
;	COMDAT ??_C@_0N@NKJFEDCM@Flying_Limit?$AA@
CONST	SEGMENT
??_C@_0N@NKJFEDCM@Flying_Limit?$AA@ DB 'Flying_Limit', 00H ; `string'
CONST	ENDS
;	COMDAT ??_C@_0N@BHHEMMEG@Ground_Limit?$AA@
CONST	SEGMENT
??_C@_0N@BHHEMMEG@Ground_Limit?$AA@ DB 'Ground_Limit', 00H ; `string'
CONST	ENDS
;	COMDAT ??_C@_0O@BCEKLIOD@ExpVehFac?4cfg?$AA@
CONST	SEGMENT
??_C@_0O@BCEKLIOD@ExpVehFac?4cfg?$AA@ DB 'ExpVehFac.cfg', 00H ; `string'
CONST	ENDS
;	COMDAT ??_C@_0BB@MJEEGLIK@ExpVehFac_?$CFu?4cfg?$AA@
CONST	SEGMENT
??_C@_0BB@MJEEGLIK@ExpVehFac_?$CFu?4cfg?$AA@ DB 'ExpVehFac_%u.cfg', 00H ; `string'
CONST	ENDS
;	COMDAT ??_C@_01NEMOKFLO@?$DN?$AA@
CONST	SEGMENT
??_C@_01NEMOKFLO@?$DN?$AA@ DB '=', 00H			; `string'
CONST	ENDS
;	COMDAT ??_C@_01ICJEACDI@?$DL?$AA@
CONST	SEGMENT
??_C@_01ICJEACDI@?$DL?$AA@ DB ';', 00H			; `string'
CONST	ENDS
;	COMDAT ??_C@_01GBGANLPD@0?$AA@
CONST	SEGMENT
??_C@_01GBGANLPD@0?$AA@ DB '0', 00H			; `string'
CONST	ENDS
;	COMDAT ??_C@_0BF@CHJIHGEH@ExpVehFacClass?3?3Load?$AA@
CONST	SEGMENT
??_C@_0BF@CHJIHGEH@ExpVehFacClass?3?3Load?$AA@ DB 'ExpVehFacClass::Load', 00H ; `string'
CONST	ENDS
;	COMDAT ?__LINE__Var@?1??Load@ExpVehFacClass@@QAEXPBD0PAVScriptableGameObj@@0@Z@4JA
_DATA	SEGMENT
?__LINE__Var@?1??Load@ExpVehFacClass@@QAEXPBD0PAVScriptableGameObj@@0@Z@4JA DD 0183H ; `ExpVehFacClass::Load'::`2'::__LINE__Var
_DATA	ENDS
;	COMDAT ??_7?$SimpleDynVecClass@PAVScriptableGameObj@@@@6B@
CONST	SEGMENT
??_7?$SimpleDynVecClass@PAVScriptableGameObj@@@@6B@ DD FLAT:??_R4?$SimpleDynVecClass@PAVScriptableGameObj@@@@6B@ ; SimpleDynVecClass<ScriptableGameObj *>::`vftable'
	DD	FLAT:??_E?$SimpleDynVecClass@PAVScriptableGameObj@@@@UAEPAXI@Z
	DD	FLAT:?Resize@?$SimpleDynVecClass@PAVScriptableGameObj@@@@UAE_NH@Z
	DD	FLAT:?Uninitialised_Grow@?$SimpleVecClass@PAVScriptableGameObj@@@@UAE_NH@Z
CONST	ENDS
;	COMDAT ??_7?$SimpleVecClass@PAVScriptableGameObj@@@@6B@
CONST	SEGMENT
??_7?$SimpleVecClass@PAVScriptableGameObj@@@@6B@ DD FLAT:??_R4?$SimpleVecClass@PAVScriptableGameObj@@@@6B@ ; SimpleVecClass<ScriptableGameObj *>::`vftable'
	DD	FLAT:??_E?$SimpleVecClass@PAVScriptableGameObj@@@@UAEPAXI@Z
	DD	FLAT:?Resize@?$SimpleVecClass@PAVScriptableGameObj@@@@UAE_NH@Z
	DD	FLAT:?Uninitialised_Grow@?$SimpleVecClass@PAVScriptableGameObj@@@@UAE_NH@Z
CONST	ENDS
;	COMDAT ??_7?$SimpleDynVecClass@I@@6B@
CONST	SEGMENT
??_7?$SimpleDynVecClass@I@@6B@ DD FLAT:??_R4?$SimpleDynVecClass@I@@6B@ ; SimpleDynVecClass<unsigned int>::`vftable'
	DD	FLAT:??_E?$SimpleDynVecClass@I@@UAEPAXI@Z
	DD	FLAT:?Resize@?$SimpleDynVecClass@I@@UAE_NH@Z
	DD	FLAT:?Uninitialised_Grow@?$SimpleVecClass@I@@UAE_NH@Z
CONST	ENDS
;	COMDAT ??_C@_1GI@KGOMGLBO@?$AAx?$AA?3?$AA?2?$AAg?$AAi?$AAt?$AAh?$AAu?$AAb?$AA?2?$AAr?$AAe?$AAn?$AAe?$AAg?$AAa?$AAd?$AAe?$AA?2?$AAd?$AAr?$AAa?$AAg?$AAo?$AAn?$AAa?$AAd?$AAe?$AA_?$AAr?$AAx?$AAd@
CONST	SEGMENT
??_C@_1GI@KGOMGLBO@?$AAx?$AA?3?$AA?2?$AAg?$AAi?$AAt?$AAh?$AAu?$AAb?$AA?2?$AAr?$AAe?$AAn?$AAe?$AAg?$AAa?$AAd?$AAe?$AA?2?$AAd?$AAr?$AAa?$AAg?$AAo?$AAn?$AAa?$AAd?$AAe?$AA_?$AAr?$AAx?$AAd@ DB 'x'
	DB	00H, ':', 00H, '\', 00H, 'g', 00H, 'i', 00H, 't', 00H, 'h', 00H
	DB	'u', 00H, 'b', 00H, '\', 00H, 'r', 00H, 'e', 00H, 'n', 00H, 'e'
	DB	00H, 'g', 00H, 'a', 00H, 'd', 00H, 'e', 00H, '\', 00H, 'd', 00H
	DB	'r', 00H, 'a', 00H, 'g', 00H, 'o', 00H, 'n', 00H, 'a', 00H, 'd'
	DB	00H, 'e', 00H, '_', 00H, 'r', 00H, 'x', 00H, 'd', 00H, '\', 00H
	DB	's', 00H, 'c', 00H, 'r', 00H, 'i', 00H, 'p', 00H, 't', 00H, 's'
	DB	00H, '\', 00H, 'm', 00H, 'd', 00H, 'b', 00H, 'e', 00H, 'v', 00H
	DB	'f', 00H, '.', 00H, 'c', 00H, 'p', 00H, 'p', 00H, 00H, 00H ; `string'
CONST	ENDS
;	COMDAT ??_C@_0DE@IMMGICCG@x?3?2github?2renegade?2dragonade_rxd@
CONST	SEGMENT
??_C@_0DE@IMMGICCG@x?3?2github?2renegade?2dragonade_rxd@ DB 'x:\github\re'
	DB	'negade\dragonade_rxd\scripts\mdbevf.cpp', 00H ; `string'
CONST	ENDS
;	COMDAT ??_C@_0BG@NFBKDC@DestroyExpVehFacClass?$AA@
CONST	SEGMENT
??_C@_0BG@NFBKDC@DestroyExpVehFacClass?$AA@ DB 'DestroyExpVehFacClass', 00H ; `string'
CONST	ENDS
;	COMDAT ?__LINE__Var@?1??DestroyExpVehFacClass@@YAXXZ@4JA
_DATA	SEGMENT
?__LINE__Var@?1??DestroyExpVehFacClass@@YAXXZ@4JA DD 018H ; `DestroyExpVehFacClass'::`2'::__LINE__Var
_DATA	ENDS
;	COMDAT ??_7MDB_ExpVehFac_Limit@@6B@
CONST	SEGMENT
??_7MDB_ExpVehFac_Limit@@6B@ DD FLAT:??_R4MDB_ExpVehFac_Limit@@6B@ ; MDB_ExpVehFac_Limit::`vftable'
	DD	FLAT:??_EMDB_ExpVehFac_Limit@@UAEPAXI@Z
	DD	FLAT:?Get_Name@ScriptImpClass@@UAEPBDXZ
	DD	FLAT:?Attach@ScriptImpClass@@MAEXPAVScriptableGameObj@@@Z
	DD	FLAT:?Detach@ScriptImpClass@@MAEXPAVScriptableGameObj@@@Z
	DD	FLAT:?Created@MDB_ExpVehFac_Limit@@EAEXPAVScriptableGameObj@@@Z
	DD	FLAT:?Destroyed@MDB_ExpVehFac_Limit@@EAEXPAVScriptableGameObj@@@Z
	DD	FLAT:?Killed@ScriptImpClass@@UAEXPAVScriptableGameObj@@0@Z
	DD	FLAT:?Damaged@ScriptImpClass@@UAEXPAVScriptableGameObj@@0M@Z
	DD	FLAT:?Custom@ScriptImpClass@@UAEXPAVScriptableGameObj@@HH0@Z
	DD	FLAT:?Sound_Heard@ScriptImpClass@@UAEXPAVScriptableGameObj@@ABUCombatSound@@@Z
	DD	FLAT:?Enemy_Seen@ScriptImpClass@@UAEXPAVScriptableGameObj@@0@Z
	DD	FLAT:?Action_Complete@ScriptImpClass@@UAEXPAVScriptableGameObj@@HW4ActionCompleteReason@@@Z
	DD	FLAT:?Timer_Expired@ScriptImpClass@@UAEXPAVScriptableGameObj@@H@Z
	DD	FLAT:?Animation_Complete@ScriptImpClass@@UAEXPAVScriptableGameObj@@PBD@Z
	DD	FLAT:?Poked@ScriptImpClass@@UAEXPAVScriptableGameObj@@0@Z
	DD	FLAT:?Entered@ScriptImpClass@@UAEXPAVScriptableGameObj@@0@Z
	DD	FLAT:?Exited@ScriptImpClass@@UAEXPAVScriptableGameObj@@0@Z
	DD	FLAT:?Owner@ScriptImpClass@@UAEPAVScriptableGameObj@@XZ
	DD	FLAT:?Get_Owner_Ptr@ScriptImpClass@@UAEPAPAVScriptableGameObj@@XZ
	DD	FLAT:?Set_Parameters_String@ScriptImpClass@@UAEXPBD@Z
	DD	FLAT:?Get_Parameters_String@ScriptImpClass@@UAEXPADI@Z
	DD	FLAT:?Save@ScriptImpClass@@MAEXAAVScriptSaver@@@Z
	DD	FLAT:?Load@ScriptImpClass@@MAEXAAVScriptLoader@@@Z
	DD	FLAT:?Save_Data@ScriptImpClass@@UAEXAAVScriptSaver@@@Z
	DD	FLAT:?Load_Data@ScriptImpClass@@UAEXAAVScriptLoader@@@Z
	DD	FLAT:?Register_Auto_Save_Variables@MDB_ExpVehFac_Limit@@UAEXXZ
CONST	ENDS
;	COMDAT ??_7MDB_ExpVehFac_Cinematic_Vehicle@@6B@
CONST	SEGMENT
??_7MDB_ExpVehFac_Cinematic_Vehicle@@6B@ DD FLAT:??_R4MDB_ExpVehFac_Cinematic_Vehicle@@6B@ ; MDB_ExpVehFac_Cinematic_Vehicle::`vftable'
	DD	FLAT:??_EMDB_ExpVehFac_Cinematic_Vehicle@@UAEPAXI@Z
	DD	FLAT:?Get_Name@ScriptImpClass@@UAEPBDXZ
	DD	FLAT:?Attach@ScriptImpClass@@MAEXPAVScriptableGameObj@@@Z
	DD	FLAT:?Detach@ScriptImpClass@@MAEXPAVScriptableGameObj@@@Z
	DD	FLAT:?Created@ScriptImpClass@@UAEXPAVScriptableGameObj@@@Z
	DD	FLAT:?Destroyed@ScriptImpClass@@UAEXPAVScriptableGameObj@@@Z
	DD	FLAT:?Killed@ScriptImpClass@@UAEXPAVScriptableGameObj@@0@Z
	DD	FLAT:?Damaged@MDB_ExpVehFac_Cinematic_Vehicle@@EAEXPAVScriptableGameObj@@0M@Z
	DD	FLAT:?Custom@ScriptImpClass@@UAEXPAVScriptableGameObj@@HH0@Z
	DD	FLAT:?Sound_Heard@ScriptImpClass@@UAEXPAVScriptableGameObj@@ABUCombatSound@@@Z
	DD	FLAT:?Enemy_Seen@ScriptImpClass@@UAEXPAVScriptableGameObj@@0@Z
	DD	FLAT:?Action_Complete@ScriptImpClass@@UAEXPAVScriptableGameObj@@HW4ActionCompleteReason@@@Z
	DD	FLAT:?Timer_Expired@ScriptImpClass@@UAEXPAVScriptableGameObj@@H@Z
	DD	FLAT:?Animation_Complete@ScriptImpClass@@UAEXPAVScriptableGameObj@@PBD@Z
	DD	FLAT:?Poked@ScriptImpClass@@UAEXPAVScriptableGameObj@@0@Z
	DD	FLAT:?Entered@ScriptImpClass@@UAEXPAVScriptableGameObj@@0@Z
	DD	FLAT:?Exited@ScriptImpClass@@UAEXPAVScriptableGameObj@@0@Z
	DD	FLAT:?Owner@ScriptImpClass@@UAEPAVScriptableGameObj@@XZ
	DD	FLAT:?Get_Owner_Ptr@ScriptImpClass@@UAEPAPAVScriptableGameObj@@XZ
	DD	FLAT:?Set_Parameters_String@ScriptImpClass@@UAEXPBD@Z
	DD	FLAT:?Get_Parameters_String@ScriptImpClass@@UAEXPADI@Z
	DD	FLAT:?Save@ScriptImpClass@@MAEXAAVScriptSaver@@@Z
	DD	FLAT:?Load@ScriptImpClass@@MAEXAAVScriptLoader@@@Z
	DD	FLAT:?Save_Data@ScriptImpClass@@UAEXAAVScriptSaver@@@Z
	DD	FLAT:?Load_Data@ScriptImpClass@@UAEXAAVScriptLoader@@@Z
	DD	FLAT:?Register_Auto_Save_Variables@ScriptImpClass@@UAEXXZ
CONST	ENDS
;	COMDAT ??_7MDB_ExpVehFac_Cinematic@@6B@
CONST	SEGMENT
??_7MDB_ExpVehFac_Cinematic@@6B@ DD FLAT:??_R4MDB_ExpVehFac_Cinematic@@6B@ ; MDB_ExpVehFac_Cinematic::`vftable'
	DD	FLAT:??_EMDB_ExpVehFac_Cinematic@@UAEPAXI@Z
	DD	FLAT:?Get_Name@ScriptImpClass@@UAEPBDXZ
	DD	FLAT:?Attach@ScriptImpClass@@MAEXPAVScriptableGameObj@@@Z
	DD	FLAT:?Detach@ScriptImpClass@@MAEXPAVScriptableGameObj@@@Z
	DD	FLAT:?Created@MDB_ExpVehFac_Cinematic@@EAEXPAVScriptableGameObj@@@Z
	DD	FLAT:?Destroyed@ScriptImpClass@@UAEXPAVScriptableGameObj@@@Z
	DD	FLAT:?Killed@ScriptImpClass@@UAEXPAVScriptableGameObj@@0@Z
	DD	FLAT:?Damaged@ScriptImpClass@@UAEXPAVScriptableGameObj@@0M@Z
	DD	FLAT:?Custom@ScriptImpClass@@UAEXPAVScriptableGameObj@@HH0@Z
	DD	FLAT:?Sound_Heard@ScriptImpClass@@UAEXPAVScriptableGameObj@@ABUCombatSound@@@Z
	DD	FLAT:?Enemy_Seen@ScriptImpClass@@UAEXPAVScriptableGameObj@@0@Z
	DD	FLAT:?Action_Complete@ScriptImpClass@@UAEXPAVScriptableGameObj@@HW4ActionCompleteReason@@@Z
	DD	FLAT:?Timer_Expired@MDB_ExpVehFac_Cinematic@@EAEXPAVScriptableGameObj@@H@Z
	DD	FLAT:?Animation_Complete@ScriptImpClass@@UAEXPAVScriptableGameObj@@PBD@Z
	DD	FLAT:?Poked@ScriptImpClass@@UAEXPAVScriptableGameObj@@0@Z
	DD	FLAT:?Entered@ScriptImpClass@@UAEXPAVScriptableGameObj@@0@Z
	DD	FLAT:?Exited@ScriptImpClass@@UAEXPAVScriptableGameObj@@0@Z
	DD	FLAT:?Owner@ScriptImpClass@@UAEPAVScriptableGameObj@@XZ
	DD	FLAT:?Get_Owner_Ptr@ScriptImpClass@@UAEPAPAVScriptableGameObj@@XZ
	DD	FLAT:?Set_Parameters_String@ScriptImpClass@@UAEXPBD@Z
	DD	FLAT:?Get_Parameters_String@ScriptImpClass@@UAEXPADI@Z
	DD	FLAT:?Save@ScriptImpClass@@MAEXAAVScriptSaver@@@Z
	DD	FLAT:?Load@ScriptImpClass@@MAEXAAVScriptLoader@@@Z
	DD	FLAT:?Save_Data@ScriptImpClass@@UAEXAAVScriptSaver@@@Z
	DD	FLAT:?Load_Data@ScriptImpClass@@UAEXAAVScriptLoader@@@Z
	DD	FLAT:?Register_Auto_Save_Variables@MDB_ExpVehFac_Cinematic@@UAEXXZ
CONST	ENDS
;	COMDAT ??_7MDB_ExpVehFac_Vehicle_Factory@@6B@
CONST	SEGMENT
??_7MDB_ExpVehFac_Vehicle_Factory@@6B@ DD FLAT:??_R4MDB_ExpVehFac_Vehicle_Factory@@6B@ ; MDB_ExpVehFac_Vehicle_Factory::`vftable'
	DD	FLAT:??_EMDB_ExpVehFac_Vehicle_Factory@@UAEPAXI@Z
	DD	FLAT:?Get_Name@ScriptImpClass@@UAEPBDXZ
	DD	FLAT:?Attach@ScriptImpClass@@MAEXPAVScriptableGameObj@@@Z
	DD	FLAT:?Detach@ScriptImpClass@@MAEXPAVScriptableGameObj@@@Z
	DD	FLAT:?Created@MDB_ExpVehFac_Vehicle_Factory@@EAEXPAVScriptableGameObj@@@Z
	DD	FLAT:?Destroyed@MDB_ExpVehFac_Vehicle_Factory@@EAEXPAVScriptableGameObj@@@Z
	DD	FLAT:?Killed@MDB_ExpVehFac_Vehicle_Factory@@EAEXPAVScriptableGameObj@@0@Z
	DD	FLAT:?Damaged@ScriptImpClass@@UAEXPAVScriptableGameObj@@0M@Z
	DD	FLAT:?Custom@MDB_ExpVehFac_Vehicle_Factory@@EAEXPAVScriptableGameObj@@HH0@Z
	DD	FLAT:?Sound_Heard@ScriptImpClass@@UAEXPAVScriptableGameObj@@ABUCombatSound@@@Z
	DD	FLAT:?Enemy_Seen@ScriptImpClass@@UAEXPAVScriptableGameObj@@0@Z
	DD	FLAT:?Action_Complete@ScriptImpClass@@UAEXPAVScriptableGameObj@@HW4ActionCompleteReason@@@Z
	DD	FLAT:?Timer_Expired@MDB_ExpVehFac_Vehicle_Factory@@EAEXPAVScriptableGameObj@@H@Z
	DD	FLAT:?Animation_Complete@ScriptImpClass@@UAEXPAVScriptableGameObj@@PBD@Z
	DD	FLAT:?Poked@ScriptImpClass@@UAEXPAVScriptableGameObj@@0@Z
	DD	FLAT:?Entered@ScriptImpClass@@UAEXPAVScriptableGameObj@@0@Z
	DD	FLAT:?Exited@ScriptImpClass@@UAEXPAVScriptableGameObj@@0@Z
	DD	FLAT:?Owner@ScriptImpClass@@UAEPAVScriptableGameObj@@XZ
	DD	FLAT:?Get_Owner_Ptr@ScriptImpClass@@UAEPAPAVScriptableGameObj@@XZ
	DD	FLAT:?Set_Parameters_String@ScriptImpClass@@UAEXPBD@Z
	DD	FLAT:?Get_Parameters_String@ScriptImpClass@@UAEXPADI@Z
	DD	FLAT:?Save@ScriptImpClass@@MAEXAAVScriptSaver@@@Z
	DD	FLAT:?Load@ScriptImpClass@@MAEXAAVScriptLoader@@@Z
	DD	FLAT:?Save_Data@ScriptImpClass@@UAEXAAVScriptSaver@@@Z
	DD	FLAT:?Load_Data@ScriptImpClass@@UAEXAAVScriptLoader@@@Z
	DD	FLAT:?Register_Auto_Save_Variables@ScriptImpClass@@UAEXXZ
CONST	ENDS
;	COMDAT ??_7MDB_ExpVehFac_Naval@@6B@
CONST	SEGMENT
??_7MDB_ExpVehFac_Naval@@6B@ DD FLAT:??_R4MDB_ExpVehFac_Naval@@6B@ ; MDB_ExpVehFac_Naval::`vftable'
	DD	FLAT:??_EMDB_ExpVehFac_Naval@@UAEPAXI@Z
	DD	FLAT:?Get_Name@ScriptImpClass@@UAEPBDXZ
	DD	FLAT:?Attach@ScriptImpClass@@MAEXPAVScriptableGameObj@@@Z
	DD	FLAT:?Detach@ScriptImpClass@@MAEXPAVScriptableGameObj@@@Z
	DD	FLAT:?Created@MDB_ExpVehFac_Naval@@EAEXPAVScriptableGameObj@@@Z
	DD	FLAT:?Destroyed@MDB_ExpVehFac_Naval@@EAEXPAVScriptableGameObj@@@Z
	DD	FLAT:?Killed@MDB_ExpVehFac_Naval@@EAEXPAVScriptableGameObj@@0@Z
	DD	FLAT:?Damaged@ScriptImpClass@@UAEXPAVScriptableGameObj@@0M@Z
	DD	FLAT:?Custom@MDB_ExpVehFac_Naval@@EAEXPAVScriptableGameObj@@HH0@Z
	DD	FLAT:?Sound_Heard@ScriptImpClass@@UAEXPAVScriptableGameObj@@ABUCombatSound@@@Z
	DD	FLAT:?Enemy_Seen@ScriptImpClass@@UAEXPAVScriptableGameObj@@0@Z
	DD	FLAT:?Action_Complete@ScriptImpClass@@UAEXPAVScriptableGameObj@@HW4ActionCompleteReason@@@Z
	DD	FLAT:?Timer_Expired@ScriptImpClass@@UAEXPAVScriptableGameObj@@H@Z
	DD	FLAT:?Animation_Complete@ScriptImpClass@@UAEXPAVScriptableGameObj@@PBD@Z
	DD	FLAT:?Poked@ScriptImpClass@@UAEXPAVScriptableGameObj@@0@Z
	DD	FLAT:?Entered@ScriptImpClass@@UAEXPAVScriptableGameObj@@0@Z
	DD	FLAT:?Exited@ScriptImpClass@@UAEXPAVScriptableGameObj@@0@Z
	DD	FLAT:?Owner@ScriptImpClass@@UAEPAVScriptableGameObj@@XZ
	DD	FLAT:?Get_Owner_Ptr@ScriptImpClass@@UAEPAPAVScriptableGameObj@@XZ
	DD	FLAT:?Set_Parameters_String@ScriptImpClass@@UAEXPBD@Z
	DD	FLAT:?Get_Parameters_String@ScriptImpClass@@UAEXPADI@Z
	DD	FLAT:?Save@ScriptImpClass@@MAEXAAVScriptSaver@@@Z
	DD	FLAT:?Load@ScriptImpClass@@MAEXAAVScriptLoader@@@Z
	DD	FLAT:?Save_Data@ScriptImpClass@@UAEXAAVScriptSaver@@@Z
	DD	FLAT:?Load_Data@ScriptImpClass@@UAEXAAVScriptLoader@@@Z
	DD	FLAT:?Register_Auto_Save_Variables@ScriptImpClass@@UAEXXZ
CONST	ENDS
;	COMDAT ??_7MDB_ExpVehFac_Helipad@@6B@
CONST	SEGMENT
??_7MDB_ExpVehFac_Helipad@@6B@ DD FLAT:??_R4MDB_ExpVehFac_Helipad@@6B@ ; MDB_ExpVehFac_Helipad::`vftable'
	DD	FLAT:??_EMDB_ExpVehFac_Helipad@@UAEPAXI@Z
	DD	FLAT:?Get_Name@ScriptImpClass@@UAEPBDXZ
	DD	FLAT:?Attach@ScriptImpClass@@MAEXPAVScriptableGameObj@@@Z
	DD	FLAT:?Detach@ScriptImpClass@@MAEXPAVScriptableGameObj@@@Z
	DD	FLAT:?Created@MDB_ExpVehFac_Helipad@@EAEXPAVScriptableGameObj@@@Z
	DD	FLAT:?Destroyed@MDB_ExpVehFac_Helipad@@EAEXPAVScriptableGameObj@@@Z
	DD	FLAT:?Killed@MDB_ExpVehFac_Helipad@@EAEXPAVScriptableGameObj@@0@Z
	DD	FLAT:?Damaged@ScriptImpClass@@UAEXPAVScriptableGameObj@@0M@Z
	DD	FLAT:?Custom@MDB_ExpVehFac_Helipad@@EAEXPAVScriptableGameObj@@HH0@Z
	DD	FLAT:?Sound_Heard@ScriptImpClass@@UAEXPAVScriptableGameObj@@ABUCombatSound@@@Z
	DD	FLAT:?Enemy_Seen@ScriptImpClass@@UAEXPAVScriptableGameObj@@0@Z
	DD	FLAT:?Action_Complete@ScriptImpClass@@UAEXPAVScriptableGameObj@@HW4ActionCompleteReason@@@Z
	DD	FLAT:?Timer_Expired@ScriptImpClass@@UAEXPAVScriptableGameObj@@H@Z
	DD	FLAT:?Animation_Complete@ScriptImpClass@@UAEXPAVScriptableGameObj@@PBD@Z
	DD	FLAT:?Poked@ScriptImpClass@@UAEXPAVScriptableGameObj@@0@Z
	DD	FLAT:?Entered@ScriptImpClass@@UAEXPAVScriptableGameObj@@0@Z
	DD	FLAT:?Exited@ScriptImpClass@@UAEXPAVScriptableGameObj@@0@Z
	DD	FLAT:?Owner@ScriptImpClass@@UAEPAVScriptableGameObj@@XZ
	DD	FLAT:?Get_Owner_Ptr@ScriptImpClass@@UAEPAPAVScriptableGameObj@@XZ
	DD	FLAT:?Set_Parameters_String@ScriptImpClass@@UAEXPBD@Z
	DD	FLAT:?Get_Parameters_String@ScriptImpClass@@UAEXPADI@Z
	DD	FLAT:?Save@ScriptImpClass@@MAEXAAVScriptSaver@@@Z
	DD	FLAT:?Load@ScriptImpClass@@MAEXAAVScriptLoader@@@Z
	DD	FLAT:?Save_Data@ScriptImpClass@@UAEXAAVScriptSaver@@@Z
	DD	FLAT:?Load_Data@ScriptImpClass@@UAEXAAVScriptLoader@@@Z
	DD	FLAT:?Register_Auto_Save_Variables@ScriptImpClass@@UAEXXZ
CONST	ENDS
;	COMDAT ??_7?$SimpleDynVecClass@PAUCreationPos@@@@6B@
CONST	SEGMENT
??_7?$SimpleDynVecClass@PAUCreationPos@@@@6B@ DD FLAT:??_R4?$SimpleDynVecClass@PAUCreationPos@@@@6B@ ; SimpleDynVecClass<CreationPos *>::`vftable'
	DD	FLAT:??_E?$SimpleDynVecClass@PAUCreationPos@@@@UAEPAXI@Z
	DD	FLAT:?Resize@?$SimpleDynVecClass@PAUCreationPos@@@@UAE_NH@Z
	DD	FLAT:?Uninitialised_Grow@?$SimpleVecClass@PAUCreationPos@@@@UAE_NH@Z
CONST	ENDS
;	COMDAT ??_7?$SimpleVecClass@PAUCreationPos@@@@6B@
CONST	SEGMENT
??_7?$SimpleVecClass@PAUCreationPos@@@@6B@ DD FLAT:??_R4?$SimpleVecClass@PAUCreationPos@@@@6B@ ; SimpleVecClass<CreationPos *>::`vftable'
	DD	FLAT:??_E?$SimpleVecClass@PAUCreationPos@@@@UAEPAXI@Z
	DD	FLAT:?Resize@?$SimpleVecClass@PAUCreationPos@@@@UAE_NH@Z
	DD	FLAT:?Uninitialised_Grow@?$SimpleVecClass@PAUCreationPos@@@@UAE_NH@Z
CONST	ENDS
;	COMDAT ??_7?$SimpleDynVecClass@PAUUnitInfo@@@@6B@
CONST	SEGMENT
??_7?$SimpleDynVecClass@PAUUnitInfo@@@@6B@ DD FLAT:??_R4?$SimpleDynVecClass@PAUUnitInfo@@@@6B@ ; SimpleDynVecClass<UnitInfo *>::`vftable'
	DD	FLAT:??_E?$SimpleDynVecClass@PAUUnitInfo@@@@UAEPAXI@Z
	DD	FLAT:?Resize@?$SimpleDynVecClass@PAUUnitInfo@@@@UAE_NH@Z
	DD	FLAT:?Uninitialised_Grow@?$SimpleVecClass@PAUUnitInfo@@@@UAE_NH@Z
CONST	ENDS
;	COMDAT ??_7?$SimpleVecClass@PAUUnitInfo@@@@6B@
CONST	SEGMENT
??_7?$SimpleVecClass@PAUUnitInfo@@@@6B@ DD FLAT:??_R4?$SimpleVecClass@PAUUnitInfo@@@@6B@ ; SimpleVecClass<UnitInfo *>::`vftable'
	DD	FLAT:??_E?$SimpleVecClass@PAUUnitInfo@@@@UAEPAXI@Z
	DD	FLAT:?Resize@?$SimpleVecClass@PAUUnitInfo@@@@UAE_NH@Z
	DD	FLAT:?Uninitialised_Grow@?$SimpleVecClass@PAUUnitInfo@@@@UAE_NH@Z
CONST	ENDS
;	COMDAT ??_7JFW_Object_Created_Hook_Base@@6B@
CONST	SEGMENT
??_7JFW_Object_Created_Hook_Base@@6B@ DD FLAT:??_R4JFW_Object_Created_Hook_Base@@6B@ ; JFW_Object_Created_Hook_Base::`vftable'
	DD	FLAT:??_EJFW_Object_Created_Hook_Base@@UAEPAXI@Z
	DD	FLAT:?Get_Name@ScriptImpClass@@UAEPBDXZ
	DD	FLAT:?Attach@ScriptImpClass@@MAEXPAVScriptableGameObj@@@Z
	DD	FLAT:?Detach@JFW_Object_Created_Hook_Base@@UAEXPAVScriptableGameObj@@@Z
	DD	FLAT:?Created@JFW_Object_Created_Hook_Base@@UAEXPAVScriptableGameObj@@@Z
	DD	FLAT:?Destroyed@ScriptImpClass@@UAEXPAVScriptableGameObj@@@Z
	DD	FLAT:?Killed@ScriptImpClass@@UAEXPAVScriptableGameObj@@0@Z
	DD	FLAT:?Damaged@ScriptImpClass@@UAEXPAVScriptableGameObj@@0M@Z
	DD	FLAT:?Custom@ScriptImpClass@@UAEXPAVScriptableGameObj@@HH0@Z
	DD	FLAT:?Sound_Heard@ScriptImpClass@@UAEXPAVScriptableGameObj@@ABUCombatSound@@@Z
	DD	FLAT:?Enemy_Seen@ScriptImpClass@@UAEXPAVScriptableGameObj@@0@Z
	DD	FLAT:?Action_Complete@ScriptImpClass@@UAEXPAVScriptableGameObj@@HW4ActionCompleteReason@@@Z
	DD	FLAT:?Timer_Expired@ScriptImpClass@@UAEXPAVScriptableGameObj@@H@Z
	DD	FLAT:?Animation_Complete@ScriptImpClass@@UAEXPAVScriptableGameObj@@PBD@Z
	DD	FLAT:?Poked@ScriptImpClass@@UAEXPAVScriptableGameObj@@0@Z
	DD	FLAT:?Entered@ScriptImpClass@@UAEXPAVScriptableGameObj@@0@Z
	DD	FLAT:?Exited@ScriptImpClass@@UAEXPAVScriptableGameObj@@0@Z
	DD	FLAT:?Owner@ScriptImpClass@@UAEPAVScriptableGameObj@@XZ
	DD	FLAT:?Get_Owner_Ptr@ScriptImpClass@@UAEPAPAVScriptableGameObj@@XZ
	DD	FLAT:?Set_Parameters_String@ScriptImpClass@@UAEXPBD@Z
	DD	FLAT:?Get_Parameters_String@ScriptImpClass@@UAEXPADI@Z
	DD	FLAT:?Save@ScriptImpClass@@MAEXAAVScriptSaver@@@Z
	DD	FLAT:?Load@ScriptImpClass@@MAEXAAVScriptLoader@@@Z
	DD	FLAT:?Save_Data@ScriptImpClass@@UAEXAAVScriptSaver@@@Z
	DD	FLAT:?Load_Data@ScriptImpClass@@UAEXAAVScriptLoader@@@Z
	DD	FLAT:?Register_Auto_Save_Variables@ScriptImpClass@@UAEXXZ
	DD	FLAT:__purecall
CONST	ENDS
;	COMDAT ??_7MultiKeyHookScriptImpClass@@6B@
CONST	SEGMENT
??_7MultiKeyHookScriptImpClass@@6B@ DD FLAT:??_R4MultiKeyHookScriptImpClass@@6B@ ; MultiKeyHookScriptImpClass::`vftable'
	DD	FLAT:??_EMultiKeyHookScriptImpClass@@UAEPAXI@Z
	DD	FLAT:?Get_Name@ScriptImpClass@@UAEPBDXZ
	DD	FLAT:?Attach@ScriptImpClass@@MAEXPAVScriptableGameObj@@@Z
	DD	FLAT:?Detach@MultiKeyHookScriptImpClass@@UAEXPAVScriptableGameObj@@@Z
	DD	FLAT:?Created@ScriptImpClass@@UAEXPAVScriptableGameObj@@@Z
	DD	FLAT:?Destroyed@MultiKeyHookScriptImpClass@@UAEXPAVScriptableGameObj@@@Z
	DD	FLAT:?Killed@ScriptImpClass@@UAEXPAVScriptableGameObj@@0@Z
	DD	FLAT:?Damaged@ScriptImpClass@@UAEXPAVScriptableGameObj@@0M@Z
	DD	FLAT:?Custom@ScriptImpClass@@UAEXPAVScriptableGameObj@@HH0@Z
	DD	FLAT:?Sound_Heard@ScriptImpClass@@UAEXPAVScriptableGameObj@@ABUCombatSound@@@Z
	DD	FLAT:?Enemy_Seen@ScriptImpClass@@UAEXPAVScriptableGameObj@@0@Z
	DD	FLAT:?Action_Complete@ScriptImpClass@@UAEXPAVScriptableGameObj@@HW4ActionCompleteReason@@@Z
	DD	FLAT:?Timer_Expired@ScriptImpClass@@UAEXPAVScriptableGameObj@@H@Z
	DD	FLAT:?Animation_Complete@ScriptImpClass@@UAEXPAVScriptableGameObj@@PBD@Z
	DD	FLAT:?Poked@ScriptImpClass@@UAEXPAVScriptableGameObj@@0@Z
	DD	FLAT:?Entered@ScriptImpClass@@UAEXPAVScriptableGameObj@@0@Z
	DD	FLAT:?Exited@ScriptImpClass@@UAEXPAVScriptableGameObj@@0@Z
	DD	FLAT:?Owner@ScriptImpClass@@UAEPAVScriptableGameObj@@XZ
	DD	FLAT:?Get_Owner_Ptr@ScriptImpClass@@UAEPAPAVScriptableGameObj@@XZ
	DD	FLAT:?Set_Parameters_String@ScriptImpClass@@UAEXPBD@Z
	DD	FLAT:?Get_Parameters_String@ScriptImpClass@@UAEXPADI@Z
	DD	FLAT:?Save@ScriptImpClass@@MAEXAAVScriptSaver@@@Z
	DD	FLAT:?Load@ScriptImpClass@@MAEXAAVScriptLoader@@@Z
	DD	FLAT:?Save_Data@ScriptImpClass@@UAEXAAVScriptSaver@@@Z
	DD	FLAT:?Load_Data@ScriptImpClass@@UAEXAAVScriptLoader@@@Z
	DD	FLAT:?Register_Auto_Save_Variables@ScriptImpClass@@UAEXXZ
	DD	FLAT:__purecall
CONST	ENDS
;	COMDAT ??_7?$SList@UKeyHookWrapperStruct@MultiKeyHookScriptImpClass@@@@6B@
CONST	SEGMENT
??_7?$SList@UKeyHookWrapperStruct@MultiKeyHookScriptImpClass@@@@6B@ DD FLAT:??_R4?$SList@UKeyHookWrapperStruct@MultiKeyHookScriptImpClass@@@@6B@ ; SList<MultiKeyHookScriptImpClass::KeyHookWrapperStruct>::`vftable'
	DD	FLAT:??_E?$SList@UKeyHookWrapperStruct@MultiKeyHookScriptImpClass@@@@UAEPAXI@Z
	DD	FLAT:?Add_Head@?$SList@UKeyHookWrapperStruct@MultiKeyHookScriptImpClass@@@@UAE_NAAV1@@Z
	DD	FLAT:?Add_Head@?$SList@UKeyHookWrapperStruct@MultiKeyHookScriptImpClass@@@@UAE_NPAUKeyHookWrapperStruct@MultiKeyHookScriptImpClass@@@Z
	DD	FLAT:?Add_Tail@?$SList@UKeyHookWrapperStruct@MultiKeyHookScriptImpClass@@@@UAE_NAAV1@@Z
	DD	FLAT:?Add_Tail@?$SList@UKeyHookWrapperStruct@MultiKeyHookScriptImpClass@@@@UAE_NPAUKeyHookWrapperStruct@MultiKeyHookScriptImpClass@@@Z
	DD	FLAT:?Remove_Head@?$SList@UKeyHookWrapperStruct@MultiKeyHookScriptImpClass@@@@UAEPAUKeyHookWrapperStruct@MultiKeyHookScriptImpClass@@XZ
	DD	FLAT:?Remove_Tail@?$SList@UKeyHookWrapperStruct@MultiKeyHookScriptImpClass@@@@UAEPAUKeyHookWrapperStruct@MultiKeyHookScriptImpClass@@XZ
	DD	FLAT:?Remove@?$SList@UKeyHookWrapperStruct@MultiKeyHookScriptImpClass@@@@UAE_NPBUKeyHookWrapperStruct@MultiKeyHookScriptImpClass@@@Z
	DD	FLAT:?Remove_All@?$SList@UKeyHookWrapperStruct@MultiKeyHookScriptImpClass@@@@UAEXXZ
	DD	FLAT:?Insert_Before@?$SList@UKeyHookWrapperStruct@MultiKeyHookScriptImpClass@@@@UAE_NPAUKeyHookWrapperStruct@MultiKeyHookScriptImpClass@@PBU23@@Z
	DD	FLAT:?Insert_After@?$SList@UKeyHookWrapperStruct@MultiKeyHookScriptImpClass@@@@UAE_NPAUKeyHookWrapperStruct@MultiKeyHookScriptImpClass@@PBU23@@Z
	DD	FLAT:?Is_Empty@?$SList@UKeyHookWrapperStruct@MultiKeyHookScriptImpClass@@@@UBE_NXZ
	DD	FLAT:?Get_Count@?$SList@UKeyHookWrapperStruct@MultiKeyHookScriptImpClass@@@@UBEIXZ
CONST	ENDS
;	COMDAT ??_7JFW_Key_Hook_Base@@6B@
CONST	SEGMENT
??_7JFW_Key_Hook_Base@@6B@ DD FLAT:??_R4JFW_Key_Hook_Base@@6B@ ; JFW_Key_Hook_Base::`vftable'
	DD	FLAT:??_EJFW_Key_Hook_Base@@UAEPAXI@Z
	DD	FLAT:?Get_Name@ScriptImpClass@@UAEPBDXZ
	DD	FLAT:?Attach@ScriptImpClass@@MAEXPAVScriptableGameObj@@@Z
	DD	FLAT:?Detach@JFW_Key_Hook_Base@@UAEXPAVScriptableGameObj@@@Z
	DD	FLAT:?Created@ScriptImpClass@@UAEXPAVScriptableGameObj@@@Z
	DD	FLAT:?Destroyed@JFW_Key_Hook_Base@@UAEXPAVScriptableGameObj@@@Z
	DD	FLAT:?Killed@ScriptImpClass@@UAEXPAVScriptableGameObj@@0@Z
	DD	FLAT:?Damaged@ScriptImpClass@@UAEXPAVScriptableGameObj@@0M@Z
	DD	FLAT:?Custom@ScriptImpClass@@UAEXPAVScriptableGameObj@@HH0@Z
	DD	FLAT:?Sound_Heard@ScriptImpClass@@UAEXPAVScriptableGameObj@@ABUCombatSound@@@Z
	DD	FLAT:?Enemy_Seen@ScriptImpClass@@UAEXPAVScriptableGameObj@@0@Z
	DD	FLAT:?Action_Complete@ScriptImpClass@@UAEXPAVScriptableGameObj@@HW4ActionCompleteReason@@@Z
	DD	FLAT:?Timer_Expired@ScriptImpClass@@UAEXPAVScriptableGameObj@@H@Z
	DD	FLAT:?Animation_Complete@ScriptImpClass@@UAEXPAVScriptableGameObj@@PBD@Z
	DD	FLAT:?Poked@ScriptImpClass@@UAEXPAVScriptableGameObj@@0@Z
	DD	FLAT:?Entered@ScriptImpClass@@UAEXPAVScriptableGameObj@@0@Z
	DD	FLAT:?Exited@ScriptImpClass@@UAEXPAVScriptableGameObj@@0@Z
	DD	FLAT:?Owner@ScriptImpClass@@UAEPAVScriptableGameObj@@XZ
	DD	FLAT:?Get_Owner_Ptr@ScriptImpClass@@UAEPAPAVScriptableGameObj@@XZ
	DD	FLAT:?Set_Parameters_String@ScriptImpClass@@UAEXPBD@Z
	DD	FLAT:?Get_Parameters_String@ScriptImpClass@@UAEXPADI@Z
	DD	FLAT:?Save@ScriptImpClass@@MAEXAAVScriptSaver@@@Z
	DD	FLAT:?Load@ScriptImpClass@@MAEXAAVScriptLoader@@@Z
	DD	FLAT:?Save_Data@ScriptImpClass@@UAEXAAVScriptSaver@@@Z
	DD	FLAT:?Load_Data@ScriptImpClass@@UAEXAAVScriptLoader@@@Z
	DD	FLAT:?Register_Auto_Save_Variables@ScriptImpClass@@UAEXXZ
	DD	FLAT:__purecall
CONST	ENDS
;	COMDAT ??_7?$SimpleVecClass@I@@6B@
CONST	SEGMENT
??_7?$SimpleVecClass@I@@6B@ DD FLAT:??_R4?$SimpleVecClass@I@@6B@ ; SimpleVecClass<unsigned int>::`vftable'
	DD	FLAT:??_E?$SimpleVecClass@I@@UAEPAXI@Z
	DD	FLAT:?Resize@?$SimpleVecClass@I@@UAE_NH@Z
	DD	FLAT:?Uninitialised_Grow@?$SimpleVecClass@I@@UAE_NH@Z
CONST	ENDS
;	COMDAT ??_7ReferencerClass@@6B@
CONST	SEGMENT
??_7ReferencerClass@@6B@ DD FLAT:??_R4ReferencerClass@@6B@ ; ReferencerClass::`vftable'
	DD	FLAT:??_EReferencerClass@@UAEPAXI@Z
	DD	FLAT:?On_Post_Load@ReferencerClass@@UAEXXZ
CONST	ENDS
;	COMDAT ??_7PostLoadableClass@@6B@
CONST	SEGMENT
??_7PostLoadableClass@@6B@ DD FLAT:??_R4PostLoadableClass@@6B@ ; PostLoadableClass::`vftable'
	DD	FLAT:??_EPostLoadableClass@@UAEPAXI@Z
	DD	FLAT:?On_Post_Load@PostLoadableClass@@UAEXXZ
CONST	ENDS
;	COMDAT ??_7INIClass@@6B@
CONST	SEGMENT
??_7INIClass@@6B@ DD FLAT:??_R4INIClass@@6B@		; INIClass::`vftable'
	DD	FLAT:??_EINIClass@@UAEPAXI@Z
CONST	ENDS
;	COMDAT ??_C@_1M@HLGKFCJM@?$AAf?$AAa?$AAl?$AAs?$AAe?$AA?$AA@
CONST	SEGMENT
??_C@_1M@HLGKFCJM@?$AAf?$AAa?$AAl?$AAs?$AAe?$AA?$AA@ DB 'f', 00H, 'a', 00H
	DB	'l', 00H, 's', 00H, 'e', 00H, 00H, 00H	; `string'
CONST	ENDS
;	COMDAT ??_C@_1HC@JEIHKHFK@?$AAx?$AA?3?$AA?2?$AAg?$AAi?$AAt?$AAh?$AAu?$AAb?$AA?2?$AAr?$AAe?$AAn?$AAe?$AAg?$AAa?$AAd?$AAe?$AA?2?$AAd?$AAr?$AAa?$AAg?$AAo?$AAn?$AAa?$AAd?$AAe?$AA_?$AAr?$AAx?$AAd@
CONST	SEGMENT
??_C@_1HC@JEIHKHFK@?$AAx?$AA?3?$AA?2?$AAg?$AAi?$AAt?$AAh?$AAu?$AAb?$AA?2?$AAr?$AAe?$AAn?$AAe?$AAg?$AAa?$AAd?$AAe?$AA?2?$AAd?$AAr?$AAa?$AAg?$AAo?$AAn?$AAa?$AAd?$AAe?$AA_?$AAr?$AAx?$AAd@ DB 'x'
	DB	00H, ':', 00H, '\', 00H, 'g', 00H, 'i', 00H, 't', 00H, 'h', 00H
	DB	'u', 00H, 'b', 00H, '\', 00H, 'r', 00H, 'e', 00H, 'n', 00H, 'e'
	DB	00H, 'g', 00H, 'a', 00H, 'd', 00H, 'e', 00H, '\', 00H, 'd', 00H
	DB	'r', 00H, 'a', 00H, 'g', 00H, 'o', 00H, 'n', 00H, 'a', 00H, 'd'
	DB	00H, 'e', 00H, '_', 00H, 'r', 00H, 'x', 00H, 'd', 00H, '\', 00H
	DB	's', 00H, 'c', 00H, 'r', 00H, 'i', 00H, 'p', 00H, 't', 00H, 's'
	DB	00H, '\', 00H, 'e', 00H, 'n', 00H, 'g', 00H, 'i', 00H, 'n', 00H
	DB	'e', 00H, '_', 00H, 'v', 00H, 'e', 00H, 'c', 00H, 't', 00H, 'o'
	DB	00H, 'r', 00H, '.', 00H, 'h', 00H, 00H, 00H	; `string'
CONST	ENDS
;	COMDAT ??_C@_0DJ@NKJHEMPA@x?3?2github?2renegade?2dragonade_rxd@
CONST	SEGMENT
??_C@_0DJ@NKJHEMPA@x?3?2github?2renegade?2dragonade_rxd@ DB 'x:\github\re'
	DB	'negade\dragonade_rxd\scripts\engine_vector.h', 00H ; `string'
CONST	ENDS
;	COMDAT ??_7ThreadClass@@6B@
CONST	SEGMENT
??_7ThreadClass@@6B@ DD FLAT:??_R4ThreadClass@@6B@	; ThreadClass::`vftable'
	DD	FLAT:??_EThreadClass@@UAEPAXI@Z
	DD	FLAT:__purecall
CONST	ENDS
;	COMDAT ??_7ScriptFactory@@6B@
CONST	SEGMENT
??_7ScriptFactory@@6B@ DD FLAT:??_R4ScriptFactory@@6B@	; ScriptFactory::`vftable'
	DD	FLAT:??_EScriptFactory@@UAEPAXI@Z
	DD	FLAT:__purecall
CONST	ENDS
;	COMDAT ??_7ScriptImpClass@@6B@
CONST	SEGMENT
??_7ScriptImpClass@@6B@ DD FLAT:??_R4ScriptImpClass@@6B@ ; ScriptImpClass::`vftable'
	DD	FLAT:??_EScriptImpClass@@UAEPAXI@Z
	DD	FLAT:?Get_Name@ScriptImpClass@@UAEPBDXZ
	DD	FLAT:?Attach@ScriptImpClass@@MAEXPAVScriptableGameObj@@@Z
	DD	FLAT:?Detach@ScriptImpClass@@MAEXPAVScriptableGameObj@@@Z
	DD	FLAT:?Created@ScriptImpClass@@UAEXPAVScriptableGameObj@@@Z
	DD	FLAT:?Destroyed@ScriptImpClass@@UAEXPAVScriptableGameObj@@@Z
	DD	FLAT:?Killed@ScriptImpClass@@UAEXPAVScriptableGameObj@@0@Z
	DD	FLAT:?Damaged@ScriptImpClass@@UAEXPAVScriptableGameObj@@0M@Z
	DD	FLAT:?Custom@ScriptImpClass@@UAEXPAVScriptableGameObj@@HH0@Z
	DD	FLAT:?Sound_Heard@ScriptImpClass@@UAEXPAVScriptableGameObj@@ABUCombatSound@@@Z
	DD	FLAT:?Enemy_Seen@ScriptImpClass@@UAEXPAVScriptableGameObj@@0@Z
	DD	FLAT:?Action_Complete@ScriptImpClass@@UAEXPAVScriptableGameObj@@HW4ActionCompleteReason@@@Z
	DD	FLAT:?Timer_Expired@ScriptImpClass@@UAEXPAVScriptableGameObj@@H@Z
	DD	FLAT:?Animation_Complete@ScriptImpClass@@UAEXPAVScriptableGameObj@@PBD@Z
	DD	FLAT:?Poked@ScriptImpClass@@UAEXPAVScriptableGameObj@@0@Z
	DD	FLAT:?Entered@ScriptImpClass@@UAEXPAVScriptableGameObj@@0@Z
	DD	FLAT:?Exited@ScriptImpClass@@UAEXPAVScriptableGameObj@@0@Z
	DD	FLAT:?Owner@ScriptImpClass@@UAEPAVScriptableGameObj@@XZ
	DD	FLAT:?Get_Owner_Ptr@ScriptImpClass@@UAEPAPAVScriptableGameObj@@XZ
	DD	FLAT:?Set_Parameters_String@ScriptImpClass@@UAEXPBD@Z
	DD	FLAT:?Get_Parameters_String@ScriptImpClass@@UAEXPADI@Z
	DD	FLAT:?Save@ScriptImpClass@@MAEXAAVScriptSaver@@@Z
	DD	FLAT:?Load@ScriptImpClass@@MAEXAAVScriptLoader@@@Z
	DD	FLAT:?Save_Data@ScriptImpClass@@UAEXAAVScriptSaver@@@Z
	DD	FLAT:?Load_Data@ScriptImpClass@@UAEXAAVScriptLoader@@@Z
	DD	FLAT:?Register_Auto_Save_Variables@ScriptImpClass@@UAEXXZ
CONST	ENDS
;	COMDAT ??_7ScriptClass@@6B@
CONST	SEGMENT
??_7ScriptClass@@6B@ DD FLAT:??_R4ScriptClass@@6B@	; ScriptClass::`vftable'
	DD	FLAT:??_EScriptClass@@UAEPAXI@Z
	DD	FLAT:__purecall
	DD	FLAT:__purecall
	DD	FLAT:__purecall
	DD	FLAT:__purecall
	DD	FLAT:__purecall
	DD	FLAT:__purecall
	DD	FLAT:__purecall
	DD	FLAT:__purecall
	DD	FLAT:__purecall
	DD	FLAT:__purecall
	DD	FLAT:__purecall
	DD	FLAT:__purecall
	DD	FLAT:__purecall
	DD	FLAT:__purecall
	DD	FLAT:__purecall
	DD	FLAT:__purecall
	DD	FLAT:?Owner@GameObjObserverClass@@UAEPAVScriptableGameObj@@XZ
	DD	FLAT:__purecall
	DD	FLAT:__purecall
	DD	FLAT:__purecall
	DD	FLAT:__purecall
	DD	FLAT:__purecall
CONST	ENDS
;	COMDAT ??_7GameObjObserverClass@@6B@
CONST	SEGMENT
??_7GameObjObserverClass@@6B@ DD FLAT:??_R4GameObjObserverClass@@6B@ ; GameObjObserverClass::`vftable'
	DD	FLAT:??_EGameObjObserverClass@@UAEPAXI@Z
	DD	FLAT:__purecall
	DD	FLAT:__purecall
	DD	FLAT:__purecall
	DD	FLAT:__purecall
	DD	FLAT:__purecall
	DD	FLAT:__purecall
	DD	FLAT:__purecall
	DD	FLAT:__purecall
	DD	FLAT:__purecall
	DD	FLAT:__purecall
	DD	FLAT:__purecall
	DD	FLAT:__purecall
	DD	FLAT:__purecall
	DD	FLAT:__purecall
	DD	FLAT:__purecall
	DD	FLAT:__purecall
	DD	FLAT:?Owner@GameObjObserverClass@@UAEPAVScriptableGameObj@@XZ
CONST	ENDS
CRT$XCU	SEGMENT
_MDB_ExpVehFac_Naval_Registrant$initializer$ DD FLAT:??__EMDB_ExpVehFac_Naval_Registrant@@YAXXZ
CRT$XCU	ENDS
CRT$XCU	SEGMENT
_MDB_ExpVehFac_Vehicle_Factory_Registrant$initializer$ DD FLAT:??__EMDB_ExpVehFac_Vehicle_Factory_Registrant@@YAXXZ
CRT$XCU	ENDS
CRT$XCU	SEGMENT
_MDB_ExpVehFac_Cinematic_Registrant$initializer$ DD FLAT:??__EMDB_ExpVehFac_Cinematic_Registrant@@YAXXZ
CRT$XCU	ENDS
CRT$XCU	SEGMENT
_MDB_ExpVehFac_Cinematic_Vehicle_Registrant$initializer$ DD FLAT:??__EMDB_ExpVehFac_Cinematic_Vehicle_Registrant@@YAXXZ
CRT$XCU	ENDS
CRT$XCU	SEGMENT
_MDB_ExpVehFac_Limit_Registrant$initializer$ DD FLAT:??__EMDB_ExpVehFac_Limit_Registrant@@YAXXZ
CRT$XCU	ENDS
; Function compile flags: /Odtp /ZI
;	COMDAT ??__Finstancex@?1??getInstance@?$Singleton@V?$ObjectPoolClass@VGenericSLNode@@$0BAA@@@@@SAAAV?$ObjectPoolClass@VGenericSLNode@@$0BAA@@@XZ@YAXXZ
text$yd	SEGMENT
??__Finstancex@?1??getInstance@?$Singleton@V?$ObjectPoolClass@VGenericSLNode@@$0BAA@@@@@SAAAV?$ObjectPoolClass@VGenericSLNode@@$0BAA@@@XZ@YAXXZ PROC ; `Singleton<ObjectPoolClass<GenericSLNode,256> >::getInstance'::`2'::`dynamic atexit destructor for 'instancex'', COMDAT
	push	ebp
	mov	ebp, esp
	sub	esp, 64					; 00000040H
	push	ebx
	push	esi
	push	edi
	mov	ecx, OFFSET ?instancex@?1??getInstance@?$Singleton@V?$ObjectPoolClass@VGenericSLNode@@$0BAA@@@@@SAAAV?$ObjectPoolClass@VGenericSLNode@@$0BAA@@@XZ@4V3@A ; `Singleton<ObjectPoolClass<GenericSLNode,256> >::getInstance'::`2'::instancex
	call	??1?$ObjectPoolClass@VGenericSLNode@@$0BAA@@@QAE@XZ ; ObjectPoolClass<GenericSLNode,256>::~ObjectPoolClass<GenericSLNode,256>
	pop	edi
	pop	esi
	pop	ebx
	mov	esp, ebp
	pop	ebp
	ret	0
??__Finstancex@?1??getInstance@?$Singleton@V?$ObjectPoolClass@VGenericSLNode@@$0BAA@@@@@SAAAV?$ObjectPoolClass@VGenericSLNode@@$0BAA@@@XZ@YAXXZ ENDP ; `Singleton<ObjectPoolClass<GenericSLNode,256> >::getInstance'::`2'::`dynamic atexit destructor for 'instancex''
text$yd	ENDS
; Function compile flags: /Odtp /ZI
; File x:\github\renegade\dragonade_rxd\scripts\engine_vector.h
;	COMDAT ?writeDummyPattern@?$ObjectPoolClass@VGenericSLNode@@$0BAA@@@QAEXAAVGenericSLNode@@K@Z
_TEXT	SEGMENT
_endDword$ = -12					; size = 4
_dword$ = -8						; size = 4
_this$ = -4						; size = 4
_object$ = 8						; size = 4
_pattern$ = 12						; size = 4
?writeDummyPattern@?$ObjectPoolClass@VGenericSLNode@@$0BAA@@@QAEXAAVGenericSLNode@@K@Z PROC ; ObjectPoolClass<GenericSLNode,256>::writeDummyPattern, COMDAT
; _this$ = ecx

; 1445 : 	{

	push	ebp
	mov	ebp, esp
	sub	esp, 76					; 0000004cH
	push	ebx
	push	esi
	push	edi
	mov	DWORD PTR _this$[ebp], ecx

; 1446 : #ifdef DEBUG
; 1447 : 		static_assert(sizeof(T) % 4 == 0, "Expected type size to be a multiple of 4.");
; 1448 : 		DWORD* dword = (DWORD*)&object;

	mov	eax, DWORD PTR _object$[ebp]
	mov	DWORD PTR _dword$[ebp], eax

; 1449 : 		DWORD* endDword = (DWORD*)(&object+1);

	mov	eax, DWORD PTR _object$[ebp]
	add	eax, 8
	mov	DWORD PTR _endDword$[ebp], eax

; 1450 : 		for (; dword < endDword; ++dword)

	jmp	SHORT $LN3@writeDummy
$LN2@writeDummy:
	mov	eax, DWORD PTR _dword$[ebp]
	add	eax, 4
	mov	DWORD PTR _dword$[ebp], eax
$LN3@writeDummy:
	mov	eax, DWORD PTR _dword$[ebp]
	cmp	eax, DWORD PTR _endDword$[ebp]
	jae	SHORT $LN4@writeDummy

; 1451 : 			*dword = pattern;

	mov	eax, DWORD PTR _dword$[ebp]
	mov	ecx, DWORD PTR _pattern$[ebp]
	mov	DWORD PTR [eax], ecx
	jmp	SHORT $LN2@writeDummy
$LN4@writeDummy:

; 1452 : #endif
; 1453 : 	}

	pop	edi
	pop	esi
	pop	ebx
	mov	esp, ebp
	pop	ebp
	ret	8
?writeDummyPattern@?$ObjectPoolClass@VGenericSLNode@@$0BAA@@@QAEXAAVGenericSLNode@@K@Z ENDP ; ObjectPoolClass<GenericSLNode,256>::writeDummyPattern
_TEXT	ENDS
; Function compile flags: /Odtp /ZI
; File x:\github\renegade\dragonade_rxd\scripts\engine_vector.h
;	COMDAT ?Free_Object_Memory@?$ObjectPoolClass@VGenericSLNode@@$0BAA@@@QAEXAAVGenericSLNode@@@Z
_TEXT	SEGMENT
_lock$ = -8						; size = 4
_this$ = -4						; size = 4
_object$ = 8						; size = 4
?Free_Object_Memory@?$ObjectPoolClass@VGenericSLNode@@$0BAA@@@QAEXAAVGenericSLNode@@@Z PROC ; ObjectPoolClass<GenericSLNode,256>::Free_Object_Memory, COMDAT
; _this$ = ecx

; 1436 : 	{

	push	ebp
	mov	ebp, esp
	sub	esp, 72					; 00000048H
	push	ebx
	push	esi
	push	edi
	mov	DWORD PTR _this$[ebp], ecx

; 1437 : 		FastCriticalSectionClass::LockClass lock(ObjectPoolCS);

	mov	eax, DWORD PTR _this$[ebp]
	add	eax, 16					; 00000010H
	push	eax
	lea	ecx, DWORD PTR _lock$[ebp]
	call	??0LockClass@FastCriticalSectionClass@@QAE@AAV1@@Z ; FastCriticalSectionClass::LockClass::LockClass

; 1438 : 		writeDummyPattern(object, 0xEDE7E10D);

	push	-303570675				; ede7e10dH
	mov	eax, DWORD PTR _object$[ebp]
	push	eax
	mov	ecx, DWORD PTR _this$[ebp]
	call	?writeDummyPattern@?$ObjectPoolClass@VGenericSLNode@@$0BAA@@@QAEXAAVGenericSLNode@@K@Z ; ObjectPoolClass<GenericSLNode,256>::writeDummyPattern

; 1439 : 		(T*&)object = FreeListHead;

	mov	eax, DWORD PTR _object$[ebp]
	mov	ecx, DWORD PTR _this$[ebp]
	mov	edx, DWORD PTR [ecx]
	mov	DWORD PTR [eax], edx

; 1440 : 		FreeListHead = &object;

	mov	eax, DWORD PTR _this$[ebp]
	mov	ecx, DWORD PTR _object$[ebp]
	mov	DWORD PTR [eax], ecx

; 1441 : 		FreeObjectCount++;

	mov	eax, DWORD PTR _this$[ebp]
	mov	ecx, DWORD PTR [eax+8]
	add	ecx, 1
	mov	edx, DWORD PTR _this$[ebp]
	mov	DWORD PTR [edx+8], ecx

; 1442 : 	}

	lea	ecx, DWORD PTR _lock$[ebp]
	call	??1LockClass@FastCriticalSectionClass@@QAE@XZ ; FastCriticalSectionClass::LockClass::~LockClass
	pop	edi
	pop	esi
	pop	ebx
	mov	esp, ebp
	pop	ebp
	ret	4
?Free_Object_Memory@?$ObjectPoolClass@VGenericSLNode@@$0BAA@@@QAEXAAVGenericSLNode@@@Z ENDP ; ObjectPoolClass<GenericSLNode,256>::Free_Object_Memory
_TEXT	ENDS
; Function compile flags: /Odtp /ZI
; File x:\github\renegade\dragonade_rxd\scripts\engine_vector.h
;	COMDAT ?Allocate_Object_Memory@?$ObjectPoolClass@VGenericSLNode@@$0BAA@@@QAEPAVGenericSLNode@@XZ
_TEXT	SEGMENT
tv82 = -96						; size = 4
$T1 = -92						; size = 4
$T2 = -88						; size = 4
_object$ = -20						; size = 4
_i$3 = -16						; size = 4
_newBlockListHead$4 = -12				; size = 4
_lock$ = -8						; size = 4
_this$ = -4						; size = 4
?Allocate_Object_Memory@?$ObjectPoolClass@VGenericSLNode@@$0BAA@@@QAEPAVGenericSLNode@@XZ PROC ; ObjectPoolClass<GenericSLNode,256>::Allocate_Object_Memory, COMDAT
; _this$ = ecx

; 1413 : 	{

	push	ebp
	mov	ebp, esp
	sub	esp, 96					; 00000060H
	push	ebx
	push	esi
	push	edi
	mov	DWORD PTR _this$[ebp], ecx

; 1414 : 		FastCriticalSectionClass::LockClass lock(ObjectPoolCS);

	mov	eax, DWORD PTR _this$[ebp]
	add	eax, 16					; 00000010H
	push	eax
	lea	ecx, DWORD PTR _lock$[ebp]
	call	??0LockClass@FastCriticalSectionClass@@QAE@AAV1@@Z ; FastCriticalSectionClass::LockClass::LockClass

; 1415 :  		if (!FreeListHead)

	mov	eax, DWORD PTR _this$[ebp]
	cmp	DWORD PTR [eax], 0
	jne	$LN4@Allocate_O

; 1416 : 		{
; 1417 : 			void* newBlockListHead = (void*)((void*)new char[sizeof(void*) + sizeof(T[BLOCK_SIZE])]);

	push	OFFSET ??_C@_0EB@IOGKEECK@ObjectPoolClass?$DMclass?5GenericSLN@
	push	1417					; 00000589H
	push	OFFSET ??_C@_0DJ@NKJHEMPA@x?3?2github?2renegade?2dragonade_rxd@
	call	?SetThreadTrackingInformation@@YAXPBDI0@Z ; SetThreadTrackingInformation
	add	esp, 12					; 0000000cH
	xor	eax, eax
	je	SHORT $LN8@Allocate_O
	xor	ecx, ecx
	jne	SHORT $LN7@Allocate_O
	push	1417					; 00000589H
	push	OFFSET ??_C@_1HC@JEIHKHFK@?$AAx?$AA?3?$AA?2?$AAg?$AAi?$AAt?$AAh?$AAu?$AAb?$AA?2?$AAr?$AAe?$AAn?$AAe?$AAg?$AAa?$AAd?$AAe?$AA?2?$AAd?$AAr?$AAa?$AAg?$AAo?$AAn?$AAa?$AAd?$AAe?$AA_?$AAr?$AAx?$AAd@
	push	OFFSET ??_C@_1M@HLGKFCJM@?$AAf?$AAa?$AAl?$AAs?$AAe?$AA?$AA@
	call	DWORD PTR __imp___wassert
	add	esp, 12					; 0000000cH
$LN7@Allocate_O:
	mov	DWORD PTR tv82[ebp], 0
	jmp	SHORT $LN9@Allocate_O
$LN8@Allocate_O:
	push	2052					; 00000804H
	call	??_U@YAPAXI@Z				; operator new[]
	add	esp, 4
	mov	DWORD PTR $T1[ebp], eax
	mov	eax, DWORD PTR $T1[ebp]
	mov	DWORD PTR tv82[ebp], eax
$LN9@Allocate_O:
	mov	ecx, DWORD PTR tv82[ebp]
	mov	DWORD PTR _newBlockListHead$4[ebp], ecx

; 1418 : 			*(void**)newBlockListHead = BlockListHead;

	mov	eax, DWORD PTR _newBlockListHead$4[ebp]
	mov	ecx, DWORD PTR _this$[ebp]
	mov	edx, DWORD PTR [ecx+4]
	mov	DWORD PTR [eax], edx

; 1419 : 			BlockListHead = newBlockListHead;

	mov	eax, DWORD PTR _this$[ebp]
	mov	ecx, DWORD PTR _newBlockListHead$4[ebp]
	mov	DWORD PTR [eax+4], ecx

; 1420 : 			FreeListHead = (T*)((intptr_t)BlockListHead + sizeof(void*));

	mov	eax, DWORD PTR _this$[ebp]
	mov	ecx, DWORD PTR [eax+4]
	add	ecx, 4
	mov	edx, DWORD PTR _this$[ebp]
	mov	DWORD PTR [edx], ecx

; 1421 : 			for (int i = 0; i < BLOCK_SIZE; i++)

	mov	DWORD PTR _i$3[ebp], 0
	jmp	SHORT $LN3@Allocate_O
$LN2@Allocate_O:
	mov	eax, DWORD PTR _i$3[ebp]
	add	eax, 1
	mov	DWORD PTR _i$3[ebp], eax
$LN3@Allocate_O:
	cmp	DWORD PTR _i$3[ebp], 256		; 00000100H
	jge	SHORT $LN1@Allocate_O

; 1422 : 				(T*&)FreeListHead[i] = &FreeListHead[i+1];

	mov	eax, DWORD PTR _this$[ebp]
	mov	ecx, DWORD PTR [eax]
	mov	edx, DWORD PTR _i$3[ebp]
	lea	eax, DWORD PTR [ecx+edx*8+8]
	mov	ecx, DWORD PTR _this$[ebp]
	mov	edx, DWORD PTR [ecx]
	mov	ecx, DWORD PTR _i$3[ebp]
	mov	DWORD PTR [edx+ecx*8], eax
	jmp	SHORT $LN2@Allocate_O
$LN1@Allocate_O:

; 1423 : 			
; 1424 : 			(T*&)FreeListHead[BLOCK_SIZE-1] = NULL;

	mov	eax, 8
	imul	eax, 255				; 000000ffH
	mov	ecx, DWORD PTR _this$[ebp]
	mov	edx, DWORD PTR [ecx]
	mov	DWORD PTR [eax+edx], 0

; 1425 : 			FreeObjectCount += BLOCK_SIZE;

	mov	eax, DWORD PTR _this$[ebp]
	mov	ecx, DWORD PTR [eax+8]
	add	ecx, 256				; 00000100H
	mov	edx, DWORD PTR _this$[ebp]
	mov	DWORD PTR [edx+8], ecx

; 1426 : 			TotalObjectCount += BLOCK_SIZE;

	mov	eax, DWORD PTR _this$[ebp]
	mov	ecx, DWORD PTR [eax+12]
	add	ecx, 256				; 00000100H
	mov	edx, DWORD PTR _this$[ebp]
	mov	DWORD PTR [edx+12], ecx
$LN4@Allocate_O:

; 1427 : 		}
; 1428 : 
; 1429 : 		T* object = FreeListHead;

	mov	eax, DWORD PTR _this$[ebp]
	mov	ecx, DWORD PTR [eax]
	mov	DWORD PTR _object$[ebp], ecx

; 1430 : 		FreeListHead = *(T**)(FreeListHead);

	mov	eax, DWORD PTR _this$[ebp]
	mov	ecx, DWORD PTR [eax]
	mov	edx, DWORD PTR _this$[ebp]
	mov	eax, DWORD PTR [ecx]
	mov	DWORD PTR [edx], eax

; 1431 : 		FreeObjectCount--;

	mov	eax, DWORD PTR _this$[ebp]
	mov	ecx, DWORD PTR [eax+8]
	sub	ecx, 1
	mov	edx, DWORD PTR _this$[ebp]
	mov	DWORD PTR [edx+8], ecx

; 1432 : 		return object;

	mov	eax, DWORD PTR _object$[ebp]
	mov	DWORD PTR $T2[ebp], eax
	lea	ecx, DWORD PTR _lock$[ebp]
	call	??1LockClass@FastCriticalSectionClass@@QAE@XZ ; FastCriticalSectionClass::LockClass::~LockClass
	mov	eax, DWORD PTR $T2[ebp]

; 1433 : 	}

	pop	edi
	pop	esi
	pop	ebx
	mov	esp, ebp
	pop	ebp
	ret	0
?Allocate_Object_Memory@?$ObjectPoolClass@VGenericSLNode@@$0BAA@@@QAEPAVGenericSLNode@@XZ ENDP ; ObjectPoolClass<GenericSLNode,256>::Allocate_Object_Memory
_TEXT	ENDS
; Function compile flags: /Odtp /ZI
; File x:\github\renegade\dragonade_rxd\scripts\engine_vector.h
;	COMDAT ??1?$ObjectPoolClass@VGenericSLNode@@$0BAA@@@QAE@XZ
_TEXT	SEGMENT
$T1 = -336						; size = 4
_nextBlock$2 = -268					; size = 4
_block$ = -264						; size = 4
_buffer$3 = -260					; size = 256
_this$ = -4						; size = 4
??1?$ObjectPoolClass@VGenericSLNode@@$0BAA@@@QAE@XZ PROC ; ObjectPoolClass<GenericSLNode,256>::~ObjectPoolClass<GenericSLNode,256>, COMDAT
; _this$ = ecx

; 1393 : 	{

	push	ebp
	mov	ebp, esp
	sub	esp, 336				; 00000150H
	push	ebx
	push	esi
	push	edi
	mov	DWORD PTR _this$[ebp], ecx

; 1394 : 		// If you hit the following assert, one or more objects were not freed.
; 1395 : 		if (FreeObjectCount != TotalObjectCount)

	mov	eax, DWORD PTR _this$[ebp]
	mov	ecx, DWORD PTR _this$[ebp]
	mov	edx, DWORD PTR [eax+8]
	cmp	edx, DWORD PTR [ecx+12]
	je	SHORT $LN3@ObjectPool

; 1396 : 		{
; 1397 : 			char buffer[256];
; 1398 : 			sprintf(buffer, "%d memory leaks found in " __FUNCTION__ "\n", TotalObjectCount - FreeObjectCount);

	mov	eax, DWORD PTR _this$[ebp]
	mov	ecx, DWORD PTR _this$[ebp]
	mov	edx, DWORD PTR [eax+12]
	sub	edx, DWORD PTR [ecx+8]
	push	edx
	push	OFFSET ??_C@_0FF@NOANHENP@?$CFd?5memory?5leaks?5found?5in?5ObjectP@
	lea	eax, DWORD PTR _buffer$3[ebp]
	push	eax
	call	DWORD PTR __imp__sprintf
	add	esp, 12					; 0000000cH

; 1399 : 			OutputDebugStringA(buffer);

	lea	eax, DWORD PTR _buffer$3[ebp]
	push	eax
	call	DWORD PTR __imp__OutputDebugStringA@4
$LN3@ObjectPool:

; 1400 : 			// TODO: There are quite a few mem leaks of this kind. Fix them.
; 1401 : 		}
; 1402 : 
; 1403 : 		void* block = BlockListHead;

	mov	eax, DWORD PTR _this$[ebp]
	mov	ecx, DWORD PTR [eax+4]
	mov	DWORD PTR _block$[ebp], ecx
$LN2@ObjectPool:

; 1404 :  		while (block)

	cmp	DWORD PTR _block$[ebp], 0
	je	SHORT $LN4@ObjectPool

; 1405 : 		{
; 1406 : 			void* nextBlock = *(void**)block;

	mov	eax, DWORD PTR _block$[ebp]
	mov	ecx, DWORD PTR [eax]
	mov	DWORD PTR _nextBlock$2[ebp], ecx

; 1407 : 			delete[] block;

	push	OFFSET ??_C@_0DL@BOENBDGI@ObjectPoolClass?$DMclass?5GenericSLN@
	push	1407					; 0000057fH
	push	OFFSET ??_C@_0DJ@NKJHEMPA@x?3?2github?2renegade?2dragonade_rxd@
	call	?SetThreadTrackingInformation@@YAXPBDI0@Z ; SetThreadTrackingInformation
	add	esp, 12					; 0000000cH
	xor	eax, eax
	je	SHORT $LN7@ObjectPool
	xor	ecx, ecx
	jne	SHORT $LN6@ObjectPool
	push	1407					; 0000057fH
	push	OFFSET ??_C@_1HC@JEIHKHFK@?$AAx?$AA?3?$AA?2?$AAg?$AAi?$AAt?$AAh?$AAu?$AAb?$AA?2?$AAr?$AAe?$AAn?$AAe?$AAg?$AAa?$AAd?$AAe?$AA?2?$AAd?$AAr?$AAa?$AAg?$AAo?$AAn?$AAa?$AAd?$AAe?$AA_?$AAr?$AAx?$AAd@
	push	OFFSET ??_C@_1M@HLGKFCJM@?$AAf?$AAa?$AAl?$AAs?$AAe?$AA?$AA@
	call	DWORD PTR __imp___wassert
	add	esp, 12					; 0000000cH
$LN6@ObjectPool:
	jmp	SHORT $LN8@ObjectPool
$LN7@ObjectPool:
	mov	eax, DWORD PTR _block$[ebp]
	mov	DWORD PTR $T1[ebp], eax
	mov	ecx, DWORD PTR $T1[ebp]
	push	ecx
	call	??_V@YAXPAX@Z				; operator delete[]
	add	esp, 4
$LN8@ObjectPool:

; 1408 : 			block = nextBlock;

	mov	eax, DWORD PTR _nextBlock$2[ebp]
	mov	DWORD PTR _block$[ebp], eax

; 1409 : 		}

	jmp	SHORT $LN2@ObjectPool
$LN4@ObjectPool:

; 1410 : 	}

	pop	edi
	pop	esi
	pop	ebx
	mov	esp, ebp
	pop	ebp
	ret	0
??1?$ObjectPoolClass@VGenericSLNode@@$0BAA@@@QAE@XZ ENDP ; ObjectPoolClass<GenericSLNode,256>::~ObjectPoolClass<GenericSLNode,256>
_TEXT	ENDS
; Function compile flags: /Odtp /ZI
; File x:\github\renegade\dragonade_rxd\scripts\engine_vector.h
;	COMDAT ??0?$ObjectPoolClass@VGenericSLNode@@$0BAA@@@QAE@XZ
_TEXT	SEGMENT
_this$ = -4						; size = 4
??0?$ObjectPoolClass@VGenericSLNode@@$0BAA@@@QAE@XZ PROC ; ObjectPoolClass<GenericSLNode,256>::ObjectPoolClass<GenericSLNode,256>, COMDAT
; _this$ = ecx

; 1384 : 	ObjectPoolClass()

	push	ebp
	mov	ebp, esp
	sub	esp, 68					; 00000044H
	push	ebx
	push	esi
	push	edi
	mov	DWORD PTR _this$[ebp], ecx
	mov	ecx, DWORD PTR _this$[ebp]
	add	ecx, 16					; 00000010H
	call	??0FastCriticalSectionClass@@QAE@XZ	; FastCriticalSectionClass::FastCriticalSectionClass
	mov	eax, DWORD PTR [eax]

; 1385 : 	{
; 1386 : 		FreeListHead = 0;

	mov	eax, DWORD PTR _this$[ebp]
	mov	DWORD PTR [eax], 0

; 1387 : 		BlockListHead = 0;

	mov	eax, DWORD PTR _this$[ebp]
	mov	DWORD PTR [eax+4], 0

; 1388 : 		FreeObjectCount = 0;

	mov	eax, DWORD PTR _this$[ebp]
	mov	DWORD PTR [eax+8], 0

; 1389 : 		TotalObjectCount = 0;

	mov	eax, DWORD PTR _this$[ebp]
	mov	DWORD PTR [eax+12], 0

; 1390 : 	}

	mov	eax, DWORD PTR _this$[ebp]
	pop	edi
	pop	esi
	pop	ebx
	mov	esp, ebp
	pop	ebp
	ret	0
??0?$ObjectPoolClass@VGenericSLNode@@$0BAA@@@QAE@XZ ENDP ; ObjectPoolClass<GenericSLNode,256>::ObjectPoolClass<GenericSLNode,256>
_TEXT	ENDS
; Function compile flags: /Odtp /ZI
; File x:\github\renegade\dragonade_rxd\scripts\singleton.h
;	COMDAT ?getInstance@?$Singleton@V?$ObjectPoolClass@VGenericSLNode@@$0BAA@@@@@SAAAV?$ObjectPoolClass@VGenericSLNode@@$0BAA@@@XZ
_TEXT	SEGMENT
?getInstance@?$Singleton@V?$ObjectPoolClass@VGenericSLNode@@$0BAA@@@@@SAAAV?$ObjectPoolClass@VGenericSLNode@@$0BAA@@@XZ PROC ; Singleton<ObjectPoolClass<GenericSLNode,256> >::getInstance, COMDAT

; 59   : 	{

	push	ebp
	mov	ebp, esp
	sub	esp, 64					; 00000040H
	push	ebx
	push	esi
	push	edi

; 60   : 		static T instancex;

	mov	eax, DWORD PTR ??_B?1??getInstance@?$Singleton@V?$ObjectPoolClass@VGenericSLNode@@$0BAA@@@@@SAAAV?$ObjectPoolClass@VGenericSLNode@@$0BAA@@@XZ@51
	and	eax, 1
	jne	SHORT $LN1@getInstanc
	mov	eax, DWORD PTR ??_B?1??getInstance@?$Singleton@V?$ObjectPoolClass@VGenericSLNode@@$0BAA@@@@@SAAAV?$ObjectPoolClass@VGenericSLNode@@$0BAA@@@XZ@51
	or	eax, 1
	mov	DWORD PTR ??_B?1??getInstance@?$Singleton@V?$ObjectPoolClass@VGenericSLNode@@$0BAA@@@@@SAAAV?$ObjectPoolClass@VGenericSLNode@@$0BAA@@@XZ@51, eax
	mov	ecx, OFFSET ?instancex@?1??getInstance@?$Singleton@V?$ObjectPoolClass@VGenericSLNode@@$0BAA@@@@@SAAAV?$ObjectPoolClass@VGenericSLNode@@$0BAA@@@XZ@4V3@A ; `Singleton<ObjectPoolClass<GenericSLNode,256> >::getInstance'::`2'::instancex
	call	??0?$ObjectPoolClass@VGenericSLNode@@$0BAA@@@QAE@XZ ; ObjectPoolClass<GenericSLNode,256>::ObjectPoolClass<GenericSLNode,256>
	push	OFFSET ??__Finstancex@?1??getInstance@?$Singleton@V?$ObjectPoolClass@VGenericSLNode@@$0BAA@@@@@SAAAV?$ObjectPoolClass@VGenericSLNode@@$0BAA@@@XZ@YAXXZ ; `Singleton<ObjectPoolClass<GenericSLNode,256> >::getInstance'::`2'::`dynamic atexit destructor for 'instancex''
	call	_atexit
	add	esp, 4
$LN1@getInstanc:

; 61   : 		return instancex;

	mov	eax, OFFSET ?instancex@?1??getInstance@?$Singleton@V?$ObjectPoolClass@VGenericSLNode@@$0BAA@@@@@SAAAV?$ObjectPoolClass@VGenericSLNode@@$0BAA@@@XZ@4V3@A ; `Singleton<ObjectPoolClass<GenericSLNode,256> >::getInstance'::`2'::instancex

; 62   : 	}

	pop	edi
	pop	esi
	pop	ebx
	mov	esp, ebp
	pop	ebp
	ret	0
?getInstance@?$Singleton@V?$ObjectPoolClass@VGenericSLNode@@$0BAA@@@@@SAAAV?$ObjectPoolClass@VGenericSLNode@@$0BAA@@@XZ ENDP ; Singleton<ObjectPoolClass<GenericSLNode,256> >::getInstance
_TEXT	ENDS
; Function compile flags: /Odtp /ZI
; File x:\github\renegade\dragonade_rxd\scripts\slist.h
;	COMDAT ??0?$SLNode@UKeyHookWrapperStruct@MultiKeyHookScriptImpClass@@@@IAE@PAUKeyHookWrapperStruct@MultiKeyHookScriptImpClass@@@Z
_TEXT	SEGMENT
_this$ = -4						; size = 4
_obj$ = 8						; size = 4
??0?$SLNode@UKeyHookWrapperStruct@MultiKeyHookScriptImpClass@@@@IAE@PAUKeyHookWrapperStruct@MultiKeyHookScriptImpClass@@@Z PROC ; SLNode<MultiKeyHookScriptImpClass::KeyHookWrapperStruct>::SLNode<MultiKeyHookScriptImpClass::KeyHookWrapperStruct>, COMDAT
; _this$ = ecx

; 69   : 	SLNode(T *obj) : GenericSLNode(obj) {}

	push	ebp
	mov	ebp, esp
	sub	esp, 68					; 00000044H
	push	ebx
	push	esi
	push	edi
	mov	DWORD PTR _this$[ebp], ecx
	mov	eax, DWORD PTR _obj$[ebp]
	push	eax
	mov	ecx, DWORD PTR _this$[ebp]
	call	??0GenericSLNode@@IAE@PAX@Z		; GenericSLNode::GenericSLNode
	mov	eax, DWORD PTR _this$[ebp]
	pop	edi
	pop	esi
	pop	ebx
	mov	esp, ebp
	pop	ebp
	ret	4
??0?$SLNode@UKeyHookWrapperStruct@MultiKeyHookScriptImpClass@@@@IAE@PAUKeyHookWrapperStruct@MultiKeyHookScriptImpClass@@@Z ENDP ; SLNode<MultiKeyHookScriptImpClass::KeyHookWrapperStruct>::SLNode<MultiKeyHookScriptImpClass::KeyHookWrapperStruct>
_TEXT	ENDS
; Function compile flags: /Odtp /ZI
; File x:\github\renegade\dragonade_rxd\scripts\slist.h
;	COMDAT ?Data@?$SLNode@UKeyHookWrapperStruct@MultiKeyHookScriptImpClass@@@@QBEPAUKeyHookWrapperStruct@MultiKeyHookScriptImpClass@@XZ
_TEXT	SEGMENT
_this$ = -4						; size = 4
?Data@?$SLNode@UKeyHookWrapperStruct@MultiKeyHookScriptImpClass@@@@QBEPAUKeyHookWrapperStruct@MultiKeyHookScriptImpClass@@XZ PROC ; SLNode<MultiKeyHookScriptImpClass::KeyHookWrapperStruct>::Data, COMDAT
; _this$ = ecx

; 65   : 	{

	push	ebp
	mov	ebp, esp
	sub	esp, 68					; 00000044H
	push	ebx
	push	esi
	push	edi
	mov	DWORD PTR _this$[ebp], ecx

; 66   : 		return (T*)NodeData;

	mov	eax, DWORD PTR _this$[ebp]
	mov	eax, DWORD PTR [eax+4]

; 67   : 	}

	pop	edi
	pop	esi
	pop	ebx
	mov	esp, ebp
	pop	ebp
	ret	0
?Data@?$SLNode@UKeyHookWrapperStruct@MultiKeyHookScriptImpClass@@@@QBEPAUKeyHookWrapperStruct@MultiKeyHookScriptImpClass@@XZ ENDP ; SLNode<MultiKeyHookScriptImpClass::KeyHookWrapperStruct>::Data
_TEXT	ENDS
; Function compile flags: /Odtp /ZI
; File x:\github\renegade\dragonade_rxd\scripts\slist.h
;	COMDAT ?Next@?$SLNode@UKeyHookWrapperStruct@MultiKeyHookScriptImpClass@@@@QBEPAV1@XZ
_TEXT	SEGMENT
_this$ = -4						; size = 4
?Next@?$SLNode@UKeyHookWrapperStruct@MultiKeyHookScriptImpClass@@@@QBEPAV1@XZ PROC ; SLNode<MultiKeyHookScriptImpClass::KeyHookWrapperStruct>::Next, COMDAT
; _this$ = ecx

; 61   : 	{

	push	ebp
	mov	ebp, esp
	sub	esp, 68					; 00000044H
	push	ebx
	push	esi
	push	edi
	mov	DWORD PTR _this$[ebp], ecx

; 62   : 		return (SLNode<T>*)NodeNext;

	mov	eax, DWORD PTR _this$[ebp]
	mov	eax, DWORD PTR [eax]

; 63   : 	}

	pop	edi
	pop	esi
	pop	ebx
	mov	esp, ebp
	pop	ebp
	ret	0
?Next@?$SLNode@UKeyHookWrapperStruct@MultiKeyHookScriptImpClass@@@@QBEPAV1@XZ ENDP ; SLNode<MultiKeyHookScriptImpClass::KeyHookWrapperStruct>::Next
_TEXT	ENDS
; Function compile flags: /Odtp /ZI
; File x:\github\renegade\dragonade_rxd\scripts\slist.h
;	COMDAT ?Set_Next@?$SLNode@UKeyHookWrapperStruct@MultiKeyHookScriptImpClass@@@@QAEXPAV1@@Z
_TEXT	SEGMENT
_this$ = -4						; size = 4
_n$ = 8							; size = 4
?Set_Next@?$SLNode@UKeyHookWrapperStruct@MultiKeyHookScriptImpClass@@@@QAEXPAV1@@Z PROC ; SLNode<MultiKeyHookScriptImpClass::KeyHookWrapperStruct>::Set_Next, COMDAT
; _this$ = ecx

; 57   : 	{

	push	ebp
	mov	ebp, esp
	sub	esp, 68					; 00000044H
	push	ebx
	push	esi
	push	edi
	mov	DWORD PTR _this$[ebp], ecx

; 58   : 		NodeNext = n;

	mov	eax, DWORD PTR _this$[ebp]
	mov	ecx, DWORD PTR _n$[ebp]
	mov	DWORD PTR [eax], ecx

; 59   : 	}

	pop	edi
	pop	esi
	pop	ebx
	mov	esp, ebp
	pop	ebp
	ret	4
?Set_Next@?$SLNode@UKeyHookWrapperStruct@MultiKeyHookScriptImpClass@@@@QAEXPAV1@@Z ENDP ; SLNode<MultiKeyHookScriptImpClass::KeyHookWrapperStruct>::Set_Next
_TEXT	ENDS
; Function compile flags: /Odtp /ZI
;	COMDAT ??__FMDB_ExpVehFac_Limit_Registrant@@YAXXZ
text$yd	SEGMENT
??__FMDB_ExpVehFac_Limit_Registrant@@YAXXZ PROC		; `dynamic atexit destructor for 'MDB_ExpVehFac_Limit_Registrant'', COMDAT
	push	ebp
	mov	ebp, esp
	sub	esp, 64					; 00000040H
	push	ebx
	push	esi
	push	edi
	mov	ecx, OFFSET ?MDB_ExpVehFac_Limit_Registrant@@3V?$ScriptRegistrant@VMDB_ExpVehFac_Limit@@@@A ; MDB_ExpVehFac_Limit_Registrant
	call	??1?$ScriptRegistrant@VMDB_ExpVehFac_Limit@@@@UAE@XZ
	pop	edi
	pop	esi
	pop	ebx
	mov	esp, ebp
	pop	ebp
	ret	0
??__FMDB_ExpVehFac_Limit_Registrant@@YAXXZ ENDP		; `dynamic atexit destructor for 'MDB_ExpVehFac_Limit_Registrant''
text$yd	ENDS
; Function compile flags: /Odtp /ZI
; File x:\github\renegade\dragonade_rxd\scripts\mdbevf.cpp
;	COMDAT ??__EMDB_ExpVehFac_Limit_Registrant@@YAXXZ
text$yc	SEGMENT
??__EMDB_ExpVehFac_Limit_Registrant@@YAXXZ PROC		; `dynamic initializer for 'MDB_ExpVehFac_Limit_Registrant'', COMDAT

; 1392 : ScriptRegistrant<MDB_ExpVehFac_Limit> MDB_ExpVehFac_Limit_Registrant("MDB_ExpVehFac_Limit","Type:int");

	push	ebp
	mov	ebp, esp
	sub	esp, 64					; 00000040H
	push	ebx
	push	esi
	push	edi
	push	OFFSET ??_C@_08JFKDHNCE@Type?3int?$AA@
	push	OFFSET ??_C@_0BE@BKNPJNFJ@MDB_ExpVehFac_Limit?$AA@
	mov	ecx, OFFSET ?MDB_ExpVehFac_Limit_Registrant@@3V?$ScriptRegistrant@VMDB_ExpVehFac_Limit@@@@A ; MDB_ExpVehFac_Limit_Registrant
	call	??0?$ScriptRegistrant@VMDB_ExpVehFac_Limit@@@@QAE@PBD0@Z ; ScriptRegistrant<MDB_ExpVehFac_Limit>::ScriptRegistrant<MDB_ExpVehFac_Limit>
	push	OFFSET ??__FMDB_ExpVehFac_Limit_Registrant@@YAXXZ ; `dynamic atexit destructor for 'MDB_ExpVehFac_Limit_Registrant''
	call	_atexit
	add	esp, 4
	pop	edi
	pop	esi
	pop	ebx
	mov	esp, ebp
	pop	ebp
	ret	0
??__EMDB_ExpVehFac_Limit_Registrant@@YAXXZ ENDP		; `dynamic initializer for 'MDB_ExpVehFac_Limit_Registrant''
text$yc	ENDS
; Function compile flags: /Odtp /ZI
;	COMDAT ??_G?$ScriptRegistrant@VMDB_ExpVehFac_Limit@@@@UAEPAXI@Z
_TEXT	SEGMENT
_this$ = -4						; size = 4
___flags$ = 8						; size = 4
??_G?$ScriptRegistrant@VMDB_ExpVehFac_Limit@@@@UAEPAXI@Z PROC ; ScriptRegistrant<MDB_ExpVehFac_Limit>::`scalar deleting destructor', COMDAT
; _this$ = ecx
	push	ebp
	mov	ebp, esp
	sub	esp, 68					; 00000044H
	push	ebx
	push	esi
	push	edi
	mov	DWORD PTR _this$[ebp], ecx
	mov	ecx, DWORD PTR _this$[ebp]
	call	??1?$ScriptRegistrant@VMDB_ExpVehFac_Limit@@@@UAE@XZ
	mov	eax, DWORD PTR ___flags$[ebp]
	and	eax, 1
	je	SHORT $LN1@scalar
	mov	eax, DWORD PTR _this$[ebp]
	push	eax
	call	??3@YAXPAX@Z				; operator delete
	add	esp, 4
$LN1@scalar:
	mov	eax, DWORD PTR _this$[ebp]
	pop	edi
	pop	esi
	pop	ebx
	mov	esp, ebp
	pop	ebp
	ret	4
??_G?$ScriptRegistrant@VMDB_ExpVehFac_Limit@@@@UAEPAXI@Z ENDP ; ScriptRegistrant<MDB_ExpVehFac_Limit>::`scalar deleting destructor'
_TEXT	ENDS
; Function compile flags: /Odtp /ZI
;	COMDAT ??1?$ScriptRegistrant@VMDB_ExpVehFac_Limit@@@@UAE@XZ
_TEXT	SEGMENT
_this$ = -4						; size = 4
??1?$ScriptRegistrant@VMDB_ExpVehFac_Limit@@@@UAE@XZ PROC ; ScriptRegistrant<MDB_ExpVehFac_Limit>::~ScriptRegistrant<MDB_ExpVehFac_Limit>, COMDAT
; _this$ = ecx
	push	ebp
	mov	ebp, esp
	sub	esp, 68					; 00000044H
	push	ebx
	push	esi
	push	edi
	mov	DWORD PTR _this$[ebp], ecx
	mov	ecx, DWORD PTR _this$[ebp]
	call	??1ScriptFactory@@UAE@XZ		; ScriptFactory::~ScriptFactory
	pop	edi
	pop	esi
	pop	ebx
	mov	esp, ebp
	pop	ebp
	ret	0
??1?$ScriptRegistrant@VMDB_ExpVehFac_Limit@@@@UAE@XZ ENDP ; ScriptRegistrant<MDB_ExpVehFac_Limit>::~ScriptRegistrant<MDB_ExpVehFac_Limit>
_TEXT	ENDS
; Function compile flags: /Odtp /ZI
; File x:\github\renegade\dragonade_rxd\scripts\scripts.h
;	COMDAT ?Create@?$ScriptRegistrant@VMDB_ExpVehFac_Limit@@@@UAEPAVScriptImpClass@@XZ
_TEXT	SEGMENT
tv77 = -84						; size = 4
tv79 = -80						; size = 4
$T1 = -76						; size = 4
_script$ = -8						; size = 4
_this$ = -4						; size = 4
?Create@?$ScriptRegistrant@VMDB_ExpVehFac_Limit@@@@UAEPAVScriptImpClass@@XZ PROC ; ScriptRegistrant<MDB_ExpVehFac_Limit>::Create, COMDAT
; _this$ = ecx

; 552  : 	{

	push	ebp
	mov	ebp, esp
	sub	esp, 84					; 00000054H
	push	ebx
	push	esi
	push	edi
	mov	DWORD PTR _this$[ebp], ecx

; 553  : 		T* script = new T;

	push	OFFSET ??_C@_0DE@CGPPIIDB@ScriptRegistrant?$DMclass?5MDB_ExpVe@
	push	553					; 00000229H
	push	OFFSET ??_C@_0DD@KMKBFFOF@x?3?2github?2renegade?2dragonade_rxd@
	call	?SetThreadTrackingInformation@@YAXPBDI0@Z ; SetThreadTrackingInformation
	add	esp, 12					; 0000000cH
	xor	eax, eax
	je	SHORT $LN6@Create
	xor	ecx, ecx
	jne	SHORT $LN3@Create
	push	553					; 00000229H
	push	OFFSET ??_C@_1GG@OGNLNBPD@?$AAx?$AA?3?$AA?2?$AAg?$AAi?$AAt?$AAh?$AAu?$AAb?$AA?2?$AAr?$AAe?$AAn?$AAe?$AAg?$AAa?$AAd?$AAe?$AA?2?$AAd?$AAr?$AAa?$AAg?$AAo?$AAn?$AAa?$AAd?$AAe?$AA_?$AAr?$AAx?$AAd@
	push	OFFSET ??_C@_1M@HLGKFCJM@?$AAf?$AAa?$AAl?$AAs?$AAe?$AA?$AA@
	call	DWORD PTR __imp___wassert
	add	esp, 12					; 0000000cH
$LN3@Create:
	mov	DWORD PTR tv79[ebp], 0
	jmp	SHORT $LN7@Create
$LN6@Create:
	push	32					; 00000020H
	call	??2@YAPAXI@Z				; operator new
	add	esp, 4
	mov	DWORD PTR $T1[ebp], eax
	cmp	DWORD PTR $T1[ebp], 0
	je	SHORT $LN4@Create
	mov	ecx, DWORD PTR $T1[ebp]
	call	??0MDB_ExpVehFac_Limit@@QAE@XZ
	mov	DWORD PTR tv77[ebp], eax
	jmp	SHORT $LN5@Create
$LN4@Create:
	mov	DWORD PTR tv77[ebp], 0
$LN5@Create:
	mov	eax, DWORD PTR tv77[ebp]
	mov	DWORD PTR tv79[ebp], eax
$LN7@Create:
	mov	ecx, DWORD PTR tv79[ebp]
	mov	DWORD PTR _script$[ebp], ecx

; 554  : 		script->SetFactory(this);

	mov	eax, DWORD PTR _this$[ebp]
	push	eax
	mov	ecx, DWORD PTR _script$[ebp]
	call	?SetFactory@ScriptImpClass@@QAEXPAVScriptFactory@@@Z ; ScriptImpClass::SetFactory

; 555  : 		script->Register_Auto_Save_Variables();

	mov	eax, DWORD PTR _script$[ebp]
	mov	edx, DWORD PTR [eax]
	mov	ecx, DWORD PTR _script$[ebp]
	mov	eax, DWORD PTR [edx+100]
	call	eax

; 556  : 		return script;

	mov	eax, DWORD PTR _script$[ebp]

; 557  : 	}

	pop	edi
	pop	esi
	pop	ebx
	mov	esp, ebp
	pop	ebp
	ret	0
?Create@?$ScriptRegistrant@VMDB_ExpVehFac_Limit@@@@UAEPAVScriptImpClass@@XZ ENDP ; ScriptRegistrant<MDB_ExpVehFac_Limit>::Create
_TEXT	ENDS
; Function compile flags: /Odtp /ZI
; File x:\github\renegade\dragonade_rxd\scripts\scripts.h
;	COMDAT ??0?$ScriptRegistrant@VMDB_ExpVehFac_Limit@@@@QAE@PBD0@Z
_TEXT	SEGMENT
_this$ = -4						; size = 4
_name$ = 8						; size = 4
_param$ = 12						; size = 4
??0?$ScriptRegistrant@VMDB_ExpVehFac_Limit@@@@QAE@PBD0@Z PROC ; ScriptRegistrant<MDB_ExpVehFac_Limit>::ScriptRegistrant<MDB_ExpVehFac_Limit>, COMDAT
; _this$ = ecx

; 549  : 	{

	push	ebp
	mov	ebp, esp
	sub	esp, 68					; 00000044H
	push	ebx
	push	esi
	push	edi
	mov	DWORD PTR _this$[ebp], ecx
	mov	eax, DWORD PTR _param$[ebp]
	push	eax
	mov	ecx, DWORD PTR _name$[ebp]
	push	ecx
	mov	ecx, DWORD PTR _this$[ebp]
	call	??0ScriptFactory@@IAE@PBD0@Z		; ScriptFactory::ScriptFactory
	mov	eax, DWORD PTR _this$[ebp]
	mov	DWORD PTR [eax], OFFSET ??_7?$ScriptRegistrant@VMDB_ExpVehFac_Limit@@@@6B@

; 550  : 	}

	mov	eax, DWORD PTR _this$[ebp]
	pop	edi
	pop	esi
	pop	ebx
	mov	esp, ebp
	pop	ebp
	ret	8
??0?$ScriptRegistrant@VMDB_ExpVehFac_Limit@@@@QAE@PBD0@Z ENDP ; ScriptRegistrant<MDB_ExpVehFac_Limit>::ScriptRegistrant<MDB_ExpVehFac_Limit>
_TEXT	ENDS
; Function compile flags: /Odtp /ZI
;	COMDAT ??__FMDB_ExpVehFac_Cinematic_Vehicle_Registrant@@YAXXZ
text$yd	SEGMENT
??__FMDB_ExpVehFac_Cinematic_Vehicle_Registrant@@YAXXZ PROC ; `dynamic atexit destructor for 'MDB_ExpVehFac_Cinematic_Vehicle_Registrant'', COMDAT
	push	ebp
	mov	ebp, esp
	sub	esp, 64					; 00000040H
	push	ebx
	push	esi
	push	edi
	mov	ecx, OFFSET ?MDB_ExpVehFac_Cinematic_Vehicle_Registrant@@3V?$ScriptRegistrant@VMDB_ExpVehFac_Cinematic_Vehicle@@@@A ; MDB_ExpVehFac_Cinematic_Vehicle_Registrant
	call	??1?$ScriptRegistrant@VMDB_ExpVehFac_Cinematic_Vehicle@@@@UAE@XZ
	pop	edi
	pop	esi
	pop	ebx
	mov	esp, ebp
	pop	ebp
	ret	0
??__FMDB_ExpVehFac_Cinematic_Vehicle_Registrant@@YAXXZ ENDP ; `dynamic atexit destructor for 'MDB_ExpVehFac_Cinematic_Vehicle_Registrant''
text$yd	ENDS
; Function compile flags: /Odtp /ZI
; File x:\github\renegade\dragonade_rxd\scripts\mdbevf.cpp
;	COMDAT ??__EMDB_ExpVehFac_Cinematic_Vehicle_Registrant@@YAXXZ
text$yc	SEGMENT
??__EMDB_ExpVehFac_Cinematic_Vehicle_Registrant@@YAXXZ PROC ; `dynamic initializer for 'MDB_ExpVehFac_Cinematic_Vehicle_Registrant'', COMDAT

; 1391 : ScriptRegistrant<MDB_ExpVehFac_Cinematic_Vehicle> MDB_ExpVehFac_Cinematic_Vehicle_Registrant("MDB_ExpVehFac_Cinematic_Vehicle","");

	push	ebp
	mov	ebp, esp
	sub	esp, 64					; 00000040H
	push	ebx
	push	esi
	push	edi
	push	OFFSET ??_C@_00CNPNBAHC@?$AA@
	push	OFFSET ??_C@_0CA@HEBOGOMN@MDB_ExpVehFac_Cinematic_Vehicle?$AA@
	mov	ecx, OFFSET ?MDB_ExpVehFac_Cinematic_Vehicle_Registrant@@3V?$ScriptRegistrant@VMDB_ExpVehFac_Cinematic_Vehicle@@@@A ; MDB_ExpVehFac_Cinematic_Vehicle_Registrant
	call	??0?$ScriptRegistrant@VMDB_ExpVehFac_Cinematic_Vehicle@@@@QAE@PBD0@Z ; ScriptRegistrant<MDB_ExpVehFac_Cinematic_Vehicle>::ScriptRegistrant<MDB_ExpVehFac_Cinematic_Vehicle>
	push	OFFSET ??__FMDB_ExpVehFac_Cinematic_Vehicle_Registrant@@YAXXZ ; `dynamic atexit destructor for 'MDB_ExpVehFac_Cinematic_Vehicle_Registrant''
	call	_atexit
	add	esp, 4
	pop	edi
	pop	esi
	pop	ebx
	mov	esp, ebp
	pop	ebp
	ret	0
??__EMDB_ExpVehFac_Cinematic_Vehicle_Registrant@@YAXXZ ENDP ; `dynamic initializer for 'MDB_ExpVehFac_Cinematic_Vehicle_Registrant''
text$yc	ENDS
; Function compile flags: /Odtp /ZI
;	COMDAT ??_G?$ScriptRegistrant@VMDB_ExpVehFac_Cinematic_Vehicle@@@@UAEPAXI@Z
_TEXT	SEGMENT
_this$ = -4						; size = 4
___flags$ = 8						; size = 4
??_G?$ScriptRegistrant@VMDB_ExpVehFac_Cinematic_Vehicle@@@@UAEPAXI@Z PROC ; ScriptRegistrant<MDB_ExpVehFac_Cinematic_Vehicle>::`scalar deleting destructor', COMDAT
; _this$ = ecx
	push	ebp
	mov	ebp, esp
	sub	esp, 68					; 00000044H
	push	ebx
	push	esi
	push	edi
	mov	DWORD PTR _this$[ebp], ecx
	mov	ecx, DWORD PTR _this$[ebp]
	call	??1?$ScriptRegistrant@VMDB_ExpVehFac_Cinematic_Vehicle@@@@UAE@XZ
	mov	eax, DWORD PTR ___flags$[ebp]
	and	eax, 1
	je	SHORT $LN1@scalar
	mov	eax, DWORD PTR _this$[ebp]
	push	eax
	call	??3@YAXPAX@Z				; operator delete
	add	esp, 4
$LN1@scalar:
	mov	eax, DWORD PTR _this$[ebp]
	pop	edi
	pop	esi
	pop	ebx
	mov	esp, ebp
	pop	ebp
	ret	4
??_G?$ScriptRegistrant@VMDB_ExpVehFac_Cinematic_Vehicle@@@@UAEPAXI@Z ENDP ; ScriptRegistrant<MDB_ExpVehFac_Cinematic_Vehicle>::`scalar deleting destructor'
_TEXT	ENDS
; Function compile flags: /Odtp /ZI
;	COMDAT ??1?$ScriptRegistrant@VMDB_ExpVehFac_Cinematic_Vehicle@@@@UAE@XZ
_TEXT	SEGMENT
_this$ = -4						; size = 4
??1?$ScriptRegistrant@VMDB_ExpVehFac_Cinematic_Vehicle@@@@UAE@XZ PROC ; ScriptRegistrant<MDB_ExpVehFac_Cinematic_Vehicle>::~ScriptRegistrant<MDB_ExpVehFac_Cinematic_Vehicle>, COMDAT
; _this$ = ecx
	push	ebp
	mov	ebp, esp
	sub	esp, 68					; 00000044H
	push	ebx
	push	esi
	push	edi
	mov	DWORD PTR _this$[ebp], ecx
	mov	ecx, DWORD PTR _this$[ebp]
	call	??1ScriptFactory@@UAE@XZ		; ScriptFactory::~ScriptFactory
	pop	edi
	pop	esi
	pop	ebx
	mov	esp, ebp
	pop	ebp
	ret	0
??1?$ScriptRegistrant@VMDB_ExpVehFac_Cinematic_Vehicle@@@@UAE@XZ ENDP ; ScriptRegistrant<MDB_ExpVehFac_Cinematic_Vehicle>::~ScriptRegistrant<MDB_ExpVehFac_Cinematic_Vehicle>
_TEXT	ENDS
; Function compile flags: /Odtp /ZI
; File x:\github\renegade\dragonade_rxd\scripts\scripts.h
;	COMDAT ?Create@?$ScriptRegistrant@VMDB_ExpVehFac_Cinematic_Vehicle@@@@UAEPAVScriptImpClass@@XZ
_TEXT	SEGMENT
tv77 = -84						; size = 4
tv79 = -80						; size = 4
$T1 = -76						; size = 4
_script$ = -8						; size = 4
_this$ = -4						; size = 4
?Create@?$ScriptRegistrant@VMDB_ExpVehFac_Cinematic_Vehicle@@@@UAEPAVScriptImpClass@@XZ PROC ; ScriptRegistrant<MDB_ExpVehFac_Cinematic_Vehicle>::Create, COMDAT
; _this$ = ecx

; 552  : 	{

	push	ebp
	mov	ebp, esp
	sub	esp, 84					; 00000054H
	push	ebx
	push	esi
	push	edi
	mov	DWORD PTR _this$[ebp], ecx

; 553  : 		T* script = new T;

	push	OFFSET ??_C@_0EA@GFDKKLDF@ScriptRegistrant?$DMclass?5MDB_ExpVe@
	push	553					; 00000229H
	push	OFFSET ??_C@_0DD@KMKBFFOF@x?3?2github?2renegade?2dragonade_rxd@
	call	?SetThreadTrackingInformation@@YAXPBDI0@Z ; SetThreadTrackingInformation
	add	esp, 12					; 0000000cH
	xor	eax, eax
	je	SHORT $LN6@Create
	xor	ecx, ecx
	jne	SHORT $LN3@Create
	push	553					; 00000229H
	push	OFFSET ??_C@_1GG@OGNLNBPD@?$AAx?$AA?3?$AA?2?$AAg?$AAi?$AAt?$AAh?$AAu?$AAb?$AA?2?$AAr?$AAe?$AAn?$AAe?$AAg?$AAa?$AAd?$AAe?$AA?2?$AAd?$AAr?$AAa?$AAg?$AAo?$AAn?$AAa?$AAd?$AAe?$AA_?$AAr?$AAx?$AAd@
	push	OFFSET ??_C@_1M@HLGKFCJM@?$AAf?$AAa?$AAl?$AAs?$AAe?$AA?$AA@
	call	DWORD PTR __imp___wassert
	add	esp, 12					; 0000000cH
$LN3@Create:
	mov	DWORD PTR tv79[ebp], 0
	jmp	SHORT $LN7@Create
$LN6@Create:
	push	28					; 0000001cH
	call	??2@YAPAXI@Z				; operator new
	add	esp, 4
	mov	DWORD PTR $T1[ebp], eax
	cmp	DWORD PTR $T1[ebp], 0
	je	SHORT $LN4@Create
	mov	ecx, DWORD PTR $T1[ebp]
	call	??0MDB_ExpVehFac_Cinematic_Vehicle@@QAE@XZ
	mov	DWORD PTR tv77[ebp], eax
	jmp	SHORT $LN5@Create
$LN4@Create:
	mov	DWORD PTR tv77[ebp], 0
$LN5@Create:
	mov	eax, DWORD PTR tv77[ebp]
	mov	DWORD PTR tv79[ebp], eax
$LN7@Create:
	mov	ecx, DWORD PTR tv79[ebp]
	mov	DWORD PTR _script$[ebp], ecx

; 554  : 		script->SetFactory(this);

	mov	eax, DWORD PTR _this$[ebp]
	push	eax
	mov	ecx, DWORD PTR _script$[ebp]
	call	?SetFactory@ScriptImpClass@@QAEXPAVScriptFactory@@@Z ; ScriptImpClass::SetFactory

; 555  : 		script->Register_Auto_Save_Variables();

	mov	eax, DWORD PTR _script$[ebp]
	mov	edx, DWORD PTR [eax]
	mov	ecx, DWORD PTR _script$[ebp]
	mov	eax, DWORD PTR [edx+100]
	call	eax

; 556  : 		return script;

	mov	eax, DWORD PTR _script$[ebp]

; 557  : 	}

	pop	edi
	pop	esi
	pop	ebx
	mov	esp, ebp
	pop	ebp
	ret	0
?Create@?$ScriptRegistrant@VMDB_ExpVehFac_Cinematic_Vehicle@@@@UAEPAVScriptImpClass@@XZ ENDP ; ScriptRegistrant<MDB_ExpVehFac_Cinematic_Vehicle>::Create
_TEXT	ENDS
; Function compile flags: /Odtp /ZI
; File x:\github\renegade\dragonade_rxd\scripts\scripts.h
;	COMDAT ??0?$ScriptRegistrant@VMDB_ExpVehFac_Cinematic_Vehicle@@@@QAE@PBD0@Z
_TEXT	SEGMENT
_this$ = -4						; size = 4
_name$ = 8						; size = 4
_param$ = 12						; size = 4
??0?$ScriptRegistrant@VMDB_ExpVehFac_Cinematic_Vehicle@@@@QAE@PBD0@Z PROC ; ScriptRegistrant<MDB_ExpVehFac_Cinematic_Vehicle>::ScriptRegistrant<MDB_ExpVehFac_Cinematic_Vehicle>, COMDAT
; _this$ = ecx

; 549  : 	{

	push	ebp
	mov	ebp, esp
	sub	esp, 68					; 00000044H
	push	ebx
	push	esi
	push	edi
	mov	DWORD PTR _this$[ebp], ecx
	mov	eax, DWORD PTR _param$[ebp]
	push	eax
	mov	ecx, DWORD PTR _name$[ebp]
	push	ecx
	mov	ecx, DWORD PTR _this$[ebp]
	call	??0ScriptFactory@@IAE@PBD0@Z		; ScriptFactory::ScriptFactory
	mov	eax, DWORD PTR _this$[ebp]
	mov	DWORD PTR [eax], OFFSET ??_7?$ScriptRegistrant@VMDB_ExpVehFac_Cinematic_Vehicle@@@@6B@

; 550  : 	}

	mov	eax, DWORD PTR _this$[ebp]
	pop	edi
	pop	esi
	pop	ebx
	mov	esp, ebp
	pop	ebp
	ret	8
??0?$ScriptRegistrant@VMDB_ExpVehFac_Cinematic_Vehicle@@@@QAE@PBD0@Z ENDP ; ScriptRegistrant<MDB_ExpVehFac_Cinematic_Vehicle>::ScriptRegistrant<MDB_ExpVehFac_Cinematic_Vehicle>
_TEXT	ENDS
; Function compile flags: /Odtp /ZI
;	COMDAT ??__FMDB_ExpVehFac_Cinematic_Registrant@@YAXXZ
text$yd	SEGMENT
??__FMDB_ExpVehFac_Cinematic_Registrant@@YAXXZ PROC	; `dynamic atexit destructor for 'MDB_ExpVehFac_Cinematic_Registrant'', COMDAT
	push	ebp
	mov	ebp, esp
	sub	esp, 64					; 00000040H
	push	ebx
	push	esi
	push	edi
	mov	ecx, OFFSET ?MDB_ExpVehFac_Cinematic_Registrant@@3V?$ScriptRegistrant@VMDB_ExpVehFac_Cinematic@@@@A ; MDB_ExpVehFac_Cinematic_Registrant
	call	??1?$ScriptRegistrant@VMDB_ExpVehFac_Cinematic@@@@UAE@XZ
	pop	edi
	pop	esi
	pop	ebx
	mov	esp, ebp
	pop	ebp
	ret	0
??__FMDB_ExpVehFac_Cinematic_Registrant@@YAXXZ ENDP	; `dynamic atexit destructor for 'MDB_ExpVehFac_Cinematic_Registrant''
text$yd	ENDS
; Function compile flags: /Odtp /ZI
; File x:\github\renegade\dragonade_rxd\scripts\mdbevf.cpp
;	COMDAT ??__EMDB_ExpVehFac_Cinematic_Registrant@@YAXXZ
text$yc	SEGMENT
??__EMDB_ExpVehFac_Cinematic_Registrant@@YAXXZ PROC	; `dynamic initializer for 'MDB_ExpVehFac_Cinematic_Registrant'', COMDAT

; 1390 : ScriptRegistrant<MDB_ExpVehFac_Cinematic> MDB_ExpVehFac_Cinematic_Registrant("MDB_ExpVehFac_Cinematic","Team=0:int,Time:float");

	push	ebp
	mov	ebp, esp
	sub	esp, 64					; 00000040H
	push	ebx
	push	esi
	push	edi
	push	OFFSET ??_C@_0BG@HKGNCJP@Team?$DN0?3int?0Time?3float?$AA@
	push	OFFSET ??_C@_0BI@GNCIIPJF@MDB_ExpVehFac_Cinematic?$AA@
	mov	ecx, OFFSET ?MDB_ExpVehFac_Cinematic_Registrant@@3V?$ScriptRegistrant@VMDB_ExpVehFac_Cinematic@@@@A ; MDB_ExpVehFac_Cinematic_Registrant
	call	??0?$ScriptRegistrant@VMDB_ExpVehFac_Cinematic@@@@QAE@PBD0@Z ; ScriptRegistrant<MDB_ExpVehFac_Cinematic>::ScriptRegistrant<MDB_ExpVehFac_Cinematic>
	push	OFFSET ??__FMDB_ExpVehFac_Cinematic_Registrant@@YAXXZ ; `dynamic atexit destructor for 'MDB_ExpVehFac_Cinematic_Registrant''
	call	_atexit
	add	esp, 4
	pop	edi
	pop	esi
	pop	ebx
	mov	esp, ebp
	pop	ebp
	ret	0
??__EMDB_ExpVehFac_Cinematic_Registrant@@YAXXZ ENDP	; `dynamic initializer for 'MDB_ExpVehFac_Cinematic_Registrant''
text$yc	ENDS
; Function compile flags: /Odtp /ZI
;	COMDAT ??_G?$ScriptRegistrant@VMDB_ExpVehFac_Cinematic@@@@UAEPAXI@Z
_TEXT	SEGMENT
_this$ = -4						; size = 4
___flags$ = 8						; size = 4
??_G?$ScriptRegistrant@VMDB_ExpVehFac_Cinematic@@@@UAEPAXI@Z PROC ; ScriptRegistrant<MDB_ExpVehFac_Cinematic>::`scalar deleting destructor', COMDAT
; _this$ = ecx
	push	ebp
	mov	ebp, esp
	sub	esp, 68					; 00000044H
	push	ebx
	push	esi
	push	edi
	mov	DWORD PTR _this$[ebp], ecx
	mov	ecx, DWORD PTR _this$[ebp]
	call	??1?$ScriptRegistrant@VMDB_ExpVehFac_Cinematic@@@@UAE@XZ
	mov	eax, DWORD PTR ___flags$[ebp]
	and	eax, 1
	je	SHORT $LN1@scalar
	mov	eax, DWORD PTR _this$[ebp]
	push	eax
	call	??3@YAXPAX@Z				; operator delete
	add	esp, 4
$LN1@scalar:
	mov	eax, DWORD PTR _this$[ebp]
	pop	edi
	pop	esi
	pop	ebx
	mov	esp, ebp
	pop	ebp
	ret	4
??_G?$ScriptRegistrant@VMDB_ExpVehFac_Cinematic@@@@UAEPAXI@Z ENDP ; ScriptRegistrant<MDB_ExpVehFac_Cinematic>::`scalar deleting destructor'
_TEXT	ENDS
; Function compile flags: /Odtp /ZI
;	COMDAT ??1?$ScriptRegistrant@VMDB_ExpVehFac_Cinematic@@@@UAE@XZ
_TEXT	SEGMENT
_this$ = -4						; size = 4
??1?$ScriptRegistrant@VMDB_ExpVehFac_Cinematic@@@@UAE@XZ PROC ; ScriptRegistrant<MDB_ExpVehFac_Cinematic>::~ScriptRegistrant<MDB_ExpVehFac_Cinematic>, COMDAT
; _this$ = ecx
	push	ebp
	mov	ebp, esp
	sub	esp, 68					; 00000044H
	push	ebx
	push	esi
	push	edi
	mov	DWORD PTR _this$[ebp], ecx
	mov	ecx, DWORD PTR _this$[ebp]
	call	??1ScriptFactory@@UAE@XZ		; ScriptFactory::~ScriptFactory
	pop	edi
	pop	esi
	pop	ebx
	mov	esp, ebp
	pop	ebp
	ret	0
??1?$ScriptRegistrant@VMDB_ExpVehFac_Cinematic@@@@UAE@XZ ENDP ; ScriptRegistrant<MDB_ExpVehFac_Cinematic>::~ScriptRegistrant<MDB_ExpVehFac_Cinematic>
_TEXT	ENDS
; Function compile flags: /Odtp /ZI
; File x:\github\renegade\dragonade_rxd\scripts\scripts.h
;	COMDAT ?Create@?$ScriptRegistrant@VMDB_ExpVehFac_Cinematic@@@@UAEPAVScriptImpClass@@XZ
_TEXT	SEGMENT
tv77 = -84						; size = 4
tv79 = -80						; size = 4
$T1 = -76						; size = 4
_script$ = -8						; size = 4
_this$ = -4						; size = 4
?Create@?$ScriptRegistrant@VMDB_ExpVehFac_Cinematic@@@@UAEPAVScriptImpClass@@XZ PROC ; ScriptRegistrant<MDB_ExpVehFac_Cinematic>::Create, COMDAT
; _this$ = ecx

; 552  : 	{

	push	ebp
	mov	ebp, esp
	sub	esp, 84					; 00000054H
	push	ebx
	push	esi
	push	edi
	mov	DWORD PTR _this$[ebp], ecx

; 553  : 		T* script = new T;

	push	OFFSET ??_C@_0DI@FDCOMGFJ@ScriptRegistrant?$DMclass?5MDB_ExpVe@
	push	553					; 00000229H
	push	OFFSET ??_C@_0DD@KMKBFFOF@x?3?2github?2renegade?2dragonade_rxd@
	call	?SetThreadTrackingInformation@@YAXPBDI0@Z ; SetThreadTrackingInformation
	add	esp, 12					; 0000000cH
	xor	eax, eax
	je	SHORT $LN6@Create
	xor	ecx, ecx
	jne	SHORT $LN3@Create
	push	553					; 00000229H
	push	OFFSET ??_C@_1GG@OGNLNBPD@?$AAx?$AA?3?$AA?2?$AAg?$AAi?$AAt?$AAh?$AAu?$AAb?$AA?2?$AAr?$AAe?$AAn?$AAe?$AAg?$AAa?$AAd?$AAe?$AA?2?$AAd?$AAr?$AAa?$AAg?$AAo?$AAn?$AAa?$AAd?$AAe?$AA_?$AAr?$AAx?$AAd@
	push	OFFSET ??_C@_1M@HLGKFCJM@?$AAf?$AAa?$AAl?$AAs?$AAe?$AA?$AA@
	call	DWORD PTR __imp___wassert
	add	esp, 12					; 0000000cH
$LN3@Create:
	mov	DWORD PTR tv79[ebp], 0
	jmp	SHORT $LN7@Create
$LN6@Create:
	push	32					; 00000020H
	call	??2@YAPAXI@Z				; operator new
	add	esp, 4
	mov	DWORD PTR $T1[ebp], eax
	cmp	DWORD PTR $T1[ebp], 0
	je	SHORT $LN4@Create
	mov	ecx, DWORD PTR $T1[ebp]
	call	??0MDB_ExpVehFac_Cinematic@@QAE@XZ
	mov	DWORD PTR tv77[ebp], eax
	jmp	SHORT $LN5@Create
$LN4@Create:
	mov	DWORD PTR tv77[ebp], 0
$LN5@Create:
	mov	eax, DWORD PTR tv77[ebp]
	mov	DWORD PTR tv79[ebp], eax
$LN7@Create:
	mov	ecx, DWORD PTR tv79[ebp]
	mov	DWORD PTR _script$[ebp], ecx

; 554  : 		script->SetFactory(this);

	mov	eax, DWORD PTR _this$[ebp]
	push	eax
	mov	ecx, DWORD PTR _script$[ebp]
	call	?SetFactory@ScriptImpClass@@QAEXPAVScriptFactory@@@Z ; ScriptImpClass::SetFactory

; 555  : 		script->Register_Auto_Save_Variables();

	mov	eax, DWORD PTR _script$[ebp]
	mov	edx, DWORD PTR [eax]
	mov	ecx, DWORD PTR _script$[ebp]
	mov	eax, DWORD PTR [edx+100]
	call	eax

; 556  : 		return script;

	mov	eax, DWORD PTR _script$[ebp]

; 557  : 	}

	pop	edi
	pop	esi
	pop	ebx
	mov	esp, ebp
	pop	ebp
	ret	0
?Create@?$ScriptRegistrant@VMDB_ExpVehFac_Cinematic@@@@UAEPAVScriptImpClass@@XZ ENDP ; ScriptRegistrant<MDB_ExpVehFac_Cinematic>::Create
_TEXT	ENDS
; Function compile flags: /Odtp /ZI
; File x:\github\renegade\dragonade_rxd\scripts\scripts.h
;	COMDAT ??0?$ScriptRegistrant@VMDB_ExpVehFac_Cinematic@@@@QAE@PBD0@Z
_TEXT	SEGMENT
_this$ = -4						; size = 4
_name$ = 8						; size = 4
_param$ = 12						; size = 4
??0?$ScriptRegistrant@VMDB_ExpVehFac_Cinematic@@@@QAE@PBD0@Z PROC ; ScriptRegistrant<MDB_ExpVehFac_Cinematic>::ScriptRegistrant<MDB_ExpVehFac_Cinematic>, COMDAT
; _this$ = ecx

; 549  : 	{

	push	ebp
	mov	ebp, esp
	sub	esp, 68					; 00000044H
	push	ebx
	push	esi
	push	edi
	mov	DWORD PTR _this$[ebp], ecx
	mov	eax, DWORD PTR _param$[ebp]
	push	eax
	mov	ecx, DWORD PTR _name$[ebp]
	push	ecx
	mov	ecx, DWORD PTR _this$[ebp]
	call	??0ScriptFactory@@IAE@PBD0@Z		; ScriptFactory::ScriptFactory
	mov	eax, DWORD PTR _this$[ebp]
	mov	DWORD PTR [eax], OFFSET ??_7?$ScriptRegistrant@VMDB_ExpVehFac_Cinematic@@@@6B@

; 550  : 	}

	mov	eax, DWORD PTR _this$[ebp]
	pop	edi
	pop	esi
	pop	ebx
	mov	esp, ebp
	pop	ebp
	ret	8
??0?$ScriptRegistrant@VMDB_ExpVehFac_Cinematic@@@@QAE@PBD0@Z ENDP ; ScriptRegistrant<MDB_ExpVehFac_Cinematic>::ScriptRegistrant<MDB_ExpVehFac_Cinematic>
_TEXT	ENDS
; Function compile flags: /Odtp /ZI
;	COMDAT ??__FMDB_ExpVehFac_Vehicle_Factory_Registrant@@YAXXZ
text$yd	SEGMENT
??__FMDB_ExpVehFac_Vehicle_Factory_Registrant@@YAXXZ PROC ; `dynamic atexit destructor for 'MDB_ExpVehFac_Vehicle_Factory_Registrant'', COMDAT
	push	ebp
	mov	ebp, esp
	sub	esp, 64					; 00000040H
	push	ebx
	push	esi
	push	edi
	mov	ecx, OFFSET ?MDB_ExpVehFac_Vehicle_Factory_Registrant@@3V?$ScriptRegistrant@VMDB_ExpVehFac_Vehicle_Factory@@@@A ; MDB_ExpVehFac_Vehicle_Factory_Registrant
	call	??1?$ScriptRegistrant@VMDB_ExpVehFac_Vehicle_Factory@@@@UAE@XZ
	pop	edi
	pop	esi
	pop	ebx
	mov	esp, ebp
	pop	ebp
	ret	0
??__FMDB_ExpVehFac_Vehicle_Factory_Registrant@@YAXXZ ENDP ; `dynamic atexit destructor for 'MDB_ExpVehFac_Vehicle_Factory_Registrant''
text$yd	ENDS
; Function compile flags: /Odtp /ZI
; File x:\github\renegade\dragonade_rxd\scripts\mdbevf.cpp
;	COMDAT ??__EMDB_ExpVehFac_Vehicle_Factory_Registrant@@YAXXZ
text$yc	SEGMENT
??__EMDB_ExpVehFac_Vehicle_Factory_Registrant@@YAXXZ PROC ; `dynamic initializer for 'MDB_ExpVehFac_Vehicle_Factory_Registrant'', COMDAT

; 1389 : ScriptRegistrant<MDB_ExpVehFac_Vehicle_Factory> MDB_ExpVehFac_Vehicle_Factory_Registrant("MDB_ExpVehFac_Vehicle_Factory","Build_Time=1.0:float,Ground_Build_Time=1.0:float,Remove_on_Death=0:int,Support_Vehicles=Veh1;Veh2;etc.:string,Sidebar=0:int");

	push	ebp
	mov	ebp, esp
	sub	esp, 64					; 00000040H
	push	ebx
	push	esi
	push	edi
	push	OFFSET ??_C@_0HM@LIOKLNBO@Build_Time?$DN1?40?3float?0Ground_Buil@
	push	OFFSET ??_C@_0BO@IDCNIDOL@MDB_ExpVehFac_Vehicle_Factory?$AA@
	mov	ecx, OFFSET ?MDB_ExpVehFac_Vehicle_Factory_Registrant@@3V?$ScriptRegistrant@VMDB_ExpVehFac_Vehicle_Factory@@@@A ; MDB_ExpVehFac_Vehicle_Factory_Registrant
	call	??0?$ScriptRegistrant@VMDB_ExpVehFac_Vehicle_Factory@@@@QAE@PBD0@Z ; ScriptRegistrant<MDB_ExpVehFac_Vehicle_Factory>::ScriptRegistrant<MDB_ExpVehFac_Vehicle_Factory>
	push	OFFSET ??__FMDB_ExpVehFac_Vehicle_Factory_Registrant@@YAXXZ ; `dynamic atexit destructor for 'MDB_ExpVehFac_Vehicle_Factory_Registrant''
	call	_atexit
	add	esp, 4
	pop	edi
	pop	esi
	pop	ebx
	mov	esp, ebp
	pop	ebp
	ret	0
??__EMDB_ExpVehFac_Vehicle_Factory_Registrant@@YAXXZ ENDP ; `dynamic initializer for 'MDB_ExpVehFac_Vehicle_Factory_Registrant''
text$yc	ENDS
; Function compile flags: /Odtp /ZI
;	COMDAT ??_G?$ScriptRegistrant@VMDB_ExpVehFac_Vehicle_Factory@@@@UAEPAXI@Z
_TEXT	SEGMENT
_this$ = -4						; size = 4
___flags$ = 8						; size = 4
??_G?$ScriptRegistrant@VMDB_ExpVehFac_Vehicle_Factory@@@@UAEPAXI@Z PROC ; ScriptRegistrant<MDB_ExpVehFac_Vehicle_Factory>::`scalar deleting destructor', COMDAT
; _this$ = ecx
	push	ebp
	mov	ebp, esp
	sub	esp, 68					; 00000044H
	push	ebx
	push	esi
	push	edi
	mov	DWORD PTR _this$[ebp], ecx
	mov	ecx, DWORD PTR _this$[ebp]
	call	??1?$ScriptRegistrant@VMDB_ExpVehFac_Vehicle_Factory@@@@UAE@XZ
	mov	eax, DWORD PTR ___flags$[ebp]
	and	eax, 1
	je	SHORT $LN1@scalar
	mov	eax, DWORD PTR _this$[ebp]
	push	eax
	call	??3@YAXPAX@Z				; operator delete
	add	esp, 4
$LN1@scalar:
	mov	eax, DWORD PTR _this$[ebp]
	pop	edi
	pop	esi
	pop	ebx
	mov	esp, ebp
	pop	ebp
	ret	4
??_G?$ScriptRegistrant@VMDB_ExpVehFac_Vehicle_Factory@@@@UAEPAXI@Z ENDP ; ScriptRegistrant<MDB_ExpVehFac_Vehicle_Factory>::`scalar deleting destructor'
_TEXT	ENDS
; Function compile flags: /Odtp /ZI
;	COMDAT ??1?$ScriptRegistrant@VMDB_ExpVehFac_Vehicle_Factory@@@@UAE@XZ
_TEXT	SEGMENT
_this$ = -4						; size = 4
??1?$ScriptRegistrant@VMDB_ExpVehFac_Vehicle_Factory@@@@UAE@XZ PROC ; ScriptRegistrant<MDB_ExpVehFac_Vehicle_Factory>::~ScriptRegistrant<MDB_ExpVehFac_Vehicle_Factory>, COMDAT
; _this$ = ecx
	push	ebp
	mov	ebp, esp
	sub	esp, 68					; 00000044H
	push	ebx
	push	esi
	push	edi
	mov	DWORD PTR _this$[ebp], ecx
	mov	ecx, DWORD PTR _this$[ebp]
	call	??1ScriptFactory@@UAE@XZ		; ScriptFactory::~ScriptFactory
	pop	edi
	pop	esi
	pop	ebx
	mov	esp, ebp
	pop	ebp
	ret	0
??1?$ScriptRegistrant@VMDB_ExpVehFac_Vehicle_Factory@@@@UAE@XZ ENDP ; ScriptRegistrant<MDB_ExpVehFac_Vehicle_Factory>::~ScriptRegistrant<MDB_ExpVehFac_Vehicle_Factory>
_TEXT	ENDS
; Function compile flags: /Odtp /ZI
; File x:\github\renegade\dragonade_rxd\scripts\scripts.h
;	COMDAT ?Create@?$ScriptRegistrant@VMDB_ExpVehFac_Vehicle_Factory@@@@UAEPAVScriptImpClass@@XZ
_TEXT	SEGMENT
tv77 = -84						; size = 4
tv79 = -80						; size = 4
$T1 = -76						; size = 4
_script$ = -8						; size = 4
_this$ = -4						; size = 4
?Create@?$ScriptRegistrant@VMDB_ExpVehFac_Vehicle_Factory@@@@UAEPAVScriptImpClass@@XZ PROC ; ScriptRegistrant<MDB_ExpVehFac_Vehicle_Factory>::Create, COMDAT
; _this$ = ecx

; 552  : 	{

	push	ebp
	mov	ebp, esp
	sub	esp, 84					; 00000054H
	push	ebx
	push	esi
	push	edi
	mov	DWORD PTR _this$[ebp], ecx

; 553  : 		T* script = new T;

	push	OFFSET ??_C@_0DO@BBEDOJGF@ScriptRegistrant?$DMclass?5MDB_ExpVe@
	push	553					; 00000229H
	push	OFFSET ??_C@_0DD@KMKBFFOF@x?3?2github?2renegade?2dragonade_rxd@
	call	?SetThreadTrackingInformation@@YAXPBDI0@Z ; SetThreadTrackingInformation
	add	esp, 12					; 0000000cH
	xor	eax, eax
	je	SHORT $LN6@Create
	xor	ecx, ecx
	jne	SHORT $LN3@Create
	push	553					; 00000229H
	push	OFFSET ??_C@_1GG@OGNLNBPD@?$AAx?$AA?3?$AA?2?$AAg?$AAi?$AAt?$AAh?$AAu?$AAb?$AA?2?$AAr?$AAe?$AAn?$AAe?$AAg?$AAa?$AAd?$AAe?$AA?2?$AAd?$AAr?$AAa?$AAg?$AAo?$AAn?$AAa?$AAd?$AAe?$AA_?$AAr?$AAx?$AAd@
	push	OFFSET ??_C@_1M@HLGKFCJM@?$AAf?$AAa?$AAl?$AAs?$AAe?$AA?$AA@
	call	DWORD PTR __imp___wassert
	add	esp, 12					; 0000000cH
$LN3@Create:
	mov	DWORD PTR tv79[ebp], 0
	jmp	SHORT $LN7@Create
$LN6@Create:
	push	28					; 0000001cH
	call	??2@YAPAXI@Z				; operator new
	add	esp, 4
	mov	DWORD PTR $T1[ebp], eax
	cmp	DWORD PTR $T1[ebp], 0
	je	SHORT $LN4@Create
	mov	ecx, DWORD PTR $T1[ebp]
	call	??0MDB_ExpVehFac_Vehicle_Factory@@QAE@XZ
	mov	DWORD PTR tv77[ebp], eax
	jmp	SHORT $LN5@Create
$LN4@Create:
	mov	DWORD PTR tv77[ebp], 0
$LN5@Create:
	mov	eax, DWORD PTR tv77[ebp]
	mov	DWORD PTR tv79[ebp], eax
$LN7@Create:
	mov	ecx, DWORD PTR tv79[ebp]
	mov	DWORD PTR _script$[ebp], ecx

; 554  : 		script->SetFactory(this);

	mov	eax, DWORD PTR _this$[ebp]
	push	eax
	mov	ecx, DWORD PTR _script$[ebp]
	call	?SetFactory@ScriptImpClass@@QAEXPAVScriptFactory@@@Z ; ScriptImpClass::SetFactory

; 555  : 		script->Register_Auto_Save_Variables();

	mov	eax, DWORD PTR _script$[ebp]
	mov	edx, DWORD PTR [eax]
	mov	ecx, DWORD PTR _script$[ebp]
	mov	eax, DWORD PTR [edx+100]
	call	eax

; 556  : 		return script;

	mov	eax, DWORD PTR _script$[ebp]

; 557  : 	}

	pop	edi
	pop	esi
	pop	ebx
	mov	esp, ebp
	pop	ebp
	ret	0
?Create@?$ScriptRegistrant@VMDB_ExpVehFac_Vehicle_Factory@@@@UAEPAVScriptImpClass@@XZ ENDP ; ScriptRegistrant<MDB_ExpVehFac_Vehicle_Factory>::Create
_TEXT	ENDS
; Function compile flags: /Odtp /ZI
; File x:\github\renegade\dragonade_rxd\scripts\scripts.h
;	COMDAT ??0?$ScriptRegistrant@VMDB_ExpVehFac_Vehicle_Factory@@@@QAE@PBD0@Z
_TEXT	SEGMENT
_this$ = -4						; size = 4
_name$ = 8						; size = 4
_param$ = 12						; size = 4
??0?$ScriptRegistrant@VMDB_ExpVehFac_Vehicle_Factory@@@@QAE@PBD0@Z PROC ; ScriptRegistrant<MDB_ExpVehFac_Vehicle_Factory>::ScriptRegistrant<MDB_ExpVehFac_Vehicle_Factory>, COMDAT
; _this$ = ecx

; 549  : 	{

	push	ebp
	mov	ebp, esp
	sub	esp, 68					; 00000044H
	push	ebx
	push	esi
	push	edi
	mov	DWORD PTR _this$[ebp], ecx
	mov	eax, DWORD PTR _param$[ebp]
	push	eax
	mov	ecx, DWORD PTR _name$[ebp]
	push	ecx
	mov	ecx, DWORD PTR _this$[ebp]
	call	??0ScriptFactory@@IAE@PBD0@Z		; ScriptFactory::ScriptFactory
	mov	eax, DWORD PTR _this$[ebp]
	mov	DWORD PTR [eax], OFFSET ??_7?$ScriptRegistrant@VMDB_ExpVehFac_Vehicle_Factory@@@@6B@

; 550  : 	}

	mov	eax, DWORD PTR _this$[ebp]
	pop	edi
	pop	esi
	pop	ebx
	mov	esp, ebp
	pop	ebp
	ret	8
??0?$ScriptRegistrant@VMDB_ExpVehFac_Vehicle_Factory@@@@QAE@PBD0@Z ENDP ; ScriptRegistrant<MDB_ExpVehFac_Vehicle_Factory>::ScriptRegistrant<MDB_ExpVehFac_Vehicle_Factory>
_TEXT	ENDS
; Function compile flags: /Odtp /ZI
;	COMDAT ??__FMDB_ExpVehFac_Naval_Registrant@@YAXXZ
text$yd	SEGMENT
??__FMDB_ExpVehFac_Naval_Registrant@@YAXXZ PROC		; `dynamic atexit destructor for 'MDB_ExpVehFac_Naval_Registrant'', COMDAT
	push	ebp
	mov	ebp, esp
	sub	esp, 64					; 00000040H
	push	ebx
	push	esi
	push	edi
	mov	ecx, OFFSET ?MDB_ExpVehFac_Naval_Registrant@@3V?$ScriptRegistrant@VMDB_ExpVehFac_Naval@@@@A ; MDB_ExpVehFac_Naval_Registrant
	call	??1?$ScriptRegistrant@VMDB_ExpVehFac_Naval@@@@UAE@XZ
	pop	edi
	pop	esi
	pop	ebx
	mov	esp, ebp
	pop	ebp
	ret	0
??__FMDB_ExpVehFac_Naval_Registrant@@YAXXZ ENDP		; `dynamic atexit destructor for 'MDB_ExpVehFac_Naval_Registrant''
text$yd	ENDS
; Function compile flags: /Odtp /ZI
; File x:\github\renegade\dragonade_rxd\scripts\mdbevf.cpp
;	COMDAT ??__EMDB_ExpVehFac_Naval_Registrant@@YAXXZ
text$yc	SEGMENT
??__EMDB_ExpVehFac_Naval_Registrant@@YAXXZ PROC		; `dynamic initializer for 'MDB_ExpVehFac_Naval_Registrant'', COMDAT

; 1388 : ScriptRegistrant<MDB_ExpVehFac_Naval> MDB_ExpVehFac_Naval_Registrant("MDB_ExpVehFac_Naval","Creation_Preset=Preset:string,Naval_Vehicles=Veh1;Veh2;etc.:string,Build_Time=1.0:float,Naval_Build_Time=1.0:float,Remove_on_Death=0:int,Support_Vehicles=Veh1;Veh2;etc.:string,Sidebar=0:int");

	push	ebp
	mov	ebp, esp
	sub	esp, 64					; 00000040H
	push	ebx
	push	esi
	push	edi
	push	OFFSET ??_C@_0LO@HHLONMGP@Creation_Preset?$DNPreset?3string?0Na@
	push	OFFSET ??_C@_0BE@GMHHGOOM@MDB_ExpVehFac_Naval?$AA@
	mov	ecx, OFFSET ?MDB_ExpVehFac_Naval_Registrant@@3V?$ScriptRegistrant@VMDB_ExpVehFac_Naval@@@@A ; MDB_ExpVehFac_Naval_Registrant
	call	??0?$ScriptRegistrant@VMDB_ExpVehFac_Naval@@@@QAE@PBD0@Z ; ScriptRegistrant<MDB_ExpVehFac_Naval>::ScriptRegistrant<MDB_ExpVehFac_Naval>
	push	OFFSET ??__FMDB_ExpVehFac_Naval_Registrant@@YAXXZ ; `dynamic atexit destructor for 'MDB_ExpVehFac_Naval_Registrant''
	call	_atexit
	add	esp, 4
	pop	edi
	pop	esi
	pop	ebx
	mov	esp, ebp
	pop	ebp
	ret	0
??__EMDB_ExpVehFac_Naval_Registrant@@YAXXZ ENDP		; `dynamic initializer for 'MDB_ExpVehFac_Naval_Registrant''
text$yc	ENDS
; Function compile flags: /Odtp /ZI
;	COMDAT ??_G?$ScriptRegistrant@VMDB_ExpVehFac_Naval@@@@UAEPAXI@Z
_TEXT	SEGMENT
_this$ = -4						; size = 4
___flags$ = 8						; size = 4
??_G?$ScriptRegistrant@VMDB_ExpVehFac_Naval@@@@UAEPAXI@Z PROC ; ScriptRegistrant<MDB_ExpVehFac_Naval>::`scalar deleting destructor', COMDAT
; _this$ = ecx
	push	ebp
	mov	ebp, esp
	sub	esp, 68					; 00000044H
	push	ebx
	push	esi
	push	edi
	mov	DWORD PTR _this$[ebp], ecx
	mov	ecx, DWORD PTR _this$[ebp]
	call	??1?$ScriptRegistrant@VMDB_ExpVehFac_Naval@@@@UAE@XZ
	mov	eax, DWORD PTR ___flags$[ebp]
	and	eax, 1
	je	SHORT $LN1@scalar
	mov	eax, DWORD PTR _this$[ebp]
	push	eax
	call	??3@YAXPAX@Z				; operator delete
	add	esp, 4
$LN1@scalar:
	mov	eax, DWORD PTR _this$[ebp]
	pop	edi
	pop	esi
	pop	ebx
	mov	esp, ebp
	pop	ebp
	ret	4
??_G?$ScriptRegistrant@VMDB_ExpVehFac_Naval@@@@UAEPAXI@Z ENDP ; ScriptRegistrant<MDB_ExpVehFac_Naval>::`scalar deleting destructor'
_TEXT	ENDS
; Function compile flags: /Odtp /ZI
;	COMDAT ??1?$ScriptRegistrant@VMDB_ExpVehFac_Naval@@@@UAE@XZ
_TEXT	SEGMENT
_this$ = -4						; size = 4
??1?$ScriptRegistrant@VMDB_ExpVehFac_Naval@@@@UAE@XZ PROC ; ScriptRegistrant<MDB_ExpVehFac_Naval>::~ScriptRegistrant<MDB_ExpVehFac_Naval>, COMDAT
; _this$ = ecx
	push	ebp
	mov	ebp, esp
	sub	esp, 68					; 00000044H
	push	ebx
	push	esi
	push	edi
	mov	DWORD PTR _this$[ebp], ecx
	mov	ecx, DWORD PTR _this$[ebp]
	call	??1ScriptFactory@@UAE@XZ		; ScriptFactory::~ScriptFactory
	pop	edi
	pop	esi
	pop	ebx
	mov	esp, ebp
	pop	ebp
	ret	0
??1?$ScriptRegistrant@VMDB_ExpVehFac_Naval@@@@UAE@XZ ENDP ; ScriptRegistrant<MDB_ExpVehFac_Naval>::~ScriptRegistrant<MDB_ExpVehFac_Naval>
_TEXT	ENDS
; Function compile flags: /Odtp /ZI
; File x:\github\renegade\dragonade_rxd\scripts\scripts.h
;	COMDAT ?Create@?$ScriptRegistrant@VMDB_ExpVehFac_Naval@@@@UAEPAVScriptImpClass@@XZ
_TEXT	SEGMENT
tv77 = -84						; size = 4
tv79 = -80						; size = 4
$T1 = -76						; size = 4
_script$ = -8						; size = 4
_this$ = -4						; size = 4
?Create@?$ScriptRegistrant@VMDB_ExpVehFac_Naval@@@@UAEPAVScriptImpClass@@XZ PROC ; ScriptRegistrant<MDB_ExpVehFac_Naval>::Create, COMDAT
; _this$ = ecx

; 552  : 	{

	push	ebp
	mov	ebp, esp
	sub	esp, 84					; 00000054H
	push	ebx
	push	esi
	push	edi
	mov	DWORD PTR _this$[ebp], ecx

; 553  : 		T* script = new T;

	push	OFFSET ??_C@_0DE@PMNHGNJP@ScriptRegistrant?$DMclass?5MDB_ExpVe@
	push	553					; 00000229H
	push	OFFSET ??_C@_0DD@KMKBFFOF@x?3?2github?2renegade?2dragonade_rxd@
	call	?SetThreadTrackingInformation@@YAXPBDI0@Z ; SetThreadTrackingInformation
	add	esp, 12					; 0000000cH
	xor	eax, eax
	je	SHORT $LN6@Create
	xor	ecx, ecx
	jne	SHORT $LN3@Create
	push	553					; 00000229H
	push	OFFSET ??_C@_1GG@OGNLNBPD@?$AAx?$AA?3?$AA?2?$AAg?$AAi?$AAt?$AAh?$AAu?$AAb?$AA?2?$AAr?$AAe?$AAn?$AAe?$AAg?$AAa?$AAd?$AAe?$AA?2?$AAd?$AAr?$AAa?$AAg?$AAo?$AAn?$AAa?$AAd?$AAe?$AA_?$AAr?$AAx?$AAd@
	push	OFFSET ??_C@_1M@HLGKFCJM@?$AAf?$AAa?$AAl?$AAs?$AAe?$AA?$AA@
	call	DWORD PTR __imp___wassert
	add	esp, 12					; 0000000cH
$LN3@Create:
	mov	DWORD PTR tv79[ebp], 0
	jmp	SHORT $LN7@Create
$LN6@Create:
	push	28					; 0000001cH
	call	??2@YAPAXI@Z				; operator new
	add	esp, 4
	mov	DWORD PTR $T1[ebp], eax
	cmp	DWORD PTR $T1[ebp], 0
	je	SHORT $LN4@Create
	mov	ecx, DWORD PTR $T1[ebp]
	call	??0MDB_ExpVehFac_Naval@@QAE@XZ
	mov	DWORD PTR tv77[ebp], eax
	jmp	SHORT $LN5@Create
$LN4@Create:
	mov	DWORD PTR tv77[ebp], 0
$LN5@Create:
	mov	eax, DWORD PTR tv77[ebp]
	mov	DWORD PTR tv79[ebp], eax
$LN7@Create:
	mov	ecx, DWORD PTR tv79[ebp]
	mov	DWORD PTR _script$[ebp], ecx

; 554  : 		script->SetFactory(this);

	mov	eax, DWORD PTR _this$[ebp]
	push	eax
	mov	ecx, DWORD PTR _script$[ebp]
	call	?SetFactory@ScriptImpClass@@QAEXPAVScriptFactory@@@Z ; ScriptImpClass::SetFactory

; 555  : 		script->Register_Auto_Save_Variables();

	mov	eax, DWORD PTR _script$[ebp]
	mov	edx, DWORD PTR [eax]
	mov	ecx, DWORD PTR _script$[ebp]
	mov	eax, DWORD PTR [edx+100]
	call	eax

; 556  : 		return script;

	mov	eax, DWORD PTR _script$[ebp]

; 557  : 	}

	pop	edi
	pop	esi
	pop	ebx
	mov	esp, ebp
	pop	ebp
	ret	0
?Create@?$ScriptRegistrant@VMDB_ExpVehFac_Naval@@@@UAEPAVScriptImpClass@@XZ ENDP ; ScriptRegistrant<MDB_ExpVehFac_Naval>::Create
_TEXT	ENDS
; Function compile flags: /Odtp /ZI
; File x:\github\renegade\dragonade_rxd\scripts\scripts.h
;	COMDAT ??0?$ScriptRegistrant@VMDB_ExpVehFac_Naval@@@@QAE@PBD0@Z
_TEXT	SEGMENT
_this$ = -4						; size = 4
_name$ = 8						; size = 4
_param$ = 12						; size = 4
??0?$ScriptRegistrant@VMDB_ExpVehFac_Naval@@@@QAE@PBD0@Z PROC ; ScriptRegistrant<MDB_ExpVehFac_Naval>::ScriptRegistrant<MDB_ExpVehFac_Naval>, COMDAT
; _this$ = ecx

; 549  : 	{

	push	ebp
	mov	ebp, esp
	sub	esp, 68					; 00000044H
	push	ebx
	push	esi
	push	edi
	mov	DWORD PTR _this$[ebp], ecx
	mov	eax, DWORD PTR _param$[ebp]
	push	eax
	mov	ecx, DWORD PTR _name$[ebp]
	push	ecx
	mov	ecx, DWORD PTR _this$[ebp]
	call	??0ScriptFactory@@IAE@PBD0@Z		; ScriptFactory::ScriptFactory
	mov	eax, DWORD PTR _this$[ebp]
	mov	DWORD PTR [eax], OFFSET ??_7?$ScriptRegistrant@VMDB_ExpVehFac_Naval@@@@6B@

; 550  : 	}

	mov	eax, DWORD PTR _this$[ebp]
	pop	edi
	pop	esi
	pop	ebx
	mov	esp, ebp
	pop	ebp
	ret	8
??0?$ScriptRegistrant@VMDB_ExpVehFac_Naval@@@@QAE@PBD0@Z ENDP ; ScriptRegistrant<MDB_ExpVehFac_Naval>::ScriptRegistrant<MDB_ExpVehFac_Naval>
_TEXT	ENDS
; Function compile flags: /Odtp /ZI
;	COMDAT ??__FMDB_ExpVehFac_Helipad_Registrant@@YAXXZ
text$yd	SEGMENT
??__FMDB_ExpVehFac_Helipad_Registrant@@YAXXZ PROC	; `dynamic atexit destructor for 'MDB_ExpVehFac_Helipad_Registrant'', COMDAT
	push	ebp
	mov	ebp, esp
	sub	esp, 64					; 00000040H
	push	ebx
	push	esi
	push	edi
	mov	ecx, OFFSET ?MDB_ExpVehFac_Helipad_Registrant@@3V?$ScriptRegistrant@VMDB_ExpVehFac_Helipad@@@@A ; MDB_ExpVehFac_Helipad_Registrant
	call	??1?$ScriptRegistrant@VMDB_ExpVehFac_Helipad@@@@UAE@XZ
	pop	edi
	pop	esi
	pop	ebx
	mov	esp, ebp
	pop	ebp
	ret	0
??__FMDB_ExpVehFac_Helipad_Registrant@@YAXXZ ENDP	; `dynamic atexit destructor for 'MDB_ExpVehFac_Helipad_Registrant''
text$yd	ENDS
; Function compile flags: /Odtp /ZI
; File x:\github\renegade\dragonade_rxd\scripts\mdbevf.cpp
;	COMDAT ??__EMDB_ExpVehFac_Helipad_Registrant@@YAXXZ
text$yc	SEGMENT
??__EMDB_ExpVehFac_Helipad_Registrant@@YAXXZ PROC	; `dynamic initializer for 'MDB_ExpVehFac_Helipad_Registrant'', COMDAT

; 1387 : ScriptRegistrant<MDB_ExpVehFac_Helipad> MDB_ExpVehFac_Helipad_Registrant("MDB_ExpVehFac_Helipad","Landing_Preset=Landing:string,Build_Time=1.0:float,Flying_Build_Time=1.0:float,Remove_on_Death=0:int,Support_Vehicles=Veh1;Veh2;etc.:string,Sidebar=0:int");

	push	ebp
	mov	ebp, esp
	sub	esp, 64					; 00000040H
	push	ebx
	push	esi
	push	edi
	push	OFFSET ??_C@_0JK@KIFIJHKB@Landing_Preset?$DNLanding?3string?0Bu@
	push	OFFSET ??_C@_0BG@KKJHDMPD@MDB_ExpVehFac_Helipad?$AA@
	mov	ecx, OFFSET ?MDB_ExpVehFac_Helipad_Registrant@@3V?$ScriptRegistrant@VMDB_ExpVehFac_Helipad@@@@A ; MDB_ExpVehFac_Helipad_Registrant
	call	??0?$ScriptRegistrant@VMDB_ExpVehFac_Helipad@@@@QAE@PBD0@Z ; ScriptRegistrant<MDB_ExpVehFac_Helipad>::ScriptRegistrant<MDB_ExpVehFac_Helipad>
	push	OFFSET ??__FMDB_ExpVehFac_Helipad_Registrant@@YAXXZ ; `dynamic atexit destructor for 'MDB_ExpVehFac_Helipad_Registrant''
	call	_atexit
	add	esp, 4
	pop	edi
	pop	esi
	pop	ebx
	mov	esp, ebp
	pop	ebp
	ret	0
??__EMDB_ExpVehFac_Helipad_Registrant@@YAXXZ ENDP	; `dynamic initializer for 'MDB_ExpVehFac_Helipad_Registrant''
text$yc	ENDS
; Function compile flags: /Odtp /ZI
;	COMDAT ??_G?$ScriptRegistrant@VMDB_ExpVehFac_Helipad@@@@UAEPAXI@Z
_TEXT	SEGMENT
_this$ = -4						; size = 4
___flags$ = 8						; size = 4
??_G?$ScriptRegistrant@VMDB_ExpVehFac_Helipad@@@@UAEPAXI@Z PROC ; ScriptRegistrant<MDB_ExpVehFac_Helipad>::`scalar deleting destructor', COMDAT
; _this$ = ecx
	push	ebp
	mov	ebp, esp
	sub	esp, 68					; 00000044H
	push	ebx
	push	esi
	push	edi
	mov	DWORD PTR _this$[ebp], ecx
	mov	ecx, DWORD PTR _this$[ebp]
	call	??1?$ScriptRegistrant@VMDB_ExpVehFac_Helipad@@@@UAE@XZ
	mov	eax, DWORD PTR ___flags$[ebp]
	and	eax, 1
	je	SHORT $LN1@scalar
	mov	eax, DWORD PTR _this$[ebp]
	push	eax
	call	??3@YAXPAX@Z				; operator delete
	add	esp, 4
$LN1@scalar:
	mov	eax, DWORD PTR _this$[ebp]
	pop	edi
	pop	esi
	pop	ebx
	mov	esp, ebp
	pop	ebp
	ret	4
??_G?$ScriptRegistrant@VMDB_ExpVehFac_Helipad@@@@UAEPAXI@Z ENDP ; ScriptRegistrant<MDB_ExpVehFac_Helipad>::`scalar deleting destructor'
_TEXT	ENDS
; Function compile flags: /Odtp /ZI
;	COMDAT ??1?$ScriptRegistrant@VMDB_ExpVehFac_Helipad@@@@UAE@XZ
_TEXT	SEGMENT
_this$ = -4						; size = 4
??1?$ScriptRegistrant@VMDB_ExpVehFac_Helipad@@@@UAE@XZ PROC ; ScriptRegistrant<MDB_ExpVehFac_Helipad>::~ScriptRegistrant<MDB_ExpVehFac_Helipad>, COMDAT
; _this$ = ecx
	push	ebp
	mov	ebp, esp
	sub	esp, 68					; 00000044H
	push	ebx
	push	esi
	push	edi
	mov	DWORD PTR _this$[ebp], ecx
	mov	ecx, DWORD PTR _this$[ebp]
	call	??1ScriptFactory@@UAE@XZ		; ScriptFactory::~ScriptFactory
	pop	edi
	pop	esi
	pop	ebx
	mov	esp, ebp
	pop	ebp
	ret	0
??1?$ScriptRegistrant@VMDB_ExpVehFac_Helipad@@@@UAE@XZ ENDP ; ScriptRegistrant<MDB_ExpVehFac_Helipad>::~ScriptRegistrant<MDB_ExpVehFac_Helipad>
_TEXT	ENDS
; Function compile flags: /Odtp /ZI
; File x:\github\renegade\dragonade_rxd\scripts\scripts.h
;	COMDAT ?Create@?$ScriptRegistrant@VMDB_ExpVehFac_Helipad@@@@UAEPAVScriptImpClass@@XZ
_TEXT	SEGMENT
tv77 = -84						; size = 4
tv79 = -80						; size = 4
$T1 = -76						; size = 4
_script$ = -8						; size = 4
_this$ = -4						; size = 4
?Create@?$ScriptRegistrant@VMDB_ExpVehFac_Helipad@@@@UAEPAVScriptImpClass@@XZ PROC ; ScriptRegistrant<MDB_ExpVehFac_Helipad>::Create, COMDAT
; _this$ = ecx

; 552  : 	{

	push	ebp
	mov	ebp, esp
	sub	esp, 84					; 00000054H
	push	ebx
	push	esi
	push	edi
	mov	DWORD PTR _this$[ebp], ecx

; 553  : 		T* script = new T;

	push	OFFSET ??_C@_0DG@PDFNFKEN@ScriptRegistrant?$DMclass?5MDB_ExpVe@
	push	553					; 00000229H
	push	OFFSET ??_C@_0DD@KMKBFFOF@x?3?2github?2renegade?2dragonade_rxd@
	call	?SetThreadTrackingInformation@@YAXPBDI0@Z ; SetThreadTrackingInformation
	add	esp, 12					; 0000000cH
	xor	eax, eax
	je	SHORT $LN6@Create
	xor	ecx, ecx
	jne	SHORT $LN3@Create
	push	553					; 00000229H
	push	OFFSET ??_C@_1GG@OGNLNBPD@?$AAx?$AA?3?$AA?2?$AAg?$AAi?$AAt?$AAh?$AAu?$AAb?$AA?2?$AAr?$AAe?$AAn?$AAe?$AAg?$AAa?$AAd?$AAe?$AA?2?$AAd?$AAr?$AAa?$AAg?$AAo?$AAn?$AAa?$AAd?$AAe?$AA_?$AAr?$AAx?$AAd@
