; Listing generated by Microsoft (R) Optimizing Compiler Version 17.00.61219.0 

	TITLE	X:\GitHub\Renegade\Dragonade_RxD\scripts\ra2.cpp
	.686P
	.XMM
	include listing.inc
	.model	flat

INCLUDELIB MSVCRTD
INCLUDELIB OLDNAMES

CONST	SEGMENT
_DONT_MOVE_ARRIVED_DIST DD 0447a0000r		; 1000
CONST	ENDS
PUBLIC	??_H@YGXPAXIHP6EPAX0@Z@Z			; `vector constructor iterator'
PUBLIC	??_I@YGXPAXIHP6EX0@Z@Z				; `vector destructor iterator'
PUBLIC	_fabsf
PUBLIC	_acosf
PUBLIC	_asinf
PUBLIC	_atanf
PUBLIC	_atan2f
PUBLIC	_ceilf
PUBLIC	_cosf
PUBLIC	_floorf
PUBLIC	_sinf
PUBLIC	_sqrtf
PUBLIC	?acos@@YAMM@Z					; acos
PUBLIC	?asin@@YAMM@Z					; asin
PUBLIC	?atan@@YAMM@Z					; atan
PUBLIC	?atan2@@YAMMM@Z					; atan2
PUBLIC	?cos@@YAMM@Z					; cos
PUBLIC	?fabs@@YAMM@Z					; fabs
PUBLIC	?sin@@YAMM@Z					; sin
PUBLIC	?sqrt@@YAMM@Z					; sqrt
PUBLIC	?Fabs@WWMath@@SAMM@Z				; WWMath::Fabs
PUBLIC	?Float_To_Int_Chop@WWMath@@SAHABM@Z		; WWMath::Float_To_Int_Chop
PUBLIC	?Float_To_Int_Floor@WWMath@@SAHABM@Z		; WWMath::Float_To_Int_Floor
PUBLIC	?Cos@WWMath@@SAMM@Z				; WWMath::Cos
PUBLIC	?Sin@WWMath@@SAMM@Z				; WWMath::Sin
PUBLIC	?Sqrt@WWMath@@SAMM@Z				; WWMath::Sqrt
PUBLIC	?Inv_Sqrt@WWMath@@SIMM@Z			; WWMath::Inv_Sqrt
PUBLIC	?Float_To_Long@WWMath@@SAJM@Z			; WWMath::Float_To_Long
PUBLIC	?Fast_Sin@WWMath@@SAMM@Z			; WWMath::Fast_Sin
PUBLIC	?Fast_Inv_Sin@WWMath@@SAMM@Z			; WWMath::Fast_Inv_Sin
PUBLIC	?Fast_Cos@WWMath@@SAMM@Z			; WWMath::Fast_Cos
PUBLIC	?Fast_Inv_Cos@WWMath@@SAMM@Z			; WWMath::Fast_Inv_Cos
PUBLIC	?Fast_Acos@WWMath@@SAMM@Z			; WWMath::Fast_Acos
PUBLIC	?Fast_Asin@WWMath@@SAMM@Z			; WWMath::Fast_Asin
PUBLIC	?Acos@WWMath@@SAMM@Z				; WWMath::Acos
PUBLIC	?Asin@WWMath@@SAMM@Z				; WWMath::Asin
PUBLIC	?Atan@WWMath@@SAMM@Z				; WWMath::Atan
PUBLIC	?Atan2@WWMath@@SAMMM@Z				; WWMath::Atan2
PUBLIC	?Sign@WWMath@@SAMM@Z				; WWMath::Sign
PUBLIC	?Ceil@WWMath@@SAMM@Z				; WWMath::Ceil
PUBLIC	?Floor@WWMath@@SAMM@Z				; WWMath::Floor
PUBLIC	?Fast_Is_Float_Positive@WWMath@@SA_NABM@Z	; WWMath::Fast_Is_Float_Positive
PUBLIC	?Random_Float@WWMath@@SAMMM@Z			; WWMath::Random_Float
PUBLIC	?Clamp@WWMath@@SAMMMM@Z				; WWMath::Clamp
PUBLIC	?Clamp@WWMath@@SANNNN@Z				; WWMath::Clamp
PUBLIC	?Clamp_Int@WWMath@@SAHHHH@Z			; WWMath::Clamp_Int
PUBLIC	?Wrap@WWMath@@SAMMMM@Z				; WWMath::Wrap
PUBLIC	?Wrap@WWMath@@SANNNN@Z				; WWMath::Wrap
PUBLIC	?Min@WWMath@@SAMMM@Z				; WWMath::Min
PUBLIC	?Max@WWMath@@SAMMM@Z				; WWMath::Max
PUBLIC	?Lerp@WWMath@@SAMMMM@Z				; WWMath::Lerp
PUBLIC	?Lerp@WWMath@@SANNNM@Z				; WWMath::Lerp
PUBLIC	?Lerp@WWMath@@SAHHHM@Z				; WWMath::Lerp
PUBLIC	?Float_To_Long@WWMath@@SAJN@Z			; WWMath::Float_To_Long
PUBLIC	?Unit_Float_To_Byte@WWMath@@SAEM@Z		; WWMath::Unit_Float_To_Byte
PUBLIC	?Byte_To_Unit_Float@WWMath@@SAME@Z		; WWMath::Byte_To_Unit_Float
PUBLIC	?Is_Valid_Float@WWMath@@SA_NM@Z			; WWMath::Is_Valid_Float
PUBLIC	?Is_Valid_Double@WWMath@@SA_NN@Z		; WWMath::Is_Valid_Double
PUBLIC	??4WWMath@@QAEAAV0@ABV0@@Z			; WWMath::operator=
PUBLIC	??B?$RefArrayHelper@M$0EAA@@@QAEPAMXZ		; RefArrayHelper<float,1024>::operator float *
PUBLIC	??0Vector3@@QAE@XZ				; Vector3::Vector3
PUBLIC	??0Vector3@@QAE@ABV0@@Z				; Vector3::Vector3
PUBLIC	??0Vector3@@QAE@MMM@Z				; Vector3::Vector3
PUBLIC	??4Vector3@@QAEAAV0@ABV0@@Z			; Vector3::operator=
PUBLIC	?Set@Vector3@@QAEXMMM@Z				; Vector3::Set
PUBLIC	??AVector3@@QBEABMH@Z				; Vector3::operator[]
PUBLIC	?Normalize@Vector3@@QAEXXZ			; Vector3::Normalize
PUBLIC	?Length@Vector3@@QBEMXZ				; Vector3::Length
PUBLIC	?Length2@Vector3@@QBEMXZ			; Vector3::Length2
PUBLIC	??D@YA?AVVector3@@ABV0@M@Z			; operator*
PUBLIC	??D@YA?AVVector3@@MABV0@@Z			; operator*
PUBLIC	??H@YA?AVVector3@@ABV0@0@Z			; operator+
PUBLIC	??G@YA?AVVector3@@ABV0@0@Z			; operator-
PUBLIC	?Add@Vector3@@SAXABV1@0PAV1@@Z			; Vector3::Add
PUBLIC	??0GameObjObserverClass@@QAE@XZ			; GameObjObserverClass::GameObjObserverClass
PUBLIC	??1GameObjObserverClass@@UAE@XZ			; GameObjObserverClass::~GameObjObserverClass
PUBLIC	?Set_ID@GameObjObserverClass@@QAEXH@Z		; GameObjObserverClass::Set_ID
PUBLIC	?Get_ID@GameObjObserverClass@@QAEHXZ		; GameObjObserverClass::Get_ID
PUBLIC	?Owner@GameObjObserverClass@@UAEPAVScriptableGameObj@@XZ ; GameObjObserverClass::Owner
PUBLIC	??0GameObjObserverClass@@QAE@ABV0@@Z		; GameObjObserverClass::GameObjObserverClass
PUBLIC	??4GameObjObserverClass@@QAEAAV0@ABV0@@Z	; GameObjObserverClass::operator=
PUBLIC	??_GGameObjObserverClass@@UAEPAXI@Z		; GameObjObserverClass::`scalar deleting destructor'
PUBLIC	??_EGameObjObserverClass@@UAEPAXI@Z		; GameObjObserverClass::`vector deleting destructor'
PUBLIC	??1ScriptClass@@UAE@XZ				; ScriptClass::~ScriptClass
PUBLIC	??0ScriptClass@@QAE@XZ				; ScriptClass::ScriptClass
PUBLIC	??0ScriptClass@@QAE@ABV0@@Z			; ScriptClass::ScriptClass
PUBLIC	??4ScriptClass@@QAEAAV0@ABV0@@Z			; ScriptClass::operator=
PUBLIC	??_GScriptClass@@UAEPAXI@Z			; ScriptClass::`scalar deleting destructor'
PUBLIC	??_EScriptClass@@UAEPAXI@Z			; ScriptClass::`vector deleting destructor'
PUBLIC	?SetFactory@ScriptImpClass@@QAEXPAVScriptFactory@@@Z ; ScriptImpClass::SetFactory
PUBLIC	?Created@ScriptImpClass@@UAEXPAVScriptableGameObj@@@Z ; ScriptImpClass::Created
PUBLIC	?Destroyed@ScriptImpClass@@UAEXPAVScriptableGameObj@@@Z ; ScriptImpClass::Destroyed
PUBLIC	?Killed@ScriptImpClass@@UAEXPAVScriptableGameObj@@0@Z ; ScriptImpClass::Killed
PUBLIC	?Damaged@ScriptImpClass@@UAEXPAVScriptableGameObj@@0M@Z ; ScriptImpClass::Damaged
PUBLIC	?Custom@ScriptImpClass@@UAEXPAVScriptableGameObj@@HH0@Z ; ScriptImpClass::Custom
PUBLIC	?Sound_Heard@ScriptImpClass@@UAEXPAVScriptableGameObj@@ABUCombatSound@@@Z ; ScriptImpClass::Sound_Heard
PUBLIC	?Enemy_Seen@ScriptImpClass@@UAEXPAVScriptableGameObj@@0@Z ; ScriptImpClass::Enemy_Seen
PUBLIC	?Action_Complete@ScriptImpClass@@UAEXPAVScriptableGameObj@@HW4ActionCompleteReason@@@Z ; ScriptImpClass::Action_Complete
PUBLIC	?Timer_Expired@ScriptImpClass@@UAEXPAVScriptableGameObj@@H@Z ; ScriptImpClass::Timer_Expired
PUBLIC	?Animation_Complete@ScriptImpClass@@UAEXPAVScriptableGameObj@@PBD@Z ; ScriptImpClass::Animation_Complete
PUBLIC	?Poked@ScriptImpClass@@UAEXPAVScriptableGameObj@@0@Z ; ScriptImpClass::Poked
PUBLIC	?Entered@ScriptImpClass@@UAEXPAVScriptableGameObj@@0@Z ; ScriptImpClass::Entered
PUBLIC	?Exited@ScriptImpClass@@UAEXPAVScriptableGameObj@@0@Z ; ScriptImpClass::Exited
PUBLIC	?Owner@ScriptImpClass@@UAEPAVScriptableGameObj@@XZ ; ScriptImpClass::Owner
PUBLIC	?Get_Owner_Ptr@ScriptImpClass@@UAEPAPAVScriptableGameObj@@XZ ; ScriptImpClass::Get_Owner_Ptr
PUBLIC	?Save_Data@ScriptImpClass@@UAEXAAVScriptSaver@@@Z ; ScriptImpClass::Save_Data
PUBLIC	?Load_Data@ScriptImpClass@@UAEXAAVScriptLoader@@@Z ; ScriptImpClass::Load_Data
PUBLIC	?Register_Auto_Save_Variables@ScriptImpClass@@UAEXXZ ; ScriptImpClass::Register_Auto_Save_Variables
PUBLIC	?Get_Parameter_Count@ScriptImpClass@@QAEHXZ	; ScriptImpClass::Get_Parameter_Count
PUBLIC	?Get_Int_Parameter@ScriptImpClass@@QAEHH@Z	; ScriptImpClass::Get_Int_Parameter
PUBLIC	?Get_Float_Parameter@ScriptImpClass@@QAEMH@Z	; ScriptImpClass::Get_Float_Parameter
PUBLIC	?Get_Bool_Parameter@ScriptImpClass@@QAE_NPBD@Z	; ScriptImpClass::Get_Bool_Parameter
PUBLIC	?Get_Bool_Parameter@ScriptImpClass@@QAE_NH@Z	; ScriptImpClass::Get_Bool_Parameter
PUBLIC	??0ScriptImpClass@@QAE@ABV0@@Z			; ScriptImpClass::ScriptImpClass
PUBLIC	??4ScriptImpClass@@QAEAAV0@ABV0@@Z		; ScriptImpClass::operator=
PUBLIC	??_GScriptImpClass@@UAEPAXI@Z			; ScriptImpClass::`scalar deleting destructor'
PUBLIC	??_EScriptImpClass@@UAEPAXI@Z			; ScriptImpClass::`vector deleting destructor'
PUBLIC	??0ScriptFactory@@QAE@ABV0@@Z			; ScriptFactory::ScriptFactory
PUBLIC	??4ScriptFactory@@QAEAAV0@ABV0@@Z		; ScriptFactory::operator=
PUBLIC	??_GScriptFactory@@UAEPAXI@Z			; ScriptFactory::`scalar deleting destructor'
PUBLIC	??_EScriptFactory@@UAEPAXI@Z			; ScriptFactory::`vector deleting destructor'
PUBLIC	??4ScriptRegistrar@@QAEAAV0@ABV0@@Z		; ScriptRegistrar::operator=
PUBLIC	?Created@Ra2Ven_MirageTank@@EAEXPAVScriptableGameObj@@@Z ; Ra2Ven_MirageTank::Created
PUBLIC	?Register_Auto_Save_Variables@Ra2Ven_MirageTank@@UAEXXZ ; Ra2Ven_MirageTank::Register_Auto_Save_Variables
PUBLIC	?Timer_Expired@Ra2Ven_MirageTank@@UAEXPAVScriptableGameObj@@H@Z ; Ra2Ven_MirageTank::Timer_Expired
PUBLIC	?Custom@Ra2Ven_MirageTank@@UAEXPAVScriptableGameObj@@HH0@Z ; Ra2Ven_MirageTank::Custom
PUBLIC	?Killed@Ra2Ven_MirageTank@@UAEXPAVScriptableGameObj@@0@Z ; Ra2Ven_MirageTank::Killed
PUBLIC	??0Ra2Ven_MirageTank@@QAE@XZ			; Ra2Ven_MirageTank::Ra2Ven_MirageTank
PUBLIC	??1Ra2Ven_MirageTank@@UAE@XZ			; Ra2Ven_MirageTank::~Ra2Ven_MirageTank
PUBLIC	??_GRa2Ven_MirageTank@@UAEPAXI@Z		; Ra2Ven_MirageTank::`scalar deleting destructor'
PUBLIC	?Created@Ra2Ven_VehicleFalling@@EAEXPAVScriptableGameObj@@@Z ; Ra2Ven_VehicleFalling::Created
PUBLIC	?Timer_Expired@Ra2Ven_VehicleFalling@@EAEXPAVScriptableGameObj@@H@Z ; Ra2Ven_VehicleFalling::Timer_Expired
PUBLIC	?Register_Auto_Save_Variables@Ra2Ven_VehicleFalling@@UAEXXZ ; Ra2Ven_VehicleFalling::Register_Auto_Save_Variables
PUBLIC	??0Ra2Ven_VehicleFalling@@QAE@XZ		; Ra2Ven_VehicleFalling::Ra2Ven_VehicleFalling
PUBLIC	??1Ra2Ven_VehicleFalling@@UAE@XZ		; Ra2Ven_VehicleFalling::~Ra2Ven_VehicleFalling
PUBLIC	??_GRa2Ven_VehicleFalling@@UAEPAXI@Z		; Ra2Ven_VehicleFalling::`scalar deleting destructor'
PUBLIC	?Created@Ra2Ven_DemoTruck@@EAEXPAVScriptableGameObj@@@Z ; Ra2Ven_DemoTruck::Created
PUBLIC	?Damaged@Ra2Ven_DemoTruck@@EAEXPAVScriptableGameObj@@0M@Z ; Ra2Ven_DemoTruck::Damaged
PUBLIC	?Custom@Ra2Ven_DemoTruck@@EAEXPAVScriptableGameObj@@HH0@Z ; Ra2Ven_DemoTruck::Custom
PUBLIC	?Killed@Ra2Ven_DemoTruck@@EAEXPAVScriptableGameObj@@0@Z ; Ra2Ven_DemoTruck::Killed
PUBLIC	?Register_Auto_Save_Variables@Ra2Ven_DemoTruck@@UAEXXZ ; Ra2Ven_DemoTruck::Register_Auto_Save_Variables
PUBLIC	??0Ra2Ven_DemoTruck@@QAE@XZ			; Ra2Ven_DemoTruck::Ra2Ven_DemoTruck
PUBLIC	??1Ra2Ven_DemoTruck@@UAE@XZ			; Ra2Ven_DemoTruck::~Ra2Ven_DemoTruck
PUBLIC	??_GRa2Ven_DemoTruck@@UAEPAXI@Z			; Ra2Ven_DemoTruck::`scalar deleting destructor'
PUBLIC	?Created@Ra2Ven_Deployable_Vehicle@@EAEXPAVScriptableGameObj@@@Z ; Ra2Ven_Deployable_Vehicle::Created
PUBLIC	?Register_Auto_Save_Variables@Ra2Ven_Deployable_Vehicle@@UAEXXZ ; Ra2Ven_Deployable_Vehicle::Register_Auto_Save_Variables
PUBLIC	?Damaged@Ra2Ven_Deployable_Vehicle@@UAEXPAVScriptableGameObj@@0M@Z ; Ra2Ven_Deployable_Vehicle::Damaged
PUBLIC	?Custom@Ra2Ven_Deployable_Vehicle@@UAEXPAVScriptableGameObj@@HH0@Z ; Ra2Ven_Deployable_Vehicle::Custom
PUBLIC	?Killed@Ra2Ven_Deployable_Vehicle@@UAEXPAVScriptableGameObj@@0@Z ; Ra2Ven_Deployable_Vehicle::Killed
PUBLIC	??0Ra2Ven_Deployable_Vehicle@@QAE@XZ		; Ra2Ven_Deployable_Vehicle::Ra2Ven_Deployable_Vehicle
PUBLIC	??1Ra2Ven_Deployable_Vehicle@@UAE@XZ		; Ra2Ven_Deployable_Vehicle::~Ra2Ven_Deployable_Vehicle
PUBLIC	??_GRa2Ven_Deployable_Vehicle@@UAEPAXI@Z	; Ra2Ven_Deployable_Vehicle::`scalar deleting destructor'
PUBLIC	?Created@Ra2Ven_Deploy_Animation@@EAEXPAVScriptableGameObj@@@Z ; Ra2Ven_Deploy_Animation::Created
PUBLIC	?Timer_Expired@Ra2Ven_Deploy_Animation@@EAEXPAVScriptableGameObj@@H@Z ; Ra2Ven_Deploy_Animation::Timer_Expired
PUBLIC	??0Ra2Ven_Deploy_Animation@@QAE@XZ		; Ra2Ven_Deploy_Animation::Ra2Ven_Deploy_Animation
PUBLIC	??1Ra2Ven_Deploy_Animation@@UAE@XZ		; Ra2Ven_Deploy_Animation::~Ra2Ven_Deploy_Animation
PUBLIC	??_GRa2Ven_Deploy_Animation@@UAEPAXI@Z		; Ra2Ven_Deploy_Animation::`scalar deleting destructor'
PUBLIC	?Created@Ra2Ven_RandomTree@@EAEXPAVScriptableGameObj@@@Z ; Ra2Ven_RandomTree::Created
PUBLIC	??0Ra2Ven_RandomTree@@QAE@XZ			; Ra2Ven_RandomTree::Ra2Ven_RandomTree
PUBLIC	??1Ra2Ven_RandomTree@@UAE@XZ			; Ra2Ven_RandomTree::~Ra2Ven_RandomTree
PUBLIC	??_GRa2Ven_RandomTree@@UAEPAXI@Z		; Ra2Ven_RandomTree::`scalar deleting destructor'
PUBLIC	?Created@Ra2Ven_TurretSound@@EAEXPAVScriptableGameObj@@@Z ; Ra2Ven_TurretSound::Created
PUBLIC	?Killed@Ra2Ven_TurretSound@@EAEXPAVScriptableGameObj@@0@Z ; Ra2Ven_TurretSound::Killed
PUBLIC	?Register_Auto_Save_Variables@Ra2Ven_TurretSound@@UAEXXZ ; Ra2Ven_TurretSound::Register_Auto_Save_Variables
PUBLIC	??0Ra2Ven_TurretSound@@QAE@XZ			; Ra2Ven_TurretSound::Ra2Ven_TurretSound
PUBLIC	??1Ra2Ven_TurretSound@@UAE@XZ			; Ra2Ven_TurretSound::~Ra2Ven_TurretSound
PUBLIC	??_GRa2Ven_TurretSound@@UAEPAXI@Z		; Ra2Ven_TurretSound::`scalar deleting destructor'
PUBLIC	?Created@Ra2Ven_TurretSoundObj@@EAEXPAVScriptableGameObj@@@Z ; Ra2Ven_TurretSoundObj::Created
PUBLIC	?Timer_Expired@Ra2Ven_TurretSoundObj@@EAEXPAVScriptableGameObj@@H@Z ; Ra2Ven_TurretSoundObj::Timer_Expired
PUBLIC	?Custom@Ra2Ven_TurretSoundObj@@EAEXPAVScriptableGameObj@@HH0@Z ; Ra2Ven_TurretSoundObj::Custom
PUBLIC	?Register_Auto_Save_Variables@Ra2Ven_TurretSoundObj@@UAEXXZ ; Ra2Ven_TurretSoundObj::Register_Auto_Save_Variables
PUBLIC	??0Ra2Ven_TurretSoundObj@@QAE@XZ		; Ra2Ven_TurretSoundObj::Ra2Ven_TurretSoundObj
PUBLIC	??1Ra2Ven_TurretSoundObj@@UAE@XZ		; Ra2Ven_TurretSoundObj::~Ra2Ven_TurretSoundObj
PUBLIC	??_GRa2Ven_TurretSoundObj@@UAEPAXI@Z		; Ra2Ven_TurretSoundObj::`scalar deleting destructor'
PUBLIC	?Custom@Ra2Ven_OccupentWeapon@@EAEXPAVScriptableGameObj@@HH0@Z ; Ra2Ven_OccupentWeapon::Custom
PUBLIC	??0Ra2Ven_OccupentWeapon@@QAE@XZ		; Ra2Ven_OccupentWeapon::Ra2Ven_OccupentWeapon
PUBLIC	??1Ra2Ven_OccupentWeapon@@UAE@XZ		; Ra2Ven_OccupentWeapon::~Ra2Ven_OccupentWeapon
PUBLIC	??_GRa2Ven_OccupentWeapon@@UAEPAXI@Z		; Ra2Ven_OccupentWeapon::`scalar deleting destructor'
PUBLIC	?Created@Ra2Ven_FireAnimation@@EAEXPAVScriptableGameObj@@@Z ; Ra2Ven_FireAnimation::Created
PUBLIC	?Timer_Expired@Ra2Ven_FireAnimation@@EAEXPAVScriptableGameObj@@H@Z ; Ra2Ven_FireAnimation::Timer_Expired
PUBLIC	?Animation_Complete@Ra2Ven_FireAnimation@@EAEXPAVScriptableGameObj@@PBD@Z ; Ra2Ven_FireAnimation::Animation_Complete
PUBLIC	?Register_Auto_Save_Variables@Ra2Ven_FireAnimation@@UAEXXZ ; Ra2Ven_FireAnimation::Register_Auto_Save_Variables
PUBLIC	??0Ra2Ven_FireAnimation@@QAE@XZ			; Ra2Ven_FireAnimation::Ra2Ven_FireAnimation
PUBLIC	??1Ra2Ven_FireAnimation@@UAE@XZ			; Ra2Ven_FireAnimation::~Ra2Ven_FireAnimation
PUBLIC	??_GRa2Ven_FireAnimation@@UAEPAXI@Z		; Ra2Ven_FireAnimation::`scalar deleting destructor'
PUBLIC	?Created@Ra2Ven_FireAnimation2@@EAEXPAVScriptableGameObj@@@Z ; Ra2Ven_FireAnimation2::Created
PUBLIC	?Timer_Expired@Ra2Ven_FireAnimation2@@EAEXPAVScriptableGameObj@@H@Z ; Ra2Ven_FireAnimation2::Timer_Expired
PUBLIC	?Animation_Complete@Ra2Ven_FireAnimation2@@EAEXPAVScriptableGameObj@@PBD@Z ; Ra2Ven_FireAnimation2::Animation_Complete
PUBLIC	?Register_Auto_Save_Variables@Ra2Ven_FireAnimation2@@UAEXXZ ; Ra2Ven_FireAnimation2::Register_Auto_Save_Variables
PUBLIC	??0Ra2Ven_FireAnimation2@@QAE@XZ		; Ra2Ven_FireAnimation2::Ra2Ven_FireAnimation2
PUBLIC	??1Ra2Ven_FireAnimation2@@UAE@XZ		; Ra2Ven_FireAnimation2::~Ra2Ven_FireAnimation2
PUBLIC	??_GRa2Ven_FireAnimation2@@UAEPAXI@Z		; Ra2Ven_FireAnimation2::`scalar deleting destructor'
PUBLIC	?Created@Ra2Ven_Dplbl_Vhcls_Cursor@@EAEXPAVScriptableGameObj@@@Z ; Ra2Ven_Dplbl_Vhcls_Cursor::Created
PUBLIC	?Register_Auto_Save_Variables@Ra2Ven_Dplbl_Vhcls_Cursor@@UAEXXZ ; Ra2Ven_Dplbl_Vhcls_Cursor::Register_Auto_Save_Variables
PUBLIC	?Damaged@Ra2Ven_Dplbl_Vhcls_Cursor@@UAEXPAVScriptableGameObj@@0M@Z ; Ra2Ven_Dplbl_Vhcls_Cursor::Damaged
PUBLIC	?Custom@Ra2Ven_Dplbl_Vhcls_Cursor@@UAEXPAVScriptableGameObj@@HH0@Z ; Ra2Ven_Dplbl_Vhcls_Cursor::Custom
PUBLIC	?Killed@Ra2Ven_Dplbl_Vhcls_Cursor@@UAEXPAVScriptableGameObj@@0@Z ; Ra2Ven_Dplbl_Vhcls_Cursor::Killed
PUBLIC	??0Ra2Ven_Dplbl_Vhcls_Cursor@@QAE@XZ		; Ra2Ven_Dplbl_Vhcls_Cursor::Ra2Ven_Dplbl_Vhcls_Cursor
PUBLIC	??1Ra2Ven_Dplbl_Vhcls_Cursor@@UAE@XZ		; Ra2Ven_Dplbl_Vhcls_Cursor::~Ra2Ven_Dplbl_Vhcls_Cursor
PUBLIC	??_GRa2Ven_Dplbl_Vhcls_Cursor@@UAEPAXI@Z	; Ra2Ven_Dplbl_Vhcls_Cursor::`scalar deleting destructor'
PUBLIC	?Is_Running@ThreadClass@@QAE_NXZ		; ThreadClass::Is_Running
PUBLIC	?Get_Current_Thread_ID@ThreadClass@@SAHXZ	; ThreadClass::Get_Current_Thread_ID
PUBLIC	?Get_Name@ThreadClass@@QAEPBDXZ			; ThreadClass::Get_Name
PUBLIC	??0ThreadClass@@QAE@ABV0@@Z			; ThreadClass::ThreadClass
PUBLIC	??4ThreadClass@@QAEAAV0@ABV0@@Z			; ThreadClass::operator=
PUBLIC	??_GThreadClass@@UAEPAXI@Z			; ThreadClass::`scalar deleting destructor'
PUBLIC	??_EThreadClass@@UAEPAXI@Z			; ThreadClass::`vector deleting destructor'
PUBLIC	??4CriticalSectionClass@@QAEAAV0@ABV0@@Z	; CriticalSectionClass::operator=
PUBLIC	??0PostLoadableClass@@QAE@XZ			; PostLoadableClass::PostLoadableClass
PUBLIC	??1PostLoadableClass@@UAE@XZ			; PostLoadableClass::~PostLoadableClass
PUBLIC	?On_Post_Load@PostLoadableClass@@UAEXXZ		; PostLoadableClass::On_Post_Load
PUBLIC	?Is_Post_Load_Registered@PostLoadableClass@@QBE_NXZ ; PostLoadableClass::Is_Post_Load_Registered
PUBLIC	?Set_Post_Load_Registered@PostLoadableClass@@QAEX_N@Z ; PostLoadableClass::Set_Post_Load_Registered
PUBLIC	??0PostLoadableClass@@QAE@ABV0@@Z		; PostLoadableClass::PostLoadableClass
PUBLIC	??4PostLoadableClass@@QAEAAV0@ABV0@@Z		; PostLoadableClass::operator=
PUBLIC	??_GPostLoadableClass@@UAEPAXI@Z		; PostLoadableClass::`scalar deleting destructor'
PUBLIC	??_EPostLoadableClass@@UAEPAXI@Z		; PostLoadableClass::`vector deleting destructor'
PUBLIC	??1StringClass@@QAE@XZ				; StringClass::~StringClass
PUBLIC	??_EStringClass@@QAEPAXI@Z			; StringClass::`vector deleting destructor'
PUBLIC	??4ChunkLoadClass@@QAEAAV0@ABV0@@Z		; ChunkLoadClass::operator=
PUBLIC	?Set_Contains_Chunks@ChunkSaveClass@@QAEXXZ	; ChunkSaveClass::Set_Contains_Chunks
PUBLIC	??4ChunkSaveClass@@QAEAAV0@ABV0@@Z		; ChunkSaveClass::operator=
PUBLIC	?Is_Present@INIClass@@QBE_NPBD0@Z		; INIClass::Is_Present
PUBLIC	?Section_Present@INIClass@@QBE_NPBD@Z		; INIClass::Section_Present
PUBLIC	?Get_Section_List@INIClass@@QAEAAV?$List@PAUINISection@@@@XZ ; INIClass::Get_Section_List
PUBLIC	?Get_Section_Index@INIClass@@QAEAAV?$IndexClass@HPAUINISection@@@@XZ ; INIClass::Get_Section_Index
PUBLIC	?Get_File_Name@INIClass@@QAEPBDXZ		; INIClass::Get_File_Name
PUBLIC	??0INIClass@@QAE@ABV0@@Z			; INIClass::INIClass
PUBLIC	??4INIClass@@QAEAAV0@ABV0@@Z			; INIClass::operator=
PUBLIC	??_GINIClass@@UAEPAXI@Z				; INIClass::`scalar deleting destructor'
PUBLIC	??_EINIClass@@UAEPAXI@Z				; INIClass::`vector deleting destructor'
PUBLIC	??Cfile_auto_ptr@@QAEPAVFileClass@@XZ		; file_auto_ptr::operator->
PUBLIC	??Bfile_auto_ptr@@QAEPAVFileClass@@XZ		; file_auto_ptr::operator FileClass *
PUBLIC	??Dfile_auto_ptr@@QAEAAVFileClass@@XZ		; file_auto_ptr::operator*
PUBLIC	?get@file_auto_ptr@@QAEPAVFileClass@@XZ		; file_auto_ptr::get
PUBLIC	??4file_auto_ptr@@QAEAAV0@ABV0@@Z		; file_auto_ptr::operator=
PUBLIC	??CReferencerClass@@QAEPAVScriptableGameObj@@XZ	; ReferencerClass::operator->
PUBLIC	??0ReferencerClass@@QAE@XZ			; ReferencerClass::ReferencerClass
PUBLIC	??0ReferencerClass@@QAE@PAVScriptableGameObj@@@Z ; ReferencerClass::ReferencerClass
PUBLIC	?Get_Ptr@ReferencerClass@@QBEPAVScriptableGameObj@@XZ ; ReferencerClass::Get_Ptr
PUBLIC	?Set_Ptr@ReferencerClass@@QAEXPAVScriptableGameObj@@@Z ; ReferencerClass::Set_Ptr
PUBLIC	??0ReferencerClass@@QAE@ABV0@@Z			; ReferencerClass::ReferencerClass
PUBLIC	??_GReferencerClass@@UAEPAXI@Z			; ReferencerClass::`scalar deleting destructor'
PUBLIC	??_EReferencerClass@@UAEPAXI@Z			; ReferencerClass::`vector deleting destructor'
PUBLIC	?Get_Data@?$ReferenceableClass@VScriptableGameObj@@@@IBEPAVScriptableGameObj@@XZ ; ReferenceableClass<ScriptableGameObj>::Get_Data
PUBLIC	??4SysTimeClass@@QAEAAV0@ABV0@@Z		; SysTimeClass::operator=
PUBLIC	??0Vector4@@QAE@XZ				; Vector4::Vector4
PUBLIC	??4Vector4@@QAEAAV0@ABV0@@Z			; Vector4::operator=
PUBLIC	?Set@Vector4@@QAEXMMMM@Z			; Vector4::Set
PUBLIC	??AVector4@@QAEAAMH@Z				; Vector4::operator[]
PUBLIC	??AVector4@@QBEABMH@Z				; Vector4::operator[]
PUBLIC	??AMatrix3D@@QAEAAVVector4@@H@Z			; Matrix3D::operator[]
PUBLIC	??AMatrix3D@@QBEABVVector4@@H@Z			; Matrix3D::operator[]
PUBLIC	??0Matrix3D@@QAE@_N@Z				; Matrix3D::Matrix3D
PUBLIC	??0Matrix3D@@QAE@QAM@Z				; Matrix3D::Matrix3D
PUBLIC	??0Matrix3D@@QAE@ABVVector3@@000@Z		; Matrix3D::Matrix3D
PUBLIC	??0Matrix3D@@QAE@ABVVector3@@M@Z		; Matrix3D::Matrix3D
PUBLIC	??0Matrix3D@@QAE@ABVVector3@@MM@Z		; Matrix3D::Matrix3D
PUBLIC	??0Matrix3D@@QAE@ABVMatrix3@@ABVVector3@@@Z	; Matrix3D::Matrix3D
PUBLIC	??0Matrix3D@@QAE@ABVQuaternion@@ABVVector3@@@Z	; Matrix3D::Matrix3D
PUBLIC	??0Matrix3D@@QAE@ABVVector3@@@Z			; Matrix3D::Matrix3D
PUBLIC	??0Matrix3D@@QAE@ABV0@@Z			; Matrix3D::Matrix3D
PUBLIC	??4Matrix3D@@QAEAAV0@ABV0@@Z			; Matrix3D::operator=
PUBLIC	?Set@Matrix3D@@QAEXQAM@Z			; Matrix3D::Set
PUBLIC	?Set@Matrix3D@@QAEXMMMMMMMMMMMM@Z		; Matrix3D::Set
PUBLIC	?Set@Matrix3D@@QAEXABVVector3@@000@Z		; Matrix3D::Set
PUBLIC	?Set@Matrix3D@@QAEXABVVector3@@M@Z		; Matrix3D::Set
PUBLIC	?Set@Matrix3D@@QAEXABVVector3@@MM@Z		; Matrix3D::Set
PUBLIC	?Set@Matrix3D@@QAEXABVVector3@@@Z		; Matrix3D::Set
PUBLIC	?Get_Translation@Matrix3D@@QBE?AVVector3@@XZ	; Matrix3D::Get_Translation
PUBLIC	?Get_Translation@Matrix3D@@QBEXPAVVector3@@@Z	; Matrix3D::Get_Translation
PUBLIC	?Set_Translation@Matrix3D@@QAEXABVVector3@@@Z	; Matrix3D::Set_Translation
PUBLIC	?Get_X_Translation@Matrix3D@@QBEMXZ		; Matrix3D::Get_X_Translation
PUBLIC	?Get_Y_Translation@Matrix3D@@QBEMXZ		; Matrix3D::Get_Y_Translation
PUBLIC	?Get_Z_Translation@Matrix3D@@QBEMXZ		; Matrix3D::Get_Z_Translation
PUBLIC	?Set_X_Translation@Matrix3D@@QAEXM@Z		; Matrix3D::Set_X_Translation
PUBLIC	?Set_Y_Translation@Matrix3D@@QAEXM@Z		; Matrix3D::Set_Y_Translation
PUBLIC	?Set_Z_Translation@Matrix3D@@QAEXM@Z		; Matrix3D::Set_Z_Translation
PUBLIC	?Adjust_Translation@Matrix3D@@QAEXABVVector3@@@Z ; Matrix3D::Adjust_Translation
PUBLIC	?Adjust_X_Translation@Matrix3D@@QAEXM@Z		; Matrix3D::Adjust_X_Translation
PUBLIC	?Adjust_Y_Translation@Matrix3D@@QAEXM@Z		; Matrix3D::Adjust_Y_Translation
PUBLIC	?Adjust_Z_Translation@Matrix3D@@QAEXM@Z		; Matrix3D::Adjust_Z_Translation
PUBLIC	?Make_Identity@Matrix3D@@QAEXXZ			; Matrix3D::Make_Identity
PUBLIC	?Translate@Matrix3D@@QAEXMMM@Z			; Matrix3D::Translate
PUBLIC	?Translate@Matrix3D@@QAEXABVVector3@@@Z		; Matrix3D::Translate
PUBLIC	?Translate_X@Matrix3D@@QAEXM@Z			; Matrix3D::Translate_X
PUBLIC	?Translate_Y@Matrix3D@@QAEXM@Z			; Matrix3D::Translate_Y
PUBLIC	?Translate_Z@Matrix3D@@QAEXM@Z			; Matrix3D::Translate_Z
PUBLIC	?Rotate_X@Matrix3D@@QAEXM@Z			; Matrix3D::Rotate_X
PUBLIC	?Rotate_Y@Matrix3D@@QAEXM@Z			; Matrix3D::Rotate_Y
PUBLIC	?Rotate_Z@Matrix3D@@QAEXM@Z			; Matrix3D::Rotate_Z
PUBLIC	?Rotate_X@Matrix3D@@QAEXMM@Z			; Matrix3D::Rotate_X
PUBLIC	?Rotate_Y@Matrix3D@@QAEXMM@Z			; Matrix3D::Rotate_Y
PUBLIC	?Rotate_Z@Matrix3D@@QAEXMM@Z			; Matrix3D::Rotate_Z
PUBLIC	?Scale@Matrix3D@@QAEXM@Z			; Matrix3D::Scale
PUBLIC	?Scale@Matrix3D@@QAEXMMM@Z			; Matrix3D::Scale
PUBLIC	?Scale@Matrix3D@@QAEXAAVVector3@@@Z		; Matrix3D::Scale
PUBLIC	?Pre_Rotate_X@Matrix3D@@QAEXM@Z			; Matrix3D::Pre_Rotate_X
PUBLIC	?Pre_Rotate_Y@Matrix3D@@QAEXM@Z			; Matrix3D::Pre_Rotate_Y
PUBLIC	?Pre_Rotate_Z@Matrix3D@@QAEXM@Z			; Matrix3D::Pre_Rotate_Z
PUBLIC	?Pre_Rotate_X@Matrix3D@@QAEXMM@Z		; Matrix3D::Pre_Rotate_X
PUBLIC	?Pre_Rotate_Y@Matrix3D@@QAEXMM@Z		; Matrix3D::Pre_Rotate_Y
PUBLIC	?Pre_Rotate_Z@Matrix3D@@QAEXMM@Z		; Matrix3D::Pre_Rotate_Z
PUBLIC	?In_Place_Pre_Rotate_X@Matrix3D@@QAEXM@Z	; Matrix3D::In_Place_Pre_Rotate_X
PUBLIC	?In_Place_Pre_Rotate_Y@Matrix3D@@QAEXM@Z	; Matrix3D::In_Place_Pre_Rotate_Y
PUBLIC	?In_Place_Pre_Rotate_Z@Matrix3D@@QAEXM@Z	; Matrix3D::In_Place_Pre_Rotate_Z
PUBLIC	?In_Place_Pre_Rotate_X@Matrix3D@@QAEXMM@Z	; Matrix3D::In_Place_Pre_Rotate_X
PUBLIC	?In_Place_Pre_Rotate_Y@Matrix3D@@QAEXMM@Z	; Matrix3D::In_Place_Pre_Rotate_Y
PUBLIC	?In_Place_Pre_Rotate_Z@Matrix3D@@QAEXMM@Z	; Matrix3D::In_Place_Pre_Rotate_Z
PUBLIC	?Transform_Vector@Matrix3D@@SAXABV1@ABVVector3@@PAV2@@Z ; Matrix3D::Transform_Vector
PUBLIC	?Get_X_Vector@Matrix3D@@QBE?AVVector3@@XZ	; Matrix3D::Get_X_Vector
PUBLIC	?Get_Y_Vector@Matrix3D@@QBE?AVVector3@@XZ	; Matrix3D::Get_Y_Vector
PUBLIC	?Get_Z_Vector@Matrix3D@@QBE?AVVector3@@XZ	; Matrix3D::Get_Z_Vector
PUBLIC	?Get_X_Vector@Matrix3D@@QBEXPAVVector3@@@Z	; Matrix3D::Get_X_Vector
PUBLIC	?Get_Y_Vector@Matrix3D@@QBEXPAVVector3@@@Z	; Matrix3D::Get_Y_Vector
PUBLIC	?Get_Z_Vector@Matrix3D@@QBEXPAVVector3@@@Z	; Matrix3D::Get_Z_Vector
PUBLIC	?Rotate_Vector@Matrix3D@@SAXABV1@ABVVector3@@PAV2@@Z ; Matrix3D::Rotate_Vector
PUBLIC	?Inverse_Transform_Vector@Matrix3D@@SAXABV1@ABVVector3@@PAV2@@Z ; Matrix3D::Inverse_Transform_Vector
PUBLIC	?Inverse_Rotate_Vector@Matrix3D@@SAXABV1@ABVVector3@@PAV2@@Z ; Matrix3D::Inverse_Rotate_Vector
PUBLIC	??0LineSegClass@@QAE@XZ				; LineSegClass::LineSegClass
PUBLIC	??0LineSegClass@@QAE@ABVVector3@@0@Z		; LineSegClass::LineSegClass
PUBLIC	??0LineSegClass@@QAE@ABVVector3@@0M@Z		; LineSegClass::LineSegClass
PUBLIC	??0LineSegClass@@QAE@ABV0@ABVMatrix3D@@@Z	; LineSegClass::LineSegClass
PUBLIC	?Set@LineSegClass@@QAEXABVVector3@@0@Z		; LineSegClass::Set
PUBLIC	?Set@LineSegClass@@QAEXABVVector3@@0M@Z		; LineSegClass::Set
PUBLIC	?Get_P0@LineSegClass@@QBEABVVector3@@XZ		; LineSegClass::Get_P0
PUBLIC	?Get_P1@LineSegClass@@QBEABVVector3@@XZ		; LineSegClass::Get_P1
PUBLIC	?Get_DP@LineSegClass@@QBEABVVector3@@XZ		; LineSegClass::Get_DP
PUBLIC	?Get_Dir@LineSegClass@@QBEABVVector3@@XZ	; LineSegClass::Get_Dir
PUBLIC	?Get_Length@LineSegClass@@QBEMXZ		; LineSegClass::Get_Length
PUBLIC	?Compute_Point@LineSegClass@@QBEXMPAVVector3@@@Z ; LineSegClass::Compute_Point
PUBLIC	?recalculate@LineSegClass@@IAEXXZ		; LineSegClass::recalculate
PUBLIC	??0LineSegClass@@QAE@ABV0@@Z			; LineSegClass::LineSegClass
PUBLIC	??4LineSegClass@@QAEAAV0@ABV0@@Z		; LineSegClass::operator=
PUBLIC	?Get_Position@PhysClass@@QBEXPAVVector3@@@Z	; PhysClass::Get_Position
PUBLIC	?Peek_Physical_Object@PhysicalGameObj@@QBEPAVPhysClass@@XZ ; PhysicalGameObj::Peek_Physical_Object
PUBLIC	?Get_Position@PhysicalGameObj@@QAE?AVVector3@@XZ ; PhysicalGameObj::Get_Position
PUBLIC	?Clear_Animation@PhysicalGameObj@@QAEXXZ	; PhysicalGameObj::Clear_Animation
PUBLIC	??0?$ScriptRegistrant@VRa2Ven_MirageTank@@@@QAE@PBD0@Z ; ScriptRegistrant<Ra2Ven_MirageTank>::ScriptRegistrant<Ra2Ven_MirageTank>
PUBLIC	?Create@?$ScriptRegistrant@VRa2Ven_MirageTank@@@@UAEPAVScriptImpClass@@XZ ; ScriptRegistrant<Ra2Ven_MirageTank>::Create
PUBLIC	??1?$ScriptRegistrant@VRa2Ven_MirageTank@@@@UAE@XZ ; ScriptRegistrant<Ra2Ven_MirageTank>::~ScriptRegistrant<Ra2Ven_MirageTank>
PUBLIC	??_G?$ScriptRegistrant@VRa2Ven_MirageTank@@@@UAEPAXI@Z ; ScriptRegistrant<Ra2Ven_MirageTank>::`scalar deleting destructor'
PUBLIC	??0?$ScriptRegistrant@VRa2Ven_VehicleFalling@@@@QAE@PBD0@Z ; ScriptRegistrant<Ra2Ven_VehicleFalling>::ScriptRegistrant<Ra2Ven_VehicleFalling>
PUBLIC	?Create@?$ScriptRegistrant@VRa2Ven_VehicleFalling@@@@UAEPAVScriptImpClass@@XZ ; ScriptRegistrant<Ra2Ven_VehicleFalling>::Create
PUBLIC	??1?$ScriptRegistrant@VRa2Ven_VehicleFalling@@@@UAE@XZ ; ScriptRegistrant<Ra2Ven_VehicleFalling>::~ScriptRegistrant<Ra2Ven_VehicleFalling>
PUBLIC	??_G?$ScriptRegistrant@VRa2Ven_VehicleFalling@@@@UAEPAXI@Z ; ScriptRegistrant<Ra2Ven_VehicleFalling>::`scalar deleting destructor'
PUBLIC	??0?$ScriptRegistrant@VRa2Ven_DemoTruck@@@@QAE@PBD0@Z ; ScriptRegistrant<Ra2Ven_DemoTruck>::ScriptRegistrant<Ra2Ven_DemoTruck>
PUBLIC	?Create@?$ScriptRegistrant@VRa2Ven_DemoTruck@@@@UAEPAVScriptImpClass@@XZ ; ScriptRegistrant<Ra2Ven_DemoTruck>::Create
PUBLIC	??1?$ScriptRegistrant@VRa2Ven_DemoTruck@@@@UAE@XZ ; ScriptRegistrant<Ra2Ven_DemoTruck>::~ScriptRegistrant<Ra2Ven_DemoTruck>
PUBLIC	??_G?$ScriptRegistrant@VRa2Ven_DemoTruck@@@@UAEPAXI@Z ; ScriptRegistrant<Ra2Ven_DemoTruck>::`scalar deleting destructor'
PUBLIC	??0?$ScriptRegistrant@VRa2Ven_Deployable_Vehicle@@@@QAE@PBD0@Z ; ScriptRegistrant<Ra2Ven_Deployable_Vehicle>::ScriptRegistrant<Ra2Ven_Deployable_Vehicle>
PUBLIC	?Create@?$ScriptRegistrant@VRa2Ven_Deployable_Vehicle@@@@UAEPAVScriptImpClass@@XZ ; ScriptRegistrant<Ra2Ven_Deployable_Vehicle>::Create
PUBLIC	??1?$ScriptRegistrant@VRa2Ven_Deployable_Vehicle@@@@UAE@XZ ; ScriptRegistrant<Ra2Ven_Deployable_Vehicle>::~ScriptRegistrant<Ra2Ven_Deployable_Vehicle>
PUBLIC	??_G?$ScriptRegistrant@VRa2Ven_Deployable_Vehicle@@@@UAEPAXI@Z ; ScriptRegistrant<Ra2Ven_Deployable_Vehicle>::`scalar deleting destructor'
PUBLIC	??0?$ScriptRegistrant@VRa2Ven_Deploy_Animation@@@@QAE@PBD0@Z ; ScriptRegistrant<Ra2Ven_Deploy_Animation>::ScriptRegistrant<Ra2Ven_Deploy_Animation>
PUBLIC	?Create@?$ScriptRegistrant@VRa2Ven_Deploy_Animation@@@@UAEPAVScriptImpClass@@XZ ; ScriptRegistrant<Ra2Ven_Deploy_Animation>::Create
PUBLIC	??1?$ScriptRegistrant@VRa2Ven_Deploy_Animation@@@@UAE@XZ ; ScriptRegistrant<Ra2Ven_Deploy_Animation>::~ScriptRegistrant<Ra2Ven_Deploy_Animation>
PUBLIC	??_G?$ScriptRegistrant@VRa2Ven_Deploy_Animation@@@@UAEPAXI@Z ; ScriptRegistrant<Ra2Ven_Deploy_Animation>::`scalar deleting destructor'
PUBLIC	??0?$ScriptRegistrant@VRa2Ven_RandomTree@@@@QAE@PBD0@Z ; ScriptRegistrant<Ra2Ven_RandomTree>::ScriptRegistrant<Ra2Ven_RandomTree>
PUBLIC	?Create@?$ScriptRegistrant@VRa2Ven_RandomTree@@@@UAEPAVScriptImpClass@@XZ ; ScriptRegistrant<Ra2Ven_RandomTree>::Create
PUBLIC	??1?$ScriptRegistrant@VRa2Ven_RandomTree@@@@UAE@XZ ; ScriptRegistrant<Ra2Ven_RandomTree>::~ScriptRegistrant<Ra2Ven_RandomTree>
PUBLIC	??_G?$ScriptRegistrant@VRa2Ven_RandomTree@@@@UAEPAXI@Z ; ScriptRegistrant<Ra2Ven_RandomTree>::`scalar deleting destructor'
PUBLIC	??0?$ScriptRegistrant@VRa2Ven_TurretSound@@@@QAE@PBD0@Z ; ScriptRegistrant<Ra2Ven_TurretSound>::ScriptRegistrant<Ra2Ven_TurretSound>
PUBLIC	?Create@?$ScriptRegistrant@VRa2Ven_TurretSound@@@@UAEPAVScriptImpClass@@XZ ; ScriptRegistrant<Ra2Ven_TurretSound>::Create
PUBLIC	??1?$ScriptRegistrant@VRa2Ven_TurretSound@@@@UAE@XZ ; ScriptRegistrant<Ra2Ven_TurretSound>::~ScriptRegistrant<Ra2Ven_TurretSound>
PUBLIC	??_G?$ScriptRegistrant@VRa2Ven_TurretSound@@@@UAEPAXI@Z ; ScriptRegistrant<Ra2Ven_TurretSound>::`scalar deleting destructor'
PUBLIC	??0?$ScriptRegistrant@VRa2Ven_TurretSoundObj@@@@QAE@PBD0@Z ; ScriptRegistrant<Ra2Ven_TurretSoundObj>::ScriptRegistrant<Ra2Ven_TurretSoundObj>
PUBLIC	?Create@?$ScriptRegistrant@VRa2Ven_TurretSoundObj@@@@UAEPAVScriptImpClass@@XZ ; ScriptRegistrant<Ra2Ven_TurretSoundObj>::Create
PUBLIC	??1?$ScriptRegistrant@VRa2Ven_TurretSoundObj@@@@UAE@XZ ; ScriptRegistrant<Ra2Ven_TurretSoundObj>::~ScriptRegistrant<Ra2Ven_TurretSoundObj>
PUBLIC	??_G?$ScriptRegistrant@VRa2Ven_TurretSoundObj@@@@UAEPAXI@Z ; ScriptRegistrant<Ra2Ven_TurretSoundObj>::`scalar deleting destructor'
PUBLIC	??0?$ScriptRegistrant@VRa2Ven_OccupentWeapon@@@@QAE@PBD0@Z ; ScriptRegistrant<Ra2Ven_OccupentWeapon>::ScriptRegistrant<Ra2Ven_OccupentWeapon>
PUBLIC	?Create@?$ScriptRegistrant@VRa2Ven_OccupentWeapon@@@@UAEPAVScriptImpClass@@XZ ; ScriptRegistrant<Ra2Ven_OccupentWeapon>::Create
PUBLIC	??1?$ScriptRegistrant@VRa2Ven_OccupentWeapon@@@@UAE@XZ ; ScriptRegistrant<Ra2Ven_OccupentWeapon>::~ScriptRegistrant<Ra2Ven_OccupentWeapon>
PUBLIC	??_G?$ScriptRegistrant@VRa2Ven_OccupentWeapon@@@@UAEPAXI@Z ; ScriptRegistrant<Ra2Ven_OccupentWeapon>::`scalar deleting destructor'
PUBLIC	??0?$ScriptRegistrant@VRa2Ven_Dplbl_Vhcls_Cursor@@@@QAE@PBD0@Z ; ScriptRegistrant<Ra2Ven_Dplbl_Vhcls_Cursor>::ScriptRegistrant<Ra2Ven_Dplbl_Vhcls_Cursor>
PUBLIC	?Create@?$ScriptRegistrant@VRa2Ven_Dplbl_Vhcls_Cursor@@@@UAEPAVScriptImpClass@@XZ ; ScriptRegistrant<Ra2Ven_Dplbl_Vhcls_Cursor>::Create
PUBLIC	??1?$ScriptRegistrant@VRa2Ven_Dplbl_Vhcls_Cursor@@@@UAE@XZ ; ScriptRegistrant<Ra2Ven_Dplbl_Vhcls_Cursor>::~ScriptRegistrant<Ra2Ven_Dplbl_Vhcls_Cursor>
PUBLIC	??_G?$ScriptRegistrant@VRa2Ven_Dplbl_Vhcls_Cursor@@@@UAEPAXI@Z ; ScriptRegistrant<Ra2Ven_Dplbl_Vhcls_Cursor>::`scalar deleting destructor'
PUBLIC	??0?$ScriptRegistrant@VRa2Ven_FireAnimation@@@@QAE@PBD0@Z ; ScriptRegistrant<Ra2Ven_FireAnimation>::ScriptRegistrant<Ra2Ven_FireAnimation>
PUBLIC	?Create@?$ScriptRegistrant@VRa2Ven_FireAnimation@@@@UAEPAVScriptImpClass@@XZ ; ScriptRegistrant<Ra2Ven_FireAnimation>::Create
PUBLIC	??1?$ScriptRegistrant@VRa2Ven_FireAnimation@@@@UAE@XZ ; ScriptRegistrant<Ra2Ven_FireAnimation>::~ScriptRegistrant<Ra2Ven_FireAnimation>
PUBLIC	??_G?$ScriptRegistrant@VRa2Ven_FireAnimation@@@@UAEPAXI@Z ; ScriptRegistrant<Ra2Ven_FireAnimation>::`scalar deleting destructor'
PUBLIC	??0?$ScriptRegistrant@VRa2Ven_FireAnimation2@@@@QAE@PBD0@Z ; ScriptRegistrant<Ra2Ven_FireAnimation2>::ScriptRegistrant<Ra2Ven_FireAnimation2>
PUBLIC	?Create@?$ScriptRegistrant@VRa2Ven_FireAnimation2@@@@UAEPAVScriptImpClass@@XZ ; ScriptRegistrant<Ra2Ven_FireAnimation2>::Create
PUBLIC	??1?$ScriptRegistrant@VRa2Ven_FireAnimation2@@@@UAE@XZ ; ScriptRegistrant<Ra2Ven_FireAnimation2>::~ScriptRegistrant<Ra2Ven_FireAnimation2>
PUBLIC	??_G?$ScriptRegistrant@VRa2Ven_FireAnimation2@@@@UAEPAXI@Z ; ScriptRegistrant<Ra2Ven_FireAnimation2>::`scalar deleting destructor'
PUBLIC	??_7GameObjObserverClass@@6B@			; GameObjObserverClass::`vftable'
PUBLIC	??_7ScriptClass@@6B@				; ScriptClass::`vftable'
PUBLIC	??_7ScriptImpClass@@6B@				; ScriptImpClass::`vftable'
PUBLIC	??_7ScriptFactory@@6B@				; ScriptFactory::`vftable'
PUBLIC	??_7Ra2Ven_MirageTank@@6B@			; Ra2Ven_MirageTank::`vftable'
PUBLIC	??_7Ra2Ven_VehicleFalling@@6B@			; Ra2Ven_VehicleFalling::`vftable'
PUBLIC	??_7Ra2Ven_DemoTruck@@6B@			; Ra2Ven_DemoTruck::`vftable'
PUBLIC	??_7Ra2Ven_Deployable_Vehicle@@6B@		; Ra2Ven_Deployable_Vehicle::`vftable'
PUBLIC	??_7Ra2Ven_Deploy_Animation@@6B@		; Ra2Ven_Deploy_Animation::`vftable'
PUBLIC	??_7Ra2Ven_RandomTree@@6B@			; Ra2Ven_RandomTree::`vftable'
PUBLIC	??_7Ra2Ven_TurretSound@@6B@			; Ra2Ven_TurretSound::`vftable'
PUBLIC	??_7Ra2Ven_TurretSoundObj@@6B@			; Ra2Ven_TurretSoundObj::`vftable'
PUBLIC	??_7Ra2Ven_OccupentWeapon@@6B@			; Ra2Ven_OccupentWeapon::`vftable'
PUBLIC	??_7Ra2Ven_FireAnimation@@6B@			; Ra2Ven_FireAnimation::`vftable'
PUBLIC	??_7Ra2Ven_FireAnimation2@@6B@			; Ra2Ven_FireAnimation2::`vftable'
PUBLIC	??_7Ra2Ven_Dplbl_Vhcls_Cursor@@6B@		; Ra2Ven_Dplbl_Vhcls_Cursor::`vftable'
PUBLIC	??_7ThreadClass@@6B@				; ThreadClass::`vftable'
PUBLIC	??_C@_1M@HLGKFCJM@?$AAf?$AAa?$AAl?$AAs?$AAe?$AA?$AA@ ; `string'
PUBLIC	??_7PostLoadableClass@@6B@			; PostLoadableClass::`vftable'
PUBLIC	??_7INIClass@@6B@				; INIClass::`vftable'
PUBLIC	??_7ReferencerClass@@6B@			; ReferencerClass::`vftable'
PUBLIC	??_C@_0M@KABFCBAF@TimerNumber?$AA@		; `string'
PUBLIC	??_C@_04OKOFBOPB@Time?$AA@			; `string'
PUBLIC	??_C@_06NHCMNMEH@origin?$AA@			; `string'
PUBLIC	??_C@_0BB@LCFEHILM@Explosion_Preset?$AA@	; `string'
PUBLIC	??_C@_04CGFJFPFD@none?$AA@			; `string'
PUBLIC	??_C@_0N@BKOADMEP@Tree1_Preset?$AA@		; `string'
PUBLIC	??_C@_0N@CDGNAAIK@Tree2_Preset?$AA@		; `string'
PUBLIC	??_C@_0N@DEBGBEMJ@Tree3_Preset?$AA@		; `string'
PUBLIC	??_C@_0N@FAHHHJAA@Tree4_Preset?$AA@		; `string'
PUBLIC	??_C@_0BN@HMFHAKDL@ZValueBeforeStartFallingMode?$AA@ ; `string'
PUBLIC	??_C@_0BC@ECBOJJIK@DammageMultiplier?$AA@	; `string'
PUBLIC	??_C@_07EDCLAFNL@Warhead?$AA@			; `string'
PUBLIC	??_C@_0BH@EPLEJDAG@ImpactExplosion_Preset?$AA@	; `string'
PUBLIC	??_C@_07BJILNGIJ@Dammage?$AA@			; `string'
PUBLIC	??_C@_0P@PCCPCMPM@Demo_Explosion?$AA@		; `string'
PUBLIC	??_C@_0BB@FFILIEGA@Animation_Preset?$AA@	; `string'
PUBLIC	??_C@_0P@DGDNFMIK@oldTnk_Warhead?$AA@		; `string'
PUBLIC	??_C@_0P@GMJNIPNI@oldTnk_Dammage?$AA@		; `string'
PUBLIC	??_C@_0BB@HNOJEBCA@Explosion_preset?$AA@	; `string'
PUBLIC	??_C@_0P@EBGLEJAP@Animation_Time?$AA@		; `string'
PUBLIC	??_C@_0BF@NJMIGGAC@Deployed_Tank_Preset?$AA@	; `string'
PUBLIC	??_C@_0P@DLMDDCNK@TurretSoundObj?$AA@		; `string'
PUBLIC	??_C@_06GGDACGEK@turret?$AA@			; `string'
PUBLIC	??_C@_0P@DDOEHKHJ@Rotate_3dSound?$AA@		; `string'
PUBLIC	??_C@_0N@JNLKLFNP@TimerNumber2?$AA@		; `string'
PUBLIC	??_C@_0L@FBNKBEJO@Wav_Length?$AA@		; `string'
PUBLIC	??_C@_0L@IOKMLGGE@Character1?$AA@		; `string'
PUBLIC	??_C@_08POPEELKB@PowerUp1?$AA@			; `string'
PUBLIC	??_C@_07MBJLIDPG@Weapon1?$AA@			; `string'
PUBLIC	??_C@_0L@KFIBOFKH@Character2?$AA@		; `string'
PUBLIC	??_C@_08NFNJBIGC@PowerUp2?$AA@			; `string'
PUBLIC	??_C@_07OKLGNADF@Weapon2?$AA@			; `string'
PUBLIC	??_C@_0L@LMJKNEOG@Character3?$AA@		; `string'
PUBLIC	??_C@_08MMMCCJCD@PowerUp3?$AA@			; `string'
PUBLIC	??_C@_07PDKNOBHE@Weapon3?$AA@			; `string'
PUBLIC	??_C@_0L@PDNLECCB@Character4?$AA@		; `string'
PUBLIC	??_C@_08IDIDLPOE@PowerUp4?$AA@			; `string'
PUBLIC	??_C@_07LMOMHHLD@Weapon4?$AA@			; `string'
PUBLIC	??_C@_0L@BANOEFA@DefPowerUp?$AA@		; `string'
PUBLIC	??_C@_09ECIHCAAB@DefWeapon?$AA@			; `string'
PUBLIC	??_C@_0P@GDEJBMLM@CursorBoneName?$AA@		; `string'
PUBLIC	??_C@_0BA@LLDLKCGJ@CursorExplosion?$AA@		; `string'
PUBLIC	??_C@_0O@OONMNLEP@Cursor_preset?$AA@		; `string'
PUBLIC	??_C@_0M@GGLANGCE@AfAnimation?$AA@		; `string'
PUBLIC	??_C@_0L@MOEDLNPI@MuzzleBone?$AA@		; `string'
PUBLIC	??_C@_0L@MEDCFECO@ParentBone?$AA@		; `string'
PUBLIC	??_C@_09GIBPIKCC@LastFrame?$AA@			; `string'
PUBLIC	??_C@_0L@OCNGDGDE@FirstFrame?$AA@		; `string'
PUBLIC	??_C@_09ONEINPNJ@Animation?$AA@			; `string'
PUBLIC	??_C@_0M@ODOHIDNP@AfLastFrame?$AA@		; `string'
PUBLIC	??_C@_0N@CBFBEAJM@AfFirstFrame?$AA@		; `string'
PUBLIC	??_C@_0L@BDFFFJNM@LastFrame1?$AA@		; `string'
PUBLIC	??_C@_0M@OHALCFDB@FirstFrame1?$AA@		; `string'
PUBLIC	??_C@_0L@DJLPCFBN@Animation1?$AA@		; `string'
PUBLIC	??_C@_0L@DIHIAKBP@LastFrame2?$AA@		; `string'
PUBLIC	??_C@_0M@MMCGHGPC@FirstFrame2?$AA@		; `string'
PUBLIC	??_C@_0L@BCJCHGNO@Animation2?$AA@		; `string'
PUBLIC	??_7?$ScriptRegistrant@VRa2Ven_MirageTank@@@@6B@ ; ScriptRegistrant<Ra2Ven_MirageTank>::`vftable'
PUBLIC	?Ra2Ven_MirageTank_Registrant@@3V?$ScriptRegistrant@VRa2Ven_MirageTank@@@@A ; Ra2Ven_MirageTank_Registrant
PUBLIC	??_C@_0JE@BOODGAMG@Tree1_Preset?3string?0Tree2_Preset@ ; `string'
PUBLIC	??_C@_0BC@PLFJDIBO@Ra2Ven_MirageTank?$AA@	; `string'
PUBLIC	??_7?$ScriptRegistrant@VRa2Ven_VehicleFalling@@@@6B@ ; ScriptRegistrant<Ra2Ven_VehicleFalling>::`vftable'
PUBLIC	?Ra2Ven_VehicleFalling_Registrant@@3V?$ScriptRegistrant@VRa2Ven_VehicleFalling@@@@A ; Ra2Ven_VehicleFalling_Registrant
PUBLIC	??_C@_0IG@MALPNPAH@ZValueBeforeStartFallingMode?3int@ ; `string'
PUBLIC	??_C@_0BG@PMPONJNL@Ra2Ven_VehicleFalling?$AA@	; `string'
PUBLIC	??_7?$ScriptRegistrant@VRa2Ven_DemoTruck@@@@6B@	; ScriptRegistrant<Ra2Ven_DemoTruck>::`vftable'
PUBLIC	?Ra2Ven_DemoTruck_Registrant@@3V?$ScriptRegistrant@VRa2Ven_DemoTruck@@@@A ; Ra2Ven_DemoTruck_Registrant
PUBLIC	??_C@_0DD@IHFCKPOA@Dammage?3float?0Warhead?3string?0Dem@ ; `string'
PUBLIC	??_C@_0BB@IOMCJFGK@Ra2Ven_DemoTruck?$AA@	; `string'
PUBLIC	??_7?$ScriptRegistrant@VRa2Ven_Deployable_Vehicle@@@@6B@ ; ScriptRegistrant<Ra2Ven_Deployable_Vehicle>::`vftable'
PUBLIC	?Ra2Ven_Deployable_Vehicle_Registrant@@3V?$ScriptRegistrant@VRa2Ven_Deployable_Vehicle@@@@A ; Ra2Ven_Deployable_Vehicle_Registrant
PUBLIC	??_C@_0FL@NAMBHFEA@Animation_Preset?3string?0oldTnk_W@ ; `string'
PUBLIC	??_C@_0BK@LGMKNIIK@Ra2Ven_Deployable_Vehicle?$AA@ ; `string'
PUBLIC	??_7?$ScriptRegistrant@VRa2Ven_Deploy_Animation@@@@6B@ ; ScriptRegistrant<Ra2Ven_Deploy_Animation>::`vftable'
PUBLIC	?Ra2Ven_Deploy_Animation_Registrant@@3V?$ScriptRegistrant@VRa2Ven_Deploy_Animation@@@@A ; Ra2Ven_Deploy_Animation_Registrant
PUBLIC	??_C@_0GM@CAPOHMGB@Deployed_Tank_Preset?3string?0oldT@ ; `string'
PUBLIC	??_C@_0BI@NIPJOPPL@Ra2Ven_Deploy_Animation?$AA@	; `string'
PUBLIC	??_7?$ScriptRegistrant@VRa2Ven_RandomTree@@@@6B@ ; ScriptRegistrant<Ra2Ven_RandomTree>::`vftable'
PUBLIC	?Ra2Ven_RandomTree_Registrant@@3V?$ScriptRegistrant@VRa2Ven_RandomTree@@@@A ; Ra2Ven_RandomTree_Registrant
PUBLIC	??_C@_0FP@FKMLMEIK@Tree1_Preset?3string?0Tree2_Preset@ ; `string'
PUBLIC	??_C@_0BC@NIFCABPC@Ra2Ven_RandomTree?$AA@	; `string'
PUBLIC	??_7?$ScriptRegistrant@VRa2Ven_TurretSound@@@@6B@ ; ScriptRegistrant<Ra2Ven_TurretSound>::`vftable'
PUBLIC	?Ra2Ven_TurretSound_Registrant@@3V?$ScriptRegistrant@VRa2Ven_TurretSound@@@@A ; Ra2Ven_TurretSound_Registrant
PUBLIC	??_C@_0BG@DLGJMNLO@TurretSoundObj?3string?$AA@	; `string'
PUBLIC	??_C@_0BD@PLBPDJIG@Ra2Ven_TurretSound?$AA@	; `string'
PUBLIC	??_7?$ScriptRegistrant@VRa2Ven_TurretSoundObj@@@@6B@ ; ScriptRegistrant<Ra2Ven_TurretSoundObj>::`vftable'
PUBLIC	?Ra2Ven_TurretSoundObj_Registrant@@3V?$ScriptRegistrant@VRa2Ven_TurretSoundObj@@@@A ; Ra2Ven_TurretSoundObj_Registrant
PUBLIC	??_C@_0IG@FGCNNLKF@RotationAngleLimit?3int?0Rotate_3d@ ; `string'
PUBLIC	??_C@_0BG@HBACDDIO@Ra2Ven_TurretSoundObj?$AA@	; `string'
PUBLIC	??_7?$ScriptRegistrant@VRa2Ven_OccupentWeapon@@@@6B@ ; ScriptRegistrant<Ra2Ven_OccupentWeapon>::`vftable'
PUBLIC	?Ra2Ven_OccupentWeapon_Registrant@@3V?$ScriptRegistrant@VRa2Ven_OccupentWeapon@@@@A ; Ra2Ven_OccupentWeapon_Registrant
PUBLIC	??_C@_0OH@ENMICBLF@Character1?3string?0PowerUp1?3strin@ ; `string'
PUBLIC	??_C@_0BG@LPHGIKDE@Ra2Ven_OccupentWeapon?$AA@	; `string'
PUBLIC	??_7?$ScriptRegistrant@VRa2Ven_Dplbl_Vhcls_Cursor@@@@6B@ ; ScriptRegistrant<Ra2Ven_Dplbl_Vhcls_Cursor>::`vftable'
PUBLIC	?Ra2Ven_Dplbl_Vhcls_Cursor_Registrant@@3V?$ScriptRegistrant@VRa2Ven_Dplbl_Vhcls_Cursor@@@@A ; Ra2Ven_Dplbl_Vhcls_Cursor_Registrant
PUBLIC	??_C@_0JN@GMHFPBPE@Cursor_preset?3string?0CursorBoneN@ ; `string'
PUBLIC	??_C@_0BK@CNBANLED@Ra2Ven_Dplbl_Vhcls_Cursor?$AA@ ; `string'
PUBLIC	??_7?$ScriptRegistrant@VRa2Ven_FireAnimation@@@@6B@ ; ScriptRegistrant<Ra2Ven_FireAnimation>::`vftable'
PUBLIC	?Ra2Ven_FireAnimation_Registrant@@3V?$ScriptRegistrant@VRa2Ven_FireAnimation@@@@A ; Ra2Ven_FireAnimation_Registrant
PUBLIC	??_C@_0LK@ENFMEDEE@ParentBone?3string?0MuzzleBone?3str@ ; `string'
PUBLIC	??_C@_0BF@BIDCJCOM@Ra2Ven_FireAnimation?$AA@	; `string'
PUBLIC	??_7?$ScriptRegistrant@VRa2Ven_FireAnimation2@@@@6B@ ; ScriptRegistrant<Ra2Ven_FireAnimation2>::`vftable'
PUBLIC	?Ra2Ven_FireAnimation2_Registrant@@3V?$ScriptRegistrant@VRa2Ven_FireAnimation2@@@@A ; Ra2Ven_FireAnimation2_Registrant
PUBLIC	??_C@_0PB@LHDHLHDH@ParentBone?3string?0MuzzleBone?3str@ ; `string'
PUBLIC	??_C@_0BG@EENEMILA@Ra2Ven_FireAnimation2?$AA@	; `string'
PUBLIC	??_C@_0DC@EIHCIODN@ScriptRegistrant?$DMclass?5Ra2Ven_Mi@ ; `string'
PUBLIC	??_C@_0DD@KMKBFFOF@x?3?2github?2renegade?2dragonade_rxd@ ; `string'
PUBLIC	??_C@_1GG@OGNLNBPD@?$AAx?$AA?3?$AA?2?$AAg?$AAi?$AAt?$AAh?$AAu?$AAb?$AA?2?$AAr?$AAe?$AAn?$AAe?$AAg?$AAa?$AAd?$AAe?$AA?2?$AAd?$AAr?$AAa?$AAg?$AAo?$AAn?$AAa?$AAd?$AAe?$AA_?$AAr?$AAx?$AAd@ ; `string'
PUBLIC	??_C@_0DG@MFLNLDCP@ScriptRegistrant?$DMclass?5Ra2Ven_Ve@ ; `string'
PUBLIC	??_C@_0DB@EDDLGFLD@ScriptRegistrant?$DMclass?5Ra2Ven_De@ ; `string'
PUBLIC	??_C@_0DK@HOHLGPJO@ScriptRegistrant?$DMclass?5Ra2Ven_De@ ; `string'
PUBLIC	??_C@_0DI@FANHLGOD@ScriptRegistrant?$DMclass?5Ra2Ven_De@ ; `string'
PUBLIC	??_C@_0DC@INMNJHPG@ScriptRegistrant?$DMclass?5Ra2Ven_Ra@ ; `string'
PUBLIC	??_C@_0DD@POLGNOHI@ScriptRegistrant?$DMclass?5Ra2Ven_Tu@ ; `string'
PUBLIC	??_C@_0DG@OOJINJBE@ScriptRegistrant?$DMclass?5Ra2Ven_Tu@ ; `string'
PUBLIC	??_C@_0DG@MJKONFGH@ScriptRegistrant?$DMclass?5Ra2Ven_Oc@ ; `string'
PUBLIC	??_C@_0DK@JMICGHOF@ScriptRegistrant?$DMclass?5Ra2Ven_Dp@ ; `string'
PUBLIC	??_C@_0DF@BFGICEEB@ScriptRegistrant?$DMclass?5Ra2Ven_Fi@ ; `string'
PUBLIC	??_C@_0DG@DGMOGKCJ@ScriptRegistrant?$DMclass?5Ra2Ven_Fi@ ; `string'
PUBLIC	??_R4ScriptFactory@@6B@				; ScriptFactory::`RTTI Complete Object Locator'
PUBLIC	??_R0?AVScriptFactory@@@8			; ScriptFactory `RTTI Type Descriptor'
PUBLIC	??_R3ScriptFactory@@8				; ScriptFactory::`RTTI Class Hierarchy Descriptor'
PUBLIC	??_R2ScriptFactory@@8				; ScriptFactory::`RTTI Base Class Array'
PUBLIC	??_R1A@?0A@EA@ScriptFactory@@8			; ScriptFactory::`RTTI Base Class Descriptor at (0,-1,0,64)'
PUBLIC	??_R4ScriptClass@@6B@				; ScriptClass::`RTTI Complete Object Locator'
PUBLIC	??_R0?AVScriptClass@@@8				; ScriptClass `RTTI Type Descriptor'
PUBLIC	??_R3ScriptClass@@8				; ScriptClass::`RTTI Class Hierarchy Descriptor'
PUBLIC	??_R2ScriptClass@@8				; ScriptClass::`RTTI Base Class Array'
PUBLIC	??_R1A@?0A@EA@ScriptClass@@8			; ScriptClass::`RTTI Base Class Descriptor at (0,-1,0,64)'
PUBLIC	??_R1A@?0A@EA@GameObjObserverClass@@8		; GameObjObserverClass::`RTTI Base Class Descriptor at (0,-1,0,64)'
PUBLIC	??_R0?AVGameObjObserverClass@@@8		; GameObjObserverClass `RTTI Type Descriptor'
PUBLIC	??_R3GameObjObserverClass@@8			; GameObjObserverClass::`RTTI Class Hierarchy Descriptor'
PUBLIC	??_R2GameObjObserverClass@@8			; GameObjObserverClass::`RTTI Base Class Array'
PUBLIC	??_R4GameObjObserverClass@@6B@			; GameObjObserverClass::`RTTI Complete Object Locator'
PUBLIC	??_R4ScriptImpClass@@6B@			; ScriptImpClass::`RTTI Complete Object Locator'
PUBLIC	??_R0?AVScriptImpClass@@@8			; ScriptImpClass `RTTI Type Descriptor'
PUBLIC	??_R3ScriptImpClass@@8				; ScriptImpClass::`RTTI Class Hierarchy Descriptor'
PUBLIC	??_R2ScriptImpClass@@8				; ScriptImpClass::`RTTI Base Class Array'
PUBLIC	??_R1A@?0A@EA@ScriptImpClass@@8			; ScriptImpClass::`RTTI Base Class Descriptor at (0,-1,0,64)'
PUBLIC	??_R4Ra2Ven_MirageTank@@6B@			; Ra2Ven_MirageTank::`RTTI Complete Object Locator'
PUBLIC	??_R0?AVRa2Ven_MirageTank@@@8			; Ra2Ven_MirageTank `RTTI Type Descriptor'
PUBLIC	??_R3Ra2Ven_MirageTank@@8			; Ra2Ven_MirageTank::`RTTI Class Hierarchy Descriptor'
PUBLIC	??_R2Ra2Ven_MirageTank@@8			; Ra2Ven_MirageTank::`RTTI Base Class Array'
PUBLIC	??_R1A@?0A@EA@Ra2Ven_MirageTank@@8		; Ra2Ven_MirageTank::`RTTI Base Class Descriptor at (0,-1,0,64)'
PUBLIC	??_R4Ra2Ven_VehicleFalling@@6B@			; Ra2Ven_VehicleFalling::`RTTI Complete Object Locator'
PUBLIC	??_R0?AVRa2Ven_VehicleFalling@@@8		; Ra2Ven_VehicleFalling `RTTI Type Descriptor'
PUBLIC	??_R3Ra2Ven_VehicleFalling@@8			; Ra2Ven_VehicleFalling::`RTTI Class Hierarchy Descriptor'
PUBLIC	??_R2Ra2Ven_VehicleFalling@@8			; Ra2Ven_VehicleFalling::`RTTI Base Class Array'
PUBLIC	??_R1A@?0A@EA@Ra2Ven_VehicleFalling@@8		; Ra2Ven_VehicleFalling::`RTTI Base Class Descriptor at (0,-1,0,64)'
PUBLIC	??_R4Ra2Ven_DemoTruck@@6B@			; Ra2Ven_DemoTruck::`RTTI Complete Object Locator'
PUBLIC	??_R0?AVRa2Ven_DemoTruck@@@8			; Ra2Ven_DemoTruck `RTTI Type Descriptor'
PUBLIC	??_R3Ra2Ven_DemoTruck@@8			; Ra2Ven_DemoTruck::`RTTI Class Hierarchy Descriptor'
PUBLIC	??_R2Ra2Ven_DemoTruck@@8			; Ra2Ven_DemoTruck::`RTTI Base Class Array'
PUBLIC	??_R1A@?0A@EA@Ra2Ven_DemoTruck@@8		; Ra2Ven_DemoTruck::`RTTI Base Class Descriptor at (0,-1,0,64)'
PUBLIC	??_R4Ra2Ven_Deployable_Vehicle@@6B@		; Ra2Ven_Deployable_Vehicle::`RTTI Complete Object Locator'
PUBLIC	??_R0?AVRa2Ven_Deployable_Vehicle@@@8		; Ra2Ven_Deployable_Vehicle `RTTI Type Descriptor'
PUBLIC	??_R3Ra2Ven_Deployable_Vehicle@@8		; Ra2Ven_Deployable_Vehicle::`RTTI Class Hierarchy Descriptor'
PUBLIC	??_R2Ra2Ven_Deployable_Vehicle@@8		; Ra2Ven_Deployable_Vehicle::`RTTI Base Class Array'
PUBLIC	??_R1A@?0A@EA@Ra2Ven_Deployable_Vehicle@@8	; Ra2Ven_Deployable_Vehicle::`RTTI Base Class Descriptor at (0,-1,0,64)'
PUBLIC	??_R4Ra2Ven_Deploy_Animation@@6B@		; Ra2Ven_Deploy_Animation::`RTTI Complete Object Locator'
PUBLIC	??_R0?AVRa2Ven_Deploy_Animation@@@8		; Ra2Ven_Deploy_Animation `RTTI Type Descriptor'
PUBLIC	??_R3Ra2Ven_Deploy_Animation@@8			; Ra2Ven_Deploy_Animation::`RTTI Class Hierarchy Descriptor'
PUBLIC	??_R2Ra2Ven_Deploy_Animation@@8			; Ra2Ven_Deploy_Animation::`RTTI Base Class Array'
PUBLIC	??_R1A@?0A@EA@Ra2Ven_Deploy_Animation@@8	; Ra2Ven_Deploy_Animation::`RTTI Base Class Descriptor at (0,-1,0,64)'
PUBLIC	??_R4Ra2Ven_RandomTree@@6B@			; Ra2Ven_RandomTree::`RTTI Complete Object Locator'
PUBLIC	??_R0?AVRa2Ven_RandomTree@@@8			; Ra2Ven_RandomTree `RTTI Type Descriptor'
PUBLIC	??_R3Ra2Ven_RandomTree@@8			; Ra2Ven_RandomTree::`RTTI Class Hierarchy Descriptor'
PUBLIC	??_R2Ra2Ven_RandomTree@@8			; Ra2Ven_RandomTree::`RTTI Base Class Array'
PUBLIC	??_R1A@?0A@EA@Ra2Ven_RandomTree@@8		; Ra2Ven_RandomTree::`RTTI Base Class Descriptor at (0,-1,0,64)'
PUBLIC	??_R4Ra2Ven_TurretSound@@6B@			; Ra2Ven_TurretSound::`RTTI Complete Object Locator'
PUBLIC	??_R0?AVRa2Ven_TurretSound@@@8			; Ra2Ven_TurretSound `RTTI Type Descriptor'
PUBLIC	??_R3Ra2Ven_TurretSound@@8			; Ra2Ven_TurretSound::`RTTI Class Hierarchy Descriptor'
PUBLIC	??_R2Ra2Ven_TurretSound@@8			; Ra2Ven_TurretSound::`RTTI Base Class Array'
PUBLIC	??_R1A@?0A@EA@Ra2Ven_TurretSound@@8		; Ra2Ven_TurretSound::`RTTI Base Class Descriptor at (0,-1,0,64)'
PUBLIC	??_R4Ra2Ven_TurretSoundObj@@6B@			; Ra2Ven_TurretSoundObj::`RTTI Complete Object Locator'
PUBLIC	??_R0?AVRa2Ven_TurretSoundObj@@@8		; Ra2Ven_TurretSoundObj `RTTI Type Descriptor'
PUBLIC	??_R3Ra2Ven_TurretSoundObj@@8			; Ra2Ven_TurretSoundObj::`RTTI Class Hierarchy Descriptor'
PUBLIC	??_R2Ra2Ven_TurretSoundObj@@8			; Ra2Ven_TurretSoundObj::`RTTI Base Class Array'
PUBLIC	??_R1A@?0A@EA@Ra2Ven_TurretSoundObj@@8		; Ra2Ven_TurretSoundObj::`RTTI Base Class Descriptor at (0,-1,0,64)'
PUBLIC	??_R4Ra2Ven_OccupentWeapon@@6B@			; Ra2Ven_OccupentWeapon::`RTTI Complete Object Locator'
PUBLIC	??_R0?AVRa2Ven_OccupentWeapon@@@8		; Ra2Ven_OccupentWeapon `RTTI Type Descriptor'
PUBLIC	??_R3Ra2Ven_OccupentWeapon@@8			; Ra2Ven_OccupentWeapon::`RTTI Class Hierarchy Descriptor'
PUBLIC	??_R2Ra2Ven_OccupentWeapon@@8			; Ra2Ven_OccupentWeapon::`RTTI Base Class Array'
PUBLIC	??_R1A@?0A@EA@Ra2Ven_OccupentWeapon@@8		; Ra2Ven_OccupentWeapon::`RTTI Base Class Descriptor at (0,-1,0,64)'
PUBLIC	??_R4Ra2Ven_FireAnimation@@6B@			; Ra2Ven_FireAnimation::`RTTI Complete Object Locator'
PUBLIC	??_R0?AVRa2Ven_FireAnimation@@@8		; Ra2Ven_FireAnimation `RTTI Type Descriptor'
PUBLIC	??_R3Ra2Ven_FireAnimation@@8			; Ra2Ven_FireAnimation::`RTTI Class Hierarchy Descriptor'
PUBLIC	??_R2Ra2Ven_FireAnimation@@8			; Ra2Ven_FireAnimation::`RTTI Base Class Array'
PUBLIC	??_R1A@?0A@EA@Ra2Ven_FireAnimation@@8		; Ra2Ven_FireAnimation::`RTTI Base Class Descriptor at (0,-1,0,64)'
PUBLIC	??_R4Ra2Ven_FireAnimation2@@6B@			; Ra2Ven_FireAnimation2::`RTTI Complete Object Locator'
PUBLIC	??_R0?AVRa2Ven_FireAnimation2@@@8		; Ra2Ven_FireAnimation2 `RTTI Type Descriptor'
PUBLIC	??_R3Ra2Ven_FireAnimation2@@8			; Ra2Ven_FireAnimation2::`RTTI Class Hierarchy Descriptor'
PUBLIC	??_R2Ra2Ven_FireAnimation2@@8			; Ra2Ven_FireAnimation2::`RTTI Base Class Array'
PUBLIC	??_R1A@?0A@EA@Ra2Ven_FireAnimation2@@8		; Ra2Ven_FireAnimation2::`RTTI Base Class Descriptor at (0,-1,0,64)'
PUBLIC	??_R4Ra2Ven_Dplbl_Vhcls_Cursor@@6B@		; Ra2Ven_Dplbl_Vhcls_Cursor::`RTTI Complete Object Locator'
PUBLIC	??_R0?AVRa2Ven_Dplbl_Vhcls_Cursor@@@8		; Ra2Ven_Dplbl_Vhcls_Cursor `RTTI Type Descriptor'
PUBLIC	??_R3Ra2Ven_Dplbl_Vhcls_Cursor@@8		; Ra2Ven_Dplbl_Vhcls_Cursor::`RTTI Class Hierarchy Descriptor'
PUBLIC	??_R2Ra2Ven_Dplbl_Vhcls_Cursor@@8		; Ra2Ven_Dplbl_Vhcls_Cursor::`RTTI Base Class Array'
PUBLIC	??_R1A@?0A@EA@Ra2Ven_Dplbl_Vhcls_Cursor@@8	; Ra2Ven_Dplbl_Vhcls_Cursor::`RTTI Base Class Descriptor at (0,-1,0,64)'
PUBLIC	??_R4ThreadClass@@6B@				; ThreadClass::`RTTI Complete Object Locator'
PUBLIC	??_R0?AVThreadClass@@@8				; ThreadClass `RTTI Type Descriptor'
PUBLIC	??_R3ThreadClass@@8				; ThreadClass::`RTTI Class Hierarchy Descriptor'
PUBLIC	??_R2ThreadClass@@8				; ThreadClass::`RTTI Base Class Array'
PUBLIC	??_R1A@?0A@EA@ThreadClass@@8			; ThreadClass::`RTTI Base Class Descriptor at (0,-1,0,64)'
PUBLIC	??_R4PostLoadableClass@@6B@			; PostLoadableClass::`RTTI Complete Object Locator'
PUBLIC	??_R0?AVPostLoadableClass@@@8			; PostLoadableClass `RTTI Type Descriptor'
PUBLIC	??_R3PostLoadableClass@@8			; PostLoadableClass::`RTTI Class Hierarchy Descriptor'
PUBLIC	??_R2PostLoadableClass@@8			; PostLoadableClass::`RTTI Base Class Array'
PUBLIC	??_R1A@?0A@EA@PostLoadableClass@@8		; PostLoadableClass::`RTTI Base Class Descriptor at (0,-1,0,64)'
PUBLIC	??_R4INIClass@@6B@				; INIClass::`RTTI Complete Object Locator'
PUBLIC	??_R0?AVINIClass@@@8				; INIClass `RTTI Type Descriptor'
PUBLIC	??_R3INIClass@@8				; INIClass::`RTTI Class Hierarchy Descriptor'
PUBLIC	??_R2INIClass@@8				; INIClass::`RTTI Base Class Array'
PUBLIC	??_R1A@?0A@EA@INIClass@@8			; INIClass::`RTTI Base Class Descriptor at (0,-1,0,64)'
PUBLIC	??_R4ReferencerClass@@6B@			; ReferencerClass::`RTTI Complete Object Locator'
PUBLIC	??_R0?AVReferencerClass@@@8			; ReferencerClass `RTTI Type Descriptor'
PUBLIC	??_R3ReferencerClass@@8				; ReferencerClass::`RTTI Class Hierarchy Descriptor'
PUBLIC	??_R2ReferencerClass@@8				; ReferencerClass::`RTTI Base Class Array'
PUBLIC	??_R1A@?0A@EA@ReferencerClass@@8		; ReferencerClass::`RTTI Base Class Descriptor at (0,-1,0,64)'
PUBLIC	??_R4?$ScriptRegistrant@VRa2Ven_MirageTank@@@@6B@ ; ScriptRegistrant<Ra2Ven_MirageTank>::`RTTI Complete Object Locator'
PUBLIC	??_R0?AV?$ScriptRegistrant@VRa2Ven_MirageTank@@@@@8 ; ScriptRegistrant<Ra2Ven_MirageTank> `RTTI Type Descriptor'
PUBLIC	??_R3?$ScriptRegistrant@VRa2Ven_MirageTank@@@@8	; ScriptRegistrant<Ra2Ven_MirageTank>::`RTTI Class Hierarchy Descriptor'
PUBLIC	??_R2?$ScriptRegistrant@VRa2Ven_MirageTank@@@@8	; ScriptRegistrant<Ra2Ven_MirageTank>::`RTTI Base Class Array'
PUBLIC	??_R1A@?0A@EA@?$ScriptRegistrant@VRa2Ven_MirageTank@@@@8 ; ScriptRegistrant<Ra2Ven_MirageTank>::`RTTI Base Class Descriptor at (0,-1,0,64)'
PUBLIC	??_R4?$ScriptRegistrant@VRa2Ven_VehicleFalling@@@@6B@ ; ScriptRegistrant<Ra2Ven_VehicleFalling>::`RTTI Complete Object Locator'
PUBLIC	??_R0?AV?$ScriptRegistrant@VRa2Ven_VehicleFalling@@@@@8 ; ScriptRegistrant<Ra2Ven_VehicleFalling> `RTTI Type Descriptor'
PUBLIC	??_R3?$ScriptRegistrant@VRa2Ven_VehicleFalling@@@@8 ; ScriptRegistrant<Ra2Ven_VehicleFalling>::`RTTI Class Hierarchy Descriptor'
PUBLIC	??_R2?$ScriptRegistrant@VRa2Ven_VehicleFalling@@@@8 ; ScriptRegistrant<Ra2Ven_VehicleFalling>::`RTTI Base Class Array'
PUBLIC	??_R1A@?0A@EA@?$ScriptRegistrant@VRa2Ven_VehicleFalling@@@@8 ; ScriptRegistrant<Ra2Ven_VehicleFalling>::`RTTI Base Class Descriptor at (0,-1,0,64)'
PUBLIC	??_R4?$ScriptRegistrant@VRa2Ven_DemoTruck@@@@6B@ ; ScriptRegistrant<Ra2Ven_DemoTruck>::`RTTI Complete Object Locator'
PUBLIC	??_R0?AV?$ScriptRegistrant@VRa2Ven_DemoTruck@@@@@8 ; ScriptRegistrant<Ra2Ven_DemoTruck> `RTTI Type Descriptor'
PUBLIC	??_R3?$ScriptRegistrant@VRa2Ven_DemoTruck@@@@8	; ScriptRegistrant<Ra2Ven_DemoTruck>::`RTTI Class Hierarchy Descriptor'
PUBLIC	??_R2?$ScriptRegistrant@VRa2Ven_DemoTruck@@@@8	; ScriptRegistrant<Ra2Ven_DemoTruck>::`RTTI Base Class Array'
PUBLIC	??_R1A@?0A@EA@?$ScriptRegistrant@VRa2Ven_DemoTruck@@@@8 ; ScriptRegistrant<Ra2Ven_DemoTruck>::`RTTI Base Class Descriptor at (0,-1,0,64)'
PUBLIC	??_R4?$ScriptRegistrant@VRa2Ven_Deployable_Vehicle@@@@6B@ ; ScriptRegistrant<Ra2Ven_Deployable_Vehicle>::`RTTI Complete Object Locator'
PUBLIC	??_R0?AV?$ScriptRegistrant@VRa2Ven_Deployable_Vehicle@@@@@8 ; ScriptRegistrant<Ra2Ven_Deployable_Vehicle> `RTTI Type Descriptor'
PUBLIC	??_R3?$ScriptRegistrant@VRa2Ven_Deployable_Vehicle@@@@8 ; ScriptRegistrant<Ra2Ven_Deployable_Vehicle>::`RTTI Class Hierarchy Descriptor'
PUBLIC	??_R2?$ScriptRegistrant@VRa2Ven_Deployable_Vehicle@@@@8 ; ScriptRegistrant<Ra2Ven_Deployable_Vehicle>::`RTTI Base Class Array'
PUBLIC	??_R1A@?0A@EA@?$ScriptRegistrant@VRa2Ven_Deployable_Vehicle@@@@8 ; ScriptRegistrant<Ra2Ven_Deployable_Vehicle>::`RTTI Base Class Descriptor at (0,-1,0,64)'
PUBLIC	??_R4?$ScriptRegistrant@VRa2Ven_Deploy_Animation@@@@6B@ ; ScriptRegistrant<Ra2Ven_Deploy_Animation>::`RTTI Complete Object Locator'
PUBLIC	??_R0?AV?$ScriptRegistrant@VRa2Ven_Deploy_Animation@@@@@8 ; ScriptRegistrant<Ra2Ven_Deploy_Animation> `RTTI Type Descriptor'
PUBLIC	??_R3?$ScriptRegistrant@VRa2Ven_Deploy_Animation@@@@8 ; ScriptRegistrant<Ra2Ven_Deploy_Animation>::`RTTI Class Hierarchy Descriptor'
PUBLIC	??_R2?$ScriptRegistrant@VRa2Ven_Deploy_Animation@@@@8 ; ScriptRegistrant<Ra2Ven_Deploy_Animation>::`RTTI Base Class Array'
PUBLIC	??_R1A@?0A@EA@?$ScriptRegistrant@VRa2Ven_Deploy_Animation@@@@8 ; ScriptRegistrant<Ra2Ven_Deploy_Animation>::`RTTI Base Class Descriptor at (0,-1,0,64)'
PUBLIC	??_R4?$ScriptRegistrant@VRa2Ven_RandomTree@@@@6B@ ; ScriptRegistrant<Ra2Ven_RandomTree>::`RTTI Complete Object Locator'
PUBLIC	??_R0?AV?$ScriptRegistrant@VRa2Ven_RandomTree@@@@@8 ; ScriptRegistrant<Ra2Ven_RandomTree> `RTTI Type Descriptor'
PUBLIC	??_R3?$ScriptRegistrant@VRa2Ven_RandomTree@@@@8	; ScriptRegistrant<Ra2Ven_RandomTree>::`RTTI Class Hierarchy Descriptor'
PUBLIC	??_R2?$ScriptRegistrant@VRa2Ven_RandomTree@@@@8	; ScriptRegistrant<Ra2Ven_RandomTree>::`RTTI Base Class Array'
PUBLIC	??_R1A@?0A@EA@?$ScriptRegistrant@VRa2Ven_RandomTree@@@@8 ; ScriptRegistrant<Ra2Ven_RandomTree>::`RTTI Base Class Descriptor at (0,-1,0,64)'
PUBLIC	??_R4?$ScriptRegistrant@VRa2Ven_TurretSound@@@@6B@ ; ScriptRegistrant<Ra2Ven_TurretSound>::`RTTI Complete Object Locator'
PUBLIC	??_R0?AV?$ScriptRegistrant@VRa2Ven_TurretSound@@@@@8 ; ScriptRegistrant<Ra2Ven_TurretSound> `RTTI Type Descriptor'
PUBLIC	??_R3?$ScriptRegistrant@VRa2Ven_TurretSound@@@@8 ; ScriptRegistrant<Ra2Ven_TurretSound>::`RTTI Class Hierarchy Descriptor'
PUBLIC	??_R2?$ScriptRegistrant@VRa2Ven_TurretSound@@@@8 ; ScriptRegistrant<Ra2Ven_TurretSound>::`RTTI Base Class Array'
PUBLIC	??_R1A@?0A@EA@?$ScriptRegistrant@VRa2Ven_TurretSound@@@@8 ; ScriptRegistrant<Ra2Ven_TurretSound>::`RTTI Base Class Descriptor at (0,-1,0,64)'
PUBLIC	??_R4?$ScriptRegistrant@VRa2Ven_TurretSoundObj@@@@6B@ ; ScriptRegistrant<Ra2Ven_TurretSoundObj>::`RTTI Complete Object Locator'
PUBLIC	??_R0?AV?$ScriptRegistrant@VRa2Ven_TurretSoundObj@@@@@8 ; ScriptRegistrant<Ra2Ven_TurretSoundObj> `RTTI Type Descriptor'
PUBLIC	??_R3?$ScriptRegistrant@VRa2Ven_TurretSoundObj@@@@8 ; ScriptRegistrant<Ra2Ven_TurretSoundObj>::`RTTI Class Hierarchy Descriptor'
PUBLIC	??_R2?$ScriptRegistrant@VRa2Ven_TurretSoundObj@@@@8 ; ScriptRegistrant<Ra2Ven_TurretSoundObj>::`RTTI Base Class Array'
PUBLIC	??_R1A@?0A@EA@?$ScriptRegistrant@VRa2Ven_TurretSoundObj@@@@8 ; ScriptRegistrant<Ra2Ven_TurretSoundObj>::`RTTI Base Class Descriptor at (0,-1,0,64)'
PUBLIC	??_R4?$ScriptRegistrant@VRa2Ven_OccupentWeapon@@@@6B@ ; ScriptRegistrant<Ra2Ven_OccupentWeapon>::`RTTI Complete Object Locator'
PUBLIC	??_R0?AV?$ScriptRegistrant@VRa2Ven_OccupentWeapon@@@@@8 ; ScriptRegistrant<Ra2Ven_OccupentWeapon> `RTTI Type Descriptor'
PUBLIC	??_R3?$ScriptRegistrant@VRa2Ven_OccupentWeapon@@@@8 ; ScriptRegistrant<Ra2Ven_OccupentWeapon>::`RTTI Class Hierarchy Descriptor'
PUBLIC	??_R2?$ScriptRegistrant@VRa2Ven_OccupentWeapon@@@@8 ; ScriptRegistrant<Ra2Ven_OccupentWeapon>::`RTTI Base Class Array'
PUBLIC	??_R1A@?0A@EA@?$ScriptRegistrant@VRa2Ven_OccupentWeapon@@@@8 ; ScriptRegistrant<Ra2Ven_OccupentWeapon>::`RTTI Base Class Descriptor at (0,-1,0,64)'
PUBLIC	??_R4?$ScriptRegistrant@VRa2Ven_Dplbl_Vhcls_Cursor@@@@6B@ ; ScriptRegistrant<Ra2Ven_Dplbl_Vhcls_Cursor>::`RTTI Complete Object Locator'
PUBLIC	??_R0?AV?$ScriptRegistrant@VRa2Ven_Dplbl_Vhcls_Cursor@@@@@8 ; ScriptRegistrant<Ra2Ven_Dplbl_Vhcls_Cursor> `RTTI Type Descriptor'
PUBLIC	??_R3?$ScriptRegistrant@VRa2Ven_Dplbl_Vhcls_Cursor@@@@8 ; ScriptRegistrant<Ra2Ven_Dplbl_Vhcls_Cursor>::`RTTI Class Hierarchy Descriptor'
PUBLIC	??_R2?$ScriptRegistrant@VRa2Ven_Dplbl_Vhcls_Cursor@@@@8 ; ScriptRegistrant<Ra2Ven_Dplbl_Vhcls_Cursor>::`RTTI Base Class Array'
PUBLIC	??_R1A@?0A@EA@?$ScriptRegistrant@VRa2Ven_Dplbl_Vhcls_Cursor@@@@8 ; ScriptRegistrant<Ra2Ven_Dplbl_Vhcls_Cursor>::`RTTI Base Class Descriptor at (0,-1,0,64)'
PUBLIC	??_R4?$ScriptRegistrant@VRa2Ven_FireAnimation@@@@6B@ ; ScriptRegistrant<Ra2Ven_FireAnimation>::`RTTI Complete Object Locator'
PUBLIC	??_R0?AV?$ScriptRegistrant@VRa2Ven_FireAnimation@@@@@8 ; ScriptRegistrant<Ra2Ven_FireAnimation> `RTTI Type Descriptor'
PUBLIC	??_R3?$ScriptRegistrant@VRa2Ven_FireAnimation@@@@8 ; ScriptRegistrant<Ra2Ven_FireAnimation>::`RTTI Class Hierarchy Descriptor'
PUBLIC	??_R2?$ScriptRegistrant@VRa2Ven_FireAnimation@@@@8 ; ScriptRegistrant<Ra2Ven_FireAnimation>::`RTTI Base Class Array'
PUBLIC	??_R1A@?0A@EA@?$ScriptRegistrant@VRa2Ven_FireAnimation@@@@8 ; ScriptRegistrant<Ra2Ven_FireAnimation>::`RTTI Base Class Descriptor at (0,-1,0,64)'
PUBLIC	??_R4?$ScriptRegistrant@VRa2Ven_FireAnimation2@@@@6B@ ; ScriptRegistrant<Ra2Ven_FireAnimation2>::`RTTI Complete Object Locator'
PUBLIC	??_R0?AV?$ScriptRegistrant@VRa2Ven_FireAnimation2@@@@@8 ; ScriptRegistrant<Ra2Ven_FireAnimation2> `RTTI Type Descriptor'
PUBLIC	??_R3?$ScriptRegistrant@VRa2Ven_FireAnimation2@@@@8 ; ScriptRegistrant<Ra2Ven_FireAnimation2>::`RTTI Class Hierarchy Descriptor'
PUBLIC	??_R2?$ScriptRegistrant@VRa2Ven_FireAnimation2@@@@8 ; ScriptRegistrant<Ra2Ven_FireAnimation2>::`RTTI Base Class Array'
PUBLIC	??_R1A@?0A@EA@?$ScriptRegistrant@VRa2Ven_FireAnimation2@@@@8 ; ScriptRegistrant<Ra2Ven_FireAnimation2>::`RTTI Base Class Descriptor at (0,-1,0,64)'
PUBLIC	__real@00000000
PUBLIC	__real@02081cea
PUBLIC	__real@3f79999a
PUBLIC	__real@3f800000
PUBLIC	__real@3fc90fdb
PUBLIC	__real@3fe0000000000000
PUBLIC	__real@4004000000000000
PUBLIC	__real@40c90fdb
PUBLIC	__real@42c80000
PUBLIC	__real@437f0000
PUBLIC	__real@44000000
PUBLIC	__real@44800000
PUBLIC	__real@bf800000
PUBLIC	__xmm@7fffffffffffffff7fffffffffffffff
PUBLIC	__xmm@80000000800000008000000080000000
EXTRN	__purecall:PROC
EXTRN	??2@YAPAXI@Z:PROC				; operator new
EXTRN	??3@YAXPAX@Z:PROC				; operator delete
EXTRN	_atexit:PROC
EXTRN	__imp___wassert:PROC
EXTRN	__imp__atof:PROC
EXTRN	__imp__ceil:PROC
EXTRN	__imp__atoi:PROC
EXTRN	??_V@YAXPAX@Z:PROC				; operator delete[]
EXTRN	__imp___stricmp:PROC
EXTRN	__imp__GetCurrentThreadId@0:PROC
EXTRN	?SetThreadTrackingInformation@@YAXPBDI0@Z:PROC	; SetThreadTrackingInformation
EXTRN	?Random_Float@WWMath@@SAMXZ:PROC		; WWMath::Random_Float
EXTRN	??0ScriptImpClass@@QAE@XZ:PROC			; ScriptImpClass::ScriptImpClass
EXTRN	?Auto_Save_Variable@ScriptImpClass@@QAEXPAXHH@Z:PROC ; ScriptImpClass::Auto_Save_Variable
EXTRN	??1ScriptImpClass@@UAE@XZ:PROC			; ScriptImpClass::~ScriptImpClass
EXTRN	?Get_Name@ScriptImpClass@@UAEPBDXZ:PROC		; ScriptImpClass::Get_Name
EXTRN	?Set_Parameters_String@ScriptImpClass@@UAEXPBD@Z:PROC ; ScriptImpClass::Set_Parameters_String
EXTRN	?Get_Parameters_String@ScriptImpClass@@UAEXPADI@Z:PROC ; ScriptImpClass::Get_Parameters_String
EXTRN	?Get_Parameter@ScriptImpClass@@QAEPBDPBD@Z:PROC	; ScriptImpClass::Get_Parameter
EXTRN	?Get_Parameter@ScriptImpClass@@QAEPBDH@Z:PROC	; ScriptImpClass::Get_Parameter
EXTRN	?Get_Int_Parameter@ScriptImpClass@@QAEHPBD@Z:PROC ; ScriptImpClass::Get_Int_Parameter
EXTRN	?Get_Float_Parameter@ScriptImpClass@@QAEMPBD@Z:PROC ; ScriptImpClass::Get_Float_Parameter
EXTRN	?Destroy_Script@ScriptImpClass@@QAEXXZ:PROC	; ScriptImpClass::Destroy_Script
EXTRN	?Attach@ScriptImpClass@@MAEXPAVScriptableGameObj@@@Z:PROC ; ScriptImpClass::Attach
EXTRN	?Detach@ScriptImpClass@@MAEXPAVScriptableGameObj@@@Z:PROC ; ScriptImpClass::Detach
EXTRN	?Save@ScriptImpClass@@MAEXAAVScriptSaver@@@Z:PROC ; ScriptImpClass::Save
EXTRN	?Load@ScriptImpClass@@MAEXAAVScriptLoader@@@Z:PROC ; ScriptImpClass::Load
EXTRN	??1ScriptFactory@@UAE@XZ:PROC			; ScriptFactory::~ScriptFactory
EXTRN	??0ScriptFactory@@IAE@PBD0@Z:PROC		; ScriptFactory::ScriptFactory
EXTRN	??_ERa2Ven_MirageTank@@UAEPAXI@Z:PROC		; Ra2Ven_MirageTank::`vector deleting destructor'
EXTRN	??_ERa2Ven_VehicleFalling@@UAEPAXI@Z:PROC	; Ra2Ven_VehicleFalling::`vector deleting destructor'
EXTRN	??_ERa2Ven_DemoTruck@@UAEPAXI@Z:PROC		; Ra2Ven_DemoTruck::`vector deleting destructor'
EXTRN	??_ERa2Ven_Deployable_Vehicle@@UAEPAXI@Z:PROC	; Ra2Ven_Deployable_Vehicle::`vector deleting destructor'
EXTRN	??_ERa2Ven_Deploy_Animation@@UAEPAXI@Z:PROC	; Ra2Ven_Deploy_Animation::`vector deleting destructor'
EXTRN	??_ERa2Ven_RandomTree@@UAEPAXI@Z:PROC		; Ra2Ven_RandomTree::`vector deleting destructor'
EXTRN	??_ERa2Ven_TurretSound@@UAEPAXI@Z:PROC		; Ra2Ven_TurretSound::`vector deleting destructor'
EXTRN	??_ERa2Ven_TurretSoundObj@@UAEPAXI@Z:PROC	; Ra2Ven_TurretSoundObj::`vector deleting destructor'
EXTRN	??_ERa2Ven_OccupentWeapon@@UAEPAXI@Z:PROC	; Ra2Ven_OccupentWeapon::`vector deleting destructor'
EXTRN	??_ERa2Ven_FireAnimation@@UAEPAXI@Z:PROC	; Ra2Ven_FireAnimation::`vector deleting destructor'
EXTRN	??_ERa2Ven_FireAnimation2@@UAEPAXI@Z:PROC	; Ra2Ven_FireAnimation2::`vector deleting destructor'
EXTRN	??_ERa2Ven_Dplbl_Vhcls_Cursor@@UAEPAXI@Z:PROC	; Ra2Ven_Dplbl_Vhcls_Cursor::`vector deleting destructor'
EXTRN	??1ThreadClass@@UAE@XZ:PROC			; ThreadClass::~ThreadClass
EXTRN	__imp_?Free_String@StringClass@@AAEXXZ:PROC
EXTRN	?Find_Entry@INIClass@@QBEPAUINIEntry@@PBD0@Z:PROC ; INIClass::Find_Entry
EXTRN	?Find_Section@INIClass@@QBEPAUINISection@@PBD@Z:PROC ; INIClass::Find_Section
EXTRN	??1INIClass@@UAE@XZ:PROC			; INIClass::~INIClass
EXTRN	??1ReferencerClass@@UAE@XZ:PROC			; ReferencerClass::~ReferencerClass
EXTRN	?On_Post_Load@ReferencerClass@@UAEXXZ:PROC	; ReferencerClass::On_Post_Load
EXTRN	??4ReferencerClass@@QAEAAV0@PAVScriptableGameObj@@@Z:PROC ; ReferencerClass::operator=
EXTRN	?Set@Matrix3D@@QAEXABVMatrix3@@ABVVector3@@@Z:PROC ; Matrix3D::Set
EXTRN	?Set@Matrix3D@@QAEXABVQuaternion@@ABVVector3@@@Z:PROC ; Matrix3D::Set
EXTRN	?Set@LineSegClass@@QAEXABV1@ABVMatrix3D@@@Z:PROC ; LineSegClass::Set
EXTRN	??_E?$ScriptRegistrant@VRa2Ven_MirageTank@@@@UAEPAXI@Z:PROC ; ScriptRegistrant<Ra2Ven_MirageTank>::`vector deleting destructor'
EXTRN	??_E?$ScriptRegistrant@VRa2Ven_VehicleFalling@@@@UAEPAXI@Z:PROC ; ScriptRegistrant<Ra2Ven_VehicleFalling>::`vector deleting destructor'
EXTRN	??_E?$ScriptRegistrant@VRa2Ven_DemoTruck@@@@UAEPAXI@Z:PROC ; ScriptRegistrant<Ra2Ven_DemoTruck>::`vector deleting destructor'
EXTRN	??_E?$ScriptRegistrant@VRa2Ven_Deployable_Vehicle@@@@UAEPAXI@Z:PROC ; ScriptRegistrant<Ra2Ven_Deployable_Vehicle>::`vector deleting destructor'
EXTRN	??_E?$ScriptRegistrant@VRa2Ven_Deploy_Animation@@@@UAEPAXI@Z:PROC ; ScriptRegistrant<Ra2Ven_Deploy_Animation>::`vector deleting destructor'
EXTRN	??_E?$ScriptRegistrant@VRa2Ven_RandomTree@@@@UAEPAXI@Z:PROC ; ScriptRegistrant<Ra2Ven_RandomTree>::`vector deleting destructor'
EXTRN	??_E?$ScriptRegistrant@VRa2Ven_TurretSound@@@@UAEPAXI@Z:PROC ; ScriptRegistrant<Ra2Ven_TurretSound>::`vector deleting destructor'
EXTRN	??_E?$ScriptRegistrant@VRa2Ven_TurretSoundObj@@@@UAEPAXI@Z:PROC ; ScriptRegistrant<Ra2Ven_TurretSoundObj>::`vector deleting destructor'
EXTRN	??_E?$ScriptRegistrant@VRa2Ven_OccupentWeapon@@@@UAEPAXI@Z:PROC ; ScriptRegistrant<Ra2Ven_OccupentWeapon>::`vector deleting destructor'
EXTRN	??_E?$ScriptRegistrant@VRa2Ven_Dplbl_Vhcls_Cursor@@@@UAEPAXI@Z:PROC ; ScriptRegistrant<Ra2Ven_Dplbl_Vhcls_Cursor>::`vector deleting destructor'
EXTRN	??_E?$ScriptRegistrant@VRa2Ven_FireAnimation@@@@UAEPAXI@Z:PROC ; ScriptRegistrant<Ra2Ven_FireAnimation>::`vector deleting destructor'
EXTRN	??_E?$ScriptRegistrant@VRa2Ven_FireAnimation2@@@@UAEPAXI@Z:PROC ; ScriptRegistrant<Ra2Ven_FireAnimation2>::`vector deleting destructor'
EXTRN	__CIatan2:PROC
EXTRN	__ftol2_sse:PROC
EXTRN	__libm_sse2_acos_precise:PROC
EXTRN	__libm_sse2_asin_precise:PROC
EXTRN	__libm_sse2_atan_precise:PROC
EXTRN	__libm_sse2_cos_precise:PROC
EXTRN	__libm_sse2_sin_precise:PROC
EXTRN	__libm_sse2_sqrt_precise:PROC
EXTRN	_floor:PROC
EXTRN	??_7type_info@@6B@:QWORD			; type_info::`vftable'
EXTRN	?_FastAcosTable@@3AAV?$RefArrayHelper@M$0EAA@@@A:DWORD ; _FastAcosTable
EXTRN	?_FastAsinTable@@3AAV?$RefArrayHelper@M$0EAA@@@A:DWORD ; _FastAsinTable
EXTRN	?_FastSinTable@@3AAV?$RefArrayHelper@M$0EAA@@@A:DWORD ; _FastSinTable
EXTRN	?Commands@@3PAUScriptCommands@@A:DWORD		; Commands
EXTRN	__fltused:DWORD
_BSS	SEGMENT
?Ra2Ven_MirageTank_Registrant@@3V?$ScriptRegistrant@VRa2Ven_MirageTank@@@@A DB 010H DUP (?) ; Ra2Ven_MirageTank_Registrant
?Ra2Ven_VehicleFalling_Registrant@@3V?$ScriptRegistrant@VRa2Ven_VehicleFalling@@@@A DB 010H DUP (?) ; Ra2Ven_VehicleFalling_Registrant
?Ra2Ven_DemoTruck_Registrant@@3V?$ScriptRegistrant@VRa2Ven_DemoTruck@@@@A DB 010H DUP (?) ; Ra2Ven_DemoTruck_Registrant
?Ra2Ven_Deployable_Vehicle_Registrant@@3V?$ScriptRegistrant@VRa2Ven_Deployable_Vehicle@@@@A DB 010H DUP (?) ; Ra2Ven_Deployable_Vehicle_Registrant
?Ra2Ven_Deploy_Animation_Registrant@@3V?$ScriptRegistrant@VRa2Ven_Deploy_Animation@@@@A DB 010H DUP (?) ; Ra2Ven_Deploy_Animation_Registrant
?Ra2Ven_RandomTree_Registrant@@3V?$ScriptRegistrant@VRa2Ven_RandomTree@@@@A DB 010H DUP (?) ; Ra2Ven_RandomTree_Registrant
?Ra2Ven_TurretSound_Registrant@@3V?$ScriptRegistrant@VRa2Ven_TurretSound@@@@A DB 010H DUP (?) ; Ra2Ven_TurretSound_Registrant
?Ra2Ven_TurretSoundObj_Registrant@@3V?$ScriptRegistrant@VRa2Ven_TurretSoundObj@@@@A DB 010H DUP (?) ; Ra2Ven_TurretSoundObj_Registrant
?Ra2Ven_OccupentWeapon_Registrant@@3V?$ScriptRegistrant@VRa2Ven_OccupentWeapon@@@@A DB 010H DUP (?) ; Ra2Ven_OccupentWeapon_Registrant
?Ra2Ven_Dplbl_Vhcls_Cursor_Registrant@@3V?$ScriptRegistrant@VRa2Ven_Dplbl_Vhcls_Cursor@@@@A DB 010H DUP (?) ; Ra2Ven_Dplbl_Vhcls_Cursor_Registrant
?Ra2Ven_FireAnimation_Registrant@@3V?$ScriptRegistrant@VRa2Ven_FireAnimation@@@@A DB 010H DUP (?) ; Ra2Ven_FireAnimation_Registrant
?Ra2Ven_FireAnimation2_Registrant@@3V?$ScriptRegistrant@VRa2Ven_FireAnimation2@@@@A DB 010H DUP (?) ; Ra2Ven_FireAnimation2_Registrant
_BSS	ENDS
CRT$XCU	SEGMENT
_Ra2Ven_MirageTank_Registrant$initializer$ DD FLAT:??__ERa2Ven_MirageTank_Registrant@@YAXXZ
CRT$XCU	ENDS
;	COMDAT __xmm@80000000800000008000000080000000
CONST	SEGMENT
__xmm@80000000800000008000000080000000 DB 00H, 00H, 00H, 080H, 00H, 00H, 00H
	DB	080H, 00H, 00H, 00H, 080H, 00H, 00H, 00H, 080H
CONST	ENDS
;	COMDAT __xmm@7fffffffffffffff7fffffffffffffff
CONST	SEGMENT
__xmm@7fffffffffffffff7fffffffffffffff DB 0ffH, 0ffH, 0ffH, 0ffH, 0ffH, 0ffH
	DB	0ffH, 07fH, 0ffH, 0ffH, 0ffH, 0ffH, 0ffH, 0ffH, 0ffH, 07fH
CONST	ENDS
;	COMDAT __real@bf800000
CONST	SEGMENT
__real@bf800000 DD 0bf800000r			; -1
CONST	ENDS
;	COMDAT __real@44800000
CONST	SEGMENT
__real@44800000 DD 044800000r			; 1024
CONST	ENDS
;	COMDAT __real@44000000
CONST	SEGMENT
__real@44000000 DD 044000000r			; 512
CONST	ENDS
;	COMDAT __real@437f0000
CONST	SEGMENT
__real@437f0000 DD 0437f0000r			; 255
CONST	ENDS
;	COMDAT __real@42c80000
CONST	SEGMENT
__real@42c80000 DD 042c80000r			; 100
CONST	ENDS
;	COMDAT __real@40c90fdb
CONST	SEGMENT
__real@40c90fdb DD 040c90fdbr			; 6.28319
CONST	ENDS
;	COMDAT __real@4004000000000000
CONST	SEGMENT
__real@4004000000000000 DQ 04004000000000000r	; 2.5
CONST	ENDS
;	COMDAT __real@3fe0000000000000
CONST	SEGMENT
__real@3fe0000000000000 DQ 03fe0000000000000r	; 0.5
CONST	ENDS
;	COMDAT __real@3fc90fdb
CONST	SEGMENT
__real@3fc90fdb DD 03fc90fdbr			; 1.5708
CONST	ENDS
;	COMDAT __real@3f800000
CONST	SEGMENT
__real@3f800000 DD 03f800000r			; 1
CONST	ENDS
;	COMDAT __real@3f79999a
CONST	SEGMENT
__real@3f79999a DD 03f79999ar			; 0.975
CONST	ENDS
;	COMDAT __real@02081cea
CONST	SEGMENT
__real@02081cea DD 002081cear			; 1e-037
CONST	ENDS
;	COMDAT __real@00000000
CONST	SEGMENT
__real@00000000 DD 000000000r			; 0
CONST	ENDS
;	COMDAT ??_R1A@?0A@EA@?$ScriptRegistrant@VRa2Ven_FireAnimation2@@@@8
rdata$r	SEGMENT
??_R1A@?0A@EA@?$ScriptRegistrant@VRa2Ven_FireAnimation2@@@@8 DD FLAT:??_R0?AV?$ScriptRegistrant@VRa2Ven_FireAnimation2@@@@@8 ; ScriptRegistrant<Ra2Ven_FireAnimation2>::`RTTI Base Class Descriptor at (0,-1,0,64)'
	DD	01H
	DD	00H
	DD	0ffffffffH
	DD	00H
	DD	040H
	DD	FLAT:??_R3?$ScriptRegistrant@VRa2Ven_FireAnimation2@@@@8
rdata$r	ENDS
;	COMDAT ??_R2?$ScriptRegistrant@VRa2Ven_FireAnimation2@@@@8
rdata$r	SEGMENT
??_R2?$ScriptRegistrant@VRa2Ven_FireAnimation2@@@@8 DD FLAT:??_R1A@?0A@EA@?$ScriptRegistrant@VRa2Ven_FireAnimation2@@@@8 ; ScriptRegistrant<Ra2Ven_FireAnimation2>::`RTTI Base Class Array'
	DD	FLAT:??_R1A@?0A@EA@ScriptFactory@@8
rdata$r	ENDS
;	COMDAT ??_R3?$ScriptRegistrant@VRa2Ven_FireAnimation2@@@@8
rdata$r	SEGMENT
??_R3?$ScriptRegistrant@VRa2Ven_FireAnimation2@@@@8 DD 00H ; ScriptRegistrant<Ra2Ven_FireAnimation2>::`RTTI Class Hierarchy Descriptor'
	DD	00H
	DD	02H
	DD	FLAT:??_R2?$ScriptRegistrant@VRa2Ven_FireAnimation2@@@@8
rdata$r	ENDS
;	COMDAT ??_R0?AV?$ScriptRegistrant@VRa2Ven_FireAnimation2@@@@@8
_DATA	SEGMENT
??_R0?AV?$ScriptRegistrant@VRa2Ven_FireAnimation2@@@@@8 DD FLAT:??_7type_info@@6B@ ; ScriptRegistrant<Ra2Ven_FireAnimation2> `RTTI Type Descriptor'
	DD	00H
	DB	'.?AV?$ScriptRegistrant@VRa2Ven_FireAnimation2@@@@', 00H
_DATA	ENDS
;	COMDAT ??_R4?$ScriptRegistrant@VRa2Ven_FireAnimation2@@@@6B@
rdata$r	SEGMENT
??_R4?$ScriptRegistrant@VRa2Ven_FireAnimation2@@@@6B@ DD 00H ; ScriptRegistrant<Ra2Ven_FireAnimation2>::`RTTI Complete Object Locator'
	DD	00H
	DD	00H
	DD	FLAT:??_R0?AV?$ScriptRegistrant@VRa2Ven_FireAnimation2@@@@@8
	DD	FLAT:??_R3?$ScriptRegistrant@VRa2Ven_FireAnimation2@@@@8
rdata$r	ENDS
;	COMDAT ??_R1A@?0A@EA@?$ScriptRegistrant@VRa2Ven_FireAnimation@@@@8
rdata$r	SEGMENT
??_R1A@?0A@EA@?$ScriptRegistrant@VRa2Ven_FireAnimation@@@@8 DD FLAT:??_R0?AV?$ScriptRegistrant@VRa2Ven_FireAnimation@@@@@8 ; ScriptRegistrant<Ra2Ven_FireAnimation>::`RTTI Base Class Descriptor at (0,-1,0,64)'
	DD	01H
	DD	00H
	DD	0ffffffffH
	DD	00H
	DD	040H
	DD	FLAT:??_R3?$ScriptRegistrant@VRa2Ven_FireAnimation@@@@8
rdata$r	ENDS
;	COMDAT ??_R2?$ScriptRegistrant@VRa2Ven_FireAnimation@@@@8
rdata$r	SEGMENT
??_R2?$ScriptRegistrant@VRa2Ven_FireAnimation@@@@8 DD FLAT:??_R1A@?0A@EA@?$ScriptRegistrant@VRa2Ven_FireAnimation@@@@8 ; ScriptRegistrant<Ra2Ven_FireAnimation>::`RTTI Base Class Array'
	DD	FLAT:??_R1A@?0A@EA@ScriptFactory@@8
rdata$r	ENDS
;	COMDAT ??_R3?$ScriptRegistrant@VRa2Ven_FireAnimation@@@@8
rdata$r	SEGMENT
??_R3?$ScriptRegistrant@VRa2Ven_FireAnimation@@@@8 DD 00H ; ScriptRegistrant<Ra2Ven_FireAnimation>::`RTTI Class Hierarchy Descriptor'
	DD	00H
	DD	02H
	DD	FLAT:??_R2?$ScriptRegistrant@VRa2Ven_FireAnimation@@@@8
rdata$r	ENDS
;	COMDAT ??_R0?AV?$ScriptRegistrant@VRa2Ven_FireAnimation@@@@@8
_DATA	SEGMENT
??_R0?AV?$ScriptRegistrant@VRa2Ven_FireAnimation@@@@@8 DD FLAT:??_7type_info@@6B@ ; ScriptRegistrant<Ra2Ven_FireAnimation> `RTTI Type Descriptor'
	DD	00H
	DB	'.?AV?$ScriptRegistrant@VRa2Ven_FireAnimation@@@@', 00H
_DATA	ENDS
;	COMDAT ??_R4?$ScriptRegistrant@VRa2Ven_FireAnimation@@@@6B@
rdata$r	SEGMENT
??_R4?$ScriptRegistrant@VRa2Ven_FireAnimation@@@@6B@ DD 00H ; ScriptRegistrant<Ra2Ven_FireAnimation>::`RTTI Complete Object Locator'
	DD	00H
	DD	00H
	DD	FLAT:??_R0?AV?$ScriptRegistrant@VRa2Ven_FireAnimation@@@@@8
	DD	FLAT:??_R3?$ScriptRegistrant@VRa2Ven_FireAnimation@@@@8
rdata$r	ENDS
;	COMDAT ??_R1A@?0A@EA@?$ScriptRegistrant@VRa2Ven_Dplbl_Vhcls_Cursor@@@@8
rdata$r	SEGMENT
??_R1A@?0A@EA@?$ScriptRegistrant@VRa2Ven_Dplbl_Vhcls_Cursor@@@@8 DD FLAT:??_R0?AV?$ScriptRegistrant@VRa2Ven_Dplbl_Vhcls_Cursor@@@@@8 ; ScriptRegistrant<Ra2Ven_Dplbl_Vhcls_Cursor>::`RTTI Base Class Descriptor at (0,-1,0,64)'
	DD	01H
	DD	00H
	DD	0ffffffffH
	DD	00H
	DD	040H
	DD	FLAT:??_R3?$ScriptRegistrant@VRa2Ven_Dplbl_Vhcls_Cursor@@@@8
rdata$r	ENDS
;	COMDAT ??_R2?$ScriptRegistrant@VRa2Ven_Dplbl_Vhcls_Cursor@@@@8
rdata$r	SEGMENT
??_R2?$ScriptRegistrant@VRa2Ven_Dplbl_Vhcls_Cursor@@@@8 DD FLAT:??_R1A@?0A@EA@?$ScriptRegistrant@VRa2Ven_Dplbl_Vhcls_Cursor@@@@8 ; ScriptRegistrant<Ra2Ven_Dplbl_Vhcls_Cursor>::`RTTI Base Class Array'
	DD	FLAT:??_R1A@?0A@EA@ScriptFactory@@8
rdata$r	ENDS
;	COMDAT ??_R3?$ScriptRegistrant@VRa2Ven_Dplbl_Vhcls_Cursor@@@@8
rdata$r	SEGMENT
??_R3?$ScriptRegistrant@VRa2Ven_Dplbl_Vhcls_Cursor@@@@8 DD 00H ; ScriptRegistrant<Ra2Ven_Dplbl_Vhcls_Cursor>::`RTTI Class Hierarchy Descriptor'
	DD	00H
	DD	02H
	DD	FLAT:??_R2?$ScriptRegistrant@VRa2Ven_Dplbl_Vhcls_Cursor@@@@8
rdata$r	ENDS
;	COMDAT ??_R0?AV?$ScriptRegistrant@VRa2Ven_Dplbl_Vhcls_Cursor@@@@@8
_DATA	SEGMENT
??_R0?AV?$ScriptRegistrant@VRa2Ven_Dplbl_Vhcls_Cursor@@@@@8 DD FLAT:??_7type_info@@6B@ ; ScriptRegistrant<Ra2Ven_Dplbl_Vhcls_Cursor> `RTTI Type Descriptor'
	DD	00H
	DB	'.?AV?$ScriptRegistrant@VRa2Ven_Dplbl_Vhcls_Cursor@@@@', 00H
_DATA	ENDS
;	COMDAT ??_R4?$ScriptRegistrant@VRa2Ven_Dplbl_Vhcls_Cursor@@@@6B@
rdata$r	SEGMENT
??_R4?$ScriptRegistrant@VRa2Ven_Dplbl_Vhcls_Cursor@@@@6B@ DD 00H ; ScriptRegistrant<Ra2Ven_Dplbl_Vhcls_Cursor>::`RTTI Complete Object Locator'
	DD	00H
	DD	00H
	DD	FLAT:??_R0?AV?$ScriptRegistrant@VRa2Ven_Dplbl_Vhcls_Cursor@@@@@8
	DD	FLAT:??_R3?$ScriptRegistrant@VRa2Ven_Dplbl_Vhcls_Cursor@@@@8
rdata$r	ENDS
;	COMDAT ??_R1A@?0A@EA@?$ScriptRegistrant@VRa2Ven_OccupentWeapon@@@@8
rdata$r	SEGMENT
??_R1A@?0A@EA@?$ScriptRegistrant@VRa2Ven_OccupentWeapon@@@@8 DD FLAT:??_R0?AV?$ScriptRegistrant@VRa2Ven_OccupentWeapon@@@@@8 ; ScriptRegistrant<Ra2Ven_OccupentWeapon>::`RTTI Base Class Descriptor at (0,-1,0,64)'
	DD	01H
	DD	00H
	DD	0ffffffffH
	DD	00H
	DD	040H
	DD	FLAT:??_R3?$ScriptRegistrant@VRa2Ven_OccupentWeapon@@@@8
rdata$r	ENDS
;	COMDAT ??_R2?$ScriptRegistrant@VRa2Ven_OccupentWeapon@@@@8
rdata$r	SEGMENT
??_R2?$ScriptRegistrant@VRa2Ven_OccupentWeapon@@@@8 DD FLAT:??_R1A@?0A@EA@?$ScriptRegistrant@VRa2Ven_OccupentWeapon@@@@8 ; ScriptRegistrant<Ra2Ven_OccupentWeapon>::`RTTI Base Class Array'
	DD	FLAT:??_R1A@?0A@EA@ScriptFactory@@8
rdata$r	ENDS
;	COMDAT ??_R3?$ScriptRegistrant@VRa2Ven_OccupentWeapon@@@@8
rdata$r	SEGMENT
??_R3?$ScriptRegistrant@VRa2Ven_OccupentWeapon@@@@8 DD 00H ; ScriptRegistrant<Ra2Ven_OccupentWeapon>::`RTTI Class Hierarchy Descriptor'
	DD	00H
	DD	02H
	DD	FLAT:??_R2?$ScriptRegistrant@VRa2Ven_OccupentWeapon@@@@8
rdata$r	ENDS
;	COMDAT ??_R0?AV?$ScriptRegistrant@VRa2Ven_OccupentWeapon@@@@@8
_DATA	SEGMENT
??_R0?AV?$ScriptRegistrant@VRa2Ven_OccupentWeapon@@@@@8 DD FLAT:??_7type_info@@6B@ ; ScriptRegistrant<Ra2Ven_OccupentWeapon> `RTTI Type Descriptor'
	DD	00H
	DB	'.?AV?$ScriptRegistrant@VRa2Ven_OccupentWeapon@@@@', 00H
_DATA	ENDS
;	COMDAT ??_R4?$ScriptRegistrant@VRa2Ven_OccupentWeapon@@@@6B@
rdata$r	SEGMENT
??_R4?$ScriptRegistrant@VRa2Ven_OccupentWeapon@@@@6B@ DD 00H ; ScriptRegistrant<Ra2Ven_OccupentWeapon>::`RTTI Complete Object Locator'
	DD	00H
	DD	00H
	DD	FLAT:??_R0?AV?$ScriptRegistrant@VRa2Ven_OccupentWeapon@@@@@8
	DD	FLAT:??_R3?$ScriptRegistrant@VRa2Ven_OccupentWeapon@@@@8
rdata$r	ENDS
;	COMDAT ??_R1A@?0A@EA@?$ScriptRegistrant@VRa2Ven_TurretSoundObj@@@@8
rdata$r	SEGMENT
??_R1A@?0A@EA@?$ScriptRegistrant@VRa2Ven_TurretSoundObj@@@@8 DD FLAT:??_R0?AV?$ScriptRegistrant@VRa2Ven_TurretSoundObj@@@@@8 ; ScriptRegistrant<Ra2Ven_TurretSoundObj>::`RTTI Base Class Descriptor at (0,-1,0,64)'
	DD	01H
	DD	00H
	DD	0ffffffffH
	DD	00H
	DD	040H
	DD	FLAT:??_R3?$ScriptRegistrant@VRa2Ven_TurretSoundObj@@@@8
rdata$r	ENDS
;	COMDAT ??_R2?$ScriptRegistrant@VRa2Ven_TurretSoundObj@@@@8
rdata$r	SEGMENT
??_R2?$ScriptRegistrant@VRa2Ven_TurretSoundObj@@@@8 DD FLAT:??_R1A@?0A@EA@?$ScriptRegistrant@VRa2Ven_TurretSoundObj@@@@8 ; ScriptRegistrant<Ra2Ven_TurretSoundObj>::`RTTI Base Class Array'
	DD	FLAT:??_R1A@?0A@EA@ScriptFactory@@8
rdata$r	ENDS
;	COMDAT ??_R3?$ScriptRegistrant@VRa2Ven_TurretSoundObj@@@@8
rdata$r	SEGMENT
??_R3?$ScriptRegistrant@VRa2Ven_TurretSoundObj@@@@8 DD 00H ; ScriptRegistrant<Ra2Ven_TurretSoundObj>::`RTTI Class Hierarchy Descriptor'
	DD	00H
	DD	02H
	DD	FLAT:??_R2?$ScriptRegistrant@VRa2Ven_TurretSoundObj@@@@8
rdata$r	ENDS
;	COMDAT ??_R0?AV?$ScriptRegistrant@VRa2Ven_TurretSoundObj@@@@@8
_DATA	SEGMENT
??_R0?AV?$ScriptRegistrant@VRa2Ven_TurretSoundObj@@@@@8 DD FLAT:??_7type_info@@6B@ ; ScriptRegistrant<Ra2Ven_TurretSoundObj> `RTTI Type Descriptor'
	DD	00H
	DB	'.?AV?$ScriptRegistrant@VRa2Ven_TurretSoundObj@@@@', 00H
_DATA	ENDS
;	COMDAT ??_R4?$ScriptRegistrant@VRa2Ven_TurretSoundObj@@@@6B@
rdata$r	SEGMENT
??_R4?$ScriptRegistrant@VRa2Ven_TurretSoundObj@@@@6B@ DD 00H ; ScriptRegistrant<Ra2Ven_TurretSoundObj>::`RTTI Complete Object Locator'
	DD	00H
	DD	00H
	DD	FLAT:??_R0?AV?$ScriptRegistrant@VRa2Ven_TurretSoundObj@@@@@8
	DD	FLAT:??_R3?$ScriptRegistrant@VRa2Ven_TurretSoundObj@@@@8
rdata$r	ENDS
;	COMDAT ??_R1A@?0A@EA@?$ScriptRegistrant@VRa2Ven_TurretSound@@@@8
rdata$r	SEGMENT
??_R1A@?0A@EA@?$ScriptRegistrant@VRa2Ven_TurretSound@@@@8 DD FLAT:??_R0?AV?$ScriptRegistrant@VRa2Ven_TurretSound@@@@@8 ; ScriptRegistrant<Ra2Ven_TurretSound>::`RTTI Base Class Descriptor at (0,-1,0,64)'
	DD	01H
	DD	00H
	DD	0ffffffffH
	DD	00H
	DD	040H
	DD	FLAT:??_R3?$ScriptRegistrant@VRa2Ven_TurretSound@@@@8
rdata$r	ENDS
;	COMDAT ??_R2?$ScriptRegistrant@VRa2Ven_TurretSound@@@@8
rdata$r	SEGMENT
??_R2?$ScriptRegistrant@VRa2Ven_TurretSound@@@@8 DD FLAT:??_R1A@?0A@EA@?$ScriptRegistrant@VRa2Ven_TurretSound@@@@8 ; ScriptRegistrant<Ra2Ven_TurretSound>::`RTTI Base Class Array'
	DD	FLAT:??_R1A@?0A@EA@ScriptFactory@@8
rdata$r	ENDS
;	COMDAT ??_R3?$ScriptRegistrant@VRa2Ven_TurretSound@@@@8
rdata$r	SEGMENT
??_R3?$ScriptRegistrant@VRa2Ven_TurretSound@@@@8 DD 00H	; ScriptRegistrant<Ra2Ven_TurretSound>::`RTTI Class Hierarchy Descriptor'
	DD	00H
	DD	02H
	DD	FLAT:??_R2?$ScriptRegistrant@VRa2Ven_TurretSound@@@@8
rdata$r	ENDS
;	COMDAT ??_R0?AV?$ScriptRegistrant@VRa2Ven_TurretSound@@@@@8
_DATA	SEGMENT
??_R0?AV?$ScriptRegistrant@VRa2Ven_TurretSound@@@@@8 DD FLAT:??_7type_info@@6B@ ; ScriptRegistrant<Ra2Ven_TurretSound> `RTTI Type Descriptor'
	DD	00H
	DB	'.?AV?$ScriptRegistrant@VRa2Ven_TurretSound@@@@', 00H
_DATA	ENDS
;	COMDAT ??_R4?$ScriptRegistrant@VRa2Ven_TurretSound@@@@6B@
rdata$r	SEGMENT
??_R4?$ScriptRegistrant@VRa2Ven_TurretSound@@@@6B@ DD 00H ; ScriptRegistrant<Ra2Ven_TurretSound>::`RTTI Complete Object Locator'
	DD	00H
	DD	00H
	DD	FLAT:??_R0?AV?$ScriptRegistrant@VRa2Ven_TurretSound@@@@@8
	DD	FLAT:??_R3?$ScriptRegistrant@VRa2Ven_TurretSound@@@@8
rdata$r	ENDS
;	COMDAT ??_R1A@?0A@EA@?$ScriptRegistrant@VRa2Ven_RandomTree@@@@8
rdata$r	SEGMENT
??_R1A@?0A@EA@?$ScriptRegistrant@VRa2Ven_RandomTree@@@@8 DD FLAT:??_R0?AV?$ScriptRegistrant@VRa2Ven_RandomTree@@@@@8 ; ScriptRegistrant<Ra2Ven_RandomTree>::`RTTI Base Class Descriptor at (0,-1,0,64)'
	DD	01H
	DD	00H
	DD	0ffffffffH
	DD	00H
	DD	040H
	DD	FLAT:??_R3?$ScriptRegistrant@VRa2Ven_RandomTree@@@@8
rdata$r	ENDS
;	COMDAT ??_R2?$ScriptRegistrant@VRa2Ven_RandomTree@@@@8
rdata$r	SEGMENT
??_R2?$ScriptRegistrant@VRa2Ven_RandomTree@@@@8 DD FLAT:??_R1A@?0A@EA@?$ScriptRegistrant@VRa2Ven_RandomTree@@@@8 ; ScriptRegistrant<Ra2Ven_RandomTree>::`RTTI Base Class Array'
	DD	FLAT:??_R1A@?0A@EA@ScriptFactory@@8
rdata$r	ENDS
;	COMDAT ??_R3?$ScriptRegistrant@VRa2Ven_RandomTree@@@@8
rdata$r	SEGMENT
??_R3?$ScriptRegistrant@VRa2Ven_RandomTree@@@@8 DD 00H	; ScriptRegistrant<Ra2Ven_RandomTree>::`RTTI Class Hierarchy Descriptor'
	DD	00H
	DD	02H
	DD	FLAT:??_R2?$ScriptRegistrant@VRa2Ven_RandomTree@@@@8
rdata$r	ENDS
;	COMDAT ??_R0?AV?$ScriptRegistrant@VRa2Ven_RandomTree@@@@@8
_DATA	SEGMENT
??_R0?AV?$ScriptRegistrant@VRa2Ven_RandomTree@@@@@8 DD FLAT:??_7type_info@@6B@ ; ScriptRegistrant<Ra2Ven_RandomTree> `RTTI Type Descriptor'
	DD	00H
	DB	'.?AV?$ScriptRegistrant@VRa2Ven_RandomTree@@@@', 00H
_DATA	ENDS
;	COMDAT ??_R4?$ScriptRegistrant@VRa2Ven_RandomTree@@@@6B@
rdata$r	SEGMENT
??_R4?$ScriptRegistrant@VRa2Ven_RandomTree@@@@6B@ DD 00H ; ScriptRegistrant<Ra2Ven_RandomTree>::`RTTI Complete Object Locator'
	DD	00H
	DD	00H
	DD	FLAT:??_R0?AV?$ScriptRegistrant@VRa2Ven_RandomTree@@@@@8
	DD	FLAT:??_R3?$ScriptRegistrant@VRa2Ven_RandomTree@@@@8
rdata$r	ENDS
;	COMDAT ??_R1A@?0A@EA@?$ScriptRegistrant@VRa2Ven_Deploy_Animation@@@@8
rdata$r	SEGMENT
??_R1A@?0A@EA@?$ScriptRegistrant@VRa2Ven_Deploy_Animation@@@@8 DD FLAT:??_R0?AV?$ScriptRegistrant@VRa2Ven_Deploy_Animation@@@@@8 ; ScriptRegistrant<Ra2Ven_Deploy_Animation>::`RTTI Base Class Descriptor at (0,-1,0,64)'
	DD	01H
	DD	00H
	DD	0ffffffffH
	DD	00H
	DD	040H
	DD	FLAT:??_R3?$ScriptRegistrant@VRa2Ven_Deploy_Animation@@@@8
rdata$r	ENDS
;	COMDAT ??_R2?$ScriptRegistrant@VRa2Ven_Deploy_Animation@@@@8
rdata$r	SEGMENT
??_R2?$ScriptRegistrant@VRa2Ven_Deploy_Animation@@@@8 DD FLAT:??_R1A@?0A@EA@?$ScriptRegistrant@VRa2Ven_Deploy_Animation@@@@8 ; ScriptRegistrant<Ra2Ven_Deploy_Animation>::`RTTI Base Class Array'
	DD	FLAT:??_R1A@?0A@EA@ScriptFactory@@8
rdata$r	ENDS
;	COMDAT ??_R3?$ScriptRegistrant@VRa2Ven_Deploy_Animation@@@@8
rdata$r	SEGMENT
??_R3?$ScriptRegistrant@VRa2Ven_Deploy_Animation@@@@8 DD 00H ; ScriptRegistrant<Ra2Ven_Deploy_Animation>::`RTTI Class Hierarchy Descriptor'
	DD	00H
	DD	02H
	DD	FLAT:??_R2?$ScriptRegistrant@VRa2Ven_Deploy_Animation@@@@8
rdata$r	ENDS
;	COMDAT ??_R0?AV?$ScriptRegistrant@VRa2Ven_Deploy_Animation@@@@@8
_DATA	SEGMENT
??_R0?AV?$ScriptRegistrant@VRa2Ven_Deploy_Animation@@@@@8 DD FLAT:??_7type_info@@6B@ ; ScriptRegistrant<Ra2Ven_Deploy_Animation> `RTTI Type Descriptor'
	DD	00H
	DB	'.?AV?$ScriptRegistrant@VRa2Ven_Deploy_Animation@@@@', 00H
_DATA	ENDS
;	COMDAT ??_R4?$ScriptRegistrant@VRa2Ven_Deploy_Animation@@@@6B@
rdata$r	SEGMENT
??_R4?$ScriptRegistrant@VRa2Ven_Deploy_Animation@@@@6B@ DD 00H ; ScriptRegistrant<Ra2Ven_Deploy_Animation>::`RTTI Complete Object Locator'
	DD	00H
	DD	00H
	DD	FLAT:??_R0?AV?$ScriptRegistrant@VRa2Ven_Deploy_Animation@@@@@8
	DD	FLAT:??_R3?$ScriptRegistrant@VRa2Ven_Deploy_Animation@@@@8
rdata$r	ENDS
;	COMDAT ??_R1A@?0A@EA@?$ScriptRegistrant@VRa2Ven_Deployable_Vehicle@@@@8
rdata$r	SEGMENT
??_R1A@?0A@EA@?$ScriptRegistrant@VRa2Ven_Deployable_Vehicle@@@@8 DD FLAT:??_R0?AV?$ScriptRegistrant@VRa2Ven_Deployable_Vehicle@@@@@8 ; ScriptRegistrant<Ra2Ven_Deployable_Vehicle>::`RTTI Base Class Descriptor at (0,-1,0,64)'
	DD	01H
	DD	00H
	DD	0ffffffffH
	DD	00H
	DD	040H
	DD	FLAT:??_R3?$ScriptRegistrant@VRa2Ven_Deployable_Vehicle@@@@8
rdata$r	ENDS
;	COMDAT ??_R2?$ScriptRegistrant@VRa2Ven_Deployable_Vehicle@@@@8
rdata$r	SEGMENT
??_R2?$ScriptRegistrant@VRa2Ven_Deployable_Vehicle@@@@8 DD FLAT:??_R1A@?0A@EA@?$ScriptRegistrant@VRa2Ven_Deployable_Vehicle@@@@8 ; ScriptRegistrant<Ra2Ven_Deployable_Vehicle>::`RTTI Base Class Array'
	DD	FLAT:??_R1A@?0A@EA@ScriptFactory@@8
rdata$r	ENDS
;	COMDAT ??_R3?$ScriptRegistrant@VRa2Ven_Deployable_Vehicle@@@@8
rdata$r	SEGMENT
??_R3?$ScriptRegistrant@VRa2Ven_Deployable_Vehicle@@@@8 DD 00H ; ScriptRegistrant<Ra2Ven_Deployable_Vehicle>::`RTTI Class Hierarchy Descriptor'
	DD	00H
	DD	02H
	DD	FLAT:??_R2?$ScriptRegistrant@VRa2Ven_Deployable_Vehicle@@@@8
rdata$r	ENDS
;	COMDAT ??_R0?AV?$ScriptRegistrant@VRa2Ven_Deployable_Vehicle@@@@@8
_DATA	SEGMENT
??_R0?AV?$ScriptRegistrant@VRa2Ven_Deployable_Vehicle@@@@@8 DD FLAT:??_7type_info@@6B@ ; ScriptRegistrant<Ra2Ven_Deployable_Vehicle> `RTTI Type Descriptor'
	DD	00H
	DB	'.?AV?$ScriptRegistrant@VRa2Ven_Deployable_Vehicle@@@@', 00H
_DATA	ENDS
;	COMDAT ??_R4?$ScriptRegistrant@VRa2Ven_Deployable_Vehicle@@@@6B@
rdata$r	SEGMENT
??_R4?$ScriptRegistrant@VRa2Ven_Deployable_Vehicle@@@@6B@ DD 00H ; ScriptRegistrant<Ra2Ven_Deployable_Vehicle>::`RTTI Complete Object Locator'
	DD	00H
	DD	00H
	DD	FLAT:??_R0?AV?$ScriptRegistrant@VRa2Ven_Deployable_Vehicle@@@@@8
	DD	FLAT:??_R3?$ScriptRegistrant@VRa2Ven_Deployable_Vehicle@@@@8
rdata$r	ENDS
;	COMDAT ??_R1A@?0A@EA@?$ScriptRegistrant@VRa2Ven_DemoTruck@@@@8
rdata$r	SEGMENT
??_R1A@?0A@EA@?$ScriptRegistrant@VRa2Ven_DemoTruck@@@@8 DD FLAT:??_R0?AV?$ScriptRegistrant@VRa2Ven_DemoTruck@@@@@8 ; ScriptRegistrant<Ra2Ven_DemoTruck>::`RTTI Base Class Descriptor at (0,-1,0,64)'
	DD	01H
	DD	00H
	DD	0ffffffffH
	DD	00H
	DD	040H
	DD	FLAT:??_R3?$ScriptRegistrant@VRa2Ven_DemoTruck@@@@8
rdata$r	ENDS
;	COMDAT ??_R2?$ScriptRegistrant@VRa2Ven_DemoTruck@@@@8
rdata$r	SEGMENT
??_R2?$ScriptRegistrant@VRa2Ven_DemoTruck@@@@8 DD FLAT:??_R1A@?0A@EA@?$ScriptRegistrant@VRa2Ven_DemoTruck@@@@8 ; ScriptRegistrant<Ra2Ven_DemoTruck>::`RTTI Base Class Array'
	DD	FLAT:??_R1A@?0A@EA@ScriptFactory@@8
rdata$r	ENDS
;	COMDAT ??_R3?$ScriptRegistrant@VRa2Ven_DemoTruck@@@@8
rdata$r	SEGMENT
??_R3?$ScriptRegistrant@VRa2Ven_DemoTruck@@@@8 DD 00H	; ScriptRegistrant<Ra2Ven_DemoTruck>::`RTTI Class Hierarchy Descriptor'
	DD	00H
	DD	02H
	DD	FLAT:??_R2?$ScriptRegistrant@VRa2Ven_DemoTruck@@@@8
rdata$r	ENDS
;	COMDAT ??_R0?AV?$ScriptRegistrant@VRa2Ven_DemoTruck@@@@@8
_DATA	SEGMENT
??_R0?AV?$ScriptRegistrant@VRa2Ven_DemoTruck@@@@@8 DD FLAT:??_7type_info@@6B@ ; ScriptRegistrant<Ra2Ven_DemoTruck> `RTTI Type Descriptor'
	DD	00H
	DB	'.?AV?$ScriptRegistrant@VRa2Ven_DemoTruck@@@@', 00H
_DATA	ENDS
;	COMDAT ??_R4?$ScriptRegistrant@VRa2Ven_DemoTruck@@@@6B@
rdata$r	SEGMENT
??_R4?$ScriptRegistrant@VRa2Ven_DemoTruck@@@@6B@ DD 00H	; ScriptRegistrant<Ra2Ven_DemoTruck>::`RTTI Complete Object Locator'
	DD	00H
	DD	00H
	DD	FLAT:??_R0?AV?$ScriptRegistrant@VRa2Ven_DemoTruck@@@@@8
	DD	FLAT:??_R3?$ScriptRegistrant@VRa2Ven_DemoTruck@@@@8
rdata$r	ENDS
;	COMDAT ??_R1A@?0A@EA@?$ScriptRegistrant@VRa2Ven_VehicleFalling@@@@8
rdata$r	SEGMENT
??_R1A@?0A@EA@?$ScriptRegistrant@VRa2Ven_VehicleFalling@@@@8 DD FLAT:??_R0?AV?$ScriptRegistrant@VRa2Ven_VehicleFalling@@@@@8 ; ScriptRegistrant<Ra2Ven_VehicleFalling>::`RTTI Base Class Descriptor at (0,-1,0,64)'
	DD	01H
	DD	00H
	DD	0ffffffffH
	DD	00H
	DD	040H
	DD	FLAT:??_R3?$ScriptRegistrant@VRa2Ven_VehicleFalling@@@@8
rdata$r	ENDS
;	COMDAT ??_R2?$ScriptRegistrant@VRa2Ven_VehicleFalling@@@@8
rdata$r	SEGMENT
??_R2?$ScriptRegistrant@VRa2Ven_VehicleFalling@@@@8 DD FLAT:??_R1A@?0A@EA@?$ScriptRegistrant@VRa2Ven_VehicleFalling@@@@8 ; ScriptRegistrant<Ra2Ven_VehicleFalling>::`RTTI Base Class Array'
	DD	FLAT:??_R1A@?0A@EA@ScriptFactory@@8
rdata$r	ENDS
;	COMDAT ??_R3?$ScriptRegistrant@VRa2Ven_VehicleFalling@@@@8
rdata$r	SEGMENT
??_R3?$ScriptRegistrant@VRa2Ven_VehicleFalling@@@@8 DD 00H ; ScriptRegistrant<Ra2Ven_VehicleFalling>::`RTTI Class Hierarchy Descriptor'
	DD	00H
	DD	02H
	DD	FLAT:??_R2?$ScriptRegistrant@VRa2Ven_VehicleFalling@@@@8
rdata$r	ENDS
;	COMDAT ??_R0?AV?$ScriptRegistrant@VRa2Ven_VehicleFalling@@@@@8
_DATA	SEGMENT
??_R0?AV?$ScriptRegistrant@VRa2Ven_VehicleFalling@@@@@8 DD FLAT:??_7type_info@@6B@ ; ScriptRegistrant<Ra2Ven_VehicleFalling> `RTTI Type Descriptor'
	DD	00H
	DB	'.?AV?$ScriptRegistrant@VRa2Ven_VehicleFalling@@@@', 00H
_DATA	ENDS
;	COMDAT ??_R4?$ScriptRegistrant@VRa2Ven_VehicleFalling@@@@6B@
rdata$r	SEGMENT
??_R4?$ScriptRegistrant@VRa2Ven_VehicleFalling@@@@6B@ DD 00H ; ScriptRegistrant<Ra2Ven_VehicleFalling>::`RTTI Complete Object Locator'
	DD	00H
	DD	00H
	DD	FLAT:??_R0?AV?$ScriptRegistrant@VRa2Ven_VehicleFalling@@@@@8
	DD	FLAT:??_R3?$ScriptRegistrant@VRa2Ven_VehicleFalling@@@@8
rdata$r	ENDS
;	COMDAT ??_R1A@?0A@EA@?$ScriptRegistrant@VRa2Ven_MirageTank@@@@8
rdata$r	SEGMENT
??_R1A@?0A@EA@?$ScriptRegistrant@VRa2Ven_MirageTank@@@@8 DD FLAT:??_R0?AV?$ScriptRegistrant@VRa2Ven_MirageTank@@@@@8 ; ScriptRegistrant<Ra2Ven_MirageTank>::`RTTI Base Class Descriptor at (0,-1,0,64)'
	DD	01H
	DD	00H
	DD	0ffffffffH
	DD	00H
	DD	040H
	DD	FLAT:??_R3?$ScriptRegistrant@VRa2Ven_MirageTank@@@@8
rdata$r	ENDS
;	COMDAT ??_R2?$ScriptRegistrant@VRa2Ven_MirageTank@@@@8
rdata$r	SEGMENT
??_R2?$ScriptRegistrant@VRa2Ven_MirageTank@@@@8 DD FLAT:??_R1A@?0A@EA@?$ScriptRegistrant@VRa2Ven_MirageTank@@@@8 ; ScriptRegistrant<Ra2Ven_MirageTank>::`RTTI Base Class Array'
	DD	FLAT:??_R1A@?0A@EA@ScriptFactory@@8
rdata$r	ENDS
;	COMDAT ??_R3?$ScriptRegistrant@VRa2Ven_MirageTank@@@@8
rdata$r	SEGMENT
??_R3?$ScriptRegistrant@VRa2Ven_MirageTank@@@@8 DD 00H	; ScriptRegistrant<Ra2Ven_MirageTank>::`RTTI Class Hierarchy Descriptor'
	DD	00H
	DD	02H
	DD	FLAT:??_R2?$ScriptRegistrant@VRa2Ven_MirageTank@@@@8
rdata$r	ENDS
;	COMDAT ??_R0?AV?$ScriptRegistrant@VRa2Ven_MirageTank@@@@@8
_DATA	SEGMENT
??_R0?AV?$ScriptRegistrant@VRa2Ven_MirageTank@@@@@8 DD FLAT:??_7type_info@@6B@ ; ScriptRegistrant<Ra2Ven_MirageTank> `RTTI Type Descriptor'
	DD	00H
	DB	'.?AV?$ScriptRegistrant@VRa2Ven_MirageTank@@@@', 00H
_DATA	ENDS
;	COMDAT ??_R4?$ScriptRegistrant@VRa2Ven_MirageTank@@@@6B@
rdata$r	SEGMENT
??_R4?$ScriptRegistrant@VRa2Ven_MirageTank@@@@6B@ DD 00H ; ScriptRegistrant<Ra2Ven_MirageTank>::`RTTI Complete Object Locator'
	DD	00H
	DD	00H
	DD	FLAT:??_R0?AV?$ScriptRegistrant@VRa2Ven_MirageTank@@@@@8
	DD	FLAT:??_R3?$ScriptRegistrant@VRa2Ven_MirageTank@@@@8
rdata$r	ENDS
;	COMDAT ??_R1A@?0A@EA@ReferencerClass@@8
rdata$r	SEGMENT
??_R1A@?0A@EA@ReferencerClass@@8 DD FLAT:??_R0?AVReferencerClass@@@8 ; ReferencerClass::`RTTI Base Class Descriptor at (0,-1,0,64)'
	DD	01H
	DD	00H
	DD	0ffffffffH
	DD	00H
	DD	040H
	DD	FLAT:??_R3ReferencerClass@@8
rdata$r	ENDS
;	COMDAT ??_R2ReferencerClass@@8
rdata$r	SEGMENT
??_R2ReferencerClass@@8 DD FLAT:??_R1A@?0A@EA@ReferencerClass@@8 ; ReferencerClass::`RTTI Base Class Array'
	DD	FLAT:??_R1A@?0A@EA@PostLoadableClass@@8
rdata$r	ENDS
;	COMDAT ??_R3ReferencerClass@@8
rdata$r	SEGMENT
??_R3ReferencerClass@@8 DD 00H				; ReferencerClass::`RTTI Class Hierarchy Descriptor'
	DD	00H
	DD	02H
	DD	FLAT:??_R2ReferencerClass@@8
rdata$r	ENDS
;	COMDAT ??_R0?AVReferencerClass@@@8
_DATA	SEGMENT
??_R0?AVReferencerClass@@@8 DD FLAT:??_7type_info@@6B@	; ReferencerClass `RTTI Type Descriptor'
	DD	00H
	DB	'.?AVReferencerClass@@', 00H
_DATA	ENDS
;	COMDAT ??_R4ReferencerClass@@6B@
rdata$r	SEGMENT
??_R4ReferencerClass@@6B@ DD 00H			; ReferencerClass::`RTTI Complete Object Locator'
	DD	00H
	DD	00H
	DD	FLAT:??_R0?AVReferencerClass@@@8
	DD	FLAT:??_R3ReferencerClass@@8
rdata$r	ENDS
;	COMDAT ??_R1A@?0A@EA@INIClass@@8
rdata$r	SEGMENT
??_R1A@?0A@EA@INIClass@@8 DD FLAT:??_R0?AVINIClass@@@8	; INIClass::`RTTI Base Class Descriptor at (0,-1,0,64)'
	DD	00H
	DD	00H
	DD	0ffffffffH
	DD	00H
	DD	040H
	DD	FLAT:??_R3INIClass@@8
rdata$r	ENDS
;	COMDAT ??_R2INIClass@@8
rdata$r	SEGMENT
??_R2INIClass@@8 DD FLAT:??_R1A@?0A@EA@INIClass@@8	; INIClass::`RTTI Base Class Array'
rdata$r	ENDS
;	COMDAT ??_R3INIClass@@8
rdata$r	SEGMENT
??_R3INIClass@@8 DD 00H					; INIClass::`RTTI Class Hierarchy Descriptor'
	DD	00H
	DD	01H
	DD	FLAT:??_R2INIClass@@8
rdata$r	ENDS
;	COMDAT ??_R0?AVINIClass@@@8
_DATA	SEGMENT
??_R0?AVINIClass@@@8 DD FLAT:??_7type_info@@6B@		; INIClass `RTTI Type Descriptor'
	DD	00H
	DB	'.?AVINIClass@@', 00H
_DATA	ENDS
;	COMDAT ??_R4INIClass@@6B@
rdata$r	SEGMENT
??_R4INIClass@@6B@ DD 00H				; INIClass::`RTTI Complete Object Locator'
	DD	00H
	DD	00H
	DD	FLAT:??_R0?AVINIClass@@@8
	DD	FLAT:??_R3INIClass@@8
rdata$r	ENDS
;	COMDAT ??_R1A@?0A@EA@PostLoadableClass@@8
rdata$r	SEGMENT
??_R1A@?0A@EA@PostLoadableClass@@8 DD FLAT:??_R0?AVPostLoadableClass@@@8 ; PostLoadableClass::`RTTI Base Class Descriptor at (0,-1,0,64)'
	DD	00H
	DD	00H
	DD	0ffffffffH
	DD	00H
	DD	040H
	DD	FLAT:??_R3PostLoadableClass@@8
rdata$r	ENDS
;	COMDAT ??_R2PostLoadableClass@@8
rdata$r	SEGMENT
??_R2PostLoadableClass@@8 DD FLAT:??_R1A@?0A@EA@PostLoadableClass@@8 ; PostLoadableClass::`RTTI Base Class Array'
rdata$r	ENDS
;	COMDAT ??_R3PostLoadableClass@@8
rdata$r	SEGMENT
??_R3PostLoadableClass@@8 DD 00H			; PostLoadableClass::`RTTI Class Hierarchy Descriptor'
	DD	00H
	DD	01H
	DD	FLAT:??_R2PostLoadableClass@@8
rdata$r	ENDS
;	COMDAT ??_R0?AVPostLoadableClass@@@8
_DATA	SEGMENT
??_R0?AVPostLoadableClass@@@8 DD FLAT:??_7type_info@@6B@ ; PostLoadableClass `RTTI Type Descriptor'
	DD	00H
	DB	'.?AVPostLoadableClass@@', 00H
_DATA	ENDS
;	COMDAT ??_R4PostLoadableClass@@6B@
rdata$r	SEGMENT
??_R4PostLoadableClass@@6B@ DD 00H			; PostLoadableClass::`RTTI Complete Object Locator'
	DD	00H
	DD	00H
	DD	FLAT:??_R0?AVPostLoadableClass@@@8
	DD	FLAT:??_R3PostLoadableClass@@8
rdata$r	ENDS
;	COMDAT ??_R1A@?0A@EA@ThreadClass@@8
rdata$r	SEGMENT
??_R1A@?0A@EA@ThreadClass@@8 DD FLAT:??_R0?AVThreadClass@@@8 ; ThreadClass::`RTTI Base Class Descriptor at (0,-1,0,64)'
	DD	00H
	DD	00H
	DD	0ffffffffH
	DD	00H
	DD	040H
	DD	FLAT:??_R3ThreadClass@@8
rdata$r	ENDS
;	COMDAT ??_R2ThreadClass@@8
rdata$r	SEGMENT
??_R2ThreadClass@@8 DD FLAT:??_R1A@?0A@EA@ThreadClass@@8 ; ThreadClass::`RTTI Base Class Array'
rdata$r	ENDS
;	COMDAT ??_R3ThreadClass@@8
rdata$r	SEGMENT
??_R3ThreadClass@@8 DD 00H				; ThreadClass::`RTTI Class Hierarchy Descriptor'
	DD	00H
	DD	01H
	DD	FLAT:??_R2ThreadClass@@8
rdata$r	ENDS
;	COMDAT ??_R0?AVThreadClass@@@8
_DATA	SEGMENT
??_R0?AVThreadClass@@@8 DD FLAT:??_7type_info@@6B@	; ThreadClass `RTTI Type Descriptor'
	DD	00H
	DB	'.?AVThreadClass@@', 00H
_DATA	ENDS
;	COMDAT ??_R4ThreadClass@@6B@
rdata$r	SEGMENT
??_R4ThreadClass@@6B@ DD 00H				; ThreadClass::`RTTI Complete Object Locator'
	DD	00H
	DD	00H
	DD	FLAT:??_R0?AVThreadClass@@@8
	DD	FLAT:??_R3ThreadClass@@8
rdata$r	ENDS
;	COMDAT ??_R1A@?0A@EA@Ra2Ven_Dplbl_Vhcls_Cursor@@8
rdata$r	SEGMENT
??_R1A@?0A@EA@Ra2Ven_Dplbl_Vhcls_Cursor@@8 DD FLAT:??_R0?AVRa2Ven_Dplbl_Vhcls_Cursor@@@8 ; Ra2Ven_Dplbl_Vhcls_Cursor::`RTTI Base Class Descriptor at (0,-1,0,64)'
	DD	03H
	DD	00H
	DD	0ffffffffH
	DD	00H
	DD	040H
	DD	FLAT:??_R3Ra2Ven_Dplbl_Vhcls_Cursor@@8
rdata$r	ENDS
;	COMDAT ??_R2Ra2Ven_Dplbl_Vhcls_Cursor@@8
rdata$r	SEGMENT
??_R2Ra2Ven_Dplbl_Vhcls_Cursor@@8 DD FLAT:??_R1A@?0A@EA@Ra2Ven_Dplbl_Vhcls_Cursor@@8 ; Ra2Ven_Dplbl_Vhcls_Cursor::`RTTI Base Class Array'
	DD	FLAT:??_R1A@?0A@EA@ScriptImpClass@@8
	DD	FLAT:??_R1A@?0A@EA@ScriptClass@@8
	DD	FLAT:??_R1A@?0A@EA@GameObjObserverClass@@8
rdata$r	ENDS
;	COMDAT ??_R3Ra2Ven_Dplbl_Vhcls_Cursor@@8
rdata$r	SEGMENT
??_R3Ra2Ven_Dplbl_Vhcls_Cursor@@8 DD 00H		; Ra2Ven_Dplbl_Vhcls_Cursor::`RTTI Class Hierarchy Descriptor'
	DD	00H
	DD	04H
	DD	FLAT:??_R2Ra2Ven_Dplbl_Vhcls_Cursor@@8
rdata$r	ENDS
;	COMDAT ??_R0?AVRa2Ven_Dplbl_Vhcls_Cursor@@@8
_DATA	SEGMENT
??_R0?AVRa2Ven_Dplbl_Vhcls_Cursor@@@8 DD FLAT:??_7type_info@@6B@ ; Ra2Ven_Dplbl_Vhcls_Cursor `RTTI Type Descriptor'
	DD	00H
	DB	'.?AVRa2Ven_Dplbl_Vhcls_Cursor@@', 00H
_DATA	ENDS
;	COMDAT ??_R4Ra2Ven_Dplbl_Vhcls_Cursor@@6B@
rdata$r	SEGMENT
??_R4Ra2Ven_Dplbl_Vhcls_Cursor@@6B@ DD 00H		; Ra2Ven_Dplbl_Vhcls_Cursor::`RTTI Complete Object Locator'
	DD	00H
	DD	00H
	DD	FLAT:??_R0?AVRa2Ven_Dplbl_Vhcls_Cursor@@@8
	DD	FLAT:??_R3Ra2Ven_Dplbl_Vhcls_Cursor@@8
rdata$r	ENDS
;	COMDAT ??_R1A@?0A@EA@Ra2Ven_FireAnimation2@@8
rdata$r	SEGMENT
??_R1A@?0A@EA@Ra2Ven_FireAnimation2@@8 DD FLAT:??_R0?AVRa2Ven_FireAnimation2@@@8 ; Ra2Ven_FireAnimation2::`RTTI Base Class Descriptor at (0,-1,0,64)'
	DD	03H
	DD	00H
	DD	0ffffffffH
	DD	00H
	DD	040H
	DD	FLAT:??_R3Ra2Ven_FireAnimation2@@8
rdata$r	ENDS
;	COMDAT ??_R2Ra2Ven_FireAnimation2@@8
rdata$r	SEGMENT
??_R2Ra2Ven_FireAnimation2@@8 DD FLAT:??_R1A@?0A@EA@Ra2Ven_FireAnimation2@@8 ; Ra2Ven_FireAnimation2::`RTTI Base Class Array'
	DD	FLAT:??_R1A@?0A@EA@ScriptImpClass@@8
	DD	FLAT:??_R1A@?0A@EA@ScriptClass@@8
	DD	FLAT:??_R1A@?0A@EA@GameObjObserverClass@@8
rdata$r	ENDS
;	COMDAT ??_R3Ra2Ven_FireAnimation2@@8
rdata$r	SEGMENT
??_R3Ra2Ven_FireAnimation2@@8 DD 00H			; Ra2Ven_FireAnimation2::`RTTI Class Hierarchy Descriptor'
	DD	00H
	DD	04H
	DD	FLAT:??_R2Ra2Ven_FireAnimation2@@8
rdata$r	ENDS
;	COMDAT ??_R0?AVRa2Ven_FireAnimation2@@@8
_DATA	SEGMENT
??_R0?AVRa2Ven_FireAnimation2@@@8 DD FLAT:??_7type_info@@6B@ ; Ra2Ven_FireAnimation2 `RTTI Type Descriptor'
	DD	00H
	DB	'.?AVRa2Ven_FireAnimation2@@', 00H
_DATA	ENDS
;	COMDAT ??_R4Ra2Ven_FireAnimation2@@6B@
rdata$r	SEGMENT
??_R4Ra2Ven_FireAnimation2@@6B@ DD 00H			; Ra2Ven_FireAnimation2::`RTTI Complete Object Locator'
	DD	00H
	DD	00H
	DD	FLAT:??_R0?AVRa2Ven_FireAnimation2@@@8
	DD	FLAT:??_R3Ra2Ven_FireAnimation2@@8
rdata$r	ENDS
;	COMDAT ??_R1A@?0A@EA@Ra2Ven_FireAnimation@@8
rdata$r	SEGMENT
??_R1A@?0A@EA@Ra2Ven_FireAnimation@@8 DD FLAT:??_R0?AVRa2Ven_FireAnimation@@@8 ; Ra2Ven_FireAnimation::`RTTI Base Class Descriptor at (0,-1,0,64)'
	DD	03H
	DD	00H
	DD	0ffffffffH
	DD	00H
	DD	040H
	DD	FLAT:??_R3Ra2Ven_FireAnimation@@8
rdata$r	ENDS
;	COMDAT ??_R2Ra2Ven_FireAnimation@@8
rdata$r	SEGMENT
??_R2Ra2Ven_FireAnimation@@8 DD FLAT:??_R1A@?0A@EA@Ra2Ven_FireAnimation@@8 ; Ra2Ven_FireAnimation::`RTTI Base Class Array'
	DD	FLAT:??_R1A@?0A@EA@ScriptImpClass@@8
	DD	FLAT:??_R1A@?0A@EA@ScriptClass@@8
	DD	FLAT:??_R1A@?0A@EA@GameObjObserverClass@@8
rdata$r	ENDS
;	COMDAT ??_R3Ra2Ven_FireAnimation@@8
rdata$r	SEGMENT
??_R3Ra2Ven_FireAnimation@@8 DD 00H			; Ra2Ven_FireAnimation::`RTTI Class Hierarchy Descriptor'
	DD	00H
	DD	04H
	DD	FLAT:??_R2Ra2Ven_FireAnimation@@8
rdata$r	ENDS
;	COMDAT ??_R0?AVRa2Ven_FireAnimation@@@8
_DATA	SEGMENT
??_R0?AVRa2Ven_FireAnimation@@@8 DD FLAT:??_7type_info@@6B@ ; Ra2Ven_FireAnimation `RTTI Type Descriptor'
	DD	00H
	DB	'.?AVRa2Ven_FireAnimation@@', 00H
_DATA	ENDS
;	COMDAT ??_R4Ra2Ven_FireAnimation@@6B@
rdata$r	SEGMENT
??_R4Ra2Ven_FireAnimation@@6B@ DD 00H			; Ra2Ven_FireAnimation::`RTTI Complete Object Locator'
	DD	00H
	DD	00H
	DD	FLAT:??_R0?AVRa2Ven_FireAnimation@@@8
	DD	FLAT:??_R3Ra2Ven_FireAnimation@@8
rdata$r	ENDS
;	COMDAT ??_R1A@?0A@EA@Ra2Ven_OccupentWeapon@@8
rdata$r	SEGMENT
??_R1A@?0A@EA@Ra2Ven_OccupentWeapon@@8 DD FLAT:??_R0?AVRa2Ven_OccupentWeapon@@@8 ; Ra2Ven_OccupentWeapon::`RTTI Base Class Descriptor at (0,-1,0,64)'
	DD	03H
	DD	00H
	DD	0ffffffffH
	DD	00H
	DD	040H
	DD	FLAT:??_R3Ra2Ven_OccupentWeapon@@8
rdata$r	ENDS
;	COMDAT ??_R2Ra2Ven_OccupentWeapon@@8
rdata$r	SEGMENT
??_R2Ra2Ven_OccupentWeapon@@8 DD FLAT:??_R1A@?0A@EA@Ra2Ven_OccupentWeapon@@8 ; Ra2Ven_OccupentWeapon::`RTTI Base Class Array'
	DD	FLAT:??_R1A@?0A@EA@ScriptImpClass@@8
	DD	FLAT:??_R1A@?0A@EA@ScriptClass@@8
	DD	FLAT:??_R1A@?0A@EA@GameObjObserverClass@@8
rdata$r	ENDS
;	COMDAT ??_R3Ra2Ven_OccupentWeapon@@8
rdata$r	SEGMENT
??_R3Ra2Ven_OccupentWeapon@@8 DD 00H			; Ra2Ven_OccupentWeapon::`RTTI Class Hierarchy Descriptor'
	DD	00H
	DD	04H
	DD	FLAT:??_R2Ra2Ven_OccupentWeapon@@8
rdata$r	ENDS
;	COMDAT ??_R0?AVRa2Ven_OccupentWeapon@@@8
_DATA	SEGMENT
??_R0?AVRa2Ven_OccupentWeapon@@@8 DD FLAT:??_7type_info@@6B@ ; Ra2Ven_OccupentWeapon `RTTI Type Descriptor'
	DD	00H
	DB	'.?AVRa2Ven_OccupentWeapon@@', 00H
_DATA	ENDS
;	COMDAT ??_R4Ra2Ven_OccupentWeapon@@6B@
rdata$r	SEGMENT
??_R4Ra2Ven_OccupentWeapon@@6B@ DD 00H			; Ra2Ven_OccupentWeapon::`RTTI Complete Object Locator'
	DD	00H
	DD	00H
	DD	FLAT:??_R0?AVRa2Ven_OccupentWeapon@@@8
	DD	FLAT:??_R3Ra2Ven_OccupentWeapon@@8
rdata$r	ENDS
;	COMDAT ??_R1A@?0A@EA@Ra2Ven_TurretSoundObj@@8
rdata$r	SEGMENT
??_R1A@?0A@EA@Ra2Ven_TurretSoundObj@@8 DD FLAT:??_R0?AVRa2Ven_TurretSoundObj@@@8 ; Ra2Ven_TurretSoundObj::`RTTI Base Class Descriptor at (0,-1,0,64)'
	DD	03H
	DD	00H
	DD	0ffffffffH
	DD	00H
	DD	040H
	DD	FLAT:??_R3Ra2Ven_TurretSoundObj@@8
rdata$r	ENDS
;	COMDAT ??_R2Ra2Ven_TurretSoundObj@@8
rdata$r	SEGMENT
??_R2Ra2Ven_TurretSoundObj@@8 DD FLAT:??_R1A@?0A@EA@Ra2Ven_TurretSoundObj@@8 ; Ra2Ven_TurretSoundObj::`RTTI Base Class Array'
	DD	FLAT:??_R1A@?0A@EA@ScriptImpClass@@8
	DD	FLAT:??_R1A@?0A@EA@ScriptClass@@8
	DD	FLAT:??_R1A@?0A@EA@GameObjObserverClass@@8
rdata$r	ENDS
;	COMDAT ??_R3Ra2Ven_TurretSoundObj@@8
rdata$r	SEGMENT
??_R3Ra2Ven_TurretSoundObj@@8 DD 00H			; Ra2Ven_TurretSoundObj::`RTTI Class Hierarchy Descriptor'
	DD	00H
	DD	04H
	DD	FLAT:??_R2Ra2Ven_TurretSoundObj@@8
rdata$r	ENDS
;	COMDAT ??_R0?AVRa2Ven_TurretSoundObj@@@8
_DATA	SEGMENT
??_R0?AVRa2Ven_TurretSoundObj@@@8 DD FLAT:??_7type_info@@6B@ ; Ra2Ven_TurretSoundObj `RTTI Type Descriptor'
	DD	00H
	DB	'.?AVRa2Ven_TurretSoundObj@@', 00H
_DATA	ENDS
;	COMDAT ??_R4Ra2Ven_TurretSoundObj@@6B@
rdata$r	SEGMENT
??_R4Ra2Ven_TurretSoundObj@@6B@ DD 00H			; Ra2Ven_TurretSoundObj::`RTTI Complete Object Locator'
	DD	00H
	DD	00H
	DD	FLAT:??_R0?AVRa2Ven_TurretSoundObj@@@8
	DD	FLAT:??_R3Ra2Ven_TurretSoundObj@@8
rdata$r	ENDS
;	COMDAT ??_R1A@?0A@EA@Ra2Ven_TurretSound@@8
rdata$r	SEGMENT
??_R1A@?0A@EA@Ra2Ven_TurretSound@@8 DD FLAT:??_R0?AVRa2Ven_TurretSound@@@8 ; Ra2Ven_TurretSound::`RTTI Base Class Descriptor at (0,-1,0,64)'
	DD	03H
	DD	00H
	DD	0ffffffffH
	DD	00H
	DD	040H
	DD	FLAT:??_R3Ra2Ven_TurretSound@@8
rdata$r	ENDS
;	COMDAT ??_R2Ra2Ven_TurretSound@@8
rdata$r	SEGMENT
??_R2Ra2Ven_TurretSound@@8 DD FLAT:??_R1A@?0A@EA@Ra2Ven_TurretSound@@8 ; Ra2Ven_TurretSound::`RTTI Base Class Array'
	DD	FLAT:??_R1A@?0A@EA@ScriptImpClass@@8
	DD	FLAT:??_R1A@?0A@EA@ScriptClass@@8
	DD	FLAT:??_R1A@?0A@EA@GameObjObserverClass@@8
rdata$r	ENDS
;	COMDAT ??_R3Ra2Ven_TurretSound@@8
rdata$r	SEGMENT
??_R3Ra2Ven_TurretSound@@8 DD 00H			; Ra2Ven_TurretSound::`RTTI Class Hierarchy Descriptor'
	DD	00H
	DD	04H
	DD	FLAT:??_R2Ra2Ven_TurretSound@@8
rdata$r	ENDS
;	COMDAT ??_R0?AVRa2Ven_TurretSound@@@8
_DATA	SEGMENT
??_R0?AVRa2Ven_TurretSound@@@8 DD FLAT:??_7type_info@@6B@ ; Ra2Ven_TurretSound `RTTI Type Descriptor'
	DD	00H
	DB	'.?AVRa2Ven_TurretSound@@', 00H
_DATA	ENDS
;	COMDAT ??_R4Ra2Ven_TurretSound@@6B@
rdata$r	SEGMENT
??_R4Ra2Ven_TurretSound@@6B@ DD 00H			; Ra2Ven_TurretSound::`RTTI Complete Object Locator'
	DD	00H
	DD	00H
	DD	FLAT:??_R0?AVRa2Ven_TurretSound@@@8
	DD	FLAT:??_R3Ra2Ven_TurretSound@@8
rdata$r	ENDS
;	COMDAT ??_R1A@?0A@EA@Ra2Ven_RandomTree@@8
rdata$r	SEGMENT
??_R1A@?0A@EA@Ra2Ven_RandomTree@@8 DD FLAT:??_R0?AVRa2Ven_RandomTree@@@8 ; Ra2Ven_RandomTree::`RTTI Base Class Descriptor at (0,-1,0,64)'
	DD	03H
	DD	00H
	DD	0ffffffffH
	DD	00H
	DD	040H
	DD	FLAT:??_R3Ra2Ven_RandomTree@@8
rdata$r	ENDS
;	COMDAT ??_R2Ra2Ven_RandomTree@@8
rdata$r	SEGMENT
??_R2Ra2Ven_RandomTree@@8 DD FLAT:??_R1A@?0A@EA@Ra2Ven_RandomTree@@8 ; Ra2Ven_RandomTree::`RTTI Base Class Array'
	DD	FLAT:??_R1A@?0A@EA@ScriptImpClass@@8
	DD	FLAT:??_R1A@?0A@EA@ScriptClass@@8
	DD	FLAT:??_R1A@?0A@EA@GameObjObserverClass@@8
rdata$r	ENDS
;	COMDAT ??_R3Ra2Ven_RandomTree@@8
rdata$r	SEGMENT
??_R3Ra2Ven_RandomTree@@8 DD 00H			; Ra2Ven_RandomTree::`RTTI Class Hierarchy Descriptor'
	DD	00H
	DD	04H
	DD	FLAT:??_R2Ra2Ven_RandomTree@@8
rdata$r	ENDS
;	COMDAT ??_R0?AVRa2Ven_RandomTree@@@8
_DATA	SEGMENT
??_R0?AVRa2Ven_RandomTree@@@8 DD FLAT:??_7type_info@@6B@ ; Ra2Ven_RandomTree `RTTI Type Descriptor'
	DD	00H
	DB	'.?AVRa2Ven_RandomTree@@', 00H
_DATA	ENDS
;	COMDAT ??_R4Ra2Ven_RandomTree@@6B@
rdata$r	SEGMENT
??_R4Ra2Ven_RandomTree@@6B@ DD 00H			; Ra2Ven_RandomTree::`RTTI Complete Object Locator'
	DD	00H
	DD	00H
	DD	FLAT:??_R0?AVRa2Ven_RandomTree@@@8
	DD	FLAT:??_R3Ra2Ven_RandomTree@@8
rdata$r	ENDS
;	COMDAT ??_R1A@?0A@EA@Ra2Ven_Deploy_Animation@@8
rdata$r	SEGMENT
??_R1A@?0A@EA@Ra2Ven_Deploy_Animation@@8 DD FLAT:??_R0?AVRa2Ven_Deploy_Animation@@@8 ; Ra2Ven_Deploy_Animation::`RTTI Base Class Descriptor at (0,-1,0,64)'
	DD	03H
	DD	00H
	DD	0ffffffffH
	DD	00H
	DD	040H
	DD	FLAT:??_R3Ra2Ven_Deploy_Animation@@8
rdata$r	ENDS
;	COMDAT ??_R2Ra2Ven_Deploy_Animation@@8
rdata$r	SEGMENT
??_R2Ra2Ven_Deploy_Animation@@8 DD FLAT:??_R1A@?0A@EA@Ra2Ven_Deploy_Animation@@8 ; Ra2Ven_Deploy_Animation::`RTTI Base Class Array'
	DD	FLAT:??_R1A@?0A@EA@ScriptImpClass@@8
	DD	FLAT:??_R1A@?0A@EA@ScriptClass@@8
	DD	FLAT:??_R1A@?0A@EA@GameObjObserverClass@@8
rdata$r	ENDS
;	COMDAT ??_R3Ra2Ven_Deploy_Animation@@8
rdata$r	SEGMENT
??_R3Ra2Ven_Deploy_Animation@@8 DD 00H			; Ra2Ven_Deploy_Animation::`RTTI Class Hierarchy Descriptor'
	DD	00H
	DD	04H
	DD	FLAT:??_R2Ra2Ven_Deploy_Animation@@8
rdata$r	ENDS
;	COMDAT ??_R0?AVRa2Ven_Deploy_Animation@@@8
_DATA	SEGMENT
??_R0?AVRa2Ven_Deploy_Animation@@@8 DD FLAT:??_7type_info@@6B@ ; Ra2Ven_Deploy_Animation `RTTI Type Descriptor'
	DD	00H
	DB	'.?AVRa2Ven_Deploy_Animation@@', 00H
_DATA	ENDS
;	COMDAT ??_R4Ra2Ven_Deploy_Animation@@6B@
rdata$r	SEGMENT
??_R4Ra2Ven_Deploy_Animation@@6B@ DD 00H		; Ra2Ven_Deploy_Animation::`RTTI Complete Object Locator'
	DD	00H
	DD	00H
	DD	FLAT:??_R0?AVRa2Ven_Deploy_Animation@@@8
	DD	FLAT:??_R3Ra2Ven_Deploy_Animation@@8
rdata$r	ENDS
;	COMDAT ??_R1A@?0A@EA@Ra2Ven_Deployable_Vehicle@@8
rdata$r	SEGMENT
??_R1A@?0A@EA@Ra2Ven_Deployable_Vehicle@@8 DD FLAT:??_R0?AVRa2Ven_Deployable_Vehicle@@@8 ; Ra2Ven_Deployable_Vehicle::`RTTI Base Class Descriptor at (0,-1,0,64)'
	DD	03H
	DD	00H
	DD	0ffffffffH
	DD	00H
	DD	040H
	DD	FLAT:??_R3Ra2Ven_Deployable_Vehicle@@8
rdata$r	ENDS
;	COMDAT ??_R2Ra2Ven_Deployable_Vehicle@@8
rdata$r	SEGMENT
??_R2Ra2Ven_Deployable_Vehicle@@8 DD FLAT:??_R1A@?0A@EA@Ra2Ven_Deployable_Vehicle@@8 ; Ra2Ven_Deployable_Vehicle::`RTTI Base Class Array'
	DD	FLAT:??_R1A@?0A@EA@ScriptImpClass@@8
	DD	FLAT:??_R1A@?0A@EA@ScriptClass@@8
	DD	FLAT:??_R1A@?0A@EA@GameObjObserverClass@@8
rdata$r	ENDS
;	COMDAT ??_R3Ra2Ven_Deployable_Vehicle@@8
rdata$r	SEGMENT
??_R3Ra2Ven_Deployable_Vehicle@@8 DD 00H		; Ra2Ven_Deployable_Vehicle::`RTTI Class Hierarchy Descriptor'
	DD	00H
	DD	04H
	DD	FLAT:??_R2Ra2Ven_Deployable_Vehicle@@8
rdata$r	ENDS
;	COMDAT ??_R0?AVRa2Ven_Deployable_Vehicle@@@8
_DATA	SEGMENT
??_R0?AVRa2Ven_Deployable_Vehicle@@@8 DD FLAT:??_7type_info@@6B@ ; Ra2Ven_Deployable_Vehicle `RTTI Type Descriptor'
	DD	00H
	DB	'.?AVRa2Ven_Deployable_Vehicle@@', 00H
_DATA	ENDS
;	COMDAT ??_R4Ra2Ven_Deployable_Vehicle@@6B@
rdata$r	SEGMENT
??_R4Ra2Ven_Deployable_Vehicle@@6B@ DD 00H		; Ra2Ven_Deployable_Vehicle::`RTTI Complete Object Locator'
	DD	00H
	DD	00H
	DD	FLAT:??_R0?AVRa2Ven_Deployable_Vehicle@@@8
	DD	FLAT:??_R3Ra2Ven_Deployable_Vehicle@@8
rdata$r	ENDS
;	COMDAT ??_R1A@?0A@EA@Ra2Ven_DemoTruck@@8
rdata$r	SEGMENT
??_R1A@?0A@EA@Ra2Ven_DemoTruck@@8 DD FLAT:??_R0?AVRa2Ven_DemoTruck@@@8 ; Ra2Ven_DemoTruck::`RTTI Base Class Descriptor at (0,-1,0,64)'
	DD	03H
	DD	00H
	DD	0ffffffffH
	DD	00H
	DD	040H
	DD	FLAT:??_R3Ra2Ven_DemoTruck@@8
rdata$r	ENDS
;	COMDAT ??_R2Ra2Ven_DemoTruck@@8
rdata$r	SEGMENT
??_R2Ra2Ven_DemoTruck@@8 DD FLAT:??_R1A@?0A@EA@Ra2Ven_DemoTruck@@8 ; Ra2Ven_DemoTruck::`RTTI Base Class Array'
	DD	FLAT:??_R1A@?0A@EA@ScriptImpClass@@8
	DD	FLAT:??_R1A@?0A@EA@ScriptClass@@8
	DD	FLAT:??_R1A@?0A@EA@GameObjObserverClass@@8
rdata$r	ENDS
;	COMDAT ??_R3Ra2Ven_DemoTruck@@8
rdata$r	SEGMENT
??_R3Ra2Ven_DemoTruck@@8 DD 00H				; Ra2Ven_DemoTruck::`RTTI Class Hierarchy Descriptor'
	DD	00H
	DD	04H
	DD	FLAT:??_R2Ra2Ven_DemoTruck@@8
rdata$r	ENDS
;	COMDAT ??_R0?AVRa2Ven_DemoTruck@@@8
_DATA	SEGMENT
??_R0?AVRa2Ven_DemoTruck@@@8 DD FLAT:??_7type_info@@6B@	; Ra2Ven_DemoTruck `RTTI Type Descriptor'
	DD	00H
	DB	'.?AVRa2Ven_DemoTruck@@', 00H
_DATA	ENDS
;	COMDAT ??_R4Ra2Ven_DemoTruck@@6B@
rdata$r	SEGMENT
??_R4Ra2Ven_DemoTruck@@6B@ DD 00H			; Ra2Ven_DemoTruck::`RTTI Complete Object Locator'
	DD	00H
	DD	00H
	DD	FLAT:??_R0?AVRa2Ven_DemoTruck@@@8
	DD	FLAT:??_R3Ra2Ven_DemoTruck@@8
rdata$r	ENDS
;	COMDAT ??_R1A@?0A@EA@Ra2Ven_VehicleFalling@@8
rdata$r	SEGMENT
??_R1A@?0A@EA@Ra2Ven_VehicleFalling@@8 DD FLAT:??_R0?AVRa2Ven_VehicleFalling@@@8 ; Ra2Ven_VehicleFalling::`RTTI Base Class Descriptor at (0,-1,0,64)'
	DD	03H
	DD	00H
	DD	0ffffffffH
	DD	00H
	DD	040H
	DD	FLAT:??_R3Ra2Ven_VehicleFalling@@8
rdata$r	ENDS
;	COMDAT ??_R2Ra2Ven_VehicleFalling@@8
rdata$r	SEGMENT
??_R2Ra2Ven_VehicleFalling@@8 DD FLAT:??_R1A@?0A@EA@Ra2Ven_VehicleFalling@@8 ; Ra2Ven_VehicleFalling::`RTTI Base Class Array'
	DD	FLAT:??_R1A@?0A@EA@ScriptImpClass@@8
	DD	FLAT:??_R1A@?0A@EA@ScriptClass@@8
	DD	FLAT:??_R1A@?0A@EA@GameObjObserverClass@@8
rdata$r	ENDS
;	COMDAT ??_R3Ra2Ven_VehicleFalling@@8
rdata$r	SEGMENT
??_R3Ra2Ven_VehicleFalling@@8 DD 00H			; Ra2Ven_VehicleFalling::`RTTI Class Hierarchy Descriptor'
	DD	00H
	DD	04H
	DD	FLAT:??_R2Ra2Ven_VehicleFalling@@8
rdata$r	ENDS
;	COMDAT ??_R0?AVRa2Ven_VehicleFalling@@@8
_DATA	SEGMENT
??_R0?AVRa2Ven_VehicleFalling@@@8 DD FLAT:??_7type_info@@6B@ ; Ra2Ven_VehicleFalling `RTTI Type Descriptor'
	DD	00H
	DB	'.?AVRa2Ven_VehicleFalling@@', 00H
_DATA	ENDS
;	COMDAT ??_R4Ra2Ven_VehicleFalling@@6B@
rdata$r	SEGMENT
??_R4Ra2Ven_VehicleFalling@@6B@ DD 00H			; Ra2Ven_VehicleFalling::`RTTI Complete Object Locator'
	DD	00H
	DD	00H
	DD	FLAT:??_R0?AVRa2Ven_VehicleFalling@@@8
	DD	FLAT:??_R3Ra2Ven_VehicleFalling@@8
rdata$r	ENDS
;	COMDAT ??_R1A@?0A@EA@Ra2Ven_MirageTank@@8
rdata$r	SEGMENT
??_R1A@?0A@EA@Ra2Ven_MirageTank@@8 DD FLAT:??_R0?AVRa2Ven_MirageTank@@@8 ; Ra2Ven_MirageTank::`RTTI Base Class Descriptor at (0,-1,0,64)'
	DD	03H
	DD	00H
	DD	0ffffffffH
	DD	00H
	DD	040H
	DD	FLAT:??_R3Ra2Ven_MirageTank@@8
rdata$r	ENDS
;	COMDAT ??_R2Ra2Ven_MirageTank@@8
rdata$r	SEGMENT
??_R2Ra2Ven_MirageTank@@8 DD FLAT:??_R1A@?0A@EA@Ra2Ven_MirageTank@@8 ; Ra2Ven_MirageTank::`RTTI Base Class Array'
	DD	FLAT:??_R1A@?0A@EA@ScriptImpClass@@8
	DD	FLAT:??_R1A@?0A@EA@ScriptClass@@8
	DD	FLAT:??_R1A@?0A@EA@GameObjObserverClass@@8
rdata$r	ENDS
;	COMDAT ??_R3Ra2Ven_MirageTank@@8
rdata$r	SEGMENT
??_R3Ra2Ven_MirageTank@@8 DD 00H			; Ra2Ven_MirageTank::`RTTI Class Hierarchy Descriptor'
	DD	00H
	DD	04H
	DD	FLAT:??_R2Ra2Ven_MirageTank@@8
rdata$r	ENDS
;	COMDAT ??_R0?AVRa2Ven_MirageTank@@@8
_DATA	SEGMENT
??_R0?AVRa2Ven_MirageTank@@@8 DD FLAT:??_7type_info@@6B@ ; Ra2Ven_MirageTank `RTTI Type Descriptor'
	DD	00H
	DB	'.?AVRa2Ven_MirageTank@@', 00H
_DATA	ENDS
;	COMDAT ??_R4Ra2Ven_MirageTank@@6B@
rdata$r	SEGMENT
??_R4Ra2Ven_MirageTank@@6B@ DD 00H			; Ra2Ven_MirageTank::`RTTI Complete Object Locator'
	DD	00H
	DD	00H
	DD	FLAT:??_R0?AVRa2Ven_MirageTank@@@8
	DD	FLAT:??_R3Ra2Ven_MirageTank@@8
rdata$r	ENDS
;	COMDAT ??_R1A@?0A@EA@ScriptImpClass@@8
rdata$r	SEGMENT
??_R1A@?0A@EA@ScriptImpClass@@8 DD FLAT:??_R0?AVScriptImpClass@@@8 ; ScriptImpClass::`RTTI Base Class Descriptor at (0,-1,0,64)'
	DD	02H
	DD	00H
	DD	0ffffffffH
	DD	00H
	DD	040H
	DD	FLAT:??_R3ScriptImpClass@@8
rdata$r	ENDS
;	COMDAT ??_R2ScriptImpClass@@8
rdata$r	SEGMENT
??_R2ScriptImpClass@@8 DD FLAT:??_R1A@?0A@EA@ScriptImpClass@@8 ; ScriptImpClass::`RTTI Base Class Array'
	DD	FLAT:??_R1A@?0A@EA@ScriptClass@@8
	DD	FLAT:??_R1A@?0A@EA@GameObjObserverClass@@8
rdata$r	ENDS
;	COMDAT ??_R3ScriptImpClass@@8
rdata$r	SEGMENT
??_R3ScriptImpClass@@8 DD 00H				; ScriptImpClass::`RTTI Class Hierarchy Descriptor'
	DD	00H
	DD	03H
	DD	FLAT:??_R2ScriptImpClass@@8
rdata$r	ENDS
;	COMDAT ??_R0?AVScriptImpClass@@@8
_DATA	SEGMENT
??_R0?AVScriptImpClass@@@8 DD FLAT:??_7type_info@@6B@	; ScriptImpClass `RTTI Type Descriptor'
	DD	00H
	DB	'.?AVScriptImpClass@@', 00H
_DATA	ENDS
;	COMDAT ??_R4ScriptImpClass@@6B@
rdata$r	SEGMENT
??_R4ScriptImpClass@@6B@ DD 00H				; ScriptImpClass::`RTTI Complete Object Locator'
	DD	00H
	DD	00H
	DD	FLAT:??_R0?AVScriptImpClass@@@8
	DD	FLAT:??_R3ScriptImpClass@@8
rdata$r	ENDS
;	COMDAT ??_R4GameObjObserverClass@@6B@
rdata$r	SEGMENT
??_R4GameObjObserverClass@@6B@ DD 00H			; GameObjObserverClass::`RTTI Complete Object Locator'
	DD	00H
	DD	00H
	DD	FLAT:??_R0?AVGameObjObserverClass@@@8
	DD	FLAT:??_R3GameObjObserverClass@@8
rdata$r	ENDS
;	COMDAT ??_R2GameObjObserverClass@@8
rdata$r	SEGMENT
??_R2GameObjObserverClass@@8 DD FLAT:??_R1A@?0A@EA@GameObjObserverClass@@8 ; GameObjObserverClass::`RTTI Base Class Array'
rdata$r	ENDS
;	COMDAT ??_R3GameObjObserverClass@@8
rdata$r	SEGMENT
??_R3GameObjObserverClass@@8 DD 00H			; GameObjObserverClass::`RTTI Class Hierarchy Descriptor'
	DD	00H
	DD	01H
	DD	FLAT:??_R2GameObjObserverClass@@8
rdata$r	ENDS
;	COMDAT ??_R0?AVGameObjObserverClass@@@8
_DATA	SEGMENT
??_R0?AVGameObjObserverClass@@@8 DD FLAT:??_7type_info@@6B@ ; GameObjObserverClass `RTTI Type Descriptor'
	DD	00H
	DB	'.?AVGameObjObserverClass@@', 00H
_DATA	ENDS
;	COMDAT ??_R1A@?0A@EA@GameObjObserverClass@@8
rdata$r	SEGMENT
??_R1A@?0A@EA@GameObjObserverClass@@8 DD FLAT:??_R0?AVGameObjObserverClass@@@8 ; GameObjObserverClass::`RTTI Base Class Descriptor at (0,-1,0,64)'
	DD	00H
	DD	00H
	DD	0ffffffffH
	DD	00H
	DD	040H
	DD	FLAT:??_R3GameObjObserverClass@@8
rdata$r	ENDS
;	COMDAT ??_R1A@?0A@EA@ScriptClass@@8
rdata$r	SEGMENT
??_R1A@?0A@EA@ScriptClass@@8 DD FLAT:??_R0?AVScriptClass@@@8 ; ScriptClass::`RTTI Base Class Descriptor at (0,-1,0,64)'
	DD	01H
	DD	00H
	DD	0ffffffffH
	DD	00H
	DD	040H
	DD	FLAT:??_R3ScriptClass@@8
rdata$r	ENDS
;	COMDAT ??_R2ScriptClass@@8
rdata$r	SEGMENT
??_R2ScriptClass@@8 DD FLAT:??_R1A@?0A@EA@ScriptClass@@8 ; ScriptClass::`RTTI Base Class Array'
	DD	FLAT:??_R1A@?0A@EA@GameObjObserverClass@@8
rdata$r	ENDS
;	COMDAT ??_R3ScriptClass@@8
rdata$r	SEGMENT
??_R3ScriptClass@@8 DD 00H				; ScriptClass::`RTTI Class Hierarchy Descriptor'
	DD	00H
	DD	02H
	DD	FLAT:??_R2ScriptClass@@8
rdata$r	ENDS
;	COMDAT ??_R0?AVScriptClass@@@8
_DATA	SEGMENT
??_R0?AVScriptClass@@@8 DD FLAT:??_7type_info@@6B@	; ScriptClass `RTTI Type Descriptor'
	DD	00H
	DB	'.?AVScriptClass@@', 00H
_DATA	ENDS
;	COMDAT ??_R4ScriptClass@@6B@
rdata$r	SEGMENT
??_R4ScriptClass@@6B@ DD 00H				; ScriptClass::`RTTI Complete Object Locator'
	DD	00H
	DD	00H
	DD	FLAT:??_R0?AVScriptClass@@@8
	DD	FLAT:??_R3ScriptClass@@8
rdata$r	ENDS
;	COMDAT ??_R1A@?0A@EA@ScriptFactory@@8
rdata$r	SEGMENT
??_R1A@?0A@EA@ScriptFactory@@8 DD FLAT:??_R0?AVScriptFactory@@@8 ; ScriptFactory::`RTTI Base Class Descriptor at (0,-1,0,64)'
	DD	00H
	DD	00H
	DD	0ffffffffH
	DD	00H
	DD	040H
	DD	FLAT:??_R3ScriptFactory@@8
rdata$r	ENDS
;	COMDAT ??_R2ScriptFactory@@8
rdata$r	SEGMENT
??_R2ScriptFactory@@8 DD FLAT:??_R1A@?0A@EA@ScriptFactory@@8 ; ScriptFactory::`RTTI Base Class Array'
rdata$r	ENDS
;	COMDAT ??_R3ScriptFactory@@8
rdata$r	SEGMENT
??_R3ScriptFactory@@8 DD 00H				; ScriptFactory::`RTTI Class Hierarchy Descriptor'
	DD	00H
	DD	01H
	DD	FLAT:??_R2ScriptFactory@@8
rdata$r	ENDS
;	COMDAT ??_R0?AVScriptFactory@@@8
_DATA	SEGMENT
??_R0?AVScriptFactory@@@8 DD FLAT:??_7type_info@@6B@	; ScriptFactory `RTTI Type Descriptor'
	DD	00H
	DB	'.?AVScriptFactory@@', 00H
_DATA	ENDS
;	COMDAT ??_R4ScriptFactory@@6B@
rdata$r	SEGMENT
??_R4ScriptFactory@@6B@ DD 00H				; ScriptFactory::`RTTI Complete Object Locator'
	DD	00H
	DD	00H
	DD	FLAT:??_R0?AVScriptFactory@@@8
	DD	FLAT:??_R3ScriptFactory@@8
rdata$r	ENDS
;	COMDAT ??_C@_0DG@DGMOGKCJ@ScriptRegistrant?$DMclass?5Ra2Ven_Fi@
CONST	SEGMENT
??_C@_0DG@DGMOGKCJ@ScriptRegistrant?$DMclass?5Ra2Ven_Fi@ DB 'ScriptRegist'
	DB	'rant<class Ra2Ven_FireAnimation2>::Create', 00H ; `string'
CONST	ENDS
;	COMDAT ??_C@_0DF@BFGICEEB@ScriptRegistrant?$DMclass?5Ra2Ven_Fi@
CONST	SEGMENT
??_C@_0DF@BFGICEEB@ScriptRegistrant?$DMclass?5Ra2Ven_Fi@ DB 'ScriptRegist'
	DB	'rant<class Ra2Ven_FireAnimation>::Create', 00H ; `string'
CONST	ENDS
;	COMDAT ??_C@_0DK@JMICGHOF@ScriptRegistrant?$DMclass?5Ra2Ven_Dp@
CONST	SEGMENT
??_C@_0DK@JMICGHOF@ScriptRegistrant?$DMclass?5Ra2Ven_Dp@ DB 'ScriptRegist'
	DB	'rant<class Ra2Ven_Dplbl_Vhcls_Cursor>::Create', 00H ; `string'
CONST	ENDS
;	COMDAT ??_C@_0DG@MJKONFGH@ScriptRegistrant?$DMclass?5Ra2Ven_Oc@
CONST	SEGMENT
??_C@_0DG@MJKONFGH@ScriptRegistrant?$DMclass?5Ra2Ven_Oc@ DB 'ScriptRegist'
	DB	'rant<class Ra2Ven_OccupentWeapon>::Create', 00H ; `string'
CONST	ENDS
;	COMDAT ??_C@_0DG@OOJINJBE@ScriptRegistrant?$DMclass?5Ra2Ven_Tu@
CONST	SEGMENT
??_C@_0DG@OOJINJBE@ScriptRegistrant?$DMclass?5Ra2Ven_Tu@ DB 'ScriptRegist'
	DB	'rant<class Ra2Ven_TurretSoundObj>::Create', 00H ; `string'
CONST	ENDS
;	COMDAT ??_C@_0DD@POLGNOHI@ScriptRegistrant?$DMclass?5Ra2Ven_Tu@
CONST	SEGMENT
??_C@_0DD@POLGNOHI@ScriptRegistrant?$DMclass?5Ra2Ven_Tu@ DB 'ScriptRegist'
	DB	'rant<class Ra2Ven_TurretSound>::Create', 00H ; `string'
CONST	ENDS
;	COMDAT ??_C@_0DC@INMNJHPG@ScriptRegistrant?$DMclass?5Ra2Ven_Ra@
CONST	SEGMENT
??_C@_0DC@INMNJHPG@ScriptRegistrant?$DMclass?5Ra2Ven_Ra@ DB 'ScriptRegist'
	DB	'rant<class Ra2Ven_RandomTree>::Create', 00H	; `string'
CONST	ENDS
;	COMDAT ??_C@_0DI@FANHLGOD@ScriptRegistrant?$DMclass?5Ra2Ven_De@
CONST	SEGMENT
??_C@_0DI@FANHLGOD@ScriptRegistrant?$DMclass?5Ra2Ven_De@ DB 'ScriptRegist'
	DB	'rant<class Ra2Ven_Deploy_Animation>::Create', 00H ; `string'
CONST	ENDS
;	COMDAT ??_C@_0DK@HOHLGPJO@ScriptRegistrant?$DMclass?5Ra2Ven_De@
CONST	SEGMENT
??_C@_0DK@HOHLGPJO@ScriptRegistrant?$DMclass?5Ra2Ven_De@ DB 'ScriptRegist'
	DB	'rant<class Ra2Ven_Deployable_Vehicle>::Create', 00H ; `string'
CONST	ENDS
;	COMDAT ??_C@_0DB@EDDLGFLD@ScriptRegistrant?$DMclass?5Ra2Ven_De@
CONST	SEGMENT
??_C@_0DB@EDDLGFLD@ScriptRegistrant?$DMclass?5Ra2Ven_De@ DB 'ScriptRegist'
	DB	'rant<class Ra2Ven_DemoTruck>::Create', 00H	; `string'
CONST	ENDS
;	COMDAT ??_C@_0DG@MFLNLDCP@ScriptRegistrant?$DMclass?5Ra2Ven_Ve@
CONST	SEGMENT
??_C@_0DG@MFLNLDCP@ScriptRegistrant?$DMclass?5Ra2Ven_Ve@ DB 'ScriptRegist'
	DB	'rant<class Ra2Ven_VehicleFalling>::Create', 00H ; `string'
CONST	ENDS
;	COMDAT ??_C@_1GG@OGNLNBPD@?$AAx?$AA?3?$AA?2?$AAg?$AAi?$AAt?$AAh?$AAu?$AAb?$AA?2?$AAr?$AAe?$AAn?$AAe?$AAg?$AAa?$AAd?$AAe?$AA?2?$AAd?$AAr?$AAa?$AAg?$AAo?$AAn?$AAa?$AAd?$AAe?$AA_?$AAr?$AAx?$AAd@
CONST	SEGMENT
??_C@_1GG@OGNLNBPD@?$AAx?$AA?3?$AA?2?$AAg?$AAi?$AAt?$AAh?$AAu?$AAb?$AA?2?$AAr?$AAe?$AAn?$AAe?$AAg?$AAa?$AAd?$AAe?$AA?2?$AAd?$AAr?$AAa?$AAg?$AAo?$AAn?$AAa?$AAd?$AAe?$AA_?$AAr?$AAx?$AAd@ DB 'x'
	DB	00H, ':', 00H, '\', 00H, 'g', 00H, 'i', 00H, 't', 00H, 'h', 00H
	DB	'u', 00H, 'b', 00H, '\', 00H, 'r', 00H, 'e', 00H, 'n', 00H, 'e'
	DB	00H, 'g', 00H, 'a', 00H, 'd', 00H, 'e', 00H, '\', 00H, 'd', 00H
	DB	'r', 00H, 'a', 00H, 'g', 00H, 'o', 00H, 'n', 00H, 'a', 00H, 'd'
	DB	00H, 'e', 00H, '_', 00H, 'r', 00H, 'x', 00H, 'd', 00H, '\', 00H
	DB	's', 00H, 'c', 00H, 'r', 00H, 'i', 00H, 'p', 00H, 't', 00H, 's'
	DB	00H, '\', 00H, 's', 00H, 'c', 00H, 'r', 00H, 'i', 00H, 'p', 00H
	DB	't', 00H, 's', 00H, '.', 00H, 'h', 00H, 00H, 00H ; `string'
CONST	ENDS
;	COMDAT ??_C@_0DD@KMKBFFOF@x?3?2github?2renegade?2dragonade_rxd@
CONST	SEGMENT
??_C@_0DD@KMKBFFOF@x?3?2github?2renegade?2dragonade_rxd@ DB 'x:\github\re'
	DB	'negade\dragonade_rxd\scripts\scripts.h', 00H ; `string'
CONST	ENDS
;	COMDAT ??_C@_0DC@EIHCIODN@ScriptRegistrant?$DMclass?5Ra2Ven_Mi@
CONST	SEGMENT
??_C@_0DC@EIHCIODN@ScriptRegistrant?$DMclass?5Ra2Ven_Mi@ DB 'ScriptRegist'
	DB	'rant<class Ra2Ven_MirageTank>::Create', 00H	; `string'
CONST	ENDS
;	COMDAT ??_C@_0BG@EENEMILA@Ra2Ven_FireAnimation2?$AA@
CONST	SEGMENT
??_C@_0BG@EENEMILA@Ra2Ven_FireAnimation2?$AA@ DB 'Ra2Ven_FireAnimation2', 00H ; `string'
CONST	ENDS
;	COMDAT ??_C@_0PB@LHDHLHDH@ParentBone?3string?0MuzzleBone?3str@
CONST	SEGMENT
??_C@_0PB@LHDHLHDH@ParentBone?3string?0MuzzleBone?3str@ DB 'ParentBone:st'
	DB	'ring,MuzzleBone:string,Animation1:string,FirstFrame1=0:float,'
	DB	'LastFrame1=0:float,Animation2:string,FirstFrame2=0:float,Last'
	DB	'Frame2=0:float,AfAnimation:string,AfFirstFrame=0:float,AfLast'
	DB	'Frame=0:float,Time=0.1:float,TimerNumber:int', 00H ; `string'
CONST	ENDS
;	COMDAT ??_7?$ScriptRegistrant@VRa2Ven_FireAnimation2@@@@6B@
CONST	SEGMENT
??_7?$ScriptRegistrant@VRa2Ven_FireAnimation2@@@@6B@ DD FLAT:??_R4?$ScriptRegistrant@VRa2Ven_FireAnimation2@@@@6B@ ; ScriptRegistrant<Ra2Ven_FireAnimation2>::`vftable'
	DD	FLAT:??_E?$ScriptRegistrant@VRa2Ven_FireAnimation2@@@@UAEPAXI@Z
	DD	FLAT:?Create@?$ScriptRegistrant@VRa2Ven_FireAnimation2@@@@UAEPAVScriptImpClass@@XZ
CONST	ENDS
;	COMDAT ??_C@_0BF@BIDCJCOM@Ra2Ven_FireAnimation?$AA@
CONST	SEGMENT
??_C@_0BF@BIDCJCOM@Ra2Ven_FireAnimation?$AA@ DB 'Ra2Ven_FireAnimation', 00H ; `string'
CONST	ENDS
;	COMDAT ??_C@_0LK@ENFMEDEE@ParentBone?3string?0MuzzleBone?3str@
CONST	SEGMENT
??_C@_0LK@ENFMEDEE@ParentBone?3string?0MuzzleBone?3str@ DB 'ParentBone:st'
	DB	'ring,MuzzleBone:string,Animation:string,FirstFrame=0:float,La'
	DB	'stFrame=0:float,AfAnimation=none:string,AfFirstFrame=0:float,'
	DB	'AfLastFrame=0:float,Time=0.1:float,TimerNumber:int', 00H ; `string'
CONST	ENDS
;	COMDAT ??_7?$ScriptRegistrant@VRa2Ven_FireAnimation@@@@6B@
CONST	SEGMENT
??_7?$ScriptRegistrant@VRa2Ven_FireAnimation@@@@6B@ DD FLAT:??_R4?$ScriptRegistrant@VRa2Ven_FireAnimation@@@@6B@ ; ScriptRegistrant<Ra2Ven_FireAnimation>::`vftable'
	DD	FLAT:??_E?$ScriptRegistrant@VRa2Ven_FireAnimation@@@@UAEPAXI@Z
	DD	FLAT:?Create@?$ScriptRegistrant@VRa2Ven_FireAnimation@@@@UAEPAVScriptImpClass@@XZ
CONST	ENDS
;	COMDAT ??_C@_0BK@CNBANLED@Ra2Ven_Dplbl_Vhcls_Cursor?$AA@
CONST	SEGMENT
??_C@_0BK@CNBANLED@Ra2Ven_Dplbl_Vhcls_Cursor?$AA@ DB 'Ra2Ven_Dplbl_Vhcls_'
	DB	'Cursor', 00H				; `string'
CONST	ENDS
;	COMDAT ??_C@_0JN@GMHFPBPE@Cursor_preset?3string?0CursorBoneN@
CONST	SEGMENT
??_C@_0JN@GMHFPBPE@Cursor_preset?3string?0CursorBoneN@ DB 'Cursor_preset:'
	DB	'string,CursorBoneName:string,CursorExplosion:string,Animation'
	DB	'_Preset:string,oldTnk_Warhead:string,oldTnk_Dammage:float,Exp'
	DB	'losion_preset:string', 00H			; `string'
CONST	ENDS
;	COMDAT ??_7?$ScriptRegistrant@VRa2Ven_Dplbl_Vhcls_Cursor@@@@6B@
CONST	SEGMENT
??_7?$ScriptRegistrant@VRa2Ven_Dplbl_Vhcls_Cursor@@@@6B@ DD FLAT:??_R4?$ScriptRegistrant@VRa2Ven_Dplbl_Vhcls_Cursor@@@@6B@ ; ScriptRegistrant<Ra2Ven_Dplbl_Vhcls_Cursor>::`vftable'
	DD	FLAT:??_E?$ScriptRegistrant@VRa2Ven_Dplbl_Vhcls_Cursor@@@@UAEPAXI@Z
	DD	FLAT:?Create@?$ScriptRegistrant@VRa2Ven_Dplbl_Vhcls_Cursor@@@@UAEPAVScriptImpClass@@XZ
CONST	ENDS
;	COMDAT ??_C@_0BG@LPHGIKDE@Ra2Ven_OccupentWeapon?$AA@
CONST	SEGMENT
??_C@_0BG@LPHGIKDE@Ra2Ven_OccupentWeapon?$AA@ DB 'Ra2Ven_OccupentWeapon', 00H ; `string'
CONST	ENDS
;	COMDAT ??_C@_0OH@ENMICBLF@Character1?3string?0PowerUp1?3strin@
CONST	SEGMENT
??_C@_0OH@ENMICBLF@Character1?3string?0PowerUp1?3strin@ DB 'Character1:st'
	DB	'ring,PowerUp1:string,Weapon1:string,Character2:string,PowerUp'
	DB	'2:string,Weapon2:string,Character3:string,PowerUp3:string,Wea'
	DB	'pon3:string,Character4:string,PowerUp4:string,Weapon4:string,'
	DB	'DefPowerUp:string,DefWeapon:string', 00H	; `string'
CONST	ENDS
;	COMDAT ??_7?$ScriptRegistrant@VRa2Ven_OccupentWeapon@@@@6B@
CONST	SEGMENT
??_7?$ScriptRegistrant@VRa2Ven_OccupentWeapon@@@@6B@ DD FLAT:??_R4?$ScriptRegistrant@VRa2Ven_OccupentWeapon@@@@6B@ ; ScriptRegistrant<Ra2Ven_OccupentWeapon>::`vftable'
	DD	FLAT:??_E?$ScriptRegistrant@VRa2Ven_OccupentWeapon@@@@UAEPAXI@Z
	DD	FLAT:?Create@?$ScriptRegistrant@VRa2Ven_OccupentWeapon@@@@UAEPAVScriptImpClass@@XZ
CONST	ENDS
;	COMDAT ??_C@_0BG@HBACDDIO@Ra2Ven_TurretSoundObj?$AA@
CONST	SEGMENT
??_C@_0BG@HBACDDIO@Ra2Ven_TurretSoundObj?$AA@ DB 'Ra2Ven_TurretSoundObj', 00H ; `string'
CONST	ENDS
;	COMDAT ??_C@_0IG@FGCNNLKF@RotationAngleLimit?3int?0Rotate_3d@
CONST	SEGMENT
??_C@_0IG@FGCNNLKF@RotationAngleLimit?3int?0Rotate_3d@ DB 'RotationAngleL'
	DB	'imit:int,Rotate_3dSound:string,Explosion_Preset:string,Time=0'
	DB	'.5:float,TimerNumber:int,Wav_Length:float,TimerNumber2:int', 00H ; `string'
CONST	ENDS
;	COMDAT ??_7?$ScriptRegistrant@VRa2Ven_TurretSoundObj@@@@6B@
CONST	SEGMENT
??_7?$ScriptRegistrant@VRa2Ven_TurretSoundObj@@@@6B@ DD FLAT:??_R4?$ScriptRegistrant@VRa2Ven_TurretSoundObj@@@@6B@ ; ScriptRegistrant<Ra2Ven_TurretSoundObj>::`vftable'
	DD	FLAT:??_E?$ScriptRegistrant@VRa2Ven_TurretSoundObj@@@@UAEPAXI@Z
	DD	FLAT:?Create@?$ScriptRegistrant@VRa2Ven_TurretSoundObj@@@@UAEPAVScriptImpClass@@XZ
CONST	ENDS
;	COMDAT ??_C@_0BD@PLBPDJIG@Ra2Ven_TurretSound?$AA@
CONST	SEGMENT
??_C@_0BD@PLBPDJIG@Ra2Ven_TurretSound?$AA@ DB 'Ra2Ven_TurretSound', 00H ; `string'
CONST	ENDS
;	COMDAT ??_C@_0BG@DLGJMNLO@TurretSoundObj?3string?$AA@
CONST	SEGMENT
??_C@_0BG@DLGJMNLO@TurretSoundObj?3string?$AA@ DB 'TurretSoundObj:string', 00H ; `string'
CONST	ENDS
;	COMDAT ??_7?$ScriptRegistrant@VRa2Ven_TurretSound@@@@6B@
CONST	SEGMENT
??_7?$ScriptRegistrant@VRa2Ven_TurretSound@@@@6B@ DD FLAT:??_R4?$ScriptRegistrant@VRa2Ven_TurretSound@@@@6B@ ; ScriptRegistrant<Ra2Ven_TurretSound>::`vftable'
	DD	FLAT:??_E?$ScriptRegistrant@VRa2Ven_TurretSound@@@@UAEPAXI@Z
	DD	FLAT:?Create@?$ScriptRegistrant@VRa2Ven_TurretSound@@@@UAEPAVScriptImpClass@@XZ
CONST	ENDS
;	COMDAT ??_C@_0BC@NIFCABPC@Ra2Ven_RandomTree?$AA@
CONST	SEGMENT
??_C@_0BC@NIFCABPC@Ra2Ven_RandomTree?$AA@ DB 'Ra2Ven_RandomTree', 00H ; `string'
CONST	ENDS
;	COMDAT ??_C@_0FP@FKMLMEIK@Tree1_Preset?3string?0Tree2_Preset@
CONST	SEGMENT
??_C@_0FP@FKMLMEIK@Tree1_Preset?3string?0Tree2_Preset@ DB 'Tree1_Preset:s'
	DB	'tring,Tree2_Preset=none:string,Tree3_Preset=none:string,Tree4'
	DB	'_Preset=none:string', 00H			; `string'
CONST	ENDS
;	COMDAT ??_7?$ScriptRegistrant@VRa2Ven_RandomTree@@@@6B@
CONST	SEGMENT
??_7?$ScriptRegistrant@VRa2Ven_RandomTree@@@@6B@ DD FLAT:??_R4?$ScriptRegistrant@VRa2Ven_RandomTree@@@@6B@ ; ScriptRegistrant<Ra2Ven_RandomTree>::`vftable'
	DD	FLAT:??_E?$ScriptRegistrant@VRa2Ven_RandomTree@@@@UAEPAXI@Z
	DD	FLAT:?Create@?$ScriptRegistrant@VRa2Ven_RandomTree@@@@UAEPAVScriptImpClass@@XZ
CONST	ENDS
;	COMDAT ??_C@_0BI@NIPJOPPL@Ra2Ven_Deploy_Animation?$AA@
CONST	SEGMENT
??_C@_0BI@NIPJOPPL@Ra2Ven_Deploy_Animation?$AA@ DB 'Ra2Ven_Deploy_Animati'
	DB	'on', 00H					; `string'
CONST	ENDS
;	COMDAT ??_C@_0GM@CAPOHMGB@Deployed_Tank_Preset?3string?0oldT@
CONST	SEGMENT
??_C@_0GM@CAPOHMGB@Deployed_Tank_Preset?3string?0oldT@ DB 'Deployed_Tank_'
	DB	'Preset:string,oldTnk_Warhead:string,oldTnk_Dammage:float,Anim'
	DB	'ation_Time:float,TimerNumber:int', 00H	; `string'
CONST	ENDS
;	COMDAT ??_7?$ScriptRegistrant@VRa2Ven_Deploy_Animation@@@@6B@
CONST	SEGMENT
??_7?$ScriptRegistrant@VRa2Ven_Deploy_Animation@@@@6B@ DD FLAT:??_R4?$ScriptRegistrant@VRa2Ven_Deploy_Animation@@@@6B@ ; ScriptRegistrant<Ra2Ven_Deploy_Animation>::`vftable'
	DD	FLAT:??_E?$ScriptRegistrant@VRa2Ven_Deploy_Animation@@@@UAEPAXI@Z
	DD	FLAT:?Create@?$ScriptRegistrant@VRa2Ven_Deploy_Animation@@@@UAEPAVScriptImpClass@@XZ
CONST	ENDS
;	COMDAT ??_C@_0BK@LGMKNIIK@Ra2Ven_Deployable_Vehicle?$AA@
CONST	SEGMENT
??_C@_0BK@LGMKNIIK@Ra2Ven_Deployable_Vehicle?$AA@ DB 'Ra2Ven_Deployable_V'
	DB	'ehicle', 00H				; `string'
CONST	ENDS
;	COMDAT ??_C@_0FL@NAMBHFEA@Animation_Preset?3string?0oldTnk_W@
CONST	SEGMENT
??_C@_0FL@NAMBHFEA@Animation_Preset?3string?0oldTnk_W@ DB 'Animation_Pres'
	DB	'et:string,oldTnk_Warhead:string,oldTnk_Dammage:float,Explosio'
	DB	'n_preset:string', 00H			; `string'
CONST	ENDS
;	COMDAT ??_7?$ScriptRegistrant@VRa2Ven_Deployable_Vehicle@@@@6B@
CONST	SEGMENT
??_7?$ScriptRegistrant@VRa2Ven_Deployable_Vehicle@@@@6B@ DD FLAT:??_R4?$ScriptRegistrant@VRa2Ven_Deployable_Vehicle@@@@6B@ ; ScriptRegistrant<Ra2Ven_Deployable_Vehicle>::`vftable'
	DD	FLAT:??_E?$ScriptRegistrant@VRa2Ven_Deployable_Vehicle@@@@UAEPAXI@Z
	DD	FLAT:?Create@?$ScriptRegistrant@VRa2Ven_Deployable_Vehicle@@@@UAEPAVScriptImpClass@@XZ
CONST	ENDS
;	COMDAT ??_C@_0BB@IOMCJFGK@Ra2Ven_DemoTruck?$AA@
CONST	SEGMENT
??_C@_0BB@IOMCJFGK@Ra2Ven_DemoTruck?$AA@ DB 'Ra2Ven_DemoTruck', 00H ; `string'
CONST	ENDS
;	COMDAT ??_C@_0DD@IHFCKPOA@Dammage?3float?0Warhead?3string?0Dem@
CONST	SEGMENT
??_C@_0DD@IHFCKPOA@Dammage?3float?0Warhead?3string?0Dem@ DB 'Dammage:floa'
	DB	't,Warhead:string,Demo_Explosion:string', 00H ; `string'
CONST	ENDS
;	COMDAT ??_7?$ScriptRegistrant@VRa2Ven_DemoTruck@@@@6B@
CONST	SEGMENT
??_7?$ScriptRegistrant@VRa2Ven_DemoTruck@@@@6B@ DD FLAT:??_R4?$ScriptRegistrant@VRa2Ven_DemoTruck@@@@6B@ ; ScriptRegistrant<Ra2Ven_DemoTruck>::`vftable'
	DD	FLAT:??_E?$ScriptRegistrant@VRa2Ven_DemoTruck@@@@UAEPAXI@Z
	DD	FLAT:?Create@?$ScriptRegistrant@VRa2Ven_DemoTruck@@@@UAEPAVScriptImpClass@@XZ
CONST	ENDS
;	COMDAT ??_C@_0BG@PMPONJNL@Ra2Ven_VehicleFalling?$AA@
CONST	SEGMENT
??_C@_0BG@PMPONJNL@Ra2Ven_VehicleFalling?$AA@ DB 'Ra2Ven_VehicleFalling', 00H ; `string'
CONST	ENDS
;	COMDAT ??_C@_0IG@MALPNPAH@ZValueBeforeStartFallingMode?3int@
CONST	SEGMENT
??_C@_0IG@MALPNPAH@ZValueBeforeStartFallingMode?3int@ DB 'ZValueBeforeSta'
	DB	'rtFallingMode:int=3,ImpactExplosion_Preset:string,Warhead:str'
	DB	'ing,DammageMultiplier=10:int,Time=1:float,TimerNumber:int', 00H ; `string'
CONST	ENDS
;	COMDAT ??_7?$ScriptRegistrant@VRa2Ven_VehicleFalling@@@@6B@
CONST	SEGMENT
??_7?$ScriptRegistrant@VRa2Ven_VehicleFalling@@@@6B@ DD FLAT:??_R4?$ScriptRegistrant@VRa2Ven_VehicleFalling@@@@6B@ ; ScriptRegistrant<Ra2Ven_VehicleFalling>::`vftable'
	DD	FLAT:??_E?$ScriptRegistrant@VRa2Ven_VehicleFalling@@@@UAEPAXI@Z
	DD	FLAT:?Create@?$ScriptRegistrant@VRa2Ven_VehicleFalling@@@@UAEPAVScriptImpClass@@XZ
CONST	ENDS
;	COMDAT ??_C@_0BC@PLFJDIBO@Ra2Ven_MirageTank?$AA@
CONST	SEGMENT
??_C@_0BC@PLFJDIBO@Ra2Ven_MirageTank?$AA@ DB 'Ra2Ven_MirageTank', 00H ; `string'
CONST	ENDS
;	COMDAT ??_C@_0JE@BOODGAMG@Tree1_Preset?3string?0Tree2_Preset@
CONST	SEGMENT
??_C@_0JE@BOODGAMG@Tree1_Preset?3string?0Tree2_Preset@ DB 'Tree1_Preset:s'
	DB	'tring,Tree2_Preset=none:string,Tree3_Preset=none:string,Tree4'
	DB	'_Preset=none:string,Explosion_Preset:string,Time=1:float,Time'
	DB	'rNumber:int', 00H				; `string'
CONST	ENDS
;	COMDAT ??_7?$ScriptRegistrant@VRa2Ven_MirageTank@@@@6B@
CONST	SEGMENT
??_7?$ScriptRegistrant@VRa2Ven_MirageTank@@@@6B@ DD FLAT:??_R4?$ScriptRegistrant@VRa2Ven_MirageTank@@@@6B@ ; ScriptRegistrant<Ra2Ven_MirageTank>::`vftable'
	DD	FLAT:??_E?$ScriptRegistrant@VRa2Ven_MirageTank@@@@UAEPAXI@Z
	DD	FLAT:?Create@?$ScriptRegistrant@VRa2Ven_MirageTank@@@@UAEPAVScriptImpClass@@XZ
CONST	ENDS
;	COMDAT ??_C@_0L@BCJCHGNO@Animation2?$AA@
CONST	SEGMENT
??_C@_0L@BCJCHGNO@Animation2?$AA@ DB 'Animation2', 00H	; `string'
CONST	ENDS
;	COMDAT ??_C@_0M@MMCGHGPC@FirstFrame2?$AA@
CONST	SEGMENT
??_C@_0M@MMCGHGPC@FirstFrame2?$AA@ DB 'FirstFrame2', 00H ; `string'
CONST	ENDS
;	COMDAT ??_C@_0L@DIHIAKBP@LastFrame2?$AA@
CONST	SEGMENT
??_C@_0L@DIHIAKBP@LastFrame2?$AA@ DB 'LastFrame2', 00H	; `string'
CONST	ENDS
;	COMDAT ??_C@_0L@DJLPCFBN@Animation1?$AA@
CONST	SEGMENT
??_C@_0L@DJLPCFBN@Animation1?$AA@ DB 'Animation1', 00H	; `string'
CONST	ENDS
;	COMDAT ??_C@_0M@OHALCFDB@FirstFrame1?$AA@
CONST	SEGMENT
??_C@_0M@OHALCFDB@FirstFrame1?$AA@ DB 'FirstFrame1', 00H ; `string'
CONST	ENDS
;	COMDAT ??_C@_0L@BDFFFJNM@LastFrame1?$AA@
CONST	SEGMENT
??_C@_0L@BDFFFJNM@LastFrame1?$AA@ DB 'LastFrame1', 00H	; `string'
CONST	ENDS
;	COMDAT ??_C@_0N@CBFBEAJM@AfFirstFrame?$AA@
CONST	SEGMENT
??_C@_0N@CBFBEAJM@AfFirstFrame?$AA@ DB 'AfFirstFrame', 00H ; `string'
CONST	ENDS
;	COMDAT ??_C@_0M@ODOHIDNP@AfLastFrame?$AA@
CONST	SEGMENT
??_C@_0M@ODOHIDNP@AfLastFrame?$AA@ DB 'AfLastFrame', 00H ; `string'
CONST	ENDS
;	COMDAT ??_C@_09ONEINPNJ@Animation?$AA@
CONST	SEGMENT
??_C@_09ONEINPNJ@Animation?$AA@ DB 'Animation', 00H	; `string'
CONST	ENDS
;	COMDAT ??_C@_0L@OCNGDGDE@FirstFrame?$AA@
CONST	SEGMENT
??_C@_0L@OCNGDGDE@FirstFrame?$AA@ DB 'FirstFrame', 00H	; `string'
CONST	ENDS
;	COMDAT ??_C@_09GIBPIKCC@LastFrame?$AA@
CONST	SEGMENT
??_C@_09GIBPIKCC@LastFrame?$AA@ DB 'LastFrame', 00H	; `string'
CONST	ENDS
;	COMDAT ??_C@_0L@MEDCFECO@ParentBone?$AA@
CONST	SEGMENT
??_C@_0L@MEDCFECO@ParentBone?$AA@ DB 'ParentBone', 00H	; `string'
CONST	ENDS
;	COMDAT ??_C@_0L@MOEDLNPI@MuzzleBone?$AA@
CONST	SEGMENT
??_C@_0L@MOEDLNPI@MuzzleBone?$AA@ DB 'MuzzleBone', 00H	; `string'
CONST	ENDS
;	COMDAT ??_C@_0M@GGLANGCE@AfAnimation?$AA@
CONST	SEGMENT
??_C@_0M@GGLANGCE@AfAnimation?$AA@ DB 'AfAnimation', 00H ; `string'
CONST	ENDS
;	COMDAT ??_C@_0O@OONMNLEP@Cursor_preset?$AA@
CONST	SEGMENT
??_C@_0O@OONMNLEP@Cursor_preset?$AA@ DB 'Cursor_preset', 00H ; `string'
CONST	ENDS
;	COMDAT ??_C@_0BA@LLDLKCGJ@CursorExplosion?$AA@
CONST	SEGMENT
??_C@_0BA@LLDLKCGJ@CursorExplosion?$AA@ DB 'CursorExplosion', 00H ; `string'
CONST	ENDS
;	COMDAT ??_C@_0P@GDEJBMLM@CursorBoneName?$AA@
CONST	SEGMENT
??_C@_0P@GDEJBMLM@CursorBoneName?$AA@ DB 'CursorBoneName', 00H ; `string'
CONST	ENDS
;	COMDAT ??_C@_09ECIHCAAB@DefWeapon?$AA@
CONST	SEGMENT
??_C@_09ECIHCAAB@DefWeapon?$AA@ DB 'DefWeapon', 00H	; `string'
CONST	ENDS
;	COMDAT ??_C@_0L@BANOEFA@DefPowerUp?$AA@
CONST	SEGMENT
??_C@_0L@BANOEFA@DefPowerUp?$AA@ DB 'DefPowerUp', 00H	; `string'
CONST	ENDS
;	COMDAT ??_C@_07LMOMHHLD@Weapon4?$AA@
CONST	SEGMENT
??_C@_07LMOMHHLD@Weapon4?$AA@ DB 'Weapon4', 00H		; `string'
CONST	ENDS
;	COMDAT ??_C@_08IDIDLPOE@PowerUp4?$AA@
CONST	SEGMENT
??_C@_08IDIDLPOE@PowerUp4?$AA@ DB 'PowerUp4', 00H	; `string'
CONST	ENDS
;	COMDAT ??_C@_0L@PDNLECCB@Character4?$AA@
CONST	SEGMENT
??_C@_0L@PDNLECCB@Character4?$AA@ DB 'Character4', 00H	; `string'
CONST	ENDS
;	COMDAT ??_C@_07PDKNOBHE@Weapon3?$AA@
CONST	SEGMENT
??_C@_07PDKNOBHE@Weapon3?$AA@ DB 'Weapon3', 00H		; `string'
CONST	ENDS
;	COMDAT ??_C@_08MMMCCJCD@PowerUp3?$AA@
CONST	SEGMENT
??_C@_08MMMCCJCD@PowerUp3?$AA@ DB 'PowerUp3', 00H	; `string'
CONST	ENDS
;	COMDAT ??_C@_0L@LMJKNEOG@Character3?$AA@
CONST	SEGMENT
??_C@_0L@LMJKNEOG@Character3?$AA@ DB 'Character3', 00H	; `string'
CONST	ENDS
;	COMDAT ??_C@_07OKLGNADF@Weapon2?$AA@
CONST	SEGMENT
??_C@_07OKLGNADF@Weapon2?$AA@ DB 'Weapon2', 00H		; `string'
CONST	ENDS
;	COMDAT ??_C@_08NFNJBIGC@PowerUp2?$AA@
CONST	SEGMENT
??_C@_08NFNJBIGC@PowerUp2?$AA@ DB 'PowerUp2', 00H	; `string'
CONST	ENDS
;	COMDAT ??_C@_0L@KFIBOFKH@Character2?$AA@
CONST	SEGMENT
??_C@_0L@KFIBOFKH@Character2?$AA@ DB 'Character2', 00H	; `string'
CONST	ENDS
;	COMDAT ??_C@_07MBJLIDPG@Weapon1?$AA@
CONST	SEGMENT
??_C@_07MBJLIDPG@Weapon1?$AA@ DB 'Weapon1', 00H		; `string'
CONST	ENDS
;	COMDAT ??_C@_08POPEELKB@PowerUp1?$AA@
CONST	SEGMENT
??_C@_08POPEELKB@PowerUp1?$AA@ DB 'PowerUp1', 00H	; `string'
CONST	ENDS
;	COMDAT ??_C@_0L@IOKMLGGE@Character1?$AA@
CONST	SEGMENT
??_C@_0L@IOKMLGGE@Character1?$AA@ DB 'Character1', 00H	; `string'
CONST	ENDS
;	COMDAT ??_C@_0L@FBNKBEJO@Wav_Length?$AA@
CONST	SEGMENT
??_C@_0L@FBNKBEJO@Wav_Length?$AA@ DB 'Wav_Length', 00H	; `string'
CONST	ENDS
;	COMDAT ??_C@_0N@JNLKLFNP@TimerNumber2?$AA@
CONST	SEGMENT
??_C@_0N@JNLKLFNP@TimerNumber2?$AA@ DB 'TimerNumber2', 00H ; `string'
CONST	ENDS
;	COMDAT ??_C@_0P@DDOEHKHJ@Rotate_3dSound?$AA@
CONST	SEGMENT
??_C@_0P@DDOEHKHJ@Rotate_3dSound?$AA@ DB 'Rotate_3dSound', 00H ; `string'
CONST	ENDS
;	COMDAT ??_C@_06GGDACGEK@turret?$AA@
CONST	SEGMENT
??_C@_06GGDACGEK@turret?$AA@ DB 'turret', 00H		; `string'
CONST	ENDS
;	COMDAT ??_C@_0P@DLMDDCNK@TurretSoundObj?$AA@
CONST	SEGMENT
??_C@_0P@DLMDDCNK@TurretSoundObj?$AA@ DB 'TurretSoundObj', 00H ; `string'
CONST	ENDS
;	COMDAT ??_C@_0BF@NJMIGGAC@Deployed_Tank_Preset?$AA@
CONST	SEGMENT
??_C@_0BF@NJMIGGAC@Deployed_Tank_Preset?$AA@ DB 'Deployed_Tank_Preset', 00H ; `string'
CONST	ENDS
;	COMDAT ??_C@_0P@EBGLEJAP@Animation_Time?$AA@
CONST	SEGMENT
??_C@_0P@EBGLEJAP@Animation_Time?$AA@ DB 'Animation_Time', 00H ; `string'
CONST	ENDS
;	COMDAT ??_C@_0BB@HNOJEBCA@Explosion_preset?$AA@
CONST	SEGMENT
??_C@_0BB@HNOJEBCA@Explosion_preset?$AA@ DB 'Explosion_preset', 00H ; `string'
CONST	ENDS
;	COMDAT ??_C@_0P@GMJNIPNI@oldTnk_Dammage?$AA@
CONST	SEGMENT
??_C@_0P@GMJNIPNI@oldTnk_Dammage?$AA@ DB 'oldTnk_Dammage', 00H ; `string'
CONST	ENDS
;	COMDAT ??_C@_0P@DGDNFMIK@oldTnk_Warhead?$AA@
CONST	SEGMENT
??_C@_0P@DGDNFMIK@oldTnk_Warhead?$AA@ DB 'oldTnk_Warhead', 00H ; `string'
CONST	ENDS
;	COMDAT ??_C@_0BB@FFILIEGA@Animation_Preset?$AA@
CONST	SEGMENT
??_C@_0BB@FFILIEGA@Animation_Preset?$AA@ DB 'Animation_Preset', 00H ; `string'
CONST	ENDS
;	COMDAT ??_C@_0P@PCCPCMPM@Demo_Explosion?$AA@
CONST	SEGMENT
??_C@_0P@PCCPCMPM@Demo_Explosion?$AA@ DB 'Demo_Explosion', 00H ; `string'
CONST	ENDS
;	COMDAT ??_C@_07BJILNGIJ@Dammage?$AA@
CONST	SEGMENT
??_C@_07BJILNGIJ@Dammage?$AA@ DB 'Dammage', 00H		; `string'
CONST	ENDS
;	COMDAT ??_C@_0BH@EPLEJDAG@ImpactExplosion_Preset?$AA@
CONST	SEGMENT
??_C@_0BH@EPLEJDAG@ImpactExplosion_Preset?$AA@ DB 'ImpactExplosion_Preset'
	DB	00H						; `string'
CONST	ENDS
;	COMDAT ??_C@_07EDCLAFNL@Warhead?$AA@
CONST	SEGMENT
??_C@_07EDCLAFNL@Warhead?$AA@ DB 'Warhead', 00H		; `string'
CONST	ENDS
;	COMDAT ??_C@_0BC@ECBOJJIK@DammageMultiplier?$AA@
CONST	SEGMENT
??_C@_0BC@ECBOJJIK@DammageMultiplier?$AA@ DB 'DammageMultiplier', 00H ; `string'
CONST	ENDS
;	COMDAT ??_C@_0BN@HMFHAKDL@ZValueBeforeStartFallingMode?$AA@
CONST	SEGMENT
??_C@_0BN@HMFHAKDL@ZValueBeforeStartFallingMode?$AA@ DB 'ZValueBeforeStar'
	DB	'tFallingMode', 00H				; `string'
CONST	ENDS
;	COMDAT ??_C@_0N@FAHHHJAA@Tree4_Preset?$AA@
CONST	SEGMENT
??_C@_0N@FAHHHJAA@Tree4_Preset?$AA@ DB 'Tree4_Preset', 00H ; `string'
CONST	ENDS
;	COMDAT ??_C@_0N@DEBGBEMJ@Tree3_Preset?$AA@
CONST	SEGMENT
??_C@_0N@DEBGBEMJ@Tree3_Preset?$AA@ DB 'Tree3_Preset', 00H ; `string'
CONST	ENDS
;	COMDAT ??_C@_0N@CDGNAAIK@Tree2_Preset?$AA@
CONST	SEGMENT
??_C@_0N@CDGNAAIK@Tree2_Preset?$AA@ DB 'Tree2_Preset', 00H ; `string'
CONST	ENDS
;	COMDAT ??_C@_0N@BKOADMEP@Tree1_Preset?$AA@
CONST	SEGMENT
??_C@_0N@BKOADMEP@Tree1_Preset?$AA@ DB 'Tree1_Preset', 00H ; `string'
CONST	ENDS
;	COMDAT ??_C@_04CGFJFPFD@none?$AA@
CONST	SEGMENT
??_C@_04CGFJFPFD@none?$AA@ DB 'none', 00H		; `string'
CONST	ENDS
;	COMDAT ??_C@_0BB@LCFEHILM@Explosion_Preset?$AA@
CONST	SEGMENT
??_C@_0BB@LCFEHILM@Explosion_Preset?$AA@ DB 'Explosion_Preset', 00H ; `string'
CONST	ENDS
;	COMDAT ??_C@_06NHCMNMEH@origin?$AA@
CONST	SEGMENT
??_C@_06NHCMNMEH@origin?$AA@ DB 'origin', 00H		; `string'
CONST	ENDS
;	COMDAT ??_C@_04OKOFBOPB@Time?$AA@
CONST	SEGMENT
??_C@_04OKOFBOPB@Time?$AA@ DB 'Time', 00H		; `string'
CONST	ENDS
;	COMDAT ??_C@_0M@KABFCBAF@TimerNumber?$AA@
CONST	SEGMENT
??_C@_0M@KABFCBAF@TimerNumber?$AA@ DB 'TimerNumber', 00H ; `string'
CONST	ENDS
;	COMDAT ??_7ReferencerClass@@6B@
CONST	SEGMENT
??_7ReferencerClass@@6B@ DD FLAT:??_R4ReferencerClass@@6B@ ; ReferencerClass::`vftable'
	DD	FLAT:??_EReferencerClass@@UAEPAXI@Z
	DD	FLAT:?On_Post_Load@ReferencerClass@@UAEXXZ
CONST	ENDS
;	COMDAT ??_7INIClass@@6B@
CONST	SEGMENT
??_7INIClass@@6B@ DD FLAT:??_R4INIClass@@6B@		; INIClass::`vftable'
	DD	FLAT:??_EINIClass@@UAEPAXI@Z
CONST	ENDS
;	COMDAT ??_7PostLoadableClass@@6B@
CONST	SEGMENT
??_7PostLoadableClass@@6B@ DD FLAT:??_R4PostLoadableClass@@6B@ ; PostLoadableClass::`vftable'
	DD	FLAT:??_EPostLoadableClass@@UAEPAXI@Z
	DD	FLAT:?On_Post_Load@PostLoadableClass@@UAEXXZ
CONST	ENDS
;	COMDAT ??_C@_1M@HLGKFCJM@?$AAf?$AAa?$AAl?$AAs?$AAe?$AA?$AA@
CONST	SEGMENT
??_C@_1M@HLGKFCJM@?$AAf?$AAa?$AAl?$AAs?$AAe?$AA?$AA@ DB 'f', 00H, 'a', 00H
	DB	'l', 00H, 's', 00H, 'e', 00H, 00H, 00H	; `string'
CONST	ENDS
;	COMDAT ??_7ThreadClass@@6B@
CONST	SEGMENT
??_7ThreadClass@@6B@ DD FLAT:??_R4ThreadClass@@6B@	; ThreadClass::`vftable'
	DD	FLAT:??_EThreadClass@@UAEPAXI@Z
	DD	FLAT:__purecall
CONST	ENDS
;	COMDAT ??_7Ra2Ven_Dplbl_Vhcls_Cursor@@6B@
CONST	SEGMENT
??_7Ra2Ven_Dplbl_Vhcls_Cursor@@6B@ DD FLAT:??_R4Ra2Ven_Dplbl_Vhcls_Cursor@@6B@ ; Ra2Ven_Dplbl_Vhcls_Cursor::`vftable'
	DD	FLAT:??_ERa2Ven_Dplbl_Vhcls_Cursor@@UAEPAXI@Z
	DD	FLAT:?Get_Name@ScriptImpClass@@UAEPBDXZ
	DD	FLAT:?Attach@ScriptImpClass@@MAEXPAVScriptableGameObj@@@Z
	DD	FLAT:?Detach@ScriptImpClass@@MAEXPAVScriptableGameObj@@@Z
	DD	FLAT:?Created@Ra2Ven_Dplbl_Vhcls_Cursor@@EAEXPAVScriptableGameObj@@@Z
	DD	FLAT:?Destroyed@ScriptImpClass@@UAEXPAVScriptableGameObj@@@Z
	DD	FLAT:?Killed@Ra2Ven_Dplbl_Vhcls_Cursor@@UAEXPAVScriptableGameObj@@0@Z
	DD	FLAT:?Damaged@Ra2Ven_Dplbl_Vhcls_Cursor@@UAEXPAVScriptableGameObj@@0M@Z
	DD	FLAT:?Custom@Ra2Ven_Dplbl_Vhcls_Cursor@@UAEXPAVScriptableGameObj@@HH0@Z
	DD	FLAT:?Sound_Heard@ScriptImpClass@@UAEXPAVScriptableGameObj@@ABUCombatSound@@@Z
	DD	FLAT:?Enemy_Seen@ScriptImpClass@@UAEXPAVScriptableGameObj@@0@Z
	DD	FLAT:?Action_Complete@ScriptImpClass@@UAEXPAVScriptableGameObj@@HW4ActionCompleteReason@@@Z
	DD	FLAT:?Timer_Expired@ScriptImpClass@@UAEXPAVScriptableGameObj@@H@Z
	DD	FLAT:?Animation_Complete@ScriptImpClass@@UAEXPAVScriptableGameObj@@PBD@Z
	DD	FLAT:?Poked@ScriptImpClass@@UAEXPAVScriptableGameObj@@0@Z
	DD	FLAT:?Entered@ScriptImpClass@@UAEXPAVScriptableGameObj@@0@Z
	DD	FLAT:?Exited@ScriptImpClass@@UAEXPAVScriptableGameObj@@0@Z
	DD	FLAT:?Owner@ScriptImpClass@@UAEPAVScriptableGameObj@@XZ
	DD	FLAT:?Get_Owner_Ptr@ScriptImpClass@@UAEPAPAVScriptableGameObj@@XZ
	DD	FLAT:?Set_Parameters_String@ScriptImpClass@@UAEXPBD@Z
	DD	FLAT:?Get_Parameters_String@ScriptImpClass@@UAEXPADI@Z
	DD	FLAT:?Save@ScriptImpClass@@MAEXAAVScriptSaver@@@Z
	DD	FLAT:?Load@ScriptImpClass@@MAEXAAVScriptLoader@@@Z
	DD	FLAT:?Save_Data@ScriptImpClass@@UAEXAAVScriptSaver@@@Z
	DD	FLAT:?Load_Data@ScriptImpClass@@UAEXAAVScriptLoader@@@Z
	DD	FLAT:?Register_Auto_Save_Variables@Ra2Ven_Dplbl_Vhcls_Cursor@@UAEXXZ
CONST	ENDS
;	COMDAT ??_7Ra2Ven_FireAnimation2@@6B@
CONST	SEGMENT
??_7Ra2Ven_FireAnimation2@@6B@ DD FLAT:??_R4Ra2Ven_FireAnimation2@@6B@ ; Ra2Ven_FireAnimation2::`vftable'
	DD	FLAT:??_ERa2Ven_FireAnimation2@@UAEPAXI@Z
	DD	FLAT:?Get_Name@ScriptImpClass@@UAEPBDXZ
	DD	FLAT:?Attach@ScriptImpClass@@MAEXPAVScriptableGameObj@@@Z
	DD	FLAT:?Detach@ScriptImpClass@@MAEXPAVScriptableGameObj@@@Z
	DD	FLAT:?Created@Ra2Ven_FireAnimation2@@EAEXPAVScriptableGameObj@@@Z
	DD	FLAT:?Destroyed@ScriptImpClass@@UAEXPAVScriptableGameObj@@@Z
	DD	FLAT:?Killed@ScriptImpClass@@UAEXPAVScriptableGameObj@@0@Z
	DD	FLAT:?Damaged@ScriptImpClass@@UAEXPAVScriptableGameObj@@0M@Z
	DD	FLAT:?Custom@ScriptImpClass@@UAEXPAVScriptableGameObj@@HH0@Z
	DD	FLAT:?Sound_Heard@ScriptImpClass@@UAEXPAVScriptableGameObj@@ABUCombatSound@@@Z
	DD	FLAT:?Enemy_Seen@ScriptImpClass@@UAEXPAVScriptableGameObj@@0@Z
	DD	FLAT:?Action_Complete@ScriptImpClass@@UAEXPAVScriptableGameObj@@HW4ActionCompleteReason@@@Z
	DD	FLAT:?Timer_Expired@Ra2Ven_FireAnimation2@@EAEXPAVScriptableGameObj@@H@Z
	DD	FLAT:?Animation_Complete@Ra2Ven_FireAnimation2@@EAEXPAVScriptableGameObj@@PBD@Z
	DD	FLAT:?Poked@ScriptImpClass@@UAEXPAVScriptableGameObj@@0@Z
	DD	FLAT:?Entered@ScriptImpClass@@UAEXPAVScriptableGameObj@@0@Z
	DD	FLAT:?Exited@ScriptImpClass@@UAEXPAVScriptableGameObj@@0@Z
	DD	FLAT:?Owner@ScriptImpClass@@UAEPAVScriptableGameObj@@XZ
	DD	FLAT:?Get_Owner_Ptr@ScriptImpClass@@UAEPAPAVScriptableGameObj@@XZ
	DD	FLAT:?Set_Parameters_String@ScriptImpClass@@UAEXPBD@Z
	DD	FLAT:?Get_Parameters_String@ScriptImpClass@@UAEXPADI@Z
	DD	FLAT:?Save@ScriptImpClass@@MAEXAAVScriptSaver@@@Z
	DD	FLAT:?Load@ScriptImpClass@@MAEXAAVScriptLoader@@@Z
	DD	FLAT:?Save_Data@ScriptImpClass@@UAEXAAVScriptSaver@@@Z
	DD	FLAT:?Load_Data@ScriptImpClass@@UAEXAAVScriptLoader@@@Z
	DD	FLAT:?Register_Auto_Save_Variables@Ra2Ven_FireAnimation2@@UAEXXZ
CONST	ENDS
;	COMDAT ??_7Ra2Ven_FireAnimation@@6B@
CONST	SEGMENT
??_7Ra2Ven_FireAnimation@@6B@ DD FLAT:??_R4Ra2Ven_FireAnimation@@6B@ ; Ra2Ven_FireAnimation::`vftable'
	DD	FLAT:??_ERa2Ven_FireAnimation@@UAEPAXI@Z
	DD	FLAT:?Get_Name@ScriptImpClass@@UAEPBDXZ
	DD	FLAT:?Attach@ScriptImpClass@@MAEXPAVScriptableGameObj@@@Z
	DD	FLAT:?Detach@ScriptImpClass@@MAEXPAVScriptableGameObj@@@Z
	DD	FLAT:?Created@Ra2Ven_FireAnimation@@EAEXPAVScriptableGameObj@@@Z
	DD	FLAT:?Destroyed@ScriptImpClass@@UAEXPAVScriptableGameObj@@@Z
	DD	FLAT:?Killed@ScriptImpClass@@UAEXPAVScriptableGameObj@@0@Z
	DD	FLAT:?Damaged@ScriptImpClass@@UAEXPAVScriptableGameObj@@0M@Z
	DD	FLAT:?Custom@ScriptImpClass@@UAEXPAVScriptableGameObj@@HH0@Z
	DD	FLAT:?Sound_Heard@ScriptImpClass@@UAEXPAVScriptableGameObj@@ABUCombatSound@@@Z
	DD	FLAT:?Enemy_Seen@ScriptImpClass@@UAEXPAVScriptableGameObj@@0@Z
	DD	FLAT:?Action_Complete@ScriptImpClass@@UAEXPAVScriptableGameObj@@HW4ActionCompleteReason@@@Z
	DD	FLAT:?Timer_Expired@Ra2Ven_FireAnimation@@EAEXPAVScriptableGameObj@@H@Z
	DD	FLAT:?Animation_Complete@Ra2Ven_FireAnimation@@EAEXPAVScriptableGameObj@@PBD@Z
	DD	FLAT:?Poked@ScriptImpClass@@UAEXPAVScriptableGameObj@@0@Z
	DD	FLAT:?Entered@ScriptImpClass@@UAEXPAVScriptableGameObj@@0@Z
	DD	FLAT:?Exited@ScriptImpClass@@UAEXPAVScriptableGameObj@@0@Z
	DD	FLAT:?Owner@ScriptImpClass@@UAEPAVScriptableGameObj@@XZ
	DD	FLAT:?Get_Owner_Ptr@ScriptImpClass@@UAEPAPAVScriptableGameObj@@XZ
	DD	FLAT:?Set_Parameters_String@ScriptImpClass@@UAEXPBD@Z
	DD	FLAT:?Get_Parameters_String@ScriptImpClass@@UAEXPADI@Z
	DD	FLAT:?Save@ScriptImpClass@@MAEXAAVScriptSaver@@@Z
	DD	FLAT:?Load@ScriptImpClass@@MAEXAAVScriptLoader@@@Z
	DD	FLAT:?Save_Data@ScriptImpClass@@UAEXAAVScriptSaver@@@Z
	DD	FLAT:?Load_Data@ScriptImpClass@@UAEXAAVScriptLoader@@@Z
	DD	FLAT:?Register_Auto_Save_Variables@Ra2Ven_FireAnimation@@UAEXXZ
CONST	ENDS
;	COMDAT ??_7Ra2Ven_OccupentWeapon@@6B@
CONST	SEGMENT
??_7Ra2Ven_OccupentWeapon@@6B@ DD FLAT:??_R4Ra2Ven_OccupentWeapon@@6B@ ; Ra2Ven_OccupentWeapon::`vftable'
	DD	FLAT:??_ERa2Ven_OccupentWeapon@@UAEPAXI@Z
	DD	FLAT:?Get_Name@ScriptImpClass@@UAEPBDXZ
	DD	FLAT:?Attach@ScriptImpClass@@MAEXPAVScriptableGameObj@@@Z
	DD	FLAT:?Detach@ScriptImpClass@@MAEXPAVScriptableGameObj@@@Z
	DD	FLAT:?Created@ScriptImpClass@@UAEXPAVScriptableGameObj@@@Z
	DD	FLAT:?Destroyed@ScriptImpClass@@UAEXPAVScriptableGameObj@@@Z
	DD	FLAT:?Killed@ScriptImpClass@@UAEXPAVScriptableGameObj@@0@Z
	DD	FLAT:?Damaged@ScriptImpClass@@UAEXPAVScriptableGameObj@@0M@Z
	DD	FLAT:?Custom@Ra2Ven_OccupentWeapon@@EAEXPAVScriptableGameObj@@HH0@Z
	DD	FLAT:?Sound_Heard@ScriptImpClass@@UAEXPAVScriptableGameObj@@ABUCombatSound@@@Z
	DD	FLAT:?Enemy_Seen@ScriptImpClass@@UAEXPAVScriptableGameObj@@0@Z
	DD	FLAT:?Action_Complete@ScriptImpClass@@UAEXPAVScriptableGameObj@@HW4ActionCompleteReason@@@Z
	DD	FLAT:?Timer_Expired@ScriptImpClass@@UAEXPAVScriptableGameObj@@H@Z
	DD	FLAT:?Animation_Complete@ScriptImpClass@@UAEXPAVScriptableGameObj@@PBD@Z
	DD	FLAT:?Poked@ScriptImpClass@@UAEXPAVScriptableGameObj@@0@Z
	DD	FLAT:?Entered@ScriptImpClass@@UAEXPAVScriptableGameObj@@0@Z
	DD	FLAT:?Exited@ScriptImpClass@@UAEXPAVScriptableGameObj@@0@Z
	DD	FLAT:?Owner@ScriptImpClass@@UAEPAVScriptableGameObj@@XZ
	DD	FLAT:?Get_Owner_Ptr@ScriptImpClass@@UAEPAPAVScriptableGameObj@@XZ
	DD	FLAT:?Set_Parameters_String@ScriptImpClass@@UAEXPBD@Z
	DD	FLAT:?Get_Parameters_String@ScriptImpClass@@UAEXPADI@Z
	DD	FLAT:?Save@ScriptImpClass@@MAEXAAVScriptSaver@@@Z
	DD	FLAT:?Load@ScriptImpClass@@MAEXAAVScriptLoader@@@Z
	DD	FLAT:?Save_Data@ScriptImpClass@@UAEXAAVScriptSaver@@@Z
	DD	FLAT:?Load_Data@ScriptImpClass@@UAEXAAVScriptLoader@@@Z
	DD	FLAT:?Register_Auto_Save_Variables@ScriptImpClass@@UAEXXZ
CONST	ENDS
;	COMDAT ??_7Ra2Ven_TurretSoundObj@@6B@
CONST	SEGMENT
??_7Ra2Ven_TurretSoundObj@@6B@ DD FLAT:??_R4Ra2Ven_TurretSoundObj@@6B@ ; Ra2Ven_TurretSoundObj::`vftable'
	DD	FLAT:??_ERa2Ven_TurretSoundObj@@UAEPAXI@Z
	DD	FLAT:?Get_Name@ScriptImpClass@@UAEPBDXZ
	DD	FLAT:?Attach@ScriptImpClass@@MAEXPAVScriptableGameObj@@@Z
	DD	FLAT:?Detach@ScriptImpClass@@MAEXPAVScriptableGameObj@@@Z
	DD	FLAT:?Created@Ra2Ven_TurretSoundObj@@EAEXPAVScriptableGameObj@@@Z
	DD	FLAT:?Destroyed@ScriptImpClass@@UAEXPAVScriptableGameObj@@@Z
	DD	FLAT:?Killed@ScriptImpClass@@UAEXPAVScriptableGameObj@@0@Z
	DD	FLAT:?Damaged@ScriptImpClass@@UAEXPAVScriptableGameObj@@0M@Z
	DD	FLAT:?Custom@Ra2Ven_TurretSoundObj@@EAEXPAVScriptableGameObj@@HH0@Z
	DD	FLAT:?Sound_Heard@ScriptImpClass@@UAEXPAVScriptableGameObj@@ABUCombatSound@@@Z
	DD	FLAT:?Enemy_Seen@ScriptImpClass@@UAEXPAVScriptableGameObj@@0@Z
	DD	FLAT:?Action_Complete@ScriptImpClass@@UAEXPAVScriptableGameObj@@HW4ActionCompleteReason@@@Z
	DD	FLAT:?Timer_Expired@Ra2Ven_TurretSoundObj@@EAEXPAVScriptableGameObj@@H@Z
	DD	FLAT:?Animation_Complete@ScriptImpClass@@UAEXPAVScriptableGameObj@@PBD@Z
	DD	FLAT:?Poked@ScriptImpClass@@UAEXPAVScriptableGameObj@@0@Z
	DD	FLAT:?Entered@ScriptImpClass@@UAEXPAVScriptableGameObj@@0@Z
	DD	FLAT:?Exited@ScriptImpClass@@UAEXPAVScriptableGameObj@@0@Z
	DD	FLAT:?Owner@ScriptImpClass@@UAEPAVScriptableGameObj@@XZ
	DD	FLAT:?Get_Owner_Ptr@ScriptImpClass@@UAEPAPAVScriptableGameObj@@XZ
	DD	FLAT:?Set_Parameters_String@ScriptImpClass@@UAEXPBD@Z
	DD	FLAT:?Get_Parameters_String@ScriptImpClass@@UAEXPADI@Z
	DD	FLAT:?Save@ScriptImpClass@@MAEXAAVScriptSaver@@@Z
	DD	FLAT:?Load@ScriptImpClass@@MAEXAAVScriptLoader@@@Z
	DD	FLAT:?Save_Data@ScriptImpClass@@UAEXAAVScriptSaver@@@Z
	DD	FLAT:?Load_Data@ScriptImpClass@@UAEXAAVScriptLoader@@@Z
	DD	FLAT:?Register_Auto_Save_Variables@Ra2Ven_TurretSoundObj@@UAEXXZ
CONST	ENDS
;	COMDAT ??_7Ra2Ven_TurretSound@@6B@
CONST	SEGMENT
??_7Ra2Ven_TurretSound@@6B@ DD FLAT:??_R4Ra2Ven_TurretSound@@6B@ ; Ra2Ven_TurretSound::`vftable'
	DD	FLAT:??_ERa2Ven_TurretSound@@UAEPAXI@Z
	DD	FLAT:?Get_Name@ScriptImpClass@@UAEPBDXZ
	DD	FLAT:?Attach@ScriptImpClass@@MAEXPAVScriptableGameObj@@@Z
	DD	FLAT:?Detach@ScriptImpClass@@MAEXPAVScriptableGameObj@@@Z
	DD	FLAT:?Created@Ra2Ven_TurretSound@@EAEXPAVScriptableGameObj@@@Z
	DD	FLAT:?Destroyed@ScriptImpClass@@UAEXPAVScriptableGameObj@@@Z
	DD	FLAT:?Killed@Ra2Ven_TurretSound@@EAEXPAVScriptableGameObj@@0@Z
	DD	FLAT:?Damaged@ScriptImpClass@@UAEXPAVScriptableGameObj@@0M@Z
	DD	FLAT:?Custom@ScriptImpClass@@UAEXPAVScriptableGameObj@@HH0@Z
	DD	FLAT:?Sound_Heard@ScriptImpClass@@UAEXPAVScriptableGameObj@@ABUCombatSound@@@Z
	DD	FLAT:?Enemy_Seen@ScriptImpClass@@UAEXPAVScriptableGameObj@@0@Z
	DD	FLAT:?Action_Complete@ScriptImpClass@@UAEXPAVScriptableGameObj@@HW4ActionCompleteReason@@@Z
	DD	FLAT:?Timer_Expired@ScriptImpClass@@UAEXPAVScriptableGameObj@@H@Z
	DD	FLAT:?Animation_Complete@ScriptImpClass@@UAEXPAVScriptableGameObj@@PBD@Z
	DD	FLAT:?Poked@ScriptImpClass@@UAEXPAVScriptableGameObj@@0@Z
	DD	FLAT:?Entered@ScriptImpClass@@UAEXPAVScriptableGameObj@@0@Z
	DD	FLAT:?Exited@ScriptImpClass@@UAEXPAVScriptableGameObj@@0@Z
	DD	FLAT:?Owner@ScriptImpClass@@UAEPAVScriptableGameObj@@XZ
	DD	FLAT:?Get_Owner_Ptr@ScriptImpClass@@UAEPAPAVScriptableGameObj@@XZ
	DD	FLAT:?Set_Parameters_String@ScriptImpClass@@UAEXPBD@Z
	DD	FLAT:?Get_Parameters_String@ScriptImpClass@@UAEXPADI@Z
	DD	FLAT:?Save@ScriptImpClass@@MAEXAAVScriptSaver@@@Z
	DD	FLAT:?Load@ScriptImpClass@@MAEXAAVScriptLoader@@@Z
	DD	FLAT:?Save_Data@ScriptImpClass@@UAEXAAVScriptSaver@@@Z
	DD	FLAT:?Load_Data@ScriptImpClass@@UAEXAAVScriptLoader@@@Z
	DD	FLAT:?Register_Auto_Save_Variables@Ra2Ven_TurretSound@@UAEXXZ
CONST	ENDS
;	COMDAT ??_7Ra2Ven_RandomTree@@6B@
CONST	SEGMENT
??_7Ra2Ven_RandomTree@@6B@ DD FLAT:??_R4Ra2Ven_RandomTree@@6B@ ; Ra2Ven_RandomTree::`vftable'
	DD	FLAT:??_ERa2Ven_RandomTree@@UAEPAXI@Z
	DD	FLAT:?Get_Name@ScriptImpClass@@UAEPBDXZ
	DD	FLAT:?Attach@ScriptImpClass@@MAEXPAVScriptableGameObj@@@Z
	DD	FLAT:?Detach@ScriptImpClass@@MAEXPAVScriptableGameObj@@@Z
	DD	FLAT:?Created@Ra2Ven_RandomTree@@EAEXPAVScriptableGameObj@@@Z
	DD	FLAT:?Destroyed@ScriptImpClass@@UAEXPAVScriptableGameObj@@@Z
	DD	FLAT:?Killed@ScriptImpClass@@UAEXPAVScriptableGameObj@@0@Z
	DD	FLAT:?Damaged@ScriptImpClass@@UAEXPAVScriptableGameObj@@0M@Z
	DD	FLAT:?Custom@ScriptImpClass@@UAEXPAVScriptableGameObj@@HH0@Z
	DD	FLAT:?Sound_Heard@ScriptImpClass@@UAEXPAVScriptableGameObj@@ABUCombatSound@@@Z
	DD	FLAT:?Enemy_Seen@ScriptImpClass@@UAEXPAVScriptableGameObj@@0@Z
	DD	FLAT:?Action_Complete@ScriptImpClass@@UAEXPAVScriptableGameObj@@HW4ActionCompleteReason@@@Z
	DD	FLAT:?Timer_Expired@ScriptImpClass@@UAEXPAVScriptableGameObj@@H@Z
	DD	FLAT:?Animation_Complete@ScriptImpClass@@UAEXPAVScriptableGameObj@@PBD@Z
	DD	FLAT:?Poked@ScriptImpClass@@UAEXPAVScriptableGameObj@@0@Z
	DD	FLAT:?Entered@ScriptImpClass@@UAEXPAVScriptableGameObj@@0@Z
	DD	FLAT:?Exited@ScriptImpClass@@UAEXPAVScriptableGameObj@@0@Z
	DD	FLAT:?Owner@ScriptImpClass@@UAEPAVScriptableGameObj@@XZ
	DD	FLAT:?Get_Owner_Ptr@ScriptImpClass@@UAEPAPAVScriptableGameObj@@XZ
	DD	FLAT:?Set_Parameters_String@ScriptImpClass@@UAEXPBD@Z
	DD	FLAT:?Get_Parameters_String@ScriptImpClass@@UAEXPADI@Z
	DD	FLAT:?Save@ScriptImpClass@@MAEXAAVScriptSaver@@@Z
	DD	FLAT:?Load@ScriptImpClass@@MAEXAAVScriptLoader@@@Z
	DD	FLAT:?Save_Data@ScriptImpClass@@UAEXAAVScriptSaver@@@Z
	DD	FLAT:?Load_Data@ScriptImpClass@@UAEXAAVScriptLoader@@@Z
	DD	FLAT:?Register_Auto_Save_Variables@ScriptImpClass@@UAEXXZ
CONST	ENDS
;	COMDAT ??_7Ra2Ven_Deploy_Animation@@6B@
CONST	SEGMENT
??_7Ra2Ven_Deploy_Animation@@6B@ DD FLAT:??_R4Ra2Ven_Deploy_Animation@@6B@ ; Ra2Ven_Deploy_Animation::`vftable'
	DD	FLAT:??_ERa2Ven_Deploy_Animation@@UAEPAXI@Z
	DD	FLAT:?Get_Name@ScriptImpClass@@UAEPBDXZ
	DD	FLAT:?Attach@ScriptImpClass@@MAEXPAVScriptableGameObj@@@Z
	DD	FLAT:?Detach@ScriptImpClass@@MAEXPAVScriptableGameObj@@@Z
	DD	FLAT:?Created@Ra2Ven_Deploy_Animation@@EAEXPAVScriptableGameObj@@@Z
	DD	FLAT:?Destroyed@ScriptImpClass@@UAEXPAVScriptableGameObj@@@Z
	DD	FLAT:?Killed@ScriptImpClass@@UAEXPAVScriptableGameObj@@0@Z
	DD	FLAT:?Damaged@ScriptImpClass@@UAEXPAVScriptableGameObj@@0M@Z
	DD	FLAT:?Custom@ScriptImpClass@@UAEXPAVScriptableGameObj@@HH0@Z
	DD	FLAT:?Sound_Heard@ScriptImpClass@@UAEXPAVScriptableGameObj@@ABUCombatSound@@@Z
	DD	FLAT:?Enemy_Seen@ScriptImpClass@@UAEXPAVScriptableGameObj@@0@Z
	DD	FLAT:?Action_Complete@ScriptImpClass@@UAEXPAVScriptableGameObj@@HW4ActionCompleteReason@@@Z
	DD	FLAT:?Timer_Expired@Ra2Ven_Deploy_Animation@@EAEXPAVScriptableGameObj@@H@Z
	DD	FLAT:?Animation_Complete@ScriptImpClass@@UAEXPAVScriptableGameObj@@PBD@Z
	DD	FLAT:?Poked@ScriptImpClass@@UAEXPAVScriptableGameObj@@0@Z
	DD	FLAT:?Entered@ScriptImpClass@@UAEXPAVScriptableGameObj@@0@Z
	DD	FLAT:?Exited@ScriptImpClass@@UAEXPAVScriptableGameObj@@0@Z
	DD	FLAT:?Owner@ScriptImpClass@@UAEPAVScriptableGameObj@@XZ
	DD	FLAT:?Get_Owner_Ptr@ScriptImpClass@@UAEPAPAVScriptableGameObj@@XZ
	DD	FLAT:?Set_Parameters_String@ScriptImpClass@@UAEXPBD@Z
	DD	FLAT:?Get_Parameters_String@ScriptImpClass@@UAEXPADI@Z
	DD	FLAT:?Save@ScriptImpClass@@MAEXAAVScriptSaver@@@Z
	DD	FLAT:?Load@ScriptImpClass@@MAEXAAVScriptLoader@@@Z
	DD	FLAT:?Save_Data@ScriptImpClass@@UAEXAAVScriptSaver@@@Z
	DD	FLAT:?Load_Data@ScriptImpClass@@UAEXAAVScriptLoader@@@Z
	DD	FLAT:?Register_Auto_Save_Variables@ScriptImpClass@@UAEXXZ
CONST	ENDS
;	COMDAT ??_7Ra2Ven_Deployable_Vehicle@@6B@
CONST	SEGMENT
??_7Ra2Ven_Deployable_Vehicle@@6B@ DD FLAT:??_R4Ra2Ven_Deployable_Vehicle@@6B@ ; Ra2Ven_Deployable_Vehicle::`vftable'
	DD	FLAT:??_ERa2Ven_Deployable_Vehicle@@UAEPAXI@Z
	DD	FLAT:?Get_Name@ScriptImpClass@@UAEPBDXZ
	DD	FLAT:?Attach@ScriptImpClass@@MAEXPAVScriptableGameObj@@@Z
	DD	FLAT:?Detach@ScriptImpClass@@MAEXPAVScriptableGameObj@@@Z
	DD	FLAT:?Created@Ra2Ven_Deployable_Vehicle@@EAEXPAVScriptableGameObj@@@Z
	DD	FLAT:?Destroyed@ScriptImpClass@@UAEXPAVScriptableGameObj@@@Z
	DD	FLAT:?Killed@Ra2Ven_Deployable_Vehicle@@UAEXPAVScriptableGameObj@@0@Z
	DD	FLAT:?Damaged@Ra2Ven_Deployable_Vehicle@@UAEXPAVScriptableGameObj@@0M@Z
	DD	FLAT:?Custom@Ra2Ven_Deployable_Vehicle@@UAEXPAVScriptableGameObj@@HH0@Z
	DD	FLAT:?Sound_Heard@ScriptImpClass@@UAEXPAVScriptableGameObj@@ABUCombatSound@@@Z
	DD	FLAT:?Enemy_Seen@ScriptImpClass@@UAEXPAVScriptableGameObj@@0@Z
	DD	FLAT:?Action_Complete@ScriptImpClass@@UAEXPAVScriptableGameObj@@HW4ActionCompleteReason@@@Z
	DD	FLAT:?Timer_Expired@ScriptImpClass@@UAEXPAVScriptableGameObj@@H@Z
	DD	FLAT:?Animation_Complete@ScriptImpClass@@UAEXPAVScriptableGameObj@@PBD@Z
	DD	FLAT:?Poked@ScriptImpClass@@UAEXPAVScriptableGameObj@@0@Z
	DD	FLAT:?Entered@ScriptImpClass@@UAEXPAVScriptableGameObj@@0@Z
	DD	FLAT:?Exited@ScriptImpClass@@UAEXPAVScriptableGameObj@@0@Z
	DD	FLAT:?Owner@ScriptImpClass@@UAEPAVScriptableGameObj@@XZ
	DD	FLAT:?Get_Owner_Ptr@ScriptImpClass@@UAEPAPAVScriptableGameObj@@XZ
	DD	FLAT:?Set_Parameters_String@ScriptImpClass@@UAEXPBD@Z
	DD	FLAT:?Get_Parameters_String@ScriptImpClass@@UAEXPADI@Z
	DD	FLAT:?Save@ScriptImpClass@@MAEXAAVScriptSaver@@@Z
	DD	FLAT:?Load@ScriptImpClass@@MAEXAAVScriptLoader@@@Z
	DD	FLAT:?Save_Data@ScriptImpClass@@UAEXAAVScriptSaver@@@Z
	DD	FLAT:?Load_Data@ScriptImpClass@@UAEXAAVScriptLoader@@@Z
	DD	FLAT:?Register_Auto_Save_Variables@Ra2Ven_Deployable_Vehicle@@UAEXXZ
CONST	ENDS
;	COMDAT ??_7Ra2Ven_DemoTruck@@6B@
CONST	SEGMENT
??_7Ra2Ven_DemoTruck@@6B@ DD FLAT:??_R4Ra2Ven_DemoTruck@@6B@ ; Ra2Ven_DemoTruck::`vftable'
	DD	FLAT:??_ERa2Ven_DemoTruck@@UAEPAXI@Z
	DD	FLAT:?Get_Name@ScriptImpClass@@UAEPBDXZ
	DD	FLAT:?Attach@ScriptImpClass@@MAEXPAVScriptableGameObj@@@Z
	DD	FLAT:?Detach@ScriptImpClass@@MAEXPAVScriptableGameObj@@@Z
	DD	FLAT:?Created@Ra2Ven_DemoTruck@@EAEXPAVScriptableGameObj@@@Z
	DD	FLAT:?Destroyed@ScriptImpClass@@UAEXPAVScriptableGameObj@@@Z
	DD	FLAT:?Killed@Ra2Ven_DemoTruck@@EAEXPAVScriptableGameObj@@0@Z
	DD	FLAT:?Damaged@Ra2Ven_DemoTruck@@EAEXPAVScriptableGameObj@@0M@Z
	DD	FLAT:?Custom@Ra2Ven_DemoTruck@@EAEXPAVScriptableGameObj@@HH0@Z
	DD	FLAT:?Sound_Heard@ScriptImpClass@@UAEXPAVScriptableGameObj@@ABUCombatSound@@@Z
	DD	FLAT:?Enemy_Seen@ScriptImpClass@@UAEXPAVScriptableGameObj@@0@Z
	DD	FLAT:?Action_Complete@ScriptImpClass@@UAEXPAVScriptableGameObj@@HW4ActionCompleteReason@@@Z
	DD	FLAT:?Timer_Expired@ScriptImpClass@@UAEXPAVScriptableGameObj@@H@Z
	DD	FLAT:?Animation_Complete@ScriptImpClass@@UAEXPAVScriptableGameObj@@PBD@Z
	DD	FLAT:?Poked@ScriptImpClass@@UAEXPAVScriptableGameObj@@0@Z
	DD	FLAT:?Entered@ScriptImpClass@@UAEXPAVScriptableGameObj@@0@Z
	DD	FLAT:?Exited@ScriptImpClass@@UAEXPAVScriptableGameObj@@0@Z
	DD	FLAT:?Owner@ScriptImpClass@@UAEPAVScriptableGameObj@@XZ
	DD	FLAT:?Get_Owner_Ptr@ScriptImpClass@@UAEPAPAVScriptableGameObj@@XZ
	DD	FLAT:?Set_Parameters_String@ScriptImpClass@@UAEXPBD@Z
	DD	FLAT:?Get_Parameters_String@ScriptImpClass@@UAEXPADI@Z
	DD	FLAT:?Save@ScriptImpClass@@MAEXAAVScriptSaver@@@Z
	DD	FLAT:?Load@ScriptImpClass@@MAEXAAVScriptLoader@@@Z
	DD	FLAT:?Save_Data@ScriptImpClass@@UAEXAAVScriptSaver@@@Z
	DD	FLAT:?Load_Data@ScriptImpClass@@UAEXAAVScriptLoader@@@Z
	DD	FLAT:?Register_Auto_Save_Variables@Ra2Ven_DemoTruck@@UAEXXZ
CONST	ENDS
;	COMDAT ??_7Ra2Ven_VehicleFalling@@6B@
CONST	SEGMENT
??_7Ra2Ven_VehicleFalling@@6B@ DD FLAT:??_R4Ra2Ven_VehicleFalling@@6B@ ; Ra2Ven_VehicleFalling::`vftable'
	DD	FLAT:??_ERa2Ven_VehicleFalling@@UAEPAXI@Z
	DD	FLAT:?Get_Name@ScriptImpClass@@UAEPBDXZ
	DD	FLAT:?Attach@ScriptImpClass@@MAEXPAVScriptableGameObj@@@Z
	DD	FLAT:?Detach@ScriptImpClass@@MAEXPAVScriptableGameObj@@@Z
	DD	FLAT:?Created@Ra2Ven_VehicleFalling@@EAEXPAVScriptableGameObj@@@Z
	DD	FLAT:?Destroyed@ScriptImpClass@@UAEXPAVScriptableGameObj@@@Z
	DD	FLAT:?Killed@ScriptImpClass@@UAEXPAVScriptableGameObj@@0@Z
	DD	FLAT:?Damaged@ScriptImpClass@@UAEXPAVScriptableGameObj@@0M@Z
	DD	FLAT:?Custom@ScriptImpClass@@UAEXPAVScriptableGameObj@@HH0@Z
	DD	FLAT:?Sound_Heard@ScriptImpClass@@UAEXPAVScriptableGameObj@@ABUCombatSound@@@Z
	DD	FLAT:?Enemy_Seen@ScriptImpClass@@UAEXPAVScriptableGameObj@@0@Z
	DD	FLAT:?Action_Complete@ScriptImpClass@@UAEXPAVScriptableGameObj@@HW4ActionCompleteReason@@@Z
	DD	FLAT:?Timer_Expired@Ra2Ven_VehicleFalling@@EAEXPAVScriptableGameObj@@H@Z
	DD	FLAT:?Animation_Complete@ScriptImpClass@@UAEXPAVScriptableGameObj@@PBD@Z
	DD	FLAT:?Poked@ScriptImpClass@@UAEXPAVScriptableGameObj@@0@Z
	DD	FLAT:?Entered@ScriptImpClass@@UAEXPAVScriptableGameObj@@0@Z
	DD	FLAT:?Exited@ScriptImpClass@@UAEXPAVScriptableGameObj@@0@Z
	DD	FLAT:?Owner@ScriptImpClass@@UAEPAVScriptableGameObj@@XZ
	DD	FLAT:?Get_Owner_Ptr@ScriptImpClass@@UAEPAPAVScriptableGameObj@@XZ
	DD	FLAT:?Set_Parameters_String@ScriptImpClass@@UAEXPBD@Z
	DD	FLAT:?Get_Parameters_String@ScriptImpClass@@UAEXPADI@Z
	DD	FLAT:?Save@ScriptImpClass@@MAEXAAVScriptSaver@@@Z
	DD	FLAT:?Load@ScriptImpClass@@MAEXAAVScriptLoader@@@Z
	DD	FLAT:?Save_Data@ScriptImpClass@@UAEXAAVScriptSaver@@@Z
	DD	FLAT:?Load_Data@ScriptImpClass@@UAEXAAVScriptLoader@@@Z
	DD	FLAT:?Register_Auto_Save_Variables@Ra2Ven_VehicleFalling@@UAEXXZ
CONST	ENDS
;	COMDAT ??_7Ra2Ven_MirageTank@@6B@
CONST	SEGMENT
??_7Ra2Ven_MirageTank@@6B@ DD FLAT:??_R4Ra2Ven_MirageTank@@6B@ ; Ra2Ven_MirageTank::`vftable'
	DD	FLAT:??_ERa2Ven_MirageTank@@UAEPAXI@Z
	DD	FLAT:?Get_Name@ScriptImpClass@@UAEPBDXZ
	DD	FLAT:?Attach@ScriptImpClass@@MAEXPAVScriptableGameObj@@@Z
	DD	FLAT:?Detach@ScriptImpClass@@MAEXPAVScriptableGameObj@@@Z
	DD	FLAT:?Created@Ra2Ven_MirageTank@@EAEXPAVScriptableGameObj@@@Z
	DD	FLAT:?Destroyed@ScriptImpClass@@UAEXPAVScriptableGameObj@@@Z
	DD	FLAT:?Killed@Ra2Ven_MirageTank@@UAEXPAVScriptableGameObj@@0@Z
	DD	FLAT:?Damaged@ScriptImpClass@@UAEXPAVScriptableGameObj@@0M@Z
	DD	FLAT:?Custom@Ra2Ven_MirageTank@@UAEXPAVScriptableGameObj@@HH0@Z
	DD	FLAT:?Sound_Heard@ScriptImpClass@@UAEXPAVScriptableGameObj@@ABUCombatSound@@@Z
	DD	FLAT:?Enemy_Seen@ScriptImpClass@@UAEXPAVScriptableGameObj@@0@Z
	DD	FLAT:?Action_Complete@ScriptImpClass@@UAEXPAVScriptableGameObj@@HW4ActionCompleteReason@@@Z
	DD	FLAT:?Timer_Expired@Ra2Ven_MirageTank@@UAEXPAVScriptableGameObj@@H@Z
	DD	FLAT:?Animation_Complete@ScriptImpClass@@UAEXPAVScriptableGameObj@@PBD@Z
	DD	FLAT:?Poked@ScriptImpClass@@UAEXPAVScriptableGameObj@@0@Z
	DD	FLAT:?Entered@ScriptImpClass@@UAEXPAVScriptableGameObj@@0@Z
	DD	FLAT:?Exited@ScriptImpClass@@UAEXPAVScriptableGameObj@@0@Z
	DD	FLAT:?Owner@ScriptImpClass@@UAEPAVScriptableGameObj@@XZ
	DD	FLAT:?Get_Owner_Ptr@ScriptImpClass@@UAEPAPAVScriptableGameObj@@XZ
	DD	FLAT:?Set_Parameters_String@ScriptImpClass@@UAEXPBD@Z
	DD	FLAT:?Get_Parameters_String@ScriptImpClass@@UAEXPADI@Z
	DD	FLAT:?Save@ScriptImpClass@@MAEXAAVScriptSaver@@@Z
	DD	FLAT:?Load@ScriptImpClass@@MAEXAAVScriptLoader@@@Z
	DD	FLAT:?Save_Data@ScriptImpClass@@UAEXAAVScriptSaver@@@Z
	DD	FLAT:?Load_Data@ScriptImpClass@@UAEXAAVScriptLoader@@@Z
	DD	FLAT:?Register_Auto_Save_Variables@Ra2Ven_MirageTank@@UAEXXZ
CONST	ENDS
;	COMDAT ??_7ScriptFactory@@6B@
CONST	SEGMENT
??_7ScriptFactory@@6B@ DD FLAT:??_R4ScriptFactory@@6B@	; ScriptFactory::`vftable'
	DD	FLAT:??_EScriptFactory@@UAEPAXI@Z
	DD	FLAT:__purecall
CONST	ENDS
;	COMDAT ??_7ScriptImpClass@@6B@
CONST	SEGMENT
??_7ScriptImpClass@@6B@ DD FLAT:??_R4ScriptImpClass@@6B@ ; ScriptImpClass::`vftable'
	DD	FLAT:??_EScriptImpClass@@UAEPAXI@Z
	DD	FLAT:?Get_Name@ScriptImpClass@@UAEPBDXZ
	DD	FLAT:?Attach@ScriptImpClass@@MAEXPAVScriptableGameObj@@@Z
	DD	FLAT:?Detach@ScriptImpClass@@MAEXPAVScriptableGameObj@@@Z
	DD	FLAT:?Created@ScriptImpClass@@UAEXPAVScriptableGameObj@@@Z
	DD	FLAT:?Destroyed@ScriptImpClass@@UAEXPAVScriptableGameObj@@@Z
	DD	FLAT:?Killed@ScriptImpClass@@UAEXPAVScriptableGameObj@@0@Z
	DD	FLAT:?Damaged@ScriptImpClass@@UAEXPAVScriptableGameObj@@0M@Z
	DD	FLAT:?Custom@ScriptImpClass@@UAEXPAVScriptableGameObj@@HH0@Z
	DD	FLAT:?Sound_Heard@ScriptImpClass@@UAEXPAVScriptableGameObj@@ABUCombatSound@@@Z
	DD	FLAT:?Enemy_Seen@ScriptImpClass@@UAEXPAVScriptableGameObj@@0@Z
	DD	FLAT:?Action_Complete@ScriptImpClass@@UAEXPAVScriptableGameObj@@HW4ActionCompleteReason@@@Z
	DD	FLAT:?Timer_Expired@ScriptImpClass@@UAEXPAVScriptableGameObj@@H@Z
	DD	FLAT:?Animation_Complete@ScriptImpClass@@UAEXPAVScriptableGameObj@@PBD@Z
	DD	FLAT:?Poked@ScriptImpClass@@UAEXPAVScriptableGameObj@@0@Z
	DD	FLAT:?Entered@ScriptImpClass@@UAEXPAVScriptableGameObj@@0@Z
	DD	FLAT:?Exited@ScriptImpClass@@UAEXPAVScriptableGameObj@@0@Z
	DD	FLAT:?Owner@ScriptImpClass@@UAEPAVScriptableGameObj@@XZ
	DD	FLAT:?Get_Owner_Ptr@ScriptImpClass@@UAEPAPAVScriptableGameObj@@XZ
	DD	FLAT:?Set_Parameters_String@ScriptImpClass@@UAEXPBD@Z
	DD	FLAT:?Get_Parameters_String@ScriptImpClass@@UAEXPADI@Z
	DD	FLAT:?Save@ScriptImpClass@@MAEXAAVScriptSaver@@@Z
	DD	FLAT:?Load@ScriptImpClass@@MAEXAAVScriptLoader@@@Z
	DD	FLAT:?Save_Data@ScriptImpClass@@UAEXAAVScriptSaver@@@Z
	DD	FLAT:?Load_Data@ScriptImpClass@@UAEXAAVScriptLoader@@@Z
	DD	FLAT:?Register_Auto_Save_Variables@ScriptImpClass@@UAEXXZ
CONST	ENDS
;	COMDAT ??_7ScriptClass@@6B@
CONST	SEGMENT
??_7ScriptClass@@6B@ DD FLAT:??_R4ScriptClass@@6B@	; ScriptClass::`vftable'
	DD	FLAT:??_EScriptClass@@UAEPAXI@Z
	DD	FLAT:__purecall
	DD	FLAT:__purecall
	DD	FLAT:__purecall
	DD	FLAT:__purecall
	DD	FLAT:__purecall
	DD	FLAT:__purecall
	DD	FLAT:__purecall
	DD	FLAT:__purecall
	DD	FLAT:__purecall
	DD	FLAT:__purecall
	DD	FLAT:__purecall
	DD	FLAT:__purecall
	DD	FLAT:__purecall
	DD	FLAT:__purecall
	DD	FLAT:__purecall
	DD	FLAT:__purecall
	DD	FLAT:?Owner@GameObjObserverClass@@UAEPAVScriptableGameObj@@XZ
	DD	FLAT:__purecall
	DD	FLAT:__purecall
	DD	FLAT:__purecall
	DD	FLAT:__purecall
	DD	FLAT:__purecall
CONST	ENDS
;	COMDAT ??_7GameObjObserverClass@@6B@
CONST	SEGMENT
??_7GameObjObserverClass@@6B@ DD FLAT:??_R4GameObjObserverClass@@6B@ ; GameObjObserverClass::`vftable'
	DD	FLAT:??_EGameObjObserverClass@@UAEPAXI@Z
	DD	FLAT:__purecall
	DD	FLAT:__purecall
	DD	FLAT:__purecall
	DD	FLAT:__purecall
	DD	FLAT:__purecall
	DD	FLAT:__purecall
	DD	FLAT:__purecall
	DD	FLAT:__purecall
	DD	FLAT:__purecall
	DD	FLAT:__purecall
	DD	FLAT:__purecall
	DD	FLAT:__purecall
	DD	FLAT:__purecall
	DD	FLAT:__purecall
	DD	FLAT:__purecall
	DD	FLAT:__purecall
	DD	FLAT:?Owner@GameObjObserverClass@@UAEPAVScriptableGameObj@@XZ
CONST	ENDS
CRT$XCU	SEGMENT
_Ra2Ven_VehicleFalling_Registrant$initializer$ DD FLAT:??__ERa2Ven_VehicleFalling_Registrant@@YAXXZ
CRT$XCU	ENDS
CRT$XCU	SEGMENT
_Ra2Ven_DemoTruck_Registrant$initializer$ DD FLAT:??__ERa2Ven_DemoTruck_Registrant@@YAXXZ
CRT$XCU	ENDS
CRT$XCU	SEGMENT
_Ra2Ven_Deployable_Vehicle_Registrant$initializer$ DD FLAT:??__ERa2Ven_Deployable_Vehicle_Registrant@@YAXXZ
CRT$XCU	ENDS
CRT$XCU	SEGMENT
_Ra2Ven_Deploy_Animation_Registrant$initializer$ DD FLAT:??__ERa2Ven_Deploy_Animation_Registrant@@YAXXZ
CRT$XCU	ENDS
CRT$XCU	SEGMENT
_Ra2Ven_RandomTree_Registrant$initializer$ DD FLAT:??__ERa2Ven_RandomTree_Registrant@@YAXXZ
CRT$XCU	ENDS
CRT$XCU	SEGMENT
_Ra2Ven_TurretSound_Registrant$initializer$ DD FLAT:??__ERa2Ven_TurretSound_Registrant@@YAXXZ
CRT$XCU	ENDS
CRT$XCU	SEGMENT
_Ra2Ven_TurretSoundObj_Registrant$initializer$ DD FLAT:??__ERa2Ven_TurretSoundObj_Registrant@@YAXXZ
CRT$XCU	ENDS
CRT$XCU	SEGMENT
_Ra2Ven_OccupentWeapon_Registrant$initializer$ DD FLAT:??__ERa2Ven_OccupentWeapon_Registrant@@YAXXZ
CRT$XCU	ENDS
CRT$XCU	SEGMENT
_Ra2Ven_Dplbl_Vhcls_Cursor_Registrant$initializer$ DD FLAT:??__ERa2Ven_Dplbl_Vhcls_Cursor_Registrant@@YAXXZ
CRT$XCU	ENDS
CRT$XCU	SEGMENT
_Ra2Ven_FireAnimation_Registrant$initializer$ DD FLAT:??__ERa2Ven_FireAnimation_Registrant@@YAXXZ
CRT$XCU	ENDS
CRT$XCU	SEGMENT
_Ra2Ven_FireAnimation2_Registrant$initializer$ DD FLAT:??__ERa2Ven_FireAnimation2_Registrant@@YAXXZ
CRT$XCU	ENDS
; Function compile flags: /Odtp /ZI
;	COMDAT ??__FRa2Ven_FireAnimation2_Registrant@@YAXXZ
text$yd	SEGMENT
??__FRa2Ven_FireAnimation2_Registrant@@YAXXZ PROC	; `dynamic atexit destructor for 'Ra2Ven_FireAnimation2_Registrant'', COMDAT
	push	ebp
	mov	ebp, esp
	sub	esp, 64					; 00000040H
	push	ebx
	push	esi
	push	edi
	mov	ecx, OFFSET ?Ra2Ven_FireAnimation2_Registrant@@3V?$ScriptRegistrant@VRa2Ven_FireAnimation2@@@@A ; Ra2Ven_FireAnimation2_Registrant
	call	??1?$ScriptRegistrant@VRa2Ven_FireAnimation2@@@@UAE@XZ
	pop	edi
	pop	esi
	pop	ebx
	mov	esp, ebp
	pop	ebp
	ret	0
??__FRa2Ven_FireAnimation2_Registrant@@YAXXZ ENDP	; `dynamic atexit destructor for 'Ra2Ven_FireAnimation2_Registrant''
text$yd	ENDS
; Function compile flags: /Odtp /ZI
; File x:\github\renegade\dragonade_rxd\scripts\ra2.cpp
;	COMDAT ??__ERa2Ven_FireAnimation2_Registrant@@YAXXZ
text$yc	SEGMENT
??__ERa2Ven_FireAnimation2_Registrant@@YAXXZ PROC	; `dynamic initializer for 'Ra2Ven_FireAnimation2_Registrant'', COMDAT

; 701  : ScriptRegistrant<Ra2Ven_FireAnimation2> Ra2Ven_FireAnimation2_Registrant("Ra2Ven_FireAnimation2","ParentBone:string,MuzzleBone:string,Animation1:string,FirstFrame1=0:float,LastFrame1=0:float,Animation2:string,FirstFrame2=0:float,LastFrame2=0:float,AfAnimation:string,AfFirstFrame=0:float,AfLastFrame=0:float,Time=0.1:float,TimerNumber:int");

	push	ebp
	mov	ebp, esp
	sub	esp, 64					; 00000040H
	push	ebx
	push	esi
	push	edi
	push	OFFSET ??_C@_0PB@LHDHLHDH@ParentBone?3string?0MuzzleBone?3str@
	push	OFFSET ??_C@_0BG@EENEMILA@Ra2Ven_FireAnimation2?$AA@
	mov	ecx, OFFSET ?Ra2Ven_FireAnimation2_Registrant@@3V?$ScriptRegistrant@VRa2Ven_FireAnimation2@@@@A ; Ra2Ven_FireAnimation2_Registrant
	call	??0?$ScriptRegistrant@VRa2Ven_FireAnimation2@@@@QAE@PBD0@Z ; ScriptRegistrant<Ra2Ven_FireAnimation2>::ScriptRegistrant<Ra2Ven_FireAnimation2>
	push	OFFSET ??__FRa2Ven_FireAnimation2_Registrant@@YAXXZ ; `dynamic atexit destructor for 'Ra2Ven_FireAnimation2_Registrant''
	call	_atexit
	add	esp, 4
	pop	edi
	pop	esi
	pop	ebx
	mov	esp, ebp
	pop	ebp
	ret	0
??__ERa2Ven_FireAnimation2_Registrant@@YAXXZ ENDP	; `dynamic initializer for 'Ra2Ven_FireAnimation2_Registrant''
text$yc	ENDS
; Function compile flags: /Odtp /ZI
;	COMDAT ??_G?$ScriptRegistrant@VRa2Ven_FireAnimation2@@@@UAEPAXI@Z
_TEXT	SEGMENT
_this$ = -4						; size = 4
___flags$ = 8						; size = 4
??_G?$ScriptRegistrant@VRa2Ven_FireAnimation2@@@@UAEPAXI@Z PROC ; ScriptRegistrant<Ra2Ven_FireAnimation2>::`scalar deleting destructor', COMDAT
; _this$ = ecx
	push	ebp
	mov	ebp, esp
	sub	esp, 68					; 00000044H
	push	ebx
	push	esi
	push	edi
	mov	DWORD PTR _this$[ebp], ecx
	mov	ecx, DWORD PTR _this$[ebp]
	call	??1?$ScriptRegistrant@VRa2Ven_FireAnimation2@@@@UAE@XZ
	mov	eax, DWORD PTR ___flags$[ebp]
	and	eax, 1
	je	SHORT $LN1@scalar
	mov	eax, DWORD PTR _this$[ebp]
	push	eax
	call	??3@YAXPAX@Z				; operator delete
	add	esp, 4
$LN1@scalar:
	mov	eax, DWORD PTR _this$[ebp]
	pop	edi
	pop	esi
	pop	ebx
	mov	esp, ebp
	pop	ebp
	ret	4
??_G?$ScriptRegistrant@VRa2Ven_FireAnimation2@@@@UAEPAXI@Z ENDP ; ScriptRegistrant<Ra2Ven_FireAnimation2>::`scalar deleting destructor'
_TEXT	ENDS
; Function compile flags: /Odtp /ZI
;	COMDAT ??1?$ScriptRegistrant@VRa2Ven_FireAnimation2@@@@UAE@XZ
_TEXT	SEGMENT
_this$ = -4						; size = 4
??1?$ScriptRegistrant@VRa2Ven_FireAnimation2@@@@UAE@XZ PROC ; ScriptRegistrant<Ra2Ven_FireAnimation2>::~ScriptRegistrant<Ra2Ven_FireAnimation2>, COMDAT
; _this$ = ecx
	push	ebp
	mov	ebp, esp
	sub	esp, 68					; 00000044H
	push	ebx
	push	esi
	push	edi
	mov	DWORD PTR _this$[ebp], ecx
	mov	ecx, DWORD PTR _this$[ebp]
	call	??1ScriptFactory@@UAE@XZ		; ScriptFactory::~ScriptFactory
	pop	edi
	pop	esi
	pop	ebx
	mov	esp, ebp
	pop	ebp
	ret	0
??1?$ScriptRegistrant@VRa2Ven_FireAnimation2@@@@UAE@XZ ENDP ; ScriptRegistrant<Ra2Ven_FireAnimation2>::~ScriptRegistrant<Ra2Ven_FireAnimation2>
_TEXT	ENDS
; Function compile flags: /Odtp /ZI
; File x:\github\renegade\dragonade_rxd\scripts\scripts.h
;	COMDAT ?Create@?$ScriptRegistrant@VRa2Ven_FireAnimation2@@@@UAEPAVScriptImpClass@@XZ
_TEXT	SEGMENT
tv77 = -84						; size = 4
tv79 = -80						; size = 4
$T1 = -76						; size = 4
_script$ = -8						; size = 4
_this$ = -4						; size = 4
?Create@?$ScriptRegistrant@VRa2Ven_FireAnimation2@@@@UAEPAVScriptImpClass@@XZ PROC ; ScriptRegistrant<Ra2Ven_FireAnimation2>::Create, COMDAT
; _this$ = ecx

; 552  : 	{

	push	ebp
	mov	ebp, esp
	sub	esp, 84					; 00000054H
	push	ebx
	push	esi
	push	edi
	mov	DWORD PTR _this$[ebp], ecx

; 553  : 		T* script = new T;

	push	OFFSET ??_C@_0DG@DGMOGKCJ@ScriptRegistrant?$DMclass?5Ra2Ven_Fi@
	push	553					; 00000229H
	push	OFFSET ??_C@_0DD@KMKBFFOF@x?3?2github?2renegade?2dragonade_rxd@
	call	?SetThreadTrackingInformation@@YAXPBDI0@Z ; SetThreadTrackingInformation
	add	esp, 12					; 0000000cH
	xor	eax, eax
	je	SHORT $LN6@Create
	xor	ecx, ecx
	jne	SHORT $LN3@Create
	push	553					; 00000229H
	push	OFFSET ??_C@_1GG@OGNLNBPD@?$AAx?$AA?3?$AA?2?$AAg?$AAi?$AAt?$AAh?$AAu?$AAb?$AA?2?$AAr?$AAe?$AAn?$AAe?$AAg?$AAa?$AAd?$AAe?$AA?2?$AAd?$AAr?$AAa?$AAg?$AAo?$AAn?$AAa?$AAd?$AAe?$AA_?$AAr?$AAx?$AAd@
	push	OFFSET ??_C@_1M@HLGKFCJM@?$AAf?$AAa?$AAl?$AAs?$AAe?$AA?$AA@
	call	DWORD PTR __imp___wassert
	add	esp, 12					; 0000000cH
$LN3@Create:
	mov	DWORD PTR tv79[ebp], 0
	jmp	SHORT $LN7@Create
$LN6@Create:
	push	40					; 00000028H
	call	??2@YAPAXI@Z				; operator new
	add	esp, 4
	mov	DWORD PTR $T1[ebp], eax
	cmp	DWORD PTR $T1[ebp], 0
	je	SHORT $LN4@Create
	mov	ecx, DWORD PTR $T1[ebp]
	call	??0Ra2Ven_FireAnimation2@@QAE@XZ
	mov	DWORD PTR tv77[ebp], eax
	jmp	SHORT $LN5@Create
$LN4@Create:
	mov	DWORD PTR tv77[ebp], 0
$LN5@Create:
	mov	eax, DWORD PTR tv77[ebp]
	mov	DWORD PTR tv79[ebp], eax
$LN7@Create:
	mov	ecx, DWORD PTR tv79[ebp]
	mov	DWORD PTR _script$[ebp], ecx

; 554  : 		script->SetFactory(this);

	mov	eax, DWORD PTR _this$[ebp]
	push	eax
	mov	ecx, DWORD PTR _script$[ebp]
	call	?SetFactory@ScriptImpClass@@QAEXPAVScriptFactory@@@Z ; ScriptImpClass::SetFactory

; 555  : 		script->Register_Auto_Save_Variables();

	mov	eax, DWORD PTR _script$[ebp]
	mov	edx, DWORD PTR [eax]
	mov	ecx, DWORD PTR _script$[ebp]
	mov	eax, DWORD PTR [edx+100]
	call	eax

; 556  : 		return script;

	mov	eax, DWORD PTR _script$[ebp]

; 557  : 	}

	pop	edi
	pop	esi
	pop	ebx
	mov	esp, ebp
	pop	ebp
	ret	0
?Create@?$ScriptRegistrant@VRa2Ven_FireAnimation2@@@@UAEPAVScriptImpClass@@XZ ENDP ; ScriptRegistrant<Ra2Ven_FireAnimation2>::Create
_TEXT	ENDS
; Function compile flags: /Odtp /ZI
; File x:\github\renegade\dragonade_rxd\scripts\scripts.h
;	COMDAT ??0?$ScriptRegistrant@VRa2Ven_FireAnimation2@@@@QAE@PBD0@Z
_TEXT	SEGMENT
_this$ = -4						; size = 4
_name$ = 8						; size = 4
_param$ = 12						; size = 4
??0?$ScriptRegistrant@VRa2Ven_FireAnimation2@@@@QAE@PBD0@Z PROC ; ScriptRegistrant<Ra2Ven_FireAnimation2>::ScriptRegistrant<Ra2Ven_FireAnimation2>, COMDAT
; _this$ = ecx

; 549  : 	{

	push	ebp
	mov	ebp, esp
	sub	esp, 68					; 00000044H
	push	ebx
	push	esi
	push	edi
	mov	DWORD PTR _this$[ebp], ecx
	mov	eax, DWORD PTR _param$[ebp]
	push	eax
	mov	ecx, DWORD PTR _name$[ebp]
	push	ecx
	mov	ecx, DWORD PTR _this$[ebp]
	call	??0ScriptFactory@@IAE@PBD0@Z		; ScriptFactory::ScriptFactory
	mov	eax, DWORD PTR _this$[ebp]
	mov	DWORD PTR [eax], OFFSET ??_7?$ScriptRegistrant@VRa2Ven_FireAnimation2@@@@6B@

; 550  : 	}

	mov	eax, DWORD PTR _this$[ebp]
	pop	edi
	pop	esi
	pop	ebx
	mov	esp, ebp
	pop	ebp
	ret	8
??0?$ScriptRegistrant@VRa2Ven_FireAnimation2@@@@QAE@PBD0@Z ENDP ; ScriptRegistrant<Ra2Ven_FireAnimation2>::ScriptRegistrant<Ra2Ven_FireAnimation2>
_TEXT	ENDS
; Function compile flags: /Odtp /ZI
;	COMDAT ??__FRa2Ven_FireAnimation_Registrant@@YAXXZ
text$yd	SEGMENT
??__FRa2Ven_FireAnimation_Registrant@@YAXXZ PROC	; `dynamic atexit destructor for 'Ra2Ven_FireAnimation_Registrant'', COMDAT
	push	ebp
	mov	ebp, esp
	sub	esp, 64					; 00000040H
	push	ebx
	push	esi
	push	edi
	mov	ecx, OFFSET ?Ra2Ven_FireAnimation_Registrant@@3V?$ScriptRegistrant@VRa2Ven_FireAnimation@@@@A ; Ra2Ven_FireAnimation_Registrant
	call	??1?$ScriptRegistrant@VRa2Ven_FireAnimation@@@@UAE@XZ
	pop	edi
	pop	esi
	pop	ebx
	mov	esp, ebp
	pop	ebp
	ret	0
??__FRa2Ven_FireAnimation_Registrant@@YAXXZ ENDP	; `dynamic atexit destructor for 'Ra2Ven_FireAnimation_Registrant''
text$yd	ENDS
; Function compile flags: /Odtp /ZI
; File x:\github\renegade\dragonade_rxd\scripts\ra2.cpp
;	COMDAT ??__ERa2Ven_FireAnimation_Registrant@@YAXXZ
text$yc	SEGMENT
??__ERa2Ven_FireAnimation_Registrant@@YAXXZ PROC	; `dynamic initializer for 'Ra2Ven_FireAnimation_Registrant'', COMDAT

; 700  : ScriptRegistrant<Ra2Ven_FireAnimation> Ra2Ven_FireAnimation_Registrant("Ra2Ven_FireAnimation","ParentBone:string,MuzzleBone:string,Animation:string,FirstFrame=0:float,LastFrame=0:float,AfAnimation=none:string,AfFirstFrame=0:float,AfLastFrame=0:float,Time=0.1:float,TimerNumber:int");

	push	ebp
	mov	ebp, esp
	sub	esp, 64					; 00000040H
	push	ebx
	push	esi
	push	edi
	push	OFFSET ??_C@_0LK@ENFMEDEE@ParentBone?3string?0MuzzleBone?3str@
	push	OFFSET ??_C@_0BF@BIDCJCOM@Ra2Ven_FireAnimation?$AA@
	mov	ecx, OFFSET ?Ra2Ven_FireAnimation_Registrant@@3V?$ScriptRegistrant@VRa2Ven_FireAnimation@@@@A ; Ra2Ven_FireAnimation_Registrant
	call	??0?$ScriptRegistrant@VRa2Ven_FireAnimation@@@@QAE@PBD0@Z ; ScriptRegistrant<Ra2Ven_FireAnimation>::ScriptRegistrant<Ra2Ven_FireAnimation>
	push	OFFSET ??__FRa2Ven_FireAnimation_Registrant@@YAXXZ ; `dynamic atexit destructor for 'Ra2Ven_FireAnimation_Registrant''
	call	_atexit
	add	esp, 4
	pop	edi
	pop	esi
	pop	ebx
	mov	esp, ebp
	pop	ebp
	ret	0
??__ERa2Ven_FireAnimation_Registrant@@YAXXZ ENDP	; `dynamic initializer for 'Ra2Ven_FireAnimation_Registrant''
text$yc	ENDS
; Function compile flags: /Odtp /ZI
;	COMDAT ??_G?$ScriptRegistrant@VRa2Ven_FireAnimation@@@@UAEPAXI@Z
_TEXT	SEGMENT
_this$ = -4						; size = 4
___flags$ = 8						; size = 4
??_G?$ScriptRegistrant@VRa2Ven_FireAnimation@@@@UAEPAXI@Z PROC ; ScriptRegistrant<Ra2Ven_FireAnimation>::`scalar deleting destructor', COMDAT
; _this$ = ecx
	push	ebp
	mov	ebp, esp
	sub	esp, 68					; 00000044H
	push	ebx
	push	esi
	push	edi
	mov	DWORD PTR _this$[ebp], ecx
	mov	ecx, DWORD PTR _this$[ebp]
	call	??1?$ScriptRegistrant@VRa2Ven_FireAnimation@@@@UAE@XZ
	mov	eax, DWORD PTR ___flags$[ebp]
	and	eax, 1
	je	SHORT $LN1@scalar
	mov	eax, DWORD PTR _this$[ebp]
	push	eax
	call	??3@YAXPAX@Z				; operator delete
	add	esp, 4
$LN1@scalar:
	mov	eax, DWORD PTR _this$[ebp]
	pop	edi
	pop	esi
	pop	ebx
	mov	esp, ebp
	pop	ebp
	ret	4
??_G?$ScriptRegistrant@VRa2Ven_FireAnimation@@@@UAEPAXI@Z ENDP ; ScriptRegistrant<Ra2Ven_FireAnimation>::`scalar deleting destructor'
_TEXT	ENDS
; Function compile flags: /Odtp /ZI
;	COMDAT ??1?$ScriptRegistrant@VRa2Ven_FireAnimation@@@@UAE@XZ
_TEXT	SEGMENT
_this$ = -4						; size = 4
??1?$ScriptRegistrant@VRa2Ven_FireAnimation@@@@UAE@XZ PROC ; ScriptRegistrant<Ra2Ven_FireAnimation>::~ScriptRegistrant<Ra2Ven_FireAnimation>, COMDAT
; _this$ = ecx
	push	ebp
	mov	ebp, esp
	sub	esp, 68					; 00000044H
	push	ebx
	push	esi
	push	edi
	mov	DWORD PTR _this$[ebp], ecx
	mov	ecx, DWORD PTR _this$[ebp]
	call	??1ScriptFactory@@UAE@XZ		; ScriptFactory::~ScriptFactory
	pop	edi
	pop	esi
	pop	ebx
	mov	esp, ebp
	pop	ebp
	ret	0
??1?$ScriptRegistrant@VRa2Ven_FireAnimation@@@@UAE@XZ ENDP ; ScriptRegistrant<Ra2Ven_FireAnimation>::~ScriptRegistrant<Ra2Ven_FireAnimation>
_TEXT	ENDS
; Function compile flags: /Odtp /ZI
; File x:\github\renegade\dragonade_rxd\scripts\scripts.h
;	COMDAT ?Create@?$ScriptRegistrant@VRa2Ven_FireAnimation@@@@UAEPAVScriptImpClass@@XZ
_TEXT	SEGMENT
tv77 = -84						; size = 4
tv79 = -80						; size = 4
$T1 = -76						; size = 4
_script$ = -8						; size = 4
_this$ = -4						; size = 4
?Create@?$ScriptRegistrant@VRa2Ven_FireAnimation@@@@UAEPAVScriptImpClass@@XZ PROC ; ScriptRegistrant<Ra2Ven_FireAnimation>::Create, COMDAT
; _this$ = ecx

; 552  : 	{

	push	ebp
	mov	ebp, esp
	sub	esp, 84					; 00000054H
	push	ebx
	push	esi
	push	edi
	mov	DWORD PTR _this$[ebp], ecx

; 553  : 		T* script = new T;

	push	OFFSET ??_C@_0DF@BFGICEEB@ScriptRegistrant?$DMclass?5Ra2Ven_Fi@
	push	553					; 00000229H
	push	OFFSET ??_C@_0DD@KMKBFFOF@x?3?2github?2renegade?2dragonade_rxd@
	call	?SetThreadTrackingInformation@@YAXPBDI0@Z ; SetThreadTrackingInformation
	add	esp, 12					; 0000000cH
	xor	eax, eax
	je	SHORT $LN6@Create
	xor	ecx, ecx
	jne	SHORT $LN3@Create
	push	553					; 00000229H
	push	OFFSET ??_C@_1GG@OGNLNBPD@?$AAx?$AA?3?$AA?2?$AAg?$AAi?$AAt?$AAh?$AAu?$AAb?$AA?2?$AAr?$AAe?$AAn?$AAe?$AAg?$AAa?$AAd?$AAe?$AA?2?$AAd?$AAr?$AAa?$AAg?$AAo?$AAn?$AAa?$AAd?$AAe?$AA_?$AAr?$AAx?$AAd@
	push	OFFSET ??_C@_1M@HLGKFCJM@?$AAf?$AAa?$AAl?$AAs?$AAe?$AA?$AA@
	call	DWORD PTR __imp___wassert
	add	esp, 12					; 0000000cH
$LN3@Create:
	mov	DWORD PTR tv79[ebp], 0
	jmp	SHORT $LN7@Create
$LN6@Create:
	push	40					; 00000028H
	call	??2@YAPAXI@Z				; operator new
	add	esp, 4
	mov	DWORD PTR $T1[ebp], eax
	cmp	DWORD PTR $T1[ebp], 0
	je	SHORT $LN4@Create
	mov	ecx, DWORD PTR $T1[ebp]
	call	??0Ra2Ven_FireAnimation@@QAE@XZ
	mov	DWORD PTR tv77[ebp], eax
	jmp	SHORT $LN5@Create
$LN4@Create:
	mov	DWORD PTR tv77[ebp], 0
$LN5@Create:
	mov	eax, DWORD PTR tv77[ebp]
	mov	DWORD PTR tv79[ebp], eax
$LN7@Create:
	mov	ecx, DWORD PTR tv79[ebp]
	mov	DWORD PTR _script$[ebp], ecx

; 554  : 		script->SetFactory(this);

	mov	eax, DWORD PTR _this$[ebp]
	push	eax
	mov	ecx, DWORD PTR _script$[ebp]
	call	?SetFactory@ScriptImpClass@@QAEXPAVScriptFactory@@@Z ; ScriptImpClass::SetFactory

; 555  : 		script->Register_Auto_Save_Variables();

	mov	eax, DWORD PTR _script$[ebp]
	mov	edx, DWORD PTR [eax]
	mov	ecx, DWORD PTR _script$[ebp]
	mov	eax, DWORD PTR [edx+100]
	call	eax

; 556  : 		return script;

	mov	eax, DWORD PTR _script$[ebp]

; 557  : 	}

	pop	edi
	pop	esi
	pop	ebx
	mov	esp, ebp
	pop	ebp
	ret	0
?Create@?$ScriptRegistrant@VRa2Ven_FireAnimation@@@@UAEPAVScriptImpClass@@XZ ENDP ; ScriptRegistrant<Ra2Ven_FireAnimation>::Create
_TEXT	ENDS
; Function compile flags: /Odtp /ZI
; File x:\github\renegade\dragonade_rxd\scripts\scripts.h
;	COMDAT ??0?$ScriptRegistrant@VRa2Ven_FireAnimation@@@@QAE@PBD0@Z
_TEXT	SEGMENT
_this$ = -4						; size = 4
_name$ = 8						; size = 4
_param$ = 12						; size = 4
??0?$ScriptRegistrant@VRa2Ven_FireAnimation@@@@QAE@PBD0@Z PROC ; ScriptRegistrant<Ra2Ven_FireAnimation>::ScriptRegistrant<Ra2Ven_FireAnimation>, COMDAT
; _this$ = ecx

; 549  : 	{

	push	ebp
	mov	ebp, esp
	sub	esp, 68					; 00000044H
	push	ebx
	push	esi
	push	edi
	mov	DWORD PTR _this$[ebp], ecx
	mov	eax, DWORD PTR _param$[ebp]
	push	eax
	mov	ecx, DWORD PTR _name$[ebp]
	push	ecx
	mov	ecx, DWORD PTR _this$[ebp]
	call	??0ScriptFactory@@IAE@PBD0@Z		; ScriptFactory::ScriptFactory
	mov	eax, DWORD PTR _this$[ebp]
	mov	DWORD PTR [eax], OFFSET ??_7?$ScriptRegistrant@VRa2Ven_FireAnimation@@@@6B@

; 550  : 	}

	mov	eax, DWORD PTR _this$[ebp]
	pop	edi
	pop	esi
	pop	ebx
	mov	esp, ebp
	pop	ebp
	ret	8
??0?$ScriptRegistrant@VRa2Ven_FireAnimation@@@@QAE@PBD0@Z ENDP ; ScriptRegistrant<Ra2Ven_FireAnimation>::ScriptRegistrant<Ra2Ven_FireAnimation>
_TEXT	ENDS
; Function compile flags: /Odtp /ZI
;	COMDAT ??__FRa2Ven_Dplbl_Vhcls_Cursor_Registrant@@YAXXZ
text$yd	SEGMENT
??__FRa2Ven_Dplbl_Vhcls_Cursor_Registrant@@YAXXZ PROC	; `dynamic atexit destructor for 'Ra2Ven_Dplbl_Vhcls_Cursor_Registrant'', COMDAT
	push	ebp
	mov	ebp, esp
	sub	esp, 64					; 00000040H
	push	ebx
	push	esi
	push	edi
	mov	ecx, OFFSET ?Ra2Ven_Dplbl_Vhcls_Cursor_Registrant@@3V?$ScriptRegistrant@VRa2Ven_Dplbl_Vhcls_Cursor@@@@A ; Ra2Ven_Dplbl_Vhcls_Cursor_Registrant
	call	??1?$ScriptRegistrant@VRa2Ven_Dplbl_Vhcls_Cursor@@@@UAE@XZ
	pop	edi
	pop	esi
	pop	ebx
	mov	esp, ebp
	pop	ebp
	ret	0
??__FRa2Ven_Dplbl_Vhcls_Cursor_Registrant@@YAXXZ ENDP	; `dynamic atexit destructor for 'Ra2Ven_Dplbl_Vhcls_Cursor_Registrant''
text$yd	ENDS
; Function compile flags: /Odtp /ZI
; File x:\github\renegade\dragonade_rxd\scripts\ra2.cpp
;	COMDAT ??__ERa2Ven_Dplbl_Vhcls_Cursor_Registrant@@YAXXZ
text$yc	SEGMENT
??__ERa2Ven_Dplbl_Vhcls_Cursor_Registrant@@YAXXZ PROC	; `dynamic initializer for 'Ra2Ven_Dplbl_Vhcls_Cursor_Registrant'', COMDAT

; 699  : ScriptRegistrant<Ra2Ven_Dplbl_Vhcls_Cursor> Ra2Ven_Dplbl_Vhcls_Cursor_Registrant("Ra2Ven_Dplbl_Vhcls_Cursor","Cursor_preset:string,CursorBoneName:string,CursorExplosion:string,Animation_Preset:string,oldTnk_Warhead:string,oldTnk_Dammage:float,Explosion_preset:string");

	push	ebp
	mov	ebp, esp
	sub	esp, 64					; 00000040H
	push	ebx
	push	esi
	push	edi
	push	OFFSET ??_C@_0JN@GMHFPBPE@Cursor_preset?3string?0CursorBoneN@
	push	OFFSET ??_C@_0BK@CNBANLED@Ra2Ven_Dplbl_Vhcls_Cursor?$AA@
	mov	ecx, OFFSET ?Ra2Ven_Dplbl_Vhcls_Cursor_Registrant@@3V?$ScriptRegistrant@VRa2Ven_Dplbl_Vhcls_Cursor@@@@A ; Ra2Ven_Dplbl_Vhcls_Cursor_Registrant
	call	??0?$ScriptRegistrant@VRa2Ven_Dplbl_Vhcls_Cursor@@@@QAE@PBD0@Z ; ScriptRegistrant<Ra2Ven_Dplbl_Vhcls_Cursor>::ScriptRegistrant<Ra2Ven_Dplbl_Vhcls_Cursor>
	push	OFFSET ??__FRa2Ven_Dplbl_Vhcls_Cursor_Registrant@@YAXXZ ; `dynamic atexit destructor for 'Ra2Ven_Dplbl_Vhcls_Cursor_Registrant''
	call	_atexit
	add	esp, 4
	pop	edi
	pop	esi
	pop	ebx
	mov	esp, ebp
	pop	ebp
	ret	0
??__ERa2Ven_Dplbl_Vhcls_Cursor_Registrant@@YAXXZ ENDP	; `dynamic initializer for 'Ra2Ven_Dplbl_Vhcls_Cursor_Registrant''
text$yc	ENDS
; Function compile flags: /Odtp /ZI
;	COMDAT ??_G?$ScriptRegistrant@VRa2Ven_Dplbl_Vhcls_Cursor@@@@UAEPAXI@Z
_TEXT	SEGMENT
_this$ = -4						; size = 4
___flags$ = 8						; size = 4
??_G?$ScriptRegistrant@VRa2Ven_Dplbl_Vhcls_Cursor@@@@UAEPAXI@Z PROC ; ScriptRegistrant<Ra2Ven_Dplbl_Vhcls_Cursor>::`scalar deleting destructor', COMDAT
; _this$ = ecx
	push	ebp
	mov	ebp, esp
	sub	esp, 68					; 00000044H
	push	ebx
	push	esi
	push	edi
	mov	DWORD PTR _this$[ebp], ecx
	mov	ecx, DWORD PTR _this$[ebp]
	call	??1?$ScriptRegistrant@VRa2Ven_Dplbl_Vhcls_Cursor@@@@UAE@XZ
	mov	eax, DWORD PTR ___flags$[ebp]
	and	eax, 1
	je	SHORT $LN1@scalar
	mov	eax, DWORD PTR _this$[ebp]
	push	eax
	call	??3@YAXPAX@Z				; operator delete
	add	esp, 4
$LN1@scalar:
	mov	eax, DWORD PTR _this$[ebp]
	pop	edi
	pop	esi
	pop	ebx
	mov	esp, ebp
	pop	ebp
	ret	4
??_G?$ScriptRegistrant@VRa2Ven_Dplbl_Vhcls_Cursor@@@@UAEPAXI@Z ENDP ; ScriptRegistrant<Ra2Ven_Dplbl_Vhcls_Cursor>::`scalar deleting destructor'
_TEXT	ENDS
; Function compile flags: /Odtp /ZI
;	COMDAT ??1?$ScriptRegistrant@VRa2Ven_Dplbl_Vhcls_Cursor@@@@UAE@XZ
_TEXT	SEGMENT
_this$ = -4						; size = 4
??1?$ScriptRegistrant@VRa2Ven_Dplbl_Vhcls_Cursor@@@@UAE@XZ PROC ; ScriptRegistrant<Ra2Ven_Dplbl_Vhcls_Cursor>::~ScriptRegistrant<Ra2Ven_Dplbl_Vhcls_Cursor>, COMDAT
; _this$ = ecx
	push	ebp
	mov	ebp, esp
	sub	esp, 68					; 00000044H
	push	ebx
	push	esi
	push	edi
	mov	DWORD PTR _this$[ebp], ecx
	mov	ecx, DWORD PTR _this$[ebp]
	call	??1ScriptFactory@@UAE@XZ		; ScriptFactory::~ScriptFactory
	pop	edi
	pop	esi
	pop	ebx
	mov	esp, ebp
	pop	ebp
	ret	0
??1?$ScriptRegistrant@VRa2Ven_Dplbl_Vhcls_Cursor@@@@UAE@XZ ENDP ; ScriptRegistrant<Ra2Ven_Dplbl_Vhcls_Cursor>::~ScriptRegistrant<Ra2Ven_Dplbl_Vhcls_Cursor>
_TEXT	ENDS
; Function compile flags: /Odtp /ZI
; File x:\github\renegade\dragonade_rxd\scripts\scripts.h
;	COMDAT ?Create@?$ScriptRegistrant@VRa2Ven_Dplbl_Vhcls_Cursor@@@@UAEPAVScriptImpClass@@XZ
_TEXT	SEGMENT
tv77 = -84						; size = 4
tv79 = -80						; size = 4
$T1 = -76						; size = 4
_script$ = -8						; size = 4
_this$ = -4						; size = 4
?Create@?$ScriptRegistrant@VRa2Ven_Dplbl_Vhcls_Cursor@@@@UAEPAVScriptImpClass@@XZ PROC ; ScriptRegistrant<Ra2Ven_Dplbl_Vhcls_Cursor>::Create, COMDAT
; _this$ = ecx

; 552  : 	{

	push	ebp
	mov	ebp, esp
	sub	esp, 84					; 00000054H
	push	ebx
	push	esi
	push	edi
	mov	DWORD PTR _this$[ebp], ecx

; 553  : 		T* script = new T;

	push	OFFSET ??_C@_0DK@JMICGHOF@ScriptRegistrant?$DMclass?5Ra2Ven_Dp@
	push	553					; 00000229H
	push	OFFSET ??_C@_0DD@KMKBFFOF@x?3?2github?2renegade?2dragonade_rxd@
	call	?SetThreadTrackingInformation@@YAXPBDI0@Z ; SetThreadTrackingInformation
	add	esp, 12					; 0000000cH
	xor	eax, eax
	je	SHORT $LN6@Create
	xor	ecx, ecx
	jne	SHORT $LN3@Create
	push	553					; 00000229H
	push	OFFSET ??_C@_1GG@OGNLNBPD@?$AAx?$AA?3?$AA?2?$AAg?$AAi?$AAt?$AAh?$AAu?$AAb?$AA?2?$AAr?$AAe?$AAn?$AAe?$AAg?$AAa?$AAd?$AAe?$AA?2?$AAd?$AAr?$AAa?$AAg?$AAo?$AAn?$AAa?$AAd?$AAe?$AA_?$AAr?$AAx?$AAd@
	push	OFFSET ??_C@_1M@HLGKFCJM@?$AAf?$AAa?$AAl?$AAs?$AAe?$AA?$AA@
	call	DWORD PTR __imp___wassert
	add	esp, 12					; 0000000cH
$LN3@Create:
	mov	DWORD PTR tv79[ebp], 0
	jmp	SHORT $LN7@Create
$LN6@Create:
	push	36					; 00000024H
	call	??2@YAPAXI@Z				; operator new
	add	esp, 4
	mov	DWORD PTR $T1[ebp], eax
	cmp	DWORD PTR $T1[ebp], 0
	je	SHORT $LN4@Create
	mov	ecx, DWORD PTR $T1[ebp]
	call	??0Ra2Ven_Dplbl_Vhcls_Cursor@@QAE@XZ
	mov	DWORD PTR tv77[ebp], eax
	jmp	SHORT $LN5@Create
$LN4@Create:
	mov	DWORD PTR tv77[ebp], 0
$LN5@Create:
	mov	eax, DWORD PTR tv77[ebp]
	mov	DWORD PTR tv79[ebp], eax
$LN7@Create:
	mov	ecx, DWORD PTR tv79[ebp]
	mov	DWORD PTR _script$[ebp], ecx

; 554  : 		script->SetFactory(this);

	mov	eax, DWORD PTR _this$[ebp]
	push	eax
	mov	ecx, DWORD PTR _script$[ebp]
	call	?SetFactory@ScriptImpClass@@QAEXPAVScriptFactory@@@Z ; ScriptImpClass::SetFactory

; 555  : 		script->Register_Auto_Save_Variables();

	mov	eax, DWORD PTR _script$[ebp]
	mov	edx, DWORD PTR [eax]
	mov	ecx, DWORD PTR _script$[ebp]
	mov	eax, DWORD PTR [edx+100]
	call	eax

; 556  : 		return script;

	mov	eax, DWORD PTR _script$[ebp]

; 557  : 	}

	pop	edi
	pop	esi
	pop	ebx
	mov	esp, ebp
	pop	ebp
	ret	0
?Create@?$ScriptRegistrant@VRa2Ven_Dplbl_Vhcls_Cursor@@@@UAEPAVScriptImpClass@@XZ ENDP ; ScriptRegistrant<Ra2Ven_Dplbl_Vhcls_Cursor>::Create
_TEXT	ENDS
; Function compile flags: /Odtp /ZI
; File x:\github\renegade\dragonade_rxd\scripts\scripts.h
;	COMDAT ??0?$ScriptRegistrant@VRa2Ven_Dplbl_Vhcls_Cursor@@@@QAE@PBD0@Z
_TEXT	SEGMENT
_this$ = -4						; size = 4
_name$ = 8						; size = 4
_param$ = 12						; size = 4
??0?$ScriptRegistrant@VRa2Ven_Dplbl_Vhcls_Cursor@@@@QAE@PBD0@Z PROC ; ScriptRegistrant<Ra2Ven_Dplbl_Vhcls_Cursor>::ScriptRegistrant<Ra2Ven_Dplbl_Vhcls_Cursor>, COMDAT
; _this$ = ecx

; 549  : 	{

	push	ebp
	mov	ebp, esp
	sub	esp, 68					; 00000044H
	push	ebx
	push	esi
	push	edi
	mov	DWORD PTR _this$[ebp], ecx
	mov	eax, DWORD PTR _param$[ebp]
	push	eax
	mov	ecx, DWORD PTR _name$[ebp]
	push	ecx
	mov	ecx, DWORD PTR _this$[ebp]
	call	??0ScriptFactory@@IAE@PBD0@Z		; ScriptFactory::ScriptFactory
	mov	eax, DWORD PTR _this$[ebp]
	mov	DWORD PTR [eax], OFFSET ??_7?$ScriptRegistrant@VRa2Ven_Dplbl_Vhcls_Cursor@@@@6B@

; 550  : 	}

	mov	eax, DWORD PTR _this$[ebp]
	pop	edi
	pop	esi
	pop	ebx
	mov	esp, ebp
	pop	ebp
	ret	8
??0?$ScriptRegistrant@VRa2Ven_Dplbl_Vhcls_Cursor@@@@QAE@PBD0@Z ENDP ; ScriptRegistrant<Ra2Ven_Dplbl_Vhcls_Cursor>::ScriptRegistrant<Ra2Ven_Dplbl_Vhcls_Cursor>
_TEXT	ENDS
; Function compile flags: /Odtp /ZI
;	COMDAT ??__FRa2Ven_OccupentWeapon_Registrant@@YAXXZ
text$yd	SEGMENT
??__FRa2Ven_OccupentWeapon_Registrant@@YAXXZ PROC	; `dynamic atexit destructor for 'Ra2Ven_OccupentWeapon_Registrant'', COMDAT
	push	ebp
	mov	ebp, esp
	sub	esp, 64					; 00000040H
	push	ebx
	push	esi
	push	edi
	mov	ecx, OFFSET ?Ra2Ven_OccupentWeapon_Registrant@@3V?$ScriptRegistrant@VRa2Ven_OccupentWeapon@@@@A ; Ra2Ven_OccupentWeapon_Registrant
	call	??1?$ScriptRegistrant@VRa2Ven_OccupentWeapon@@@@UAE@XZ
	pop	edi
	pop	esi
	pop	ebx
	mov	esp, ebp
	pop	ebp
	ret	0
??__FRa2Ven_OccupentWeapon_Registrant@@YAXXZ ENDP	; `dynamic atexit destructor for 'Ra2Ven_OccupentWeapon_Registrant''
text$yd	ENDS
; Function compile flags: /Odtp /ZI
; File x:\github\renegade\dragonade_rxd\scripts\ra2.cpp
;	COMDAT ??__ERa2Ven_OccupentWeapon_Registrant@@YAXXZ
text$yc	SEGMENT
??__ERa2Ven_OccupentWeapon_Registrant@@YAXXZ PROC	; `dynamic initializer for 'Ra2Ven_OccupentWeapon_Registrant'', COMDAT

; 698  : ScriptRegistrant<Ra2Ven_OccupentWeapon> Ra2Ven_OccupentWeapon_Registrant("Ra2Ven_OccupentWeapon","Character1:string,PowerUp1:string,Weapon1:string,Character2:string,PowerUp2:string,Weapon2:string,Character3:string,PowerUp3:string,Weapon3:string,Character4:string,PowerUp4:string,Weapon4:string,DefPowerUp:string,DefWeapon:string");

	push	ebp
	mov	ebp, esp
	sub	esp, 64					; 00000040H
	push	ebx
	push	esi
	push	edi
	push	OFFSET ??_C@_0OH@ENMICBLF@Character1?3string?0PowerUp1?3strin@
	push	OFFSET ??_C@_0BG@LPHGIKDE@Ra2Ven_OccupentWeapon?$AA@
	mov	ecx, OFFSET ?Ra2Ven_OccupentWeapon_Registrant@@3V?$ScriptRegistrant@VRa2Ven_OccupentWeapon@@@@A ; Ra2Ven_OccupentWeapon_Registrant
	call	??0?$ScriptRegistrant@VRa2Ven_OccupentWeapon@@@@QAE@PBD0@Z ; ScriptRegistrant<Ra2Ven_OccupentWeapon>::ScriptRegistrant<Ra2Ven_OccupentWeapon>
	push	OFFSET ??__FRa2Ven_OccupentWeapon_Registrant@@YAXXZ ; `dynamic atexit destructor for 'Ra2Ven_OccupentWeapon_Registrant''
	call	_atexit
	add	esp, 4
	pop	edi
	pop	esi
	pop	ebx
	mov	esp, ebp
	pop	ebp
	ret	0
??__ERa2Ven_OccupentWeapon_Registrant@@YAXXZ ENDP	; `dynamic initializer for 'Ra2Ven_OccupentWeapon_Registrant''
text$yc	ENDS
; Function compile flags: /Odtp /ZI
;	COMDAT ??_G?$ScriptRegistrant@VRa2Ven_OccupentWeapon@@@@UAEPAXI@Z
_TEXT	SEGMENT
_this$ = -4						; size = 4
___flags$ = 8						; size = 4
??_G?$ScriptRegistrant@VRa2Ven_OccupentWeapon@@@@UAEPAXI@Z PROC ; ScriptRegistrant<Ra2Ven_OccupentWeapon>::`scalar deleting destructor', COMDAT
; _this$ = ecx
	push	ebp
	mov	ebp, esp
	sub	esp, 68					; 00000044H
	push	ebx
	push	esi
	push	edi
	mov	DWORD PTR _this$[ebp], ecx
	mov	ecx, DWORD PTR _this$[ebp]
	call	??1?$ScriptRegistrant@VRa2Ven_OccupentWeapon@@@@UAE@XZ
	mov	eax, DWORD PTR ___flags$[ebp]
	and	eax, 1
	je	SHORT $LN1@scalar
	mov	eax, DWORD PTR _this$[ebp]
	push	eax
	call	??3@YAXPAX@Z				; operator delete
	add	esp, 4
$LN1@scalar:
	mov	eax, DWORD PTR _this$[ebp]
	pop	edi
	pop	esi
	pop	ebx
	mov	esp, ebp
	pop	ebp
	ret	4
??_G?$ScriptRegistrant@VRa2Ven_OccupentWeapon@@@@UAEPAXI@Z ENDP ; ScriptRegistrant<Ra2Ven_OccupentWeapon>::`scalar deleting destructor'
_TEXT	ENDS
; Function compile flags: /Odtp /ZI
;	COMDAT ??1?$ScriptRegistrant@VRa2Ven_OccupentWeapon@@@@UAE@XZ
_TEXT	SEGMENT
_this$ = -4						; size = 4
??1?$ScriptRegistrant@VRa2Ven_OccupentWeapon@@@@UAE@XZ PROC ; ScriptRegistrant<Ra2Ven_OccupentWeapon>::~ScriptRegistrant<Ra2Ven_OccupentWeapon>, COMDAT
; _this$ = ecx
	push	ebp
	mov	ebp, esp
	sub	esp, 68					; 00000044H
	push	ebx
	push	esi
	push	edi
	mov	DWORD PTR _this$[ebp], ecx
	mov	ecx, DWORD PTR _this$[ebp]
	call	??1ScriptFactory@@UAE@XZ		; ScriptFactory::~ScriptFactory
	pop	edi
	pop	esi
	pop	ebx
	mov	esp, ebp
	pop	ebp
	ret	0
??1?$ScriptRegistrant@VRa2Ven_OccupentWeapon@@@@UAE@XZ ENDP ; ScriptRegistrant<Ra2Ven_OccupentWeapon>::~ScriptRegistrant<Ra2Ven_OccupentWeapon>
_TEXT	ENDS
; Function compile flags: /Odtp /ZI
; File x:\github\renegade\dragonade_rxd\scripts\scripts.h
;	COMDAT ?Create@?$ScriptRegistrant@VRa2Ven_OccupentWeapon@@@@UAEPAVScriptImpClass@@XZ
_TEXT	SEGMENT
tv77 = -84						; size = 4
tv79 = -80						; size = 4
$T1 = -76						; size = 4
_script$ = -8						; size = 4
_this$ = -4						; size = 4
?Create@?$ScriptRegistrant@VRa2Ven_OccupentWeapon@@@@UAEPAVScriptImpClass@@XZ PROC ; ScriptRegistrant<Ra2Ven_OccupentWeapon>::Create, COMDAT
; _this$ = ecx

; 552  : 	{

	push	ebp
	mov	ebp, esp
	sub	esp, 84					; 00000054H
	push	ebx
	push	esi
	push	edi
	mov	DWORD PTR _this$[ebp], ecx

; 553  : 		T* script = new T;

	push	OFFSET ??_C@_0DG@MJKONFGH@ScriptRegistrant?$DMclass?5Ra2Ven_Oc@
	push	553					; 00000229H
	push	OFFSET ??_C@_0DD@KMKBFFOF@x?3?2github?2renegade?2dragonade_rxd@
	call	?SetThreadTrackingInformation@@YAXPBDI0@Z ; SetThreadTrackingInformation
	add	esp, 12					; 0000000cH
	xor	eax, eax
	je	SHORT $LN6@Create
	xor	ecx, ecx
	jne	SHORT $LN3@Create
	push	553					; 00000229H
	push	OFFSET ??_C@_1GG@OGNLNBPD@?$AAx?$AA?3?$AA?2?$AAg?$AAi?$AAt?$AAh?$AAu?$AAb?$AA?2?$AAr?$AAe?$AAn?$AAe?$AAg?$AAa?$AAd?$AAe?$AA?2?$AAd?$AAr?$AAa?$AAg?$AAo?$AAn?$AAa?$AAd?$AAe?$AA_?$AAr?$AAx?$AAd@
	push	OFFSET ??_C@_1M@HLGKFCJM@?$AAf?$AAa?$AAl?$AAs?$AAe?$AA?$AA@
	call	DWORD PTR __imp___wassert
	add	esp, 12					; 0000000cH
$LN3@Create:
	mov	DWORD PTR tv79[ebp], 0
	jmp	SHORT $LN7@Create
$LN6@Create:
	push	28					; 0000001cH
	call	??2@YAPAXI@Z				; operator new
	add	esp, 4
	mov	DWORD PTR $T1[ebp], eax
	cmp	DWORD PTR $T1[ebp], 0
	je	SHORT $LN4@Create
	mov	ecx, DWORD PTR $T1[ebp]
	call	??0Ra2Ven_OccupentWeapon@@QAE@XZ
	mov	DWORD PTR tv77[ebp], eax
	jmp	SHORT $LN5@Create
$LN4@Create:
	mov	DWORD PTR tv77[ebp], 0
$LN5@Create:
	mov	eax, DWORD PTR tv77[ebp]
	mov	DWORD PTR tv79[ebp], eax
$LN7@Create:
	mov	ecx, DWORD PTR tv79[ebp]
	mov	DWORD PTR _script$[ebp], ecx

; 554  : 		script->SetFactory(this);

	mov	eax, DWORD PTR _this$[ebp]
	push	eax
	mov	ecx, DWORD PTR _script$[ebp]
	call	?SetFactory@ScriptImpClass@@QAEXPAVScriptFactory@@@Z ; ScriptImpClass::SetFactory

; 555  : 		script->Register_Auto_Save_Variables();

	mov	eax, DWORD PTR _script$[ebp]
	mov	edx, DWORD PTR [eax]
	mov	ecx, DWORD PTR _script$[ebp]
	mov	eax, DWORD PTR [edx+100]
	call	eax

; 556  : 		return script;

	mov	eax, DWORD PTR _script$[ebp]

; 557  : 	}

	pop	edi
	pop	esi
	pop	ebx
	mov	esp, ebp
	pop	ebp
	ret	0
?Create@?$ScriptRegistrant@VRa2Ven_OccupentWeapon@@@@UAEPAVScriptImpClass@@XZ ENDP ; ScriptRegistrant<Ra2Ven_OccupentWeapon>::Create
_TEXT	ENDS
; Function compile flags: /Odtp /ZI
; File x:\github\renegade\dragonade_rxd\scripts\scripts.h
;	COMDAT ??0?$ScriptRegistrant@VRa2Ven_OccupentWeapon@@@@QAE@PBD0@Z
_TEXT	SEGMENT
_this$ = -4						; size = 4
_name$ = 8						; size = 4
_param$ = 12						; size = 4
??0?$ScriptRegistrant@VRa2Ven_OccupentWeapon@@@@QAE@PBD0@Z PROC ; ScriptRegistrant<Ra2Ven_OccupentWeapon>::ScriptRegistrant<Ra2Ven_OccupentWeapon>, COMDAT
; _this$ = ecx

; 549  : 	{

	push	ebp
	mov	ebp, esp
	sub	esp, 68					; 00000044H
	push	ebx
	push	esi
	push	edi
	mov	DWORD PTR _this$[ebp], ecx
	mov	eax, DWORD PTR _param$[ebp]
	push	eax
	mov	ecx, DWORD PTR _name$[ebp]
	push	ecx
	mov	ecx, DWORD PTR _this$[ebp]
	call	??0ScriptFactory@@IAE@PBD0@Z		; ScriptFactory::ScriptFactory
	mov	eax, DWORD PTR _this$[ebp]
	mov	DWORD PTR [eax], OFFSET ??_7?$ScriptRegistrant@VRa2Ven_OccupentWeapon@@@@6B@

; 550  : 	}

	mov	eax, DWORD PTR _this$[ebp]
	pop	edi
	pop	esi
	pop	ebx
	mov	esp, ebp
	pop	ebp
	ret	8
??0?$ScriptRegistrant@VRa2Ven_OccupentWeapon@@@@QAE@PBD0@Z ENDP ; ScriptRegistrant<Ra2Ven_OccupentWeapon>::ScriptRegistrant<Ra2Ven_OccupentWeapon>
_TEXT	ENDS
; Function compile flags: /Odtp /ZI
;	COMDAT ??__FRa2Ven_TurretSoundObj_Registrant@@YAXXZ
text$yd	SEGMENT
??__FRa2Ven_TurretSoundObj_Registrant@@YAXXZ PROC	; `dynamic atexit destructor for 'Ra2Ven_TurretSoundObj_Registrant'', COMDAT
	push	ebp
	mov	ebp, esp
	sub	esp, 64					; 00000040H
	push	ebx
	push	esi
	push	edi
	mov	ecx, OFFSET ?Ra2Ven_TurretSoundObj_Registrant@@3V?$ScriptRegistrant@VRa2Ven_TurretSoundObj@@@@A ; Ra2Ven_TurretSoundObj_Registrant
	call	??1?$ScriptRegistrant@VRa2Ven_TurretSoundObj@@@@UAE@XZ
	pop	edi
	pop	esi
	pop	ebx
	mov	esp, ebp
	pop	ebp
	ret	0
??__FRa2Ven_TurretSoundObj_Registrant@@YAXXZ ENDP	; `dynamic atexit destructor for 'Ra2Ven_TurretSoundObj_Registrant''
text$yd	ENDS
; Function compile flags: /Odtp /ZI
; File x:\github\renegade\dragonade_rxd\scripts\ra2.cpp
;	COMDAT ??__ERa2Ven_TurretSoundObj_Registrant@@YAXXZ
text$yc	SEGMENT
??__ERa2Ven_TurretSoundObj_Registrant@@YAXXZ PROC	; `dynamic initializer for 'Ra2Ven_TurretSoundObj_Registrant'', COMDAT

; 697  : ScriptRegistrant<Ra2Ven_TurretSoundObj> Ra2Ven_TurretSoundObj_Registrant("Ra2Ven_TurretSoundObj","RotationAngleLimit:int,Rotate_3dSound:string,Explosion_Preset:string,Time=0.5:float,TimerNumber:int,Wav_Length:float,TimerNumber2:int");

	push	ebp
	mov	ebp, esp
	sub	esp, 64					; 00000040H
	push	ebx
	push	esi
	push	edi
	push	OFFSET ??_C@_0IG@FGCNNLKF@RotationAngleLimit?3int?0Rotate_3d@
	push	OFFSET ??_C@_0BG@HBACDDIO@Ra2Ven_TurretSoundObj?$AA@
	mov	ecx, OFFSET ?Ra2Ven_TurretSoundObj_Registrant@@3V?$ScriptRegistrant@VRa2Ven_TurretSoundObj@@@@A ; Ra2Ven_TurretSoundObj_Registrant
	call	??0?$ScriptRegistrant@VRa2Ven_TurretSoundObj@@@@QAE@PBD0@Z ; ScriptRegistrant<Ra2Ven_TurretSoundObj>::ScriptRegistrant<Ra2Ven_TurretSoundObj>
	push	OFFSET ??__FRa2Ven_TurretSoundObj_Registrant@@YAXXZ ; `dynamic atexit destructor for 'Ra2Ven_TurretSoundObj_Registrant''
	call	_atexit
	add	esp, 4
	pop	edi
	pop	esi
	pop	ebx
	mov	esp, ebp
	pop	ebp
	ret	0
??__ERa2Ven_TurretSoundObj_Registrant@@YAXXZ ENDP	; `dynamic initializer for 'Ra2Ven_TurretSoundObj_Registrant''
text$yc	ENDS
; Function compile flags: /Odtp /ZI
;	COMDAT ??_G?$ScriptRegistrant@VRa2Ven_TurretSoundObj@@@@UAEPAXI@Z
_TEXT	SEGMENT
_this$ = -4						; size = 4
___flags$ = 8						; size = 4
??_G?$ScriptRegistrant@VRa2Ven_TurretSoundObj@@@@UAEPAXI@Z PROC ; ScriptRegistrant<Ra2Ven_TurretSoundObj>::`scalar deleting destructor', COMDAT
; _this$ = ecx
	push	ebp
	mov	ebp, esp
	sub	esp, 68					; 00000044H
	push	ebx
	push	esi
	push	edi
	mov	DWORD PTR _this$[ebp], ecx
	mov	ecx, DWORD PTR _this$[ebp]
	call	??1?$ScriptRegistrant@VRa2Ven_TurretSoundObj@@@@UAE@XZ
	mov	eax, DWORD PTR ___flags$[ebp]
	and	eax, 1
	je	SHORT $LN1@scalar
	mov	eax, DWORD PTR _this$[ebp]
	push	eax
	call	??3@YAXPAX@Z				; operator delete
	add	esp, 4
$LN1@scalar:
	mov	eax, DWORD PTR _this$[ebp]
	pop	edi
	pop	esi
	pop	ebx
	mov	esp, ebp
	pop	ebp
	ret	4
??_G?$ScriptRegistrant@VRa2Ven_TurretSoundObj@@@@UAEPAXI@Z ENDP ; ScriptRegistrant<Ra2Ven_TurretSoundObj>::`scalar deleting destructor'
_TEXT	ENDS
; Function compile flags: /Odtp /ZI
;	COMDAT ??1?$ScriptRegistrant@VRa2Ven_TurretSoundObj@@@@UAE@XZ
_TEXT	SEGMENT
_this$ = -4						; size = 4
??1?$ScriptRegistrant@VRa2Ven_TurretSoundObj@@@@UAE@XZ PROC ; ScriptRegistrant<Ra2Ven_TurretSoundObj>::~ScriptRegistrant<Ra2Ven_TurretSoundObj>, COMDAT
; _this$ = ecx
	push	ebp
	mov	ebp, esp
	sub	esp, 68					; 00000044H
	push	ebx
	push	esi
	push	edi
	mov	DWORD PTR _this$[ebp], ecx
	mov	ecx, DWORD PTR _this$[ebp]
	call	??1ScriptFactory@@UAE@XZ		; ScriptFactory::~ScriptFactory
	pop	edi
	pop	esi
	pop	ebx
	mov	esp, ebp
	pop	ebp
	ret	0
??1?$ScriptRegistrant@VRa2Ven_TurretSoundObj@@@@UAE@XZ ENDP ; ScriptRegistrant<Ra2Ven_TurretSoundObj>::~ScriptRegistrant<Ra2Ven_TurretSoundObj>
_TEXT	ENDS
; Function compile flags: /Odtp /ZI
; File x:\github\renegade\dragonade_rxd\scripts\scripts.h
;	COMDAT ?Create@?$ScriptRegistrant@VRa2Ven_TurretSoundObj@@@@UAEPAVScriptImpClass@@XZ
_TEXT	SEGMENT
tv77 = -84						; size = 4
tv79 = -80						; size = 4
$T1 = -76						; size = 4
_script$ = -8						; size = 4
_this$ = -4						; size = 4
?Create@?$ScriptRegistrant@VRa2Ven_TurretSoundObj@@@@UAEPAVScriptImpClass@@XZ PROC ; ScriptRegistrant<Ra2Ven_TurretSoundObj>::Create, COMDAT
; _this$ = ecx

; 552  : 	{

	push	ebp
	mov	ebp, esp
	sub	esp, 84					; 00000054H
	push	ebx
	push	esi
	push	edi
	mov	DWORD PTR _this$[ebp], ecx

; 553  : 		T* script = new T;

	push	OFFSET ??_C@_0DG@OOJINJBE@ScriptRegistrant?$DMclass?5Ra2Ven_Tu@
	push	553					; 00000229H
	push	OFFSET ??_C@_0DD@KMKBFFOF@x?3?2github?2renegade?2dragonade_rxd@
	call	?SetThreadTrackingInformation@@YAXPBDI0@Z ; SetThreadTrackingInformation
	add	esp, 12					; 0000000cH
	xor	eax, eax
	je	SHORT $LN6@Create
	xor	ecx, ecx
	jne	SHORT $LN3@Create
	push	553					; 00000229H
	push	OFFSET ??_C@_1GG@OGNLNBPD@?$AAx?$AA?3?$AA?2?$AAg?$AAi?$AAt?$AAh?$AAu?$AAb?$AA?2?$AAr?$AAe?$AAn?$AAe?$AAg?$AAa?$AAd?$AAe?$AA?2?$AAd?$AAr?$AAa?$AAg?$AAo?$AAn?$AAa?$AAd?$AAe?$AA_?$AAr?$AAx?$AAd@
	push	OFFSET ??_C@_1M@HLGKFCJM@?$AAf?$AAa?$AAl?$AAs?$AAe?$AA?$AA@
	call	DWORD PTR __imp___wassert
	add	esp, 12					; 0000000cH
$LN3@Create:
	mov	DWORD PTR tv79[ebp], 0
	jmp	SHORT $LN7@Create
$LN6@Create:
	push	36					; 00000024H
	call	??2@YAPAXI@Z				; operator new
	add	esp, 4
	mov	DWORD PTR $T1[ebp], eax
	cmp	DWORD PTR $T1[ebp], 0
	je	SHORT $LN4@Create
	mov	ecx, DWORD PTR $T1[ebp]
	call	??0Ra2Ven_TurretSoundObj@@QAE@XZ
	mov	DWORD PTR tv77[ebp], eax
	jmp	SHORT $LN5@Create
$LN4@Create:
	mov	DWORD PTR tv77[ebp], 0
$LN5@Create:
	mov	eax, DWORD PTR tv77[ebp]
	mov	DWORD PTR tv79[ebp], eax
$LN7@Create:
	mov	ecx, DWORD PTR tv79[ebp]
	mov	DWORD PTR _script$[ebp], ecx

; 554  : 		script->SetFactory(this);

	mov	eax, DWORD PTR _this$[ebp]
	push	eax
	mov	ecx, DWORD PTR _script$[ebp]
	call	?SetFactory@ScriptImpClass@@QAEXPAVScriptFactory@@@Z ; ScriptImpClass::SetFactory

; 555  : 		script->Register_Auto_Save_Variables();

	mov	eax, DWORD PTR _script$[ebp]
	mov	edx, DWORD PTR [eax]
	mov	ecx, DWORD PTR _script$[ebp]
	mov	eax, DWORD PTR [edx+100]
	call	eax

; 556  : 		return script;

	mov	eax, DWORD PTR _script$[ebp]

; 557  : 	}

	pop	edi
	pop	esi
	pop	ebx
	mov	esp, ebp
	pop	ebp
	ret	0
?Create@?$ScriptRegistrant@VRa2Ven_TurretSoundObj@@@@UAEPAVScriptImpClass@@XZ ENDP ; ScriptRegistrant<Ra2Ven_TurretSoundObj>::Create
_TEXT	ENDS
; Function compile flags: /Odtp /ZI
; File x:\github\renegade\dragonade_rxd\scripts\scripts.h
;	COMDAT ??0?$ScriptRegistrant@VRa2Ven_TurretSoundObj@@@@QAE@PBD0@Z
_TEXT	SEGMENT
_this$ = -4						; size = 4
_name$ = 8						; size = 4
_param$ = 12						; size = 4
??0?$ScriptRegistrant@VRa2Ven_TurretSoundObj@@@@QAE@PBD0@Z PROC ; ScriptRegistrant<Ra2Ven_TurretSoundObj>::ScriptRegistrant<Ra2Ven_TurretSoundObj>, COMDAT
; _this$ = ecx

; 549  : 	{

	push	ebp
	mov	ebp, esp
	sub	esp, 68					; 00000044H
	push	ebx
	push	esi
	push	edi
	mov	DWORD PTR _this$[ebp], ecx
	mov	eax, DWORD PTR _param$[ebp]
	push	eax
	mov	ecx, DWORD PTR _name$[ebp]
	push	ecx
	mov	ecx, DWORD PTR _this$[ebp]
	call	??0ScriptFactory@@IAE@PBD0@Z		; ScriptFactory::ScriptFactory
	mov	eax, DWORD PTR _this$[ebp]
	mov	DWORD PTR [eax], OFFSET ??_7?$ScriptRegistrant@VRa2Ven_TurretSoundObj@@@@6B@

; 550  : 	}

	mov	eax, DWORD PTR _this$[ebp]
	pop	edi
	pop	esi
	pop	ebx
	mov	esp, ebp
	pop	ebp
	ret	8
??0?$ScriptRegistrant@VRa2Ven_TurretSoundObj@@@@QAE@PBD0@Z ENDP ; ScriptRegistrant<Ra2Ven_TurretSoundObj>::ScriptRegistrant<Ra2Ven_TurretSoundObj>
_TEXT	ENDS
; Function compile flags: /Odtp /ZI
;	COMDAT ??__FRa2Ven_TurretSound_Registrant@@YAXXZ
text$yd	SEGMENT
??__FRa2Ven_TurretSound_Registrant@@YAXXZ PROC		; `dynamic atexit destructor for 'Ra2Ven_TurretSound_Registrant'', COMDAT
	push	ebp
	mov	ebp, esp
	sub	esp, 64					; 00000040H
	push	ebx
	push	esi
	push	edi
	mov	ecx, OFFSET ?Ra2Ven_TurretSound_Registrant@@3V?$ScriptRegistrant@VRa2Ven_TurretSound@@@@A ; Ra2Ven_TurretSound_Registrant
	call	??1?$ScriptRegistrant@VRa2Ven_TurretSound@@@@UAE@XZ
	pop	edi
	pop	esi
	pop	ebx
	mov	esp, ebp
	pop	ebp
	ret	0
??__FRa2Ven_TurretSound_Registrant@@YAXXZ ENDP		; `dynamic atexit destructor for 'Ra2Ven_TurretSound_Registrant''
text$yd	ENDS
; Function compile flags: /Odtp /ZI
; File x:\github\renegade\dragonade_rxd\scripts\ra2.cpp
;	COMDAT ??__ERa2Ven_TurretSound_Registrant@@YAXXZ
text$yc	SEGMENT
??__ERa2Ven_TurretSound_Registrant@@YAXXZ PROC		; `dynamic initializer for 'Ra2Ven_TurretSound_Registrant'', COMDAT

; 696  : ScriptRegistrant<Ra2Ven_TurretSound> Ra2Ven_TurretSound_Registrant("Ra2Ven_TurretSound","TurretSoundObj:string");

	push	ebp
	mov	ebp, esp
	sub	esp, 64					; 00000040H
	push	ebx
	push	esi
	push	edi
	push	OFFSET ??_C@_0BG@DLGJMNLO@TurretSoundObj?3string?$AA@
	push	OFFSET ??_C@_0BD@PLBPDJIG@Ra2Ven_TurretSound?$AA@
	mov	ecx, OFFSET ?Ra2Ven_TurretSound_Registrant@@3V?$ScriptRegistrant@VRa2Ven_TurretSound@@@@A ; Ra2Ven_TurretSound_Registrant
	call	??0?$ScriptRegistrant@VRa2Ven_TurretSound@@@@QAE@PBD0@Z ; ScriptRegistrant<Ra2Ven_TurretSound>::ScriptRegistrant<Ra2Ven_TurretSound>
	push	OFFSET ??__FRa2Ven_TurretSound_Registrant@@YAXXZ ; `dynamic atexit destructor for 'Ra2Ven_TurretSound_Registrant''
	call	_atexit
	add	esp, 4
	pop	edi
	pop	esi
	pop	ebx
	mov	esp, ebp
	pop	ebp
	ret	0
??__ERa2Ven_TurretSound_Registrant@@YAXXZ ENDP		; `dynamic initializer for 'Ra2Ven_TurretSound_Registrant''
text$yc	ENDS
; Function compile flags: /Odtp /ZI
;	COMDAT ??_G?$ScriptRegistrant@VRa2Ven_TurretSound@@@@UAEPAXI@Z
_TEXT	SEGMENT
_this$ = -4						; size = 4
___flags$ = 8						; size = 4
??_G?$ScriptRegistrant@VRa2Ven_TurretSound@@@@UAEPAXI@Z PROC ; ScriptRegistrant<Ra2Ven_TurretSound>::`scalar deleting destructor', COMDAT
; _this$ = ecx
	push	ebp
	mov	ebp, esp
	sub	esp, 68					; 00000044H
	push	ebx
	push	esi
	push	edi
	mov	DWORD PTR _this$[ebp], ecx
	mov	ecx, DWORD PTR _this$[ebp]
	call	??1?$ScriptRegistrant@VRa2Ven_TurretSound@@@@UAE@XZ
	mov	eax, DWORD PTR ___flags$[ebp]
	and	eax, 1
	je	SHORT $LN1@scalar
	mov	eax, DWORD PTR _this$[ebp]
	push	eax
	call	??3@YAXPAX@Z				; operator delete
	add	esp, 4
$LN1@scalar:
	mov	eax, DWORD PTR _this$[ebp]
	pop	edi
	pop	esi
	pop	ebx
	mov	esp, ebp
	pop	ebp
	ret	4
??_G?$ScriptRegistrant@VRa2Ven_TurretSound@@@@UAEPAXI@Z ENDP ; ScriptRegistrant<Ra2Ven_TurretSound>::`scalar deleting destructor'
_TEXT	ENDS
; Function compile flags: /Odtp /ZI
;	COMDAT ??1?$ScriptRegistrant@VRa2Ven_TurretSound@@@@UAE@XZ
_TEXT	SEGMENT
_this$ = -4						; size = 4
??1?$ScriptRegistrant@VRa2Ven_TurretSound@@@@UAE@XZ PROC ; ScriptRegistrant<Ra2Ven_TurretSound>::~ScriptRegistrant<Ra2Ven_TurretSound>, COMDAT
; _this$ = ecx
	push	ebp
	mov	ebp, esp
	sub	esp, 68					; 00000044H
	push	ebx
	push	esi
	push	edi
	mov	DWORD PTR _this$[ebp], ecx
	mov	ecx, DWORD PTR _this$[ebp]
	call	??1ScriptFactory@@UAE@XZ		; ScriptFactory::~ScriptFactory
	pop	edi
	pop	esi
	pop	ebx
	mov	esp, ebp
	pop	ebp
	ret	0
??1?$ScriptRegistrant@VRa2Ven_TurretSound@@@@UAE@XZ ENDP ; ScriptRegistrant<Ra2Ven_TurretSound>::~ScriptRegistrant<Ra2Ven_TurretSound>
_TEXT	ENDS
; Function compile flags: /Odtp /ZI
; File x:\github\renegade\dragonade_rxd\scripts\scripts.h
;	COMDAT ?Create@?$ScriptRegistrant@VRa2Ven_TurretSound@@@@UAEPAVScriptImpClass@@XZ
_TEXT	SEGMENT
tv77 = -84						; size = 4
tv79 = -80						; size = 4
$T1 = -76						; size = 4
_script$ = -8						; size = 4
_this$ = -4						; size = 4
?Create@?$ScriptRegistrant@VRa2Ven_TurretSound@@@@UAEPAVScriptImpClass@@XZ PROC ; ScriptRegistrant<Ra2Ven_TurretSound>::Create, COMDAT
; _this$ = ecx

; 552  : 	{

	push	ebp
	mov	ebp, esp
	sub	esp, 84					; 00000054H
	push	ebx
	push	esi
	push	edi
	mov	DWORD PTR _this$[ebp], ecx

; 553  : 		T* script = new T;

	push	OFFSET ??_C@_0DD@POLGNOHI@ScriptRegistrant?$DMclass?5Ra2Ven_Tu@
	push	553					; 00000229H
	push	OFFSET ??_C@_0DD@KMKBFFOF@x?3?2github?2renegade?2dragonade_rxd@
	call	?SetThreadTrackingInformation@@YAXPBDI0@Z ; SetThreadTrackingInformation
	add	esp, 12					; 0000000cH
	xor	eax, eax
	je	SHORT $LN6@Create
	xor	ecx, ecx
	jne	SHORT $LN3@Create
	push	553					; 00000229H
	push	OFFSET ??_C@_1GG@OGNLNBPD@?$AAx?$AA?3?$AA?2?$AAg?$AAi?$AAt?$AAh?$AAu?$AAb?$AA?2?$AAr?$AAe?$AAn?$AAe?$AAg?$AAa?$AAd?$AAe?$AA?2?$AAd?$AAr?$AAa?$AAg?$AAo?$AAn?$AAa?$AAd?$AAe?$AA_?$AAr?$AAx?$AAd@
	push	OFFSET ??_C@_1M@HLGKFCJM@?$AAf?$AAa?$AAl?$AAs?$AAe?$AA?$AA@
	call	DWORD PTR __imp___wassert
	add	esp, 12					; 0000000cH
$LN3@Create:
	mov	DWORD PTR tv79[ebp], 0
	jmp	SHORT $LN7@Create
$LN6@Create:
	push	32					; 00000020H
	call	??2@YAPAXI@Z				; operator new
	add	esp, 4
	mov	DWORD PTR $T1[ebp], eax
	cmp	DWORD PTR $T1[ebp], 0
	je	SHORT $LN4@Create
	mov	ecx, DWORD PTR $T1[ebp]
	call	??0Ra2Ven_TurretSound@@QAE@XZ
	mov	DWORD PTR tv77[ebp], eax
	jmp	SHORT $LN5@Create
$LN4@Create:
	mov	DWORD PTR tv77[ebp], 0
$LN5@Create:
	mov	eax, DWORD PTR tv77[ebp]
	mov	DWORD PTR tv79[ebp], eax
$LN7@Create:
	mov	ecx, DWORD PTR tv79[ebp]
	mov	DWORD PTR _script$[ebp], ecx

; 554  : 		script->SetFactory(this);

	mov	eax, DWORD PTR _this$[ebp]
	push	eax
	mov	ecx, DWORD PTR _script$[ebp]
	call	?SetFactory@ScriptImpClass@@QAEXPAVScriptFactory@@@Z ; ScriptImpClass::SetFactory

; 555  : 		script->Register_Auto_Save_Variables();

	mov	eax, DWORD PTR _script$[ebp]
	mov	edx, DWORD PTR [eax]
	mov	ecx, DWORD PTR _script$[ebp]
	mov	eax, DWORD PTR [edx+100]
	call	eax

; 556  : 		return script;

	mov	eax, DWORD PTR _script$[ebp]

; 557  : 	}

	pop	edi
	pop	esi
	pop	ebx
	mov	esp, ebp
	pop	ebp
	ret	0
?Create@?$ScriptRegistrant@VRa2Ven_TurretSound@@@@UAEPAVScriptImpClass@@XZ ENDP ; ScriptRegistrant<Ra2Ven_TurretSound>::Create
_TEXT	ENDS
; Function compile flags: /Odtp /ZI
; File x:\github\renegade\dragonade_rxd\scripts\scripts.h
;	COMDAT ??0?$ScriptRegistrant@VRa2Ven_TurretSound@@@@QAE@PBD0@Z
_TEXT	SEGMENT
_this$ = -4						; size = 4
_name$ = 8						; size = 4
_param$ = 12						; size = 4
??0?$ScriptRegistrant@VRa2Ven_TurretSound@@@@QAE@PBD0@Z PROC ; ScriptRegistrant<Ra2Ven_TurretSound>::ScriptRegistrant<Ra2Ven_TurretSound>, COMDAT
; _this$ = ecx

; 549  : 	{

	push	ebp
	mov	ebp, esp
	sub	esp, 68					; 00000044H
	push	ebx
	push	esi
	push	edi
	mov	DWORD PTR _this$[ebp], ecx
	mov	eax, DWORD PTR _param$[ebp]
	push	eax
	mov	ecx, DWORD PTR _name$[ebp]
	push	ecx
	mov	ecx, DWORD PTR _this$[ebp]
	call	??0ScriptFactory@@IAE@PBD0@Z		; ScriptFactory::ScriptFactory
	mov	eax, DWORD PTR _this$[ebp]
	mov	DWORD PTR [eax], OFFSET ??_7?$ScriptRegistrant@VRa2Ven_TurretSound@@@@6B@

; 550  : 	}

	mov	eax, DWORD PTR _this$[ebp]
	pop	edi
	pop	esi
	pop	ebx
	mov	esp, ebp
	pop	ebp
	ret	8
??0?$ScriptRegistrant@VRa2Ven_TurretSound@@@@QAE@PBD0@Z ENDP ; ScriptRegistrant<Ra2Ven_TurretSound>::ScriptRegistrant<Ra2Ven_TurretSound>
_TEXT	ENDS
; Function compile flags: /Odtp /ZI
;	COMDAT ??__FRa2Ven_RandomTree_Registrant@@YAXXZ
text$yd	SEGMENT
??__FRa2Ven_RandomTree_Registrant@@YAXXZ PROC		; `dynamic atexit destructor for 'Ra2Ven_RandomTree_Registrant'', COMDAT
	push	ebp
	mov	ebp, esp
	sub	esp, 64					; 00000040H
	push	ebx
	push	esi
	push	edi
	mov	ecx, OFFSET ?Ra2Ven_RandomTree_Registrant@@3V?$ScriptRegistrant@VRa2Ven_RandomTree@@@@A ; Ra2Ven_RandomTree_Registrant
	call	??1?$ScriptRegistrant@VRa2Ven_RandomTree@@@@UAE@XZ
	pop	edi
	pop	esi
	pop	ebx
	mov	esp, ebp
	pop	ebp
	ret	0
??__FRa2Ven_RandomTree_Registrant@@YAXXZ ENDP		; `dynamic atexit destructor for 'Ra2Ven_RandomTree_Registrant''
text$yd	ENDS
; Function compile flags: /Odtp /ZI
; File x:\github\renegade\dragonade_rxd\scripts\ra2.cpp
;	COMDAT ??__ERa2Ven_RandomTree_Registrant@@YAXXZ
text$yc	SEGMENT
??__ERa2Ven_RandomTree_Registrant@@YAXXZ PROC		; `dynamic initializer for 'Ra2Ven_RandomTree_Registrant'', COMDAT

; 695  : ScriptRegistrant<Ra2Ven_RandomTree> Ra2Ven_RandomTree_Registrant("Ra2Ven_RandomTree","Tree1_Preset:string,Tree2_Preset=none:string,Tree3_Preset=none:string,Tree4_Preset=none:string");

	push	ebp
	mov	ebp, esp
	sub	esp, 64					; 00000040H
	push	ebx
	push	esi
	push	edi
	push	OFFSET ??_C@_0FP@FKMLMEIK@Tree1_Preset?3string?0Tree2_Preset@
	push	OFFSET ??_C@_0BC@NIFCABPC@Ra2Ven_RandomTree?$AA@
	mov	ecx, OFFSET ?Ra2Ven_RandomTree_Registrant@@3V?$ScriptRegistrant@VRa2Ven_RandomTree@@@@A ; Ra2Ven_RandomTree_Registrant
	call	??0?$ScriptRegistrant@VRa2Ven_RandomTree@@@@QAE@PBD0@Z ; ScriptRegistrant<Ra2Ven_RandomTree>::ScriptRegistrant<Ra2Ven_RandomTree>
	push	OFFSET ??__FRa2Ven_RandomTree_Registrant@@YAXXZ ; `dynamic atexit destructor for 'Ra2Ven_RandomTree_Registrant''
	call	_atexit
	add	esp, 4
	pop	edi
	pop	esi
	pop	ebx
	mov	esp, ebp
	pop	ebp
	ret	0
??__ERa2Ven_RandomTree_Registrant@@YAXXZ ENDP		; `dynamic initializer for 'Ra2Ven_RandomTree_Registrant''
text$yc	ENDS
; Function compile flags: /Odtp /ZI
;	COMDAT ??_G?$ScriptRegistrant@VRa2Ven_RandomTree@@@@UAEPAXI@Z
_TEXT	SEGMENT
_this$ = -4						; size = 4
___flags$ = 8						; size = 4
??_G?$ScriptRegistrant@VRa2Ven_RandomTree@@@@UAEPAXI@Z PROC ; ScriptRegistrant<Ra2Ven_RandomTree>::`scalar deleting destructor', COMDAT
; _this$ = ecx
	push	ebp
	mov	ebp, esp
	sub	esp, 68					; 00000044H
	push	ebx
	push	esi
	push	edi
	mov	DWORD PTR _this$[ebp], ecx
	mov	ecx, DWORD PTR _this$[ebp]
	call	??1?$ScriptRegistrant@VRa2Ven_RandomTree@@@@UAE@XZ
	mov	eax, DWORD PTR ___flags$[ebp]
	and	eax, 1
	je	SHORT $LN1@scalar
	mov	eax, DWORD PTR _this$[ebp]
	push	eax
	call	??3@YAXPAX@Z				; operator delete
	add	esp, 4
$LN1@scalar:
	mov	eax, DWORD PTR _this$[ebp]
	pop	edi
	pop	esi
	pop	ebx
	mov	esp, ebp
	pop	ebp
	ret	4
??_G?$ScriptRegistrant@VRa2Ven_RandomTree@@@@UAEPAXI@Z ENDP ; ScriptRegistrant<Ra2Ven_RandomTree>::`scalar deleting destructor'
_TEXT	ENDS
; Function compile flags: /Odtp /ZI
;	COMDAT ??1?$ScriptRegistrant@VRa2Ven_RandomTree@@@@UAE@XZ
_TEXT	SEGMENT
_this$ = -4						; size = 4
??1?$ScriptRegistrant@VRa2Ven_RandomTree@@@@UAE@XZ PROC	; ScriptRegistrant<Ra2Ven_RandomTree>::~ScriptRegistrant<Ra2Ven_RandomTree>, COMDAT
; _this$ = ecx
	push	ebp
	mov	ebp, esp
	sub	esp, 68					; 00000044H
	push	ebx
	push	esi
	push	edi
	mov	DWORD PTR _this$[ebp], ecx
	mov	ecx, DWORD PTR _this$[ebp]
	call	??1ScriptFactory@@UAE@XZ		; ScriptFactory::~ScriptFactory
	pop	edi
	pop	esi
	pop	ebx
	mov	esp, ebp
	pop	ebp
	ret	0
??1?$ScriptRegistrant@VRa2Ven_RandomTree@@@@UAE@XZ ENDP	; ScriptRegistrant<Ra2Ven_RandomTree>::~ScriptRegistrant<Ra2Ven_RandomTree>
_TEXT	ENDS
; Function compile flags: /Odtp /ZI
; File x:\github\renegade\dragonade_rxd\scripts\scripts.h
;	COMDAT ?Create@?$ScriptRegistrant@VRa2Ven_RandomTree@@@@UAEPAVScriptImpClass@@XZ
_TEXT	SEGMENT
tv77 = -84						; size = 4
tv79 = -80						; size = 4
$T1 = -76						; size = 4
_script$ = -8						; size = 4
_this$ = -4						; size = 4
?Create@?$ScriptRegistrant@VRa2Ven_RandomTree@@@@UAEPAVScriptImpClass@@XZ PROC ; ScriptRegistrant<Ra2Ven_RandomTree>::Create, COMDAT
; _this$ = ecx

; 552  : 	{

	push	ebp
	mov	ebp, esp
	sub	esp, 84					; 00000054H
	push	ebx
	push	esi
	push	edi
	mov	DWORD PTR _this$[ebp], ecx

; 553  : 		T* script = new T;

	push	OFFSET ??_C@_0DC@INMNJHPG@ScriptRegistrant?$DMclass?5Ra2Ven_Ra@
	push	553					; 00000229H
	push	OFFSET ??_C@_0DD@KMKBFFOF@x?3?2github?2renegade?2dragonade_rxd@
	call	?SetThreadTrackingInformation@@YAXPBDI0@Z ; SetThreadTrackingInformation
	add	esp, 12					; 0000000cH
	xor	eax, eax
	je	SHORT $LN6@Create
	xor	ecx, ecx
	jne	SHORT $LN3@Create
	push	553					; 00000229H
	push	OFFSET ??_C@_1GG@OGNLNBPD@?$AAx?$AA?3?$AA?2?$AAg?$AAi?$AAt?$AAh?$AAu?$AAb?$AA?2?$AAr?$AAe?$AAn?$AAe?$AAg?$AAa?$AAd?$AAe?$AA?2?$AAd?$AAr?$AAa?$AAg?$AAo?$AAn?$AAa?$AAd?$AAe?$AA_?$AAr?$AAx?$AAd@
	push	OFFSET ??_C@_1M@HLGKFCJM@?$AAf?$AAa?$AAl?$AAs?$AAe?$AA?$AA@
	call	DWORD PTR __imp___wassert
	add	esp, 12					; 0000000cH
$LN3@Create:
	mov	DWORD PTR tv79[ebp], 0
	jmp	SHORT $LN7@Create
$LN6@Create:
	push	28					; 0000001cH
	call	??2@YAPAXI@Z				; operator new
	add	esp, 4
	mov	DWORD PTR $T1[ebp], eax
	cmp	DWORD PTR $T1[ebp], 0
	je	SHORT $LN4@Create
	mov	ecx, DWORD PTR $T1[ebp]
	call	??0Ra2Ven_RandomTree@@QAE@XZ
	mov	DWORD PTR tv77[ebp], eax
	jmp	SHORT $LN5@Create
$LN4@Create:
	mov	DWORD PTR tv77[ebp], 0
$LN5@Create:
	mov	eax, DWORD PTR tv77[ebp]
	mov	DWORD PTR tv79[ebp], eax
$LN7@Create:
	mov	ecx, DWORD PTR tv79[ebp]
	mov	DWORD PTR _script$[ebp], ecx

; 554  : 		script->SetFactory(this);

	mov	eax, DWORD PTR _this$[ebp]
	push	eax
	mov	ecx, DWORD PTR _script$[ebp]
	call	?SetFactory@ScriptImpClass@@QAEXPAVScriptFactory@@@Z ; ScriptImpClass::SetFactory

; 555  : 		script->Register_Auto_Save_Variables();

	mov	eax, DWORD PTR _script$[ebp]
	mov	edx, DWORD PTR [eax]
	mov	ecx, DWORD PTR _script$[ebp]
	mov	eax, DWORD PTR [edx+100]
	call	eax

; 556  : 		return script;

	mov	eax, DWORD PTR _script$[ebp]

; 557  : 	}

	pop	edi
	pop	esi
	pop	ebx
	mov	esp, ebp
	pop	ebp
	ret	0
?Create@?$ScriptRegistrant@VRa2Ven_RandomTree@@@@UAEPAVScriptImpClass@@XZ ENDP ; ScriptRegistrant<Ra2Ven_RandomTree>::Create
_TEXT	ENDS
; Function compile flags: /Odtp /ZI
; File x:\github\renegade\dragonade_rxd\scripts\scripts.h
;	COMDAT ??0?$ScriptRegistrant@VRa2Ven_RandomTree@@@@QAE@PBD0@Z
_TEXT	SEGMENT
_this$ = -4						; size = 4
_name$ = 8						; size = 4
_param$ = 12						; size = 4
??0?$ScriptRegistrant@VRa2Ven_RandomTree@@@@QAE@PBD0@Z PROC ; ScriptRegistrant<Ra2Ven_RandomTree>::ScriptRegistrant<Ra2Ven_RandomTree>, COMDAT
; _this$ = ecx

; 549  : 	{

	push	ebp
	mov	ebp, esp
	sub	esp, 68					; 00000044H
	push	ebx
	push	esi
	push	edi
	mov	DWORD PTR _this$[ebp], ecx
	mov	eax, DWORD PTR _param$[ebp]
	push	eax
	mov	ecx, DWORD PTR _name$[ebp]
	push	ecx
	mov	ecx, DWORD PTR _this$[ebp]
	call	??0ScriptFactory@@IAE@PBD0@Z		; ScriptFactory::ScriptFactory
	mov	eax, DWORD PTR _this$[ebp]
	mov	DWORD PTR [eax], OFFSET ??_7?$ScriptRegistrant@VRa2Ven_RandomTree@@@@6B@

; 550  : 	}

	mov	eax, DWORD PTR _this$[ebp]
	pop	edi
	pop	esi
	pop	ebx
	mov	esp, ebp
	pop	ebp
	ret	8
??0?$ScriptRegistrant@VRa2Ven_RandomTree@@@@QAE@PBD0@Z ENDP ; ScriptRegistrant<Ra2Ven_RandomTree>::ScriptRegistrant<Ra2Ven_RandomTree>
_TEXT	ENDS
; Function compile flags: /Odtp /ZI
;	COMDAT ??__FRa2Ven_Deploy_Animation_Registrant@@YAXXZ
text$yd	SEGMENT
??__FRa2Ven_Deploy_Animation_Registrant@@YAXXZ PROC	; `dynamic atexit destructor for 'Ra2Ven_Deploy_Animation_Registrant'', COMDAT
	push	ebp
	mov	ebp, esp
	sub	esp, 64					; 00000040H
	push	ebx
	push	esi
	push	edi
	mov	ecx, OFFSET ?Ra2Ven_Deploy_Animation_Registrant@@3V?$ScriptRegistrant@VRa2Ven_Deploy_Animation@@@@A ; Ra2Ven_Deploy_Animation_Registrant
	call	??1?$ScriptRegistrant@VRa2Ven_Deploy_Animation@@@@UAE@XZ
	pop	edi
	pop	esi
	pop	ebx
	mov	esp, ebp
	pop	ebp
	ret	0
??__FRa2Ven_Deploy_Animation_Registrant@@YAXXZ ENDP	; `dynamic atexit destructor for 'Ra2Ven_Deploy_Animation_Registrant''
text$yd	ENDS
; Function compile flags: /Odtp /ZI
; File x:\github\renegade\dragonade_rxd\scripts\ra2.cpp
;	COMDAT ??__ERa2Ven_Deploy_Animation_Registrant@@YAXXZ
text$yc	SEGMENT
??__ERa2Ven_Deploy_Animation_Registrant@@YAXXZ PROC	; `dynamic initializer for 'Ra2Ven_Deploy_Animation_Registrant'', COMDAT

; 694  : ScriptRegistrant<Ra2Ven_Deploy_Animation> Ra2Ven_Deploy_Animation_Registrant("Ra2Ven_Deploy_Animation","Deployed_Tank_Preset:string,oldTnk_Warhead:string,oldTnk_Dammage:float,Animation_Time:float,TimerNumber:int");

	push	ebp
	mov	ebp, esp
	sub	esp, 64					; 00000040H
	push	ebx
	push	esi
	push	edi
	push	OFFSET ??_C@_0GM@CAPOHMGB@Deployed_Tank_Preset?3string?0oldT@
	push	OFFSET ??_C@_0BI@NIPJOPPL@Ra2Ven_Deploy_Animation?$AA@
	mov	ecx, OFFSET ?Ra2Ven_Deploy_Animation_Registrant@@3V?$ScriptRegistrant@VRa2Ven_Deploy_Animation@@@@A ; Ra2Ven_Deploy_Animation_Registrant
	call	??0?$ScriptRegistrant@VRa2Ven_Deploy_Animation@@@@QAE@PBD0@Z ; ScriptRegistrant<Ra2Ven_Deploy_Animation>::ScriptRegistrant<Ra2Ven_Deploy_Animation>
	push	OFFSET ??__FRa2Ven_Deploy_Animation_Registrant@@YAXXZ ; `dynamic atexit destructor for 'Ra2Ven_Deploy_Animation_Registrant''
	call	_atexit
	add	esp, 4
	pop	edi
	pop	esi
	pop	ebx
	mov	esp, ebp
	pop	ebp
	ret	0
??__ERa2Ven_Deploy_Animation_Registrant@@YAXXZ ENDP	; `dynamic initializer for 'Ra2Ven_Deploy_Animation_Registrant''
text$yc	ENDS
; Function compile flags: /Odtp /ZI
;	COMDAT ??_G?$ScriptRegistrant@VRa2Ven_Deploy_Animation@@@@UAEPAXI@Z
_TEXT	SEGMENT
_this$ = -4						; size = 4
___flags$ = 8						; size = 4
??_G?$ScriptRegistrant@VRa2Ven_Deploy_Animation@@@@UAEPAXI@Z PROC ; ScriptRegistrant<Ra2Ven_Deploy_Animation>::`scalar deleting destructor', COMDAT
; _this$ = ecx
	push	ebp
	mov	ebp, esp
	sub	esp, 68					; 00000044H
	push	ebx
	push	esi
	push	edi
	mov	DWORD PTR _this$[ebp], ecx
	mov	ecx, DWORD PTR _this$[ebp]
	call	??1?$ScriptRegistrant@VRa2Ven_Deploy_Animation@@@@UAE@XZ
	mov	eax, DWORD PTR ___flags$[ebp]
	and	eax, 1
	je	SHORT $LN1@scalar
	mov	eax, DWORD PTR _this$[ebp]
	push	eax
	call	??3@YAXPAX@Z				; operator delete
	add	esp, 4
$LN1@scalar:
	mov	eax, DWORD PTR _this$[ebp]
	pop	edi
	pop	esi
	pop	ebx
	mov	esp, ebp
	pop	ebp
	ret	4
??_G?$ScriptRegistrant@VRa2Ven_Deploy_Animation@@@@UAEPAXI@Z ENDP ; ScriptRegistrant<Ra2Ven_Deploy_Animation>::`scalar deleting destructor'
_TEXT	ENDS
; Function compile flags: /Odtp /ZI
;	COMDAT ??1?$ScriptRegistrant@VRa2Ven_Deploy_Animation@@@@UAE@XZ
_TEXT	SEGMENT
_this$ = -4						; size = 4
??1?$ScriptRegistrant@VRa2Ven_Deploy_Animation@@@@UAE@XZ PROC ; ScriptRegistrant<Ra2Ven_Deploy_Animation>::~ScriptRegistrant<Ra2Ven_Deploy_Animation>, COMDAT
; _this$ = ecx
	push	ebp
	mov	ebp, esp
	sub	esp, 68					; 00000044H
	push	ebx
	push	esi
	push	edi
	mov	DWORD PTR _this$[ebp], ecx
	mov	ecx, DWORD PTR _this$[ebp]
	call	??1ScriptFactory@@UAE@XZ		; ScriptFactory::~ScriptFactory
	pop	edi
	pop	esi
	pop	ebx
	mov	esp, ebp
	pop	ebp
	ret	0
??1?$ScriptRegistrant@VRa2Ven_Deploy_Animation@@@@UAE@XZ ENDP ; ScriptRegistrant<Ra2Ven_Deploy_Animation>::~ScriptRegistrant<Ra2Ven_Deploy_Animation>
_TEXT	ENDS
; Function compile flags: /Odtp /ZI
; File x:\github\renegade\dragonade_rxd\scripts\scripts.h
;	COMDAT ?Create@?$ScriptRegistrant@VRa2Ven_Deploy_Animation@@@@UAEPAVScriptImpClass@@XZ
_TEXT	SEGMENT
tv77 = -84						; size = 4
tv79 = -80						; size = 4
$T1 = -76						; size = 4
_script$ = -8						; size = 4
_this$ = -4						; size = 4
?Create@?$ScriptRegistrant@VRa2Ven_Deploy_Animation@@@@UAEPAVScriptImpClass@@XZ PROC ; ScriptRegistrant<Ra2Ven_Deploy_Animation>::Create, COMDAT
; _this$ = ecx

; 552  : 	{

	push	ebp
	mov	ebp, esp
	sub	esp, 84					; 00000054H
	push	ebx
	push	esi
	push	edi
	mov	DWORD PTR _this$[ebp], ecx

; 553  : 		T* script = new T;

	push	OFFSET ??_C@_0DI@FANHLGOD@ScriptRegistrant?$DMclass?5Ra2Ven_De@
	push	553					; 00000229H
	push	OFFSET ??_C@_0DD@KMKBFFOF@x?3?2github?2renegade?2dragonade_rxd@
	call	?SetThreadTrackingInformation@@YAXPBDI0@Z ; SetThreadTrackingInformation
	add	esp, 12					; 0000000cH
	xor	eax, eax
	je	SHORT $LN6@Create
	xor	ecx, ecx
	jne	SHORT $LN3@Create
	push	553					; 00000229H
	push	OFFSET ??_C@_1GG@OGNLNBPD@?$AAx?$AA?3?$AA?2?$AAg?$AAi?$AAt?$AAh?$AAu?$AAb?$AA?2?$AAr?$AAe?$AAn?$AAe?$AAg?$AAa?$AAd?$AAe?$AA?2?$AAd?$AAr?$AAa?$AAg?$AAo?$AAn?$AAa?$AAd?$AAe?$AA_?$AAr?$AAx?$AAd@
	push	OFFSET ??_C@_1M@HLGKFCJM@?$AAf?$AAa?$AAl?$AAs?$AAe?$AA?$AA@
	call	DWORD PTR __imp___wassert
	add	esp, 12					; 0000000cH
$LN3@Create:
	mov	DWORD PTR tv79[ebp], 0
	jmp	SHORT $LN7@Create
$LN6@Create:
	push	28					; 0000001cH
	call	??2@YAPAXI@Z				; operator new
	add	esp, 4
	mov	DWORD PTR $T1[ebp], eax
	cmp	DWORD PTR $T1[ebp], 0
	je	SHORT $LN4@Create
	mov	ecx, DWORD PTR $T1[ebp]
	call	??0Ra2Ven_Deploy_Animation@@QAE@XZ
	mov	DWORD PTR tv77[ebp], eax
	jmp	SHORT $LN5@Create
$LN4@Create:
	mov	DWORD PTR tv77[ebp], 0
$LN5@Create:
	mov	eax, DWORD PTR tv77[ebp]
	mov	DWORD PTR tv79[ebp], eax
$LN7@Create:
	mov	ecx, DWORD PTR tv79[ebp]
	mov	DWORD PTR _script$[ebp], ecx

; 554  : 		script->SetFactory(this);

	mov	eax, DWORD PTR _this$[ebp]
	push	eax
	mov	ecx, DWORD PTR _script$[ebp]
	call	?SetFactory@ScriptImpClass@@QAEXPAVScriptFactory@@@Z ; ScriptImpClass::SetFactory

; 555  : 		script->Register_Auto_Save_Variables();

	mov	eax, DWORD PTR _script$[ebp]
	mov	edx, DWORD PTR [eax]
	mov	ecx, DWORD PTR _script$[ebp]
	mov	eax, DWORD PTR [edx+100]
	call	eax

; 556  : 		return script;

	mov	eax, DWORD PTR _script$[ebp]

; 557  : 	}

	pop	edi
	pop	esi
	pop	ebx
	mov	esp, ebp
	pop	ebp
	ret	0
?Create@?$ScriptRegistrant@VRa2Ven_Deploy_Animation@@@@UAEPAVScriptImpClass@@XZ ENDP ; ScriptRegistrant<Ra2Ven_Deploy_Animation>::Create
_TEXT	ENDS
; Function compile flags: /Odtp /ZI
; File x:\github\renegade\dragonade_rxd\scripts\scripts.h
;	COMDAT ??0?$ScriptRegistrant@VRa2Ven_Deploy_Animation@@@@QAE@PBD0@Z
_TEXT	SEGMENT
_this$ = -4						; size = 4
_name$ = 8						; size = 4
_param$ = 12						; size = 4
??0?$ScriptRegistrant@VRa2Ven_Deploy_Animation@@@@QAE@PBD0@Z PROC ; ScriptRegistrant<Ra2Ven_Deploy_Animation>::ScriptRegistrant<Ra2Ven_Deploy_Animation>, COMDAT
; _this$ = ecx

; 549  : 	{

	push	ebp
	mov	ebp, esp
	sub	esp, 68					; 00000044H
	push	ebx
	push	esi
	push	edi
	mov	DWORD PTR _this$[ebp], ecx
	mov	eax, DWORD PTR _param$[ebp]
	push	eax
	mov	ecx, DWORD PTR _name$[ebp]
	push	ecx
	mov	ecx, DWORD PTR _this$[ebp]
	call	??0ScriptFactory@@IAE@PBD0@Z		; ScriptFactory::ScriptFactory
	mov	eax, DWORD PTR _this$[ebp]
	mov	DWORD PTR [eax], OFFSET ??_7?$ScriptRegistrant@VRa2Ven_Deploy_Animation@@@@6B@

; 550  : 	}

	mov	eax, DWORD PTR _this$[ebp]
	pop	edi
	pop	esi
	pop	ebx
	mov	esp, ebp
	pop	ebp
	ret	8
??0?$ScriptRegistrant@VRa2Ven_Deploy_Animation@@@@QAE@PBD0@Z ENDP ; ScriptRegistrant<Ra2Ven_Deploy_Animation>::ScriptRegistrant<Ra2Ven_Deploy_Animation>
_TEXT	ENDS
; Function compile flags: /Odtp /ZI
;	COMDAT ??__FRa2Ven_Deployable_Vehicle_Registrant@@YAXXZ
text$yd	SEGMENT
??__FRa2Ven_Deployable_Vehicle_Registrant@@YAXXZ PROC	; `dynamic atexit destructor for 'Ra2Ven_Deployable_Vehicle_Registrant'', COMDAT
	push	ebp
	mov	ebp, esp
	sub	esp, 64					; 00000040H
	push	ebx
	push	esi
	push	edi
	mov	ecx, OFFSET ?Ra2Ven_Deployable_Vehicle_Registrant@@3V?$ScriptRegistrant@VRa2Ven_Deployable_Vehicle@@@@A ; Ra2Ven_Deployable_Vehicle_Registrant
	call	??1?$ScriptRegistrant@VRa2Ven_Deployable_Vehicle@@@@UAE@XZ
	pop	edi
	pop	esi
	pop	ebx
	mov	esp, ebp
	pop	ebp
	ret	0
??__FRa2Ven_Deployable_Vehicle_Registrant@@YAXXZ ENDP	; `dynamic atexit destructor for 'Ra2Ven_Deployable_Vehicle_Registrant''
text$yd	ENDS
; Function compile flags: /Odtp /ZI
; File x:\github\renegade\dragonade_rxd\scripts\ra2.cpp
;	COMDAT ??__ERa2Ven_Deployable_Vehicle_Registrant@@YAXXZ
text$yc	SEGMENT
??__ERa2Ven_Deployable_Vehicle_Registrant@@YAXXZ PROC	; `dynamic initializer for 'Ra2Ven_Deployable_Vehicle_Registrant'', COMDAT

; 693  : ScriptRegistrant<Ra2Ven_Deployable_Vehicle> Ra2Ven_Deployable_Vehicle_Registrant("Ra2Ven_Deployable_Vehicle","Animation_Preset:string,oldTnk_Warhead:string,oldTnk_Dammage:float,Explosion_preset:string");

	push	ebp
	mov	ebp, esp
	sub	esp, 64					; 00000040H
	push	ebx
	push	esi
	push	edi
	push	OFFSET ??_C@_0FL@NAMBHFEA@Animation_Preset?3string?0oldTnk_W@
	push	OFFSET ??_C@_0BK@LGMKNIIK@Ra2Ven_Deployable_Vehicle?$AA@
	mov	ecx, OFFSET ?Ra2Ven_Deployable_Vehicle_Registrant@@3V?$ScriptRegistrant@VRa2Ven_Deployable_Vehicle@@@@A ; Ra2Ven_Deployable_Vehicle_Registrant
	call	??0?$ScriptRegistrant@VRa2Ven_Deployable_Vehicle@@@@QAE@PBD0@Z ; ScriptRegistrant<Ra2Ven_Deployable_Vehicle>::ScriptRegistrant<Ra2Ven_Deployable_Vehicle>
	push	OFFSET ??__FRa2Ven_Deployable_Vehicle_Registrant@@YAXXZ ; `dynamic atexit destructor for 'Ra2Ven_Deployable_Vehicle_Registrant''
	call	_atexit
	add	esp, 4
	pop	edi
	pop	esi
	pop	ebx
	mov	esp, ebp
	pop	ebp
	ret	0
??__ERa2Ven_Deployable_Vehicle_Registrant@@YAXXZ ENDP	; `dynamic initializer for 'Ra2Ven_Deployable_Vehicle_Registrant''
text$yc	ENDS
; Function compile flags: /Odtp /ZI
;	COMDAT ??_G?$ScriptRegistrant@VRa2Ven_Deployable_Vehicle@@@@UAEPAXI@Z
_TEXT	SEGMENT
_this$ = -4						; size = 4
___flags$ = 8						; size = 4
??_G?$ScriptRegistrant@VRa2Ven_Deployable_Vehicle@@@@UAEPAXI@Z PROC ; ScriptRegistrant<Ra2Ven_Deployable_Vehicle>::`scalar deleting destructor', COMDAT
; _this$ = ecx
	push	ebp
	mov	ebp, esp
	sub	esp, 68					; 00000044H
	push	ebx
	push	esi
	push	edi
	mov	DWORD PTR _this$[ebp], ecx
	mov	ecx, DWORD PTR _this$[ebp]
	call	??1?$ScriptRegistrant@VRa2Ven_Deployable_Vehicle@@@@UAE@XZ
	mov	eax, DWORD PTR ___flags$[ebp]
	and	eax, 1
	je	SHORT $LN1@scalar
	mov	eax, DWORD PTR _this$[ebp]
	push	eax
	call	??3@YAXPAX@Z				; operator delete
	add	esp, 4
$LN1@scalar:
	mov	eax, DWORD PTR _this$[ebp]
	pop	edi
	pop	esi
	pop	ebx
	mov	esp, ebp
	pop	ebp
	ret	4
??_G?$ScriptRegistrant@VRa2Ven_Deployable_Vehicle@@@@UAEPAXI@Z ENDP ; ScriptRegistrant<Ra2Ven_Deployable_Vehicle>::`scalar deleting destructor'
_TEXT	ENDS
; Function compile flags: /Odtp /ZI
;	COMDAT ??1?$ScriptRegistrant@VRa2Ven_Deployable_Vehicle@@@@UAE@XZ
_TEXT	SEGMENT
_this$ = -4						; size = 4
??1?$ScriptRegistrant@VRa2Ven_Deployable_Vehicle@@@@UAE@XZ PROC ; ScriptRegistrant<Ra2Ven_Deployable_Vehicle>::~ScriptRegistrant<Ra2Ven_Deployable_Vehicle>, COMDAT
; _this$ = ecx
	push	ebp
	mov	ebp, esp
	sub	esp, 68					; 00000044H
	push	ebx
	push	esi
	push	edi
	mov	DWORD PTR _this$[ebp], ecx
	mov	ecx, DWORD PTR _this$[ebp]
	call	??1ScriptFactory@@UAE@XZ		; ScriptFactory::~ScriptFactory
	pop	edi
	pop	esi
	pop	ebx
	mov	esp, ebp
	pop	ebp
	ret	0
??1?$ScriptRegistrant@VRa2Ven_Deployable_Vehicle@@@@UAE@XZ ENDP ; ScriptRegistrant<Ra2Ven_Deployable_Vehicle>::~ScriptRegistrant<Ra2Ven_Deployable_Vehicle>
_TEXT	ENDS
; Function compile flags: /Odtp /ZI
; File x:\github\renegade\dragonade_rxd\scripts\scripts.h
;	COMDAT ?Create@?$ScriptRegistrant@VRa2Ven_Deployable_Vehicle@@@@UAEPAVScriptImpClass@@XZ
_TEXT	SEGMENT
tv77 = -84						; size = 4
tv79 = -80						; size = 4
$T1 = -76						; size = 4
_script$ = -8						; size = 4
_this$ = -4						; size = 4
?Create@?$ScriptRegistrant@VRa2Ven_Deployable_Vehicle@@@@UAEPAVScriptImpClass@@XZ PROC ; ScriptRegistrant<Ra2Ven_Deployable_Vehicle>::Create, COMDAT
; _this$ = ecx

; 552  : 	{

	push	ebp
	mov	ebp, esp
	sub	esp, 84					; 00000054H
	push	ebx
	push	esi
	push	edi
	mov	DWORD PTR _this$[ebp], ecx

; 553  : 		T* script = new T;

	push	OFFSET ??_C@_0DK@HOHLGPJO@ScriptRegistrant?$DMclass?5Ra2Ven_De@
	push	553					; 00000229H
	push	OFFSET ??_C@_0DD@KMKBFFOF@x?3?2github?2renegade?2dragonade_rxd@
	call	?SetThreadTrackingInformation@@YAXPBDI0@Z ; SetThreadTrackingInformation
	add	esp, 12					; 0000000cH
	xor	eax, eax
	je	SHORT $LN6@Create
	xor	ecx, ecx
	jne	SHORT $LN3@Create
	push	553					; 00000229H
	push	OFFSET ??_C@_1GG@OGNLNBPD@?$AAx?$AA?3?$AA?2?$AAg?$AAi?$AAt?$AAh?$AAu?$AAb?$AA?2?$AAr?$AAe?$AAn?$AAe?$AAg?$AAa?$AAd?$AAe?$AA?2?$AAd?$AAr?$AAa?$AAg?$AAo?$AAn?$AAa?$AAd?$AAe?$AA_?$AAr?$AAx?$AAd@
	push	OFFSET ??_C@_1M@HLGKFCJM@?$AAf?$AAa?$AAl?$AAs?$AAe?$AA?$AA@
	call	DWORD PTR __imp___wassert
	add	esp, 12					; 0000000cH
$LN3@Create:
	mov	DWORD PTR tv79[ebp], 0
	jmp	SHORT $LN7@Create
$LN6@Create:
	push	36					; 00000024H
	call	??2@YAPAXI@Z				; operator new
	add	esp, 4
	mov	DWORD PTR $T1[ebp], eax
	cmp	DWORD PTR $T1[ebp], 0
	je	SHORT $LN4@Create
	mov	ecx, DWORD PTR $T1[ebp]
	call	??0Ra2Ven_Deployable_Vehicle@@QAE@XZ
	mov	DWORD PTR tv77[ebp], eax
	jmp	SHORT $LN5@Create
$LN4@Create:
	mov	DWORD PTR tv77[ebp], 0
$LN5@Create:
	mov	eax, DWORD PTR tv77[ebp]
	mov	DWORD PTR tv79[ebp], eax
$LN7@Create:
	mov	ecx, DWORD PTR tv79[ebp]
	mov	DWORD PTR _script$[ebp], ecx

; 554  : 		script->SetFactory(this);

	mov	eax, DWORD PTR _this$[ebp]
	push	eax
	mov	ecx, DWORD PTR _script$[ebp]
	call	?SetFactory@ScriptImpClass@@QAEXPAVScriptFactory@@@Z ; ScriptImpClass::SetFactory

; 555  : 		script->Register_Auto_Save_Variables();

	mov	eax, DWORD PTR _script$[ebp]
	mov	edx, DWORD PTR [eax]
	mov	ecx, DWORD PTR _script$[ebp]
	mov	eax, DWORD PTR [edx+100]
	call	eax

; 556  : 		return script;

	mov	eax, DWORD PTR _script$[ebp]

; 557  : 	}

	pop	edi
	pop	esi
	pop	ebx
	mov	esp, ebp
	pop	ebp
	ret	0
?Create@?$ScriptRegistrant@VRa2Ven_Deployable_Vehicle@@@@UAEPAVScriptImpClass@@XZ ENDP ; ScriptRegistrant<Ra2Ven_Deployable_Vehicle>::Create
_TEXT	ENDS
; Function compile flags: /Odtp /ZI
; File x:\github\renegade\dragonade_rxd\scripts\scripts.h
;	COMDAT ??0?$ScriptRegistrant@VRa2Ven_Deployable_Vehicle@@@@QAE@PBD0@Z
_TEXT	SEGMENT
_this$ = -4						; size = 4
_name$ = 8						; size = 4
_param$ = 12						; size = 4
??0?$ScriptRegistrant@VRa2Ven_Deployable_Vehicle@@@@QAE@PBD0@Z PROC ; ScriptRegistrant<Ra2Ven_Deployable_Vehicle>::ScriptRegistrant<Ra2Ven_Deployable_Vehicle>, COMDAT
; _this$ = ecx

; 549  : 	{

	push	ebp
	mov	ebp, esp
	sub	esp, 68					; 00000044H
	push	ebx
	push	esi
	push	edi
	mov	DWORD PTR _this$[ebp], ecx
	mov	eax, DWORD PTR _param$[ebp]
	push	eax
	mov	ecx, DWORD PTR _name$[ebp]
	push	ecx
	mov	ecx, DWORD PTR _this$[ebp]
	call	??0ScriptFactory@@IAE@PBD0@Z		; ScriptFactory::ScriptFactory
	mov	eax, DWORD PTR _this$[ebp]
	mov	DWORD PTR [eax], OFFSET ??_7?$ScriptRegistrant@VRa2Ven_Deployable_Vehicle@@@@6B@

; 550  : 	}

	mov	eax, DWORD PTR _this$[ebp]
	pop	edi
	pop	esi
	pop	ebx
	mov	esp, ebp
	pop	ebp
	ret	8
??0?$ScriptRegistrant@VRa2Ven_Deployable_Vehicle@@@@QAE@PBD0@Z ENDP ; ScriptRegistrant<Ra2Ven_Deployable_Vehicle>::ScriptRegistrant<Ra2Ven_Deployable_Vehicle>
_TEXT	ENDS
; Function compile flags: /Odtp /ZI
;	COMDAT ??__FRa2Ven_DemoTruck_Registrant@@YAXXZ
text$yd	SEGMENT
??__FRa2Ven_DemoTruck_Registrant@@YAXXZ PROC		; `dynamic atexit destructor for 'Ra2Ven_DemoTruck_Registrant'', COMDAT
	push	ebp
	mov	ebp, esp
	sub	esp, 64					; 00000040H
	push	ebx
	push	esi
	push	edi
	mov	ecx, OFFSET ?Ra2Ven_DemoTruck_Registrant@@3V?$ScriptRegistrant@VRa2Ven_DemoTruck@@@@A ; Ra2Ven_DemoTruck_Registrant
	call	??1?$ScriptRegistrant@VRa2Ven_DemoTruck@@@@UAE@XZ
	pop	edi
	pop	esi
	pop	ebx
	mov	esp, ebp
	pop	ebp
	ret	0
??__FRa2Ven_DemoTruck_Registrant@@YAXXZ ENDP		; `dynamic atexit destructor for 'Ra2Ven_DemoTruck_Registrant''
text$yd	ENDS
; Function compile flags: /Odtp /ZI
; File x:\github\renegade\dragonade_rxd\scripts\ra2.cpp
;	COMDAT ??__ERa2Ven_DemoTruck_Registrant@@YAXXZ
text$yc	SEGMENT
??__ERa2Ven_DemoTruck_Registrant@@YAXXZ PROC		; `dynamic initializer for 'Ra2Ven_DemoTruck_Registrant'', COMDAT

; 692  : ScriptRegistrant<Ra2Ven_DemoTruck> Ra2Ven_DemoTruck_Registrant("Ra2Ven_DemoTruck","Dammage:float,Warhead:string,Demo_Explosion:string");

	push	ebp
	mov	ebp, esp
	sub	esp, 64					; 00000040H
	push	ebx
	push	esi
	push	edi
	push	OFFSET ??_C@_0DD@IHFCKPOA@Dammage?3float?0Warhead?3string?0Dem@
	push	OFFSET ??_C@_0BB@IOMCJFGK@Ra2Ven_DemoTruck?$AA@
	mov	ecx, OFFSET ?Ra2Ven_DemoTruck_Registrant@@3V?$ScriptRegistrant@VRa2Ven_DemoTruck@@@@A ; Ra2Ven_DemoTruck_Registrant
	call	??0?$ScriptRegistrant@VRa2Ven_DemoTruck@@@@QAE@PBD0@Z ; ScriptRegistrant<Ra2Ven_DemoTruck>::ScriptRegistrant<Ra2Ven_DemoTruck>
	push	OFFSET ??__FRa2Ven_DemoTruck_Registrant@@YAXXZ ; `dynamic atexit destructor for 'Ra2Ven_DemoTruck_Registrant''
	call	_atexit
	add	esp, 4
	pop	edi
	pop	esi
	pop	ebx
	mov	esp, ebp
	pop	ebp
	ret	0
??__ERa2Ven_DemoTruck_Registrant@@YAXXZ ENDP		; `dynamic initializer for 'Ra2Ven_DemoTruck_Registrant''
text$yc	ENDS
; Function compile flags: /Odtp /ZI
;	COMDAT ??_G?$ScriptRegistrant@VRa2Ven_DemoTruck@@@@UAEPAXI@Z
_TEXT	SEGMENT
_this$ = -4						; size = 4
___flags$ = 8						; size = 4
??_G?$ScriptRegistrant@VRa2Ven_DemoTruck@@@@UAEPAXI@Z PROC ; ScriptRegistrant<Ra2Ven_DemoTruck>::`scalar deleting destructor', COMDAT
; _this$ = ecx
	push	ebp
	mov	ebp, esp
	sub	esp, 68					; 00000044H
	push	ebx
	push	esi
	push	edi
	mov	DWORD PTR _this$[ebp], ecx
	mov	ecx, DWORD PTR _this$[ebp]
	call	??1?$ScriptRegistrant@VRa2Ven_DemoTruck@@@@UAE@XZ
	mov	eax, DWORD PTR ___flags$[ebp]
	and	eax, 1
	je	SHORT $LN1@scalar
	mov	eax, DWORD PTR _this$[ebp]
	push	eax
	call	??3@YAXPAX@Z				; operator delete
	add	esp, 4
$LN1@scalar:
	mov	eax, DWORD PTR _this$[ebp]
	pop	edi
	pop	esi
	pop	ebx
	mov	esp, ebp
	pop	ebp
	ret	4
??_G?$ScriptRegistrant@VRa2Ven_DemoTruck@@@@UAEPAXI@Z ENDP ; ScriptRegistrant<Ra2Ven_DemoTruck>::`scalar deleting destructor'
_TEXT	ENDS
; Function compile flags: /Odtp /ZI
;	COMDAT ??1?$ScriptRegistrant@VRa2Ven_DemoTruck@@@@UAE@XZ
_TEXT	SEGMENT
_this$ = -4						; size = 4
??1?$ScriptRegistrant@VRa2Ven_DemoTruck@@@@UAE@XZ PROC	; ScriptRegistrant<Ra2Ven_DemoTruck>::~ScriptRegistrant<Ra2Ven_DemoTruck>, COMDAT
; _this$ = ecx
	push	ebp
	mov	ebp, esp
	sub	esp, 68					; 00000044H
	push	ebx
	push	esi
	push	edi
	mov	DWORD PTR _this$[ebp], ecx
	mov	ecx, DWORD PTR _this$[ebp]
	call	??1ScriptFactory@@UAE@XZ		; ScriptFactory::~ScriptFactory
	pop	edi
	pop	esi
	pop	ebx
	mov	esp, ebp
	pop	ebp
	ret	0
??1?$ScriptRegistrant@VRa2Ven_DemoTruck@@@@UAE@XZ ENDP	; ScriptRegistrant<Ra2Ven_DemoTruck>::~ScriptRegistrant<Ra2Ven_DemoTruck>
_TEXT	ENDS
; Function compile flags: /Odtp /ZI
; File x:\github\renegade\dragonade_rxd\scripts\scripts.h
;	COMDAT ?Create@?$ScriptRegistrant@VRa2Ven_DemoTruck@@@@UAEPAVScriptImpClass@@XZ
_TEXT	SEGMENT
tv77 = -84						; size = 4
tv79 = -80						; size = 4
$T1 = -76						; size = 4
_script$ = -8						; size = 4
_this$ = -4						; size = 4
?Create@?$ScriptRegistrant@VRa2Ven_DemoTruck@@@@UAEPAVScriptImpClass@@XZ PROC ; ScriptRegistrant<Ra2Ven_DemoTruck>::Create, COMDAT
; _this$ = ecx

; 552  : 	{

	push	ebp
	mov	ebp, esp
	sub	esp, 84					; 00000054H
	push	ebx
	push	esi
	push	edi
	mov	DWORD PTR _this$[ebp], ecx

; 553  : 		T* script = new T;

	push	OFFSET ??_C@_0DB@EDDLGFLD@ScriptRegistrant?$DMclass?5Ra2Ven_De@
	push	553					; 00000229H
	push	OFFSET ??_C@_0DD@KMKBFFOF@x?3?2github?2renegade?2dragonade_rxd@
	call	?SetThreadTrackingInformation@@YAXPBDI0@Z ; SetThreadTrackingInformation
	add	esp, 12					; 0000000cH
	xor	eax, eax
	je	SHORT $LN6@Create
	xor	ecx, ecx
	jne	SHORT $LN3@Create
	push	553					; 00000229H
	push	OFFSET ??_C@_1GG@OGNLNBPD@?$AAx?$AA?3?$AA?2?$AAg?$AAi?$AAt?$AAh?$AAu?$AAb?$AA?2?$AAr?$AAe?$AAn?$AAe?$AAg?$AAa?$AAd?$AAe?$AA?2?$AAd?$AAr?$AAa?$AAg?$AAo?$AAn?$AAa?$AAd?$AAe?$AA_?$AAr?$AAx?$AAd@
	push	OFFSET ??_C@_1M@HLGKFCJM@?$AAf?$AAa?$AAl?$AAs?$AAe?$AA?$AA@
	call	DWORD PTR __imp___wassert
	add	esp, 12					; 0000000cH
$LN3@Create:
	mov	DWORD PTR tv79[ebp], 0
	jmp	SHORT $LN7@Create
$LN6@Create:
	push	36					; 00000024H
	call	??2@YAPAXI@Z				; operator new
	add	esp, 4
	mov	DWORD PTR $T1[ebp], eax
	cmp	DWORD PTR $T1[ebp], 0
	je	SHORT $LN4@Create
	mov	ecx, DWORD PTR $T1[ebp]
	call	??0Ra2Ven_DemoTruck@@QAE@XZ
	mov	DWORD PTR tv77[ebp], eax
	jmp	SHORT $LN5@Create
$LN4@Create:
	mov	DWORD PTR tv77[ebp], 0
$LN5@Create:
	mov	eax, DWORD PTR tv77[ebp]
	mov	DWORD PTR tv79[ebp], eax
$LN7@Create:
	mov	ecx, DWORD PTR tv79[ebp]
	mov	DWORD PTR _script$[ebp], ecx

; 554  : 		script->SetFactory(this);

	mov	eax, DWORD PTR _this$[ebp]
	push	eax
	mov	ecx, DWORD PTR _script$[ebp]
	call	?SetFactory@ScriptImpClass@@QAEXPAVScriptFactory@@@Z ; ScriptImpClass::SetFactory

; 555  : 		script->Register_Auto_Save_Variables();

	mov	eax, DWORD PTR _script$[ebp]
	mov	edx, DWORD PTR [eax]
	mov	ecx, DWORD PTR _script$[ebp]
	mov	eax, DWORD PTR [edx+100]
	call	eax

; 556  : 		return script;

	mov	eax, DWORD PTR _script$[ebp]

; 557  : 	}

	pop	edi
	pop	esi
	pop	ebx
	mov	esp, ebp
	pop	ebp
	ret	0
?Create@?$ScriptRegistrant@VRa2Ven_DemoTruck@@@@UAEPAVScriptImpClass@@XZ ENDP ; ScriptRegistrant<Ra2Ven_DemoTruck>::Create
_TEXT	ENDS
; Function compile flags: /Odtp /ZI
; File x:\github\renegade\dragonade_rxd\scripts\scripts.h
;	COMDAT ??0?$ScriptRegistrant@VRa2Ven_DemoTruck@@@@QAE@PBD0@Z
_TEXT	SEGMENT
_this$ = -4						; size = 4
_name$ = 8						; size = 4
_param$ = 12						; size = 4
??0?$ScriptRegistrant@VRa2Ven_DemoTruck@@@@QAE@PBD0@Z PROC ; ScriptRegistrant<Ra2Ven_DemoTruck>::ScriptRegistrant<Ra2Ven_DemoTruck>, COMDAT
; _this$ = ecx

; 549  : 	{

	push	ebp
	mov	ebp, esp
	sub	esp, 68					; 00000044H
	push	ebx
	push	esi
	push	edi
	mov	DWORD PTR _this$[ebp], ecx
	mov	eax, DWORD PTR _param$[ebp]
	push	eax
	mov	ecx, DWORD PTR _name$[ebp]
	push	ecx
	mov	ecx, DWORD PTR _this$[ebp]
	call	??0ScriptFactory@@IAE@PBD0@Z		; ScriptFactory::ScriptFactory
	mov	eax, DWORD PTR _this$[ebp]
	mov	DWORD PTR [eax], OFFSET ??_7?$ScriptRegistrant@VRa2Ven_DemoTruck@@@@6B@

; 550  : 	}

	mov	eax, DWORD PTR _this$[ebp]
	pop	edi
	pop	esi
	pop	ebx
	mov	esp, ebp
	pop	ebp
	ret	8
??0?$ScriptRegistrant@VRa2Ven_DemoTruck@@@@QAE@PBD0@Z ENDP ; ScriptRegistrant<Ra2Ven_DemoTruck>::ScriptRegistrant<Ra2Ven_DemoTruck>
_TEXT	ENDS
; Function compile flags: /Odtp /ZI
;	COMDAT ??__FRa2Ven_VehicleFalling_Registrant@@YAXXZ
text$yd	SEGMENT
??__FRa2Ven_VehicleFalling_Registrant@@YAXXZ PROC	; `dynamic atexit destructor for 'Ra2Ven_VehicleFalling_Registrant'', COMDAT
	push	ebp
	mov	ebp, esp
	sub	esp, 64					; 00000040H
	push	ebx
	push	esi
	push	edi
	mov	ecx, OFFSET ?Ra2Ven_VehicleFalling_Registrant@@3V?$ScriptRegistrant@VRa2Ven_VehicleFalling@@@@A ; Ra2Ven_VehicleFalling_Registrant
	call	??1?$ScriptRegistrant@VRa2Ven_VehicleFalling@@@@UAE@XZ
	pop	edi
	pop	esi
	pop	ebx
	mov	esp, ebp
	pop	ebp
	ret	0
??__FRa2Ven_VehicleFalling_Registrant@@YAXXZ ENDP	; `dynamic atexit destructor for 'Ra2Ven_VehicleFalling_Registrant''
text$yd	ENDS
; Function compile flags: /Odtp /ZI
; File x:\github\renegade\dragonade_rxd\scripts\ra2.cpp
;	COMDAT ??__ERa2Ven_VehicleFalling_Registrant@@YAXXZ
text$yc	SEGMENT
??__ERa2Ven_VehicleFalling_Registrant@@YAXXZ PROC	; `dynamic initializer for 'Ra2Ven_VehicleFalling_Registrant'', COMDAT

; 691  : ScriptRegistrant<Ra2Ven_VehicleFalling> Ra2Ven_VehicleFalling_Registrant("Ra2Ven_VehicleFalling","ZValueBeforeStartFallingMode:int=3,ImpactExplosion_Preset:string,Warhead:string,DammageMultiplier=10:int,Time=1:float,TimerNumber:int");

	push	ebp
	mov	ebp, esp
	sub	esp, 64					; 00000040H
	push	ebx
	push	esi
	push	edi
	push	OFFSET ??_C@_0IG@MALPNPAH@ZValueBeforeStartFallingMode?3int@
	push	OFFSET ??_C@_0BG@PMPONJNL@Ra2Ven_VehicleFalling?$AA@
	mov	ecx, OFFSET ?Ra2Ven_VehicleFalling_Registrant@@3V?$ScriptRegistrant@VRa2Ven_VehicleFalling@@@@A ; Ra2Ven_VehicleFalling_Registrant
	call	??0?$ScriptRegistrant@VRa2Ven_VehicleFalling@@@@QAE@PBD0@Z ; ScriptRegistrant<Ra2Ven_VehicleFalling>::ScriptRegistrant<Ra2Ven_VehicleFalling>
	push	OFFSET ??__FRa2Ven_VehicleFalling_Registrant@@YAXXZ ; `dynamic atexit destructor for 'Ra2Ven_VehicleFalling_Registrant''
	call	_atexit
	add	esp, 4
	pop	edi
	pop	esi
	pop	ebx
	mov	esp, ebp
	pop	ebp
	ret	0
??__ERa2Ven_VehicleFalling_Registrant@@YAXXZ ENDP	; `dynamic initializer for 'Ra2Ven_VehicleFalling_Registrant''
text$yc	ENDS
; Function compile flags: /Odtp /ZI
;	COMDAT ??_G?$ScriptRegistrant@VRa2Ven_VehicleFalling@@@@UAEPAXI@Z
_TEXT	SEGMENT
_this$ = -4						; size = 4
___flags$ = 8						; size = 4
??_G?$ScriptRegistrant@VRa2Ven_VehicleFalling@@@@UAEPAXI@Z PROC ; ScriptRegistrant<Ra2Ven_VehicleFalling>::`scalar deleting destructor', COMDAT
; _this$ = ecx
	push	ebp
	mov	ebp, esp
	sub	esp, 68					; 00000044H
	push	ebx
	push	esi
	push	edi
	mov	DWORD PTR _this$[ebp], ecx
	mov	ecx, DWORD PTR _this$[ebp]
	call	??1?$ScriptRegistrant@VRa2Ven_VehicleFalling@@@@UAE@XZ
	mov	eax, DWORD PTR ___flags$[ebp]
	and	eax, 1
	je	SHORT $LN1@scalar
	mov	eax, DWORD PTR _this$[ebp]
	push	eax
	call	??3@YAXPAX@Z				; operator delete
	add	esp, 4
$LN1@scalar:
	mov	eax, DWORD PTR _this$[ebp]
	pop	edi
	pop	esi
	pop	ebx
	mov	esp, ebp
	pop	ebp
	ret	4
??_G?$ScriptRegistrant@VRa2Ven_VehicleFalling@@@@UAEPAXI@Z ENDP ; ScriptRegistrant<Ra2Ven_VehicleFalling>::`scalar deleting destructor'
_TEXT	ENDS
; Function compile flags: /Odtp /ZI
;	COMDAT ??1?$ScriptRegistrant@VRa2Ven_VehicleFalling@@@@UAE@XZ
_TEXT	SEGMENT
_this$ = -4						; size = 4
??1?$ScriptRegistrant@VRa2Ven_VehicleFalling@@@@UAE@XZ PROC ; ScriptRegistrant<Ra2Ven_VehicleFalling>::~ScriptRegistrant<Ra2Ven_VehicleFalling>, COMDAT
; _this$ = ecx
	push	ebp
	mov	ebp, esp
	sub	esp, 68					; 00000044H
	push	ebx
	push	esi
	push	edi
	mov	DWORD PTR _this$[ebp], ecx
	mov	ecx, DWORD PTR _this$[ebp]
	call	??1ScriptFactory@@UAE@XZ		; ScriptFactory::~ScriptFactory
	pop	edi
	pop	esi
	pop	ebx
	mov	esp, ebp
	pop	ebp
	ret	0
??1?$ScriptRegistrant@VRa2Ven_VehicleFalling@@@@UAE@XZ ENDP ; ScriptRegistrant<Ra2Ven_VehicleFalling>::~ScriptRegistrant<Ra2Ven_VehicleFalling>
_TEXT	ENDS
; Function compile flags: /Odtp /ZI
; File x:\github\renegade\dragonade_rxd\scripts\scripts.h
;	COMDAT ?Create@?$ScriptRegistrant@VRa2Ven_VehicleFalling@@@@UAEPAVScriptImpClass@@XZ
_TEXT	SEGMENT
tv77 = -84						; size = 4
tv79 = -80						; size = 4
$T1 = -76						; size = 4
_script$ = -8						; size = 4
_this$ = -4						; size = 4
?Create@?$ScriptRegistrant@VRa2Ven_VehicleFalling@@@@UAEPAVScriptImpClass@@XZ PROC ; ScriptRegistrant<Ra2Ven_VehicleFalling>::Create, COMDAT
; _this$ = ecx

; 552  : 	{

	push	ebp
	mov	ebp, esp
	sub	esp, 84					; 00000054H
	push	ebx
	push	esi
	push	edi
	mov	DWORD PTR _this$[ebp], ecx

; 553  : 		T* script = new T;

	push	OFFSET ??_C@_0DG@MFLNLDCP@ScriptRegistrant?$DMclass?5Ra2Ven_Ve@
	push	553					; 00000229H
	push	OFFSET ??_C@_0DD@KMKBFFOF@x?3?2github?2renegade?2dragonade_rxd@
	call	?SetThreadTrackingInformation@@YAXPBDI0@Z ; SetThreadTrackingInformation
	add	esp, 12					; 0000000cH
	xor	eax, eax
	je	SHORT $LN6@Create
	xor	ecx, ecx
	jne	SHORT $LN3@Create
	push	553					; 00000229H
	push	OFFSET ??_C@_1GG@OGNLNBPD@?$AAx?$AA?3?$AA?2?$AAg?$AAi?$AAt?$AAh?$AAu?$AAb?$AA?2?$AAr?$AAe?$AAn?$AAe?$AAg?$AAa?$AAd?$AAe?$AA?2?$AAd?$AAr?$AAa?$AAg?$AAo?$AAn?$AAa?$AAd?$AAe?$AA_?$AAr?$AAx?$AAd@
	push	OFFSET ??_C@_1M@HLGKFCJM@?$AAf?$AAa?$AAl?$AAs?$AAe?$AA?$AA@
	call	DWORD PTR __imp___wassert
	add	esp, 12					; 0000000cH
$LN3@Create:
	mov	DWORD PTR tv79[ebp], 0
	jmp	SHORT $LN7@Create
$LN6@Create:
	push	44					; 0000002cH
	call	??2@YAPAXI@Z				; operator new
	add	esp, 4
	mov	DWORD PTR $T1[ebp], eax
	cmp	DWORD PTR $T1[ebp], 0
	je	SHORT $LN4@Create
	mov	ecx, DWORD PTR $T1[ebp]
	call	??0Ra2Ven_VehicleFalling@@QAE@XZ
	mov	DWORD PTR tv77[ebp], eax
	jmp	SHORT $LN5@Create
$LN4@Create:
	mov	DWORD PTR tv77[ebp], 0
$LN5@Create:
	mov	eax, DWORD PTR tv77[ebp]
	mov	DWORD PTR tv79[ebp], eax
$LN7@Create:
	mov	ecx, DWORD PTR tv79[ebp]
	mov	DWORD PTR _script$[ebp], ecx

; 554  : 		script->SetFactory(this);

	mov	eax, DWORD PTR _this$[ebp]
	push	eax
	mov	ecx, DWORD PTR _script$[ebp]
	call	?SetFactory@ScriptImpClass@@QAEXPAVScriptFactory@@@Z ; ScriptImpClass::SetFactory

; 555  : 		script->Register_Auto_Save_Variables();

	mov	eax, DWORD PTR _script$[ebp]
	mov	edx, DWORD PTR [eax]
	mov	ecx, DWORD PTR _script$[ebp]
	mov	eax, DWORD PTR [edx+100]
	call	eax

; 556  : 		return script;

	mov	eax, DWORD PTR _script$[ebp]

; 557  : 	}

	pop	edi
	pop	esi
	pop	ebx
	mov	esp, ebp
	pop	ebp
	ret	0
?Create@?$ScriptRegistrant@VRa2Ven_VehicleFalling@@@@UAEPAVScriptImpClass@@XZ ENDP ; ScriptRegistrant<Ra2Ven_VehicleFalling>::Create
_TEXT	ENDS
; Function compile flags: /Odtp /ZI
; File x:\github\renegade\dragonade_rxd\scripts\scripts.h
;	COMDAT ??0?$ScriptRegistrant@VRa2Ven_VehicleFalling@@@@QAE@PBD0@Z
_TEXT	SEGMENT
_this$ = -4						; size = 4
_name$ = 8						; size = 4
_param$ = 12						; size = 4
??0?$ScriptRegistrant@VRa2Ven_VehicleFalling@@@@QAE@PBD0@Z PROC ; ScriptRegistrant<Ra2Ven_VehicleFalling>::ScriptRegistrant<Ra2Ven_VehicleFalling>, COMDAT
; _this$ = ecx

; 549  : 	{

	push	ebp
	mov	ebp, esp
	sub	esp, 68					; 00000044H
	push	ebx
	push	esi
	push	edi
	mov	DWORD PTR _this$[ebp], ecx
	mov	eax, DWORD PTR _param$[ebp]
	push	eax
	mov	ecx, DWORD PTR _name$[ebp]
	push	ecx
	mov	ecx, DWORD PTR _this$[ebp]
	call	??0ScriptFactory@@IAE@PBD0@Z		; ScriptFactory::ScriptFactory
	mov	eax, DWORD PTR _this$[ebp]
	mov	DWORD PTR [eax], OFFSET ??_7?$ScriptRegistrant@VRa2Ven_VehicleFalling@@@@6B@

; 550  : 	}

	mov	eax, DWORD PTR _this$[ebp]
	pop	edi
	pop	esi
	pop	ebx
	mov	esp, ebp
	pop	ebp
	ret	8
??0?$ScriptRegistrant@VRa2Ven_VehicleFalling@@@@QAE@PBD0@Z ENDP ; ScriptRegistrant<Ra2Ven_VehicleFalling>::ScriptRegistrant<Ra2Ven_VehicleFalling>
_TEXT	ENDS
; Function compile flags: /Odtp /ZI
;	COMDAT ??__FRa2Ven_MirageTank_Registrant@@YAXXZ
text$yd	SEGMENT
??__FRa2Ven_MirageTank_Registrant@@YAXXZ PROC		; `dynamic atexit destructor for 'Ra2Ven_MirageTank_Registrant'', COMDAT
	push	ebp
	mov	ebp, esp
	sub	esp, 64					; 00000040H
	push	ebx
	push	esi
	push	edi
	mov	ecx, OFFSET ?Ra2Ven_MirageTank_Registrant@@3V?$ScriptRegistrant@VRa2Ven_MirageTank@@@@A ; Ra2Ven_MirageTank_Registrant
	call	??1?$ScriptRegistrant@VRa2Ven_MirageTank@@@@UAE@XZ
	pop	edi
	pop	esi
	pop	ebx
	mov	esp, ebp
	pop	ebp
	ret	0
??__FRa2Ven_MirageTank_Registrant@@YAXXZ ENDP		; `dynamic atexit destructor for 'Ra2Ven_MirageTank_Registrant''
text$yd	ENDS
; Function compile flags: /Odtp /ZI
; File x:\github\renegade\dragonade_rxd\scripts\ra2.cpp
;	COMDAT ??__ERa2Ven_MirageTank_Registrant@@YAXXZ
text$yc	SEGMENT
??__ERa2Ven_MirageTank_Registrant@@YAXXZ PROC		; `dynamic initializer for 'Ra2Ven_MirageTank_Registrant'', COMDAT

; 690  : ScriptRegistrant<Ra2Ven_MirageTank> Ra2Ven_MirageTank_Registrant("Ra2Ven_MirageTank","Tree1_Preset:string,Tree2_Preset=none:string,Tree3_Preset=none:string,Tree4_Preset=none:string,Explosion_Preset:string,Time=1:float,TimerNumber:int");

	push	ebp
	mov	ebp, esp
	sub	esp, 64					; 00000040H
	push	ebx
	push	esi
	push	edi
	push	OFFSET ??_C@_0JE@BOODGAMG@Tree1_Preset?3string?0Tree2_Preset@
	push	OFFSET ??_C@_0BC@PLFJDIBO@Ra2Ven_MirageTank?$AA@
	mov	ecx, OFFSET ?Ra2Ven_MirageTank_Registrant@@3V?$ScriptRegistrant@VRa2Ven_MirageTank@@@@A ; Ra2Ven_MirageTank_Registrant
	call	??0?$ScriptRegistrant@VRa2Ven_MirageTank@@@@QAE@PBD0@Z ; ScriptRegistrant<Ra2Ven_MirageTank>::ScriptRegistrant<Ra2Ven_MirageTank>
	push	OFFSET ??__FRa2Ven_MirageTank_Registrant@@YAXXZ ; `dynamic atexit destructor for 'Ra2Ven_MirageTank_Registrant''
	call	_atexit
	add	esp, 4
	pop	edi
	pop	esi
	pop	ebx
	mov	esp, ebp
	pop	ebp
	ret	0
??__ERa2Ven_MirageTank_Registrant@@YAXXZ ENDP		; `dynamic initializer for 'Ra2Ven_MirageTank_Registrant''
text$yc	ENDS
; Function compile flags: /Odtp /ZI
;	COMDAT ??_G?$ScriptRegistrant@VRa2Ven_MirageTank@@@@UAEPAXI@Z
_TEXT	SEGMENT
_this$ = -4						; size = 4
___flags$ = 8						; size = 4
??_G?$ScriptRegistrant@VRa2Ven_MirageTank@@@@UAEPAXI@Z PROC ; ScriptRegistrant<Ra2Ven_MirageTank>::`scalar deleting destructor', COMDAT
; _this$ = ecx
	push	ebp
	mov	ebp, esp
	sub	esp, 68					; 00000044H
	push	ebx
	push	esi
	push	edi
	mov	DWORD PTR _this$[ebp], ecx
	mov	ecx, DWORD PTR _this$[ebp]
	call	??1?$ScriptRegistrant@VRa2Ven_MirageTank@@@@UAE@XZ
	mov	eax, DWORD PTR ___flags$[ebp]
	and	eax, 1
	je	SHORT $LN1@scalar
	mov	eax, DWORD PTR _this$[ebp]
	push	eax
	call	??3@YAXPAX@Z				; operator delete
	add	esp, 4
$LN1@scalar:
	mov	eax, DWORD PTR _this$[ebp]
	pop	edi
	pop	esi
	pop	ebx
	mov	esp, ebp
	pop	ebp
	ret	4
??_G?$ScriptRegistrant@VRa2Ven_MirageTank@@@@UAEPAXI@Z ENDP ; ScriptRegistrant<Ra2Ven_MirageTank>::`scalar deleting destructor'
_TEXT	ENDS
; Function compile flags: /Odtp /ZI
;	COMDAT ??1?$ScriptRegistrant@VRa2Ven_MirageTank@@@@UAE@XZ
_TEXT	SEGMENT
_this$ = -4						; size = 4
??1?$ScriptRegistrant@VRa2Ven_MirageTank@@@@UAE@XZ PROC	; ScriptRegistrant<Ra2Ven_MirageTank>::~ScriptRegistrant<Ra2Ven_MirageTank>, COMDAT
; _this$ = ecx
	push	ebp
	mov	ebp, esp
