; Listing generated by Microsoft (R) Optimizing Compiler Version 17.00.61219.0 

	TITLE	X:\GitHub\Renegade\Dragonade_RxD\scripts\survival.cpp
	.686P
	.XMM
	include listing.inc
	.model	flat

INCLUDELIB MSVCRTD
INCLUDELIB OLDNAMES

CONST	SEGMENT
_DONT_MOVE_ARRIVED_DIST DD 0447a0000r		; 1000
CONST	ENDS
PUBLIC	??_I@YGXPAXIHP6EX0@Z@Z				; `vector destructor iterator'
PUBLIC	_acosf
PUBLIC	_asinf
PUBLIC	_atanf
PUBLIC	_atan2f
PUBLIC	_ceilf
PUBLIC	_cosf
PUBLIC	_floorf
PUBLIC	_sinf
PUBLIC	_sqrtf
PUBLIC	?acos@@YAMM@Z					; acos
PUBLIC	?asin@@YAMM@Z					; asin
PUBLIC	?atan@@YAMM@Z					; atan
PUBLIC	?atan2@@YAMMM@Z					; atan2
PUBLIC	?cos@@YAMM@Z					; cos
PUBLIC	?sin@@YAMM@Z					; sin
PUBLIC	?sqrt@@YAMM@Z					; sqrt
PUBLIC	?Fabs@WWMath@@SAMM@Z				; WWMath::Fabs
PUBLIC	?Float_To_Int_Chop@WWMath@@SAHABM@Z		; WWMath::Float_To_Int_Chop
PUBLIC	?Float_To_Int_Floor@WWMath@@SAHABM@Z		; WWMath::Float_To_Int_Floor
PUBLIC	?Cos@WWMath@@SAMM@Z				; WWMath::Cos
PUBLIC	?Sin@WWMath@@SAMM@Z				; WWMath::Sin
PUBLIC	?Sqrt@WWMath@@SAMM@Z				; WWMath::Sqrt
PUBLIC	?Inv_Sqrt@WWMath@@SIMM@Z			; WWMath::Inv_Sqrt
PUBLIC	?Float_To_Long@WWMath@@SAJM@Z			; WWMath::Float_To_Long
PUBLIC	?Fast_Sin@WWMath@@SAMM@Z			; WWMath::Fast_Sin
PUBLIC	?Fast_Inv_Sin@WWMath@@SAMM@Z			; WWMath::Fast_Inv_Sin
PUBLIC	?Fast_Cos@WWMath@@SAMM@Z			; WWMath::Fast_Cos
PUBLIC	?Fast_Inv_Cos@WWMath@@SAMM@Z			; WWMath::Fast_Inv_Cos
PUBLIC	?Fast_Acos@WWMath@@SAMM@Z			; WWMath::Fast_Acos
PUBLIC	?Fast_Asin@WWMath@@SAMM@Z			; WWMath::Fast_Asin
PUBLIC	?Acos@WWMath@@SAMM@Z				; WWMath::Acos
PUBLIC	?Asin@WWMath@@SAMM@Z				; WWMath::Asin
PUBLIC	?Atan@WWMath@@SAMM@Z				; WWMath::Atan
PUBLIC	?Atan2@WWMath@@SAMMM@Z				; WWMath::Atan2
PUBLIC	?Sign@WWMath@@SAMM@Z				; WWMath::Sign
PUBLIC	?Ceil@WWMath@@SAMM@Z				; WWMath::Ceil
PUBLIC	?Floor@WWMath@@SAMM@Z				; WWMath::Floor
PUBLIC	?Fast_Is_Float_Positive@WWMath@@SA_NABM@Z	; WWMath::Fast_Is_Float_Positive
PUBLIC	?Random_Float@WWMath@@SAMMM@Z			; WWMath::Random_Float
PUBLIC	?Clamp@WWMath@@SAMMMM@Z				; WWMath::Clamp
PUBLIC	?Clamp@WWMath@@SANNNN@Z				; WWMath::Clamp
PUBLIC	?Clamp_Int@WWMath@@SAHHHH@Z			; WWMath::Clamp_Int
PUBLIC	?Wrap@WWMath@@SAMMMM@Z				; WWMath::Wrap
PUBLIC	?Wrap@WWMath@@SANNNN@Z				; WWMath::Wrap
PUBLIC	?Min@WWMath@@SAMMM@Z				; WWMath::Min
PUBLIC	?Max@WWMath@@SAMMM@Z				; WWMath::Max
PUBLIC	?Lerp@WWMath@@SAMMMM@Z				; WWMath::Lerp
PUBLIC	?Lerp@WWMath@@SANNNM@Z				; WWMath::Lerp
PUBLIC	?Lerp@WWMath@@SAHHHM@Z				; WWMath::Lerp
PUBLIC	?Float_To_Long@WWMath@@SAJN@Z			; WWMath::Float_To_Long
PUBLIC	?Unit_Float_To_Byte@WWMath@@SAEM@Z		; WWMath::Unit_Float_To_Byte
PUBLIC	?Byte_To_Unit_Float@WWMath@@SAME@Z		; WWMath::Byte_To_Unit_Float
PUBLIC	?Is_Valid_Float@WWMath@@SA_NM@Z			; WWMath::Is_Valid_Float
PUBLIC	?Is_Valid_Double@WWMath@@SA_NN@Z		; WWMath::Is_Valid_Double
PUBLIC	??4WWMath@@QAEAAV0@ABV0@@Z			; WWMath::operator=
PUBLIC	??B?$RefArrayHelper@M$0EAA@@@QAEPAMXZ		; RefArrayHelper<float,1024>::operator float *
PUBLIC	??0Vector3@@QAE@XZ				; Vector3::Vector3
PUBLIC	??0Vector3@@QAE@MMM@Z				; Vector3::Vector3
PUBLIC	??4Vector3@@QAEAAV0@ABV0@@Z			; Vector3::operator=
PUBLIC	??0GameObjObserverClass@@QAE@XZ			; GameObjObserverClass::GameObjObserverClass
PUBLIC	??1GameObjObserverClass@@UAE@XZ			; GameObjObserverClass::~GameObjObserverClass
PUBLIC	?Set_ID@GameObjObserverClass@@QAEXH@Z		; GameObjObserverClass::Set_ID
PUBLIC	?Get_ID@GameObjObserverClass@@QAEHXZ		; GameObjObserverClass::Get_ID
PUBLIC	?Owner@GameObjObserverClass@@UAEPAVScriptableGameObj@@XZ ; GameObjObserverClass::Owner
PUBLIC	??0GameObjObserverClass@@QAE@ABV0@@Z		; GameObjObserverClass::GameObjObserverClass
PUBLIC	??4GameObjObserverClass@@QAEAAV0@ABV0@@Z	; GameObjObserverClass::operator=
PUBLIC	??_GGameObjObserverClass@@UAEPAXI@Z		; GameObjObserverClass::`scalar deleting destructor'
PUBLIC	??_EGameObjObserverClass@@UAEPAXI@Z		; GameObjObserverClass::`vector deleting destructor'
PUBLIC	??1ScriptClass@@UAE@XZ				; ScriptClass::~ScriptClass
PUBLIC	??0ScriptClass@@QAE@XZ				; ScriptClass::ScriptClass
PUBLIC	??0ScriptClass@@QAE@ABV0@@Z			; ScriptClass::ScriptClass
PUBLIC	??4ScriptClass@@QAEAAV0@ABV0@@Z			; ScriptClass::operator=
PUBLIC	??_GScriptClass@@UAEPAXI@Z			; ScriptClass::`scalar deleting destructor'
PUBLIC	??_EScriptClass@@UAEPAXI@Z			; ScriptClass::`vector deleting destructor'
PUBLIC	?SetFactory@ScriptImpClass@@QAEXPAVScriptFactory@@@Z ; ScriptImpClass::SetFactory
PUBLIC	?Created@ScriptImpClass@@UAEXPAVScriptableGameObj@@@Z ; ScriptImpClass::Created
PUBLIC	?Destroyed@ScriptImpClass@@UAEXPAVScriptableGameObj@@@Z ; ScriptImpClass::Destroyed
PUBLIC	?Killed@ScriptImpClass@@UAEXPAVScriptableGameObj@@0@Z ; ScriptImpClass::Killed
PUBLIC	?Damaged@ScriptImpClass@@UAEXPAVScriptableGameObj@@0M@Z ; ScriptImpClass::Damaged
PUBLIC	?Custom@ScriptImpClass@@UAEXPAVScriptableGameObj@@HH0@Z ; ScriptImpClass::Custom
PUBLIC	?Sound_Heard@ScriptImpClass@@UAEXPAVScriptableGameObj@@ABUCombatSound@@@Z ; ScriptImpClass::Sound_Heard
PUBLIC	?Enemy_Seen@ScriptImpClass@@UAEXPAVScriptableGameObj@@0@Z ; ScriptImpClass::Enemy_Seen
PUBLIC	?Action_Complete@ScriptImpClass@@UAEXPAVScriptableGameObj@@HW4ActionCompleteReason@@@Z ; ScriptImpClass::Action_Complete
PUBLIC	?Timer_Expired@ScriptImpClass@@UAEXPAVScriptableGameObj@@H@Z ; ScriptImpClass::Timer_Expired
PUBLIC	?Animation_Complete@ScriptImpClass@@UAEXPAVScriptableGameObj@@PBD@Z ; ScriptImpClass::Animation_Complete
PUBLIC	?Poked@ScriptImpClass@@UAEXPAVScriptableGameObj@@0@Z ; ScriptImpClass::Poked
PUBLIC	?Entered@ScriptImpClass@@UAEXPAVScriptableGameObj@@0@Z ; ScriptImpClass::Entered
PUBLIC	?Exited@ScriptImpClass@@UAEXPAVScriptableGameObj@@0@Z ; ScriptImpClass::Exited
PUBLIC	?Owner@ScriptImpClass@@UAEPAVScriptableGameObj@@XZ ; ScriptImpClass::Owner
PUBLIC	?Get_Owner_Ptr@ScriptImpClass@@UAEPAPAVScriptableGameObj@@XZ ; ScriptImpClass::Get_Owner_Ptr
PUBLIC	?Save_Data@ScriptImpClass@@UAEXAAVScriptSaver@@@Z ; ScriptImpClass::Save_Data
PUBLIC	?Load_Data@ScriptImpClass@@UAEXAAVScriptLoader@@@Z ; ScriptImpClass::Load_Data
PUBLIC	?Register_Auto_Save_Variables@ScriptImpClass@@UAEXXZ ; ScriptImpClass::Register_Auto_Save_Variables
PUBLIC	?Get_Parameter_Count@ScriptImpClass@@QAEHXZ	; ScriptImpClass::Get_Parameter_Count
PUBLIC	?Get_Int_Parameter@ScriptImpClass@@QAEHH@Z	; ScriptImpClass::Get_Int_Parameter
PUBLIC	?Get_Float_Parameter@ScriptImpClass@@QAEMH@Z	; ScriptImpClass::Get_Float_Parameter
PUBLIC	?Get_Bool_Parameter@ScriptImpClass@@QAE_NPBD@Z	; ScriptImpClass::Get_Bool_Parameter
PUBLIC	?Get_Bool_Parameter@ScriptImpClass@@QAE_NH@Z	; ScriptImpClass::Get_Bool_Parameter
PUBLIC	??0ScriptImpClass@@QAE@ABV0@@Z			; ScriptImpClass::ScriptImpClass
PUBLIC	??4ScriptImpClass@@QAEAAV0@ABV0@@Z		; ScriptImpClass::operator=
PUBLIC	??_GScriptImpClass@@UAEPAXI@Z			; ScriptImpClass::`scalar deleting destructor'
PUBLIC	??_EScriptImpClass@@UAEPAXI@Z			; ScriptImpClass::`vector deleting destructor'
PUBLIC	??0ActionParamsStruct@@QAE@XZ			; ActionParamsStruct::ActionParamsStruct
PUBLIC	?Set_Basic@ActionParamsStruct@@QAEXPAVGameObjObserverClass@@MHW4SoldierAIState@@@Z ; ActionParamsStruct::Set_Basic
PUBLIC	?Set_Movement@ActionParamsStruct@@QAEXABVVector3@@MM_N@Z ; ActionParamsStruct::Set_Movement
PUBLIC	?Set_Attack@ActionParamsStruct@@QAEXPAVScriptableGameObj@@MM_N@Z ; ActionParamsStruct::Set_Attack
PUBLIC	??0ScriptFactory@@QAE@ABV0@@Z			; ScriptFactory::ScriptFactory
PUBLIC	??4ScriptFactory@@QAEAAV0@ABV0@@Z		; ScriptFactory::operator=
PUBLIC	??_GScriptFactory@@UAEPAXI@Z			; ScriptFactory::`scalar deleting destructor'
PUBLIC	??_EScriptFactory@@UAEPAXI@Z			; ScriptFactory::`vector deleting destructor'
PUBLIC	??4ScriptRegistrar@@QAEAAV0@ABV0@@Z		; ScriptRegistrar::operator=
PUBLIC	?Created@SUR_Spawn_Delay@@EAEXPAVScriptableGameObj@@@Z ; SUR_Spawn_Delay::Created
PUBLIC	?Timer_Expired@SUR_Spawn_Delay@@EAEXPAVScriptableGameObj@@H@Z ; SUR_Spawn_Delay::Timer_Expired
PUBLIC	??0SUR_Spawn_Delay@@QAE@XZ			; SUR_Spawn_Delay::SUR_Spawn_Delay
PUBLIC	??1SUR_Spawn_Delay@@UAE@XZ			; SUR_Spawn_Delay::~SUR_Spawn_Delay
PUBLIC	??_GSUR_Spawn_Delay@@UAEPAXI@Z			; SUR_Spawn_Delay::`scalar deleting destructor'
PUBLIC	?Created@SUR_Generator_Zone@@EAEXPAVScriptableGameObj@@@Z ; SUR_Generator_Zone::Created
PUBLIC	?Timer_Expired@SUR_Generator_Zone@@EAEXPAVScriptableGameObj@@H@Z ; SUR_Generator_Zone::Timer_Expired
PUBLIC	?Entered@SUR_Generator_Zone@@EAEXPAVScriptableGameObj@@0@Z ; SUR_Generator_Zone::Entered
PUBLIC	?Register_Auto_Save_Variables@SUR_Generator_Zone@@UAEXXZ ; SUR_Generator_Zone::Register_Auto_Save_Variables
PUBLIC	??0SUR_Generator_Zone@@QAE@XZ			; SUR_Generator_Zone::SUR_Generator_Zone
PUBLIC	??1SUR_Generator_Zone@@UAE@XZ			; SUR_Generator_Zone::~SUR_Generator_Zone
PUBLIC	??_GSUR_Generator_Zone@@UAEPAXI@Z		; SUR_Generator_Zone::`scalar deleting destructor'
PUBLIC	?Created@SUR_MiniGen@@EAEXPAVScriptableGameObj@@@Z ; SUR_MiniGen::Created
PUBLIC	?Timer_Expired@SUR_MiniGen@@EAEXPAVScriptableGameObj@@H@Z ; SUR_MiniGen::Timer_Expired
PUBLIC	?Killed@SUR_MiniGen@@EAEXPAVScriptableGameObj@@0@Z ; SUR_MiniGen::Killed
PUBLIC	??0SUR_MiniGen@@QAE@XZ				; SUR_MiniGen::SUR_MiniGen
PUBLIC	??1SUR_MiniGen@@UAE@XZ				; SUR_MiniGen::~SUR_MiniGen
PUBLIC	??_GSUR_MiniGen@@UAEPAXI@Z			; SUR_MiniGen::`scalar deleting destructor'
PUBLIC	?Created@SUR_NHB@@EAEXPAVScriptableGameObj@@@Z	; SUR_NHB::Created
PUBLIC	?Custom@SUR_NHB@@EAEXPAVScriptableGameObj@@HH0@Z ; SUR_NHB::Custom
PUBLIC	?Register_Auto_Save_Variables@SUR_NHB@@UAEXXZ	; SUR_NHB::Register_Auto_Save_Variables
PUBLIC	??0SUR_NHB@@QAE@XZ				; SUR_NHB::SUR_NHB
PUBLIC	??1SUR_NHB@@UAE@XZ				; SUR_NHB::~SUR_NHB
PUBLIC	??_GSUR_NHB@@UAEPAXI@Z				; SUR_NHB::`scalar deleting destructor'
PUBLIC	?Created@SUR_NHB_Soldier@@EAEXPAVScriptableGameObj@@@Z ; SUR_NHB_Soldier::Created
PUBLIC	?Custom@SUR_NHB_Soldier@@EAEXPAVScriptableGameObj@@HH0@Z ; SUR_NHB_Soldier::Custom
PUBLIC	?Killed@SUR_NHB_Soldier@@EAEXPAVScriptableGameObj@@0@Z ; SUR_NHB_Soldier::Killed
PUBLIC	?Timer_Expired@SUR_NHB_Soldier@@EAEXPAVScriptableGameObj@@H@Z ; SUR_NHB_Soldier::Timer_Expired
PUBLIC	?Register_Auto_Save_Variables@SUR_NHB_Soldier@@UAEXXZ ; SUR_NHB_Soldier::Register_Auto_Save_Variables
PUBLIC	??0SUR_NHB_Soldier@@QAE@XZ			; SUR_NHB_Soldier::SUR_NHB_Soldier
PUBLIC	??1SUR_NHB_Soldier@@UAE@XZ			; SUR_NHB_Soldier::~SUR_NHB_Soldier
PUBLIC	??_GSUR_NHB_Soldier@@UAEPAXI@Z			; SUR_NHB_Soldier::`scalar deleting destructor'
PUBLIC	?Death@SUR_Obj_Destroyer@@AAEXPAVScriptableGameObj@@0@Z ; SUR_Obj_Destroyer::Death
PUBLIC	??0SUR_Obj_Destroyer@@QAE@XZ			; SUR_Obj_Destroyer::SUR_Obj_Destroyer
PUBLIC	??1SUR_Obj_Destroyer@@UAE@XZ			; SUR_Obj_Destroyer::~SUR_Obj_Destroyer
PUBLIC	??_GSUR_Obj_Destroyer@@UAEPAXI@Z		; SUR_Obj_Destroyer::`scalar deleting destructor'
PUBLIC	?Custom@SUR_New_PT@@EAEXPAVScriptableGameObj@@HH0@Z ; SUR_New_PT::Custom
PUBLIC	??0SUR_New_PT@@QAE@XZ				; SUR_New_PT::SUR_New_PT
PUBLIC	??1SUR_New_PT@@UAE@XZ				; SUR_New_PT::~SUR_New_PT
PUBLIC	??_GSUR_New_PT@@UAEPAXI@Z			; SUR_New_PT::`scalar deleting destructor'
PUBLIC	?Custom@SUR_New_PT_Reciever@@EAEXPAVScriptableGameObj@@HH0@Z ; SUR_New_PT_Reciever::Custom
PUBLIC	??0SUR_New_PT_Reciever@@QAE@XZ			; SUR_New_PT_Reciever::SUR_New_PT_Reciever
PUBLIC	??1SUR_New_PT_Reciever@@UAE@XZ			; SUR_New_PT_Reciever::~SUR_New_PT_Reciever
PUBLIC	??_GSUR_New_PT_Reciever@@UAEPAXI@Z		; SUR_New_PT_Reciever::`scalar deleting destructor'
PUBLIC	?Created@SUR_APC_AI@@EAEXPAVScriptableGameObj@@@Z ; SUR_APC_AI::Created
PUBLIC	?Custom@SUR_APC_AI@@EAEXPAVScriptableGameObj@@HH0@Z ; SUR_APC_AI::Custom
PUBLIC	?Register_Auto_Save_Variables@SUR_APC_AI@@UAEXXZ ; SUR_APC_AI::Register_Auto_Save_Variables
PUBLIC	??0SUR_APC_AI@@QAE@XZ				; SUR_APC_AI::SUR_APC_AI
PUBLIC	??1SUR_APC_AI@@UAE@XZ				; SUR_APC_AI::~SUR_APC_AI
PUBLIC	??_GSUR_APC_AI@@UAEPAXI@Z			; SUR_APC_AI::`scalar deleting destructor'
PUBLIC	?Created@SUR_Orca_AI@@EAEXPAVScriptableGameObj@@@Z ; SUR_Orca_AI::Created
PUBLIC	?Death@SUR_Orca_AI@@AAEXPAVScriptableGameObj@@0@Z ; SUR_Orca_AI::Death
PUBLIC	?Custom@SUR_Orca_AI@@EAEXPAVScriptableGameObj@@HH0@Z ; SUR_Orca_AI::Custom
PUBLIC	?Action_Complete@SUR_Orca_AI@@EAEXPAVScriptableGameObj@@HW4ActionCompleteReason@@@Z ; SUR_Orca_AI::Action_Complete
PUBLIC	??0SUR_Orca_AI@@QAE@XZ				; SUR_Orca_AI::SUR_Orca_AI
PUBLIC	??1SUR_Orca_AI@@UAE@XZ				; SUR_Orca_AI::~SUR_Orca_AI
PUBLIC	??_GSUR_Orca_AI@@UAEPAXI@Z			; SUR_Orca_AI::`scalar deleting destructor'
PUBLIC	?Custom@SUR_Chinook_AI@@EAEXPAVScriptableGameObj@@HH0@Z ; SUR_Chinook_AI::Custom
PUBLIC	??0SUR_Chinook_AI@@QAE@XZ			; SUR_Chinook_AI::SUR_Chinook_AI
PUBLIC	??1SUR_Chinook_AI@@UAE@XZ			; SUR_Chinook_AI::~SUR_Chinook_AI
PUBLIC	??_GSUR_Chinook_AI@@UAEPAXI@Z			; SUR_Chinook_AI::`scalar deleting destructor'
PUBLIC	?Created@SUR_Dep_Turret@@EAEXPAVScriptableGameObj@@@Z ; SUR_Dep_Turret::Created
PUBLIC	?EnemySeen@SUR_Dep_Turret@@AAEXPAVScriptableGameObj@@0@Z ; SUR_Dep_Turret::EnemySeen
PUBLIC	?Action_Complete@SUR_Dep_Turret@@EAEXPAVScriptableGameObj@@HW4ActionCompleteReason@@@Z ; SUR_Dep_Turret::Action_Complete
PUBLIC	?Timer_Expired@SUR_Dep_Turret@@EAEXPAVScriptableGameObj@@H@Z ; SUR_Dep_Turret::Timer_Expired
PUBLIC	?Register_Auto_Save_Variables@SUR_Dep_Turret@@UAEXXZ ; SUR_Dep_Turret::Register_Auto_Save_Variables
PUBLIC	??0SUR_Dep_Turret@@QAE@XZ			; SUR_Dep_Turret::SUR_Dep_Turret
PUBLIC	??1SUR_Dep_Turret@@UAE@XZ			; SUR_Dep_Turret::~SUR_Dep_Turret
PUBLIC	??_GSUR_Dep_Turret@@UAEPAXI@Z			; SUR_Dep_Turret::`scalar deleting destructor'
PUBLIC	?Created@SUR_Timed_Death@@EAEXPAVScriptableGameObj@@@Z ; SUR_Timed_Death::Created
PUBLIC	?Timer_Expired@SUR_Timed_Death@@EAEXPAVScriptableGameObj@@H@Z ; SUR_Timed_Death::Timer_Expired
PUBLIC	??0SUR_Timed_Death@@QAE@XZ			; SUR_Timed_Death::SUR_Timed_Death
PUBLIC	??1SUR_Timed_Death@@UAE@XZ			; SUR_Timed_Death::~SUR_Timed_Death
PUBLIC	??_GSUR_Timed_Death@@UAEPAXI@Z			; SUR_Timed_Death::`scalar deleting destructor'
PUBLIC	?Entered@SUR_GrantPowerup_OnEntry@@EAEXPAVScriptableGameObj@@0@Z ; SUR_GrantPowerup_OnEntry::Entered
PUBLIC	??0SUR_GrantPowerup_OnEntry@@QAE@XZ		; SUR_GrantPowerup_OnEntry::SUR_GrantPowerup_OnEntry
PUBLIC	??1SUR_GrantPowerup_OnEntry@@UAE@XZ		; SUR_GrantPowerup_OnEntry::~SUR_GrantPowerup_OnEntry
PUBLIC	??_GSUR_GrantPowerup_OnEntry@@UAEPAXI@Z		; SUR_GrantPowerup_OnEntry::`scalar deleting destructor'
PUBLIC	??0?$ScriptRegistrant@VSUR_Spawn_Delay@@@@QAE@PBD0@Z ; ScriptRegistrant<SUR_Spawn_Delay>::ScriptRegistrant<SUR_Spawn_Delay>
PUBLIC	?Create@?$ScriptRegistrant@VSUR_Spawn_Delay@@@@UAEPAVScriptImpClass@@XZ ; ScriptRegistrant<SUR_Spawn_Delay>::Create
PUBLIC	??1?$ScriptRegistrant@VSUR_Spawn_Delay@@@@UAE@XZ ; ScriptRegistrant<SUR_Spawn_Delay>::~ScriptRegistrant<SUR_Spawn_Delay>
PUBLIC	??_G?$ScriptRegistrant@VSUR_Spawn_Delay@@@@UAEPAXI@Z ; ScriptRegistrant<SUR_Spawn_Delay>::`scalar deleting destructor'
PUBLIC	??0?$ScriptRegistrant@VSUR_Generator_Zone@@@@QAE@PBD0@Z ; ScriptRegistrant<SUR_Generator_Zone>::ScriptRegistrant<SUR_Generator_Zone>
PUBLIC	?Create@?$ScriptRegistrant@VSUR_Generator_Zone@@@@UAEPAVScriptImpClass@@XZ ; ScriptRegistrant<SUR_Generator_Zone>::Create
PUBLIC	??1?$ScriptRegistrant@VSUR_Generator_Zone@@@@UAE@XZ ; ScriptRegistrant<SUR_Generator_Zone>::~ScriptRegistrant<SUR_Generator_Zone>
PUBLIC	??_G?$ScriptRegistrant@VSUR_Generator_Zone@@@@UAEPAXI@Z ; ScriptRegistrant<SUR_Generator_Zone>::`scalar deleting destructor'
PUBLIC	??0?$ScriptRegistrant@VSUR_MiniGen@@@@QAE@PBD0@Z ; ScriptRegistrant<SUR_MiniGen>::ScriptRegistrant<SUR_MiniGen>
PUBLIC	?Create@?$ScriptRegistrant@VSUR_MiniGen@@@@UAEPAVScriptImpClass@@XZ ; ScriptRegistrant<SUR_MiniGen>::Create
PUBLIC	??1?$ScriptRegistrant@VSUR_MiniGen@@@@UAE@XZ	; ScriptRegistrant<SUR_MiniGen>::~ScriptRegistrant<SUR_MiniGen>
PUBLIC	??_G?$ScriptRegistrant@VSUR_MiniGen@@@@UAEPAXI@Z ; ScriptRegistrant<SUR_MiniGen>::`scalar deleting destructor'
PUBLIC	??0?$ScriptRegistrant@VSUR_NHB@@@@QAE@PBD0@Z	; ScriptRegistrant<SUR_NHB>::ScriptRegistrant<SUR_NHB>
PUBLIC	?Create@?$ScriptRegistrant@VSUR_NHB@@@@UAEPAVScriptImpClass@@XZ ; ScriptRegistrant<SUR_NHB>::Create
PUBLIC	??1?$ScriptRegistrant@VSUR_NHB@@@@UAE@XZ	; ScriptRegistrant<SUR_NHB>::~ScriptRegistrant<SUR_NHB>
PUBLIC	??_G?$ScriptRegistrant@VSUR_NHB@@@@UAEPAXI@Z	; ScriptRegistrant<SUR_NHB>::`scalar deleting destructor'
PUBLIC	??0?$ScriptRegistrant@VSUR_NHB_Soldier@@@@QAE@PBD0@Z ; ScriptRegistrant<SUR_NHB_Soldier>::ScriptRegistrant<SUR_NHB_Soldier>
PUBLIC	?Create@?$ScriptRegistrant@VSUR_NHB_Soldier@@@@UAEPAVScriptImpClass@@XZ ; ScriptRegistrant<SUR_NHB_Soldier>::Create
PUBLIC	??1?$ScriptRegistrant@VSUR_NHB_Soldier@@@@UAE@XZ ; ScriptRegistrant<SUR_NHB_Soldier>::~ScriptRegistrant<SUR_NHB_Soldier>
PUBLIC	??_G?$ScriptRegistrant@VSUR_NHB_Soldier@@@@UAEPAXI@Z ; ScriptRegistrant<SUR_NHB_Soldier>::`scalar deleting destructor'
PUBLIC	??0?$ScriptRegistrant@VSUR_Obj_Destroyer@@@@QAE@PBD0@Z ; ScriptRegistrant<SUR_Obj_Destroyer>::ScriptRegistrant<SUR_Obj_Destroyer>
PUBLIC	?Create@?$ScriptRegistrant@VSUR_Obj_Destroyer@@@@UAEPAVScriptImpClass@@XZ ; ScriptRegistrant<SUR_Obj_Destroyer>::Create
PUBLIC	??1?$ScriptRegistrant@VSUR_Obj_Destroyer@@@@UAE@XZ ; ScriptRegistrant<SUR_Obj_Destroyer>::~ScriptRegistrant<SUR_Obj_Destroyer>
PUBLIC	??_G?$ScriptRegistrant@VSUR_Obj_Destroyer@@@@UAEPAXI@Z ; ScriptRegistrant<SUR_Obj_Destroyer>::`scalar deleting destructor'
PUBLIC	??0?$ScriptRegistrant@VSUR_New_PT@@@@QAE@PBD0@Z	; ScriptRegistrant<SUR_New_PT>::ScriptRegistrant<SUR_New_PT>
PUBLIC	?Create@?$ScriptRegistrant@VSUR_New_PT@@@@UAEPAVScriptImpClass@@XZ ; ScriptRegistrant<SUR_New_PT>::Create
PUBLIC	??1?$ScriptRegistrant@VSUR_New_PT@@@@UAE@XZ	; ScriptRegistrant<SUR_New_PT>::~ScriptRegistrant<SUR_New_PT>
PUBLIC	??_G?$ScriptRegistrant@VSUR_New_PT@@@@UAEPAXI@Z	; ScriptRegistrant<SUR_New_PT>::`scalar deleting destructor'
PUBLIC	??0?$ScriptRegistrant@VSUR_New_PT_Reciever@@@@QAE@PBD0@Z ; ScriptRegistrant<SUR_New_PT_Reciever>::ScriptRegistrant<SUR_New_PT_Reciever>
PUBLIC	?Create@?$ScriptRegistrant@VSUR_New_PT_Reciever@@@@UAEPAVScriptImpClass@@XZ ; ScriptRegistrant<SUR_New_PT_Reciever>::Create
PUBLIC	??1?$ScriptRegistrant@VSUR_New_PT_Reciever@@@@UAE@XZ ; ScriptRegistrant<SUR_New_PT_Reciever>::~ScriptRegistrant<SUR_New_PT_Reciever>
PUBLIC	??_G?$ScriptRegistrant@VSUR_New_PT_Reciever@@@@UAEPAXI@Z ; ScriptRegistrant<SUR_New_PT_Reciever>::`scalar deleting destructor'
PUBLIC	??0?$ScriptRegistrant@VSUR_APC_AI@@@@QAE@PBD0@Z	; ScriptRegistrant<SUR_APC_AI>::ScriptRegistrant<SUR_APC_AI>
PUBLIC	?Create@?$ScriptRegistrant@VSUR_APC_AI@@@@UAEPAVScriptImpClass@@XZ ; ScriptRegistrant<SUR_APC_AI>::Create
PUBLIC	??1?$ScriptRegistrant@VSUR_APC_AI@@@@UAE@XZ	; ScriptRegistrant<SUR_APC_AI>::~ScriptRegistrant<SUR_APC_AI>
PUBLIC	??_G?$ScriptRegistrant@VSUR_APC_AI@@@@UAEPAXI@Z	; ScriptRegistrant<SUR_APC_AI>::`scalar deleting destructor'
PUBLIC	??0?$ScriptRegistrant@VSUR_Orca_AI@@@@QAE@PBD0@Z ; ScriptRegistrant<SUR_Orca_AI>::ScriptRegistrant<SUR_Orca_AI>
PUBLIC	?Create@?$ScriptRegistrant@VSUR_Orca_AI@@@@UAEPAVScriptImpClass@@XZ ; ScriptRegistrant<SUR_Orca_AI>::Create
PUBLIC	??1?$ScriptRegistrant@VSUR_Orca_AI@@@@UAE@XZ	; ScriptRegistrant<SUR_Orca_AI>::~ScriptRegistrant<SUR_Orca_AI>
PUBLIC	??_G?$ScriptRegistrant@VSUR_Orca_AI@@@@UAEPAXI@Z ; ScriptRegistrant<SUR_Orca_AI>::`scalar deleting destructor'
PUBLIC	??0?$ScriptRegistrant@VSUR_Chinook_AI@@@@QAE@PBD0@Z ; ScriptRegistrant<SUR_Chinook_AI>::ScriptRegistrant<SUR_Chinook_AI>
PUBLIC	?Create@?$ScriptRegistrant@VSUR_Chinook_AI@@@@UAEPAVScriptImpClass@@XZ ; ScriptRegistrant<SUR_Chinook_AI>::Create
PUBLIC	??1?$ScriptRegistrant@VSUR_Chinook_AI@@@@UAE@XZ	; ScriptRegistrant<SUR_Chinook_AI>::~ScriptRegistrant<SUR_Chinook_AI>
PUBLIC	??_G?$ScriptRegistrant@VSUR_Chinook_AI@@@@UAEPAXI@Z ; ScriptRegistrant<SUR_Chinook_AI>::`scalar deleting destructor'
PUBLIC	??0?$ScriptRegistrant@VSUR_Dep_Turret@@@@QAE@PBD0@Z ; ScriptRegistrant<SUR_Dep_Turret>::ScriptRegistrant<SUR_Dep_Turret>
PUBLIC	?Create@?$ScriptRegistrant@VSUR_Dep_Turret@@@@UAEPAVScriptImpClass@@XZ ; ScriptRegistrant<SUR_Dep_Turret>::Create
PUBLIC	??1?$ScriptRegistrant@VSUR_Dep_Turret@@@@UAE@XZ	; ScriptRegistrant<SUR_Dep_Turret>::~ScriptRegistrant<SUR_Dep_Turret>
PUBLIC	??_G?$ScriptRegistrant@VSUR_Dep_Turret@@@@UAEPAXI@Z ; ScriptRegistrant<SUR_Dep_Turret>::`scalar deleting destructor'
PUBLIC	??0?$ScriptRegistrant@VSUR_Timed_Death@@@@QAE@PBD0@Z ; ScriptRegistrant<SUR_Timed_Death>::ScriptRegistrant<SUR_Timed_Death>
PUBLIC	?Create@?$ScriptRegistrant@VSUR_Timed_Death@@@@UAEPAVScriptImpClass@@XZ ; ScriptRegistrant<SUR_Timed_Death>::Create
PUBLIC	??1?$ScriptRegistrant@VSUR_Timed_Death@@@@UAE@XZ ; ScriptRegistrant<SUR_Timed_Death>::~ScriptRegistrant<SUR_Timed_Death>
PUBLIC	??_G?$ScriptRegistrant@VSUR_Timed_Death@@@@UAEPAXI@Z ; ScriptRegistrant<SUR_Timed_Death>::`scalar deleting destructor'
PUBLIC	??0?$ScriptRegistrant@VSUR_GrantPowerup_OnEntry@@@@QAE@PBD0@Z ; ScriptRegistrant<SUR_GrantPowerup_OnEntry>::ScriptRegistrant<SUR_GrantPowerup_OnEntry>
PUBLIC	?Create@?$ScriptRegistrant@VSUR_GrantPowerup_OnEntry@@@@UAEPAVScriptImpClass@@XZ ; ScriptRegistrant<SUR_GrantPowerup_OnEntry>::Create
PUBLIC	??1?$ScriptRegistrant@VSUR_GrantPowerup_OnEntry@@@@UAE@XZ ; ScriptRegistrant<SUR_GrantPowerup_OnEntry>::~ScriptRegistrant<SUR_GrantPowerup_OnEntry>
PUBLIC	??_G?$ScriptRegistrant@VSUR_GrantPowerup_OnEntry@@@@UAEPAXI@Z ; ScriptRegistrant<SUR_GrantPowerup_OnEntry>::`scalar deleting destructor'
PUBLIC	??_7GameObjObserverClass@@6B@			; GameObjObserverClass::`vftable'
PUBLIC	??_7ScriptClass@@6B@				; ScriptClass::`vftable'
PUBLIC	??_7ScriptImpClass@@6B@				; ScriptImpClass::`vftable'
PUBLIC	??_7ScriptFactory@@6B@				; ScriptFactory::`vftable'
PUBLIC	??_7SUR_Spawn_Delay@@6B@			; SUR_Spawn_Delay::`vftable'
PUBLIC	??_7SUR_Generator_Zone@@6B@			; SUR_Generator_Zone::`vftable'
PUBLIC	??_7SUR_MiniGen@@6B@				; SUR_MiniGen::`vftable'
PUBLIC	??_7SUR_NHB@@6B@				; SUR_NHB::`vftable'
PUBLIC	??_7SUR_NHB_Soldier@@6B@			; SUR_NHB_Soldier::`vftable'
PUBLIC	??_7SUR_Obj_Destroyer@@6B@			; SUR_Obj_Destroyer::`vftable'
PUBLIC	??_7SUR_New_PT@@6B@				; SUR_New_PT::`vftable'
PUBLIC	??_7SUR_New_PT_Reciever@@6B@			; SUR_New_PT_Reciever::`vftable'
PUBLIC	??_7SUR_APC_AI@@6B@				; SUR_APC_AI::`vftable'
PUBLIC	??_7SUR_Orca_AI@@6B@				; SUR_Orca_AI::`vftable'
PUBLIC	??_7SUR_Chinook_AI@@6B@				; SUR_Chinook_AI::`vftable'
PUBLIC	??_7SUR_Dep_Turret@@6B@				; SUR_Dep_Turret::`vftable'
PUBLIC	??_7SUR_Timed_Death@@6B@			; SUR_Timed_Death::`vftable'
PUBLIC	??_7SUR_GrantPowerup_OnEntry@@6B@		; SUR_GrantPowerup_OnEntry::`vftable'
PUBLIC	??_C@_0M@IIPFJCEO@Spawn_Delay?$AA@		; `string'
PUBLIC	??_C@_09IPFCLICN@Spawn_Pos?$AA@			; `string'
PUBLIC	??_C@_09BEPAMFKP@Spawn_Obj?$AA@			; `string'
PUBLIC	??_C@_07PCHJBECB@Do_Path?$AA@			; `string'
PUBLIC	??_C@_0L@NOEIONE@Spawn_Path?$AA@		; `string'
PUBLIC	??_C@_0M@LGLODOFO@Emitter_Pos?$AA@		; `string'
PUBLIC	??_C@_0L@JCFEAFCJ@Time_Delay?$AA@		; `string'
PUBLIC	??_C@_0BE@DHDDJGEO@Emitter_Preset_Good?$AA@	; `string'
PUBLIC	??_C@_09IGNDJJLI@Explosive?$AA@			; `string'
PUBLIC	??_C@_0M@IPKOBAPD@BlamoKiller?$AA@		; `string'
PUBLIC	??_C@_0BE@FAAIECIN@Supply_Truck_Preset?$AA@	; `string'
PUBLIC	??_C@_07CIHEJGNA@GDI_Gen?$AA@			; `string'
PUBLIC	??_C@_06JMPBJGL@Taunt1?$AA@			; `string'
PUBLIC	??_C@_06CCOCEKKI@Taunt2?$AA@			; `string'
PUBLIC	??_C@_0N@MEOOIIPD@Orca_Warning?$AA@		; `string'
PUBLIC	??_C@_0O@BHFGBELH@Strike_Preset?$AA@		; `string'
PUBLIC	??_C@_0BH@KNCKPPOI@Orca?5Strike?5Controller?$AA@ ; `string'
PUBLIC	??_C@_07EBLDPGHF@Nod_Gen?$AA@			; `string'
PUBLIC	??_C@_06MPKPIODH@NHB_ID?$AA@			; `string'
PUBLIC	??_C@_0O@CECAAJLK@VPad_Path_End?$AA@		; `string'
PUBLIC	??_C@_0BA@LDNBEEON@VPad_Path_Start?$AA@		; `string'
PUBLIC	??_C@_09BBICMIP@VPad_Path?$AA@			; `string'
PUBLIC	??_C@_08GDAMKODC@?$CFd?0?$CFd?0?$CFd?$AA@	; `string'
PUBLIC	??_C@_0BI@DOGKPAOM@PDS_Test_Follow_Waypath?$AA@	; `string'
PUBLIC	??_C@_0N@BHAKOLCG@HeliPath_End?$AA@		; `string'
PUBLIC	??_C@_0P@CACBDBIF@HeliPath_Start?$AA@		; `string'
PUBLIC	??_C@_08MCAPOCBM@HeliPath?$AA@			; `string'
PUBLIC	??_C@_0BA@GDAPPOGH@NodGen_Path_End?$AA@		; `string'
PUBLIC	??_C@_0BC@KEJONPCP@NodGen_Path_Start?$AA@	; `string'
PUBLIC	??_C@_0M@HKEKIIP@NodGen_Path?$AA@		; `string'
PUBLIC	??_C@_0BA@JCNLGAFK@GDIGen_Path_End?$AA@		; `string'
PUBLIC	??_C@_0BC@NJMBNIAG@GDIGen_Path_Start?$AA@	; `string'
PUBLIC	??_C@_0M@IFBDBCON@GDIGen_Path?$AA@		; `string'
PUBLIC	??_C@_09MMNKHPCG@NodGen_ID?$AA@			; `string'
PUBLIC	??_C@_09FCBIDPBF@GDIGen_ID?$AA@			; `string'
PUBLIC	??_C@_0BM@OMFOHCFP@CnC_Weapon_MineTimed_Player?$AA@ ; `string'
PUBLIC	??_C@_02OLOABKKD@ID?$AA@			; `string'
PUBLIC	??_C@_07BEIHKDLJ@Message?$AA@			; `string'
PUBLIC	??_C@_09PIPGAOHA@Marker_ID?$AA@			; `string'
PUBLIC	??_C@_05KABNCBHK@?$CFd?0?$CFd?$AA@		; `string'
PUBLIC	??_C@_0L@NMEBDFKG@SUR_New_PT?$AA@		; `string'
PUBLIC	??_C@_0M@KBNHOJJA@Preset_Name?$AA@		; `string'
PUBLIC	??_C@_0BB@JLAIOFF@Preset_To_Create?$AA@		; `string'
PUBLIC	??_C@_08LFMFPFKM@0?0300?010?$AA@		; `string'
PUBLIC	??_C@_0BB@LNLDLMKA@JFW_Base_Defense?$AA@	; `string'
PUBLIC	??_C@_0O@FABAOFMP@Attack_Offset?$AA@		; `string'
PUBLIC	??_C@_0BA@OAAEJLHO@Position_Offset?$AA@		; `string'
PUBLIC	??_C@_0BB@NHJNEILC@Invisible_Object?$AA@	; `string'
PUBLIC	??_C@_0BC@FPEDNKGK@MinAttackDistance?$AA@	; `string'
PUBLIC	??_C@_0BC@MOFMCIO@MaxAttackDistance?$AA@	; `string'
PUBLIC	??_C@_0M@JLBMIOIA@AttackTimer?$AA@		; `string'
PUBLIC	??_C@_05ENDOMFAI@Delay?$AA@			; `string'
PUBLIC	??_C@_0M@CALDOHKN@Damage_Type?$AA@		; `string'
PUBLIC	??_C@_0O@DDNFGLDM@Damage_Amount?$AA@		; `string'
PUBLIC	??_C@_06CKLLCHIK@Preset?$AA@			; `string'
PUBLIC	??_C@_03EBKHDLCO@Any?$AA@			; `string'
PUBLIC	??_C@_07EJMDJBEC@Powerup?$AA@			; `string'
PUBLIC	??_7?$ScriptRegistrant@VSUR_Spawn_Delay@@@@6B@	; ScriptRegistrant<SUR_Spawn_Delay>::`vftable'
PUBLIC	?SUR_Spawn_Delay_Registrant@@3V?$ScriptRegistrant@VSUR_Spawn_Delay@@@@A ; SUR_Spawn_Delay_Registrant
PUBLIC	??_C@_0FA@DHAIDPHO@Spawn_Delay?3float?0Spawn_Pos?3vect@ ; `string'
PUBLIC	??_C@_0BA@KLILNECP@SUR_Spawn_Delay?$AA@		; `string'
PUBLIC	??_7?$ScriptRegistrant@VSUR_Generator_Zone@@@@6B@ ; ScriptRegistrant<SUR_Generator_Zone>::`vftable'
PUBLIC	?SUR_Generator_Zone_Registrant@@3V?$ScriptRegistrant@VSUR_Generator_Zone@@@@A ; SUR_Generator_Zone_Registrant
PUBLIC	??_C@_0MA@PHLCLBBJ@Time_Delay?3float?0Supply_Truck_Pr@ ; `string'
PUBLIC	??_C@_0BD@JMCCCHCE@SUR_Generator_Zone?$AA@	; `string'
PUBLIC	??_7?$ScriptRegistrant@VSUR_MiniGen@@@@6B@	; ScriptRegistrant<SUR_MiniGen>::`vftable'
PUBLIC	?SUR_MiniGen_Registrant@@3V?$ScriptRegistrant@VSUR_MiniGen@@@@A ; SUR_MiniGen_Registrant
PUBLIC	??_C@_0FM@NAIMEOBA@Time_Delay?3float?0Turret_ID_One?3i@ ; `string'
PUBLIC	??_C@_0M@GPOHJCKC@SUR_MiniGen?$AA@		; `string'
PUBLIC	??_7?$ScriptRegistrant@VSUR_NHB@@@@6B@		; ScriptRegistrant<SUR_NHB>::`vftable'
PUBLIC	?SUR_NHB_Registrant@@3V?$ScriptRegistrant@VSUR_NHB@@@@A ; SUR_NHB_Registrant
PUBLIC	??_C@_0FD@DHDDJGN@GDI_Gen?3int?0Nod_Gen?3int?0Strike_P@ ; `string'
PUBLIC	??_C@_07MJBDNLE@SUR_NHB?$AA@			; `string'
PUBLIC	??_7?$ScriptRegistrant@VSUR_NHB_Soldier@@@@6B@	; ScriptRegistrant<SUR_NHB_Soldier>::`vftable'
PUBLIC	?SUR_NHB_Soldier_Registrant@@3V?$ScriptRegistrant@VSUR_NHB_Soldier@@@@A ; SUR_NHB_Soldier_Registrant
PUBLIC	??_C@_0BAA@ECKFGJNH@NHB_ID?3int?0VPad_Path?3int?0VPad_Pa@ ; `string'
PUBLIC	??_C@_0BA@IFMBMGDM@SUR_NHB_Soldier?$AA@		; `string'
PUBLIC	??_7?$ScriptRegistrant@VSUR_Obj_Destroyer@@@@6B@ ; ScriptRegistrant<SUR_Obj_Destroyer>::`vftable'
PUBLIC	?SUR_Obj_Destroyer_Registrant@@3V?$ScriptRegistrant@VSUR_Obj_Destroyer@@@@A ; SUR_Obj_Destroyer_Registrant
PUBLIC	??_C@_06IDGMBKCH@ID?3int?$AA@			; `string'
PUBLIC	??_C@_0BC@DOELCKBJ@SUR_Obj_Destroyer?$AA@	; `string'
PUBLIC	??_7?$ScriptRegistrant@VSUR_New_PT@@@@6B@	; ScriptRegistrant<SUR_New_PT>::`vftable'
PUBLIC	?SUR_New_PT_Registrant@@3V?$ScriptRegistrant@VSUR_New_PT@@@@A ; SUR_New_PT_Registrant
PUBLIC	??_C@_0BK@IMCLBBPM@Marker_ID?3int?0Message?3int?$AA@ ; `string'
PUBLIC	??_7?$ScriptRegistrant@VSUR_New_PT_Reciever@@@@6B@ ; ScriptRegistrant<SUR_New_PT_Reciever>::`vftable'
PUBLIC	?SUR_New_PT_Reciever_Registrant@@3V?$ScriptRegistrant@VSUR_New_PT_Reciever@@@@A ; SUR_New_PT_Reciever_Registrant
PUBLIC	??_C@_0BP@HHNMLCDH@Preset_Name?3string?0Message?3int?$AA@ ; `string'
PUBLIC	??_C@_0BE@IIJFADCE@SUR_New_PT_Reciever?$AA@	; `string'
PUBLIC	??_7?$ScriptRegistrant@VSUR_APC_AI@@@@6B@	; ScriptRegistrant<SUR_APC_AI>::`vftable'
PUBLIC	?SUR_APC_AI_Registrant@@3V?$ScriptRegistrant@VSUR_APC_AI@@@@A ; SUR_APC_AI_Registrant
PUBLIC	??_C@_0CD@PNNDOGLF@Preset_To_Create?3string?0NHB_ID?3i@ ; `string'
PUBLIC	??_C@_0L@MIJHGIEM@SUR_APC_AI?$AA@		; `string'
PUBLIC	??_7?$ScriptRegistrant@VSUR_Orca_AI@@@@6B@	; ScriptRegistrant<SUR_Orca_AI>::`vftable'
PUBLIC	?SUR_Orca_AI_Registrant@@3V?$ScriptRegistrant@VSUR_Orca_AI@@@@A ; SUR_Orca_AI_Registrant
PUBLIC	??_C@_0CB@GPNICFGL@NHB_ID?3int?0Attack_Offset?3vector3@ ; `string'
PUBLIC	??_C@_0M@LENJCGNN@SUR_Orca_AI?$AA@		; `string'
PUBLIC	??_7?$ScriptRegistrant@VSUR_Chinook_AI@@@@6B@	; ScriptRegistrant<SUR_Chinook_AI>::`vftable'
PUBLIC	?SUR_Chinook_AI_Registrant@@3V?$ScriptRegistrant@VSUR_Chinook_AI@@@@A ; SUR_Chinook_AI_Registrant
PUBLIC	??_C@_0CL@JNOFFELC@Preset_Name?3string?0Position_Offs@ ; `string'
PUBLIC	??_C@_0P@CCFBOFGI@SUR_Chinook_AI?$AA@		; `string'
PUBLIC	??_7?$ScriptRegistrant@VSUR_Dep_Turret@@@@6B@	; ScriptRegistrant<SUR_Dep_Turret>::`vftable'
PUBLIC	?SUR_Dep_Turret_Registrant@@3V?$ScriptRegistrant@VSUR_Dep_Turret@@@@A ; SUR_Dep_Turret_Registrant
PUBLIC	??_C@_0EP@COIIGKKP@MinAttackDistance?$DN0?40?3float?0MaxA@ ; `string'
PUBLIC	??_C@_0P@NFLNCIFF@SUR_Dep_Turret?$AA@		; `string'
PUBLIC	??_7?$ScriptRegistrant@VSUR_Timed_Death@@@@6B@	; ScriptRegistrant<SUR_Timed_Death>::`vftable'
PUBLIC	?SUR_Timed_Death_Registrant@@3V?$ScriptRegistrant@VSUR_Timed_Death@@@@A ; SUR_Timed_Death_Registrant
PUBLIC	??_C@_0DD@BINEMFNP@Delay?3float?0Damage_Amount?3float?0@ ; `string'
PUBLIC	??_C@_0BA@LIDMMLAJ@SUR_Timed_Death?$AA@		; `string'
PUBLIC	??_7?$ScriptRegistrant@VSUR_GrantPowerup_OnEntry@@@@6B@ ; ScriptRegistrant<SUR_GrantPowerup_OnEntry>::`vftable'
PUBLIC	?SUR_GrantPowerup_OnEntry_Registrant@@3V?$ScriptRegistrant@VSUR_GrantPowerup_OnEntry@@@@A ; SUR_GrantPowerup_OnEntry_Registrant
PUBLIC	??_C@_0BN@OELIADGD@Preset?3string?0Powerup?3string?$AA@ ; `string'
PUBLIC	??_C@_0BJ@KLABFPHM@SUR_GrantPowerup_OnEntry?$AA@ ; `string'
PUBLIC	??_C@_0DA@GODKEOJD@ScriptRegistrant?$DMclass?5SUR_Spawn@ ; `string'
PUBLIC	??_C@_0DD@KMKBFFOF@x?3?2github?2renegade?2dragonade_rxd@ ; `string'
PUBLIC	??_C@_1GG@OGNLNBPD@?$AAx?$AA?3?$AA?2?$AAg?$AAi?$AAt?$AAh?$AAu?$AAb?$AA?2?$AAr?$AAe?$AAn?$AAe?$AAg?$AAa?$AAd?$AAe?$AA?2?$AAd?$AAr?$AAa?$AAg?$AAo?$AAn?$AAa?$AAd?$AAe?$AA_?$AAr?$AAx?$AAd@ ; `string'
PUBLIC	??_C@_1M@HLGKFCJM@?$AAf?$AAa?$AAl?$AAs?$AAe?$AA?$AA@ ; `string'
PUBLIC	??_C@_0DD@IBJAKMHL@ScriptRegistrant?$DMclass?5SUR_Gener@ ; `string'
PUBLIC	??_C@_0CM@LLEDJECK@ScriptRegistrant?$DMclass?5SUR_MiniG@ ; `string'
PUBLIC	??_C@_0CI@LNPJCONE@ScriptRegistrant?$DMclass?5SUR_NHB?$DO?3@ ; `string'
PUBLIC	??_C@_0DA@BIDEEIAA@ScriptRegistrant?$DMclass?5SUR_NHB_S@ ; `string'
PUBLIC	??_C@_0DC@KDOJNHEC@ScriptRegistrant?$DMclass?5SUR_Obj_D@ ; `string'
PUBLIC	??_C@_0CL@KBJCMIPP@ScriptRegistrant?$DMclass?5SUR_New_P@ ; `string'
PUBLIC	??_C@_0DE@KNMMJHAP@ScriptRegistrant?$DMclass?5SUR_New_P@ ; `string'
PUBLIC	??_C@_0CL@JAPNFDGP@ScriptRegistrant?$DMclass?5SUR_APC_A@ ; `string'
PUBLIC	??_C@_0CM@EGEAHCJA@ScriptRegistrant?$DMclass?5SUR_Orca_@ ; `string'
PUBLIC	??_C@_0CP@KBBIOMO@ScriptRegistrant?$DMclass?5SUR_Chino@ ; `string'
PUBLIC	??_C@_0CP@PIFLBOGP@ScriptRegistrant?$DMclass?5SUR_Dep_T@ ; `string'
PUBLIC	??_C@_0DA@FKNKJHCG@ScriptRegistrant?$DMclass?5SUR_Timed@ ; `string'
PUBLIC	??_C@_0DJ@EEEDKFIH@ScriptRegistrant?$DMclass?5SUR_Grant@ ; `string'
PUBLIC	??_R4ScriptFactory@@6B@				; ScriptFactory::`RTTI Complete Object Locator'
PUBLIC	??_R0?AVScriptFactory@@@8			; ScriptFactory `RTTI Type Descriptor'
PUBLIC	??_R3ScriptFactory@@8				; ScriptFactory::`RTTI Class Hierarchy Descriptor'
PUBLIC	??_R2ScriptFactory@@8				; ScriptFactory::`RTTI Base Class Array'
PUBLIC	??_R1A@?0A@EA@ScriptFactory@@8			; ScriptFactory::`RTTI Base Class Descriptor at (0,-1,0,64)'
PUBLIC	??_R4ScriptClass@@6B@				; ScriptClass::`RTTI Complete Object Locator'
PUBLIC	??_R0?AVScriptClass@@@8				; ScriptClass `RTTI Type Descriptor'
PUBLIC	??_R3ScriptClass@@8				; ScriptClass::`RTTI Class Hierarchy Descriptor'
PUBLIC	??_R2ScriptClass@@8				; ScriptClass::`RTTI Base Class Array'
PUBLIC	??_R1A@?0A@EA@ScriptClass@@8			; ScriptClass::`RTTI Base Class Descriptor at (0,-1,0,64)'
PUBLIC	??_R1A@?0A@EA@GameObjObserverClass@@8		; GameObjObserverClass::`RTTI Base Class Descriptor at (0,-1,0,64)'
PUBLIC	??_R0?AVGameObjObserverClass@@@8		; GameObjObserverClass `RTTI Type Descriptor'
PUBLIC	??_R3GameObjObserverClass@@8			; GameObjObserverClass::`RTTI Class Hierarchy Descriptor'
PUBLIC	??_R2GameObjObserverClass@@8			; GameObjObserverClass::`RTTI Base Class Array'
PUBLIC	??_R4GameObjObserverClass@@6B@			; GameObjObserverClass::`RTTI Complete Object Locator'
PUBLIC	??_R4ScriptImpClass@@6B@			; ScriptImpClass::`RTTI Complete Object Locator'
PUBLIC	??_R0?AVScriptImpClass@@@8			; ScriptImpClass `RTTI Type Descriptor'
PUBLIC	??_R3ScriptImpClass@@8				; ScriptImpClass::`RTTI Class Hierarchy Descriptor'
PUBLIC	??_R2ScriptImpClass@@8				; ScriptImpClass::`RTTI Base Class Array'
PUBLIC	??_R1A@?0A@EA@ScriptImpClass@@8			; ScriptImpClass::`RTTI Base Class Descriptor at (0,-1,0,64)'
PUBLIC	??_R4SUR_Spawn_Delay@@6B@			; SUR_Spawn_Delay::`RTTI Complete Object Locator'
PUBLIC	??_R0?AVSUR_Spawn_Delay@@@8			; SUR_Spawn_Delay `RTTI Type Descriptor'
PUBLIC	??_R3SUR_Spawn_Delay@@8				; SUR_Spawn_Delay::`RTTI Class Hierarchy Descriptor'
PUBLIC	??_R2SUR_Spawn_Delay@@8				; SUR_Spawn_Delay::`RTTI Base Class Array'
PUBLIC	??_R1A@?0A@EA@SUR_Spawn_Delay@@8		; SUR_Spawn_Delay::`RTTI Base Class Descriptor at (0,-1,0,64)'
PUBLIC	??_R4SUR_Generator_Zone@@6B@			; SUR_Generator_Zone::`RTTI Complete Object Locator'
PUBLIC	??_R0?AVSUR_Generator_Zone@@@8			; SUR_Generator_Zone `RTTI Type Descriptor'
PUBLIC	??_R3SUR_Generator_Zone@@8			; SUR_Generator_Zone::`RTTI Class Hierarchy Descriptor'
PUBLIC	??_R2SUR_Generator_Zone@@8			; SUR_Generator_Zone::`RTTI Base Class Array'
PUBLIC	??_R1A@?0A@EA@SUR_Generator_Zone@@8		; SUR_Generator_Zone::`RTTI Base Class Descriptor at (0,-1,0,64)'
PUBLIC	??_R4SUR_MiniGen@@6B@				; SUR_MiniGen::`RTTI Complete Object Locator'
PUBLIC	??_R0?AVSUR_MiniGen@@@8				; SUR_MiniGen `RTTI Type Descriptor'
PUBLIC	??_R3SUR_MiniGen@@8				; SUR_MiniGen::`RTTI Class Hierarchy Descriptor'
PUBLIC	??_R2SUR_MiniGen@@8				; SUR_MiniGen::`RTTI Base Class Array'
PUBLIC	??_R1A@?0A@EA@SUR_MiniGen@@8			; SUR_MiniGen::`RTTI Base Class Descriptor at (0,-1,0,64)'
PUBLIC	??_R4SUR_NHB@@6B@				; SUR_NHB::`RTTI Complete Object Locator'
PUBLIC	??_R0?AVSUR_NHB@@@8				; SUR_NHB `RTTI Type Descriptor'
PUBLIC	??_R3SUR_NHB@@8					; SUR_NHB::`RTTI Class Hierarchy Descriptor'
PUBLIC	??_R2SUR_NHB@@8					; SUR_NHB::`RTTI Base Class Array'
PUBLIC	??_R1A@?0A@EA@SUR_NHB@@8			; SUR_NHB::`RTTI Base Class Descriptor at (0,-1,0,64)'
PUBLIC	??_R4SUR_NHB_Soldier@@6B@			; SUR_NHB_Soldier::`RTTI Complete Object Locator'
PUBLIC	??_R0?AVSUR_NHB_Soldier@@@8			; SUR_NHB_Soldier `RTTI Type Descriptor'
PUBLIC	??_R3SUR_NHB_Soldier@@8				; SUR_NHB_Soldier::`RTTI Class Hierarchy Descriptor'
PUBLIC	??_R2SUR_NHB_Soldier@@8				; SUR_NHB_Soldier::`RTTI Base Class Array'
PUBLIC	??_R1A@?0A@EA@SUR_NHB_Soldier@@8		; SUR_NHB_Soldier::`RTTI Base Class Descriptor at (0,-1,0,64)'
PUBLIC	??_R4SUR_Obj_Destroyer@@6B@			; SUR_Obj_Destroyer::`RTTI Complete Object Locator'
PUBLIC	??_R0?AVSUR_Obj_Destroyer@@@8			; SUR_Obj_Destroyer `RTTI Type Descriptor'
PUBLIC	??_R3SUR_Obj_Destroyer@@8			; SUR_Obj_Destroyer::`RTTI Class Hierarchy Descriptor'
PUBLIC	??_R2SUR_Obj_Destroyer@@8			; SUR_Obj_Destroyer::`RTTI Base Class Array'
PUBLIC	??_R1A@?0A@EA@SUR_Obj_Destroyer@@8		; SUR_Obj_Destroyer::`RTTI Base Class Descriptor at (0,-1,0,64)'
PUBLIC	??_R4SUR_New_PT@@6B@				; SUR_New_PT::`RTTI Complete Object Locator'
PUBLIC	??_R0?AVSUR_New_PT@@@8				; SUR_New_PT `RTTI Type Descriptor'
PUBLIC	??_R3SUR_New_PT@@8				; SUR_New_PT::`RTTI Class Hierarchy Descriptor'
PUBLIC	??_R2SUR_New_PT@@8				; SUR_New_PT::`RTTI Base Class Array'
PUBLIC	??_R1A@?0A@EA@SUR_New_PT@@8			; SUR_New_PT::`RTTI Base Class Descriptor at (0,-1,0,64)'
PUBLIC	??_R4SUR_New_PT_Reciever@@6B@			; SUR_New_PT_Reciever::`RTTI Complete Object Locator'
PUBLIC	??_R0?AVSUR_New_PT_Reciever@@@8			; SUR_New_PT_Reciever `RTTI Type Descriptor'
PUBLIC	??_R3SUR_New_PT_Reciever@@8			; SUR_New_PT_Reciever::`RTTI Class Hierarchy Descriptor'
PUBLIC	??_R2SUR_New_PT_Reciever@@8			; SUR_New_PT_Reciever::`RTTI Base Class Array'
PUBLIC	??_R1A@?0A@EA@SUR_New_PT_Reciever@@8		; SUR_New_PT_Reciever::`RTTI Base Class Descriptor at (0,-1,0,64)'
PUBLIC	??_R4SUR_APC_AI@@6B@				; SUR_APC_AI::`RTTI Complete Object Locator'
PUBLIC	??_R0?AVSUR_APC_AI@@@8				; SUR_APC_AI `RTTI Type Descriptor'
PUBLIC	??_R3SUR_APC_AI@@8				; SUR_APC_AI::`RTTI Class Hierarchy Descriptor'
PUBLIC	??_R2SUR_APC_AI@@8				; SUR_APC_AI::`RTTI Base Class Array'
PUBLIC	??_R1A@?0A@EA@SUR_APC_AI@@8			; SUR_APC_AI::`RTTI Base Class Descriptor at (0,-1,0,64)'
PUBLIC	??_R4SUR_Orca_AI@@6B@				; SUR_Orca_AI::`RTTI Complete Object Locator'
PUBLIC	??_R0?AVSUR_Orca_AI@@@8				; SUR_Orca_AI `RTTI Type Descriptor'
PUBLIC	??_R3SUR_Orca_AI@@8				; SUR_Orca_AI::`RTTI Class Hierarchy Descriptor'
PUBLIC	??_R2SUR_Orca_AI@@8				; SUR_Orca_AI::`RTTI Base Class Array'
PUBLIC	??_R1A@?0A@EA@SUR_Orca_AI@@8			; SUR_Orca_AI::`RTTI Base Class Descriptor at (0,-1,0,64)'
PUBLIC	??_R4SUR_Chinook_AI@@6B@			; SUR_Chinook_AI::`RTTI Complete Object Locator'
PUBLIC	??_R0?AVSUR_Chinook_AI@@@8			; SUR_Chinook_AI `RTTI Type Descriptor'
PUBLIC	??_R3SUR_Chinook_AI@@8				; SUR_Chinook_AI::`RTTI Class Hierarchy Descriptor'
PUBLIC	??_R2SUR_Chinook_AI@@8				; SUR_Chinook_AI::`RTTI Base Class Array'
PUBLIC	??_R1A@?0A@EA@SUR_Chinook_AI@@8			; SUR_Chinook_AI::`RTTI Base Class Descriptor at (0,-1,0,64)'
PUBLIC	??_R4SUR_Dep_Turret@@6B@			; SUR_Dep_Turret::`RTTI Complete Object Locator'
PUBLIC	??_R0?AVSUR_Dep_Turret@@@8			; SUR_Dep_Turret `RTTI Type Descriptor'
PUBLIC	??_R3SUR_Dep_Turret@@8				; SUR_Dep_Turret::`RTTI Class Hierarchy Descriptor'
PUBLIC	??_R2SUR_Dep_Turret@@8				; SUR_Dep_Turret::`RTTI Base Class Array'
PUBLIC	??_R1A@?0A@EA@SUR_Dep_Turret@@8			; SUR_Dep_Turret::`RTTI Base Class Descriptor at (0,-1,0,64)'
PUBLIC	??_R4SUR_Timed_Death@@6B@			; SUR_Timed_Death::`RTTI Complete Object Locator'
PUBLIC	??_R0?AVSUR_Timed_Death@@@8			; SUR_Timed_Death `RTTI Type Descriptor'
PUBLIC	??_R3SUR_Timed_Death@@8				; SUR_Timed_Death::`RTTI Class Hierarchy Descriptor'
PUBLIC	??_R2SUR_Timed_Death@@8				; SUR_Timed_Death::`RTTI Base Class Array'
PUBLIC	??_R1A@?0A@EA@SUR_Timed_Death@@8		; SUR_Timed_Death::`RTTI Base Class Descriptor at (0,-1,0,64)'
PUBLIC	??_R4SUR_GrantPowerup_OnEntry@@6B@		; SUR_GrantPowerup_OnEntry::`RTTI Complete Object Locator'
PUBLIC	??_R0?AVSUR_GrantPowerup_OnEntry@@@8		; SUR_GrantPowerup_OnEntry `RTTI Type Descriptor'
PUBLIC	??_R3SUR_GrantPowerup_OnEntry@@8		; SUR_GrantPowerup_OnEntry::`RTTI Class Hierarchy Descriptor'
PUBLIC	??_R2SUR_GrantPowerup_OnEntry@@8		; SUR_GrantPowerup_OnEntry::`RTTI Base Class Array'
PUBLIC	??_R1A@?0A@EA@SUR_GrantPowerup_OnEntry@@8	; SUR_GrantPowerup_OnEntry::`RTTI Base Class Descriptor at (0,-1,0,64)'
PUBLIC	??_R4?$ScriptRegistrant@VSUR_Spawn_Delay@@@@6B@	; ScriptRegistrant<SUR_Spawn_Delay>::`RTTI Complete Object Locator'
PUBLIC	??_R0?AV?$ScriptRegistrant@VSUR_Spawn_Delay@@@@@8 ; ScriptRegistrant<SUR_Spawn_Delay> `RTTI Type Descriptor'
PUBLIC	??_R3?$ScriptRegistrant@VSUR_Spawn_Delay@@@@8	; ScriptRegistrant<SUR_Spawn_Delay>::`RTTI Class Hierarchy Descriptor'
PUBLIC	??_R2?$ScriptRegistrant@VSUR_Spawn_Delay@@@@8	; ScriptRegistrant<SUR_Spawn_Delay>::`RTTI Base Class Array'
PUBLIC	??_R1A@?0A@EA@?$ScriptRegistrant@VSUR_Spawn_Delay@@@@8 ; ScriptRegistrant<SUR_Spawn_Delay>::`RTTI Base Class Descriptor at (0,-1,0,64)'
PUBLIC	??_R4?$ScriptRegistrant@VSUR_Generator_Zone@@@@6B@ ; ScriptRegistrant<SUR_Generator_Zone>::`RTTI Complete Object Locator'
PUBLIC	??_R0?AV?$ScriptRegistrant@VSUR_Generator_Zone@@@@@8 ; ScriptRegistrant<SUR_Generator_Zone> `RTTI Type Descriptor'
PUBLIC	??_R3?$ScriptRegistrant@VSUR_Generator_Zone@@@@8 ; ScriptRegistrant<SUR_Generator_Zone>::`RTTI Class Hierarchy Descriptor'
PUBLIC	??_R2?$ScriptRegistrant@VSUR_Generator_Zone@@@@8 ; ScriptRegistrant<SUR_Generator_Zone>::`RTTI Base Class Array'
PUBLIC	??_R1A@?0A@EA@?$ScriptRegistrant@VSUR_Generator_Zone@@@@8 ; ScriptRegistrant<SUR_Generator_Zone>::`RTTI Base Class Descriptor at (0,-1,0,64)'
PUBLIC	??_R4?$ScriptRegistrant@VSUR_MiniGen@@@@6B@	; ScriptRegistrant<SUR_MiniGen>::`RTTI Complete Object Locator'
PUBLIC	??_R0?AV?$ScriptRegistrant@VSUR_MiniGen@@@@@8	; ScriptRegistrant<SUR_MiniGen> `RTTI Type Descriptor'
PUBLIC	??_R3?$ScriptRegistrant@VSUR_MiniGen@@@@8	; ScriptRegistrant<SUR_MiniGen>::`RTTI Class Hierarchy Descriptor'
PUBLIC	??_R2?$ScriptRegistrant@VSUR_MiniGen@@@@8	; ScriptRegistrant<SUR_MiniGen>::`RTTI Base Class Array'
PUBLIC	??_R1A@?0A@EA@?$ScriptRegistrant@VSUR_MiniGen@@@@8 ; ScriptRegistrant<SUR_MiniGen>::`RTTI Base Class Descriptor at (0,-1,0,64)'
PUBLIC	??_R4?$ScriptRegistrant@VSUR_NHB@@@@6B@		; ScriptRegistrant<SUR_NHB>::`RTTI Complete Object Locator'
PUBLIC	??_R0?AV?$ScriptRegistrant@VSUR_NHB@@@@@8	; ScriptRegistrant<SUR_NHB> `RTTI Type Descriptor'
PUBLIC	??_R3?$ScriptRegistrant@VSUR_NHB@@@@8		; ScriptRegistrant<SUR_NHB>::`RTTI Class Hierarchy Descriptor'
PUBLIC	??_R2?$ScriptRegistrant@VSUR_NHB@@@@8		; ScriptRegistrant<SUR_NHB>::`RTTI Base Class Array'
PUBLIC	??_R1A@?0A@EA@?$ScriptRegistrant@VSUR_NHB@@@@8	; ScriptRegistrant<SUR_NHB>::`RTTI Base Class Descriptor at (0,-1,0,64)'
PUBLIC	??_R4?$ScriptRegistrant@VSUR_NHB_Soldier@@@@6B@	; ScriptRegistrant<SUR_NHB_Soldier>::`RTTI Complete Object Locator'
PUBLIC	??_R0?AV?$ScriptRegistrant@VSUR_NHB_Soldier@@@@@8 ; ScriptRegistrant<SUR_NHB_Soldier> `RTTI Type Descriptor'
PUBLIC	??_R3?$ScriptRegistrant@VSUR_NHB_Soldier@@@@8	; ScriptRegistrant<SUR_NHB_Soldier>::`RTTI Class Hierarchy Descriptor'
PUBLIC	??_R2?$ScriptRegistrant@VSUR_NHB_Soldier@@@@8	; ScriptRegistrant<SUR_NHB_Soldier>::`RTTI Base Class Array'
PUBLIC	??_R1A@?0A@EA@?$ScriptRegistrant@VSUR_NHB_Soldier@@@@8 ; ScriptRegistrant<SUR_NHB_Soldier>::`RTTI Base Class Descriptor at (0,-1,0,64)'
PUBLIC	??_R4?$ScriptRegistrant@VSUR_Obj_Destroyer@@@@6B@ ; ScriptRegistrant<SUR_Obj_Destroyer>::`RTTI Complete Object Locator'
PUBLIC	??_R0?AV?$ScriptRegistrant@VSUR_Obj_Destroyer@@@@@8 ; ScriptRegistrant<SUR_Obj_Destroyer> `RTTI Type Descriptor'
PUBLIC	??_R3?$ScriptRegistrant@VSUR_Obj_Destroyer@@@@8	; ScriptRegistrant<SUR_Obj_Destroyer>::`RTTI Class Hierarchy Descriptor'
PUBLIC	??_R2?$ScriptRegistrant@VSUR_Obj_Destroyer@@@@8	; ScriptRegistrant<SUR_Obj_Destroyer>::`RTTI Base Class Array'
PUBLIC	??_R1A@?0A@EA@?$ScriptRegistrant@VSUR_Obj_Destroyer@@@@8 ; ScriptRegistrant<SUR_Obj_Destroyer>::`RTTI Base Class Descriptor at (0,-1,0,64)'
PUBLIC	??_R4?$ScriptRegistrant@VSUR_New_PT@@@@6B@	; ScriptRegistrant<SUR_New_PT>::`RTTI Complete Object Locator'
PUBLIC	??_R0?AV?$ScriptRegistrant@VSUR_New_PT@@@@@8	; ScriptRegistrant<SUR_New_PT> `RTTI Type Descriptor'
PUBLIC	??_R3?$ScriptRegistrant@VSUR_New_PT@@@@8	; ScriptRegistrant<SUR_New_PT>::`RTTI Class Hierarchy Descriptor'
PUBLIC	??_R2?$ScriptRegistrant@VSUR_New_PT@@@@8	; ScriptRegistrant<SUR_New_PT>::`RTTI Base Class Array'
PUBLIC	??_R1A@?0A@EA@?$ScriptRegistrant@VSUR_New_PT@@@@8 ; ScriptRegistrant<SUR_New_PT>::`RTTI Base Class Descriptor at (0,-1,0,64)'
PUBLIC	??_R4?$ScriptRegistrant@VSUR_New_PT_Reciever@@@@6B@ ; ScriptRegistrant<SUR_New_PT_Reciever>::`RTTI Complete Object Locator'
PUBLIC	??_R0?AV?$ScriptRegistrant@VSUR_New_PT_Reciever@@@@@8 ; ScriptRegistrant<SUR_New_PT_Reciever> `RTTI Type Descriptor'
PUBLIC	??_R3?$ScriptRegistrant@VSUR_New_PT_Reciever@@@@8 ; ScriptRegistrant<SUR_New_PT_Reciever>::`RTTI Class Hierarchy Descriptor'
PUBLIC	??_R2?$ScriptRegistrant@VSUR_New_PT_Reciever@@@@8 ; ScriptRegistrant<SUR_New_PT_Reciever>::`RTTI Base Class Array'
PUBLIC	??_R1A@?0A@EA@?$ScriptRegistrant@VSUR_New_PT_Reciever@@@@8 ; ScriptRegistrant<SUR_New_PT_Reciever>::`RTTI Base Class Descriptor at (0,-1,0,64)'
PUBLIC	??_R4?$ScriptRegistrant@VSUR_APC_AI@@@@6B@	; ScriptRegistrant<SUR_APC_AI>::`RTTI Complete Object Locator'
PUBLIC	??_R0?AV?$ScriptRegistrant@VSUR_APC_AI@@@@@8	; ScriptRegistrant<SUR_APC_AI> `RTTI Type Descriptor'
PUBLIC	??_R3?$ScriptRegistrant@VSUR_APC_AI@@@@8	; ScriptRegistrant<SUR_APC_AI>::`RTTI Class Hierarchy Descriptor'
PUBLIC	??_R2?$ScriptRegistrant@VSUR_APC_AI@@@@8	; ScriptRegistrant<SUR_APC_AI>::`RTTI Base Class Array'
PUBLIC	??_R1A@?0A@EA@?$ScriptRegistrant@VSUR_APC_AI@@@@8 ; ScriptRegistrant<SUR_APC_AI>::`RTTI Base Class Descriptor at (0,-1,0,64)'
PUBLIC	??_R4?$ScriptRegistrant@VSUR_Orca_AI@@@@6B@	; ScriptRegistrant<SUR_Orca_AI>::`RTTI Complete Object Locator'
PUBLIC	??_R0?AV?$ScriptRegistrant@VSUR_Orca_AI@@@@@8	; ScriptRegistrant<SUR_Orca_AI> `RTTI Type Descriptor'
PUBLIC	??_R3?$ScriptRegistrant@VSUR_Orca_AI@@@@8	; ScriptRegistrant<SUR_Orca_AI>::`RTTI Class Hierarchy Descriptor'
PUBLIC	??_R2?$ScriptRegistrant@VSUR_Orca_AI@@@@8	; ScriptRegistrant<SUR_Orca_AI>::`RTTI Base Class Array'
PUBLIC	??_R1A@?0A@EA@?$ScriptRegistrant@VSUR_Orca_AI@@@@8 ; ScriptRegistrant<SUR_Orca_AI>::`RTTI Base Class Descriptor at (0,-1,0,64)'
PUBLIC	??_R4?$ScriptRegistrant@VSUR_Chinook_AI@@@@6B@	; ScriptRegistrant<SUR_Chinook_AI>::`RTTI Complete Object Locator'
PUBLIC	??_R0?AV?$ScriptRegistrant@VSUR_Chinook_AI@@@@@8 ; ScriptRegistrant<SUR_Chinook_AI> `RTTI Type Descriptor'
PUBLIC	??_R3?$ScriptRegistrant@VSUR_Chinook_AI@@@@8	; ScriptRegistrant<SUR_Chinook_AI>::`RTTI Class Hierarchy Descriptor'
PUBLIC	??_R2?$ScriptRegistrant@VSUR_Chinook_AI@@@@8	; ScriptRegistrant<SUR_Chinook_AI>::`RTTI Base Class Array'
PUBLIC	??_R1A@?0A@EA@?$ScriptRegistrant@VSUR_Chinook_AI@@@@8 ; ScriptRegistrant<SUR_Chinook_AI>::`RTTI Base Class Descriptor at (0,-1,0,64)'
PUBLIC	??_R4?$ScriptRegistrant@VSUR_Dep_Turret@@@@6B@	; ScriptRegistrant<SUR_Dep_Turret>::`RTTI Complete Object Locator'
PUBLIC	??_R0?AV?$ScriptRegistrant@VSUR_Dep_Turret@@@@@8 ; ScriptRegistrant<SUR_Dep_Turret> `RTTI Type Descriptor'
PUBLIC	??_R3?$ScriptRegistrant@VSUR_Dep_Turret@@@@8	; ScriptRegistrant<SUR_Dep_Turret>::`RTTI Class Hierarchy Descriptor'
PUBLIC	??_R2?$ScriptRegistrant@VSUR_Dep_Turret@@@@8	; ScriptRegistrant<SUR_Dep_Turret>::`RTTI Base Class Array'
PUBLIC	??_R1A@?0A@EA@?$ScriptRegistrant@VSUR_Dep_Turret@@@@8 ; ScriptRegistrant<SUR_Dep_Turret>::`RTTI Base Class Descriptor at (0,-1,0,64)'
PUBLIC	??_R4?$ScriptRegistrant@VSUR_Timed_Death@@@@6B@	; ScriptRegistrant<SUR_Timed_Death>::`RTTI Complete Object Locator'
PUBLIC	??_R0?AV?$ScriptRegistrant@VSUR_Timed_Death@@@@@8 ; ScriptRegistrant<SUR_Timed_Death> `RTTI Type Descriptor'
PUBLIC	??_R3?$ScriptRegistrant@VSUR_Timed_Death@@@@8	; ScriptRegistrant<SUR_Timed_Death>::`RTTI Class Hierarchy Descriptor'
PUBLIC	??_R2?$ScriptRegistrant@VSUR_Timed_Death@@@@8	; ScriptRegistrant<SUR_Timed_Death>::`RTTI Base Class Array'
PUBLIC	??_R1A@?0A@EA@?$ScriptRegistrant@VSUR_Timed_Death@@@@8 ; ScriptRegistrant<SUR_Timed_Death>::`RTTI Base Class Descriptor at (0,-1,0,64)'
PUBLIC	??_R4?$ScriptRegistrant@VSUR_GrantPowerup_OnEntry@@@@6B@ ; ScriptRegistrant<SUR_GrantPowerup_OnEntry>::`RTTI Complete Object Locator'
PUBLIC	??_R0?AV?$ScriptRegistrant@VSUR_GrantPowerup_OnEntry@@@@@8 ; ScriptRegistrant<SUR_GrantPowerup_OnEntry> `RTTI Type Descriptor'
PUBLIC	??_R3?$ScriptRegistrant@VSUR_GrantPowerup_OnEntry@@@@8 ; ScriptRegistrant<SUR_GrantPowerup_OnEntry>::`RTTI Class Hierarchy Descriptor'
PUBLIC	??_R2?$ScriptRegistrant@VSUR_GrantPowerup_OnEntry@@@@8 ; ScriptRegistrant<SUR_GrantPowerup_OnEntry>::`RTTI Base Class Array'
PUBLIC	??_R1A@?0A@EA@?$ScriptRegistrant@VSUR_GrantPowerup_OnEntry@@@@8 ; ScriptRegistrant<SUR_GrantPowerup_OnEntry>::`RTTI Base Class Descriptor at (0,-1,0,64)'
PUBLIC	__real@00000000
PUBLIC	__real@3f79999a
PUBLIC	__real@3f800000
PUBLIC	__real@3fc90fdb
PUBLIC	__real@40000000
PUBLIC	__real@403ffe5d
PUBLIC	__real@40a00000
PUBLIC	__real@40c90fdb
PUBLIC	__real@41200000
PUBLIC	__real@41a00000
PUBLIC	__real@41f00000
PUBLIC	__real@42480000
PUBLIC	__real@424a0000
PUBLIC	__real@428c0000
PUBLIC	__real@42c80000
PUBLIC	__real@437f0000
PUBLIC	__real@44000000
PUBLIC	__real@447a0000
PUBLIC	__real@44800000
PUBLIC	__real@461c3c00
PUBLIC	__real@461c4000
PUBLIC	__real@bf800000
EXTRN	__purecall:PROC
EXTRN	??2@YAPAXI@Z:PROC				; operator new
EXTRN	??3@YAXPAX@Z:PROC				; operator delete
EXTRN	_atexit:PROC
EXTRN	__imp___wassert:PROC
EXTRN	__imp__atof:PROC
EXTRN	__imp__ceil:PROC
EXTRN	__imp__atoi:PROC
EXTRN	??_V@YAXPAX@Z:PROC				; operator delete[]
EXTRN	__imp__sprintf:PROC
EXTRN	__imp___stricmp:PROC
EXTRN	?SetThreadTrackingInformation@@YAXPBDI0@Z:PROC	; SetThreadTrackingInformation
EXTRN	?Random_Float@WWMath@@SAMXZ:PROC		; WWMath::Random_Float
EXTRN	??0ScriptImpClass@@QAE@XZ:PROC			; ScriptImpClass::ScriptImpClass
EXTRN	?CheckPlayerType@ScriptImpClass@@QAEHPAVScriptableGameObj@@H@Z:PROC ; ScriptImpClass::CheckPlayerType
EXTRN	?Auto_Save_Variable@ScriptImpClass@@QAEXPAXHH@Z:PROC ; ScriptImpClass::Auto_Save_Variable
EXTRN	??1ScriptImpClass@@UAE@XZ:PROC			; ScriptImpClass::~ScriptImpClass
EXTRN	?Get_Name@ScriptImpClass@@UAEPBDXZ:PROC		; ScriptImpClass::Get_Name
EXTRN	?Set_Parameters_String@ScriptImpClass@@UAEXPBD@Z:PROC ; ScriptImpClass::Set_Parameters_String
EXTRN	?Get_Parameters_String@ScriptImpClass@@UAEXPADI@Z:PROC ; ScriptImpClass::Get_Parameters_String
EXTRN	?Get_Parameter@ScriptImpClass@@QAEPBDPBD@Z:PROC	; ScriptImpClass::Get_Parameter
EXTRN	?Get_Parameter@ScriptImpClass@@QAEPBDH@Z:PROC	; ScriptImpClass::Get_Parameter
EXTRN	?Get_Int_Parameter@ScriptImpClass@@QAEHPBD@Z:PROC ; ScriptImpClass::Get_Int_Parameter
EXTRN	?Get_Float_Parameter@ScriptImpClass@@QAEMPBD@Z:PROC ; ScriptImpClass::Get_Float_Parameter
EXTRN	?Get_Vector3_Parameter@ScriptImpClass@@QAE?AVVector3@@PBD@Z:PROC ; ScriptImpClass::Get_Vector3_Parameter
EXTRN	?Attach@ScriptImpClass@@MAEXPAVScriptableGameObj@@@Z:PROC ; ScriptImpClass::Attach
EXTRN	?Detach@ScriptImpClass@@MAEXPAVScriptableGameObj@@@Z:PROC ; ScriptImpClass::Detach
EXTRN	?Save@ScriptImpClass@@MAEXAAVScriptSaver@@@Z:PROC ; ScriptImpClass::Save
EXTRN	?Load@ScriptImpClass@@MAEXAAVScriptLoader@@@Z:PROC ; ScriptImpClass::Load
EXTRN	??1ScriptFactory@@UAE@XZ:PROC			; ScriptFactory::~ScriptFactory
EXTRN	??0ScriptFactory@@IAE@PBD0@Z:PROC		; ScriptFactory::ScriptFactory
EXTRN	??_ESUR_Spawn_Delay@@UAEPAXI@Z:PROC		; SUR_Spawn_Delay::`vector deleting destructor'
EXTRN	??_ESUR_Generator_Zone@@UAEPAXI@Z:PROC		; SUR_Generator_Zone::`vector deleting destructor'
EXTRN	??_ESUR_MiniGen@@UAEPAXI@Z:PROC			; SUR_MiniGen::`vector deleting destructor'
EXTRN	??_ESUR_NHB@@UAEPAXI@Z:PROC			; SUR_NHB::`vector deleting destructor'
EXTRN	??_ESUR_NHB_Soldier@@UAEPAXI@Z:PROC		; SUR_NHB_Soldier::`vector deleting destructor'
EXTRN	??_ESUR_Obj_Destroyer@@UAEPAXI@Z:PROC		; SUR_Obj_Destroyer::`vector deleting destructor'
EXTRN	??_ESUR_New_PT@@UAEPAXI@Z:PROC			; SUR_New_PT::`vector deleting destructor'
EXTRN	??_ESUR_New_PT_Reciever@@UAEPAXI@Z:PROC		; SUR_New_PT_Reciever::`vector deleting destructor'
EXTRN	??_ESUR_APC_AI@@UAEPAXI@Z:PROC			; SUR_APC_AI::`vector deleting destructor'
EXTRN	??_ESUR_Orca_AI@@UAEPAXI@Z:PROC			; SUR_Orca_AI::`vector deleting destructor'
EXTRN	??_ESUR_Chinook_AI@@UAEPAXI@Z:PROC		; SUR_Chinook_AI::`vector deleting destructor'
EXTRN	??_ESUR_Dep_Turret@@UAEPAXI@Z:PROC		; SUR_Dep_Turret::`vector deleting destructor'
EXTRN	??_ESUR_Timed_Death@@UAEPAXI@Z:PROC		; SUR_Timed_Death::`vector deleting destructor'
EXTRN	??_ESUR_GrantPowerup_OnEntry@@UAEPAXI@Z:PROC	; SUR_GrantPowerup_OnEntry::`vector deleting destructor'
EXTRN	??_E?$ScriptRegistrant@VSUR_Spawn_Delay@@@@UAEPAXI@Z:PROC ; ScriptRegistrant<SUR_Spawn_Delay>::`vector deleting destructor'
EXTRN	??_E?$ScriptRegistrant@VSUR_Generator_Zone@@@@UAEPAXI@Z:PROC ; ScriptRegistrant<SUR_Generator_Zone>::`vector deleting destructor'
EXTRN	??_E?$ScriptRegistrant@VSUR_MiniGen@@@@UAEPAXI@Z:PROC ; ScriptRegistrant<SUR_MiniGen>::`vector deleting destructor'
EXTRN	??_E?$ScriptRegistrant@VSUR_NHB@@@@UAEPAXI@Z:PROC ; ScriptRegistrant<SUR_NHB>::`vector deleting destructor'
EXTRN	??_E?$ScriptRegistrant@VSUR_NHB_Soldier@@@@UAEPAXI@Z:PROC ; ScriptRegistrant<SUR_NHB_Soldier>::`vector deleting destructor'
EXTRN	??_E?$ScriptRegistrant@VSUR_Obj_Destroyer@@@@UAEPAXI@Z:PROC ; ScriptRegistrant<SUR_Obj_Destroyer>::`vector deleting destructor'
EXTRN	??_E?$ScriptRegistrant@VSUR_New_PT@@@@UAEPAXI@Z:PROC ; ScriptRegistrant<SUR_New_PT>::`vector deleting destructor'
EXTRN	??_E?$ScriptRegistrant@VSUR_New_PT_Reciever@@@@UAEPAXI@Z:PROC ; ScriptRegistrant<SUR_New_PT_Reciever>::`vector deleting destructor'
EXTRN	??_E?$ScriptRegistrant@VSUR_APC_AI@@@@UAEPAXI@Z:PROC ; ScriptRegistrant<SUR_APC_AI>::`vector deleting destructor'
EXTRN	??_E?$ScriptRegistrant@VSUR_Orca_AI@@@@UAEPAXI@Z:PROC ; ScriptRegistrant<SUR_Orca_AI>::`vector deleting destructor'
EXTRN	??_E?$ScriptRegistrant@VSUR_Chinook_AI@@@@UAEPAXI@Z:PROC ; ScriptRegistrant<SUR_Chinook_AI>::`vector deleting destructor'
EXTRN	??_E?$ScriptRegistrant@VSUR_Dep_Turret@@@@UAEPAXI@Z:PROC ; ScriptRegistrant<SUR_Dep_Turret>::`vector deleting destructor'
EXTRN	??_E?$ScriptRegistrant@VSUR_Timed_Death@@@@UAEPAXI@Z:PROC ; ScriptRegistrant<SUR_Timed_Death>::`vector deleting destructor'
EXTRN	??_E?$ScriptRegistrant@VSUR_GrantPowerup_OnEntry@@@@UAEPAXI@Z:PROC ; ScriptRegistrant<SUR_GrantPowerup_OnEntry>::`vector deleting destructor'
EXTRN	__CIatan2:PROC
EXTRN	__libm_sse2_acos_precise:PROC
EXTRN	__libm_sse2_asin_precise:PROC
EXTRN	__libm_sse2_atan_precise:PROC
EXTRN	__libm_sse2_cos_precise:PROC
EXTRN	__libm_sse2_sin_precise:PROC
EXTRN	__libm_sse2_sqrt_precise:PROC
EXTRN	_floor:PROC
EXTRN	??_7type_info@@6B@:QWORD			; type_info::`vftable'
EXTRN	?_FastAcosTable@@3AAV?$RefArrayHelper@M$0EAA@@@A:DWORD ; _FastAcosTable
EXTRN	?_FastAsinTable@@3AAV?$RefArrayHelper@M$0EAA@@@A:DWORD ; _FastAsinTable
EXTRN	?_FastSinTable@@3AAV?$RefArrayHelper@M$0EAA@@@A:DWORD ; _FastSinTable
EXTRN	?Commands@@3PAUScriptCommands@@A:DWORD		; Commands
EXTRN	__fltused:DWORD
_BSS	SEGMENT
?SUR_Spawn_Delay_Registrant@@3V?$ScriptRegistrant@VSUR_Spawn_Delay@@@@A DB 010H DUP (?) ; SUR_Spawn_Delay_Registrant
?SUR_Generator_Zone_Registrant@@3V?$ScriptRegistrant@VSUR_Generator_Zone@@@@A DB 010H DUP (?) ; SUR_Generator_Zone_Registrant
?SUR_MiniGen_Registrant@@3V?$ScriptRegistrant@VSUR_MiniGen@@@@A DB 010H DUP (?) ; SUR_MiniGen_Registrant
?SUR_NHB_Registrant@@3V?$ScriptRegistrant@VSUR_NHB@@@@A DB 010H DUP (?) ; SUR_NHB_Registrant
?SUR_NHB_Soldier_Registrant@@3V?$ScriptRegistrant@VSUR_NHB_Soldier@@@@A DB 010H DUP (?) ; SUR_NHB_Soldier_Registrant
?SUR_Obj_Destroyer_Registrant@@3V?$ScriptRegistrant@VSUR_Obj_Destroyer@@@@A DB 010H DUP (?) ; SUR_Obj_Destroyer_Registrant
?SUR_New_PT_Registrant@@3V?$ScriptRegistrant@VSUR_New_PT@@@@A DB 010H DUP (?) ; SUR_New_PT_Registrant
?SUR_New_PT_Reciever_Registrant@@3V?$ScriptRegistrant@VSUR_New_PT_Reciever@@@@A DB 010H DUP (?) ; SUR_New_PT_Reciever_Registrant
?SUR_APC_AI_Registrant@@3V?$ScriptRegistrant@VSUR_APC_AI@@@@A DB 010H DUP (?) ; SUR_APC_AI_Registrant
?SUR_Orca_AI_Registrant@@3V?$ScriptRegistrant@VSUR_Orca_AI@@@@A DB 010H DUP (?) ; SUR_Orca_AI_Registrant
?SUR_Chinook_AI_Registrant@@3V?$ScriptRegistrant@VSUR_Chinook_AI@@@@A DB 010H DUP (?) ; SUR_Chinook_AI_Registrant
?SUR_Dep_Turret_Registrant@@3V?$ScriptRegistrant@VSUR_Dep_Turret@@@@A DB 010H DUP (?) ; SUR_Dep_Turret_Registrant
?SUR_Timed_Death_Registrant@@3V?$ScriptRegistrant@VSUR_Timed_Death@@@@A DB 010H DUP (?) ; SUR_Timed_Death_Registrant
?SUR_GrantPowerup_OnEntry_Registrant@@3V?$ScriptRegistrant@VSUR_GrantPowerup_OnEntry@@@@A DB 010H DUP (?) ; SUR_GrantPowerup_OnEntry_Registrant
_BSS	ENDS
CRT$XCU	SEGMENT
_SUR_Spawn_Delay_Registrant$initializer$ DD FLAT:??__ESUR_Spawn_Delay_Registrant@@YAXXZ
CRT$XCU	ENDS
;	COMDAT __real@bf800000
CONST	SEGMENT
__real@bf800000 DD 0bf800000r			; -1
CONST	ENDS
;	COMDAT __real@461c4000
CONST	SEGMENT
__real@461c4000 DD 0461c4000r			; 10000
CONST	ENDS
;	COMDAT __real@461c3c00
CONST	SEGMENT
__real@461c3c00 DD 0461c3c00r			; 9999
CONST	ENDS
;	COMDAT __real@44800000
CONST	SEGMENT
__real@44800000 DD 044800000r			; 1024
CONST	ENDS
;	COMDAT __real@447a0000
CONST	SEGMENT
__real@447a0000 DD 0447a0000r			; 1000
CONST	ENDS
;	COMDAT __real@44000000
CONST	SEGMENT
__real@44000000 DD 044000000r			; 512
CONST	ENDS
;	COMDAT __real@437f0000
CONST	SEGMENT
__real@437f0000 DD 0437f0000r			; 255
CONST	ENDS
;	COMDAT __real@42c80000
CONST	SEGMENT
__real@42c80000 DD 042c80000r			; 100
CONST	ENDS
;	COMDAT __real@428c0000
CONST	SEGMENT
__real@428c0000 DD 0428c0000r			; 70
CONST	ENDS
;	COMDAT __real@424a0000
CONST	SEGMENT
__real@424a0000 DD 0424a0000r			; 50.5
CONST	ENDS
;	COMDAT __real@42480000
CONST	SEGMENT
__real@42480000 DD 042480000r			; 50
CONST	ENDS
;	COMDAT __real@41f00000
CONST	SEGMENT
__real@41f00000 DD 041f00000r			; 30
CONST	ENDS
;	COMDAT __real@41a00000
CONST	SEGMENT
__real@41a00000 DD 041a00000r			; 20
CONST	ENDS
;	COMDAT __real@41200000
CONST	SEGMENT
__real@41200000 DD 041200000r			; 10
CONST	ENDS
;	COMDAT __real@40c90fdb
CONST	SEGMENT
__real@40c90fdb DD 040c90fdbr			; 6.28319
CONST	ENDS
;	COMDAT __real@40a00000
CONST	SEGMENT
__real@40a00000 DD 040a00000r			; 5
CONST	ENDS
;	COMDAT __real@403ffe5d
CONST	SEGMENT
__real@403ffe5d DD 0403ffe5dr			; 2.9999
CONST	ENDS
;	COMDAT __real@40000000
CONST	SEGMENT
__real@40000000 DD 040000000r			; 2
CONST	ENDS
;	COMDAT __real@3fc90fdb
CONST	SEGMENT
__real@3fc90fdb DD 03fc90fdbr			; 1.5708
CONST	ENDS
;	COMDAT __real@3f800000
CONST	SEGMENT
__real@3f800000 DD 03f800000r			; 1
CONST	ENDS
;	COMDAT __real@3f79999a
CONST	SEGMENT
__real@3f79999a DD 03f79999ar			; 0.975
CONST	ENDS
;	COMDAT __real@00000000
CONST	SEGMENT
__real@00000000 DD 000000000r			; 0
CONST	ENDS
;	COMDAT ??_R1A@?0A@EA@?$ScriptRegistrant@VSUR_GrantPowerup_OnEntry@@@@8
rdata$r	SEGMENT
??_R1A@?0A@EA@?$ScriptRegistrant@VSUR_GrantPowerup_OnEntry@@@@8 DD FLAT:??_R0?AV?$ScriptRegistrant@VSUR_GrantPowerup_OnEntry@@@@@8 ; ScriptRegistrant<SUR_GrantPowerup_OnEntry>::`RTTI Base Class Descriptor at (0,-1,0,64)'
	DD	01H
	DD	00H
	DD	0ffffffffH
	DD	00H
	DD	040H
	DD	FLAT:??_R3?$ScriptRegistrant@VSUR_GrantPowerup_OnEntry@@@@8
rdata$r	ENDS
;	COMDAT ??_R2?$ScriptRegistrant@VSUR_GrantPowerup_OnEntry@@@@8
rdata$r	SEGMENT
??_R2?$ScriptRegistrant@VSUR_GrantPowerup_OnEntry@@@@8 DD FLAT:??_R1A@?0A@EA@?$ScriptRegistrant@VSUR_GrantPowerup_OnEntry@@@@8 ; ScriptRegistrant<SUR_GrantPowerup_OnEntry>::`RTTI Base Class Array'
	DD	FLAT:??_R1A@?0A@EA@ScriptFactory@@8
rdata$r	ENDS
;	COMDAT ??_R3?$ScriptRegistrant@VSUR_GrantPowerup_OnEntry@@@@8
rdata$r	SEGMENT
??_R3?$ScriptRegistrant@VSUR_GrantPowerup_OnEntry@@@@8 DD 00H ; ScriptRegistrant<SUR_GrantPowerup_OnEntry>::`RTTI Class Hierarchy Descriptor'
	DD	00H
	DD	02H
	DD	FLAT:??_R2?$ScriptRegistrant@VSUR_GrantPowerup_OnEntry@@@@8
rdata$r	ENDS
;	COMDAT ??_R0?AV?$ScriptRegistrant@VSUR_GrantPowerup_OnEntry@@@@@8
_DATA	SEGMENT
??_R0?AV?$ScriptRegistrant@VSUR_GrantPowerup_OnEntry@@@@@8 DD FLAT:??_7type_info@@6B@ ; ScriptRegistrant<SUR_GrantPowerup_OnEntry> `RTTI Type Descriptor'
	DD	00H
	DB	'.?AV?$ScriptRegistrant@VSUR_GrantPowerup_OnEntry@@@@', 00H
_DATA	ENDS
;	COMDAT ??_R4?$ScriptRegistrant@VSUR_GrantPowerup_OnEntry@@@@6B@
rdata$r	SEGMENT
??_R4?$ScriptRegistrant@VSUR_GrantPowerup_OnEntry@@@@6B@ DD 00H ; ScriptRegistrant<SUR_GrantPowerup_OnEntry>::`RTTI Complete Object Locator'
	DD	00H
	DD	00H
	DD	FLAT:??_R0?AV?$ScriptRegistrant@VSUR_GrantPowerup_OnEntry@@@@@8
	DD	FLAT:??_R3?$ScriptRegistrant@VSUR_GrantPowerup_OnEntry@@@@8
rdata$r	ENDS
;	COMDAT ??_R1A@?0A@EA@?$ScriptRegistrant@VSUR_Timed_Death@@@@8
rdata$r	SEGMENT
??_R1A@?0A@EA@?$ScriptRegistrant@VSUR_Timed_Death@@@@8 DD FLAT:??_R0?AV?$ScriptRegistrant@VSUR_Timed_Death@@@@@8 ; ScriptRegistrant<SUR_Timed_Death>::`RTTI Base Class Descriptor at (0,-1,0,64)'
	DD	01H
	DD	00H
	DD	0ffffffffH
	DD	00H
	DD	040H
	DD	FLAT:??_R3?$ScriptRegistrant@VSUR_Timed_Death@@@@8
rdata$r	ENDS
;	COMDAT ??_R2?$ScriptRegistrant@VSUR_Timed_Death@@@@8
rdata$r	SEGMENT
??_R2?$ScriptRegistrant@VSUR_Timed_Death@@@@8 DD FLAT:??_R1A@?0A@EA@?$ScriptRegistrant@VSUR_Timed_Death@@@@8 ; ScriptRegistrant<SUR_Timed_Death>::`RTTI Base Class Array'
	DD	FLAT:??_R1A@?0A@EA@ScriptFactory@@8
rdata$r	ENDS
;	COMDAT ??_R3?$ScriptRegistrant@VSUR_Timed_Death@@@@8
rdata$r	SEGMENT
??_R3?$ScriptRegistrant@VSUR_Timed_Death@@@@8 DD 00H	; ScriptRegistrant<SUR_Timed_Death>::`RTTI Class Hierarchy Descriptor'
	DD	00H
	DD	02H
	DD	FLAT:??_R2?$ScriptRegistrant@VSUR_Timed_Death@@@@8
rdata$r	ENDS
;	COMDAT ??_R0?AV?$ScriptRegistrant@VSUR_Timed_Death@@@@@8
_DATA	SEGMENT
??_R0?AV?$ScriptRegistrant@VSUR_Timed_Death@@@@@8 DD FLAT:??_7type_info@@6B@ ; ScriptRegistrant<SUR_Timed_Death> `RTTI Type Descriptor'
	DD	00H
	DB	'.?AV?$ScriptRegistrant@VSUR_Timed_Death@@@@', 00H
_DATA	ENDS
;	COMDAT ??_R4?$ScriptRegistrant@VSUR_Timed_Death@@@@6B@
rdata$r	SEGMENT
??_R4?$ScriptRegistrant@VSUR_Timed_Death@@@@6B@ DD 00H	; ScriptRegistrant<SUR_Timed_Death>::`RTTI Complete Object Locator'
	DD	00H
	DD	00H
	DD	FLAT:??_R0?AV?$ScriptRegistrant@VSUR_Timed_Death@@@@@8
	DD	FLAT:??_R3?$ScriptRegistrant@VSUR_Timed_Death@@@@8
rdata$r	ENDS
;	COMDAT ??_R1A@?0A@EA@?$ScriptRegistrant@VSUR_Dep_Turret@@@@8
rdata$r	SEGMENT
??_R1A@?0A@EA@?$ScriptRegistrant@VSUR_Dep_Turret@@@@8 DD FLAT:??_R0?AV?$ScriptRegistrant@VSUR_Dep_Turret@@@@@8 ; ScriptRegistrant<SUR_Dep_Turret>::`RTTI Base Class Descriptor at (0,-1,0,64)'
	DD	01H
	DD	00H
	DD	0ffffffffH
	DD	00H
	DD	040H
	DD	FLAT:??_R3?$ScriptRegistrant@VSUR_Dep_Turret@@@@8
rdata$r	ENDS
;	COMDAT ??_R2?$ScriptRegistrant@VSUR_Dep_Turret@@@@8
rdata$r	SEGMENT
??_R2?$ScriptRegistrant@VSUR_Dep_Turret@@@@8 DD FLAT:??_R1A@?0A@EA@?$ScriptRegistrant@VSUR_Dep_Turret@@@@8 ; ScriptRegistrant<SUR_Dep_Turret>::`RTTI Base Class Array'
	DD	FLAT:??_R1A@?0A@EA@ScriptFactory@@8
rdata$r	ENDS
;	COMDAT ??_R3?$ScriptRegistrant@VSUR_Dep_Turret@@@@8
rdata$r	SEGMENT
??_R3?$ScriptRegistrant@VSUR_Dep_Turret@@@@8 DD 00H	; ScriptRegistrant<SUR_Dep_Turret>::`RTTI Class Hierarchy Descriptor'
	DD	00H
	DD	02H
	DD	FLAT:??_R2?$ScriptRegistrant@VSUR_Dep_Turret@@@@8
rdata$r	ENDS
;	COMDAT ??_R0?AV?$ScriptRegistrant@VSUR_Dep_Turret@@@@@8
_DATA	SEGMENT
??_R0?AV?$ScriptRegistrant@VSUR_Dep_Turret@@@@@8 DD FLAT:??_7type_info@@6B@ ; ScriptRegistrant<SUR_Dep_Turret> `RTTI Type Descriptor'
	DD	00H
	DB	'.?AV?$ScriptRegistrant@VSUR_Dep_Turret@@@@', 00H
_DATA	ENDS
;	COMDAT ??_R4?$ScriptRegistrant@VSUR_Dep_Turret@@@@6B@
rdata$r	SEGMENT
??_R4?$ScriptRegistrant@VSUR_Dep_Turret@@@@6B@ DD 00H	; ScriptRegistrant<SUR_Dep_Turret>::`RTTI Complete Object Locator'
	DD	00H
	DD	00H
	DD	FLAT:??_R0?AV?$ScriptRegistrant@VSUR_Dep_Turret@@@@@8
	DD	FLAT:??_R3?$ScriptRegistrant@VSUR_Dep_Turret@@@@8
rdata$r	ENDS
;	COMDAT ??_R1A@?0A@EA@?$ScriptRegistrant@VSUR_Chinook_AI@@@@8
rdata$r	SEGMENT
??_R1A@?0A@EA@?$ScriptRegistrant@VSUR_Chinook_AI@@@@8 DD FLAT:??_R0?AV?$ScriptRegistrant@VSUR_Chinook_AI@@@@@8 ; ScriptRegistrant<SUR_Chinook_AI>::`RTTI Base Class Descriptor at (0,-1,0,64)'
	DD	01H
	DD	00H
	DD	0ffffffffH
	DD	00H
	DD	040H
	DD	FLAT:??_R3?$ScriptRegistrant@VSUR_Chinook_AI@@@@8
rdata$r	ENDS
;	COMDAT ??_R2?$ScriptRegistrant@VSUR_Chinook_AI@@@@8
rdata$r	SEGMENT
??_R2?$ScriptRegistrant@VSUR_Chinook_AI@@@@8 DD FLAT:??_R1A@?0A@EA@?$ScriptRegistrant@VSUR_Chinook_AI@@@@8 ; ScriptRegistrant<SUR_Chinook_AI>::`RTTI Base Class Array'
	DD	FLAT:??_R1A@?0A@EA@ScriptFactory@@8
rdata$r	ENDS
;	COMDAT ??_R3?$ScriptRegistrant@VSUR_Chinook_AI@@@@8
rdata$r	SEGMENT
??_R3?$ScriptRegistrant@VSUR_Chinook_AI@@@@8 DD 00H	; ScriptRegistrant<SUR_Chinook_AI>::`RTTI Class Hierarchy Descriptor'
	DD	00H
	DD	02H
	DD	FLAT:??_R2?$ScriptRegistrant@VSUR_Chinook_AI@@@@8
rdata$r	ENDS
;	COMDAT ??_R0?AV?$ScriptRegistrant@VSUR_Chinook_AI@@@@@8
_DATA	SEGMENT
??_R0?AV?$ScriptRegistrant@VSUR_Chinook_AI@@@@@8 DD FLAT:??_7type_info@@6B@ ; ScriptRegistrant<SUR_Chinook_AI> `RTTI Type Descriptor'
	DD	00H
	DB	'.?AV?$ScriptRegistrant@VSUR_Chinook_AI@@@@', 00H
_DATA	ENDS
;	COMDAT ??_R4?$ScriptRegistrant@VSUR_Chinook_AI@@@@6B@
rdata$r	SEGMENT
??_R4?$ScriptRegistrant@VSUR_Chinook_AI@@@@6B@ DD 00H	; ScriptRegistrant<SUR_Chinook_AI>::`RTTI Complete Object Locator'
	DD	00H
	DD	00H
	DD	FLAT:??_R0?AV?$ScriptRegistrant@VSUR_Chinook_AI@@@@@8
	DD	FLAT:??_R3?$ScriptRegistrant@VSUR_Chinook_AI@@@@8
rdata$r	ENDS
;	COMDAT ??_R1A@?0A@EA@?$ScriptRegistrant@VSUR_Orca_AI@@@@8
rdata$r	SEGMENT
??_R1A@?0A@EA@?$ScriptRegistrant@VSUR_Orca_AI@@@@8 DD FLAT:??_R0?AV?$ScriptRegistrant@VSUR_Orca_AI@@@@@8 ; ScriptRegistrant<SUR_Orca_AI>::`RTTI Base Class Descriptor at (0,-1,0,64)'
	DD	01H
	DD	00H
	DD	0ffffffffH
	DD	00H
	DD	040H
	DD	FLAT:??_R3?$ScriptRegistrant@VSUR_Orca_AI@@@@8
rdata$r	ENDS
;	COMDAT ??_R2?$ScriptRegistrant@VSUR_Orca_AI@@@@8
rdata$r	SEGMENT
??_R2?$ScriptRegistrant@VSUR_Orca_AI@@@@8 DD FLAT:??_R1A@?0A@EA@?$ScriptRegistrant@VSUR_Orca_AI@@@@8 ; ScriptRegistrant<SUR_Orca_AI>::`RTTI Base Class Array'
	DD	FLAT:??_R1A@?0A@EA@ScriptFactory@@8
rdata$r	ENDS
;	COMDAT ??_R3?$ScriptRegistrant@VSUR_Orca_AI@@@@8
rdata$r	SEGMENT
??_R3?$ScriptRegistrant@VSUR_Orca_AI@@@@8 DD 00H	; ScriptRegistrant<SUR_Orca_AI>::`RTTI Class Hierarchy Descriptor'
	DD	00H
	DD	02H
	DD	FLAT:??_R2?$ScriptRegistrant@VSUR_Orca_AI@@@@8
rdata$r	ENDS
;	COMDAT ??_R0?AV?$ScriptRegistrant@VSUR_Orca_AI@@@@@8
_DATA	SEGMENT
??_R0?AV?$ScriptRegistrant@VSUR_Orca_AI@@@@@8 DD FLAT:??_7type_info@@6B@ ; ScriptRegistrant<SUR_Orca_AI> `RTTI Type Descriptor'
	DD	00H
	DB	'.?AV?$ScriptRegistrant@VSUR_Orca_AI@@@@', 00H
_DATA	ENDS
;	COMDAT ??_R4?$ScriptRegistrant@VSUR_Orca_AI@@@@6B@
rdata$r	SEGMENT
??_R4?$ScriptRegistrant@VSUR_Orca_AI@@@@6B@ DD 00H	; ScriptRegistrant<SUR_Orca_AI>::`RTTI Complete Object Locator'
	DD	00H
	DD	00H
	DD	FLAT:??_R0?AV?$ScriptRegistrant@VSUR_Orca_AI@@@@@8
	DD	FLAT:??_R3?$ScriptRegistrant@VSUR_Orca_AI@@@@8
rdata$r	ENDS
;	COMDAT ??_R1A@?0A@EA@?$ScriptRegistrant@VSUR_APC_AI@@@@8
rdata$r	SEGMENT
??_R1A@?0A@EA@?$ScriptRegistrant@VSUR_APC_AI@@@@8 DD FLAT:??_R0?AV?$ScriptRegistrant@VSUR_APC_AI@@@@@8 ; ScriptRegistrant<SUR_APC_AI>::`RTTI Base Class Descriptor at (0,-1,0,64)'
	DD	01H
	DD	00H
	DD	0ffffffffH
	DD	00H
	DD	040H
	DD	FLAT:??_R3?$ScriptRegistrant@VSUR_APC_AI@@@@8
rdata$r	ENDS
;	COMDAT ??_R2?$ScriptRegistrant@VSUR_APC_AI@@@@8
rdata$r	SEGMENT
??_R2?$ScriptRegistrant@VSUR_APC_AI@@@@8 DD FLAT:??_R1A@?0A@EA@?$ScriptRegistrant@VSUR_APC_AI@@@@8 ; ScriptRegistrant<SUR_APC_AI>::`RTTI Base Class Array'
	DD	FLAT:??_R1A@?0A@EA@ScriptFactory@@8
rdata$r	ENDS
;	COMDAT ??_R3?$ScriptRegistrant@VSUR_APC_AI@@@@8
rdata$r	SEGMENT
??_R3?$ScriptRegistrant@VSUR_APC_AI@@@@8 DD 00H		; ScriptRegistrant<SUR_APC_AI>::`RTTI Class Hierarchy Descriptor'
	DD	00H
	DD	02H
	DD	FLAT:??_R2?$ScriptRegistrant@VSUR_APC_AI@@@@8
rdata$r	ENDS
;	COMDAT ??_R0?AV?$ScriptRegistrant@VSUR_APC_AI@@@@@8
_DATA	SEGMENT
??_R0?AV?$ScriptRegistrant@VSUR_APC_AI@@@@@8 DD FLAT:??_7type_info@@6B@ ; ScriptRegistrant<SUR_APC_AI> `RTTI Type Descriptor'
	DD	00H
	DB	'.?AV?$ScriptRegistrant@VSUR_APC_AI@@@@', 00H
_DATA	ENDS
;	COMDAT ??_R4?$ScriptRegistrant@VSUR_APC_AI@@@@6B@
rdata$r	SEGMENT
??_R4?$ScriptRegistrant@VSUR_APC_AI@@@@6B@ DD 00H	; ScriptRegistrant<SUR_APC_AI>::`RTTI Complete Object Locator'
	DD	00H
	DD	00H
	DD	FLAT:??_R0?AV?$ScriptRegistrant@VSUR_APC_AI@@@@@8
	DD	FLAT:??_R3?$ScriptRegistrant@VSUR_APC_AI@@@@8
rdata$r	ENDS
;	COMDAT ??_R1A@?0A@EA@?$ScriptRegistrant@VSUR_New_PT_Reciever@@@@8
rdata$r	SEGMENT
??_R1A@?0A@EA@?$ScriptRegistrant@VSUR_New_PT_Reciever@@@@8 DD FLAT:??_R0?AV?$ScriptRegistrant@VSUR_New_PT_Reciever@@@@@8 ; ScriptRegistrant<SUR_New_PT_Reciever>::`RTTI Base Class Descriptor at (0,-1,0,64)'
	DD	01H
	DD	00H
	DD	0ffffffffH
	DD	00H
	DD	040H
	DD	FLAT:??_R3?$ScriptRegistrant@VSUR_New_PT_Reciever@@@@8
rdata$r	ENDS
;	COMDAT ??_R2?$ScriptRegistrant@VSUR_New_PT_Reciever@@@@8
rdata$r	SEGMENT
??_R2?$ScriptRegistrant@VSUR_New_PT_Reciever@@@@8 DD FLAT:??_R1A@?0A@EA@?$ScriptRegistrant@VSUR_New_PT_Reciever@@@@8 ; ScriptRegistrant<SUR_New_PT_Reciever>::`RTTI Base Class Array'
	DD	FLAT:??_R1A@?0A@EA@ScriptFactory@@8
rdata$r	ENDS
;	COMDAT ??_R3?$ScriptRegistrant@VSUR_New_PT_Reciever@@@@8
rdata$r	SEGMENT
??_R3?$ScriptRegistrant@VSUR_New_PT_Reciever@@@@8 DD 00H ; ScriptRegistrant<SUR_New_PT_Reciever>::`RTTI Class Hierarchy Descriptor'
	DD	00H
	DD	02H
	DD	FLAT:??_R2?$ScriptRegistrant@VSUR_New_PT_Reciever@@@@8
rdata$r	ENDS
;	COMDAT ??_R0?AV?$ScriptRegistrant@VSUR_New_PT_Reciever@@@@@8
_DATA	SEGMENT
??_R0?AV?$ScriptRegistrant@VSUR_New_PT_Reciever@@@@@8 DD FLAT:??_7type_info@@6B@ ; ScriptRegistrant<SUR_New_PT_Reciever> `RTTI Type Descriptor'
	DD	00H
	DB	'.?AV?$ScriptRegistrant@VSUR_New_PT_Reciever@@@@', 00H
_DATA	ENDS
;	COMDAT ??_R4?$ScriptRegistrant@VSUR_New_PT_Reciever@@@@6B@
rdata$r	SEGMENT
??_R4?$ScriptRegistrant@VSUR_New_PT_Reciever@@@@6B@ DD 00H ; ScriptRegistrant<SUR_New_PT_Reciever>::`RTTI Complete Object Locator'
	DD	00H
	DD	00H
	DD	FLAT:??_R0?AV?$ScriptRegistrant@VSUR_New_PT_Reciever@@@@@8
	DD	FLAT:??_R3?$ScriptRegistrant@VSUR_New_PT_Reciever@@@@8
rdata$r	ENDS
;	COMDAT ??_R1A@?0A@EA@?$ScriptRegistrant@VSUR_New_PT@@@@8
rdata$r	SEGMENT
??_R1A@?0A@EA@?$ScriptRegistrant@VSUR_New_PT@@@@8 DD FLAT:??_R0?AV?$ScriptRegistrant@VSUR_New_PT@@@@@8 ; ScriptRegistrant<SUR_New_PT>::`RTTI Base Class Descriptor at (0,-1,0,64)'
	DD	01H
	DD	00H
	DD	0ffffffffH
	DD	00H
	DD	040H
	DD	FLAT:??_R3?$ScriptRegistrant@VSUR_New_PT@@@@8
rdata$r	ENDS
;	COMDAT ??_R2?$ScriptRegistrant@VSUR_New_PT@@@@8
rdata$r	SEGMENT
??_R2?$ScriptRegistrant@VSUR_New_PT@@@@8 DD FLAT:??_R1A@?0A@EA@?$ScriptRegistrant@VSUR_New_PT@@@@8 ; ScriptRegistrant<SUR_New_PT>::`RTTI Base Class Array'
	DD	FLAT:??_R1A@?0A@EA@ScriptFactory@@8
rdata$r	ENDS
;	COMDAT ??_R3?$ScriptRegistrant@VSUR_New_PT@@@@8
rdata$r	SEGMENT
??_R3?$ScriptRegistrant@VSUR_New_PT@@@@8 DD 00H		; ScriptRegistrant<SUR_New_PT>::`RTTI Class Hierarchy Descriptor'
	DD	00H
	DD	02H
	DD	FLAT:??_R2?$ScriptRegistrant@VSUR_New_PT@@@@8
rdata$r	ENDS
;	COMDAT ??_R0?AV?$ScriptRegistrant@VSUR_New_PT@@@@@8
_DATA	SEGMENT
??_R0?AV?$ScriptRegistrant@VSUR_New_PT@@@@@8 DD FLAT:??_7type_info@@6B@ ; ScriptRegistrant<SUR_New_PT> `RTTI Type Descriptor'
	DD	00H
	DB	'.?AV?$ScriptRegistrant@VSUR_New_PT@@@@', 00H
_DATA	ENDS
;	COMDAT ??_R4?$ScriptRegistrant@VSUR_New_PT@@@@6B@
rdata$r	SEGMENT
??_R4?$ScriptRegistrant@VSUR_New_PT@@@@6B@ DD 00H	; ScriptRegistrant<SUR_New_PT>::`RTTI Complete Object Locator'
	DD	00H
	DD	00H
	DD	FLAT:??_R0?AV?$ScriptRegistrant@VSUR_New_PT@@@@@8
	DD	FLAT:??_R3?$ScriptRegistrant@VSUR_New_PT@@@@8
rdata$r	ENDS
;	COMDAT ??_R1A@?0A@EA@?$ScriptRegistrant@VSUR_Obj_Destroyer@@@@8
rdata$r	SEGMENT
??_R1A@?0A@EA@?$ScriptRegistrant@VSUR_Obj_Destroyer@@@@8 DD FLAT:??_R0?AV?$ScriptRegistrant@VSUR_Obj_Destroyer@@@@@8 ; ScriptRegistrant<SUR_Obj_Destroyer>::`RTTI Base Class Descriptor at (0,-1,0,64)'
	DD	01H
	DD	00H
	DD	0ffffffffH
	DD	00H
	DD	040H
	DD	FLAT:??_R3?$ScriptRegistrant@VSUR_Obj_Destroyer@@@@8
rdata$r	ENDS
;	COMDAT ??_R2?$ScriptRegistrant@VSUR_Obj_Destroyer@@@@8
rdata$r	SEGMENT
??_R2?$ScriptRegistrant@VSUR_Obj_Destroyer@@@@8 DD FLAT:??_R1A@?0A@EA@?$ScriptRegistrant@VSUR_Obj_Destroyer@@@@8 ; ScriptRegistrant<SUR_Obj_Destroyer>::`RTTI Base Class Array'
	DD	FLAT:??_R1A@?0A@EA@ScriptFactory@@8
rdata$r	ENDS
;	COMDAT ??_R3?$ScriptRegistrant@VSUR_Obj_Destroyer@@@@8
rdata$r	SEGMENT
??_R3?$ScriptRegistrant@VSUR_Obj_Destroyer@@@@8 DD 00H	; ScriptRegistrant<SUR_Obj_Destroyer>::`RTTI Class Hierarchy Descriptor'
	DD	00H
	DD	02H
	DD	FLAT:??_R2?$ScriptRegistrant@VSUR_Obj_Destroyer@@@@8
rdata$r	ENDS
;	COMDAT ??_R0?AV?$ScriptRegistrant@VSUR_Obj_Destroyer@@@@@8
_DATA	SEGMENT
??_R0?AV?$ScriptRegistrant@VSUR_Obj_Destroyer@@@@@8 DD FLAT:??_7type_info@@6B@ ; ScriptRegistrant<SUR_Obj_Destroyer> `RTTI Type Descriptor'
	DD	00H
	DB	'.?AV?$ScriptRegistrant@VSUR_Obj_Destroyer@@@@', 00H
_DATA	ENDS
;	COMDAT ??_R4?$ScriptRegistrant@VSUR_Obj_Destroyer@@@@6B@
rdata$r	SEGMENT
??_R4?$ScriptRegistrant@VSUR_Obj_Destroyer@@@@6B@ DD 00H ; ScriptRegistrant<SUR_Obj_Destroyer>::`RTTI Complete Object Locator'
	DD	00H
	DD	00H
	DD	FLAT:??_R0?AV?$ScriptRegistrant@VSUR_Obj_Destroyer@@@@@8
	DD	FLAT:??_R3?$ScriptRegistrant@VSUR_Obj_Destroyer@@@@8
rdata$r	ENDS
;	COMDAT ??_R1A@?0A@EA@?$ScriptRegistrant@VSUR_NHB_Soldier@@@@8
rdata$r	SEGMENT
??_R1A@?0A@EA@?$ScriptRegistrant@VSUR_NHB_Soldier@@@@8 DD FLAT:??_R0?AV?$ScriptRegistrant@VSUR_NHB_Soldier@@@@@8 ; ScriptRegistrant<SUR_NHB_Soldier>::`RTTI Base Class Descriptor at (0,-1,0,64)'
	DD	01H
	DD	00H
	DD	0ffffffffH
	DD	00H
	DD	040H
	DD	FLAT:??_R3?$ScriptRegistrant@VSUR_NHB_Soldier@@@@8
rdata$r	ENDS
;	COMDAT ??_R2?$ScriptRegistrant@VSUR_NHB_Soldier@@@@8
rdata$r	SEGMENT
??_R2?$ScriptRegistrant@VSUR_NHB_Soldier@@@@8 DD FLAT:??_R1A@?0A@EA@?$ScriptRegistrant@VSUR_NHB_Soldier@@@@8 ; ScriptRegistrant<SUR_NHB_Soldier>::`RTTI Base Class Array'
	DD	FLAT:??_R1A@?0A@EA@ScriptFactory@@8
rdata$r	ENDS
;	COMDAT ??_R3?$ScriptRegistrant@VSUR_NHB_Soldier@@@@8
rdata$r	SEGMENT
??_R3?$ScriptRegistrant@VSUR_NHB_Soldier@@@@8 DD 00H	; ScriptRegistrant<SUR_NHB_Soldier>::`RTTI Class Hierarchy Descriptor'
	DD	00H
	DD	02H
	DD	FLAT:??_R2?$ScriptRegistrant@VSUR_NHB_Soldier@@@@8
rdata$r	ENDS
;	COMDAT ??_R0?AV?$ScriptRegistrant@VSUR_NHB_Soldier@@@@@8
_DATA	SEGMENT
??_R0?AV?$ScriptRegistrant@VSUR_NHB_Soldier@@@@@8 DD FLAT:??_7type_info@@6B@ ; ScriptRegistrant<SUR_NHB_Soldier> `RTTI Type Descriptor'
	DD	00H
	DB	'.?AV?$ScriptRegistrant@VSUR_NHB_Soldier@@@@', 00H
_DATA	ENDS
;	COMDAT ??_R4?$ScriptRegistrant@VSUR_NHB_Soldier@@@@6B@
rdata$r	SEGMENT
??_R4?$ScriptRegistrant@VSUR_NHB_Soldier@@@@6B@ DD 00H	; ScriptRegistrant<SUR_NHB_Soldier>::`RTTI Complete Object Locator'
	DD	00H
	DD	00H
	DD	FLAT:??_R0?AV?$ScriptRegistrant@VSUR_NHB_Soldier@@@@@8
	DD	FLAT:??_R3?$ScriptRegistrant@VSUR_NHB_Soldier@@@@8
rdata$r	ENDS
;	COMDAT ??_R1A@?0A@EA@?$ScriptRegistrant@VSUR_NHB@@@@8
rdata$r	SEGMENT
??_R1A@?0A@EA@?$ScriptRegistrant@VSUR_NHB@@@@8 DD FLAT:??_R0?AV?$ScriptRegistrant@VSUR_NHB@@@@@8 ; ScriptRegistrant<SUR_NHB>::`RTTI Base Class Descriptor at (0,-1,0,64)'
	DD	01H
	DD	00H
	DD	0ffffffffH
	DD	00H
	DD	040H
	DD	FLAT:??_R3?$ScriptRegistrant@VSUR_NHB@@@@8
rdata$r	ENDS
;	COMDAT ??_R2?$ScriptRegistrant@VSUR_NHB@@@@8
rdata$r	SEGMENT
??_R2?$ScriptRegistrant@VSUR_NHB@@@@8 DD FLAT:??_R1A@?0A@EA@?$ScriptRegistrant@VSUR_NHB@@@@8 ; ScriptRegistrant<SUR_NHB>::`RTTI Base Class Array'
	DD	FLAT:??_R1A@?0A@EA@ScriptFactory@@8
rdata$r	ENDS
;	COMDAT ??_R3?$ScriptRegistrant@VSUR_NHB@@@@8
rdata$r	SEGMENT
??_R3?$ScriptRegistrant@VSUR_NHB@@@@8 DD 00H		; ScriptRegistrant<SUR_NHB>::`RTTI Class Hierarchy Descriptor'
	DD	00H
	DD	02H
	DD	FLAT:??_R2?$ScriptRegistrant@VSUR_NHB@@@@8
rdata$r	ENDS
;	COMDAT ??_R0?AV?$ScriptRegistrant@VSUR_NHB@@@@@8
_DATA	SEGMENT
??_R0?AV?$ScriptRegistrant@VSUR_NHB@@@@@8 DD FLAT:??_7type_info@@6B@ ; ScriptRegistrant<SUR_NHB> `RTTI Type Descriptor'
	DD	00H
	DB	'.?AV?$ScriptRegistrant@VSUR_NHB@@@@', 00H
_DATA	ENDS
;	COMDAT ??_R4?$ScriptRegistrant@VSUR_NHB@@@@6B@
rdata$r	SEGMENT
??_R4?$ScriptRegistrant@VSUR_NHB@@@@6B@ DD 00H		; ScriptRegistrant<SUR_NHB>::`RTTI Complete Object Locator'
	DD	00H
	DD	00H
	DD	FLAT:??_R0?AV?$ScriptRegistrant@VSUR_NHB@@@@@8
	DD	FLAT:??_R3?$ScriptRegistrant@VSUR_NHB@@@@8
rdata$r	ENDS
;	COMDAT ??_R1A@?0A@EA@?$ScriptRegistrant@VSUR_MiniGen@@@@8
rdata$r	SEGMENT
??_R1A@?0A@EA@?$ScriptRegistrant@VSUR_MiniGen@@@@8 DD FLAT:??_R0?AV?$ScriptRegistrant@VSUR_MiniGen@@@@@8 ; ScriptRegistrant<SUR_MiniGen>::`RTTI Base Class Descriptor at (0,-1,0,64)'
	DD	01H
	DD	00H
	DD	0ffffffffH
	DD	00H
	DD	040H
	DD	FLAT:??_R3?$ScriptRegistrant@VSUR_MiniGen@@@@8
rdata$r	ENDS
;	COMDAT ??_R2?$ScriptRegistrant@VSUR_MiniGen@@@@8
rdata$r	SEGMENT
??_R2?$ScriptRegistrant@VSUR_MiniGen@@@@8 DD FLAT:??_R1A@?0A@EA@?$ScriptRegistrant@VSUR_MiniGen@@@@8 ; ScriptRegistrant<SUR_MiniGen>::`RTTI Base Class Array'
	DD	FLAT:??_R1A@?0A@EA@ScriptFactory@@8
rdata$r	ENDS
;	COMDAT ??_R3?$ScriptRegistrant@VSUR_MiniGen@@@@8
rdata$r	SEGMENT
??_R3?$ScriptRegistrant@VSUR_MiniGen@@@@8 DD 00H	; ScriptRegistrant<SUR_MiniGen>::`RTTI Class Hierarchy Descriptor'
	DD	00H
	DD	02H
	DD	FLAT:??_R2?$ScriptRegistrant@VSUR_MiniGen@@@@8
rdata$r	ENDS
;	COMDAT ??_R0?AV?$ScriptRegistrant@VSUR_MiniGen@@@@@8
_DATA	SEGMENT
??_R0?AV?$ScriptRegistrant@VSUR_MiniGen@@@@@8 DD FLAT:??_7type_info@@6B@ ; ScriptRegistrant<SUR_MiniGen> `RTTI Type Descriptor'
	DD	00H
	DB	'.?AV?$ScriptRegistrant@VSUR_MiniGen@@@@', 00H
_DATA	ENDS
;	COMDAT ??_R4?$ScriptRegistrant@VSUR_MiniGen@@@@6B@
rdata$r	SEGMENT
??_R4?$ScriptRegistrant@VSUR_MiniGen@@@@6B@ DD 00H	; ScriptRegistrant<SUR_MiniGen>::`RTTI Complete Object Locator'
	DD	00H
	DD	00H
	DD	FLAT:??_R0?AV?$ScriptRegistrant@VSUR_MiniGen@@@@@8
	DD	FLAT:??_R3?$ScriptRegistrant@VSUR_MiniGen@@@@8
rdata$r	ENDS
;	COMDAT ??_R1A@?0A@EA@?$ScriptRegistrant@VSUR_Generator_Zone@@@@8
rdata$r	SEGMENT
??_R1A@?0A@EA@?$ScriptRegistrant@VSUR_Generator_Zone@@@@8 DD FLAT:??_R0?AV?$ScriptRegistrant@VSUR_Generator_Zone@@@@@8 ; ScriptRegistrant<SUR_Generator_Zone>::`RTTI Base Class Descriptor at (0,-1,0,64)'
	DD	01H
	DD	00H
	DD	0ffffffffH
	DD	00H
	DD	040H
	DD	FLAT:??_R3?$ScriptRegistrant@VSUR_Generator_Zone@@@@8
rdata$r	ENDS
;	COMDAT ??_R2?$ScriptRegistrant@VSUR_Generator_Zone@@@@8
rdata$r	SEGMENT
??_R2?$ScriptRegistrant@VSUR_Generator_Zone@@@@8 DD FLAT:??_R1A@?0A@EA@?$ScriptRegistrant@VSUR_Generator_Zone@@@@8 ; ScriptRegistrant<SUR_Generator_Zone>::`RTTI Base Class Array'
	DD	FLAT:??_R1A@?0A@EA@ScriptFactory@@8
rdata$r	ENDS
;	COMDAT ??_R3?$ScriptRegistrant@VSUR_Generator_Zone@@@@8
rdata$r	SEGMENT
??_R3?$ScriptRegistrant@VSUR_Generator_Zone@@@@8 DD 00H	; ScriptRegistrant<SUR_Generator_Zone>::`RTTI Class Hierarchy Descriptor'
	DD	00H
	DD	02H
	DD	FLAT:??_R2?$ScriptRegistrant@VSUR_Generator_Zone@@@@8
rdata$r	ENDS
;	COMDAT ??_R0?AV?$ScriptRegistrant@VSUR_Generator_Zone@@@@@8
_DATA	SEGMENT
??_R0?AV?$ScriptRegistrant@VSUR_Generator_Zone@@@@@8 DD FLAT:??_7type_info@@6B@ ; ScriptRegistrant<SUR_Generator_Zone> `RTTI Type Descriptor'
	DD	00H
	DB	'.?AV?$ScriptRegistrant@VSUR_Generator_Zone@@@@', 00H
_DATA	ENDS
;	COMDAT ??_R4?$ScriptRegistrant@VSUR_Generator_Zone@@@@6B@
rdata$r	SEGMENT
??_R4?$ScriptRegistrant@VSUR_Generator_Zone@@@@6B@ DD 00H ; ScriptRegistrant<SUR_Generator_Zone>::`RTTI Complete Object Locator'
	DD	00H
	DD	00H
	DD	FLAT:??_R0?AV?$ScriptRegistrant@VSUR_Generator_Zone@@@@@8
	DD	FLAT:??_R3?$ScriptRegistrant@VSUR_Generator_Zone@@@@8
rdata$r	ENDS
;	COMDAT ??_R1A@?0A@EA@?$ScriptRegistrant@VSUR_Spawn_Delay@@@@8
rdata$r	SEGMENT
??_R1A@?0A@EA@?$ScriptRegistrant@VSUR_Spawn_Delay@@@@8 DD FLAT:??_R0?AV?$ScriptRegistrant@VSUR_Spawn_Delay@@@@@8 ; ScriptRegistrant<SUR_Spawn_Delay>::`RTTI Base Class Descriptor at (0,-1,0,64)'
	DD	01H
	DD	00H
	DD	0ffffffffH
	DD	00H
	DD	040H
	DD	FLAT:??_R3?$ScriptRegistrant@VSUR_Spawn_Delay@@@@8
rdata$r	ENDS
;	COMDAT ??_R2?$ScriptRegistrant@VSUR_Spawn_Delay@@@@8
rdata$r	SEGMENT
??_R2?$ScriptRegistrant@VSUR_Spawn_Delay@@@@8 DD FLAT:??_R1A@?0A@EA@?$ScriptRegistrant@VSUR_Spawn_Delay@@@@8 ; ScriptRegistrant<SUR_Spawn_Delay>::`RTTI Base Class Array'
	DD	FLAT:??_R1A@?0A@EA@ScriptFactory@@8
rdata$r	ENDS
;	COMDAT ??_R3?$ScriptRegistrant@VSUR_Spawn_Delay@@@@8
rdata$r	SEGMENT
??_R3?$ScriptRegistrant@VSUR_Spawn_Delay@@@@8 DD 00H	; ScriptRegistrant<SUR_Spawn_Delay>::`RTTI Class Hierarchy Descriptor'
	DD	00H
	DD	02H
	DD	FLAT:??_R2?$ScriptRegistrant@VSUR_Spawn_Delay@@@@8
rdata$r	ENDS
;	COMDAT ??_R0?AV?$ScriptRegistrant@VSUR_Spawn_Delay@@@@@8
_DATA	SEGMENT
??_R0?AV?$ScriptRegistrant@VSUR_Spawn_Delay@@@@@8 DD FLAT:??_7type_info@@6B@ ; ScriptRegistrant<SUR_Spawn_Delay> `RTTI Type Descriptor'
	DD	00H
	DB	'.?AV?$ScriptRegistrant@VSUR_Spawn_Delay@@@@', 00H
_DATA	ENDS
;	COMDAT ??_R4?$ScriptRegistrant@VSUR_Spawn_Delay@@@@6B@
rdata$r	SEGMENT
??_R4?$ScriptRegistrant@VSUR_Spawn_Delay@@@@6B@ DD 00H	; ScriptRegistrant<SUR_Spawn_Delay>::`RTTI Complete Object Locator'
	DD	00H
	DD	00H
	DD	FLAT:??_R0?AV?$ScriptRegistrant@VSUR_Spawn_Delay@@@@@8
	DD	FLAT:??_R3?$ScriptRegistrant@VSUR_Spawn_Delay@@@@8
rdata$r	ENDS
;	COMDAT ??_R1A@?0A@EA@SUR_GrantPowerup_OnEntry@@8
rdata$r	SEGMENT
??_R1A@?0A@EA@SUR_GrantPowerup_OnEntry@@8 DD FLAT:??_R0?AVSUR_GrantPowerup_OnEntry@@@8 ; SUR_GrantPowerup_OnEntry::`RTTI Base Class Descriptor at (0,-1,0,64)'
	DD	03H
	DD	00H
	DD	0ffffffffH
	DD	00H
	DD	040H
	DD	FLAT:??_R3SUR_GrantPowerup_OnEntry@@8
rdata$r	ENDS
;	COMDAT ??_R2SUR_GrantPowerup_OnEntry@@8
rdata$r	SEGMENT
??_R2SUR_GrantPowerup_OnEntry@@8 DD FLAT:??_R1A@?0A@EA@SUR_GrantPowerup_OnEntry@@8 ; SUR_GrantPowerup_OnEntry::`RTTI Base Class Array'
	DD	FLAT:??_R1A@?0A@EA@ScriptImpClass@@8
	DD	FLAT:??_R1A@?0A@EA@ScriptClass@@8
	DD	FLAT:??_R1A@?0A@EA@GameObjObserverClass@@8
rdata$r	ENDS
;	COMDAT ??_R3SUR_GrantPowerup_OnEntry@@8
rdata$r	SEGMENT
??_R3SUR_GrantPowerup_OnEntry@@8 DD 00H			; SUR_GrantPowerup_OnEntry::`RTTI Class Hierarchy Descriptor'
	DD	00H
	DD	04H
	DD	FLAT:??_R2SUR_GrantPowerup_OnEntry@@8
rdata$r	ENDS
;	COMDAT ??_R0?AVSUR_GrantPowerup_OnEntry@@@8
_DATA	SEGMENT
??_R0?AVSUR_GrantPowerup_OnEntry@@@8 DD FLAT:??_7type_info@@6B@ ; SUR_GrantPowerup_OnEntry `RTTI Type Descriptor'
	DD	00H
	DB	'.?AVSUR_GrantPowerup_OnEntry@@', 00H
_DATA	ENDS
;	COMDAT ??_R4SUR_GrantPowerup_OnEntry@@6B@
rdata$r	SEGMENT
??_R4SUR_GrantPowerup_OnEntry@@6B@ DD 00H		; SUR_GrantPowerup_OnEntry::`RTTI Complete Object Locator'
	DD	00H
	DD	00H
	DD	FLAT:??_R0?AVSUR_GrantPowerup_OnEntry@@@8
	DD	FLAT:??_R3SUR_GrantPowerup_OnEntry@@8
rdata$r	ENDS
;	COMDAT ??_R1A@?0A@EA@SUR_Timed_Death@@8
rdata$r	SEGMENT
??_R1A@?0A@EA@SUR_Timed_Death@@8 DD FLAT:??_R0?AVSUR_Timed_Death@@@8 ; SUR_Timed_Death::`RTTI Base Class Descriptor at (0,-1,0,64)'
	DD	03H
	DD	00H
	DD	0ffffffffH
	DD	00H
	DD	040H
	DD	FLAT:??_R3SUR_Timed_Death@@8
rdata$r	ENDS
;	COMDAT ??_R2SUR_Timed_Death@@8
rdata$r	SEGMENT
??_R2SUR_Timed_Death@@8 DD FLAT:??_R1A@?0A@EA@SUR_Timed_Death@@8 ; SUR_Timed_Death::`RTTI Base Class Array'
	DD	FLAT:??_R1A@?0A@EA@ScriptImpClass@@8
	DD	FLAT:??_R1A@?0A@EA@ScriptClass@@8
	DD	FLAT:??_R1A@?0A@EA@GameObjObserverClass@@8
rdata$r	ENDS
;	COMDAT ??_R3SUR_Timed_Death@@8
rdata$r	SEGMENT
??_R3SUR_Timed_Death@@8 DD 00H				; SUR_Timed_Death::`RTTI Class Hierarchy Descriptor'
	DD	00H
	DD	04H
	DD	FLAT:??_R2SUR_Timed_Death@@8
rdata$r	ENDS
;	COMDAT ??_R0?AVSUR_Timed_Death@@@8
_DATA	SEGMENT
??_R0?AVSUR_Timed_Death@@@8 DD FLAT:??_7type_info@@6B@	; SUR_Timed_Death `RTTI Type Descriptor'
	DD	00H
	DB	'.?AVSUR_Timed_Death@@', 00H
_DATA	ENDS
;	COMDAT ??_R4SUR_Timed_Death@@6B@
rdata$r	SEGMENT
??_R4SUR_Timed_Death@@6B@ DD 00H			; SUR_Timed_Death::`RTTI Complete Object Locator'
	DD	00H
	DD	00H
	DD	FLAT:??_R0?AVSUR_Timed_Death@@@8
	DD	FLAT:??_R3SUR_Timed_Death@@8
rdata$r	ENDS
;	COMDAT ??_R1A@?0A@EA@SUR_Dep_Turret@@8
rdata$r	SEGMENT
??_R1A@?0A@EA@SUR_Dep_Turret@@8 DD FLAT:??_R0?AVSUR_Dep_Turret@@@8 ; SUR_Dep_Turret::`RTTI Base Class Descriptor at (0,-1,0,64)'
	DD	03H
	DD	00H
	DD	0ffffffffH
	DD	00H
	DD	040H
	DD	FLAT:??_R3SUR_Dep_Turret@@8
rdata$r	ENDS
;	COMDAT ??_R2SUR_Dep_Turret@@8
rdata$r	SEGMENT
??_R2SUR_Dep_Turret@@8 DD FLAT:??_R1A@?0A@EA@SUR_Dep_Turret@@8 ; SUR_Dep_Turret::`RTTI Base Class Array'
	DD	FLAT:??_R1A@?0A@EA@ScriptImpClass@@8
	DD	FLAT:??_R1A@?0A@EA@ScriptClass@@8
	DD	FLAT:??_R1A@?0A@EA@GameObjObserverClass@@8
rdata$r	ENDS
;	COMDAT ??_R3SUR_Dep_Turret@@8
rdata$r	SEGMENT
??_R3SUR_Dep_Turret@@8 DD 00H				; SUR_Dep_Turret::`RTTI Class Hierarchy Descriptor'
	DD	00H
	DD	04H
	DD	FLAT:??_R2SUR_Dep_Turret@@8
rdata$r	ENDS
;	COMDAT ??_R0?AVSUR_Dep_Turret@@@8
_DATA	SEGMENT
??_R0?AVSUR_Dep_Turret@@@8 DD FLAT:??_7type_info@@6B@	; SUR_Dep_Turret `RTTI Type Descriptor'
	DD	00H
	DB	'.?AVSUR_Dep_Turret@@', 00H
_DATA	ENDS
;	COMDAT ??_R4SUR_Dep_Turret@@6B@
rdata$r	SEGMENT
??_R4SUR_Dep_Turret@@6B@ DD 00H				; SUR_Dep_Turret::`RTTI Complete Object Locator'
	DD	00H
	DD	00H
	DD	FLAT:??_R0?AVSUR_Dep_Turret@@@8
	DD	FLAT:??_R3SUR_Dep_Turret@@8
rdata$r	ENDS
;	COMDAT ??_R1A@?0A@EA@SUR_Chinook_AI@@8
rdata$r	SEGMENT
??_R1A@?0A@EA@SUR_Chinook_AI@@8 DD FLAT:??_R0?AVSUR_Chinook_AI@@@8 ; SUR_Chinook_AI::`RTTI Base Class Descriptor at (0,-1,0,64)'
	DD	03H
	DD	00H
	DD	0ffffffffH
	DD	00H
	DD	040H
	DD	FLAT:??_R3SUR_Chinook_AI@@8
rdata$r	ENDS
;	COMDAT ??_R2SUR_Chinook_AI@@8
rdata$r	SEGMENT
??_R2SUR_Chinook_AI@@8 DD FLAT:??_R1A@?0A@EA@SUR_Chinook_AI@@8 ; SUR_Chinook_AI::`RTTI Base Class Array'
	DD	FLAT:??_R1A@?0A@EA@ScriptImpClass@@8
	DD	FLAT:??_R1A@?0A@EA@ScriptClass@@8
	DD	FLAT:??_R1A@?0A@EA@GameObjObserverClass@@8
rdata$r	ENDS
;	COMDAT ??_R3SUR_Chinook_AI@@8
rdata$r	SEGMENT
??_R3SUR_Chinook_AI@@8 DD 00H				; SUR_Chinook_AI::`RTTI Class Hierarchy Descriptor'
	DD	00H
	DD	04H
	DD	FLAT:??_R2SUR_Chinook_AI@@8
rdata$r	ENDS
;	COMDAT ??_R0?AVSUR_Chinook_AI@@@8
_DATA	SEGMENT
??_R0?AVSUR_Chinook_AI@@@8 DD FLAT:??_7type_info@@6B@	; SUR_Chinook_AI `RTTI Type Descriptor'
	DD	00H
	DB	'.?AVSUR_Chinook_AI@@', 00H
_DATA	ENDS
;	COMDAT ??_R4SUR_Chinook_AI@@6B@
rdata$r	SEGMENT
??_R4SUR_Chinook_AI@@6B@ DD 00H				; SUR_Chinook_AI::`RTTI Complete Object Locator'
	DD	00H
	DD	00H
	DD	FLAT:??_R0?AVSUR_Chinook_AI@@@8
	DD	FLAT:??_R3SUR_Chinook_AI@@8
rdata$r	ENDS
;	COMDAT ??_R1A@?0A@EA@SUR_Orca_AI@@8
rdata$r	SEGMENT
??_R1A@?0A@EA@SUR_Orca_AI@@8 DD FLAT:??_R0?AVSUR_Orca_AI@@@8 ; SUR_Orca_AI::`RTTI Base Class Descriptor at (0,-1,0,64)'
	DD	03H
	DD	00H
	DD	0ffffffffH
	DD	00H
	DD	040H
	DD	FLAT:??_R3SUR_Orca_AI@@8
rdata$r	ENDS
;	COMDAT ??_R2SUR_Orca_AI@@8
rdata$r	SEGMENT
??_R2SUR_Orca_AI@@8 DD FLAT:??_R1A@?0A@EA@SUR_Orca_AI@@8 ; SUR_Orca_AI::`RTTI Base Class Array'
	DD	FLAT:??_R1A@?0A@EA@ScriptImpClass@@8
	DD	FLAT:??_R1A@?0A@EA@ScriptClass@@8
	DD	FLAT:??_R1A@?0A@EA@GameObjObserverClass@@8
rdata$r	ENDS
;	COMDAT ??_R3SUR_Orca_AI@@8
rdata$r	SEGMENT
??_R3SUR_Orca_AI@@8 DD 00H				; SUR_Orca_AI::`RTTI Class Hierarchy Descriptor'
	DD	00H
	DD	04H
	DD	FLAT:??_R2SUR_Orca_AI@@8
rdata$r	ENDS
;	COMDAT ??_R0?AVSUR_Orca_AI@@@8
_DATA	SEGMENT
??_R0?AVSUR_Orca_AI@@@8 DD FLAT:??_7type_info@@6B@	; SUR_Orca_AI `RTTI Type Descriptor'
	DD	00H
	DB	'.?AVSUR_Orca_AI@@', 00H
_DATA	ENDS
;	COMDAT ??_R4SUR_Orca_AI@@6B@
rdata$r	SEGMENT
??_R4SUR_Orca_AI@@6B@ DD 00H				; SUR_Orca_AI::`RTTI Complete Object Locator'
	DD	00H
	DD	00H
	DD	FLAT:??_R0?AVSUR_Orca_AI@@@8
	DD	FLAT:??_R3SUR_Orca_AI@@8
rdata$r	ENDS
;	COMDAT ??_R1A@?0A@EA@SUR_APC_AI@@8
rdata$r	SEGMENT
??_R1A@?0A@EA@SUR_APC_AI@@8 DD FLAT:??_R0?AVSUR_APC_AI@@@8 ; SUR_APC_AI::`RTTI Base Class Descriptor at (0,-1,0,64)'
	DD	03H
	DD	00H
	DD	0ffffffffH
	DD	00H
	DD	040H
	DD	FLAT:??_R3SUR_APC_AI@@8
rdata$r	ENDS
;	COMDAT ??_R2SUR_APC_AI@@8
rdata$r	SEGMENT
??_R2SUR_APC_AI@@8 DD FLAT:??_R1A@?0A@EA@SUR_APC_AI@@8	; SUR_APC_AI::`RTTI Base Class Array'
	DD	FLAT:??_R1A@?0A@EA@ScriptImpClass@@8
	DD	FLAT:??_R1A@?0A@EA@ScriptClass@@8
	DD	FLAT:??_R1A@?0A@EA@GameObjObserverClass@@8
rdata$r	ENDS
;	COMDAT ??_R3SUR_APC_AI@@8
rdata$r	SEGMENT
??_R3SUR_APC_AI@@8 DD 00H				; SUR_APC_AI::`RTTI Class Hierarchy Descriptor'
	DD	00H
	DD	04H
	DD	FLAT:??_R2SUR_APC_AI@@8
rdata$r	ENDS
;	COMDAT ??_R0?AVSUR_APC_AI@@@8
_DATA	SEGMENT
??_R0?AVSUR_APC_AI@@@8 DD FLAT:??_7type_info@@6B@	; SUR_APC_AI `RTTI Type Descriptor'
	DD	00H
	DB	'.?AVSUR_APC_AI@@', 00H
_DATA	ENDS
;	COMDAT ??_R4SUR_APC_AI@@6B@
rdata$r	SEGMENT
??_R4SUR_APC_AI@@6B@ DD 00H				; SUR_APC_AI::`RTTI Complete Object Locator'
	DD	00H
	DD	00H
	DD	FLAT:??_R0?AVSUR_APC_AI@@@8
	DD	FLAT:??_R3SUR_APC_AI@@8
rdata$r	ENDS
;	COMDAT ??_R1A@?0A@EA@SUR_New_PT_Reciever@@8
rdata$r	SEGMENT
??_R1A@?0A@EA@SUR_New_PT_Reciever@@8 DD FLAT:??_R0?AVSUR_New_PT_Reciever@@@8 ; SUR_New_PT_Reciever::`RTTI Base Class Descriptor at (0,-1,0,64)'
	DD	03H
	DD	00H
	DD	0ffffffffH
	DD	00H
	DD	040H
	DD	FLAT:??_R3SUR_New_PT_Reciever@@8
rdata$r	ENDS
;	COMDAT ??_R2SUR_New_PT_Reciever@@8
rdata$r	SEGMENT
??_R2SUR_New_PT_Reciever@@8 DD FLAT:??_R1A@?0A@EA@SUR_New_PT_Reciever@@8 ; SUR_New_PT_Reciever::`RTTI Base Class Array'
	DD	FLAT:??_R1A@?0A@EA@ScriptImpClass@@8
	DD	FLAT:??_R1A@?0A@EA@ScriptClass@@8
	DD	FLAT:??_R1A@?0A@EA@GameObjObserverClass@@8
rdata$r	ENDS
;	COMDAT ??_R3SUR_New_PT_Reciever@@8
rdata$r	SEGMENT
??_R3SUR_New_PT_Reciever@@8 DD 00H			; SUR_New_PT_Reciever::`RTTI Class Hierarchy Descriptor'
	DD	00H
	DD	04H
	DD	FLAT:??_R2SUR_New_PT_Reciever@@8
rdata$r	ENDS
;	COMDAT ??_R0?AVSUR_New_PT_Reciever@@@8
_DATA	SEGMENT
??_R0?AVSUR_New_PT_Reciever@@@8 DD FLAT:??_7type_info@@6B@ ; SUR_New_PT_Reciever `RTTI Type Descriptor'
	DD	00H
	DB	'.?AVSUR_New_PT_Reciever@@', 00H
_DATA	ENDS
;	COMDAT ??_R4SUR_New_PT_Reciever@@6B@
rdata$r	SEGMENT
??_R4SUR_New_PT_Reciever@@6B@ DD 00H			; SUR_New_PT_Reciever::`RTTI Complete Object Locator'
	DD	00H
	DD	00H
	DD	FLAT:??_R0?AVSUR_New_PT_Reciever@@@8
	DD	FLAT:??_R3SUR_New_PT_Reciever@@8
rdata$r	ENDS
;	COMDAT ??_R1A@?0A@EA@SUR_New_PT@@8
rdata$r	SEGMENT
??_R1A@?0A@EA@SUR_New_PT@@8 DD FLAT:??_R0?AVSUR_New_PT@@@8 ; SUR_New_PT::`RTTI Base Class Descriptor at (0,-1,0,64)'
	DD	03H
	DD	00H
	DD	0ffffffffH
	DD	00H
	DD	040H
	DD	FLAT:??_R3SUR_New_PT@@8
rdata$r	ENDS
;	COMDAT ??_R2SUR_New_PT@@8
rdata$r	SEGMENT
??_R2SUR_New_PT@@8 DD FLAT:??_R1A@?0A@EA@SUR_New_PT@@8	; SUR_New_PT::`RTTI Base Class Array'
	DD	FLAT:??_R1A@?0A@EA@ScriptImpClass@@8
	DD	FLAT:??_R1A@?0A@EA@ScriptClass@@8
	DD	FLAT:??_R1A@?0A@EA@GameObjObserverClass@@8
rdata$r	ENDS
;	COMDAT ??_R3SUR_New_PT@@8
rdata$r	SEGMENT
??_R3SUR_New_PT@@8 DD 00H				; SUR_New_PT::`RTTI Class Hierarchy Descriptor'
	DD	00H
	DD	04H
	DD	FLAT:??_R2SUR_New_PT@@8
rdata$r	ENDS
;	COMDAT ??_R0?AVSUR_New_PT@@@8
_DATA	SEGMENT
??_R0?AVSUR_New_PT@@@8 DD FLAT:??_7type_info@@6B@	; SUR_New_PT `RTTI Type Descriptor'
	DD	00H
	DB	'.?AVSUR_New_PT@@', 00H
_DATA	ENDS
;	COMDAT ??_R4SUR_New_PT@@6B@
rdata$r	SEGMENT
??_R4SUR_New_PT@@6B@ DD 00H				; SUR_New_PT::`RTTI Complete Object Locator'
	DD	00H
	DD	00H
	DD	FLAT:??_R0?AVSUR_New_PT@@@8
	DD	FLAT:??_R3SUR_New_PT@@8
rdata$r	ENDS
;	COMDAT ??_R1A@?0A@EA@SUR_Obj_Destroyer@@8
rdata$r	SEGMENT
??_R1A@?0A@EA@SUR_Obj_Destroyer@@8 DD FLAT:??_R0?AVSUR_Obj_Destroyer@@@8 ; SUR_Obj_Destroyer::`RTTI Base Class Descriptor at (0,-1,0,64)'
	DD	03H
	DD	00H
	DD	0ffffffffH
	DD	00H
	DD	040H
	DD	FLAT:??_R3SUR_Obj_Destroyer@@8
rdata$r	ENDS
;	COMDAT ??_R2SUR_Obj_Destroyer@@8
rdata$r	SEGMENT
??_R2SUR_Obj_Destroyer@@8 DD FLAT:??_R1A@?0A@EA@SUR_Obj_Destroyer@@8 ; SUR_Obj_Destroyer::`RTTI Base Class Array'
	DD	FLAT:??_R1A@?0A@EA@ScriptImpClass@@8
	DD	FLAT:??_R1A@?0A@EA@ScriptClass@@8
	DD	FLAT:??_R1A@?0A@EA@GameObjObserverClass@@8
rdata$r	ENDS
;	COMDAT ??_R3SUR_Obj_Destroyer@@8
rdata$r	SEGMENT
??_R3SUR_Obj_Destroyer@@8 DD 00H			; SUR_Obj_Destroyer::`RTTI Class Hierarchy Descriptor'
	DD	00H
	DD	04H
	DD	FLAT:??_R2SUR_Obj_Destroyer@@8
rdata$r	ENDS
;	COMDAT ??_R0?AVSUR_Obj_Destroyer@@@8
_DATA	SEGMENT
??_R0?AVSUR_Obj_Destroyer@@@8 DD FLAT:??_7type_info@@6B@ ; SUR_Obj_Destroyer `RTTI Type Descriptor'
	DD	00H
	DB	'.?AVSUR_Obj_Destroyer@@', 00H
_DATA	ENDS
;	COMDAT ??_R4SUR_Obj_Destroyer@@6B@
rdata$r	SEGMENT
??_R4SUR_Obj_Destroyer@@6B@ DD 00H			; SUR_Obj_Destroyer::`RTTI Complete Object Locator'
	DD	00H
	DD	00H
	DD	FLAT:??_R0?AVSUR_Obj_Destroyer@@@8
	DD	FLAT:??_R3SUR_Obj_Destroyer@@8
rdata$r	ENDS
;	COMDAT ??_R1A@?0A@EA@SUR_NHB_Soldier@@8
rdata$r	SEGMENT
??_R1A@?0A@EA@SUR_NHB_Soldier@@8 DD FLAT:??_R0?AVSUR_NHB_Soldier@@@8 ; SUR_NHB_Soldier::`RTTI Base Class Descriptor at (0,-1,0,64)'
	DD	03H
	DD	00H
	DD	0ffffffffH
	DD	00H
	DD	040H
	DD	FLAT:??_R3SUR_NHB_Soldier@@8
rdata$r	ENDS
;	COMDAT ??_R2SUR_NHB_Soldier@@8
rdata$r	SEGMENT
??_R2SUR_NHB_Soldier@@8 DD FLAT:??_R1A@?0A@EA@SUR_NHB_Soldier@@8 ; SUR_NHB_Soldier::`RTTI Base Class Array'
	DD	FLAT:??_R1A@?0A@EA@ScriptImpClass@@8
	DD	FLAT:??_R1A@?0A@EA@ScriptClass@@8
	DD	FLAT:??_R1A@?0A@EA@GameObjObserverClass@@8
rdata$r	ENDS
;	COMDAT ??_R3SUR_NHB_Soldier@@8
rdata$r	SEGMENT
??_R3SUR_NHB_Soldier@@8 DD 00H				; SUR_NHB_Soldier::`RTTI Class Hierarchy Descriptor'
	DD	00H
	DD	04H
	DD	FLAT:??_R2SUR_NHB_Soldier@@8
rdata$r	ENDS
;	COMDAT ??_R0?AVSUR_NHB_Soldier@@@8
_DATA	SEGMENT
??_R0?AVSUR_NHB_Soldier@@@8 DD FLAT:??_7type_info@@6B@	; SUR_NHB_Soldier `RTTI Type Descriptor'
	DD	00H
	DB	'.?AVSUR_NHB_Soldier@@', 00H
_DATA	ENDS
;	COMDAT ??_R4SUR_NHB_Soldier@@6B@
rdata$r	SEGMENT
??_R4SUR_NHB_Soldier@@6B@ DD 00H			; SUR_NHB_Soldier::`RTTI Complete Object Locator'
	DD	00H
	DD	00H
	DD	FLAT:??_R0?AVSUR_NHB_Soldier@@@8
	DD	FLAT:??_R3SUR_NHB_Soldier@@8
rdata$r	ENDS
;	COMDAT ??_R1A@?0A@EA@SUR_NHB@@8
rdata$r	SEGMENT
??_R1A@?0A@EA@SUR_NHB@@8 DD FLAT:??_R0?AVSUR_NHB@@@8	; SUR_NHB::`RTTI Base Class Descriptor at (0,-1,0,64)'
	DD	03H
	DD	00H
	DD	0ffffffffH
	DD	00H
	DD	040H
	DD	FLAT:??_R3SUR_NHB@@8
rdata$r	ENDS
;	COMDAT ??_R2SUR_NHB@@8
rdata$r	SEGMENT
??_R2SUR_NHB@@8 DD FLAT:??_R1A@?0A@EA@SUR_NHB@@8	; SUR_NHB::`RTTI Base Class Array'
	DD	FLAT:??_R1A@?0A@EA@ScriptImpClass@@8
	DD	FLAT:??_R1A@?0A@EA@ScriptClass@@8
	DD	FLAT:??_R1A@?0A@EA@GameObjObserverClass@@8
rdata$r	ENDS
;	COMDAT ??_R3SUR_NHB@@8
rdata$r	SEGMENT
??_R3SUR_NHB@@8 DD 00H					; SUR_NHB::`RTTI Class Hierarchy Descriptor'
	DD	00H
	DD	04H
	DD	FLAT:??_R2SUR_NHB@@8
rdata$r	ENDS
;	COMDAT ??_R0?AVSUR_NHB@@@8
_DATA	SEGMENT
??_R0?AVSUR_NHB@@@8 DD FLAT:??_7type_info@@6B@		; SUR_NHB `RTTI Type Descriptor'
	DD	00H
	DB	'.?AVSUR_NHB@@', 00H
_DATA	ENDS
;	COMDAT ??_R4SUR_NHB@@6B@
rdata$r	SEGMENT
??_R4SUR_NHB@@6B@ DD 00H				; SUR_NHB::`RTTI Complete Object Locator'
	DD	00H
	DD	00H
	DD	FLAT:??_R0?AVSUR_NHB@@@8
	DD	FLAT:??_R3SUR_NHB@@8
rdata$r	ENDS
;	COMDAT ??_R1A@?0A@EA@SUR_MiniGen@@8
rdata$r	SEGMENT
??_R1A@?0A@EA@SUR_MiniGen@@8 DD FLAT:??_R0?AVSUR_MiniGen@@@8 ; SUR_MiniGen::`RTTI Base Class Descriptor at (0,-1,0,64)'
	DD	03H
	DD	00H
	DD	0ffffffffH
	DD	00H
	DD	040H
	DD	FLAT:??_R3SUR_MiniGen@@8
rdata$r	ENDS
;	COMDAT ??_R2SUR_MiniGen@@8
rdata$r	SEGMENT
??_R2SUR_MiniGen@@8 DD FLAT:??_R1A@?0A@EA@SUR_MiniGen@@8 ; SUR_MiniGen::`RTTI Base Class Array'
	DD	FLAT:??_R1A@?0A@EA@ScriptImpClass@@8
	DD	FLAT:??_R1A@?0A@EA@ScriptClass@@8
	DD	FLAT:??_R1A@?0A@EA@GameObjObserverClass@@8
rdata$r	ENDS
;	COMDAT ??_R3SUR_MiniGen@@8
rdata$r	SEGMENT
??_R3SUR_MiniGen@@8 DD 00H				; SUR_MiniGen::`RTTI Class Hierarchy Descriptor'
	DD	00H
	DD	04H
	DD	FLAT:??_R2SUR_MiniGen@@8
rdata$r	ENDS
;	COMDAT ??_R0?AVSUR_MiniGen@@@8
_DATA	SEGMENT
??_R0?AVSUR_MiniGen@@@8 DD FLAT:??_7type_info@@6B@	; SUR_MiniGen `RTTI Type Descriptor'
	DD	00H
	DB	'.?AVSUR_MiniGen@@', 00H
_DATA	ENDS
;	COMDAT ??_R4SUR_MiniGen@@6B@
rdata$r	SEGMENT
??_R4SUR_MiniGen@@6B@ DD 00H				; SUR_MiniGen::`RTTI Complete Object Locator'
	DD	00H
	DD	00H
	DD	FLAT:??_R0?AVSUR_MiniGen@@@8
	DD	FLAT:??_R3SUR_MiniGen@@8
rdata$r	ENDS
;	COMDAT ??_R1A@?0A@EA@SUR_Generator_Zone@@8
rdata$r	SEGMENT
??_R1A@?0A@EA@SUR_Generator_Zone@@8 DD FLAT:??_R0?AVSUR_Generator_Zone@@@8 ; SUR_Generator_Zone::`RTTI Base Class Descriptor at (0,-1,0,64)'
	DD	03H
	DD	00H
	DD	0ffffffffH
	DD	00H
	DD	040H
	DD	FLAT:??_R3SUR_Generator_Zone@@8
rdata$r	ENDS
;	COMDAT ??_R2SUR_Generator_Zone@@8
rdata$r	SEGMENT
??_R2SUR_Generator_Zone@@8 DD FLAT:??_R1A@?0A@EA@SUR_Generator_Zone@@8 ; SUR_Generator_Zone::`RTTI Base Class Array'
	DD	FLAT:??_R1A@?0A@EA@ScriptImpClass@@8
	DD	FLAT:??_R1A@?0A@EA@ScriptClass@@8
	DD	FLAT:??_R1A@?0A@EA@GameObjObserverClass@@8
rdata$r	ENDS
;	COMDAT ??_R3SUR_Generator_Zone@@8
rdata$r	SEGMENT
??_R3SUR_Generator_Zone@@8 DD 00H			; SUR_Generator_Zone::`RTTI Class Hierarchy Descriptor'
	DD	00H
	DD	04H
	DD	FLAT:??_R2SUR_Generator_Zone@@8
rdata$r	ENDS
;	COMDAT ??_R0?AVSUR_Generator_Zone@@@8
_DATA	SEGMENT
??_R0?AVSUR_Generator_Zone@@@8 DD FLAT:??_7type_info@@6B@ ; SUR_Generator_Zone `RTTI Type Descriptor'
	DD	00H
	DB	'.?AVSUR_Generator_Zone@@', 00H
_DATA	ENDS
;	COMDAT ??_R4SUR_Generator_Zone@@6B@
rdata$r	SEGMENT
??_R4SUR_Generator_Zone@@6B@ DD 00H			; SUR_Generator_Zone::`RTTI Complete Object Locator'
	DD	00H
	DD	00H
	DD	FLAT:??_R0?AVSUR_Generator_Zone@@@8
	DD	FLAT:??_R3SUR_Generator_Zone@@8
rdata$r	ENDS
;	COMDAT ??_R1A@?0A@EA@SUR_Spawn_Delay@@8
rdata$r	SEGMENT
??_R1A@?0A@EA@SUR_Spawn_Delay@@8 DD FLAT:??_R0?AVSUR_Spawn_Delay@@@8 ; SUR_Spawn_Delay::`RTTI Base Class Descriptor at (0,-1,0,64)'
	DD	03H
	DD	00H
	DD	0ffffffffH
	DD	00H
	DD	040H
	DD	FLAT:??_R3SUR_Spawn_Delay@@8
rdata$r	ENDS
;	COMDAT ??_R2SUR_Spawn_Delay@@8
rdata$r	SEGMENT
??_R2SUR_Spawn_Delay@@8 DD FLAT:??_R1A@?0A@EA@SUR_Spawn_Delay@@8 ; SUR_Spawn_Delay::`RTTI Base Class Array'
	DD	FLAT:??_R1A@?0A@EA@ScriptImpClass@@8
	DD	FLAT:??_R1A@?0A@EA@ScriptClass@@8
	DD	FLAT:??_R1A@?0A@EA@GameObjObserverClass@@8
rdata$r	ENDS
;	COMDAT ??_R3SUR_Spawn_Delay@@8
rdata$r	SEGMENT
??_R3SUR_Spawn_Delay@@8 DD 00H				; SUR_Spawn_Delay::`RTTI Class Hierarchy Descriptor'
	DD	00H
	DD	04H
	DD	FLAT:??_R2SUR_Spawn_Delay@@8
rdata$r	ENDS
;	COMDAT ??_R0?AVSUR_Spawn_Delay@@@8
_DATA	SEGMENT
??_R0?AVSUR_Spawn_Delay@@@8 DD FLAT:??_7type_info@@6B@	; SUR_Spawn_Delay `RTTI Type Descriptor'
	DD	00H
	DB	'.?AVSUR_Spawn_Delay@@', 00H
_DATA	ENDS
;	COMDAT ??_R4SUR_Spawn_Delay@@6B@
rdata$r	SEGMENT
??_R4SUR_Spawn_Delay@@6B@ DD 00H			; SUR_Spawn_Delay::`RTTI Complete Object Locator'
	DD	00H
	DD	00H
	DD	FLAT:??_R0?AVSUR_Spawn_Delay@@@8
	DD	FLAT:??_R3SUR_Spawn_Delay@@8
rdata$r	ENDS
;	COMDAT ??_R1A@?0A@EA@ScriptImpClass@@8
rdata$r	SEGMENT
??_R1A@?0A@EA@ScriptImpClass@@8 DD FLAT:??_R0?AVScriptImpClass@@@8 ; ScriptImpClass::`RTTI Base Class Descriptor at (0,-1,0,64)'
	DD	02H
	DD	00H
	DD	0ffffffffH
	DD	00H
	DD	040H
	DD	FLAT:??_R3ScriptImpClass@@8
rdata$r	ENDS
;	COMDAT ??_R2ScriptImpClass@@8
rdata$r	SEGMENT
??_R2ScriptImpClass@@8 DD FLAT:??_R1A@?0A@EA@ScriptImpClass@@8 ; ScriptImpClass::`RTTI Base Class Array'
	DD	FLAT:??_R1A@?0A@EA@ScriptClass@@8
	DD	FLAT:??_R1A@?0A@EA@GameObjObserverClass@@8
rdata$r	ENDS
;	COMDAT ??_R3ScriptImpClass@@8
rdata$r	SEGMENT
??_R3ScriptImpClass@@8 DD 00H				; ScriptImpClass::`RTTI Class Hierarchy Descriptor'
	DD	00H
	DD	03H
	DD	FLAT:??_R2ScriptImpClass@@8
rdata$r	ENDS
;	COMDAT ??_R0?AVScriptImpClass@@@8
_DATA	SEGMENT
??_R0?AVScriptImpClass@@@8 DD FLAT:??_7type_info@@6B@	; ScriptImpClass `RTTI Type Descriptor'
	DD	00H
	DB	'.?AVScriptImpClass@@', 00H
_DATA	ENDS
;	COMDAT ??_R4ScriptImpClass@@6B@
rdata$r	SEGMENT
??_R4ScriptImpClass@@6B@ DD 00H				; ScriptImpClass::`RTTI Complete Object Locator'
	DD	00H
	DD	00H
	DD	FLAT:??_R0?AVScriptImpClass@@@8
	DD	FLAT:??_R3ScriptImpClass@@8
rdata$r	ENDS
;	COMDAT ??_R4GameObjObserverClass@@6B@
rdata$r	SEGMENT
??_R4GameObjObserverClass@@6B@ DD 00H			; GameObjObserverClass::`RTTI Complete Object Locator'
	DD	00H
	DD	00H
	DD	FLAT:??_R0?AVGameObjObserverClass@@@8
	DD	FLAT:??_R3GameObjObserverClass@@8
rdata$r	ENDS
;	COMDAT ??_R2GameObjObserverClass@@8
rdata$r	SEGMENT
??_R2GameObjObserverClass@@8 DD FLAT:??_R1A@?0A@EA@GameObjObserverClass@@8 ; GameObjObserverClass::`RTTI Base Class Array'
rdata$r	ENDS
;	COMDAT ??_R3GameObjObserverClass@@8
rdata$r	SEGMENT
??_R3GameObjObserverClass@@8 DD 00H			; GameObjObserverClass::`RTTI Class Hierarchy Descriptor'
	DD	00H
	DD	01H
	DD	FLAT:??_R2GameObjObserverClass@@8
rdata$r	ENDS
;	COMDAT ??_R0?AVGameObjObserverClass@@@8
_DATA	SEGMENT
??_R0?AVGameObjObserverClass@@@8 DD FLAT:??_7type_info@@6B@ ; GameObjObserverClass `RTTI Type Descriptor'
	DD	00H
	DB	'.?AVGameObjObserverClass@@', 00H
_DATA	ENDS
;	COMDAT ??_R1A@?0A@EA@GameObjObserverClass@@8
rdata$r	SEGMENT
??_R1A@?0A@EA@GameObjObserverClass@@8 DD FLAT:??_R0?AVGameObjObserverClass@@@8 ; GameObjObserverClass::`RTTI Base Class Descriptor at (0,-1,0,64)'
	DD	00H
	DD	00H
	DD	0ffffffffH
	DD	00H
	DD	040H
	DD	FLAT:??_R3GameObjObserverClass@@8
rdata$r	ENDS
;	COMDAT ??_R1A@?0A@EA@ScriptClass@@8
rdata$r	SEGMENT
??_R1A@?0A@EA@ScriptClass@@8 DD FLAT:??_R0?AVScriptClass@@@8 ; ScriptClass::`RTTI Base Class Descriptor at (0,-1,0,64)'
	DD	01H
	DD	00H
	DD	0ffffffffH
	DD	00H
	DD	040H
	DD	FLAT:??_R3ScriptClass@@8
rdata$r	ENDS
;	COMDAT ??_R2ScriptClass@@8
rdata$r	SEGMENT
??_R2ScriptClass@@8 DD FLAT:??_R1A@?0A@EA@ScriptClass@@8 ; ScriptClass::`RTTI Base Class Array'
	DD	FLAT:??_R1A@?0A@EA@GameObjObserverClass@@8
rdata$r	ENDS
;	COMDAT ??_R3ScriptClass@@8
rdata$r	SEGMENT
??_R3ScriptClass@@8 DD 00H				; ScriptClass::`RTTI Class Hierarchy Descriptor'
	DD	00H
	DD	02H
	DD	FLAT:??_R2ScriptClass@@8
rdata$r	ENDS
;	COMDAT ??_R0?AVScriptClass@@@8
_DATA	SEGMENT
??_R0?AVScriptClass@@@8 DD FLAT:??_7type_info@@6B@	; ScriptClass `RTTI Type Descriptor'
	DD	00H
	DB	'.?AVScriptClass@@', 00H
_DATA	ENDS
;	COMDAT ??_R4ScriptClass@@6B@
rdata$r	SEGMENT
??_R4ScriptClass@@6B@ DD 00H				; ScriptClass::`RTTI Complete Object Locator'
	DD	00H
	DD	00H
	DD	FLAT:??_R0?AVScriptClass@@@8
	DD	FLAT:??_R3ScriptClass@@8
rdata$r	ENDS
;	COMDAT ??_R1A@?0A@EA@ScriptFactory@@8
rdata$r	SEGMENT
??_R1A@?0A@EA@ScriptFactory@@8 DD FLAT:??_R0?AVScriptFactory@@@8 ; ScriptFactory::`RTTI Base Class Descriptor at (0,-1,0,64)'
	DD	00H
	DD	00H
	DD	0ffffffffH
	DD	00H
	DD	040H
	DD	FLAT:??_R3ScriptFactory@@8
rdata$r	ENDS
;	COMDAT ??_R2ScriptFactory@@8
rdata$r	SEGMENT
??_R2ScriptFactory@@8 DD FLAT:??_R1A@?0A@EA@ScriptFactory@@8 ; ScriptFactory::`RTTI Base Class Array'
rdata$r	ENDS
;	COMDAT ??_R3ScriptFactory@@8
rdata$r	SEGMENT
??_R3ScriptFactory@@8 DD 00H				; ScriptFactory::`RTTI Class Hierarchy Descriptor'
	DD	00H
	DD	01H
	DD	FLAT:??_R2ScriptFactory@@8
rdata$r	ENDS
;	COMDAT ??_R0?AVScriptFactory@@@8
_DATA	SEGMENT
??_R0?AVScriptFactory@@@8 DD FLAT:??_7type_info@@6B@	; ScriptFactory `RTTI Type Descriptor'
	DD	00H
	DB	'.?AVScriptFactory@@', 00H
_DATA	ENDS
;	COMDAT ??_R4ScriptFactory@@6B@
rdata$r	SEGMENT
??_R4ScriptFactory@@6B@ DD 00H				; ScriptFactory::`RTTI Complete Object Locator'
	DD	00H
	DD	00H
	DD	FLAT:??_R0?AVScriptFactory@@@8
	DD	FLAT:??_R3ScriptFactory@@8
rdata$r	ENDS
;	COMDAT ??_C@_0DJ@EEEDKFIH@ScriptRegistrant?$DMclass?5SUR_Grant@
CONST	SEGMENT
??_C@_0DJ@EEEDKFIH@ScriptRegistrant?$DMclass?5SUR_Grant@ DB 'ScriptRegist'
	DB	'rant<class SUR_GrantPowerup_OnEntry>::Create', 00H ; `string'
CONST	ENDS
;	COMDAT ??_C@_0DA@FKNKJHCG@ScriptRegistrant?$DMclass?5SUR_Timed@
CONST	SEGMENT
??_C@_0DA@FKNKJHCG@ScriptRegistrant?$DMclass?5SUR_Timed@ DB 'ScriptRegist'
	DB	'rant<class SUR_Timed_Death>::Create', 00H	; `string'
CONST	ENDS
;	COMDAT ??_C@_0CP@PIFLBOGP@ScriptRegistrant?$DMclass?5SUR_Dep_T@
CONST	SEGMENT
??_C@_0CP@PIFLBOGP@ScriptRegistrant?$DMclass?5SUR_Dep_T@ DB 'ScriptRegist'
	DB	'rant<class SUR_Dep_Turret>::Create', 00H	; `string'
CONST	ENDS
;	COMDAT ??_C@_0CP@KBBIOMO@ScriptRegistrant?$DMclass?5SUR_Chino@
CONST	SEGMENT
??_C@_0CP@KBBIOMO@ScriptRegistrant?$DMclass?5SUR_Chino@ DB 'ScriptRegistr'
	DB	'ant<class SUR_Chinook_AI>::Create', 00H	; `string'
CONST	ENDS
;	COMDAT ??_C@_0CM@EGEAHCJA@ScriptRegistrant?$DMclass?5SUR_Orca_@
CONST	SEGMENT
??_C@_0CM@EGEAHCJA@ScriptRegistrant?$DMclass?5SUR_Orca_@ DB 'ScriptRegist'
	DB	'rant<class SUR_Orca_AI>::Create', 00H	; `string'
CONST	ENDS
;	COMDAT ??_C@_0CL@JAPNFDGP@ScriptRegistrant?$DMclass?5SUR_APC_A@
CONST	SEGMENT
??_C@_0CL@JAPNFDGP@ScriptRegistrant?$DMclass?5SUR_APC_A@ DB 'ScriptRegist'
	DB	'rant<class SUR_APC_AI>::Create', 00H	; `string'
CONST	ENDS
;	COMDAT ??_C@_0DE@KNMMJHAP@ScriptRegistrant?$DMclass?5SUR_New_P@
CONST	SEGMENT
??_C@_0DE@KNMMJHAP@ScriptRegistrant?$DMclass?5SUR_New_P@ DB 'ScriptRegist'
	DB	'rant<class SUR_New_PT_Reciever>::Create', 00H ; `string'
CONST	ENDS
;	COMDAT ??_C@_0CL@KBJCMIPP@ScriptRegistrant?$DMclass?5SUR_New_P@
CONST	SEGMENT
??_C@_0CL@KBJCMIPP@ScriptRegistrant?$DMclass?5SUR_New_P@ DB 'ScriptRegist'
	DB	'rant<class SUR_New_PT>::Create', 00H	; `string'
CONST	ENDS
;	COMDAT ??_C@_0DC@KDOJNHEC@ScriptRegistrant?$DMclass?5SUR_Obj_D@
CONST	SEGMENT
??_C@_0DC@KDOJNHEC@ScriptRegistrant?$DMclass?5SUR_Obj_D@ DB 'ScriptRegist'
	DB	'rant<class SUR_Obj_Destroyer>::Create', 00H	; `string'
CONST	ENDS
;	COMDAT ??_C@_0DA@BIDEEIAA@ScriptRegistrant?$DMclass?5SUR_NHB_S@
CONST	SEGMENT
??_C@_0DA@BIDEEIAA@ScriptRegistrant?$DMclass?5SUR_NHB_S@ DB 'ScriptRegist'
	DB	'rant<class SUR_NHB_Soldier>::Create', 00H	; `string'
CONST	ENDS
;	COMDAT ??_C@_0CI@LNPJCONE@ScriptRegistrant?$DMclass?5SUR_NHB?$DO?3@
CONST	SEGMENT
??_C@_0CI@LNPJCONE@ScriptRegistrant?$DMclass?5SUR_NHB?$DO?3@ DB 'ScriptRe'
	DB	'gistrant<class SUR_NHB>::Create', 00H	; `string'
CONST	ENDS
;	COMDAT ??_C@_0CM@LLEDJECK@ScriptRegistrant?$DMclass?5SUR_MiniG@
CONST	SEGMENT
??_C@_0CM@LLEDJECK@ScriptRegistrant?$DMclass?5SUR_MiniG@ DB 'ScriptRegist'
	DB	'rant<class SUR_MiniGen>::Create', 00H	; `string'
CONST	ENDS
;	COMDAT ??_C@_0DD@IBJAKMHL@ScriptRegistrant?$DMclass?5SUR_Gener@
CONST	SEGMENT
??_C@_0DD@IBJAKMHL@ScriptRegistrant?$DMclass?5SUR_Gener@ DB 'ScriptRegist'
	DB	'rant<class SUR_Generator_Zone>::Create', 00H ; `string'
CONST	ENDS
;	COMDAT ??_C@_1M@HLGKFCJM@?$AAf?$AAa?$AAl?$AAs?$AAe?$AA?$AA@
CONST	SEGMENT
??_C@_1M@HLGKFCJM@?$AAf?$AAa?$AAl?$AAs?$AAe?$AA?$AA@ DB 'f', 00H, 'a', 00H
	DB	'l', 00H, 's', 00H, 'e', 00H, 00H, 00H	; `string'
CONST	ENDS
;	COMDAT ??_C@_1GG@OGNLNBPD@?$AAx?$AA?3?$AA?2?$AAg?$AAi?$AAt?$AAh?$AAu?$AAb?$AA?2?$AAr?$AAe?$AAn?$AAe?$AAg?$AAa?$AAd?$AAe?$AA?2?$AAd?$AAr?$AAa?$AAg?$AAo?$AAn?$AAa?$AAd?$AAe?$AA_?$AAr?$AAx?$AAd@
CONST	SEGMENT
??_C@_1GG@OGNLNBPD@?$AAx?$AA?3?$AA?2?$AAg?$AAi?$AAt?$AAh?$AAu?$AAb?$AA?2?$AAr?$AAe?$AAn?$AAe?$AAg?$AAa?$AAd?$AAe?$AA?2?$AAd?$AAr?$AAa?$AAg?$AAo?$AAn?$AAa?$AAd?$AAe?$AA_?$AAr?$AAx?$AAd@ DB 'x'
	DB	00H, ':', 00H, '\', 00H, 'g', 00H, 'i', 00H, 't', 00H, 'h', 00H
	DB	'u', 00H, 'b', 00H, '\', 00H, 'r', 00H, 'e', 00H, 'n', 00H, 'e'
	DB	00H, 'g', 00H, 'a', 00H, 'd', 00H, 'e', 00H, '\', 00H, 'd', 00H
	DB	'r', 00H, 'a', 00H, 'g', 00H, 'o', 00H, 'n', 00H, 'a', 00H, 'd'
	DB	00H, 'e', 00H, '_', 00H, 'r', 00H, 'x', 00H, 'd', 00H, '\', 00H
	DB	's', 00H, 'c', 00H, 'r', 00H, 'i', 00H, 'p', 00H, 't', 00H, 's'
	DB	00H, '\', 00H, 's', 00H, 'c', 00H, 'r', 00H, 'i', 00H, 'p', 00H
	DB	't', 00H, 's', 00H, '.', 00H, 'h', 00H, 00H, 00H ; `string'
CONST	ENDS
;	COMDAT ??_C@_0DD@KMKBFFOF@x?3?2github?2renegade?2dragonade_rxd@
CONST	SEGMENT
??_C@_0DD@KMKBFFOF@x?3?2github?2renegade?2dragonade_rxd@ DB 'x:\github\re'
	DB	'negade\dragonade_rxd\scripts\scripts.h', 00H ; `string'
CONST	ENDS
;	COMDAT ??_C@_0DA@GODKEOJD@ScriptRegistrant?$DMclass?5SUR_Spawn@
CONST	SEGMENT
??_C@_0DA@GODKEOJD@ScriptRegistrant?$DMclass?5SUR_Spawn@ DB 'ScriptRegist'
	DB	'rant<class SUR_Spawn_Delay>::Create', 00H	; `string'
CONST	ENDS
;	COMDAT ??_C@_0BJ@KLABFPHM@SUR_GrantPowerup_OnEntry?$AA@
CONST	SEGMENT
??_C@_0BJ@KLABFPHM@SUR_GrantPowerup_OnEntry?$AA@ DB 'SUR_GrantPowerup_OnE'
	DB	'ntry', 00H					; `string'
CONST	ENDS
;	COMDAT ??_C@_0BN@OELIADGD@Preset?3string?0Powerup?3string?$AA@
CONST	SEGMENT
??_C@_0BN@OELIADGD@Preset?3string?0Powerup?3string?$AA@ DB 'Preset:string'
	DB	',Powerup:string', 00H			; `string'
CONST	ENDS
;	COMDAT ??_7?$ScriptRegistrant@VSUR_GrantPowerup_OnEntry@@@@6B@
CONST	SEGMENT
??_7?$ScriptRegistrant@VSUR_GrantPowerup_OnEntry@@@@6B@ DD FLAT:??_R4?$ScriptRegistrant@VSUR_GrantPowerup_OnEntry@@@@6B@ ; ScriptRegistrant<SUR_GrantPowerup_OnEntry>::`vftable'
	DD	FLAT:??_E?$ScriptRegistrant@VSUR_GrantPowerup_OnEntry@@@@UAEPAXI@Z
	DD	FLAT:?Create@?$ScriptRegistrant@VSUR_GrantPowerup_OnEntry@@@@UAEPAVScriptImpClass@@XZ
CONST	ENDS
;	COMDAT ??_C@_0BA@LIDMMLAJ@SUR_Timed_Death?$AA@
CONST	SEGMENT
??_C@_0BA@LIDMMLAJ@SUR_Timed_Death?$AA@ DB 'SUR_Timed_Death', 00H ; `string'
CONST	ENDS
;	COMDAT ??_C@_0DD@BINEMFNP@Delay?3float?0Damage_Amount?3float?0@
CONST	SEGMENT
??_C@_0DD@BINEMFNP@Delay?3float?0Damage_Amount?3float?0@ DB 'Delay:float,'
	DB	'Damage_Amount:float,Damage_Type:string', 00H ; `string'
CONST	ENDS
;	COMDAT ??_7?$ScriptRegistrant@VSUR_Timed_Death@@@@6B@
CONST	SEGMENT
??_7?$ScriptRegistrant@VSUR_Timed_Death@@@@6B@ DD FLAT:??_R4?$ScriptRegistrant@VSUR_Timed_Death@@@@6B@ ; ScriptRegistrant<SUR_Timed_Death>::`vftable'
	DD	FLAT:??_E?$ScriptRegistrant@VSUR_Timed_Death@@@@UAEPAXI@Z
	DD	FLAT:?Create@?$ScriptRegistrant@VSUR_Timed_Death@@@@UAEPAVScriptImpClass@@XZ
CONST	ENDS
;	COMDAT ??_C@_0P@NFLNCIFF@SUR_Dep_Turret?$AA@
CONST	SEGMENT
??_C@_0P@NFLNCIFF@SUR_Dep_Turret?$AA@ DB 'SUR_Dep_Turret', 00H ; `string'
CONST	ENDS
;	COMDAT ??_C@_0EP@COIIGKKP@MinAttackDistance?$DN0?40?3float?0MaxA@
CONST	SEGMENT
??_C@_0EP@COIIGKKP@MinAttackDistance?$DN0?40?3float?0MaxA@ DB 'MinAttackD'
	DB	'istance=0.0:float,MaxAttackDistance=300.0:float,AttackTimer=1'
	DB	'0.0:int', 00H				; `string'
CONST	ENDS
;	COMDAT ??_7?$ScriptRegistrant@VSUR_Dep_Turret@@@@6B@
CONST	SEGMENT
??_7?$ScriptRegistrant@VSUR_Dep_Turret@@@@6B@ DD FLAT:??_R4?$ScriptRegistrant@VSUR_Dep_Turret@@@@6B@ ; ScriptRegistrant<SUR_Dep_Turret>::`vftable'
	DD	FLAT:??_E?$ScriptRegistrant@VSUR_Dep_Turret@@@@UAEPAXI@Z
	DD	FLAT:?Create@?$ScriptRegistrant@VSUR_Dep_Turret@@@@UAEPAVScriptImpClass@@XZ
CONST	ENDS
;	COMDAT ??_C@_0P@CCFBOFGI@SUR_Chinook_AI?$AA@
CONST	SEGMENT
??_C@_0P@CCFBOFGI@SUR_Chinook_AI?$AA@ DB 'SUR_Chinook_AI', 00H ; `string'
CONST	ENDS
;	COMDAT ??_C@_0CL@JNOFFELC@Preset_Name?3string?0Position_Offs@
CONST	SEGMENT
??_C@_0CL@JNOFFELC@Preset_Name?3string?0Position_Offs@ DB 'Preset_Name:st'
	DB	'ring,Position_Offset:vector3', 00H		; `string'
CONST	ENDS
;	COMDAT ??_7?$ScriptRegistrant@VSUR_Chinook_AI@@@@6B@
CONST	SEGMENT
??_7?$ScriptRegistrant@VSUR_Chinook_AI@@@@6B@ DD FLAT:??_R4?$ScriptRegistrant@VSUR_Chinook_AI@@@@6B@ ; ScriptRegistrant<SUR_Chinook_AI>::`vftable'
	DD	FLAT:??_E?$ScriptRegistrant@VSUR_Chinook_AI@@@@UAEPAXI@Z
	DD	FLAT:?Create@?$ScriptRegistrant@VSUR_Chinook_AI@@@@UAEPAVScriptImpClass@@XZ
CONST	ENDS
;	COMDAT ??_C@_0M@LENJCGNN@SUR_Orca_AI?$AA@
CONST	SEGMENT
??_C@_0M@LENJCGNN@SUR_Orca_AI?$AA@ DB 'SUR_Orca_AI', 00H ; `string'
CONST	ENDS
;	COMDAT ??_C@_0CB@GPNICFGL@NHB_ID?3int?0Attack_Offset?3vector3@
CONST	SEGMENT
??_C@_0CB@GPNICFGL@NHB_ID?3int?0Attack_Offset?3vector3@ DB 'NHB_ID:int,At'
	DB	'tack_Offset:vector3', 00H			; `string'
CONST	ENDS
;	COMDAT ??_7?$ScriptRegistrant@VSUR_Orca_AI@@@@6B@
CONST	SEGMENT
??_7?$ScriptRegistrant@VSUR_Orca_AI@@@@6B@ DD FLAT:??_R4?$ScriptRegistrant@VSUR_Orca_AI@@@@6B@ ; ScriptRegistrant<SUR_Orca_AI>::`vftable'
	DD	FLAT:??_E?$ScriptRegistrant@VSUR_Orca_AI@@@@UAEPAXI@Z
	DD	FLAT:?Create@?$ScriptRegistrant@VSUR_Orca_AI@@@@UAEPAVScriptImpClass@@XZ
CONST	ENDS
;	COMDAT ??_C@_0L@MIJHGIEM@SUR_APC_AI?$AA@
CONST	SEGMENT
??_C@_0L@MIJHGIEM@SUR_APC_AI?$AA@ DB 'SUR_APC_AI', 00H	; `string'
CONST	ENDS
;	COMDAT ??_C@_0CD@PNNDOGLF@Preset_To_Create?3string?0NHB_ID?3i@
CONST	SEGMENT
??_C@_0CD@PNNDOGLF@Preset_To_Create?3string?0NHB_ID?3i@ DB 'Preset_To_Cre'
	DB	'ate:string,NHB_ID:int', 00H			; `string'
CONST	ENDS
;	COMDAT ??_7?$ScriptRegistrant@VSUR_APC_AI@@@@6B@
CONST	SEGMENT
??_7?$ScriptRegistrant@VSUR_APC_AI@@@@6B@ DD FLAT:??_R4?$ScriptRegistrant@VSUR_APC_AI@@@@6B@ ; ScriptRegistrant<SUR_APC_AI>::`vftable'
	DD	FLAT:??_E?$ScriptRegistrant@VSUR_APC_AI@@@@UAEPAXI@Z
	DD	FLAT:?Create@?$ScriptRegistrant@VSUR_APC_AI@@@@UAEPAVScriptImpClass@@XZ
CONST	ENDS
;	COMDAT ??_C@_0BE@IIJFADCE@SUR_New_PT_Reciever?$AA@
CONST	SEGMENT
??_C@_0BE@IIJFADCE@SUR_New_PT_Reciever?$AA@ DB 'SUR_New_PT_Reciever', 00H ; `string'
CONST	ENDS
;	COMDAT ??_C@_0BP@HHNMLCDH@Preset_Name?3string?0Message?3int?$AA@
CONST	SEGMENT
??_C@_0BP@HHNMLCDH@Preset_Name?3string?0Message?3int?$AA@ DB 'Preset_Name'
	DB	':string,Message:int', 00H			; `string'
CONST	ENDS
;	COMDAT ??_7?$ScriptRegistrant@VSUR_New_PT_Reciever@@@@6B@
CONST	SEGMENT
??_7?$ScriptRegistrant@VSUR_New_PT_Reciever@@@@6B@ DD FLAT:??_R4?$ScriptRegistrant@VSUR_New_PT_Reciever@@@@6B@ ; ScriptRegistrant<SUR_New_PT_Reciever>::`vftable'
	DD	FLAT:??_E?$ScriptRegistrant@VSUR_New_PT_Reciever@@@@UAEPAXI@Z
	DD	FLAT:?Create@?$ScriptRegistrant@VSUR_New_PT_Reciever@@@@UAEPAVScriptImpClass@@XZ
CONST	ENDS
;	COMDAT ??_C@_0BK@IMCLBBPM@Marker_ID?3int?0Message?3int?$AA@
CONST	SEGMENT
??_C@_0BK@IMCLBBPM@Marker_ID?3int?0Message?3int?$AA@ DB 'Marker_ID:int,Me'
	DB	'ssage:int', 00H				; `string'
CONST	ENDS
;	COMDAT ??_7?$ScriptRegistrant@VSUR_New_PT@@@@6B@
CONST	SEGMENT
??_7?$ScriptRegistrant@VSUR_New_PT@@@@6B@ DD FLAT:??_R4?$ScriptRegistrant@VSUR_New_PT@@@@6B@ ; ScriptRegistrant<SUR_New_PT>::`vftable'
	DD	FLAT:??_E?$ScriptRegistrant@VSUR_New_PT@@@@UAEPAXI@Z
	DD	FLAT:?Create@?$ScriptRegistrant@VSUR_New_PT@@@@UAEPAVScriptImpClass@@XZ
CONST	ENDS
;	COMDAT ??_C@_0BC@DOELCKBJ@SUR_Obj_Destroyer?$AA@
CONST	SEGMENT
??_C@_0BC@DOELCKBJ@SUR_Obj_Destroyer?$AA@ DB 'SUR_Obj_Destroyer', 00H ; `string'
CONST	ENDS
;	COMDAT ??_C@_06IDGMBKCH@ID?3int?$AA@
CONST	SEGMENT
??_C@_06IDGMBKCH@ID?3int?$AA@ DB 'ID:int', 00H		; `string'
CONST	ENDS
;	COMDAT ??_7?$ScriptRegistrant@VSUR_Obj_Destroyer@@@@6B@
CONST	SEGMENT
??_7?$ScriptRegistrant@VSUR_Obj_Destroyer@@@@6B@ DD FLAT:??_R4?$ScriptRegistrant@VSUR_Obj_Destroyer@@@@6B@ ; ScriptRegistrant<SUR_Obj_Destroyer>::`vftable'
	DD	FLAT:??_E?$ScriptRegistrant@VSUR_Obj_Destroyer@@@@UAEPAXI@Z
	DD	FLAT:?Create@?$ScriptRegistrant@VSUR_Obj_Destroyer@@@@UAEPAVScriptImpClass@@XZ
CONST	ENDS
;	COMDAT ??_C@_0BA@IFMBMGDM@SUR_NHB_Soldier?$AA@
CONST	SEGMENT
??_C@_0BA@IFMBMGDM@SUR_NHB_Soldier?$AA@ DB 'SUR_NHB_Soldier', 00H ; `string'
CONST	ENDS
;	COMDAT ??_C@_0BAA@ECKFGJNH@NHB_ID?3int?0VPad_Path?3int?0VPad_Pa@
CONST	SEGMENT
??_C@_0BAA@ECKFGJNH@NHB_ID?3int?0VPad_Path?3int?0VPad_Pa@ DB 'NHB_ID:int,'
	DB	'VPad_Path:int,VPad_Path_Start:int,VPad_Path_End:int,HeliPath:'
	DB	'int,HeliPath_Start:int,HeliPath_End:int,NodGen_Path:int,NodGe'
	DB	'n_Path_Start:int,NodGen_Path_End:int,GDIGen_Path:int,GDIGen_P'
	DB	'ath_Start:int,GDIGen_Path_End:int,NodGen_ID:int,GDIGen_ID:int'
	DB	00H						; `string'
CONST	ENDS
;	COMDAT ??_7?$ScriptRegistrant@VSUR_NHB_Soldier@@@@6B@
CONST	SEGMENT
??_7?$ScriptRegistrant@VSUR_NHB_Soldier@@@@6B@ DD FLAT:??_R4?$ScriptRegistrant@VSUR_NHB_Soldier@@@@6B@ ; ScriptRegistrant<SUR_NHB_Soldier>::`vftable'
	DD	FLAT:??_E?$ScriptRegistrant@VSUR_NHB_Soldier@@@@UAEPAXI@Z
	DD	FLAT:?Create@?$ScriptRegistrant@VSUR_NHB_Soldier@@@@UAEPAVScriptImpClass@@XZ
CONST	ENDS
;	COMDAT ??_C@_07MJBDNLE@SUR_NHB?$AA@
CONST	SEGMENT
??_C@_07MJBDNLE@SUR_NHB?$AA@ DB 'SUR_NHB', 00H		; `string'
CONST	ENDS
;	COMDAT ??_C@_0FD@DHDDJGN@GDI_Gen?3int?0Nod_Gen?3int?0Strike_P@
CONST	SEGMENT
??_C@_0FD@DHDDJGN@GDI_Gen?3int?0Nod_Gen?3int?0Strike_P@ DB 'GDI_Gen:int,N'
	DB	'od_Gen:int,Strike_Preset:string,Taunt1:int,Taunt2:int,OrcaWar'
	DB	'ning:int', 00H				; `string'
CONST	ENDS
;	COMDAT ??_7?$ScriptRegistrant@VSUR_NHB@@@@6B@
CONST	SEGMENT
??_7?$ScriptRegistrant@VSUR_NHB@@@@6B@ DD FLAT:??_R4?$ScriptRegistrant@VSUR_NHB@@@@6B@ ; ScriptRegistrant<SUR_NHB>::`vftable'
	DD	FLAT:??_E?$ScriptRegistrant@VSUR_NHB@@@@UAEPAXI@Z
	DD	FLAT:?Create@?$ScriptRegistrant@VSUR_NHB@@@@UAEPAVScriptImpClass@@XZ
CONST	ENDS
;	COMDAT ??_C@_0M@GPOHJCKC@SUR_MiniGen?$AA@
CONST	SEGMENT
??_C@_0M@GPOHJCKC@SUR_MiniGen?$AA@ DB 'SUR_MiniGen', 00H ; `string'
CONST	ENDS
;	COMDAT ??_C@_0FM@NAIMEOBA@Time_Delay?3float?0Turret_ID_One?3i@
CONST	SEGMENT
??_C@_0FM@NAIMEOBA@Time_Delay?3float?0Turret_ID_One?3i@ DB 'Time_Delay:fl'
	DB	'oat,Turret_ID_One:int,Turret_ID_Two:int,Turret_ID_Three:int,T'
	DB	'urret_ID_Four:int', 00H			; `string'
CONST	ENDS
;	COMDAT ??_7?$ScriptRegistrant@VSUR_MiniGen@@@@6B@
CONST	SEGMENT
??_7?$ScriptRegistrant@VSUR_MiniGen@@@@6B@ DD FLAT:??_R4?$ScriptRegistrant@VSUR_MiniGen@@@@6B@ ; ScriptRegistrant<SUR_MiniGen>::`vftable'
	DD	FLAT:??_E?$ScriptRegistrant@VSUR_MiniGen@@@@UAEPAXI@Z
	DD	FLAT:?Create@?$ScriptRegistrant@VSUR_MiniGen@@@@UAEPAVScriptImpClass@@XZ
CONST	ENDS
;	COMDAT ??_C@_0BD@JMCCCHCE@SUR_Generator_Zone?$AA@
CONST	SEGMENT
??_C@_0BD@JMCCCHCE@SUR_Generator_Zone?$AA@ DB 'SUR_Generator_Zone', 00H ; `string'
CONST	ENDS
;	COMDAT ??_C@_0MA@PHLCLBBJ@Time_Delay?3float?0Supply_Truck_Pr@
CONST	SEGMENT
??_C@_0MA@PHLCLBBJ@Time_Delay?3float?0Supply_Truck_Pr@ DB 'Time_Delay:flo'
	DB	'at,Supply_Truck_Preset:string,Emitter_Pos:vector3,Emitter_Pre'
	DB	'set_Good:string,Emitter_Preset_Ok:string,Emitter_Preset_Bad:s'
	DB	'tring,Build_D_One:int,Build_D_Two:int,Build_D_Three:int', 00H ; `string'
CONST	ENDS
;	COMDAT ??_7?$ScriptRegistrant@VSUR_Generator_Zone@@@@6B@
CONST	SEGMENT
??_7?$ScriptRegistrant@VSUR_Generator_Zone@@@@6B@ DD FLAT:??_R4?$ScriptRegistrant@VSUR_Generator_Zone@@@@6B@ ; ScriptRegistrant<SUR_Generator_Zone>::`vftable'
	DD	FLAT:??_E?$ScriptRegistrant@VSUR_Generator_Zone@@@@UAEPAXI@Z
	DD	FLAT:?Create@?$ScriptRegistrant@VSUR_Generator_Zone@@@@UAEPAVScriptImpClass@@XZ
CONST	ENDS
;	COMDAT ??_C@_0BA@KLILNECP@SUR_Spawn_Delay?$AA@
CONST	SEGMENT
??_C@_0BA@KLILNECP@SUR_Spawn_Delay?$AA@ DB 'SUR_Spawn_Delay', 00H ; `string'
CONST	ENDS
;	COMDAT ??_C@_0FA@DHAIDPHO@Spawn_Delay?3float?0Spawn_Pos?3vect@
CONST	SEGMENT
??_C@_0FA@DHAIDPHO@Spawn_Delay?3float?0Spawn_Pos?3vect@ DB 'Spawn_Delay:f'
	DB	'loat,Spawn_Pos:vector3,Spawn_Obj:string,Spawn_Path:int,Do_Pat'
	DB	'h:int', 00H					; `string'
CONST	ENDS
;	COMDAT ??_7?$ScriptRegistrant@VSUR_Spawn_Delay@@@@6B@
CONST	SEGMENT
??_7?$ScriptRegistrant@VSUR_Spawn_Delay@@@@6B@ DD FLAT:??_R4?$ScriptRegistrant@VSUR_Spawn_Delay@@@@6B@ ; ScriptRegistrant<SUR_Spawn_Delay>::`vftable'
	DD	FLAT:??_E?$ScriptRegistrant@VSUR_Spawn_Delay@@@@UAEPAXI@Z
	DD	FLAT:?Create@?$ScriptRegistrant@VSUR_Spawn_Delay@@@@UAEPAVScriptImpClass@@XZ
CONST	ENDS
;	COMDAT ??_C@_07EJMDJBEC@Powerup?$AA@
CONST	SEGMENT
??_C@_07EJMDJBEC@Powerup?$AA@ DB 'Powerup', 00H		; `string'
CONST	ENDS
;	COMDAT ??_C@_03EBKHDLCO@Any?$AA@
CONST	SEGMENT
??_C@_03EBKHDLCO@Any?$AA@ DB 'Any', 00H			; `string'
CONST	ENDS
;	COMDAT ??_C@_06CKLLCHIK@Preset?$AA@
CONST	SEGMENT
??_C@_06CKLLCHIK@Preset?$AA@ DB 'Preset', 00H		; `string'
CONST	ENDS
;	COMDAT ??_C@_0O@DDNFGLDM@Damage_Amount?$AA@
CONST	SEGMENT
??_C@_0O@DDNFGLDM@Damage_Amount?$AA@ DB 'Damage_Amount', 00H ; `string'
CONST	ENDS
;	COMDAT ??_C@_0M@CALDOHKN@Damage_Type?$AA@
CONST	SEGMENT
??_C@_0M@CALDOHKN@Damage_Type?$AA@ DB 'Damage_Type', 00H ; `string'
CONST	ENDS
;	COMDAT ??_C@_05ENDOMFAI@Delay?$AA@
CONST	SEGMENT
??_C@_05ENDOMFAI@Delay?$AA@ DB 'Delay', 00H		; `string'
CONST	ENDS
;	COMDAT ??_C@_0M@JLBMIOIA@AttackTimer?$AA@
CONST	SEGMENT
??_C@_0M@JLBMIOIA@AttackTimer?$AA@ DB 'AttackTimer', 00H ; `string'
CONST	ENDS
;	COMDAT ??_C@_0BC@MOFMCIO@MaxAttackDistance?$AA@
CONST	SEGMENT
??_C@_0BC@MOFMCIO@MaxAttackDistance?$AA@ DB 'MaxAttackDistance', 00H ; `string'
CONST	ENDS
;	COMDAT ??_C@_0BC@FPEDNKGK@MinAttackDistance?$AA@
CONST	SEGMENT
??_C@_0BC@FPEDNKGK@MinAttackDistance?$AA@ DB 'MinAttackDistance', 00H ; `string'
CONST	ENDS
;	COMDAT ??_C@_0BB@NHJNEILC@Invisible_Object?$AA@
CONST	SEGMENT
??_C@_0BB@NHJNEILC@Invisible_Object?$AA@ DB 'Invisible_Object', 00H ; `string'
CONST	ENDS
;	COMDAT ??_C@_0BA@OAAEJLHO@Position_Offset?$AA@
CONST	SEGMENT
??_C@_0BA@OAAEJLHO@Position_Offset?$AA@ DB 'Position_Offset', 00H ; `string'
CONST	ENDS
;	COMDAT ??_C@_0O@FABAOFMP@Attack_Offset?$AA@
CONST	SEGMENT
??_C@_0O@FABAOFMP@Attack_Offset?$AA@ DB 'Attack_Offset', 00H ; `string'
CONST	ENDS
;	COMDAT ??_C@_0BB@LNLDLMKA@JFW_Base_Defense?$AA@
CONST	SEGMENT
??_C@_0BB@LNLDLMKA@JFW_Base_Defense?$AA@ DB 'JFW_Base_Defense', 00H ; `string'
CONST	ENDS
;	COMDAT ??_C@_08LFMFPFKM@0?0300?010?$AA@
CONST	SEGMENT
??_C@_08LFMFPFKM@0?0300?010?$AA@ DB '0,300,10', 00H	; `string'
CONST	ENDS
;	COMDAT ??_C@_0BB@JLAIOFF@Preset_To_Create?$AA@
CONST	SEGMENT
??_C@_0BB@JLAIOFF@Preset_To_Create?$AA@ DB 'Preset_To_Create', 00H ; `string'
CONST	ENDS
;	COMDAT ??_C@_0M@KBNHOJJA@Preset_Name?$AA@
CONST	SEGMENT
??_C@_0M@KBNHOJJA@Preset_Name?$AA@ DB 'Preset_Name', 00H ; `string'
CONST	ENDS
;	COMDAT ??_C@_0L@NMEBDFKG@SUR_New_PT?$AA@
CONST	SEGMENT
??_C@_0L@NMEBDFKG@SUR_New_PT?$AA@ DB 'SUR_New_PT', 00H	; `string'
CONST	ENDS
;	COMDAT ??_C@_05KABNCBHK@?$CFd?0?$CFd?$AA@
CONST	SEGMENT
??_C@_05KABNCBHK@?$CFd?0?$CFd?$AA@ DB '%d,%d', 00H	; `string'
CONST	ENDS
;	COMDAT ??_C@_09PIPGAOHA@Marker_ID?$AA@
CONST	SEGMENT
??_C@_09PIPGAOHA@Marker_ID?$AA@ DB 'Marker_ID', 00H	; `string'
CONST	ENDS
;	COMDAT ??_C@_07BEIHKDLJ@Message?$AA@
CONST	SEGMENT
??_C@_07BEIHKDLJ@Message?$AA@ DB 'Message', 00H		; `string'
CONST	ENDS
;	COMDAT ??_C@_02OLOABKKD@ID?$AA@
CONST	SEGMENT
??_C@_02OLOABKKD@ID?$AA@ DB 'ID', 00H			; `string'
CONST	ENDS
;	COMDAT ??_C@_0BM@OMFOHCFP@CnC_Weapon_MineTimed_Player?$AA@
CONST	SEGMENT
??_C@_0BM@OMFOHCFP@CnC_Weapon_MineTimed_Player?$AA@ DB 'CnC_Weapon_MineTi'
	DB	'med_Player', 00H				; `string'
CONST	ENDS
;	COMDAT ??_C@_09FCBIDPBF@GDIGen_ID?$AA@
CONST	SEGMENT
??_C@_09FCBIDPBF@GDIGen_ID?$AA@ DB 'GDIGen_ID', 00H	; `string'
CONST	ENDS
;	COMDAT ??_C@_09MMNKHPCG@NodGen_ID?$AA@
CONST	SEGMENT
??_C@_09MMNKHPCG@NodGen_ID?$AA@ DB 'NodGen_ID', 00H	; `string'
CONST	ENDS
;	COMDAT ??_C@_0M@IFBDBCON@GDIGen_Path?$AA@
CONST	SEGMENT
??_C@_0M@IFBDBCON@GDIGen_Path?$AA@ DB 'GDIGen_Path', 00H ; `string'
CONST	ENDS
;	COMDAT ??_C@_0BC@NJMBNIAG@GDIGen_Path_Start?$AA@
CONST	SEGMENT
??_C@_0BC@NJMBNIAG@GDIGen_Path_Start?$AA@ DB 'GDIGen_Path_Start', 00H ; `string'
CONST	ENDS
;	COMDAT ??_C@_0BA@JCNLGAFK@GDIGen_Path_End?$AA@
CONST	SEGMENT
??_C@_0BA@JCNLGAFK@GDIGen_Path_End?$AA@ DB 'GDIGen_Path_End', 00H ; `string'
CONST	ENDS
;	COMDAT ??_C@_0M@HKEKIIP@NodGen_Path?$AA@
CONST	SEGMENT
??_C@_0M@HKEKIIP@NodGen_Path?$AA@ DB 'NodGen_Path', 00H	; `string'
CONST	ENDS
;	COMDAT ??_C@_0BC@KEJONPCP@NodGen_Path_Start?$AA@
CONST	SEGMENT
??_C@_0BC@KEJONPCP@NodGen_Path_Start?$AA@ DB 'NodGen_Path_Start', 00H ; `string'
CONST	ENDS
;	COMDAT ??_C@_0BA@GDAPPOGH@NodGen_Path_End?$AA@
CONST	SEGMENT
??_C@_0BA@GDAPPOGH@NodGen_Path_End?$AA@ DB 'NodGen_Path_End', 00H ; `string'
CONST	ENDS
;	COMDAT ??_C@_08MCAPOCBM@HeliPath?$AA@
CONST	SEGMENT
??_C@_08MCAPOCBM@HeliPath?$AA@ DB 'HeliPath', 00H	; `string'
CONST	ENDS
;	COMDAT ??_C@_0P@CACBDBIF@HeliPath_Start?$AA@
CONST	SEGMENT
??_C@_0P@CACBDBIF@HeliPath_Start?$AA@ DB 'HeliPath_Start', 00H ; `string'
CONST	ENDS
;	COMDAT ??_C@_0N@BHAKOLCG@HeliPath_End?$AA@
CONST	SEGMENT
??_C@_0N@BHAKOLCG@HeliPath_End?$AA@ DB 'HeliPath_End', 00H ; `string'
CONST	ENDS
;	COMDAT ??_C@_0BI@DOGKPAOM@PDS_Test_Follow_Waypath?$AA@
CONST	SEGMENT
??_C@_0BI@DOGKPAOM@PDS_Test_Follow_Waypath?$AA@ DB 'PDS_Test_Follow_Waypa'
	DB	'th', 00H					; `string'
CONST	ENDS
;	COMDAT ??_C@_08GDAMKODC@?$CFd?0?$CFd?0?$CFd?$AA@
CONST	SEGMENT
??_C@_08GDAMKODC@?$CFd?0?$CFd?0?$CFd?$AA@ DB '%d,%d,%d', 00H ; `string'
CONST	ENDS
;	COMDAT ??_C@_09BBICMIP@VPad_Path?$AA@
CONST	SEGMENT
??_C@_09BBICMIP@VPad_Path?$AA@ DB 'VPad_Path', 00H	; `string'
CONST	ENDS
;	COMDAT ??_C@_0BA@LDNBEEON@VPad_Path_Start?$AA@
CONST	SEGMENT
??_C@_0BA@LDNBEEON@VPad_Path_Start?$AA@ DB 'VPad_Path_Start', 00H ; `string'
CONST	ENDS
;	COMDAT ??_C@_0O@CECAAJLK@VPad_Path_End?$AA@
CONST	SEGMENT
??_C@_0O@CECAAJLK@VPad_Path_End?$AA@ DB 'VPad_Path_End', 00H ; `string'
CONST	ENDS
;	COMDAT ??_C@_06MPKPIODH@NHB_ID?$AA@
CONST	SEGMENT
??_C@_06MPKPIODH@NHB_ID?$AA@ DB 'NHB_ID', 00H		; `string'
CONST	ENDS
;	COMDAT ??_C@_07EBLDPGHF@Nod_Gen?$AA@
CONST	SEGMENT
??_C@_07EBLDPGHF@Nod_Gen?$AA@ DB 'Nod_Gen', 00H		; `string'
CONST	ENDS
;	COMDAT ??_C@_0BH@KNCKPPOI@Orca?5Strike?5Controller?$AA@
CONST	SEGMENT
??_C@_0BH@KNCKPPOI@Orca?5Strike?5Controller?$AA@ DB 'Orca Strike Controll'
	DB	'er', 00H					; `string'
CONST	ENDS
;	COMDAT ??_C@_0O@BHFGBELH@Strike_Preset?$AA@
CONST	SEGMENT
??_C@_0O@BHFGBELH@Strike_Preset?$AA@ DB 'Strike_Preset', 00H ; `string'
CONST	ENDS
;	COMDAT ??_C@_0N@MEOOIIPD@Orca_Warning?$AA@
CONST	SEGMENT
??_C@_0N@MEOOIIPD@Orca_Warning?$AA@ DB 'Orca_Warning', 00H ; `string'
CONST	ENDS
;	COMDAT ??_C@_06CCOCEKKI@Taunt2?$AA@
CONST	SEGMENT
??_C@_06CCOCEKKI@Taunt2?$AA@ DB 'Taunt2', 00H		; `string'
CONST	ENDS
;	COMDAT ??_C@_06JMPBJGL@Taunt1?$AA@
CONST	SEGMENT
??_C@_06JMPBJGL@Taunt1?$AA@ DB 'Taunt1', 00H		; `string'
CONST	ENDS
;	COMDAT ??_C@_07CIHEJGNA@GDI_Gen?$AA@
CONST	SEGMENT
??_C@_07CIHEJGNA@GDI_Gen?$AA@ DB 'GDI_Gen', 00H		; `string'
CONST	ENDS
;	COMDAT ??_C@_0BE@FAAIECIN@Supply_Truck_Preset?$AA@
CONST	SEGMENT
??_C@_0BE@FAAIECIN@Supply_Truck_Preset?$AA@ DB 'Supply_Truck_Preset', 00H ; `string'
CONST	ENDS
;	COMDAT ??_C@_0M@IPKOBAPD@BlamoKiller?$AA@
CONST	SEGMENT
??_C@_0M@IPKOBAPD@BlamoKiller?$AA@ DB 'BlamoKiller', 00H ; `string'
CONST	ENDS
;	COMDAT ??_C@_09IGNDJJLI@Explosive?$AA@
CONST	SEGMENT
??_C@_09IGNDJJLI@Explosive?$AA@ DB 'Explosive', 00H	; `string'
CONST	ENDS
;	COMDAT ??_C@_0BE@DHDDJGEO@Emitter_Preset_Good?$AA@
CONST	SEGMENT
??_C@_0BE@DHDDJGEO@Emitter_Preset_Good?$AA@ DB 'Emitter_Preset_Good', 00H ; `string'
CONST	ENDS
;	COMDAT ??_C@_0L@JCFEAFCJ@Time_Delay?$AA@
CONST	SEGMENT
??_C@_0L@JCFEAFCJ@Time_Delay?$AA@ DB 'Time_Delay', 00H	; `string'
CONST	ENDS
;	COMDAT ??_C@_0M@LGLODOFO@Emitter_Pos?$AA@
CONST	SEGMENT
??_C@_0M@LGLODOFO@Emitter_Pos?$AA@ DB 'Emitter_Pos', 00H ; `string'
CONST	ENDS
;	COMDAT ??_C@_0L@NOEIONE@Spawn_Path?$AA@
CONST	SEGMENT
??_C@_0L@NOEIONE@Spawn_Path?$AA@ DB 'Spawn_Path', 00H	; `string'
CONST	ENDS
;	COMDAT ??_C@_07PCHJBECB@Do_Path?$AA@
CONST	SEGMENT
??_C@_07PCHJBECB@Do_Path?$AA@ DB 'Do_Path', 00H		; `string'
CONST	ENDS
;	COMDAT ??_C@_09BEPAMFKP@Spawn_Obj?$AA@
CONST	SEGMENT
??_C@_09BEPAMFKP@Spawn_Obj?$AA@ DB 'Spawn_Obj', 00H	; `string'
CONST	ENDS
;	COMDAT ??_C@_09IPFCLICN@Spawn_Pos?$AA@
CONST	SEGMENT
??_C@_09IPFCLICN@Spawn_Pos?$AA@ DB 'Spawn_Pos', 00H	; `string'
CONST	ENDS
;	COMDAT ??_C@_0M@IIPFJCEO@Spawn_Delay?$AA@
CONST	SEGMENT
??_C@_0M@IIPFJCEO@Spawn_Delay?$AA@ DB 'Spawn_Delay', 00H ; `string'
CONST	ENDS
;	COMDAT ??_7SUR_GrantPowerup_OnEntry@@6B@
CONST	SEGMENT
??_7SUR_GrantPowerup_OnEntry@@6B@ DD FLAT:??_R4SUR_GrantPowerup_OnEntry@@6B@ ; SUR_GrantPowerup_OnEntry::`vftable'
	DD	FLAT:??_ESUR_GrantPowerup_OnEntry@@UAEPAXI@Z
	DD	FLAT:?Get_Name@ScriptImpClass@@UAEPBDXZ
	DD	FLAT:?Attach@ScriptImpClass@@MAEXPAVScriptableGameObj@@@Z
	DD	FLAT:?Detach@ScriptImpClass@@MAEXPAVScriptableGameObj@@@Z
	DD	FLAT:?Created@ScriptImpClass@@UAEXPAVScriptableGameObj@@@Z
	DD	FLAT:?Destroyed@ScriptImpClass@@UAEXPAVScriptableGameObj@@@Z
	DD	FLAT:?Killed@ScriptImpClass@@UAEXPAVScriptableGameObj@@0@Z
	DD	FLAT:?Damaged@ScriptImpClass@@UAEXPAVScriptableGameObj@@0M@Z
	DD	FLAT:?Custom@ScriptImpClass@@UAEXPAVScriptableGameObj@@HH0@Z
	DD	FLAT:?Sound_Heard@ScriptImpClass@@UAEXPAVScriptableGameObj@@ABUCombatSound@@@Z
	DD	FLAT:?Enemy_Seen@ScriptImpClass@@UAEXPAVScriptableGameObj@@0@Z
	DD	FLAT:?Action_Complete@ScriptImpClass@@UAEXPAVScriptableGameObj@@HW4ActionCompleteReason@@@Z
	DD	FLAT:?Timer_Expired@ScriptImpClass@@UAEXPAVScriptableGameObj@@H@Z
	DD	FLAT:?Animation_Complete@ScriptImpClass@@UAEXPAVScriptableGameObj@@PBD@Z
	DD	FLAT:?Poked@ScriptImpClass@@UAEXPAVScriptableGameObj@@0@Z
	DD	FLAT:?Entered@SUR_GrantPowerup_OnEntry@@EAEXPAVScriptableGameObj@@0@Z
	DD	FLAT:?Exited@ScriptImpClass@@UAEXPAVScriptableGameObj@@0@Z
	DD	FLAT:?Owner@ScriptImpClass@@UAEPAVScriptableGameObj@@XZ
	DD	FLAT:?Get_Owner_Ptr@ScriptImpClass@@UAEPAPAVScriptableGameObj@@XZ
	DD	FLAT:?Set_Parameters_String@ScriptImpClass@@UAEXPBD@Z
	DD	FLAT:?Get_Parameters_String@ScriptImpClass@@UAEXPADI@Z
	DD	FLAT:?Save@ScriptImpClass@@MAEXAAVScriptSaver@@@Z
	DD	FLAT:?Load@ScriptImpClass@@MAEXAAVScriptLoader@@@Z
	DD	FLAT:?Save_Data@ScriptImpClass@@UAEXAAVScriptSaver@@@Z
	DD	FLAT:?Load_Data@ScriptImpClass@@UAEXAAVScriptLoader@@@Z
	DD	FLAT:?Register_Auto_Save_Variables@ScriptImpClass@@UAEXXZ
CONST	ENDS
;	COMDAT ??_7SUR_Timed_Death@@6B@
CONST	SEGMENT
??_7SUR_Timed_Death@@6B@ DD FLAT:??_R4SUR_Timed_Death@@6B@ ; SUR_Timed_Death::`vftable'
	DD	FLAT:??_ESUR_Timed_Death@@UAEPAXI@Z
	DD	FLAT:?Get_Name@ScriptImpClass@@UAEPBDXZ
	DD	FLAT:?Attach@ScriptImpClass@@MAEXPAVScriptableGameObj@@@Z
	DD	FLAT:?Detach@ScriptImpClass@@MAEXPAVScriptableGameObj@@@Z
	DD	FLAT:?Created@SUR_Timed_Death@@EAEXPAVScriptableGameObj@@@Z
	DD	FLAT:?Destroyed@ScriptImpClass@@UAEXPAVScriptableGameObj@@@Z
	DD	FLAT:?Killed@ScriptImpClass@@UAEXPAVScriptableGameObj@@0@Z
	DD	FLAT:?Damaged@ScriptImpClass@@UAEXPAVScriptableGameObj@@0M@Z
	DD	FLAT:?Custom@ScriptImpClass@@UAEXPAVScriptableGameObj@@HH0@Z
	DD	FLAT:?Sound_Heard@ScriptImpClass@@UAEXPAVScriptableGameObj@@ABUCombatSound@@@Z
	DD	FLAT:?Enemy_Seen@ScriptImpClass@@UAEXPAVScriptableGameObj@@0@Z
	DD	FLAT:?Action_Complete@ScriptImpClass@@UAEXPAVScriptableGameObj@@HW4ActionCompleteReason@@@Z
	DD	FLAT:?Timer_Expired@SUR_Timed_Death@@EAEXPAVScriptableGameObj@@H@Z
	DD	FLAT:?Animation_Complete@ScriptImpClass@@UAEXPAVScriptableGameObj@@PBD@Z
	DD	FLAT:?Poked@ScriptImpClass@@UAEXPAVScriptableGameObj@@0@Z
	DD	FLAT:?Entered@ScriptImpClass@@UAEXPAVScriptableGameObj@@0@Z
	DD	FLAT:?Exited@ScriptImpClass@@UAEXPAVScriptableGameObj@@0@Z
	DD	FLAT:?Owner@ScriptImpClass@@UAEPAVScriptableGameObj@@XZ
	DD	FLAT:?Get_Owner_Ptr@ScriptImpClass@@UAEPAPAVScriptableGameObj@@XZ
	DD	FLAT:?Set_Parameters_String@ScriptImpClass@@UAEXPBD@Z
	DD	FLAT:?Get_Parameters_String@ScriptImpClass@@UAEXPADI@Z
	DD	FLAT:?Save@ScriptImpClass@@MAEXAAVScriptSaver@@@Z
	DD	FLAT:?Load@ScriptImpClass@@MAEXAAVScriptLoader@@@Z
	DD	FLAT:?Save_Data@ScriptImpClass@@UAEXAAVScriptSaver@@@Z
	DD	FLAT:?Load_Data@ScriptImpClass@@UAEXAAVScriptLoader@@@Z
	DD	FLAT:?Register_Auto_Save_Variables@ScriptImpClass@@UAEXXZ
CONST	ENDS
;	COMDAT ??_7SUR_Dep_Turret@@6B@
CONST	SEGMENT
??_7SUR_Dep_Turret@@6B@ DD FLAT:??_R4SUR_Dep_Turret@@6B@ ; SUR_Dep_Turret::`vftable'
	DD	FLAT:??_ESUR_Dep_Turret@@UAEPAXI@Z
	DD	FLAT:?Get_Name@ScriptImpClass@@UAEPBDXZ
	DD	FLAT:?Attach@ScriptImpClass@@MAEXPAVScriptableGameObj@@@Z
	DD	FLAT:?Detach@ScriptImpClass@@MAEXPAVScriptableGameObj@@@Z
	DD	FLAT:?Created@SUR_Dep_Turret@@EAEXPAVScriptableGameObj@@@Z
	DD	FLAT:?Destroyed@ScriptImpClass@@UAEXPAVScriptableGameObj@@@Z
	DD	FLAT:?Killed@ScriptImpClass@@UAEXPAVScriptableGameObj@@0@Z
	DD	FLAT:?Damaged@ScriptImpClass@@UAEXPAVScriptableGameObj@@0M@Z
	DD	FLAT:?Custom@ScriptImpClass@@UAEXPAVScriptableGameObj@@HH0@Z
	DD	FLAT:?Sound_Heard@ScriptImpClass@@UAEXPAVScriptableGameObj@@ABUCombatSound@@@Z
	DD	FLAT:?Enemy_Seen@ScriptImpClass@@UAEXPAVScriptableGameObj@@0@Z
	DD	FLAT:?Action_Complete@SUR_Dep_Turret@@EAEXPAVScriptableGameObj@@HW4ActionCompleteReason@@@Z
	DD	FLAT:?Timer_Expired@SUR_Dep_Turret@@EAEXPAVScriptableGameObj@@H@Z
	DD	FLAT:?Animation_Complete@ScriptImpClass@@UAEXPAVScriptableGameObj@@PBD@Z
	DD	FLAT:?Poked@ScriptImpClass@@UAEXPAVScriptableGameObj@@0@Z
	DD	FLAT:?Entered@ScriptImpClass@@UAEXPAVScriptableGameObj@@0@Z
	DD	FLAT:?Exited@ScriptImpClass@@UAEXPAVScriptableGameObj@@0@Z
	DD	FLAT:?Owner@ScriptImpClass@@UAEPAVScriptableGameObj@@XZ
	DD	FLAT:?Get_Owner_Ptr@ScriptImpClass@@UAEPAPAVScriptableGameObj@@XZ
	DD	FLAT:?Set_Parameters_String@ScriptImpClass@@UAEXPBD@Z
	DD	FLAT:?Get_Parameters_String@ScriptImpClass@@UAEXPADI@Z
	DD	FLAT:?Save@ScriptImpClass@@MAEXAAVScriptSaver@@@Z
	DD	FLAT:?Load@ScriptImpClass@@MAEXAAVScriptLoader@@@Z
	DD	FLAT:?Save_Data@ScriptImpClass@@UAEXAAVScriptSaver@@@Z
	DD	FLAT:?Load_Data@ScriptImpClass@@UAEXAAVScriptLoader@@@Z
	DD	FLAT:?Register_Auto_Save_Variables@SUR_Dep_Turret@@UAEXXZ
CONST	ENDS
;	COMDAT ??_7SUR_Chinook_AI@@6B@
CONST	SEGMENT
??_7SUR_Chinook_AI@@6B@ DD FLAT:??_R4SUR_Chinook_AI@@6B@ ; SUR_Chinook_AI::`vftable'
	DD	FLAT:??_ESUR_Chinook_AI@@UAEPAXI@Z
	DD	FLAT:?Get_Name@ScriptImpClass@@UAEPBDXZ
	DD	FLAT:?Attach@ScriptImpClass@@MAEXPAVScriptableGameObj@@@Z
	DD	FLAT:?Detach@ScriptImpClass@@MAEXPAVScriptableGameObj@@@Z
	DD	FLAT:?Created@ScriptImpClass@@UAEXPAVScriptableGameObj@@@Z
	DD	FLAT:?Destroyed@ScriptImpClass@@UAEXPAVScriptableGameObj@@@Z
	DD	FLAT:?Killed@ScriptImpClass@@UAEXPAVScriptableGameObj@@0@Z
	DD	FLAT:?Damaged@ScriptImpClass@@UAEXPAVScriptableGameObj@@0M@Z
	DD	FLAT:?Custom@SUR_Chinook_AI@@EAEXPAVScriptableGameObj@@HH0@Z
	DD	FLAT:?Sound_Heard@ScriptImpClass@@UAEXPAVScriptableGameObj@@ABUCombatSound@@@Z
	DD	FLAT:?Enemy_Seen@ScriptImpClass@@UAEXPAVScriptableGameObj@@0@Z
	DD	FLAT:?Action_Complete@ScriptImpClass@@UAEXPAVScriptableGameObj@@HW4ActionCompleteReason@@@Z
	DD	FLAT:?Timer_Expired@ScriptImpClass@@UAEXPAVScriptableGameObj@@H@Z
	DD	FLAT:?Animation_Complete@ScriptImpClass@@UAEXPAVScriptableGameObj@@PBD@Z
	DD	FLAT:?Poked@ScriptImpClass@@UAEXPAVScriptableGameObj@@0@Z
	DD	FLAT:?Entered@ScriptImpClass@@UAEXPAVScriptableGameObj@@0@Z
	DD	FLAT:?Exited@ScriptImpClass@@UAEXPAVScriptableGameObj@@0@Z
	DD	FLAT:?Owner@ScriptImpClass@@UAEPAVScriptableGameObj@@XZ
	DD	FLAT:?Get_Owner_Ptr@ScriptImpClass@@UAEPAPAVScriptableGameObj@@XZ
	DD	FLAT:?Set_Parameters_String@ScriptImpClass@@UAEXPBD@Z
	DD	FLAT:?Get_Parameters_String@ScriptImpClass@@UAEXPADI@Z
	DD	FLAT:?Save@ScriptImpClass@@MAEXAAVScriptSaver@@@Z
	DD	FLAT:?Load@ScriptImpClass@@MAEXAAVScriptLoader@@@Z
	DD	FLAT:?Save_Data@ScriptImpClass@@UAEXAAVScriptSaver@@@Z
	DD	FLAT:?Load_Data@ScriptImpClass@@UAEXAAVScriptLoader@@@Z
	DD	FLAT:?Register_Auto_Save_Variables@ScriptImpClass@@UAEXXZ
CONST	ENDS
;	COMDAT ??_7SUR_Orca_AI@@6B@
CONST	SEGMENT
??_7SUR_Orca_AI@@6B@ DD FLAT:??_R4SUR_Orca_AI@@6B@	; SUR_Orca_AI::`vftable'
	DD	FLAT:??_ESUR_Orca_AI@@UAEPAXI@Z
	DD	FLAT:?Get_Name@ScriptImpClass@@UAEPBDXZ
	DD	FLAT:?Attach@ScriptImpClass@@MAEXPAVScriptableGameObj@@@Z
	DD	FLAT:?Detach@ScriptImpClass@@MAEXPAVScriptableGameObj@@@Z
	DD	FLAT:?Created@SUR_Orca_AI@@EAEXPAVScriptableGameObj@@@Z
	DD	FLAT:?Destroyed@ScriptImpClass@@UAEXPAVScriptableGameObj@@@Z
	DD	FLAT:?Killed@ScriptImpClass@@UAEXPAVScriptableGameObj@@0@Z
	DD	FLAT:?Damaged@ScriptImpClass@@UAEXPAVScriptableGameObj@@0M@Z
	DD	FLAT:?Custom@SUR_Orca_AI@@EAEXPAVScriptableGameObj@@HH0@Z
	DD	FLAT:?Sound_Heard@ScriptImpClass@@UAEXPAVScriptableGameObj@@ABUCombatSound@@@Z
	DD	FLAT:?Enemy_Seen@ScriptImpClass@@UAEXPAVScriptableGameObj@@0@Z
	DD	FLAT:?Action_Complete@SUR_Orca_AI@@EAEXPAVScriptableGameObj@@HW4ActionCompleteReason@@@Z
	DD	FLAT:?Timer_Expired@ScriptImpClass@@UAEXPAVScriptableGameObj@@H@Z
	DD	FLAT:?Animation_Complete@ScriptImpClass@@UAEXPAVScriptableGameObj@@PBD@Z
	DD	FLAT:?Poked@ScriptImpClass@@UAEXPAVScriptableGameObj@@0@Z
	DD	FLAT:?Entered@ScriptImpClass@@UAEXPAVScriptableGameObj@@0@Z
	DD	FLAT:?Exited@ScriptImpClass@@UAEXPAVScriptableGameObj@@0@Z
	DD	FLAT:?Owner@ScriptImpClass@@UAEPAVScriptableGameObj@@XZ
	DD	FLAT:?Get_Owner_Ptr@ScriptImpClass@@UAEPAPAVScriptableGameObj@@XZ
	DD	FLAT:?Set_Parameters_String@ScriptImpClass@@UAEXPBD@Z
	DD	FLAT:?Get_Parameters_String@ScriptImpClass@@UAEXPADI@Z
	DD	FLAT:?Save@ScriptImpClass@@MAEXAAVScriptSaver@@@Z
	DD	FLAT:?Load@ScriptImpClass@@MAEXAAVScriptLoader@@@Z
	DD	FLAT:?Save_Data@ScriptImpClass@@UAEXAAVScriptSaver@@@Z
	DD	FLAT:?Load_Data@ScriptImpClass@@UAEXAAVScriptLoader@@@Z
	DD	FLAT:?Register_Auto_Save_Variables@ScriptImpClass@@UAEXXZ
CONST	ENDS
;	COMDAT ??_7SUR_APC_AI@@6B@
CONST	SEGMENT
??_7SUR_APC_AI@@6B@ DD FLAT:??_R4SUR_APC_AI@@6B@	; SUR_APC_AI::`vftable'
	DD	FLAT:??_ESUR_APC_AI@@UAEPAXI@Z
	DD	FLAT:?Get_Name@ScriptImpClass@@UAEPBDXZ
	DD	FLAT:?Attach@ScriptImpClass@@MAEXPAVScriptableGameObj@@@Z
	DD	FLAT:?Detach@ScriptImpClass@@MAEXPAVScriptableGameObj@@@Z
	DD	FLAT:?Created@SUR_APC_AI@@EAEXPAVScriptableGameObj@@@Z
	DD	FLAT:?Destroyed@ScriptImpClass@@UAEXPAVScriptableGameObj@@@Z
	DD	FLAT:?Killed@ScriptImpClass@@UAEXPAVScriptableGameObj@@0@Z
	DD	FLAT:?Damaged@ScriptImpClass@@UAEXPAVScriptableGameObj@@0M@Z
	DD	FLAT:?Custom@SUR_APC_AI@@EAEXPAVScriptableGameObj@@HH0@Z
	DD	FLAT:?Sound_Heard@ScriptImpClass@@UAEXPAVScriptableGameObj@@ABUCombatSound@@@Z
	DD	FLAT:?Enemy_Seen@ScriptImpClass@@UAEXPAVScriptableGameObj@@0@Z
	DD	FLAT:?Action_Complete@ScriptImpClass@@UAEXPAVScriptableGameObj@@HW4ActionCompleteReason@@@Z
	DD	FLAT:?Timer_Expired@ScriptImpClass@@UAEXPAVScriptableGameObj@@H@Z
	DD	FLAT:?Animation_Complete@ScriptImpClass@@UAEXPAVScriptableGameObj@@PBD@Z
	DD	FLAT:?Poked@ScriptImpClass@@UAEXPAVScriptableGameObj@@0@Z
	DD	FLAT:?Entered@ScriptImpClass@@UAEXPAVScriptableGameObj@@0@Z
	DD	FLAT:?Exited@ScriptImpClass@@UAEXPAVScriptableGameObj@@0@Z
	DD	FLAT:?Owner@ScriptImpClass@@UAEPAVScriptableGameObj@@XZ
	DD	FLAT:?Get_Owner_Ptr@ScriptImpClass@@UAEPAPAVScriptableGameObj@@XZ
	DD	FLAT:?Set_Parameters_String@ScriptImpClass@@UAEXPBD@Z
	DD	FLAT:?Get_Parameters_String@ScriptImpClass@@UAEXPADI@Z
	DD	FLAT:?Save@ScriptImpClass@@MAEXAAVScriptSaver@@@Z
	DD	FLAT:?Load@ScriptImpClass@@MAEXAAVScriptLoader@@@Z
	DD	FLAT:?Save_Data@ScriptImpClass@@UAEXAAVScriptSaver@@@Z
	DD	FLAT:?Load_Data@ScriptImpClass@@UAEXAAVScriptLoader@@@Z
	DD	FLAT:?Register_Auto_Save_Variables@SUR_APC_AI@@UAEXXZ
CONST	ENDS
;	COMDAT ??_7SUR_New_PT_Reciever@@6B@
CONST	SEGMENT
??_7SUR_New_PT_Reciever@@6B@ DD FLAT:??_R4SUR_New_PT_Reciever@@6B@ ; SUR_New_PT_Reciever::`vftable'
	DD	FLAT:??_ESUR_New_PT_Reciever@@UAEPAXI@Z
	DD	FLAT:?Get_Name@ScriptImpClass@@UAEPBDXZ
	DD	FLAT:?Attach@ScriptImpClass@@MAEXPAVScriptableGameObj@@@Z
	DD	FLAT:?Detach@ScriptImpClass@@MAEXPAVScriptableGameObj@@@Z
	DD	FLAT:?Created@ScriptImpClass@@UAEXPAVScriptableGameObj@@@Z
	DD	FLAT:?Destroyed@ScriptImpClass@@UAEXPAVScriptableGameObj@@@Z
	DD	FLAT:?Killed@ScriptImpClass@@UAEXPAVScriptableGameObj@@0@Z
	DD	FLAT:?Damaged@ScriptImpClass@@UAEXPAVScriptableGameObj@@0M@Z
	DD	FLAT:?Custom@SUR_New_PT_Reciever@@EAEXPAVScriptableGameObj@@HH0@Z
	DD	FLAT:?Sound_Heard@ScriptImpClass@@UAEXPAVScriptableGameObj@@ABUCombatSound@@@Z
	DD	FLAT:?Enemy_Seen@ScriptImpClass@@UAEXPAVScriptableGameObj@@0@Z
	DD	FLAT:?Action_Complete@ScriptImpClass@@UAEXPAVScriptableGameObj@@HW4ActionCompleteReason@@@Z
	DD	FLAT:?Timer_Expired@ScriptImpClass@@UAEXPAVScriptableGameObj@@H@Z
	DD	FLAT:?Animation_Complete@ScriptImpClass@@UAEXPAVScriptableGameObj@@PBD@Z
	DD	FLAT:?Poked@ScriptImpClass@@UAEXPAVScriptableGameObj@@0@Z
	DD	FLAT:?Entered@ScriptImpClass@@UAEXPAVScriptableGameObj@@0@Z
	DD	FLAT:?Exited@ScriptImpClass@@UAEXPAVScriptableGameObj@@0@Z
	DD	FLAT:?Owner@ScriptImpClass@@UAEPAVScriptableGameObj@@XZ
	DD	FLAT:?Get_Owner_Ptr@ScriptImpClass@@UAEPAPAVScriptableGameObj@@XZ
	DD	FLAT:?Set_Parameters_String@ScriptImpClass@@UAEXPBD@Z
	DD	FLAT:?Get_Parameters_String@ScriptImpClass@@UAEXPADI@Z
	DD	FLAT:?Save@ScriptImpClass@@MAEXAAVScriptSaver@@@Z
	DD	FLAT:?Load@ScriptImpClass@@MAEXAAVScriptLoader@@@Z
	DD	FLAT:?Save_Data@ScriptImpClass@@UAEXAAVScriptSaver@@@Z
	DD	FLAT:?Load_Data@ScriptImpClass@@UAEXAAVScriptLoader@@@Z
	DD	FLAT:?Register_Auto_Save_Variables@ScriptImpClass@@UAEXXZ
CONST	ENDS
;	COMDAT ??_7SUR_New_PT@@6B@
CONST	SEGMENT
??_7SUR_New_PT@@6B@ DD FLAT:??_R4SUR_New_PT@@6B@	; SUR_New_PT::`vftable'
	DD	FLAT:??_ESUR_New_PT@@UAEPAXI@Z
	DD	FLAT:?Get_Name@ScriptImpClass@@UAEPBDXZ
	DD	FLAT:?Attach@ScriptImpClass@@MAEXPAVScriptableGameObj@@@Z
	DD	FLAT:?Detach@ScriptImpClass@@MAEXPAVScriptableGameObj@@@Z
	DD	FLAT:?Created@ScriptImpClass@@UAEXPAVScriptableGameObj@@@Z
	DD	FLAT:?Destroyed@ScriptImpClass@@UAEXPAVScriptableGameObj@@@Z
	DD	FLAT:?Killed@ScriptImpClass@@UAEXPAVScriptableGameObj@@0@Z
	DD	FLAT:?Damaged@ScriptImpClass@@UAEXPAVScriptableGameObj@@0M@Z
	DD	FLAT:?Custom@SUR_New_PT@@EAEXPAVScriptableGameObj@@HH0@Z
	DD	FLAT:?Sound_Heard@ScriptImpClass@@UAEXPAVScriptableGameObj@@ABUCombatSound@@@Z
	DD	FLAT:?Enemy_Seen@ScriptImpClass@@UAEXPAVScriptableGameObj@@0@Z
	DD	FLAT:?Action_Complete@ScriptImpClass@@UAEXPAVScriptableGameObj@@HW4ActionCompleteReason@@@Z
	DD	FLAT:?Timer_Expired@ScriptImpClass@@UAEXPAVScriptableGameObj@@H@Z
	DD	FLAT:?Animation_Complete@ScriptImpClass@@UAEXPAVScriptableGameObj@@PBD@Z
	DD	FLAT:?Poked@ScriptImpClass@@UAEXPAVScriptableGameObj@@0@Z
	DD	FLAT:?Entered@ScriptImpClass@@UAEXPAVScriptableGameObj@@0@Z
	DD	FLAT:?Exited@ScriptImpClass@@UAEXPAVScriptableGameObj@@0@Z
	DD	FLAT:?Owner@ScriptImpClass@@UAEPAVScriptableGameObj@@XZ
	DD	FLAT:?Get_Owner_Ptr@ScriptImpClass@@UAEPAPAVScriptableGameObj@@XZ
	DD	FLAT:?Set_Parameters_String@ScriptImpClass@@UAEXPBD@Z
	DD	FLAT:?Get_Parameters_String@ScriptImpClass@@UAEXPADI@Z
	DD	FLAT:?Save@ScriptImpClass@@MAEXAAVScriptSaver@@@Z
	DD	FLAT:?Load@ScriptImpClass@@MAEXAAVScriptLoader@@@Z
	DD	FLAT:?Save_Data@ScriptImpClass@@UAEXAAVScriptSaver@@@Z
	DD	FLAT:?Load_Data@ScriptImpClass@@UAEXAAVScriptLoader@@@Z
	DD	FLAT:?Register_Auto_Save_Variables@ScriptImpClass@@UAEXXZ
CONST	ENDS
;	COMDAT ??_7SUR_Obj_Destroyer@@6B@
CONST	SEGMENT
??_7SUR_Obj_Destroyer@@6B@ DD FLAT:??_R4SUR_Obj_Destroyer@@6B@ ; SUR_Obj_Destroyer::`vftable'
	DD	FLAT:??_ESUR_Obj_Destroyer@@UAEPAXI@Z
	DD	FLAT:?Get_Name@ScriptImpClass@@UAEPBDXZ
	DD	FLAT:?Attach@ScriptImpClass@@MAEXPAVScriptableGameObj@@@Z
	DD	FLAT:?Detach@ScriptImpClass@@MAEXPAVScriptableGameObj@@@Z
	DD	FLAT:?Created@ScriptImpClass@@UAEXPAVScriptableGameObj@@@Z
	DD	FLAT:?Destroyed@ScriptImpClass@@UAEXPAVScriptableGameObj@@@Z
	DD	FLAT:?Killed@ScriptImpClass@@UAEXPAVScriptableGameObj@@0@Z
	DD	FLAT:?Damaged@ScriptImpClass@@UAEXPAVScriptableGameObj@@0M@Z
	DD	FLAT:?Custom@ScriptImpClass@@UAEXPAVScriptableGameObj@@HH0@Z
	DD	FLAT:?Sound_Heard@ScriptImpClass@@UAEXPAVScriptableGameObj@@ABUCombatSound@@@Z
	DD	FLAT:?Enemy_Seen@ScriptImpClass@@UAEXPAVScriptableGameObj@@0@Z
	DD	FLAT:?Action_Complete@ScriptImpClass@@UAEXPAVScriptableGameObj@@HW4ActionCompleteReason@@@Z
	DD	FLAT:?Timer_Expired@ScriptImpClass@@UAEXPAVScriptableGameObj@@H@Z
	DD	FLAT:?Animation_Complete@ScriptImpClass@@UAEXPAVScriptableGameObj@@PBD@Z
	DD	FLAT:?Poked@ScriptImpClass@@UAEXPAVScriptableGameObj@@0@Z
	DD	FLAT:?Entered@ScriptImpClass@@UAEXPAVScriptableGameObj@@0@Z
	DD	FLAT:?Exited@ScriptImpClass@@UAEXPAVScriptableGameObj@@0@Z
	DD	FLAT:?Owner@ScriptImpClass@@UAEPAVScriptableGameObj@@XZ
	DD	FLAT:?Get_Owner_Ptr@ScriptImpClass@@UAEPAPAVScriptableGameObj@@XZ
	DD	FLAT:?Set_Parameters_String@ScriptImpClass@@UAEXPBD@Z
	DD	FLAT:?Get_Parameters_String@ScriptImpClass@@UAEXPADI@Z
	DD	FLAT:?Save@ScriptImpClass@@MAEXAAVScriptSaver@@@Z
	DD	FLAT:?Load@ScriptImpClass@@MAEXAAVScriptLoader@@@Z
	DD	FLAT:?Save_Data@ScriptImpClass@@UAEXAAVScriptSaver@@@Z
	DD	FLAT:?Load_Data@ScriptImpClass@@UAEXAAVScriptLoader@@@Z
	DD	FLAT:?Register_Auto_Save_Variables@ScriptImpClass@@UAEXXZ
CONST	ENDS
;	COMDAT ??_7SUR_NHB_Soldier@@6B@
CONST	SEGMENT
??_7SUR_NHB_Soldier@@6B@ DD FLAT:??_R4SUR_NHB_Soldier@@6B@ ; SUR_NHB_Soldier::`vftable'
	DD	FLAT:??_ESUR_NHB_Soldier@@UAEPAXI@Z
	DD	FLAT:?Get_Name@ScriptImpClass@@UAEPBDXZ
	DD	FLAT:?Attach@ScriptImpClass@@MAEXPAVScriptableGameObj@@@Z
	DD	FLAT:?Detach@ScriptImpClass@@MAEXPAVScriptableGameObj@@@Z
	DD	FLAT:?Created@SUR_NHB_Soldier@@EAEXPAVScriptableGameObj@@@Z
	DD	FLAT:?Destroyed@ScriptImpClass@@UAEXPAVScriptableGameObj@@@Z
	DD	FLAT:?Killed@SUR_NHB_Soldier@@EAEXPAVScriptableGameObj@@0@Z
	DD	FLAT:?Damaged@ScriptImpClass@@UAEXPAVScriptableGameObj@@0M@Z
	DD	FLAT:?Custom@SUR_NHB_Soldier@@EAEXPAVScriptableGameObj@@HH0@Z
	DD	FLAT:?Sound_Heard@ScriptImpClass@@UAEXPAVScriptableGameObj@@ABUCombatSound@@@Z
	DD	FLAT:?Enemy_Seen@ScriptImpClass@@UAEXPAVScriptableGameObj@@0@Z
	DD	FLAT:?Action_Complete@ScriptImpClass@@UAEXPAVScriptableGameObj@@HW4ActionCompleteReason@@@Z
	DD	FLAT:?Timer_Expired@SUR_NHB_Soldier@@EAEXPAVScriptableGameObj@@H@Z
	DD	FLAT:?Animation_Complete@ScriptImpClass@@UAEXPAVScriptableGameObj@@PBD@Z
	DD	FLAT:?Poked@ScriptImpClass@@UAEXPAVScriptableGameObj@@0@Z
	DD	FLAT:?Entered@ScriptImpClass@@UAEXPAVScriptableGameObj@@0@Z
	DD	FLAT:?Exited@ScriptImpClass@@UAEXPAVScriptableGameObj@@0@Z
	DD	FLAT:?Owner@ScriptImpClass@@UAEPAVScriptableGameObj@@XZ
	DD	FLAT:?Get_Owner_Ptr@ScriptImpClass@@UAEPAPAVScriptableGameObj@@XZ
	DD	FLAT:?Set_Parameters_String@ScriptImpClass@@UAEXPBD@Z
	DD	FLAT:?Get_Parameters_String@ScriptImpClass@@UAEXPADI@Z
	DD	FLAT:?Save@ScriptImpClass@@MAEXAAVScriptSaver@@@Z
	DD	FLAT:?Load@ScriptImpClass@@MAEXAAVScriptLoader@@@Z
	DD	FLAT:?Save_Data@ScriptImpClass@@UAEXAAVScriptSaver@@@Z
	DD	FLAT:?Load_Data@ScriptImpClass@@UAEXAAVScriptLoader@@@Z
	DD	FLAT:?Register_Auto_Save_Variables@SUR_NHB_Soldier@@UAEXXZ
CONST	ENDS
;	COMDAT ??_7SUR_NHB@@6B@
CONST	SEGMENT
??_7SUR_NHB@@6B@ DD FLAT:??_R4SUR_NHB@@6B@		; SUR_NHB::`vftable'
	DD	FLAT:??_ESUR_NHB@@UAEPAXI@Z
	DD	FLAT:?Get_Name@ScriptImpClass@@UAEPBDXZ
	DD	FLAT:?Attach@ScriptImpClass@@MAEXPAVScriptableGameObj@@@Z
	DD	FLAT:?Detach@ScriptImpClass@@MAEXPAVScriptableGameObj@@@Z
	DD	FLAT:?Created@SUR_NHB@@EAEXPAVScriptableGameObj@@@Z
	DD	FLAT:?Destroyed@ScriptImpClass@@UAEXPAVScriptableGameObj@@@Z
	DD	FLAT:?Killed@ScriptImpClass@@UAEXPAVScriptableGameObj@@0@Z
	DD	FLAT:?Damaged@ScriptImpClass@@UAEXPAVScriptableGameObj@@0M@Z
	DD	FLAT:?Custom@SUR_NHB@@EAEXPAVScriptableGameObj@@HH0@Z
	DD	FLAT:?Sound_Heard@ScriptImpClass@@UAEXPAVScriptableGameObj@@ABUCombatSound@@@Z
	DD	FLAT:?Enemy_Seen@ScriptImpClass@@UAEXPAVScriptableGameObj@@0@Z
	DD	FLAT:?Action_Complete@ScriptImpClass@@UAEXPAVScriptableGameObj@@HW4ActionCompleteReason@@@Z
	DD	FLAT:?Timer_Expired@ScriptImpClass@@UAEXPAVScriptableGameObj@@H@Z
	DD	FLAT:?Animation_Complete@ScriptImpClass@@UAEXPAVScriptableGameObj@@PBD@Z
	DD	FLAT:?Poked@ScriptImpClass@@UAEXPAVScriptableGameObj@@0@Z
	DD	FLAT:?Entered@ScriptImpClass@@UAEXPAVScriptableGameObj@@0@Z
	DD	FLAT:?Exited@ScriptImpClass@@UAEXPAVScriptableGameObj@@0@Z
	DD	FLAT:?Owner@ScriptImpClass@@UAEPAVScriptableGameObj@@XZ
	DD	FLAT:?Get_Owner_Ptr@ScriptImpClass@@UAEPAPAVScriptableGameObj@@XZ
	DD	FLAT:?Set_Parameters_String@ScriptImpClass@@UAEXPBD@Z
	DD	FLAT:?Get_Parameters_String@ScriptImpClass@@UAEXPADI@Z
	DD	FLAT:?Save@ScriptImpClass@@MAEXAAVScriptSaver@@@Z
	DD	FLAT:?Load@ScriptImpClass@@MAEXAAVScriptLoader@@@Z
	DD	FLAT:?Save_Data@ScriptImpClass@@UAEXAAVScriptSaver@@@Z
	DD	FLAT:?Load_Data@ScriptImpClass@@UAEXAAVScriptLoader@@@Z
	DD	FLAT:?Register_Auto_Save_Variables@SUR_NHB@@UAEXXZ
CONST	ENDS
;	COMDAT ??_7SUR_MiniGen@@6B@
CONST	SEGMENT
??_7SUR_MiniGen@@6B@ DD FLAT:??_R4SUR_MiniGen@@6B@	; SUR_MiniGen::`vftable'
	DD	FLAT:??_ESUR_MiniGen@@UAEPAXI@Z
	DD	FLAT:?Get_Name@ScriptImpClass@@UAEPBDXZ
	DD	FLAT:?Attach@ScriptImpClass@@MAEXPAVScriptableGameObj@@@Z
	DD	FLAT:?Detach@ScriptImpClass@@MAEXPAVScriptableGameObj@@@Z
	DD	FLAT:?Created@SUR_MiniGen@@EAEXPAVScriptableGameObj@@@Z
	DD	FLAT:?Destroyed@ScriptImpClass@@UAEXPAVScriptableGameObj@@@Z
	DD	FLAT:?Killed@SUR_MiniGen@@EAEXPAVScriptableGameObj@@0@Z
	DD	FLAT:?Damaged@ScriptImpClass@@UAEXPAVScriptableGameObj@@0M@Z
	DD	FLAT:?Custom@ScriptImpClass@@UAEXPAVScriptableGameObj@@HH0@Z
	DD	FLAT:?Sound_Heard@ScriptImpClass@@UAEXPAVScriptableGameObj@@ABUCombatSound@@@Z
	DD	FLAT:?Enemy_Seen@ScriptImpClass@@UAEXPAVScriptableGameObj@@0@Z
	DD	FLAT:?Action_Complete@ScriptImpClass@@UAEXPAVScriptableGameObj@@HW4ActionCompleteReason@@@Z
	DD	FLAT:?Timer_Expired@SUR_MiniGen@@EAEXPAVScriptableGameObj@@H@Z
	DD	FLAT:?Animation_Complete@ScriptImpClass@@UAEXPAVScriptableGameObj@@PBD@Z
	DD	FLAT:?Poked@ScriptImpClass@@UAEXPAVScriptableGameObj@@0@Z
	DD	FLAT:?Entered@ScriptImpClass@@UAEXPAVScriptableGameObj@@0@Z
	DD	FLAT:?Exited@ScriptImpClass@@UAEXPAVScriptableGameObj@@0@Z
	DD	FLAT:?Owner@ScriptImpClass@@UAEPAVScriptableGameObj@@XZ
	DD	FLAT:?Get_Owner_Ptr@ScriptImpClass@@UAEPAPAVScriptableGameObj@@XZ
	DD	FLAT:?Set_Parameters_String@ScriptImpClass@@UAEXPBD@Z
	DD	FLAT:?Get_Parameters_String@ScriptImpClass@@UAEXPADI@Z
	DD	FLAT:?Save@ScriptImpClass@@MAEXAAVScriptSaver@@@Z
	DD	FLAT:?Load@ScriptImpClass@@MAEXAAVScriptLoader@@@Z
	DD	FLAT:?Save_Data@ScriptImpClass@@UAEXAAVScriptSaver@@@Z
	DD	FLAT:?Load_Data@ScriptImpClass@@UAEXAAVScriptLoader@@@Z
	DD	FLAT:?Register_Auto_Save_Variables@ScriptImpClass@@UAEXXZ
CONST	ENDS
;	COMDAT ??_7SUR_Generator_Zone@@6B@
CONST	SEGMENT
??_7SUR_Generator_Zone@@6B@ DD FLAT:??_R4SUR_Generator_Zone@@6B@ ; SUR_Generator_Zone::`vftable'
	DD	FLAT:??_ESUR_Generator_Zone@@UAEPAXI@Z
	DD	FLAT:?Get_Name@ScriptImpClass@@UAEPBDXZ
	DD	FLAT:?Attach@ScriptImpClass@@MAEXPAVScriptableGameObj@@@Z
	DD	FLAT:?Detach@ScriptImpClass@@MAEXPAVScriptableGameObj@@@Z
	DD	FLAT:?Created@SUR_Generator_Zone@@EAEXPAVScriptableGameObj@@@Z
	DD	FLAT:?Destroyed@ScriptImpClass@@UAEXPAVScriptableGameObj@@@Z
	DD	FLAT:?Killed@ScriptImpClass@@UAEXPAVScriptableGameObj@@0@Z
	DD	FLAT:?Damaged@ScriptImpClass@@UAEXPAVScriptableGameObj@@0M@Z
	DD	FLAT:?Custom@ScriptImpClass@@UAEXPAVScriptableGameObj@@HH0@Z
	DD	FLAT:?Sound_Heard@ScriptImpClass@@UAEXPAVScriptableGameObj@@ABUCombatSound@@@Z
	DD	FLAT:?Enemy_Seen@ScriptImpClass@@UAEXPAVScriptableGameObj@@0@Z
	DD	FLAT:?Action_Complete@ScriptImpClass@@UAEXPAVScriptableGameObj@@HW4ActionCompleteReason@@@Z
	DD	FLAT:?Timer_Expired@SUR_Generator_Zone@@EAEXPAVScriptableGameObj@@H@Z
	DD	FLAT:?Animation_Complete@ScriptImpClass@@UAEXPAVScriptableGameObj@@PBD@Z
	DD	FLAT:?Poked@ScriptImpClass@@UAEXPAVScriptableGameObj@@0@Z
	DD	FLAT:?Entered@SUR_Generator_Zone@@EAEXPAVScriptableGameObj@@0@Z
	DD	FLAT:?Exited@ScriptImpClass@@UAEXPAVScriptableGameObj@@0@Z
	DD	FLAT:?Owner@ScriptImpClass@@UAEPAVScriptableGameObj@@XZ
	DD	FLAT:?Get_Owner_Ptr@ScriptImpClass@@UAEPAPAVScriptableGameObj@@XZ
	DD	FLAT:?Set_Parameters_String@ScriptImpClass@@UAEXPBD@Z
	DD	FLAT:?Get_Parameters_String@ScriptImpClass@@UAEXPADI@Z
	DD	FLAT:?Save@ScriptImpClass@@MAEXAAVScriptSaver@@@Z
	DD	FLAT:?Load@ScriptImpClass@@MAEXAAVScriptLoader@@@Z
	DD	FLAT:?Save_Data@ScriptImpClass@@UAEXAAVScriptSaver@@@Z
	DD	FLAT:?Load_Data@ScriptImpClass@@UAEXAAVScriptLoader@@@Z
	DD	FLAT:?Register_Auto_Save_Variables@SUR_Generator_Zone@@UAEXXZ
CONST	ENDS
;	COMDAT ??_7SUR_Spawn_Delay@@6B@
CONST	SEGMENT
??_7SUR_Spawn_Delay@@6B@ DD FLAT:??_R4SUR_Spawn_Delay@@6B@ ; SUR_Spawn_Delay::`vftable'
	DD	FLAT:??_ESUR_Spawn_Delay@@UAEPAXI@Z
	DD	FLAT:?Get_Name@ScriptImpClass@@UAEPBDXZ
	DD	FLAT:?Attach@ScriptImpClass@@MAEXPAVScriptableGameObj@@@Z
	DD	FLAT:?Detach@ScriptImpClass@@MAEXPAVScriptableGameObj@@@Z
	DD	FLAT:?Created@SUR_Spawn_Delay@@EAEXPAVScriptableGameObj@@@Z
	DD	FLAT:?Destroyed@ScriptImpClass@@UAEXPAVScriptableGameObj@@@Z
	DD	FLAT:?Killed@ScriptImpClass@@UAEXPAVScriptableGameObj@@0@Z
	DD	FLAT:?Damaged@ScriptImpClass@@UAEXPAVScriptableGameObj@@0M@Z
	DD	FLAT:?Custom@ScriptImpClass@@UAEXPAVScriptableGameObj@@HH0@Z
	DD	FLAT:?Sound_Heard@ScriptImpClass@@UAEXPAVScriptableGameObj@@ABUCombatSound@@@Z
	DD	FLAT:?Enemy_Seen@ScriptImpClass@@UAEXPAVScriptableGameObj@@0@Z
	DD	FLAT:?Action_Complete@ScriptImpClass@@UAEXPAVScriptableGameObj@@HW4ActionCompleteReason@@@Z
	DD	FLAT:?Timer_Expired@SUR_Spawn_Delay@@EAEXPAVScriptableGameObj@@H@Z
	DD	FLAT:?Animation_Complete@ScriptImpClass@@UAEXPAVScriptableGameObj@@PBD@Z
	DD	FLAT:?Poked@ScriptImpClass@@UAEXPAVScriptableGameObj@@0@Z
	DD	FLAT:?Entered@ScriptImpClass@@UAEXPAVScriptableGameObj@@0@Z
	DD	FLAT:?Exited@ScriptImpClass@@UAEXPAVScriptableGameObj@@0@Z
	DD	FLAT:?Owner@ScriptImpClass@@UAEPAVScriptableGameObj@@XZ
	DD	FLAT:?Get_Owner_Ptr@ScriptImpClass@@UAEPAPAVScriptableGameObj@@XZ
	DD	FLAT:?Set_Parameters_String@ScriptImpClass@@UAEXPBD@Z
	DD	FLAT:?Get_Parameters_String@ScriptImpClass@@UAEXPADI@Z
	DD	FLAT:?Save@ScriptImpClass@@MAEXAAVScriptSaver@@@Z
	DD	FLAT:?Load@ScriptImpClass@@MAEXAAVScriptLoader@@@Z
	DD	FLAT:?Save_Data@ScriptImpClass@@UAEXAAVScriptSaver@@@Z
	DD	FLAT:?Load_Data@ScriptImpClass@@UAEXAAVScriptLoader@@@Z
	DD	FLAT:?Register_Auto_Save_Variables@ScriptImpClass@@UAEXXZ
CONST	ENDS
;	COMDAT ??_7ScriptFactory@@6B@
CONST	SEGMENT
??_7ScriptFactory@@6B@ DD FLAT:??_R4ScriptFactory@@6B@	; ScriptFactory::`vftable'
	DD	FLAT:??_EScriptFactory@@UAEPAXI@Z
	DD	FLAT:__purecall
CONST	ENDS
;	COMDAT ??_7ScriptImpClass@@6B@
CONST	SEGMENT
??_7ScriptImpClass@@6B@ DD FLAT:??_R4ScriptImpClass@@6B@ ; ScriptImpClass::`vftable'
	DD	FLAT:??_EScriptImpClass@@UAEPAXI@Z
	DD	FLAT:?Get_Name@ScriptImpClass@@UAEPBDXZ
	DD	FLAT:?Attach@ScriptImpClass@@MAEXPAVScriptableGameObj@@@Z
	DD	FLAT:?Detach@ScriptImpClass@@MAEXPAVScriptableGameObj@@@Z
	DD	FLAT:?Created@ScriptImpClass@@UAEXPAVScriptableGameObj@@@Z
	DD	FLAT:?Destroyed@ScriptImpClass@@UAEXPAVScriptableGameObj@@@Z
	DD	FLAT:?Killed@ScriptImpClass@@UAEXPAVScriptableGameObj@@0@Z
	DD	FLAT:?Damaged@ScriptImpClass@@UAEXPAVScriptableGameObj@@0M@Z
	DD	FLAT:?Custom@ScriptImpClass@@UAEXPAVScriptableGameObj@@HH0@Z
	DD	FLAT:?Sound_Heard@ScriptImpClass@@UAEXPAVScriptableGameObj@@ABUCombatSound@@@Z
	DD	FLAT:?Enemy_Seen@ScriptImpClass@@UAEXPAVScriptableGameObj@@0@Z
	DD	FLAT:?Action_Complete@ScriptImpClass@@UAEXPAVScriptableGameObj@@HW4ActionCompleteReason@@@Z
	DD	FLAT:?Timer_Expired@ScriptImpClass@@UAEXPAVScriptableGameObj@@H@Z
	DD	FLAT:?Animation_Complete@ScriptImpClass@@UAEXPAVScriptableGameObj@@PBD@Z
	DD	FLAT:?Poked@ScriptImpClass@@UAEXPAVScriptableGameObj@@0@Z
	DD	FLAT:?Entered@ScriptImpClass@@UAEXPAVScriptableGameObj@@0@Z
	DD	FLAT:?Exited@ScriptImpClass@@UAEXPAVScriptableGameObj@@0@Z
	DD	FLAT:?Owner@ScriptImpClass@@UAEPAVScriptableGameObj@@XZ
	DD	FLAT:?Get_Owner_Ptr@ScriptImpClass@@UAEPAPAVScriptableGameObj@@XZ
	DD	FLAT:?Set_Parameters_String@ScriptImpClass@@UAEXPBD@Z
	DD	FLAT:?Get_Parameters_String@ScriptImpClass@@UAEXPADI@Z
	DD	FLAT:?Save@ScriptImpClass@@MAEXAAVScriptSaver@@@Z
	DD	FLAT:?Load@ScriptImpClass@@MAEXAAVScriptLoader@@@Z
	DD	FLAT:?Save_Data@ScriptImpClass@@UAEXAAVScriptSaver@@@Z
	DD	FLAT:?Load_Data@ScriptImpClass@@UAEXAAVScriptLoader@@@Z
	DD	FLAT:?Register_Auto_Save_Variables@ScriptImpClass@@UAEXXZ
CONST	ENDS
;	COMDAT ??_7ScriptClass@@6B@
CONST	SEGMENT
??_7ScriptClass@@6B@ DD FLAT:??_R4ScriptClass@@6B@	; ScriptClass::`vftable'
	DD	FLAT:??_EScriptClass@@UAEPAXI@Z
	DD	FLAT:__purecall
	DD	FLAT:__purecall
	DD	FLAT:__purecall
	DD	FLAT:__purecall
	DD	FLAT:__purecall
	DD	FLAT:__purecall
	DD	FLAT:__purecall
	DD	FLAT:__purecall
	DD	FLAT:__purecall
	DD	FLAT:__purecall
	DD	FLAT:__purecall
	DD	FLAT:__purecall
	DD	FLAT:__purecall
	DD	FLAT:__purecall
	DD	FLAT:__purecall
	DD	FLAT:__purecall
	DD	FLAT:?Owner@GameObjObserverClass@@UAEPAVScriptableGameObj@@XZ
	DD	FLAT:__purecall
	DD	FLAT:__purecall
	DD	FLAT:__purecall
	DD	FLAT:__purecall
	DD	FLAT:__purecall
CONST	ENDS
;	COMDAT ??_7GameObjObserverClass@@6B@
CONST	SEGMENT
??_7GameObjObserverClass@@6B@ DD FLAT:??_R4GameObjObserverClass@@6B@ ; GameObjObserverClass::`vftable'
	DD	FLAT:??_EGameObjObserverClass@@UAEPAXI@Z
	DD	FLAT:__purecall
	DD	FLAT:__purecall
	DD	FLAT:__purecall
	DD	FLAT:__purecall
	DD	FLAT:__purecall
	DD	FLAT:__purecall
	DD	FLAT:__purecall
	DD	FLAT:__purecall
	DD	FLAT:__purecall
	DD	FLAT:__purecall
	DD	FLAT:__purecall
	DD	FLAT:__purecall
	DD	FLAT:__purecall
	DD	FLAT:__purecall
	DD	FLAT:__purecall
	DD	FLAT:__purecall
	DD	FLAT:?Owner@GameObjObserverClass@@UAEPAVScriptableGameObj@@XZ
CONST	ENDS
CRT$XCU	SEGMENT
_SUR_Generator_Zone_Registrant$initializer$ DD FLAT:??__ESUR_Generator_Zone_Registrant@@YAXXZ
CRT$XCU	ENDS
CRT$XCU	SEGMENT
_SUR_MiniGen_Registrant$initializer$ DD FLAT:??__ESUR_MiniGen_Registrant@@YAXXZ
CRT$XCU	ENDS
CRT$XCU	SEGMENT
_SUR_NHB_Registrant$initializer$ DD FLAT:??__ESUR_NHB_Registrant@@YAXXZ
CRT$XCU	ENDS
CRT$XCU	SEGMENT
_SUR_NHB_Soldier_Registrant$initializer$ DD FLAT:??__ESUR_NHB_Soldier_Registrant@@YAXXZ
CRT$XCU	ENDS
CRT$XCU	SEGMENT
_SUR_Obj_Destroyer_Registrant$initializer$ DD FLAT:??__ESUR_Obj_Destroyer_Registrant@@YAXXZ
CRT$XCU	ENDS
CRT$XCU	SEGMENT
_SUR_New_PT_Registrant$initializer$ DD FLAT:??__ESUR_New_PT_Registrant@@YAXXZ
CRT$XCU	ENDS
CRT$XCU	SEGMENT
_SUR_New_PT_Reciever_Registrant$initializer$ DD FLAT:??__ESUR_New_PT_Reciever_Registrant@@YAXXZ
CRT$XCU	ENDS
CRT$XCU	SEGMENT
_SUR_APC_AI_Registrant$initializer$ DD FLAT:??__ESUR_APC_AI_Registrant@@YAXXZ
CRT$XCU	ENDS
CRT$XCU	SEGMENT
_SUR_Orca_AI_Registrant$initializer$ DD FLAT:??__ESUR_Orca_AI_Registrant@@YAXXZ
CRT$XCU	ENDS
CRT$XCU	SEGMENT
_SUR_Chinook_AI_Registrant$initializer$ DD FLAT:??__ESUR_Chinook_AI_Registrant@@YAXXZ
CRT$XCU	ENDS
CRT$XCU	SEGMENT
_SUR_Dep_Turret_Registrant$initializer$ DD FLAT:??__ESUR_Dep_Turret_Registrant@@YAXXZ
CRT$XCU	ENDS
CRT$XCU	SEGMENT
_SUR_Timed_Death_Registrant$initializer$ DD FLAT:??__ESUR_Timed_Death_Registrant@@YAXXZ
CRT$XCU	ENDS
CRT$XCU	SEGMENT
_SUR_GrantPowerup_OnEntry_Registrant$initializer$ DD FLAT:??__ESUR_GrantPowerup_OnEntry_Registrant@@YAXXZ
CRT$XCU	ENDS
; Function compile flags: /Odtp /ZI
;	COMDAT ??__FSUR_GrantPowerup_OnEntry_Registrant@@YAXXZ
text$yd	SEGMENT
??__FSUR_GrantPowerup_OnEntry_Registrant@@YAXXZ PROC	; `dynamic atexit destructor for 'SUR_GrantPowerup_OnEntry_Registrant'', COMDAT
	push	ebp
	mov	ebp, esp
	sub	esp, 64					; 00000040H
	push	ebx
	push	esi
	push	edi
	mov	ecx, OFFSET ?SUR_GrantPowerup_OnEntry_Registrant@@3V?$ScriptRegistrant@VSUR_GrantPowerup_OnEntry@@@@A ; SUR_GrantPowerup_OnEntry_Registrant
	call	??1?$ScriptRegistrant@VSUR_GrantPowerup_OnEntry@@@@UAE@XZ
	pop	edi
	pop	esi
	pop	ebx
	mov	esp, ebp
	pop	ebp
	ret	0
??__FSUR_GrantPowerup_OnEntry_Registrant@@YAXXZ ENDP	; `dynamic atexit destructor for 'SUR_GrantPowerup_OnEntry_Registrant''
text$yd	ENDS
; Function compile flags: /Odtp /ZI
; File x:\github\renegade\dragonade_rxd\scripts\survival.cpp
;	COMDAT ??__ESUR_GrantPowerup_OnEntry_Registrant@@YAXXZ
text$yc	SEGMENT
??__ESUR_GrantPowerup_OnEntry_Registrant@@YAXXZ PROC	; `dynamic initializer for 'SUR_GrantPowerup_OnEntry_Registrant'', COMDAT

; 832  : ScriptRegistrant<SUR_GrantPowerup_OnEntry> SUR_GrantPowerup_OnEntry_Registrant("SUR_GrantPowerup_OnEntry","Preset:string,Powerup:string");

	push	ebp
	mov	ebp, esp
	sub	esp, 64					; 00000040H
	push	ebx
	push	esi
	push	edi
	push	OFFSET ??_C@_0BN@OELIADGD@Preset?3string?0Powerup?3string?$AA@
	push	OFFSET ??_C@_0BJ@KLABFPHM@SUR_GrantPowerup_OnEntry?$AA@
	mov	ecx, OFFSET ?SUR_GrantPowerup_OnEntry_Registrant@@3V?$ScriptRegistrant@VSUR_GrantPowerup_OnEntry@@@@A ; SUR_GrantPowerup_OnEntry_Registrant
	call	??0?$ScriptRegistrant@VSUR_GrantPowerup_OnEntry@@@@QAE@PBD0@Z ; ScriptRegistrant<SUR_GrantPowerup_OnEntry>::ScriptRegistrant<SUR_GrantPowerup_OnEntry>
	push	OFFSET ??__FSUR_GrantPowerup_OnEntry_Registrant@@YAXXZ ; `dynamic atexit destructor for 'SUR_GrantPowerup_OnEntry_Registrant''
	call	_atexit
	add	esp, 4
	pop	edi
	pop	esi
	pop	ebx
	mov	esp, ebp
	pop	ebp
	ret	0
??__ESUR_GrantPowerup_OnEntry_Registrant@@YAXXZ ENDP	; `dynamic initializer for 'SUR_GrantPowerup_OnEntry_Registrant''
text$yc	ENDS
; Function compile flags: /Odtp /ZI
;	COMDAT ??_G?$ScriptRegistrant@VSUR_GrantPowerup_OnEntry@@@@UAEPAXI@Z
_TEXT	SEGMENT
_this$ = -4						; size = 4
___flags$ = 8						; size = 4
??_G?$ScriptRegistrant@VSUR_GrantPowerup_OnEntry@@@@UAEPAXI@Z PROC ; ScriptRegistrant<SUR_GrantPowerup_OnEntry>::`scalar deleting destructor', COMDAT
; _this$ = ecx
	push	ebp
	mov	ebp, esp
	sub	esp, 68					; 00000044H
	push	ebx
	push	esi
	push	edi
	mov	DWORD PTR _this$[ebp], ecx
	mov	ecx, DWORD PTR _this$[ebp]
	call	??1?$ScriptRegistrant@VSUR_GrantPowerup_OnEntry@@@@UAE@XZ
	mov	eax, DWORD PTR ___flags$[ebp]
	and	eax, 1
	je	SHORT $LN1@scalar
	mov	eax, DWORD PTR _this$[ebp]
	push	eax
	call	??3@YAXPAX@Z				; operator delete
	add	esp, 4
$LN1@scalar:
	mov	eax, DWORD PTR _this$[ebp]
	pop	edi
	pop	esi
	pop	ebx
	mov	esp, ebp
	pop	ebp
	ret	4
??_G?$ScriptRegistrant@VSUR_GrantPowerup_OnEntry@@@@UAEPAXI@Z ENDP ; ScriptRegistrant<SUR_GrantPowerup_OnEntry>::`scalar deleting destructor'
_TEXT	ENDS
; Function compile flags: /Odtp /ZI
;	COMDAT ??1?$ScriptRegistrant@VSUR_GrantPowerup_OnEntry@@@@UAE@XZ
_TEXT	SEGMENT
_this$ = -4						; size = 4
??1?$ScriptRegistrant@VSUR_GrantPowerup_OnEntry@@@@UAE@XZ PROC ; ScriptRegistrant<SUR_GrantPowerup_OnEntry>::~ScriptRegistrant<SUR_GrantPowerup_OnEntry>, COMDAT
; _this$ = ecx
	push	ebp
	mov	ebp, esp
	sub	esp, 68					; 00000044H
	push	ebx
	push	esi
	push	edi
	mov	DWORD PTR _this$[ebp], ecx
	mov	ecx, DWORD PTR _this$[ebp]
	call	??1ScriptFactory@@UAE@XZ		; ScriptFactory::~ScriptFactory
	pop	edi
	pop	esi
	pop	ebx
	mov	esp, ebp
	pop	ebp
	ret	0
??1?$ScriptRegistrant@VSUR_GrantPowerup_OnEntry@@@@UAE@XZ ENDP ; ScriptRegistrant<SUR_GrantPowerup_OnEntry>::~ScriptRegistrant<SUR_GrantPowerup_OnEntry>
_TEXT	ENDS
; Function compile flags: /Odtp /ZI
; File x:\github\renegade\dragonade_rxd\scripts\scripts.h
;	COMDAT ?Create@?$ScriptRegistrant@VSUR_GrantPowerup_OnEntry@@@@UAEPAVScriptImpClass@@XZ
_TEXT	SEGMENT
tv77 = -84						; size = 4
tv79 = -80						; size = 4
$T1 = -76						; size = 4
_script$ = -8						; size = 4
_this$ = -4						; size = 4
?Create@?$ScriptRegistrant@VSUR_GrantPowerup_OnEntry@@@@UAEPAVScriptImpClass@@XZ PROC ; ScriptRegistrant<SUR_GrantPowerup_OnEntry>::Create, COMDAT
; _this$ = ecx

; 552  : 	{

	push	ebp
	mov	ebp, esp
	sub	esp, 84					; 00000054H
	push	ebx
	push	esi
	push	edi
	mov	DWORD PTR _this$[ebp], ecx

; 553  : 		T* script = new T;

	push	OFFSET ??_C@_0DJ@EEEDKFIH@ScriptRegistrant?$DMclass?5SUR_Grant@
	push	553					; 00000229H
	push	OFFSET ??_C@_0DD@KMKBFFOF@x?3?2github?2renegade?2dragonade_rxd@
	call	?SetThreadTrackingInformation@@YAXPBDI0@Z ; SetThreadTrackingInformation
	add	esp, 12					; 0000000cH
	xor	eax, eax
	je	SHORT $LN6@Create
	xor	ecx, ecx
	jne	SHORT $LN3@Create
	push	553					; 00000229H
	push	OFFSET ??_C@_1GG@OGNLNBPD@?$AAx?$AA?3?$AA?2?$AAg?$AAi?$AAt?$AAh?$AAu?$AAb?$AA?2?$AAr?$AAe?$AAn?$AAe?$AAg?$AAa?$AAd?$AAe?$AA?2?$AAd?$AAr?$AAa?$AAg?$AAo?$AAn?$AAa?$AAd?$AAe?$AA_?$AAr?$AAx?$AAd@
	push	OFFSET ??_C@_1M@HLGKFCJM@?$AAf?$AAa?$AAl?$AAs?$AAe?$AA?$AA@
	call	DWORD PTR __imp___wassert
	add	esp, 12					; 0000000cH
$LN3@Create:
	mov	DWORD PTR tv79[ebp], 0
	jmp	SHORT $LN7@Create
$LN6@Create:
	push	28					; 0000001cH
	call	??2@YAPAXI@Z				; operator new
	add	esp, 4
	mov	DWORD PTR $T1[ebp], eax
	cmp	DWORD PTR $T1[ebp], 0
	je	SHORT $LN4@Create
	mov	ecx, DWORD PTR $T1[ebp]
	call	??0SUR_GrantPowerup_OnEntry@@QAE@XZ
	mov	DWORD PTR tv77[ebp], eax
	jmp	SHORT $LN5@Create
$LN4@Create:
	mov	DWORD PTR tv77[ebp], 0
$LN5@Create:
	mov	eax, DWORD PTR tv77[ebp]
	mov	DWORD PTR tv79[ebp], eax
$LN7@Create:
	mov	ecx, DWORD PTR tv79[ebp]
	mov	DWORD PTR _script$[ebp], ecx

; 554  : 		script->SetFactory(this);

	mov	eax, DWORD PTR _this$[ebp]
	push	eax
	mov	ecx, DWORD PTR _script$[ebp]
	call	?SetFactory@ScriptImpClass@@QAEXPAVScriptFactory@@@Z ; ScriptImpClass::SetFactory

; 555  : 		script->Register_Auto_Save_Variables();

	mov	eax, DWORD PTR _script$[ebp]
	mov	edx, DWORD PTR [eax]
	mov	ecx, DWORD PTR _script$[ebp]
	mov	eax, DWORD PTR [edx+100]
	call	eax

; 556  : 		return script;

	mov	eax, DWORD PTR _script$[ebp]

; 557  : 	}

	pop	edi
	pop	esi
	pop	ebx
	mov	esp, ebp
	pop	ebp
	ret	0
?Create@?$ScriptRegistrant@VSUR_GrantPowerup_OnEntry@@@@UAEPAVScriptImpClass@@XZ ENDP ; ScriptRegistrant<SUR_GrantPowerup_OnEntry>::Create
_TEXT	ENDS
; Function compile flags: /Odtp /ZI
; File x:\github\renegade\dragonade_rxd\scripts\scripts.h
;	COMDAT ??0?$ScriptRegistrant@VSUR_GrantPowerup_OnEntry@@@@QAE@PBD0@Z
_TEXT	SEGMENT
_this$ = -4						; size = 4
_name$ = 8						; size = 4
_param$ = 12						; size = 4
??0?$ScriptRegistrant@VSUR_GrantPowerup_OnEntry@@@@QAE@PBD0@Z PROC ; ScriptRegistrant<SUR_GrantPowerup_OnEntry>::ScriptRegistrant<SUR_GrantPowerup_OnEntry>, COMDAT
; _this$ = ecx

; 549  : 	{

	push	ebp
	mov	ebp, esp
	sub	esp, 68					; 00000044H
	push	ebx
	push	esi
	push	edi
	mov	DWORD PTR _this$[ebp], ecx
	mov	eax, DWORD PTR _param$[ebp]
	push	eax
	mov	ecx, DWORD PTR _name$[ebp]
	push	ecx
	mov	ecx, DWORD PTR _this$[ebp]
	call	??0ScriptFactory@@IAE@PBD0@Z		; ScriptFactory::ScriptFactory
	mov	eax, DWORD PTR _this$[ebp]
	mov	DWORD PTR [eax], OFFSET ??_7?$ScriptRegistrant@VSUR_GrantPowerup_OnEntry@@@@6B@

; 550  : 	}

	mov	eax, DWORD PTR _this$[ebp]
	pop	edi
	pop	esi
	pop	ebx
	mov	esp, ebp
	pop	ebp
	ret	8
??0?$ScriptRegistrant@VSUR_GrantPowerup_OnEntry@@@@QAE@PBD0@Z ENDP ; ScriptRegistrant<SUR_GrantPowerup_OnEntry>::ScriptRegistrant<SUR_GrantPowerup_OnEntry>
_TEXT	ENDS
; Function compile flags: /Odtp /ZI
;	COMDAT ??__FSUR_Timed_Death_Registrant@@YAXXZ
text$yd	SEGMENT
??__FSUR_Timed_Death_Registrant@@YAXXZ PROC		; `dynamic atexit destructor for 'SUR_Timed_Death_Registrant'', COMDAT
	push	ebp
	mov	ebp, esp
	sub	esp, 64					; 00000040H
	push	ebx
	push	esi
	push	edi
	mov	ecx, OFFSET ?SUR_Timed_Death_Registrant@@3V?$ScriptRegistrant@VSUR_Timed_Death@@@@A ; SUR_Timed_Death_Registrant
	call	??1?$ScriptRegistrant@VSUR_Timed_Death@@@@UAE@XZ
	pop	edi
	pop	esi
	pop	ebx
	mov	esp, ebp
	pop	ebp
	ret	0
??__FSUR_Timed_Death_Registrant@@YAXXZ ENDP		; `dynamic atexit destructor for 'SUR_Timed_Death_Registrant''
text$yd	ENDS
; Function compile flags: /Odtp /ZI
; File x:\github\renegade\dragonade_rxd\scripts\survival.cpp
;	COMDAT ??__ESUR_Timed_Death_Registrant@@YAXXZ
text$yc	SEGMENT
??__ESUR_Timed_Death_Registrant@@YAXXZ PROC		; `dynamic initializer for 'SUR_Timed_Death_Registrant'', COMDAT

; 831  : ScriptRegistrant<SUR_Timed_Death> SUR_Timed_Death_Registrant("SUR_Timed_Death","Delay:float,Damage_Amount:float,Damage_Type:string");

	push	ebp
	mov	ebp, esp
	sub	esp, 64					; 00000040H
	push	ebx
	push	esi
	push	edi
	push	OFFSET ??_C@_0DD@BINEMFNP@Delay?3float?0Damage_Amount?3float?0@
	push	OFFSET ??_C@_0BA@LIDMMLAJ@SUR_Timed_Death?$AA@
	mov	ecx, OFFSET ?SUR_Timed_Death_Registrant@@3V?$ScriptRegistrant@VSUR_Timed_Death@@@@A ; SUR_Timed_Death_Registrant
	call	??0?$ScriptRegistrant@VSUR_Timed_Death@@@@QAE@PBD0@Z ; ScriptRegistrant<SUR_Timed_Death>::ScriptRegistrant<SUR_Timed_Death>
	push	OFFSET ??__FSUR_Timed_Death_Registrant@@YAXXZ ; `dynamic atexit destructor for 'SUR_Timed_Death_Registrant''
	call	_atexit
	add	esp, 4
	pop	edi
	pop	esi
	pop	ebx
	mov	esp, ebp
	pop	ebp
	ret	0
??__ESUR_Timed_Death_Registrant@@YAXXZ ENDP		; `dynamic initializer for 'SUR_Timed_Death_Registrant''
text$yc	ENDS
; Function compile flags: /Odtp /ZI
;	COMDAT ??_G?$ScriptRegistrant@VSUR_Timed_Death@@@@UAEPAXI@Z
_TEXT	SEGMENT
_this$ = -4						; size = 4
___flags$ = 8						; size = 4
??_G?$ScriptRegistrant@VSUR_Timed_Death@@@@UAEPAXI@Z PROC ; ScriptRegistrant<SUR_Timed_Death>::`scalar deleting destructor', COMDAT
; _this$ = ecx
	push	ebp
	mov	ebp, esp
	sub	esp, 68					; 00000044H
	push	ebx
	push	esi
	push	edi
	mov	DWORD PTR _this$[ebp], ecx
	mov	ecx, DWORD PTR _this$[ebp]
	call	??1?$ScriptRegistrant@VSUR_Timed_Death@@@@UAE@XZ
	mov	eax, DWORD PTR ___flags$[ebp]
	and	eax, 1
	je	SHORT $LN1@scalar
	mov	eax, DWORD PTR _this$[ebp]
	push	eax
	call	??3@YAXPAX@Z				; operator delete
	add	esp, 4
$LN1@scalar:
	mov	eax, DWORD PTR _this$[ebp]
	pop	edi
	pop	esi
	pop	ebx
	mov	esp, ebp
	pop	ebp
	ret	4
??_G?$ScriptRegistrant@VSUR_Timed_Death@@@@UAEPAXI@Z ENDP ; ScriptRegistrant<SUR_Timed_Death>::`scalar deleting destructor'
_TEXT	ENDS
; Function compile flags: /Odtp /ZI
;	COMDAT ??1?$ScriptRegistrant@VSUR_Timed_Death@@@@UAE@XZ
_TEXT	SEGMENT
_this$ = -4						; size = 4
??1?$ScriptRegistrant@VSUR_Timed_Death@@@@UAE@XZ PROC	; ScriptRegistrant<SUR_Timed_Death>::~ScriptRegistrant<SUR_Timed_Death>, COMDAT
; _this$ = ecx
	push	ebp
	mov	ebp, esp
	sub	esp, 68					; 00000044H
	push	ebx
	push	esi
	push	edi
	mov	DWORD PTR _this$[ebp], ecx
	mov	ecx, DWORD PTR _this$[ebp]
	call	??1ScriptFactory@@UAE@XZ		; ScriptFactory::~ScriptFactory
	pop	edi
	pop	esi
	pop	ebx
	mov	esp, ebp
	pop	ebp
	ret	0
??1?$ScriptRegistrant@VSUR_Timed_Death@@@@UAE@XZ ENDP	; ScriptRegistrant<SUR_Timed_Death>::~ScriptRegistrant<SUR_Timed_Death>
_TEXT	ENDS
; Function compile flags: /Odtp /ZI
; File x:\github\renegade\dragonade_rxd\scripts\scripts.h
;	COMDAT ?Create@?$ScriptRegistrant@VSUR_Timed_Death@@@@UAEPAVScriptImpClass@@XZ
_TEXT	SEGMENT
tv77 = -84						; size = 4
tv79 = -80						; size = 4
$T1 = -76						; size = 4
_script$ = -8						; size = 4
_this$ = -4						; size = 4
?Create@?$ScriptRegistrant@VSUR_Timed_Death@@@@UAEPAVScriptImpClass@@XZ PROC ; ScriptRegistrant<SUR_Timed_Death>::Create, COMDAT
; _this$ = ecx

; 552  : 	{

	push	ebp
	mov	ebp, esp
	sub	esp, 84					; 00000054H
	push	ebx
	push	esi
	push	edi
	mov	DWORD PTR _this$[ebp], ecx

; 553  : 		T* script = new T;

	push	OFFSET ??_C@_0DA@FKNKJHCG@ScriptRegistrant?$DMclass?5SUR_Timed@
	push	553					; 00000229H
	push	OFFSET ??_C@_0DD@KMKBFFOF@x?3?2github?2renegade?2dragonade_rxd@
	call	?SetThreadTrackingInformation@@YAXPBDI0@Z ; SetThreadTrackingInformation
	add	esp, 12					; 0000000cH
	xor	eax, eax
	je	SHORT $LN6@Create
	xor	ecx, ecx
	jne	SHORT $LN3@Create
	push	553					; 00000229H
	push	OFFSET ??_C@_1GG@OGNLNBPD@?$AAx?$AA?3?$AA?2?$AAg?$AAi?$AAt?$AAh?$AAu?$AAb?$AA?2?$AAr?$AAe?$AAn?$AAe?$AAg?$AAa?$AAd?$AAe?$AA?2?$AAd?$AAr?$AAa?$AAg?$AAo?$AAn?$AAa?$AAd?$AAe?$AA_?$AAr?$AAx?$AAd@
	push	OFFSET ??_C@_1M@HLGKFCJM@?$AAf?$AAa?$AAl?$AAs?$AAe?$AA?$AA@
	call	DWORD PTR __imp___wassert
	add	esp, 12					; 0000000cH
$LN3@Create:
	mov	DWORD PTR tv79[ebp], 0
	jmp	SHORT $LN7@Create
$LN6@Create:
	push	28					; 0000001cH
	call	??2@YAPAXI@Z				; operator new
	add	esp, 4
	mov	DWORD PTR $T1[ebp], eax
	cmp	DWORD PTR $T1[ebp], 0
	je	SHORT $LN4@Create
	mov	ecx, DWORD PTR $T1[ebp]
	call	??0SUR_Timed_Death@@QAE@XZ
	mov	DWORD PTR tv77[ebp], eax
	jmp	SHORT $LN5@Create
$LN4@Create:
	mov	DWORD PTR tv77[ebp], 0
$LN5@Create:
	mov	eax, DWORD PTR tv77[ebp]
	mov	DWORD PTR tv79[ebp], eax
$LN7@Create:
	mov	ecx, DWORD PTR tv79[ebp]
	mov	DWORD PTR _script$[ebp], ecx

; 554  : 		script->SetFactory(this);

	mov	eax, DWORD PTR _this$[ebp]
	push	eax
	mov	ecx, DWORD PTR _script$[ebp]
	call	?SetFactory@ScriptImpClass@@QAEXPAVScriptFactory@@@Z ; ScriptImpClass::SetFactory

; 555  : 		script->Register_Auto_Save_Variables();

	mov	eax, DWORD PTR _script$[ebp]
	mov	edx, DWORD PTR [eax]
	mov	ecx, DWORD PTR _script$[ebp]
	mov	eax, DWORD PTR [edx+100]
	call	eax

; 556  : 		return script;

	mov	eax, DWORD PTR _script$[ebp]

; 557  : 	}

	pop	edi
	pop	esi
	pop	ebx
	mov	esp, ebp
	pop	ebp
	ret	0
?Create@?$ScriptRegistrant@VSUR_Timed_Death@@@@UAEPAVScriptImpClass@@XZ ENDP ; ScriptRegistrant<SUR_Timed_Death>::Create
_TEXT	ENDS
; Function compile flags: /Odtp /ZI
; File x:\github\renegade\dragonade_rxd\scripts\scripts.h
;	COMDAT ??0?$ScriptRegistrant@VSUR_Timed_Death@@@@QAE@PBD0@Z
_TEXT	SEGMENT
_this$ = -4						; size = 4
_name$ = 8						; size = 4
_param$ = 12						; size = 4
??0?$ScriptRegistrant@VSUR_Timed_Death@@@@QAE@PBD0@Z PROC ; ScriptRegistrant<SUR_Timed_Death>::ScriptRegistrant<SUR_Timed_Death>, COMDAT
; _this$ = ecx

; 549  : 	{

	push	ebp
	mov	ebp, esp
	sub	esp, 68					; 00000044H
	push	ebx
	push	esi
	push	edi
	mov	DWORD PTR _this$[ebp], ecx
	mov	eax, DWORD PTR _param$[ebp]
	push	eax
	mov	ecx, DWORD PTR _name$[ebp]
	push	ecx
	mov	ecx, DWORD PTR _this$[ebp]
	call	??0ScriptFactory@@IAE@PBD0@Z		; ScriptFactory::ScriptFactory
	mov	eax, DWORD PTR _this$[ebp]
	mov	DWORD PTR [eax], OFFSET ??_7?$ScriptRegistrant@VSUR_Timed_Death@@@@6B@

; 550  : 	}

	mov	eax, DWORD PTR _this$[ebp]
	pop	edi
	pop	esi
	pop	ebx
	mov	esp, ebp
	pop	ebp
	ret	8
??0?$ScriptRegistrant@VSUR_Timed_Death@@@@QAE@PBD0@Z ENDP ; ScriptRegistrant<SUR_Timed_Death>::ScriptRegistrant<SUR_Timed_Death>
_TEXT	ENDS
; Function compile flags: /Odtp /ZI
;	COMDAT ??__FSUR_Dep_Turret_Registrant@@YAXXZ
text$yd	SEGMENT
??__FSUR_Dep_Turret_Registrant@@YAXXZ PROC		; `dynamic atexit destructor for 'SUR_Dep_Turret_Registrant'', COMDAT
	push	ebp
	mov	ebp, esp
	sub	esp, 64					; 00000040H
	push	ebx
	push	esi
	push	edi
	mov	ecx, OFFSET ?SUR_Dep_Turret_Registrant@@3V?$ScriptRegistrant@VSUR_Dep_Turret@@@@A ; SUR_Dep_Turret_Registrant
	call	??1?$ScriptRegistrant@VSUR_Dep_Turret@@@@UAE@XZ
	pop	edi
	pop	esi
	pop	ebx
	mov	esp, ebp
	pop	ebp
	ret	0
??__FSUR_Dep_Turret_Registrant@@YAXXZ ENDP		; `dynamic atexit destructor for 'SUR_Dep_Turret_Registrant''
text$yd	ENDS
; Function compile flags: /Odtp /ZI
; File x:\github\renegade\dragonade_rxd\scripts\survival.cpp
;	COMDAT ??__ESUR_Dep_Turret_Registrant@@YAXXZ
text$yc	SEGMENT
??__ESUR_Dep_Turret_Registrant@@YAXXZ PROC		; `dynamic initializer for 'SUR_Dep_Turret_Registrant'', COMDAT

; 830  : ScriptRegistrant<SUR_Dep_Turret> SUR_Dep_Turret_Registrant("SUR_Dep_Turret","MinAttackDistance=0.0:float,MaxAttackDistance=300.0:float,AttackTimer=10.0:int");

	push	ebp
	mov	ebp, esp
	sub	esp, 64					; 00000040H
	push	ebx
	push	esi
	push	edi
	push	OFFSET ??_C@_0EP@COIIGKKP@MinAttackDistance?$DN0?40?3float?0MaxA@
	push	OFFSET ??_C@_0P@NFLNCIFF@SUR_Dep_Turret?$AA@
	mov	ecx, OFFSET ?SUR_Dep_Turret_Registrant@@3V?$ScriptRegistrant@VSUR_Dep_Turret@@@@A ; SUR_Dep_Turret_Registrant
	call	??0?$ScriptRegistrant@VSUR_Dep_Turret@@@@QAE@PBD0@Z ; ScriptRegistrant<SUR_Dep_Turret>::ScriptRegistrant<SUR_Dep_Turret>
	push	OFFSET ??__FSUR_Dep_Turret_Registrant@@YAXXZ ; `dynamic atexit destructor for 'SUR_Dep_Turret_Registrant''
	call	_atexit
	add	esp, 4
	pop	edi
	pop	esi
	pop	ebx
	mov	esp, ebp
	pop	ebp
	ret	0
??__ESUR_Dep_Turret_Registrant@@YAXXZ ENDP		; `dynamic initializer for 'SUR_Dep_Turret_Registrant''
text$yc	ENDS
; Function compile flags: /Odtp /ZI
;	COMDAT ??_G?$ScriptRegistrant@VSUR_Dep_Turret@@@@UAEPAXI@Z
_TEXT	SEGMENT
_this$ = -4						; size = 4
___flags$ = 8						; size = 4
??_G?$ScriptRegistrant@VSUR_Dep_Turret@@@@UAEPAXI@Z PROC ; ScriptRegistrant<SUR_Dep_Turret>::`scalar deleting destructor', COMDAT
; _this$ = ecx
	push	ebp
	mov	ebp, esp
	sub	esp, 68					; 00000044H
	push	ebx
	push	esi
	push	edi
	mov	DWORD PTR _this$[ebp], ecx
	mov	ecx, DWORD PTR _this$[ebp]
	call	??1?$ScriptRegistrant@VSUR_Dep_Turret@@@@UAE@XZ
	mov	eax, DWORD PTR ___flags$[ebp]
	and	eax, 1
	je	SHORT $LN1@scalar
	mov	eax, DWORD PTR _this$[ebp]
	push	eax
	call	??3@YAXPAX@Z				; operator delete
	add	esp, 4
$LN1@scalar:
	mov	eax, DWORD PTR _this$[ebp]
	pop	edi
	pop	esi
	pop	ebx
	mov	esp, ebp
	pop	ebp
	ret	4
??_G?$ScriptRegistrant@VSUR_Dep_Turret@@@@UAEPAXI@Z ENDP ; ScriptRegistrant<SUR_Dep_Turret>::`scalar deleting destructor'
_TEXT	ENDS
; Function compile flags: /Odtp /ZI
;	COMDAT ??1?$ScriptRegistrant@VSUR_Dep_Turret@@@@UAE@XZ
_TEXT	SEGMENT
_this$ = -4						; size = 4
??1?$ScriptRegistrant@VSUR_Dep_Turret@@@@UAE@XZ PROC	; ScriptRegistrant<SUR_Dep_Turret>::~ScriptRegistrant<SUR_Dep_Turret>, COMDAT
; _this$ = ecx
	push	ebp
	mov	ebp, esp
	sub	esp, 68					; 00000044H
	push	ebx
	push	esi
	push	edi
	mov	DWORD PTR _this$[ebp], ecx
	mov	ecx, DWORD PTR _this$[ebp]
	call	??1ScriptFactory@@UAE@XZ		; ScriptFactory::~ScriptFactory
	pop	edi
	pop	esi
	pop	ebx
	mov	esp, ebp
	pop	ebp
	ret	0
??1?$ScriptRegistrant@VSUR_Dep_Turret@@@@UAE@XZ ENDP	; ScriptRegistrant<SUR_Dep_Turret>::~ScriptRegistrant<SUR_Dep_Turret>
_TEXT	ENDS
; Function compile flags: /Odtp /ZI
; File x:\github\renegade\dragonade_rxd\scripts\scripts.h
;	COMDAT ?Create@?$ScriptRegistrant@VSUR_Dep_Turret@@@@UAEPAVScriptImpClass@@XZ
_TEXT	SEGMENT
tv77 = -84						; size = 4
tv79 = -80						; size = 4
$T1 = -76						; size = 4
_script$ = -8						; size = 4
_this$ = -4						; size = 4
?Create@?$ScriptRegistrant@VSUR_Dep_Turret@@@@UAEPAVScriptImpClass@@XZ PROC ; ScriptRegistrant<SUR_Dep_Turret>::Create, COMDAT
; _this$ = ecx

; 552  : 	{

	push	ebp
	mov	ebp, esp
	sub	esp, 84					; 00000054H
	push	ebx
	push	esi
	push	edi
	mov	DWORD PTR _this$[ebp], ecx

; 553  : 		T* script = new T;

	push	OFFSET ??_C@_0CP@PIFLBOGP@ScriptRegistrant?$DMclass?5SUR_Dep_T@
	push	553					; 00000229H
	push	OFFSET ??_C@_0DD@KMKBFFOF@x?3?2github?2renegade?2dragonade_rxd@
	call	?SetThreadTrackingInformation@@YAXPBDI0@Z ; SetThreadTrackingInformation
	add	esp, 12					; 0000000cH
	xor	eax, eax
	je	SHORT $LN6@Create
	xor	ecx, ecx
	jne	SHORT $LN3@Create
	push	553					; 00000229H
	push	OFFSET ??_C@_1GG@OGNLNBPD@?$AAx?$AA?3?$AA?2?$AAg?$AAi?$AAt?$AAh?$AAu?$AAb?$AA?2?$AAr?$AAe?$AAn?$AAe?$AAg?$AAa?$AAd?$AAe?$AA?2?$AAd?$AAr?$AAa?$AAg?$AAo?$AAn?$AAa?$AAd?$AAe?$AA_?$AAr?$AAx?$AAd@
	push	OFFSET ??_C@_1M@HLGKFCJM@?$AAf?$AAa?$AAl?$AAs?$AAe?$AA?$AA@
	call	DWORD PTR __imp___wassert
	add	esp, 12					; 0000000cH
$LN3@Create:
	mov	DWORD PTR tv79[ebp], 0
	jmp	SHORT $LN7@Create
$LN6@Create:
	push	44					; 0000002cH
	call	??2@YAPAXI@Z				; operator new
	add	esp, 4
	mov	DWORD PTR $T1[ebp], eax
	cmp	DWORD PTR $T1[ebp], 0
	je	SHORT $LN4@Create
	mov	ecx, DWORD PTR $T1[ebp]
	call	??0SUR_Dep_Turret@@QAE@XZ
	mov	DWORD PTR tv77[ebp], eax
	jmp	SHORT $LN5@Create
$LN4@Create:
	mov	DWORD PTR tv77[ebp], 0
$LN5@Create:
	mov	eax, DWORD PTR tv77[ebp]
	mov	DWORD PTR tv79[ebp], eax
$LN7@Create:
	mov	ecx, DWORD PTR tv79[ebp]
	mov	DWORD PTR _script$[ebp], ecx

; 554  : 		script->SetFactory(this);

	mov	eax, DWORD PTR _this$[ebp]
	push	eax
	mov	ecx, DWORD PTR _script$[ebp]
	call	?SetFactory@ScriptImpClass@@QAEXPAVScriptFactory@@@Z ; ScriptImpClass::SetFactory

; 555  : 		script->Register_Auto_Save_Variables();

	mov	eax, DWORD PTR _script$[ebp]
	mov	edx, DWORD PTR [eax]
	mov	ecx, DWORD PTR _script$[ebp]
	mov	eax, DWORD PTR [edx+100]
	call	eax

; 556  : 		return script;

	mov	eax, DWORD PTR _script$[ebp]

; 557  : 	}

	pop	edi
	pop	esi
	pop	ebx
	mov	esp, ebp
	pop	ebp
	ret	0
?Create@?$ScriptRegistrant@VSUR_Dep_Turret@@@@UAEPAVScriptImpClass@@XZ ENDP ; ScriptRegistrant<SUR_Dep_Turret>::Create
_TEXT	ENDS
; Function compile flags: /Odtp /ZI
; File x:\github\renegade\dragonade_rxd\scripts\scripts.h
;	COMDAT ??0?$ScriptRegistrant@VSUR_Dep_Turret@@@@QAE@PBD0@Z
_TEXT	SEGMENT
_this$ = -4						; size = 4
_name$ = 8						; size = 4
_param$ = 12						; size = 4
??0?$ScriptRegistrant@VSUR_Dep_Turret@@@@QAE@PBD0@Z PROC ; ScriptRegistrant<SUR_Dep_Turret>::ScriptRegistrant<SUR_Dep_Turret>, COMDAT
; _this$ = ecx

; 549  : 	{

	push	ebp
	mov	ebp, esp
	sub	esp, 68					; 00000044H
	push	ebx
	push	esi
	push	edi
	mov	DWORD PTR _this$[ebp], ecx
	mov	eax, DWORD PTR _param$[ebp]
	push	eax
	mov	ecx, DWORD PTR _name$[ebp]
	push	ecx
	mov	ecx, DWORD PTR _this$[ebp]
	call	??0ScriptFactory@@IAE@PBD0@Z		; ScriptFactory::ScriptFactory
	mov	eax, DWORD PTR _this$[ebp]
	mov	DWORD PTR [eax], OFFSET ??_7?$ScriptRegistrant@VSUR_Dep_Turret@@@@6B@

; 550  : 	}

	mov	eax, DWORD PTR _this$[ebp]
	pop	edi
	pop	esi
	pop	ebx
	mov	esp, ebp
	pop	ebp
	ret	8
??0?$ScriptRegistrant@VSUR_Dep_Turret@@@@QAE@PBD0@Z ENDP ; ScriptRegistrant<SUR_Dep_Turret>::ScriptRegistrant<SUR_Dep_Turret>
_TEXT	ENDS
; Function compile flags: /Odtp /ZI
;	COMDAT ??__FSUR_Chinook_AI_Registrant@@YAXXZ
text$yd	SEGMENT
??__FSUR_Chinook_AI_Registrant@@YAXXZ PROC		; `dynamic atexit destructor for 'SUR_Chinook_AI_Registrant'', COMDAT
	push	ebp
	mov	ebp, esp
	sub	esp, 64					; 00000040H
	push	ebx
	push	esi
	push	edi
	mov	ecx, OFFSET ?SUR_Chinook_AI_Registrant@@3V?$ScriptRegistrant@VSUR_Chinook_AI@@@@A ; SUR_Chinook_AI_Registrant
	call	??1?$ScriptRegistrant@VSUR_Chinook_AI@@@@UAE@XZ
	pop	edi
	pop	esi
	pop	ebx
	mov	esp, ebp
	pop	ebp
	ret	0
??__FSUR_Chinook_AI_Registrant@@YAXXZ ENDP		; `dynamic atexit destructor for 'SUR_Chinook_AI_Registrant''
text$yd	ENDS
; Function compile flags: /Odtp /ZI
; File x:\github\renegade\dragonade_rxd\scripts\survival.cpp
;	COMDAT ??__ESUR_Chinook_AI_Registrant@@YAXXZ
text$yc	SEGMENT
??__ESUR_Chinook_AI_Registrant@@YAXXZ PROC		; `dynamic initializer for 'SUR_Chinook_AI_Registrant'', COMDAT

; 829  : ScriptRegistrant<SUR_Chinook_AI> SUR_Chinook_AI_Registrant("SUR_Chinook_AI","Preset_Name:string,Position_Offset:vector3");

	push	ebp
	mov	ebp, esp
	sub	esp, 64					; 00000040H
	push	ebx
	push	esi
	push	edi
	push	OFFSET ??_C@_0CL@JNOFFELC@Preset_Name?3string?0Position_Offs@
	push	OFFSET ??_C@_0P@CCFBOFGI@SUR_Chinook_AI?$AA@
	mov	ecx, OFFSET ?SUR_Chinook_AI_Registrant@@3V?$ScriptRegistrant@VSUR_Chinook_AI@@@@A ; SUR_Chinook_AI_Registrant
	call	??0?$ScriptRegistrant@VSUR_Chinook_AI@@@@QAE@PBD0@Z ; ScriptRegistrant<SUR_Chinook_AI>::ScriptRegistrant<SUR_Chinook_AI>
	push	OFFSET ??__FSUR_Chinook_AI_Registrant@@YAXXZ ; `dynamic atexit destructor for 'SUR_Chinook_AI_Registrant''
	call	_atexit
	add	esp, 4
	pop	edi
	pop	esi
	pop	ebx
	mov	esp, ebp
	pop	ebp
	ret	0
??__ESUR_Chinook_AI_Registrant@@YAXXZ ENDP		; `dynamic initializer for 'SUR_Chinook_AI_Registrant''
text$yc	ENDS
; Function compile flags: /Odtp /ZI
;	COMDAT ??_G?$ScriptRegistrant@VSUR_Chinook_AI@@@@UAEPAXI@Z
_TEXT	SEGMENT
_this$ = -4						; size = 4
___flags$ = 8						; size = 4
??_G?$ScriptRegistrant@VSUR_Chinook_AI@@@@UAEPAXI@Z PROC ; ScriptRegistrant<SUR_Chinook_AI>::`scalar deleting destructor', COMDAT
; _this$ = ecx
	push	ebp
	mov	ebp, esp
	sub	esp, 68					; 00000044H
	push	ebx
	push	esi
	push	edi
	mov	DWORD PTR _this$[ebp], ecx
	mov	ecx, DWORD PTR _this$[ebp]
	call	??1?$ScriptRegistrant@VSUR_Chinook_AI@@@@UAE@XZ
	mov	eax, DWORD PTR ___flags$[ebp]
	and	eax, 1
	je	SHORT $LN1@scalar
	mov	eax, DWORD PTR _this$[ebp]
	push	eax
	call	??3@YAXPAX@Z				; operator delete
	add	esp, 4
$LN1@scalar:
	mov	eax, DWORD PTR _this$[ebp]
	pop	edi
	pop	esi
	pop	ebx
	mov	esp, ebp
	pop	ebp
	ret	4
??_G?$ScriptRegistrant@VSUR_Chinook_AI@@@@UAEPAXI@Z ENDP ; ScriptRegistrant<SUR_Chinook_AI>::`scalar deleting destructor'
_TEXT	ENDS
; Function compile flags: /Odtp /ZI
;	COMDAT ??1?$ScriptRegistrant@VSUR_Chinook_AI@@@@UAE@XZ
_TEXT	SEGMENT
_this$ = -4						; size = 4
??1?$ScriptRegistrant@VSUR_Chinook_AI@@@@UAE@XZ PROC	; ScriptRegistrant<SUR_Chinook_AI>::~ScriptRegistrant<SUR_Chinook_AI>, COMDAT
; _this$ = ecx
	push	ebp
	mov	ebp, esp
	sub	esp, 68					; 00000044H
	push	ebx
	push	esi
	push	edi
	mov	DWORD PTR _this$[ebp], ecx
	mov	ecx, DWORD PTR _this$[ebp]
	call	??1ScriptFactory@@UAE@XZ		; ScriptFactory::~ScriptFactory
	pop	edi
	pop	esi
	pop	ebx
	mov	esp, ebp
	pop	ebp
	ret	0
??1?$ScriptRegistrant@VSUR_Chinook_AI@@@@UAE@XZ ENDP	; ScriptRegistrant<SUR_Chinook_AI>::~ScriptRegistrant<SUR_Chinook_AI>
_TEXT	ENDS
; Function compile flags: /Odtp /ZI
; File x:\github\renegade\dragonade_rxd\scripts\scripts.h
;	COMDAT ?Create@?$ScriptRegistrant@VSUR_Chinook_AI@@@@UAEPAVScriptImpClass@@XZ
_TEXT	SEGMENT
tv77 = -84						; size = 4
tv79 = -80						; size = 4
$T1 = -76						; size = 4
_script$ = -8						; size = 4
_this$ = -4						; size = 4
?Create@?$ScriptRegistrant@VSUR_Chinook_AI@@@@UAEPAVScriptImpClass@@XZ PROC ; ScriptRegistrant<SUR_Chinook_AI>::Create, COMDAT
; _this$ = ecx

; 552  : 	{

	push	ebp
	mov	ebp, esp
	sub	esp, 84					; 00000054H
	push	ebx
	push	esi
	push	edi
	mov	DWORD PTR _this$[ebp], ecx

; 553  : 		T* script = new T;

	push	OFFSET ??_C@_0CP@KBBIOMO@ScriptRegistrant?$DMclass?5SUR_Chino@
	push	553					; 00000229H
	push	OFFSET ??_C@_0DD@KMKBFFOF@x?3?2github?2renegade?2dragonade_rxd@
	call	?SetThreadTrackingInformation@@YAXPBDI0@Z ; SetThreadTrackingInformation
	add	esp, 12					; 0000000cH
	xor	eax, eax
	je	SHORT $LN6@Create
	xor	ecx, ecx
	jne	SHORT $LN3@Create
	push	553					; 00000229H
	push	OFFSET ??_C@_1GG@OGNLNBPD@?$AAx?$AA?3?$AA?2?$AAg?$AAi?$AAt?$AAh?$AAu?$AAb?$AA?2?$AAr?$AAe?$AAn?$AAe?$AAg?$AAa?$AAd?$AAe?$AA?2?$AAd?$AAr?$AAa?$AAg?$AAo?$AAn?$AAa?$AAd?$AAe?$AA_?$AAr?$AAx?$AAd@
	push	OFFSET ??_C@_1M@HLGKFCJM@?$AAf?$AAa?$AAl?$AAs?$AAe?$AA?$AA@
	call	DWORD PTR __imp___wassert
	add	esp, 12					; 0000000cH
$LN3@Create:
	mov	DWORD PTR tv79[ebp], 0
	jmp	SHORT $LN7@Create
$LN6@Create:
	push	28					; 0000001cH
	call	??2@YAPAXI@Z				; operator new
	add	esp, 4
	mov	DWORD PTR $T1[ebp], eax
	cmp	DWORD PTR $T1[ebp], 0
	je	SHORT $LN4@Create
	mov	ecx, DWORD PTR $T1[ebp]
	call	??0SUR_Chinook_AI@@QAE@XZ
	mov	DWORD PTR tv77[ebp], eax
	jmp	SHORT $LN5@Create
$LN4@Create:
	mov	DWORD PTR tv77[ebp], 0
$LN5@Create:
	mov	eax, DWORD PTR tv77[ebp]
	mov	DWORD PTR tv79[ebp], eax
$LN7@Create:
	mov	ecx, DWORD PTR tv79[ebp]
	mov	DWORD PTR _script$[ebp], ecx

; 554  : 		script->SetFactory(this);

	mov	eax, DWORD PTR _this$[ebp]
	push	eax
	mov	ecx, DWORD PTR _script$[ebp]
	call	?SetFactory@ScriptImpClass@@QAEXPAVScriptFactory@@@Z ; ScriptImpClass::SetFactory

; 555  : 		script->Register_Auto_Save_Variables();

	mov	eax, DWORD PTR _script$[ebp]
	mov	edx, DWORD PTR [eax]
	mov	ecx, DWORD PTR _script$[ebp]
	mov	eax, DWORD PTR [edx+100]
	call	eax

; 556  : 		return script;

	mov	eax, DWORD PTR _script$[ebp]

; 557  : 	}

	pop	edi
	pop	esi
	pop	ebx
	mov	esp, ebp
	pop	ebp
	ret	0
?Create@?$ScriptRegistrant@VSUR_Chinook_AI@@@@UAEPAVScriptImpClass@@XZ ENDP ; ScriptRegistrant<SUR_Chinook_AI>::Create
_TEXT	ENDS
; Function compile flags: /Odtp /ZI
; File x:\github\renegade\dragonade_rxd\scripts\scripts.h
;	COMDAT ??0?$ScriptRegistrant@VSUR_Chinook_AI@@@@QAE@PBD0@Z
_TEXT	SEGMENT
_this$ = -4						; size = 4
_name$ = 8						; size = 4
_param$ = 12						; size = 4
??0?$ScriptRegistrant@VSUR_Chinook_AI@@@@QAE@PBD0@Z PROC ; ScriptRegistrant<SUR_Chinook_AI>::ScriptRegistrant<SUR_Chinook_AI>, COMDAT
; _this$ = ecx

; 549  : 	{

	push	ebp
	mov	ebp, esp
	sub	esp, 68					; 00000044H
	push	ebx
	push	esi
	push	edi
	mov	DWORD PTR _this$[ebp], ecx
	mov	eax, DWORD PTR _param$[ebp]
	push	eax
	mov	ecx, DWORD PTR _name$[ebp]
	push	ecx
	mov	ecx, DWORD PTR _this$[ebp]
	call	??0ScriptFactory@@IAE@PBD0@Z		; ScriptFactory::ScriptFactory
	mov	eax, DWORD PTR _this$[ebp]
	mov	DWORD PTR [eax], OFFSET ??_7?$ScriptRegistrant@VSUR_Chinook_AI@@@@6B@

; 550  : 	}

	mov	eax, DWORD PTR _this$[ebp]
	pop	edi
	pop	esi
	pop	ebx
	mov	esp, ebp
	pop	ebp
	ret	8
??0?$ScriptRegistrant@VSUR_Chinook_AI@@@@QAE@PBD0@Z ENDP ; ScriptRegistrant<SUR_Chinook_AI>::ScriptRegistrant<SUR_Chinook_AI>
_TEXT	ENDS
; Function compile flags: /Odtp /ZI
;	COMDAT ??__FSUR_Orca_AI_Registrant@@YAXXZ
text$yd	SEGMENT
??__FSUR_Orca_AI_Registrant@@YAXXZ PROC			; `dynamic atexit destructor for 'SUR_Orca_AI_Registrant'', COMDAT
	push	ebp
	mov	ebp, esp
	sub	esp, 64					; 00000040H
	push	ebx
	push	esi
	push	edi
	mov	ecx, OFFSET ?SUR_Orca_AI_Registrant@@3V?$ScriptRegistrant@VSUR_Orca_AI@@@@A ; SUR_Orca_AI_Registrant
	call	??1?$ScriptRegistrant@VSUR_Orca_AI@@@@UAE@XZ
	pop	edi
	pop	esi
	pop	ebx
	mov	esp, ebp
	pop	ebp
	ret	0
??__FSUR_Orca_AI_Registrant@@YAXXZ ENDP			; `dynamic atexit destructor for 'SUR_Orca_AI_Registrant''
text$yd	ENDS
; Function compile flags: /Odtp /ZI
; File x:\github\renegade\dragonade_rxd\scripts\survival.cpp
;	COMDAT ??__ESUR_Orca_AI_Registrant@@YAXXZ
text$yc	SEGMENT
??__ESUR_Orca_AI_Registrant@@YAXXZ PROC			; `dynamic initializer for 'SUR_Orca_AI_Registrant'', COMDAT

; 828  : ScriptRegistrant<SUR_Orca_AI> SUR_Orca_AI_Registrant("SUR_Orca_AI","NHB_ID:int,Attack_Offset:vector3");

	push	ebp
	mov	ebp, esp
	sub	esp, 64					; 00000040H
	push	ebx
	push	esi
	push	edi
	push	OFFSET ??_C@_0CB@GPNICFGL@NHB_ID?3int?0Attack_Offset?3vector3@
	push	OFFSET ??_C@_0M@LENJCGNN@SUR_Orca_AI?$AA@
	mov	ecx, OFFSET ?SUR_Orca_AI_Registrant@@3V?$ScriptRegistrant@VSUR_Orca_AI@@@@A ; SUR_Orca_AI_Registrant
	call	??0?$ScriptRegistrant@VSUR_Orca_AI@@@@QAE@PBD0@Z ; ScriptRegistrant<SUR_Orca_AI>::ScriptRegistrant<SUR_Orca_AI>
	push	OFFSET ??__FSUR_Orca_AI_Registrant@@YAXXZ ; `dynamic atexit destructor for 'SUR_Orca_AI_Registrant''
	call	_atexit
	add	esp, 4
	pop	edi
	pop	esi
	pop	ebx
	mov	esp, ebp
	pop	ebp
	ret	0
??__ESUR_Orca_AI_Registrant@@YAXXZ ENDP			; `dynamic initializer for 'SUR_Orca_AI_Registrant''
text$yc	ENDS
; Function compile flags: /Odtp /ZI
;	COMDAT ??_G?$ScriptRegistrant@VSUR_Orca_AI@@@@UAEPAXI@Z
_TEXT	SEGMENT
_this$ = -4						; size = 4
___flags$ = 8						; size = 4
??_G?$ScriptRegistrant@VSUR_Orca_AI@@@@UAEPAXI@Z PROC	; ScriptRegistrant<SUR_Orca_AI>::`scalar deleting destructor', COMDAT
; _this$ = ecx
	push	ebp
	mov	ebp, esp
	sub	esp, 68					; 00000044H
	push	ebx
	push	esi
	push	edi
	mov	DWORD PTR _this$[ebp], ecx
	mov	ecx, DWORD PTR _this$[ebp]
	call	??1?$ScriptRegistrant@VSUR_Orca_AI@@@@UAE@XZ
	mov	eax, DWORD PTR ___flags$[ebp]
	and	eax, 1
	je	SHORT $LN1@scalar
	mov	eax, DWORD PTR _this$[ebp]
	push	eax
	call	??3@YAXPAX@Z				; operator delete
	add	esp, 4
$LN1@scalar:
	mov	eax, DWORD PTR _this$[ebp]
	pop	edi
	pop	esi
	pop	ebx
	mov	esp, ebp
	pop	ebp
	ret	4
??_G?$ScriptRegistrant@VSUR_Orca_AI@@@@UAEPAXI@Z ENDP	; ScriptRegistrant<SUR_Orca_AI>::`scalar deleting destructor'
_TEXT	ENDS
; Function compile flags: /Odtp /ZI
;	COMDAT ??1?$ScriptRegistrant@VSUR_Orca_AI@@@@UAE@XZ
_TEXT	SEGMENT
_this$ = -4						; size = 4
??1?$ScriptRegistrant@VSUR_Orca_AI@@@@UAE@XZ PROC	; ScriptRegistrant<SUR_Orca_AI>::~ScriptRegistrant<SUR_Orca_AI>, COMDAT
; _this$ = ecx
	push	ebp
	mov	ebp, esp
	sub	esp, 68					; 00000044H
	push	ebx
	push	esi
	push	edi
	mov	DWORD PTR _this$[ebp], ecx
	mov	ecx, DWORD PTR _this$[ebp]
	call	??1ScriptFactory@@UAE@XZ		; ScriptFactory::~ScriptFactory
	pop	edi
	pop	esi
	pop	ebx
	mov	esp, ebp
	pop	ebp
	ret	0
??1?$ScriptRegistrant@VSUR_Orca_AI@@@@UAE@XZ ENDP	; ScriptRegistrant<SUR_Orca_AI>::~ScriptRegistrant<SUR_Orca_AI>
_TEXT	ENDS
; Function compile flags: /Odtp /ZI
; File x:\github\renegade\dragonade_rxd\scripts\scripts.h
;	COMDAT ?Create@?$ScriptRegistrant@VSUR_Orca_AI@@@@UAEPAVScriptImpClass@@XZ
_TEXT	SEGMENT
tv77 = -84						; size = 4
tv79 = -80						; size = 4
$T1 = -76						; size = 4
_script$ = -8						; size = 4
_this$ = -4						; size = 4
?Create@?$ScriptRegistrant@VSUR_Orca_AI@@@@UAEPAVScriptImpClass@@XZ PROC ; ScriptRegistrant<SUR_Orca_AI>::Create, COMDAT
; _this$ = ecx

; 552  : 	{

	push	ebp
	mov	ebp, esp
	sub	esp, 84					; 00000054H
	push	ebx
	push	esi
	push	edi
	mov	DWORD PTR _this$[ebp], ecx

; 553  : 		T* script = new T;

	push	OFFSET ??_C@_0CM@EGEAHCJA@ScriptRegistrant?$DMclass?5SUR_Orca_@
	push	553					; 00000229H
	push	OFFSET ??_C@_0DD@KMKBFFOF@x?3?2github?2renegade?2dragonade_rxd@
	call	?SetThreadTrackingInformation@@YAXPBDI0@Z ; SetThreadTrackingInformation
	add	esp, 12					; 0000000cH
	xor	eax, eax
	je	SHORT $LN6@Create
	xor	ecx, ecx
	jne	SHORT $LN3@Create
	push	553					; 00000229H
	push	OFFSET ??_C@_1GG@OGNLNBPD@?$AAx?$AA?3?$AA?2?$AAg?$AAi?$AAt?$AAh?$AAu?$AAb?$AA?2?$AAr?$AAe?$AAn?$AAe?$AAg?$AAa?$AAd?$AAe?$AA?2?$AAd?$AAr?$AAa?$AAg?$AAo?$AAn?$AAa?$AAd?$AAe?$AA_?$AAr?$AAx?$AAd@
	push	OFFSET ??_C@_1M@HLGKFCJM@?$AAf?$AAa?$AAl?$AAs?$AAe?$AA?$AA@
	call	DWORD PTR __imp___wassert
	add	esp, 12					; 0000000cH
$LN3@Create:
	mov	DWORD PTR tv79[ebp], 0
	jmp	SHORT $LN7@Create
$LN6@Create:
	push	28					; 0000001cH
	call	??2@YAPAXI@Z				; operator new
	add	esp, 4
	mov	DWORD PTR $T1[ebp], eax
	cmp	DWORD PTR $T1[ebp], 0
	je	SHORT $LN4@Create
	mov	ecx, DWORD PTR $T1[ebp]
	call	??0SUR_Orca_AI@@QAE@XZ
	mov	DWORD PTR tv77[ebp], eax
	jmp	SHORT $LN5@Create
$LN4@Create:
	mov	DWORD PTR tv77[ebp], 0
$LN5@Create:
	mov	eax, DWORD PTR tv77[ebp]
	mov	DWORD PTR tv79[ebp], eax
$LN7@Create:
	mov	ecx, DWORD PTR tv79[ebp]
	mov	DWORD PTR _script$[ebp], ecx

; 554  : 		script->SetFactory(this);

	mov	eax, DWORD PTR _this$[ebp]
	push	eax
	mov	ecx, DWORD PTR _script$[ebp]
	call	?SetFactory@ScriptImpClass@@QAEXPAVScriptFactory@@@Z ; ScriptImpClass::SetFactory

; 555  : 		script->Register_Auto_Save_Variables();

	mov	eax, DWORD PTR _script$[ebp]
	mov	edx, DWORD PTR [eax]
	mov	ecx, DWORD PTR _script$[ebp]
	mov	eax, DWORD PTR [edx+100]
	call	eax

; 556  : 		return script;

	mov	eax, DWORD PTR _script$[ebp]

; 557  : 	}

	pop	edi
	pop	esi
	pop	ebx
	mov	esp, ebp
	pop	ebp
	ret	0
?Create@?$ScriptRegistrant@VSUR_Orca_AI@@@@UAEPAVScriptImpClass@@XZ ENDP ; ScriptRegistrant<SUR_Orca_AI>::Create
_TEXT	ENDS
; Function compile flags: /Odtp /ZI
; File x:\github\renegade\dragonade_rxd\scripts\scripts.h
;	COMDAT ??0?$ScriptRegistrant@VSUR_Orca_AI@@@@QAE@PBD0@Z
_TEXT	SEGMENT
_this$ = -4						; size = 4
_name$ = 8						; size = 4
_param$ = 12						; size = 4
??0?$ScriptRegistrant@VSUR_Orca_AI@@@@QAE@PBD0@Z PROC	; ScriptRegistrant<SUR_Orca_AI>::ScriptRegistrant<SUR_Orca_AI>, COMDAT
; _this$ = ecx

; 549  : 	{

	push	ebp
	mov	ebp, esp
	sub	esp, 68					; 00000044H
	push	ebx
	push	esi
	push	edi
	mov	DWORD PTR _this$[ebp], ecx
	mov	eax, DWORD PTR _param$[ebp]
	push	eax
	mov	ecx, DWORD PTR _name$[ebp]
	push	ecx
	mov	ecx, DWORD PTR _this$[ebp]
	call	??0ScriptFactory@@IAE@PBD0@Z		; ScriptFactory::ScriptFactory
	mov	eax, DWORD PTR _this$[ebp]
	mov	DWORD PTR [eax], OFFSET ??_7?$ScriptRegistrant@VSUR_Orca_AI@@@@6B@

; 550  : 	}

	mov	eax, DWORD PTR _this$[ebp]
	pop	edi
	pop	esi
	pop	ebx
	mov	esp, ebp
	pop	ebp
	ret	8
??0?$ScriptRegistrant@VSUR_Orca_AI@@@@QAE@PBD0@Z ENDP	; ScriptRegistrant<SUR_Orca_AI>::ScriptRegistrant<SUR_Orca_AI>
_TEXT	ENDS
; Function compile flags: /Odtp /ZI
;	COMDAT ??__FSUR_APC_AI_Registrant@@YAXXZ
text$yd	SEGMENT
??__FSUR_APC_AI_Registrant@@YAXXZ PROC			; `dynamic atexit destructor for 'SUR_APC_AI_Registrant'', COMDAT
	push	ebp
	mov	ebp, esp
	sub	esp, 64					; 00000040H
	push	ebx
	push	esi
	push	edi
	mov	ecx, OFFSET ?SUR_APC_AI_Registrant@@3V?$ScriptRegistrant@VSUR_APC_AI@@@@A ; SUR_APC_AI_Registrant
	call	??1?$ScriptRegistrant@VSUR_APC_AI@@@@UAE@XZ
	pop	edi
	pop	esi
	pop	ebx
	mov	esp, ebp
	pop	ebp
	ret	0
??__FSUR_APC_AI_Registrant@@YAXXZ ENDP			; `dynamic atexit destructor for 'SUR_APC_AI_Registrant''
text$yd	ENDS
; Function compile flags: /Odtp /ZI
; File x:\github\renegade\dragonade_rxd\scripts\survival.cpp
;	COMDAT ??__ESUR_APC_AI_Registrant@@YAXXZ
text$yc	SEGMENT
??__ESUR_APC_AI_Registrant@@YAXXZ PROC			; `dynamic initializer for 'SUR_APC_AI_Registrant'', COMDAT

; 827  : ScriptRegistrant<SUR_APC_AI> SUR_APC_AI_Registrant("SUR_APC_AI","Preset_To_Create:string,NHB_ID:int");

	push	ebp
	mov	ebp, esp
	sub	esp, 64					; 00000040H
	push	ebx
	push	esi
	push	edi
	push	OFFSET ??_C@_0CD@PNNDOGLF@Preset_To_Create?3string?0NHB_ID?3i@
	push	OFFSET ??_C@_0L@MIJHGIEM@SUR_APC_AI?$AA@
	mov	ecx, OFFSET ?SUR_APC_AI_Registrant@@3V?$ScriptRegistrant@VSUR_APC_AI@@@@A ; SUR_APC_AI_Registrant
	call	??0?$ScriptRegistrant@VSUR_APC_AI@@@@QAE@PBD0@Z ; ScriptRegistrant<SUR_APC_AI>::ScriptRegistrant<SUR_APC_AI>
	push	OFFSET ??__FSUR_APC_AI_Registrant@@YAXXZ ; `dynamic atexit destructor for 'SUR_APC_AI_Registrant''
	call	_atexit
	add	esp, 4
	pop	edi
	pop	esi
	pop	ebx
	mov	esp, ebp
	pop	ebp
	ret	0
??__ESUR_APC_AI_Registrant@@YAXXZ ENDP			; `dynamic initializer for 'SUR_APC_AI_Registrant''
text$yc	ENDS
; Function compile flags: /Odtp /ZI
;	COMDAT ??_G?$ScriptRegistrant@VSUR_APC_AI@@@@UAEPAXI@Z
_TEXT	SEGMENT
_this$ = -4						; size = 4
___flags$ = 8						; size = 4
??_G?$ScriptRegistrant@VSUR_APC_AI@@@@UAEPAXI@Z PROC	; ScriptRegistrant<SUR_APC_AI>::`scalar deleting destructor', COMDAT
; _this$ = ecx
	push	ebp
	mov	ebp, esp
	sub	esp, 68					; 00000044H
	push	ebx
	push	esi
	push	edi
	mov	DWORD PTR _this$[ebp], ecx
	mov	ecx, DWORD PTR _this$[ebp]
	call	??1?$ScriptRegistrant@VSUR_APC_AI@@@@UAE@XZ
	mov	eax, DWORD PTR ___flags$[ebp]
	and	eax, 1
	je	SHORT $LN1@scalar
	mov	eax, DWORD PTR _this$[ebp]
	push	eax
	call	??3@YAXPAX@Z				; operator delete
	add	esp, 4
$LN1@scalar:
	mov	eax, DWORD PTR _this$[ebp]
	pop	edi
	pop	esi
	pop	ebx
	mov	esp, ebp
	pop	ebp
	ret	4
??_G?$ScriptRegistrant@VSUR_APC_AI@@@@UAEPAXI@Z ENDP	; ScriptRegistrant<SUR_APC_AI>::`scalar deleting destructor'
_TEXT	ENDS
; Function compile flags: /Odtp /ZI
;	COMDAT ??1?$ScriptRegistrant@VSUR_APC_AI@@@@UAE@XZ
_TEXT	SEGMENT
_this$ = -4						; size = 4
??1?$ScriptRegistrant@VSUR_APC_AI@@@@UAE@XZ PROC	; ScriptRegistrant<SUR_APC_AI>::~ScriptRegistrant<SUR_APC_AI>, COMDAT
; _this$ = ecx
	push	ebp
	mov	ebp, esp
	sub	esp, 68					; 00000044H
	push	ebx
	push	esi
	push	edi
	mov	DWORD PTR _this$[ebp], ecx
	mov	ecx, DWORD PTR _this$[ebp]
	call	??1ScriptFactory@@UAE@XZ		; ScriptFactory::~ScriptFactory
	pop	edi
	pop	esi
	pop	ebx
	mov	esp, ebp
	pop	ebp
	ret	0
??1?$ScriptRegistrant@VSUR_APC_AI@@@@UAE@XZ ENDP	; ScriptRegistrant<SUR_APC_AI>::~ScriptRegistrant<SUR_APC_AI>
_TEXT	ENDS
; Function compile flags: /Odtp /ZI
; File x:\github\renegade\dragonade_rxd\scripts\scripts.h
;	COMDAT ?Create@?$ScriptRegistrant@VSUR_APC_AI@@@@UAEPAVScriptImpClass@@XZ
_TEXT	SEGMENT
tv77 = -84						; size = 4
tv79 = -80						; size = 4
$T1 = -76						; size = 4
_script$ = -8						; size = 4
_this$ = -4						; size = 4
?Create@?$ScriptRegistrant@VSUR_APC_AI@@@@UAEPAVScriptImpClass@@XZ PROC ; ScriptRegistrant<SUR_APC_AI>::Create, COMDAT
; _this$ = ecx

; 552  : 	{

	push	ebp
	mov	ebp, esp
	sub	esp, 84					; 00000054H
	push	ebx
	push	esi
	push	edi
	mov	DWORD PTR _this$[ebp], ecx

; 553  : 		T* script = new T;

	push	OFFSET ??_C@_0CL@JAPNFDGP@ScriptRegistrant?$DMclass?5SUR_APC_A@
	push	553					; 00000229H
	push	OFFSET ??_C@_0DD@KMKBFFOF@x?3?2github?2renegade?2dragonade_rxd@
	call	?SetThreadTrackingInformation@@YAXPBDI0@Z ; SetThreadTrackingInformation
	add	esp, 12					; 0000000cH
	xor	eax, eax
	je	SHORT $LN6@Create
	xor	ecx, ecx
	jne	SHORT $LN3@Create
	push	553					; 00000229H
	push	OFFSET ??_C@_1GG@OGNLNBPD@?$AAx?$AA?3?$AA?2?$AAg?$AAi?$AAt?$AAh?$AAu?$AAb?$AA?2?$AAr?$AAe?$AAn?$AAe?$AAg?$AAa?$AAd?$AAe?$AA?2?$AAd?$AAr?$AAa?$AAg?$AAo?$AAn?$AAa?$AAd?$AAe?$AA_?$AAr?$AAx?$AAd@
	push	OFFSET ??_C@_1M@HLGKFCJM@?$AAf?$AAa?$AAl?$AAs?$AAe?$AA?$AA@
	call	DWORD PTR __imp___wassert
	add	esp, 12					; 0000000cH
$LN3@Create:
	mov	DWORD PTR tv79[ebp], 0
	jmp	SHORT $LN7@Create
$LN6@Create:
	push	32					; 00000020H
	call	??2@YAPAXI@Z				; operator new
	add	esp, 4
	mov	DWORD PTR $T1[ebp], eax
	cmp	DWORD PTR $T1[ebp], 0
	je	SHORT $LN4@Create
	mov	ecx, DWORD PTR $T1[ebp]
	call	??0SUR_APC_AI@@QAE@XZ
	mov	DWORD PTR tv77[ebp], eax
	jmp	SHORT $LN5@Create
$LN4@Create:
	mov	DWORD PTR tv77[ebp], 0
$LN5@Create:
	mov	eax, DWORD PTR tv77[ebp]
	mov	DWORD PTR tv79[ebp], eax
$LN7@Create:
	mov	ecx, DWORD PTR tv79[ebp]
	mov	DWORD PTR _script$[ebp], ecx

; 554  : 		script->SetFactory(this);

	mov	eax, DWORD PTR _this$[ebp]
	push	eax
	mov	ecx, DWORD PTR _script$[ebp]
	call	?SetFactory@ScriptImpClass@@QAEXPAVScriptFactory@@@Z ; ScriptImpClass::SetFactory

; 555  : 		script->Register_Auto_Save_Variables();

	mov	eax, DWORD PTR _script$[ebp]
	mov	edx, DWORD PTR [eax]
	mov	ecx, DWORD PTR _script$[ebp]
	mov	eax, DWORD PTR [edx+100]
	call	eax

; 556  : 		return script;

	mov	eax, DWORD PTR _script$[ebp]

; 557  : 	}

	pop	edi
	pop	esi
	pop	ebx
	mov	esp, ebp
	pop	ebp
	ret	0
?Create@?$ScriptRegistrant@VSUR_APC_AI@@@@UAEPAVScriptImpClass@@XZ ENDP ; ScriptRegistrant<SUR_APC_AI>::Create
_TEXT	ENDS
; Function compile flags: /Odtp /ZI
; File x:\github\renegade\dragonade_rxd\scripts\scripts.h
;	COMDAT ??0?$ScriptRegistrant@VSUR_APC_AI@@@@QAE@PBD0@Z
_TEXT	SEGMENT
_this$ = -4						; size = 4
_name$ = 8						; size = 4
_param$ = 12						; size = 4
??0?$ScriptRegistrant@VSUR_APC_AI@@@@QAE@PBD0@Z PROC	; ScriptRegistrant<SUR_APC_AI>::ScriptRegistrant<SUR_APC_AI>, COMDAT
; _this$ = ecx

; 549  : 	{

	push	ebp
	mov	ebp, esp
	sub	esp, 68					; 00000044H
	push	ebx
	push	esi
	push	edi
	mov	DWORD PTR _this$[ebp], ecx
	mov	eax, DWORD PTR _param$[ebp]
	push	eax
	mov	ecx, DWORD PTR _name$[ebp]
	push	ecx
	mov	ecx, DWORD PTR _this$[ebp]
	call	??0ScriptFactory@@IAE@PBD0@Z		; ScriptFactory::ScriptFactory
	mov	eax, DWORD PTR _this$[ebp]
	mov	DWORD PTR [eax], OFFSET ??_7?$ScriptRegistrant@VSUR_APC_AI@@@@6B@

; 550  : 	}

	mov	eax, DWORD PTR _this$[ebp]
	pop	edi
	pop	esi
	pop	ebx
	mov	esp, ebp
	pop	ebp
	ret	8
??0?$ScriptRegistrant@VSUR_APC_AI@@@@QAE@PBD0@Z ENDP	; ScriptRegistrant<SUR_APC_AI>::ScriptRegistrant<SUR_APC_AI>
_TEXT	ENDS
; Function compile flags: /Odtp /ZI
;	COMDAT ??__FSUR_New_PT_Reciever_Registrant@@YAXXZ
text$yd	SEGMENT
??__FSUR_New_PT_Reciever_Registrant@@YAXXZ PROC		; `dynamic atexit destructor for 'SUR_New_PT_Reciever_Registrant'', COMDAT
	push	ebp
	mov	ebp, esp
	sub	esp, 64					; 00000040H
	push	ebx
	push	esi
	push	edi
	mov	ecx, OFFSET ?SUR_New_PT_Reciever_Registrant@@3V?$ScriptRegistrant@VSUR_New_PT_Reciever@@@@A ; SUR_New_PT_Reciever_Registrant
	call	??1?$ScriptRegistrant@VSUR_New_PT_Reciever@@@@UAE@XZ
	pop	edi
	pop	esi
	pop	ebx
	mov	esp, ebp
	pop	ebp
	ret	0
??__FSUR_New_PT_Reciever_Registrant@@YAXXZ ENDP		; `dynamic atexit destructor for 'SUR_New_PT_Reciever_Registrant''
text$yd	ENDS
; Function compile flags: /Odtp /ZI
; File x:\github\renegade\dragonade_rxd\scripts\survival.cpp
;	COMDAT ??__ESUR_New_PT_Reciever_Registrant@@YAXXZ
text$yc	SEGMENT
??__ESUR_New_PT_Reciever_Registrant@@YAXXZ PROC		; `dynamic initializer for 'SUR_New_PT_Reciever_Registrant'', COMDAT

; 826  : ScriptRegistrant<SUR_New_PT_Reciever> SUR_New_PT_Reciever_Registrant("SUR_New_PT_Reciever","Preset_Name:string,Message:int");

	push	ebp
	mov	ebp, esp
	sub	esp, 64					; 00000040H
	push	ebx
	push	esi
	push	edi
	push	OFFSET ??_C@_0BP@HHNMLCDH@Preset_Name?3string?0Message?3int?$AA@
	push	OFFSET ??_C@_0BE@IIJFADCE@SUR_New_PT_Reciever?$AA@
	mov	ecx, OFFSET ?SUR_New_PT_Reciever_Registrant@@3V?$ScriptRegistrant@VSUR_New_PT_Reciever@@@@A ; SUR_New_PT_Reciever_Registrant
	call	??0?$ScriptRegistrant@VSUR_New_PT_Reciever@@@@QAE@PBD0@Z ; ScriptRegistrant<SUR_New_PT_Reciever>::ScriptRegistrant<SUR_New_PT_Reciever>
	push	OFFSET ??__FSUR_New_PT_Reciever_Registrant@@YAXXZ ; `dynamic atexit destructor for 'SUR_New_PT_Reciever_Registrant''
	call	_atexit
	add	esp, 4
	pop	edi
	pop	esi
	pop	ebx
	mov	esp, ebp
	pop	ebp
	ret	0
??__ESUR_New_PT_Reciever_Registrant@@YAXXZ ENDP		; `dynamic initializer for 'SUR_New_PT_Reciever_Registrant''
text$yc	ENDS
; Function compile flags: /Odtp /ZI
;	COMDAT ??_G?$ScriptRegistrant@VSUR_New_PT_Reciever@@@@UAEPAXI@Z
_TEXT	SEGMENT
_this$ = -4						; size = 4
___flags$ = 8						; size = 4
??_G?$ScriptRegistrant@VSUR_New_PT_Reciever@@@@UAEPAXI@Z PROC ; ScriptRegistrant<SUR_New_PT_Reciever>::`scalar deleting destructor', COMDAT
; _this$ = ecx
	push	ebp
	mov	ebp, esp
	sub	esp, 68					; 00000044H
	push	ebx
	push	esi
	push	edi
	mov	DWORD PTR _this$[ebp], ecx
	mov	ecx, DWORD PTR _this$[ebp]
	call	??1?$ScriptRegistrant@VSUR_New_PT_Reciever@@@@UAE@XZ
	mov	eax, DWORD PTR ___flags$[ebp]
	and	eax, 1
	je	SHORT $LN1@scalar
	mov	eax, DWORD PTR _this$[ebp]
	push	eax
	call	??3@YAXPAX@Z				; operator delete
	add	esp, 4
$LN1@scalar:
	mov	eax, DWORD PTR _this$[ebp]
	pop	edi
	pop	esi
	pop	ebx
	mov	esp, ebp
	pop	ebp
	ret	4
??_G?$ScriptRegistrant@VSUR_New_PT_Reciever@@@@UAEPAXI@Z ENDP ; ScriptRegistrant<SUR_New_PT_Reciever>::`scalar deleting destructor'
_TEXT	ENDS
; Function compile flags: /Odtp /ZI
;	COMDAT ??1?$ScriptRegistrant@VSUR_New_PT_Reciever@@@@UAE@XZ
_TEXT	SEGMENT
_this$ = -4						; size = 4
??1?$ScriptRegistrant@VSUR_New_PT_Reciever@@@@UAE@XZ PROC ; ScriptRegistrant<SUR_New_PT_Reciever>::~ScriptRegistrant<SUR_New_PT_Reciever>, COMDAT
; _this$ = ecx
	push	ebp
	mov	ebp, esp
	sub	esp, 68					; 00000044H
	push	ebx
	push	esi
	push	edi
	mov	DWORD PTR _this$[ebp], ecx
	mov	ecx, DWORD PTR _this$[ebp]
	call	??1ScriptFactory@@UAE@XZ		; ScriptFactory::~ScriptFactory
	pop	edi
	pop	esi
	pop	ebx
	mov	esp, ebp
	pop	ebp
	ret	0
??1?$ScriptRegistrant@VSUR_New_PT_Reciever@@@@UAE@XZ ENDP ; ScriptRegistrant<SUR_New_PT_Reciever>::~ScriptRegistrant<SUR_New_PT_Reciever>
_TEXT	ENDS
; Function compile flags: /Odtp /ZI
; File x:\github\renegade\dragonade_rxd\scripts\scripts.h
;	COMDAT ?Create@?$ScriptRegistrant@VSUR_New_PT_Reciever@@@@UAEPAVScriptImpClass@@XZ
_TEXT	SEGMENT
tv77 = -84						; size = 4
tv79 = -80						; size = 4
$T1 = -76						; size = 4
_script$ = -8						; size = 4
_this$ = -4						; size = 4
?Create@?$ScriptRegistrant@VSUR_New_PT_Reciever@@@@UAEPAVScriptImpClass@@XZ PROC ; ScriptRegistrant<SUR_New_PT_Reciever>::Create, COMDAT
; _this$ = ecx

; 552  : 	{

	push	ebp
	mov	ebp, esp
	sub	esp, 84					; 00000054H
	push	ebx
	push	esi
	push	edi
	mov	DWORD PTR _this$[ebp], ecx

; 553  : 		T* script = new T;

	push	OFFSET ??_C@_0DE@KNMMJHAP@ScriptRegistrant?$DMclass?5SUR_New_P@
	push	553					; 00000229H
	push	OFFSET ??_C@_0DD@KMKBFFOF@x?3?2github?2renegade?2dragonade_rxd@
	call	?SetThreadTrackingInformation@@YAXPBDI0@Z ; SetThreadTrackingInformation
	add	esp, 12					; 0000000cH
	xor	eax, eax
	je	SHORT $LN6@Create
	xor	ecx, ecx
	jne	SHORT $LN3@Create
	push	553					; 00000229H
	push	OFFSET ??_C@_1GG@OGNLNBPD@?$AAx?$AA?3?$AA?2?$AAg?$AAi?$AAt?$AAh?$AAu?$AAb?$AA?2?$AAr?$AAe?$AAn?$AAe?$AAg?$AAa?$AAd?$AAe?$AA?2?$AAd?$AAr?$AAa?$AAg?$AAo?$AAn?$AAa?$AAd?$AAe?$AA_?$AAr?$AAx?$AAd@
	push	OFFSET ??_C@_1M@HLGKFCJM@?$AAf?$AAa?$AAl?$AAs?$AAe?$AA?$AA@
	call	DWORD PTR __imp___wassert
	add	esp, 12					; 0000000cH
$LN3@Create:
	mov	DWORD PTR tv79[ebp], 0
	jmp	SHORT $LN7@Create
$LN6@Create:
	push	28					; 0000001cH
	call	??2@YAPAXI@Z				; operator new
	add	esp, 4
	mov	DWORD PTR $T1[ebp], eax
	cmp	DWORD PTR $T1[ebp], 0
	je	SHORT $LN4@Create
	mov	ecx, DWORD PTR $T1[ebp]
	call	??0SUR_New_PT_Reciever@@QAE@XZ
	mov	DWORD PTR tv77[ebp], eax
	jmp	SHORT $LN5@Create
$LN4@Create:
	mov	DWORD PTR tv77[ebp], 0
$LN5@Create:
	mov	eax, DWORD PTR tv77[ebp]
	mov	DWORD PTR tv79[ebp], eax
$LN7@Create:
	mov	ecx, DWORD PTR tv79[ebp]
	mov	DWORD PTR _script$[ebp], ecx

; 554  : 		script->SetFactory(this);

	mov	eax, DWORD PTR _this$[ebp]
	push	eax
	mov	ecx, DWORD PTR _script$[ebp]
	call	?SetFactory@ScriptImpClass@@QAEXPAVScriptFactory@@@Z ; ScriptImpClass::SetFactory

; 555  : 		script->Register_Auto_Save_Variables();

	mov	eax, DWORD PTR _script$[ebp]
	mov	edx, DWORD PTR [eax]
	mov	ecx, DWORD PTR _script$[ebp]
	mov	eax, DWORD PTR [edx+100]
	call	eax

; 556  : 		return script;

	mov	eax, DWORD PTR _script$[ebp]

; 557  : 	}

	pop	edi
	pop	esi
	pop	ebx
	mov	esp, ebp
	pop	ebp
	ret	0
?Create@?$ScriptRegistrant@VSUR_New_PT_Reciever@@@@UAEPAVScriptImpClass@@XZ ENDP ; ScriptRegistrant<SUR_New_PT_Reciever>::Create
_TEXT	ENDS
; Function compile flags: /Odtp /ZI
; File x:\github\renegade\dragonade_rxd\scripts\scripts.h
;	COMDAT ??0?$ScriptRegistrant@VSUR_New_PT_Reciever@@@@QAE@PBD0@Z
_TEXT	SEGMENT
_this$ = -4						; size = 4
_name$ = 8						; size = 4
_param$ = 12						; size = 4
??0?$ScriptRegistrant@VSUR_New_PT_Reciever@@@@QAE@PBD0@Z PROC ; ScriptRegistrant<SUR_New_PT_Reciever>::ScriptRegistrant<SUR_New_PT_Reciever>, COMDAT
; _this$ = ecx

; 549  : 	{

	push	ebp
	mov	ebp, esp
	sub	esp, 68					; 00000044H
	push	ebx
	push	esi
	push	edi
	mov	DWORD PTR _this$[ebp], ecx
	mov	eax, DWORD PTR _param$[ebp]
	push	eax
	mov	ecx, DWORD PTR _name$[ebp]
	push	ecx
	mov	ecx, DWORD PTR _this$[ebp]
	call	??0ScriptFactory@@IAE@PBD0@Z		; ScriptFactory::ScriptFactory
	mov	eax, DWORD PTR _this$[ebp]
	mov	DWORD PTR [eax], OFFSET ??_7?$ScriptRegistrant@VSUR_New_PT_Reciever@@@@6B@

; 550  : 	}

	mov	eax, DWORD PTR _this$[ebp]
	pop	edi
	pop	esi
	pop	ebx
	mov	esp, ebp
	pop	ebp
	ret	8
??0?$ScriptRegistrant@VSUR_New_PT_Reciever@@@@QAE@PBD0@Z ENDP ; ScriptRegistrant<SUR_New_PT_Reciever>::ScriptRegistrant<SUR_New_PT_Reciever>
_TEXT	ENDS
; Function compile flags: /Odtp /ZI
;	COMDAT ??__FSUR_New_PT_Registrant@@YAXXZ
text$yd	SEGMENT
??__FSUR_New_PT_Registrant@@YAXXZ PROC			; `dynamic atexit destructor for 'SUR_New_PT_Registrant'', COMDAT
	push	ebp
	mov	ebp, esp
	sub	esp, 64					; 00000040H
	push	ebx
	push	esi
	push	edi
	mov	ecx, OFFSET ?SUR_New_PT_Registrant@@3V?$ScriptRegistrant@VSUR_New_PT@@@@A ; SUR_New_PT_Registrant
	call	??1?$ScriptRegistrant@VSUR_New_PT@@@@UAE@XZ
	pop	edi
	pop	esi
	pop	ebx
	mov	esp, ebp
	pop	ebp
	ret	0
??__FSUR_New_PT_Registrant@@YAXXZ ENDP			; `dynamic atexit destructor for 'SUR_New_PT_Registrant''
text$yd	ENDS
; Function compile flags: /Odtp /ZI
; File x:\github\renegade\dragonade_rxd\scripts\survival.cpp
;	COMDAT ??__ESUR_New_PT_Registrant@@YAXXZ
text$yc	SEGMENT
??__ESUR_New_PT_Registrant@@YAXXZ PROC			; `dynamic initializer for 'SUR_New_PT_Registrant'', COMDAT

; 825  : ScriptRegistrant<SUR_New_PT> SUR_New_PT_Registrant("SUR_New_PT","Marker_ID:int,Message:int");

	push	ebp
	mov	ebp, esp
	sub	esp, 64					; 00000040H
	push	ebx
	push	esi
	push	edi
	push	OFFSET ??_C@_0BK@IMCLBBPM@Marker_ID?3int?0Message?3int?$AA@
	push	OFFSET ??_C@_0L@NMEBDFKG@SUR_New_PT?$AA@
	mov	ecx, OFFSET ?SUR_New_PT_Registrant@@3V?$ScriptRegistrant@VSUR_New_PT@@@@A ; SUR_New_PT_Registrant
	call	??0?$ScriptRegistrant@VSUR_New_PT@@@@QAE@PBD0@Z ; ScriptRegistrant<SUR_New_PT>::ScriptRegistrant<SUR_New_PT>
	push	OFFSET ??__FSUR_New_PT_Registrant@@YAXXZ ; `dynamic atexit destructor for 'SUR_New_PT_Registrant''
	call	_atexit
	add	esp, 4
	pop	edi
	pop	esi
	pop	ebx
	mov	esp, ebp
	pop	ebp
	ret	0
??__ESUR_New_PT_Registrant@@YAXXZ ENDP			; `dynamic initializer for 'SUR_New_PT_Registrant''
text$yc	ENDS
; Function compile flags: /Odtp /ZI
;	COMDAT ??_G?$ScriptRegistrant@VSUR_New_PT@@@@UAEPAXI@Z
_TEXT	SEGMENT
_this$ = -4						; size = 4
___flags$ = 8						; size = 4
??_G?$ScriptRegistrant@VSUR_New_PT@@@@UAEPAXI@Z PROC	; ScriptRegistrant<SUR_New_PT>::`scalar deleting destructor', COMDAT
; _this$ = ecx
	push	ebp
	mov	ebp, esp
	sub	esp, 68					; 00000044H
	push	ebx
	push	esi
	push	edi
	mov	DWORD PTR _this$[ebp], ecx
	mov	ecx, DWORD PTR _this$[ebp]
	call	??1?$ScriptRegistrant@VSUR_New_PT@@@@UAE@XZ
	mov	eax, DWORD PTR ___flags$[ebp]
	and	eax, 1
	je	SHORT $LN1@scalar
	mov	eax, DWORD PTR _this$[ebp]
	push	eax
	call	??3@YAXPAX@Z				; operator delete
	add	esp, 4
$LN1@scalar:
	mov	eax, DWORD PTR _this$[ebp]
	pop	edi
	pop	esi
	pop	ebx
	mov	esp, ebp
	pop	ebp
	ret	4
??_G?$ScriptRegistrant@VSUR_New_PT@@@@UAEPAXI@Z ENDP	; ScriptRegistrant<SUR_New_PT>::`scalar deleting destructor'
_TEXT	ENDS
; Function compile flags: /Odtp /ZI
;	COMDAT ??1?$ScriptRegistrant@VSUR_New_PT@@@@UAE@XZ
_TEXT	SEGMENT
_this$ = -4						; size = 4
??1?$ScriptRegistrant@VSUR_New_PT@@@@UAE@XZ PROC	; ScriptRegistrant<SUR_New_PT>::~ScriptRegistrant<SUR_New_PT>, COMDAT
; _this$ = ecx
	push	ebp
	mov	ebp, esp
	sub	esp, 68					; 00000044H
	push	ebx
	push	esi
	push	edi
	mov	DWORD PTR _this$[ebp], ecx
	mov	ecx, DWORD PTR _this$[ebp]
	call	??1ScriptFactory@@UAE@XZ		; ScriptFactory::~ScriptFactory
	pop	edi
	pop	esi
	pop	ebx
	mov	esp, ebp
	pop	ebp
	ret	0
??1?$ScriptRegistrant@VSUR_New_PT@@@@UAE@XZ ENDP	; ScriptRegistrant<SUR_New_PT>::~ScriptRegistrant<SUR_New_PT>
_TEXT	ENDS
; Function compile flags: /Odtp /ZI
; File x:\github\renegade\dragonade_rxd\scripts\scripts.h
;	COMDAT ?Create@?$ScriptRegistrant@VSUR_New_PT@@@@UAEPAVScriptImpClass@@XZ
_TEXT	SEGMENT
tv77 = -84						; size = 4
tv79 = -80						; size = 4
$T1 = -76						; size = 4
_script$ = -8						; size = 4
_this$ = -4						; size = 4
?Create@?$ScriptRegistrant@VSUR_New_PT@@@@UAEPAVScriptImpClass@@XZ PROC ; ScriptRegistrant<SUR_New_PT>::Create, COMDAT
; _this$ = ecx

; 552  : 	{

	push	ebp
	mov	ebp, esp
	sub	esp, 84					; 00000054H
	push	ebx
	push	esi
	push	edi
	mov	DWORD PTR _this$[ebp], ecx

; 553  : 		T* script = new T;

	push	OFFSET ??_C@_0CL@KBJCMIPP@ScriptRegistrant?$DMclass?5SUR_New_P@
	push	553					; 00000229H
	push	OFFSET ??_C@_0DD@KMKBFFOF@x?3?2github?2renegade?2dragonade_rxd@
	call	?SetThreadTrackingInformation@@YAXPBDI0@Z ; SetThreadTrackingInformation
	add	esp, 12					; 0000000cH
	xor	eax, eax
	je	SHORT $LN6@Create
	xor	ecx, ecx
	jne	SHORT $LN3@Create
	push	553					; 00000229H
	push	OFFSET ??_C@_1GG@OGNLNBPD@?$AAx?$AA?3?$AA?2?$AAg?$AAi?$AAt?$AAh?$AAu?$AAb?$AA?2?$AAr?$AAe?$AAn?$AAe?$AAg?$AAa?$AAd?$AAe?$AA?2?$AAd?$AAr?$AAa?$AAg?$AAo?$AAn?$AAa?$AAd?$AAe?$AA_?$AAr?$AAx?$AAd@
	push	OFFSET ??_C@_1M@HLGKFCJM@?$AAf?$AAa?$AAl?$AAs?$AAe?$AA?$AA@
	call	DWORD PTR __imp___wassert
	add	esp, 12					; 0000000cH
$LN3@Create:
	mov	DWORD PTR tv79[ebp], 0
	jmp	SHORT $LN7@Create
$LN6@Create:
	push	28					; 0000001cH
	call	??2@YAPAXI@Z				; operator new
	add	esp, 4
	mov	DWORD PTR $T1[ebp], eax
	cmp	DWORD PTR $T1[ebp], 0
	je	SHORT $LN4@Create
	mov	ecx, DWORD PTR $T1[ebp]
	call	??0SUR_New_PT@@QAE@XZ
	mov	DWORD PTR tv77[ebp], eax
	jmp	SHORT $LN5@Create
$LN4@Create:
	mov	DWORD PTR tv77[ebp], 0
$LN5@Create:
	mov	eax, DWORD PTR tv77[ebp]
	mov	DWORD PTR tv79[ebp], eax
$LN7@Create:
	mov	ecx, DWORD PTR tv79[ebp]
	mov	DWORD PTR _script$[ebp], ecx

; 554  : 		script->SetFactory(this);

	mov	eax, DWORD PTR _this$[ebp]
	push	eax
	mov	ecx, DWORD PTR _script$[ebp]
	call	?SetFactory@ScriptImpClass@@QAEXPAVScriptFactory@@@Z ; ScriptImpClass::SetFactory

; 555  : 		script->Register_Auto_Save_Variables();

	mov	eax, DWORD PTR _script$[ebp]
	mov	edx, DWORD PTR [eax]
	mov	ecx, DWORD PTR _script$[ebp]
	mov	eax, DWORD PTR [edx+100]
	call	eax

; 556  : 		return script;

	mov	eax, DWORD PTR _script$[ebp]

; 557  : 	}

	pop	edi
	pop	esi
	pop	ebx
	mov	esp, ebp
	pop	ebp
	ret	0
?Create@?$ScriptRegistrant@VSUR_New_PT@@@@UAEPAVScriptImpClass@@XZ ENDP ; ScriptRegistrant<SUR_New_PT>::Create
_TEXT	ENDS
; Function compile flags: /Odtp /ZI
; File x:\github\renegade\dragonade_rxd\scripts\scripts.h
;	COMDAT ??0?$ScriptRegistrant@VSUR_New_PT@@@@QAE@PBD0@Z
_TEXT	SEGMENT
_this$ = -4						; size = 4
_name$ = 8						; size = 4
_param$ = 12						; size = 4
??0?$ScriptRegistrant@VSUR_New_PT@@@@QAE@PBD0@Z PROC	; ScriptRegistrant<SUR_New_PT>::ScriptRegistrant<SUR_New_PT>, COMDAT
; _this$ = ecx

; 549  : 	{

	push	ebp
	mov	ebp, esp
	sub	esp, 68					; 00000044H
	push	ebx
	push	esi
	push	edi
	mov	DWORD PTR _this$[ebp], ecx
	mov	eax, DWORD PTR _param$[ebp]
	push	eax
	mov	ecx, DWORD PTR _name$[ebp]
	push	ecx
	mov	ecx, DWORD PTR _this$[ebp]
	call	??0ScriptFactory@@IAE@PBD0@Z		; ScriptFactory::ScriptFactory
	mov	eax, DWORD PTR _this$[ebp]
	mov	DWORD PTR [eax], OFFSET ??_7?$ScriptRegistrant@VSUR_New_PT@@@@6B@

; 550  : 	}

	mov	eax, DWORD PTR _this$[ebp]
	pop	edi
	pop	esi
	pop	ebx
	mov	esp, ebp
	pop	ebp
	ret	8
??0?$ScriptRegistrant@VSUR_New_PT@@@@QAE@PBD0@Z ENDP	; ScriptRegistrant<SUR_New_PT>::ScriptRegistrant<SUR_New_PT>
_TEXT	ENDS
; Function compile flags: /Odtp /ZI
;	COMDAT ??__FSUR_Obj_Destroyer_Registrant@@YAXXZ
text$yd	SEGMENT
??__FSUR_Obj_Destroyer_Registrant@@YAXXZ PROC		; `dynamic atexit destructor for 'SUR_Obj_Destroyer_Registrant'', COMDAT
	push	ebp
	mov	ebp, esp
	sub	esp, 64					; 00000040H
	push	ebx
	push	esi
	push	edi
	mov	ecx, OFFSET ?SUR_Obj_Destroyer_Registrant@@3V?$ScriptRegistrant@VSUR_Obj_Destroyer@@@@A ; SUR_Obj_Destroyer_Registrant
	call	??1?$ScriptRegistrant@VSUR_Obj_Destroyer@@@@UAE@XZ
	pop	edi
	pop	esi
	pop	ebx
	mov	esp, ebp
	pop	ebp
	ret	0
??__FSUR_Obj_Destroyer_Registrant@@YAXXZ ENDP		; `dynamic atexit destructor for 'SUR_Obj_Destroyer_Registrant''
text$yd	ENDS
; Function compile flags: /Odtp /ZI
; File x:\github\renegade\dragonade_rxd\scripts\survival.cpp
;	COMDAT ??__ESUR_Obj_Destroyer_Registrant@@YAXXZ
text$yc	SEGMENT
??__ESUR_Obj_Destroyer_Registrant@@YAXXZ PROC		; `dynamic initializer for 'SUR_Obj_Destroyer_Registrant'', COMDAT

; 824  : ScriptRegistrant<SUR_Obj_Destroyer> SUR_Obj_Destroyer_Registrant("SUR_Obj_Destroyer","ID:int");

	push	ebp
	mov	ebp, esp
	sub	esp, 64					; 00000040H
	push	ebx
	push	esi
	push	edi
	push	OFFSET ??_C@_06IDGMBKCH@ID?3int?$AA@
	push	OFFSET ??_C@_0BC@DOELCKBJ@SUR_Obj_Destroyer?$AA@
	mov	ecx, OFFSET ?SUR_Obj_Destroyer_Registrant@@3V?$ScriptRegistrant@VSUR_Obj_Destroyer@@@@A ; SUR_Obj_Destroyer_Registrant
	call	??0?$ScriptRegistrant@VSUR_Obj_Destroyer@@@@QAE@PBD0@Z ; ScriptRegistrant<SUR_Obj_Destroyer>::ScriptRegistrant<SUR_Obj_Destroyer>
	push	OFFSET ??__FSUR_Obj_Destroyer_Registrant@@YAXXZ ; `dynamic atexit destructor for 'SUR_Obj_Destroyer_Registrant''
	call	_atexit
	add	esp, 4
	pop	edi
	pop	esi
	pop	ebx
	mov	esp, ebp
	pop	ebp
	ret	0
??__ESUR_Obj_Destroyer_Registrant@@YAXXZ ENDP		; `dynamic initializer for 'SUR_Obj_Destroyer_Registrant''
text$yc	ENDS
; Function compile flags: /Odtp /ZI
;	COMDAT ??_G?$ScriptRegistrant@VSUR_Obj_Destroyer@@@@UAEPAXI@Z
_TEXT	SEGMENT
_this$ = -4						; size = 4
___flags$ = 8						; size = 4
??_G?$ScriptRegistrant@VSUR_Obj_Destroyer@@@@UAEPAXI@Z PROC ; ScriptRegistrant<SUR_Obj_Destroyer>::`scalar deleting destructor', COMDAT
; _this$ = ecx
	push	ebp
	mov	ebp, esp
	sub	esp, 68					; 00000044H
	push	ebx
	push	esi
	push	edi
	mov	DWORD PTR _this$[ebp], ecx
	mov	ecx, DWORD PTR _this$[ebp]
	call	??1?$ScriptRegistrant@VSUR_Obj_Destroyer@@@@UAE@XZ
	mov	eax, DWORD PTR ___flags$[ebp]
	and	eax, 1
	je	SHORT $LN1@scalar
	mov	eax, DWORD PTR _this$[ebp]
	push	eax
	call	??3@YAXPAX@Z				; operator delete
	add	esp, 4
$LN1@scalar:
	mov	eax, DWORD PTR _this$[ebp]
	pop	edi
	pop	esi
	pop	ebx
	mov	esp, ebp
	pop	ebp
	ret	4
??_G?$ScriptRegistrant@VSUR_Obj_Destroyer@@@@UAEPAXI@Z ENDP ; ScriptRegistrant<SUR_Obj_Destroyer>::`scalar deleting destructor'
_TEXT	ENDS
; Function compile flags: /Odtp /ZI
;	COMDAT ??1?$ScriptRegistrant@VSUR_Obj_Destroyer@@@@UAE@XZ
_TEXT	SEGMENT
_this$ = -4						; size = 4
??1?$ScriptRegistrant@VSUR_Obj_Destroyer@@@@UAE@XZ PROC	; ScriptRegistrant<SUR_Obj_Destroyer>::~ScriptRegistrant<SUR_Obj_Destroyer>, COMDAT
; _this$ = ecx
	push	ebp
	mov	ebp, esp
	sub	esp, 68					; 00000044H
	push	ebx
	push	esi
	push	edi
	mov	DWORD PTR _this$[ebp], ecx
	mov	ecx, DWORD PTR _this$[ebp]
	call	??1ScriptFactory@@UAE@XZ		; ScriptFactory::~ScriptFactory
	pop	edi
	pop	esi
	pop	ebx
	mov	esp, ebp
	pop	ebp
	ret	0
??1?$ScriptRegistrant@VSUR_Obj_Destroyer@@@@UAE@XZ ENDP	; ScriptRegistrant<SUR_Obj_Destroyer>::~ScriptRegistrant<SUR_Obj_Destroyer>
_TEXT	ENDS
; Function compile flags: /Odtp /ZI
; File x:\github\renegade\dragonade_rxd\scripts\scripts.h
;	COMDAT ?Create@?$ScriptRegistrant@VSUR_Obj_Destroyer@@@@UAEPAVScriptImpClass@@XZ
_TEXT	SEGMENT
tv77 = -84						; size = 4
tv79 = -80						; size = 4
$T1 = -76						; size = 4
_script$ = -8						; size = 4
_this$ = -4						; size = 4
?Create@?$ScriptRegistrant@VSUR_Obj_Destroyer@@@@UAEPAVScriptImpClass@@XZ PROC ; ScriptRegistrant<SUR_Obj_Destroyer>::Create, COMDAT
; _this$ = ecx

; 552  : 	{

	push	ebp
	mov	ebp, esp
	sub	esp, 84					; 00000054H
	push	ebx
	push	esi
	push	edi
	mov	DWORD PTR _this$[ebp], ecx

; 553  : 		T* script = new T;

	push	OFFSET ??_C@_0DC@KDOJNHEC@ScriptRegistrant?$DMclass?5SUR_Obj_D@
	push	553					; 00000229H
	push	OFFSET ??_C@_0DD@KMKBFFOF@x?3?2github?2renegade?2dragonade_rxd@
	call	?SetThreadTrackingInformation@@YAXPBDI0@Z ; SetThreadTrackingInformation
	add	esp, 12					; 0000000cH
	xor	eax, eax
	je	SHORT $LN6@Create
	xor	ecx, ecx
	jne	SHORT $LN3@Create
	push	553					; 00000229H
	push	OFFSET ??_C@_1GG@OGNLNBPD@?$AAx?$AA?3?$AA?2?$AAg?$AAi?$AAt?$AAh?$AAu?$AAb?$AA?2?$AAr?$AAe?$AAn?$AAe?$AAg?$AAa?$AAd?$AAe?$AA?2?$AAd?$AAr?$AAa?$AAg?$AAo?$AAn?$AAa?$AAd?$AAe?$AA_?$AAr?$AAx?$AAd@
	push	OFFSET ??_C@_1M@HLGKFCJM@?$AAf?$AAa?$AAl?$AAs?$AAe?$AA?$AA@
	call	DWORD PTR __imp___wassert
	add	esp, 12					; 0000000cH
$LN3@Create:
	mov	DWORD PTR tv79[ebp], 0
	jmp	SHORT $LN7@Create
$LN6@Create:
	push	28					; 0000001cH
	call	??2@YAPAXI@Z				; operator new
	add	esp, 4
	mov	DWORD PTR $T1[ebp], eax
	cmp	DWORD PTR $T1[ebp], 0
	je	SHORT $LN4@Create
	mov	ecx, DWORD PTR $T1[ebp]
	call	??0SUR_Obj_Destroyer@@QAE@XZ
	mov	DWORD PTR tv77[ebp], eax
	jmp	SHORT $LN5@Create
$LN4@Create:
	mov	DWORD PTR tv77[ebp], 0
$LN5@Create:
	mov	eax, DWORD PTR tv77[ebp]
	mov	DWORD PTR tv79[ebp], eax
$LN7@Create:
	mov	ecx, DWORD PTR tv79[ebp]
	mov	DWORD PTR _script$[ebp], ecx

; 554  : 		script->SetFactory(this);

	mov	eax, DWORD PTR _this$[ebp]
	push	eax
	mov	ecx, DWORD PTR _script$[ebp]
	call	?SetFactory@ScriptImpClass@@QAEXPAVScriptFactory@@@Z ; ScriptImpClass::SetFactory

; 555  : 		script->Register_Auto_Save_Variables();

	mov	eax, DWORD PTR _script$[ebp]
	mov	edx, DWORD PTR [eax]
	mov	ecx, DWORD PTR _script$[ebp]
	mov	eax, DWORD PTR [edx+100]
	call	eax

; 556  : 		return script;

	mov	eax, DWORD PTR _script$[ebp]

; 557  : 	}

	pop	edi
	pop	esi
	pop	ebx
	mov	esp, ebp
	pop	ebp
	ret	0
?Create@?$ScriptRegistrant@VSUR_Obj_Destroyer@@@@UAEPAVScriptImpClass@@XZ ENDP ; ScriptRegistrant<SUR_Obj_Destroyer>::Create
_TEXT	ENDS
; Function compile flags: /Odtp /ZI
; File x:\github\renegade\dragonade_rxd\scripts\scripts.h
;	COMDAT ??0?$ScriptRegistrant@VSUR_Obj_Destroyer@@@@QAE@PBD0@Z
_TEXT	SEGMENT
_this$ = -4						; size = 4
_name$ = 8						; size = 4
_param$ = 12						; size = 4
??0?$ScriptRegistrant@VSUR_Obj_Destroyer@@@@QAE@PBD0@Z PROC ; ScriptRegistrant<SUR_Obj_Destroyer>::ScriptRegistrant<SUR_Obj_Destroyer>, COMDAT
; _this$ = ecx

; 549  : 	{

	push	ebp
	mov	ebp, esp
	sub	esp, 68					; 00000044H
	push	ebx
	push	esi
	push	edi
	mov	DWORD PTR _this$[ebp], ecx
	mov	eax, DWORD PTR _param$[ebp]
	push	eax
	mov	ecx, DWORD PTR _name$[ebp]
	push	ecx
	mov	ecx, DWORD PTR _this$[ebp]
	call	??0ScriptFactory@@IAE@PBD0@Z		; ScriptFactory::ScriptFactory
	mov	eax, DWORD PTR _this$[ebp]
	mov	DWORD PTR [eax], OFFSET ??_7?$ScriptRegistrant@VSUR_Obj_Destroyer@@@@6B@

; 550  : 	}

	mov	eax, DWORD PTR _this$[ebp]
	pop	edi
	pop	esi
	pop	ebx
	mov	esp, ebp
	pop	ebp
	ret	8
??0?$ScriptRegistrant@VSUR_Obj_Destroyer@@@@QAE@PBD0@Z ENDP ; ScriptRegistrant<SUR_Obj_Destroyer>::ScriptRegistrant<SUR_Obj_Destroyer>
_TEXT	ENDS
; Function compile flags: /Odtp /ZI
;	COMDAT ??__FSUR_NHB_Soldier_Registrant@@YAXXZ
text$yd	SEGMENT
??__FSUR_NHB_Soldier_Registrant@@YAXXZ PROC		; `dynamic atexit destructor for 'SUR_NHB_Soldier_Registrant'', COMDAT
	push	ebp
	mov	ebp, esp
	sub	esp, 64					; 00000040H
	push	ebx
	push	esi
	push	edi
	mov	ecx, OFFSET ?SUR_NHB_Soldier_Registrant@@3V?$ScriptRegistrant@VSUR_NHB_Soldier@@@@A ; SUR_NHB_Soldier_Registrant
	call	??1?$ScriptRegistrant@VSUR_NHB_Soldier@@@@UAE@XZ
	pop	edi
	pop	esi
	pop	ebx
	mov	esp, ebp
	pop	ebp
	ret	0
??__FSUR_NHB_Soldier_Registrant@@YAXXZ ENDP		; `dynamic atexit destructor for 'SUR_NHB_Soldier_Registrant''
text$yd	ENDS
; Function compile flags: /Odtp /ZI
; File x:\github\renegade\dragonade_rxd\scripts\survival.cpp
;	COMDAT ??__ESUR_NHB_Soldier_Registrant@@YAXXZ
text$yc	SEGMENT
??__ESUR_NHB_Soldier_Registrant@@YAXXZ PROC		; `dynamic initializer for 'SUR_NHB_Soldier_Registrant'', COMDAT

; 823  : ScriptRegistrant<SUR_NHB_Soldier> SUR_NHB_Soldier_Registrant("SUR_NHB_Soldier","NHB_ID:int,VPad_Path:int,VPad_Path_Start:int,VPad_Path_End:int,HeliPath:int,HeliPath_Start:int,HeliPath_End:int,NodGen_Path:int,NodGen_Path_Start:int,NodGen_Path_End:int,GDIGen_Path:int,GDIGen_Path_Start:int,GDIGen_Path_End:int,NodGen_ID:int,GDIGen_ID:int");

	push	ebp
	mov	ebp, esp
	sub	esp, 64					; 00000040H
	push	ebx
	push	esi
	push	edi
	push	OFFSET ??_C@_0BAA@ECKFGJNH@NHB_ID?3int?0VPad_Path?3int?0VPad_Pa@
	push	OFFSET ??_C@_0BA@IFMBMGDM@SUR_NHB_Soldier?$AA@
	mov	ecx, OFFSET ?SUR_NHB_Soldier_Registrant@@3V?$ScriptRegistrant@VSUR_NHB_Soldier@@@@A ; SUR_NHB_Soldier_Registrant
	call	??0?$ScriptRegistrant@VSUR_NHB_Soldier@@@@QAE@PBD0@Z ; ScriptRegistrant<SUR_NHB_Soldier>::ScriptRegistrant<SUR_NHB_Soldier>
	push	OFFSET ??__FSUR_NHB_Soldier_Registrant@@YAXXZ ; `dynamic atexit destructor for 'SUR_NHB_Soldier_Registrant''
	call	_atexit
	add	esp, 4
	pop	edi
	pop	esi
	pop	ebx
	mov	esp, ebp
	pop	ebp
	ret	0
??__ESUR_NHB_Soldier_Registrant@@YAXXZ ENDP		; `dynamic initializer for 'SUR_NHB_Soldier_Registrant''
text$yc	ENDS
; Function compile flags: /Odtp /ZI
;	COMDAT ??_G?$ScriptRegistrant@VSUR_NHB_Soldier@@@@UAEPAXI@Z
_TEXT	SEGMENT
_this$ = -4						; size = 4
___flags$ = 8						; size = 4
??_G?$ScriptRegistrant@VSUR_NHB_Soldier@@@@UAEPAXI@Z PROC ; ScriptRegistrant<SUR_NHB_Soldier>::`scalar deleting destructor', COMDAT
; _this$ = ecx
	push	ebp
	mov	ebp, esp
	sub	esp, 68					; 00000044H
	push	ebx
	push	esi
	push	edi
	mov	DWORD PTR _this$[ebp], ecx
	mov	ecx, DWORD PTR _this$[ebp]
	call	??1?$ScriptRegistrant@VSUR_NHB_Soldier@@@@UAE@XZ
	mov	eax, DWORD PTR ___flags$[ebp]
	and	eax, 1
	je	SHORT $LN1@scalar
	mov	eax, DWORD PTR _this$[ebp]
	push	eax
	call	??3@YAXPAX@Z				; operator delete
	add	esp, 4
$LN1@scalar:
	mov	eax, DWORD PTR _this$[ebp]
	pop	edi
	pop	esi
	pop	ebx
	mov	esp, ebp
	pop	ebp
	ret	4
??_G?$ScriptRegistrant@VSUR_NHB_Soldier@@@@UAEPAXI@Z ENDP ; ScriptRegistrant<SUR_NHB_Soldier>::`scalar deleting destructor'
_TEXT	ENDS
; Function compile flags: /Odtp /ZI
;	COMDAT ??1?$ScriptRegistrant@VSUR_NHB_Soldier@@@@UAE@XZ
_TEXT	SEGMENT
_this$ = -4						; size = 4
??1?$ScriptRegistrant@VSUR_NHB_Soldier@@@@UAE@XZ PROC	; ScriptRegistrant<SUR_NHB_Soldier>::~ScriptRegistrant<SUR_NHB_Soldier>, COMDAT
; _this$ = ecx
	push	ebp
	mov	ebp, esp
	sub	esp, 68					; 00000044H
	push	ebx
	push	esi
	push	edi
	mov	DWORD PTR _this$[ebp], ecx
	mov	ecx, DWORD PTR _this$[ebp]
	call	??1ScriptFactory@@UAE@XZ		; ScriptFactory::~ScriptFactory
	pop	edi
	pop	esi
	pop	ebx
	mov	esp, ebp
	pop	ebp
	ret	0
??1?$ScriptRegistrant@VSUR_NHB_Soldier@@@@UAE@XZ ENDP	; ScriptRegistrant<SUR_NHB_Soldier>::~ScriptRegistrant<SUR_NHB_Soldier>
_TEXT	ENDS
; Function compile flags: /Odtp /ZI
; File x:\github\renegade\dragonade_rxd\scripts\scripts.h
;	COMDAT ?Create@?$ScriptRegistrant@VSUR_NHB_Soldier@@@@UAEPAVScriptImpClass@@XZ
_TEXT	SEGMENT
tv77 = -84						; size = 4
tv79 = -80						; size = 4
$T1 = -76						; size = 4
_script$ = -8						; size = 4
_this$ = -4						; size = 4
?Create@?$ScriptRegistrant@VSUR_NHB_Soldier@@@@UAEPAVScriptImpClass@@XZ PROC ; ScriptRegistrant<SUR_NHB_Soldier>::Create, COMDAT
; _this$ = ecx

; 552  : 	{

	push	ebp
	mov	ebp, esp
	sub	esp, 84					; 00000054H
	push	ebx
	push	esi
	push	edi
	mov	DWORD PTR _this$[ebp], ecx

; 553  : 		T* script = new T;

	push	OFFSET ??_C@_0DA@BIDEEIAA@ScriptRegistrant?$DMclass?5SUR_NHB_S@
	push	553					; 00000229H
	push	OFFSET ??_C@_0DD@KMKBFFOF@x?3?2github?2renegade?2dragonade_rxd@
	call	?SetThreadTrackingInformation@@YAXPBDI0@Z ; SetThreadTrackingInformation
	add	esp, 12					; 0000000cH
	xor	eax, eax
	je	SHORT $LN6@Create
	xor	ecx, ecx
	jne	SHORT $LN3@Create
	push	553					; 00000229H
	push	OFFSET ??_C@_1GG@OGNLNBPD@?$AAx?$AA?3?$AA?2?$AAg?$AAi?$AAt?$AAh?$AAu?$AAb?$AA?2?$AAr?$AAe?$AAn?$AAe?$AAg?$AAa?$AAd?$AAe?$AA?2?$AAd?$AAr?$AAa?$AAg?$AAo?$AAn?$AAa?$AAd?$AAe?$AA_?$AAr?$AAx?$AAd@
	push	OFFSET ??_C@_1M@HLGKFCJM@?$AAf?$AAa?$AAl?$AAs?$AAe?$AA?$AA@
	call	DWORD PTR __imp___wassert
	add	esp, 12					; 0000000cH
$LN3@Create:
	mov	DWORD PTR tv79[ebp], 0
	jmp	SHORT $LN7@Create
$LN6@Create:
	push	48					; 00000030H
	call	??2@YAPAXI@Z				; operator new
	add	esp, 4
	mov	DWORD PTR $T1[ebp], eax
	cmp	DWORD PTR $T1[ebp], 0
	je	SHORT $LN4@Create
	mov	ecx, DWORD PTR $T1[ebp]
	call	??0SUR_NHB_Soldier@@QAE@XZ
	mov	DWORD PTR tv77[ebp], eax
	jmp	SHORT $LN5@Create
$LN4@Create:
	mov	DWORD PTR tv77[ebp], 0
$LN5@Create:
	mov	eax, DWORD PTR tv77[ebp]
	mov	DWORD PTR tv79[ebp], eax
$LN7@Create:
	mov	ecx, DWORD PTR tv79[ebp]
	mov	DWORD PTR _script$[ebp], ecx

; 554  : 		script->SetFactory(this);

	mov	eax, DWORD PTR _this$[ebp]
	push	eax
	mov	ecx, DWORD PTR _script$[ebp]
	call	?SetFactory@ScriptImpClass@@QAEXPAVScriptFactory@@@Z ; ScriptImpClass::SetFactory

; 555  : 		script->Register_Auto_Save_Variables();

	mov	eax, DWORD PTR _script$[ebp]
	mov	edx, DWORD PTR [eax]
	mov	ecx, DWORD PTR _script$[ebp]
	mov	eax, DWORD PTR [edx+100]
	call	eax

; 556  : 		return script;

	mov	eax, DWORD PTR _script$[ebp]

; 557  : 	}

	pop	edi
	pop	esi
	pop	ebx
	mov	esp, ebp
	pop	ebp
	ret	0
?Create@?$ScriptRegistrant@VSUR_NHB_Soldier@@@@UAEPAVScriptImpClass@@XZ ENDP ; ScriptRegistrant<SUR_NHB_Soldier>::Create
_TEXT	ENDS
; Function compile flags: /Odtp /ZI
; File x:\github\renegade\dragonade_rxd\scripts\scripts.h
;	COMDAT ??0?$ScriptRegistrant@VSUR_NHB_Soldier@@@@QAE@PBD0@Z
_TEXT	SEGMENT
_this$ = -4						; size = 4
_name$ = 8						; size = 4
_param$ = 12						; size = 4
??0?$ScriptRegistrant@VSUR_NHB_Soldier@@@@QAE@PBD0@Z PROC ; ScriptRegistrant<SUR_NHB_Soldier>::ScriptRegistrant<SUR_NHB_Soldier>, COMDAT
; _this$ = ecx

; 549  : 	{

	push	ebp
	mov	ebp, esp
	sub	esp, 68					; 00000044H
	push	ebx
	push	esi
	push	edi
	mov	DWORD PTR _this$[ebp], ecx
	mov	eax, DWORD PTR _param$[ebp]
	push	eax
	mov	ecx, DWORD PTR _name$[ebp]
	push	ecx
	mov	ecx, DWORD PTR _this$[ebp]
	call	??0ScriptFactory@@IAE@PBD0@Z		; ScriptFactory::ScriptFactory
	mov	eax, DWORD PTR _this$[ebp]
	mov	DWORD PTR [eax], OFFSET ??_7?$ScriptRegistrant@VSUR_NHB_Soldier@@@@6B@

; 550  : 	}

	mov	eax, DWORD PTR _this$[ebp]
	pop	edi
	pop	esi
	pop	ebx
	mov	esp, ebp
	pop	ebp
	ret	8
??0?$ScriptRegistrant@VSUR_NHB_Soldier@@@@QAE@PBD0@Z ENDP ; ScriptRegistrant<SUR_NHB_Soldier>::ScriptRegistrant<SUR_NHB_Soldier>
_TEXT	ENDS
; Function compile flags: /Odtp /ZI
;	COMDAT ??__FSUR_NHB_Registrant@@YAXXZ
text$yd	SEGMENT
??__FSUR_NHB_Registrant@@YAXXZ PROC			; `dynamic atexit destructor for 'SUR_NHB_Registrant'', COMDAT
	push	ebp
	mov	ebp, esp
	sub	esp, 64					; 00000040H
	push	ebx
	push	esi
	push	edi
	mov	ecx, OFFSET ?SUR_NHB_Registrant@@3V?$ScriptRegistrant@VSUR_NHB@@@@A ; SUR_NHB_Registrant
	call	??1?$ScriptRegistrant@VSUR_NHB@@@@UAE@XZ
	pop	edi
	pop	esi
	pop	ebx
	mov	esp, ebp
	pop	ebp
	ret	0
??__FSUR_NHB_Registrant@@YAXXZ ENDP			; `dynamic atexit destructor for 'SUR_NHB_Registrant''
text$yd	ENDS
; Function compile flags: /Odtp /ZI
; File x:\github\renegade\dragonade_rxd\scripts\survival.cpp
;	COMDAT ??__ESUR_NHB_Registrant@@YAXXZ
text$yc	SEGMENT
??__ESUR_NHB_Registrant@@YAXXZ PROC			; `dynamic initializer for 'SUR_NHB_Registrant'', COMDAT

; 822  : ScriptRegistrant<SUR_NHB> SUR_NHB_Registrant("SUR_NHB","GDI_Gen:int,Nod_Gen:int,Strike_Preset:string,Taunt1:int,Taunt2:int,OrcaWarning:int");

	push	ebp
	mov	ebp, esp
	sub	esp, 64					; 00000040H
	push	ebx
	push	esi
	push	edi
	push	OFFSET ??_C@_0FD@DHDDJGN@GDI_Gen?3int?0Nod_Gen?3int?0Strike_P@
	push	OFFSET ??_C@_07MJBDNLE@SUR_NHB?$AA@
	mov	ecx, OFFSET ?SUR_NHB_Registrant@@3V?$ScriptRegistrant@VSUR_NHB@@@@A ; SUR_NHB_Registrant
	call	??0?$ScriptRegistrant@VSUR_NHB@@@@QAE@PBD0@Z ; ScriptRegistrant<SUR_NHB>::ScriptRegistrant<SUR_NHB>
	push	OFFSET ??__FSUR_NHB_Registrant@@YAXXZ	; `dynamic atexit destructor for 'SUR_NHB_Registrant''
	call	_atexit
	add	esp, 4
	pop	edi
	pop	esi
	pop	ebx
	mov	esp, ebp
	pop	ebp
	ret	0
??__ESUR_NHB_Registrant@@YAXXZ ENDP			; `dynamic initializer for 'SUR_NHB_Registrant''
text$yc	ENDS
; Function compile flags: /Odtp /ZI
;	COMDAT ??_G?$ScriptRegistrant@VSUR_NHB@@@@UAEPAXI@Z
_TEXT	SEGMENT
_this$ = -4						; size = 4
___flags$ = 8						; size = 4
??_G?$ScriptRegistrant@VSUR_NHB@@@@UAEPAXI@Z PROC	; ScriptRegistrant<SUR_NHB>::`scalar deleting destructor', COMDAT
; _this$ = ecx
	push	ebp
	mov	ebp, esp
	sub	esp, 68					; 00000044H
	push	ebx
	push	esi
	push	edi
	mov	DWORD PTR _this$[ebp], ecx
	mov	ecx, DWORD PTR _this$[ebp]
	call	??1?$ScriptRegistrant@VSUR_NHB@@@@UAE@XZ
	mov	eax, DWORD PTR ___flags$[ebp]
	and	eax, 1
	je	SHORT $LN1@scalar
	mov	eax, DWORD PTR _this$[ebp]
	push	eax
	call	??3@YAXPAX@Z				; operator delete
	add	esp, 4
$LN1@scalar:
	mov	eax, DWORD PTR _this$[ebp]
	pop	edi
	pop	esi
	pop	ebx
	mov	esp, ebp
	pop	ebp
	ret	4
??_G?$ScriptRegistrant@VSUR_NHB@@@@UAEPAXI@Z ENDP	; ScriptRegistrant<SUR_NHB>::`scalar deleting destructor'
_TEXT	ENDS
; Function compile flags: /Odtp /ZI
;	COMDAT ??1?$ScriptRegistrant@VSUR_NHB@@@@UAE@XZ
_TEXT	SEGMENT
_this$ = -4						; size = 4
??1?$ScriptRegistrant@VSUR_NHB@@@@UAE@XZ PROC		; ScriptRegistrant<SUR_NHB>::~ScriptRegistrant<SUR_NHB>, COMDAT
; _this$ = ecx
	push	ebp
	mov	ebp, esp
	sub	esp, 68					; 00000044H
	push	ebx
	push	esi
	push	edi
	mov	DWORD PTR _this$[ebp], ecx
	mov	ecx, DWORD PTR _this$[ebp]
	call	??1ScriptFactory@@UAE@XZ		; ScriptFactory::~ScriptFactory
	pop	edi
	pop	esi
	pop	ebx
	mov	esp, ebp
	pop	ebp
	ret	0
??1?$ScriptRegistrant@VSUR_NHB@@@@UAE@XZ ENDP		; ScriptRegistrant<SUR_NHB>::~ScriptRegistrant<SUR_NHB>
_TEXT	ENDS
; Function compile flags: /Odtp /ZI
; File x:\github\renegade\dragonade_rxd\scripts\scripts.h
;	COMDAT ?Create@?$ScriptRegistrant@VSUR_NHB@@@@UAEPAVScriptImpClass@@XZ
_TEXT	SEGMENT
tv77 = -84						; size = 4
tv79 = -80						; size = 4
$T1 = -76						; size = 4
_script$ = -8						; size = 4
_this$ = -4						; size = 4
?Create@?$ScriptRegistrant@VSUR_NHB@@@@UAEPAVScriptImpClass@@XZ PROC ; ScriptRegistrant<SUR_NHB>::Create, COMDAT
; _this$ = ecx

; 552  : 	{

	push	ebp
	mov	ebp, esp
	sub	esp, 84					; 00000054H
	push	ebx
	push	esi
	push	edi
	mov	DWORD PTR _this$[ebp], ecx

; 553  : 		T* script = new T;

	push	OFFSET ??_C@_0CI@LNPJCONE@ScriptRegistrant?$DMclass?5SUR_NHB?$DO?3@
	push	553					; 00000229H
	push	OFFSET ??_C@_0DD@KMKBFFOF@x?3?2github?2renegade?2dragonade_rxd@
	call	?SetThreadTrackingInformation@@YAXPBDI0@Z ; SetThreadTrackingInformation
	add	esp, 12					; 0000000cH
	xor	eax, eax
	je	SHORT $LN6@Create
	xor	ecx, ecx
	jne	SHORT $LN3@Create
	push	553					; 00000229H
	push	OFFSET ??_C@_1GG@OGNLNBPD@?$AAx?$AA?3?$AA?2?$AAg?$AAi?$AAt?$AAh?$AAu?$AAb?$AA?2?$AAr?$AAe?$AAn?$AAe?$AAg?$AAa?$AAd?$AAe?$AA?2?$AAd?$AAr?$AAa?$AAg?$AAo?$AAn?$AAa?$AAd?$AAe?$AA_?$AAr?$AAx?$AAd@
	push	OFFSET ??_C@_1M@HLGKFCJM@?$AAf?$AAa?$AAl?$AAs?$AAe?$AA?$AA@
	call	DWORD PTR __imp___wassert
	add	esp, 12					; 0000000cH
$LN3@Create:
	mov	DWORD PTR tv79[ebp], 0
	jmp	SHORT $LN7@Create
$LN6@Create:
	push	92					; 0000005cH
	call	??2@YAPAXI@Z				; operator new
	add	esp, 4
	mov	DWORD PTR $T1[ebp], eax
	cmp	DWORD PTR $T1[ebp], 0
	je	SHORT $LN4@Create
	mov	ecx, DWORD PTR $T1[ebp]
	call	??0SUR_NHB@@QAE@XZ
	mov	DWORD PTR tv77[ebp], eax
	jmp	SHORT $LN5@Create
$LN4@Create:
	mov	DWORD PTR tv77[ebp], 0
$LN5@Create:
	mov	eax, DWORD PTR tv77[ebp]
	mov	DWORD PTR tv79[ebp], eax
$LN7@Create:
	mov	ecx, DWORD PTR tv79[ebp]
	mov	DWORD PTR _script$[ebp], ecx

; 554  : 		script->SetFactory(this);

	mov	eax, DWORD PTR _this$[ebp]
	push	eax
	mov	ecx, DWORD PTR _script$[ebp]
	call	?SetFactory@ScriptImpClass@@QAEXPAVScriptFactory@@@Z ; ScriptImpClass::SetFactory

; 555  : 		script->Register_Auto_Save_Variables();

	mov	eax, DWORD PTR _script$[ebp]
	mov	edx, DWORD PTR [eax]
	mov	ecx, DWORD PTR _script$[ebp]
	mov	eax, DWORD PTR [edx+100]
	call	eax

; 556  : 		return script;

	mov	eax, DWORD PTR _script$[ebp]

; 557  : 	}

	pop	edi
	pop	esi
	pop	ebx
	mov	esp, ebp
	pop	ebp
	ret	0
?Create@?$ScriptRegistrant@VSUR_NHB@@@@UAEPAVScriptImpClass@@XZ ENDP ; ScriptRegistrant<SUR_NHB>::Create
_TEXT	ENDS
; Function compile flags: /Odtp /ZI
; File x:\github\renegade\dragonade_rxd\scripts\scripts.h
;	COMDAT ??0?$ScriptRegistrant@VSUR_NHB@@@@QAE@PBD0@Z
_TEXT	SEGMENT
_this$ = -4						; size = 4
_name$ = 8						; size = 4
_param$ = 12						; size = 4
??0?$ScriptRegistrant@VSUR_NHB@@@@QAE@PBD0@Z PROC	; ScriptRegistrant<SUR_NHB>::ScriptRegistrant<SUR_NHB>, COMDAT
; _this$ = ecx

; 549  : 	{

	push	ebp
	mov	ebp, esp
	sub	esp, 68					; 00000044H
	push	ebx
	push	esi
	push	edi
	mov	DWORD PTR _this$[ebp], ecx
	mov	eax, DWORD PTR _param$[ebp]
	push	eax
	mov	ecx, DWORD PTR _name$[ebp]
	push	ecx
	mov	ecx, DWORD PTR _this$[ebp]
	call	??0ScriptFactory@@IAE@PBD0@Z		; ScriptFactory::ScriptFactory
	mov	eax, DWORD PTR _this$[ebp]
	mov	DWORD PTR [eax], OFFSET ??_7?$ScriptRegistrant@VSUR_NHB@@@@6B@

; 550  : 	}

	mov	eax, DWORD PTR _this$[ebp]
	pop	edi
	pop	esi
	pop	ebx
	mov	esp, ebp
	pop	ebp
	ret	8
??0?$ScriptRegistrant@VSUR_NHB@@@@QAE@PBD0@Z ENDP	; ScriptRegistrant<SUR_NHB>::ScriptRegistrant<SUR_NHB>
_TEXT	ENDS
; Function compile flags: /Odtp /ZI
;	COMDAT ??__FSUR_MiniGen_Registrant@@YAXXZ
text$yd	SEGMENT
??__FSUR_MiniGen_Registrant@@YAXXZ PROC			; `dynamic atexit destructor for 'SUR_MiniGen_Registrant'', COMDAT
	push	ebp
	mov	ebp, esp
	sub	esp, 64					; 00000040H
	push	ebx
	push	esi
	push	edi
	mov	ecx, OFFSET ?SUR_MiniGen_Registrant@@3V?$ScriptRegistrant@VSUR_MiniGen@@@@A ; SUR_MiniGen_Registrant
	call	??1?$ScriptRegistrant@VSUR_MiniGen@@@@UAE@XZ
	pop	edi
	pop	esi
	pop	ebx
	mov	esp, ebp
	pop	ebp
	ret	0
??__FSUR_MiniGen_Registrant@@YAXXZ ENDP			; `dynamic atexit destructor for 'SUR_MiniGen_Registrant''
text$yd	ENDS
; Function compile flags: /Odtp /ZI
; File x:\github\renegade\dragonade_rxd\scripts\survival.cpp
;	COMDAT ??__ESUR_MiniGen_Registrant@@YAXXZ
text$yc	SEGMENT
??__ESUR_MiniGen_Registrant@@YAXXZ PROC			; `dynamic initializer for 'SUR_MiniGen_Registrant'', COMDAT

; 821  : ScriptRegistrant<SUR_MiniGen> SUR_MiniGen_Registrant("SUR_MiniGen","Time_Delay:float,Turret_ID_One:int,Turret_ID_Two:int,Turret_ID_Three:int,Turret_ID_Four:int");

	push	ebp
	mov	ebp, esp
	sub	esp, 64					; 00000040H
	push	ebx
	push	esi
	push	edi
	push	OFFSET ??_C@_0FM@NAIMEOBA@Time_Delay?3float?0Turret_ID_One?3i@
	push	OFFSET ??_C@_0M@GPOHJCKC@SUR_MiniGen?$AA@
	mov	ecx, OFFSET ?SUR_MiniGen_Registrant@@3V?$ScriptRegistrant@VSUR_MiniGen@@@@A ; SUR_MiniGen_Registrant
	call	??0?$ScriptRegistrant@VSUR_MiniGen@@@@QAE@PBD0@Z ; ScriptRegistrant<SUR_MiniGen>::ScriptRegistrant<SUR_MiniGen>
	push	OFFSET ??__FSUR_MiniGen_Registrant@@YAXXZ ; `dynamic atexit destructor for 'SUR_MiniGen_Registrant''
	call	_atexit
	add	esp, 4
	pop	edi
	pop	esi
	pop	ebx
	mov	esp, ebp
	pop	ebp
	ret	0
??__ESUR_MiniGen_Registrant@@YAXXZ ENDP			; `dynamic initializer for 'SUR_MiniGen_Registrant''
text$yc	ENDS
; Function compile flags: /Odtp /ZI
;	COMDAT ??_G?$ScriptRegistrant@VSUR_MiniGen@@@@UAEPAXI@Z
_TEXT	SEGMENT
_this$ = -4						; size = 4
___flags$ = 8						; size = 4
??_G?$ScriptRegistrant@VSUR_MiniGen@@@@UAEPAXI@Z PROC	; ScriptRegistrant<SUR_MiniGen>::`scalar deleting destructor', COMDAT
; _this$ = ecx
	push	ebp
	mov	ebp, esp
	sub	esp, 68					; 00000044H
	push	ebx
	push	esi
	push	edi
	mov	DWORD PTR _this$[ebp], ecx
	mov	ecx, DWORD PTR _this$[ebp]
	call	??1?$ScriptRegistrant@VSUR_MiniGen@@@@UAE@XZ
	mov	eax, DWORD PTR ___flags$[ebp]
	and	eax, 1
	je	SHORT $LN1@scalar
	mov	eax, DWORD PTR _this$[ebp]
	push	eax
	call	??3@YAXPAX@Z				; operator delete
	add	esp, 4
$LN1@scalar:
	mov	eax, DWORD PTR _this$[ebp]
	pop	edi
	pop	esi
	pop	ebx
	mov	esp, ebp
	pop	ebp
	ret	4
??_G?$ScriptRegistrant@VSUR_MiniGen@@@@UAEPAXI@Z ENDP	; ScriptRegistrant<SUR_MiniGen>::`scalar deleting destructor'
_TEXT	ENDS
; Function compile flags: /Odtp /ZI
;	COMDAT ??1?$ScriptRegistrant@VSUR_MiniGen@@@@UAE@XZ
_TEXT	SEGMENT
_this$ = -4						; size = 4
??1?$ScriptRegistrant@VSUR_MiniGen@@@@UAE@XZ PROC	; ScriptRegistrant<SUR_MiniGen>::~ScriptRegistrant<SUR_MiniGen>, COMDAT
; _this$ = ecx
	push	ebp
	mov	ebp, esp
	sub	esp, 68					; 00000044H
	push	ebx
	push	esi
	push	edi
	mov	DWORD PTR _this$[ebp], ecx
	mov	ecx, DWORD PTR _this$[ebp]
	call	??1ScriptFactory@@UAE@XZ		; ScriptFactory::~ScriptFactory
	pop	edi
	pop	esi
	pop	ebx
	mov	esp, ebp
	pop	ebp
	ret	0
??1?$ScriptRegistrant@VSUR_MiniGen@@@@UAE@XZ ENDP	; ScriptRegistrant<SUR_MiniGen>::~ScriptRegistrant<SUR_MiniGen>
_TEXT	ENDS
; Function compile flags: /Odtp /ZI
; File x:\github\renegade\dragonade_rxd\scripts\scripts.h
;	COMDAT ?Create@?$ScriptRegistrant@VSUR_MiniGen@@@@UAEPAVScriptImpClass@@XZ
_TEXT	SEGMENT
tv77 = -84						; size = 4
tv79 = -80						; size = 4
$T1 = -76						; size = 4
_script$ = -8						; size = 4
_this$ = -4						; size = 4
?Create@?$ScriptRegistrant@VSUR_MiniGen@@@@UAEPAVScriptImpClass@@XZ PROC ; ScriptRegistrant<SUR_MiniGen>::Create, COMDAT
; _this$ = ecx

; 552  : 	{

	push	ebp
	mov	ebp, esp
	sub	esp, 84					; 00000054H
	push	ebx
	push	esi
	push	edi
	mov	DWORD PTR _this$[ebp], ecx

; 553  : 		T* script = new T;

	push	OFFSET ??_C@_0CM@LLEDJECK@ScriptRegistrant?$DMclass?5SUR_MiniG@
	push	553					; 00000229H
	push	OFFSET ??_C@_0DD@KMKBFFOF@x?3?2github?2renegade?2dragonade_rxd@
	call	?SetThreadTrackingInformation@@YAXPBDI0@Z ; SetThreadTrackingInformation
	add	esp, 12					; 0000000cH
	xor	eax, eax
	je	SHORT $LN6@Create
	xor	ecx, ecx
	jne	SHORT $LN3@Create
	push	553					; 00000229H
	push	OFFSET ??_C@_1GG@OGNLNBPD@?$AAx?$AA?3?$AA?2?$AAg?$AAi?$AAt?$AAh?$AAu?$AAb?$AA?2?$AAr?$AAe?$AAn?$AAe?$AAg?$AAa?$AAd?$AAe?$AA?2?$AAd?$AAr?$AAa?$AAg?$AAo?$AAn?$AAa?$AAd?$AAe?$AA_?$AAr?$AAx?$AAd@
	push	OFFSET ??_C@_1M@HLGKFCJM@?$AAf?$AAa?$AAl?$AAs?$AAe?$AA?$AA@
	call	DWORD PTR __imp___wassert
	add	esp, 12					; 0000000cH
$LN3@Create:
	mov	DWORD PTR tv79[ebp], 0
	jmp	SHORT $LN7@Create
$LN6@Create:
	push	28					; 0000001cH
	call	??2@YAPAXI@Z				; operator new
	add	esp, 4
	mov	DWORD PTR $T1[ebp], eax
	cmp	DWORD PTR $T1[ebp], 0
	je	SHORT $LN4@Create
	mov	ecx, DWORD PTR $T1[ebp]
	call	??0SUR_MiniGen@@QAE@XZ
	mov	DWORD PTR tv77[ebp], eax
	jmp	SHORT $LN5@Create
$LN4@Create:
	mov	DWORD PTR tv77[ebp], 0
$LN5@Create:
	mov	eax, DWORD PTR tv77[ebp]
	mov	DWORD PTR tv79[ebp], eax
$LN7@Create:
	mov	ecx, DWORD PTR tv79[ebp]
	mov	DWORD PTR _script$[ebp], ecx

; 554  : 		script->SetFactory(this);

	mov	eax, DWORD PTR _this$[ebp]
	push	eax
	mov	ecx, DWORD PTR _script$[ebp]
	call	?SetFactory@ScriptImpClass@@QAEXPAVScriptFactory@@@Z ; ScriptImpClass::SetFactory

; 555  : 		script->Register_Auto_Save_Variables();

	mov	eax, DWORD PTR _script$[ebp]
	mov	edx, DWORD PTR [eax]
	mov	ecx, DWORD PTR _script$[ebp]
	mov	eax, DWORD PTR [edx+100]
	call	eax

; 556  : 		return script;

	mov	eax, DWORD PTR _script$[ebp]

; 557  : 	}

	pop	edi
	pop	esi
	pop	ebx
	mov	esp, ebp
	pop	ebp
	ret	0
?Create@?$ScriptRegistrant@VSUR_MiniGen@@@@UAEPAVScriptImpClass@@XZ ENDP ; ScriptRegistrant<SUR_MiniGen>::Create
_TEXT	ENDS
; Function compile flags: /Odtp /ZI
; File x:\github\renegade\dragonade_rxd\scripts\scripts.h
;	COMDAT ??0?$ScriptRegistrant@VSUR_MiniGen@@@@QAE@PBD0@Z
_TEXT	SEGMENT
_this$ = -4						; size = 4
_name$ = 8						; size = 4
_param$ = 12						; size = 4
??0?$ScriptRegistrant@VSUR_MiniGen@@@@QAE@PBD0@Z PROC	; ScriptRegistrant<SUR_MiniGen>::ScriptRegistrant<SUR_MiniGen>, COMDAT
; _this$ = ecx

; 549  : 	{

	push	ebp
	mov	ebp, esp
	sub	esp, 68					; 00000044H
	push	ebx
	push	esi
	push	edi
	mov	DWORD PTR _this$[ebp], ecx
	mov	eax, DWORD PTR _param$[ebp]
	push	eax
	mov	ecx, DWORD PTR _name$[ebp]
	push	ecx
	mov	ecx, DWORD PTR _this$[ebp]
	call	??0ScriptFactory@@IAE@PBD0@Z		; ScriptFactory::ScriptFactory
	mov	eax, DWORD PTR _this$[ebp]
	mov	DWORD PTR [eax], OFFSET ??_7?$ScriptRegistrant@VSUR_MiniGen@@@@6B@

; 550  : 	}

	mov	eax, DWORD PTR _this$[ebp]
	pop	edi
	pop	esi
	pop	ebx
	mov	esp, ebp
	pop	ebp
	ret	8
??0?$ScriptRegistrant@VSUR_MiniGen@@@@QAE@PBD0@Z ENDP	; ScriptRegistrant<SUR_MiniGen>::ScriptRegistrant<SUR_MiniGen>
_TEXT	ENDS
; Function compile flags: /Odtp /ZI
;	COMDAT ??__FSUR_Generator_Zone_Registrant@@YAXXZ
text$yd	SEGMENT
??__FSUR_Generator_Zone_Registrant@@YAXXZ PROC		; `dynamic atexit destructor for 'SUR_Generator_Zone_Registrant'', COMDAT
	push	ebp
	mov	ebp, esp
	sub	esp, 64					; 00000040H
	push	ebx
	push	esi
	push	edi
	mov	ecx, OFFSET ?SUR_Generator_Zone_Registrant@@3V?$ScriptRegistrant@VSUR_Generator_Zone@@@@A ; SUR_Generator_Zone_Registrant
	call	??1?$ScriptRegistrant@VSUR_Generator_Zone@@@@UAE@XZ
	pop	edi
	pop	esi
	pop	ebx
	mov	esp, ebp
	pop	ebp
	ret	0
??__FSUR_Generator_Zone_Registrant@@YAXXZ ENDP		; `dynamic atexit destructor for 'SUR_Generator_Zone_Registrant''
text$yd	ENDS
; Function compile flags: /Odtp /ZI
; File x:\github\renegade\dragonade_rxd\scripts\survival.cpp
;	COMDAT ??__ESUR_Generator_Zone_Registrant@@YAXXZ
text$yc	SEGMENT
??__ESUR_Generator_Zone_Registrant@@YAXXZ PROC		; `dynamic initializer for 'SUR_Generator_Zone_Registrant'', COMDAT

; 820  : ScriptRegistrant<SUR_Generator_Zone> SUR_Generator_Zone_Registrant("SUR_Generator_Zone","Time_Delay:float,Supply_Truck_Preset:string,Emitter_Pos:vector3,Emitter_Preset_Good:string,Emitter_Preset_Ok:string,Emitter_Preset_Bad:string,Build_D_One:int,Build_D_Two:int,Build_D_Three:int");

	push	ebp
	mov	ebp, esp
	sub	esp, 64					; 00000040H
	push	ebx
	push	esi
	push	edi
	push	OFFSET ??_C@_0MA@PHLCLBBJ@Time_Delay?3float?0Supply_Truck_Pr@
	push	OFFSET ??_C@_0BD@JMCCCHCE@SUR_Generator_Zone?$AA@
	mov	ecx, OFFSET ?SUR_Generator_Zone_Registrant@@3V?$ScriptRegistrant@VSUR_Generator_Zone@@@@A ; SUR_Generator_Zone_Registrant
	call	??0?$ScriptRegistrant@VSUR_Generator_Zone@@@@QAE@PBD0@Z ; ScriptRegistrant<SUR_Generator_Zone>::ScriptRegistrant<SUR_Generator_Zone>
	push	OFFSET ??__FSUR_Generator_Zone_Registrant@@YAXXZ ; `dynamic atexit destructor for 'SUR_Generator_Zone_Registrant''
	call	_atexit
	add	esp, 4
	pop	edi
	pop	esi
	pop	ebx
	mov	esp, ebp
	pop	ebp
	ret	0
??__ESUR_Generator_Zone_Registrant@@YAXXZ ENDP		; `dynamic initializer for 'SUR_Generator_Zone_Registrant''
text$yc	ENDS
; Function compile flags: /Odtp /ZI
;	COMDAT ??_G?$ScriptRegistrant@VSUR_Generator_Zone@@@@UAEPAXI@Z
_TEXT	SEGMENT
_this$ = -4						; size = 4
___flags$ = 8						; size = 4
??_G?$ScriptRegistrant@VSUR_Generator_Zone@@@@UAEPAXI@Z PROC ; ScriptRegistrant<SUR_Generator_Zone>::`scalar deleting destructor', COMDAT
; _this$ = ecx
	push	ebp
	mov	ebp, esp
	sub	esp, 68					; 00000044H
	push	ebx
	push	esi
	push	edi
	mov	DWORD PTR _this$[ebp], ecx
	mov	ecx, DWORD PTR _this$[ebp]
	call	??1?$ScriptRegistrant@VSUR_Generator_Zone@@@@UAE@XZ
	mov	eax, DWORD PTR ___flags$[ebp]
	and	eax, 1
	je	SHORT $LN1@scalar
	mov	eax, DWORD PTR _this$[ebp]
	push	eax
	call	??3@YAXPAX@Z				; operator delete
	add	esp, 4
$LN1@scalar:
	mov	eax, DWORD PTR _this$[ebp]
	pop	edi
	pop	esi
	pop	ebx
	mov	esp, ebp
	pop	ebp
	ret	4
??_G?$ScriptRegistrant@VSUR_Generator_Zone@@@@UAEPAXI@Z ENDP ; ScriptRegistrant<SUR_Generator_Zone>::`scalar deleting destructor'
_TEXT	ENDS
; Function compile flags: /Odtp /ZI
;	COMDAT ??1?$ScriptRegistrant@VSUR_Generator_Zone@@@@UAE@XZ
_TEXT	SEGMENT
_this$ = -4						; size = 4
??1?$ScriptRegistrant@VSUR_Generator_Zone@@@@UAE@XZ PROC ; ScriptRegistrant<SUR_Generator_Zone>::~ScriptRegistrant<SUR_Generator_Zone>, COMDAT
; _this$ = ecx
	push	ebp
	mov	ebp, esp
	sub	esp, 68					; 00000044H
	push	ebx
	push	esi
	push	edi
	mov	DWORD PTR _this$[ebp], ecx
	mov	ecx, DWORD PTR _this$[ebp]
	call	??1ScriptFactory@@UAE@XZ		; ScriptFactory::~ScriptFactory
	pop	edi
	pop	esi
	pop	ebx
	mov	esp, ebp
	pop	ebp
	ret	0
??1?$ScriptRegistrant@VSUR_Generator_Zone@@@@UAE@XZ ENDP ; ScriptRegistrant<SUR_Generator_Zone>::~ScriptRegistrant<SUR_Generator_Zone>
_TEXT	ENDS
; Function compile flags: /Odtp /ZI
; File x:\github\renegade\dragonade_rxd\scripts\scripts.h
;	COMDAT ?Create@?$ScriptRegistrant@VSUR_Generator_Zone@@@@UAEPAVScriptImpClass@@XZ
_TEXT	SEGMENT
tv77 = -84						; size = 4
tv79 = -80						; size = 4
$T1 = -76						; size = 4
_script$ = -8						; size = 4
_this$ = -4						; size = 4
?Create@?$ScriptRegistrant@VSUR_Generator_Zone@@@@UAEPAVScriptImpClass@@XZ PROC ; ScriptRegistrant<SUR_Generator_Zone>::Create, COMDAT
; _this$ = ecx

; 552  : 	{

	push	ebp
	mov	ebp, esp
	sub	esp, 84					; 00000054H
	push	ebx
	push	esi
	push	edi
	mov	DWORD PTR _this$[ebp], ecx

; 553  : 		T* script = new T;

	push	OFFSET ??_C@_0DD@IBJAKMHL@ScriptRegistrant?$DMclass?5SUR_Gener@
	push	553					; 00000229H
	push	OFFSET ??_C@_0DD@KMKBFFOF@x?3?2github?2renegade?2dragonade_rxd@
	call	?SetThreadTrackingInformation@@YAXPBDI0@Z ; SetThreadTrackingInformation
	add	esp, 12					; 0000000cH
	xor	eax, eax
	je	SHORT $LN6@Create
	xor	ecx, ecx
	jne	SHORT $LN3@Create
	push	553					; 00000229H
	push	OFFSET ??_C@_1GG@OGNLNBPD@?$AAx?$AA?3?$AA?2?$AAg?$AAi?$AAt?$AAh?$AAu?$AAb?$AA?2?$AAr?$AAe?$AAn?$AAe?$AAg?$AAa?$AAd?$AAe?$AA?2?$AAd?$AAr?$AAa?$AAg?$AAo?$AAn?$AAa?$AAd?$AAe?$AA_?$AAr?$AAx?$AAd@
	push	OFFSET ??_C@_1M@HLGKFCJM@?$AAf?$AAa?$AAl?$AAs?$AAe?$AA?$AA@
	call	DWORD PTR __imp___wassert
	add	esp, 12					; 0000000cH
$LN3@Create:
	mov	DWORD PTR tv79[ebp], 0
	jmp	SHORT $LN7@Create
$LN6@Create:
	push	36					; 00000024H
	call	??2@YAPAXI@Z				; operator new
	add	esp, 4
	mov	DWORD PTR $T1[ebp], eax
	cmp	DWORD PTR $T1[ebp], 0
	je	SHORT $LN4@Create
	mov	ecx, DWORD PTR $T1[ebp]
	call	??0SUR_Generator_Zone@@QAE@XZ
	mov	DWORD PTR tv77[ebp], eax
	jmp	SHORT $LN5@Create
$LN4@Create:
	mov	DWORD PTR tv77[ebp], 0
$LN5@Create:
	mov	eax, DWORD PTR tv77[ebp]
	mov	DWORD PTR tv79[ebp], eax
$LN7@Create:
	mov	ecx, DWORD PTR tv79[ebp]
	mov	DWORD PTR _script$[ebp], ecx

; 554  : 		script->SetFactory(this);

	mov	eax, DWORD PTR _this$[ebp]
	push	eax
	mov	ecx, DWORD PTR _script$[ebp]
	call	?SetFactory@ScriptImpClass@@QAEXPAVScriptFactory@@@Z ; ScriptImpClass::SetFactory

; 555  : 		script->Register_Auto_Save_Variables();

	mov	eax, DWORD PTR _script$[ebp]
	mov	edx, DWORD PTR [eax]
	mov	ecx, DWORD PTR _script$[ebp]
	mov	eax, DWORD PTR [edx+100]
	call	eax

; 556  : 		return script;

	mov	eax, DWORD PTR _script$[ebp]

; 557  : 	}

	pop	edi
	pop	esi
	pop	ebx
	mov	esp, ebp
	pop	ebp
	ret	0
?Create@?$ScriptRegistrant@VSUR_Generator_Zone@@@@UAEPAVScriptImpClass@@XZ ENDP ; ScriptRegistrant<SUR_Generator_Zone>::Create
_TEXT	ENDS
; Function compile flags: /Odtp /ZI
; File x:\github\renegade\dragonade_rxd\scripts\scripts.h
;	COMDAT ??0?$ScriptRegistrant@VSUR_Generator_Zone@@@@QAE@PBD0@Z
_TEXT	SEGMENT
_this$ = -4						; size = 4
_name$ = 8						; size = 4
_param$ = 12						; size = 4
??0?$ScriptRegistrant@VSUR_Generator_Zone@@@@QAE@PBD0@Z PROC ; ScriptRegistrant<SUR_Generator_Zone>::ScriptRegistrant<SUR_Generator_Zone>, COMDAT
; _this$ = ecx

; 549  : 	{

	push	ebp
	mov	ebp, esp
	sub	esp, 68					; 00000044H
	push	ebx
	push	esi
	push	edi
	mov	DWORD PTR _this$[ebp], ecx
	mov	eax, DWORD PTR _param$[ebp]
	push	eax
	mov	ecx, DWORD PTR _name$[ebp]
	push	ecx
	mov	ecx, DWORD PTR _this$[ebp]
	call	??0ScriptFactory@@IAE@PBD0@Z		; ScriptFactory::ScriptFactory
	mov	eax, DWORD PTR _this$[ebp]
	mov	DWORD PTR [eax], OFFSET ??_7?$ScriptRegistrant@VSUR_Generator_Zone@@@@6B@

; 550  : 	}

	mov	eax, DWORD PTR _this$[ebp]
	pop	edi
	pop	esi
	pop	ebx
	mov	esp, ebp
	pop	ebp
	ret	8
??0?$ScriptRegistrant@VSUR_Generator_Zone@@@@QAE@PBD0@Z ENDP ; ScriptRegistrant<SUR_Generator_Zone>::ScriptRegistrant<SUR_Generator_Zone>
_TEXT	ENDS
; Function compile flags: /Odtp /ZI
;	COMDAT ??__FSUR_Spawn_Delay_Registrant@@YAXXZ
text$yd	SEGMENT
??__FSUR_Spawn_Delay_Registrant@@YAXXZ PROC		; `dynamic atexit destructor for 'SUR_Spawn_Delay_Registrant'', COMDAT
	push	ebp
	mov	ebp, esp
	sub	esp, 64					; 00000040H
	push	ebx
	push	esi
	push	edi
	mov	ecx, OFFSET ?SUR_Spawn_Delay_Registrant@@3V?$ScriptRegistrant@VSUR_Spawn_Delay@@@@A ; SUR_Spawn_Delay_Registrant
	call	??1?$ScriptRegistrant@VSUR_Spawn_Delay@@@@UAE@XZ
	pop	edi
	pop	esi
	pop	ebx
	mov	esp, ebp
	pop	ebp
	ret	0
??__FSUR_Spawn_Delay_Registrant@@YAXXZ ENDP		; `dynamic atexit destructor for 'SUR_Spawn_Delay_Registrant''
text$yd	ENDS
; Function compile flags: /Odtp /ZI
; File x:\github\renegade\dragonade_rxd\scripts\survival.cpp
;	COMDAT ??__ESUR_Spawn_Delay_Registrant@@YAXXZ
text$yc	SEGMENT
??__ESUR_Spawn_Delay_Registrant@@YAXXZ PROC		; `dynamic initializer for 'SUR_Spawn_Delay_Registrant'', COMDAT

; 819  : ScriptRegistrant<SUR_Spawn_Delay> SUR_Spawn_Delay_Registrant("SUR_Spawn_Delay","Spawn_Delay:float,Spawn_Pos:vector3,Spawn_Obj:string,Spawn_Path:int,Do_Path:int");

	push	ebp
	mov	ebp, esp
	sub	esp, 64					; 00000040H
	push	ebx
	push	esi
	push	edi
	push	OFFSET ??_C@_0FA@DHAIDPHO@Spawn_Delay?3float?0Spawn_Pos?3vect@
	push	OFFSET ??_C@_0BA@KLILNECP@SUR_Spawn_Delay?$AA@
	mov	ecx, OFFSET ?SUR_Spawn_Delay_Registrant@@3V?$ScriptRegistrant@VSUR_Spawn_Delay@@@@A ; SUR_Spawn_Delay_Registrant
	call	??0?$ScriptRegistrant@VSUR_Spawn_Delay@@@@QAE@PBD0@Z ; ScriptRegistrant<SUR_Spawn_Delay>::ScriptRegistrant<SUR_Spawn_Delay>
	push	OFFSET ??__FSUR_Spawn_Delay_Registrant@@YAXXZ ; `dynamic atexit destructor for 'SUR_Spawn_Delay_Registrant''
	call	_atexit
	add	esp, 4
	pop	edi
	pop	esi
	pop	ebx
	mov	esp, ebp
	pop	ebp
	ret	0
??__ESUR_Spawn_Delay_Registrant@@YAXXZ ENDP		; `dynamic initializer for 'SUR_Spawn_Delay_Registrant''
text$yc	ENDS
; Function compile flags: /Odtp /ZI
;	COMDAT ??_G?$ScriptRegistrant@VSUR_Spawn_Delay@@@@UAEPAXI@Z
_TEXT	SEGMENT
_this$ = -4						; size = 4
___flags$ = 8						; size = 4
??_G?$ScriptRegistrant@VSUR_Spawn_Delay@@@@UAEPAXI@Z PROC ; ScriptRegistrant<SUR_Spawn_Delay>::`scalar deleting destructor', COMDAT
; _this$ = ecx
	push	ebp
	mov	ebp, esp
	sub	esp, 68					; 00000044H
	push	ebx
	push	esi
	push	edi
	mov	DWORD PTR _this$[ebp], ecx
	mov	ecx, DWORD PTR _this$[ebp]
	call	??1?$ScriptRegistrant@VSUR_Spawn_Delay@@@@UAE@XZ
	mov	eax, DWORD PTR ___flags$[ebp]
	and	eax, 1
	je	SHORT $LN1@scalar
	mov	eax, DWORD PTR _this$[ebp]
	push	eax
	call	??3@YAXPAX@Z				; operator delete
	add	esp, 4
$LN1@scalar:
	mov	eax, DWORD PTR _this$[ebp]
	pop	edi
	pop	esi
	pop	ebx
	mov	esp, ebp
	pop	ebp
	ret	4
??_G?$ScriptRegistrant@VSUR_Spawn_Delay@@@@UAEPAXI@Z ENDP ; ScriptRegistrant<SUR_Spawn_Delay>::`scalar deleting destructor'
_TEXT	ENDS
; Function compile flags: /Odtp /ZI
;	COMDAT ??1?$ScriptRegistrant@VSUR_Spawn_Delay@@@@UAE@XZ
_TEXT	SEGMENT
_this$ = -4						; size = 4
??1?$ScriptRegistrant@VSUR_Spawn_Delay@@@@UAE@XZ PROC	; ScriptRegistrant<SUR_Spawn_Delay>::~ScriptRegistrant<SUR_Spawn_Delay>, COMDAT
; _this$ = ecx
	push	ebp
	mov	ebp, esp
	sub	esp, 68					; 00000044H
	push	ebx
	push	esi
	push	edi
	mov	DWORD PTR _this$[ebp], ecx
	mov	ecx, DWORD PTR _this$[ebp]
	call	??1ScriptFactory@@UAE@XZ		; ScriptFactory::~ScriptFactory
	pop	edi
	pop	esi
	pop	ebx
	mov	esp, ebp
	pop	ebp
	ret	0
??1?$ScriptRegistrant@VSUR_Spawn_Delay@@@@UAE@XZ ENDP	; ScriptRegistrant<SUR_Spawn_Delay>::~ScriptRegistrant<SUR_Spawn_Delay>
_TEXT	ENDS
; Function compile flags: /Odtp /ZI
; File x:\github\renegade\dragonade_rxd\scripts\scripts.h
;	COMDAT ?Create@?$ScriptRegistrant@VSUR_Spawn_Delay@@@@UAEPAVScriptImpClass@@XZ
_TEXT	SEGMENT
tv77 = -84						; size = 4
tv79 = -80						; size = 4
$T1 = -76						; size = 4
_script$ = -8						; size = 4
_this$ = -4						; size = 4
?Create@?$ScriptRegistrant@VSUR_Spawn_Delay@@@@UAEPAVScriptImpClass@@XZ PROC ; ScriptRegistrant<SUR_Spawn_Delay>::Create, COMDAT
; _this$ = ecx

; 552  : 	{

	push	ebp
	mov	ebp, esp
	sub	esp, 84					; 00000054H
	push	ebx
	push	esi
	push	edi
	mov	DWORD PTR _this$[ebp], ecx

; 553  : 		T* script = new T;

	push	OFFSET ??_C@_0DA@GODKEOJD@ScriptRegistrant?$DMclass?5SUR_Spawn@
	push	553					; 00000229H
	push	OFFSET ??_C@_0DD@KMKBFFOF@x?3?2github?2renegade?2dragonade_rxd@
	call	?SetThreadTrackingInformation@@YAXPBDI0@Z ; SetThreadTrackingInformation
	add	esp, 12					; 0000000cH
	xor	eax, eax
	je	SHORT $LN6@Create
	xor	ecx, ecx
	jne	SHORT $LN3@Create
	push	553					; 00000229H
	push	OFFSET ??_C@_1GG@OGNLNBPD@?$AAx?$AA?3?$AA?2?$AAg?$AAi?$AAt?$AAh?$AAu?$AAb?$AA?2?$AAr?$AAe?$AAn?$AAe?$AAg?$AAa?$AAd?$AAe?$AA?2?$AAd?$AAr?$AAa?$AAg?$AAo?$AAn?$AAa?$AAd?$AAe?$AA_?$AAr?$AAx?$AAd@
	push	OFFSET ??_C@_1M@HLGKFCJM@?$AAf?$AAa?$AAl?$AAs?$AAe?$AA?$AA@
	call	DWORD PTR __imp___wassert
	add	esp, 12					; 0000000cH
$LN3@Create:
	mov	DWORD PTR tv79[ebp], 0
	jmp	SHORT $LN7@Create
$LN6@Create:
	push	28					; 0000001cH
	call	??2@YAPAXI@Z				; operator new
	add	esp, 4
	mov	DWORD PTR $T1[ebp], eax
	cmp	DWORD PTR $T1[ebp], 0
	je	SHORT $LN4@Create
	mov	ecx, DWORD PTR $T1[ebp]
	call	??0SUR_Spawn_Delay@@QAE@XZ
	mov	DWORD PTR tv77[ebp], eax
	jmp	SHORT $LN5@Create
$LN4@Create:
	mov	DWORD PTR tv77[ebp], 0
$LN5@Create:
	mov	eax, DWORD PTR tv77[ebp]
	mov	DWORD PTR tv79[ebp], eax
$LN7@Create:
	mov	ecx, DWORD PTR tv79[ebp]
	mov	DWORD PTR _script$[ebp], ecx

; 554  : 		script->SetFactory(this);

	mov	eax, DWORD PTR _this$[ebp]
	push	eax
	mov	ecx, DWORD PTR _script$[ebp]
	call	?SetFactory@ScriptImpClass@@QAEXPAVScriptFactory@@@Z ; ScriptImpClass::SetFactory

; 555  : 		script->Register_Auto_Save_Variables();

	mov	eax, DWORD PTR _script$[ebp]
	mov	edx, DWORD PTR [eax]
	mov	ecx, DWORD PTR _script$[ebp]
	mov	eax, DWORD PTR [edx+100]
	call	eax

; 556  : 		return script;

	mov	eax, DWORD PTR _script$[ebp]

; 557  : 	}

	pop	edi
	pop	esi
	pop	ebx
	mov	esp, ebp
	pop	ebp
	ret	0
?Create@?$ScriptRegistrant@VSUR_Spawn_Delay@@@@UAEPAVScriptImpClass@@XZ ENDP ; ScriptRegistrant<SUR_Spawn_Delay>::Create
_TEXT	ENDS
; Function compile flags: /Odtp /ZI
; File x:\github\renegade\dragonade_rxd\scripts\scripts.h
;	COMDAT ??0?$ScriptRegistrant@VSUR_Spawn_Delay@@@@QAE@PBD0@Z
_TEXT	SEGMENT
_this$ = -4						; size = 4
_name$ = 8						; size = 4
_param$ = 12						; size = 4
??0?$ScriptRegistrant@VSUR_Spawn_Delay@@@@QAE@PBD0@Z PROC ; ScriptRegistrant<SUR_Spawn_Delay>::ScriptRegistrant<SUR_Spawn_Delay>, COMDAT
; _this$ = ecx

; 549  : 	{

	push	ebp
	mov	ebp, esp
	sub	esp, 68					; 00000044H
	push	ebx
	push	esi
	push	edi
	mov	DWORD PTR _this$[ebp], ecx
	mov	eax, DWORD PTR _param$[ebp]
	push	eax
	mov	ecx, DWORD PTR _name$[ebp]
	push	ecx
	mov	ecx, DWORD PTR _this$[ebp]
	call	??0ScriptFactory@@IAE@PBD0@Z		; ScriptFactory::ScriptFactory
	mov	eax, DWORD PTR _this$[ebp]
	mov	DWORD PTR [eax], OFFSET ??_7?$ScriptRegistrant@VSUR_Spawn_Delay@@@@6B@

; 550  : 	}

	mov	eax, DWORD PTR _this$[ebp]
	pop	edi
	pop	esi
	pop	ebx
	mov	esp, ebp
	pop	ebp
	ret	8
??0?$ScriptRegistrant@VSUR_Spawn_Delay@@@@QAE@PBD0@Z ENDP ; ScriptRegistrant<SUR_Spawn_Delay>::ScriptRegistrant<SUR_Spawn_Delay>
_TEXT	ENDS
; Function compile flags: /Odtp /ZI
;	COMDAT ??_GSUR_GrantPowerup_OnEntry@@UAEPAXI@Z
_TEXT	SEGMENT
_this$ = -4						; size = 4
___flags$ = 8						; size = 4
??_GSUR_GrantPowerup_OnEntry@@UAEPAXI@Z PROC		; SUR_GrantPowerup_OnEntry::`scalar deleting destructor', COMDAT
; _this$ = ecx
	push	ebp
	mov	ebp, esp
	sub	esp, 68					; 00000044H
	push	ebx
	push	esi
	push	edi
	mov	DWORD PTR _this$[ebp], ecx
	mov	ecx, DWORD PTR _this$[ebp]
	call	??1SUR_GrantPowerup_OnEntry@@UAE@XZ
	mov	eax, DWORD PTR ___flags$[ebp]
	and	eax, 1
	je	SHORT $LN1@scalar
	mov	eax, DWORD PTR _this$[ebp]
	push	eax
	call	??3@YAXPAX@Z				; operator delete
	add	esp, 4
$LN1@scalar:
	mov	eax, DWORD PTR _this$[ebp]
	pop	edi
	pop	esi
	pop	ebx
	mov	esp, ebp
	pop	ebp
	ret	4
??_GSUR_GrantPowerup_OnEntry@@UAEPAXI@Z ENDP		; SUR_GrantPowerup_OnEntry::`scalar deleting destructor'
_TEXT	ENDS
; Function compile flags: /Odtp /ZI
;	COMDAT ??1SUR_GrantPowerup_OnEntry@@UAE@XZ
_TEXT	SEGMENT
_this$ = -4						; size = 4
??1SUR_GrantPowerup_OnEntry@@UAE@XZ PROC		; SUR_GrantPowerup_OnEntry::~SUR_GrantPowerup_OnEntry, COMDAT
; _this$ = ecx
	push	ebp
	mov	ebp, esp
	sub	esp, 68					; 00000044H
	push	ebx
	push	esi
	push	edi
	mov	DWORD PTR _this$[ebp], ecx
	mov	ecx, DWORD PTR _this$[ebp]
	call	??1ScriptImpClass@@UAE@XZ		; ScriptImpClass::~ScriptImpClass
	pop	edi
	pop	esi
	pop	ebx
	mov	esp, ebp
	pop	ebp
	ret	0
??1SUR_GrantPowerup_OnEntry@@UAE@XZ ENDP		; SUR_GrantPowerup_OnEntry::~SUR_GrantPowerup_OnEntry
_TEXT	ENDS
; Function compile flags: /Odtp /ZI
;	COMDAT ??0SUR_GrantPowerup_OnEntry@@QAE@XZ
_TEXT	SEGMENT
_this$ = -4						; size = 4
??0SUR_GrantPowerup_OnEntry@@QAE@XZ PROC		; SUR_GrantPowerup_OnEntry::SUR_GrantPowerup_OnEntry, COMDAT
; _this$ = ecx
	push	ebp
	mov	ebp, esp
	sub	esp, 68					; 00000044H
	push	ebx
	push	esi
	push	edi
	mov	DWORD PTR _this$[ebp], ecx
	mov	ecx, DWORD PTR _this$[ebp]
	call	??0ScriptImpClass@@QAE@XZ		; ScriptImpClass::ScriptImpClass
	mov	eax, DWORD PTR _this$[ebp]
	mov	DWORD PTR [eax], OFFSET ??_7SUR_GrantPowerup_OnEntry@@6B@
	mov	eax, DWORD PTR _this$[ebp]
	pop	edi
	pop	esi
	pop	ebx
	mov	esp, ebp
	pop	ebp
	ret	0
??0SUR_GrantPowerup_OnEntry@@QAE@XZ ENDP		; SUR_GrantPowerup_OnEntry::SUR_GrantPowerup_OnEntry
_TEXT	ENDS
; Function compile flags: /Odtp /ZI
; File x:\github\renegade\dragonade_rxd\scripts\survival.cpp
;	COMDAT ?Entered@SUR_GrantPowerup_OnEntry@@EAEXPAVScriptableGameObj@@0@Z
_TEXT	SEGMENT
_this$ = -4						; size = 4
_obj$ = 8						; size = 4
_enterer$ = 12						; size = 4
?Entered@SUR_GrantPowerup_OnEntry@@EAEXPAVScriptableGameObj@@0@Z PROC ; SUR_GrantPowerup_OnEntry::Entered, COMDAT
; _this$ = ecx

; 812  : {

	push	ebp
	mov	ebp, esp
	sub	esp, 68					; 00000044H
	push	ebx
	push	esi
	push	edi
	mov	DWORD PTR _this$[ebp], ecx

; 813  : 	if ((!_stricmp(Commands->Get_Preset_Name(enterer),Get_Parameter("Preset"))) || (!_stricmp(Get_Parameter("Preset"),"Any")))

	push	OFFSET ??_C@_06CKLLCHIK@Preset?$AA@
	mov	ecx, DWORD PTR _this$[ebp]
	call	?Get_Parameter@ScriptImpClass@@QAEPBDPBD@Z ; ScriptImpClass::Get_Parameter
	push	eax
	mov	eax, DWORD PTR _enterer$[ebp]
	push	eax
	mov	ecx, DWORD PTR ?Commands@@3PAUScriptCommands@@A ; Commands
	mov	edx, DWORD PTR [ecx+116]
	call	edx
	add	esp, 4
	push	eax
	call	DWORD PTR __imp___stricmp
	add	esp, 8
	test	eax, eax
	je	SHORT $LN1@Entered
	push	OFFSET ??_C@_03EBKHDLCO@Any?$AA@
	push	OFFSET ??_C@_06CKLLCHIK@Preset?$AA@
	mov	ecx, DWORD PTR _this$[ebp]
	call	?Get_Parameter@ScriptImpClass@@QAEPBDPBD@Z ; ScriptImpClass::Get_Parameter
	push	eax
	call	DWORD PTR __imp___stricmp
	add	esp, 8
	test	eax, eax
	jne	SHORT $LN3@Entered
$LN1@Entered:

; 814  : 	{
; 815  : 		Commands->Give_PowerUp(enterer,Get_Parameter("Powerup"),true);

	push	1
	push	OFFSET ??_C@_07EJMDJBEC@Powerup?$AA@
	mov	ecx, DWORD PTR _this$[ebp]
	call	?Get_Parameter@ScriptImpClass@@QAEPBDPBD@Z ; ScriptImpClass::Get_Parameter
	push	eax
	mov	eax, DWORD PTR _enterer$[ebp]
	push	eax
	mov	ecx, DWORD PTR ?Commands@@3PAUScriptCommands@@A ; Commands
	mov	edx, DWORD PTR [ecx+432]
	call	edx
	add	esp, 12					; 0000000cH
$LN3@Entered:

; 816  : 	}
; 817  : }

	pop	edi
	pop	esi
	pop	ebx
	mov	esp, ebp
	pop	ebp
	ret	8
?Entered@SUR_GrantPowerup_OnEntry@@EAEXPAVScriptableGameObj@@0@Z ENDP ; SUR_GrantPowerup_OnEntry::Entered
_TEXT	ENDS
; Function compile flags: /Odtp /ZI
;	COMDAT ??_GSUR_Timed_Death@@UAEPAXI@Z
_TEXT	SEGMENT
_this$ = -4						; size = 4
___flags$ = 8						; size = 4
??_GSUR_Timed_Death@@UAEPAXI@Z PROC			; SUR_Timed_Death::`scalar deleting destructor', COMDAT
; _this$ = ecx
	push	ebp
	mov	ebp, esp
	sub	esp, 68					; 00000044H
	push	ebx
	push	esi
	push	edi
	mov	DWORD PTR _this$[ebp], ecx
	mov	ecx, DWORD PTR _this$[ebp]
	call	??1SUR_Timed_Death@@UAE@XZ
	mov	eax, DWORD PTR ___flags$[ebp]
	and	eax, 1
	je	SHORT $LN1@scalar
	mov	eax, DWORD PTR _this$[ebp]
	push	eax
	call	??3@YAXPAX@Z				; operator delete
	add	esp, 4
$LN1@scalar:
	mov	eax, DWORD PTR _this$[ebp]
	pop	edi
	pop	esi
	pop	ebx
	mov	esp, ebp
	pop	ebp
	ret	4
??_GSUR_Timed_Death@@UAEPAXI@Z ENDP			; SUR_Timed_Death::`scalar deleting destructor'
_TEXT	ENDS
; Function compile flags: /Odtp /ZI
;	COMDAT ??1SUR_Timed_Death@@UAE@XZ
_TEXT	SEGMENT
_this$ = -4						; size = 4
??1SUR_Timed_Death@@UAE@XZ PROC				; SUR_Timed_Death::~SUR_Timed_Death, COMDAT
; _this$ = ecx
	push	ebp
	mov	ebp, esp
	sub	esp, 68					; 00000044H
	push	ebx
	push	esi
	push	edi
	mov	DWORD PTR _this$[ebp], ecx
	mov	ecx, DWORD PTR _this$[ebp]
	call	??1ScriptImpClass@@UAE@XZ		; ScriptImpClass::~ScriptImpClass
	pop	edi
	pop	esi
	pop	ebx
	mov	esp, ebp
	pop	ebp
	ret	0
??1SUR_Timed_Death@@UAE@XZ ENDP				; SUR_Timed_Death::~SUR_Timed_Death
_TEXT	ENDS
; Function compile flags: /Odtp /ZI
;	COMDAT ??0SUR_Timed_Death@@QAE@XZ
_TEXT	SEGMENT
_this$ = -4						; size = 4
??0SUR_Timed_Death@@QAE@XZ PROC				; SUR_Timed_Death::SUR_Timed_Death, COMDAT
; _this$ = ecx
	push	ebp
	mov	ebp, esp
	sub	esp, 68					; 00000044H
	push	ebx
	push	esi
	push	edi
	mov	DWORD PTR _this$[ebp], ecx
	mov	ecx, DWORD PTR _this$[ebp]
	call	??0ScriptImpClass@@QAE@XZ		; ScriptImpClass::ScriptImpClass
	mov	eax, DWORD PTR _this$[ebp]
	mov	DWORD PTR [eax], OFFSET ??_7SUR_Timed_Death@@6B@
	mov	eax, DWORD PTR _this$[ebp]
	pop	edi
	pop	esi
	pop	ebx
	mov	esp, ebp
	pop	ebp
	ret	0
??0SUR_Timed_Death@@QAE@XZ ENDP				; SUR_Timed_Death::SUR_Timed_Death
_TEXT	ENDS
; Function compile flags: /Odtp /ZI
; File x:\github\renegade\dragonade_rxd\scripts\survival.cpp
;	COMDAT ?Timer_Expired@SUR_Timed_Death@@EAEXPAVScriptableGameObj@@H@Z
_TEXT	SEGMENT
_this$ = -4						; size = 4
_obj$ = 8						; size = 4
_number$ = 12						; size = 4
?Timer_Expired@SUR_Timed_Death@@EAEXPAVScriptableGameObj@@H@Z PROC ; SUR_Timed_Death::Timer_Expired, COMDAT
; _this$ = ecx

; 807  : {

	push	ebp
	mov	ebp, esp
	sub	esp, 68					; 00000044H
	push	ebx
	push	esi
	push	edi
	mov	DWORD PTR _this$[ebp], ecx

; 808  : 	Commands->Apply_Damage(obj,Get_Float_Parameter("Damage_Amount"),Get_Parameter("Damage_Type"),0);

	push	0
	push	OFFSET ??_C@_0M@CALDOHKN@Damage_Type?$AA@
	mov	ecx, DWORD PTR _this$[ebp]
	call	?Get_Parameter@ScriptImpClass@@QAEPBDPBD@Z ; ScriptImpClass::Get_Parameter
	push	eax
	push	OFFSET ??_C@_0O@DDNFGLDM@Damage_Amount?$AA@
	mov	ecx, DWORD PTR _this$[ebp]
	call	?Get_Float_Parameter@ScriptImpClass@@QAEMPBD@Z ; ScriptImpClass::Get_Float_Parameter
	push	ecx
	fstp	DWORD PTR [esp]
	mov	eax, DWORD PTR _obj$[ebp]
	push	eax
	mov	ecx, DWORD PTR ?Commands@@3PAUScriptCommands@@A ; Commands
	mov	edx, DWORD PTR [ecx+616]
	call	edx
	add	esp, 16					; 00000010H

; 809  : }

	pop	edi
	pop	esi
	pop	ebx
	mov	esp, ebp
	pop	ebp
	ret	8
?Timer_Expired@SUR_Timed_Death@@EAEXPAVScriptableGameObj@@H@Z ENDP ; SUR_Timed_Death::Timer_Expired
_TEXT	ENDS
; Function compile flags: /Odtp /ZI
; File x:\github\renegade\dragonade_rxd\scripts\survival.cpp
;	COMDAT ?Created@SUR_Timed_Death@@EAEXPAVScriptableGameObj@@@Z
_TEXT	SEGMENT
_this$ = -4						; size = 4
_obj$ = 8						; size = 4
?Created@SUR_Timed_Death@@EAEXPAVScriptableGameObj@@@Z PROC ; SUR_Timed_Death::Created, COMDAT
; _this$ = ecx

; 802  : {

	push	ebp
	mov	ebp, esp
	sub	esp, 68					; 00000044H
	push	ebx
	push	esi
	push	edi
	mov	DWORD PTR _this$[ebp], ecx

; 803  : 	Commands->Start_Timer(obj,this,Get_Float_Parameter("Delay"),1);

	push	1
	push	OFFSET ??_C@_05ENDOMFAI@Delay?$AA@
	mov	ecx, DWORD PTR _this$[ebp]
	call	?Get_Float_Parameter@ScriptImpClass@@QAEMPBD@Z ; ScriptImpClass::Get_Float_Parameter
	push	ecx
	fstp	DWORD PTR [esp]
	mov	eax, DWORD PTR _this$[ebp]
	push	eax
	mov	ecx, DWORD PTR _obj$[ebp]
	push	ecx
	mov	edx, DWORD PTR ?Commands@@3PAUScriptCommands@@A ; Commands
	mov	eax, DWORD PTR [edx+128]
	call	eax
	add	esp, 16					; 00000010H

; 804  : }

	pop	edi
	pop	esi
	pop	ebx
	mov	esp, ebp
	pop	ebp
	ret	4
?Created@SUR_Timed_Death@@EAEXPAVScriptableGameObj@@@Z ENDP ; SUR_Timed_Death::Created
_TEXT	ENDS
; Function compile flags: /Odtp /ZI
;	COMDAT ??_GSUR_Dep_Turret@@UAEPAXI@Z
_TEXT	SEGMENT
_this$ = -4						; size = 4
___flags$ = 8						; size = 4
??_GSUR_Dep_Turret@@UAEPAXI@Z PROC			; SUR_Dep_Turret::`scalar deleting destructor', COMDAT
; _this$ = ecx
	push	ebp
	mov	ebp, esp
	sub	esp, 68					; 00000044H
	push	ebx
	push	esi
	push	edi
	mov	DWORD PTR _this$[ebp], ecx
	mov	ecx, DWORD PTR _this$[ebp]
	call	??1SUR_Dep_Turret@@UAE@XZ
	mov	eax, DWORD PTR ___flags$[ebp]
	and	eax, 1
	je	SHORT $LN1@scalar
	mov	eax, DWORD PTR _this$[ebp]
	push	eax
	call	??3@YAXPAX@Z				; operator delete
	add	esp, 4
$LN1@scalar:
	mov	eax, DWORD PTR _this$[ebp]
	pop	edi
	pop	esi
	pop	ebx
	mov	esp, ebp
	pop	ebp
	ret	4
??_GSUR_Dep_Turret@@UAEPAXI@Z ENDP			; SUR_Dep_Turret::`scalar deleting destructor'
_TEXT	ENDS
; Function compile flags: /Odtp /ZI
;	COMDAT ??1SUR_Dep_Turret@@UAE@XZ
_TEXT	SEGMENT
_this$ = -4						; size = 4
??1SUR_Dep_Turret@@UAE@XZ PROC				; SUR_Dep_Turret::~SUR_Dep_Turret, COMDAT
; _this$ = ecx
	push	ebp
	mov	ebp, esp
	sub	esp, 68					; 00000044H
	push	ebx
	push	esi
	push	edi
	mov	DWORD PTR _this$[ebp], ecx
	mov	ecx, DWORD PTR _this$[ebp]
	call	??1ScriptImpClass@@UAE@XZ		; ScriptImpClass::~ScriptImpClass
	pop	edi
	pop	esi
	pop	ebx
	mov	esp, ebp
	pop	ebp
	ret	0
??1SUR_Dep_Turret@@UAE@XZ ENDP				; SUR_Dep_Turret::~SUR_Dep_Turret
_TEXT	ENDS
; Function compile flags: /Odtp /ZI
;	COMDAT ??0SUR_Dep_Turret@@QAE@XZ
_TEXT	SEGMENT
_this$ = -4						; size = 4
??0SUR_Dep_Turret@@QAE@XZ PROC				; SUR_Dep_Turret::SUR_Dep_Turret, COMDAT
; _this$ = ecx
	push	ebp
	mov	ebp, esp
	sub	esp, 68					; 00000044H
	push	ebx
	push	esi
	push	edi
	mov	DWORD PTR _this$[ebp], ecx
	mov	ecx, DWORD PTR _this$[ebp]
	call	??0ScriptImpClass@@QAE@XZ		; ScriptImpClass::ScriptImpClass
	mov	eax, DWORD PTR _this$[ebp]
	mov	DWORD PTR [eax], OFFSET ??_7SUR_Dep_Turret@@6B@
	mov	eax, DWORD PTR _this$[ebp]
	pop	edi
	pop	esi
	pop	ebx
	mov	esp, ebp
	pop	ebp
	ret	0
??0SUR_Dep_Turret@@QAE@XZ ENDP				; SUR_Dep_Turret::SUR_Dep_Turret
_TEXT	ENDS
; Function compile flags: /Odtp /ZI
; File x:\github\renegade\dragonade_rxd\scripts\survival.cpp
;	COMDAT ?Register_Auto_Save_Variables@SUR_Dep_Turret@@UAEXXZ
_TEXT	SEGMENT
_this$ = -4						; size = 4
?Register_Auto_Save_Variables@SUR_Dep_Turret@@UAEXXZ PROC ; SUR_Dep_Turret::Register_Auto_Save_Variables, COMDAT
; _this$ = ecx

; 794  : {

	push	ebp
	mov	ebp, esp
	sub	esp, 68					; 00000044H
	push	ebx
	push	esi
	push	edi
	mov	DWORD PTR _this$[ebp], ecx

; 795  : 	Auto_Save_Variable(&id1,4,1);

	push	1
	push	4
	mov	eax, DWORD PTR _this$[ebp]
	add	eax, 28					; 0000001cH
	push	eax
	mov	ecx, DWORD PTR _this$[ebp]
	call	?Auto_Save_Variable@ScriptImpClass@@QAEXPAXHH@Z ; ScriptImpClass::Auto_Save_Variable

; 796  : 	Auto_Save_Variable(&id2,4,2);

	push	2
	push	4
	mov	eax, DWORD PTR _this$[ebp]
	add	eax, 32					; 00000020H
	push	eax
	mov	ecx, DWORD PTR _this$[ebp]
	call	?Auto_Save_Variable@ScriptImpClass@@QAEXPAXHH@Z ; ScriptImpClass::Auto_Save_Variable

; 797  : 	Auto_Save_Variable(&id3,4,3);

	push	3
	push	4
	mov	eax, DWORD PTR _this$[ebp]
	add	eax, 36					; 00000024H
	push	eax
	mov	ecx, DWORD PTR _this$[ebp]
	call	?Auto_Save_Variable@ScriptImpClass@@QAEXPAXHH@Z ; ScriptImpClass::Auto_Save_Variable

; 798  : 	Auto_Save_Variable(&objtype,4,4);

	push	4
	push	4
	mov	eax, DWORD PTR _this$[ebp]
	add	eax, 40					; 00000028H
	push	eax
	mov	ecx, DWORD PTR _this$[ebp]
	call	?Auto_Save_Variable@ScriptImpClass@@QAEXPAXHH@Z ; ScriptImpClass::Auto_Save_Variable

; 799  : }

	pop	edi
	pop	esi
	pop	ebx
	mov	esp, ebp
	pop	ebp
	ret	0
?Register_Auto_Save_Variables@SUR_Dep_Turret@@UAEXXZ ENDP ; SUR_Dep_Turret::Register_Auto_Save_Variables
_TEXT	ENDS
; Function compile flags: /Odtp /ZI
; File x:\github\renegade\dragonade_rxd\scripts\survival.cpp
;	COMDAT ?Timer_Expired@SUR_Dep_Turret@@EAEXPAVScriptableGameObj@@H@Z
_TEXT	SEGMENT
tv74 = -280						; size = 4
tv73 = -276						; size = 4
tv65 = -276						; size = 4
_f$ = -208						; size = 4
_object$ = -204						; size = 4
_var$ = -200						; size = 196
_this$ = -4						; size = 4
_obj$ = 8						; size = 4
_number$ = 12						; size = 4
?Timer_Expired@SUR_Dep_Turret@@EAEXPAVScriptableGameObj@@H@Z PROC ; SUR_Dep_Turret::Timer_Expired, COMDAT
; _this$ = ecx

; 748  : {

	push	ebp
	mov	ebp, esp
	sub	esp, 280				; 00000118H
	push	ebx
	push	esi
	push	edi
	mov	DWORD PTR _this$[ebp], ecx

; 749  : 	ActionParamsStruct var;

	lea	ecx, DWORD PTR _var$[ebp]
	call	??0ActionParamsStruct@@QAE@XZ		; ActionParamsStruct::ActionParamsStruct

; 750  : 	GameObject *object;
; 751  : 	float f;
; 752  : 	switch (number)

	mov	eax, DWORD PTR _number$[ebp]
	mov	DWORD PTR tv65[ebp], eax
	cmp	DWORD PTR tv65[ebp], 1
	je	SHORT $LN10@Timer_Expi
	cmp	DWORD PTR tv65[ebp], 2
	je	$LN1@Timer_Expi
	jmp	$LN11@Timer_Expi
$LN10@Timer_Expi:

; 753  : 	{
; 754  : 	case 1:
; 755  : 		f = Commands->Get_Random(0.0f,2.9999f);

	push	ecx
	movss	xmm0, DWORD PTR __real@403ffe5d
	movss	DWORD PTR [esp], xmm0
	push	ecx
	movss	xmm0, DWORD PTR __real@00000000
	movss	DWORD PTR [esp], xmm0
	mov	eax, DWORD PTR ?Commands@@3PAUScriptCommands@@A ; Commands
	mov	ecx, DWORD PTR [eax+148]
	call	ecx
	add	esp, 8
	fstp	DWORD PTR _f$[ebp]

; 756  : 		switch (__min(int(f),2))

	cvttss2si eax, DWORD PTR _f$[ebp]
	cmp	eax, 2
	jge	SHORT $LN15@Timer_Expi
	cvttss2si ecx, DWORD PTR _f$[ebp]
	mov	DWORD PTR tv73[ebp], ecx
	jmp	SHORT $LN16@Timer_Expi
$LN15@Timer_Expi:
	mov	DWORD PTR tv73[ebp], 2
$LN16@Timer_Expi:
	mov	edx, DWORD PTR tv73[ebp]
	mov	DWORD PTR tv74[ebp], edx
	cmp	DWORD PTR tv74[ebp], 0
	je	SHORT $LN7@Timer_Expi
	cmp	DWORD PTR tv74[ebp], 1
	je	$LN5@Timer_Expi
	jmp	$LN3@Timer_Expi
$LN7@Timer_Expi:

; 757  : 		{
; 758  : 		case 0:
; 759  : 			object = Commands->Find_Object(id1);

	mov	eax, DWORD PTR _this$[ebp]
	mov	ecx, DWORD PTR [eax+28]
	push	ecx
	mov	edx, DWORD PTR ?Commands@@3PAUScriptCommands@@A ; Commands
	mov	eax, DWORD PTR [edx+96]
	call	eax
	add	esp, 4
	mov	DWORD PTR _object$[ebp], eax

; 760  : 			if (object)

	cmp	DWORD PTR _object$[ebp], 0
	je	SHORT $LN6@Timer_Expi

; 761  : 			{
; 762  : 				var.Set_Basic(this,70,1);

	push	-1
	push	1
	push	ecx
	movss	xmm0, DWORD PTR __real@428c0000
	movss	DWORD PTR [esp], xmm0
	mov	eax, DWORD PTR _this$[ebp]
	push	eax
	lea	ecx, DWORD PTR _var$[ebp]
	call	?Set_Basic@ActionParamsStruct@@QAEXPAVGameObjObserverClass@@MHW4SoldierAIState@@@Z ; ActionParamsStruct::Set_Basic

; 763  : 				var.Set_Attack(object,0,0,true);

	push	1
	push	ecx
	movss	xmm0, DWORD PTR __real@00000000
	movss	DWORD PTR [esp], xmm0
	push	ecx
	movss	xmm0, DWORD PTR __real@00000000
	movss	DWORD PTR [esp], xmm0
	mov	eax, DWORD PTR _object$[ebp]
	push	eax
	lea	ecx, DWORD PTR _var$[ebp]
	call	?Set_Attack@ActionParamsStruct@@QAEXPAVScriptableGameObj@@MM_N@Z ; ActionParamsStruct::Set_Attack

; 764  : 				Commands->Action_Attack(obj,var);

	lea	eax, DWORD PTR _var$[ebp]
	push	eax
	mov	ecx, DWORD PTR _obj$[ebp]
	push	ecx
	mov	edx, DWORD PTR ?Commands@@3PAUScriptCommands@@A ; Commands
	mov	eax, DWORD PTR [edx+20]
	call	eax
	add	esp, 8
$LN6@Timer_Expi:

; 765  : 			}
; 766  : 			break;

	jmp	$LN8@Timer_Expi
$LN5@Timer_Expi:

; 767  : 		case 1:
; 768  : 			object = Commands->Find_Object(id2);

	mov	eax, DWORD PTR _this$[ebp]
	mov	ecx, DWORD PTR [eax+32]
	push	ecx
	mov	edx, DWORD PTR ?Commands@@3PAUScriptCommands@@A ; Commands
	mov	eax, DWORD PTR [edx+96]
	call	eax
	add	esp, 4
	mov	DWORD PTR _object$[ebp], eax

; 769  : 			if (object)

	cmp	DWORD PTR _object$[ebp], 0
	je	SHORT $LN4@Timer_Expi

; 770  : 			{
; 771  : 				var.Set_Basic(this,70,1);

	push	-1
	push	1
	push	ecx
	movss	xmm0, DWORD PTR __real@428c0000
	movss	DWORD PTR [esp], xmm0
	mov	eax, DWORD PTR _this$[ebp]
	push	eax
	lea	ecx, DWORD PTR _var$[ebp]
	call	?Set_Basic@ActionParamsStruct@@QAEXPAVGameObjObserverClass@@MHW4SoldierAIState@@@Z ; ActionParamsStruct::Set_Basic

; 772  : 				var.Set_Attack(object,0,0,true);

	push	1
	push	ecx
	movss	xmm0, DWORD PTR __real@00000000
	movss	DWORD PTR [esp], xmm0
	push	ecx
	movss	xmm0, DWORD PTR __real@00000000
	movss	DWORD PTR [esp], xmm0
	mov	eax, DWORD PTR _object$[ebp]
	push	eax
	lea	ecx, DWORD PTR _var$[ebp]
	call	?Set_Attack@ActionParamsStruct@@QAEXPAVScriptableGameObj@@MM_N@Z ; ActionParamsStruct::Set_Attack

; 773  : 				Commands->Action_Attack(obj,var);

	lea	eax, DWORD PTR _var$[ebp]
	push	eax
	mov	ecx, DWORD PTR _obj$[ebp]
	push	ecx
	mov	edx, DWORD PTR ?Commands@@3PAUScriptCommands@@A ; Commands
	mov	eax, DWORD PTR [edx+20]
	call	eax
	add	esp, 8
$LN4@Timer_Expi:

; 774  : 			}
; 775  : 			break;

	jmp	$LN8@Timer_Expi
$LN3@Timer_Expi:

; 776  : 		default:
; 777  : 			object = Commands->Find_Object(id3);

	mov	eax, DWORD PTR _this$[ebp]
	mov	ecx, DWORD PTR [eax+36]
	push	ecx
	mov	edx, DWORD PTR ?Commands@@3PAUScriptCommands@@A ; Commands
	mov	eax, DWORD PTR [edx+96]
	call	eax
	add	esp, 4
	mov	DWORD PTR _object$[ebp], eax

; 778  : 			if (object)

	cmp	DWORD PTR _object$[ebp], 0
	je	SHORT $LN2@Timer_Expi

; 779  : 			{
; 780  : 				var.Set_Basic(this,70,1);

	push	-1
	push	1
	push	ecx
	movss	xmm0, DWORD PTR __real@428c0000
	movss	DWORD PTR [esp], xmm0
	mov	eax, DWORD PTR _this$[ebp]
	push	eax
	lea	ecx, DWORD PTR _var$[ebp]
	call	?Set_Basic@ActionParamsStruct@@QAEXPAVGameObjObserverClass@@MHW4SoldierAIState@@@Z ; ActionParamsStruct::Set_Basic

; 781  : 				var.Set_Attack(object,0,0,true);

	push	1
	push	ecx
	movss	xmm0, DWORD PTR __real@00000000
	movss	DWORD PTR [esp], xmm0
	push	ecx
	movss	xmm0, DWORD PTR __real@00000000
	movss	DWORD PTR [esp], xmm0
	mov	eax, DWORD PTR _object$[ebp]
	push	eax
	lea	ecx, DWORD PTR _var$[ebp]
	call	?Set_Attack@ActionParamsStruct@@QAEXPAVScriptableGameObj@@MM_N@Z ; ActionParamsStruct::Set_Attack

; 782  : 				Commands->Action_Attack(obj,var);

	lea	eax, DWORD PTR _var$[ebp]
	push	eax
	mov	ecx, DWORD PTR _obj$[ebp]
	push	ecx
	mov	edx, DWORD PTR ?Commands@@3PAUScriptCommands@@A ; Commands
	mov	eax, DWORD PTR [edx+20]
	call	eax
	add	esp, 8
$LN2@Timer_Expi:
$LN8@Timer_Expi:

; 783  : 			}
; 784  : 		}
; 785  : 	Commands->Start_Timer(obj,this,10,1);

	push	1
	push	ecx
	movss	xmm0, DWORD PTR __real@41200000
	movss	DWORD PTR [esp], xmm0
	mov	eax, DWORD PTR _this$[ebp]
	push	eax
	mov	ecx, DWORD PTR _obj$[ebp]
	push	ecx
	mov	edx, DWORD PTR ?Commands@@3PAUScriptCommands@@A ; Commands
	mov	eax, DWORD PTR [edx+128]
	call	eax
	add	esp, 16					; 00000010H

; 786  : 	break;

	jmp	SHORT $LN11@Timer_Expi
$LN1@Timer_Expi:

; 787  : 	case 2:
; 788  : 		Commands->Action_Reset(obj,100);

	push	ecx
	movss	xmm0, DWORD PTR __real@42c80000
	movss	DWORD PTR [esp], xmm0
	mov	eax, DWORD PTR _obj$[ebp]
	push	eax
	mov	ecx, DWORD PTR ?Commands@@3PAUScriptCommands@@A ; Commands
	mov	edx, DWORD PTR [ecx+12]
	call	edx
	add	esp, 8
$LN11@Timer_Expi:

; 789  : 		break;
; 790  : 	}
; 791  : }

	pop	edi
	pop	esi
	pop	ebx
	mov	esp, ebp
	pop	ebp
	ret	8
?Timer_Expired@SUR_Dep_Turret@@EAEXPAVScriptableGameObj@@H@Z ENDP ; SUR_Dep_Turret::Timer_Expired
_TEXT	ENDS
; Function compile flags: /Odtp /ZI
; File x:\github\renegade\dragonade_rxd\scripts\survival.cpp
;	COMDAT ?Action_Complete@SUR_Dep_Turret@@EAEXPAVScriptableGameObj@@HW4ActionCompleteReason@@@Z
_TEXT	SEGMENT
_this$ = -4						; size = 4
_obj$ = 8						; size = 4
_action_id$ = 12					; size = 4
_complete_reason$ = 16					; size = 4
?Action_Complete@SUR_Dep_Turret@@EAEXPAVScriptableGameObj@@HW4ActionCompleteReason@@@Z PROC ; SUR_Dep_Turret::Action_Complete, COMDAT
; _this$ = ecx

; 740  : {

	push	ebp
	mov	ebp, esp
	sub	esp, 68					; 00000044H
	push	ebx
	push	esi
	push	edi
	mov	DWORD PTR _this$[ebp], ecx

; 741  : 	if (action_id == 2)

	cmp	DWORD PTR _action_id$[ebp], 2
	jne	SHORT $LN1@Action_Com

; 742  : 	{
; 743  : 		Commands->Action_Reset(obj,100);

	push	ecx
	movss	xmm0, DWORD PTR __real@42c80000
	movss	DWORD PTR [esp], xmm0
	mov	eax, DWORD PTR _obj$[ebp]
	push	eax
	mov	ecx, DWORD PTR ?Commands@@3PAUScriptCommands@@A ; Commands
	mov	edx, DWORD PTR [ecx+12]
	call	edx
	add	esp, 8
$LN1@Action_Com:

; 744  : 	}
; 745  : }

	pop	edi
	pop	esi
	pop	ebx
	mov	esp, ebp
	pop	ebp
	ret	12					; 0000000cH
?Action_Complete@SUR_Dep_Turret@@EAEXPAVScriptableGameObj@@HW4ActionCompleteReason@@@Z ENDP ; SUR_Dep_Turret::Action_Complete
_TEXT	ENDS
; Function compile flags: /Odtp /ZI
; File x:\github\renegade\dragonade_rxd\scripts\survival.cpp
;	COMDAT ?EnemySeen@SUR_Dep_Turret@@AAEXPAVScriptableGameObj@@0@Z
_TEXT	SEGMENT
$T1 = -328						; size = 12
$T2 = -316						; size = 12
_attacktimer$ = -240					; size = 4
_maxattack$ = -236					; size = 4
_minattack$ = -232					; size = 4
_distance$ = -228					; size = 4
_pos2$ = -224						; size = 12
_pos$ = -212						; size = 12
_params$ = -200						; size = 196
_this$ = -4						; size = 4
_obj$ = 8						; size = 4
_enemy$ = 12						; size = 4
?EnemySeen@SUR_Dep_Turret@@AAEXPAVScriptableGameObj@@0@Z PROC ; SUR_Dep_Turret::EnemySeen, COMDAT
; _this$ = ecx

; 717  : {

	push	ebp
	mov	ebp, esp
	sub	esp, 328				; 00000148H
	push	ebx
	push	esi
	push	edi
	mov	DWORD PTR _this$[ebp], ecx

; 718  : 	ActionParamsStruct params;

	lea	ecx, DWORD PTR _params$[ebp]
	call	??0ActionParamsStruct@@QAE@XZ		; ActionParamsStruct::ActionParamsStruct

; 719  : 	Vector3 pos,pos2;

	lea	ecx, DWORD PTR _pos$[ebp]
	call	??0Vector3@@QAE@XZ			; Vector3::Vector3
	lea	ecx, DWORD PTR _pos2$[ebp]
	call	??0Vector3@@QAE@XZ			; Vector3::Vector3

; 720  : 	float distance;
; 721  : 	float minattack,maxattack;
; 722  : 	float attacktimer;
; 723  : 	pos = Commands->Get_Position(obj);

	mov	eax, DWORD PTR _obj$[ebp]
	push	eax
	lea	ecx, DWORD PTR $T1[ebp]
	push	ecx
	mov	edx, DWORD PTR ?Commands@@3PAUScriptCommands@@A ; Commands
	mov	eax, DWORD PTR [edx+64]
	call	eax
	add	esp, 8
	push	eax
	lea	ecx, DWORD PTR _pos$[ebp]
	call	??4Vector3@@QAEAAV0@ABV0@@Z		; Vector3::operator=

; 724  : 	pos2 = Commands->Get_Position(enemy);

	mov	eax, DWORD PTR _enemy$[ebp]
	push	eax
	lea	ecx, DWORD PTR $T2[ebp]
	push	ecx
	mov	edx, DWORD PTR ?Commands@@3PAUScriptCommands@@A ; Commands
	mov	eax, DWORD PTR [edx+64]
	call	eax
	add	esp, 8
	push	eax
	lea	ecx, DWORD PTR _pos2$[ebp]
	call	??4Vector3@@QAEAAV0@ABV0@@Z		; Vector3::operator=

; 725  : 	distance = Commands->Get_Distance(pos2,pos);

	lea	eax, DWORD PTR _pos$[ebp]
	push	eax
	lea	ecx, DWORD PTR _pos2$[ebp]
	push	ecx
	mov	edx, DWORD PTR ?Commands@@3PAUScriptCommands@@A ; Commands
	mov	eax, DWORD PTR [edx+256]
	call	eax
	add	esp, 8
	fstp	DWORD PTR _distance$[ebp]

; 726  : 	minattack = Get_Float_Parameter("MinAttackDistance");

	push	OFFSET ??_C@_0BC@FPEDNKGK@MinAttackDistance?$AA@
	mov	ecx, DWORD PTR _this$[ebp]
	call	?Get_Float_Parameter@ScriptImpClass@@QAEMPBD@Z ; ScriptImpClass::Get_Float_Parameter
	fstp	DWORD PTR _minattack$[ebp]

; 727  : 	if ((distance >= minattack) && (CheckPlayerType(enemy,0) > 0) && (CheckPlayerType(enemy,1) > 0))

	movss	xmm0, DWORD PTR _distance$[ebp]
	comiss	xmm0, DWORD PTR _minattack$[ebp]
	jb	$LN1@EnemySeen
	push	0
	mov	eax, DWORD PTR _enemy$[ebp]
	push	eax
	mov	ecx, DWORD PTR _this$[ebp]
	call	?CheckPlayerType@ScriptImpClass@@QAEHPAVScriptableGameObj@@H@Z ; ScriptImpClass::CheckPlayerType
	test	eax, eax
	jle	$LN1@EnemySeen
	push	1
	mov	eax, DWORD PTR _enemy$[ebp]
	push	eax
	mov	ecx, DWORD PTR _this$[ebp]
	call	?CheckPlayerType@ScriptImpClass@@QAEHPAVScriptableGameObj@@H@Z ; ScriptImpClass::CheckPlayerType
	test	eax, eax
	jle	$LN1@EnemySeen

; 728  : 	{
; 729  : 		maxattack = Get_Float_Parameter("MaxAttackDistance");

	push	OFFSET ??_C@_0BC@MOFMCIO@MaxAttackDistance?$AA@
	mov	ecx, DWORD PTR _this$[ebp]
	call	?Get_Float_Parameter@ScriptImpClass@@QAEMPBD@Z ; ScriptImpClass::Get_Float_Parameter
	fstp	DWORD PTR _maxattack$[ebp]

; 730  : 		params.Set_Basic(this,100,2);

	push	-1
	push	2
	push	ecx
	movss	xmm0, DWORD PTR __real@42c80000
	movss	DWORD PTR [esp], xmm0
	mov	eax, DWORD PTR _this$[ebp]
	push	eax
	lea	ecx, DWORD PTR _params$[ebp]
	call	?Set_Basic@ActionParamsStruct@@QAEXPAVGameObjObserverClass@@MHW4SoldierAIState@@@Z ; ActionParamsStruct::Set_Basic

; 731  : 		params.Set_Attack(enemy,maxattack,0.0,true);

	push	1
	push	ecx
	movss	xmm0, DWORD PTR __real@00000000
	movss	DWORD PTR [esp], xmm0
	push	ecx
	movss	xmm0, DWORD PTR _maxattack$[ebp]
	movss	DWORD PTR [esp], xmm0
	mov	eax, DWORD PTR _enemy$[ebp]
	push	eax
	lea	ecx, DWORD PTR _params$[ebp]
	call	?Set_Attack@ActionParamsStruct@@QAEXPAVScriptableGameObj@@MM_N@Z ; ActionParamsStruct::Set_Attack

; 732  : 		params.AttackCheckBlocked = false;

	mov	BYTE PTR _params$[ebp+108], 0

; 733  : 		Commands->Action_Attack(obj,params);

	lea	eax, DWORD PTR _params$[ebp]
	push	eax
	mov	ecx, DWORD PTR _obj$[ebp]
	push	ecx
	mov	edx, DWORD PTR ?Commands@@3PAUScriptCommands@@A ; Commands
	mov	eax, DWORD PTR [edx+20]
	call	eax
	add	esp, 8

; 734  : 		attacktimer = Get_Float_Parameter("AttackTimer");

	push	OFFSET ??_C@_0M@JLBMIOIA@AttackTimer?$AA@
	mov	ecx, DWORD PTR _this$[ebp]
	call	?Get_Float_Parameter@ScriptImpClass@@QAEMPBD@Z ; ScriptImpClass::Get_Float_Parameter
	fstp	DWORD PTR _attacktimer$[ebp]

; 735  : 		Commands->Start_Timer(obj,this,attacktimer,2);

	push	2
	push	ecx
	movss	xmm0, DWORD PTR _attacktimer$[ebp]
	movss	DWORD PTR [esp], xmm0
	mov	eax, DWORD PTR _this$[ebp]
	push	eax
	mov	ecx, DWORD PTR _obj$[ebp]
	push	ecx
	mov	edx, DWORD PTR ?Commands@@3PAUScriptCommands@@A ; Commands
	mov	eax, DWORD PTR [edx+128]
	call	eax
	add	esp, 16					; 00000010H
$LN1@EnemySeen:

; 736  : 	}
; 737  : }

	pop	edi
	pop	esi
	pop	ebx
	mov	esp, ebp
	pop	ebp
	ret	8
?EnemySeen@SUR_Dep_Turret@@AAEXPAVScriptableGameObj@@0@Z ENDP ; SUR_Dep_Turret::EnemySeen
_TEXT	ENDS
; Function compile flags: /Odtp /ZI
; File x:\github\renegade\dragonade_rxd\scripts\survival.cpp
;	COMDAT ?Created@SUR_Dep_Turret@@EAEXPAVScriptableGameObj@@@Z
_TEXT	SEGMENT
$T1 = -132						; size = 12
_object$ = -56						; size = 4
_pos3$ = -52						; size = 12
_pos2$ = -40						; size = 12
_pos1$ = -28						; size = 12
_pos$ = -16						; size = 12
_this$ = -4						; size = 4
_obj$ = 8						; size = 4
?Created@SUR_Dep_Turret@@EAEXPAVScriptableGameObj@@@Z PROC ; SUR_Dep_Turret::Created, COMDAT
; _this$ = ecx

; 687  : {

	push	ebp
	mov	ebp, esp
	sub	esp, 132				; 00000084H
	push	ebx
	push	esi
	push	edi
	mov	DWORD PTR _this$[ebp], ecx

; 688  : 	Vector3 pos,pos1,pos2,pos3;

	lea	ecx, DWORD PTR _pos$[ebp]
	call	??0Vector3@@QAE@XZ			; Vector3::Vector3
	lea	ecx, DWORD PTR _pos1$[ebp]
	call	??0Vector3@@QAE@XZ			; Vector3::Vector3
	lea	ecx, DWORD PTR _pos2$[ebp]
	call	??0Vector3@@QAE@XZ			; Vector3::Vector3
	lea	ecx, DWORD PTR _pos3$[ebp]
	call	??0Vector3@@QAE@XZ			; Vector3::Vector3

; 689  : 	GameObject *object;
; 690  : 	objtype = Commands->Get_Player_Type(obj);

	mov	eax, DWORD PTR _obj$[ebp]
	push	eax
	mov	ecx, DWORD PTR ?Commands@@3PAUScriptCommands@@A ; Commands
	mov	edx, DWORD PTR [ecx+248]
	call	edx
	add	esp, 4
	mov	ecx, DWORD PTR _this$[ebp]
	mov	DWORD PTR [ecx+40], eax

; 691  : 	Commands->Enable_Hibernation(obj,false);

	push	0
	mov	eax, DWORD PTR _obj$[ebp]
	push	eax
	mov	ecx, DWORD PTR ?Commands@@3PAUScriptCommands@@A ; Commands
	mov	edx, DWORD PTR [ecx+568]
	call	edx
	add	esp, 8

; 692  : 	Commands->Innate_Enable(obj);

	mov	eax, DWORD PTR _obj$[ebp]
	push	eax
	mov	ecx, DWORD PTR ?Commands@@3PAUScriptCommands@@A ; Commands
	mov	edx, DWORD PTR [ecx+440]
	call	edx
	add	esp, 4

; 693  : 	Commands->Enable_Enemy_Seen(obj,true);

	push	1
	mov	eax, DWORD PTR _obj$[ebp]
	push	eax
	mov	ecx, DWORD PTR ?Commands@@3PAUScriptCommands@@A ; Commands
	mov	edx, DWORD PTR [ecx+300]
	call	edx
	add	esp, 8

; 694  : 	pos = Commands->Get_Position(obj);

	mov	eax, DWORD PTR _obj$[ebp]
	push	eax
	lea	ecx, DWORD PTR $T1[ebp]
	push	ecx
	mov	edx, DWORD PTR ?Commands@@3PAUScriptCommands@@A ; Commands
	mov	eax, DWORD PTR [edx+64]
	call	eax
	add	esp, 8
	push	eax
	lea	ecx, DWORD PTR _pos$[ebp]
	call	??4Vector3@@QAEAAV0@ABV0@@Z		; Vector3::operator=

; 695  : 	pos1.X = pos.X - 10;

	movss	xmm0, DWORD PTR _pos$[ebp]
	subss	xmm0, DWORD PTR __real@41200000
	movss	DWORD PTR _pos1$[ebp], xmm0

; 696  : 	pos1.Y = pos.Y - 10;

	movss	xmm0, DWORD PTR _pos$[ebp+4]
	subss	xmm0, DWORD PTR __real@41200000
	movss	DWORD PTR _pos1$[ebp+4], xmm0

; 697  : 	pos1.Z = pos.Z + 2;

	movss	xmm0, DWORD PTR _pos$[ebp+8]
	addss	xmm0, DWORD PTR __real@40000000
	movss	DWORD PTR _pos1$[ebp+8], xmm0

; 698  : 	pos2.X = pos.X + 10;

	movss	xmm0, DWORD PTR _pos$[ebp]
	addss	xmm0, DWORD PTR __real@41200000
	movss	DWORD PTR _pos2$[ebp], xmm0

; 699  : 	pos2.Y = pos.Y;

	movss	xmm0, DWORD PTR _pos$[ebp+4]
	movss	DWORD PTR _pos2$[ebp+4], xmm0

; 700  : 	pos2.Z = pos.Z + 2;

	movss	xmm0, DWORD PTR _pos$[ebp+8]
	addss	xmm0, DWORD PTR __real@40000000
	movss	DWORD PTR _pos2$[ebp+8], xmm0

; 701  : 	pos3.X = pos.X + 10;

	movss	xmm0, DWORD PTR _pos$[ebp]
	addss	xmm0, DWORD PTR __real@41200000
	movss	DWORD PTR _pos3$[ebp], xmm0

; 702  : 	pos3.Y = pos.Y - 10;

	movss	xmm0, DWORD PTR _pos$[ebp+4]
	subss	xmm0, DWORD PTR __real@41200000
	movss	DWORD PTR _pos3$[ebp+4], xmm0

; 703  : 	pos3.Z = pos.Z + 2;

	movss	xmm0, DWORD PTR _pos$[ebp+8]
	addss	xmm0, DWORD PTR __real@40000000
	movss	DWORD PTR _pos3$[ebp+8], xmm0

; 704  : 	object = Commands->Create_Object("Invisible_Object",pos1);

	lea	eax, DWORD PTR _pos1$[ebp]
	push	eax
	push	OFFSET ??_C@_0BB@NHJNEILC@Invisible_Object?$AA@
	mov	ecx, DWORD PTR ?Commands@@3PAUScriptCommands@@A ; Commands
	mov	edx, DWORD PTR [ecx+100]
	call	edx
	add	esp, 8
	mov	DWORD PTR _object$[ebp], eax

; 705  : 	if (object)

	cmp	DWORD PTR _object$[ebp], 0
	je	SHORT $LN3@Created

; 706  : 		id1 = Commands->Get_ID(object);

	mov	eax, DWORD PTR _object$[ebp]
	push	eax
	mov	ecx, DWORD PTR ?Commands@@3PAUScriptCommands@@A ; Commands
	mov	edx, DWORD PTR [ecx+108]
	call	edx
	add	esp, 4
	mov	ecx, DWORD PTR _this$[ebp]
	mov	DWORD PTR [ecx+28], eax
$LN3@Created:

; 707  : 	object = Commands->Create_Object("Invisible_Object",pos2);

	lea	eax, DWORD PTR _pos2$[ebp]
	push	eax
	push	OFFSET ??_C@_0BB@NHJNEILC@Invisible_Object?$AA@
	mov	ecx, DWORD PTR ?Commands@@3PAUScriptCommands@@A ; Commands
	mov	edx, DWORD PTR [ecx+100]
	call	edx
	add	esp, 8
	mov	DWORD PTR _object$[ebp], eax

; 708  : 	if (object)

	cmp	DWORD PTR _object$[ebp], 0
	je	SHORT $LN2@Created

; 709  : 		id2 = Commands->Get_ID(object);

	mov	eax, DWORD PTR _object$[ebp]
	push	eax
	mov	ecx, DWORD PTR ?Commands@@3PAUScriptCommands@@A ; Commands
	mov	edx, DWORD PTR [ecx+108]
	call	edx
	add	esp, 4
	mov	ecx, DWORD PTR _this$[ebp]
	mov	DWORD PTR [ecx+32], eax
$LN2@Created:

; 710  : 	object = Commands->Create_Object("Invisible_Object",pos3);

	lea	eax, DWORD PTR _pos3$[ebp]
	push	eax
	push	OFFSET ??_C@_0BB@NHJNEILC@Invisible_Object?$AA@
	mov	ecx, DWORD PTR ?Commands@@3PAUScriptCommands@@A ; Commands
	mov	edx, DWORD PTR [ecx+100]
	call	edx
	add	esp, 8
	mov	DWORD PTR _object$[ebp], eax

; 711  : 	if (object)

	cmp	DWORD PTR _object$[ebp], 0
	je	SHORT $LN1@Created

; 712  : 		id3 = Commands->Get_ID(object);

	mov	eax, DWORD PTR _object$[ebp]
	push	eax
	mov	ecx, DWORD PTR ?Commands@@3PAUScriptCommands@@A ; Commands
	mov	edx, DWORD PTR [ecx+108]
	call	edx
	add	esp, 4
	mov	ecx, DWORD PTR _this$[ebp]
	mov	DWORD PTR [ecx+36], eax
$LN1@Created:

; 713  : 	Commands->Start_Timer(obj,this,10,1);

	push	1
	push	ecx
	movss	xmm0, DWORD PTR __real@41200000
	movss	DWORD PTR [esp], xmm0
	mov	eax, DWORD PTR _this$[ebp]
	push	eax
	mov	ecx, DWORD PTR _obj$[ebp]
	push	ecx
	mov	edx, DWORD PTR ?Commands@@3PAUScriptCommands@@A ; Commands
	mov	eax, DWORD PTR [edx+128]
	call	eax
	add	esp, 16					; 00000010H

; 714  : }

	pop	edi
	pop	esi
	pop	ebx
	mov	esp, ebp
	pop	ebp
	ret	4
?Created@SUR_Dep_Turret@@EAEXPAVScriptableGameObj@@@Z ENDP ; SUR_Dep_Turret::Created
_TEXT	ENDS
; Function compile flags: /Odtp /ZI
;	COMDAT ??_GSUR_Chinook_AI@@UAEPAXI@Z
_TEXT	SEGMENT
_this$ = -4						; size = 4
___flags$ = 8						; size = 4
??_GSUR_Chinook_AI@@UAEPAXI@Z PROC			; SUR_Chinook_AI::`scalar deleting destructor', COMDAT
; _this$ = ecx
	push	ebp
	mov	ebp, esp
	sub	esp, 68					; 00000044H
	push	ebx
	push	esi
	push	edi
	mov	DWORD PTR _this$[ebp], ecx
	mov	ecx, DWORD PTR _this$[ebp]
	call	??1SUR_Chinook_AI@@UAE@XZ
	mov	eax, DWORD PTR ___flags$[ebp]
	and	eax, 1
	je	SHORT $LN1@scalar
	mov	eax, DWORD PTR _this$[ebp]
	push	eax
	call	??3@YAXPAX@Z				; operator delete
	add	esp, 4
$LN1@scalar:
	mov	eax, DWORD PTR _this$[ebp]
	pop	edi
	pop	esi
	pop	ebx
	mov	esp, ebp
	pop	ebp
	ret	4
??_GSUR_Chinook_AI@@UAEPAXI@Z ENDP			; SUR_Chinook_AI::`scalar deleting destructor'
_TEXT	ENDS
; Function compile flags: /Odtp /ZI
;	COMDAT ??1SUR_Chinook_AI@@UAE@XZ
_TEXT	SEGMENT
_this$ = -4						; size = 4
??1SUR_Chinook_AI@@UAE@XZ PROC				; SUR_Chinook_AI::~SUR_Chinook_AI, COMDAT
; _this$ = ecx
	push	ebp
	mov	ebp, esp
	sub	esp, 68					; 00000044H
	push	ebx
	push	esi
	push	edi
	mov	DWORD PTR _this$[ebp], ecx
	mov	ecx, DWORD PTR _this$[ebp]
	call	??1ScriptImpClass@@UAE@XZ		; ScriptImpClass::~ScriptImpClass
	pop	edi
	pop	esi
	pop	ebx
	mov	esp, ebp
	pop	ebp
	ret	0
??1SUR_Chinook_AI@@UAE@XZ ENDP				; SUR_Chinook_AI::~SUR_Chinook_AI
_TEXT	ENDS
; Function compile flags: /Odtp /ZI
;	COMDAT ??0SUR_Chinook_AI@@QAE@XZ
_TEXT	SEGMENT
_this$ = -4						; size = 4
??0SUR_Chinook_AI@@QAE@XZ PROC				; SUR_Chinook_AI::SUR_Chinook_AI, COMDAT
; _this$ = ecx
	push	ebp
	mov	ebp, esp
	sub	esp, 68					; 00000044H
	push	ebx
	push	esi
	push	edi
	mov	DWORD PTR _this$[ebp], ecx
	mov	ecx, DWORD PTR _this$[ebp]
	call	??0ScriptImpClass@@QAE@XZ		; ScriptImpClass::ScriptImpClass
	mov	eax, DWORD PTR _this$[ebp]
	mov	DWORD PTR [eax], OFFSET ??_7SUR_Chinook_AI@@6B@
	mov	eax, DWORD PTR _this$[ebp]
	pop	edi
	pop	esi
	pop	ebx
	mov	esp, ebp
	pop	ebp
	ret	0
??0SUR_Chinook_AI@@QAE@XZ ENDP				; SUR_Chinook_AI::SUR_Chinook_AI
_TEXT	ENDS
; Function compile flags: /Odtp /ZI
; File x:\github\renegade\dragonade_rxd\scripts\survival.cpp
;	COMDAT ?Custom@SUR_Chinook_AI@@EAEXPAVScriptableGameObj@@HH0@Z
_TEXT	SEGMENT
$T1 = -124						; size = 12
$T2 = -112						; size = 12
_rot$ = -36						; size = 4
_res$ = -32						; size = 4
_targPos$ = -28						; size = 12
_offset$ = -16						; size = 12
_this$ = -4						; size = 4
_obj$ = 8						; size = 4
_type$ = 12						; size = 4
_param$ = 16						; size = 4
_sender$ = 20						; size = 4
?Custom@SUR_Chinook_AI@@EAEXPAVScriptableGameObj@@HH0@Z PROC ; SUR_Chinook_AI::Custom, COMDAT
; _this$ = ecx

; 665  : {

	push	ebp
	mov	ebp, esp
	sub	esp, 124				; 0000007cH
	push	ebx
	push	esi
	push	edi
	mov	DWORD PTR _this$[ebp], ecx

; 666  : 	if (type != 503030)

	cmp	DWORD PTR _type$[ebp], 503030		; 0007acf6H
	je	SHORT $LN1@Custom

; 667  : 		return;

	jmp	$LN2@Custom
$LN1@Custom:

; 668  : 	
; 669  : 	Vector3 offset;

	lea	ecx, DWORD PTR _offset$[ebp]
	call	??0Vector3@@QAE@XZ			; Vector3::Vector3

; 670  : 	Vector3 targPos;

	lea	ecx, DWORD PTR _targPos$[ebp]
	call	??0Vector3@@QAE@XZ			; Vector3::Vector3

; 671  : 	GameObject *res;
; 672  : 	float rot;
; 673  : 
; 674  : 	offset = Get_Vector3_Parameter("Position_Offset");

	push	OFFSET ??_C@_0BA@OAAEJLHO@Position_Offset?$AA@
	lea	eax, DWORD PTR $T1[ebp]
	push	eax
	mov	ecx, DWORD PTR _this$[ebp]
	call	?Get_Vector3_Parameter@ScriptImpClass@@QAE?AVVector3@@PBD@Z ; ScriptImpClass::Get_Vector3_Parameter
	push	eax
	lea	ecx, DWORD PTR _offset$[ebp]
	call	??4Vector3@@QAEAAV0@ABV0@@Z		; Vector3::operator=

; 675  : 	targPos = Commands->Get_Position(obj);

	mov	eax, DWORD PTR _obj$[ebp]
	push	eax
	lea	ecx, DWORD PTR $T2[ebp]
	push	ecx
	mov	edx, DWORD PTR ?Commands@@3PAUScriptCommands@@A ; Commands
	mov	eax, DWORD PTR [edx+64]
	call	eax
	add	esp, 8
	push	eax
	lea	ecx, DWORD PTR _targPos$[ebp]
	call	??4Vector3@@QAEAAV0@ABV0@@Z		; Vector3::operator=

; 676  : 	targPos.X+=offset.X;

	movss	xmm0, DWORD PTR _targPos$[ebp]
	addss	xmm0, DWORD PTR _offset$[ebp]
	movss	DWORD PTR _targPos$[ebp], xmm0

; 677  : 	targPos.Y+=offset.Y;

	movss	xmm0, DWORD PTR _targPos$[ebp+4]
	addss	xmm0, DWORD PTR _offset$[ebp+4]
	movss	DWORD PTR _targPos$[ebp+4], xmm0

; 678  : 	targPos.Z+=offset.Z;

	movss	xmm0, DWORD PTR _targPos$[ebp+8]
	addss	xmm0, DWORD PTR _offset$[ebp+8]
	movss	DWORD PTR _targPos$[ebp+8], xmm0

; 679  : 	rot = Commands->Get_Facing(obj);

	mov	eax, DWORD PTR _obj$[ebp]
	push	eax
	mov	ecx, DWORD PTR ?Commands@@3PAUScriptCommands@@A ; Commands
	mov	edx, DWORD PTR [ecx+72]
	call	edx
	add	esp, 4
	fstp	DWORD PTR _rot$[ebp]

; 680  : 	res = Commands->Create_Object(Get_Parameter("Preset_Name"),targPos);

	lea	eax, DWORD PTR _targPos$[ebp]
	push	eax
	push	OFFSET ??_C@_0M@KBNHOJJA@Preset_Name?$AA@
	mov	ecx, DWORD PTR _this$[ebp]
	call	?Get_Parameter@ScriptImpClass@@QAEPBDPBD@Z ; ScriptImpClass::Get_Parameter
	push	eax
	mov	ecx, DWORD PTR ?Commands@@3PAUScriptCommands@@A ; Commands
	mov	edx, DWORD PTR [ecx+100]
	call	edx
	add	esp, 8
	mov	DWORD PTR _res$[ebp], eax

; 681  : 	Commands->Set_Facing(res,rot);

	push	ecx
	movss	xmm0, DWORD PTR _rot$[ebp]
	movss	DWORD PTR [esp], xmm0
	mov	eax, DWORD PTR _res$[ebp]
	push	eax
	mov	ecx, DWORD PTR ?Commands@@3PAUScriptCommands@@A ; Commands
	mov	edx, DWORD PTR [ecx+76]
	call	edx
	add	esp, 8
$LN2@Custom:

; 682  : }

	pop	edi
	pop	esi
	pop	ebx
	mov	esp, ebp
	pop	ebp
	ret	16					; 00000010H
?Custom@SUR_Chinook_AI@@EAEXPAVScriptableGameObj@@HH0@Z ENDP ; SUR_Chinook_AI::Custom
_TEXT	ENDS
; Function compile flags: /Odtp /ZI
;	COMDAT ??_GSUR_Orca_AI@@UAEPAXI@Z
_TEXT	SEGMENT
_this$ = -4						; size = 4
___flags$ = 8						; size = 4
??_GSUR_Orca_AI@@UAEPAXI@Z PROC				; SUR_Orca_AI::`scalar deleting destructor', COMDAT
; _this$ = ecx
	push	ebp
	mov	ebp, esp
	sub	esp, 68					; 00000044H
	push	ebx
	push	esi
	push	edi
	mov	DWORD PTR _this$[ebp], ecx
	mov	ecx, DWORD PTR _this$[ebp]
	call	??1SUR_Orca_AI@@UAE@XZ
	mov	eax, DWORD PTR ___flags$[ebp]
	and	eax, 1
	je	SHORT $LN1@scalar
	mov	eax, DWORD PTR _this$[ebp]
	push	eax
	call	??3@YAXPAX@Z				; operator delete
	add	esp, 4
$LN1@scalar:
	mov	eax, DWORD PTR _this$[ebp]
	pop	edi
	pop	esi
	pop	ebx
	mov	esp, ebp
	pop	ebp
	ret	4
??_GSUR_Orca_AI@@UAEPAXI@Z ENDP				; SUR_Orca_AI::`scalar deleting destructor'
_TEXT	ENDS
; Function compile flags: /Odtp /ZI
;	COMDAT ??1SUR_Orca_AI@@UAE@XZ
_TEXT	SEGMENT
_this$ = -4						; size = 4
??1SUR_Orca_AI@@UAE@XZ PROC				; SUR_Orca_AI::~SUR_Orca_AI, COMDAT
; _this$ = ecx
	push	ebp
	mov	ebp, esp
	sub	esp, 68					; 00000044H
	push	ebx
	push	esi
	push	edi
	mov	DWORD PTR _this$[ebp], ecx
	mov	ecx, DWORD PTR _this$[ebp]
	call	??1ScriptImpClass@@UAE@XZ		; ScriptImpClass::~ScriptImpClass
	pop	edi
	pop	esi
	pop	ebx
	mov	esp, ebp
	pop	ebp
	ret	0
??1SUR_Orca_AI@@UAE@XZ ENDP				; SUR_Orca_AI::~SUR_Orca_AI
_TEXT	ENDS
; Function compile flags: /Odtp /ZI
;	COMDAT ??0SUR_Orca_AI@@QAE@XZ
_TEXT	SEGMENT
_this$ = -4						; size = 4
??0SUR_Orca_AI@@QAE@XZ PROC				; SUR_Orca_AI::SUR_Orca_AI, COMDAT
; _this$ = ecx
	push	ebp
	mov	ebp, esp
	sub	esp, 68					; 00000044H
	push	ebx
	push	esi
	push	edi
	mov	DWORD PTR _this$[ebp], ecx
	mov	ecx, DWORD PTR _this$[ebp]
	call	??0ScriptImpClass@@QAE@XZ		; ScriptImpClass::ScriptImpClass
	mov	eax, DWORD PTR _this$[ebp]
	mov	DWORD PTR [eax], OFFSET ??_7SUR_Orca_AI@@6B@
	mov	eax, DWORD PTR _this$[ebp]
	pop	edi
	pop	esi
	pop	ebx
	mov	esp, ebp
	pop	ebp
	ret	0
??0SUR_Orca_AI@@QAE@XZ ENDP				; SUR_Orca_AI::SUR_Orca_AI
_TEXT	ENDS
; Function compile flags: /Odtp /ZI
; File x:\github\renegade\dragonade_rxd\scripts\survival.cpp
;	COMDAT ?Action_Complete@SUR_Orca_AI@@EAEXPAVScriptableGameObj@@HW4ActionCompleteReason@@@Z
_TEXT	SEGMENT
_prm$ = -16						; size = 4
_msg$ = -12						; size = 4
_tmpObj$ = -8						; size = 4
_this$ = -4						; size = 4
_obj$ = 8						; size = 4
_action_id$ = 12					; size = 4
_complete_reason$ = 16					; size = 4
?Action_Complete@SUR_Orca_AI@@EAEXPAVScriptableGameObj@@HW4ActionCompleteReason@@@Z PROC ; SUR_Orca_AI::Action_Complete, COMDAT
; _this$ = ecx

; 648  : {

	push	ebp
	mov	ebp, esp
	sub	esp, 80					; 00000050H
	push	ebx
	push	esi
	push	edi
	mov	DWORD PTR _this$[ebp], ecx

; 649  : 	if (action_id != 20)

	cmp	DWORD PTR _action_id$[ebp], 20		; 00000014H
	je	SHORT $LN1@Action_Com

; 650  : 		return;

	jmp	SHORT $LN2@Action_Com
$LN1@Action_Com:

; 651  : 
; 652  : 	GameObject *tmpObj;
; 653  : 	int msg;
; 654  : 	int prm;
; 655  : 	msg = 503030; //Bot msg

	mov	DWORD PTR _msg$[ebp], 503030		; 0007acf6H

; 656  : 	prm = 303031; //Orca requesting job instead of soldier

	mov	DWORD PTR _prm$[ebp], 303031		; 00049fb7H

; 657  : 	tmpObj = Commands->Find_Object(Get_Int_Parameter("NHB_ID"));

	push	OFFSET ??_C@_06MPKPIODH@NHB_ID?$AA@
	mov	ecx, DWORD PTR _this$[ebp]
	call	?Get_Int_Parameter@ScriptImpClass@@QAEHPBD@Z ; ScriptImpClass::Get_Int_Parameter
	push	eax
	mov	eax, DWORD PTR ?Commands@@3PAUScriptCommands@@A ; Commands
	mov	ecx, DWORD PTR [eax+96]
	call	ecx
	add	esp, 4
	mov	DWORD PTR _tmpObj$[ebp], eax

; 658  : 	Commands->Send_Custom_Event(obj,tmpObj,msg,prm,0);

	push	ecx
	movss	xmm0, DWORD PTR __real@00000000
	movss	DWORD PTR [esp], xmm0
	mov	eax, DWORD PTR _prm$[ebp]
	push	eax
	mov	ecx, DWORD PTR _msg$[ebp]
	push	ecx
	mov	edx, DWORD PTR _tmpObj$[ebp]
	push	edx
	mov	eax, DWORD PTR _obj$[ebp]
	push	eax
	mov	ecx, DWORD PTR ?Commands@@3PAUScriptCommands@@A ; Commands
	mov	edx, DWORD PTR [ecx+140]
	call	edx
	add	esp, 20					; 00000014H
$LN2@Action_Com:

; 659  : }

	pop	edi
	pop	esi
	pop	ebx
	mov	esp, ebp
	pop	ebp
	ret	12					; 0000000cH
?Action_Complete@SUR_Orca_AI@@EAEXPAVScriptableGameObj@@HW4ActionCompleteReason@@@Z ENDP ; SUR_Orca_AI::Action_Complete
_TEXT	ENDS
; Function compile flags: /Odtp /ZI
; File x:\github\renegade\dragonade_rxd\scripts\survival.cpp
;	COMDAT ?Custom@SUR_Orca_AI@@EAEXPAVScriptableGameObj@@HH0@Z
_TEXT	SEGMENT
$T1 = -316						; size = 12
$T2 = -304						; size = 12
_targPos$ = -228					; size = 12
_offset$ = -216						; size = 12
_targ$ = -204						; size = 4
_action$ = -200						; size = 196
_this$ = -4						; size = 4
_obj$ = 8						; size = 4
_type$ = 12						; size = 4
_param$ = 16						; size = 4
_sender$ = 20						; size = 4
?Custom@SUR_Orca_AI@@EAEXPAVScriptableGameObj@@HH0@Z PROC ; SUR_Orca_AI::Custom, COMDAT
; _this$ = ecx

; 601  : {

	push	ebp
	mov	ebp, esp
	sub	esp, 316				; 0000013cH
	push	ebx
	push	esi
	push	edi
	mov	DWORD PTR _this$[ebp], ecx

; 602  : 	if (type != 503030)

	cmp	DWORD PTR _type$[ebp], 503030		; 0007acf6H
	je	SHORT $LN1@Custom

; 603  : 		return;

	jmp	$LN2@Custom
$LN1@Custom:

; 604  : 	
; 605  : 	ActionParamsStruct action;

	lea	ecx, DWORD PTR _action$[ebp]
	call	??0ActionParamsStruct@@QAE@XZ		; ActionParamsStruct::ActionParamsStruct

; 606  : 	GameObject *targ;
; 607  : 	Vector3 offset;

	lea	ecx, DWORD PTR _offset$[ebp]
	call	??0Vector3@@QAE@XZ			; Vector3::Vector3

; 608  : 	Vector3 targPos;

	lea	ecx, DWORD PTR _targPos$[ebp]
	call	??0Vector3@@QAE@XZ			; Vector3::Vector3

; 609  : 
; 610  : 	offset = Get_Vector3_Parameter("Attack_Offset");

	push	OFFSET ??_C@_0O@FABAOFMP@Attack_Offset?$AA@
	lea	eax, DWORD PTR $T1[ebp]
	push	eax
	mov	ecx, DWORD PTR _this$[ebp]
	call	?Get_Vector3_Parameter@ScriptImpClass@@QAE?AVVector3@@PBD@Z ; ScriptImpClass::Get_Vector3_Parameter
	push	eax
	lea	ecx, DWORD PTR _offset$[ebp]
	call	??4Vector3@@QAEAAV0@ABV0@@Z		; Vector3::operator=

; 611  : 	action.Set_Basic(this,100,10); //Set the basic stuff

	push	-1
	push	10					; 0000000aH
	push	ecx
	movss	xmm0, DWORD PTR __real@42c80000
	movss	DWORD PTR [esp], xmm0
	mov	eax, DWORD PTR _this$[ebp]
	push	eax
	lea	ecx, DWORD PTR _action$[ebp]
	call	?Set_Basic@ActionParamsStruct@@QAEXPAVGameObjObserverClass@@MHW4SoldierAIState@@@Z ; ActionParamsStruct::Set_Basic

; 612  : 	targ = Commands->Find_Object(param); //Find the target

	mov	eax, DWORD PTR _param$[ebp]
	push	eax
	mov	ecx, DWORD PTR ?Commands@@3PAUScriptCommands@@A ; Commands
	mov	edx, DWORD PTR [ecx+96]
	call	edx
	add	esp, 4
	mov	DWORD PTR _targ$[ebp], eax

; 613  : 	targPos = Commands->Get_Position(targ);

	mov	eax, DWORD PTR _targ$[ebp]
	push	eax
	lea	ecx, DWORD PTR $T2[ebp]
	push	ecx
	mov	edx, DWORD PTR ?Commands@@3PAUScriptCommands@@A ; Commands
	mov	eax, DWORD PTR [edx+64]
	call	eax
	add	esp, 8
	push	eax
	lea	ecx, DWORD PTR _targPos$[ebp]
	call	??4Vector3@@QAEAAV0@ABV0@@Z		; Vector3::operator=

; 614  : 	targPos.X+=offset.X;

	movss	xmm0, DWORD PTR _targPos$[ebp]
	addss	xmm0, DWORD PTR _offset$[ebp]
	movss	DWORD PTR _targPos$[ebp], xmm0

; 615  : 	targPos.Y+=offset.Y;

	movss	xmm0, DWORD PTR _targPos$[ebp+4]
	addss	xmm0, DWORD PTR _offset$[ebp+4]
	movss	DWORD PTR _targPos$[ebp+4], xmm0

; 616  : 	targPos.Z+=offset.Z;

	movss	xmm0, DWORD PTR _targPos$[ebp+8]
	addss	xmm0, DWORD PTR _offset$[ebp+8]
	movss	DWORD PTR _targPos$[ebp+8], xmm0

; 617  : 	
; 618  : 	action.MoveArrivedDistance = 100;

	movss	xmm0, DWORD PTR __real@42c80000
	movss	DWORD PTR _action$[ebp+64], xmm0

; 619  : 	action.Set_Movement(targPos,5,30,false);

	push	0
	push	ecx
	movss	xmm0, DWORD PTR __real@41f00000
	movss	DWORD PTR [esp], xmm0
	push	ecx
	movss	xmm0, DWORD PTR __real@40a00000
	movss	DWORD PTR [esp], xmm0
	lea	eax, DWORD PTR _targPos$[ebp]
	push	eax
	lea	ecx, DWORD PTR _action$[ebp]
	call	?Set_Movement@ActionParamsStruct@@QAEXABVVector3@@MM_N@Z ; ActionParamsStruct::Set_Movement

; 620  : 	action.Set_Attack(targ,30,0,true); //Set the attack stuff

	push	1
	push	ecx
	movss	xmm0, DWORD PTR __real@00000000
	movss	DWORD PTR [esp], xmm0
	push	ecx
	movss	xmm0, DWORD PTR __real@41f00000
	movss	DWORD PTR [esp], xmm0
	mov	eax, DWORD PTR _targ$[ebp]
	push	eax
	lea	ecx, DWORD PTR _action$[ebp]
	call	?Set_Attack@ActionParamsStruct@@QAEXPAVScriptableGameObj@@MM_N@Z ; ActionParamsStruct::Set_Attack

; 621  : 	Commands->Action_Attack(obj,action); //Attack!

	lea	eax, DWORD PTR _action$[ebp]
	push	eax
	mov	ecx, DWORD PTR _obj$[ebp]
	push	ecx
	mov	edx, DWORD PTR ?Commands@@3PAUScriptCommands@@A ; Commands
	mov	eax, DWORD PTR [edx+20]
	call	eax
	add	esp, 8
$LN2@Custom:

; 622  : //	Commands->Send_Console_Message_Int(param,"Target Recieved: %d \n");
; 623  : }

	pop	edi
	pop	esi
	pop	ebx
	mov	esp, ebp
	pop	ebp
	ret	16					; 00000010H
?Custom@SUR_Orca_AI@@EAEXPAVScriptableGameObj@@HH0@Z ENDP ; SUR_Orca_AI::Custom
_TEXT	ENDS
; Function compile flags: /Odtp /ZI
; File x:\github\renegade\dragonade_rxd\scripts\survival.cpp
;	COMDAT ?Death@SUR_Orca_AI@@AAEXPAVScriptableGameObj@@0@Z
_TEXT	SEGMENT
_prm$ = -16						; size = 4
_msg$ = -12						; size = 4
_tmpObj$ = -8						; size = 4
_this$ = -4						; size = 4
_obj$ = 8						; size = 4
_killer$ = 12						; size = 4
?Death@SUR_Orca_AI@@AAEXPAVScriptableGameObj@@0@Z PROC	; SUR_Orca_AI::Death, COMDAT
; _this$ = ecx

; 637  : {

	push	ebp
	mov	ebp, esp
	sub	esp, 80					; 00000050H
	push	ebx
	push	esi
	push	edi
	mov	DWORD PTR _this$[ebp], ecx

; 638  : 	GameObject *tmpObj;
; 639  : 	int msg;
; 640  : 	int prm;
; 641  : 	msg = 503030; //Bot msg

	mov	DWORD PTR _msg$[ebp], 503030		; 0007acf6H

; 642  : 	prm = 502001; //Orca death

	mov	DWORD PTR _prm$[ebp], 502001		; 0007a8f1H

; 643  : 	tmpObj = Commands->Find_Object(Get_Int_Parameter("NHB_ID"));

	push	OFFSET ??_C@_06MPKPIODH@NHB_ID?$AA@
	mov	ecx, DWORD PTR _this$[ebp]
	call	?Get_Int_Parameter@ScriptImpClass@@QAEHPBD@Z ; ScriptImpClass::Get_Int_Parameter
	push	eax
	mov	eax, DWORD PTR ?Commands@@3PAUScriptCommands@@A ; Commands
	mov	ecx, DWORD PTR [eax+96]
	call	ecx
	add	esp, 4
	mov	DWORD PTR _tmpObj$[ebp], eax

; 644  : 	Commands->Send_Custom_Event(obj,tmpObj,msg,prm,0);

	push	ecx
	movss	xmm0, DWORD PTR __real@00000000
	movss	DWORD PTR [esp], xmm0
	mov	eax, DWORD PTR _prm$[ebp]
	push	eax
	mov	ecx, DWORD PTR _msg$[ebp]
	push	ecx
	mov	edx, DWORD PTR _tmpObj$[ebp]
	push	edx
	mov	eax, DWORD PTR _obj$[ebp]
	push	eax
	mov	ecx, DWORD PTR ?Commands@@3PAUScriptCommands@@A ; Commands
	mov	edx, DWORD PTR [ecx+140]
	call	edx
	add	esp, 20					; 00000014H

; 645  : }

	pop	edi
	pop	esi
	pop	ebx
	mov	esp, ebp
	pop	ebp
	ret	8
?Death@SUR_Orca_AI@@AAEXPAVScriptableGameObj@@0@Z ENDP	; SUR_Orca_AI::Death
_TEXT	ENDS
; Function compile flags: /Odtp /ZI
; File x:\github\renegade\dragonade_rxd\scripts\survival.cpp
;	COMDAT ?Created@SUR_Orca_AI@@EAEXPAVScriptableGameObj@@@Z
_TEXT	SEGMENT
_prm$ = -16						; size = 4
_msg$ = -12						; size = 4
_tmpObj$ = -8						; size = 4
_this$ = -4						; size = 4
_obj$ = 8						; size = 4
?Created@SUR_Orca_AI@@EAEXPAVScriptableGameObj@@@Z PROC	; SUR_Orca_AI::Created, COMDAT
; _this$ = ecx

; 626  : {

	push	ebp
	mov	ebp, esp
	sub	esp, 80					; 00000050H
	push	ebx
	push	esi
	push	edi
	mov	DWORD PTR _this$[ebp], ecx

; 627  : 	GameObject *tmpObj;
; 628  : 	int msg;
; 629  : 	int prm;
; 630  : 	msg = 503030; //Bot msg

	mov	DWORD PTR _msg$[ebp], 503030		; 0007acf6H

; 631  : 	prm = 303031; //Orca requesting job instead of soldier

	mov	DWORD PTR _prm$[ebp], 303031		; 00049fb7H

; 632  : 	tmpObj = Commands->Find_Object(Get_Int_Parameter("NHB_ID"));

	push	OFFSET ??_C@_06MPKPIODH@NHB_ID?$AA@
	mov	ecx, DWORD PTR _this$[ebp]
	call	?Get_Int_Parameter@ScriptImpClass@@QAEHPBD@Z ; ScriptImpClass::Get_Int_Parameter
	push	eax
	mov	eax, DWORD PTR ?Commands@@3PAUScriptCommands@@A ; Commands
	mov	ecx, DWORD PTR [eax+96]
	call	ecx
	add	esp, 4
	mov	DWORD PTR _tmpObj$[ebp], eax

; 633  : 	Commands->Send_Custom_Event(obj,tmpObj,msg,prm,0);

	push	ecx
	movss	xmm0, DWORD PTR __real@00000000
	movss	DWORD PTR [esp], xmm0
	mov	eax, DWORD PTR _prm$[ebp]
	push	eax
	mov	ecx, DWORD PTR _msg$[ebp]
	push	ecx
	mov	edx, DWORD PTR _tmpObj$[ebp]
	push	edx
	mov	eax, DWORD PTR _obj$[ebp]
	push	eax
	mov	ecx, DWORD PTR ?Commands@@3PAUScriptCommands@@A ; Commands
	mov	edx, DWORD PTR [ecx+140]
	call	edx
	add	esp, 20					; 00000014H

; 634  : }

	pop	edi
	pop	esi
	pop	ebx
	mov	esp, ebp
	pop	ebp
	ret	4
?Created@SUR_Orca_AI@@EAEXPAVScriptableGameObj@@@Z ENDP	; SUR_Orca_AI::Created
_TEXT	ENDS
; Function compile flags: /Odtp /ZI
;	COMDAT ??_GSUR_APC_AI@@UAEPAXI@Z
_TEXT	SEGMENT
_this$ = -4						; size = 4
___flags$ = 8						; size = 4
??_GSUR_APC_AI@@UAEPAXI@Z PROC				; SUR_APC_AI::`scalar deleting destructor', COMDAT
; _this$ = ecx
	push	ebp
	mov	ebp, esp
	sub	esp, 68					; 00000044H
	push	ebx
	push	esi
	push	edi
	mov	DWORD PTR _this$[ebp], ecx
	mov	ecx, DWORD PTR _this$[ebp]
	call	??1SUR_APC_AI@@UAE@XZ
	mov	eax, DWORD PTR ___flags$[ebp]
	and	eax, 1
	je	SHORT $LN1@scalar
	mov	eax, DWORD PTR _this$[ebp]
	push	eax
	call	??3@YAXPAX@Z				; operator delete
	add	esp, 4
$LN1@scalar:
	mov	eax, DWORD PTR _this$[ebp]
	pop	edi
	pop	esi
	pop	ebx
	mov	esp, ebp
	pop	ebp
	ret	4
??_GSUR_APC_AI@@UAEPAXI@Z ENDP				; SUR_APC_AI::`scalar deleting destructor'
_TEXT	ENDS
; Function compile flags: /Odtp /ZI
;	COMDAT ??1SUR_APC_AI@@UAE@XZ
_TEXT	SEGMENT
_this$ = -4						; size = 4
??1SUR_APC_AI@@UAE@XZ PROC				; SUR_APC_AI::~SUR_APC_AI, COMDAT
; _this$ = ecx
	push	ebp
	mov	ebp, esp
	sub	esp, 68					; 00000044H
	push	ebx
	push	esi
	push	edi
	mov	DWORD PTR _this$[ebp], ecx
	mov	ecx, DWORD PTR _this$[ebp]
	call	??1ScriptImpClass@@UAE@XZ		; ScriptImpClass::~ScriptImpClass
	pop	edi
	pop	esi
	pop	ebx
	mov	esp, ebp
	pop	ebp
	ret	0
??1SUR_APC_AI@@UAE@XZ ENDP				; SUR_APC_AI::~SUR_APC_AI
_TEXT	ENDS
; Function compile flags: /Odtp /ZI
;	COMDAT ??0SUR_APC_AI@@QAE@XZ
_TEXT	SEGMENT
_this$ = -4						; size = 4
??0SUR_APC_AI@@QAE@XZ PROC				; SUR_APC_AI::SUR_APC_AI, COMDAT
; _this$ = ecx
	push	ebp
	mov	ebp, esp
	sub	esp, 68					; 00000044H
	push	ebx
	push	esi
	push	edi
	mov	DWORD PTR _this$[ebp], ecx
	mov	ecx, DWORD PTR _this$[ebp]
	call	??0ScriptImpClass@@QAE@XZ		; ScriptImpClass::ScriptImpClass
	mov	eax, DWORD PTR _this$[ebp]
	mov	DWORD PTR [eax], OFFSET ??_7SUR_APC_AI@@6B@
	mov	eax, DWORD PTR _this$[ebp]
	pop	edi
	pop	esi
	pop	ebx
	mov	esp, ebp
	pop	ebp
	ret	0
??0SUR_APC_AI@@QAE@XZ ENDP				; SUR_APC_AI::SUR_APC_AI
_TEXT	ENDS
; Function compile flags: /Odtp /ZI
; File x:\github\renegade\dragonade_rxd\scripts\survival.cpp
;	COMDAT ?Register_Auto_Save_Variables@SUR_APC_AI@@UAEXXZ
_TEXT	SEGMENT
_this$ = -4						; size = 4
?Register_Auto_Save_Variables@SUR_APC_AI@@UAEXXZ PROC	; SUR_APC_AI::Register_Auto_Save_Variables, COMDAT
; _this$ = ecx

; 594  : {

	push	ebp
	mov	ebp, esp
	sub	esp, 68					; 00000044H
	push	ebx
	push	esi
	push	edi
	mov	DWORD PTR _this$[ebp], ecx

; 595  : 	Auto_Save_Variable(&aiCount,4,1);

	push	1
	push	4
	mov	eax, DWORD PTR _this$[ebp]
	add	eax, 28					; 0000001cH
	push	eax
	mov	ecx, DWORD PTR _this$[ebp]
	call	?Auto_Save_Variable@ScriptImpClass@@QAEXPAXHH@Z ; ScriptImpClass::Auto_Save_Variable

; 596  : }

	pop	edi
	pop	esi
	pop	ebx
	mov	esp, ebp
	pop	ebp
	ret	0
?Register_Auto_Save_Variables@SUR_APC_AI@@UAEXXZ ENDP	; SUR_APC_AI::Register_Auto_Save_Variables
_TEXT	ENDS
; Function compile flags: /Odtp /ZI
; File x:\github\renegade\dragonade_rxd\scripts\survival.cpp
;	COMDAT ?Custom@SUR_APC_AI@@EAEXPAVScriptableGameObj@@HH0@Z
_TEXT	SEGMENT
$T1 = -108						; size = 12
_i$2 = -32						; size = 4
_rpos$ = -28						; size = 12
_posM$ = -16						; size = 12
_this$ = -4						; size = 4
_obj$ = 8						; size = 4
_type$ = 12						; size = 4
_param$ = 16						; size = 4
_sender$ = 20						; size = 4
?Custom@SUR_APC_AI@@EAEXPAVScriptableGameObj@@HH0@Z PROC ; SUR_APC_AI::Custom, COMDAT
; _this$ = ecx

; 568  : {

	push	ebp
	mov	ebp, esp
	sub	esp, 108				; 0000006cH
	push	ebx
	push	esi
	push	edi
	mov	DWORD PTR _this$[ebp], ecx

; 569  : 	Vector3 posM;

	lea	ecx, DWORD PTR _posM$[ebp]
	call	??0Vector3@@QAE@XZ			; Vector3::Vector3

; 570  : 	Vector3 rpos;

	lea	ecx, DWORD PTR _rpos$[ebp]
	call	??0Vector3@@QAE@XZ			; Vector3::Vector3

; 571  : 	if (type != 503040)

	cmp	DWORD PTR _type$[ebp], 503040		; 0007ad00H
	je	SHORT $LN6@Custom

; 572  : 		return;

	jmp	$LN7@Custom
$LN6@Custom:

; 573  : 	if (param == 202020)

	cmp	DWORD PTR _param$[ebp], 202020		; 00031524H
	jne	$LN5@Custom

; 574  : 	{
; 575  : 		//Drop the bots.
; 576  : 		posM = Commands->Get_Position(obj); //Get our position

	mov	eax, DWORD PTR _obj$[ebp]
	push	eax
	lea	ecx, DWORD PTR $T1[ebp]
	push	ecx
	mov	edx, DWORD PTR ?Commands@@3PAUScriptCommands@@A ; Commands
	mov	eax, DWORD PTR [edx+64]
	call	eax
	add	esp, 8
	push	eax
	lea	ecx, DWORD PTR _posM$[ebp]
	call	??4Vector3@@QAEAAV0@ABV0@@Z		; Vector3::operator=

; 577  : 		for (int i=1; i <= aiCount; i++)

	mov	DWORD PTR _i$2[ebp], 1
	jmp	SHORT $LN4@Custom
$LN3@Custom:
	mov	eax, DWORD PTR _i$2[ebp]
	add	eax, 1
	mov	DWORD PTR _i$2[ebp], eax
$LN4@Custom:
	mov	eax, DWORD PTR _this$[ebp]
	mov	ecx, DWORD PTR _i$2[ebp]
	cmp	ecx, DWORD PTR [eax+28]
	jg	SHORT $LN2@Custom

; 578  : 		{
; 579  : 			rpos.X = posM.X + (5*i);

	mov	eax, DWORD PTR _i$2[ebp]
	imul	eax, 5
	cvtsi2ss xmm0, eax
	addss	xmm0, DWORD PTR _posM$[ebp]
	movss	DWORD PTR _rpos$[ebp], xmm0

; 580  : 			rpos.Y = posM.Y + 10;

	movss	xmm0, DWORD PTR _posM$[ebp+4]
	addss	xmm0, DWORD PTR __real@41200000
	movss	DWORD PTR _rpos$[ebp+4], xmm0

; 581  : 			rpos.Z = posM.Z + 2;

	movss	xmm0, DWORD PTR _posM$[ebp+8]
	addss	xmm0, DWORD PTR __real@40000000
	movss	DWORD PTR _rpos$[ebp+8], xmm0

; 582  : 			Commands->Create_Object(Get_Parameter("Preset_To_Create"),rpos);

	lea	eax, DWORD PTR _rpos$[ebp]
	push	eax
	push	OFFSET ??_C@_0BB@JLAIOFF@Preset_To_Create?$AA@
	mov	ecx, DWORD PTR _this$[ebp]
	call	?Get_Parameter@ScriptImpClass@@QAEPBDPBD@Z ; ScriptImpClass::Get_Parameter
	push	eax
	mov	ecx, DWORD PTR ?Commands@@3PAUScriptCommands@@A ; Commands
	mov	edx, DWORD PTR [ecx+100]
	call	edx
	add	esp, 8

; 583  : 		}

	jmp	SHORT $LN3@Custom
$LN2@Custom:

; 584  : 		Commands->Attach_Script(obj,"JFW_Base_Defense","0,300,10");

	push	OFFSET ??_C@_08LFMFPFKM@0?0300?010?$AA@
	push	OFFSET ??_C@_0BB@LNLDLMKA@JFW_Base_Defense?$AA@
	mov	eax, DWORD PTR _obj$[ebp]
	push	eax
	mov	ecx, DWORD PTR ?Commands@@3PAUScriptCommands@@A ; Commands
	mov	edx, DWORD PTR [ecx+120]
	call	edx
	add	esp, 12					; 0000000cH

; 585  : 	}
; 586  : 	else

	jmp	SHORT $LN1@Custom
$LN5@Custom:

; 587  : 	{
; 588  : //		Commands->Send_Console_Message_Int(param,"Recieved Load Count: %d ");
; 589  : 		aiCount = param;

	mov	eax, DWORD PTR _this$[ebp]
	mov	ecx, DWORD PTR _param$[ebp]
	mov	DWORD PTR [eax+28], ecx
$LN1@Custom:
$LN7@Custom:

; 590  : 	}
; 591  : }

	pop	edi
	pop	esi
	pop	ebx
	mov	esp, ebp
	pop	ebp
	ret	16					; 00000010H
?Custom@SUR_APC_AI@@EAEXPAVScriptableGameObj@@HH0@Z ENDP ; SUR_APC_AI::Custom
_TEXT	ENDS
; Function compile flags: /Odtp /ZI
; File x:\github\renegade\dragonade_rxd\scripts\survival.cpp
;	COMDAT ?Created@SUR_APC_AI@@EAEXPAVScriptableGameObj@@@Z
_TEXT	SEGMENT
_prm$ = -16						; size = 4
_msg$ = -12						; size = 4
_tmpObj$ = -8						; size = 4
_this$ = -4						; size = 4
_obj$ = 8						; size = 4
?Created@SUR_APC_AI@@EAEXPAVScriptableGameObj@@@Z PROC	; SUR_APC_AI::Created, COMDAT
; _this$ = ecx

; 557  : {

	push	ebp
	mov	ebp, esp
	sub	esp, 80					; 00000050H
	push	ebx
	push	esi
	push	edi
	mov	DWORD PTR _this$[ebp], ecx

; 558  : 	GameObject *tmpObj;
; 559  : 	int msg;
; 560  : 	int prm;
; 561  : 	msg = 503030; //Bot msg

	mov	DWORD PTR _msg$[ebp], 503030		; 0007acf6H

; 562  : 	prm = 302031; //APC requesting job instead of soldier

	mov	DWORD PTR _prm$[ebp], 302031		; 00049bcfH

; 563  : 	tmpObj = Commands->Find_Object(Get_Int_Parameter("NHB_ID"));

	push	OFFSET ??_C@_06MPKPIODH@NHB_ID?$AA@
	mov	ecx, DWORD PTR _this$[ebp]
	call	?Get_Int_Parameter@ScriptImpClass@@QAEHPBD@Z ; ScriptImpClass::Get_Int_Parameter
	push	eax
	mov	eax, DWORD PTR ?Commands@@3PAUScriptCommands@@A ; Commands
	mov	ecx, DWORD PTR [eax+96]
	call	ecx
	add	esp, 4
	mov	DWORD PTR _tmpObj$[ebp], eax

; 564  : 	Commands->Send_Custom_Event(obj,tmpObj,msg,prm,0);

	push	ecx
	movss	xmm0, DWORD PTR __real@00000000
	movss	DWORD PTR [esp], xmm0
	mov	eax, DWORD PTR _prm$[ebp]
	push	eax
	mov	ecx, DWORD PTR _msg$[ebp]
	push	ecx
	mov	edx, DWORD PTR _tmpObj$[ebp]
	push	edx
	mov	eax, DWORD PTR _obj$[ebp]
	push	eax
	mov	ecx, DWORD PTR ?Commands@@3PAUScriptCommands@@A ; Commands
	mov	edx, DWORD PTR [ecx+140]
	call	edx
	add	esp, 20					; 00000014H

; 565  : }

	pop	edi
	pop	esi
	pop	ebx
	mov	esp, ebp
	pop	ebp
	ret	4
?Created@SUR_APC_AI@@EAEXPAVScriptableGameObj@@@Z ENDP	; SUR_APC_AI::Created
_TEXT	ENDS
; Function compile flags: /Odtp /ZI
;	COMDAT ??_GSUR_New_PT_Reciever@@UAEPAXI@Z
_TEXT	SEGMENT
_this$ = -4						; size = 4
___flags$ = 8						; size = 4
??_GSUR_New_PT_Reciever@@UAEPAXI@Z PROC			; SUR_New_PT_Reciever::`scalar deleting destructor', COMDAT
; _this$ = ecx
	push	ebp
	mov	ebp, esp
	sub	esp, 68					; 00000044H
	push	ebx
	push	esi
	push	edi
	mov	DWORD PTR _this$[ebp], ecx
	mov	ecx, DWORD PTR _this$[ebp]
	call	??1SUR_New_PT_Reciever@@UAE@XZ
	mov	eax, DWORD PTR ___flags$[ebp]
	and	eax, 1
	je	SHORT $LN1@scalar
	mov	eax, DWORD PTR _this$[ebp]
	push	eax
	call	??3@YAXPAX@Z				; operator delete
	add	esp, 4
$LN1@scalar:
	mov	eax, DWORD PTR _this$[ebp]
	pop	edi
	pop	esi
	pop	ebx
	mov	esp, ebp
	pop	ebp
	ret	4
??_GSUR_New_PT_Reciever@@UAEPAXI@Z ENDP			; SUR_New_PT_Reciever::`scalar deleting destructor'
_TEXT	ENDS
; Function compile flags: /Odtp /ZI
;	COMDAT ??1SUR_New_PT_Reciever@@UAE@XZ
_TEXT	SEGMENT
_this$ = -4						; size = 4
??1SUR_New_PT_Reciever@@UAE@XZ PROC			; SUR_New_PT_Reciever::~SUR_New_PT_Reciever, COMDAT
; _this$ = ecx
	push	ebp
	mov	ebp, esp
	sub	esp, 68					; 00000044H
	push	ebx
	push	esi
	push	edi
	mov	DWORD PTR _this$[ebp], ecx
	mov	ecx, DWORD PTR _this$[ebp]
	call	??1ScriptImpClass@@UAE@XZ		; ScriptImpClass::~ScriptImpClass
	pop	edi
	pop	esi
	pop	ebx
	mov	esp, ebp
	pop	ebp
	ret	0
??1SUR_New_PT_Reciever@@UAE@XZ ENDP			; SUR_New_PT_Reciever::~SUR_New_PT_Reciever
_TEXT	ENDS
; Function compile flags: /Odtp /ZI
;	COMDAT ??0SUR_New_PT_Reciever@@QAE@XZ
_TEXT	SEGMENT
_this$ = -4						; size = 4
??0SUR_New_PT_Reciever@@QAE@XZ PROC			; SUR_New_PT_Reciever::SUR_New_PT_Reciever, COMDAT
; _this$ = ecx
	push	ebp
	mov	ebp, esp
	sub	esp, 68					; 00000044H
	push	ebx
	push	esi
	push	edi
	mov	DWORD PTR _this$[ebp], ecx
	mov	ecx, DWORD PTR _this$[ebp]
	call	??0ScriptImpClass@@QAE@XZ		; ScriptImpClass::ScriptImpClass
	mov	eax, DWORD PTR _this$[ebp]
	mov	DWORD PTR [eax], OFFSET ??_7SUR_New_PT_Reciever@@6B@
	mov	eax, DWORD PTR _this$[ebp]
	pop	edi
	pop	esi
	pop	ebx
	mov	esp, ebp
	pop	ebp
	ret	0
??0SUR_New_PT_Reciever@@QAE@XZ ENDP			; SUR_New_PT_Reciever::SUR_New_PT_Reciever
_TEXT	ENDS
; Function compile flags: /Odtp /ZI
; File x:\github\renegade\dragonade_rxd\scripts\survival.cpp
;	COMDAT ?Custom@SUR_New_PT_Reciever@@EAEXPAVScriptableGameObj@@HH0@Z
_TEXT	SEGMENT
$T1 = -104						; size = 12
_e$ = -28						; size = 4
_rot$ = -24						; size = 4
_res$ = -20						; size = 4
_pos$ = -16						; size = 12
_this$ = -4						; size = 4
_obj$ = 8						; size = 4
_type$ = 12						; size = 4
_param$ = 16						; size = 4
_sender$ = 20						; size = 4
?Custom@SUR_New_PT_Reciever@@EAEXPAVScriptableGameObj@@HH0@Z PROC ; SUR_New_PT_Reciever::Custom, COMDAT
; _this$ = ecx

; 537  : {

	push	ebp
	mov	ebp, esp
	sub	esp, 104				; 00000068H
	push	ebx
	push	esi
	push	edi
	mov	DWORD PTR _this$[ebp], ecx

; 538  : 	Vector3 pos;

	lea	ecx, DWORD PTR _pos$[ebp]
	call	??0Vector3@@QAE@XZ			; Vector3::Vector3

; 539  : 	GameObject *res;
; 540  : 	float rot;
; 541  : 	int e;
; 542  : 	e = Get_Int_Parameter("Message");

	push	OFFSET ??_C@_07BEIHKDLJ@Message?$AA@
	mov	ecx, DWORD PTR _this$[ebp]
	call	?Get_Int_Parameter@ScriptImpClass@@QAEHPBD@Z ; ScriptImpClass::Get_Int_Parameter
	mov	DWORD PTR _e$[ebp], eax

; 543  : 	if (type == e)

	mov	eax, DWORD PTR _type$[ebp]
	cmp	eax, DWORD PTR _e$[ebp]
	jne	SHORT $LN1@Custom

; 544  : 	{
; 545  : 		rot = Commands->Get_Facing(obj); //Get our rotation

	mov	eax, DWORD PTR _obj$[ebp]
	push	eax
	mov	ecx, DWORD PTR ?Commands@@3PAUScriptCommands@@A ; Commands
	mov	edx, DWORD PTR [ecx+72]
	call	edx
	add	esp, 4
	fstp	DWORD PTR _rot$[ebp]

; 546  : 		pos = Commands->Get_Position(obj); //Get our position

	mov	eax, DWORD PTR _obj$[ebp]
	push	eax
	lea	ecx, DWORD PTR $T1[ebp]
	push	ecx
	mov	edx, DWORD PTR ?Commands@@3PAUScriptCommands@@A ; Commands
	mov	eax, DWORD PTR [edx+64]
	call	eax
	add	esp, 8
	push	eax
	lea	ecx, DWORD PTR _pos$[ebp]
	call	??4Vector3@@QAEAAV0@ABV0@@Z		; Vector3::operator=

; 547  : 
; 548  : 		res = Commands->Create_Object(Get_Parameter("Preset_Name"),pos);

	lea	eax, DWORD PTR _pos$[ebp]
	push	eax
	push	OFFSET ??_C@_0M@KBNHOJJA@Preset_Name?$AA@
	mov	ecx, DWORD PTR _this$[ebp]
	call	?Get_Parameter@ScriptImpClass@@QAEPBDPBD@Z ; ScriptImpClass::Get_Parameter
	push	eax
	mov	ecx, DWORD PTR ?Commands@@3PAUScriptCommands@@A ; Commands
	mov	edx, DWORD PTR [ecx+100]
	call	edx
	add	esp, 8
	mov	DWORD PTR _res$[ebp], eax

; 549  : 		Commands->Set_Facing(res,rot);

	push	ecx
	movss	xmm0, DWORD PTR _rot$[ebp]
	movss	DWORD PTR [esp], xmm0
	mov	eax, DWORD PTR _res$[ebp]
	push	eax
	mov	ecx, DWORD PTR ?Commands@@3PAUScriptCommands@@A ; Commands
	mov	edx, DWORD PTR [ecx+76]
	call	edx
	add	esp, 8
$LN1@Custom:

; 550  : 	}
; 551  : }

	pop	edi
	pop	esi
	pop	ebx
	mov	esp, ebp
	pop	ebp
	ret	16					; 00000010H
?Custom@SUR_New_PT_Reciever@@EAEXPAVScriptableGameObj@@HH0@Z ENDP ; SUR_New_PT_Reciever::Custom
_TEXT	ENDS
; Function compile flags: /Odtp /ZI
;	COMDAT ??_GSUR_New_PT@@UAEPAXI@Z
_TEXT	SEGMENT
_this$ = -4						; size = 4
___flags$ = 8						; size = 4
??_GSUR_New_PT@@UAEPAXI@Z PROC				; SUR_New_PT::`scalar deleting destructor', COMDAT
; _this$ = ecx
	push	ebp
	mov	ebp, esp
	sub	esp, 68					; 00000044H
	push	ebx
	push	esi
	push	edi
	mov	DWORD PTR _this$[ebp], ecx
	mov	ecx, DWORD PTR _this$[ebp]
	call	??1SUR_New_PT@@UAE@XZ
	mov	eax, DWORD PTR ___flags$[ebp]
	and	eax, 1
	je	SHORT $LN1@scalar
	mov	eax, DWORD PTR _this$[ebp]
	push	eax
	call	??3@YAXPAX@Z				; operator delete
	add	esp, 4
$LN1@scalar:
	mov	eax, DWORD PTR _this$[ebp]
	pop	edi
	pop	esi
	pop	ebx
	mov	esp, ebp
	pop	ebp
	ret	4
??_GSUR_New_PT@@UAEPAXI@Z ENDP				; SUR_New_PT::`scalar deleting destructor'
_TEXT	ENDS
; Function compile flags: /Odtp /ZI
;	COMDAT ??1SUR_New_PT@@UAE@XZ
_TEXT	SEGMENT
_this$ = -4						; size = 4
??1SUR_New_PT@@UAE@XZ PROC				; SUR_New_PT::~SUR_New_PT, COMDAT
; _this$ = ecx
	push	ebp
	mov	ebp, esp
	sub	esp, 68					; 00000044H
	push	ebx
	push	esi
	push	edi
	mov	DWORD PTR _this$[ebp], ecx
	mov	ecx, DWORD PTR _this$[ebp]
	call	??1ScriptImpClass@@UAE@XZ		; ScriptImpClass::~ScriptImpClass
	pop	edi
	pop	esi
	pop	ebx
	mov	esp, ebp
	pop	ebp
	ret	0
??1SUR_New_PT@@UAE@XZ ENDP				; SUR_New_PT::~SUR_New_PT
_TEXT	ENDS
; Function compile flags: /Odtp /ZI
;	COMDAT ??0SUR_New_PT@@QAE@XZ
_TEXT	SEGMENT
_this$ = -4						; size = 4
??0SUR_New_PT@@QAE@XZ PROC				; SUR_New_PT::SUR_New_PT, COMDAT
; _this$ = ecx
	push	ebp
	mov	ebp, esp
	sub	esp, 68					; 00000044H
	push	ebx
	push	esi
	push	edi
	mov	DWORD PTR _this$[ebp], ecx
	mov	ecx, DWORD PTR _this$[ebp]
	call	??0ScriptImpClass@@QAE@XZ		; ScriptImpClass::ScriptImpClass
	mov	eax, DWORD PTR _this$[ebp]
	mov	DWORD PTR [eax], OFFSET ??_7SUR_New_PT@@6B@
	mov	eax, DWORD PTR _this$[ebp]
	pop	edi
	pop	esi
	pop	ebx
	mov	esp, ebp
	pop	ebp
	ret	0
??0SUR_New_PT@@QAE@XZ ENDP				; SUR_New_PT::SUR_New_PT
_TEXT	ENDS
; Function compile flags: /Odtp /ZI
; File x:\github\renegade\dragonade_rxd\scripts\survival.cpp
;	COMDAT ?Custom@SUR_New_PT@@EAEXPAVScriptableGameObj@@HH0@Z
_TEXT	SEGMENT
$T1 = -212						; size = 12
_rot$ = -136						; size = 4
_sparam$ = -132						; size = 100
_name$ = -32						; size = 4
_prm$ = -28						; size = 4
_msg$ = -24						; size = 4
_res$ = -20						; size = 4
_pos$ = -16						; size = 12
_this$ = -4						; size = 4
_obj$ = 8						; size = 4
_type$ = 12						; size = 4
_param$ = 16						; size = 4
_sender$ = 20						; size = 4
?Custom@SUR_New_PT@@EAEXPAVScriptableGameObj@@HH0@Z PROC ; SUR_New_PT::Custom, COMDAT
; _this$ = ecx

; 508  : {

	push	ebp
	mov	ebp, esp
	sub	esp, 212				; 000000d4H
	push	ebx
	push	esi
	push	edi
	mov	DWORD PTR _this$[ebp], ecx

; 509  : 	Vector3 pos;

	lea	ecx, DWORD PTR _pos$[ebp]
	call	??0Vector3@@QAE@XZ			; Vector3::Vector3

; 510  : 	GameObject *res;
; 511  : 	int msg;
; 512  : 	int prm;
; 513  : 	const char *name;
; 514  : 	char sparam[100];
; 515  : 	float rot;
; 516  : 	msg = Get_Int_Parameter("Message");

	push	OFFSET ??_C@_07BEIHKDLJ@Message?$AA@
	mov	ecx, DWORD PTR _this$[ebp]
	call	?Get_Int_Parameter@ScriptImpClass@@QAEHPBD@Z ; ScriptImpClass::Get_Int_Parameter
	mov	DWORD PTR _msg$[ebp], eax

; 517  : 	prm = 0;

	mov	DWORD PTR _prm$[ebp], 0

; 518  : 	res = Commands->Find_Object(Get_Int_Parameter("Marker_ID"));

	push	OFFSET ??_C@_09PIPGAOHA@Marker_ID?$AA@
	mov	ecx, DWORD PTR _this$[ebp]
	call	?Get_Int_Parameter@ScriptImpClass@@QAEHPBD@Z ; ScriptImpClass::Get_Int_Parameter
	push	eax
	mov	eax, DWORD PTR ?Commands@@3PAUScriptCommands@@A ; Commands
	mov	ecx, DWORD PTR [eax+96]
	call	ecx
	add	esp, 4
	mov	DWORD PTR _res$[ebp], eax

; 519  : 	if (type == CUSTOM_EVENT_VEHICLE_ENTERED)

	cmp	DWORD PTR _type$[ebp], 1000000028	; 3b9aca1cH
	jne	$LN1@Custom

; 520  : 	{
; 521  : 		Commands->Send_Custom_Event(obj,res,msg,prm,0);

	push	ecx
	movss	xmm0, DWORD PTR __real@00000000
	movss	DWORD PTR [esp], xmm0
	mov	eax, DWORD PTR _prm$[ebp]
	push	eax
	mov	ecx, DWORD PTR _msg$[ebp]
	push	ecx
	mov	edx, DWORD PTR _res$[ebp]
	push	edx
	mov	eax, DWORD PTR _obj$[ebp]
	push	eax
	mov	ecx, DWORD PTR ?Commands@@3PAUScriptCommands@@A ; Commands
	mov	edx, DWORD PTR [ecx+140]
	call	edx
	add	esp, 20					; 00000014H

; 522  : 
; 523  : 		rot = Commands->Get_Facing(obj); //Get the terminal's rotation

	mov	eax, DWORD PTR _obj$[ebp]
	push	eax
	mov	ecx, DWORD PTR ?Commands@@3PAUScriptCommands@@A ; Commands
	mov	edx, DWORD PTR [ecx+72]
	call	edx
	add	esp, 4
	fstp	DWORD PTR _rot$[ebp]

; 524  : 		pos = Commands->Get_Position(obj); //Get the terminal's position

	mov	eax, DWORD PTR _obj$[ebp]
	push	eax
	lea	ecx, DWORD PTR $T1[ebp]
	push	ecx
	mov	edx, DWORD PTR ?Commands@@3PAUScriptCommands@@A ; Commands
	mov	eax, DWORD PTR [edx+64]
	call	eax
	add	esp, 8
	push	eax
	lea	ecx, DWORD PTR _pos$[ebp]
	call	??4Vector3@@QAEAAV0@ABV0@@Z		; Vector3::operator=

; 525  : 		name = Commands->Get_Preset_Name(obj); //Get the terminal's preset name

	mov	eax, DWORD PTR _obj$[ebp]
	push	eax
	mov	ecx, DWORD PTR ?Commands@@3PAUScriptCommands@@A ; Commands
	mov	edx, DWORD PTR [ecx+116]
	call	edx
	add	esp, 4
	mov	DWORD PTR _name$[ebp], eax

; 526  : 		sprintf(sparam,"%d,%d",Get_Int_Parameter("Marker_ID"),Get_Int_Parameter("Message")); //Get the parameter

	push	OFFSET ??_C@_07BEIHKDLJ@Message?$AA@
	mov	ecx, DWORD PTR _this$[ebp]
	call	?Get_Int_Parameter@ScriptImpClass@@QAEHPBD@Z ; ScriptImpClass::Get_Int_Parameter
	push	eax
	push	OFFSET ??_C@_09PIPGAOHA@Marker_ID?$AA@
	mov	ecx, DWORD PTR _this$[ebp]
	call	?Get_Int_Parameter@ScriptImpClass@@QAEHPBD@Z ; ScriptImpClass::Get_Int_Parameter
	push	eax
	push	OFFSET ??_C@_05KABNCBHK@?$CFd?0?$CFd?$AA@
	lea	eax, DWORD PTR _sparam$[ebp]
	push	eax
	call	DWORD PTR __imp__sprintf
	add	esp, 16					; 00000010H

; 527  : 
; 528  : 		Commands->Apply_Damage(obj,9999,"BlamoKiller",0); //Kill the terminal

	push	0
	push	OFFSET ??_C@_0M@IPKOBAPD@BlamoKiller?$AA@
	push	ecx
	movss	xmm0, DWORD PTR __real@461c3c00
	movss	DWORD PTR [esp], xmm0
	mov	eax, DWORD PTR _obj$[ebp]
	push	eax
	mov	ecx, DWORD PTR ?Commands@@3PAUScriptCommands@@A ; Commands
	mov	edx, DWORD PTR [ecx+616]
	call	edx
	add	esp, 16					; 00000010H

; 529  : 
; 530  : 		res = Commands->Create_Object(name,pos);

	lea	eax, DWORD PTR _pos$[ebp]
	push	eax
	mov	ecx, DWORD PTR _name$[ebp]
	push	ecx
	mov	edx, DWORD PTR ?Commands@@3PAUScriptCommands@@A ; Commands
	mov	eax, DWORD PTR [edx+100]
	call	eax
	add	esp, 8
	mov	DWORD PTR _res$[ebp], eax

; 531  : 		Commands->Set_Facing(res,rot);

	push	ecx
	movss	xmm0, DWORD PTR _rot$[ebp]
	movss	DWORD PTR [esp], xmm0
	mov	eax, DWORD PTR _res$[ebp]
	push	eax
	mov	ecx, DWORD PTR ?Commands@@3PAUScriptCommands@@A ; Commands
	mov	edx, DWORD PTR [ecx+76]
	call	edx
	add	esp, 8

; 532  : 		Commands->Attach_Script(res,"SUR_New_PT",sparam);

	lea	eax, DWORD PTR _sparam$[ebp]
	push	eax
	push	OFFSET ??_C@_0L@NMEBDFKG@SUR_New_PT?$AA@
	mov	ecx, DWORD PTR _res$[ebp]
	push	ecx
	mov	edx, DWORD PTR ?Commands@@3PAUScriptCommands@@A ; Commands
	mov	eax, DWORD PTR [edx+120]
	call	eax
	add	esp, 12					; 0000000cH
$LN1@Custom:

; 533  : 	}
; 534  : }

	pop	edi
	pop	esi
	pop	ebx
	mov	esp, ebp
	pop	ebp
	ret	16					; 00000010H
?Custom@SUR_New_PT@@EAEXPAVScriptableGameObj@@HH0@Z ENDP ; SUR_New_PT::Custom
_TEXT	ENDS
; Function compile flags: /Odtp /ZI
;	COMDAT ??_GSUR_Obj_Destroyer@@UAEPAXI@Z
_TEXT	SEGMENT
_this$ = -4						; size = 4
___flags$ = 8						; size = 4
??_GSUR_Obj_Destroyer@@UAEPAXI@Z PROC			; SUR_Obj_Destroyer::`scalar deleting destructor', COMDAT
; _this$ = ecx
	push	ebp
	mov	ebp, esp
	sub	esp, 68					; 00000044H
	push	ebx
	push	esi
	push	edi
	mov	DWORD PTR _this$[ebp], ecx
	mov	ecx, DWORD PTR _this$[ebp]
	call	??1SUR_Obj_Destroyer@@UAE@XZ
	mov	eax, DWORD PTR ___flags$[ebp]
	and	eax, 1
	je	SHORT $LN1@scalar
	mov	eax, DWORD PTR _this$[ebp]
	push	eax
	call	??3@YAXPAX@Z				; operator delete
	add	esp, 4
$LN1@scalar:
	mov	eax, DWORD PTR _this$[ebp]
	pop	edi
	pop	esi
	pop	ebx
	mov	esp, ebp
	pop	ebp
	ret	4
??_GSUR_Obj_Destroyer@@UAEPAXI@Z ENDP			; SUR_Obj_Destroyer::`scalar deleting destructor'
_TEXT	ENDS
; Function compile flags: /Odtp /ZI
;	COMDAT ??1SUR_Obj_Destroyer@@UAE@XZ
_TEXT	SEGMENT
_this$ = -4						; size = 4
??1SUR_Obj_Destroyer@@UAE@XZ PROC			; SUR_Obj_Destroyer::~SUR_Obj_Destroyer, COMDAT
; _this$ = ecx
	push	ebp
	mov	ebp, esp
	sub	esp, 68					; 00000044H
	push	ebx
	push	esi
	push	edi
	mov	DWORD PTR _this$[ebp], ecx
	mov	ecx, DWORD PTR _this$[ebp]
	call	??1ScriptImpClass@@UAE@XZ		; ScriptImpClass::~ScriptImpClass
	pop	edi
	pop	esi
	pop	ebx
	mov	esp, ebp
	pop	ebp
	ret	0
??1SUR_Obj_Destroyer@@UAE@XZ ENDP			; SUR_Obj_Destroyer::~SUR_Obj_Destroyer
_TEXT	ENDS
; Function compile flags: /Odtp /ZI
;	COMDAT ??0SUR_Obj_Destroyer@@QAE@XZ
_TEXT	SEGMENT
_this$ = -4						; size = 4
??0SUR_Obj_Destroyer@@QAE@XZ PROC			; SUR_Obj_Destroyer::SUR_Obj_Destroyer, COMDAT
; _this$ = ecx
	push	ebp
	mov	ebp, esp
	sub	esp, 68					; 00000044H
	push	ebx
	push	esi
	push	edi
	mov	DWORD PTR _this$[ebp], ecx
	mov	ecx, DWORD PTR _this$[ebp]
	call	??0ScriptImpClass@@QAE@XZ		; ScriptImpClass::ScriptImpClass
	mov	eax, DWORD PTR _this$[ebp]
	mov	DWORD PTR [eax], OFFSET ??_7SUR_Obj_Destroyer@@6B@
	mov	eax, DWORD PTR _this$[ebp]
	pop	edi
	pop	esi
	pop	ebx
	mov	esp, ebp
	pop	ebp
	ret	0
??0SUR_Obj_Destroyer@@QAE@XZ ENDP			; SUR_Obj_Destroyer::SUR_Obj_Destroyer
_TEXT	ENDS
; Function compile flags: /Odtp /ZI
; File x:\github\renegade\dragonade_rxd\scripts\survival.cpp
;	COMDAT ?Death@SUR_Obj_Destroyer@@AAEXPAVScriptableGameObj@@0@Z
_TEXT	SEGMENT
_tmpObj$ = -8						; size = 4
_this$ = -4						; size = 4
_obj$ = 8						; size = 4
_killer$ = 12						; size = 4
?Death@SUR_Obj_Destroyer@@AAEXPAVScriptableGameObj@@0@Z PROC ; SUR_Obj_Destroyer::Death, COMDAT
; _this$ = ecx

; 499  : {

	push	ebp
	mov	ebp, esp
	sub	esp, 72					; 00000048H
	push	ebx
	push	esi
	push	edi
	mov	DWORD PTR _this$[ebp], ecx

; 500  : 	GameObject *tmpObj;
; 501  : 	tmpObj = Commands->Find_Object(Get_Int_Parameter("ID"));

	push	OFFSET ??_C@_02OLOABKKD@ID?$AA@
	mov	ecx, DWORD PTR _this$[ebp]
	call	?Get_Int_Parameter@ScriptImpClass@@QAEHPBD@Z ; ScriptImpClass::Get_Int_Parameter
	push	eax
	mov	eax, DWORD PTR ?Commands@@3PAUScriptCommands@@A ; Commands
	mov	ecx, DWORD PTR [eax+96]
	call	ecx
	add	esp, 4
	mov	DWORD PTR _tmpObj$[ebp], eax

; 502  : 	Commands->Apply_Damage(tmpObj,9999,"Explosive",0);

	push	0
	push	OFFSET ??_C@_09IGNDJJLI@Explosive?$AA@
	push	ecx
	movss	xmm0, DWORD PTR __real@461c3c00
	movss	DWORD PTR [esp], xmm0
	mov	eax, DWORD PTR _tmpObj$[ebp]
	push	eax
	mov	ecx, DWORD PTR ?Commands@@3PAUScriptCommands@@A ; Commands
	mov	edx, DWORD PTR [ecx+616]
	call	edx
	add	esp, 16					; 00000010H

; 503  : }

	pop	edi
	pop	esi
	pop	ebx
	mov	esp, ebp
	pop	ebp
	ret	8
?Death@SUR_Obj_Destroyer@@AAEXPAVScriptableGameObj@@0@Z ENDP ; SUR_Obj_Destroyer::Death
_TEXT	ENDS
; Function compile flags: /Odtp /ZI
;	COMDAT ??_GSUR_NHB_Soldier@@UAEPAXI@Z
_TEXT	SEGMENT
_this$ = -4						; size = 4
___flags$ = 8						; size = 4
??_GSUR_NHB_Soldier@@UAEPAXI@Z PROC			; SUR_NHB_Soldier::`scalar deleting destructor', COMDAT
; _this$ = ecx
	push	ebp
	mov	ebp, esp
	sub	esp, 68					; 00000044H
	push	ebx
	push	esi
	push	edi
	mov	DWORD PTR _this$[ebp], ecx
	mov	ecx, DWORD PTR _this$[ebp]
	call	??1SUR_NHB_Soldier@@UAE@XZ
	mov	eax, DWORD PTR ___flags$[ebp]
	and	eax, 1
	je	SHORT $LN1@scalar
	mov	eax, DWORD PTR _this$[ebp]
	push	eax
	call	??3@YAXPAX@Z				; operator delete
	add	esp, 4
$LN1@scalar:
	mov	eax, DWORD PTR _this$[ebp]
	pop	edi
	pop	esi
	pop	ebx
	mov	esp, ebp
	pop	ebp
	ret	4
??_GSUR_NHB_Soldier@@UAEPAXI@Z ENDP			; SUR_NHB_Soldier::`scalar deleting destructor'
_TEXT	ENDS
; Function compile flags: /Odtp /ZI
;	COMDAT ??1SUR_NHB_Soldier@@UAE@XZ
_TEXT	SEGMENT
_this$ = -4						; size = 4
??1SUR_NHB_Soldier@@UAE@XZ PROC				; SUR_NHB_Soldier::~SUR_NHB_Soldier, COMDAT
; _this$ = ecx
	push	ebp
	mov	ebp, esp
	sub	esp, 68					; 00000044H
	push	ebx
	push	esi
	push	edi
	mov	DWORD PTR _this$[ebp], ecx
	mov	ecx, DWORD PTR _this$[ebp]
	call	??1ScriptImpClass@@UAE@XZ		; ScriptImpClass::~ScriptImpClass
	pop	edi
	pop	esi
	pop	ebx
	mov	esp, ebp
	pop	ebp
	ret	0
??1SUR_NHB_Soldier@@UAE@XZ ENDP				; SUR_NHB_Soldier::~SUR_NHB_Soldier
_TEXT	ENDS
; Function compile flags: /Odtp /ZI
;	COMDAT ??0SUR_NHB_Soldier@@QAE@XZ
_TEXT	SEGMENT
_this$ = -4						; size = 4
??0SUR_NHB_Soldier@@QAE@XZ PROC				; SUR_NHB_Soldier::SUR_NHB_Soldier, COMDAT
; _this$ = ecx
	push	ebp
	mov	ebp, esp
	sub	esp, 68					; 00000044H
	push	ebx
	push	esi
	push	edi
	mov	DWORD PTR _this$[ebp], ecx
	mov	ecx, DWORD PTR _this$[ebp]
	call	??0ScriptImpClass@@QAE@XZ		; ScriptImpClass::ScriptImpClass
	mov	eax, DWORD PTR _this$[ebp]
	mov	DWORD PTR [eax], OFFSET ??_7SUR_NHB_Soldier@@6B@
	mov	ecx, DWORD PTR _this$[ebp]
	add	ecx, 32					; 00000020H
	call	??0Vector3@@QAE@XZ			; Vector3::Vector3
	mov	eax, DWORD PTR _this$[ebp]
	pop	edi
	pop	esi
	pop	ebx
	mov	esp, ebp
	pop	ebp
	ret	0
??0SUR_NHB_Soldier@@QAE@XZ ENDP				; SUR_NHB_Soldier::SUR_NHB_Soldier
_TEXT	ENDS
; Function compile flags: /Odtp /ZI
; File x:\github\renegade\dragonade_rxd\scripts\survival.cpp
;	COMDAT ?Register_Auto_Save_Variables@SUR_NHB_Soldier@@UAEXXZ
_TEXT	SEGMENT
_this$ = -4						; size = 4
?Register_Auto_Save_Variables@SUR_NHB_Soldier@@UAEXXZ PROC ; SUR_NHB_Soldier::Register_Auto_Save_Variables, COMDAT
; _this$ = ecx

; 489  : {

	push	ebp
	mov	ebp, esp
	sub	esp, 68					; 00000044H
	push	ebx
	push	esi
	push	edi
	mov	DWORD PTR _this$[ebp], ecx

; 490  : 	Auto_Save_Variable(&command,4,1);

	push	1
	push	4
	mov	eax, DWORD PTR _this$[ebp]
	add	eax, 28					; 0000001cH
	push	eax
	mov	ecx, DWORD PTR _this$[ebp]
	call	?Auto_Save_Variable@ScriptImpClass@@QAEXPAXHH@Z ; ScriptImpClass::Auto_Save_Variable

; 491  : 	Auto_Save_Variable(&oldPos,4,2);

	push	2
	push	4
	mov	eax, DWORD PTR _this$[ebp]
	add	eax, 32					; 00000020H
	push	eax
	mov	ecx, DWORD PTR _this$[ebp]
	call	?Auto_Save_Variable@ScriptImpClass@@QAEXPAXHH@Z ; ScriptImpClass::Auto_Save_Variable

; 492  : 	Auto_Save_Variable(&atDes,4,3);

	push	3
	push	4
	mov	eax, DWORD PTR _this$[ebp]
	add	eax, 44					; 0000002cH
	push	eax
	mov	ecx, DWORD PTR _this$[ebp]
	call	?Auto_Save_Variable@ScriptImpClass@@QAEXPAXHH@Z ; ScriptImpClass::Auto_Save_Variable

; 493  : }

	pop	edi
	pop	esi
	pop	ebx
	mov	esp, ebp
	pop	ebp
	ret	0
?Register_Auto_Save_Variables@SUR_NHB_Soldier@@UAEXXZ ENDP ; SUR_NHB_Soldier::Register_Auto_Save_Variables
_TEXT	ENDS
; Function compile flags: /Odtp /ZI
; File x:\github\renegade\dragonade_rxd\scripts\survival.cpp
;	COMDAT ?Timer_Expired@SUR_NHB_Soldier@@EAEXPAVScriptableGameObj@@H@Z
_TEXT	SEGMENT
$T1 = -204						; size = 12
$T2 = -192						; size = 12
_sparam$ = -116						; size = 100
_apos$ = -16						; size = 12
_this$ = -4						; size = 4
_obj$ = 8						; size = 4
_number$ = 12						; size = 4
?Timer_Expired@SUR_NHB_Soldier@@EAEXPAVScriptableGameObj@@H@Z PROC ; SUR_NHB_Soldier::Timer_Expired, COMDAT
; _this$ = ecx

; 437  : {

	push	ebp
	mov	ebp, esp
	sub	esp, 204				; 000000ccH
	push	ebx
	push	esi
	push	edi
	mov	DWORD PTR _this$[ebp], ecx

; 438  : 	Vector3 apos;

	lea	ecx, DWORD PTR _apos$[ebp]
	call	??0Vector3@@QAE@XZ			; Vector3::Vector3

; 439  : 	char sparam[100];
; 440  : 	
; 441  : 	apos = Commands->Get_Position(obj);

	mov	eax, DWORD PTR _obj$[ebp]
	push	eax
	lea	ecx, DWORD PTR $T1[ebp]
	push	ecx
	mov	edx, DWORD PTR ?Commands@@3PAUScriptCommands@@A ; Commands
	mov	eax, DWORD PTR [edx+64]
	call	eax
	add	esp, 8
	push	eax
	lea	ecx, DWORD PTR _apos$[ebp]
	call	??4Vector3@@QAEAAV0@ABV0@@Z		; Vector3::operator=

; 442  : 
; 443  : 	if (atDes)

	mov	eax, DWORD PTR _this$[ebp]
	movzx	ecx, BYTE PTR [eax+44]
	test	ecx, ecx
	je	SHORT $LN7@Timer_Expi

; 444  : 		return;

	jmp	$LN8@Timer_Expi
$LN7@Timer_Expi:

; 445  : 	if ((oldPos.X != apos.X) || (oldPos.Y != apos.Y) || (oldPos.Z != apos.Z))

	mov	eax, DWORD PTR _this$[ebp]
	movss	xmm0, DWORD PTR [eax+32]
	ucomiss	xmm0, DWORD PTR _apos$[ebp]
	lahf
	test	ah, 68					; 00000044H
	jp	SHORT $LN5@Timer_Expi
	mov	eax, DWORD PTR _this$[ebp]
	movss	xmm0, DWORD PTR [eax+36]
	ucomiss	xmm0, DWORD PTR _apos$[ebp+4]
	lahf
	test	ah, 68					; 00000044H
	jp	SHORT $LN5@Timer_Expi
	mov	eax, DWORD PTR _this$[ebp]
	movss	xmm0, DWORD PTR [eax+40]
	ucomiss	xmm0, DWORD PTR _apos$[ebp+8]
	lahf
	test	ah, 68					; 00000044H
	jnp	SHORT $LN6@Timer_Expi
$LN5@Timer_Expi:

; 446  : 	{
; 447  : 		oldPos = Commands->Get_Position(obj);

	mov	eax, DWORD PTR _obj$[ebp]
	push	eax
	lea	ecx, DWORD PTR $T2[ebp]
	push	ecx
	mov	edx, DWORD PTR ?Commands@@3PAUScriptCommands@@A ; Commands
	mov	eax, DWORD PTR [edx+64]
	call	eax
	add	esp, 8
	push	eax
	mov	ecx, DWORD PTR _this$[ebp]
	add	ecx, 32					; 00000020H
	call	??4Vector3@@QAEAAV0@ABV0@@Z		; Vector3::operator=

; 448  : 		Commands->Start_Timer(obj,this,10.000,1);

	push	1
	push	ecx
	movss	xmm0, DWORD PTR __real@41200000
	movss	DWORD PTR [esp], xmm0
	mov	eax, DWORD PTR _this$[ebp]
	push	eax
	mov	ecx, DWORD PTR _obj$[ebp]
	push	ecx
	mov	edx, DWORD PTR ?Commands@@3PAUScriptCommands@@A ; Commands
	mov	eax, DWORD PTR [edx+128]
	call	eax
	add	esp, 16					; 00000010H

; 449  : 		return;

	jmp	$LN8@Timer_Expi
$LN6@Timer_Expi:

; 450  : 	}
; 451  : 	if (command == 500010)

	mov	eax, DWORD PTR _this$[ebp]
	cmp	DWORD PTR [eax+28], 500010		; 0007a12aH
	jne	SHORT $LN4@Timer_Expi

; 452  : 	{
; 453  : 		Commands->Set_Innate_Aggressiveness(obj,50.500);

	push	ecx
	movss	xmm0, DWORD PTR __real@424a0000
	movss	DWORD PTR [esp], xmm0
	mov	eax, DWORD PTR _obj$[ebp]
	push	eax
	mov	ecx, DWORD PTR ?Commands@@3PAUScriptCommands@@A ; Commands
	mov	edx, DWORD PTR [ecx+468]
	call	edx
	add	esp, 8

; 454  : 		sprintf(sparam,"%d,%d,%d",Get_Int_Parameter("VPad_Path"),Get_Int_Parameter("VPad_Path_Start"),Get_Int_Parameter("VPad_Path_End"));

	push	OFFSET ??_C@_0O@CECAAJLK@VPad_Path_End?$AA@
	mov	ecx, DWORD PTR _this$[ebp]
	call	?Get_Int_Parameter@ScriptImpClass@@QAEHPBD@Z ; ScriptImpClass::Get_Int_Parameter
	push	eax
	push	OFFSET ??_C@_0BA@LDNBEEON@VPad_Path_Start?$AA@
	mov	ecx, DWORD PTR _this$[ebp]
	call	?Get_Int_Parameter@ScriptImpClass@@QAEHPBD@Z ; ScriptImpClass::Get_Int_Parameter
	push	eax
	push	OFFSET ??_C@_09BBICMIP@VPad_Path?$AA@
	mov	ecx, DWORD PTR _this$[ebp]
	call	?Get_Int_Parameter@ScriptImpClass@@QAEHPBD@Z ; ScriptImpClass::Get_Int_Parameter
	push	eax
	push	OFFSET ??_C@_08GDAMKODC@?$CFd?0?$CFd?0?$CFd?$AA@
	lea	eax, DWORD PTR _sparam$[ebp]
	push	eax
	call	DWORD PTR __imp__sprintf
	add	esp, 20					; 00000014H

; 455  : 		Commands->Attach_Script(obj,"PDS_Test_Follow_Waypath",sparam);

	lea	eax, DWORD PTR _sparam$[ebp]
	push	eax
	push	OFFSET ??_C@_0BI@DOGKPAOM@PDS_Test_Follow_Waypath?$AA@
	mov	ecx, DWORD PTR _obj$[ebp]
	push	ecx
	mov	edx, DWORD PTR ?Commands@@3PAUScriptCommands@@A ; Commands
	mov	eax, DWORD PTR [edx+120]
	call	eax
	add	esp, 12					; 0000000cH
$LN4@Timer_Expi:

; 456  : 	}
; 457  : 	if (command == 500011)

	mov	eax, DWORD PTR _this$[ebp]
	cmp	DWORD PTR [eax+28], 500011		; 0007a12bH
	jne	SHORT $LN3@Timer_Expi

; 458  : 	{
; 459  : 		Commands->Set_Innate_Aggressiveness(obj,50.500);

	push	ecx
	movss	xmm0, DWORD PTR __real@424a0000
	movss	DWORD PTR [esp], xmm0
	mov	eax, DWORD PTR _obj$[ebp]
	push	eax
	mov	ecx, DWORD PTR ?Commands@@3PAUScriptCommands@@A ; Commands
	mov	edx, DWORD PTR [ecx+468]
	call	edx
	add	esp, 8

; 460  : 		sprintf(sparam,"%d,%d,%d",Get_Int_Parameter("HeliPath"),Get_Int_Parameter("HeliPath_Start"),Get_Int_Parameter("HeliPath_End"));

	push	OFFSET ??_C@_0N@BHAKOLCG@HeliPath_End?$AA@
	mov	ecx, DWORD PTR _this$[ebp]
	call	?Get_Int_Parameter@ScriptImpClass@@QAEHPBD@Z ; ScriptImpClass::Get_Int_Parameter
	push	eax
	push	OFFSET ??_C@_0P@CACBDBIF@HeliPath_Start?$AA@
	mov	ecx, DWORD PTR _this$[ebp]
	call	?Get_Int_Parameter@ScriptImpClass@@QAEHPBD@Z ; ScriptImpClass::Get_Int_Parameter
	push	eax
	push	OFFSET ??_C@_08MCAPOCBM@HeliPath?$AA@
	mov	ecx, DWORD PTR _this$[ebp]
	call	?Get_Int_Parameter@ScriptImpClass@@QAEHPBD@Z ; ScriptImpClass::Get_Int_Parameter
	push	eax
	push	OFFSET ??_C@_08GDAMKODC@?$CFd?0?$CFd?0?$CFd?$AA@
	lea	eax, DWORD PTR _sparam$[ebp]
	push	eax
	call	DWORD PTR __imp__sprintf
	add	esp, 20					; 00000014H

; 461  : 		Commands->Attach_Script(obj,"PDS_Test_Follow_Waypath",sparam);

	lea	eax, DWORD PTR _sparam$[ebp]
	push	eax
	push	OFFSET ??_C@_0BI@DOGKPAOM@PDS_Test_Follow_Waypath?$AA@
	mov	ecx, DWORD PTR _obj$[ebp]
	push	ecx
	mov	edx, DWORD PTR ?Commands@@3PAUScriptCommands@@A ; Commands
	mov	eax, DWORD PTR [edx+120]
	call	eax
	add	esp, 12					; 0000000cH
$LN3@Timer_Expi:

; 462  : 	}
; 463  : 	if (command == 500020)

	mov	eax, DWORD PTR _this$[ebp]
	cmp	DWORD PTR [eax+28], 500020		; 0007a134H
	jne	SHORT $LN2@Timer_Expi

; 464  : 	{
; 465  : 		Commands->Set_Innate_Aggressiveness(obj,50.500);

	push	ecx
	movss	xmm0, DWORD PTR __real@424a0000
	movss	DWORD PTR [esp], xmm0
	mov	eax, DWORD PTR _obj$[ebp]
	push	eax
	mov	ecx, DWORD PTR ?Commands@@3PAUScriptCommands@@A ; Commands
	mov	edx, DWORD PTR [ecx+468]
	call	edx
	add	esp, 8

; 466  : 		sprintf(sparam,"%d,%d,%d",Get_Int_Parameter("NodGen_Path"),Get_Int_Parameter("NodGen_Path_Start"),Get_Int_Parameter("NodGen_Path_End"));

	push	OFFSET ??_C@_0BA@GDAPPOGH@NodGen_Path_End?$AA@
	mov	ecx, DWORD PTR _this$[ebp]
	call	?Get_Int_Parameter@ScriptImpClass@@QAEHPBD@Z ; ScriptImpClass::Get_Int_Parameter
	push	eax
	push	OFFSET ??_C@_0BC@KEJONPCP@NodGen_Path_Start?$AA@
	mov	ecx, DWORD PTR _this$[ebp]
	call	?Get_Int_Parameter@ScriptImpClass@@QAEHPBD@Z ; ScriptImpClass::Get_Int_Parameter
	push	eax
	push	OFFSET ??_C@_0M@HKEKIIP@NodGen_Path?$AA@
	mov	ecx, DWORD PTR _this$[ebp]
	call	?Get_Int_Parameter@ScriptImpClass@@QAEHPBD@Z ; ScriptImpClass::Get_Int_Parameter
	push	eax
	push	OFFSET ??_C@_08GDAMKODC@?$CFd?0?$CFd?0?$CFd?$AA@
	lea	eax, DWORD PTR _sparam$[ebp]
	push	eax
	call	DWORD PTR __imp__sprintf
	add	esp, 20					; 00000014H

; 467  : 		Commands->Attach_Script(obj,"PDS_Test_Follow_Waypath",sparam);

	lea	eax, DWORD PTR _sparam$[ebp]
	push	eax
	push	OFFSET ??_C@_0BI@DOGKPAOM@PDS_Test_Follow_Waypath?$AA@
	mov	ecx, DWORD PTR _obj$[ebp]
	push	ecx
	mov	edx, DWORD PTR ?Commands@@3PAUScriptCommands@@A ; Commands
	mov	eax, DWORD PTR [edx+120]
	call	eax
	add	esp, 12					; 0000000cH
$LN2@Timer_Expi:

; 468  : 	}
; 469  : 	if (command == 500021)

	mov	eax, DWORD PTR _this$[ebp]
	cmp	DWORD PTR [eax+28], 500021		; 0007a135H
	jne	SHORT $LN1@Timer_Expi

; 470  : 	{
; 471  : 		Commands->Set_Innate_Aggressiveness(obj,50.000);

	push	ecx
	movss	xmm0, DWORD PTR __real@42480000
	movss	DWORD PTR [esp], xmm0
	mov	eax, DWORD PTR _obj$[ebp]
	push	eax
	mov	ecx, DWORD PTR ?Commands@@3PAUScriptCommands@@A ; Commands
	mov	edx, DWORD PTR [ecx+468]
	call	edx
	add	esp, 8

; 472  : 		sprintf(sparam,"%d,%d,%d",Get_Int_Parameter("GDIGen_Path"),Get_Int_Parameter("GDIGen_Path_Start"),Get_Int_Parameter("GDIGen_Path_End"));

	push	OFFSET ??_C@_0BA@JCNLGAFK@GDIGen_Path_End?$AA@
	mov	ecx, DWORD PTR _this$[ebp]
	call	?Get_Int_Parameter@ScriptImpClass@@QAEHPBD@Z ; ScriptImpClass::Get_Int_Parameter
	push	eax
	push	OFFSET ??_C@_0BC@NJMBNIAG@GDIGen_Path_Start?$AA@
	mov	ecx, DWORD PTR _this$[ebp]
	call	?Get_Int_Parameter@ScriptImpClass@@QAEHPBD@Z ; ScriptImpClass::Get_Int_Parameter
	push	eax
	push	OFFSET ??_C@_0M@IFBDBCON@GDIGen_Path?$AA@
	mov	ecx, DWORD PTR _this$[ebp]
	call	?Get_Int_Parameter@ScriptImpClass@@QAEHPBD@Z ; ScriptImpClass::Get_Int_Parameter
	push	eax
	push	OFFSET ??_C@_08GDAMKODC@?$CFd?0?$CFd?0?$CFd?$AA@
	lea	eax, DWORD PTR _sparam$[ebp]
	push	eax
	call	DWORD PTR __imp__sprintf
	add	esp, 20					; 00000014H

; 473  : 		Commands->Attach_Script(obj,"PDS_Test_Follow_Waypath",sparam);

	lea	eax, DWORD PTR _sparam$[ebp]
	push	eax
	push	OFFSET ??_C@_0BI@DOGKPAOM@PDS_Test_Follow_Waypath?$AA@
	mov	ecx, DWORD PTR _obj$[ebp]
	push	ecx
	mov	edx, DWORD PTR ?Commands@@3PAUScriptCommands@@A ; Commands
	mov	eax, DWORD PTR [edx+120]
	call	eax
	add	esp, 12					; 0000000cH
$LN1@Timer_Expi:

; 474  : 	}
; 475  : //	oldPos = Commands->Get_Position(obj);
; 476  : 	Commands->Start_Timer(obj,this,5.000,1);

	push	1
	push	ecx
	movss	xmm0, DWORD PTR __real@40a00000
	movss	DWORD PTR [esp], xmm0
	mov	eax, DWORD PTR _this$[ebp]
	push	eax
	mov	ecx, DWORD PTR _obj$[ebp]
	push	ecx
	mov	edx, DWORD PTR ?Commands@@3PAUScriptCommands@@A ; Commands
	mov	eax, DWORD PTR [edx+128]
	call	eax
	add	esp, 16					; 00000010H
$LN8@Timer_Expi:

; 477  : }

	pop	edi
	pop	esi
	pop	ebx
	mov	esp, ebp
	pop	ebp
	ret	8
?Timer_Expired@SUR_NHB_Soldier@@EAEXPAVScriptableGameObj@@H@Z ENDP ; SUR_NHB_Soldier::Timer_Expired
_TEXT	ENDS
; Function compile flags: /Odtp /ZI
; File x:\github\renegade\dragonade_rxd\scripts\survival.cpp
;	COMDAT ?Killed@SUR_NHB_Soldier@@EAEXPAVScriptableGameObj@@0@Z
_TEXT	SEGMENT
_msg$ = -12						; size = 4
_targ$ = -8						; size = 4
_this$ = -4						; size = 4
_obj$ = 8						; size = 4
_killer$ = 12						; size = 4
?Killed@SUR_NHB_Soldier@@EAEXPAVScriptableGameObj@@0@Z PROC ; SUR_NHB_Soldier::Killed, COMDAT
; _this$ = ecx

; 480  : {

	push	ebp
	mov	ebp, esp
	sub	esp, 76					; 0000004cH
	push	ebx
	push	esi
	push	edi
	mov	DWORD PTR _this$[ebp], ecx

; 481  : 	GameObject *targ;
; 482  : 	int msg;
; 483  : 	msg = 503030;

	mov	DWORD PTR _msg$[ebp], 503030		; 0007acf6H

; 484  : 	targ = Commands->Find_Object(Get_Int_Parameter("NHB_ID"));

	push	OFFSET ??_C@_06MPKPIODH@NHB_ID?$AA@
	mov	ecx, DWORD PTR _this$[ebp]
	call	?Get_Int_Parameter@ScriptImpClass@@QAEHPBD@Z ; ScriptImpClass::Get_Int_Parameter
	push	eax
	mov	eax, DWORD PTR ?Commands@@3PAUScriptCommands@@A ; Commands
	mov	ecx, DWORD PTR [eax+96]
	call	ecx
	add	esp, 4
	mov	DWORD PTR _targ$[ebp], eax

; 485  : 	Commands->Send_Custom_Event(obj,targ,msg,command,0);

	push	ecx
	movss	xmm0, DWORD PTR __real@00000000
	movss	DWORD PTR [esp], xmm0
	mov	eax, DWORD PTR _this$[ebp]
	mov	ecx, DWORD PTR [eax+28]
	push	ecx
	mov	edx, DWORD PTR _msg$[ebp]
	push	edx
	mov	eax, DWORD PTR _targ$[ebp]
	push	eax
	mov	ecx, DWORD PTR _obj$[ebp]
	push	ecx
	mov	edx, DWORD PTR ?Commands@@3PAUScriptCommands@@A ; Commands
	mov	eax, DWORD PTR [edx+140]
	call	eax
	add	esp, 20					; 00000014H

; 486  : }

	pop	edi
	pop	esi
	pop	ebx
	mov	esp, ebp
	pop	ebp
	ret	8
?Killed@SUR_NHB_Soldier@@EAEXPAVScriptableGameObj@@0@Z ENDP ; SUR_NHB_Soldier::Killed
_TEXT	ENDS
; Function compile flags: /Odtp /ZI
; File x:\github\renegade\dragonade_rxd\scripts\survival.cpp
;	COMDAT ?Custom@SUR_NHB_Soldier@@EAEXPAVScriptableGameObj@@HH0@Z
_TEXT	SEGMENT
_sparam$ = -108						; size = 100
_targ$ = -8						; size = 4
_this$ = -4						; size = 4
_obj$ = 8						; size = 4
_type$ = 12						; size = 4
_param$ = 16						; size = 4
_sender$ = 20						; size = 4
?Custom@SUR_NHB_Soldier@@EAEXPAVScriptableGameObj@@HH0@Z PROC ; SUR_NHB_Soldier::Custom, COMDAT
; _this$ = ecx

; 391  : {

	push	ebp
	mov	ebp, esp
	sub	esp, 172				; 000000acH
	push	ebx
	push	esi
	push	edi
	mov	DWORD PTR _this$[ebp], ecx

; 392  : 	GameObject *targ;
; 393  : 	char sparam[100];
; 394  : 	if (type != 503030)

	cmp	DWORD PTR _type$[ebp], 503030		; 0007acf6H
	je	SHORT $LN8@Custom

; 395  : 		return; //Like above,if it's not a bot message then forget it...

	jmp	$LN9@Custom
$LN8@Custom:

; 396  : 	command = param; //Need to store the command so we know the parameter when we die,so NHB

	mov	eax, DWORD PTR _this$[ebp]
	mov	ecx, DWORD PTR _param$[ebp]
	mov	DWORD PTR [eax+28], ecx

; 397  : 	//can calculate correctly...
; 398  : 
; 399  : 	//Rest is attack stuff. Params are just like the ones above that NHB sends.
; 400  : 	//Bots just set their aggressiveness and head to their waypoints.
; 401  : 	if (param == 500010)

	cmp	DWORD PTR _param$[ebp], 500010		; 0007a12aH
	jne	SHORT $LN7@Custom

; 402  : 	{
; 403  : 		Commands->Set_Innate_Aggressiveness(obj,50.500);

	push	ecx
	movss	xmm0, DWORD PTR __real@424a0000
	movss	DWORD PTR [esp], xmm0
	mov	eax, DWORD PTR _obj$[ebp]
	push	eax
	mov	ecx, DWORD PTR ?Commands@@3PAUScriptCommands@@A ; Commands
	mov	edx, DWORD PTR [ecx+468]
	call	edx
	add	esp, 8

; 404  : 		sprintf(sparam,"%d,%d,%d",Get_Int_Parameter("VPad_Path"),Get_Int_Parameter("VPad_Path_Start"),Get_Int_Parameter("VPad_Path_End"));

	push	OFFSET ??_C@_0O@CECAAJLK@VPad_Path_End?$AA@
	mov	ecx, DWORD PTR _this$[ebp]
	call	?Get_Int_Parameter@ScriptImpClass@@QAEHPBD@Z ; ScriptImpClass::Get_Int_Parameter
	push	eax
	push	OFFSET ??_C@_0BA@LDNBEEON@VPad_Path_Start?$AA@
	mov	ecx, DWORD PTR _this$[ebp]
	call	?Get_Int_Parameter@ScriptImpClass@@QAEHPBD@Z ; ScriptImpClass::Get_Int_Parameter
	push	eax
	push	OFFSET ??_C@_09BBICMIP@VPad_Path?$AA@
	mov	ecx, DWORD PTR _this$[ebp]
	call	?Get_Int_Parameter@ScriptImpClass@@QAEHPBD@Z ; ScriptImpClass::Get_Int_Parameter
	push	eax
	push	OFFSET ??_C@_08GDAMKODC@?$CFd?0?$CFd?0?$CFd?$AA@
	lea	eax, DWORD PTR _sparam$[ebp]
	push	eax
	call	DWORD PTR __imp__sprintf
	add	esp, 20					; 00000014H

; 405  : 		Commands->Attach_Script(obj,"PDS_Test_Follow_Waypath",sparam);

	lea	eax, DWORD PTR _sparam$[ebp]
	push	eax
	push	OFFSET ??_C@_0BI@DOGKPAOM@PDS_Test_Follow_Waypath?$AA@
	mov	ecx, DWORD PTR _obj$[ebp]
	push	ecx
	mov	edx, DWORD PTR ?Commands@@3PAUScriptCommands@@A ; Commands
	mov	eax, DWORD PTR [edx+120]
	call	eax
	add	esp, 12					; 0000000cH
$LN7@Custom:

; 406  : 	}
; 407  : 	if (param == 500011)

	cmp	DWORD PTR _param$[ebp], 500011		; 0007a12bH
	jne	SHORT $LN6@Custom

; 408  : 	{
; 409  : 		Commands->Set_Innate_Aggressiveness(obj,50.500);

	push	ecx
	movss	xmm0, DWORD PTR __real@424a0000
	movss	DWORD PTR [esp], xmm0
	mov	eax, DWORD PTR _obj$[ebp]
	push	eax
	mov	ecx, DWORD PTR ?Commands@@3PAUScriptCommands@@A ; Commands
	mov	edx, DWORD PTR [ecx+468]
	call	edx
	add	esp, 8

; 410  : 		sprintf(sparam,"%d,%d,%d",Get_Int_Parameter("HeliPath"),Get_Int_Parameter("HeliPath_Start"),Get_Int_Parameter("HeliPath_End"));

	push	OFFSET ??_C@_0N@BHAKOLCG@HeliPath_End?$AA@
	mov	ecx, DWORD PTR _this$[ebp]
	call	?Get_Int_Parameter@ScriptImpClass@@QAEHPBD@Z ; ScriptImpClass::Get_Int_Parameter
	push	eax
	push	OFFSET ??_C@_0P@CACBDBIF@HeliPath_Start?$AA@
	mov	ecx, DWORD PTR _this$[ebp]
	call	?Get_Int_Parameter@ScriptImpClass@@QAEHPBD@Z ; ScriptImpClass::Get_Int_Parameter
	push	eax
	push	OFFSET ??_C@_08MCAPOCBM@HeliPath?$AA@
	mov	ecx, DWORD PTR _this$[ebp]
	call	?Get_Int_Parameter@ScriptImpClass@@QAEHPBD@Z ; ScriptImpClass::Get_Int_Parameter
	push	eax
	push	OFFSET ??_C@_08GDAMKODC@?$CFd?0?$CFd?0?$CFd?$AA@
	lea	eax, DWORD PTR _sparam$[ebp]
	push	eax
	call	DWORD PTR __imp__sprintf
	add	esp, 20					; 00000014H

; 411  : 		Commands->Attach_Script(obj,"PDS_Test_Follow_Waypath",sparam);

	lea	eax, DWORD PTR _sparam$[ebp]
	push	eax
	push	OFFSET ??_C@_0BI@DOGKPAOM@PDS_Test_Follow_Waypath?$AA@
	mov	ecx, DWORD PTR _obj$[ebp]
	push	ecx
	mov	edx, DWORD PTR ?Commands@@3PAUScriptCommands@@A ; Commands
	mov	eax, DWORD PTR [edx+120]
	call	eax
	add	esp, 12					; 0000000cH
$LN6@Custom:

; 412  : 	}
; 413  : 	if (param == 500020)

	cmp	DWORD PTR _param$[ebp], 500020		; 0007a134H
	jne	SHORT $LN5@Custom

; 414  : 	{
; 415  : 		Commands->Set_Innate_Aggressiveness(obj,50.500);

	push	ecx
	movss	xmm0, DWORD PTR __real@424a0000
	movss	DWORD PTR [esp], xmm0
	mov	eax, DWORD PTR _obj$[ebp]
	push	eax
	mov	ecx, DWORD PTR ?Commands@@3PAUScriptCommands@@A ; Commands
	mov	edx, DWORD PTR [ecx+468]
	call	edx
	add	esp, 8

; 416  : 		sprintf(sparam,"%d,%d,%d",Get_Int_Parameter("NodGen_Path"),Get_Int_Parameter("NodGen_Path_Start"),Get_Int_Parameter("NodGen_Path_End"));

	push	OFFSET ??_C@_0BA@GDAPPOGH@NodGen_Path_End?$AA@
	mov	ecx, DWORD PTR _this$[ebp]
	call	?Get_Int_Parameter@ScriptImpClass@@QAEHPBD@Z ; ScriptImpClass::Get_Int_Parameter
	push	eax
	push	OFFSET ??_C@_0BC@KEJONPCP@NodGen_Path_Start?$AA@
	mov	ecx, DWORD PTR _this$[ebp]
	call	?Get_Int_Parameter@ScriptImpClass@@QAEHPBD@Z ; ScriptImpClass::Get_Int_Parameter
	push	eax
	push	OFFSET ??_C@_0M@HKEKIIP@NodGen_Path?$AA@
	mov	ecx, DWORD PTR _this$[ebp]
	call	?Get_Int_Parameter@ScriptImpClass@@QAEHPBD@Z ; ScriptImpClass::Get_Int_Parameter
	push	eax
	push	OFFSET ??_C@_08GDAMKODC@?$CFd?0?$CFd?0?$CFd?$AA@
	lea	eax, DWORD PTR _sparam$[ebp]
	push	eax
	call	DWORD PTR __imp__sprintf
	add	esp, 20					; 00000014H

; 417  : 		Commands->Attach_Script(obj,"PDS_Test_Follow_Waypath",sparam);

	lea	eax, DWORD PTR _sparam$[ebp]
	push	eax
	push	OFFSET ??_C@_0BI@DOGKPAOM@PDS_Test_Follow_Waypath?$AA@
	mov	ecx, DWORD PTR _obj$[ebp]
	push	ecx
	mov	edx, DWORD PTR ?Commands@@3PAUScriptCommands@@A ; Commands
	mov	eax, DWORD PTR [edx+120]
	call	eax
	add	esp, 12					; 0000000cH
$LN5@Custom:

; 418  : 	}
; 419  : 	if (param == 500021)

	cmp	DWORD PTR _param$[ebp], 500021		; 0007a135H
	jne	SHORT $LN4@Custom

; 420  : 	{
; 421  : 		Commands->Set_Innate_Aggressiveness(obj,50.000);

	push	ecx
	movss	xmm0, DWORD PTR __real@42480000
	movss	DWORD PTR [esp], xmm0
	mov	eax, DWORD PTR _obj$[ebp]
	push	eax
	mov	ecx, DWORD PTR ?Commands@@3PAUScriptCommands@@A ; Commands
	mov	edx, DWORD PTR [ecx+468]
	call	edx
	add	esp, 8

; 422  : 		sprintf(sparam,"%d,%d,%d",Get_Int_Parameter("GDIGen_Path"),Get_Int_Parameter("GDIGen_Path_Start"),Get_Int_Parameter("GDIGen_Path_End"));

	push	OFFSET ??_C@_0BA@JCNLGAFK@GDIGen_Path_End?$AA@
	mov	ecx, DWORD PTR _this$[ebp]
	call	?Get_Int_Parameter@ScriptImpClass@@QAEHPBD@Z ; ScriptImpClass::Get_Int_Parameter
	push	eax
	push	OFFSET ??_C@_0BC@NJMBNIAG@GDIGen_Path_Start?$AA@
	mov	ecx, DWORD PTR _this$[ebp]
	call	?Get_Int_Parameter@ScriptImpClass@@QAEHPBD@Z ; ScriptImpClass::Get_Int_Parameter
	push	eax
	push	OFFSET ??_C@_0M@IFBDBCON@GDIGen_Path?$AA@
	mov	ecx, DWORD PTR _this$[ebp]
	call	?Get_Int_Parameter@ScriptImpClass@@QAEHPBD@Z ; ScriptImpClass::Get_Int_Parameter
	push	eax
	push	OFFSET ??_C@_08GDAMKODC@?$CFd?0?$CFd?0?$CFd?$AA@
	lea	eax, DWORD PTR _sparam$[ebp]
	push	eax
	call	DWORD PTR __imp__sprintf
	add	esp, 20					; 00000014H

; 423  : 		Commands->Attach_Script(obj,"PDS_Test_Follow_Waypath",sparam);

	lea	eax, DWORD PTR _sparam$[ebp]
	push	eax
	push	OFFSET ??_C@_0BI@DOGKPAOM@PDS_Test_Follow_Waypath?$AA@
	mov	ecx, DWORD PTR _obj$[ebp]
	push	ecx
	mov	edx, DWORD PTR ?Commands@@3PAUScriptCommands@@A ; Commands
	mov	eax, DWORD PTR [edx+120]
	call	eax
	add	esp, 12					; 0000000cH
$LN4@Custom:

; 424  : 	}
; 425  : 	if ((param == 501120) && (!atDes))

	cmp	DWORD PTR _param$[ebp], 501120		; 0007a580H
	jne	$LN3@Custom
	mov	eax, DWORD PTR _this$[ebp]
	movzx	ecx, BYTE PTR [eax+44]
	test	ecx, ecx
	jne	SHORT $LN3@Custom

; 426  : 	{
; 427  : 		if (command == 500020)

	mov	eax, DWORD PTR _this$[ebp]
	cmp	DWORD PTR [eax+28], 500020		; 0007a134H
	jne	SHORT $LN2@Custom

; 428  : 			targ = Commands->Find_Object(Get_Int_Parameter("NodGen_ID"));

	push	OFFSET ??_C@_09MMNKHPCG@NodGen_ID?$AA@
	mov	ecx, DWORD PTR _this$[ebp]
	call	?Get_Int_Parameter@ScriptImpClass@@QAEHPBD@Z ; ScriptImpClass::Get_Int_Parameter
	push	eax
	mov	eax, DWORD PTR ?Commands@@3PAUScriptCommands@@A ; Commands
	mov	ecx, DWORD PTR [eax+96]
	call	ecx
	add	esp, 4
	mov	DWORD PTR _targ$[ebp], eax
$LN2@Custom:

; 429  : 		if (command == 500021)

	mov	eax, DWORD PTR _this$[ebp]
	cmp	DWORD PTR [eax+28], 500021		; 0007a135H
	jne	SHORT $LN1@Custom

; 430  : 			targ = Commands->Find_Object(Get_Int_Parameter("GDIGen_ID"));

	push	OFFSET ??_C@_09FCBIDPBF@GDIGen_ID?$AA@
	mov	ecx, DWORD PTR _this$[ebp]
	call	?Get_Int_Parameter@ScriptImpClass@@QAEHPBD@Z ; ScriptImpClass::Get_Int_Parameter
	push	eax
	mov	eax, DWORD PTR ?Commands@@3PAUScriptCommands@@A ; Commands
	mov	ecx, DWORD PTR [eax+96]
	call	ecx
	add	esp, 4
	mov	DWORD PTR _targ$[ebp], eax
$LN1@Custom:

; 431  : 		Commands->Select_Weapon(obj,"CnC_Weapon_MineTimed_Player");

	push	OFFSET ??_C@_0BM@OMFOHCFP@CnC_Weapon_MineTimed_Player?$AA@
	mov	eax, DWORD PTR _obj$[ebp]
	push	eax
	mov	ecx, DWORD PTR ?Commands@@3PAUScriptCommands@@A ; Commands
	mov	edx, DWORD PTR [ecx+136]
	call	edx
	add	esp, 8

; 432  : 		atDes = true;

	mov	eax, DWORD PTR _this$[ebp]
	mov	BYTE PTR [eax+44], 1
$LN3@Custom:
$LN9@Custom:

; 433  : 	}
; 434  : }

	pop	edi
	pop	esi
	pop	ebx
	mov	esp, ebp
	pop	ebp
	ret	16					; 00000010H
?Custom@SUR_NHB_Soldier@@EAEXPAVScriptableGameObj@@HH0@Z ENDP ; SUR_NHB_Soldier::Custom
_TEXT	ENDS
; Function compile flags: /Odtp /ZI
; File x:\github\renegade\dragonade_rxd\scripts\survival.cpp
;	COMDAT ?Created@SUR_NHB_Soldier@@EAEXPAVScriptableGameObj@@@Z
_TEXT	SEGMENT
$T1 = -92						; size = 12
_prm$ = -16						; size = 4
_msg$ = -12						; size = 4
_targ$ = -8						; size = 4
_this$ = -4						; size = 4
_obj$ = 8						; size = 4
?Created@SUR_NHB_Soldier@@EAEXPAVScriptableGameObj@@@Z PROC ; SUR_NHB_Soldier::Created, COMDAT
; _this$ = ecx

; 377  : {

	push	ebp
	mov	ebp, esp
	sub	esp, 92					; 0000005cH
	push	ebx
	push	esi
	push	edi
	mov	DWORD PTR _this$[ebp], ecx

; 378  : 	GameObject *targ;
; 379  : 	int msg;
; 380  : 	int prm;
; 381  : 	msg = 503030;

	mov	DWORD PTR _msg$[ebp], 503030		; 0007acf6H

; 382  : 	prm = 303030;

	mov	DWORD PTR _prm$[ebp], 303030		; 00049fb6H

; 383  : 	atDes = false;

	mov	eax, DWORD PTR _this$[ebp]
	mov	BYTE PTR [eax+44], 0

; 384  : 	targ = Commands->Find_Object(Get_Int_Parameter("NHB_ID"));

	push	OFFSET ??_C@_06MPKPIODH@NHB_ID?$AA@
	mov	ecx, DWORD PTR _this$[ebp]
	call	?Get_Int_Parameter@ScriptImpClass@@QAEHPBD@Z ; ScriptImpClass::Get_Int_Parameter
	push	eax
	mov	eax, DWORD PTR ?Commands@@3PAUScriptCommands@@A ; Commands
	mov	ecx, DWORD PTR [eax+96]
	call	ecx
	add	esp, 4
	mov	DWORD PTR _targ$[ebp], eax

; 385  : 	Commands->Send_Custom_Event(obj,targ,msg,prm,0);

	push	ecx
	movss	xmm0, DWORD PTR __real@00000000
	movss	DWORD PTR [esp], xmm0
	mov	eax, DWORD PTR _prm$[ebp]
	push	eax
	mov	ecx, DWORD PTR _msg$[ebp]
	push	ecx
	mov	edx, DWORD PTR _targ$[ebp]
	push	edx
	mov	eax, DWORD PTR _obj$[ebp]
	push	eax
	mov	ecx, DWORD PTR ?Commands@@3PAUScriptCommands@@A ; Commands
	mov	edx, DWORD PTR [ecx+140]
	call	edx
	add	esp, 20					; 00000014H

; 386  : 	Commands->Start_Timer(obj,this,5.000,1);

	push	1
	push	ecx
	movss	xmm0, DWORD PTR __real@40a00000
	movss	DWORD PTR [esp], xmm0
	mov	eax, DWORD PTR _this$[ebp]
	push	eax
	mov	ecx, DWORD PTR _obj$[ebp]
	push	ecx
	mov	edx, DWORD PTR ?Commands@@3PAUScriptCommands@@A ; Commands
	mov	eax, DWORD PTR [edx+128]
	call	eax
	add	esp, 16					; 00000010H

; 387  : 	oldPos = Commands->Get_Position(obj);

	mov	eax, DWORD PTR _obj$[ebp]
	push	eax
	lea	ecx, DWORD PTR $T1[ebp]
	push	ecx
	mov	edx, DWORD PTR ?Commands@@3PAUScriptCommands@@A ; Commands
	mov	eax, DWORD PTR [edx+64]
	call	eax
	add	esp, 8
	push	eax
	mov	ecx, DWORD PTR _this$[ebp]
	add	ecx, 32					; 00000020H
	call	??4Vector3@@QAEAAV0@ABV0@@Z		; Vector3::operator=

; 388  : }

	pop	edi
	pop	esi
	pop	ebx
	mov	esp, ebp
	pop	ebp
	ret	4
?Created@SUR_NHB_Soldier@@EAEXPAVScriptableGameObj@@@Z ENDP ; SUR_NHB_Soldier::Created
_TEXT	ENDS
; Function compile flags: /Odtp /ZI
;	COMDAT ??_GSUR_NHB@@UAEPAXI@Z
_TEXT	SEGMENT
_this$ = -4						; size = 4
___flags$ = 8						; size = 4
??_GSUR_NHB@@UAEPAXI@Z PROC				; SUR_NHB::`scalar deleting destructor', COMDAT
; _this$ = ecx
	push	ebp
	mov	ebp, esp
	sub	esp, 68					; 00000044H
	push	ebx
	push	esi
	push	edi
	mov	DWORD PTR _this$[ebp], ecx
	mov	ecx, DWORD PTR _this$[ebp]
	call	??1SUR_NHB@@UAE@XZ
	mov	eax, DWORD PTR ___flags$[ebp]
	and	eax, 1
	je	SHORT $LN1@scalar
	mov	eax, DWORD PTR _this$[ebp]
	push	eax
	call	??3@YAXPAX@Z				; operator delete
	add	esp, 4
$LN1@scalar:
	mov	eax, DWORD PTR _this$[ebp]
	pop	edi
	pop	esi
	pop	ebx
	mov	esp, ebp
	pop	ebp
	ret	4
??_GSUR_NHB@@UAEPAXI@Z ENDP				; SUR_NHB::`scalar deleting destructor'
_TEXT	ENDS
; Function compile flags: /Odtp /ZI
;	COMDAT ??1SUR_NHB@@UAE@XZ
_TEXT	SEGMENT
_this$ = -4						; size = 4
??1SUR_NHB@@UAE@XZ PROC					; SUR_NHB::~SUR_NHB, COMDAT
; _this$ = ecx
	push	ebp
	mov	ebp, esp
	sub	esp, 68					; 00000044H
	push	ebx
	push	esi
	push	edi
	mov	DWORD PTR _this$[ebp], ecx
	mov	ecx, DWORD PTR _this$[ebp]
	call	??1ScriptImpClass@@UAE@XZ		; ScriptImpClass::~ScriptImpClass
	pop	edi
	pop	esi
	pop	ebx
	mov	esp, ebp
	pop	ebp
	ret	0
??1SUR_NHB@@UAE@XZ ENDP					; SUR_NHB::~SUR_NHB
_TEXT	ENDS
; Function compile flags: /Odtp /ZI
;	COMDAT ??0SUR_NHB@@QAE@XZ
_TEXT	SEGMENT
_this$ = -4						; size = 4
??0SUR_NHB@@QAE@XZ PROC					; SUR_NHB::SUR_NHB, COMDAT
; _this$ = ecx
	push	ebp
	mov	ebp, esp
	sub	esp, 68					; 00000044H
	push	ebx
	push	esi
	push	edi
	mov	DWORD PTR _this$[ebp], ecx
	mov	ecx, DWORD PTR _this$[ebp]
	call	??0ScriptImpClass@@QAE@XZ		; ScriptImpClass::ScriptImpClass
	mov	eax, DWORD PTR _this$[ebp]
	mov	DWORD PTR [eax], OFFSET ??_7SUR_NHB@@6B@
	mov	eax, DWORD PTR _this$[ebp]
	pop	edi
	pop	esi
	pop	ebx
	mov	esp, ebp
	pop	ebp
	ret	0
??0SUR_NHB@@QAE@XZ ENDP					; SUR_NHB::SUR_NHB
_TEXT	ENDS
; Function compile flags: /Odtp /ZI
; File x:\github\renegade\dragonade_rxd\scripts\survival.cpp
;	COMDAT ?Register_Auto_Save_Variables@SUR_NHB@@UAEXXZ
_TEXT	SEGMENT
_this$ = -4						; size = 4
?Register_Auto_Save_Variables@SUR_NHB@@UAEXXZ PROC	; SUR_NHB::Register_Auto_Save_Variables, COMDAT
; _this$ = ecx

; 364  : {

	push	ebp
	mov	ebp, esp
	sub	esp, 68					; 00000044H
	push	ebx
	push	esi
	push	edi
	mov	DWORD PTR _this$[ebp], ecx

; 365  : 	Auto_Save_Variable(&vpadAttackers,4,1);

	push	1
	push	4
	mov	eax, DWORD PTR _this$[ebp]
	add	eax, 28					; 0000001cH
	push	eax
	mov	ecx, DWORD PTR _this$[ebp]
	call	?Auto_Save_Variable@ScriptImpClass@@QAEXPAXHH@Z ; ScriptImpClass::Auto_Save_Variable

; 366  : 	Auto_Save_Variable(&heliAttackers,4,2);

	push	2
	push	4
	mov	eax, DWORD PTR _this$[ebp]
	add	eax, 40					; 00000028H
	push	eax
	mov	ecx, DWORD PTR _this$[ebp]
	call	?Auto_Save_Variable@ScriptImpClass@@QAEXPAXHH@Z ; ScriptImpClass::Auto_Save_Variable

; 367  : 	Auto_Save_Variable(&NodGenAttackers,4,3);

	push	3
	push	4
	mov	eax, DWORD PTR _this$[ebp]
	add	eax, 36					; 00000024H
	push	eax
	mov	ecx, DWORD PTR _this$[ebp]
	call	?Auto_Save_Variable@ScriptImpClass@@QAEXPAXHH@Z ; ScriptImpClass::Auto_Save_Variable

; 368  : 	Auto_Save_Variable(&GDIGenAttackers,4,4);

	push	4
	push	4
	mov	eax, DWORD PTR _this$[ebp]
	add	eax, 32					; 00000020H
	push	eax
	mov	ecx, DWORD PTR _this$[ebp]
	call	?Auto_Save_Variable@ScriptImpClass@@QAEXPAXHH@Z ; ScriptImpClass::Auto_Save_Variable

; 369  : 	Auto_Save_Variable(&jobRequests,4,5);

	push	5
	push	4
	mov	eax, DWORD PTR _this$[ebp]
	add	eax, 44					; 0000002cH
	push	eax
	mov	ecx, DWORD PTR _this$[ebp]
	call	?Auto_Save_Variable@ScriptImpClass@@QAEXPAXHH@Z ; ScriptImpClass::Auto_Save_Variable

; 370  : }

	pop	edi
	pop	esi
	pop	ebx
	mov	esp, ebp
	pop	ebp
	ret	0
?Register_Auto_Save_Variables@SUR_NHB@@UAEXXZ ENDP	; SUR_NHB::Register_Auto_Save_Variables
_TEXT	ENDS
; Function compile flags: /Odtp /ZI
; File x:\github\renegade\dragonade_rxd\scripts\survival.cpp
;	COMDAT ?Custom@SUR_NHB@@EAEXPAVScriptableGameObj@@HH0@Z
_TEXT	SEGMENT
$T1 = -136						; size = 12
_random$2 = -60						; size = 4
_NodGenHP$3 = -56					; size = 4
_GDIGenHP$4 = -52					; size = 4
_gen$5 = -48						; size = 4
_x$6 = -44						; size = 4
_gpos$ = -40						; size = 12
_rpos$ = -28						; size = 12
_res$ = -16						; size = 4
_prm$ = -12						; size = 4
_msg$ = -8						; size = 4
_this$ = -4						; size = 4
_obj$ = 8						; size = 4
_type$ = 12						; size = 4
_param$ = 16						; size = 4
_sender$ = 20						; size = 4
?Custom@SUR_NHB@@EAEXPAVScriptableGameObj@@HH0@Z PROC	; SUR_NHB::Custom, COMDAT
; _this$ = ecx

; 149  : {

	push	ebp
	mov	ebp, esp
	sub	esp, 136				; 00000088H
	push	ebx
	push	esi
	push	edi
	mov	DWORD PTR _this$[ebp], ecx

; 150  : 	int msg;
; 151  : 	int prm = 0;

	mov	DWORD PTR _prm$[ebp], 0

; 152  : 	GameObject *res;
; 153  : 	Vector3 rpos;

	lea	ecx, DWORD PTR _rpos$[ebp]
	call	??0Vector3@@QAE@XZ			; Vector3::Vector3

; 154  : 	Vector3 gpos;

	lea	ecx, DWORD PTR _gpos$[ebp]
	call	??0Vector3@@QAE@XZ			; Vector3::Vector3

; 155  : 	rpos.X = 0;

	movss	xmm0, DWORD PTR __real@00000000
	movss	DWORD PTR _rpos$[ebp], xmm0

; 156  : 	rpos.Y = 0;

	movss	xmm0, DWORD PTR __real@00000000
	movss	DWORD PTR _rpos$[ebp+4], xmm0

; 157  : 	rpos.Z = 100;

	movss	xmm0, DWORD PTR __real@42c80000
	movss	DWORD PTR _rpos$[ebp+8], xmm0

; 158  : 	if ((type != 503030) && (type != 504030))

	cmp	DWORD PTR _type$[ebp], 503030		; 0007acf6H
	je	SHORT $LN35@Custom
	cmp	DWORD PTR _type$[ebp], 504030		; 0007b0deH
	je	SHORT $LN35@Custom

; 159  : 		return; // If it's not a message involving a bot,forget it

	jmp	$LN36@Custom
$LN35@Custom:

; 160  : 
; 161  : 	if (type == 504030)

	cmp	DWORD PTR _type$[ebp], 504030		; 0007b0deH
	jne	SHORT $LN31@Custom

; 162  : 	{
; 163  : 		//If it's something that entered the zone,we need to store it for later
; 164  : 		for (int x = 0; x < 11;x++)

	mov	DWORD PTR _x$6[ebp], 0
	jmp	SHORT $LN33@Custom
$LN32@Custom:
	mov	eax, DWORD PTR _x$6[ebp]
	add	eax, 1
	mov	DWORD PTR _x$6[ebp], eax
$LN33@Custom:
	cmp	DWORD PTR _x$6[ebp], 11			; 0000000bH
	jge	SHORT $LN31@Custom

; 165  : 		{
; 166  : 			if ((!Targets[x]) || (x == 10))

	mov	eax, DWORD PTR _x$6[ebp]
	mov	ecx, DWORD PTR _this$[ebp]
	cmp	DWORD PTR [ecx+eax*4+48], 0
	je	SHORT $LN29@Custom
	cmp	DWORD PTR _x$6[ebp], 10			; 0000000aH
	jne	SHORT $LN30@Custom
$LN29@Custom:

; 167  : 			{
; 168  : 				Targets[x] = param;

	mov	eax, DWORD PTR _x$6[ebp]
	mov	ecx, DWORD PTR _this$[ebp]
	mov	edx, DWORD PTR _param$[ebp]
	mov	DWORD PTR [ecx+eax*4+48], edx

; 169  : 				return;

	jmp	$LN36@Custom
$LN30@Custom:

; 170  : 			}
; 171  : 		}

	jmp	SHORT $LN32@Custom
$LN31@Custom:

; 172  : 	}
; 173  : 
; 174  : 	if (param == 500010)

	cmp	DWORD PTR _param$[ebp], 500010		; 0007a12aH
	jne	SHORT $LN28@Custom

; 175  : 	{
; 176  : 		//I'm dead and was a VPad Attacker
; 177  : 		vpadAttackers--;

	mov	eax, DWORD PTR _this$[ebp]
	mov	ecx, DWORD PTR [eax+28]
	sub	ecx, 1
	mov	edx, DWORD PTR _this$[ebp]
	mov	DWORD PTR [edx+28], ecx
$LN28@Custom:

; 178  : 	}
; 179  : 	if (param == 500011)

	cmp	DWORD PTR _param$[ebp], 500011		; 0007a12bH
	jne	SHORT $LN27@Custom

; 180  : 	{
; 181  : 		//I'm dead and was a heli Attacker
; 182  : 		heliAttackers--;

	mov	eax, DWORD PTR _this$[ebp]
	mov	ecx, DWORD PTR [eax+40]
	sub	ecx, 1
	mov	edx, DWORD PTR _this$[ebp]
	mov	DWORD PTR [edx+40], ecx
$LN27@Custom:

; 183  : 	}
; 184  : 	if (param == 500020)

	cmp	DWORD PTR _param$[ebp], 500020		; 0007a134H
	jne	SHORT $LN26@Custom

; 185  : 	{
; 186  : 		//I'm dead and was a Nod Generator Attacker
; 187  : 		NodGenAttackers--;

	mov	eax, DWORD PTR _this$[ebp]
	mov	ecx, DWORD PTR [eax+36]
	sub	ecx, 1
	mov	edx, DWORD PTR _this$[ebp]
	mov	DWORD PTR [edx+36], ecx
$LN26@Custom:

; 188  : 	}
; 189  : 	if (param == 500021)

	cmp	DWORD PTR _param$[ebp], 500021		; 0007a135H
	jne	SHORT $LN25@Custom

; 190  : 	{
; 191  : 		//I'm dead and was a GDI Generator Attacker
; 192  : 		GDIGenAttackers--;

	mov	eax, DWORD PTR _this$[ebp]
	mov	ecx, DWORD PTR [eax+32]
	sub	ecx, 1
	mov	edx, DWORD PTR _this$[ebp]
	mov	DWORD PTR [edx+32], ecx
$LN25@Custom:

; 193  : 	}
; 194  : 	if (param == 303031)

	cmp	DWORD PTR _param$[ebp], 303031		; 00049fb7H
	jne	SHORT $LN24@Custom

; 195  : 	{
; 196  : 		//Orca requesting job (right now we just send it after the GDI generator)
; 197  : 		msg = 503030;

	mov	DWORD PTR _msg$[ebp], 503030		; 0007acf6H

; 198  : 		prm = Get_Int_Parameter("GDI_Gen");

	push	OFFSET ??_C@_07CIHEJGNA@GDI_Gen?$AA@
	mov	ecx, DWORD PTR _this$[ebp]
	call	?Get_Int_Parameter@ScriptImpClass@@QAEHPBD@Z ; ScriptImpClass::Get_Int_Parameter
	mov	DWORD PTR _prm$[ebp], eax

; 199  : 		Commands->Send_Custom_Event(obj,sender,msg,prm,0);

	push	ecx
	movss	xmm0, DWORD PTR __real@00000000
	movss	DWORD PTR [esp], xmm0
	mov	eax, DWORD PTR _prm$[ebp]
	push	eax
	mov	ecx, DWORD PTR _msg$[ebp]
	push	ecx
	mov	edx, DWORD PTR _sender$[ebp]
	push	edx
	mov	eax, DWORD PTR _obj$[ebp]
	push	eax
	mov	ecx, DWORD PTR ?Commands@@3PAUScriptCommands@@A ; Commands
	mov	edx, DWORD PTR [ecx+140]
	call	edx
	add	esp, 20					; 00000014H
$LN24@Custom:

; 200  : 	}
; 201  : 	if (param == 302031)

	cmp	DWORD PTR _param$[ebp], 302031		; 00049bcfH
	jne	SHORT $LN23@Custom

; 202  : 	{
; 203  : 		//APC stuff. In here,we calculate the job requests and set the bots to be dropped
; 204  : 		//accordingly
; 205  : 		msg = 503040;

	mov	DWORD PTR _msg$[ebp], 503040		; 0007ad00H

; 206  : 		if (jobRequests < 40)

	mov	eax, DWORD PTR _this$[ebp]
	cmp	DWORD PTR [eax+44], 40			; 00000028H
	jge	SHORT $LN22@Custom

; 207  : 			prm = 5;

	mov	DWORD PTR _prm$[ebp], 5
$LN22@Custom:

; 208  : 		if (jobRequests > 40)

	mov	eax, DWORD PTR _this$[ebp]
	cmp	DWORD PTR [eax+44], 40			; 00000028H
	jle	SHORT $LN21@Custom

; 209  : 			prm = 6;

	mov	DWORD PTR _prm$[ebp], 6
$LN21@Custom:

; 210  : 		if (jobRequests > 50)

	mov	eax, DWORD PTR _this$[ebp]
	cmp	DWORD PTR [eax+44], 50			; 00000032H
	jle	SHORT $LN20@Custom

; 211  : 			prm = 8;

	mov	DWORD PTR _prm$[ebp], 8
$LN20@Custom:

; 212  : 		Commands->Send_Custom_Event(obj,sender,msg,prm,0);

	push	ecx
	movss	xmm0, DWORD PTR __real@00000000
	movss	DWORD PTR [esp], xmm0
	mov	eax, DWORD PTR _prm$[ebp]
	push	eax
	mov	ecx, DWORD PTR _msg$[ebp]
	push	ecx
	mov	edx, DWORD PTR _sender$[ebp]
	push	edx
	mov	eax, DWORD PTR _obj$[ebp]
	push	eax
	mov	ecx, DWORD PTR ?Commands@@3PAUScriptCommands@@A ; Commands
	mov	edx, DWORD PTR [ecx+140]
	call	edx
	add	esp, 20					; 00000014H
$LN23@Custom:

; 213  : 	}
; 214  : 	if (param == 303030)

	cmp	DWORD PTR _param$[ebp], 303030		; 00049fb6H
	jne	$LN1@Custom

; 215  : 	{
; 216  : 		GameObject *gen;
; 217  : 		jobRequests++; //If it's a job request,inc requests and calculate the job

	mov	eax, DWORD PTR _this$[ebp]
	mov	ecx, DWORD PTR [eax+44]
	add	ecx, 1
	mov	edx, DWORD PTR _this$[ebp]
	mov	DWORD PTR [edx+44], ecx

; 218  : 		//NHB is somewhat aggressive,so once the GDI/Nod have destroyed 15 bots (we say 30 because
; 219  : 		//bots request a job when they spawn at the begaining of the message) we start realocating
; 220  : 		//troops for Generator attacks
; 221  : 
; 222  : 		if (jobRequests == 30)

	mov	eax, DWORD PTR _this$[ebp]
	cmp	DWORD PTR [eax+44], 30			; 0000001eH
	jne	SHORT $LN18@Custom

; 223  : 		{
; 224  : 			res = Commands->Find_Object(Get_Int_Parameter("Taunt1"));

	push	OFFSET ??_C@_06JMPBJGL@Taunt1?$AA@
	mov	ecx, DWORD PTR _this$[ebp]
	call	?Get_Int_Parameter@ScriptImpClass@@QAEHPBD@Z ; ScriptImpClass::Get_Int_Parameter
	push	eax
	mov	eax, DWORD PTR ?Commands@@3PAUScriptCommands@@A ; Commands
	mov	ecx, DWORD PTR [eax+96]
	call	ecx
	add	esp, 4
	mov	DWORD PTR _res$[ebp], eax

; 225  : 			Commands->Apply_Damage(res,1000,"Explosive",0);

	push	0
	push	OFFSET ??_C@_09IGNDJJLI@Explosive?$AA@
	push	ecx
	movss	xmm0, DWORD PTR __real@447a0000
	movss	DWORD PTR [esp], xmm0
	mov	eax, DWORD PTR _res$[ebp]
	push	eax
	mov	ecx, DWORD PTR ?Commands@@3PAUScriptCommands@@A ; Commands
	mov	edx, DWORD PTR [ecx+616]
	call	edx
	add	esp, 16					; 00000010H
$LN18@Custom:

; 226  : 		}
; 227  : 		if (jobRequests == 40)

	mov	eax, DWORD PTR _this$[ebp]
	cmp	DWORD PTR [eax+44], 40			; 00000028H
	jne	SHORT $LN17@Custom

; 228  : 		{
; 229  : 			res = Commands->Find_Object(Get_Int_Parameter("Taunt2"));

	push	OFFSET ??_C@_06CCOCEKKI@Taunt2?$AA@
	mov	ecx, DWORD PTR _this$[ebp]
	call	?Get_Int_Parameter@ScriptImpClass@@QAEHPBD@Z ; ScriptImpClass::Get_Int_Parameter
	push	eax
	mov	eax, DWORD PTR ?Commands@@3PAUScriptCommands@@A ; Commands
	mov	ecx, DWORD PTR [eax+96]
	call	ecx
	add	esp, 4
	mov	DWORD PTR _res$[ebp], eax

; 230  : 			Commands->Apply_Damage(res,1000,"Explosive",0);

	push	0
	push	OFFSET ??_C@_09IGNDJJLI@Explosive?$AA@
	push	ecx
	movss	xmm0, DWORD PTR __real@447a0000
	movss	DWORD PTR [esp], xmm0
	mov	eax, DWORD PTR _res$[ebp]
	push	eax
	mov	ecx, DWORD PTR ?Commands@@3PAUScriptCommands@@A ; Commands
	mov	edx, DWORD PTR [ecx+616]
	call	edx
	add	esp, 16					; 00000010H
$LN17@Custom:

; 231  : 		}
; 232  : 		if (jobRequests == 50)

	mov	eax, DWORD PTR _this$[ebp]
	cmp	DWORD PTR [eax+44], 50			; 00000032H
	jne	$LN16@Custom

; 233  : 		{
; 234  : 			res = Commands->Find_Object(Get_Int_Parameter("Orca_Warning"));

	push	OFFSET ??_C@_0N@MEOOIIPD@Orca_Warning?$AA@
	mov	ecx, DWORD PTR _this$[ebp]
	call	?Get_Int_Parameter@ScriptImpClass@@QAEHPBD@Z ; ScriptImpClass::Get_Int_Parameter
	push	eax
	mov	eax, DWORD PTR ?Commands@@3PAUScriptCommands@@A ; Commands
	mov	ecx, DWORD PTR [eax+96]
	call	ecx
	add	esp, 4
	mov	DWORD PTR _res$[ebp], eax

; 235  : 			Commands->Apply_Damage(res,1000,"Explosive",0);

	push	0
	push	OFFSET ??_C@_09IGNDJJLI@Explosive?$AA@
	push	ecx
	movss	xmm0, DWORD PTR __real@447a0000
	movss	DWORD PTR [esp], xmm0
	mov	eax, DWORD PTR _res$[ebp]
	push	eax
	mov	ecx, DWORD PTR ?Commands@@3PAUScriptCommands@@A ; Commands
	mov	edx, DWORD PTR [ecx+616]
	call	edx
	add	esp, 16					; 00000010H

; 236  : 
; 237  : 			gen = Commands->Find_Object(Get_Int_Parameter("GDI_Gen"));

	push	OFFSET ??_C@_07CIHEJGNA@GDI_Gen?$AA@
	mov	ecx, DWORD PTR _this$[ebp]
	call	?Get_Int_Parameter@ScriptImpClass@@QAEHPBD@Z ; ScriptImpClass::Get_Int_Parameter
	push	eax
	mov	eax, DWORD PTR ?Commands@@3PAUScriptCommands@@A ; Commands
	mov	ecx, DWORD PTR [eax+96]
	call	ecx
	add	esp, 4
	mov	DWORD PTR _gen$5[ebp], eax

; 238  : 			gpos = Commands->Get_Position(gen);

	mov	eax, DWORD PTR _gen$5[ebp]
	push	eax
	lea	ecx, DWORD PTR $T1[ebp]
	push	ecx
	mov	edx, DWORD PTR ?Commands@@3PAUScriptCommands@@A ; Commands
	mov	eax, DWORD PTR [edx+64]
	call	eax
	add	esp, 8
	push	eax
	lea	ecx, DWORD PTR _gpos$[ebp]
	call	??4Vector3@@QAEAAV0@ABV0@@Z		; Vector3::operator=

; 239  : 			rpos.Z = 100;

	movss	xmm0, DWORD PTR __real@42c80000
	movss	DWORD PTR _rpos$[ebp+8], xmm0

; 240  : 
; 241  : 			rpos.X = gpos.X - 20;

	movss	xmm0, DWORD PTR _gpos$[ebp]
	subss	xmm0, DWORD PTR __real@41a00000
	movss	DWORD PTR _rpos$[ebp], xmm0

; 242  : 			rpos.Y = gpos.Y;

	movss	xmm0, DWORD PTR _gpos$[ebp+4]
	movss	DWORD PTR _rpos$[ebp+4], xmm0

; 243  : 			res = Commands->Create_Object(Get_Parameter("Strike_Preset"),rpos);

	lea	eax, DWORD PTR _rpos$[ebp]
	push	eax
	push	OFFSET ??_C@_0O@BHFGBELH@Strike_Preset?$AA@
	mov	ecx, DWORD PTR _this$[ebp]
	call	?Get_Parameter@ScriptImpClass@@QAEPBDPBD@Z ; ScriptImpClass::Get_Parameter
	push	eax
	mov	ecx, DWORD PTR ?Commands@@3PAUScriptCommands@@A ; Commands
	mov	edx, DWORD PTR [ecx+100]
	call	edx
	add	esp, 8
	mov	DWORD PTR _res$[ebp], eax

; 244  : 
; 245  : 			rpos.X = gpos.X + 20;

	movss	xmm0, DWORD PTR _gpos$[ebp]
	addss	xmm0, DWORD PTR __real@41a00000
	movss	DWORD PTR _rpos$[ebp], xmm0

; 246  : 			rpos.Y = gpos.Y;

	movss	xmm0, DWORD PTR _gpos$[ebp+4]
	movss	DWORD PTR _rpos$[ebp+4], xmm0

; 247  : 			res = Commands->Create_Object(Get_Parameter("Strike_Preset"),rpos);

	lea	eax, DWORD PTR _rpos$[ebp]
	push	eax
	push	OFFSET ??_C@_0O@BHFGBELH@Strike_Preset?$AA@
	mov	ecx, DWORD PTR _this$[ebp]
	call	?Get_Parameter@ScriptImpClass@@QAEPBDPBD@Z ; ScriptImpClass::Get_Parameter
	push	eax
	mov	ecx, DWORD PTR ?Commands@@3PAUScriptCommands@@A ; Commands
	mov	edx, DWORD PTR [ecx+100]
	call	edx
	add	esp, 8
	mov	DWORD PTR _res$[ebp], eax

; 248  : 
; 249  : 			rpos.Z = 0;

	movss	xmm0, DWORD PTR __real@00000000
	movss	DWORD PTR _rpos$[ebp+8], xmm0

; 250  : 			rpos.X = gpos.X - 20;

	movss	xmm0, DWORD PTR _gpos$[ebp]
	subss	xmm0, DWORD PTR __real@41a00000
	movss	DWORD PTR _rpos$[ebp], xmm0

; 251  : 			rpos.Y = gpos.Y;

	movss	xmm0, DWORD PTR _gpos$[ebp+4]
	movss	DWORD PTR _rpos$[ebp+4], xmm0

; 252  : 			res = Commands->Create_Object("Orca Strike Controller",rpos);

	lea	eax, DWORD PTR _rpos$[ebp]
	push	eax
	push	OFFSET ??_C@_0BH@KNCKPPOI@Orca?5Strike?5Controller?$AA@
	mov	ecx, DWORD PTR ?Commands@@3PAUScriptCommands@@A ; Commands
	mov	edx, DWORD PTR [ecx+100]
	call	edx
	add	esp, 8
	mov	DWORD PTR _res$[ebp], eax

; 253  : 
; 254  : 			rpos.X = gpos.X + 20;

	movss	xmm0, DWORD PTR _gpos$[ebp]
	addss	xmm0, DWORD PTR __real@41a00000
	movss	DWORD PTR _rpos$[ebp], xmm0

; 255  : 			rpos.Y = gpos.Y;

	movss	xmm0, DWORD PTR _gpos$[ebp+4]
	movss	DWORD PTR _rpos$[ebp+4], xmm0

; 256  : 			res = Commands->Create_Object("Orca Strike Controller",rpos);

	lea	eax, DWORD PTR _rpos$[ebp]
	push	eax
	push	OFFSET ??_C@_0BH@KNCKPPOI@Orca?5Strike?5Controller?$AA@
	mov	ecx, DWORD PTR ?Commands@@3PAUScriptCommands@@A ; Commands
	mov	edx, DWORD PTR [ecx+100]
	call	edx
	add	esp, 8
	mov	DWORD PTR _res$[ebp], eax

; 257  : 
; 258  : 			rpos.X = gpos.X - 20;

	movss	xmm0, DWORD PTR _gpos$[ebp]
	subss	xmm0, DWORD PTR __real@41a00000
	movss	DWORD PTR _rpos$[ebp], xmm0

; 259  : 			rpos.Y = gpos.Y + 20;

	movss	xmm0, DWORD PTR _gpos$[ebp+4]
	addss	xmm0, DWORD PTR __real@41a00000
	movss	DWORD PTR _rpos$[ebp+4], xmm0

; 260  : 			res = Commands->Create_Object("Orca Strike Controller",rpos);

	lea	eax, DWORD PTR _rpos$[ebp]
	push	eax
	push	OFFSET ??_C@_0BH@KNCKPPOI@Orca?5Strike?5Controller?$AA@
	mov	ecx, DWORD PTR ?Commands@@3PAUScriptCommands@@A ; Commands
	mov	edx, DWORD PTR [ecx+100]
	call	edx
	add	esp, 8
	mov	DWORD PTR _res$[ebp], eax

; 261  : 
; 262  : 			rpos.X = gpos.X + 20;

	movss	xmm0, DWORD PTR _gpos$[ebp]
	addss	xmm0, DWORD PTR __real@41a00000
	movss	DWORD PTR _rpos$[ebp], xmm0

; 263  : 			rpos.Y = gpos.Y - 20;

	movss	xmm0, DWORD PTR _gpos$[ebp+4]
	subss	xmm0, DWORD PTR __real@41a00000
	movss	DWORD PTR _rpos$[ebp+4], xmm0

; 264  : 			res = Commands->Create_Object("Orca Strike Controller",rpos);

	lea	eax, DWORD PTR _rpos$[ebp]
	push	eax
	push	OFFSET ??_C@_0BH@KNCKPPOI@Orca?5Strike?5Controller?$AA@
	mov	ecx, DWORD PTR ?Commands@@3PAUScriptCommands@@A ; Commands
	mov	edx, DWORD PTR [ecx+100]
	call	edx
	add	esp, 8
	mov	DWORD PTR _res$[ebp], eax
$LN16@Custom:

; 265  : 		}
; 266  : 		if (jobRequests < 30)

	mov	eax, DWORD PTR _this$[ebp]
	cmp	DWORD PTR [eax+44], 30			; 0000001eH
	jge	$LN15@Custom

; 267  : 		{
; 268  : 			if (vpadAttackers < 3)

	mov	eax, DWORD PTR _this$[ebp]
	cmp	DWORD PTR [eax+28], 3
	jge	SHORT $LN14@Custom

; 269  : 			{
; 270  : 				msg = 503030; //Signals that this is a bot command

	mov	DWORD PTR _msg$[ebp], 503030		; 0007acf6H

; 271  : 				prm = 500010; //Attack vehicle pad cmd

	mov	DWORD PTR _prm$[ebp], 500010		; 0007a12aH

; 272  : 				Commands->Send_Custom_Event(obj,sender,msg,prm,0);

	push	ecx
	movss	xmm0, DWORD PTR __real@00000000
	movss	DWORD PTR [esp], xmm0
	mov	eax, DWORD PTR _prm$[ebp]
	push	eax
	mov	ecx, DWORD PTR _msg$[ebp]
	push	ecx
	mov	edx, DWORD PTR _sender$[ebp]
	push	edx
	mov	eax, DWORD PTR _obj$[ebp]
	push	eax
	mov	ecx, DWORD PTR ?Commands@@3PAUScriptCommands@@A ; Commands
	mov	edx, DWORD PTR [ecx+140]
	call	edx
	add	esp, 20					; 00000014H

; 273  : 				vpadAttackers++;

	mov	eax, DWORD PTR _this$[ebp]
	mov	ecx, DWORD PTR [eax+28]
	add	ecx, 1
	mov	edx, DWORD PTR _this$[ebp]
	mov	DWORD PTR [edx+28], ecx
	jmp	$LN9@Custom
$LN14@Custom:

; 274  : 			}
; 275  : 			//Make sure it's an ELSE IF not IF if you add a command,not everyone makes this mistake but I have sometimes.
; 276  : 			//Why it's key in this case is probally fairly obvious.
; 277  : 			else if (heliAttackers < 2)

	mov	eax, DWORD PTR _this$[ebp]
	cmp	DWORD PTR [eax+40], 2
	jge	SHORT $LN12@Custom

; 278  : 			{
; 279  : 				msg = 503030;

	mov	DWORD PTR _msg$[ebp], 503030		; 0007acf6H

; 280  : 				prm = 500011; //Attack heli pad cmd

	mov	DWORD PTR _prm$[ebp], 500011		; 0007a12bH

; 281  : 				Commands->Send_Custom_Event(obj,sender,msg,prm,0);

	push	ecx
	movss	xmm0, DWORD PTR __real@00000000
	movss	DWORD PTR [esp], xmm0
	mov	eax, DWORD PTR _prm$[ebp]
	push	eax
	mov	ecx, DWORD PTR _msg$[ebp]
	push	ecx
	mov	edx, DWORD PTR _sender$[ebp]
	push	edx
	mov	eax, DWORD PTR _obj$[ebp]
	push	eax
	mov	ecx, DWORD PTR ?Commands@@3PAUScriptCommands@@A ; Commands
	mov	edx, DWORD PTR [ecx+140]
	call	edx
	add	esp, 20					; 00000014H

; 282  : 				heliAttackers++;

	mov	eax, DWORD PTR _this$[ebp]
	mov	ecx, DWORD PTR [eax+40]
	add	ecx, 1
	mov	edx, DWORD PTR _this$[ebp]
	mov	DWORD PTR [edx+40], ecx
	jmp	$LN9@Custom
$LN12@Custom:

; 283  : 			}
; 284  : 			//The above 2 commands use 2-3 soldiers as the bots cares more about the generators
; 285  : 			//Those 5 bots just try to keep the enemy from getting a vehicle early on
; 286  : 			else if (NodGenAttackers < 5)

	mov	eax, DWORD PTR _this$[ebp]
	cmp	DWORD PTR [eax+36], 5
	jge	SHORT $LN10@Custom

; 287  : 			{
; 288  : 				msg = 503030;

	mov	DWORD PTR _msg$[ebp], 503030		; 0007acf6H

; 289  : 				prm = 500020; //Attack Nod's gen cmd

	mov	DWORD PTR _prm$[ebp], 500020		; 0007a134H

; 290  : 				Commands->Send_Custom_Event(obj,sender,msg,prm,0);

	push	ecx
	movss	xmm0, DWORD PTR __real@00000000
	movss	DWORD PTR [esp], xmm0
	mov	eax, DWORD PTR _prm$[ebp]
	push	eax
	mov	ecx, DWORD PTR _msg$[ebp]
	push	ecx
	mov	edx, DWORD PTR _sender$[ebp]
	push	edx
	mov	eax, DWORD PTR _obj$[ebp]
	push	eax
	mov	ecx, DWORD PTR ?Commands@@3PAUScriptCommands@@A ; Commands
	mov	edx, DWORD PTR [ecx+140]
	call	edx
	add	esp, 20					; 00000014H

; 291  : 				NodGenAttackers++;

	mov	eax, DWORD PTR _this$[ebp]
	mov	ecx, DWORD PTR [eax+36]
	add	ecx, 1
	mov	edx, DWORD PTR _this$[ebp]
	mov	DWORD PTR [edx+36], ecx

; 292  : 			}
; 293  : 			else

	jmp	SHORT $LN9@Custom
$LN10@Custom:

; 294  : 			{
; 295  : 				msg = 503030;

	mov	DWORD PTR _msg$[ebp], 503030		; 0007acf6H

; 296  : 				prm = 500021; //Attack GDI's gen cmd

	mov	DWORD PTR _prm$[ebp], 500021		; 0007a135H

; 297  : 				Commands->Send_Custom_Event(obj,sender,msg,prm,0);

	push	ecx
	movss	xmm0, DWORD PTR __real@00000000
	movss	DWORD PTR [esp], xmm0
	mov	eax, DWORD PTR _prm$[ebp]
	push	eax
	mov	ecx, DWORD PTR _msg$[ebp]
	push	ecx
	mov	edx, DWORD PTR _sender$[ebp]
	push	edx
	mov	eax, DWORD PTR _obj$[ebp]
	push	eax
	mov	ecx, DWORD PTR ?Commands@@3PAUScriptCommands@@A ; Commands
	mov	edx, DWORD PTR [ecx+140]
	call	edx
	add	esp, 20					; 00000014H

; 298  : 				GDIGenAttackers++;

	mov	eax, DWORD PTR _this$[ebp]
	mov	ecx, DWORD PTR [eax+32]
	add	ecx, 1
	mov	edx, DWORD PTR _this$[ebp]
	mov	DWORD PTR [edx+32], ecx
$LN9@Custom:

; 299  : 			}
; 300  : 		}
; 301  : 		else

	jmp	$LN1@Custom
$LN15@Custom:

; 302  : 		{
; 303  : 			//Ok,they got 15 kills against us.......time to be a little more aggressive!
; 304  : 			//We send more troops based on which generator has the most damage and how many bots they
; 305  : 			//have killed. As in: If we've "lost" 30 bots,we attack the most damaged generator
; 306  : 			//with every group and the 2 generator attackers.
; 307  : 
; 308  : 			float GDIGenHP;
; 309  : 			float NodGenHP;
; 310  : 			int random;
; 311  : 
; 312  : 			gen = Commands->Find_Object(Get_Int_Parameter("GDI_Gen"));

	push	OFFSET ??_C@_07CIHEJGNA@GDI_Gen?$AA@
	mov	ecx, DWORD PTR _this$[ebp]
	call	?Get_Int_Parameter@ScriptImpClass@@QAEHPBD@Z ; ScriptImpClass::Get_Int_Parameter
	push	eax
	mov	eax, DWORD PTR ?Commands@@3PAUScriptCommands@@A ; Commands
	mov	ecx, DWORD PTR [eax+96]
	call	ecx
	add	esp, 4
	mov	DWORD PTR _gen$5[ebp], eax

; 313  : 			GDIGenHP = Commands->Get_Health(gen);

	mov	eax, DWORD PTR _gen$5[ebp]
	push	eax
	mov	ecx, DWORD PTR ?Commands@@3PAUScriptCommands@@A ; Commands
	mov	edx, DWORD PTR [ecx+220]
	call	edx
	add	esp, 4
	fstp	DWORD PTR _GDIGenHP$4[ebp]

; 314  : 			gen = Commands->Find_Object(Get_Int_Parameter("Nod_Gen"));

	push	OFFSET ??_C@_07EBLDPGHF@Nod_Gen?$AA@
	mov	ecx, DWORD PTR _this$[ebp]
	call	?Get_Int_Parameter@ScriptImpClass@@QAEHPBD@Z ; ScriptImpClass::Get_Int_Parameter
	push	eax
	mov	eax, DWORD PTR ?Commands@@3PAUScriptCommands@@A ; Commands
	mov	ecx, DWORD PTR [eax+96]
	call	ecx
	add	esp, 4
	mov	DWORD PTR _gen$5[ebp], eax

; 315  : 			NodGenHP = Commands->Get_Health(gen);

	mov	eax, DWORD PTR _gen$5[ebp]
	push	eax
	mov	ecx, DWORD PTR ?Commands@@3PAUScriptCommands@@A ; Commands
	mov	edx, DWORD PTR [ecx+220]
	call	edx
	add	esp, 4
	fstp	DWORD PTR _NodGenHP$3[ebp]

; 316  : 
; 317  : 			if ((vpadAttackers < 3) && (jobRequests < 40))

	mov	eax, DWORD PTR _this$[ebp]
	cmp	DWORD PTR [eax+28], 3
	jge	SHORT $LN7@Custom
	mov	eax, DWORD PTR _this$[ebp]
	cmp	DWORD PTR [eax+44], 40			; 00000028H
	jge	SHORT $LN7@Custom

; 318  : 			{
; 319  : 				msg = 503030; //Signals that this is a bot command

	mov	DWORD PTR _msg$[ebp], 503030		; 0007acf6H

; 320  : 				prm = 500010; //Attack vehicle pad cmd

	mov	DWORD PTR _prm$[ebp], 500010		; 0007a12aH

; 321  : 				Commands->Send_Custom_Event(obj,sender,msg,prm,0);

	push	ecx
	movss	xmm0, DWORD PTR __real@00000000
	movss	DWORD PTR [esp], xmm0
	mov	eax, DWORD PTR _prm$[ebp]
	push	eax
	mov	ecx, DWORD PTR _msg$[ebp]
	push	ecx
	mov	edx, DWORD PTR _sender$[ebp]
	push	edx
	mov	eax, DWORD PTR _obj$[ebp]
	push	eax
	mov	ecx, DWORD PTR ?Commands@@3PAUScriptCommands@@A ; Commands
	mov	edx, DWORD PTR [ecx+140]
	call	edx
	add	esp, 20					; 00000014H

; 322  : 				vpadAttackers++;

	mov	eax, DWORD PTR _this$[ebp]
	mov	ecx, DWORD PTR [eax+28]
	add	ecx, 1
	mov	edx, DWORD PTR _this$[ebp]
	mov	DWORD PTR [edx+28], ecx

; 323  : 			}
; 324  : 			else

	jmp	$LN1@Custom
$LN7@Custom:

; 325  : 			{
; 326  : 				random = Commands->Get_Random_Int(0,2);

	push	2
	push	0
	mov	eax, DWORD PTR ?Commands@@3PAUScriptCommands@@A ; Commands
	mov	ecx, DWORD PTR [eax+152]
	call	ecx
	add	esp, 8
	mov	DWORD PTR _random$2[ebp], eax

; 327  : 				if (!random)

	cmp	DWORD PTR _random$2[ebp], 0
	jne	$LN3@Custom

; 328  : 				{
; 329  : 					if (NodGenHP < GDIGenHP)

	movss	xmm0, DWORD PTR _GDIGenHP$4[ebp]
	comiss	xmm0, DWORD PTR _NodGenHP$3[ebp]
	jbe	SHORT $LN4@Custom

; 330  : 					{
; 331  : 						msg = 503030;

	mov	DWORD PTR _msg$[ebp], 503030		; 0007acf6H

; 332  : 						prm = 500020; //Attack Nod's gen cmd

	mov	DWORD PTR _prm$[ebp], 500020		; 0007a134H

; 333  : 						Commands->Send_Custom_Event(obj,sender,msg,prm,0);

	push	ecx
	movss	xmm0, DWORD PTR __real@00000000
	movss	DWORD PTR [esp], xmm0
	mov	eax, DWORD PTR _prm$[ebp]
	push	eax
	mov	ecx, DWORD PTR _msg$[ebp]
	push	ecx
	mov	edx, DWORD PTR _sender$[ebp]
	push	edx
	mov	eax, DWORD PTR _obj$[ebp]
	push	eax
	mov	ecx, DWORD PTR ?Commands@@3PAUScriptCommands@@A ; Commands
	mov	edx, DWORD PTR [ecx+140]
	call	edx
	add	esp, 20					; 00000014H

; 334  : 						NodGenAttackers++;

	mov	eax, DWORD PTR _this$[ebp]
	mov	ecx, DWORD PTR [eax+36]
	add	ecx, 1
	mov	edx, DWORD PTR _this$[ebp]
	mov	DWORD PTR [edx+36], ecx

; 335  : 					}
; 336  : 					else

	jmp	SHORT $LN3@Custom
$LN4@Custom:

; 337  : 					{
; 338  : 						msg = 503030;

	mov	DWORD PTR _msg$[ebp], 503030		; 0007acf6H

; 339  : 						prm = 500021; //Attack GDI's gen cmd

	mov	DWORD PTR _prm$[ebp], 500021		; 0007a135H

; 340  : 						Commands->Send_Custom_Event(obj,sender,msg,prm,0);

	push	ecx
	movss	xmm0, DWORD PTR __real@00000000
	movss	DWORD PTR [esp], xmm0
	mov	eax, DWORD PTR _prm$[ebp]
	push	eax
	mov	ecx, DWORD PTR _msg$[ebp]
	push	ecx
	mov	edx, DWORD PTR _sender$[ebp]
	push	edx
	mov	eax, DWORD PTR _obj$[ebp]
	push	eax
	mov	ecx, DWORD PTR ?Commands@@3PAUScriptCommands@@A ; Commands
	mov	edx, DWORD PTR [ecx+140]
	call	edx
	add	esp, 20					; 00000014H

; 341  : 						GDIGenAttackers++;

	mov	eax, DWORD PTR _this$[ebp]
	mov	ecx, DWORD PTR [eax+32]
	add	ecx, 1
	mov	edx, DWORD PTR _this$[ebp]
	mov	DWORD PTR [edx+32], ecx
$LN3@Custom:

; 342  : 					}
; 343  : 				}
; 344  : 				if (random == 1)

	cmp	DWORD PTR _random$2[ebp], 1
	jne	SHORT $LN2@Custom

; 345  : 				{
; 346  : 					msg = 503030;

	mov	DWORD PTR _msg$[ebp], 503030		; 0007acf6H

; 347  : 					prm = 500020; //Attack Nod's gen cmd

	mov	DWORD PTR _prm$[ebp], 500020		; 0007a134H

; 348  : 					Commands->Send_Custom_Event(obj,sender,msg,prm,0);

	push	ecx
	movss	xmm0, DWORD PTR __real@00000000
	movss	DWORD PTR [esp], xmm0
	mov	eax, DWORD PTR _prm$[ebp]
	push	eax
	mov	ecx, DWORD PTR _msg$[ebp]
	push	ecx
	mov	edx, DWORD PTR _sender$[ebp]
	push	edx
	mov	eax, DWORD PTR _obj$[ebp]
	push	eax
	mov	ecx, DWORD PTR ?Commands@@3PAUScriptCommands@@A ; Commands
	mov	edx, DWORD PTR [ecx+140]
	call	edx
	add	esp, 20					; 00000014H

; 349  : 					NodGenAttackers++;

	mov	eax, DWORD PTR _this$[ebp]
	mov	ecx, DWORD PTR [eax+36]
	add	ecx, 1
	mov	edx, DWORD PTR _this$[ebp]
	mov	DWORD PTR [edx+36], ecx
$LN2@Custom:

; 350  : 				}
; 351  : 				if (random == 2)

	cmp	DWORD PTR _random$2[ebp], 2
	jne	SHORT $LN1@Custom

; 352  : 				{
; 353  : 					msg = 503030;

	mov	DWORD PTR _msg$[ebp], 503030		; 0007acf6H

; 354  : 					prm = 500021; //Attack GDI's gen cmd

	mov	DWORD PTR _prm$[ebp], 500021		; 0007a135H

; 355  : 					Commands->Send_Custom_Event(obj,sender,msg,prm,0);

	push	ecx
	movss	xmm0, DWORD PTR __real@00000000
	movss	DWORD PTR [esp], xmm0
	mov	eax, DWORD PTR _prm$[ebp]
	push	eax
	mov	ecx, DWORD PTR _msg$[ebp]
	push	ecx
	mov	edx, DWORD PTR _sender$[ebp]
	push	edx
	mov	eax, DWORD PTR _obj$[ebp]
	push	eax
	mov	ecx, DWORD PTR ?Commands@@3PAUScriptCommands@@A ; Commands
	mov	edx, DWORD PTR [ecx+140]
	call	edx
	add	esp, 20					; 00000014H

; 356  : 					GDIGenAttackers++;

	mov	eax, DWORD PTR _this$[ebp]
	mov	ecx, DWORD PTR [eax+32]
	add	ecx, 1
	mov	edx, DWORD PTR _this$[ebp]
	mov	DWORD PTR [edx+32], ecx
$LN1@Custom:
$LN36@Custom:

; 357  : 				}
; 358  : 			}
; 359  : 		}
; 360  : 	}
; 361  : }

	pop	edi
	pop	esi
	pop	ebx
	mov	esp, ebp
	pop	ebp
	ret	16					; 00000010H
?Custom@SUR_NHB@@EAEXPAVScriptableGameObj@@HH0@Z ENDP	; SUR_NHB::Custom
_TEXT	ENDS
; Function compile flags: /Odtp /ZI
; File x:\github\renegade\dragonade_rxd\scripts\survival.cpp
;	COMDAT ?Created@SUR_NHB@@EAEXPAVScriptableGameObj@@@Z
_TEXT	SEGMENT
_this$ = -4						; size = 4
_obj$ = 8						; size = 4
?Created@SUR_NHB@@EAEXPAVScriptableGameObj@@@Z PROC	; SUR_NHB::Created, COMDAT
; _this$ = ecx

; 140  : {

	push	ebp
	mov	ebp, esp
	sub	esp, 68					; 00000044H
	push	ebx
	push	esi
	push	edi
	mov	DWORD PTR _this$[ebp], ecx

; 141  : 	GDIGenAttackers = 0;

	mov	eax, DWORD PTR _this$[ebp]
	mov	DWORD PTR [eax+32], 0

; 142  : 	vpadAttackers = 0;

	mov	eax, DWORD PTR _this$[ebp]
	mov	DWORD PTR [eax+28], 0

; 143  : 	heliAttackers = 0;

	mov	eax, DWORD PTR _this$[ebp]
	mov	DWORD PTR [eax+40], 0

; 144  : 	NodGenAttackers = 0;

	mov	eax, DWORD PTR _this$[ebp]
	mov	DWORD PTR [eax+36], 0

; 145  : 	jobRequests = 0;

	mov	eax, DWORD PTR _this$[ebp]
	mov	DWORD PTR [eax+44], 0

; 146  : }

	pop	edi
	pop	esi
	pop	ebx
	mov	esp, ebp
	pop	ebp
	ret	4
?Created@SUR_NHB@@EAEXPAVScriptableGameObj@@@Z ENDP	; SUR_NHB::Created
_TEXT	ENDS
; Function compile flags: /Odtp /ZI
;	COMDAT ??_GSUR_MiniGen@@UAEPAXI@Z
_TEXT	SEGMENT
_this$ = -4						; size = 4
___flags$ = 8						; size = 4
??_GSUR_MiniGen@@UAEPAXI@Z PROC				; SUR_MiniGen::`scalar deleting destructor', COMDAT
; _this$ = ecx
	push	ebp
	mov	ebp, esp
	sub	esp, 68					; 00000044H
	push	ebx
	push	esi
	push	edi
	mov	DWORD PTR _this$[ebp], ecx
	mov	ecx, DWORD PTR _this$[ebp]
	call	??1SUR_MiniGen@@UAE@XZ
	mov	eax, DWORD PTR ___flags$[ebp]
	and	eax, 1
	je	SHORT $LN1@scalar
	mov	eax, DWORD PTR _this$[ebp]
	push	eax
	call	??3@YAXPAX@Z				; operator delete
	add	esp, 4
$LN1@scalar:
	mov	eax, DWORD PTR _this$[ebp]
	pop	edi
	pop	esi
	pop	ebx
	mov	esp, ebp
	pop	ebp
	ret	4
??_GSUR_MiniGen@@UAEPAXI@Z ENDP				; SUR_MiniGen::`scalar deleting destructor'
_TEXT	ENDS
; Function compile flags: /Odtp /ZI
;	COMDAT ??1SUR_MiniGen@@UAE@XZ
_TEXT	SEGMENT
_this$ = -4						; size = 4
??1SUR_MiniGen@@UAE@XZ PROC				; SUR_MiniGen::~SUR_MiniGen, COMDAT
; _this$ = ecx
	push	ebp
	mov	ebp, esp
	sub	esp, 68					; 00000044H
	push	ebx
	push	esi
	push	edi
	mov	DWORD PTR _this$[ebp], ecx
	mov	ecx, DWORD PTR _this$[ebp]
	call	??1ScriptImpClass@@UAE@XZ		; ScriptImpClass::~ScriptImpClass
	pop	edi
	pop	esi
	pop	ebx
	mov	esp, ebp
	pop	ebp
	ret	0
??1SUR_MiniGen@@UAE@XZ ENDP				; SUR_MiniGen::~SUR_MiniGen
_TEXT	ENDS
; Function compile flags: /Odtp /ZI
;	COMDAT ??0SUR_MiniGen@@QAE@XZ
_TEXT	SEGMENT
_this$ = -4						; size = 4
??0SUR_MiniGen@@QAE@XZ PROC				; SUR_MiniGen::SUR_MiniGen, COMDAT
; _this$ = ecx
	push	ebp
	mov	ebp, esp
	sub	esp, 68					; 00000044H
	push	ebx
	push	esi
	push	edi
	mov	DWORD PTR _this$[ebp], ecx
	mov	ecx, DWORD PTR _this$[ebp]
	call	??0ScriptImpClass@@QAE@XZ		; ScriptImpClass::ScriptImpClass
	mov	eax, DWORD PTR _this$[ebp]
	mov	DWORD PTR [eax], OFFSET ??_7SUR_MiniGen@@6B@
	mov	eax, DWORD PTR _this$[ebp]
	pop	edi
	pop	esi
	pop	ebx
	mov	esp, ebp
	pop	ebp
	ret	0
??0SUR_MiniGen@@QAE@XZ ENDP				; SUR_MiniGen::SUR_MiniGen
_TEXT	ENDS
; Function compile flags: /Odtp /ZI
; File x:\github\renegade\dragonade_rxd\scripts\survival.cpp
;	COMDAT ?Killed@SUR_MiniGen@@EAEXPAVScriptableGameObj@@0@Z
_TEXT	SEGMENT
_i$1 = -12						; size = 4
_tmpObj$ = -8						; size = 4
_this$ = -4						; size = 4
_obj$ = 8						; size = 4
_killer$ = 12						; size = 4
?Killed@SUR_MiniGen@@EAEXPAVScriptableGameObj@@0@Z PROC	; SUR_MiniGen::Killed, COMDAT
; _this$ = ecx

; 128  : {

	push	ebp
	mov	ebp, esp
	sub	esp, 76					; 0000004cH
	push	ebx
	push	esi
	push	edi
	mov	DWORD PTR _this$[ebp], ecx

; 129  : 	GameObject *tmpObj;
; 130  : 	for (int i=1; i <= 4; i++)

	mov	DWORD PTR _i$1[ebp], 1
	jmp	SHORT $LN3@Killed
$LN2@Killed:
	mov	eax, DWORD PTR _i$1[ebp]
	add	eax, 1
	mov	DWORD PTR _i$1[ebp], eax
$LN3@Killed:
	cmp	DWORD PTR _i$1[ebp], 4
	jg	SHORT $LN1@Killed

; 131  : 	{
; 132  : 		tmpObj = Commands->Find_Object(Get_Int_Parameter(i));				//start getting all the Building ID's and Destorying them for game over.

	mov	eax, DWORD PTR _i$1[ebp]
	push	eax
	mov	ecx, DWORD PTR _this$[ebp]
	call	?Get_Int_Parameter@ScriptImpClass@@QAEHH@Z ; ScriptImpClass::Get_Int_Parameter
	push	eax
	mov	ecx, DWORD PTR ?Commands@@3PAUScriptCommands@@A ; Commands
	mov	edx, DWORD PTR [ecx+96]
	call	edx
	add	esp, 4
	mov	DWORD PTR _tmpObj$[ebp], eax

; 133  : 		Commands->Apply_Damage(tmpObj,1,"BlamoKiller",0);			//Apply_Damage (only one that don't crash game)

	push	0
	push	OFFSET ??_C@_0M@IPKOBAPD@BlamoKiller?$AA@
	push	ecx
	movss	xmm0, DWORD PTR __real@3f800000
	movss	DWORD PTR [esp], xmm0
	mov	eax, DWORD PTR _tmpObj$[ebp]
	push	eax
	mov	ecx, DWORD PTR ?Commands@@3PAUScriptCommands@@A ; Commands
	mov	edx, DWORD PTR [ecx+616]
	call	edx
	add	esp, 16					; 00000010H

; 134  : 	}

	jmp	SHORT $LN2@Killed
$LN1@Killed:

; 135  : }

	pop	edi
	pop	esi
	pop	ebx
	mov	esp, ebp
	pop	ebp
	ret	8
?Killed@SUR_MiniGen@@EAEXPAVScriptableGameObj@@0@Z ENDP	; SUR_MiniGen::Killed
_TEXT	ENDS
; Function compile flags: /Odtp /ZI
; File x:\github\renegade\dragonade_rxd\scripts\survival.cpp
;	COMDAT ?Timer_Expired@SUR_MiniGen@@EAEXPAVScriptableGameObj@@H@Z
_TEXT	SEGMENT
tv64 = -72						; size = 4
_this$ = -4						; size = 4
_obj$ = 8						; size = 4
_number$ = 12						; size = 4
?Timer_Expired@SUR_MiniGen@@EAEXPAVScriptableGameObj@@H@Z PROC ; SUR_MiniGen::Timer_Expired, COMDAT
; _this$ = ecx

; 118  : {

	push	ebp
	mov	ebp, esp
	sub	esp, 72					; 00000048H
	push	ebx
	push	esi
	push	edi
	mov	DWORD PTR _this$[ebp], ecx

; 119  : 	switch (number)

	mov	eax, DWORD PTR _number$[ebp]
	mov	DWORD PTR tv64[ebp], eax
	cmp	DWORD PTR tv64[ebp], 1
	je	SHORT $LN1@Timer_Expi
	jmp	SHORT $LN2@Timer_Expi
$LN1@Timer_Expi:

; 120  : 	{
; 121  : 	case 1:
; 122  : 		Commands->Apply_Damage(obj,10000,"Explosive",0);

	push	0
	push	OFFSET ??_C@_09IGNDJJLI@Explosive?$AA@
	push	ecx
	movss	xmm0, DWORD PTR __real@461c4000
	movss	DWORD PTR [esp], xmm0
	mov	eax, DWORD PTR _obj$[ebp]
	push	eax
	mov	ecx, DWORD PTR ?Commands@@3PAUScriptCommands@@A ; Commands
	mov	edx, DWORD PTR [ecx+616]
	call	edx
	add	esp, 16					; 00000010H
$LN2@Timer_Expi:

; 123  : 		break;
; 124  : 	}
; 125  : }

	pop	edi
	pop	esi
	pop	ebx
	mov	esp, ebp
	pop	ebp
	ret	8
?Timer_Expired@SUR_MiniGen@@EAEXPAVScriptableGameObj@@H@Z ENDP ; SUR_MiniGen::Timer_Expired
_TEXT	ENDS
; Function compile flags: /Odtp /ZI
; File x:\github\renegade\dragonade_rxd\scripts\survival.cpp
;	COMDAT ?Created@SUR_MiniGen@@EAEXPAVScriptableGameObj@@@Z
_TEXT	SEGMENT
_this$ = -4						; size = 4
_obj$ = 8						; size = 4
?Created@SUR_MiniGen@@EAEXPAVScriptableGameObj@@@Z PROC	; SUR_MiniGen::Created, COMDAT
; _this$ = ecx

; 113  : {

	push	ebp
	mov	ebp, esp
	sub	esp, 68					; 00000044H
	push	ebx
	push	esi
	push	edi
	mov	DWORD PTR _this$[ebp], ecx

; 114  : 	Commands->Start_Timer(obj,this,Get_Float_Parameter("Time_Delay"),1);

	push	1
	push	OFFSET ??_C@_0L@JCFEAFCJ@Time_Delay?$AA@
	mov	ecx, DWORD PTR _this$[ebp]
	call	?Get_Float_Parameter@ScriptImpClass@@QAEMPBD@Z ; ScriptImpClass::Get_Float_Parameter
	push	ecx
	fstp	DWORD PTR [esp]
	mov	eax, DWORD PTR _this$[ebp]
	push	eax
	mov	ecx, DWORD PTR _obj$[ebp]
	push	ecx
	mov	edx, DWORD PTR ?Commands@@3PAUScriptCommands@@A ; Commands
	mov	eax, DWORD PTR [edx+128]
	call	eax
	add	esp, 16					; 00000010H

; 115  : }

	pop	edi
	pop	esi
	pop	ebx
	mov	esp, ebp
	pop	ebp
	ret	4
?Created@SUR_MiniGen@@EAEXPAVScriptableGameObj@@@Z ENDP	; SUR_MiniGen::Created
_TEXT	ENDS
; Function compile flags: /Odtp /ZI
;	COMDAT ??_GSUR_Generator_Zone@@UAEPAXI@Z
_TEXT	SEGMENT
_this$ = -4						; size = 4
___flags$ = 8						; size = 4
??_GSUR_Generator_Zone@@UAEPAXI@Z PROC			; SUR_Generator_Zone::`scalar deleting destructor', COMDAT
; _this$ = ecx
	push	ebp
	mov	ebp, esp
	sub	esp, 68					; 00000044H
	push	ebx
	push	esi
	push	edi
	mov	DWORD PTR _this$[ebp], ecx
	mov	ecx, DWORD PTR _this$[ebp]
	call	??1SUR_Generator_Zone@@UAE@XZ
	mov	eax, DWORD PTR ___flags$[ebp]
	and	eax, 1
	je	SHORT $LN1@scalar
	mov	eax, DWORD PTR _this$[ebp]
	push	eax
	call	??3@YAXPAX@Z				; operator delete
	add	esp, 4
$LN1@scalar:
	mov	eax, DWORD PTR _this$[ebp]
	pop	edi
	pop	esi
	pop	ebx
	mov	esp, ebp
	pop	ebp
	ret	4
??_GSUR_Generator_Zone@@UAEPAXI@Z ENDP			; SUR_Generator_Zone::`scalar deleting destructor'
_TEXT	ENDS
; Function compile flags: /Odtp /ZI
;	COMDAT ??1SUR_Generator_Zone@@UAE@XZ
_TEXT	SEGMENT
_this$ = -4						; size = 4
??1SUR_Generator_Zone@@UAE@XZ PROC			; SUR_Generator_Zone::~SUR_Generator_Zone, COMDAT
; _this$ = ecx
	push	ebp
	mov	ebp, esp
	sub	esp, 68					; 00000044H
	push	ebx
	push	esi
	push	edi
	mov	DWORD PTR _this$[ebp], ecx
	mov	ecx, DWORD PTR _this$[ebp]
	call	??1ScriptImpClass@@UAE@XZ		; ScriptImpClass::~ScriptImpClass
	pop	edi
	pop	esi
	pop	ebx
	mov	esp, ebp
	pop	ebp
	ret	0
??1SUR_Generator_Zone@@UAE@XZ ENDP			; SUR_Generator_Zone::~SUR_Generator_Zone
_TEXT	ENDS
; Function compile flags: /Odtp /ZI
;	COMDAT ??0SUR_Generator_Zone@@QAE@XZ
_TEXT	SEGMENT
_this$ = -4						; size = 4
??0SUR_Generator_Zone@@QAE@XZ PROC			; SUR_Generator_Zone::SUR_Generator_Zone, COMDAT
; _this$ = ecx
	push	ebp
	mov	ebp, esp
	sub	esp, 68					; 00000044H
	push	ebx
	push	esi
	push	edi
	mov	DWORD PTR _this$[ebp], ecx
	mov	ecx, DWORD PTR _this$[ebp]
	call	??0ScriptImpClass@@QAE@XZ		; ScriptImpClass::ScriptImpClass
	mov	eax, DWORD PTR _this$[ebp]
	mov	DWORD PTR [eax], OFFSET ??_7SUR_Generator_Zone@@6B@
	mov	eax, DWORD PTR _this$[ebp]
	pop	edi
	pop	esi
	pop	ebx
	mov	esp, ebp
	pop	ebp
	ret	0
??0SUR_Generator_Zone@@QAE@XZ ENDP			; SUR_Generator_Zone::SUR_Generator_Zone
_TEXT	ENDS
; Function compile flags: /Odtp /ZI
; File x:\github\renegade\dragonade_rxd\scripts\survival.cpp
;	COMDAT ?Register_Auto_Save_Variables@SUR_Generator_Zone@@UAEXXZ
_TEXT	SEGMENT
_this$ = -4						; size = 4
?Register_Auto_Save_Variables@SUR_Generator_Zone@@UAEXXZ PROC ; SUR_Generator_Zone::Register_Auto_Save_Variables, COMDAT
; _this$ = ecx

; 105  : {

	push	ebp
	mov	ebp, esp
	sub	esp, 68					; 00000044H
	push	ebx
	push	esi
	push	edi
	mov	DWORD PTR _this$[ebp], ecx

; 106  : 	Auto_Save_Variable(&energy,4,1);

	push	1
	push	4
	mov	eax, DWORD PTR _this$[ebp]
	add	eax, 28					; 0000001cH
	push	eax
	mov	ecx, DWORD PTR _this$[ebp]
	call	?Auto_Save_Variable@ScriptImpClass@@QAEXPAXHH@Z ; ScriptImpClass::Auto_Save_Variable

; 107  : 	Auto_Save_Variable(&curEmitter,4,1);

	push	1
	push	4
	mov	eax, DWORD PTR _this$[ebp]
	add	eax, 32					; 00000020H
	push	eax
	mov	ecx, DWORD PTR _this$[ebp]
	call	?Auto_Save_Variable@ScriptImpClass@@QAEXPAXHH@Z ; ScriptImpClass::Auto_Save_Variable

; 108  : }

	pop	edi
	pop	esi
	pop	ebx
	mov	esp, ebp
	pop	ebp
	ret	0
?Register_Auto_Save_Variables@SUR_Generator_Zone@@UAEXXZ ENDP ; SUR_Generator_Zone::Register_Auto_Save_Variables
_TEXT	ENDS
; Function compile flags: /Odtp /ZI
; File x:\github\renegade\dragonade_rxd\scripts\survival.cpp
;	COMDAT ?Entered@SUR_Generator_Zone@@EAEXPAVScriptableGameObj@@0@Z
_TEXT	SEGMENT
$T1 = -96						; size = 12
_pname$ = -20						; size = 4
_pos$ = -16						; size = 12
_this$ = -4						; size = 4
_obj$ = 8						; size = 4
_enterer$ = 12						; size = 4
?Entered@SUR_Generator_Zone@@EAEXPAVScriptableGameObj@@0@Z PROC ; SUR_Generator_Zone::Entered, COMDAT
; _this$ = ecx

; 90   : {

	push	ebp
	mov	ebp, esp
	sub	esp, 96					; 00000060H
	push	ebx
	push	esi
	push	edi
	mov	DWORD PTR _this$[ebp], ecx

; 91   : 	Vector3 pos;

	lea	ecx, DWORD PTR _pos$[ebp]
	call	??0Vector3@@QAE@XZ			; Vector3::Vector3

; 92   : 	const char *pname;
; 93   : 	pos = Get_Vector3_Parameter("Emitter_Pos");

	push	OFFSET ??_C@_0M@LGLODOFO@Emitter_Pos?$AA@
	lea	eax, DWORD PTR $T1[ebp]
	push	eax
	mov	ecx, DWORD PTR _this$[ebp]
	call	?Get_Vector3_Parameter@ScriptImpClass@@QAE?AVVector3@@PBD@Z ; ScriptImpClass::Get_Vector3_Parameter
	push	eax
	lea	ecx, DWORD PTR _pos$[ebp]
	call	??4Vector3@@QAEAAV0@ABV0@@Z		; Vector3::operator=

; 94   : 	pname = Get_Parameter("Supply_Truck_Preset");

	push	OFFSET ??_C@_0BE@FAAIECIN@Supply_Truck_Preset?$AA@
	mov	ecx, DWORD PTR _this$[ebp]
	call	?Get_Parameter@ScriptImpClass@@QAEPBDPBD@Z ; ScriptImpClass::Get_Parameter
	mov	DWORD PTR _pname$[ebp], eax

; 95   : 	if (!_stricmp(Commands->Get_Preset_Name(enterer),pname))

	mov	eax, DWORD PTR _pname$[ebp]
	push	eax
	mov	ecx, DWORD PTR _enterer$[ebp]
	push	ecx
	mov	edx, DWORD PTR ?Commands@@3PAUScriptCommands@@A ; Commands
	mov	eax, DWORD PTR [edx+116]
	call	eax
	add	esp, 4
	push	eax
	call	DWORD PTR __imp___stricmp
	add	esp, 8
	test	eax, eax
	jne	$LN1@Entered

; 96   : 	{
; 97   : 		energy++;

	mov	eax, DWORD PTR _this$[ebp]
	mov	ecx, DWORD PTR [eax+28]
	add	ecx, 1
	mov	edx, DWORD PTR _this$[ebp]
	mov	DWORD PTR [edx+28], ecx

; 98   : 		Commands->Apply_Damage(enterer,10000,"Explosive",0);

	push	0
	push	OFFSET ??_C@_09IGNDJJLI@Explosive?$AA@
	push	ecx
	movss	xmm0, DWORD PTR __real@461c4000
	movss	DWORD PTR [esp], xmm0
	mov	eax, DWORD PTR _enterer$[ebp]
	push	eax
	mov	ecx, DWORD PTR ?Commands@@3PAUScriptCommands@@A ; Commands
	mov	edx, DWORD PTR [ecx+616]
	call	edx
	add	esp, 16					; 00000010H

; 99   : 		Commands->Apply_Damage(Commands->Find_Object(curEmitter),10000,"BlamoKiller",0);

	push	0
	push	OFFSET ??_C@_0M@IPKOBAPD@BlamoKiller?$AA@
	push	ecx
	movss	xmm0, DWORD PTR __real@461c4000
	movss	DWORD PTR [esp], xmm0
	mov	eax, DWORD PTR _this$[ebp]
	mov	ecx, DWORD PTR [eax+32]
	push	ecx
	mov	edx, DWORD PTR ?Commands@@3PAUScriptCommands@@A ; Commands
	mov	eax, DWORD PTR [edx+96]
	call	eax
	add	esp, 4
	push	eax
	mov	ecx, DWORD PTR ?Commands@@3PAUScriptCommands@@A ; Commands
	mov	edx, DWORD PTR [ecx+616]
	call	edx
	add	esp, 16					; 00000010H

; 100  : 		curEmitter = Commands->Get_ID(Commands->Create_Object(Get_Parameter(6 - energy),pos));

	lea	eax, DWORD PTR _pos$[ebp]
	push	eax
	mov	ecx, DWORD PTR _this$[ebp]
	mov	edx, 6
	sub	edx, DWORD PTR [ecx+28]
	push	edx
	mov	ecx, DWORD PTR _this$[ebp]
	call	?Get_Parameter@ScriptImpClass@@QAEPBDH@Z ; ScriptImpClass::Get_Parameter
	push	eax
	mov	eax, DWORD PTR ?Commands@@3PAUScriptCommands@@A ; Commands
	mov	ecx, DWORD PTR [eax+100]
	call	ecx
	add	esp, 8
	push	eax
	mov	edx, DWORD PTR ?Commands@@3PAUScriptCommands@@A ; Commands
	mov	eax, DWORD PTR [edx+108]
	call	eax
	add	esp, 4
	mov	ecx, DWORD PTR _this$[ebp]
	mov	DWORD PTR [ecx+32], eax
$LN1@Entered:

; 101  : 	}
; 102  : }

	pop	edi
	pop	esi
	pop	ebx
	mov	esp, ebp
	pop	ebp
	ret	8
?Entered@SUR_Generator_Zone@@EAEXPAVScriptableGameObj@@0@Z ENDP ; SUR_Generator_Zone::Entered
_TEXT	ENDS
; Function compile flags: /Odtp /ZI
; File x:\github\renegade\dragonade_rxd\scripts\survival.cpp
;	COMDAT ?Timer_Expired@SUR_Generator_Zone@@EAEXPAVScriptableGameObj@@H@Z
_TEXT	SEGMENT
tv66 = -104						; size = 4
$T1 = -100						; size = 12
_i$2 = -24						; size = 4
_tmpObj$ = -20						; size = 4
_pos$ = -16						; size = 12
_this$ = -4						; size = 4
_obj$ = 8						; size = 4
_number$ = 12						; size = 4
?Timer_Expired@SUR_Generator_Zone@@EAEXPAVScriptableGameObj@@H@Z PROC ; SUR_Generator_Zone::Timer_Expired, COMDAT
; _this$ = ecx

; 62   : {

	push	ebp
	mov	ebp, esp
	sub	esp, 104				; 00000068H
	push	ebx
	push	esi
	push	edi
	mov	DWORD PTR _this$[ebp], ecx

; 63   : 	Vector3 pos;

	lea	ecx, DWORD PTR _pos$[ebp]
	call	??0Vector3@@QAE@XZ			; Vector3::Vector3

; 64   : 	pos = Get_Vector3_Parameter("Emitter_Pos");

	push	OFFSET ??_C@_0M@LGLODOFO@Emitter_Pos?$AA@
	lea	eax, DWORD PTR $T1[ebp]
	push	eax
	mov	ecx, DWORD PTR _this$[ebp]
	call	?Get_Vector3_Parameter@ScriptImpClass@@QAE?AVVector3@@PBD@Z ; ScriptImpClass::Get_Vector3_Parameter
	push	eax
	lea	ecx, DWORD PTR _pos$[ebp]
	call	??4Vector3@@QAEAAV0@ABV0@@Z		; Vector3::operator=

; 65   : 	GameObject *tmpObj;
; 66   : 	switch (number)

	mov	eax, DWORD PTR _number$[ebp]
	mov	DWORD PTR tv66[ebp], eax
	cmp	DWORD PTR tv66[ebp], 1
	je	SHORT $LN6@Timer_Expi
	jmp	$LN7@Timer_Expi
$LN6@Timer_Expi:

; 67   : 	{
; 68   : 	case 1:
; 69   : 		energy--;

	mov	eax, DWORD PTR _this$[ebp]
	mov	ecx, DWORD PTR [eax+28]
	sub	ecx, 1
	mov	edx, DWORD PTR _this$[ebp]
	mov	DWORD PTR [edx+28], ecx

; 70   : 		if (energy <= 0)

	mov	eax, DWORD PTR _this$[ebp]
	cmp	DWORD PTR [eax+28], 0
	jg	SHORT $LN5@Timer_Expi

; 71   : 		{
; 72   : 			for (int i=1; i <= 3; i++)

	mov	DWORD PTR _i$2[ebp], 1
	jmp	SHORT $LN4@Timer_Expi
$LN3@Timer_Expi:
	mov	eax, DWORD PTR _i$2[ebp]
	add	eax, 1
	mov	DWORD PTR _i$2[ebp], eax
$LN4@Timer_Expi:
	cmp	DWORD PTR _i$2[ebp], 3
	jg	SHORT $LN2@Timer_Expi

; 73   : 			{
; 74   : 				tmpObj = Commands->Find_Object(Get_Int_Parameter(5 + i));				//start getting all the Building ID's and Destorying them for game over.

	mov	eax, DWORD PTR _i$2[ebp]
	add	eax, 5
	push	eax
	mov	ecx, DWORD PTR _this$[ebp]
	call	?Get_Int_Parameter@ScriptImpClass@@QAEHH@Z ; ScriptImpClass::Get_Int_Parameter
	push	eax
	mov	ecx, DWORD PTR ?Commands@@3PAUScriptCommands@@A ; Commands
	mov	edx, DWORD PTR [ecx+96]
	call	edx
	add	esp, 4
	mov	DWORD PTR _tmpObj$[ebp], eax

; 75   : //				maxHealth = Commands->Get_Max_Health(tmpObj);					//get buildings max health
; 76   : 				Commands->Apply_Damage(tmpObj,10000,"Explosive",0);			//Apply_Damage (only one that don't crash game)

	push	0
	push	OFFSET ??_C@_09IGNDJJLI@Explosive?$AA@
	push	ecx
	movss	xmm0, DWORD PTR __real@461c4000
	movss	DWORD PTR [esp], xmm0
	mov	eax, DWORD PTR _tmpObj$[ebp]
	push	eax
	mov	ecx, DWORD PTR ?Commands@@3PAUScriptCommands@@A ; Commands
	mov	edx, DWORD PTR [ecx+616]
	call	edx
	add	esp, 16					; 00000010H

; 77   : 			}

	jmp	SHORT $LN3@Timer_Expi
$LN2@Timer_Expi:

; 78   : 		}
; 79   : 		else

	jmp	$LN1@Timer_Expi
$LN5@Timer_Expi:

; 80   : 		{
; 81   : 			Commands->Apply_Damage(Commands->Find_Object(curEmitter),10000,"BlamoKiller",0);

	push	0
	push	OFFSET ??_C@_0M@IPKOBAPD@BlamoKiller?$AA@
	push	ecx
	movss	xmm0, DWORD PTR __real@461c4000
	movss	DWORD PTR [esp], xmm0
	mov	eax, DWORD PTR _this$[ebp]
	mov	ecx, DWORD PTR [eax+32]
	push	ecx
	mov	edx, DWORD PTR ?Commands@@3PAUScriptCommands@@A ; Commands
	mov	eax, DWORD PTR [edx+96]
	call	eax
	add	esp, 4
	push	eax
	mov	ecx, DWORD PTR ?Commands@@3PAUScriptCommands@@A ; Commands
	mov	edx, DWORD PTR [ecx+616]
	call	edx
	add	esp, 16					; 00000010H

; 82   : 			curEmitter = Commands->Get_ID(Commands->Create_Object(Get_Parameter(6 - energy),pos));

	lea	eax, DWORD PTR _pos$[ebp]
	push	eax
	mov	ecx, DWORD PTR _this$[ebp]
	mov	edx, 6
	sub	edx, DWORD PTR [ecx+28]
	push	edx
	mov	ecx, DWORD PTR _this$[ebp]
	call	?Get_Parameter@ScriptImpClass@@QAEPBDH@Z ; ScriptImpClass::Get_Parameter
	push	eax
	mov	eax, DWORD PTR ?Commands@@3PAUScriptCommands@@A ; Commands
	mov	ecx, DWORD PTR [eax+100]
	call	ecx
	add	esp, 8
	push	eax
	mov	edx, DWORD PTR ?Commands@@3PAUScriptCommands@@A ; Commands
	mov	eax, DWORD PTR [edx+108]
	call	eax
	add	esp, 4
	mov	ecx, DWORD PTR _this$[ebp]
	mov	DWORD PTR [ecx+32], eax

; 83   : 			Commands->Start_Timer(obj,this,Get_Float_Parameter("Time_Delay"),1);

	push	1
	push	OFFSET ??_C@_0L@JCFEAFCJ@Time_Delay?$AA@
	mov	ecx, DWORD PTR _this$[ebp]
	call	?Get_Float_Parameter@ScriptImpClass@@QAEMPBD@Z ; ScriptImpClass::Get_Float_Parameter
	push	ecx
	fstp	DWORD PTR [esp]
	mov	eax, DWORD PTR _this$[ebp]
	push	eax
	mov	ecx, DWORD PTR _obj$[ebp]
	push	ecx
	mov	edx, DWORD PTR ?Commands@@3PAUScriptCommands@@A ; Commands
	mov	eax, DWORD PTR [edx+128]
	call	eax
	add	esp, 16					; 00000010H
$LN1@Timer_Expi:
$LN7@Timer_Expi:

; 84   : 		}
; 85   : 		break;
; 86   : 	}
; 87   : }

	pop	edi
	pop	esi
	pop	ebx
	mov	esp, ebp
	pop	ebp
	ret	8
?Timer_Expired@SUR_Generator_Zone@@EAEXPAVScriptableGameObj@@H@Z ENDP ; SUR_Generator_Zone::Timer_Expired
_TEXT	ENDS
; Function compile flags: /Odtp /ZI
; File x:\github\renegade\dragonade_rxd\scripts\survival.cpp
;	COMDAT ?Created@SUR_Generator_Zone@@EAEXPAVScriptableGameObj@@@Z
_TEXT	SEGMENT
$T1 = -92						; size = 12
_pos$ = -16						; size = 12
_this$ = -4						; size = 4
_obj$ = 8						; size = 4
?Created@SUR_Generator_Zone@@EAEXPAVScriptableGameObj@@@Z PROC ; SUR_Generator_Zone::Created, COMDAT
; _this$ = ecx

; 54   : {

	push	ebp
	mov	ebp, esp
	sub	esp, 92					; 0000005cH
	push	ebx
	push	esi
	push	edi
	mov	DWORD PTR _this$[ebp], ecx

; 55   : 	Vector3 pos;

	lea	ecx, DWORD PTR _pos$[ebp]
	call	??0Vector3@@QAE@XZ			; Vector3::Vector3

; 56   : 	pos = Get_Vector3_Parameter("Emitter_Pos");

	push	OFFSET ??_C@_0M@LGLODOFO@Emitter_Pos?$AA@
	lea	eax, DWORD PTR $T1[ebp]
	push	eax
	mov	ecx, DWORD PTR _this$[ebp]
	call	?Get_Vector3_Parameter@ScriptImpClass@@QAE?AVVector3@@PBD@Z ; ScriptImpClass::Get_Vector3_Parameter
	push	eax
	lea	ecx, DWORD PTR _pos$[ebp]
	call	??4Vector3@@QAEAAV0@ABV0@@Z		; Vector3::operator=

; 57   : 	Commands->Start_Timer(obj,this,Get_Float_Parameter("Time_Delay"),1);

	push	1
	push	OFFSET ??_C@_0L@JCFEAFCJ@Time_Delay?$AA@
	mov	ecx, DWORD PTR _this$[ebp]
	call	?Get_Float_Parameter@ScriptImpClass@@QAEMPBD@Z ; ScriptImpClass::Get_Float_Parameter
	push	ecx
	fstp	DWORD PTR [esp]
	mov	eax, DWORD PTR _this$[ebp]
	push	eax
	mov	ecx, DWORD PTR _obj$[ebp]
	push	ecx
	mov	edx, DWORD PTR ?Commands@@3PAUScriptCommands@@A ; Commands
	mov	eax, DWORD PTR [edx+128]
	call	eax
	add	esp, 16					; 00000010H

; 58   : 	curEmitter = Commands->Get_ID(Commands->Create_Object(Get_Parameter("Emitter_Preset_Good"),pos));

	lea	eax, DWORD PTR _pos$[ebp]
	push	eax
	push	OFFSET ??_C@_0BE@DHDDJGEO@Emitter_Preset_Good?$AA@
	mov	ecx, DWORD PTR _this$[ebp]
	call	?Get_Parameter@ScriptImpClass@@QAEPBDPBD@Z ; ScriptImpClass::Get_Parameter
	push	eax
	mov	ecx, DWORD PTR ?Commands@@3PAUScriptCommands@@A ; Commands
	mov	edx, DWORD PTR [ecx+100]
	call	edx
	add	esp, 8
	push	eax
	mov	eax, DWORD PTR ?Commands@@3PAUScriptCommands@@A ; Commands
	mov	ecx, DWORD PTR [eax+108]
	call	ecx
	add	esp, 4
	mov	edx, DWORD PTR _this$[ebp]
	mov	DWORD PTR [edx+32], eax

; 59   : }

	pop	edi
	pop	esi
	pop	ebx
	mov	esp, ebp
	pop	ebp
	ret	4
?Created@SUR_Generator_Zone@@EAEXPAVScriptableGameObj@@@Z ENDP ; SUR_Generator_Zone::Created
_TEXT	ENDS
; Function compile flags: /Odtp /ZI
;	COMDAT ??_GSUR_Spawn_Delay@@UAEPAXI@Z
_TEXT	SEGMENT
_this$ = -4						; size = 4
___flags$ = 8						; size = 4
??_GSUR_Spawn_Delay@@UAEPAXI@Z PROC			; SUR_Spawn_Delay::`scalar deleting destructor', COMDAT
; _this$ = ecx
	push	ebp
	mov	ebp, esp
	sub	esp, 68					; 00000044H
	push	ebx
	push	esi
	push	edi
	mov	DWORD PTR _this$[ebp], ecx
	mov	ecx, DWORD PTR _this$[ebp]
	call	??1SUR_Spawn_Delay@@UAE@XZ
	mov	eax, DWORD PTR ___flags$[ebp]
	and	eax, 1
	je	SHORT $LN1@scalar
	mov	eax, DWORD PTR _this$[ebp]
	push	eax
	call	??3@YAXPAX@Z				; operator delete
	add	esp, 4
$LN1@scalar:
	mov	eax, DWORD PTR _this$[ebp]
	pop	edi
	pop	esi
	pop	ebx
	mov	esp, ebp
	pop	ebp
	ret	4
??_GSUR_Spawn_Delay@@UAEPAXI@Z ENDP			; SUR_Spawn_Delay::`scalar deleting destructor'
_TEXT	ENDS
; Function compile flags: /Odtp /ZI
;	COMDAT ??1SUR_Spawn_Delay@@UAE@XZ
_TEXT	SEGMENT
_this$ = -4						; size = 4
??1SUR_Spawn_Delay@@UAE@XZ PROC				; SUR_Spawn_Delay::~SUR_Spawn_Delay, COMDAT
; _this$ = ecx
	push	ebp
	mov	ebp, esp
	sub	esp, 68					; 00000044H
	push	ebx
	push	esi
	push	edi
	mov	DWORD PTR _this$[ebp], ecx
	mov	ecx, DWORD PTR _this$[ebp]
	call	??1ScriptImpClass@@UAE@XZ		; ScriptImpClass::~ScriptImpClass
	pop	edi
	pop	esi
	pop	ebx
	mov	esp, ebp
	pop	ebp
	ret	0
??1SUR_Spawn_Delay@@UAE@XZ ENDP				; SUR_Spawn_Delay::~SUR_Spawn_Delay
_TEXT	ENDS
; Function compile flags: /Odtp /ZI
;	COMDAT ??0SUR_Spawn_Delay@@QAE@XZ
_TEXT	SEGMENT
_this$ = -4						; size = 4
??0SUR_Spawn_Delay@@QAE@XZ PROC				; SUR_Spawn_Delay::SUR_Spawn_Delay, COMDAT
; _this$ = ecx
	push	ebp
	mov	ebp, esp
	sub	esp, 68					; 00000044H
	push	ebx
	push	esi
	push	edi
	mov	DWORD PTR _this$[ebp], ecx
	mov	ecx, DWORD PTR _this$[ebp]
	call	??0ScriptImpClass@@QAE@XZ		; ScriptImpClass::ScriptImpClass
	mov	eax, DWORD PTR _this$[ebp]
	mov	DWORD PTR [eax], OFFSET ??_7SUR_Spawn_Delay@@6B@
	mov	eax, DWORD PTR _this$[ebp]
	pop	edi
	pop	esi
	pop	ebx
	mov	esp, ebp
	pop	ebp
	ret	0
??0SUR_Spawn_Delay@@QAE@XZ ENDP				; SUR_Spawn_Delay::SUR_Spawn_Delay
_TEXT	ENDS
; Function compile flags: /Odtp /ZI
; File x:\github\renegade\dragonade_rxd\scripts\survival.cpp
;	COMDAT ?Timer_Expired@SUR_Spawn_Delay@@EAEXPAVScriptableGameObj@@H@Z
_TEXT	SEGMENT
tv95 = -344						; size = 4
$T1 = -340						; size = 12
$T2 = -328						; size = 12
$T3 = -316						; size = 12
$T4 = -304						; size = 12
_aps$ = -228						; size = 196
_res$ = -32						; size = 4
_position$ = -28					; size = 12
_spawnpos$ = -16					; size = 12
_this$ = -4						; size = 4
_obj$ = 8						; size = 4
_number$ = 12						; size = 4
?Timer_Expired@SUR_Spawn_Delay@@EAEXPAVScriptableGameObj@@H@Z PROC ; SUR_Spawn_Delay::Timer_Expired, COMDAT
; _this$ = ecx

; 23   : {

	push	ebp
	mov	ebp, esp
	sub	esp, 344				; 00000158H
	push	ebx
	push	esi
	push	edi
	mov	DWORD PTR _this$[ebp], ecx

; 24   : 	Vector3 spawnpos;

	lea	ecx, DWORD PTR _spawnpos$[ebp]
	call	??0Vector3@@QAE@XZ			; Vector3::Vector3

; 25   : 	Vector3 position;

	lea	ecx, DWORD PTR _position$[ebp]
	call	??0Vector3@@QAE@XZ			; Vector3::Vector3

; 26   : 	GameObject *res;
; 27   : 	ActionParamsStruct aps;

	lea	ecx, DWORD PTR _aps$[ebp]
	call	??0ActionParamsStruct@@QAE@XZ		; ActionParamsStruct::ActionParamsStruct

; 28   : 	position = Get_Vector3_Parameter("Spawn_Pos");

	push	OFFSET ??_C@_09IPFCLICN@Spawn_Pos?$AA@
	lea	eax, DWORD PTR $T1[ebp]
	push	eax
	mov	ecx, DWORD PTR _this$[ebp]
	call	?Get_Vector3_Parameter@ScriptImpClass@@QAE?AVVector3@@PBD@Z ; ScriptImpClass::Get_Vector3_Parameter
	push	eax
	lea	ecx, DWORD PTR _position$[ebp]
	call	??4Vector3@@QAEAAV0@ABV0@@Z		; Vector3::operator=

; 29   : 	spawnpos.X = Commands->Get_Position(obj).X + position.X;

	mov	eax, DWORD PTR _obj$[ebp]
	push	eax
	lea	ecx, DWORD PTR $T2[ebp]
	push	ecx
	mov	edx, DWORD PTR ?Commands@@3PAUScriptCommands@@A ; Commands
	mov	eax, DWORD PTR [edx+64]
	call	eax
	add	esp, 8
	movss	xmm0, DWORD PTR [eax]
	addss	xmm0, DWORD PTR _position$[ebp]
	movss	DWORD PTR _spawnpos$[ebp], xmm0

; 30   : 	spawnpos.Y = Commands->Get_Position(obj).Y + position.Y;

	mov	eax, DWORD PTR _obj$[ebp]
	push	eax
	lea	ecx, DWORD PTR $T3[ebp]
	push	ecx
	mov	edx, DWORD PTR ?Commands@@3PAUScriptCommands@@A ; Commands
	mov	eax, DWORD PTR [edx+64]
	call	eax
	add	esp, 8
	movss	xmm0, DWORD PTR [eax+4]
	addss	xmm0, DWORD PTR _position$[ebp+4]
	movss	DWORD PTR _spawnpos$[ebp+4], xmm0

; 31   : 	spawnpos.Z = Commands->Get_Position(obj).Z + position.Z;

	mov	eax, DWORD PTR _obj$[ebp]
	push	eax
	lea	ecx, DWORD PTR $T4[ebp]
	push	ecx
	mov	edx, DWORD PTR ?Commands@@3PAUScriptCommands@@A ; Commands
	mov	eax, DWORD PTR [edx+64]
	call	eax
	add	esp, 8
	movss	xmm0, DWORD PTR [eax+8]
	addss	xmm0, DWORD PTR _position$[ebp+8]
	movss	DWORD PTR _spawnpos$[ebp+8], xmm0

; 32   : 	switch (number)

	mov	eax, DWORD PTR _number$[ebp]
	mov	DWORD PTR tv95[ebp], eax
	cmp	DWORD PTR tv95[ebp], 1
	je	SHORT $LN2@Timer_Expi
	jmp	$LN3@Timer_Expi
$LN2@Timer_Expi:

; 33   : 	{
; 34   : 	case 1:
; 35   : 		res = Commands->Create_Object(Get_Parameter("Spawn_Obj"),spawnpos);

	lea	eax, DWORD PTR _spawnpos$[ebp]
	push	eax
	push	OFFSET ??_C@_09BEPAMFKP@Spawn_Obj?$AA@
	mov	ecx, DWORD PTR _this$[ebp]
	call	?Get_Parameter@ScriptImpClass@@QAEPBDPBD@Z ; ScriptImpClass::Get_Parameter
	push	eax
	mov	ecx, DWORD PTR ?Commands@@3PAUScriptCommands@@A ; Commands
	mov	edx, DWORD PTR [ecx+100]
	call	edx
	add	esp, 8
	mov	DWORD PTR _res$[ebp], eax

; 36   : 		if (Get_Int_Parameter("Do_Path") == 1)

	push	OFFSET ??_C@_07PCHJBECB@Do_Path?$AA@
	mov	ecx, DWORD PTR _this$[ebp]
	call	?Get_Int_Parameter@ScriptImpClass@@QAEHPBD@Z ; ScriptImpClass::Get_Int_Parameter
	cmp	eax, 1
	jne	SHORT $LN1@Timer_Expi

; 37   : 		{
; 38   : 			aps.Set_Basic(this,100,1);

	push	-1
	push	1
	push	ecx
	movss	xmm0, DWORD PTR __real@42c80000
	movss	DWORD PTR [esp], xmm0
	mov	eax, DWORD PTR _this$[ebp]
	push	eax
	lea	ecx, DWORD PTR _aps$[ebp]
	call	?Set_Basic@ActionParamsStruct@@QAEXPAVGameObjObserverClass@@MHW4SoldierAIState@@@Z ; ActionParamsStruct::Set_Basic

; 39   : 			aps.MoveArrivedDistance = 100;

	movss	xmm0, DWORD PTR __real@42c80000
	movss	DWORD PTR _aps$[ebp+64], xmm0

; 40   : 			aps.WaypathID = Get_Int_Parameter("Spawn_Path");

	push	OFFSET ??_C@_0L@NOEIONE@Spawn_Path?$AA@
	mov	ecx, DWORD PTR _this$[ebp]
	call	?Get_Int_Parameter@ScriptImpClass@@QAEHPBD@Z ; ScriptImpClass::Get_Int_Parameter
	mov	DWORD PTR _aps$[ebp+136], eax

; 41   : 			aps.WaypathSplined = true;

	mov	BYTE PTR _aps$[ebp+148], 1

; 42   : 			aps.AttackActive = false;

	mov	BYTE PTR _aps$[ebp+109], 0

; 43   : 			aps.AttackCheckBlocked = false;

	mov	BYTE PTR _aps$[ebp+108], 0

; 44   : 			Commands->Action_Goto(res,aps);

	lea	eax, DWORD PTR _aps$[ebp]
	push	eax
	mov	ecx, DWORD PTR _res$[ebp]
	push	ecx
	mov	edx, DWORD PTR ?Commands@@3PAUScriptCommands@@A ; Commands
	mov	eax, DWORD PTR [edx+16]
	call	eax
	add	esp, 8
$LN1@Timer_Expi:
$LN3@Timer_Expi:

; 45   : 		}
; 46   : 		break;
; 47   : 	}
; 48   : }

	pop	edi
	pop	esi
	pop	ebx
	mov	esp, ebp
	pop	ebp
	ret	8
?Timer_Expired@SUR_Spawn_Delay@@EAEXPAVScriptableGameObj@@H@Z ENDP ; SUR_Spawn_Delay::Timer_Expired
_TEXT	ENDS
; Function compile flags: /Odtp /ZI
; File x:\github\renegade\dragonade_rxd\scripts\survival.cpp
;	COMDAT ?Created@SUR_Spawn_Delay@@EAEXPAVScriptableGameObj@@@Z
_TEXT	SEGMENT
_this$ = -4						; size = 4
_obj$ = 8						; size = 4
?Created@SUR_Spawn_Delay@@EAEXPAVScriptableGameObj@@@Z PROC ; SUR_Spawn_Delay::Created, COMDAT
; _this$ = ecx

; 18   : {

	push	ebp
	mov	ebp, esp
	sub	esp, 68					; 00000044H
	push	ebx
	push	esi
	push	edi
	mov	DWORD PTR _this$[ebp], ecx

; 19   : 	Commands->Start_Timer(obj,this,Get_Float_Parameter("Spawn_Delay"),1);

	push	1
	push	OFFSET ??_C@_0M@IIPFJCEO@Spawn_Delay?$AA@
	mov	ecx, DWORD PTR _this$[ebp]
	call	?Get_Float_Parameter@ScriptImpClass@@QAEMPBD@Z ; ScriptImpClass::Get_Float_Parameter
	push	ecx
	fstp	DWORD PTR [esp]
	mov	eax, DWORD PTR _this$[ebp]
	push	eax
	mov	ecx, DWORD PTR _obj$[ebp]
	push	ecx
	mov	edx, DWORD PTR ?Commands@@3PAUScriptCommands@@A ; Commands
	mov	eax, DWORD PTR [edx+128]
	call	eax
	add	esp, 16					; 00000010H

; 20   : }

	pop	edi
	pop	esi
	pop	ebx
	mov	esp, ebp
	pop	ebp
	ret	4
?Created@SUR_Spawn_Delay@@EAEXPAVScriptableGameObj@@@Z ENDP ; SUR_Spawn_Delay::Created
_TEXT	ENDS
; Function compile flags: /Odtp /ZI
;	COMDAT ??4ScriptRegistrar@@QAEAAV0@ABV0@@Z
_TEXT	SEGMENT
_this$ = -4						; size = 4
___that$ = 8						; size = 4
??4ScriptRegistrar@@QAEAAV0@ABV0@@Z PROC		; ScriptRegistrar::operator=, COMDAT
; _this$ = ecx
	push	ebp
	mov	ebp, esp
	sub	esp, 68					; 00000044H
	push	ebx
	push	esi
	push	edi
	mov	DWORD PTR _this$[ebp], ecx
	mov	eax, DWORD PTR _this$[ebp]
	pop	edi
	pop	esi
	pop	ebx
	mov	esp, ebp
	pop	ebp
	ret	4
??4ScriptRegistrar@@QAEAAV0@ABV0@@Z ENDP		; ScriptRegistrar::operator=
_TEXT	ENDS
; Function compile flags: /Odtp /ZI
;	COMDAT ??_EScriptFactory@@UAEPAXI@Z
_TEXT	SEGMENT
_this$ = -4						; size = 4
___flags$ = 8						; size = 4
??_EScriptFactory@@UAEPAXI@Z PROC			; ScriptFactory::`vector deleting destructor', COMDAT
; _this$ = ecx
	push	ebp
	mov	ebp, esp
	sub	esp, 68					; 00000044H
	push	ebx
	push	esi
	push	edi
	mov	DWORD PTR _this$[ebp], ecx
	mov	eax, DWORD PTR ___flags$[ebp]
	and	eax, 2
	je	SHORT $LN3@vector
	push	OFFSET ??1ScriptFactory@@UAE@XZ		; ScriptFactory::~ScriptFactory
	mov	eax, DWORD PTR _this$[ebp]
	mov	ecx, DWORD PTR [eax-4]
	push	ecx
	push	16					; 00000010H
	mov	edx, DWORD PTR _this$[ebp]
	push	edx
	call	??_I@YGXPAXIHP6EX0@Z@Z
	mov	eax, DWORD PTR ___flags$[ebp]
	and	eax, 1
	je	SHORT $LN2@vector
	mov	eax, DWORD PTR _this$[ebp]
	sub	eax, 4
	push	eax
	call	??_V@YAXPAX@Z				; operator delete[]
	add	esp, 4
$LN2@vector:
	mov	eax, DWORD PTR _this$[ebp]
	sub	eax, 4
	jmp	SHORT $LN4@vector
$LN3@vector:
	mov	ecx, DWORD PTR _this$[ebp]
	call	??1ScriptFactory@@UAE@XZ		; ScriptFactory::~ScriptFactory
	mov	eax, DWORD PTR ___flags$[ebp]
	and	eax, 1
	je	SHORT $LN1@vector
	mov	eax, DWORD PTR _this$[ebp]
	push	eax
	call	??3@YAXPAX@Z				; operator delete
	add	esp, 4
$LN1@vector:
	mov	eax, DWORD PTR _this$[ebp]
$LN4@vector:
	pop	edi
	pop	esi
	pop	ebx
	mov	esp, ebp
	pop	ebp
	ret	4
??_EScriptFactory@@UAEPAXI@Z ENDP			; ScriptFactory::`vector deleting destructor'
_TEXT	ENDS
; Function compile flags: /Odtp /ZI
;	COMDAT ??_GScriptFactory@@UAEPAXI@Z
_TEXT	SEGMENT
_this$ = -4						; size = 4
___flags$ = 8						; size = 4
??_GScriptFactory@@UAEPAXI@Z PROC			; ScriptFactory::`scalar deleting destructor', COMDAT
; _this$ = ecx
	push	ebp
	mov	ebp, esp
	sub	esp, 68					; 00000044H
	push	ebx
	push	esi
	push	edi
	mov	DWORD PTR _this$[ebp], ecx
	mov	ecx, DWORD PTR _this$[ebp]
	call	??1ScriptFactory@@UAE@XZ		; ScriptFactory::~ScriptFactory
	mov	eax, DWORD PTR ___flags$[ebp]
	and	eax, 1
	je	SHORT $LN1@scalar
	mov	eax, DWORD PTR _this$[ebp]
	push	eax
	call	??3@YAXPAX@Z				; operator delete
	add	esp, 4
$LN1@scalar:
	mov	eax, DWORD PTR _this$[ebp]
	pop	edi
	pop	esi
	pop	ebx
	mov	esp, ebp
	pop	ebp
	ret	4
??_GScriptFactory@@UAEPAXI@Z ENDP			; ScriptFactory::`scalar deleting destructor'
_TEXT	ENDS
; Function compile flags: /Odtp /ZI
;	COMDAT ??4ScriptFactory@@QAEAAV0@ABV0@@Z
_TEXT	SEGMENT
_this$ = -4						; size = 4
___that$ = 8						; size = 4
??4ScriptFactory@@QAEAAV0@ABV0@@Z PROC			; ScriptFactory::operator=, COMDAT
; _this$ = ecx
	push	ebp
	mov	ebp, esp
	sub	esp, 68					; 00000044H
	push	ebx
	push	esi
	push	edi
	mov	DWORD PTR _this$[ebp], ecx
	mov	eax, DWORD PTR _this$[ebp]
	mov	ecx, DWORD PTR ___that$[ebp]
	mov	edx, DWORD PTR [ecx+4]
	mov	DWORD PTR [eax+4], edx
	mov	eax, DWORD PTR _this$[ebp]
	mov	ecx, DWORD PTR ___that$[ebp]
	mov	edx, DWORD PTR [ecx+8]
	mov	DWORD PTR [eax+8], edx
	mov	eax, DWORD PTR _this$[ebp]
	mov	ecx, DWORD PTR ___that$[ebp]
	mov	edx, DWORD PTR [ecx+12]
	mov	DWORD PTR [eax+12], edx
	mov	eax, DWORD PTR _this$[ebp]
	pop	edi
	pop	esi
	pop	ebx
	mov	esp, ebp
	pop	ebp
	ret	4
??4ScriptFactory@@QAEAAV0@ABV0@@Z ENDP			; ScriptFactory::operator=
_TEXT	ENDS
; Function compile flags: /Odtp /ZI
;	COMDAT ??0ScriptFactory@@QAE@ABV0@@Z
_TEXT	SEGMENT
_this$ = -4						; size = 4
___that$ = 8						; size = 4
??0ScriptFactory@@QAE@ABV0@@Z PROC			; ScriptFactory::ScriptFactory, COMDAT
; _this$ = ecx
	push	ebp
	mov	ebp, esp
	sub	esp, 68					; 00000044H
	push	ebx
	push	esi
	push	edi
	mov	DWORD PTR _this$[ebp], ecx
	mov	eax, DWORD PTR _this$[ebp]
	mov	DWORD PTR [eax], OFFSET ??_7ScriptFactory@@6B@
	mov	eax, DWORD PTR _this$[ebp]
	mov	ecx, DWORD PTR ___that$[ebp]
	mov	edx, DWORD PTR [ecx+4]
	mov	DWORD PTR [eax+4], edx
	mov	eax, DWORD PTR _this$[ebp]
	mov	ecx, DWORD PTR ___that$[ebp]
	mov	edx, DWORD PTR [ecx+8]
	mov	DWORD PTR [eax+8], edx
	mov	eax, DWORD PTR _this$[ebp]
	mov	ecx, DWORD PTR ___that$[ebp]
	mov	edx, DWORD PTR [ecx+12]
	mov	DWORD PTR [eax+12], edx
	mov	eax, DWORD PTR _this$[ebp]
	pop	edi
	pop	esi
	pop	ebx
	mov	esp, ebp
	pop	ebp
	ret	4
??0ScriptFactory@@QAE@ABV0@@Z ENDP			; ScriptFactory::ScriptFactory
_TEXT	ENDS
; Function compile flags: /Odtp /ZI
; File x:\github\renegade\dragonade_rxd\scripts\scripts.h
;	COMDAT ?Set_Attack@ActionParamsStruct@@QAEXPAVScriptableGameObj@@MM_N@Z
_TEXT	SEGMENT
_this$ = -4						; size = 4
_object$ = 8						; size = 4
_range$ = 12						; size = 4
_error$ = 16						; size = 4
_primary_fire$ = 20					; size = 1
?Set_Attack@ActionParamsStruct@@QAEXPAVScriptableGameObj@@MM_N@Z PROC ; ActionParamsStruct::Set_Attack, COMDAT
; _this$ = ecx

; 329  : 	void Set_Attack( GameObject * object, float range, float error, bool primary_fire ) { AttackObject = object; AttackRange = range; AttackError = error; AttackPrimaryFire = primary_fire; }

	push	ebp
	mov	ebp, esp
	sub	esp, 68					; 00000044H
	push	ebx
	push	esi
	push	edi
	mov	DWORD PTR _this$[ebp], ecx
	mov	eax, DWORD PTR _this$[ebp]
	mov	ecx, DWORD PTR _object$[ebp]
	mov	DWORD PTR [eax+88], ecx
	mov	eax, DWORD PTR _this$[ebp]
	movss	xmm0, DWORD PTR _range$[ebp]
	movss	DWORD PTR [eax+76], xmm0
	mov	eax, DWORD PTR _this$[ebp]
	movss	xmm0, DWORD PTR _error$[ebp]
	movss	DWORD PTR [eax+80], xmm0
	mov	eax, DWORD PTR _this$[ebp]
	mov	cl, BYTE PTR _primary_fire$[ebp]
	mov	BYTE PTR [eax+92], cl
	pop	edi
	pop	esi
	pop	ebx
	mov	esp, ebp
	pop	ebp
	ret	16					; 00000010H
?Set_Attack@ActionParamsStruct@@QAEXPAVScriptableGameObj@@MM_N@Z ENDP ; ActionParamsStruct::Set_Attack
_TEXT	ENDS
; Function compile flags: /Odtp /ZI
; File x:\github\renegade\dragonade_rxd\scripts\scripts.h
;	COMDAT ?Set_Movement@ActionParamsStruct@@QAEXABVVector3@@MM_N@Z
_TEXT	SEGMENT
_this$ = -4						; size = 4
_location$ = 8						; size = 4
_speed$ = 12						; size = 4
_arrived_distance$ = 16					; size = 4
_crouched$ = 20						; size = 1
?Set_Movement@ActionParamsStruct@@QAEXABVVector3@@MM_N@Z PROC ; ActionParamsStruct::Set_Movement, COMDAT
; _this$ = ecx

; 326  : 	void Set_Movement( const Vector3 & location, float speed, float arrived_distance, bool crouched = false ) { MoveLocation = location; MoveSpeed = speed; MoveArrivedDistance = arrived_distance; MoveCrouched = crouched; }

	push	ebp
	mov	ebp, esp
	sub	esp, 68					; 00000044H
	push	ebx
	push	esi
	push	edi
	mov	DWORD PTR _this$[ebp], ecx
	mov	eax, DWORD PTR _location$[ebp]
	push	eax
	mov	ecx, DWORD PTR _this$[ebp]
	add	ecx, 32					; 00000020H
	call	??4Vector3@@QAEAAV0@ABV0@@Z		; Vector3::operator=
	mov	eax, DWORD PTR _this$[ebp]
	movss	xmm0, DWORD PTR _speed$[ebp]
	movss	DWORD PTR [eax+60], xmm0
	mov	eax, DWORD PTR _this$[ebp]
	movss	xmm0, DWORD PTR _arrived_distance$[ebp]
	movss	DWORD PTR [eax+64], xmm0
	mov	eax, DWORD PTR _this$[ebp]
	mov	cl, BYTE PTR _crouched$[ebp]
	mov	BYTE PTR [eax+70], cl
	pop	edi
	pop	esi
	pop	ebx
	mov	esp, ebp
	pop	ebp
	ret	16					; 00000010H
?Set_Movement@ActionParamsStruct@@QAEXABVVector3@@MM_N@Z ENDP ; ActionParamsStruct::Set_Movement
_TEXT	ENDS
; Function compile flags: /Odtp /ZI
; File x:\github\renegade\dragonade_rxd\scripts\scripts.h
;	COMDAT ?Set_Basic@ActionParamsStruct@@QAEXPAVGameObjObserverClass@@MHW4SoldierAIState@@@Z
_TEXT	SEGMENT
_this$ = -4						; size = 4
_script$ = 8						; size = 4
_priority$ = 12						; size = 4
_action_id$ = 16					; size = 4
_ai_state$ = 20						; size = 4
?Set_Basic@ActionParamsStruct@@QAEXPAVGameObjObserverClass@@MHW4SoldierAIState@@@Z PROC ; ActionParamsStruct::Set_Basic, COMDAT
; _this$ = ecx

; 321  : 	void Set_Basic( GameObjObserverClass * script, float priority, int action_id, SoldierAIState ai_state = NO_AI_STATE_CHANGE ) { ObserverID = script->Get_ID(); Priority = (int)priority; ActionID = action_id; AIState = ai_state; }

	push	ebp
	mov	ebp, esp
	sub	esp, 68					; 00000044H
	push	ebx
	push	esi
	push	edi
	mov	DWORD PTR _this$[ebp], ecx
	mov	ecx, DWORD PTR _script$[ebp]
	call	?Get_ID@GameObjObserverClass@@QAEHXZ	; GameObjObserverClass::Get_ID
	mov	ecx, DWORD PTR _this$[ebp]
	mov	DWORD PTR [ecx+8], eax
	cvttss2si eax, DWORD PTR _priority$[ebp]
	mov	ecx, DWORD PTR _this$[ebp]
	mov	DWORD PTR [ecx], eax
	mov	eax, DWORD PTR _this$[ebp]
	mov	ecx, DWORD PTR _action_id$[ebp]
	mov	DWORD PTR [eax+4], ecx
	mov	eax, DWORD PTR _this$[ebp]
	mov	ecx, DWORD PTR _ai_state$[ebp]
	mov	DWORD PTR [eax+168], ecx
	pop	edi
	pop	esi
	pop	ebx
	mov	esp, ebp
	pop	ebp
	ret	16					; 00000010H
?Set_Basic@ActionParamsStruct@@QAEXPAVGameObjObserverClass@@MHW4SoldierAIState@@@Z ENDP ; ActionParamsStruct::Set_Basic
_TEXT	ENDS
; Function compile flags: /Odtp /ZI
; File x:\github\renegade\dragonade_rxd\scripts\scripts.h
;	COMDAT ??0ActionParamsStruct@@QAE@XZ
_TEXT	SEGMENT
_this$ = -4						; size = 4
??0ActionParamsStruct@@QAE@XZ PROC			; ActionParamsStruct::ActionParamsStruct, COMDAT
; _this$ = ecx

; 432  : {

	push	ebp
	mov	ebp, esp
	sub	esp, 68					; 00000044H
	push	ebx
	push	esi
	push	edi
	mov	DWORD PTR _this$[ebp], ecx
	mov	eax, DWORD PTR _this$[ebp]
	mov	DWORD PTR [eax], 0
	mov	eax, DWORD PTR _this$[ebp]
	mov	DWORD PTR [eax+4], 0
	mov	eax, DWORD PTR _this$[ebp]
	mov	DWORD PTR [eax+8], 0
	push	ecx
	movss	xmm0, DWORD PTR __real@00000000
	movss	DWORD PTR [esp], xmm0
	push	ecx
	movss	xmm0, DWORD PTR __real@00000000
	movss	DWORD PTR [esp], xmm0
	push	ecx
	movss	xmm0, DWORD PTR __real@00000000
	movss	DWORD PTR [esp], xmm0
	mov	ecx, DWORD PTR _this$[ebp]
	add	ecx, 12					; 0000000cH
	call	??0Vector3@@QAE@MMM@Z			; Vector3::Vector3
	mov	eax, DWORD PTR _this$[ebp]
	mov	DWORD PTR [eax+24], 0
	mov	eax, DWORD PTR _this$[ebp]
	movss	xmm0, DWORD PTR __real@00000000
	movss	DWORD PTR [eax+28], xmm0
	push	ecx
	movss	xmm0, DWORD PTR __real@00000000
	movss	DWORD PTR [esp], xmm0
	push	ecx
	movss	xmm0, DWORD PTR __real@00000000
	movss	DWORD PTR [esp], xmm0
	push	ecx
	movss	xmm0, DWORD PTR __real@00000000
	movss	DWORD PTR [esp], xmm0
	mov	ecx, DWORD PTR _this$[ebp]
	add	ecx, 32					; 00000020H
	call	??0Vector3@@QAE@MMM@Z			; Vector3::Vector3
	mov	eax, DWORD PTR _this$[ebp]
	mov	DWORD PTR [eax+44], 0
	push	ecx
	movss	xmm0, DWORD PTR __real@00000000
	movss	DWORD PTR [esp], xmm0
	push	ecx
	movss	xmm0, DWORD PTR __real@00000000
	movss	DWORD PTR [esp], xmm0
	push	ecx
	movss	xmm0, DWORD PTR __real@00000000
	movss	DWORD PTR [esp], xmm0
	mov	ecx, DWORD PTR _this$[ebp]
	add	ecx, 48					; 00000030H
	call	??0Vector3@@QAE@MMM@Z			; Vector3::Vector3
	mov	eax, DWORD PTR _this$[ebp]
	movss	xmm0, DWORD PTR __real@3f800000
	movss	DWORD PTR [eax+60], xmm0
	mov	eax, DWORD PTR _this$[ebp]
	movss	xmm0, DWORD PTR _DONT_MOVE_ARRIVED_DIST
	movss	DWORD PTR [eax+64], xmm0
	mov	eax, DWORD PTR _this$[ebp]
	mov	BYTE PTR [eax+68], 0
	mov	eax, DWORD PTR _this$[ebp]
	mov	BYTE PTR [eax+69], 0
	mov	eax, DWORD PTR _this$[ebp]
	mov	BYTE PTR [eax+70], 0
	mov	eax, DWORD PTR _this$[ebp]
	mov	BYTE PTR [eax+71], 1
	mov	eax, DWORD PTR _this$[ebp]
	mov	BYTE PTR [eax+72], 0
	mov	eax, DWORD PTR _this$[ebp]
	movss	xmm0, DWORD PTR __real@41a00000
	movss	DWORD PTR [eax+76], xmm0
	mov	eax, DWORD PTR _this$[ebp]
	movss	xmm0, DWORD PTR __real@00000000
	movss	DWORD PTR [eax+80], xmm0
	mov	eax, DWORD PTR _this$[ebp]
	mov	BYTE PTR [eax+84], 0
	mov	eax, DWORD PTR _this$[ebp]
	mov	DWORD PTR [eax+88], 0
	mov	eax, DWORD PTR _this$[ebp]
	mov	BYTE PTR [eax+92], 1
	mov	eax, DWORD PTR _this$[ebp]
	mov	BYTE PTR [eax+93], 0
	push	ecx
	movss	xmm0, DWORD PTR __real@00000000
	movss	DWORD PTR [esp], xmm0
	push	ecx
	movss	xmm0, DWORD PTR __real@00000000
	movss	DWORD PTR [esp], xmm0
	push	ecx
	movss	xmm0, DWORD PTR __real@00000000
	movss	DWORD PTR [esp], xmm0
	mov	ecx, DWORD PTR _this$[ebp]
	add	ecx, 96					; 00000060H
	call	??0Vector3@@QAE@MMM@Z			; Vector3::Vector3
	mov	eax, DWORD PTR _this$[ebp]
	mov	BYTE PTR [eax+108], 1
	mov	eax, DWORD PTR _this$[ebp]
	mov	BYTE PTR [eax+109], 1
	mov	eax, DWORD PTR _this$[ebp]
	mov	BYTE PTR [eax+110], 0
	mov	eax, DWORD PTR _this$[ebp]
	mov	BYTE PTR [eax+111], 1
	mov	eax, DWORD PTR _this$[ebp]
	mov	BYTE PTR [eax+112], 0
	mov	eax, DWORD PTR _this$[ebp]
	mov	BYTE PTR [eax+113], 0
	push	ecx
	movss	xmm0, DWORD PTR __real@00000000
	movss	DWORD PTR [esp], xmm0
	push	ecx
	movss	xmm0, DWORD PTR __real@00000000
	movss	DWORD PTR [esp], xmm0
	push	ecx
	movss	xmm0, DWORD PTR __real@00000000
	movss	DWORD PTR [esp], xmm0
	mov	ecx, DWORD PTR _this$[ebp]
	add	ecx, 116				; 00000074H
	call	??0Vector3@@QAE@MMM@Z			; Vector3::Vector3
	mov	eax, DWORD PTR _this$[ebp]
	movss	xmm0, DWORD PTR __real@40000000
	movss	DWORD PTR [eax+128], xmm0
	mov	eax, DWORD PTR _this$[ebp]
	mov	BYTE PTR [eax+132], 0
	mov	eax, DWORD PTR _this$[ebp]
	mov	DWORD PTR [eax+136], 0
	mov	eax, DWORD PTR _this$[ebp]
	mov	DWORD PTR [eax+140], 0
	mov	eax, DWORD PTR _this$[ebp]
	mov	DWORD PTR [eax+144], 0
	mov	eax, DWORD PTR _this$[ebp]
	mov	BYTE PTR [eax+148], 0
	mov	eax, DWORD PTR _this$[ebp]
	mov	DWORD PTR [eax+152], 0
	mov	eax, DWORD PTR _this$[ebp]
	mov	BYTE PTR [eax+156], 0
	mov	eax, DWORD PTR _this$[ebp]
	mov	DWORD PTR [eax+160], 0
	mov	eax, DWORD PTR _this$[ebp]
	mov	DWORD PTR [eax+164], 0
	mov	eax, DWORD PTR _this$[ebp]
	mov	DWORD PTR [eax+168], -1
	push	ecx
	movss	xmm0, DWORD PTR __real@00000000
	movss	DWORD PTR [esp], xmm0
	push	ecx
	movss	xmm0, DWORD PTR __real@00000000
	movss	DWORD PTR [esp], xmm0
	push	ecx
	movss	xmm0, DWORD PTR __real@00000000
	movss	DWORD PTR [esp], xmm0
	mov	ecx, DWORD PTR _this$[ebp]
	add	ecx, 172				; 000000acH
	call	??0Vector3@@QAE@MMM@Z			; Vector3::Vector3
	push	ecx
	movss	xmm0, DWORD PTR __real@00000000
	movss	DWORD PTR [esp], xmm0
	push	ecx
	movss	xmm0, DWORD PTR __real@00000000
	movss	DWORD PTR [esp], xmm0
	push	ecx
	movss	xmm0, DWORD PTR __real@00000000
	movss	DWORD PTR [esp], xmm0
	mov	ecx, DWORD PTR _this$[ebp]
	add	ecx, 184				; 000000b8H
	call	??0Vector3@@QAE@MMM@Z			; Vector3::Vector3

; 433  : }

	mov	eax, DWORD PTR _this$[ebp]
	pop	edi
	pop	esi
	pop	ebx
	mov	esp, ebp
	pop	ebp
	ret	0
??0ActionParamsStruct@@QAE@XZ ENDP			; ActionParamsStruct::ActionParamsStruct
_TEXT	ENDS
; Function compile flags: /Odtp /ZI
;	COMDAT ??_EScriptImpClass@@UAEPAXI@Z
_TEXT	SEGMENT
_this$ = -4						; size = 4
___flags$ = 8						; size = 4
??_EScriptImpClass@@UAEPAXI@Z PROC			; ScriptImpClass::`vector deleting destructor', COMDAT
; _this$ = ecx
	push	ebp
	mov	ebp, esp
	sub	esp, 68					; 00000044H
	push	ebx
	push	esi
	push	edi
	mov	DWORD PTR _this$[ebp], ecx
	mov	eax, DWORD PTR ___flags$[ebp]
	and	eax, 2
	je	SHORT $LN3@vector
	push	OFFSET ??1ScriptImpClass@@UAE@XZ	; ScriptImpClass::~ScriptImpClass
	mov	eax, DWORD PTR _this$[ebp]
	mov	ecx, DWORD PTR [eax-4]
	push	ecx
	push	28					; 0000001cH
	mov	edx, DWORD PTR _this$[ebp]
	push	edx
	call	??_I@YGXPAXIHP6EX0@Z@Z
	mov	eax, DWORD PTR ___flags$[ebp]
	and	eax, 1
	je	SHORT $LN2@vector
	mov	eax, DWORD PTR _this$[ebp]
	sub	eax, 4
	push	eax
	call	??_V@YAXPAX@Z				; operator delete[]
	add	esp, 4
$LN2@vector:
	mov	eax, DWORD PTR _this$[ebp]
	sub	eax, 4
	jmp	SHORT $LN4@vector
$LN3@vector:
	mov	ecx, DWORD PTR _this$[ebp]
	call	??1ScriptImpClass@@UAE@XZ		; ScriptImpClass::~ScriptImpClass
	mov	eax, DWORD PTR ___flags$[ebp]
	and	eax, 1
	je	SHORT $LN1@vector
	mov	eax, DWORD PTR _this$[ebp]
	push	eax
	call	??3@YAXPAX@Z				; operator delete
	add	esp, 4
$LN1@vector:
	mov	eax, DWORD PTR _this$[ebp]
$LN4@vector:
	pop	edi
	pop	esi
	pop	ebx
	mov	esp, ebp
	pop	ebp
	ret	4
??_EScriptImpClass@@UAEPAXI@Z ENDP			; ScriptImpClass::`vector deleting destructor'
_TEXT	ENDS
; Function compile flags: /Odtp /ZI
;	COMDAT ??_GScriptImpClass@@UAEPAXI@Z
_TEXT	SEGMENT
_this$ = -4						; size = 4
___flags$ = 8						; size = 4
??_GScriptImpClass@@UAEPAXI@Z PROC			; ScriptImpClass::`scalar deleting destructor', COMDAT
; _this$ = ecx
	push	ebp
	mov	ebp, esp
	sub	esp, 68					; 00000044H
	push	ebx
	push	esi
	push	edi
	mov	DWORD PTR _this$[ebp], ecx
	mov	ecx, DWORD PTR _this$[ebp]
	call	??1ScriptImpClass@@UAE@XZ		; ScriptImpClass::~ScriptImpClass
	mov	eax, DWORD PTR ___flags$[ebp]
	and	eax, 1
	je	SHORT $LN1@scalar
	mov	eax, DWORD PTR _this$[ebp]
	push	eax
	call	??3@YAXPAX@Z				; operator delete
	add	esp, 4
$LN1@scalar:
	mov	eax, DWORD PTR _this$[ebp]
	pop	edi
	pop	esi
	pop	ebx
	mov	esp, ebp
	pop	ebp
	ret	4
??_GScriptImpClass@@UAEPAXI@Z ENDP			; ScriptImpClass::`scalar deleting destructor'
_TEXT	ENDS
; Function compile flags: /Odtp /ZI
;	COMDAT ??4ScriptImpClass@@QAEAAV0@ABV0@@Z
_TEXT	SEGMENT
_this$ = -4						; size = 4
___that$ = 8						; size = 4
??4ScriptImpClass@@QAEAAV0@ABV0@@Z PROC			; ScriptImpClass::operator=, COMDAT
; _this$ = ecx
	push	ebp
	mov	ebp, esp
	sub	esp, 68					; 00000044H
	push	ebx
	push	esi
	push	edi
	mov	DWORD PTR _this$[ebp], ecx
	mov	eax, DWORD PTR ___that$[ebp]
	push	eax
	mov	ecx, DWORD PTR _this$[ebp]
	call	??4ScriptClass@@QAEAAV0@ABV0@@Z
	mov	eax, DWORD PTR _this$[ebp]
	mov	ecx, DWORD PTR ___that$[ebp]
	mov	edx, DWORD PTR [ecx+8]
	mov	DWORD PTR [eax+8], edx
	mov	eax, DWORD PTR _this$[ebp]
	mov	ecx, DWORD PTR ___that$[ebp]
	mov	edx, DWORD PTR [ecx+12]
	mov	DWORD PTR [eax+12], edx
	mov	eax, DWORD PTR _this$[ebp]
	mov	ecx, DWORD PTR ___that$[ebp]
	mov	edx, DWORD PTR [ecx+16]
	mov	DWORD PTR [eax+16], edx
	mov	eax, DWORD PTR _this$[ebp]
	mov	ecx, DWORD PTR ___that$[ebp]
	mov	edx, DWORD PTR [ecx+20]
	mov	DWORD PTR [eax+20], edx
	mov	eax, DWORD PTR _this$[ebp]
	mov	ecx, DWORD PTR ___that$[ebp]
	mov	edx, DWORD PTR [ecx+24]
	mov	DWORD PTR [eax+24], edx
	mov	eax, DWORD PTR _this$[ebp]
	pop	edi
	pop	esi
	pop	ebx
	mov	esp, ebp
	pop	ebp
	ret	4
??4ScriptImpClass@@QAEAAV0@ABV0@@Z ENDP			; ScriptImpClass::operator=
_TEXT	ENDS
; Function compile flags: /Odtp /ZI
;	COMDAT ??0ScriptImpClass@@QAE@ABV0@@Z
_TEXT	SEGMENT
_this$ = -4						; size = 4
___that$ = 8						; size = 4
??0ScriptImpClass@@QAE@ABV0@@Z PROC			; ScriptImpClass::ScriptImpClass, COMDAT
; _this$ = ecx
	push	ebp
	mov	ebp, esp
	sub	esp, 68					; 00000044H
	push	ebx
	push	esi
	push	edi
	mov	DWORD PTR _this$[ebp], ecx
	mov	eax, DWORD PTR ___that$[ebp]
	push	eax
	mov	ecx, DWORD PTR _this$[ebp]
	call	??0ScriptClass@@QAE@ABV0@@Z
	mov	eax, DWORD PTR _this$[ebp]
	mov	DWORD PTR [eax], OFFSET ??_7ScriptImpClass@@6B@
	mov	eax, DWORD PTR _this$[ebp]
	mov	ecx, DWORD PTR ___that$[ebp]
	mov	edx, DWORD PTR [ecx+8]
	mov	DWORD PTR [eax+8], edx
	mov	eax, DWORD PTR _this$[ebp]
	mov	ecx, DWORD PTR ___that$[ebp]
	mov	edx, DWORD PTR [ecx+12]
	mov	DWORD PTR [eax+12], edx
	mov	eax, DWORD PTR _this$[ebp]
	mov	ecx, DWORD PTR ___that$[ebp]
	mov	edx, DWORD PTR [ecx+16]
	mov	DWORD PTR [eax+16], edx
	mov	eax, DWORD PTR _this$[ebp]
	mov	ecx, DWORD PTR ___that$[ebp]
	mov	edx, DWORD PTR [ecx+20]
	mov	DWORD PTR [eax+20], edx
	mov	eax, DWORD PTR _this$[ebp]
	mov	ecx, DWORD PTR ___that$[ebp]
	mov	edx, DWORD PTR [ecx+24]
	mov	DWORD PTR [eax+24], edx
	mov	eax, DWORD PTR _this$[ebp]
	pop	edi
	pop	esi
	pop	ebx
	mov	esp, ebp
	pop	ebp
	ret	4
??0ScriptImpClass@@QAE@ABV0@@Z ENDP			; ScriptImpClass::ScriptImpClass
_TEXT	ENDS
; Function compile flags: /Odtp /ZI
; File x:\github\renegade\dragonade_rxd\scripts\scripts.h
;	COMDAT ?Get_Bool_Parameter@ScriptImpClass@@QAE_NH@Z
_TEXT	SEGMENT
tv68 = -72						; size = 4
_this$ = -4						; size = 4
_index$ = 8						; size = 4
?Get_Bool_Parameter@ScriptImpClass@@QAE_NH@Z PROC	; ScriptImpClass::Get_Bool_Parameter, COMDAT
; _this$ = ecx

; 290  :     {

	push	ebp
	mov	ebp, esp
	sub	esp, 72					; 00000048H
	push	ebx
	push	esi
	push	edi
	mov	DWORD PTR _this$[ebp], ecx

; 291  :         return Get_Int_Parameter(index) != 0;

	mov	eax, DWORD PTR _index$[ebp]
	push	eax
	mov	ecx, DWORD PTR _this$[ebp]
	call	?Get_Int_Parameter@ScriptImpClass@@QAEHH@Z ; ScriptImpClass::Get_Int_Parameter
	test	eax, eax
	je	SHORT $LN3@Get_Bool_P
	mov	DWORD PTR tv68[ebp], 1
	jmp	SHORT $LN4@Get_Bool_P
$LN3@Get_Bool_P:
	mov	DWORD PTR tv68[ebp], 0
$LN4@Get_Bool_P:
	mov	al, BYTE PTR tv68[ebp]

; 292  :     }

	pop	edi
	pop	esi
	pop	ebx
	mov	esp, ebp
	pop	ebp
	ret	4
?Get_Bool_Parameter@ScriptImpClass@@QAE_NH@Z ENDP	; ScriptImpClass::Get_Bool_Parameter
_TEXT	ENDS
; Function compile flags: /Odtp /ZI
; File x:\github\renegade\dragonade_rxd\scripts\scripts.h
;	COMDAT ?Get_Bool_Parameter@ScriptImpClass@@QAE_NPBD@Z
_TEXT	SEGMENT
tv68 = -72						; size = 4
_this$ = -4						; size = 4
_name$ = 8						; size = 4
?Get_Bool_Parameter@ScriptImpClass@@QAE_NPBD@Z PROC	; ScriptImpClass::Get_Bool_Parameter, COMDAT
; _this$ = ecx

; 286  :     {

	push	ebp
	mov	ebp, esp
	sub	esp, 72					; 00000048H
	push	ebx
	push	esi
	push	edi
	mov	DWORD PTR _this$[ebp], ecx

; 287  :         return Get_Int_Parameter(name) != 0;

	mov	eax, DWORD PTR _name$[ebp]
	push	eax
	mov	ecx, DWORD PTR _this$[ebp]
	call	?Get_Int_Parameter@ScriptImpClass@@QAEHPBD@Z ; ScriptImpClass::Get_Int_Parameter
	test	eax, eax
	je	SHORT $LN3@Get_Bool_P
	mov	DWORD PTR tv68[ebp], 1
	jmp	SHORT $LN4@Get_Bool_P
$LN3@Get_Bool_P:
	mov	DWORD PTR tv68[ebp], 0
$LN4@Get_Bool_P:
	mov	al, BYTE PTR tv68[ebp]

; 288  :     }

	pop	edi
	pop	esi
	pop	ebx
	mov	esp, ebp
	pop	ebp
	ret	4
?Get_Bool_Parameter@ScriptImpClass@@QAE_NPBD@Z ENDP	; ScriptImpClass::Get_Bool_Parameter
_TEXT	ENDS
; Function compile flags: /Odtp /ZI
; File x:\github\renegade\dragonade_rxd\scripts\scripts.h
;	COMDAT ?Get_Float_Parameter@ScriptImpClass@@QAEMH@Z
_TEXT	SEGMENT
tv74 = -72						; size = 4
_this$ = -4						; size = 4
_index$ = 8						; size = 4
?Get_Float_Parameter@ScriptImpClass@@QAEMH@Z PROC	; ScriptImpClass::Get_Float_Parameter, COMDAT
; _this$ = ecx

; 282  : 	{

	push	ebp
	mov	ebp, esp
	sub	esp, 72					; 00000048H
	push	ebx
	push	esi
	push	edi
	mov	DWORD PTR _this$[ebp], ecx

; 283  : 		return (float)atof(Get_Parameter(index));

	mov	eax, DWORD PTR _index$[ebp]
	push	eax
	mov	ecx, DWORD PTR _this$[ebp]
	call	?Get_Parameter@ScriptImpClass@@QAEPBDH@Z ; ScriptImpClass::Get_Parameter
	push	eax
	call	DWORD PTR __imp__atof
	add	esp, 4
	fstp	DWORD PTR tv74[ebp]
	fld	DWORD PTR tv74[ebp]

; 284  : 	}

	pop	edi
	pop	esi
	pop	ebx
	mov	esp, ebp
	pop	ebp
	ret	4
?Get_Float_Parameter@ScriptImpClass@@QAEMH@Z ENDP	; ScriptImpClass::Get_Float_Parameter
_TEXT	ENDS
; Function compile flags: /Odtp /ZI
; File x:\github\renegade\dragonade_rxd\scripts\scripts.h
;	COMDAT ?Get_Int_Parameter@ScriptImpClass@@QAEHH@Z
_TEXT	SEGMENT
_this$ = -4						; size = 4
_index$ = 8						; size = 4
?Get_Int_Parameter@ScriptImpClass@@QAEHH@Z PROC		; ScriptImpClass::Get_Int_Parameter, COMDAT
; _this$ = ecx

; 278  : 	{

	push	ebp
	mov	ebp, esp
	sub	esp, 68					; 00000044H
	push	ebx
	push	esi
	push	edi
	mov	DWORD PTR _this$[ebp], ecx

; 279  : 		return atoi(Get_Parameter(index));

	mov	eax, DWORD PTR _index$[ebp]
	push	eax
	mov	ecx, DWORD PTR _this$[ebp]
	call	?Get_Parameter@ScriptImpClass@@QAEPBDH@Z ; ScriptImpClass::Get_Parameter
	push	eax
	call	DWORD PTR __imp__atoi
	add	esp, 4

; 280  : 	}

	pop	edi
	pop	esi
	pop	ebx
	mov	esp, ebp
	pop	ebp
	ret	4
?Get_Int_Parameter@ScriptImpClass@@QAEHH@Z ENDP		; ScriptImpClass::Get_Int_Parameter
_TEXT	ENDS
; Function compile flags: /Odtp /ZI
; File x:\github\renegade\dragonade_rxd\scripts\scripts.h
;	COMDAT ?Get_Parameter_Count@ScriptImpClass@@QAEHXZ
_TEXT	SEGMENT
_this$ = -4						; size = 4
?Get_Parameter_Count@ScriptImpClass@@QAEHXZ PROC	; ScriptImpClass::Get_Parameter_Count, COMDAT
; _this$ = ecx

; 274  : 	{

	push	ebp
	mov	ebp, esp
	sub	esp, 68					; 00000044H
	push	ebx
	push	esi
	push	edi
	mov	DWORD PTR _this$[ebp], ecx

; 275  : 		return mArgC;

	mov	eax, DWORD PTR _this$[ebp]
	mov	eax, DWORD PTR [eax+12]

; 276  : 	}

	pop	edi
	pop	esi
	pop	ebx
	mov	esp, ebp
	pop	ebp
	ret	0
?Get_Parameter_Count@ScriptImpClass@@QAEHXZ ENDP	; ScriptImpClass::Get_Parameter_Count
_TEXT	ENDS
; Function compile flags: /Odtp /ZI
; File x:\github\renegade\dragonade_rxd\scripts\scripts.h
;	COMDAT ?Register_Auto_Save_Variables@ScriptImpClass@@UAEXXZ
_TEXT	SEGMENT
_this$ = -4						; size = 4
?Register_Auto_Save_Variables@ScriptImpClass@@UAEXXZ PROC ; ScriptImpClass::Register_Auto_Save_Variables, COMDAT
; _this$ = ecx

; 265  : 	virtual	void Register_Auto_Save_Variables()	{}

	push	ebp
	mov	ebp, esp
	sub	esp, 68					; 00000044H
	push	ebx
	push	esi
	push	edi
	mov	DWORD PTR _this$[ebp], ecx
	pop	edi
	pop	esi
	pop	ebx
	mov	esp, ebp
	pop	ebp
	ret	0
?Register_Auto_Save_Variables@ScriptImpClass@@UAEXXZ ENDP ; ScriptImpClass::Register_Auto_Save_Variables
_TEXT	ENDS
; Function compile flags: /Odtp /ZI
; File x:\github\renegade\dragonade_rxd\scripts\scripts.h
;	COMDAT ?Load_Data@ScriptImpClass@@UAEXAAVScriptLoader@@@Z
_TEXT	SEGMENT
_this$ = -4						; size = 4
_loader$ = 8						; size = 4
?Load_Data@ScriptImpClass@@UAEXAAVScriptLoader@@@Z PROC	; ScriptImpClass::Load_Data, COMDAT
; _this$ = ecx

; 264  : 	virtual void Load_Data(ScriptLoader& loader) {}

	push	ebp
	mov	ebp, esp
	sub	esp, 68					; 00000044H
	push	ebx
	push	esi
	push	edi
	mov	DWORD PTR _this$[ebp], ecx
	pop	edi
	pop	esi
	pop	ebx
	mov	esp, ebp
	pop	ebp
	ret	4
?Load_Data@ScriptImpClass@@UAEXAAVScriptLoader@@@Z ENDP	; ScriptImpClass::Load_Data
_TEXT	ENDS
; Function compile flags: /Odtp /ZI
; File x:\github\renegade\dragonade_rxd\scripts\scripts.h
;	COMDAT ?Save_Data@ScriptImpClass@@UAEXAAVScriptSaver@@@Z
_TEXT	SEGMENT
_this$ = -4						; size = 4
_saver$ = 8						; size = 4
?Save_Data@ScriptImpClass@@UAEXAAVScriptSaver@@@Z PROC	; ScriptImpClass::Save_Data, COMDAT
; _this$ = ecx

; 263  : 	virtual void Save_Data(ScriptSaver& saver) {}

	push	ebp
	mov	ebp, esp
	sub	esp, 68					; 00000044H
	push	ebx
	push	esi
	push	edi
	mov	DWORD PTR _this$[ebp], ecx
	pop	edi
	pop	esi
	pop	ebx
	mov	esp, ebp
	pop	ebp
	ret	4
?Save_Data@ScriptImpClass@@UAEXAAVScriptSaver@@@Z ENDP	; ScriptImpClass::Save_Data
_TEXT	ENDS
; Function compile flags: /Odtp /ZI
; File x:\github\renegade\dragonade_rxd\scripts\scripts.h
;	COMDAT ?Get_Owner_Ptr@ScriptImpClass@@UAEPAPAVScriptableGameObj@@XZ
_TEXT	SEGMENT
_this$ = -4						; size = 4
?Get_Owner_Ptr@ScriptImpClass@@UAEPAPAVScriptableGameObj@@XZ PROC ; ScriptImpClass::Get_Owner_Ptr, COMDAT
; _this$ = ecx

; 258  : 	{

	push	ebp
	mov	ebp, esp
	sub	esp, 68					; 00000044H
	push	ebx
	push	esi
	push	edi
	mov	DWORD PTR _this$[ebp], ecx

; 259  : 		return &mOwner;

	mov	eax, DWORD PTR _this$[ebp]
	add	eax, 8

; 260  : 	}

	pop	edi
	pop	esi
	pop	ebx
	mov	esp, ebp
	pop	ebp
	ret	0
?Get_Owner_Ptr@ScriptImpClass@@UAEPAPAVScriptableGameObj@@XZ ENDP ; ScriptImpClass::Get_Owner_Ptr
_TEXT	ENDS
; Function compile flags: /Odtp /ZI
; File x:\github\renegade\dragonade_rxd\scripts\scripts.h
;	COMDAT ?Owner@ScriptImpClass@@UAEPAVScriptableGameObj@@XZ
_TEXT	SEGMENT
_this$ = -4						; size = 4
?Owner@ScriptImpClass@@UAEPAVScriptableGameObj@@XZ PROC	; ScriptImpClass::Owner, COMDAT
; _this$ = ecx

; 254  : 	{

	push	ebp
	mov	ebp, esp
	sub	esp, 68					; 00000044H
	push	ebx
	push	esi
	push	edi
	mov	DWORD PTR _this$[ebp], ecx

; 255  : 		return mOwner;

	mov	eax, DWORD PTR _this$[ebp]
	mov	eax, DWORD PTR [eax+8]

; 256  : 	}

	pop	edi
	pop	esi
	pop	ebx
	mov	esp, ebp
	pop	ebp
	ret	0
?Owner@ScriptImpClass@@UAEPAVScriptableGameObj@@XZ ENDP	; ScriptImpClass::Owner
_TEXT	ENDS
; Function compile flags: /Odtp /ZI
; File x:\github\renegade\dragonade_rxd\scripts\scripts.h
;	COMDAT ?Exited@ScriptImpClass@@UAEXPAVScriptableGameObj@@0@Z
_TEXT	SEGMENT
_this$ = -4						; size = 4
_obj$ = 8						; size = 4
_exiter$ = 12						; size = 4
?Exited@ScriptImpClass@@UAEXPAVScriptableGameObj@@0@Z PROC ; ScriptImpClass::Exited, COMDAT
; _this$ = ecx

; 251  :   void Exited(GameObject *obj,GameObject *exiter) {}

	push	ebp
	mov	ebp, esp
	sub	esp, 68					; 00000044H
	push	ebx
	push	esi
	push	edi
	mov	DWORD PTR _this$[ebp], ecx
	pop	edi
	pop	esi
	pop	ebx
	mov	esp, ebp
	pop	ebp
	ret	8
?Exited@ScriptImpClass@@UAEXPAVScriptableGameObj@@0@Z ENDP ; ScriptImpClass::Exited
_TEXT	ENDS
; Function compile flags: /Odtp /ZI
; File x:\github\renegade\dragonade_rxd\scripts\scripts.h
;	COMDAT ?Entered@ScriptImpClass@@UAEXPAVScriptableGameObj@@0@Z
_TEXT	SEGMENT
_this$ = -4						; size = 4
_obj$ = 8						; size = 4
_enterer$ = 12						; size = 4
?Entered@ScriptImpClass@@UAEXPAVScriptableGameObj@@0@Z PROC ; ScriptImpClass::Entered, COMDAT
; _this$ = ecx

; 244  :   void Entered(GameObject *obj,GameObject *enterer) {}

	push	ebp
	mov	ebp, esp
	sub	esp, 68					; 00000044H
	push	ebx
	push	esi
	push	edi
	mov	DWORD PTR _this$[ebp], ecx
	pop	edi
	pop	esi
	pop	ebx
	mov	esp, ebp
	pop	ebp
	ret	8
?Entered@ScriptImpClass@@UAEXPAVScriptableGameObj@@0@Z ENDP ; ScriptImpClass::Entered
_TEXT	ENDS
; Function compile flags: /Odtp /ZI
; File x:\github\renegade\dragonade_rxd\scripts\scripts.h
;	COMDAT ?Poked@ScriptImpClass@@UAEXPAVScriptableGameObj@@0@Z
_TEXT	SEGMENT
_this$ = -4						; size = 4
_obj$ = 8						; size = 4
_poker$ = 12						; size = 4
?Poked@ScriptImpClass@@UAEXPAVScriptableGameObj@@0@Z PROC ; ScriptImpClass::Poked, COMDAT
; _this$ = ecx

; 237  :   void Poked(GameObject *obj,GameObject *poker) {}

	push	ebp
	mov	ebp, esp
	sub	esp, 68					; 00000044H
	push	ebx
	push	esi
	push	edi
	mov	DWORD PTR _this$[ebp], ecx
	pop	edi
	pop	esi
	pop	ebx
	mov	esp, ebp
	pop	ebp
	ret	8
?Poked@ScriptImpClass@@UAEXPAVScriptableGameObj@@0@Z ENDP ; ScriptImpClass::Poked
_TEXT	ENDS
; Function compile flags: /Odtp /ZI
; File x:\github\renegade\dragonade_rxd\scripts\scripts.h
;	COMDAT ?Animation_Complete@ScriptImpClass@@UAEXPAVScriptableGameObj@@PBD@Z
_TEXT	SEGMENT
_this$ = -4						; size = 4
_obj$ = 8						; size = 4
_animation_name$ = 12					; size = 4
?Animation_Complete@ScriptImpClass@@UAEXPAVScriptableGameObj@@PBD@Z PROC ; ScriptImpClass::Animation_Complete, COMDAT
; _this$ = ecx

; 229  :   void Animation_Complete(GameObject *obj,const char *animation_name) {}

	push	ebp
	mov	ebp, esp
	sub	esp, 68					; 00000044H
	push	ebx
	push	esi
	push	edi
	mov	DWORD PTR _this$[ebp], ecx
	pop	edi
	pop	esi
	pop	ebx
	mov	esp, ebp
	pop	ebp
	ret	8
?Animation_Complete@ScriptImpClass@@UAEXPAVScriptableGameObj@@PBD@Z ENDP ; ScriptImpClass::Animation_Complete
_TEXT	ENDS
; Function compile flags: /Odtp /ZI
; File x:\github\renegade\dragonade_rxd\scripts\scripts.h
;	COMDAT ?Timer_Expired@ScriptImpClass@@UAEXPAVScriptableGameObj@@H@Z
_TEXT	SEGMENT
_this$ = -4						; size = 4
_obj$ = 8						; size = 4
_number$ = 12						; size = 4
?Timer_Expired@ScriptImpClass@@UAEXPAVScriptableGameObj@@H@Z PROC ; ScriptImpClass::Timer_Expired, COMDAT
; _this$ = ecx

; 221  :   void Timer_Expired(GameObject *obj,int number) {}

	push	ebp
	mov	ebp, esp
	sub	esp, 68					; 00000044H
	push	ebx
	push	esi
	push	edi
	mov	DWORD PTR _this$[ebp], ecx
	pop	edi
	pop	esi
	pop	ebx
	mov	esp, ebp
	pop	ebp
	ret	8
?Timer_Expired@ScriptImpClass@@UAEXPAVScriptableGameObj@@H@Z ENDP ; ScriptImpClass::Timer_Expired
_TEXT	ENDS
; Function compile flags: /Odtp /ZI
; File x:\github\renegade\dragonade_rxd\scripts\scripts.h
;	COMDAT ?Action_Complete@ScriptImpClass@@UAEXPAVScriptableGameObj@@HW4ActionCompleteReason@@@Z
_TEXT	SEGMENT
_this$ = -4						; size = 4
_obj$ = 8						; size = 4
_action_id$ = 12					; size = 4
_complete_reason$ = 16					; size = 4
?Action_Complete@ScriptImpClass@@UAEXPAVScriptableGameObj@@HW4ActionCompleteReason@@@Z PROC ; ScriptImpClass::Action_Complete, COMDAT
; _this$ = ecx

; 212  :   void Action_Complete(GameObject *obj,int action_id,ActionCompleteReason complete_reason) {}

	push	ebp
	mov	ebp, esp
	sub	esp, 68					; 00000044H
	push	ebx
	push	esi
	push	edi
	mov	DWORD PTR _this$[ebp], ecx
	pop	edi
	pop	esi
	pop	ebx
	mov	esp, ebp
	pop	ebp
	ret	12					; 0000000cH
?Action_Complete@ScriptImpClass@@UAEXPAVScriptableGameObj@@HW4ActionCompleteReason@@@Z ENDP ; ScriptImpClass::Action_Complete
_TEXT	ENDS
; Function compile flags: /Odtp /ZI
; File x:\github\renegade\dragonade_rxd\scripts\scripts.h
;	COMDAT ?Enemy_Seen@ScriptImpClass@@UAEXPAVScriptableGameObj@@0@Z
_TEXT	SEGMENT
_this$ = -4						; size = 4
_obj$ = 8						; size = 4
_enemy$ = 12						; size = 4
?Enemy_Seen@ScriptImpClass@@UAEXPAVScriptableGameObj@@0@Z PROC ; ScriptImpClass::Enemy_Seen, COMDAT
; _this$ = ecx

; 201  :   void Enemy_Seen(GameObject *obj,GameObject *enemy) {}

	push	ebp
	mov	ebp, esp
	sub	esp, 68					; 00000044H
	push	ebx
	push	esi
	push	edi
	mov	DWORD PTR _this$[ebp], ecx
	pop	edi
	pop	esi
	pop	ebx
	mov	esp, ebp
	pop	ebp
	ret	8
?Enemy_Seen@ScriptImpClass@@UAEXPAVScriptableGameObj@@0@Z ENDP ; ScriptImpClass::Enemy_Seen
_TEXT	ENDS
; Function compile flags: /Odtp /ZI
; File x:\github\renegade\dragonade_rxd\scripts\scripts.h
;	COMDAT ?Sound_Heard@ScriptImpClass@@UAEXPAVScriptableGameObj@@ABUCombatSound@@@Z
_TEXT	SEGMENT
_this$ = -4						; size = 4
_obj$ = 8						; size = 4
_sound$ = 12						; size = 4
?Sound_Heard@ScriptImpClass@@UAEXPAVScriptableGameObj@@ABUCombatSound@@@Z PROC ; ScriptImpClass::Sound_Heard, COMDAT
; _this$ = ecx

; 193  :   void Sound_Heard(GameObject *obj,const CombatSound & sound) {}

	push	ebp
	mov	ebp, esp
	sub	esp, 68					; 00000044H
	push	ebx
	push	esi
	push	edi
	mov	DWORD PTR _this$[ebp], ecx
	pop	edi
	pop	esi
	pop	ebx
	mov	esp, ebp
	pop	ebp
	ret	8
?Sound_Heard@ScriptImpClass@@UAEXPAVScriptableGameObj@@ABUCombatSound@@@Z ENDP ; ScriptImpClass::Sound_Heard
_TEXT	ENDS
; Function compile flags: /Odtp /ZI
; File x:\github\renegade\dragonade_rxd\scripts\scripts.h
;	COMDAT ?Custom@ScriptImpClass@@UAEXPAVScriptableGameObj@@HH0@Z
_TEXT	SEGMENT
_this$ = -4						; size = 4
_obj$ = 8						; size = 4
_type$ = 12						; size = 4
_param$ = 16						; size = 4
_sender$ = 20						; size = 4
?Custom@ScriptImpClass@@UAEXPAVScriptableGameObj@@HH0@Z PROC ; ScriptImpClass::Custom, COMDAT
; _this$ = ecx

; 184  :   void Custom(GameObject *obj,int type,int param,GameObject *sender) {}

	push	ebp
	mov	ebp, esp
	sub	esp, 68					; 00000044H
	push	ebx
	push	esi
	push	edi
	mov	DWORD PTR _this$[ebp], ecx
	pop	edi
	pop	esi
	pop	ebx
	mov	esp, ebp
	pop	ebp
	ret	16					; 00000010H
?Custom@ScriptImpClass@@UAEXPAVScriptableGameObj@@HH0@Z ENDP ; ScriptImpClass::Custom
_TEXT	ENDS
; Function compile flags: /Odtp /ZI
; File x:\github\renegade\dragonade_rxd\scripts\scripts.h
;	COMDAT ?Damaged@ScriptImpClass@@UAEXPAVScriptableGameObj@@0M@Z
_TEXT	SEGMENT
_this$ = -4						; size = 4
_obj$ = 8						; size = 4
_damager$ = 12						; size = 4
_amount$ = 16						; size = 4
?Damaged@ScriptImpClass@@UAEXPAVScriptableGameObj@@0M@Z PROC ; ScriptImpClass::Damaged, COMDAT
; _this$ = ecx

; 174  :   void Damaged(GameObject *obj,GameObject *damager,float amount) {}

	push	ebp
	mov	ebp, esp
	sub	esp, 68					; 00000044H
	push	ebx
	push	esi
	push	edi
	mov	DWORD PTR _this$[ebp], ecx
	pop	edi
	pop	esi
	pop	ebx
	mov	esp, ebp
	pop	ebp
	ret	12					; 0000000cH
?Damaged@ScriptImpClass@@UAEXPAVScriptableGameObj@@0M@Z ENDP ; ScriptImpClass::Damaged
_TEXT	ENDS
; Function compile flags: /Odtp /ZI
; File x:\github\renegade\dragonade_rxd\scripts\scripts.h
;	COMDAT ?Killed@ScriptImpClass@@UAEXPAVScriptableGameObj@@0@Z
_TEXT	SEGMENT
_this$ = -4						; size = 4
_obj$ = 8						; size = 4
_killer$ = 12						; size = 4
?Killed@ScriptImpClass@@UAEXPAVScriptableGameObj@@0@Z PROC ; ScriptImpClass::Killed, COMDAT
; _this$ = ecx

; 164  :   void Killed(GameObject *obj,GameObject *killer) {}

	push	ebp
	mov	ebp, esp
	sub	esp, 68					; 00000044H
	push	ebx
	push	esi
	push	edi
	mov	DWORD PTR _this$[ebp], ecx
	pop	edi
	pop	esi
	pop	ebx
	mov	esp, ebp
	pop	ebp
	ret	8
?Killed@ScriptImpClass@@UAEXPAVScriptableGameObj@@0@Z ENDP ; ScriptImpClass::Killed
_TEXT	ENDS
; Function compile flags: /Odtp /ZI
; File x:\github\renegade\dragonade_rxd\scripts\scripts.h
;	COMDAT ?Destroyed@ScriptImpClass@@UAEXPAVScriptableGameObj@@@Z
_TEXT	SEGMENT
_this$ = -4						; size = 4
_obj$ = 8						; size = 4
?Destroyed@ScriptImpClass@@UAEXPAVScriptableGameObj@@@Z PROC ; ScriptImpClass::Destroyed, COMDAT
; _this$ = ecx

; 155  :   void Destroyed(GameObject *obj) {}

	push	ebp
	mov	ebp, esp
	sub	esp, 68					; 00000044H
	push	ebx
	push	esi
	push	edi
	mov	DWORD PTR _this$[ebp], ecx
	pop	edi
	pop	esi
	pop	ebx
	mov	esp, ebp
	pop	ebp
	ret	4
?Destroyed@ScriptImpClass@@UAEXPAVScriptableGameObj@@@Z ENDP ; ScriptImpClass::Destroyed
_TEXT	ENDS
; Function compile flags: /Odtp /ZI
; File x:\github\renegade\dragonade_rxd\scripts\scripts.h
;	COMDAT ?Created@ScriptImpClass@@UAEXPAVScriptableGameObj@@@Z
_TEXT	SEGMENT
_this$ = -4						; size = 4
_obj$ = 8						; size = 4
?Created@ScriptImpClass@@UAEXPAVScriptableGameObj@@@Z PROC ; ScriptImpClass::Created, COMDAT
; _this$ = ecx

; 149  :   void Created(GameObject *obj) {}

	push	ebp
	mov	ebp, esp
	sub	esp, 68					; 00000044H
	push	ebx
	push	esi
	push	edi
	mov	DWORD PTR _this$[ebp], ecx
	pop	edi
	pop	esi
	pop	ebx
	mov	esp, ebp
	pop	ebp
	ret	4
?Created@ScriptImpClass@@UAEXPAVScriptableGameObj@@@Z ENDP ; ScriptImpClass::Created
_TEXT	ENDS
; Function compile flags: /Odtp /ZI
; File x:\github\renegade\dragonade_rxd\scripts\scripts.h
;	COMDAT ?SetFactory@ScriptImpClass@@QAEXPAVScriptFactory@@@Z
_TEXT	SEGMENT
_this$ = -4						; size = 4
_factory$ = 8						; size = 4
?SetFactory@ScriptImpClass@@QAEXPAVScriptFactory@@@Z PROC ; ScriptImpClass::SetFactory, COMDAT
; _this$ = ecx

; 136  : 	{

	push	ebp
	mov	ebp, esp
	sub	esp, 68					; 00000044H
	push	ebx
	push	esi
	push	edi
	mov	DWORD PTR _this$[ebp], ecx

; 137  : 		mFactory = factory;

	mov	eax, DWORD PTR _this$[ebp]
	mov	ecx, DWORD PTR _factory$[ebp]
	mov	DWORD PTR [eax+20], ecx

; 138  : 	}

	pop	edi
	pop	esi
	pop	ebx
	mov	esp, ebp
	pop	ebp
	ret	4
?SetFactory@ScriptImpClass@@QAEXPAVScriptFactory@@@Z ENDP ; ScriptImpClass::SetFactory
_TEXT	ENDS
; Function compile flags: /Odtp /ZI
;	COMDAT ??_EScriptClass@@UAEPAXI@Z
_TEXT	SEGMENT
_this$ = -4						; size = 4
___flags$ = 8						; size = 4
??_EScriptClass@@UAEPAXI@Z PROC				; ScriptClass::`vector deleting destructor', COMDAT
; _this$ = ecx
	push	ebp
	mov	ebp, esp
	sub	esp, 68					; 00000044H
	push	ebx
	push	esi
	push	edi
	mov	DWORD PTR _this$[ebp], ecx
	mov	eax, DWORD PTR ___flags$[ebp]
	and	eax, 2
	je	SHORT $LN3@vector
	push	OFFSET ??1ScriptClass@@UAE@XZ		; ScriptClass::~ScriptClass
	mov	eax, DWORD PTR _this$[ebp]
	mov	ecx, DWORD PTR [eax-4]
	push	ecx
	push	8
	mov	edx, DWORD PTR _this$[ebp]
	push	edx
	call	??_I@YGXPAXIHP6EX0@Z@Z
	mov	eax, DWORD PTR ___flags$[ebp]
	and	eax, 1
	je	SHORT $LN2@vector
	mov	eax, DWORD PTR _this$[ebp]
	sub	eax, 4
	push	eax
	call	??_V@YAXPAX@Z				; operator delete[]
	add	esp, 4
$LN2@vector:
	mov	eax, DWORD PTR _this$[ebp]
	sub	eax, 4
	jmp	SHORT $LN4@vector
$LN3@vector:
	mov	ecx, DWORD PTR _this$[ebp]
	call	??1ScriptClass@@UAE@XZ			; ScriptClass::~ScriptClass
	mov	eax, DWORD PTR ___flags$[ebp]
	and	eax, 1
	je	SHORT $LN1@vector
	mov	eax, DWORD PTR _this$[ebp]
	push	eax
	call	??3@YAXPAX@Z				; operator delete
	add	esp, 4
$LN1@vector:
	mov	eax, DWORD PTR _this$[ebp]
$LN4@vector:
	pop	edi
	pop	esi
	pop	ebx
	mov	esp, ebp
	pop	ebp
	ret	4
??_EScriptClass@@UAEPAXI@Z ENDP				; ScriptClass::`vector deleting destructor'
_TEXT	ENDS
; Function compile flags: /Odtp /ZI
;	COMDAT ??_GScriptClass@@UAEPAXI@Z
_TEXT	SEGMENT
_this$ = -4						; size = 4
___flags$ = 8						; size = 4
??_GScriptClass@@UAEPAXI@Z PROC				; ScriptClass::`scalar deleting destructor', COMDAT
; _this$ = ecx
	push	ebp
	mov	ebp, esp
	sub	esp, 68					; 00000044H
	push	ebx
	push	esi
	push	edi
	mov	DWORD PTR _this$[ebp], ecx
	mov	ecx, DWORD PTR _this$[ebp]
	call	??1ScriptClass@@UAE@XZ			; ScriptClass::~ScriptClass
	mov	eax, DWORD PTR ___flags$[ebp]
	and	eax, 1
	je	SHORT $LN1@scalar
	mov	eax, DWORD PTR _this$[ebp]
	push	eax
	call	??3@YAXPAX@Z				; operator delete
	add	esp, 4
$LN1@scalar:
	mov	eax, DWORD PTR _this$[ebp]
	pop	edi
	pop	esi
	pop	ebx
	mov	esp, ebp
	pop	ebp
	ret	4
??_GScriptClass@@UAEPAXI@Z ENDP				; ScriptClass::`scalar deleting destructor'
_TEXT	ENDS
; Function compile flags: /Odtp /ZI
;	COMDAT ??4ScriptClass@@QAEAAV0@ABV0@@Z
_TEXT	SEGMENT
_this$ = -4						; size = 4
___that$ = 8						; size = 4
??4ScriptClass@@QAEAAV0@ABV0@@Z PROC			; ScriptClass::operator=, COMDAT
; _this$ = ecx
	push	ebp
	mov	ebp, esp
	sub	esp, 68					; 00000044H
	push	ebx
	push	esi
	push	edi
	mov	DWORD PTR _this$[ebp], ecx
	mov	eax, DWORD PTR ___that$[ebp]
	push	eax
	mov	ecx, DWORD PTR _this$[ebp]
	call	??4GameObjObserverClass@@QAEAAV0@ABV0@@Z
	mov	eax, DWORD PTR _this$[ebp]
	pop	edi
	pop	esi
	pop	ebx
	mov	esp, ebp
	pop	ebp
	ret	4
??4ScriptClass@@QAEAAV0@ABV0@@Z ENDP			; ScriptClass::operator=
_TEXT	ENDS
; Function compile flags: /Odtp /ZI
;	COMDAT ??0ScriptClass@@QAE@ABV0@@Z
_TEXT	SEGMENT
_this$ = -4						; size = 4
___that$ = 8						; size = 4
??0ScriptClass@@QAE@ABV0@@Z PROC			; ScriptClass::ScriptClass, COMDAT
; _this$ = ecx
	push	ebp
	mov	ebp, esp
	sub	esp, 68					; 00000044H
	push	ebx
	push	esi
	push	edi
	mov	DWORD PTR _this$[ebp], ecx
	mov	eax, DWORD PTR ___that$[ebp]
	push	eax
	mov	ecx, DWORD PTR _this$[ebp]
	call	??0GameObjObserverClass@@QAE@ABV0@@Z
	mov	eax, DWORD PTR _this$[ebp]
	mov	DWORD PTR [eax], OFFSET ??_7ScriptClass@@6B@
	mov	eax, DWORD PTR _this$[ebp]
	pop	edi
	pop	esi
	pop	ebx
	mov	esp, ebp
	pop	ebp
	ret	4
??0ScriptClass@@QAE@ABV0@@Z ENDP			; ScriptClass::ScriptClass
_TEXT	ENDS
; Function compile flags: /Odtp /ZI
;	COMDAT ??0ScriptClass@@QAE@XZ
_TEXT	SEGMENT
_this$ = -4						; size = 4
??0ScriptClass@@QAE@XZ PROC				; ScriptClass::ScriptClass, COMDAT
; _this$ = ecx
	push	ebp
	mov	ebp, esp
	sub	esp, 68					; 00000044H
	push	ebx
	push	esi
	push	edi
	mov	DWORD PTR _this$[ebp], ecx
	mov	ecx, DWORD PTR _this$[ebp]
	call	??0GameObjObserverClass@@QAE@XZ		; GameObjObserverClass::GameObjObserverClass
	mov	eax, DWORD PTR _this$[ebp]
	mov	DWORD PTR [eax], OFFSET ??_7ScriptClass@@6B@
	mov	eax, DWORD PTR _this$[ebp]
	pop	edi
	pop	esi
	pop	ebx
	mov	esp, ebp
	pop	ebp
	ret	0
??0ScriptClass@@QAE@XZ ENDP				; ScriptClass::ScriptClass
_TEXT	ENDS
; Function compile flags: /Odtp /ZI
; File x:\github\renegade\dragonade_rxd\scripts\scripts.h
;	COMDAT ??1ScriptClass@@UAE@XZ
_TEXT	SEGMENT
_this$ = -4						; size = 4
??1ScriptClass@@UAE@XZ PROC				; ScriptClass::~ScriptClass, COMDAT
; _this$ = ecx

; 124  : 	virtual ~ScriptClass() {}

	push	ebp
	mov	ebp, esp
	sub	esp, 68					; 00000044H
	push	ebx
	push	esi
	push	edi
	mov	DWORD PTR _this$[ebp], ecx
	mov	eax, DWORD PTR _this$[ebp]
	mov	DWORD PTR [eax], OFFSET ??_7ScriptClass@@6B@
	mov	ecx, DWORD PTR _this$[ebp]
	call	??1GameObjObserverClass@@UAE@XZ		; GameObjObserverClass::~GameObjObserverClass
	pop	edi
	pop	esi
	pop	ebx
	mov	esp, ebp
	pop	ebp
	ret	0
??1ScriptClass@@UAE@XZ ENDP				; ScriptClass::~ScriptClass
_TEXT	ENDS
; Function compile flags: /Odtp /ZI
;	COMDAT ??_EGameObjObserverClass@@UAEPAXI@Z
_TEXT	SEGMENT
_this$ = -4						; size = 4
___flags$ = 8						; size = 4
??_EGameObjObserverClass@@UAEPAXI@Z PROC		; GameObjObserverClass::`vector deleting destructor', COMDAT
; _this$ = ecx
	push	ebp
	mov	ebp, esp
	sub	esp, 68					; 00000044H
	push	ebx
	push	esi
	push	edi
	mov	DWORD PTR _this$[ebp], ecx
	mov	eax, DWORD PTR ___flags$[ebp]
	and	eax, 2
	je	SHORT $LN3@vector
	push	OFFSET ??1GameObjObserverClass@@UAE@XZ	; GameObjObserverClass::~GameObjObserverClass
	mov	eax, DWORD PTR _this$[ebp]
	mov	ecx, DWORD PTR [eax-4]
	push	ecx
	push	8
	mov	edx, DWORD PTR _this$[ebp]
	push	edx
	call	??_I@YGXPAXIHP6EX0@Z@Z
	mov	eax, DWORD PTR ___flags$[ebp]
	and	eax, 1
	je	SHORT $LN2@vector
	mov	eax, DWORD PTR _this$[ebp]
	sub	eax, 4
	push	eax
	call	??_V@YAXPAX@Z				; operator delete[]
	add	esp, 4
$LN2@vector:
	mov	eax, DWORD PTR _this$[ebp]
	sub	eax, 4
	jmp	SHORT $LN4@vector
$LN3@vector:
	mov	ecx, DWORD PTR _this$[ebp]
	call	??1GameObjObserverClass@@UAE@XZ		; GameObjObserverClass::~GameObjObserverClass
	mov	eax, DWORD PTR ___flags$[ebp]
	and	eax, 1
	je	SHORT $LN1@vector
	mov	eax, DWORD PTR _this$[ebp]
	push	eax
	call	??3@YAXPAX@Z				; operator delete
	add	esp, 4
$LN1@vector:
	mov	eax, DWORD PTR _this$[ebp]
$LN4@vector:
	pop	edi
	pop	esi
	pop	ebx
	mov	esp, ebp
	pop	ebp
	ret	4
??_EGameObjObserverClass@@UAEPAXI@Z ENDP		; GameObjObserverClass::`vector deleting destructor'
_TEXT	ENDS
; Function compile flags: /Odtp /ZI
;	COMDAT ??_GGameObjObserverClass@@UAEPAXI@Z
_TEXT	SEGMENT
_this$ = -4						; size = 4
___flags$ = 8						; size = 4
??_GGameObjObserverClass@@UAEPAXI@Z PROC		; GameObjObserverClass::`scalar deleting destructor', COMDAT
; _this$ = ecx
	push	ebp
	mov	ebp, esp
	sub	esp, 68					; 00000044H
	push	ebx
	push	esi
	push	edi
	mov	DWORD PTR _this$[ebp], ecx
	mov	ecx, DWORD PTR _this$[ebp]
	call	??1GameObjObserverClass@@UAE@XZ		; GameObjObserverClass::~GameObjObserverClass
	mov	eax, DWORD PTR ___flags$[ebp]
	and	eax, 1
	je	SHORT $LN1@scalar
	mov	eax, DWORD PTR _this$[ebp]
	push	eax
	call	??3@YAXPAX@Z				; operator delete
	add	esp, 4
$LN1@scalar:
	mov	eax, DWORD PTR _this$[ebp]
	pop	edi
	pop	esi
	pop	ebx
	mov	esp, ebp
	pop	ebp
	ret	4
??_GGameObjObserverClass@@UAEPAXI@Z ENDP		; GameObjObserverClass::`scalar deleting destructor'
_TEXT	ENDS
; Function compile flags: /Odtp /ZI
;	COMDAT ??4GameObjObserverClass@@QAEAAV0@ABV0@@Z
_TEXT	SEGMENT
_this$ = -4						; size = 4
___that$ = 8						; size = 4
??4GameObjObserverClass@@QAEAAV0@ABV0@@Z PROC		; GameObjObserverClass::operator=, COMDAT
; _this$ = ecx
	push	ebp
	mov	ebp, esp
	sub	esp, 68					; 00000044H
	push	ebx
	push	esi
	push	edi
	mov	DWORD PTR _this$[ebp], ecx
	mov	eax, DWORD PTR _this$[ebp]
	mov	ecx, DWORD PTR ___that$[ebp]
	mov	edx, DWORD PTR [ecx+4]
	mov	DWORD PTR [eax+4], edx
	mov	eax, DWORD PTR _this$[ebp]
	pop	edi
	pop	esi
	pop	ebx
	mov	esp, ebp
	pop	ebp
	ret	4
??4GameObjObserverClass@@QAEAAV0@ABV0@@Z ENDP		; GameObjObserverClass::operator=
_TEXT	ENDS
; Function compile flags: /Odtp /ZI
;	COMDAT ??0GameObjObserverClass@@QAE@ABV0@@Z
_TEXT	SEGMENT
_this$ = -4						; size = 4
___that$ = 8						; size = 4
??0GameObjObserverClass@@QAE@ABV0@@Z PROC		; GameObjObserverClass::GameObjObserverClass, COMDAT
; _this$ = ecx
	push	ebp
	mov	ebp, esp
	sub	esp, 68					; 00000044H
	push	ebx
	push	esi
	push	edi
	mov	DWORD PTR _this$[ebp], ecx
	mov	eax, DWORD PTR _this$[ebp]
	mov	DWORD PTR [eax], OFFSET ??_7GameObjObserverClass@@6B@
	mov	eax, DWORD PTR _this$[ebp]
	mov	ecx, DWORD PTR ___that$[ebp]
	mov	edx, DWORD PTR [ecx+4]
	mov	DWORD PTR [eax+4], edx
	mov	eax, DWORD PTR _this$[ebp]
	pop	edi
	pop	esi
	pop	ebx
	mov	esp, ebp
	pop	ebp
	ret	4
??0GameObjObserverClass@@QAE@ABV0@@Z ENDP		; GameObjObserverClass::GameObjObserverClass
_TEXT	ENDS
; Function compile flags: /Odtp /ZI
; File x:\github\renegade\dragonade_rxd\scripts\scripts.h
;	COMDAT ?Owner@GameObjObserverClass@@UAEPAVScriptableGameObj@@XZ
_TEXT	SEGMENT
_this$ = -4						; size = 4
?Owner@GameObjObserverClass@@UAEPAVScriptableGameObj@@XZ PROC ; GameObjObserverClass::Owner, COMDAT
; _this$ = ecx

; 117  : 	virtual GameObject* Owner() {return 0;}

	push	ebp
	mov	ebp, esp
	sub	esp, 68					; 00000044H
	push	ebx
	push	esi
	push	edi
	mov	DWORD PTR _this$[ebp], ecx
	xor	eax, eax
	pop	edi
	pop	esi
	pop	ebx
	mov	esp, ebp
	pop	ebp
	ret	0
?Owner@GameObjObserverClass@@UAEPAVScriptableGameObj@@XZ ENDP ; GameObjObserverClass::Owner
_TEXT	ENDS
; Function compile flags: /Odtp /ZI
; File x:\github\renegade\dragonade_rxd\scripts\scripts.h
;	COMDAT ?Get_ID@GameObjObserverClass@@QAEHXZ
_TEXT	SEGMENT
_this$ = -4						; size = 4
?Get_ID@GameObjObserverClass@@QAEHXZ PROC		; GameObjObserverClass::Get_ID, COMDAT
; _this$ = ecx

; 99   : 	{

	push	ebp
	mov	ebp, esp
	sub	esp, 68					; 00000044H
	push	ebx
	push	esi
	push	edi
	mov	DWORD PTR _this$[ebp], ecx

; 100  : 		return ID;

	mov	eax, DWORD PTR _this$[ebp]
	mov	eax, DWORD PTR [eax+4]

; 101  : 	}

	pop	edi
	pop	esi
	pop	ebx
	mov	esp, ebp
	pop	ebp
	ret	0
?Get_ID@GameObjObserverClass@@QAEHXZ ENDP		; GameObjObserverClass::Get_ID
_TEXT	ENDS
; Function compile flags: /Odtp /ZI
; File x:\github\renegade\dragonade_rxd\scripts\scripts.h
;	COMDAT ?Set_ID@GameObjObserverClass@@QAEXH@Z
_TEXT	SEGMENT
_this$ = -4						; size = 4
_id$ = 8						; size = 4
?Set_ID@GameObjObserverClass@@QAEXH@Z PROC		; GameObjObserverClass::Set_ID, COMDAT
; _this$ = ecx

; 95   : 	{

	push	ebp
	mov	ebp, esp
	sub	esp, 68					; 00000044H
	push	ebx
	push	esi
	push	edi
	mov	DWORD PTR _this$[ebp], ecx

; 96   : 		ID = id;

	mov	eax, DWORD PTR _this$[ebp]
	mov	ecx, DWORD PTR _id$[ebp]
	mov	DWORD PTR [eax+4], ecx

; 97   : 	}

	pop	edi
	pop	esi
	pop	ebx
	mov	esp, ebp
	pop	ebp
	ret	4
?Set_ID@GameObjObserverClass@@QAEXH@Z ENDP		; GameObjObserverClass::Set_ID
_TEXT	ENDS
; Function compile flags: /Odtp /ZI
; File x:\github\renegade\dragonade_rxd\scripts\scripts.h
;	COMDAT ??1GameObjObserverClass@@UAE@XZ
_TEXT	SEGMENT
_this$ = -4						; size = 4
??1GameObjObserverClass@@UAE@XZ PROC			; GameObjObserverClass::~GameObjObserverClass, COMDAT
; _this$ = ecx

; 92   : 	virtual	~GameObjObserverClass() {}

	push	ebp
	mov	ebp, esp
	sub	esp, 68					; 00000044H
	push	ebx
	push	esi
	push	edi
	mov	DWORD PTR _this$[ebp], ecx
	mov	eax, DWORD PTR _this$[ebp]
	mov	DWORD PTR [eax], OFFSET ??_7GameObjObserverClass@@6B@
	pop	edi
	pop	esi
	pop	ebx
	mov	esp, ebp
	pop	ebp
	ret	0
??1GameObjObserverClass@@UAE@XZ ENDP			; GameObjObserverClass::~GameObjObserverClass
_TEXT	ENDS
; Function compile flags: /Odtp /ZI
; File x:\github\renegade\dragonade_rxd\scripts\scripts.h
;	COMDAT ??0GameObjObserverClass@@QAE@XZ
_TEXT	SEGMENT
_this$ = -4						; size = 4
??0GameObjObserverClass@@QAE@XZ PROC			; GameObjObserverClass::GameObjObserverClass, COMDAT
; _this$ = ecx

; 91   : 	GameObjObserverClass() : ID( 0 ) {}

	push	ebp
	mov	ebp, esp
	sub	esp, 68					; 00000044H
	push	ebx
	push	esi
	push	edi
	mov	DWORD PTR _this$[ebp], ecx
	mov	eax, DWORD PTR _this$[ebp]
	mov	DWORD PTR [eax], OFFSET ??_7GameObjObserverClass@@6B@
	mov	eax, DWORD PTR _this$[ebp]
	mov	DWORD PTR [eax+4], 0
	mov	eax, DWORD PTR _this$[ebp]
	pop	edi
	pop	esi
	pop	ebx
	mov	esp, ebp
	pop	ebp
	ret	0
??0GameObjObserverClass@@QAE@XZ ENDP			; GameObjObserverClass::GameObjObserverClass
_TEXT	ENDS
; Function compile flags: /Odtp /ZI
; File x:\github\renegade\dragonade_rxd\scripts\vector3.h
;	COMDAT ??4Vector3@@QAEAAV0@ABV0@@Z
_TEXT	SEGMENT
_this$ = -4						; size = 4
_v$ = 8							; size = 4
??4Vector3@@QAEAAV0@ABV0@@Z PROC			; Vector3::operator=, COMDAT
; _this$ = ecx

; 47   : 	{

	push	ebp
	mov	ebp, esp
	sub	esp, 68					; 00000044H
	push	ebx
	push	esi
	push	edi
	mov	DWORD PTR _this$[ebp], ecx

; 48   : 		X = v.X;

	mov	eax, DWORD PTR _this$[ebp]
	mov	ecx, DWORD PTR _v$[ebp]
	mov	edx, DWORD PTR [ecx]
	mov	DWORD PTR [eax], edx

; 49   : 		Y = v.Y;

	mov	eax, DWORD PTR _this$[ebp]
	mov	ecx, DWORD PTR _v$[ebp]
	mov	edx, DWORD PTR [ecx+4]
	mov	DWORD PTR [eax+4], edx

; 50   : 		Z = v.Z;

	mov	eax, DWORD PTR _this$[ebp]
	mov	ecx, DWORD PTR _v$[ebp]
	mov	edx, DWORD PTR [ecx+8]
	mov	DWORD PTR [eax+8], edx

; 51   : 		return *this;

	mov	eax, DWORD PTR _this$[ebp]

; 52   : 	}

	pop	edi
	pop	esi
	pop	ebx
	mov	esp, ebp
	pop	ebp
	ret	4
??4Vector3@@QAEAAV0@ABV0@@Z ENDP			; Vector3::operator=
_TEXT	ENDS
; Function compile flags: /Odtp /ZI
; File x:\github\renegade\dragonade_rxd\scripts\vector3.h
;	COMDAT ??0Vector3@@QAE@MMM@Z
_TEXT	SEGMENT
_this$ = -4						; size = 4
_x$ = 8							; size = 4
_y$ = 12						; size = 4
_z$ = 16						; size = 4
??0Vector3@@QAE@MMM@Z PROC				; Vector3::Vector3, COMDAT
; _this$ = ecx

; 33   : 	TT_INLINE Vector3(float x, float y, float z)

	push	ebp
	mov	ebp, esp
	sub	esp, 68					; 00000044H
	push	ebx
	push	esi
	push	edi
	mov	DWORD PTR _this$[ebp], ecx

; 34   : 	{
; 35   : 		X = x;

	mov	eax, DWORD PTR _this$[ebp]
	movss	xmm0, DWORD PTR _x$[ebp]
	movss	DWORD PTR [eax], xmm0

; 36   : 		Y = y;

	mov	eax, DWORD PTR _this$[ebp]
	movss	xmm0, DWORD PTR _y$[ebp]
	movss	DWORD PTR [eax+4], xmm0

; 37   : 		Z = z;

	mov	eax, DWORD PTR _this$[ebp]
	movss	xmm0, DWORD PTR _z$[ebp]
	movss	DWORD PTR [eax+8], xmm0

; 38   : 	}

	mov	eax, DWORD PTR _this$[ebp]
	pop	edi
	pop	esi
	pop	ebx
	mov	esp, ebp
	pop	ebp
	ret	12					; 0000000cH
??0Vector3@@QAE@MMM@Z ENDP				; Vector3::Vector3
_TEXT	ENDS
; Function compile flags: /Odtp /ZI
; File x:\github\renegade\dragonade_rxd\scripts\vector3.h
;	COMDAT ??0Vector3@@QAE@XZ
_TEXT	SEGMENT
_this$ = -4						; size = 4
??0Vector3@@QAE@XZ PROC					; Vector3::Vector3, COMDAT
; _this$ = ecx

; 23   : 	TT_INLINE Vector3()

	push	ebp
	mov	ebp, esp
	sub	esp, 68					; 00000044H
	push	ebx
	push	esi
	push	edi
	mov	DWORD PTR _this$[ebp], ecx

; 24   : 	{
; 25   : 		X = Y = Z = 0.0f;

	mov	eax, DWORD PTR _this$[ebp]
	movss	xmm0, DWORD PTR __real@00000000
	movss	DWORD PTR [eax+8], xmm0
	mov	ecx, DWORD PTR _this$[ebp]
	movss	xmm0, DWORD PTR __real@00000000
	movss	DWORD PTR [ecx+4], xmm0
	mov	edx, DWORD PTR _this$[ebp]
	movss	xmm0, DWORD PTR __real@00000000
	movss	DWORD PTR [edx], xmm0

; 26   : 	}

	mov	eax, DWORD PTR _this$[ebp]
	pop	edi
	pop	esi
	pop	ebx
	mov	esp, ebp
	pop	ebp
	ret	0
??0Vector3@@QAE@XZ ENDP					; Vector3::Vector3
_TEXT	ENDS
; Function compile flags: /Odtp /ZI
; File x:\github\renegade\dragonade_rxd\scripts\defines.h
;	COMDAT ??B?$RefArrayHelper@M$0EAA@@@QAEPAMXZ
_TEXT	SEGMENT
_this$ = -4						; size = 4
??B?$RefArrayHelper@M$0EAA@@@QAEPAMXZ PROC		; RefArrayHelper<float,1024>::operator float *, COMDAT
; _this$ = ecx

; 161  : 	{

	push	ebp
	mov	ebp, esp
	sub	esp, 68					; 00000044H
	push	ebx
	push	esi
	push	edi
	mov	DWORD PTR _this$[ebp], ecx

; 162  : 		return (T*) this;

	mov	eax, DWORD PTR _this$[ebp]

; 163  : 	};

	pop	edi
	pop	esi
	pop	ebx
	mov	esp, ebp
	pop	ebp
	ret	0
??B?$RefArrayHelper@M$0EAA@@@QAEPAMXZ ENDP		; RefArrayHelper<float,1024>::operator float *
_TEXT	ENDS
; Function compile flags: /Odtp /ZI
;	COMDAT ??4WWMath@@QAEAAV0@ABV0@@Z
_TEXT	SEGMENT
_this$ = -4						; size = 4
___that$ = 8						; size = 4
??4WWMath@@QAEAAV0@ABV0@@Z PROC				; WWMath::operator=, COMDAT
; _this$ = ecx
	push	ebp
	mov	ebp, esp
	sub	esp, 68					; 00000044H
	push	ebx
	push	esi
	push	edi
	mov	DWORD PTR _this$[ebp], ecx
	mov	eax, DWORD PTR _this$[ebp]
	pop	edi
	pop	esi
	pop	ebx
	mov	esp, ebp
	pop	ebp
	ret	4
??4WWMath@@QAEAAV0@ABV0@@Z ENDP				; WWMath::operator=
_TEXT	ENDS
; Function compile flags: /Odtp /ZI
; File x:\github\renegade\dragonade_rxd\scripts\wwmath.h
;	COMDAT ?Is_Valid_Double@WWMath@@SA_NN@Z
_TEXT	SEGMENT
_exponent$ = -8						; size = 4
_plong$ = -4						; size = 4
_x$ = 8							; size = 8
?Is_Valid_Double@WWMath@@SA_NN@Z PROC			; WWMath::Is_Valid_Double, COMDAT

; 207  : {

	push	ebp
	mov	ebp, esp
	sub	esp, 72					; 00000048H
	push	ebx
	push	esi
	push	edi

; 208  : 	unsigned long * plong = (unsigned long *)(&x) + 1;

	lea	eax, DWORD PTR _x$[ebp+4]
	mov	DWORD PTR _plong$[ebp], eax

; 209  : 	unsigned long exponent = ((*plong) & 0x7FF00000) >> (32-12);

	mov	eax, DWORD PTR _plong$[ebp]
	mov	ecx, DWORD PTR [eax]
	and	ecx, 2146435072				; 7ff00000H
	shr	ecx, 20					; 00000014H
	mov	DWORD PTR _exponent$[ebp], ecx

; 210  : 	if (exponent == 0x7FF) {

	cmp	DWORD PTR _exponent$[ebp], 2047		; 000007ffH
	jne	SHORT $LN1@Is_Valid_D

; 211  : 		return false;

	xor	al, al
	jmp	SHORT $LN2@Is_Valid_D
$LN1@Is_Valid_D:

; 212  : 	}
; 213  : 	return true;

	mov	al, 1
$LN2@Is_Valid_D:

; 214  : }

	pop	edi
	pop	esi
	pop	ebx
	mov	esp, ebp
	pop	ebp
	ret	0
?Is_Valid_Double@WWMath@@SA_NN@Z ENDP			; WWMath::Is_Valid_Double
_TEXT	ENDS
; Function compile flags: /Odtp /ZI
; File x:\github\renegade\dragonade_rxd\scripts\wwmath.h
;	COMDAT ?Is_Valid_Float@WWMath@@SA_NM@Z
_TEXT	SEGMENT
_exponent$ = -8						; size = 4
_plong$ = -4						; size = 4
_x$ = 8							; size = 4
?Is_Valid_Float@WWMath@@SA_NM@Z PROC			; WWMath::Is_Valid_Float, COMDAT

; 197  : {

	push	ebp
	mov	ebp, esp
	sub	esp, 72					; 00000048H
	push	ebx
	push	esi
	push	edi

; 198  : 	unsigned long * plong = (unsigned long *)(&x);

	lea	eax, DWORD PTR _x$[ebp]
	mov	DWORD PTR _plong$[ebp], eax

; 199  : 	unsigned long exponent = ((*plong) & 0x7F800000) >> (32-9);

	mov	eax, DWORD PTR _plong$[ebp]
	mov	ecx, DWORD PTR [eax]
	and	ecx, 2139095040				; 7f800000H
	shr	ecx, 23					; 00000017H
	mov	DWORD PTR _exponent$[ebp], ecx

; 200  : 	if (exponent == 0xFF) {

	cmp	DWORD PTR _exponent$[ebp], 255		; 000000ffH
	jne	SHORT $LN1@Is_Valid_F

; 201  : 		return false;

	xor	al, al
	jmp	SHORT $LN2@Is_Valid_F
$LN1@Is_Valid_F:

; 202  : 	}
; 203  : 	return true;

	mov	al, 1
$LN2@Is_Valid_F:

; 204  : }

	pop	edi
	pop	esi
	pop	ebx
	mov	esp, ebp
	pop	ebp
	ret	0
?Is_Valid_Float@WWMath@@SA_NM@Z ENDP			; WWMath::Is_Valid_Float
_TEXT	ENDS
; Function compile flags: /Odtp /ZI
; File x:\github\renegade\dragonade_rxd\scripts\wwmath.h
;	COMDAT ?Byte_To_Unit_Float@WWMath@@SAME@Z
_TEXT	SEGMENT
tv69 = -68						; size = 4
_byte$ = 8						; size = 1
?Byte_To_Unit_Float@WWMath@@SAME@Z PROC			; WWMath::Byte_To_Unit_Float, COMDAT

; 97   : 	static float Byte_To_Unit_Float(unsigned char byte) { return ((float)byte) / 255.0f; }

	push	ebp
	mov	ebp, esp
	sub	esp, 68					; 00000044H
	push	ebx
	push	esi
	push	edi
	movzx	eax, BYTE PTR _byte$[ebp]
	cvtsi2ss xmm0, eax
	divss	xmm0, DWORD PTR __real@437f0000
	movss	DWORD PTR tv69[ebp], xmm0
	fld	DWORD PTR tv69[ebp]
	pop	edi
	pop	esi
	pop	ebx
	mov	esp, ebp
	pop	ebp
	ret	0
?Byte_To_Unit_Float@WWMath@@SAME@Z ENDP			; WWMath::Byte_To_Unit_Float
_TEXT	ENDS
; Function compile flags: /Odtp /ZI
; File x:\github\renegade\dragonade_rxd\scripts\wwmath.h
;	COMDAT ?Unit_Float_To_Byte@WWMath@@SAEM@Z
_TEXT	SEGMENT
_f$ = 8							; size = 4
?Unit_Float_To_Byte@WWMath@@SAEM@Z PROC			; WWMath::Unit_Float_To_Byte, COMDAT

; 96   : 	static unsigned char Unit_Float_To_Byte(float f) { return (unsigned char)(f*255.0f); }

	push	ebp
	mov	ebp, esp
	sub	esp, 64					; 00000040H
	push	ebx
	push	esi
	push	edi
	movss	xmm0, DWORD PTR _f$[ebp]
	mulss	xmm0, DWORD PTR __real@437f0000
	cvttss2si eax, xmm0
	pop	edi
	pop	esi
	pop	ebx
	mov	esp, ebp
	pop	ebp
	ret	0
?Unit_Float_To_Byte@WWMath@@SAEM@Z ENDP			; WWMath::Unit_Float_To_Byte
_TEXT	ENDS
; Function compile flags: /Odtp /ZI
; File x:\github\renegade\dragonade_rxd\scripts\wwmath.h
;	COMDAT ?Float_To_Long@WWMath@@SAJN@Z
_TEXT	SEGMENT
$T1 = -80						; size = 16
_f$ = 8							; size = 8
?Float_To_Long@WWMath@@SAJN@Z PROC			; WWMath::Float_To_Long, COMDAT

; 222  : {

	push	ebx
	mov	ebx, esp
	sub	esp, 8
	and	esp, -16				; fffffff0H
	add	esp, 4
	push	ebp
	mov	ebp, DWORD PTR [ebx+4]
	mov	DWORD PTR [esp+4], ebp
	mov	ebp, esp
	sub	esp, 88					; 00000058H
	push	esi
	push	edi

; 223  :     return _mm_cvttsd_si32(_mm_load_pd(&f));

	movupd	xmm0, XMMWORD PTR _f$[ebx]
	movapd	XMMWORD PTR $T1[ebp], xmm0
	movapd	xmm0, XMMWORD PTR $T1[ebp]
	cvttsd2si eax, xmm0

; 224  : }

	pop	edi
	pop	esi
	mov	esp, ebp
	pop	ebp
	mov	esp, ebx
	pop	ebx
	ret	0
?Float_To_Long@WWMath@@SAJN@Z ENDP			; WWMath::Float_To_Long
_TEXT	ENDS
; Function compile flags: /Odtp /ZI
; File x:\github\renegade\dragonade_rxd\scripts\wwmath.h
;	COMDAT ?Lerp@WWMath@@SAHHHM@Z
_TEXT	SEGMENT
_a$ = 8							; size = 4
_b$ = 12						; size = 4
_lerp$ = 16						; size = 4
?Lerp@WWMath@@SAHHHM@Z PROC				; WWMath::Lerp, COMDAT

; 192  : {

	push	ebp
	mov	ebp, esp
	sub	esp, 64					; 00000040H
	push	ebx
	push	esi
	push	edi

; 193  : 	return (a + (int)((b - a)*lerp));

	mov	eax, DWORD PTR _b$[ebp]
	sub	eax, DWORD PTR _a$[ebp]
	cvtsi2ss xmm0, eax
	mulss	xmm0, DWORD PTR _lerp$[ebp]
	cvttss2si eax, xmm0
	add	eax, DWORD PTR _a$[ebp]

; 194  : }

	pop	edi
	pop	esi
	pop	ebx
	mov	esp, ebp
	pop	ebp
	ret	0
?Lerp@WWMath@@SAHHHM@Z ENDP				; WWMath::Lerp
_TEXT	ENDS
; Function compile flags: /Odtp /ZI
; File x:\github\renegade\dragonade_rxd\scripts\wwmath.h
;	COMDAT ?Lerp@WWMath@@SANNNM@Z
_TEXT	SEGMENT
tv73 = -72						; size = 8
_a$ = 8							; size = 8
_b$ = 16						; size = 8
_lerp$ = 24						; size = 4
?Lerp@WWMath@@SANNNM@Z PROC				; WWMath::Lerp, COMDAT

; 187  : {

	push	ebp
	mov	ebp, esp
	sub	esp, 72					; 00000048H
	push	ebx
	push	esi
	push	edi

; 188  : 	return (a + (b - a)*lerp);

	movsd	xmm0, QWORD PTR _b$[ebp]
	subsd	xmm0, QWORD PTR _a$[ebp]
	cvtss2sd xmm1, DWORD PTR _lerp$[ebp]
	mulsd	xmm0, xmm1
	addsd	xmm0, QWORD PTR _a$[ebp]
	movsd	QWORD PTR tv73[ebp], xmm0
	fld	QWORD PTR tv73[ebp]

; 189  : }

	pop	edi
	pop	esi
	pop	ebx
	mov	esp, ebp
	pop	ebp
	ret	0
?Lerp@WWMath@@SANNNM@Z ENDP				; WWMath::Lerp
_TEXT	ENDS
; Function compile flags: /Odtp /ZI
; File x:\github\renegade\dragonade_rxd\scripts\wwmath.h
;	COMDAT ?Lerp@WWMath@@SAMMMM@Z
_TEXT	SEGMENT
tv72 = -68						; size = 4
_a$ = 8							; size = 4
_b$ = 12						; size = 4
_lerp$ = 16						; size = 4
?Lerp@WWMath@@SAMMMM@Z PROC				; WWMath::Lerp, COMDAT

; 182  : {

	push	ebp
	mov	ebp, esp
	sub	esp, 68					; 00000044H
	push	ebx
	push	esi
	push	edi

; 183  : 	return (a + (b - a)*lerp);

	movss	xmm0, DWORD PTR _b$[ebp]
	subss	xmm0, DWORD PTR _a$[ebp]
	mulss	xmm0, DWORD PTR _lerp$[ebp]
	addss	xmm0, DWORD PTR _a$[ebp]
	movss	DWORD PTR tv72[ebp], xmm0
	fld	DWORD PTR tv72[ebp]

; 184  : }

	pop	edi
	pop	esi
	pop	ebx
	mov	esp, ebp
	pop	ebp
	ret	0
?Lerp@WWMath@@SAMMMM@Z ENDP				; WWMath::Lerp
_TEXT	ENDS
; Function compile flags: /Odtp /ZI
; File x:\github\renegade\dragonade_rxd\scripts\wwmath.h
;	COMDAT ?Max@WWMath@@SAMMM@Z
_TEXT	SEGMENT
_a$ = 8							; size = 4
_b$ = 12						; size = 4
?Max@WWMath@@SAMMM@Z PROC				; WWMath::Max, COMDAT

; 176  : {

	push	ebp
	mov	ebp, esp
	sub	esp, 64					; 00000040H
	push	ebx
	push	esi
	push	edi

; 177  : 	if (a>b) return a;

	movss	xmm0, DWORD PTR _a$[ebp]
	comiss	xmm0, DWORD PTR _b$[ebp]
	jbe	SHORT $LN1@Max
	fld	DWORD PTR _a$[ebp]
	jmp	SHORT $LN2@Max
$LN1@Max:

; 178  : 	return b;

	fld	DWORD PTR _b$[ebp]
$LN2@Max:

; 179  : }

	pop	edi
	pop	esi
	pop	ebx
	mov	esp, ebp
	pop	ebp
	ret	0
?Max@WWMath@@SAMMM@Z ENDP				; WWMath::Max
_TEXT	ENDS
; Function compile flags: /Odtp /ZI
; File x:\github\renegade\dragonade_rxd\scripts\wwmath.h
;	COMDAT ?Min@WWMath@@SAMMM@Z
_TEXT	SEGMENT
_a$ = 8							; size = 4
_b$ = 12						; size = 4
?Min@WWMath@@SAMMM@Z PROC				; WWMath::Min, COMDAT

; 170  : {

	push	ebp
	mov	ebp, esp
	sub	esp, 64					; 00000040H
	push	ebx
	push	esi
	push	edi

; 171  : 	if (a<b) return a;

	movss	xmm0, DWORD PTR _b$[ebp]
	comiss	xmm0, DWORD PTR _a$[ebp]
	jbe	SHORT $LN1@Min
	fld	DWORD PTR _a$[ebp]
	jmp	SHORT $LN2@Min
$LN1@Min:

; 172  : 	return b;

	fld	DWORD PTR _b$[ebp]
$LN2@Min:

; 173  : }

	pop	edi
	pop	esi
	pop	ebx
	mov	esp, ebp
	pop	ebp
	ret	0
?Min@WWMath@@SAMMM@Z ENDP				; WWMath::Min
_TEXT	ENDS
; Function compile flags: /Odtp /ZI
; File x:\github\renegade\dragonade_rxd\scripts\wwmath.h
;	COMDAT ?Wrap@WWMath@@SANNNN@Z
_TEXT	SEGMENT
_val$ = 8						; size = 8
_min$ = 16						; size = 8
_max$ = 24						; size = 8
?Wrap@WWMath@@SANNNN@Z PROC				; WWMath::Wrap, COMDAT

; 157  : {

	push	ebp
	mov	ebp, esp
	sub	esp, 64					; 00000040H
	push	ebx
	push	esi
	push	edi

; 158  : 	if ( val >= max )	val -= (max-min);

	movsd	xmm0, QWORD PTR _val$[ebp]
	comisd	xmm0, QWORD PTR _max$[ebp]
	jb	SHORT $LN4@Wrap
	movsd	xmm0, QWORD PTR _max$[ebp]
	subsd	xmm0, QWORD PTR _min$[ebp]
	movsd	xmm1, QWORD PTR _val$[ebp]
	subsd	xmm1, xmm0
	movsd	QWORD PTR _val$[ebp], xmm1
$LN4@Wrap:

; 159  : 	if ( val < min )	val += (max-min);

	movsd	xmm0, QWORD PTR _min$[ebp]
	comisd	xmm0, QWORD PTR _val$[ebp]
	jbe	SHORT $LN3@Wrap
	movsd	xmm0, QWORD PTR _max$[ebp]
	subsd	xmm0, QWORD PTR _min$[ebp]
	addsd	xmm0, QWORD PTR _val$[ebp]
	movsd	QWORD PTR _val$[ebp], xmm0
$LN3@Wrap:

; 160  : 	if ( val < min ) {

	movsd	xmm0, QWORD PTR _min$[ebp]
	comisd	xmm0, QWORD PTR _val$[ebp]
	jbe	SHORT $LN2@Wrap

; 161  : 		val = min;

	movsd	xmm0, QWORD PTR _min$[ebp]
	movsd	QWORD PTR _val$[ebp], xmm0
$LN2@Wrap:

; 162  : 	}
; 163  : 	if ( val > max ) {

	movsd	xmm0, QWORD PTR _val$[ebp]
	comisd	xmm0, QWORD PTR _max$[ebp]
	jbe	SHORT $LN1@Wrap

; 164  : 		val = max;

	movsd	xmm0, QWORD PTR _max$[ebp]
	movsd	QWORD PTR _val$[ebp], xmm0
$LN1@Wrap:

; 165  : 	}
; 166  : 	return val;

	fld	QWORD PTR _val$[ebp]

; 167  : }

	pop	edi
	pop	esi
	pop	ebx
	mov	esp, ebp
	pop	ebp
	ret	0
?Wrap@WWMath@@SANNNN@Z ENDP				; WWMath::Wrap
_TEXT	ENDS
; Function compile flags: /Odtp /ZI
; File x:\github\renegade\dragonade_rxd\scripts\wwmath.h
;	COMDAT ?Wrap@WWMath@@SAMMMM@Z
_TEXT	SEGMENT
_val$ = 8						; size = 4
_min$ = 12						; size = 4
_max$ = 16						; size = 4
?Wrap@WWMath@@SAMMMM@Z PROC				; WWMath::Wrap, COMDAT

; 144  : {

	push	ebp
	mov	ebp, esp
	sub	esp, 64					; 00000040H
	push	ebx
	push	esi
	push	edi

; 145  : 	if ( val >= max )	val -= (max-min);

	movss	xmm0, DWORD PTR _val$[ebp]
	comiss	xmm0, DWORD PTR _max$[ebp]
	jb	SHORT $LN4@Wrap
	movss	xmm0, DWORD PTR _max$[ebp]
	subss	xmm0, DWORD PTR _min$[ebp]
	movss	xmm1, DWORD PTR _val$[ebp]
	subss	xmm1, xmm0
	movss	DWORD PTR _val$[ebp], xmm1
$LN4@Wrap:

; 146  : 	if ( val < min )	val += (max-min);

	movss	xmm0, DWORD PTR _min$[ebp]
	comiss	xmm0, DWORD PTR _val$[ebp]
	jbe	SHORT $LN3@Wrap
	movss	xmm0, DWORD PTR _max$[ebp]
	subss	xmm0, DWORD PTR _min$[ebp]
	addss	xmm0, DWORD PTR _val$[ebp]
	movss	DWORD PTR _val$[ebp], xmm0
$LN3@Wrap:

; 147  : 	if ( val < min ) {

	movss	xmm0, DWORD PTR _min$[ebp]
	comiss	xmm0, DWORD PTR _val$[ebp]
	jbe	SHORT $LN2@Wrap

; 148  : 		val = min;

	movss	xmm0, DWORD PTR _min$[ebp]
	movss	DWORD PTR _val$[ebp], xmm0
$LN2@Wrap:

; 149  : 	}
; 150  : 	if ( val > max ) {

	movss	xmm0, DWORD PTR _val$[ebp]
	comiss	xmm0, DWORD PTR _max$[ebp]
	jbe	SHORT $LN1@Wrap

; 151  : 		val = max;

	movss	xmm0, DWORD PTR _max$[ebp]
	movss	DWORD PTR _val$[ebp], xmm0
$LN1@Wrap:

; 152  : 	}
; 153  : 	return val;

	fld	DWORD PTR _val$[ebp]

; 154  : }

	pop	edi
	pop	esi
	pop	ebx
	mov	esp, ebp
	pop	ebp
	ret	0
?Wrap@WWMath@@SAMMMM@Z ENDP				; WWMath::Wrap
_TEXT	ENDS
; Function compile flags: /Odtp /ZI
; File x:\github\renegade\dragonade_rxd\scripts\wwmath.h
;	COMDAT ?Clamp_Int@WWMath@@SAHHHH@Z
_TEXT	SEGMENT
_val$ = 8						; size = 4
_min_val$ = 12						; size = 4
_max_val$ = 16						; size = 4
?Clamp_Int@WWMath@@SAHHHH@Z PROC			; WWMath::Clamp_Int, COMDAT

; 137  : {

	push	ebp
	mov	ebp, esp
	sub	esp, 64					; 00000040H
	push	ebx
	push	esi
	push	edi

; 138  : 	if(val < min_val) return min_val;

	mov	eax, DWORD PTR _val$[ebp]
	cmp	eax, DWORD PTR _min_val$[ebp]
	jge	SHORT $LN2@Clamp_Int
	mov	eax, DWORD PTR _min_val$[ebp]
	jmp	SHORT $LN3@Clamp_Int
$LN2@Clamp_Int:

; 139  : 	if(val > max_val) return max_val;

	mov	eax, DWORD PTR _val$[ebp]
	cmp	eax, DWORD PTR _max_val$[ebp]
	jle	SHORT $LN1@Clamp_Int
	mov	eax, DWORD PTR _max_val$[ebp]
	jmp	SHORT $LN3@Clamp_Int
$LN1@Clamp_Int:

; 140  : 	return val;

	mov	eax, DWORD PTR _val$[ebp]
$LN3@Clamp_Int:

; 141  : }

	pop	edi
	pop	esi
	pop	ebx
	mov	esp, ebp
	pop	ebp
	ret	0
?Clamp_Int@WWMath@@SAHHHH@Z ENDP			; WWMath::Clamp_Int
_TEXT	ENDS
; Function compile flags: /Odtp /ZI
; File x:\github\renegade\dragonade_rxd\scripts\wwmath.h
;	COMDAT ?Clamp@WWMath@@SANNNN@Z
_TEXT	SEGMENT
_val$ = 8						; size = 8
_min$ = 16						; size = 8
_max$ = 24						; size = 8
?Clamp@WWMath@@SANNNN@Z PROC				; WWMath::Clamp, COMDAT

; 130  : {

	push	ebp
	mov	ebp, esp
	sub	esp, 64					; 00000040H
	push	ebx
	push	esi
	push	edi

; 131  : 	if(val < min) return min;

	movsd	xmm0, QWORD PTR _min$[ebp]
	comisd	xmm0, QWORD PTR _val$[ebp]
	jbe	SHORT $LN2@Clamp
	fld	QWORD PTR _min$[ebp]
	jmp	SHORT $LN3@Clamp
$LN2@Clamp:

; 132  : 	if(val > max) return max;

	movsd	xmm0, QWORD PTR _val$[ebp]
	comisd	xmm0, QWORD PTR _max$[ebp]
	jbe	SHORT $LN1@Clamp
	fld	QWORD PTR _max$[ebp]
	jmp	SHORT $LN3@Clamp
$LN1@Clamp:

; 133  : 	return val;

	fld	QWORD PTR _val$[ebp]
$LN3@Clamp:

; 134  : }

	pop	edi
	pop	esi
	pop	ebx
	mov	esp, ebp
	pop	ebp
	ret	0
?Clamp@WWMath@@SANNNN@Z ENDP				; WWMath::Clamp
_TEXT	ENDS
; Function compile flags: /Odtp /ZI
; File x:\github\renegade\dragonade_rxd\scripts\wwmath.h
;	COMDAT ?Clamp@WWMath@@SAMMMM@Z
_TEXT	SEGMENT
_val$ = 8						; size = 4
_min$ = 12						; size = 4
_max$ = 16						; size = 4
?Clamp@WWMath@@SAMMMM@Z PROC				; WWMath::Clamp, COMDAT

; 123  : {

	push	ebp
	mov	ebp, esp
	sub	esp, 64					; 00000040H
	push	ebx
	push	esi
	push	edi

; 124  : 	if(val < min) return min;

	movss	xmm0, DWORD PTR _min$[ebp]
	comiss	xmm0, DWORD PTR _val$[ebp]
	jbe	SHORT $LN2@Clamp
	fld	DWORD PTR _min$[ebp]
	jmp	SHORT $LN3@Clamp
$LN2@Clamp:

; 125  : 	if(val > max) return max;

	movss	xmm0, DWORD PTR _val$[ebp]
	comiss	xmm0, DWORD PTR _max$[ebp]
	jbe	SHORT $LN1@Clamp
	fld	DWORD PTR _max$[ebp]
	jmp	SHORT $LN3@Clamp
$LN1@Clamp:

; 126  : 	return val;

	fld	DWORD PTR _val$[ebp]
$LN3@Clamp:

; 127  : }

	pop	edi
	pop	esi
	pop	ebx
	mov	esp, ebp
	pop	ebp
	ret	0
?Clamp@WWMath@@SAMMMM@Z ENDP				; WWMath::Clamp
_TEXT	ENDS
; Function compile flags: /Odtp /ZI
; File x:\github\renegade\dragonade_rxd\scripts\wwmath.h
;	COMDAT ?Random_Float@WWMath@@SAMMM@Z
_TEXT	SEGMENT
tv76 = -72						; size = 4
tv73 = -68						; size = 4
_min$ = 8						; size = 4
_max$ = 12						; size = 4
?Random_Float@WWMath@@SAMMM@Z PROC			; WWMath::Random_Float, COMDAT

; 118  : { 

	push	ebp
	mov	ebp, esp
	sub	esp, 72					; 00000048H
	push	ebx
	push	esi
	push	edi

; 119  : 	return Random_Float() * (max-min) + min; 

	call	?Random_Float@WWMath@@SAMXZ		; WWMath::Random_Float
	fstp	DWORD PTR tv73[ebp]
	movss	xmm0, DWORD PTR tv73[ebp]
	movss	xmm1, DWORD PTR _max$[ebp]
	subss	xmm1, DWORD PTR _min$[ebp]
	mulss	xmm0, xmm1
	addss	xmm0, DWORD PTR _min$[ebp]
	movss	DWORD PTR tv76[ebp], xmm0
	fld	DWORD PTR tv76[ebp]

; 120  : }

	pop	edi
	pop	esi
	pop	ebx
	mov	esp, ebp
	pop	ebp
	ret	0
?Random_Float@WWMath@@SAMMM@Z ENDP			; WWMath::Random_Float
_TEXT	ENDS
; Function compile flags: /Odtp /ZI
; File x:\github\renegade\dragonade_rxd\scripts\wwmath.h
;	COMDAT ?Fast_Is_Float_Positive@WWMath@@SA_NABM@Z
_TEXT	SEGMENT
tv66 = -68						; size = 4
_val$ = 8						; size = 4
?Fast_Is_Float_Positive@WWMath@@SA_NABM@Z PROC		; WWMath::Fast_Is_Float_Positive, COMDAT

; 113  : {

	push	ebp
	mov	ebp, esp
	sub	esp, 68					; 00000044H
	push	ebx
	push	esi
	push	edi

; 114  : 	return !((*(int *)(&val)) & 0x80000000);

	mov	eax, DWORD PTR _val$[ebp]
	mov	ecx, DWORD PTR [eax]
	and	ecx, -2147483648			; 80000000H
	jne	SHORT $LN3@Fast_Is_Fl
	mov	DWORD PTR tv66[ebp], 1
	jmp	SHORT $LN4@Fast_Is_Fl
$LN3@Fast_Is_Fl:
	mov	DWORD PTR tv66[ebp], 0
$LN4@Fast_Is_Fl:
	mov	al, BYTE PTR tv66[ebp]

; 115  : }

	pop	edi
	pop	esi
	pop	ebx
	mov	esp, ebp
	pop	ebp
	ret	0
?Fast_Is_Float_Positive@WWMath@@SA_NABM@Z ENDP		; WWMath::Fast_Is_Float_Positive
_TEXT	ENDS
; Function compile flags: /Odtp /ZI
; File x:\github\renegade\dragonade_rxd\scripts\wwmath.h
;	COMDAT ?Floor@WWMath@@SAMM@Z
_TEXT	SEGMENT
_val$ = 8						; size = 4
?Floor@WWMath@@SAMM@Z PROC				; WWMath::Floor, COMDAT

; 81   : 	static float Floor(float val) { return floorf(val); }

	push	ebp
	mov	ebp, esp
	sub	esp, 64					; 00000040H
	push	ebx
	push	esi
	push	edi
	push	ecx
	movss	xmm0, DWORD PTR _val$[ebp]
	movss	DWORD PTR [esp], xmm0
	call	_floorf
	add	esp, 4
	pop	edi
	pop	esi
	pop	ebx
	mov	esp, ebp
	pop	ebp
	ret	0
?Floor@WWMath@@SAMM@Z ENDP				; WWMath::Floor
_TEXT	ENDS
; Function compile flags: /Odtp /ZI
; File x:\github\renegade\dragonade_rxd\scripts\wwmath.h
;	COMDAT ?Ceil@WWMath@@SAMM@Z
_TEXT	SEGMENT
_val$ = 8						; size = 4
?Ceil@WWMath@@SAMM@Z PROC				; WWMath::Ceil, COMDAT

; 80   : 	static float Ceil(float val) { return ceilf(val); }

	push	ebp
	mov	ebp, esp
	sub	esp, 64					; 00000040H
	push	ebx
	push	esi
	push	edi
	push	ecx
	movss	xmm0, DWORD PTR _val$[ebp]
	movss	DWORD PTR [esp], xmm0
	call	_ceilf
	add	esp, 4
	pop	edi
	pop	esi
	pop	ebx
	mov	esp, ebp
	pop	ebp
	ret	0
?Ceil@WWMath@@SAMM@Z ENDP				; WWMath::Ceil
_TEXT	ENDS
; Function compile flags: /Odtp /ZI
; File x:\github\renegade\dragonade_rxd\scripts\wwmath.h
;	COMDAT ?Sign@WWMath@@SAMM@Z
_TEXT	SEGMENT
_val$ = 8						; size = 4
?Sign@WWMath@@SAMM@Z PROC				; WWMath::Sign, COMDAT

; 102  : { 

	push	ebp
	mov	ebp, esp
	sub	esp, 64					; 00000040H
	push	ebx
	push	esi
	push	edi

; 103  : 	if (val > 0.0f) { 

	movss	xmm0, DWORD PTR _val$[ebp]
	comiss	xmm0, DWORD PTR __real@00000000
	jbe	SHORT $LN2@Sign

; 104  : 		return +1.0f; 

	fld1
	jmp	SHORT $LN3@Sign
$LN2@Sign:

; 105  : 	} 
; 106  : 	if (val < 0.0f) { 

	movss	xmm0, DWORD PTR __real@00000000
	comiss	xmm0, DWORD PTR _val$[ebp]
	jbe	SHORT $LN1@Sign

; 107  : 		return -1.0f; 

	fld	DWORD PTR __real@bf800000
	jmp	SHORT $LN3@Sign
$LN1@Sign:

; 108  : 	} 
; 109  : 	return 0.0f; 

	fldz
$LN3@Sign:

; 110  : }

	pop	edi
	pop	esi
	pop	ebx
	mov	esp, ebp
	pop	ebp
	ret	0
?Sign@WWMath@@SAMM@Z ENDP				; WWMath::Sign
_TEXT	ENDS
; Function compile flags: /Odtp /ZI
; File x:\github\renegade\dragonade_rxd\scripts\wwmath.h
;	COMDAT ?Atan2@WWMath@@SAMMM@Z
_TEXT	SEGMENT
_y$ = 8							; size = 4
_x$ = 12						; size = 4
?Atan2@WWMath@@SAMMM@Z PROC				; WWMath::Atan2, COMDAT

; 78   : 	static float Atan2(float y,float x) { return static_cast<float>(atan2(y,x)); }

	push	ebp
	mov	ebp, esp
	sub	esp, 64					; 00000040H
	push	ebx
	push	esi
	push	edi
	push	ecx
	movss	xmm0, DWORD PTR _x$[ebp]
	movss	DWORD PTR [esp], xmm0
	push	ecx
	movss	xmm0, DWORD PTR _y$[ebp]
	movss	DWORD PTR [esp], xmm0
	call	?atan2@@YAMMM@Z				; atan2
	add	esp, 8
	pop	edi
	pop	esi
	pop	ebx
	mov	esp, ebp
	pop	ebp
	ret	0
?Atan2@WWMath@@SAMMM@Z ENDP				; WWMath::Atan2
_TEXT	ENDS
; Function compile flags: /Odtp /ZI
; File x:\github\renegade\dragonade_rxd\scripts\wwmath.h
;	COMDAT ?Atan@WWMath@@SAMM@Z
_TEXT	SEGMENT
_x$ = 8							; size = 4
?Atan@WWMath@@SAMM@Z PROC				; WWMath::Atan, COMDAT

; 77   : 	static float Atan(float x) { return static_cast<float>(atan(x)); }

	push	ebp
	mov	ebp, esp
	sub	esp, 64					; 00000040H
	push	ebx
	push	esi
	push	edi
	push	ecx
	movss	xmm0, DWORD PTR _x$[ebp]
	movss	DWORD PTR [esp], xmm0
	call	?atan@@YAMM@Z				; atan
	add	esp, 4
	pop	edi
	pop	esi
	pop	ebx
	mov	esp, ebp
	pop	ebp
	ret	0
?Atan@WWMath@@SAMM@Z ENDP				; WWMath::Atan
_TEXT	ENDS
; Function compile flags: /Odtp /ZI
; File x:\github\renegade\dragonade_rxd\scripts\wwmath.h
;	COMDAT ?Asin@WWMath@@SAMM@Z
_TEXT	SEGMENT
_val$ = 8						; size = 4
?Asin@WWMath@@SAMM@Z PROC				; WWMath::Asin, COMDAT

; 306  : {

	push	ebp
	mov	ebp, esp
	sub	esp, 64					; 00000040H
	push	ebx
	push	esi
	push	edi

; 307  : 	return (float)asin(val);

	push	ecx
	movss	xmm0, DWORD PTR _val$[ebp]
	movss	DWORD PTR [esp], xmm0
	call	?asin@@YAMM@Z				; asin
	add	esp, 4

; 308  : }

	pop	edi
	pop	esi
	pop	ebx
	mov	esp, ebp
	pop	ebp
	ret	0
?Asin@WWMath@@SAMM@Z ENDP				; WWMath::Asin
_TEXT	ENDS
; Function compile flags: /Odtp /ZI
; File x:\github\renegade\dragonade_rxd\scripts\wwmath.h
;	COMDAT ?Acos@WWMath@@SAMM@Z
_TEXT	SEGMENT
_val$ = 8						; size = 4
?Acos@WWMath@@SAMM@Z PROC				; WWMath::Acos, COMDAT

; 286  : {

	push	ebp
	mov	ebp, esp
	sub	esp, 64					; 00000040H
	push	ebx
	push	esi
	push	edi

; 287  : 	return (float)acos(val);

	push	ecx
	movss	xmm0, DWORD PTR _val$[ebp]
	movss	DWORD PTR [esp], xmm0
	call	?acos@@YAMM@Z				; acos
	add	esp, 4

; 288  : }

	pop	edi
	pop	esi
	pop	ebx
	mov	esp, ebp
	pop	ebp
	ret	0
?Acos@WWMath@@SAMM@Z ENDP				; WWMath::Acos
_TEXT	ENDS
; Function compile flags: /Odtp /ZI
; File x:\github\renegade\dragonade_rxd\scripts\wwmath.h
;	COMDAT ?Fast_Asin@WWMath@@SAMM@Z
_TEXT	SEGMENT
tv156 = -88						; size = 4
tv161 = -84						; size = 4
tv159 = -80						; size = 4
tv134 = -80						; size = 4
_frac$ = -12						; size = 4
_idx1$ = -8						; size = 4
_idx0$ = -4						; size = 4
_val$ = 8						; size = 4
?Fast_Asin@WWMath@@SAMM@Z PROC				; WWMath::Fast_Asin, COMDAT

; 291  : {

	push	ebp
	mov	ebp, esp
	sub	esp, 88					; 00000058H
	push	ebx
	push	esi
	push	edi

; 292  : 	if (WWMath::Fabs(val) > 0.975f) {

	push	ecx
	movss	xmm0, DWORD PTR _val$[ebp]
	movss	DWORD PTR [esp], xmm0
	call	?Fabs@WWMath@@SAMM@Z			; WWMath::Fabs
	add	esp, 4
	fstp	DWORD PTR tv134[ebp]
	movss	xmm0, DWORD PTR tv134[ebp]
	comiss	xmm0, DWORD PTR __real@3f79999a
	jbe	SHORT $LN11@Fast_Asin

; 293  : 		return WWMath::Asin(val);

	push	ecx
	movss	xmm0, DWORD PTR _val$[ebp]
	movss	DWORD PTR [esp], xmm0
	call	?Asin@WWMath@@SAMM@Z			; WWMath::Asin
	add	esp, 4
	jmp	$LN12@Fast_Asin
$LN11@Fast_Asin:

; 294  : 	}
; 295  : 	val*=float(ARC_TABLE_SIZE/2);

	movss	xmm0, DWORD PTR _val$[ebp]
	mulss	xmm0, DWORD PTR __real@44000000
	movss	DWORD PTR _val$[ebp], xmm0

; 296  : 	int idx0=Float_To_Int_Floor(val); 

	lea	eax, DWORD PTR _val$[ebp]
	push	eax
	call	?Float_To_Int_Floor@WWMath@@SAHABM@Z	; WWMath::Float_To_Int_Floor
	add	esp, 4
	mov	DWORD PTR _idx0$[ebp], eax

; 297  : 	int idx1=idx0+1;

	mov	eax, DWORD PTR _idx0$[ebp]
	add	eax, 1
	mov	DWORD PTR _idx1$[ebp], eax

; 298  : 	float frac=val-(float)idx0;

	cvtsi2ss xmm0, DWORD PTR _idx0$[ebp]
	movss	xmm1, DWORD PTR _val$[ebp]
	subss	xmm1, xmm0
	movss	DWORD PTR _frac$[ebp], xmm1

; 299  : 	idx0+=ARC_TABLE_SIZE/2;

	mov	eax, DWORD PTR _idx0$[ebp]
	add	eax, 512				; 00000200H
	mov	DWORD PTR _idx0$[ebp], eax

; 300  : 	idx1+=ARC_TABLE_SIZE/2;

	mov	eax, DWORD PTR _idx1$[ebp]
	add	eax, 512				; 00000200H
	mov	DWORD PTR _idx1$[ebp], eax
$LN10@Fast_Asin:

; 301  : 	TT_ASSERT((idx0 >= 0) && (idx0 < ARC_TABLE_SIZE));

	xor	eax, eax
	jne	SHORT $LN10@Fast_Asin
	cmp	DWORD PTR _idx0$[ebp], 0
	jl	SHORT $LN6@Fast_Asin
	cmp	DWORD PTR _idx0$[ebp], 1024		; 00000400H
	jl	SHORT $LN7@Fast_Asin
$LN6@Fast_Asin:
	int	3
$LN7@Fast_Asin:

; 302  : 	TT_ASSERT((idx1 >= 0) && (idx1 < ARC_TABLE_SIZE));

	xor	eax, eax
	jne	SHORT $LN7@Fast_Asin
	cmp	DWORD PTR _idx1$[ebp], 0
	jl	SHORT $LN1@Fast_Asin
	cmp	DWORD PTR _idx1$[ebp], 1024		; 00000400H
	jl	SHORT $LN2@Fast_Asin
$LN1@Fast_Asin:
	int	3
$LN2@Fast_Asin:

; 303  : 	return (1.0f - frac) * _FastAsinTable[idx0] + frac * _FastAsinTable[idx1];

	movss	xmm0, DWORD PTR __real@3f800000
	subss	xmm0, DWORD PTR _frac$[ebp]
	mov	ecx, DWORD PTR ?_FastAsinTable@@3AAV?$RefArrayHelper@M$0EAA@@@A ; _FastAsinTable
	movss	DWORD PTR tv159[ebp], xmm0
	call	??B?$RefArrayHelper@M$0EAA@@@QAEPAMXZ	; RefArrayHelper<float,1024>::operator float *
	mov	ecx, DWORD PTR _idx0$[ebp]
	movss	xmm0, DWORD PTR tv159[ebp]
	mulss	xmm0, DWORD PTR [eax+ecx*4]
	mov	ecx, DWORD PTR ?_FastAsinTable@@3AAV?$RefArrayHelper@M$0EAA@@@A ; _FastAsinTable
	movss	DWORD PTR tv161[ebp], xmm0
	call	??B?$RefArrayHelper@M$0EAA@@@QAEPAMXZ	; RefArrayHelper<float,1024>::operator float *
	mov	edx, DWORD PTR _idx1$[ebp]
	movss	xmm0, DWORD PTR _frac$[ebp]
	mulss	xmm0, DWORD PTR [eax+edx*4]
	movss	xmm1, DWORD PTR tv161[ebp]
	addss	xmm1, xmm0
	movss	DWORD PTR tv156[ebp], xmm1
	fld	DWORD PTR tv156[ebp]
$LN12@Fast_Asin:

; 304  : }

	pop	edi
	pop	esi
	pop	ebx
	mov	esp, ebp
	pop	ebp
	ret	0
?Fast_Asin@WWMath@@SAMM@Z ENDP				; WWMath::Fast_Asin
_TEXT	ENDS
; Function compile flags: /Odtp /ZI
; File x:\github\renegade\dragonade_rxd\scripts\wwmath.h
;	COMDAT ?Fast_Acos@WWMath@@SAMM@Z
_TEXT	SEGMENT
tv156 = -88						; size = 4
tv161 = -84						; size = 4
tv159 = -80						; size = 4
tv134 = -80						; size = 4
_frac$ = -12						; size = 4
_idx1$ = -8						; size = 4
_idx0$ = -4						; size = 4
_val$ = 8						; size = 4
?Fast_Acos@WWMath@@SAMM@Z PROC				; WWMath::Fast_Acos, COMDAT

; 270  : {

	push	ebp
	mov	ebp, esp
	sub	esp, 88					; 00000058H
	push	ebx
	push	esi
	push	edi

; 271  : 	if (WWMath::Fabs(val) > 0.975f) {

	push	ecx
	movss	xmm0, DWORD PTR _val$[ebp]
	movss	DWORD PTR [esp], xmm0
	call	?Fabs@WWMath@@SAMM@Z			; WWMath::Fabs
	add	esp, 4
	fstp	DWORD PTR tv134[ebp]
	movss	xmm0, DWORD PTR tv134[ebp]
	comiss	xmm0, DWORD PTR __real@3f79999a
	jbe	SHORT $LN11@Fast_Acos

; 272  : 		return WWMath::Acos(val);

	push	ecx
	movss	xmm0, DWORD PTR _val$[ebp]
	movss	DWORD PTR [esp], xmm0
	call	?Acos@WWMath@@SAMM@Z			; WWMath::Acos
	add	esp, 4
	jmp	$LN12@Fast_Acos
$LN11@Fast_Acos:

; 273  : 	}
; 274  : 	val*=float(ARC_TABLE_SIZE/2);

	movss	xmm0, DWORD PTR _val$[ebp]
	mulss	xmm0, DWORD PTR __real@44000000
	movss	DWORD PTR _val$[ebp], xmm0

; 275  : 	int idx0=Float_To_Int_Floor(val);

	lea	eax, DWORD PTR _val$[ebp]
	push	eax
	call	?Float_To_Int_Floor@WWMath@@SAHABM@Z	; WWMath::Float_To_Int_Floor
	add	esp, 4
	mov	DWORD PTR _idx0$[ebp], eax

; 276  : 	int idx1=idx0+1;

	mov	eax, DWORD PTR _idx0$[ebp]
	add	eax, 1
	mov	DWORD PTR _idx1$[ebp], eax

; 277  : 	float frac=val-(float)idx0;

	cvtsi2ss xmm0, DWORD PTR _idx0$[ebp]
	movss	xmm1, DWORD PTR _val$[ebp]
	subss	xmm1, xmm0
	movss	DWORD PTR _frac$[ebp], xmm1

; 278  : 	idx0+=ARC_TABLE_SIZE/2;

	mov	eax, DWORD PTR _idx0$[ebp]
	add	eax, 512				; 00000200H
	mov	DWORD PTR _idx0$[ebp], eax

; 279  : 	idx1+=ARC_TABLE_SIZE/2;

	mov	eax, DWORD PTR _idx1$[ebp]
	add	eax, 512				; 00000200H
	mov	DWORD PTR _idx1$[ebp], eax
$LN10@Fast_Acos:

; 280  : 	TT_ASSERT((idx0 >= 0) && (idx0 < ARC_TABLE_SIZE));

	xor	eax, eax
	jne	SHORT $LN10@Fast_Acos
	cmp	DWORD PTR _idx0$[ebp], 0
	jl	SHORT $LN6@Fast_Acos
	cmp	DWORD PTR _idx0$[ebp], 1024		; 00000400H
	jl	SHORT $LN7@Fast_Acos
$LN6@Fast_Acos:
	int	3
$LN7@Fast_Acos:

; 281  : 	TT_ASSERT((idx1 >= 0) && (idx1 < ARC_TABLE_SIZE));

	xor	eax, eax
	jne	SHORT $LN7@Fast_Acos
	cmp	DWORD PTR _idx1$[ebp], 0
	jl	SHORT $LN1@Fast_Acos
	cmp	DWORD PTR _idx1$[ebp], 1024		; 00000400H
	jl	SHORT $LN2@Fast_Acos
$LN1@Fast_Acos:
	int	3
$LN2@Fast_Acos:

; 282  : 	return (1.0f - frac) * _FastAcosTable[idx0] + frac * _FastAcosTable[idx1];

	movss	xmm0, DWORD PTR __real@3f800000
	subss	xmm0, DWORD PTR _frac$[ebp]
	mov	ecx, DWORD PTR ?_FastAcosTable@@3AAV?$RefArrayHelper@M$0EAA@@@A ; _FastAcosTable
	movss	DWORD PTR tv159[ebp], xmm0
	call	??B?$RefArrayHelper@M$0EAA@@@QAEPAMXZ	; RefArrayHelper<float,1024>::operator float *
	mov	ecx, DWORD PTR _idx0$[ebp]
	movss	xmm0, DWORD PTR tv159[ebp]
	mulss	xmm0, DWORD PTR [eax+ecx*4]
	mov	ecx, DWORD PTR ?_FastAcosTable@@3AAV?$RefArrayHelper@M$0EAA@@@A ; _FastAcosTable
	movss	DWORD PTR tv161[ebp], xmm0
	call	??B?$RefArrayHelper@M$0EAA@@@QAEPAMXZ	; RefArrayHelper<float,1024>::operator float *
	mov	edx, DWORD PTR _idx1$[ebp]
	movss	xmm0, DWORD PTR _frac$[ebp]
	mulss	xmm0, DWORD PTR [eax+edx*4]
	movss	xmm1, DWORD PTR tv161[ebp]
	addss	xmm1, xmm0
	movss	DWORD PTR tv156[ebp], xmm1
	fld	DWORD PTR tv156[ebp]
$LN12@Fast_Acos:

; 283  : }

	pop	edi
	pop	esi
	pop	ebx
	mov	esp, ebp
	pop	ebp
	ret	0
?Fast_Acos@WWMath@@SAMM@Z ENDP				; WWMath::Fast_Acos
_TEXT	ENDS
; Function compile flags: /Odtp /ZI
; File x:\github\renegade\dragonade_rxd\scripts\wwmath.h
;	COMDAT ?Fast_Inv_Cos@WWMath@@SAMM@Z
_TEXT	SEGMENT
tv76 = -72						; size = 4
tv73 = -68						; size = 4
_val$ = 8						; size = 4
?Fast_Inv_Cos@WWMath@@SAMM@Z PROC			; WWMath::Fast_Inv_Cos, COMDAT

; 265  : {

	push	ebp
	mov	ebp, esp
	sub	esp, 72					; 00000048H
	push	ebx
	push	esi
	push	edi

; 266  : 	return 1.0f / WWMath::Fast_Cos(val);

	push	ecx
	movss	xmm0, DWORD PTR _val$[ebp]
	movss	DWORD PTR [esp], xmm0
	call	?Fast_Cos@WWMath@@SAMM@Z		; WWMath::Fast_Cos
	add	esp, 4
	fstp	DWORD PTR tv73[ebp]
	movss	xmm0, DWORD PTR __real@3f800000
	divss	xmm0, DWORD PTR tv73[ebp]
	movss	DWORD PTR tv76[ebp], xmm0
	fld	DWORD PTR tv76[ebp]

; 267  : }

	pop	edi
	pop	esi
	pop	ebx
	mov	esp, ebp
	pop	ebp
	ret	0
?Fast_Inv_Cos@WWMath@@SAMM@Z ENDP			; WWMath::Fast_Inv_Cos
_TEXT	ENDS
; Function compile flags: /Odtp /ZI
; File x:\github\renegade\dragonade_rxd\scripts\wwmath.h
;	COMDAT ?Fast_Cos@WWMath@@SAMM@Z
_TEXT	SEGMENT
tv135 = -88						; size = 4
tv140 = -84						; size = 4
tv138 = -80						; size = 4
_frac$ = -12						; size = 4
_idx1$ = -8						; size = 4
_idx0$ = -4						; size = 4
_val$ = 8						; size = 4
?Fast_Cos@WWMath@@SAMM@Z PROC				; WWMath::Fast_Cos, COMDAT

; 253  : {

	push	ebp
	mov	ebp, esp
	sub	esp, 88					; 00000058H
	push	ebx
	push	esi
	push	edi

; 254  : 	val+=(WWMATH_PI * 0.5f);

	movss	xmm0, DWORD PTR _val$[ebp]
	addss	xmm0, DWORD PTR __real@3fc90fdb
	movss	DWORD PTR _val$[ebp], xmm0

; 255  : 	val*=float(SIN_TABLE_SIZE) / (2.0f * WWMATH_PI);

	movss	xmm0, DWORD PTR __real@44800000
	divss	xmm0, DWORD PTR __real@40c90fdb
	mulss	xmm0, DWORD PTR _val$[ebp]
	movss	DWORD PTR _val$[ebp], xmm0

; 256  : 	int idx0=Float_To_Int_Floor(val);

	lea	eax, DWORD PTR _val$[ebp]
	push	eax
	call	?Float_To_Int_Floor@WWMath@@SAHABM@Z	; WWMath::Float_To_Int_Floor
	add	esp, 4
	mov	DWORD PTR _idx0$[ebp], eax

; 257  : 	int idx1=idx0+1;

	mov	eax, DWORD PTR _idx0$[ebp]
	add	eax, 1
	mov	DWORD PTR _idx1$[ebp], eax

; 258  : 	float frac=val-(float)idx0;

	cvtsi2ss xmm0, DWORD PTR _idx0$[ebp]
	movss	xmm1, DWORD PTR _val$[ebp]
	subss	xmm1, xmm0
	movss	DWORD PTR _frac$[ebp], xmm1

; 259  : 	idx0 = ((unsigned)idx0) & (SIN_TABLE_SIZE-1);

	mov	eax, DWORD PTR _idx0$[ebp]
	and	eax, 1023				; 000003ffH
	mov	DWORD PTR _idx0$[ebp], eax

; 260  : 	idx1 = ((unsigned)idx1) & (SIN_TABLE_SIZE-1);

	mov	eax, DWORD PTR _idx1$[ebp]
	and	eax, 1023				; 000003ffH
	mov	DWORD PTR _idx1$[ebp], eax

; 261  : 	return (1.0f - frac) * _FastSinTable[idx0] + frac * _FastSinTable[idx1];

	movss	xmm0, DWORD PTR __real@3f800000
	subss	xmm0, DWORD PTR _frac$[ebp]
	mov	ecx, DWORD PTR ?_FastSinTable@@3AAV?$RefArrayHelper@M$0EAA@@@A ; _FastSinTable
	movss	DWORD PTR tv138[ebp], xmm0
	call	??B?$RefArrayHelper@M$0EAA@@@QAEPAMXZ	; RefArrayHelper<float,1024>::operator float *
	mov	ecx, DWORD PTR _idx0$[ebp]
	movss	xmm0, DWORD PTR tv138[ebp]
	mulss	xmm0, DWORD PTR [eax+ecx*4]
	mov	ecx, DWORD PTR ?_FastSinTable@@3AAV?$RefArrayHelper@M$0EAA@@@A ; _FastSinTable
	movss	DWORD PTR tv140[ebp], xmm0
	call	??B?$RefArrayHelper@M$0EAA@@@QAEPAMXZ	; RefArrayHelper<float,1024>::operator float *
	mov	edx, DWORD PTR _idx1$[ebp]
	movss	xmm0, DWORD PTR _frac$[ebp]
	mulss	xmm0, DWORD PTR [eax+edx*4]
	movss	xmm1, DWORD PTR tv140[ebp]
	addss	xmm1, xmm0
	movss	DWORD PTR tv135[ebp], xmm1
	fld	DWORD PTR tv135[ebp]

; 262  : }

	pop	edi
	pop	esi
	pop	ebx
	mov	esp, ebp
	pop	ebp
	ret	0
?Fast_Cos@WWMath@@SAMM@Z ENDP				; WWMath::Fast_Cos
_TEXT	ENDS
; Function compile flags: /Odtp /ZI
; File x:\github\renegade\dragonade_rxd\scripts\wwmath.h
;	COMDAT ?Fast_Inv_Sin@WWMath@@SAMM@Z
_TEXT	SEGMENT
tv76 = -72						; size = 4
tv73 = -68						; size = 4
_val$ = 8						; size = 4
?Fast_Inv_Sin@WWMath@@SAMM@Z PROC			; WWMath::Fast_Inv_Sin, COMDAT

; 248  : {

	push	ebp
	mov	ebp, esp
	sub	esp, 72					; 00000048H
	push	ebx
	push	esi
	push	edi

; 249  : 	return 1.0f / WWMath::Fast_Sin(val);

	push	ecx
	movss	xmm0, DWORD PTR _val$[ebp]
	movss	DWORD PTR [esp], xmm0
	call	?Fast_Sin@WWMath@@SAMM@Z		; WWMath::Fast_Sin
	add	esp, 4
	fstp	DWORD PTR tv73[ebp]
	movss	xmm0, DWORD PTR __real@3f800000
	divss	xmm0, DWORD PTR tv73[ebp]
	movss	DWORD PTR tv76[ebp], xmm0
	fld	DWORD PTR tv76[ebp]

; 250  : }

	pop	edi
	pop	esi
	pop	ebx
	mov	esp, ebp
	pop	ebp
	ret	0
?Fast_Inv_Sin@WWMath@@SAMM@Z ENDP			; WWMath::Fast_Inv_Sin
_TEXT	ENDS
; Function compile flags: /Odtp /ZI
; File x:\github\renegade\dragonade_rxd\scripts\wwmath.h
;	COMDAT ?Fast_Sin@WWMath@@SAMM@Z
_TEXT	SEGMENT
tv133 = -88						; size = 4
tv138 = -84						; size = 4
tv136 = -80						; size = 4
_frac$ = -12						; size = 4
_idx1$ = -8						; size = 4
_idx0$ = -4						; size = 4
_val$ = 8						; size = 4
?Fast_Sin@WWMath@@SAMM@Z PROC				; WWMath::Fast_Sin, COMDAT

; 237  : {

	push	ebp
	mov	ebp, esp
	sub	esp, 88					; 00000058H
	push	ebx
	push	esi
	push	edi

; 238  : 	val*=float(SIN_TABLE_SIZE) / (2.0f * WWMATH_PI);

	movss	xmm0, DWORD PTR __real@44800000
	divss	xmm0, DWORD PTR __real@40c90fdb
	mulss	xmm0, DWORD PTR _val$[ebp]
	movss	DWORD PTR _val$[ebp], xmm0

; 239  : 	int idx0=Float_To_Int_Floor(val);

	lea	eax, DWORD PTR _val$[ebp]
	push	eax
	call	?Float_To_Int_Floor@WWMath@@SAHABM@Z	; WWMath::Float_To_Int_Floor
	add	esp, 4
	mov	DWORD PTR _idx0$[ebp], eax

; 240  : 	int idx1=idx0+1;

	mov	eax, DWORD PTR _idx0$[ebp]
	add	eax, 1
	mov	DWORD PTR _idx1$[ebp], eax

; 241  : 	float frac=val-(float)idx0;

	cvtsi2ss xmm0, DWORD PTR _idx0$[ebp]
	movss	xmm1, DWORD PTR _val$[ebp]
	subss	xmm1, xmm0
	movss	DWORD PTR _frac$[ebp], xmm1

; 242  : 	idx0 = ((unsigned)idx0) & (SIN_TABLE_SIZE-1);

	mov	eax, DWORD PTR _idx0$[ebp]
	and	eax, 1023				; 000003ffH
	mov	DWORD PTR _idx0$[ebp], eax

; 243  : 	idx1 = ((unsigned)idx1) & (SIN_TABLE_SIZE-1);

	mov	eax, DWORD PTR _idx1$[ebp]
	and	eax, 1023				; 000003ffH
	mov	DWORD PTR _idx1$[ebp], eax

; 244  : 	return (1.0f - frac) * _FastSinTable[idx0] + frac * _FastSinTable[idx1];

	movss	xmm0, DWORD PTR __real@3f800000
	subss	xmm0, DWORD PTR _frac$[ebp]
	mov	ecx, DWORD PTR ?_FastSinTable@@3AAV?$RefArrayHelper@M$0EAA@@@A ; _FastSinTable
	movss	DWORD PTR tv136[ebp], xmm0
	call	??B?$RefArrayHelper@M$0EAA@@@QAEPAMXZ	; RefArrayHelper<float,1024>::operator float *
	mov	ecx, DWORD PTR _idx0$[ebp]
	movss	xmm0, DWORD PTR tv136[ebp]
	mulss	xmm0, DWORD PTR [eax+ecx*4]
	mov	ecx, DWORD PTR ?_FastSinTable@@3AAV?$RefArrayHelper@M$0EAA@@@A ; _FastSinTable
	movss	DWORD PTR tv138[ebp], xmm0
	call	??B?$RefArrayHelper@M$0EAA@@@QAEPAMXZ	; RefArrayHelper<float,1024>::operator float *
	mov	edx, DWORD PTR _idx1$[ebp]
	movss	xmm0, DWORD PTR _frac$[ebp]
	mulss	xmm0, DWORD PTR [eax+edx*4]
	movss	xmm1, DWORD PTR tv138[ebp]
	addss	xmm1, xmm0
	movss	DWORD PTR tv133[ebp], xmm1
	fld	DWORD PTR tv133[ebp]

; 245  : }

	pop	edi
	pop	esi
	pop	ebx
	mov	esp, ebp
	pop	ebp
	ret	0
?Fast_Sin@WWMath@@SAMM@Z ENDP				; WWMath::Fast_Sin
_TEXT	ENDS
; Function compile flags: /Odtp /ZI
; File x:\github\renegade\dragonade_rxd\scripts\wwmath.h
;	COMDAT ?Float_To_Long@WWMath@@SAJM@Z
_TEXT	SEGMENT
$T1 = -80						; size = 16
_f$ = 8							; size = 4
?Float_To_Long@WWMath@@SAJM@Z PROC			; WWMath::Float_To_Long, COMDAT

; 217  : {

	push	ebx
	mov	ebx, esp
	sub	esp, 8
	and	esp, -16				; fffffff0H
	add	esp, 4
	push	ebp
	mov	ebp, DWORD PTR [ebx+4]
	mov	DWORD PTR [esp+4], ebp
	mov	ebp, esp
	sub	esp, 88					; 00000058H
	push	esi
	push	edi

; 218  :     return _mm_cvtt_ss2si(_mm_load_ss(&f));

	movss	xmm0, DWORD PTR _f$[ebx]
	movaps	XMMWORD PTR $T1[ebp], xmm0
	movaps	xmm0, XMMWORD PTR $T1[ebp]
	cvttss2si eax, xmm0

; 219  : }

	pop	edi
	pop	esi
	mov	esp, ebp
	pop	ebp
	mov	esp, ebx
	pop	ebx
	ret	0
?Float_To_Long@WWMath@@SAJM@Z ENDP			; WWMath::Float_To_Long
_TEXT	ENDS
; Function compile flags: /Odtp /ZI
; File x:\github\renegade\dragonade_rxd\scripts\wwmath.h
;	COMDAT ?Inv_Sqrt@WWMath@@SIMM@Z
_TEXT	SEGMENT
tv76 = -72						; size = 4
tv73 = -68						; size = 4
_number$ = 8						; size = 4
?Inv_Sqrt@WWMath@@SIMM@Z PROC				; WWMath::Inv_Sqrt, COMDAT

; 341  : {

	push	ebp
	mov	ebp, esp
	sub	esp, 72					; 00000048H
	push	ebx
	push	esi
	push	edi

; 342  : 	return 1.f / sqrt(number);

	push	ecx
	movss	xmm0, DWORD PTR _number$[ebp]
	movss	DWORD PTR [esp], xmm0
	call	?sqrt@@YAMM@Z				; sqrt
	add	esp, 4
	fstp	DWORD PTR tv73[ebp]
	movss	xmm0, DWORD PTR __real@3f800000
	divss	xmm0, DWORD PTR tv73[ebp]
	movss	DWORD PTR tv76[ebp], xmm0
	fld	DWORD PTR tv76[ebp]

; 343  : }

	pop	edi
	pop	esi
	pop	ebx
	mov	esp, ebp
	pop	ebp
	ret	4
?Inv_Sqrt@WWMath@@SIMM@Z ENDP				; WWMath::Inv_Sqrt
_TEXT	ENDS
; Function compile flags: /Odtp /ZI
; File x:\github\renegade\dragonade_rxd\scripts\wwmath.h
;	COMDAT ?Sqrt@WWMath@@SAMM@Z
_TEXT	SEGMENT
_val$ = 8						; size = 4
?Sqrt@WWMath@@SAMM@Z PROC				; WWMath::Sqrt, COMDAT

; 311  : {

	push	ebp
	mov	ebp, esp
	sub	esp, 64					; 00000040H
	push	ebx
	push	esi
	push	edi

; 312  :     return ::sqrtf(val);

	push	ecx
	movss	xmm0, DWORD PTR _val$[ebp]
	movss	DWORD PTR [esp], xmm0
	call	_sqrtf
	add	esp, 4

; 313  : }

	pop	edi
	pop	esi
	pop	ebx
	mov	esp, ebp
	pop	ebp
	ret	0
?Sqrt@WWMath@@SAMM@Z ENDP				; WWMath::Sqrt
_TEXT	ENDS
; Function compile flags: /Odtp /ZI
; File x:\github\renegade\dragonade_rxd\scripts\wwmath.h
;	COMDAT ?Sin@WWMath@@SAMM@Z
_TEXT	SEGMENT
_val$ = 8						; size = 4
?Sin@WWMath@@SAMM@Z PROC				; WWMath::Sin, COMDAT

; 232  : {

	push	ebp
	mov	ebp, esp
	sub	esp, 64					; 00000040H
	push	ebx
	push	esi
	push	edi

; 233  :     return ::sin(val);

	push	ecx
	movss	xmm0, DWORD PTR _val$[ebp]
	movss	DWORD PTR [esp], xmm0
	call	?sin@@YAMM@Z				; sin
	add	esp, 4

; 234  : }

	pop	edi
	pop	esi
	pop	ebx
	mov	esp, ebp
	pop	ebp
	ret	0
?Sin@WWMath@@SAMM@Z ENDP				; WWMath::Sin
_TEXT	ENDS
; Function compile flags: /Odtp /ZI
; File x:\github\renegade\dragonade_rxd\scripts\wwmath.h
;	COMDAT ?Cos@WWMath@@SAMM@Z
_TEXT	SEGMENT
_val$ = 8						; size = 4
?Cos@WWMath@@SAMM@Z PROC				; WWMath::Cos, COMDAT

; 227  : {

	push	ebp
	mov	ebp, esp
	sub	esp, 64					; 00000040H
	push	ebx
	push	esi
	push	edi

; 228  :     return ::cos(val);

	push	ecx
	movss	xmm0, DWORD PTR _val$[ebp]
	movss	DWORD PTR [esp], xmm0
	call	?cos@@YAMM@Z				; cos
	add	esp, 4

; 229  : }

	pop	edi
	pop	esi
	pop	ebx
	mov	esp, ebp
	pop	ebp
	ret	0
?Cos@WWMath@@SAMM@Z ENDP				; WWMath::Cos
_TEXT	ENDS
; Function compile flags: /Odtp /ZI
; File x:\github\renegade\dragonade_rxd\scripts\wwmath.h
;	COMDAT ?Float_To_Int_Floor@WWMath@@SAHABM@Z
_TEXT	SEGMENT
tv83 = -96						; size = 4
_r$ = -28						; size = 4
_mantissa$ = -24					; size = 4
_imask$ = -20						; size = 4
_expsign$ = -16						; size = 4
_exponent$ = -12					; size = 4
_sign$ = -8						; size = 4
_a$ = -4						; size = 4
_f$ = 8							; size = 4
?Float_To_Int_Floor@WWMath@@SAHABM@Z PROC		; WWMath::Float_To_Int_Floor, COMDAT

; 326  : {

	push	ebp
	mov	ebp, esp
	sub	esp, 96					; 00000060H
	push	ebx
	push	esi
	push	edi

; 327  : 	int a = *reinterpret_cast<const int*>(&f);

	mov	eax, DWORD PTR _f$[ebp]
	mov	ecx, DWORD PTR [eax]
	mov	DWORD PTR _a$[ebp], ecx

; 328  : 	int sign = (a>>31);

	mov	eax, DWORD PTR _a$[ebp]
	sar	eax, 31					; 0000001fH
	mov	DWORD PTR _sign$[ebp], eax

; 329  : 	a&=0x7fffffff;

	mov	eax, DWORD PTR _a$[ebp]
	and	eax, 2147483647				; 7fffffffH
	mov	DWORD PTR _a$[ebp], eax

; 330  : 	int exponent = (a>>23)-127;

	mov	eax, DWORD PTR _a$[ebp]
	sar	eax, 23					; 00000017H
	sub	eax, 127				; 0000007fH
	mov	DWORD PTR _exponent$[ebp], eax

; 331  : 	int expsign	= ~(exponent>>31);

	mov	eax, DWORD PTR _exponent$[ebp]
	sar	eax, 31					; 0000001fH
	not	eax
	mov	DWORD PTR _expsign$[ebp], eax

; 332  : 	int imask = ( (1<<(31-(exponent))))-1;

	mov	ecx, 31					; 0000001fH
	sub	ecx, DWORD PTR _exponent$[ebp]
	mov	eax, 1
	shl	eax, cl
	sub	eax, 1
	mov	DWORD PTR _imask$[ebp], eax

; 333  : 	int mantissa = (a&((1<<23)-1));

	mov	eax, DWORD PTR _a$[ebp]
	and	eax, 8388607				; 007fffffH
	mov	DWORD PTR _mantissa$[ebp], eax

; 334  : 	int r = ((unsigned int)(mantissa|(1<<23))<<8)>>(31-exponent);

	mov	eax, DWORD PTR _mantissa$[ebp]
	or	eax, 8388608				; 00800000H
	shl	eax, 8
	mov	ecx, 31					; 0000001fH
	sub	ecx, DWORD PTR _exponent$[ebp]
	shr	eax, cl
	mov	DWORD PTR _r$[ebp], eax

; 335  : #pragma warning(suppress: 6290) //warning C6290: Bitwise operation on logical result: ! has higher precedence than &. Use && or (!(x & y)) instead
; 336  : 	r = ((r & expsign) ^ (sign)) + ((!((mantissa<<8)&imask)&(expsign^((a-1)>>31)))&sign);

	mov	eax, DWORD PTR _mantissa$[ebp]
	shl	eax, 8
	and	eax, DWORD PTR _imask$[ebp]
	jne	SHORT $LN3@Float_To_I
	mov	DWORD PTR tv83[ebp], 1
	jmp	SHORT $LN4@Float_To_I
$LN3@Float_To_I:
	mov	DWORD PTR tv83[ebp], 0
$LN4@Float_To_I:
	mov	ecx, DWORD PTR _r$[ebp]
	and	ecx, DWORD PTR _expsign$[ebp]
	xor	ecx, DWORD PTR _sign$[ebp]
	mov	edx, DWORD PTR _a$[ebp]
	sub	edx, 1
	sar	edx, 31					; 0000001fH
	xor	edx, DWORD PTR _expsign$[ebp]
	and	edx, DWORD PTR tv83[ebp]
	and	edx, DWORD PTR _sign$[ebp]
	add	ecx, edx
	mov	DWORD PTR _r$[ebp], ecx

; 337  : 	return r;

	mov	eax, DWORD PTR _r$[ebp]

; 338  : }

	pop	edi
	pop	esi
	pop	ebx
	mov	esp, ebp
	pop	ebp
	ret	0
?Float_To_Int_Floor@WWMath@@SAHABM@Z ENDP		; WWMath::Float_To_Int_Floor
_TEXT	ENDS
; Function compile flags: /Odtp /ZI
; File x:\github\renegade\dragonade_rxd\scripts\wwmath.h
;	COMDAT ?Float_To_Int_Chop@WWMath@@SAHABM@Z
_TEXT	SEGMENT
_r$ = -20						; size = 4
_exponent$ = -16					; size = 4
_mantissa$ = -12					; size = 4
_sign$ = -8						; size = 4
_a$ = -4						; size = 4
_f$ = 8							; size = 4
?Float_To_Int_Chop@WWMath@@SAHABM@Z PROC		; WWMath::Float_To_Int_Chop, COMDAT

; 316  : {

	push	ebp
	mov	ebp, esp
	sub	esp, 84					; 00000054H
	push	ebx
	push	esi
	push	edi

; 317  :     int a = *reinterpret_cast<const int*>(&f);

	mov	eax, DWORD PTR _f$[ebp]
	mov	ecx, DWORD PTR [eax]
	mov	DWORD PTR _a$[ebp], ecx

; 318  :     int sign = (a>>31);

	mov	eax, DWORD PTR _a$[ebp]
	sar	eax, 31					; 0000001fH
	mov	DWORD PTR _sign$[ebp], eax

; 319  :     int mantissa = (a&((1<<23)-1))|(1<<23);

	mov	eax, DWORD PTR _a$[ebp]
	and	eax, 8388607				; 007fffffH
	or	eax, 8388608				; 00800000H
	mov	DWORD PTR _mantissa$[ebp], eax

; 320  :     int exponent = ((a&0x7fffffff)>>23)-127;

	mov	eax, DWORD PTR _a$[ebp]
	and	eax, 2147483647				; 7fffffffH
	sar	eax, 23					; 00000017H
	sub	eax, 127				; 0000007fH
	mov	DWORD PTR _exponent$[ebp], eax

; 321  :     int r = ((unsigned int)(mantissa)<<8)>>(31-exponent);

	mov	eax, DWORD PTR _mantissa$[ebp]
	shl	eax, 8
	mov	ecx, 31					; 0000001fH
	sub	ecx, DWORD PTR _exponent$[ebp]
	shr	eax, cl
	mov	DWORD PTR _r$[ebp], eax

; 322  :     return ((r ^ (sign)) - sign ) &~ (exponent>>31);

	mov	eax, DWORD PTR _r$[ebp]
	xor	eax, DWORD PTR _sign$[ebp]
	sub	eax, DWORD PTR _sign$[ebp]
	mov	ecx, DWORD PTR _exponent$[ebp]
	sar	ecx, 31					; 0000001fH
	not	ecx
	and	eax, ecx

; 323  : }

	pop	edi
	pop	esi
	pop	ebx
	mov	esp, ebp
	pop	ebp
	ret	0
?Float_To_Int_Chop@WWMath@@SAHABM@Z ENDP		; WWMath::Float_To_Int_Chop
_TEXT	ENDS
; Function compile flags: /Odtp /ZI
; File x:\github\renegade\dragonade_rxd\scripts\wwmath.h
;	COMDAT ?Fabs@WWMath@@SAMM@Z
_TEXT	SEGMENT
_value$ = -4						; size = 4
_val$ = 8						; size = 4
?Fabs@WWMath@@SAMM@Z PROC				; WWMath::Fabs, COMDAT

; 57   : 	{

	push	ebp
	mov	ebp, esp
	sub	esp, 68					; 00000044H
	push	ebx
	push	esi
	push	edi

; 58   : 		int value=*(int*)&val;

	mov	eax, DWORD PTR _val$[ebp]
	mov	DWORD PTR _value$[ebp], eax

; 59   : 		value&=0x7fffffff;

	mov	eax, DWORD PTR _value$[ebp]
	and	eax, 2147483647				; 7fffffffH
	mov	DWORD PTR _value$[ebp], eax

; 60   : 		return *(float*)&value;

	fld	DWORD PTR _value$[ebp]

; 61   : 	}

	pop	edi
	pop	esi
	pop	ebx
	mov	esp, ebp
	pop	ebp
	ret	0
?Fabs@WWMath@@SAMM@Z ENDP				; WWMath::Fabs
_TEXT	ENDS
; Function compile flags: /Odtp /ZI
; File c:\program files (x86)\microsoft visual studio 11.0\vc\include\math.h
;	COMDAT ?sqrt@@YAMM@Z
_TEXT	SEGMENT
__X$ = 8						; size = 4
?sqrt@@YAMM@Z PROC					; sqrt, COMDAT

; 541  :         {return (sqrtf(_X)); }

	push	ebp
	mov	ebp, esp
	sub	esp, 64					; 00000040H
	push	ebx
	push	esi
	push	edi
	push	ecx
	movss	xmm0, DWORD PTR __X$[ebp]
	movss	DWORD PTR [esp], xmm0
	call	_sqrtf
	add	esp, 4
	pop	edi
	pop	esi
	pop	ebx
	mov	esp, ebp
	pop	ebp
	ret	0
?sqrt@@YAMM@Z ENDP					; sqrt
_TEXT	ENDS
; Function compile flags: /Odtp /ZI
; File c:\program files (x86)\microsoft visual studio 11.0\vc\include\math.h
;	COMDAT ?sin@@YAMM@Z
_TEXT	SEGMENT
__X$ = 8						; size = 4
?sin@@YAMM@Z PROC					; sin, COMDAT

; 537  :         {return (sinf(_X)); }

	push	ebp
	mov	ebp, esp
	sub	esp, 64					; 00000040H
	push	ebx
	push	esi
	push	edi
	push	ecx
	movss	xmm0, DWORD PTR __X$[ebp]
	movss	DWORD PTR [esp], xmm0
	call	_sinf
	add	esp, 4
	pop	edi
	pop	esi
	pop	ebx
	mov	esp, ebp
	pop	ebp
	ret	0
?sin@@YAMM@Z ENDP					; sin
_TEXT	ENDS
; Function compile flags: /Odtp /ZI
; File c:\program files (x86)\microsoft visual studio 11.0\vc\include\math.h
;	COMDAT ?cos@@YAMM@Z
_TEXT	SEGMENT
__X$ = 8						; size = 4
?cos@@YAMM@Z PROC					; cos, COMDAT

; 511  :         {return (cosf(_X)); }

	push	ebp
	mov	ebp, esp
	sub	esp, 64					; 00000040H
	push	ebx
	push	esi
	push	edi
	push	ecx
	movss	xmm0, DWORD PTR __X$[ebp]
	movss	DWORD PTR [esp], xmm0
	call	_cosf
	add	esp, 4
	pop	edi
	pop	esi
	pop	ebx
	mov	esp, ebp
	pop	ebp
	ret	0
?cos@@YAMM@Z ENDP					; cos
_TEXT	ENDS
; Function compile flags: /Odtp /ZI
; File c:\program files (x86)\microsoft visual studio 11.0\vc\include\math.h
;	COMDAT ?atan2@@YAMMM@Z
_TEXT	SEGMENT
__Y$ = 8						; size = 4
__X$ = 12						; size = 4
?atan2@@YAMMM@Z PROC					; atan2, COMDAT

; 507  :         {return (atan2f(_Y, _X)); }

	push	ebp
	mov	ebp, esp
	sub	esp, 64					; 00000040H
	push	ebx
	push	esi
	push	edi
	push	ecx
	movss	xmm0, DWORD PTR __X$[ebp]
	movss	DWORD PTR [esp], xmm0
	push	ecx
	movss	xmm0, DWORD PTR __Y$[ebp]
	movss	DWORD PTR [esp], xmm0
	call	_atan2f
	add	esp, 8
	pop	edi
	pop	esi
	pop	ebx
	mov	esp, ebp
	pop	ebp
	ret	0
?atan2@@YAMMM@Z ENDP					; atan2
_TEXT	ENDS
; Function compile flags: /Odtp /ZI
; File c:\program files (x86)\microsoft visual studio 11.0\vc\include\math.h
;	COMDAT ?atan@@YAMM@Z
_TEXT	SEGMENT
__X$ = 8						; size = 4
?atan@@YAMM@Z PROC					; atan, COMDAT

; 505  :         {return (atanf(_X)); }

	push	ebp
	mov	ebp, esp
	sub	esp, 64					; 00000040H
	push	ebx
	push	esi
	push	edi
	push	ecx
	movss	xmm0, DWORD PTR __X$[ebp]
	movss	DWORD PTR [esp], xmm0
	call	_atanf
	add	esp, 4
	pop	edi
	pop	esi
	pop	ebx
	mov	esp, ebp
	pop	ebp
	ret	0
?atan@@YAMM@Z ENDP					; atan
_TEXT	ENDS
; Function compile flags: /Odtp /ZI
; File c:\program files (x86)\microsoft visual studio 11.0\vc\include\math.h
;	COMDAT ?asin@@YAMM@Z
_TEXT	SEGMENT
__X$ = 8						; size = 4
?asin@@YAMM@Z PROC					; asin, COMDAT

; 503  :         {return (asinf(_X)); }

	push	ebp
	mov	ebp, esp
	sub	esp, 64					; 00000040H
	push	ebx
	push	esi
	push	edi
	push	ecx
	movss	xmm0, DWORD PTR __X$[ebp]
	movss	DWORD PTR [esp], xmm0
	call	_asinf
	add	esp, 4
	pop	edi
	pop	esi
	pop	ebx
	mov	esp, ebp
	pop	ebp
	ret	0
?asin@@YAMM@Z ENDP					; asin
_TEXT	ENDS
; Function compile flags: /Odtp /ZI
; File c:\program files (x86)\microsoft visual studio 11.0\vc\include\math.h
;	COMDAT ?acos@@YAMM@Z
_TEXT	SEGMENT
__X$ = 8						; size = 4
?acos@@YAMM@Z PROC					; acos, COMDAT

; 501  :         {return (acosf(_X)); }

	push	ebp
	mov	ebp, esp
	sub	esp, 64					; 00000040H
	push	ebx
	push	esi
	push	edi
	push	ecx
	movss	xmm0, DWORD PTR __X$[ebp]
	movss	DWORD PTR [esp], xmm0
	call	_acosf
	add	esp, 4
	pop	edi
	pop	esi
	pop	ebx
	mov	esp, ebp
	pop	ebp
	ret	0
?acos@@YAMM@Z ENDP					; acos
_TEXT	ENDS
; Function compile flags: /Odtp /ZI
; File c:\program files (x86)\microsoft visual studio 11.0\vc\include\math.h
;	COMDAT _sqrtf
_TEXT	SEGMENT
tv71 = -68						; size = 4
__X$ = 8						; size = 4
_sqrtf	PROC						; COMDAT

; 434  :         {return ((float)sqrt((double)_X)); }

	push	ebp
	mov	ebp, esp
	sub	esp, 68					; 00000044H
	push	ebx
	push	esi
	push	edi
	cvtss2sd xmm0, DWORD PTR __X$[ebp]
	call	__libm_sse2_sqrt_precise
	cvtsd2ss xmm0, xmm0
	movss	DWORD PTR tv71[ebp], xmm0
	fld	DWORD PTR tv71[ebp]
	pop	edi
	pop	esi
	pop	ebx
	mov	esp, ebp
	pop	ebp
	ret	0
_sqrtf	ENDP
_TEXT	ENDS
; Function compile flags: /Odtp /ZI
; File c:\program files (x86)\microsoft visual studio 11.0\vc\include\math.h
;	COMDAT _sinf
_TEXT	SEGMENT
tv71 = -68						; size = 4
__X$ = 8						; size = 4
_sinf	PROC						; COMDAT

; 430  :         {return ((float)sin((double)_X)); }

	push	ebp
	mov	ebp, esp
	sub	esp, 68					; 00000044H
	push	ebx
	push	esi
	push	edi
	cvtss2sd xmm0, DWORD PTR __X$[ebp]
	call	__libm_sse2_sin_precise
	cvtsd2ss xmm0, xmm0
	movss	DWORD PTR tv71[ebp], xmm0
	fld	DWORD PTR tv71[ebp]
	pop	edi
	pop	esi
	pop	ebx
	mov	esp, ebp
	pop	ebp
	ret	0
_sinf	ENDP
_TEXT	ENDS
; Function compile flags: /Odtp /ZI
; File c:\program files (x86)\microsoft visual studio 11.0\vc\include\math.h
;	COMDAT _floorf
_TEXT	SEGMENT
tv80 = -84						; size = 4
tv78 = -80						; size = 8
tv72 = -72						; size = 8
__X$ = 8						; size = 4
_floorf	PROC						; COMDAT

; 416  :         {return ((float)floor((double)_X)); }

	push	ebp
	mov	ebp, esp
	sub	esp, 84					; 00000054H
	push	ebx
	push	esi
	push	edi
	cvtss2sd xmm0, DWORD PTR __X$[ebp]
	movsd	QWORD PTR tv72[ebp], xmm0
	fld	QWORD PTR tv72[ebp]
	sub	esp, 8
	fstp	QWORD PTR [esp]
	call	_floor
	add	esp, 8
	fstp	QWORD PTR tv78[ebp]
	movsd	xmm0, QWORD PTR tv78[ebp]
	cvtsd2ss xmm0, xmm0
	movss	DWORD PTR tv80[ebp], xmm0
	fld	DWORD PTR tv80[ebp]
	pop	edi
	pop	esi
	pop	ebx
	mov	esp, ebp
	pop	ebp
	ret	0
_floorf	ENDP
_TEXT	ENDS
; Function compile flags: /Odtp /ZI
; File c:\program files (x86)\microsoft visual studio 11.0\vc\include\math.h
;	COMDAT _cosf
_TEXT	SEGMENT
tv71 = -68						; size = 4
__X$ = 8						; size = 4
_cosf	PROC						; COMDAT

; 410  :         {return ((float)cos((double)_X)); }

	push	ebp
	mov	ebp, esp
	sub	esp, 68					; 00000044H
	push	ebx
	push	esi
	push	edi
	cvtss2sd xmm0, DWORD PTR __X$[ebp]
	call	__libm_sse2_cos_precise
	cvtsd2ss xmm0, xmm0
	movss	DWORD PTR tv71[ebp], xmm0
	fld	DWORD PTR tv71[ebp]
	pop	edi
	pop	esi
	pop	ebx
	mov	esp, ebp
	pop	ebp
	ret	0
_cosf	ENDP
_TEXT	ENDS
; Function compile flags: /Odtp /ZI
; File c:\program files (x86)\microsoft visual studio 11.0\vc\include\math.h
;	COMDAT _ceilf
_TEXT	SEGMENT
tv76 = -76						; size = 4
tv74 = -72						; size = 8
__X$ = 8						; size = 4
_ceilf	PROC						; COMDAT

; 408  :         {return ((float)ceil((double)_X)); }

	push	ebp
	mov	ebp, esp
	sub	esp, 76					; 0000004cH
	push	ebx
	push	esi
	push	edi
	cvtss2sd xmm0, DWORD PTR __X$[ebp]
	sub	esp, 8
	movsd	QWORD PTR [esp], xmm0
	call	DWORD PTR __imp__ceil
	add	esp, 8
	fstp	QWORD PTR tv74[ebp]
	movsd	xmm0, QWORD PTR tv74[ebp]
	cvtsd2ss xmm0, xmm0
	movss	DWORD PTR tv76[ebp], xmm0
	fld	DWORD PTR tv76[ebp]
	pop	edi
	pop	esi
	pop	ebx
	mov	esp, ebp
	pop	ebp
	ret	0
_ceilf	ENDP
_TEXT	ENDS
; Function compile flags: /Odtp /ZI
; File c:\program files (x86)\microsoft visual studio 11.0\vc\include\math.h
;	COMDAT _atan2f
_TEXT	SEGMENT
tv85 = -92						; size = 4
tv83 = -88						; size = 8
tv77 = -80						; size = 8
tv75 = -72						; size = 8
__Y$ = 8						; size = 4
__X$ = 12						; size = 4
_atan2f	PROC						; COMDAT

; 406  :         {return ((float)atan2((double)_Y, (double)_X)); }

	push	ebp
	mov	ebp, esp
	sub	esp, 92					; 0000005cH
	push	ebx
	push	esi
	push	edi
	cvtss2sd xmm0, DWORD PTR __Y$[ebp]
	movsd	QWORD PTR tv75[ebp], xmm0
	fld	QWORD PTR tv75[ebp]
	cvtss2sd xmm0, DWORD PTR __X$[ebp]
	movsd	QWORD PTR tv77[ebp], xmm0
	fld	QWORD PTR tv77[ebp]
	call	__CIatan2
	fstp	QWORD PTR tv83[ebp]
	movsd	xmm0, QWORD PTR tv83[ebp]
	cvtsd2ss xmm0, xmm0
	movss	DWORD PTR tv85[ebp], xmm0
	fld	DWORD PTR tv85[ebp]
	pop	edi
	pop	esi
	pop	ebx
	mov	esp, ebp
	pop	ebp
	ret	0
_atan2f	ENDP
_TEXT	ENDS
; Function compile flags: /Odtp /ZI
; File c:\program files (x86)\microsoft visual studio 11.0\vc\include\math.h
;	COMDAT _atanf
_TEXT	SEGMENT
tv71 = -68						; size = 4
__X$ = 8						; size = 4
_atanf	PROC						; COMDAT

; 404  :         {return ((float)atan((double)_X)); }

	push	ebp
	mov	ebp, esp
	sub	esp, 68					; 00000044H
	push	ebx
	push	esi
	push	edi
	cvtss2sd xmm0, DWORD PTR __X$[ebp]
	call	__libm_sse2_atan_precise
	cvtsd2ss xmm0, xmm0
	movss	DWORD PTR tv71[ebp], xmm0
	fld	DWORD PTR tv71[ebp]
	pop	edi
	pop	esi
	pop	ebx
	mov	esp, ebp
	pop	ebp
	ret	0
_atanf	ENDP
_TEXT	ENDS
; Function compile flags: /Odtp /ZI
; File c:\program files (x86)\microsoft visual studio 11.0\vc\include\math.h
;	COMDAT _asinf
_TEXT	SEGMENT
tv71 = -68						; size = 4
__X$ = 8						; size = 4
_asinf	PROC						; COMDAT

; 402  :         {return ((float)asin((double)_X)); }

	push	ebp
	mov	ebp, esp
	sub	esp, 68					; 00000044H
	push	ebx
	push	esi
	push	edi
	cvtss2sd xmm0, DWORD PTR __X$[ebp]
	call	__libm_sse2_asin_precise
	cvtsd2ss xmm0, xmm0
	movss	DWORD PTR tv71[ebp], xmm0
	fld	DWORD PTR tv71[ebp]
	pop	edi
	pop	esi
	pop	ebx
	mov	esp, ebp
	pop	ebp
	ret	0
_asinf	ENDP
_TEXT	ENDS
; Function compile flags: /Odtp /ZI
; File c:\program files (x86)\microsoft visual studio 11.0\vc\include\math.h
;	COMDAT _acosf
_TEXT	SEGMENT
tv71 = -68						; size = 4
__X$ = 8						; size = 4
_acosf	PROC						; COMDAT

; 400  :         {return ((float)acos((double)_X)); }

	push	ebp
	mov	ebp, esp
	sub	esp, 68					; 00000044H
	push	ebx
	push	esi
	push	edi
	cvtss2sd xmm0, DWORD PTR __X$[ebp]
	call	__libm_sse2_acos_precise
	cvtsd2ss xmm0, xmm0
	movss	DWORD PTR tv71[ebp], xmm0
	fld	DWORD PTR tv71[ebp]
	pop	edi
	pop	esi
	pop	ebx
	mov	esp, ebp
	pop	ebp
	ret	0
_acosf	ENDP
_TEXT	ENDS
; Function compile flags: /Odtp /ZI
;	COMDAT ??_I@YGXPAXIHP6EX0@Z@Z
_TEXT	SEGMENT
___t$ = 8						; size = 4
___s$ = 12						; size = 4
___n$ = 16						; size = 4
___f$ = 20						; size = 4
??_I@YGXPAXIHP6EX0@Z@Z PROC				; `vector destructor iterator', COMDAT
	push	ebp
	mov	ebp, esp
	sub	esp, 64					; 00000040H
	push	ebx
	push	esi
	push	edi
	mov	eax, DWORD PTR ___s$[ebp]
	imul	eax, DWORD PTR ___n$[ebp]
	add	eax, DWORD PTR ___t$[ebp]
	mov	DWORD PTR ___t$[ebp], eax
$LN2@vector:
	mov	eax, DWORD PTR ___n$[ebp]
	sub	eax, 1
	mov	DWORD PTR ___n$[ebp], eax
	js	SHORT $LN3@vector
	mov	eax, DWORD PTR ___t$[ebp]
	sub	eax, DWORD PTR ___s$[ebp]
	mov	DWORD PTR ___t$[ebp], eax
	mov	ecx, DWORD PTR ___t$[ebp]
	call	DWORD PTR ___f$[ebp]
	jmp	SHORT $LN2@vector
$LN3@vector:
	pop	edi
	pop	esi
	pop	ebx
	mov	esp, ebp
	pop	ebp
	ret	16					; 00000010H
??_I@YGXPAXIHP6EX0@Z@Z ENDP				; `vector destructor iterator'
_TEXT	ENDS
END
