; Listing generated by Microsoft (R) Optimizing Compiler Version 17.00.61219.0 

	TITLE	X:\GitHub\Renegade\Dragonade_RxD\scripts\survival.cpp
	.686P
	.XMM
	include listing.inc
	.model	flat

INCLUDELIB MSVCRTD
INCLUDELIB OLDNAMES

CONST	SEGMENT
_DONT_MOVE_ARRIVED_DIST DD 0447a0000r		; 1000
CONST	ENDS
PUBLIC	??_I@YGXPAXIHP6EX0@Z@Z				; `vector destructor iterator'
PUBLIC	_acosf
PUBLIC	_asinf
PUBLIC	_atanf
PUBLIC	_atan2f
PUBLIC	_ceilf
PUBLIC	_cosf
PUBLIC	_floorf
PUBLIC	_sinf
PUBLIC	_sqrtf
PUBLIC	?acos@@YAMM@Z					; acos
PUBLIC	?asin@@YAMM@Z					; asin
PUBLIC	?atan@@YAMM@Z					; atan
PUBLIC	?atan2@@YAMMM@Z					; atan2
PUBLIC	?cos@@YAMM@Z					; cos
PUBLIC	?sin@@YAMM@Z					; sin
PUBLIC	?sqrt@@YAMM@Z					; sqrt
PUBLIC	?Fabs@WWMath@@SAMM@Z				; WWMath::Fabs
PUBLIC	?Float_To_Int_Chop@WWMath@@SAHABM@Z		; WWMath::Float_To_Int_Chop
PUBLIC	?Float_To_Int_Floor@WWMath@@SAHABM@Z		; WWMath::Float_To_Int_Floor
PUBLIC	?Cos@WWMath@@SAMM@Z				; WWMath::Cos
PUBLIC	?Sin@WWMath@@SAMM@Z				; WWMath::Sin
PUBLIC	?Sqrt@WWMath@@SAMM@Z				; WWMath::Sqrt
PUBLIC	?Inv_Sqrt@WWMath@@SIMM@Z			; WWMath::Inv_Sqrt
PUBLIC	?Float_To_Long@WWMath@@SAJM@Z			; WWMath::Float_To_Long
PUBLIC	?Fast_Sin@WWMath@@SAMM@Z			; WWMath::Fast_Sin
PUBLIC	?Fast_Inv_Sin@WWMath@@SAMM@Z			; WWMath::Fast_Inv_Sin
PUBLIC	?Fast_Cos@WWMath@@SAMM@Z			; WWMath::Fast_Cos
PUBLIC	?Fast_Inv_Cos@WWMath@@SAMM@Z			; WWMath::Fast_Inv_Cos
PUBLIC	?Fast_Acos@WWMath@@SAMM@Z			; WWMath::Fast_Acos
PUBLIC	?Fast_Asin@WWMath@@SAMM@Z			; WWMath::Fast_Asin
PUBLIC	?Acos@WWMath@@SAMM@Z				; WWMath::Acos
PUBLIC	?Asin@WWMath@@SAMM@Z				; WWMath::Asin
PUBLIC	?Atan@WWMath@@SAMM@Z				; WWMath::Atan
PUBLIC	?Atan2@WWMath@@SAMMM@Z				; WWMath::Atan2
PUBLIC	?Sign@WWMath@@SAMM@Z				; WWMath::Sign
PUBLIC	?Ceil@WWMath@@SAMM@Z				; WWMath::Ceil
PUBLIC	?Floor@WWMath@@SAMM@Z				; WWMath::Floor
PUBLIC	?Fast_Is_Float_Positive@WWMath@@SA_NABM@Z	; WWMath::Fast_Is_Float_Positive
PUBLIC	?Random_Float@WWMath@@SAMMM@Z			; WWMath::Random_Float
PUBLIC	?Clamp@WWMath@@SAMMMM@Z				; WWMath::Clamp
PUBLIC	?Clamp@WWMath@@SANNNN@Z				; WWMath::Clamp
PUBLIC	?Clamp_Int@WWMath@@SAHHHH@Z			; WWMath::Clamp_Int
PUBLIC	?Wrap@WWMath@@SAMMMM@Z				; WWMath::Wrap
PUBLIC	?Wrap@WWMath@@SANNNN@Z				; WWMath::Wrap
PUBLIC	?Min@WWMath@@SAMMM@Z				; WWMath::Min
PUBLIC	?Max@WWMath@@SAMMM@Z				; WWMath::Max
PUBLIC	?Lerp@WWMath@@SAMMMM@Z				; WWMath::Lerp
PUBLIC	?Lerp@WWMath@@SANNNM@Z				; WWMath::Lerp
PUBLIC	?Lerp@WWMath@@SAHHHM@Z				; WWMath::Lerp
PUBLIC	?Float_To_Long@WWMath@@SAJN@Z			; WWMath::Float_To_Long
PUBLIC	?Unit_Float_To_Byte@WWMath@@SAEM@Z		; WWMath::Unit_Float_To_Byte
PUBLIC	?Byte_To_Unit_Float@WWMath@@SAME@Z		; WWMath::Byte_To_Unit_Float
PUBLIC	?Is_Valid_Float@WWMath@@SA_NM@Z			; WWMath::Is_Valid_Float
PUBLIC	?Is_Valid_Double@WWMath@@SA_NN@Z		; WWMath::Is_Valid_Double
PUBLIC	??4WWMath@@QAEAAV0@ABV0@@Z			; WWMath::operator=
PUBLIC	??B?$RefArrayHelper@M$0EAA@@@QAEPAMXZ		; RefArrayHelper<float,1024>::operator float *
PUBLIC	??0Vector3@@QAE@XZ				; Vector3::Vector3
PUBLIC	??0Vector3@@QAE@MMM@Z				; Vector3::Vector3
PUBLIC	??4Vector3@@QAEAAV0@ABV0@@Z			; Vector3::operator=
PUBLIC	??0GameObjObserverClass@@QAE@XZ			; GameObjObserverClass::GameObjObserverClass
PUBLIC	??1GameObjObserverClass@@UAE@XZ			; GameObjObserverClass::~GameObjObserverClass
PUBLIC	?Set_ID@GameObjObserverClass@@QAEXH@Z		; GameObjObserverClass::Set_ID
PUBLIC	?Get_ID@GameObjObserverClass@@QAEHXZ		; GameObjObserverClass::Get_ID
PUBLIC	?Owner@GameObjObserverClass@@UAEPAVScriptableGameObj@@XZ ; GameObjObserverClass::Owner
PUBLIC	??0GameObjObserverClass@@QAE@ABV0@@Z		; GameObjObserverClass::GameObjObserverClass
PUBLIC	??4GameObjObserverClass@@QAEAAV0@ABV0@@Z	; GameObjObserverClass::operator=
PUBLIC	??_GGameObjObserverClass@@UAEPAXI@Z		; GameObjObserverClass::`scalar deleting destructor'
PUBLIC	??_EGameObjObserverClass@@UAEPAXI@Z		; GameObjObserverClass::`vector deleting destructor'
PUBLIC	??1ScriptClass@@UAE@XZ				; ScriptClass::~ScriptClass
PUBLIC	??0ScriptClass@@QAE@XZ				; ScriptClass::ScriptClass
PUBLIC	??0ScriptClass@@QAE@ABV0@@Z			; ScriptClass::ScriptClass
PUBLIC	??4ScriptClass@@QAEAAV0@ABV0@@Z			; ScriptClass::operator=
PUBLIC	??_GScriptClass@@UAEPAXI@Z			; ScriptClass::`scalar deleting destructor'
PUBLIC	??_EScriptClass@@UAEPAXI@Z			; ScriptClass::`vector deleting destructor'
PUBLIC	?SetFactory@ScriptImpClass@@QAEXPAVScriptFactory@@@Z ; ScriptImpClass::SetFactory
PUBLIC	?Created@ScriptImpClass@@UAEXPAVScriptableGameObj@@@Z ; ScriptImpClass::Created
PUBLIC	?Destroyed@ScriptImpClass@@UAEXPAVScriptableGameObj@@@Z ; ScriptImpClass::Destroyed
PUBLIC	?Killed@ScriptImpClass@@UAEXPAVScriptableGameObj@@0@Z ; ScriptImpClass::Killed
PUBLIC	?Damaged@ScriptImpClass@@UAEXPAVScriptableGameObj@@0M@Z ; ScriptImpClass::Damaged
PUBLIC	?Custom@ScriptImpClass@@UAEXPAVScriptableGameObj@@HH0@Z ; ScriptImpClass::Custom
PUBLIC	?Sound_Heard@ScriptImpClass@@UAEXPAVScriptableGameObj@@ABUCombatSound@@@Z ; ScriptImpClass::Sound_Heard
PUBLIC	?Enemy_Seen@ScriptImpClass@@UAEXPAVScriptableGameObj@@0@Z ; ScriptImpClass::Enemy_Seen
PUBLIC	?Action_Complete@ScriptImpClass@@UAEXPAVScriptableGameObj@@HW4ActionCompleteReason@@@Z ; ScriptImpClass::Action_Complete
PUBLIC	?Timer_Expired@ScriptImpClass@@UAEXPAVScriptableGameObj@@H@Z ; ScriptImpClass::Timer_Expired
PUBLIC	?Animation_Complete@ScriptImpClass@@UAEXPAVScriptableGameObj@@PBD@Z ; ScriptImpClass::Animation_Complete
PUBLIC	?Poked@ScriptImpClass@@UAEXPAVScriptableGameObj@@0@Z ; ScriptImpClass::Poked
PUBLIC	?Entered@ScriptImpClass@@UAEXPAVScriptableGameObj@@0@Z ; ScriptImpClass::Entered
PUBLIC	?Exited@ScriptImpClass@@UAEXPAVScriptableGameObj@@0@Z ; ScriptImpClass::Exited
PUBLIC	?Owner@ScriptImpClass@@UAEPAVScriptableGameObj@@XZ ; ScriptImpClass::Owner
PUBLIC	?Get_Owner_Ptr@ScriptImpClass@@UAEPAPAVScriptableGameObj@@XZ ; ScriptImpClass::Get_Owner_Ptr
PUBLIC	?Save_Data@ScriptImpClass@@UAEXAAVScriptSaver@@@Z ; ScriptImpClass::Save_Data
PUBLIC	?Load_Data@ScriptImpClass@@UAEXAAVScriptLoader@@@Z ; ScriptImpClass::Load_Data
PUBLIC	?Register_Auto_Save_Variables@ScriptImpClass@@UAEXXZ ; ScriptImpClass::Register_Auto_Save_Variables
PUBLIC	?Get_Parameter_Count@ScriptImpClass@@QAEHXZ	; ScriptImpClass::Get_Parameter_Count
PUBLIC	?Get_Int_Parameter@ScriptImpClass@@QAEHH@Z	; ScriptImpClass::Get_Int_Parameter
PUBLIC	?Get_Float_Parameter@ScriptImpClass@@QAEMH@Z	; ScriptImpClass::Get_Float_Parameter
PUBLIC	?Get_Bool_Parameter@ScriptImpClass@@QAE_NPBD@Z	; ScriptImpClass::Get_Bool_Parameter
PUBLIC	?Get_Bool_Parameter@ScriptImpClass@@QAE_NH@Z	; ScriptImpClass::Get_Bool_Parameter
PUBLIC	??0ScriptImpClass@@QAE@ABV0@@Z			; ScriptImpClass::ScriptImpClass
PUBLIC	??4ScriptImpClass@@QAEAAV0@ABV0@@Z		; ScriptImpClass::operator=
PUBLIC	??_GScriptImpClass@@UAEPAXI@Z			; ScriptImpClass::`scalar deleting destructor'
PUBLIC	??_EScriptImpClass@@UAEPAXI@Z			; ScriptImpClass::`vector deleting destructor'
PUBLIC	??0ActionParamsStruct@@QAE@XZ			; ActionParamsStruct::ActionParamsStruct
PUBLIC	?Set_Basic@ActionParamsStruct@@QAEXPAVGameObjObserverClass@@MHW4SoldierAIState@@@Z ; ActionParamsStruct::Set_Basic
PUBLIC	?Set_Movement@ActionParamsStruct@@QAEXABVVector3@@MM_N@Z ; ActionParamsStruct::Set_Movement
PUBLIC	?Set_Attack@ActionParamsStruct@@QAEXPAVScriptableGameObj@@MM_N@Z ; ActionParamsStruct::Set_Attack
PUBLIC	??0ScriptFactory@@QAE@ABV0@@Z			; ScriptFactory::ScriptFactory
PUBLIC	??4ScriptFactory@@QAEAAV0@ABV0@@Z		; ScriptFactory::operator=
PUBLIC	??_GScriptFactory@@UAEPAXI@Z			; ScriptFactory::`scalar deleting destructor'
PUBLIC	??_EScriptFactory@@UAEPAXI@Z			; ScriptFactory::`vector deleting destructor'
PUBLIC	??4ScriptRegistrar@@QAEAAV0@ABV0@@Z		; ScriptRegistrar::operator=
PUBLIC	?Created@SUR_Spawn_Delay@@EAEXPAVScriptableGameObj@@@Z ; SUR_Spawn_Delay::Created
PUBLIC	?Timer_Expired@SUR_Spawn_Delay@@EAEXPAVScriptableGameObj@@H@Z ; SUR_Spawn_Delay::Timer_Expired
PUBLIC	??0SUR_Spawn_Delay@@QAE@XZ			; SUR_Spawn_Delay::SUR_Spawn_Delay
PUBLIC	??1SUR_Spawn_Delay@@UAE@XZ			; SUR_Spawn_Delay::~SUR_Spawn_Delay
PUBLIC	??_GSUR_Spawn_Delay@@UAEPAXI@Z			; SUR_Spawn_Delay::`scalar deleting destructor'
PUBLIC	?Created@SUR_Generator_Zone@@EAEXPAVScriptableGameObj@@@Z ; SUR_Generator_Zone::Created
PUBLIC	?Timer_Expired@SUR_Generator_Zone@@EAEXPAVScriptableGameObj@@H@Z ; SUR_Generator_Zone::Timer_Expired
PUBLIC	?Entered@SUR_Generator_Zone@@EAEXPAVScriptableGameObj@@0@Z ; SUR_Generator_Zone::Entered
PUBLIC	?Register_Auto_Save_Variables@SUR_Generator_Zone@@UAEXXZ ; SUR_Generator_Zone::Register_Auto_Save_Variables
PUBLIC	??0SUR_Generator_Zone@@QAE@XZ			; SUR_Generator_Zone::SUR_Generator_Zone
PUBLIC	??1SUR_Generator_Zone@@UAE@XZ			; SUR_Generator_Zone::~SUR_Generator_Zone
PUBLIC	??_GSUR_Generator_Zone@@UAEPAXI@Z		; SUR_Generator_Zone::`scalar deleting destructor'
PUBLIC	?Created@SUR_MiniGen@@EAEXPAVScriptableGameObj@@@Z ; SUR_MiniGen::Created
PUBLIC	?Timer_Expired@SUR_MiniGen@@EAEXPAVScriptableGameObj@@H@Z ; SUR_MiniGen::Timer_Expired
PUBLIC	?Killed@SUR_MiniGen@@EAEXPAVScriptableGameObj@@0@Z ; SUR_MiniGen::Killed
PUBLIC	??0SUR_MiniGen@@QAE@XZ				; SUR_MiniGen::SUR_MiniGen
PUBLIC	??1SUR_MiniGen@@UAE@XZ				; SUR_MiniGen::~SUR_MiniGen
PUBLIC	??_GSUR_MiniGen@@UAEPAXI@Z			; SUR_MiniGen::`scalar deleting destructor'
PUBLIC	?Created@SUR_NHB@@EAEXPAVScriptableGameObj@@@Z	; SUR_NHB::Created
PUBLIC	?Custom@SUR_NHB@@EAEXPAVScriptableGameObj@@HH0@Z ; SUR_NHB::Custom
PUBLIC	?Register_Auto_Save_Variables@SUR_NHB@@UAEXXZ	; SUR_NHB::Register_Auto_Save_Variables
PUBLIC	??0SUR_NHB@@QAE@XZ				; SUR_NHB::SUR_NHB
PUBLIC	??1SUR_NHB@@UAE@XZ				; SUR_NHB::~SUR_NHB
PUBLIC	??_GSUR_NHB@@UAEPAXI@Z				; SUR_NHB::`scalar deleting destructor'
PUBLIC	?Created@SUR_NHB_Soldier@@EAEXPAVScriptableGameObj@@@Z ; SUR_NHB_Soldier::Created
PUBLIC	?Custom@SUR_NHB_Soldier@@EAEXPAVScriptableGameObj@@HH0@Z ; SUR_NHB_Soldier::Custom
PUBLIC	?Killed@SUR_NHB_Soldier@@EAEXPAVScriptableGameObj@@0@Z ; SUR_NHB_Soldier::Killed
PUBLIC	?Timer_Expired@SUR_NHB_Soldier@@EAEXPAVScriptableGameObj@@H@Z ; SUR_NHB_Soldier::Timer_Expired
PUBLIC	?Register_Auto_Save_Variables@SUR_NHB_Soldier@@UAEXXZ ; SUR_NHB_Soldier::Register_Auto_Save_Variables
PUBLIC	??0SUR_NHB_Soldier@@QAE@XZ			; SUR_NHB_Soldier::SUR_NHB_Soldier
PUBLIC	??1SUR_NHB_Soldier@@UAE@XZ			; SUR_NHB_Soldier::~SUR_NHB_Soldier
PUBLIC	??_GSUR_NHB_Soldier@@UAEPAXI@Z			; SUR_NHB_Soldier::`scalar deleting destructor'
PUBLIC	?Death@SUR_Obj_Destroyer@@AAEXPAVScriptableGameObj@@0@Z ; SUR_Obj_Destroyer::Death
PUBLIC	??0SUR_Obj_Destroyer@@QAE@XZ			; SUR_Obj_Destroyer::SUR_Obj_Destroyer
PUBLIC	??1SUR_Obj_Destroyer@@UAE@XZ			; SUR_Obj_Destroyer::~SUR_Obj_Destroyer
PUBLIC	??_GSUR_Obj_Destroyer@@UAEPAXI@Z		; SUR_Obj_Destroyer::`scalar deleting destructor'
PUBLIC	?Custom@SUR_New_PT@@EAEXPAVScriptableGameObj@@HH0@Z ; SUR_New_PT::Custom
PUBLIC	??0SUR_New_PT@@QAE@XZ				; SUR_New_PT::SUR_New_PT
PUBLIC	??1SUR_New_PT@@UAE@XZ				; SUR_New_PT::~SUR_New_PT
PUBLIC	??_GSUR_New_PT@@UAEPAXI@Z			; SUR_New_PT::`scalar deleting destructor'
PUBLIC	?Custom@SUR_New_PT_Reciever@@EAEXPAVScriptableGameObj@@HH0@Z ; SUR_New_PT_Reciever::Custom
PUBLIC	??0SUR_New_PT_Reciever@@QAE@XZ			; SUR_New_PT_Reciever::SUR_New_PT_Reciever
PUBLIC	??1SUR_New_PT_Reciever@@UAE@XZ			; SUR_New_PT_Reciever::~SUR_New_PT_Reciever
PUBLIC	??_GSUR_New_PT_Reciever@@UAEPAXI@Z		; SUR_New_PT_Reciever::`scalar deleting destructor'
PUBLIC	?Created@SUR_APC_AI@@EAEXPAVScriptableGameObj@@@Z ; SUR_APC_AI::Created
PUBLIC	?Custom@SUR_APC_AI@@EAEXPAVScriptableGameObj@@HH0@Z ; SUR_APC_AI::Custom
PUBLIC	?Register_Auto_Save_Variables@SUR_APC_AI@@UAEXXZ ; SUR_APC_AI::Register_Auto_Save_Variables
PUBLIC	??0SUR_APC_AI@@QAE@XZ				; SUR_APC_AI::SUR_APC_AI
PUBLIC	??1SUR_APC_AI@@UAE@XZ				; SUR_APC_AI::~SUR_APC_AI
PUBLIC	??_GSUR_APC_AI@@UAEPAXI@Z			; SUR_APC_AI::`scalar deleting destructor'
PUBLIC	?Created@SUR_Orca_AI@@EAEXPAVScriptableGameObj@@@Z ; SUR_Orca_AI::Created
PUBLIC	?Death@SUR_Orca_AI@@AAEXPAVScriptableGameObj@@0@Z ; SUR_Orca_AI::Death
PUBLIC	?Custom@SUR_Orca_AI@@EAEXPAVScriptableGameObj@@HH0@Z ; SUR_Orca_AI::Custom
PUBLIC	?Action_Complete@SUR_Orca_AI@@EAEXPAVScriptableGameObj@@HW4ActionCompleteReason@@@Z ; SUR_Orca_AI::Action_Complete
PUBLIC	??0SUR_Orca_AI@@QAE@XZ				; SUR_Orca_AI::SUR_Orca_AI
PUBLIC	??1SUR_Orca_AI@@UAE@XZ				; SUR_Orca_AI::~SUR_Orca_AI
PUBLIC	??_GSUR_Orca_AI@@UAEPAXI@Z			; SUR_Orca_AI::`scalar deleting destructor'
PUBLIC	?Custom@SUR_Chinook_AI@@EAEXPAVScriptableGameObj@@HH0@Z ; SUR_Chinook_AI::Custom
PUBLIC	??0SUR_Chinook_AI@@QAE@XZ			; SUR_Chinook_AI::SUR_Chinook_AI
PUBLIC	??1SUR_Chinook_AI@@UAE@XZ			; SUR_Chinook_AI::~SUR_Chinook_AI
PUBLIC	??_GSUR_Chinook_AI@@UAEPAXI@Z			; SUR_Chinook_AI::`scalar deleting destructor'
PUBLIC	?Created@SUR_Dep_Turret@@EAEXPAVScriptableGameObj@@@Z ; SUR_Dep_Turret::Created
PUBLIC	?EnemySeen@SUR_Dep_Turret@@AAEXPAVScriptableGameObj@@0@Z ; SUR_Dep_Turret::EnemySeen
PUBLIC	?Action_Complete@SUR_Dep_Turret@@EAEXPAVScriptableGameObj@@HW4ActionCompleteReason@@@Z ; SUR_Dep_Turret::Action_Complete
PUBLIC	?Timer_Expired@SUR_Dep_Turret@@EAEXPAVScriptableGameObj@@H@Z ; SUR_Dep_Turret::Timer_Expired
PUBLIC	?Register_Auto_Save_Variables@SUR_Dep_Turret@@UAEXXZ ; SUR_Dep_Turret::Register_Auto_Save_Variables
PUBLIC	??0SUR_Dep_Turret@@QAE@XZ			; SUR_Dep_Turret::SUR_Dep_Turret
PUBLIC	??1SUR_Dep_Turret@@UAE@XZ			; SUR_Dep_Turret::~SUR_Dep_Turret
PUBLIC	??_GSUR_Dep_Turret@@UAEPAXI@Z			; SUR_Dep_Turret::`scalar deleting destructor'
PUBLIC	?Created@SUR_Timed_Death@@EAEXPAVScriptableGameObj@@@Z ; SUR_Timed_Death::Created
PUBLIC	?Timer_Expired@SUR_Timed_Death@@EAEXPAVScriptableGameObj@@H@Z ; SUR_Timed_Death::Timer_Expired
PUBLIC	??0SUR_Timed_Death@@QAE@XZ			; SUR_Timed_Death::SUR_Timed_Death
PUBLIC	??1SUR_Timed_Death@@UAE@XZ			; SUR_Timed_Death::~SUR_Timed_Death
PUBLIC	??_GSUR_Timed_Death@@UAEPAXI@Z			; SUR_Timed_Death::`scalar deleting destructor'
PUBLIC	?Entered@SUR_GrantPowerup_OnEntry@@EAEXPAVScriptableGameObj@@0@Z ; SUR_GrantPowerup_OnEntry::Entered
PUBLIC	??0SUR_GrantPowerup_OnEntry@@QAE@XZ		; SUR_GrantPowerup_OnEntry::SUR_GrantPowerup_OnEntry
PUBLIC	??1SUR_GrantPowerup_OnEntry@@UAE@XZ		; SUR_GrantPowerup_OnEntry::~SUR_GrantPowerup_OnEntry
PUBLIC	??_GSUR_GrantPowerup_OnEntry@@UAEPAXI@Z		; SUR_GrantPowerup_OnEntry::`scalar deleting destructor'
PUBLIC	??0?$ScriptRegistrant@VSUR_Spawn_Delay@@@@QAE@PBD0@Z ; ScriptRegistrant<SUR_Spawn_Delay>::ScriptRegistrant<SUR_Spawn_Delay>
PUBLIC	?Create@?$ScriptRegistrant@VSUR_Spawn_Delay@@@@UAEPAVScriptImpClass@@XZ ; ScriptRegistrant<SUR_Spawn_Delay>::Create
PUBLIC	??1?$ScriptRegistrant@VSUR_Spawn_Delay@@@@UAE@XZ ; ScriptRegistrant<SUR_Spawn_Delay>::~ScriptRegistrant<SUR_Spawn_Delay>
PUBLIC	??_G?$ScriptRegistrant@VSUR_Spawn_Delay@@@@UAEPAXI@Z ; ScriptRegistrant<SUR_Spawn_Delay>::`scalar deleting destructor'
PUBLIC	??0?$ScriptRegistrant@VSUR_Generator_Zone@@@@QAE@PBD0@Z ; ScriptRegistrant<SUR_Generator_Zone>::ScriptRegistrant<SUR_Generator_Zone>
PUBLIC	?Create@?$ScriptRegistrant@VSUR_Generator_Zone@@@@UAEPAVScriptImpClass@@XZ ; ScriptRegistrant<SUR_Generator_Zone>::Create
PUBLIC	??1?$ScriptRegistrant@VSUR_Generator_Zone@@@@UAE@XZ ; ScriptRegistrant<SUR_Generator_Zone>::~ScriptRegistrant<SUR_Generator_Zone>
PUBLIC	??_G?$ScriptRegistrant@VSUR_Generator_Zone@@@@UAEPAXI@Z ; ScriptRegistrant<SUR_Generator_Zone>::`scalar deleting destructor'
PUBLIC	??0?$ScriptRegistrant@VSUR_MiniGen@@@@QAE@PBD0@Z ; ScriptRegistrant<SUR_MiniGen>::ScriptRegistrant<SUR_MiniGen>
PUBLIC	?Create@?$ScriptRegistrant@VSUR_MiniGen@@@@UAEPAVScriptImpClass@@XZ ; ScriptRegistrant<SUR_MiniGen>::Create
PUBLIC	??1?$ScriptRegistrant@VSUR_MiniGen@@@@UAE@XZ	; ScriptRegistrant<SUR_MiniGen>::~ScriptRegistrant<SUR_MiniGen>
PUBLIC	??_G?$ScriptRegistrant@VSUR_MiniGen@@@@UAEPAXI@Z ; ScriptRegistrant<SUR_MiniGen>::`scalar deleting destructor'
PUBLIC	??0?$ScriptRegistrant@VSUR_NHB@@@@QAE@PBD0@Z	; ScriptRegistrant<SUR_NHB>::ScriptRegistrant<SUR_NHB>
PUBLIC	?Create@?$ScriptRegistrant@VSUR_NHB@@@@UAEPAVScriptImpClass@@XZ ; ScriptRegistrant<SUR_NHB>::Create
PUBLIC	??1?$ScriptRegistrant@VSUR_NHB@@@@UAE@XZ	; ScriptRegistrant<SUR_NHB>::~ScriptRegistrant<SUR_NHB>
PUBLIC	??_G?$ScriptRegistrant@VSUR_NHB@@@@UAEPAXI@Z	; ScriptRegistrant<SUR_NHB>::`scalar deleting destructor'
PUBLIC	??0?$ScriptRegistrant@VSUR_NHB_Soldier@@@@QAE@PBD0@Z ; ScriptRegistrant<SUR_NHB_Soldier>::ScriptRegistrant<SUR_NHB_Soldier>
PUBLIC	?Create@?$ScriptRegistrant@VSUR_NHB_Soldier@@@@UAEPAVScriptImpClass@@XZ ; ScriptRegistrant<SUR_NHB_Soldier>::Create
PUBLIC	??1?$ScriptRegistrant@VSUR_NHB_Soldier@@@@UAE@XZ ; ScriptRegistrant<SUR_NHB_Soldier>::~ScriptRegistrant<SUR_NHB_Soldier>
PUBLIC	??_G?$ScriptRegistrant@VSUR_NHB_Soldier@@@@UAEPAXI@Z ; ScriptRegistrant<SUR_NHB_Soldier>::`scalar deleting destructor'
PUBLIC	??0?$ScriptRegistrant@VSUR_Obj_Destroyer@@@@QAE@PBD0@Z ; ScriptRegistrant<SUR_Obj_Destroyer>::ScriptRegistrant<SUR_Obj_Destroyer>
PUBLIC	?Create@?$ScriptRegistrant@VSUR_Obj_Destroyer@@@@UAEPAVScriptImpClass@@XZ ; ScriptRegistrant<SUR_Obj_Destroyer>::Create
PUBLIC	??1?$ScriptRegistrant@VSUR_Obj_Destroyer@@@@UAE@XZ ; ScriptRegistrant<SUR_Obj_Destroyer>::~ScriptRegistrant<SUR_Obj_Destroyer>
PUBLIC	??_G?$ScriptRegistrant@VSUR_Obj_Destroyer@@@@UAEPAXI@Z ; ScriptRegistrant<SUR_Obj_Destroyer>::`scalar deleting destructor'
PUBLIC	??0?$ScriptRegistrant@VSUR_New_PT@@@@QAE@PBD0@Z	; ScriptRegistrant<SUR_New_PT>::ScriptRegistrant<SUR_New_PT>
PUBLIC	?Create@?$ScriptRegistrant@VSUR_New_PT@@@@UAEPAVScriptImpClass@@XZ ; ScriptRegistrant<SUR_New_PT>::Create
PUBLIC	??1?$ScriptRegistrant@VSUR_New_PT@@@@UAE@XZ	; ScriptRegistrant<SUR_New_PT>::~ScriptRegistrant<SUR_New_PT>
PUBLIC	??_G?$ScriptRegistrant@VSUR_New_PT@@@@UAEPAXI@Z	; ScriptRegistrant<SUR_New_PT>::`scalar deleting destructor'
PUBLIC	??0?$ScriptRegistrant@VSUR_New_PT_Reciever@@@@QAE@PBD0@Z ; ScriptRegistrant<SUR_New_PT_Reciever>::ScriptRegistrant<SUR_New_PT_Reciever>
PUBLIC	?Create@?$ScriptRegistrant@VSUR_New_PT_Reciever@@@@UAEPAVScriptImpClass@@XZ ; ScriptRegistrant<SUR_New_PT_Reciever>::Create
PUBLIC	??1?$ScriptRegistrant@VSUR_New_PT_Reciever@@@@UAE@XZ ; ScriptRegistrant<SUR_New_PT_Reciever>::~ScriptRegistrant<SUR_New_PT_Reciever>
PUBLIC	??_G?$ScriptRegistrant@VSUR_New_PT_Reciever@@@@UAEPAXI@Z ; ScriptRegistrant<SUR_New_PT_Reciever>::`scalar deleting destructor'
PUBLIC	??0?$ScriptRegistrant@VSUR_APC_AI@@@@QAE@PBD0@Z	; ScriptRegistrant<SUR_APC_AI>::ScriptRegistrant<SUR_APC_AI>
PUBLIC	?Create@?$ScriptRegistrant@VSUR_APC_AI@@@@UAEPAVScriptImpClass@@XZ ; ScriptRegistrant<SUR_APC_AI>::Create
PUBLIC	??1?$ScriptRegistrant@VSUR_APC_AI@@@@UAE@XZ	; ScriptRegistrant<SUR_APC_AI>::~ScriptRegistrant<SUR_APC_AI>
PUBLIC	??_G?$ScriptRegistrant@VSUR_APC_AI@@@@UAEPAXI@Z	; ScriptRegistrant<SUR_APC_AI>::`scalar deleting destructor'
PUBLIC	??0?$ScriptRegistrant@VSUR_Orca_AI@@@@QAE@PBD0@Z ; ScriptRegistrant<SUR_Orca_AI>::ScriptRegistrant<SUR_Orca_AI>
PUBLIC	?Create@?$ScriptRegistrant@VSUR_Orca_AI@@@@UAEPAVScriptImpClass@@XZ ; ScriptRegistrant<SUR_Orca_AI>::Create
PUBLIC	??1?$ScriptRegistrant@VSUR_Orca_AI@@@@UAE@XZ	; ScriptRegistrant<SUR_Orca_AI>::~ScriptRegistrant<SUR_Orca_AI>
PUBLIC	??_G?$ScriptRegistrant@VSUR_Orca_AI@@@@UAEPAXI@Z ; ScriptRegistrant<SUR_Orca_AI>::`scalar deleting destructor'
PUBLIC	??0?$ScriptRegistrant@VSUR_Chinook_AI@@@@QAE@PBD0@Z ; ScriptRegistrant<SUR_Chinook_AI>::ScriptRegistrant<SUR_Chinook_AI>
PUBLIC	?Create@?$ScriptRegistrant@VSUR_Chinook_AI@@@@UAEPAVScriptImpClass@@XZ ; ScriptRegistrant<SUR_Chinook_AI>::Create
PUBLIC	??1?$ScriptRegistrant@VSUR_Chinook_AI@@@@UAE@XZ	; ScriptRegistrant<SUR_Chinook_AI>::~ScriptRegistrant<SUR_Chinook_AI>
PUBLIC	??_G?$ScriptRegistrant@VSUR_Chinook_AI@@@@UAEPAXI@Z ; ScriptRegistrant<SUR_Chinook_AI>::`scalar deleting destructor'
PUBLIC	??0?$ScriptRegistrant@VSUR_Dep_Turret@@@@QAE@PBD0@Z ; ScriptRegistrant<SUR_Dep_Turret>::ScriptRegistrant<SUR_Dep_Turret>
PUBLIC	?Create@?$ScriptRegistrant@VSUR_Dep_Turret@@@@UAEPAVScriptImpClass@@XZ ; ScriptRegistrant<SUR_Dep_Turret>::Create
PUBLIC	??1?$ScriptRegistrant@VSUR_Dep_Turret@@@@UAE@XZ	; ScriptRegistrant<SUR_Dep_Turret>::~ScriptRegistrant<SUR_Dep_Turret>
PUBLIC	??_G?$ScriptRegistrant@VSUR_Dep_Turret@@@@UAEPAXI@Z ; ScriptRegistrant<SUR_Dep_Turret>::`scalar deleting destructor'
PUBLIC	??0?$ScriptRegistrant@VSUR_Timed_Death@@@@QAE@PBD0@Z ; ScriptRegistrant<SUR_Timed_Death>::ScriptRegistrant<SUR_Timed_Death>
PUBLIC	?Create@?$ScriptRegistrant@VSUR_Timed_Death@@@@UAEPAVScriptImpClass@@XZ ; ScriptRegistrant<SUR_Timed_Death>::Create
PUBLIC	??1?$ScriptRegistrant@VSUR_Timed_Death@@@@UAE@XZ ; ScriptRegistrant<SUR_Timed_Death>::~ScriptRegistrant<SUR_Timed_Death>
PUBLIC	??_G?$ScriptRegistrant@VSUR_Timed_Death@@@@UAEPAXI@Z ; ScriptRegistrant<SUR_Timed_Death>::`scalar deleting destructor'
PUBLIC	??0?$ScriptRegistrant@VSUR_GrantPowerup_OnEntry@@@@QAE@PBD0@Z ; ScriptRegistrant<SUR_GrantPowerup_OnEntry>::ScriptRegistrant<SUR_GrantPowerup_OnEntry>
PUBLIC	?Create@?$ScriptRegistrant@VSUR_GrantPowerup_OnEntry@@@@UAEPAVScriptImpClass@@XZ ; ScriptRegistrant<SUR_GrantPowerup_OnEntry>::Create
PUBLIC	??1?$ScriptRegistrant@VSUR_GrantPowerup_OnEntry@@@@UAE@XZ ; ScriptRegistrant<SUR_GrantPowerup_OnEntry>::~ScriptRegistrant<SUR_GrantPowerup_OnEntry>
PUBLIC	??_G?$ScriptRegistrant@VSUR_GrantPowerup_OnEntry@@@@UAEPAXI@Z ; ScriptRegistrant<SUR_GrantPowerup_OnEntry>::`scalar deleting destructor'
PUBLIC	??_7GameObjObserverClass@@6B@			; GameObjObserverClass::`vftable'
PUBLIC	??_7ScriptClass@@6B@				; ScriptClass::`vftable'
PUBLIC	??_7ScriptImpClass@@6B@				; ScriptImpClass::`vftable'
PUBLIC	??_7ScriptFactory@@6B@				; ScriptFactory::`vftable'
PUBLIC	??_7SUR_Spawn_Delay@@6B@			; SUR_Spawn_Delay::`vftable'
PUBLIC	??_7SUR_Generator_Zone@@6B@			; SUR_Generator_Zone::`vftable'
PUBLIC	??_7SUR_MiniGen@@6B@				; SUR_MiniGen::`vftable'
PUBLIC	??_7SUR_NHB@@6B@				; SUR_NHB::`vftable'
PUBLIC	??_7SUR_NHB_Soldier@@6B@			; SUR_NHB_Soldier::`vftable'
PUBLIC	??_7SUR_Obj_Destroyer@@6B@			; SUR_Obj_Destroyer::`vftable'
PUBLIC	??_7SUR_New_PT@@6B@				; SUR_New_PT::`vftable'
PUBLIC	??_7SUR_New_PT_Reciever@@6B@			; SUR_New_PT_Reciever::`vftable'
PUBLIC	??_7SUR_APC_AI@@6B@				; SUR_APC_AI::`vftable'
PUBLIC	??_7SUR_Orca_AI@@6B@				; SUR_Orca_AI::`vftable'
PUBLIC	??_7SUR_Chinook_AI@@6B@				; SUR_Chinook_AI::`vftable'
PUBLIC	??_7SUR_Dep_Turret@@6B@				; SUR_Dep_Turret::`vftable'
PUBLIC	??_7SUR_Timed_Death@@6B@			; SUR_Timed_Death::`vftable'
PUBLIC	??_7SUR_GrantPowerup_OnEntry@@6B@		; SUR_GrantPowerup_OnEntry::`vftable'
PUBLIC	??_C@_0M@IIPFJCEO@Spawn_Delay?$AA@		; `string'
PUBLIC	??_C@_09IPFCLICN@Spawn_Pos?$AA@			; `string'
PUBLIC	??_C@_09BEPAMFKP@Spawn_Obj?$AA@			; `string'
PUBLIC	??_C@_07PCHJBECB@Do_Path?$AA@			; `string'
PUBLIC	??_C@_0L@NOEIONE@Spawn_Path?$AA@		; `string'
PUBLIC	??_C@_0M@LGLODOFO@Emitter_Pos?$AA@		; `string'
PUBLIC	??_C@_0L@JCFEAFCJ@Time_Delay?$AA@		; `string'
PUBLIC	??_C@_0BE@DHDDJGEO@Emitter_Preset_Good?$AA@	; `string'
PUBLIC	??_C@_09IGNDJJLI@Explosive?$AA@			; `string'
PUBLIC	??_C@_0M@IPKOBAPD@BlamoKiller?$AA@		; `string'
PUBLIC	??_C@_0BE@FAAIECIN@Supply_Truck_Preset?$AA@	; `string'
PUBLIC	??_C@_07CIHEJGNA@GDI_Gen?$AA@			; `string'
PUBLIC	??_C@_06JMPBJGL@Taunt1?$AA@			; `string'
PUBLIC	??_C@_06CCOCEKKI@Taunt2?$AA@			; `string'
PUBLIC	??_C@_0N@MEOOIIPD@Orca_Warning?$AA@		; `string'
PUBLIC	??_C@_0O@BHFGBELH@Strike_Preset?$AA@		; `string'
PUBLIC	??_C@_0BH@KNCKPPOI@Orca?5Strike?5Controller?$AA@ ; `string'
PUBLIC	??_C@_07EBLDPGHF@Nod_Gen?$AA@			; `string'
PUBLIC	??_C@_06MPKPIODH@NHB_ID?$AA@			; `string'
PUBLIC	??_C@_0O@CECAAJLK@VPad_Path_End?$AA@		; `string'
PUBLIC	??_C@_0BA@LDNBEEON@VPad_Path_Start?$AA@		; `string'
PUBLIC	??_C@_09BBICMIP@VPad_Path?$AA@			; `string'
PUBLIC	??_C@_08GDAMKODC@?$CFd?0?$CFd?0?$CFd?$AA@	; `string'
PUBLIC	??_C@_0BI@DOGKPAOM@PDS_Test_Follow_Waypath?$AA@	; `string'
PUBLIC	??_C@_0N@BHAKOLCG@HeliPath_End?$AA@		; `string'
PUBLIC	??_C@_0P@CACBDBIF@HeliPath_Start?$AA@		; `string'
PUBLIC	??_C@_08MCAPOCBM@HeliPath?$AA@			; `string'
PUBLIC	??_C@_0BA@GDAPPOGH@NodGen_Path_End?$AA@		; `string'
PUBLIC	??_C@_0BC@KEJONPCP@NodGen_Path_Start?$AA@	; `string'
PUBLIC	??_C@_0M@HKEKIIP@NodGen_Path?$AA@		; `string'
PUBLIC	??_C@_0BA@JCNLGAFK@GDIGen_Path_End?$AA@		; `string'
PUBLIC	??_C@_0BC@NJMBNIAG@GDIGen_Path_Start?$AA@	; `string'
PUBLIC	??_C@_0M@IFBDBCON@GDIGen_Path?$AA@		; `string'
PUBLIC	??_C@_09MMNKHPCG@NodGen_ID?$AA@			; `string'
PUBLIC	??_C@_09FCBIDPBF@GDIGen_ID?$AA@			; `string'
PUBLIC	??_C@_0BM@OMFOHCFP@CnC_Weapon_MineTimed_Player?$AA@ ; `string'
PUBLIC	??_C@_02OLOABKKD@ID?$AA@			; `string'
PUBLIC	??_C@_07BEIHKDLJ@Message?$AA@			; `string'
PUBLIC	??_C@_09PIPGAOHA@Marker_ID?$AA@			; `string'
PUBLIC	??_C@_05KABNCBHK@?$CFd?0?$CFd?$AA@		; `string'
PUBLIC	??_C@_0L@NMEBDFKG@SUR_New_PT?$AA@		; `string'
PUBLIC	??_C@_0M@KBNHOJJA@Preset_Name?$AA@		; `string'
PUBLIC	??_C@_0BB@JLAIOFF@Preset_To_Create?$AA@		; `string'
PUBLIC	??_C@_08LFMFPFKM@0?0300?010?$AA@		; `string'
PUBLIC	??_C@_0BB@LNLDLMKA@JFW_Base_Defense?$AA@	; `string'
PUBLIC	??_C@_0O@FABAOFMP@Attack_Offset?$AA@		; `string'
PUBLIC	??_C@_0BA@OAAEJLHO@Position_Offset?$AA@		; `string'
PUBLIC	??_C@_0BB@NHJNEILC@Invisible_Object?$AA@	; `string'
PUBLIC	??_C@_0BC@FPEDNKGK@MinAttackDistance?$AA@	; `string'
PUBLIC	??_C@_0BC@MOFMCIO@MaxAttackDistance?$AA@	; `string'
PUBLIC	??_C@_0M@JLBMIOIA@AttackTimer?$AA@		; `string'
PUBLIC	??_C@_05ENDOMFAI@Delay?$AA@			; `string'
PUBLIC	??_C@_0M@CALDOHKN@Damage_Type?$AA@		; `string'
PUBLIC	??_C@_0O@DDNFGLDM@Damage_Amount?$AA@		; `string'
PUBLIC	??_C@_06CKLLCHIK@Preset?$AA@			; `string'
PUBLIC	??_C@_03EBKHDLCO@Any?$AA@			; `string'
PUBLIC	??_C@_07EJMDJBEC@Powerup?$AA@			; `string'
PUBLIC	??_7?$ScriptRegistrant@VSUR_Spawn_Delay@@@@6B@	; ScriptRegistrant<SUR_Spawn_Delay>::`vftable'
PUBLIC	?SUR_Spawn_Delay_Registrant@@3V?$ScriptRegistrant@VSUR_Spawn_Delay@@@@A ; SUR_Spawn_Delay_Registrant
PUBLIC	??_C@_0FA@DHAIDPHO@Spawn_Delay?3float?0Spawn_Pos?3vect@ ; `string'
PUBLIC	??_C@_0BA@KLILNECP@SUR_Spawn_Delay?$AA@		; `string'
PUBLIC	??_7?$ScriptRegistrant@VSUR_Generator_Zone@@@@6B@ ; ScriptRegistrant<SUR_Generator_Zone>::`vftable'
PUBLIC	?SUR_Generator_Zone_Registrant@@3V?$ScriptRegistrant@VSUR_Generator_Zone@@@@A ; SUR_Generator_Zone_Registrant
PUBLIC	??_C@_0MA@PHLCLBBJ@Time_Delay?3float?0Supply_Truck_Pr@ ; `string'
PUBLIC	??_C@_0BD@JMCCCHCE@SUR_Generator_Zone?$AA@	; `string'
PUBLIC	??_7?$ScriptRegistrant@VSUR_MiniGen@@@@6B@	; ScriptRegistrant<SUR_MiniGen>::`vftable'
PUBLIC	?SUR_MiniGen_Registrant@@3V?$ScriptRegistrant@VSUR_MiniGen@@@@A ; SUR_MiniGen_Registrant
PUBLIC	??_C@_0FM@NAIMEOBA@Time_Delay?3float?0Turret_ID_One?3i@ ; `string'
PUBLIC	??_C@_0M@GPOHJCKC@SUR_MiniGen?$AA@		; `string'
PUBLIC	??_7?$ScriptRegistrant@VSUR_NHB@@@@6B@		; ScriptRegistrant<SUR_NHB>::`vftable'
PUBLIC	?SUR_NHB_Registrant@@3V?$ScriptRegistrant@VSUR_NHB@@@@A ; SUR_NHB_Registrant
PUBLIC	??_C@_0FD@DHDDJGN@GDI_Gen?3int?0Nod_Gen?3int?0Strike_P@ ; `string'
PUBLIC	??_C@_07MJBDNLE@SUR_NHB?$AA@			; `string'
PUBLIC	??_7?$ScriptRegistrant@VSUR_NHB_Soldier@@@@6B@	; ScriptRegistrant<SUR_NHB_Soldier>::`vftable'
PUBLIC	?SUR_NHB_Soldier_Registrant@@3V?$ScriptRegistrant@VSUR_NHB_Soldier@@@@A ; SUR_NHB_Soldier_Registrant
PUBLIC	??_C@_0BAA@ECKFGJNH@NHB_ID?3int?0VPad_Path?3int?0VPad_Pa@ ; `string'
PUBLIC	??_C@_0BA@IFMBMGDM@SUR_NHB_Soldier?$AA@		; `string'
PUBLIC	??_7?$ScriptRegistrant@VSUR_Obj_Destroyer@@@@6B@ ; ScriptRegistrant<SUR_Obj_Destroyer>::`vftable'
PUBLIC	?SUR_Obj_Destroyer_Registrant@@3V?$ScriptRegistrant@VSUR_Obj_Destroyer@@@@A ; SUR_Obj_Destroyer_Registrant
PUBLIC	??_C@_06IDGMBKCH@ID?3int?$AA@			; `string'
PUBLIC	??_C@_0BC@DOELCKBJ@SUR_Obj_Destroyer?$AA@	; `string'
PUBLIC	??_7?$ScriptRegistrant@VSUR_New_PT@@@@6B@	; ScriptRegistrant<SUR_New_PT>::`vftable'
PUBLIC	?SUR_New_PT_Registrant@@3V?$ScriptRegistrant@VSUR_New_PT@@@@A ; SUR_New_PT_Registrant
PUBLIC	??_C@_0BK@IMCLBBPM@Marker_ID?3int?0Message?3int?$AA@ ; `string'
PUBLIC	??_7?$ScriptRegistrant@VSUR_New_PT_Reciever@@@@6B@ ; ScriptRegistrant<SUR_New_PT_Reciever>::`vftable'
PUBLIC	?SUR_New_PT_Reciever_Registrant@@3V?$ScriptRegistrant@VSUR_New_PT_Reciever@@@@A ; SUR_New_PT_Reciever_Registrant
PUBLIC	??_C@_0BP@HHNMLCDH@Preset_Name?3string?0Message?3int?$AA@ ; `string'
PUBLIC	??_C@_0BE@IIJFADCE@SUR_New_PT_Reciever?$AA@	; `string'
PUBLIC	??_7?$ScriptRegistrant@VSUR_APC_AI@@@@6B@	; ScriptRegistrant<SUR_APC_AI>::`vftable'
PUBLIC	?SUR_APC_AI_Registrant@@3V?$ScriptRegistrant@VSUR_APC_AI@@@@A ; SUR_APC_AI_Registrant
PUBLIC	??_C@_0CD@PNNDOGLF@Preset_To_Create?3string?0NHB_ID?3i@ ; `string'
PUBLIC	??_C@_0L@MIJHGIEM@SUR_APC_AI?$AA@		; `string'
PUBLIC	??_7?$ScriptRegistrant@VSUR_Orca_AI@@@@6B@	; ScriptRegistrant<SUR_Orca_AI>::`vftable'
PUBLIC	?SUR_Orca_AI_Registrant@@3V?$ScriptRegistrant@VSUR_Orca_AI@@@@A ; SUR_Orca_AI_Registrant
PUBLIC	??_C@_0CB@GPNICFGL@NHB_ID?3int?0Attack_Offset?3vector3@ ; `string'
PUBLIC	??_C@_0M@LENJCGNN@SUR_Orca_AI?$AA@		; `string'
PUBLIC	??_7?$ScriptRegistrant@VSUR_Chinook_AI@@@@6B@	; ScriptRegistrant<SUR_Chinook_AI>::`vftable'
PUBLIC	?SUR_Chinook_AI_Registrant@@3V?$ScriptRegistrant@VSUR_Chinook_AI@@@@A ; SUR_Chinook_AI_Registrant
PUBLIC	??_C@_0CL@JNOFFELC@Preset_Name?3string?0Position_Offs@ ; `string'
PUBLIC	??_C@_0P@CCFBOFGI@SUR_Chinook_AI?$AA@		; `string'
PUBLIC	??_7?$ScriptRegistrant@VSUR_Dep_Turret@@@@6B@	; ScriptRegistrant<SUR_Dep_Turret>::`vftable'
PUBLIC	?SUR_Dep_Turret_Registrant@@3V?$ScriptRegistrant@VSUR_Dep_Turret@@@@A ; SUR_Dep_Turret_Registrant
PUBLIC	??_C@_0EP@COIIGKKP@MinAttackDistance?$DN0?40?3float?0MaxA@ ; `string'
PUBLIC	??_C@_0P@NFLNCIFF@SUR_Dep_Turret?$AA@		; `string'
PUBLIC	??_7?$ScriptRegistrant@VSUR_Timed_Death@@@@6B@	; ScriptRegistrant<SUR_Timed_Death>::`vftable'
PUBLIC	?SUR_Timed_Death_Registrant@@3V?$ScriptRegistrant@VSUR_Timed_Death@@@@A ; SUR_Timed_Death_Registrant
PUBLIC	??_C@_0DD@BINEMFNP@Delay?3float?0Damage_Amount?3float?0@ ; `string'
PUBLIC	??_C@_0BA@LIDMMLAJ@SUR_Timed_Death?$AA@		; `string'
PUBLIC	??_7?$ScriptRegistrant@VSUR_GrantPowerup_OnEntry@@@@6B@ ; ScriptRegistrant<SUR_GrantPowerup_OnEntry>::`vftable'
PUBLIC	?SUR_GrantPowerup_OnEntry_Registrant@@3V?$ScriptRegistrant@VSUR_GrantPowerup_OnEntry@@@@A ; SUR_GrantPowerup_OnEntry_Registrant
PUBLIC	??_C@_0BN@OELIADGD@Preset?3string?0Powerup?3string?$AA@ ; `string'
PUBLIC	??_C@_0BJ@KLABFPHM@SUR_GrantPowerup_OnEntry?$AA@ ; `string'
PUBLIC	??_C@_0DA@GODKEOJD@ScriptRegistrant?$DMclass?5SUR_Spawn@ ; `string'
PUBLIC	??_C@_0DD@KMKBFFOF@x?3?2github?2renegade?2dragonade_rxd@ ; `string'
PUBLIC	??_C@_1GG@OGNLNBPD@?$AAx?$AA?3?$AA?2?$AAg?$AAi?$AAt?$AAh?$AAu?$AAb?$AA?2?$AAr?$AAe?$AAn?$AAe?$AAg?$AAa?$AAd?$AAe?$AA?2?$AAd?$AAr?$AAa?$AAg?$AAo?$AAn?$AAa?$AAd?$AAe?$AA_?$AAr?$AAx?$AAd@ ; `string'
PUBLIC	??_C@_1M@HLGKFCJM@?$AAf?$AAa?$AAl?$AAs?$AAe?$AA?$AA@ ; `string'
PUBLIC	??_C@_0DD@IBJAKMHL@ScriptRegistrant?$DMclass?5SUR_Gener@ ; `string'
PUBLIC	??_C@_0CM@LLEDJECK@ScriptRegistrant?$DMclass?5SUR_MiniG@ ; `string'
PUBLIC	??_C@_0CI@LNPJCONE@ScriptRegistrant?$DMclass?5SUR_NHB?$DO?3@ ; `string'
PUBLIC	??_C@_0DA@BIDEEIAA@ScriptRegistrant?$DMclass?5SUR_NHB_S@ ; `string'
PUBLIC	??_C@_0DC@KDOJNHEC@ScriptRegistrant?$DMclass?5SUR_Obj_D@ ; `string'
PUBLIC	??_C@_0CL@KBJCMIPP@ScriptRegistrant?$DMclass?5SUR_New_P@ ; `string'
PUBLIC	??_C@_0DE@KNMMJHAP@ScriptRegistrant?$DMclass?5SUR_New_P@ ; `string'
PUBLIC	??_C@_0CL@JAPNFDGP@ScriptRegistrant?$DMclass?5SUR_APC_A@ ; `string'
PUBLIC	??_C@_0CM@EGEAHCJA@ScriptRegistrant?$DMclass?5SUR_Orca_@ ; `string'
PUBLIC	??_C@_0CP@KBBIOMO@ScriptRegistrant?$DMclass?5SUR_Chino@ ; `string'
PUBLIC	??_C@_0CP@PIFLBOGP@ScriptRegistrant?$DMclass?5SUR_Dep_T@ ; `string'
PUBLIC	??_C@_0DA@FKNKJHCG@ScriptRegistrant?$DMclass?5SUR_Timed@ ; `string'
PUBLIC	??_C@_0DJ@EEEDKFIH@ScriptRegistrant?$DMclass?5SUR_Grant@ ; `string'
PUBLIC	??_R4ScriptFactory@@6B@				; ScriptFactory::`RTTI Complete Object Locator'
PUBLIC	??_R0?AVScriptFactory@@@8			; ScriptFactory `RTTI Type Descriptor'
PUBLIC	??_R3ScriptFactory@@8				; ScriptFactory::`RTTI Class Hierarchy Descriptor'
PUBLIC	??_R2ScriptFactory@@8				; ScriptFactory::`RTTI Base Class Array'
PUBLIC	??_R1A@?0A@EA@ScriptFactory@@8			; ScriptFactory::`RTTI Base Class Descriptor at (0,-1,0,64)'
PUBLIC	??_R4ScriptClass@@6B@				; ScriptClass::`RTTI Complete Object Locator'
PUBLIC	??_R0?AVScriptClass@@@8				; ScriptClass `RTTI Type Descriptor'
PUBLIC	??_R3ScriptClass@@8				; ScriptClass::`RTTI Class Hierarchy Descriptor'
PUBLIC	??_R2ScriptClass@@8				; ScriptClass::`RTTI Base Class Array'
PUBLIC	??_R1A@?0A@EA@ScriptClass@@8			; ScriptClass::`RTTI Base Class Descriptor at (0,-1,0,64)'
PUBLIC	??_R1A@?0A@EA@GameObjObserverClass@@8		; GameObjObserverClass::`RTTI Base Class Descriptor at (0,-1,0,64)'
PUBLIC	??_R0?AVGameObjObserverClass@@@8		; GameObjObserverClass `RTTI Type Descriptor'
PUBLIC	??_R3GameObjObserverClass@@8			; GameObjObserverClass::`RTTI Class Hierarchy Descriptor'
PUBLIC	??_R2GameObjObserverClass@@8			; GameObjObserverClass::`RTTI Base Class Array'
PUBLIC	??_R4GameObjObserverClass@@6B@			; GameObjObserverClass::`RTTI Complete Object Locator'
PUBLIC	??_R4ScriptImpClass@@6B@			; ScriptImpClass::`RTTI Complete Object Locator'
PUBLIC	??_R0?AVScriptImpClass@@@8			; ScriptImpClass `RTTI Type Descriptor'
PUBLIC	??_R3ScriptImpClass@@8				; ScriptImpClass::`RTTI Class Hierarchy Descriptor'
PUBLIC	??_R2ScriptImpClass@@8				; ScriptImpClass::`RTTI Base Class Array'
PUBLIC	??_R1A@?0A@EA@ScriptImpClass@@8			; ScriptImpClass::`RTTI Base Class Descriptor at (0,-1,0,64)'
PUBLIC	??_R4SUR_Spawn_Delay@@6B@			; SUR_Spawn_Delay::`RTTI Complete Object Locator'
PUBLIC	??_R0?AVSUR_Spawn_Delay@@@8			; SUR_Spawn_Delay `RTTI Type Descriptor'
PUBLIC	??_R3SUR_Spawn_Delay@@8				; SUR_Spawn_Delay::`RTTI Class Hierarchy Descriptor'
PUBLIC	??_R2SUR_Spawn_Delay@@8				; SUR_Spawn_Delay::`RTTI Base Class Array'
PUBLIC	??_R1A@?0A@EA@SUR_Spawn_Delay@@8		; SUR_Spawn_Delay::`RTTI Base Class Descriptor at (0,-1,0,64)'
PUBLIC	??_R4SUR_Generator_Zone@@6B@			; SUR_Generator_Zone::`RTTI Complete Object Locator'
PUBLIC	??_R0?AVSUR_Generator_Zone@@@8			; SUR_Generator_Zone `RTTI Type Descriptor'
PUBLIC	??_R3SUR_Generator_Zone@@8			; SUR_Generator_Zone::`RTTI Class Hierarchy Descriptor'
PUBLIC	??_R2SUR_Generator_Zone@@8			; SUR_Generator_Zone::`RTTI Base Class Array'
PUBLIC	??_R1A@?0A@EA@SUR_Generator_Zone@@8		; SUR_Generator_Zone::`RTTI Base Class Descriptor at (0,-1,0,64)'
PUBLIC	??_R4SUR_MiniGen@@6B@				; SUR_MiniGen::`RTTI Complete Object Locator'
PUBLIC	??_R0?AVSUR_MiniGen@@@8				; SUR_MiniGen `RTTI Type Descriptor'
PUBLIC	??_R3SUR_MiniGen@@8				; SUR_MiniGen::`RTTI Class Hierarchy Descriptor'
PUBLIC	??_R2SUR_MiniGen@@8				; SUR_MiniGen::`RTTI Base Class Array'
PUBLIC	??_R1A@?0A@EA@SUR_MiniGen@@8			; SUR_MiniGen::`RTTI Base Class Descriptor at (0,-1,0,64)'
PUBLIC	??_R4SUR_NHB@@6B@				; SUR_NHB::`RTTI Complete Object Locator'
PUBLIC	??_R0?AVSUR_NHB@@@8				; SUR_NHB `RTTI Type Descriptor'
PUBLIC	??_R3SUR_NHB@@8					; SUR_NHB::`RTTI Class Hierarchy Descriptor'
PUBLIC	??_R2SUR_NHB@@8					; SUR_NHB::`RTTI Base Class Array'
PUBLIC	??_R1A@?0A@EA@SUR_NHB@@8			; SUR_NHB::`RTTI Base Class Descriptor at (0,-1,0,64)'
PUBLIC	??_R4SUR_NHB_Soldier@@6B@			; SUR_NHB_Soldier::`RTTI Complete Object Locator'
PUBLIC	??_R0?AVSUR_NHB_Soldier@@@8			; SUR_NHB_Soldier `RTTI Type Descriptor'
PUBLIC	??_R3SUR_NHB_Soldier@@8				; SUR_NHB_Soldier::`RTTI Class Hierarchy Descriptor'
PUBLIC	??_R2SUR_NHB_Soldier@@8				; SUR_NHB_Soldier::`RTTI Base Class Array'
PUBLIC	??_R1A@?0A@EA@SUR_NHB_Soldier@@8		; SUR_NHB_Soldier::`RTTI Base Class Descriptor at (0,-1,0,64)'
PUBLIC	??_R4SUR_Obj_Destroyer@@6B@			; SUR_Obj_Destroyer::`RTTI Complete Object Locator'
PUBLIC	??_R0?AVSUR_Obj_Destroyer@@@8			; SUR_Obj_Destroyer `RTTI Type Descriptor'
PUBLIC	??_R3SUR_Obj_Destroyer@@8			; SUR_Obj_Destroyer::`RTTI Class Hierarchy Descriptor'
PUBLIC	??_R2SUR_Obj_Destroyer@@8			; SUR_Obj_Destroyer::`RTTI Base Class Array'
PUBLIC	??_R1A@?0A@EA@SUR_Obj_Destroyer@@8		; SUR_Obj_Destroyer::`RTTI Base Class Descriptor at (0,-1,0,64)'
PUBLIC	??_R4SUR_New_PT@@6B@				; SUR_New_PT::`RTTI Complete Object Locator'
PUBLIC	??_R0?AVSUR_New_PT@@@8				; SUR_New_PT `RTTI Type Descriptor'
PUBLIC	??_R3SUR_New_PT@@8				; SUR_New_PT::`RTTI Class Hierarchy Descriptor'
PUBLIC	??_R2SUR_New_PT@@8				; SUR_New_PT::`RTTI Base Class Array'
PUBLIC	??_R1A@?0A@EA@SUR_New_PT@@8			; SUR_New_PT::`RTTI Base Class Descriptor at (0,-1,0,64)'
PUBLIC	??_R4SUR_New_PT_Reciever@@6B@			; SUR_New_PT_Reciever::`RTTI Complete Object Locator'
PUBLIC	??_R0?AVSUR_New_PT_Reciever@@@8			; SUR_New_PT_Reciever `RTTI Type Descriptor'
PUBLIC	??_R3SUR_New_PT_Reciever@@8			; SUR_New_PT_Reciever::`RTTI Class Hierarchy Descriptor'
PUBLIC	??_R2SUR_New_PT_Reciever@@8			; SUR_New_PT_Reciever::`RTTI Base Class Array'
PUBLIC	??_R1A@?0A@EA@SUR_New_PT_Reciever@@8		; SUR_New_PT_Reciever::`RTTI Base Class Descriptor at (0,-1,0,64)'
PUBLIC	??_R4SUR_APC_AI@@6B@				; SUR_APC_AI::`RTTI Complete Object Locator'
PUBLIC	??_R0?AVSUR_APC_AI@@@8				; SUR_APC_AI `RTTI Type Descriptor'
PUBLIC	??_R3SUR_APC_AI@@8				; SUR_APC_AI::`RTTI Class Hierarchy Descriptor'
PUBLIC	??_R2SUR_APC_AI@@8				; SUR_APC_AI::`RTTI Base Class Array'
PUBLIC	??_R1A@?0A@EA@SUR_APC_AI@@8			; SUR_APC_AI::`RTTI Base Class Descriptor at (0,-1,0,64)'
PUBLIC	??_R4SUR_Orca_AI@@6B@				; SUR_Orca_AI::`RTTI Complete Object Locator'
PUBLIC	??_R0?AVSUR_Orca_AI@@@8				; SUR_Orca_AI `RTTI Type Descriptor'
PUBLIC	??_R3SUR_Orca_AI@@8				; SUR_Orca_AI::`RTTI Class Hierarchy Descriptor'
PUBLIC	??_R2SUR_Orca_AI@@8				; SUR_Orca_AI::`RTTI Base Class Array'
PUBLIC	??_R1A@?0A@EA@SUR_Orca_AI@@8			; SUR_Orca_AI::`RTTI Base Class Descriptor at (0,-1,0,64)'
PUBLIC	??_R4SUR_Chinook_AI@@6B@			; SUR_Chinook_AI::`RTTI Complete Object Locator'
PUBLIC	??_R0?AVSUR_Chinook_AI@@@8			; SUR_Chinook_AI `RTTI Type Descriptor'
PUBLIC	??_R3SUR_Chinook_AI@@8				; SUR_Chinook_AI::`RTTI Class Hierarchy Descriptor'
PUBLIC	??_R2SUR_Chinook_AI@@8				; SUR_Chinook_AI::`RTTI Base Class Array'
PUBLIC	??_R1A@?0A@EA@SUR_Chinook_AI@@8			; SUR_Chinook_AI::`RTTI Base Class Descriptor at (0,-1,0,64)'
PUBLIC	??_R4SUR_Dep_Turret@@6B@			; SUR_Dep_Turret::`RTTI Complete Object Locator'
PUBLIC	??_R0?AVSUR_Dep_Turret@@@8			; SUR_Dep_Turret `RTTI Type Descriptor'
PUBLIC	??_R3SUR_Dep_Turret@@8				; SUR_Dep_Turret::`RTTI Class Hierarchy Descriptor'
PUBLIC	??_R2SUR_Dep_Turret@@8				; SUR_Dep_Turret::`RTTI Base Class Array'
PUBLIC	??_R1A@?0A@EA@SUR_Dep_Turret@@8			; SUR_Dep_Turret::`RTTI Base Class Descriptor at (0,-1,0,64)'
PUBLIC	??_R4SUR_Timed_Death@@6B@			; SUR_Timed_Death::`RTTI Complete Object Locator'
PUBLIC	??_R0?AVSUR_Timed_Death@@@8			; SUR_Timed_Death `RTTI Type Descriptor'
PUBLIC	??_R3SUR_Timed_Death@@8				; SUR_Timed_Death::`RTTI Class Hierarchy Descriptor'
PUBLIC	??_R2SUR_Timed_Death@@8				; SUR_Timed_Death::`RTTI Base Class Array'
PUBLIC	??_R1A@?0A@EA@SUR_Timed_Death@@8		; SUR_Timed_Death::`RTTI Base Class Descriptor at (0,-1,0,64)'
PUBLIC	??_R4SUR_GrantPowerup_OnEntry@@6B@		; SUR_GrantPowerup_OnEntry::`RTTI Complete Object Locator'
PUBLIC	??_R0?AVSUR_GrantPowerup_OnEntry@@@8		; SUR_GrantPowerup_OnEntry `RTTI Type Descriptor'
PUBLIC	??_R3SUR_GrantPowerup_OnEntry@@8		; SUR_GrantPowerup_OnEntry::`RTTI Class Hierarchy Descriptor'
PUBLIC	??_R2SUR_GrantPowerup_OnEntry@@8		; SUR_GrantPowerup_OnEntry::`RTTI Base Class Array'
PUBLIC	??_R1A@?0A@EA@SUR_GrantPowerup_OnEntry@@8	; SUR_GrantPowerup_OnEntry::`RTTI Base Class Descriptor at (0,-1,0,64)'
PUBLIC	??_R4?$ScriptRegistrant@VSUR_Spawn_Delay@@@@6B@	; ScriptRegistrant<SUR_Spawn_Delay>::`RTTI Complete Object Locator'
PUBLIC	??_R0?AV?$ScriptRegistrant@VSUR_Spawn_Delay@@@@@8 ; ScriptRegistrant<SUR_Spawn_Delay> `RTTI Type Descriptor'
PUBLIC	??_R3?$ScriptRegistrant@VSUR_Spawn_Delay@@@@8	; ScriptRegistrant<SUR_Spawn_Delay>::`RTTI Class Hierarchy Descriptor'
PUBLIC	??_R2?$ScriptRegistrant@VSUR_Spawn_Delay@@@@8	; ScriptRegistrant<SUR_Spawn_Delay>::`RTTI Base Class Array'
PUBLIC	??_R1A@?0A@EA@?$ScriptRegistrant@VSUR_Spawn_Delay@@@@8 ; ScriptRegistrant<SUR_Spawn_Delay>::`RTTI Base Class Descriptor at (0,-1,0,64)'
PUBLIC	??_R4?$ScriptRegistrant@VSUR_Generator_Zone@@@@6B@ ; ScriptRegistrant<SUR_Generator_Zone>::`RTTI Complete Object Locator'
PUBLIC	??_R0?AV?$ScriptRegistrant@VSUR_Generator_Zone@@@@@8 ; ScriptRegistrant<SUR_Generator_Zone> `RTTI Type Descriptor'
PUBLIC	??_R3?$ScriptRegistrant@VSUR_Generator_Zone@@@@8 ; ScriptRegistrant<SUR_Generator_Zone>::`RTTI Class Hierarchy Descriptor'
PUBLIC	??_R2?$ScriptRegistrant@VSUR_Generator_Zone@@@@8 ; ScriptRegistrant<SUR_Generator_Zone>::`RTTI Base Class Array'
PUBLIC	??_R1A@?0A@EA@?$ScriptRegistrant@VSUR_Generator_Zone@@@@8 ; ScriptRegistrant<SUR_Generator_Zone>::`RTTI Base Class Descriptor at (0,-1,0,64)'
PUBLIC	??_R4?$ScriptRegistrant@VSUR_MiniGen@@@@6B@	; ScriptRegistrant<SUR_MiniGen>::`RTTI Complete Object Locator'
PUBLIC	??_R0?AV?$ScriptRegistrant@VSUR_MiniGen@@@@@8	; ScriptRegistrant<SUR_MiniGen> `RTTI Type Descriptor'
PUBLIC	??_R3?$ScriptRegistrant@VSUR_MiniGen@@@@8	; ScriptRegistrant<SUR_MiniGen>::`RTTI Class Hierarchy Descriptor'
PUBLIC	??_R2?$ScriptRegistrant@VSUR_MiniGen@@@@8	; ScriptRegistrant<SUR_MiniGen>::`RTTI Base Class Array'
PUBLIC	??_R1A@?0A@EA@?$ScriptRegistrant@VSUR_MiniGen@@@@8 ; ScriptRegistrant<SUR_MiniGen>::`RTTI Base Class Descriptor at (0,-1,0,64)'
PUBLIC	??_R4?$ScriptRegistrant@VSUR_NHB@@@@6B@		; ScriptRegistrant<SUR_NHB>::`RTTI Complete Object Locator'
PUBLIC	??_R0?AV?$ScriptRegistrant@VSUR_NHB@@@@@8	; ScriptRegistrant<SUR_NHB> `RTTI Type Descriptor'
PUBLIC	??_R3?$ScriptRegistrant@VSUR_NHB@@@@8		; ScriptRegistrant<SUR_NHB>::`RTTI Class Hierarchy Descriptor'
PUBLIC	??_R2?$ScriptRegistrant@VSUR_NHB@@@@8		; ScriptRegistrant<SUR_NHB>::`RTTI Base Class Array'
PUBLIC	??_R1A@?0A@EA@?$ScriptRegistrant@VSUR_NHB@@@@8	; ScriptRegistrant<SUR_NHB>::`RTTI Base Class Descriptor at (0,-1,0,64)'
PUBLIC	??_R4?$ScriptRegistrant@VSUR_NHB_Soldier@@@@6B@	; ScriptRegistrant<SUR_NHB_Soldier>::`RTTI Complete Object Locator'
PUBLIC	??_R0?AV?$ScriptRegistrant@VSUR_NHB_Soldier@@@@@8 ; ScriptRegistrant<SUR_NHB_Soldier> `RTTI Type Descriptor'
PUBLIC	??_R3?$ScriptRegistrant@VSUR_NHB_Soldier@@@@8	; ScriptRegistrant<SUR_NHB_Soldier>::`RTTI Class Hierarchy Descriptor'
PUBLIC	??_R2?$ScriptRegistrant@VSUR_NHB_Soldier@@@@8	; ScriptRegistrant<SUR_NHB_Soldier>::`RTTI Base Class Array'
PUBLIC	??_R1A@?0A@EA@?$ScriptRegistrant@VSUR_NHB_Soldier@@@@8 ; ScriptRegistrant<SUR_NHB_Soldier>::`RTTI Base Class Descriptor at (0,-1,0,64)'
PUBLIC	??_R4?$ScriptRegistrant@VSUR_Obj_Destroyer@@@@6B@ ; ScriptRegistrant<SUR_Obj_Destroyer>::`RTTI Complete Object Locator'
PUBLIC	??_R0?AV?$ScriptRegistrant@VSUR_Obj_Destroyer@@@@@8 ; ScriptRegistrant<SUR_Obj_Destroyer> `RTTI Type Descriptor'
PUBLIC	??_R3?$ScriptRegistrant@VSUR_Obj_Destroyer@@@@8	; ScriptRegistrant<SUR_Obj_Destroyer>::`RTTI Class Hierarchy Descriptor'
PUBLIC	??_R2?$ScriptRegistrant@VSUR_Obj_Destroyer@@@@8	; ScriptRegistrant<SUR_Obj_Destroyer>::`RTTI Base Class Array'
PUBLIC	??_R1A@?0A@EA@?$ScriptRegistrant@VSUR_Obj_Destroyer@@@@8 ; ScriptRegistrant<SUR_Obj_Destroyer>::`RTTI Base Class Descriptor at (0,-1,0,64)'
PUBLIC	??_R4?$ScriptRegistrant@VSUR_New_PT@@@@6B@	; ScriptRegistrant<SUR_New_PT>::`RTTI Complete Object Locator'
PUBLIC	??_R0?AV?$ScriptRegistrant@VSUR_New_PT@@@@@8	; ScriptRegistrant<SUR_New_PT> `RTTI Type Descriptor'
PUBLIC	??_R3?$ScriptRegistrant@VSUR_New_PT@@@@8	; ScriptRegistrant<SUR_New_PT>::`RTTI Class Hierarchy Descriptor'
PUBLIC	??_R2?$ScriptRegistrant@VSUR_New_PT@@@@8	; ScriptRegistrant<SUR_New_PT>::`RTTI Base Class Array'
PUBLIC	??_R1A@?0A@EA@?$ScriptRegistrant@VSUR_New_PT@@@@8 ; ScriptRegistrant<SUR_New_PT>::`RTTI Base Class Descriptor at (0,-1,0,64)'
PUBLIC	??_R4?$ScriptRegistrant@VSUR_New_PT_Reciever@@@@6B@ ; ScriptRegistrant<SUR_New_PT_Reciever>::`RTTI Complete Object Locator'
PUBLIC	??_R0?AV?$ScriptRegistrant@VSUR_New_PT_Reciever@@@@@8 ; ScriptRegistrant<SUR_New_PT_Reciever> `RTTI Type Descriptor'
PUBLIC	??_R3?$ScriptRegistrant@VSUR_New_PT_Reciever@@@@8 ; ScriptRegistrant<SUR_New_PT_Reciever>::`RTTI Class Hierarchy Descriptor'
PUBLIC	??_R2?$ScriptRegistrant@VSUR_New_PT_Reciever@@@@8 ; ScriptRegistrant<SUR_New_PT_Reciever>::`RTTI Base Class Array'
PUBLIC	??_R1A@?0A@EA@?$ScriptRegistrant@VSUR_New_PT_Reciever@@@@8 ; ScriptRegistrant<SUR_New_PT_Reciever>::`RTTI Base Class Descriptor at (0,-1,0,64)'
PUBLIC	??_R4?$ScriptRegistrant@VSUR_APC_AI@@@@6B@	; ScriptRegistrant<SUR_APC_AI>::`RTTI Complete Object Locator'
PUBLIC	??_R0?AV?$ScriptRegistrant@VSUR_APC_AI@@@@@8	; ScriptRegistrant<SUR_APC_AI> `RTTI Type Descriptor'
PUBLIC	??_R3?$ScriptRegistrant@VSUR_APC_AI@@@@8	; ScriptRegistrant<SUR_APC_AI>::`RTTI Class Hierarchy Descriptor'
PUBLIC	??_R2?$ScriptRegistrant@VSUR_APC_AI@@@@8	; ScriptRegistrant<SUR_APC_AI>::`RTTI Base Class Array'
PUBLIC	??_R1A@?0A@EA@?$ScriptRegistrant@VSUR_APC_AI@@@@8 ; ScriptRegistrant<SUR_APC_AI>::`RTTI Base Class Descriptor at (0,-1,0,64)'
PUBLIC	??_R4?$ScriptRegistrant@VSUR_Orca_AI@@@@6B@	; ScriptRegistrant<SUR_Orca_AI>::`RTTI Complete Object Locator'
PUBLIC	??_R0?AV?$ScriptRegistrant@VSUR_Orca_AI@@@@@8	; ScriptRegistrant<SUR_Orca_AI> `RTTI Type Descriptor'
PUBLIC	??_R3?$ScriptRegistrant@VSUR_Orca_AI@@@@8	; ScriptRegistrant<SUR_Orca_AI>::`RTTI Class Hierarchy Descriptor'
PUBLIC	??_R2?$ScriptRegistrant@VSUR_Orca_AI@@@@8	; ScriptRegistrant<SUR_Orca_AI>::`RTTI Base Class Array'
PUBLIC	??_R1A@?0A@EA@?$ScriptRegistrant@VSUR_Orca_AI@@@@8 ; ScriptRegistrant<SUR_Orca_AI>::`RTTI Base Class Descriptor at (0,-1,0,64)'
PUBLIC	??_R4?$ScriptRegistrant@VSUR_Chinook_AI@@@@6B@	; ScriptRegistrant<SUR_Chinook_AI>::`RTTI Complete Object Locator'
PUBLIC	??_R0?AV?$ScriptRegistrant@VSUR_Chinook_AI@@@@@8 ; ScriptRegistrant<SUR_Chinook_AI> `RTTI Type Descriptor'
PUBLIC	??_R3?$ScriptRegistrant@VSUR_Chinook_AI@@@@8	; ScriptRegistrant<SUR_Chinook_AI>::`RTTI Class Hierarchy Descriptor'
PUBLIC	??_R2?$ScriptRegistrant@VSUR_Chinook_AI@@@@8	; ScriptRegistrant<SUR_Chinook_AI>::`RTTI Base Class Array'
PUBLIC	??_R1A@?0A@EA@?$ScriptRegistrant@VSUR_Chinook_AI@@@@8 ; ScriptRegistrant<SUR_Chinook_AI>::`RTTI Base Class Descriptor at (0,-1,0,64)'
PUBLIC	??_R4?$ScriptRegistrant@VSUR_Dep_Turret@@@@6B@	; ScriptRegistrant<SUR_Dep_Turret>::`RTTI Complete Object Locator'
PUBLIC	??_R0?AV?$ScriptRegistrant@VSUR_Dep_Turret@@@@@8 ; ScriptRegistrant<SUR_Dep_Turret> `RTTI Type Descriptor'
PUBLIC	??_R3?$ScriptRegistrant@VSUR_Dep_Turret@@@@8	; ScriptRegistrant<SUR_Dep_Turret>::`RTTI Class Hierarchy Descriptor'
PUBLIC	??_R2?$ScriptRegistrant@VSUR_Dep_Turret@@@@8	; ScriptRegistrant<SUR_Dep_Turret>::`RTTI Base Class Array'
PUBLIC	??_R1A@?0A@EA@?$ScriptRegistrant@VSUR_Dep_Turret@@@@8 ; ScriptRegistrant<SUR_Dep_Turret>::`RTTI Base Class Descriptor at (0,-1,0,64)'
PUBLIC	??_R4?$ScriptRegistrant@VSUR_Timed_Death@@@@6B@	; ScriptRegistrant<SUR_Timed_Death>::`RTTI Complete Object Locator'
PUBLIC	??_R0?AV?$ScriptRegistrant@VSUR_Timed_Death@@@@@8 ; ScriptRegistrant<SUR_Timed_Death> `RTTI Type Descriptor'
PUBLIC	??_R3?$ScriptRegistrant@VSUR_Timed_Death@@@@8	; ScriptRegistrant<SUR_Timed_Death>::`RTTI Class Hierarchy Descriptor'
PUBLIC	??_R2?$ScriptRegistrant@VSUR_Timed_Death@@@@8	; ScriptRegistrant<SUR_Timed_Death>::`RTTI Base Class Array'
PUBLIC	??_R1A@?0A@EA@?$ScriptRegistrant@VSUR_Timed_Death@@@@8 ; ScriptRegistrant<SUR_Timed_Death>::`RTTI Base Class Descriptor at (0,-1,0,64)'
PUBLIC	??_R4?$ScriptRegistrant@VSUR_GrantPowerup_OnEntry@@@@6B@ ; ScriptRegistrant<SUR_GrantPowerup_OnEntry>::`RTTI Complete Object Locator'
PUBLIC	??_R0?AV?$ScriptRegistrant@VSUR_GrantPowerup_OnEntry@@@@@8 ; ScriptRegistrant<SUR_GrantPowerup_OnEntry> `RTTI Type Descriptor'
PUBLIC	??_R3?$ScriptRegistrant@VSUR_GrantPowerup_OnEntry@@@@8 ; ScriptRegistrant<SUR_GrantPowerup_OnEntry>::`RTTI Class Hierarchy Descriptor'
PUBLIC	??_R2?$ScriptRegistrant@VSUR_GrantPowerup_OnEntry@@@@8 ; ScriptRegistrant<SUR_GrantPowerup_OnEntry>::`RTTI Base Class Array'
PUBLIC	??_R1A@?0A@EA@?$ScriptRegistrant@VSUR_GrantPowerup_OnEntry@@@@8 ; ScriptRegistrant<SUR_GrantPowerup_OnEntry>::`RTTI Base Class Descriptor at (0,-1,0,64)'
PUBLIC	__real@00000000
PUBLIC	__real@3f79999a
PUBLIC	__real@3f800000
PUBLIC	__real@3fc90fdb
PUBLIC	__real@40000000
PUBLIC	__real@403ffe5d
PUBLIC	__real@40a00000
PUBLIC	__real@40c90fdb
PUBLIC	__real@41200000
PUBLIC	__real@41a00000
PUBLIC	__real@41f00000
PUBLIC	__real@42480000
PUBLIC	__real@424a0000
PUBLIC	__real@428c0000
PUBLIC	__real@42c80000
PUBLIC	__real@437f0000
PUBLIC	__real@44000000
PUBLIC	__real@447a0000
PUBLIC	__real@44800000
PUBLIC	__real@461c3c00
PUBLIC	__real@461c4000
PUBLIC	__real@bf800000
EXTRN	__purecall:PROC
EXTRN	??2@YAPAXI@Z:PROC				; operator new
EXTRN	??3@YAXPAX@Z:PROC				; operator delete
EXTRN	_atexit:PROC
EXTRN	__imp___wassert:PROC
EXTRN	__imp__atof:PROC
EXTRN	__imp__ceil:PROC
EXTRN	__imp__atoi:PROC
EXTRN	??_V@YAXPAX@Z:PROC				; operator delete[]
EXTRN	__imp__sprintf:PROC
EXTRN	__imp___stricmp:PROC
EXTRN	?SetThreadTrackingInformation@@YAXPBDI0@Z:PROC	; SetThreadTrackingInformation
EXTRN	?Random_Float@WWMath@@SAMXZ:PROC		; WWMath::Random_Float
EXTRN	??0ScriptImpClass@@QAE@XZ:PROC			; ScriptImpClass::ScriptImpClass
EXTRN	?CheckPlayerType@ScriptImpClass@@QAEHPAVScriptableGameObj@@H@Z:PROC ; ScriptImpClass::CheckPlayerType
EXTRN	?Auto_Save_Variable@ScriptImpClass@@QAEXPAXHH@Z:PROC ; ScriptImpClass::Auto_Save_Variable
EXTRN	??1ScriptImpClass@@UAE@XZ:PROC			; ScriptImpClass::~ScriptImpClass
EXTRN	?Get_Name@ScriptImpClass@@UAEPBDXZ:PROC		; ScriptImpClass::Get_Name
EXTRN	?Set_Parameters_String@ScriptImpClass@@UAEXPBD@Z:PROC ; ScriptImpClass::Set_Parameters_String
EXTRN	?Get_Parameters_String@ScriptImpClass@@UAEXPADI@Z:PROC ; ScriptImpClass::Get_Parameters_String
EXTRN	?Get_Parameter@ScriptImpClass@@QAEPBDPBD@Z:PROC	; ScriptImpClass::Get_Parameter
EXTRN	?Get_Parameter@ScriptImpClass@@QAEPBDH@Z:PROC	; ScriptImpClass::Get_Parameter
EXTRN	?Get_Int_Parameter@ScriptImpClass@@QAEHPBD@Z:PROC ; ScriptImpClass::Get_Int_Parameter
EXTRN	?Get_Float_Parameter@ScriptImpClass@@QAEMPBD@Z:PROC ; ScriptImpClass::Get_Float_Parameter
EXTRN	?Get_Vector3_Parameter@ScriptImpClass@@QAE?AVVector3@@PBD@Z:PROC ; ScriptImpClass::Get_Vector3_Parameter
EXTRN	?Attach@ScriptImpClass@@MAEXPAVScriptableGameObj@@@Z:PROC ; ScriptImpClass::Attach
EXTRN	?Detach@ScriptImpClass@@MAEXPAVScriptableGameObj@@@Z:PROC ; ScriptImpClass::Detach
EXTRN	?Save@ScriptImpClass@@MAEXAAVScriptSaver@@@Z:PROC ; ScriptImpClass::Save
EXTRN	?Load@ScriptImpClass@@MAEXAAVScriptLoader@@@Z:PROC ; ScriptImpClass::Load
EXTRN	??1ScriptFactory@@UAE@XZ:PROC			; ScriptFactory::~ScriptFactory
EXTRN	??0ScriptFactory@@IAE@PBD0@Z:PROC		; ScriptFactory::ScriptFactory
EXTRN	??_ESUR_Spawn_Delay@@UAEPAXI@Z:PROC		; SUR_Spawn_Delay::`vector deleting destructor'
EXTRN	??_ESUR_Generator_Zone@@UAEPAXI@Z:PROC		; SUR_Generator_Zone::`vector deleting destructor'
EXTRN	??_ESUR_MiniGen@@UAEPAXI@Z:PROC			; SUR_MiniGen::`vector deleting destructor'
EXTRN	??_ESUR_NHB@@UAEPAXI@Z:PROC			; SUR_NHB::`vector deleting destructor'
EXTRN	??_ESUR_NHB_Soldier@@UAEPAXI@Z:PROC		; SUR_NHB_Soldier::`vector deleting destructor'
EXTRN	??_ESUR_Obj_Destroyer@@UAEPAXI@Z:PROC		; SUR_Obj_Destroyer::`vector deleting destructor'
EXTRN	??_ESUR_New_PT@@UAEPAXI@Z:PROC			; SUR_New_PT::`vector deleting destructor'
EXTRN	??_ESUR_New_PT_Reciever@@UAEPAXI@Z:PROC		; SUR_New_PT_Reciever::`vector deleting destructor'
EXTRN	??_ESUR_APC_AI@@UAEPAXI@Z:PROC			; SUR_APC_AI::`vector deleting destructor'
EXTRN	??_ESUR_Orca_AI@@UAEPAXI@Z:PROC			; SUR_Orca_AI::`vector deleting destructor'
EXTRN	??_ESUR_Chinook_AI@@UAEPAXI@Z:PROC		; SUR_Chinook_AI::`vector deleting destructor'
EXTRN	??_ESUR_Dep_Turret@@UAEPAXI@Z:PROC		; SUR_Dep_Turret::`vector deleting destructor'
EXTRN	??_ESUR_Timed_Death@@UAEPAXI@Z:PROC		; SUR_Timed_Death::`vector deleting destructor'
EXTRN	??_ESUR_GrantPowerup_OnEntry@@UAEPAXI@Z:PROC	; SUR_GrantPowerup_OnEntry::`vector deleting destructor'
EXTRN	??_E?$ScriptRegistrant@VSUR_Spawn_Delay@@@@UAEPAXI@Z:PROC ; ScriptRegistrant<SUR_Spawn_Delay>::`vector deleting destructor'
EXTRN	??_E?$ScriptRegistrant@VSUR_Generator_Zone@@@@UAEPAXI@Z:PROC ; ScriptRegistrant<SUR_Generator_Zone>::`vector deleting destructor'
EXTRN	??_E?$ScriptRegistrant@VSUR_MiniGen@@@@UAEPAXI@Z:PROC ; ScriptRegistrant<SUR_MiniGen>::`vector deleting destructor'
EXTRN	??_E?$ScriptRegistrant@VSUR_NHB@@@@UAEPAXI@Z:PROC ; ScriptRegistrant<SUR_NHB>::`vector deleting destructor'
EXTRN	??_E?$ScriptRegistrant@VSUR_NHB_Soldier@@@@UAEPAXI@Z:PROC ; ScriptRegistrant<SUR_NHB_Soldier>::`vector deleting destructor'
EXTRN	??_E?$ScriptRegistrant@VSUR_Obj_Destroyer@@@@UAEPAXI@Z:PROC ; ScriptRegistrant<SUR_Obj_Destroyer>::`vector deleting destructor'
EXTRN	??_E?$ScriptRegistrant@VSUR_New_PT@@@@UAEPAXI@Z:PROC ; ScriptRegistrant<SUR_New_PT>::`vector deleting destructor'
EXTRN	??_E?$ScriptRegistrant@VSUR_New_PT_Reciever@@@@UAEPAXI@Z:PROC ; ScriptRegistrant<SUR_New_PT_Reciever>::`vector deleting destructor'
EXTRN	??_E?$ScriptRegistrant@VSUR_APC_AI@@@@UAEPAXI@Z:PROC ; ScriptRegistrant<SUR_APC_AI>::`vector deleting destructor'
EXTRN	??_E?$ScriptRegistrant@VSUR_Orca_AI@@@@UAEPAXI@Z:PROC ; ScriptRegistrant<SUR_Orca_AI>::`vector deleting destructor'
EXTRN	??_E?$ScriptRegistrant@VSUR_Chinook_AI@@@@UAEPAXI@Z:PROC ; ScriptRegistrant<SUR_Chinook_AI>::`vector deleting destructor'
EXTRN	??_E?$ScriptRegistrant@VSUR_Dep_Turret@@@@UAEPAXI@Z:PROC ; ScriptRegistrant<SUR_Dep_Turret>::`vector deleting destructor'
EXTRN	??_E?$ScriptRegistrant@VSUR_Timed_Death@@@@UAEPAXI@Z:PROC ; ScriptRegistrant<SUR_Timed_Death>::`vector deleting destructor'
EXTRN	??_E?$ScriptRegistrant@VSUR_GrantPowerup_OnEntry@@@@UAEPAXI@Z:PROC ; ScriptRegistrant<SUR_GrantPowerup_OnEntry>::`vector deleting destructor'
EXTRN	__CIatan2:PROC
EXTRN	__libm_sse2_acos_precise:PROC
EXTRN	__libm_sse2_asin_precise:PROC
EXTRN	__libm_sse2_atan_precise:PROC
EXTRN	__libm_sse2_cos_precise:PROC
EXTRN	__libm_sse2_sin_precise:PROC
EXTRN	__libm_sse2_sqrt_precise:PROC
EXTRN	_floor:PROC
EXTRN	??_7type_info@@6B@:QWORD			; type_info::`vftable'
EXTRN	?_FastAcosTable@@3AAV?$RefArrayHelper@M$0EAA@@@A:DWORD ; _FastAcosTable
EXTRN	?_FastAsinTable@@3AAV?$RefArrayHelper@M$0EAA@@@A:DWORD ; _FastAsinTable
EXTRN	?_FastSinTable@@3AAV?$RefArrayHelper@M$0EAA@@@A:DWORD ; _FastSinTable
EXTRN	?Commands@@3PAUScriptCommands@@A:DWORD		; Commands
EXTRN	__fltused:DWORD
_BSS	SEGMENT
?SUR_Spawn_Delay_Registrant@@3V?$ScriptRegistrant@VSUR_Spawn_Delay@@@@A DB 010H DUP (?) ; SUR_Spawn_Delay_Registrant
?SUR_Generator_Zone_Registrant@@3V?$ScriptRegistrant@VSUR_Generator_Zone@@@@A DB 010H DUP (?) ; SUR_Generator_Zone_Registrant
?SUR_MiniGen_Registrant@@3V?$ScriptRegistrant@VSUR_MiniGen@@@@A DB 010H DUP (?) ; SUR_MiniGen_Registrant
?SUR_NHB_Registrant@@3V?$ScriptRegistrant@VSUR_NHB@@@@A DB 010H DUP (?) ; SUR_NHB_Registrant
?SUR_NHB_Soldier_Registrant@@3V?$ScriptRegistrant@VSUR_NHB_Soldier@@@@A DB 010H DUP (?) ; SUR_NHB_Soldier_Registrant
?SUR_Obj_Destroyer_Registrant@@3V?$ScriptRegistrant@VSUR_Obj_Destroyer@@@@A DB 010H DUP (?) ; SUR_Obj_Destroyer_Registrant
?SUR_New_PT_Registrant@@3V?$ScriptRegistrant@VSUR_New_PT@@@@A DB 010H DUP (?) ; SUR_New_PT_Registrant
?SUR_New_PT_Reciever_Registrant@@3V?$ScriptRegistrant@VSUR_New_PT_Reciever@@@@A DB 010H DUP (?) ; SUR_New_PT_Reciever_Registrant
?SUR_APC_AI_Registrant@@3V?$ScriptRegistrant@VSUR_APC_AI@@@@A DB 010H DUP (?) ; SUR_APC_AI_Registrant
?SUR_Orca_AI_Registrant@@3V?$ScriptRegistrant@VSUR_Orca_AI@@@@A DB 010H DUP (?) ; SUR_Orca_AI_Registrant
?SUR_Chinook_AI_Registrant@@3V?$ScriptRegistrant@VSUR_Chinook_AI@@@@A DB 010H DUP (?) ; SUR_Chinook_AI_Registrant
?SUR_Dep_Turret_Registrant@@3V?$ScriptRegistrant@VSUR_Dep_Turret@@@@A DB 010H DUP (?) ; SUR_Dep_Turret_Registrant
?SUR_Timed_Death_Registrant@@3V?$ScriptRegistrant@VSUR_Timed_Death@@@@A DB 010H DUP (?) ; SUR_Timed_Death_Registrant
?SUR_GrantPowerup_OnEntry_Registrant@@3V?$ScriptRegistrant@VSUR_GrantPowerup_OnEntry@@@@A DB 010H DUP (?) ; SUR_GrantPowerup_OnEntry_Registrant
_BSS	ENDS
CRT$XCU	SEGMENT
_SUR_Spawn_Delay_Registrant$initializer$ DD FLAT:??__ESUR_Spawn_Delay_Registrant@@YAXXZ
CRT$XCU	ENDS
;	COMDAT __real@bf800000
CONST	SEGMENT
__real@bf800000 DD 0bf800000r			; -1
CONST	ENDS
;	COMDAT __real@461c4000
CONST	SEGMENT
__real@461c4000 DD 0461c4000r			; 10000
CONST	ENDS
;	COMDAT __real@461c3c00
CONST	SEGMENT
__real@461c3c00 DD 0461c3c00r			; 9999
CONST	ENDS
;	COMDAT __real@44800000
CONST	SEGMENT
__real@44800000 DD 044800000r			; 1024
CONST	ENDS
;	COMDAT __real@447a0000
CONST	SEGMENT
__real@447a0000 DD 0447a0000r			; 1000
CONST	ENDS
;	COMDAT __real@44000000
CONST	SEGMENT
__real@44000000 DD 044000000r			; 512
CONST	ENDS
;	COMDAT __real@437f0000
CONST	SEGMENT
__real@437f0000 DD 0437f0000r			; 255
CONST	ENDS
;	COMDAT __real@42c80000
CONST	SEGMENT
__real@42c80000 DD 042c80000r			; 100
CONST	ENDS
;	COMDAT __real@428c0000
CONST	SEGMENT
__real@428c0000 DD 0428c0000r			; 70
CONST	ENDS
;	COMDAT __real@424a0000
CONST	SEGMENT
__real@424a0000 DD 0424a0000r			; 50.5
CONST	ENDS
;	COMDAT __real@42480000
CONST	SEGMENT
__real@42480000 DD 042480000r			; 50
CONST	ENDS
;	COMDAT __real@41f00000
CONST	SEGMENT
__real@41f00000 DD 041f00000r			; 30
CONST	ENDS
;	COMDAT __real@41a00000
CONST	SEGMENT
__real@41a00000 DD 041a00000r			; 20
CONST	ENDS
;	COMDAT __real@41200000
CONST	SEGMENT
__real@41200000 DD 041200000r			; 10
CONST	ENDS
;	COMDAT __real@40c90fdb
CONST	SEGMENT
__real@40c90fdb DD 040c90fdbr			; 6.28319
CONST	ENDS
;	COMDAT __real@40a00000
CONST	SEGMENT
__real@40a00000 DD 040a00000r			; 5
CONST	ENDS
;	COMDAT __real@403ffe5d
CONST	SEGMENT
__real@403ffe5d DD 0403ffe5dr			; 2.9999
CONST	ENDS
;	COMDAT __real@40000000
CONST	SEGMENT
__real@40000000 DD 040000000r			; 2
CONST	ENDS
;	COMDAT __real@3fc90fdb
CONST	SEGMENT
__real@3fc90fdb DD 03fc90fdbr			; 1.5708
CONST	ENDS
;	COMDAT __real@3f800000
CONST	SEGMENT
__real@3f800000 DD 03f800000r			; 1
CONST	ENDS
;	COMDAT __real@3f79999a
CONST	SEGMENT
__real@3f79999a DD 03f79999ar			; 0.975
CONST	ENDS
;	COMDAT __real@00000000
CONST	SEGMENT
__real@00000000 DD 000000000r			; 0
CONST	ENDS
;	COMDAT ??_R1A@?0A@EA@?$ScriptRegistrant@VSUR_GrantPowerup_OnEntry@@@@8
rdata$r	SEGMENT
??_R1A@?0A@EA@?$ScriptRegistrant@VSUR_GrantPowerup_OnEntry@@@@8 DD FLAT:??_R0?AV?$ScriptRegistrant@VSUR_GrantPowerup_OnEntry@@@@@8 ; ScriptRegistrant<SUR_GrantPowerup_OnEntry>::`RTTI Base Class Descriptor at (0,-1,0,64)'
	DD	01H
	DD	00H
	DD	0ffffffffH
	DD	00H
	DD	040H
	DD	FLAT:??_R3?$ScriptRegistrant@VSUR_GrantPowerup_OnEntry@@@@8
rdata$r	ENDS
;	COMDAT ??_R2?$ScriptRegistrant@VSUR_GrantPowerup_OnEntry@@@@8
rdata$r	SEGMENT
??_R2?$ScriptRegistrant@VSUR_GrantPowerup_OnEntry@@@@8 DD FLAT:??_R1A@?0A@EA@?$ScriptRegistrant@VSUR_GrantPowerup_OnEntry@@@@8 ; ScriptRegistrant<SUR_GrantPowerup_OnEntry>::`RTTI Base Class Array'
	DD	FLAT:??_R1A@?0A@EA@ScriptFactory@@8
rdata$r	ENDS
;	COMDAT ??_R3?$ScriptRegistrant@VSUR_GrantPowerup_OnEntry@@@@8
rdata$r	SEGMENT
??_R3?$ScriptRegistrant@VSUR_GrantPowerup_OnEntry@@@@8 DD 00H ; ScriptRegistrant<SUR_GrantPowerup_OnEntry>::`RTTI Class Hierarchy Descriptor'
	DD	00H
	DD	02H
	DD	FLAT:??_R2?$ScriptRegistrant@VSUR_GrantPowerup_OnEntry@@@@8
rdata$r	ENDS
;	COMDAT ??_R0?AV?$ScriptRegistrant@VSUR_GrantPowerup_OnEntry@@@@@8
_DATA	SEGMENT
??_R0?AV?$ScriptRegistrant@VSUR_GrantPowerup_OnEntry@@@@@8 DD FLAT:??_7type_info@@6B@ ; ScriptRegistrant<SUR_GrantPowerup_OnEntry> `RTTI Type Descriptor'
	DD	00H
	DB	'.?AV?$ScriptRegistrant@VSUR_GrantPowerup_OnEntry@@@@', 00H
_DATA	ENDS
;	COMDAT ??_R4?$ScriptRegistrant@VSUR_GrantPowerup_OnEntry@@@@6B@
rdata$r	SEGMENT
??_R4?$ScriptRegistrant@VSUR_GrantPowerup_OnEntry@@@@6B@ DD 00H ; ScriptRegistrant<SUR_GrantPowerup_OnEntry>::`RTTI Complete Object Locator'
	DD	00H
	DD	00H
	DD	FLAT:??_R0?AV?$ScriptRegistrant@VSUR_GrantPowerup_OnEntry@@@@@8
	DD	FLAT:??_R3?$ScriptRegistrant@VSUR_GrantPowerup_OnEntry@@@@8
rdata$r	ENDS
;	COMDAT ??_R1A@?0A@EA@?$ScriptRegistrant@VSUR_Timed_Death@@@@8
rdata$r	SEGMENT
??_R1A@?0A@EA@?$ScriptRegistrant@VSUR_Timed_Death@@@@8 DD FLAT:??_R0?AV?$ScriptRegistrant@VSUR_Timed_Death@@@@@8 ; ScriptRegistrant<SUR_Timed_Death>::`RTTI Base Class Descriptor at (0,-1,0,64)'
	DD	01H
	DD	00H
	DD	0ffffffffH
	DD	00H
	DD	040H
	DD	FLAT:??_R3?$ScriptRegistrant@VSUR_Timed_Death@@@@8
rdata$r	ENDS
;	COMDAT ??_R2?$ScriptRegistrant@VSUR_Timed_Death@@@@8
rdata$r	SEGMENT
??_R2?$ScriptRegistrant@VSUR_Timed_Death@@@@8 DD FLAT:??_R1A@?0A@EA@?$ScriptRegistrant@VSUR_Timed_Death@@@@8 ; ScriptRegistrant<SUR_Timed_Death>::`RTTI Base Class Array'
	DD	FLAT:??_R1A@?0A@EA@ScriptFactory@@8
rdata$r	ENDS
;	COMDAT ??_R3?$ScriptRegistrant@VSUR_Timed_Death@@@@8
rdata$r	SEGMENT
??_R3?$ScriptRegistrant@VSUR_Timed_Death@@@@8 DD 00H	; ScriptRegistrant<SUR_Timed_Death>::`RTTI Class Hierarchy Descriptor'
	DD	00H
	DD	02H
	DD	FLAT:??_R2?$ScriptRegistrant@VSUR_Timed_Death@@@@8
rdata$r	ENDS
;	COMDAT ??_R0?AV?$ScriptRegistrant@VSUR_Timed_Death@@@@@8
_DATA	SEGMENT
??_R0?AV?$ScriptRegistrant@VSUR_Timed_Death@@@@@8 DD FLAT:??_7type_info@@6B@ ; ScriptRegistrant<SUR_Timed_Death> `RTTI Type Descriptor'
	DD	00H
	DB	'.?AV?$ScriptRegistrant@VSUR_Timed_Death@@@@', 00H
_DATA	ENDS
;	COMDAT ??_R4?$ScriptRegistrant@VSUR_Timed_Death@@@@6B@
rdata$r	SEGMENT
??_R4?$ScriptRegistrant@VSUR_Timed_Death@@@@6B@ DD 00H	; ScriptRegistrant<SUR_Timed_Death>::`RTTI Complete Object Locator'
	DD	00H
	DD	00H
	DD	FLAT:??_R0?AV?$ScriptRegistrant@VSUR_Timed_Death@@@@@8
	DD	FLAT:??_R3?$ScriptRegistrant@VSUR_Timed_Death@@@@8
rdata$r	ENDS
;	COMDAT ??_R1A@?0A@EA@?$ScriptRegistrant@VSUR_Dep_Turret@@@@8
rdata$r	SEGMENT
??_R1A@?0A@EA@?$ScriptRegistrant@VSUR_Dep_Turret@@@@8 DD FLAT:??_R0?AV?$ScriptRegistrant@VSUR_Dep_Turret@@@@@8 ; ScriptRegistrant<SUR_Dep_Turret>::`RTTI Base Class Descriptor at (0,-1,0,64)'
	DD	01H
	DD	00H
	DD	0ffffffffH
	DD	00H
	DD	040H
	DD	FLAT:??_R3?$ScriptRegistrant@VSUR_Dep_Turret@@@@8
rdata$r	ENDS
;	COMDAT ??_R2?$ScriptRegistrant@VSUR_Dep_Turret@@@@8
rdata$r	SEGMENT
??_R2?$ScriptRegistrant@VSUR_Dep_Turret@@@@8 DD FLAT:??_R1A@?0A@EA@?$ScriptRegistrant@VSUR_Dep_Turret@@@@8 ; ScriptRegistrant<SUR_Dep_Turret>::`RTTI Base Class Array'
	DD	FLAT:??_R1A@?0A@EA@ScriptFactory@@8
rdata$r	ENDS
;	COMDAT ??_R3?$ScriptRegistrant@VSUR_Dep_Turret@@@@8
rdata$r	SEGMENT
??_R3?$ScriptRegistrant@VSUR_Dep_Turret@@@@8 DD 00H	; ScriptRegistrant<SUR_Dep_Turret>::`RTTI Class Hierarchy Descriptor'
	DD	00H
	DD	02H
	DD	FLAT:??_R2?$ScriptRegistrant@VSUR_Dep_Turret@@@@8
rdata$r	ENDS
;	COMDAT ??_R0?AV?$ScriptRegistrant@VSUR_Dep_Turret@@@@@8
_DATA	SEGMENT
??_R0?AV?$ScriptRegistrant@VSUR_Dep_Turret@@@@@8 DD FLAT:??_7type_info@@6B@ ; ScriptRegistrant<SUR_Dep_Turret> `RTTI Type Descriptor'
	DD	00H
	DB	'.?AV?$ScriptRegistrant@VSUR_Dep_Turret@@@@', 00H
_DATA	ENDS
;	COMDAT ??_R4?$ScriptRegistrant@VSUR_Dep_Turret@@@@6B@
rdata$r	SEGMENT
??_R4?$ScriptRegistrant@VSUR_Dep_Turret@@@@6B@ DD 00H	; ScriptRegistrant<SUR_Dep_Turret>::`RTTI Complete Object Locator'
	DD	00H
	DD	00H
	DD	FLAT:??_R0?AV?$ScriptRegistrant@VSUR_Dep_Turret@@@@@8
	DD	FLAT:??_R3?$ScriptRegistrant@VSUR_Dep_Turret@@@@8
rdata$r	ENDS
;	COMDAT ??_R1A@?0A@EA@?$ScriptRegistrant@VSUR_Chinook_AI@@@@8
rdata$r	SEGMENT
??_R1A@?0A@EA@?$ScriptRegistrant@VSUR_Chinook_AI@@@@8 DD FLAT:??_R0?AV?$ScriptRegistrant@VSUR_Chinook_AI@@@@@8 ; ScriptRegistrant<SUR_Chinook_AI>::`RTTI Base Class Descriptor at (0,-1,0,64)'
	DD	01H
	DD	00H
	DD	0ffffffffH
	DD	00H
	DD	040H
	DD	FLAT:??_R3?$ScriptRegistrant@VSUR_Chinook_AI@@@@8
rdata$r	ENDS
;	COMDAT ??_R2?$ScriptRegistrant@VSUR_Chinook_AI@@@@8
rdata$r	SEGMENT
??_R2?$ScriptRegistrant@VSUR_Chinook_AI@@@@8 DD FLAT:??_R1A@?0A@EA@?$ScriptRegistrant@VSUR_Chinook_AI@@@@8 ; ScriptRegistrant<SUR_Chinook_AI>::`RTTI Base Class Array'
	DD	FLAT:??_R1A@?0A@EA@ScriptFactory@@8
rdata$r	ENDS
;	COMDAT ??_R3?$ScriptRegistrant@VSUR_Chinook_AI@@@@8
rdata$r	SEGMENT
??_R3?$ScriptRegistrant@VSUR_Chinook_AI@@@@8 DD 00H	; ScriptRegistrant<SUR_Chinook_AI>::`RTTI Class Hierarchy Descriptor'
	DD	00H
	DD	02H
	DD	FLAT:??_R2?$ScriptRegistrant@VSUR_Chinook_AI@@@@8
rdata$r	ENDS
;	COMDAT ??_R0?AV?$ScriptRegistrant@VSUR_Chinook_AI@@@@@8
_DATA	SEGMENT
??_R0?AV?$ScriptRegistrant@VSUR_Chinook_AI@@@@@8 DD FLAT:??_7type_info@@6B@ ; ScriptRegistrant<SUR_Chinook_AI> `RTTI Type Descriptor'
	DD	00H
	DB	'.?AV?$ScriptRegistrant@VSUR_Chinook_AI@@@@', 00H
_DATA	ENDS
;	COMDAT ??_R4?$ScriptRegistrant@VSUR_Chinook_AI@@@@6B@
rdata$r	SEGMENT
??_R4?$ScriptRegistrant@VSUR_Chinook_AI@@@@6B@ DD 00H	; ScriptRegistrant<SUR_Chinook_AI>::`RTTI Complete Object Locator'
	DD	00H
	DD	00H
	DD	FLAT:??_R0?AV?$ScriptRegistrant@VSUR_Chinook_AI@@@@@8
	DD	FLAT:??_R3?$ScriptRegistrant@VSUR_Chinook_AI@@@@8
rdata$r	ENDS
;	COMDAT ??_R1A@?0A@EA@?$ScriptRegistrant@VSUR_Orca_AI@@@@8
rdata$r	SEGMENT
??_R1A@?0A@EA@?$ScriptRegistrant@VSUR_Orca_AI@@@@8 DD FLAT:??_R0?AV?$ScriptRegistrant@VSUR_Orca_AI@@@@@8 ; ScriptRegistrant<SUR_Orca_AI>::`RTTI Base Class Descriptor at (0,-1,0,64)'
	DD	01H
	DD	00H
	DD	0ffffffffH
	DD	00H
	DD	040H
	DD	FLAT:??_R3?$ScriptRegistrant@VSUR_Orca_AI@@@@8
rdata$r	ENDS
;	COMDAT ??_R2?$ScriptRegistrant@VSUR_Orca_AI@@@@8
rdata$r	SEGMENT
??_R2?$ScriptRegistrant@VSUR_Orca_AI@@@@8 DD FLAT:??_R1A@?0A@EA@?$ScriptRegistrant@VSUR_Orca_AI@@@@8 ; ScriptRegistrant<SUR_Orca_AI>::`RTTI Base Class Array'
	DD	FLAT:??_R1A@?0A@EA@ScriptFactory@@8
rdata$r	ENDS
;	COMDAT ??_R3?$ScriptRegistrant@VSUR_Orca_AI@@@@8
rdata$r	SEGMENT
??_R3?$ScriptRegistrant@VSUR_Orca_AI@@@@8 DD 00H	; ScriptRegistrant<SUR_Orca_AI>::`RTTI Class Hierarchy Descriptor'
	DD	00H
	DD	02H
	DD	FLAT:??_R2?$ScriptRegistrant@VSUR_Orca_AI@@@@8
rdata$r	ENDS
;	COMDAT ??_R0?AV?$ScriptRegistrant@VSUR_Orca_AI@@@@@8
_DATA	SEGMENT
??_R0?AV?$ScriptRegistrant@VSUR_Orca_AI@@@@@8 DD FLAT:??_7type_info@@6B@ ; ScriptRegistrant<SUR_Orca_AI> `RTTI Type Descriptor'
	DD	00H
	DB	'.?AV?$ScriptRegistrant@VSUR_Orca_AI@@@@', 00H
_DATA	ENDS
;	COMDAT ??_R4?$ScriptRegistrant@VSUR_Orca_AI@@@@6B@
rdata$r	SEGMENT
??_R4?$ScriptRegistrant@VSUR_Orca_AI@@@@6B@ DD 00H	; ScriptRegistrant<SUR_Orca_AI>::`RTTI Complete Object Locator'
	DD	00H
	DD	00H
	DD	FLAT:??_R0?AV?$ScriptRegistrant@VSUR_Orca_AI@@@@@8
	DD	FLAT:??_R3?$ScriptRegistrant@VSUR_Orca_AI@@@@8
rdata$r	ENDS
;	COMDAT ??_R1A@?0A@EA@?$ScriptRegistrant@VSUR_APC_AI@@@@8
rdata$r	SEGMENT
??_R1A@?0A@EA@?$ScriptRegistrant@VSUR_APC_AI@@@@8 DD FLAT:??_R0?AV?$ScriptRegistrant@VSUR_APC_AI@@@@@8 ; ScriptRegistrant<SUR_APC_AI>::`RTTI Base Class Descriptor at (0,-1,0,64)'
	DD	01H
	DD	00H
	DD	0ffffffffH
	DD	00H
	DD	040H
	DD	FLAT:??_R3?$ScriptRegistrant@VSUR_APC_AI@@@@8
rdata$r	ENDS
;	COMDAT ??_R2?$ScriptRegistrant@VSUR_APC_AI@@@@8
rdata$r	SEGMENT
??_R2?$ScriptRegistrant@VSUR_APC_AI@@@@8 DD FLAT:??_R1A@?0A@EA@?$ScriptRegistrant@VSUR_APC_AI@@@@8 ; ScriptRegistrant<SUR_APC_AI>::`RTTI Base Class Array'
	DD	FLAT:??_R1A@?0A@EA@ScriptFactory@@8
rdata$r	ENDS
;	COMDAT ??_R3?$ScriptRegistrant@VSUR_APC_AI@@@@8
rdata$r	SEGMENT
??_R3?$ScriptRegistrant@VSUR_APC_AI@@@@8 DD 00H		; ScriptRegistrant<SUR_APC_AI>::`RTTI Class Hierarchy Descriptor'
	DD	00H
	DD	02H
	DD	FLAT:??_R2?$ScriptRegistrant@VSUR_APC_AI@@@@8
rdata$r	ENDS
;	COMDAT ??_R0?AV?$ScriptRegistrant@VSUR_APC_AI@@@@@8
_DATA	SEGMENT
??_R0?AV?$ScriptRegistrant@VSUR_APC_AI@@@@@8 DD FLAT:??_7type_info@@6B@ ; ScriptRegistrant<SUR_APC_AI> `RTTI Type Descriptor'
	DD	00H
	DB	'.?AV?$ScriptRegistrant@VSUR_APC_AI@@@@', 00H
_DATA	ENDS
;	COMDAT ??_R4?$ScriptRegistrant@VSUR_APC_AI@@@@6B@
rdata$r	SEGMENT
??_R4?$ScriptRegistrant@VSUR_APC_AI@@@@6B@ DD 00H	; ScriptRegistrant<SUR_APC_AI>::`RTTI Complete Object Locator'
	DD	00H
	DD	00H
	DD	FLAT:??_R0?AV?$ScriptRegistrant@VSUR_APC_AI@@@@@8
	DD	FLAT:??_R3?$ScriptRegistrant@VSUR_APC_AI@@@@8
rdata$r	ENDS
;	COMDAT ??_R1A@?0A@EA@?$ScriptRegistrant@VSUR_New_PT_Reciever@@@@8
rdata$r	SEGMENT
??_R1A@?0A@EA@?$ScriptRegistrant@VSUR_New_PT_Reciever@@@@8 DD FLAT:??_R0?AV?$ScriptRegistrant@VSUR_New_PT_Reciever@@@@@8 ; ScriptRegistrant<SUR_New_PT_Reciever>::`RTTI Base Class Descriptor at (0,-1,0,64)'
	DD	01H
	DD	00H
	DD	0ffffffffH
	DD	00H
	DD	040H
	DD	FLAT:??_R3?$ScriptRegistrant@VSUR_New_PT_Reciever@@@@8
rdata$r	ENDS
;	COMDAT ??_R2?$ScriptRegistrant@VSUR_New_PT_Reciever@@@@8
rdata$r	SEGMENT
??_R2?$ScriptRegistrant@VSUR_New_PT_Reciever@@@@8 DD FLAT:??_R1A@?0A@EA@?$ScriptRegistrant@VSUR_New_PT_Reciever@@@@8 ; ScriptRegistrant<SUR_New_PT_Reciever>::`RTTI Base Class Array'
	DD	FLAT:??_R1A@?0A@EA@ScriptFactory@@8
rdata$r	ENDS
;	COMDAT ??_R3?$ScriptRegistrant@VSUR_New_PT_Reciever@@@@8
rdata$r	SEGMENT
??_R3?$ScriptRegistrant@VSUR_New_PT_Reciever@@@@8 DD 00H ; ScriptRegistrant<SUR_New_PT_Reciever>::`RTTI Class Hierarchy Descriptor'
	DD	00H
	DD	02H
	DD	FLAT:??_R2?$ScriptRegistrant@VSUR_New_PT_Reciever@@@@8
rdata$r	ENDS
;	COMDAT ??_R0?AV?$ScriptRegistrant@VSUR_New_PT_Reciever@@@@@8
_DATA	SEGMENT
??_R0?AV?$ScriptRegistrant@VSUR_New_PT_Reciever@@@@@8 DD FLAT:??_7type_info@@6B@ ; ScriptRegistrant<SUR_New_PT_Reciever> `RTTI Type Descriptor'
	DD	00H
	DB	'.?AV?$ScriptRegistrant@VSUR_New_PT_Reciever@@@@', 00H
_DATA	ENDS
;	COMDAT ??_R4?$ScriptRegistrant@VSUR_New_PT_Reciever@@@@6B@
rdata$r	SEGMENT
??_R4?$ScriptRegistrant@VSUR_New_PT_Reciever@@@@6B@ DD 00H ; ScriptRegistrant<SUR_New_PT_Reciever>::`RTTI Complete Object Locator'
	DD	00H
	DD	00H
	DD	FLAT:??_R0?AV?$ScriptRegistrant@VSUR_New_PT_Reciever@@@@@8
	DD	FLAT:??_R3?$ScriptRegistrant@VSUR_New_PT_Reciever@@@@8
rdata$r	ENDS
;	COMDAT ??_R1A@?0A@EA@?$ScriptRegistrant@VSUR_New_PT@@@@8
rdata$r	SEGMENT
??_R1A@?0A@EA@?$ScriptRegistrant@VSUR_New_PT@@@@8 DD FLAT:??_R0?AV?$ScriptRegistrant@VSUR_New_PT@@@@@8 ; ScriptRegistrant<SUR_New_PT>::`RTTI Base Class Descriptor at (0,-1,0,64)'
	DD	01H
	DD	00H
	DD	0ffffffffH
	DD	00H
	DD	040H
	DD	FLAT:??_R3?$ScriptRegistrant@VSUR_New_PT@@@@8
rdata$r	ENDS
;	COMDAT ??_R2?$ScriptRegistrant@VSUR_New_PT@@@@8
rdata$r	SEGMENT
??_R2?$ScriptRegistrant@VSUR_New_PT@@@@8 DD FLAT:??_R1A@?0A@EA@?$ScriptRegistrant@VSUR_New_PT@@@@8 ; ScriptRegistrant<SUR_New_PT>::`RTTI Base Class Array'
	DD	FLAT:??_R1A@?0A@EA@ScriptFactory@@8
rdata$r	ENDS
;	COMDAT ??_R3?$ScriptRegistrant@VSUR_New_PT@@@@8
rdata$r	SEGMENT
??_R3?$ScriptRegistrant@VSUR_New_PT@@@@8 DD 00H		; ScriptRegistrant<SUR_New_PT>::`RTTI Class Hierarchy Descriptor'
	DD	00H
	DD	02H
	DD	FLAT:??_R2?$ScriptRegistrant@VSUR_New_PT@@@@8
rdata$r	ENDS
;	COMDAT ??_R0?AV?$ScriptRegistrant@VSUR_New_PT@@@@@8
_DATA	SEGMENT
??_R0?AV?$ScriptRegistrant@VSUR_New_PT@@@@@8 DD FLAT:??_7type_info@@6B@ ; ScriptRegistrant<SUR_New_PT> `RTTI Type Descriptor'
	DD	00H
	DB	'.?AV?$ScriptRegistrant@VSUR_New_PT@@@@', 00H
_DATA	ENDS
;	COMDAT ??_R4?$ScriptRegistrant@VSUR_New_PT@@@@6B@
rdata$r	SEGMENT
??_R4?$ScriptRegistrant@VSUR_New_PT@@@@6B@ DD 00H	; ScriptRegistrant<SUR_New_PT>::`RTTI Complete Object Locator'
	DD	00H
	DD	00H
	DD	FLAT:??_R0?AV?$ScriptRegistrant@VSUR_New_PT@@@@@8
	DD	FLAT:??_R3?$ScriptRegistrant@VSUR_New_PT@@@@8
rdata$r	ENDS
;	COMDAT ??_R1A@?0A@EA@?$ScriptRegistrant@VSUR_Obj_Destroyer@@@@8
rdata$r	SEGMENT
??_R1A@?0A@EA@?$ScriptRegistrant@VSUR_Obj_Destroyer@@@@8 DD FLAT:??_R0?AV?$ScriptRegistrant@VSUR_Obj_Destroyer@@@@@8 ; ScriptRegistrant<SUR_Obj_Destroyer>::`RTTI Base Class Descriptor at (0,-1,0,64)'
	DD	01H
	DD	00H
	DD	0ffffffffH
	DD	00H
	DD	040H
	DD	FLAT:??_R3?$ScriptRegistrant@VSUR_Obj_Destroyer@@@@8
rdata$r	ENDS
;	COMDAT ??_R2?$ScriptRegistrant@VSUR_Obj_Destroyer@@@@8
rdata$r	SEGMENT
??_R2?$ScriptRegistrant@VSUR_Obj_Destroyer@@@@8 DD FLAT:??_R1A@?0A@EA@?$ScriptRegistrant@VSUR_Obj_Destroyer@@@@8 ; ScriptRegistrant<SUR_Obj_Destroyer>::`RTTI Base Class Array'
	DD	FLAT:??_R1A@?0A@EA@ScriptFactory@@8
rdata$r	ENDS
;	COMDAT ??_R3?$ScriptRegistrant@VSUR_Obj_Destroyer@@@@8
rdata$r	SEGMENT
??_R3?$ScriptRegistrant@VSUR_Obj_Destroyer@@@@8 DD 00H	; ScriptRegistrant<SUR_Obj_Destroyer>::`RTTI Class Hierarchy Descriptor'
	DD	00H
	DD	02H
	DD	FLAT:??_R2?$ScriptRegistrant@VSUR_Obj_Destroyer@@@@8
rdata$r	ENDS
;	COMDAT ??_R0?AV?$ScriptRegistrant@VSUR_Obj_Destroyer@@@@@8
_DATA	SEGMENT
??_R0?AV?$ScriptRegistrant@VSUR_Obj_Destroyer@@@@@8 DD FLAT:??_7type_info@@6B@ ; ScriptRegistrant<SUR_Obj_Destroyer> `RTTI Type Descriptor'
	DD	00H
	DB	'.?AV?$ScriptRegistrant@VSUR_Obj_Destroyer@@@@', 00H
_DATA	ENDS
;	COMDAT ??_R4?$ScriptRegistrant@VSUR_Obj_Destroyer@@@@6B@
rdata$r	SEGMENT
??_R4?$ScriptRegistrant@VSUR_Obj_Destroyer@@@@6B@ DD 00H ; ScriptRegistrant<SUR_Obj_Destroyer>::`RTTI Complete Object Locator'
	DD	00H
	DD	00H
	DD	FLAT:??_R0?AV?$ScriptRegistrant@VSUR_Obj_Destroyer@@@@@8
	DD	FLAT:??_R3?$ScriptRegistrant@VSUR_Obj_Destroyer@@@@8
rdata$r	ENDS
;	COMDAT ??_R1A@?0A@EA@?$ScriptRegistrant@VSUR_NHB_Soldier@@@@8
rdata$r	SEGMENT
??_R1A@?0A@EA@?$ScriptRegistrant@VSUR_NHB_Soldier@@@@8 DD FLAT:??_R0?AV?$ScriptRegistrant@VSUR_NHB_Soldier@@@@@8 ; ScriptRegistrant<SUR_NHB_Soldier>::`RTTI Base Class Descriptor at (0,-1,0,64)'
	DD	01H
	DD	00H
	DD	0ffffffffH
	DD	00H
	DD	040H
	DD	FLAT:??_R3?$ScriptRegistrant@VSUR_NHB_Soldier@@@@8
rdata$r	ENDS
;	COMDAT ??_R2?$ScriptRegistrant@VSUR_NHB_Soldier@@@@8
rdata$r	SEGMENT
??_R2?$ScriptRegistrant@VSUR_NHB_Soldier@@@@8 DD FLAT:??_R1A@?0A@EA@?$ScriptRegistrant@VSUR_NHB_Soldier@@@@8 ; ScriptRegistrant<SUR_NHB_Soldier>::`RTTI Base Class Array'
	DD	FLAT:??_R1A@?0A@EA@ScriptFactory@@8
rdata$r	ENDS
;	COMDAT ??_R3?$ScriptRegistrant@VSUR_NHB_Soldier@@@@8
rdata$r	SEGMENT
??_R3?$ScriptRegistrant@VSUR_NHB_Soldier@@@@8 DD 00H	; ScriptRegistrant<SUR_NHB_Soldier>::`RTTI Class Hierarchy Descriptor'
	DD	00H
	DD	02H
	DD	FLAT:??_R2?$ScriptRegistrant@VSUR_NHB_Soldier@@@@8
rdata$r	ENDS
;	COMDAT ??_R0?AV?$ScriptRegistrant@VSUR_NHB_Soldier@@@@@8
_DATA	SEGMENT
??_R0?AV?$ScriptRegistrant@VSUR_NHB_Soldier@@@@@8 DD FLAT:??_7type_info@@6B@ ; ScriptRegistrant<SUR_NHB_Soldier> `RTTI Type Descriptor'
	DD	00H
	DB	'.?AV?$ScriptRegistrant@VSUR_NHB_Soldier@@@@', 00H
_DATA	ENDS
;	COMDAT ??_R4?$ScriptRegistrant@VSUR_NHB_Soldier@@@@6B@
rdata$r	SEGMENT
??_R4?$ScriptRegistrant@VSUR_NHB_Soldier@@@@6B@ DD 00H	; ScriptRegistrant<SUR_NHB_Soldier>::`RTTI Complete Object Locator'
	DD	00H
	DD	00H
	DD	FLAT:??_R0?AV?$ScriptRegistrant@VSUR_NHB_Soldier@@@@@8
	DD	FLAT:??_R3?$ScriptRegistrant@VSUR_NHB_Soldier@@@@8
rdata$r	ENDS
;	COMDAT ??_R1A@?0A@EA@?$ScriptRegistrant@VSUR_NHB@@@@8
rdata$r	SEGMENT
??_R1A@?0A@EA@?$ScriptRegistrant@VSUR_NHB@@@@8 DD FLAT:??_R0?AV?$ScriptRegistrant@VSUR_NHB@@@@@8 ; ScriptRegistrant<SUR_NHB>::`RTTI Base Class Descriptor at (0,-1,0,64)'
	DD	01H
	DD	00H
	DD	0ffffffffH
	DD	00H
	DD	040H
	DD	FLAT:??_R3?$ScriptRegistrant@VSUR_NHB@@@@8
rdata$r	ENDS
;	COMDAT ??_R2?$ScriptRegistrant@VSUR_NHB@@@@8
rdata$r	SEGMENT
??_R2?$ScriptRegistrant@VSUR_NHB@@@@8 DD FLAT:??_R1A@?0A@EA@?$ScriptRegistrant@VSUR_NHB@@@@8 ; ScriptRegistrant<SUR_NHB>::`RTTI Base Class Array'
	DD	FLAT:??_R1A@?0A@EA@ScriptFactory@@8
rdata$r	ENDS
;	COMDAT ??_R3?$ScriptRegistrant@VSUR_NHB@@@@8
rdata$r	SEGMENT
??_R3?$ScriptRegistrant@VSUR_NHB@@@@8 DD 00H		; ScriptRegistrant<SUR_NHB>::`RTTI Class Hierarchy Descriptor'
	DD	00H
	DD	02H
	DD	FLAT:??_R2?$ScriptRegistrant@VSUR_NHB@@@@8
rdata$r	ENDS
;	COMDAT ??_R0?AV?$ScriptRegistrant@VSUR_NHB@@@@@8
_DATA	SEGMENT
??_R0?AV?$ScriptRegistrant@VSUR_NHB@@@@@8 DD FLAT:??_7type_info@@6B@ ; ScriptRegistrant<SUR_NHB> `RTTI Type Descriptor'
	DD	00H
	DB	'.?AV?$ScriptRegistrant@VSUR_NHB@@@@', 00H
_DATA	ENDS
;	COMDAT ??_R4?$ScriptRegistrant@VSUR_NHB@@@@6B@
rdata$r	SEGMENT
??_R4?$ScriptRegistrant@VSUR_NHB@@@@6B@ DD 00H		; ScriptRegistrant<SUR_NHB>::`RTTI Complete Object Locator'
	DD	00H
	DD	00H
	DD	FLAT:??_R0?AV?$ScriptRegistrant@VSUR_NHB@@@@@8
	DD	FLAT:??_R3?$ScriptRegistrant@VSUR_NHB@@@@8
rdata$r	ENDS
;	COMDAT ??_R1A@?0A@EA@?$ScriptRegistrant@VSUR_MiniGen@@@@8
rdata$r	SEGMENT
??_R1A@?0A@EA@?$ScriptRegistrant@VSUR_MiniGen@@@@8 DD FLAT:??_R0?AV?$ScriptRegistrant@VSUR_MiniGen@@@@@8 ; ScriptRegistrant<SUR_MiniGen>::`RTTI Base Class Descriptor at (0,-1,0,64)'
	DD	01H
	DD	00H
	DD	0ffffffffH
	DD	00H
	DD	040H
	DD	FLAT:??_R3?$ScriptRegistrant@VSUR_MiniGen@@@@8
rdata$r	ENDS
;	COMDAT ??_R2?$ScriptRegistrant@VSUR_MiniGen@@@@8
rdata$r	SEGMENT
??_R2?$ScriptRegistrant@VSUR_MiniGen@@@@8 DD FLAT:??_R1A@?0A@EA@?$ScriptRegistrant@VSUR_MiniGen@@@@8 ; ScriptRegistrant<SUR_MiniGen>::`RTTI Base Class Array'
	DD	FLAT:??_R1A@?0A@EA@ScriptFactory@@8
rdata$r	ENDS
;	COMDAT ??_R3?$ScriptRegistrant@VSUR_MiniGen@@@@8
rdata$r	SEGMENT
??_R3?$ScriptRegistrant@VSUR_MiniGen@@@@8 DD 00H	; ScriptRegistrant<SUR_MiniGen>::`RTTI Class Hierarchy Descriptor'
	DD	00H
	DD	02H
	DD	FLAT:??_R2?$ScriptRegistrant@VSUR_MiniGen@@@@8
rdata$r	ENDS
;	COMDAT ??_R0?AV?$ScriptRegistrant@VSUR_MiniGen@@@@@8
_DATA	SEGMENT
??_R0?AV?$ScriptRegistrant@VSUR_MiniGen@@@@@8 DD FLAT:??_7type_info@@6B@ ; ScriptRegistrant<SUR_MiniGen> `RTTI Type Descriptor'
	DD	00H
	DB	'.?AV?$ScriptRegistrant@VSUR_MiniGen@@@@', 00H
_DATA	ENDS
;	COMDAT ??_R4?$ScriptRegistrant@VSUR_MiniGen@@@@6B@
rdata$r	SEGMENT
??_R4?$ScriptRegistrant@VSUR_MiniGen@@@@6B@ DD 00H	; ScriptRegistrant<SUR_MiniGen>::`RTTI Complete Object Locator'
	DD	00H
	DD	00H
	DD	FLAT:??_R0?AV?$ScriptRegistrant@VSUR_MiniGen@@@@@8
	DD	FLAT:??_R3?$ScriptRegistrant@VSUR_MiniGen@@@@8
rdata$r	ENDS
;	COMDAT ??_R1A@?0A@EA@?$ScriptRegistrant@VSUR_Generator_Zone@@@@8
rdata$r	SEGMENT
??_R1A@?0A@EA@?$ScriptRegistrant@VSUR_Generator_Zone@@@@8 DD FLAT:??_R0?AV?$ScriptRegistrant@VSUR_Generator_Zone@@@@@8 ; ScriptRegistrant<SUR_Generator_Zone>::`RTTI Base Class Descriptor at (0,-1,0,64)'
	DD	01H
	DD	00H
	DD	0ffffffffH
	DD	00H
	DD	040H
	DD	FLAT:??_R3?$ScriptRegistrant@VSUR_Generator_Zone@@@@8
rdata$r	ENDS
;	COMDAT ??_R2?$ScriptRegistrant@VSUR_Generator_Zone@@@@8
rdata$r	SEGMENT
??_R2?$ScriptRegistrant@VSUR_Generator_Zone@@@@8 DD FLAT:??_R1A@?0A@EA@?$ScriptRegistrant@VSUR_Generator_Zone@@@@8 ; ScriptRegistrant<SUR_Generator_Zone>::`RTTI Base Class Array'
	DD	FLAT:??_R1A@?0A@EA@ScriptFactory@@8
rdata$r	ENDS
;	COMDAT ??_R3?$ScriptRegistrant@VSUR_Generator_Zone@@@@8
rdata$r	SEGMENT
??_R3?$ScriptRegistrant@VSUR_Generator_Zone@@@@8 DD 00H	; ScriptRegistrant<SUR_Generator_Zone>::`RTTI Class Hierarchy Descriptor'
	DD	00H
	DD	02H
	DD	FLAT:??_R2?$ScriptRegistrant@VSUR_Generator_Zone@@@@8
rdata$r	ENDS
;	COMDAT ??_R0?AV?$ScriptRegistrant@VSUR_Generator_Zone@@@@@8
_DATA	SEGMENT
??_R0?AV?$ScriptRegistrant@VSUR_Generator_Zone@@@@@8 DD FLAT:??_7type_info@@6B@ ; ScriptRegistrant<SUR_Generator_Zone> `RTTI Type Descriptor'
	DD	00H
	DB	'.?AV?$ScriptRegistrant@VSUR_Generator_Zone@@@@', 00H
_DATA	ENDS
;	COMDAT ??_R4?$ScriptRegistrant@VSUR_Generator_Zone@@@@6B@
rdata$r	SEGMENT
??_R4?$ScriptRegistrant@VSUR_Generator_Zone@@@@6B@ DD 00H ; ScriptRegistrant<SUR_Generator_Zone>::`RTTI Complete Object Locator'
	DD	00H
	DD	00H
	DD	FLAT:??_R0?AV?$ScriptRegistrant@VSUR_Generator_Zone@@@@@8
	DD	FLAT:??_R3?$ScriptRegistrant@VSUR_Generator_Zone@@@@8
rdata$r	ENDS
;	COMDAT ??_R1A@?0A@EA@?$ScriptRegistrant@VSUR_Spawn_Delay@@@@8
rdata$r	SEGMENT
??_R1A@?0A@EA@?$ScriptRegistrant@VSUR_Spawn_Delay@@@@8 DD FLAT:??_R0?AV?$ScriptRegistrant@VSUR_Spawn_Delay@@@@@8 ; ScriptRegistrant<SUR_Spawn_Delay>::`RTTI Base Class Descriptor at (0,-1,0,64)'
	DD	01H
	DD	00H
	DD	0ffffffffH
	DD	00H
	DD	040H
	DD	FLAT:??_R3?$ScriptRegistrant@VSUR_Spawn_Delay@@@@8
rdata$r	ENDS
;	COMDAT ??_R2?$ScriptRegistrant@VSUR_Spawn_Delay@@@@8
rdata$r	SEGMENT
??_R2?$ScriptRegistrant@VSUR_Spawn_Delay@@@@8 DD FLAT:??_R1A@?0A@EA@?$ScriptRegistrant@VSUR_Spawn_Delay@@@@8 ; ScriptRegistrant<SUR_Spawn_Delay>::`RTTI Base Class Array'
	DD	FLAT:??_R1A@?0A@EA@ScriptFactory@@8
rdata$r	ENDS
;	COMDAT ??_R3?$ScriptRegistrant@VSUR_Spawn_Delay@@@@8
rdata$r	SEGMENT
??_R3?$ScriptRegistrant@VSUR_Spawn_Delay@@@@8 DD 00H	; ScriptRegistrant<SUR_Spawn_Delay>::`RTTI Class Hierarchy Descriptor'
	DD	00H
	DD	02H
	DD	FLAT:??_R2?$ScriptRegistrant@VSUR_Spawn_Delay@@@@8
rdata$r	ENDS
;	COMDAT ??_R0?AV?$ScriptRegistrant@VSUR_Spawn_Delay@@@@@8
_DATA	SEGMENT
??_R0?AV?$ScriptRegistrant@VSUR_Spawn_Delay@@@@@8 DD FLAT:??_7type_info@@6B@ ; ScriptRegistrant<SUR_Spawn_Delay> `RTTI Type Descriptor'
	DD	00H
	DB	'.?AV?$ScriptRegistrant@VSUR_Spawn_Delay@@@@', 00H
_DATA	ENDS
;	COMDAT ??_R4?$ScriptRegistrant@VSUR_Spawn_Delay@@@@6B@
rdata$r	SEGMENT
??_R4?$ScriptRegistrant@VSUR_Spawn_Delay@@@@6B@ DD 00H	; ScriptRegistrant<SUR_Spawn_Delay>::`RTTI Complete Object Locator'
	DD	00H
	DD	00H
	DD	FLAT:??_R0?AV?$ScriptRegistrant@VSUR_Spawn_Delay@@@@@8
	DD	FLAT:??_R3?$ScriptRegistrant@VSUR_Spawn_Delay@@@@8
rdata$r	ENDS
;	COMDAT ??_R1A@?0A@EA@SUR_GrantPowerup_OnEntry@@8
rdata$r	SEGMENT
??_R1A@?0A@EA@SUR_GrantPowerup_OnEntry@@8 DD FLAT:??_R0?AVSUR_GrantPowerup_OnEntry@@@8 ; SUR_GrantPowerup_OnEntry::`RTTI Base Class Descriptor at (0,-1,0,64)'
	DD	03H
	DD	00H
	DD	0ffffffffH
	DD	00H
	DD	040H
	DD	FLAT:??_R3SUR_GrantPowerup_OnEntry@@8
rdata$r	ENDS
;	COMDAT ??_R2SUR_GrantPowerup_OnEntry@@8
rdata$r	SEGMENT
??_R2SUR_GrantPowerup_OnEntry@@8 DD FLAT:??_R1A@?0A@EA@SUR_GrantPowerup_OnEntry@@8 ; SUR_GrantPowerup_OnEntry::`RTTI Base Class Array'
	DD	FLAT:??_R1A@?0A@EA@ScriptImpClass@@8
	DD	FLAT:??_R1A@?0A@EA@ScriptClass@@8
	DD	FLAT:??_R1A@?0A@EA@GameObjObserverClass@@8
rdata$r	ENDS
;	COMDAT ??_R3SUR_GrantPowerup_OnEntry@@8
rdata$r	SEGMENT
??_R3SUR_GrantPowerup_OnEntry@@8 DD 00H			; SUR_GrantPowerup_OnEntry::`RTTI Class Hierarchy Descriptor'
	DD	00H
	DD	04H
	DD	FLAT:??_R2SUR_GrantPowerup_OnEntry@@8
rdata$r	ENDS
;	COMDAT ??_R0?AVSUR_GrantPowerup_OnEntry@@@8
_DATA	SEGMENT
??_R0?AVSUR_GrantPowerup_OnEntry@@@8 DD FLAT:??_7type_info@@6B@ ; SUR_GrantPowerup_OnEntry `RTTI Type Descriptor'
	DD	00H
	DB	'.?AVSUR_GrantPowerup_OnEntry@@', 00H
_DATA	ENDS
;	COMDAT ??_R4SUR_GrantPowerup_OnEntry@@6B@
rdata$r	SEGMENT
??_R4SUR_GrantPowerup_OnEntry@@6B@ DD 00H		; SUR_GrantPowerup_OnEntry::`RTTI Complete Object Locator'
	DD	00H
	DD	00H
	DD	FLAT:??_R0?AVSUR_GrantPowerup_OnEntry@@@8
	DD	FLAT:??_R3SUR_GrantPowerup_OnEntry@@8
rdata$r	ENDS
;	COMDAT ??_R1A@?0A@EA@SUR_Timed_Death@@8
rdata$r	SEGMENT
??_R1A@?0A@EA@SUR_Timed_Death@@8 DD FLAT:??_R0?AVSUR_Timed_Death@@@8 ; SUR_Timed_Death::`RTTI Base Class Descriptor at (0,-1,0,64)'
	DD	03H
	DD	00H
	DD	0ffffffffH
	DD	00H
	DD	040H
	DD	FLAT:??_R3SUR_Timed_Death@@8
rdata$r	ENDS
;	COMDAT ??_R2SUR_Timed_Death@@8
rdata$r	SEGMENT
??_R2SUR_Timed_Death@@8 DD FLAT:??_R1A@?0A@EA@SUR_Timed_Death@@8 ; SUR_Timed_Death::`RTTI Base Class Array'
	DD	FLAT:??_R1A@?0A@EA@ScriptImpClass@@8
	DD	FLAT:??_R1A@?0A@EA@ScriptClass@@8
	DD	FLAT:??_R1A@?0A@EA@GameObjObserverClass@@8
rdata$r	ENDS
;	COMDAT ??_R3SUR_Timed_Death@@8
rdata$r	SEGMENT
??_R3SUR_Timed_Death@@8 DD 00H				; SUR_Timed_Death::`RTTI Class Hierarchy Descriptor'
	DD	00H
	DD	04H
	DD	FLAT:??_R2SUR_Timed_Death@@8
rdata$r	ENDS
;	COMDAT ??_R0?AVSUR_Timed_Death@@@8
_DATA	SEGMENT
??_R0?AVSUR_Timed_Death@@@8 DD FLAT:??_7type_info@@6B@	; SUR_Timed_Death `RTTI Type Descriptor'
	DD	00H
	DB	'.?AVSUR_Timed_Death@@', 00H
_DATA	ENDS
;	COMDAT ??_R4SUR_Timed_Death@@6B@
rdata$r	SEGMENT
??_R4SUR_Timed_Death@@6B@ DD 00H			; SUR_Timed_Death::`RTTI Complete Object Locator'
	DD	00H
	DD	00H
	DD	FLAT:??_R0?AVSUR_Timed_Death@@@8
	DD	FLAT:??_R3SUR_Timed_Death@@8
rdata$r	ENDS
;	COMDAT ??_R1A@?0A@EA@SUR_Dep_Turret@@8
rdata$r	SEGMENT
??_R1A@?0A@EA@SUR_Dep_Turret@@8 DD FLAT:??_R0?AVSUR_Dep_Turret@@@8 ; SUR_Dep_Turret::`RTTI Base Class Descriptor at (0,-1,0,64)'
	DD	03H
	DD	00H
	DD	0ffffffffH
	DD	00H
	DD	040H
	DD	FLAT:??_R3SUR_Dep_Turret@@8
rdata$r	ENDS
;	COMDAT ??_R2SUR_Dep_Turret@@8
rdata$r	SEGMENT
??_R2SUR_Dep_Turret@@8 DD FLAT:??_R1A@?0A@EA@SUR_Dep_Turret@@8 ; SUR_Dep_Turret::`RTTI Base Class Array'
	DD	FLAT:??_R1A@?0A@EA@ScriptImpClass@@8
	DD	FLAT:??_R1A@?0A@EA@ScriptClass@@8
	DD	FLAT:??_R1A@?0A@EA@GameObjObserverClass@@8
rdata$r	ENDS
;	COMDAT ??_R3SUR_Dep_Turret@@8
rdata$r	SEGMENT
??_R3SUR_Dep_Turret@@8 DD 00H				; SUR_Dep_Turret::`RTTI Class Hierarchy Descriptor'
	DD	00H
	DD	04H
	DD	FLAT:??_R2SUR_Dep_Turret@@8
rdata$r	ENDS
;	COMDAT ??_R0?AVSUR_Dep_Turret@@@8
_DATA	SEGMENT
??_R0?AVSUR_Dep_Turret@@@8 DD FLAT:??_7type_info@@6B@	; SUR_Dep_Turret `RTTI Type Descriptor'
	DD	00H
	DB	'.?AVSUR_Dep_Turret@@', 00H
_DATA	ENDS
;	COMDAT ??_R4SUR_Dep_Turret@@6B@
rdata$r	SEGMENT
??_R4SUR_Dep_Turret@@6B@ DD 00H				; SUR_Dep_Turret::`RTTI Complete Object Locator'
	DD	00H
	DD	00H
	DD	FLAT:??_R0?AVSUR_Dep_Turret@@@8
	DD	FLAT:??_R3SUR_Dep_Turret@@8
rdata$r	ENDS
;	COMDAT ??_R1A@?0A@EA@SUR_Chinook_AI@@8
rdata$r	SEGMENT
??_R1A@?0A@EA@SUR_Chinook_AI@@8 DD FLAT:??_R0?AVSUR_Chinook_AI@@@8 ; SUR_Chinook_AI::`RTTI Base Class Descriptor at (0,-1,0,64)'
	DD	03H
	DD	00H
	DD	0ffffffffH
	DD	00H
	DD	040H
	DD	FLAT:??_R3SUR_Chinook_AI@@8
rdata$r	ENDS
;	COMDAT ??_R2SUR_Chinook_AI@@8
rdata$r	SEGMENT
??_R2SUR_Chinook_AI@@8 DD FLAT:??_R1A@?0A@EA@SUR_Chinook_AI@@8 ; SUR_Chinook_AI::`RTTI Base Class Array'
	DD	FLAT:??_R1A@?0A@EA@ScriptImpClass@@8
	DD	FLAT:??_R1A@?0A@EA@ScriptClass@@8
	DD	FLAT:??_R1A@?0A@EA@GameObjObserverClass@@8
rdata$r	ENDS
;	COMDAT ??_R3SUR_Chinook_AI@@8
rdata$r	SEGMENT
??_R3SUR_Chinook_AI@@8 DD 00H				; SUR_Chinook_AI::`RTTI Class Hierarchy Descriptor'
	DD	00H
	DD	04H
	DD	FLAT:??_R2SUR_Chinook_AI@@8
rdata$r	ENDS
;	COMDAT ??_R0?AVSUR_Chinook_AI@@@8
_DATA	SEGMENT
??_R0?AVSUR_Chinook_AI@@@8 DD FLAT:??_7type_info@@6B@	; SUR_Chinook_AI `RTTI Type Descriptor'
	DD	00H
	DB	'.?AVSUR_Chinook_AI@@', 00H
_DATA	ENDS
;	COMDAT ??_R4SUR_Chinook_AI@@6B@
rdata$r	SEGMENT
??_R4SUR_Chinook_AI@@6B@ DD 00H				; SUR_Chinook_AI::`RTTI Complete Object Locator'
	DD	00H
	DD	00H
	DD	FLAT:??_R0?AVSUR_Chinook_AI@@@8
	DD	FLAT:??_R3SUR_Chinook_AI@@8
rdata$r	ENDS
;	COMDAT ??_R1A@?0A@EA@SUR_Orca_AI@@8
rdata$r	SEGMENT
??_R1A@?0A@EA@SUR_Orca_AI@@8 DD FLAT:??_R0?AVSUR_Orca_AI@@@8 ; SUR_Orca_AI::`RTTI Base Class Descriptor at (0,-1,0,64)'
	DD	03H
	DD	00H
	DD	0ffffffffH
	DD	00H
	DD	040H
	DD	FLAT:??_R3SUR_Orca_AI@@8
rdata$r	ENDS
;	COMDAT ??_R2SUR_Orca_AI@@8
rdata$r	SEGMENT
??_R2SUR_Orca_AI@@8 DD FLAT:??_R1A@?0A@EA@SUR_Orca_AI@@8 ; SUR_Orca_AI::`RTTI Base Class Array'
	DD	FLAT:??_R1A@?0A@EA@ScriptImpClass@@8
	DD	FLAT:??_R1A@?0A@EA@ScriptClass@@8
	DD	FLAT:??_R1A@?0A@EA@GameObjObserverClass@@8
rdata$r	ENDS
;	COMDAT ??_R3SUR_Orca_AI@@8
rdata$r	SEGMENT
??_R3SUR_Orca_AI@@8 DD 00H				; SUR_Orca_AI::`RTTI Class Hierarchy Descriptor'
	DD	00H
	DD	04H
	DD	FLAT:??_R2SUR_Orca_AI@@8
rdata$r	ENDS
;	COMDAT ??_R0?AVSUR_Orca_AI@@@8
_DATA	SEGMENT
??_R0?AVSUR_Orca_AI@@@8 DD FLAT:??_7type_info@@6B@	; SUR_Orca_AI `RTTI Type Descriptor'
	DD	00H
	DB	'.?AVSUR_Orca_AI@@', 00H
_DATA	ENDS
;	COMDAT ??_R4SUR_Orca_AI@@6B@
rdata$r	SEGMENT
??_R4SUR_Orca_AI@@6B@ DD 00H				; SUR_Orca_AI::`RTTI Complete Object Locator'
	DD	00H
	DD	00H
	DD	FLAT:??_R0?AVSUR_Orca_AI@@@8
	DD	FLAT:??_R3SUR_Orca_AI@@8
rdata$r	ENDS
;	COMDAT ??_R1A@?0A@EA@SUR_APC_AI@@8
rdata$r	SEGMENT
??_R1A@?0A@EA@SUR_APC_AI@@8 DD FLAT:??_R0?AVSUR_APC_AI@@@8 ; SUR_APC_AI::`RTTI Base Class Descriptor at (0,-1,0,64)'
	DD	03H
	DD	00H
	DD	0ffffffffH
	DD	00H
	DD	040H
	DD	FLAT:??_R3SUR_APC_AI@@8
rdata$r	ENDS
;	COMDAT ??_R2SUR_APC_AI@@8
rdata$r	SEGMENT
??_R2SUR_APC_AI@@8 DD FLAT:??_R1A@?0A@EA@SUR_APC_AI@@8	; SUR_APC_AI::`RTTI Base Class Array'
	DD	FLAT:??_R1A@?0A@EA@ScriptImpClass@@8
	DD	FLAT:??_R1A@?0A@EA@ScriptClass@@8
	DD	FLAT:??_R1A@?0A@EA@GameObjObserverClass@@8
rdata$r	ENDS
;	COMDAT ??_R3SUR_APC_AI@@8
rdata$r	SEGMENT
??_R3SUR_APC_AI@@8 DD 00H				; SUR_APC_AI::`RTTI Class Hierarchy Descriptor'
	DD	00H
	DD	04H
	DD	FLAT:??_R2SUR_APC_AI@@8
rdata$r	ENDS
;	COMDAT ??_R0?AVSUR_APC_AI@@@8
_DATA	SEGMENT
??_R0?AVSUR_APC_AI@@@8 DD FLAT:??_7type_info@@6B@	; SUR_APC_AI `RTTI Type Descriptor'
	DD	00H
	DB	'.?AVSUR_APC_AI@@', 00H
_DATA	ENDS
;	COMDAT ??_R4SUR_APC_AI@@6B@
rdata$r	SEGMENT
??_R4SUR_APC_AI@@6B@ DD 00H				; SUR_APC_AI::`RTTI Complete Object Locator'
	DD	00H
	DD	00H
	DD	FLAT:??_R0?AVSUR_APC_AI@@@8
	DD	FLAT:??_R3SUR_APC_AI@@8
rdata$r	ENDS
;	COMDAT ??_R1A@?0A@EA@SUR_New_PT_Reciever@@8
rdata$r	SEGMENT
??_R1A@?0A@EA@SUR_New_PT_Reciever@@8 DD FLAT:??_R0?AVSUR_New_PT_Reciever@@@8 ; SUR_New_PT_Reciever::`RTTI Base Class Descriptor at (0,-1,0,64)'
	DD	03H
	DD	00H
	DD	0ffffffffH
	DD	00H
	DD	040H
	DD	FLAT:??_R3SUR_New_PT_Reciever@@8
rdata$r	ENDS
;	COMDAT ??_R2SUR_New_PT_Reciever@@8
rdata$r	SEGMENT
??_R2SUR_New_PT_Reciever@@8 DD FLAT:??_R1A@?0A@EA@SUR_New_PT_Reciever@@8 ; SUR_New_PT_Reciever::`RTTI Base Class Array'
	DD	FLAT:??_R1A@?0A@EA@ScriptImpClass@@8
	DD	FLAT:??_R1A@?0A@EA@ScriptClass@@8
	DD	FLAT:??_R1A@?0A@EA@GameObjObserverClass@@8
rdata$r	ENDS
;	COMDAT ??_R3SUR_New_PT_Reciever@@8
rdata$r	SEGMENT
??_R3SUR_New_PT_Reciever@@8 DD 00H			; SUR_New_PT_Reciever::`RTTI Class Hierarchy Descriptor'
	DD	00H
	DD	04H
	DD	FLAT:??_R2SUR_New_PT_Reciever@@8
rdata$r	ENDS
;	COMDAT ??_R0?AVSUR_New_PT_Reciever@@@8
_DATA	SEGMENT
??_R0?AVSUR_New_PT_Reciever@@@8 DD FLAT:??_7type_info@@6B@ ; SUR_New_PT_Reciever `RTTI Type Descriptor'
	DD	00H
	DB	'.?AVSUR_New_PT_Reciever@@', 00H
_DATA	ENDS
;	COMDAT ??_R4SUR_New_PT_Reciever@@6B@
rdata$r	SEGMENT
??_R4SUR_New_PT_Reciever@@6B@ DD 00H			; SUR_New_PT_Reciever::`RTTI Complete Object Locator'
	DD	00H
	DD	00H
	DD	FLAT:??_R0?AVSUR_New_PT_Reciever@@@8
	DD	FLAT:??_R3SUR_New_PT_Reciever@@8
rdata$r	ENDS
;	COMDAT ??_R1A@?0A@EA@SUR_New_PT@@8
rdata$r	SEGMENT
??_R1A@?0A@EA@SUR_New_PT@@8 DD FLAT:??_R0?AVSUR_New_PT@@@8 ; SUR_New_PT::`RTTI Base Class Descriptor at (0,-1,0,64)'
	DD	03H
	DD	00H
	DD	0ffffffffH
	DD	00H
	DD	040H
	DD	FLAT:??_R3SUR_New_PT@@8
rdata$r	ENDS
;	COMDAT ??_R2SUR_New_PT@@8
rdata$r	SEGMENT
??_R2SUR_New_PT@@8 DD FLAT:??_R1A@?0A@EA@SUR_New_PT@@8	; SUR_New_PT::`RTTI Base Class Array'
	DD	FLAT:??_R1A@?0A@EA@ScriptImpClass@@8
	DD	FLAT:??_R1A@?0A@EA@ScriptClass@@8
	DD	FLAT:??_R1A@?0A@EA@GameObjObserverClass@@8
rdata$r	ENDS
;	COMDAT ??_R3SUR_New_PT@@8
rdata$r	SEGMENT
??_R3SUR_New_PT@@8 DD 00H				; SUR_New_PT::`RTTI Class Hierarchy Descriptor'
	DD	00H
	DD	04H
	DD	FLAT:??_R2SUR_New_PT@@8
rdata$r	ENDS
;	COMDAT ??_R0?AVSUR_New_PT@@@8
_DATA	SEGMENT
??_R0?AVSUR_New_PT@@@8 DD FLAT:??_7type_info@@6B@	; SUR_New_PT `RTTI Type Descriptor'
	DD	00H
	DB	'.?AVSUR_New_PT@@', 00H
_DATA	ENDS
;	COMDAT ??_R4SUR_New_PT@@6B@
rdata$r	SEGMENT
??_R4SUR_New_PT@@6B@ DD 00H				; SUR_New_PT::`RTTI Complete Object Locator'
	DD	00H
	DD	00H
	DD	FLAT:??_R0?AVSUR_New_PT@@@8
	DD	FLAT:??_R3SUR_New_PT@@8
rdata$r	ENDS
;	COMDAT ??_R1A@?0A@EA@SUR_Obj_Destroyer@@8
rdata$r	SEGMENT
??_R1A@?0A@EA@SUR_Obj_Destroyer@@8 DD FLAT:??_R0?AVSUR_Obj_Destroyer@@@8 ; SUR_Obj_Destroyer::`RTTI Base Class Descriptor at (0,-1,0,64)'
	DD	03H
	DD	00H
	DD	0ffffffffH
	DD	00H
	DD	040H
	DD	FLAT:??_R3SUR_Obj_Destroyer@@8
rdata$r	ENDS
;	COMDAT ??_R2SUR_Obj_Destroyer@@8
rdata$r	SEGMENT
??_R2SUR_Obj_Destroyer@@8 DD FLAT:??_R1A@?0A@EA@SUR_Obj_Destroyer@@8 ; SUR_Obj_Destroyer::`RTTI Base Class Array'
	DD	FLAT:??_R1A@?0A@EA@ScriptImpClass@@8
	DD	FLAT:??_R1A@?0A@EA@ScriptClass@@8
	DD	FLAT:??_R1A@?0A@EA@GameObjObserverClass@@8
rdata$r	ENDS
;	COMDAT ??_R3SUR_Obj_Destroyer@@8
rdata$r	SEGMENT
??_R3SUR_Obj_Destroyer@@8 DD 00H			; SUR_Obj_Destroyer::`RTTI Class Hierarchy Descriptor'
	DD	00H
	DD	04H
	DD	FLAT:??_R2SUR_Obj_Destroyer@@8
rdata$r	ENDS
;	COMDAT ??_R0?AVSUR_Obj_Destroyer@@@8
_DATA	SEGMENT
??_R0?AVSUR_Obj_Destroyer@@@8 DD FLAT:??_7type_info@@6B@ ; SUR_Obj_Destroyer `RTTI Type Descriptor'
	DD	00H
	DB	'.?AVSUR_Obj_Destroyer@@', 00H
_DATA	ENDS
;	COMDAT ??_R4SUR_Obj_Destroyer@@6B@
rdata$r	SEGMENT
??_R4SUR_Obj_Destroyer@@6B@ DD 00H			; SUR_Obj_Destroyer::`RTTI Complete Object Locator'
	DD	00H
	DD	00H
	DD	FLAT:??_R0?AVSUR_Obj_Destroyer@@@8
	DD	FLAT:??_R3SUR_Obj_Destroyer@@8
rdata$r	ENDS
;	COMDAT ??_R1A@?0A@EA@SUR_NHB_Soldier@@8
rdata$r	SEGMENT
??_R1A@?0A@EA@SUR_NHB_Soldier@@8 DD FLAT:??_R0?AVSUR_NHB_Soldier@@@8 ; SUR_NHB_Soldier::`RTTI Base Class Descriptor at (0,-1,0,64)'
	DD	03H
	DD	00H
	DD	0ffffffffH
	DD	00H
	DD	040H
	DD	FLAT:??_R3SUR_NHB_Soldier@@8
rdata$r	ENDS
;	COMDAT ??_R2SUR_NHB_Soldier@@8
rdata$r	SEGMENT
??_R2SUR_NHB_Soldier@@8 DD FLAT:??_R1A@?0A@EA@SUR_NHB_Soldier@@8 ; SUR_NHB_Soldier::`RTTI Base Class Array'
	DD	FLAT:??_R1A@?0A@EA@ScriptImpClass@@8
	DD	FLAT:??_R1A@?0A@EA@ScriptClass@@8
	DD	FLAT:??_R1A@?0A@EA@GameObjObserverClass@@8
rdata$r	ENDS
;	COMDAT ??_R3SUR_NHB_Soldier@@8
rdata$r	SEGMENT
??_R3SUR_NHB_Soldier@@8 DD 00H				; SUR_NHB_Soldier::`RTTI Class Hierarchy Descriptor'
	DD	00H
	DD	04H
	DD	FLAT:??_R2SUR_NHB_Soldier@@8
rdata$r	ENDS
;	COMDAT ??_R0?AVSUR_NHB_Soldier@@@8
_DATA	SEGMENT
??_R0?AVSUR_NHB_Soldier@@@8 DD FLAT:??_7type_info@@6B@	; SUR_NHB_Soldier `RTTI Type Descriptor'
	DD	00H
	DB	'.?AVSUR_NHB_Soldier@@', 00H
_DATA	ENDS
;	COMDAT ??_R4SUR_NHB_Soldier@@6B@
rdata$r	SEGMENT
??_R4SUR_NHB_Soldier@@6B@ DD 00H			; SUR_NHB_Soldier::`RTTI Complete Object Locator'
	DD	00H
	DD	00H
	DD	FLAT:??_R0?AVSUR_NHB_Soldier@@@8
	DD	FLAT:??_R3SUR_NHB_Soldier@@8
rdata$r	ENDS
;	COMDAT ??_R1A@?0A@EA@SUR_NHB@@8
rdata$r	SEGMENT
??_R1A@?0A@EA@SUR_NHB@@8 DD FLAT:??_R0?AVSUR_NHB@@@8	; SUR_NHB::`RTTI Base Class Descriptor at (0,-1,0,64)'
	DD	03H
	DD	00H
	DD	0ffffffffH
	DD	00H
	DD	040H
	DD	FLAT:??_R3SUR_NHB@@8
rdata$r	ENDS
;	COMDAT ??_R2SUR_NHB@@8
rdata$r	SEGMENT
??_R2SUR_NHB@@8 DD FLAT:??_R1A@?0A@EA@SUR_NHB@@8	; SUR_NHB::`RTTI Base Class Array'
	DD	FLAT:??_R1A@?0A@EA@ScriptImpClass@@8
	DD	FLAT:??_R1A@?0A@EA@ScriptClass@@8
	DD	FLAT:??_R1A@?0A@EA@GameObjObserverClass@@8
rdata$r	ENDS
;	COMDAT ??_R3SUR_NHB@@8
rdata$r	SEGMENT
??_R3SUR_NHB@@8 DD 00H					; SUR_NHB::`RTTI Class Hierarchy Descriptor'
	DD	00H
	DD	04H
	DD	FLAT:??_R2SUR_NHB@@8
rdata$r	ENDS
;	COMDAT ??_R0?AVSUR_NHB@@@8
_DATA	SEGMENT
??_R0?AVSUR_NHB@@@8 DD FLAT:??_7type_info@@6B@		; SUR_NHB `RTTI Type Descriptor'
	DD	00H
	DB	'.?AVSUR_NHB@@', 00H
_DATA	ENDS
;	COMDAT ??_R4SUR_NHB@@6B@
rdata$r	SEGMENT
??_R4SUR_NHB@@6B@ DD 00H				; SUR_NHB::`RTTI Complete Object Locator'
	DD	00H
	DD	00H
	DD	FLAT:??_R0?AVSUR_NHB@@@8
	DD	FLAT:??_R3SUR_NHB@@8
rdata$r	ENDS
;	COMDAT ??_R1A@?0A@EA@SUR_MiniGen@@8
rdata$r	SEGMENT
??_R1A@?0A@EA@SUR_MiniGen@@8 DD FLAT:??_R0?AVSUR_MiniGen@@@8 ; SUR_MiniGen::`RTTI Base Class Descriptor at (0,-1,0,64)'
	DD	03H
	DD	00H
	DD	0ffffffffH
	DD	00H
	DD	040H
	DD	FLAT:??_R3SUR_MiniGen@@8
rdata$r	ENDS
;	COMDAT ??_R2SUR_MiniGen@@8
rdata$r	SEGMENT
??_R2SUR_MiniGen@@8 DD FLAT:??_R1A@?0A@EA@SUR_MiniGen@@8 ; SUR_MiniGen::`RTTI Base Class Array'
	DD	FLAT:??_R1A@?0A@EA@ScriptImpClass@@8
	DD	FLAT:??_R1A@?0A@EA@ScriptClass@@8
	DD	FLAT:??_R1A@?0A@EA@GameObjObserverClass@@8
rdata$r	ENDS
;	COMDAT ??_R3SUR_MiniGen@@8
rdata$r	SEGMENT
??_R3SUR_MiniGen@@8 DD 00H				; SUR_MiniGen::`RTTI Class Hierarchy Descriptor'
	DD	00H
	DD	04H
	DD	FLAT:??_R2SUR_MiniGen@@8
rdata$r	ENDS
;	COMDAT ??_R0?AVSUR_MiniGen@@@8
_DATA	SEGMENT
??_R0?AVSUR_MiniGen@@@8 DD FLAT:??_7type_info@@6B@	; SUR_MiniGen `RTTI Type Descriptor'
	DD	00H
	DB	'.?AVSUR_MiniGen@@', 00H
_DATA	ENDS
;	COMDAT ??_R4SUR_MiniGen@@6B@
rdata$r	SEGMENT
??_R4SUR_MiniGen@@6B@ DD 00H				; SUR_MiniGen::`RTTI Complete Object Locator'
	DD	00H
	DD	00H
	DD	FLAT:??_R0?AVSUR_MiniGen@@@8
	DD	FLAT:??_R3SUR_MiniGen@@8
rdata$r	ENDS
;	COMDAT ??_R1A@?0A@EA@SUR_Generator_Zone@@8
rdata$r	SEGMENT
??_R1A@?0A@EA@SUR_Generator_Zone@@8 DD FLAT:??_R0?AVSUR_Generator_Zone@@@8 ; SUR_Generator_Zone::`RTTI Base Class Descriptor at (0,-1,0,64)'
	DD	03H
	DD	00H
	DD	0ffffffffH
	DD	00H
	DD	040H
	DD	FLAT:??_R3SUR_Generator_Zone@@8
rdata$r	ENDS
;	COMDAT ??_R2SUR_Generator_Zone@@8
rdata$r	SEGMENT
??_R2SUR_Generator_Zone@@8 DD FLAT:??_R1A@?0A@EA@SUR_Generator_Zone@@8 ; SUR_Generator_Zone::`RTTI Base Class Array'
	DD	FLAT:??_R1A@?0A@EA@ScriptImpClass@@8
	DD	FLAT:??_R1A@?0A@EA@ScriptClass@@8
	DD	FLAT:??_R1A@?0A@EA@GameObjObserverClass@@8
rdata$r	ENDS
;	COMDAT ??_R3SUR_Generator_Zone@@8
rdata$r	SEGMENT
??_R3SUR_Generator_Zone@@8 DD 00H			; SUR_Generator_Zone::`RTTI Class Hierarchy Descriptor'
	DD	00H
	DD	04H
	DD	FLAT:??_R2SUR_Generator_Zone@@8
rdata$r	ENDS
;	COMDAT ??_R0?AVSUR_Generator_Zone@@@8
_DATA	SEGMENT
??_R0?AVSUR_Generator_Zone@@@8 DD FLAT:??_7type_info@@6B@ ; SUR_Generator_Zone `RTTI Type Descriptor'
	DD	00H
	DB	'.?AVSUR_Generator_Zone@@', 00H
_DATA	ENDS
;	COMDAT ??_R4SUR_Generator_Zone@@6B@
rdata$r	SEGMENT
??_R4SUR_Generator_Zone@@6B@ DD 00H			; SUR_Generator_Zone::`RTTI Complete Object Locator'
	DD	00H
	DD	00H
	DD	FLAT:??_R0?AVSUR_Generator_Zone@@@8
	DD	FLAT:??_R3SUR_Generator_Zone@@8
rdata$r	ENDS
;	COMDAT ??_R1A@?0A@EA@SUR_Spawn_Delay@@8
rdata$r	SEGMENT
??_R1A@?0A@EA@SUR_Spawn_Delay@@8 DD FLAT:??_R0?AVSUR_Spawn_Delay@@@8 ; SUR_Spawn_Delay::`RTTI Base Class Descriptor at (0,-1,0,64)'
	DD	03H
	DD	00H
	DD	0ffffffffH
	DD	00H
	DD	040H
	DD	FLAT:??_R3SUR_Spawn_Delay@@8
rdata$r	ENDS
;	COMDAT ??_R2SUR_Spawn_Delay@@8
rdata$r	SEGMENT
??_R2SUR_Spawn_Delay@@8 DD FLAT:??_R1A@?0A@EA@SUR_Spawn_Delay@@8 ; SUR_Spawn_Delay::`RTTI Base Class Array'
	DD	FLAT:??_R1A@?0A@EA@ScriptImpClass@@8
	DD	FLAT:??_R1A@?0A@EA@ScriptClass@@8
	DD	FLAT:??_R1A@?0A@EA@GameObjObserverClass@@8
rdata$r	ENDS
;	COMDAT ??_R3SUR_Spawn_Delay@@8
rdata$r	SEGMENT
??_R3SUR_Spawn_Delay@@8 DD 00H				; SUR_Spawn_Delay::`RTTI Class Hierarchy Descriptor'
	DD	00H
	DD	04H
	DD	FLAT:??_R2SUR_Spawn_Delay@@8
rdata$r	ENDS
;	COMDAT ??_R0?AVSUR_Spawn_Delay@@@8
_DATA	SEGMENT
??_R0?AVSUR_Spawn_Delay@@@8 DD FLAT:??_7type_info@@6B@	; SUR_Spawn_Delay `RTTI Type Descriptor'
	DD	00H
	DB	'.?AVSUR_Spawn_Delay@@', 00H
_DATA	ENDS
;	COMDAT ??_R4SUR_Spawn_Delay@@6B@
rdata$r	SEGMENT
??_R4SUR_Spawn_Delay@@6B@ DD 00H			; SUR_Spawn_Delay::`RTTI Complete Object Locator'
	DD	00H
	DD	00H
	DD	FLAT:??_R0?AVSUR_Spawn_Delay@@@8
	DD	FLAT:??_R3SUR_Spawn_Delay@@8
rdata$r	ENDS
;	COMDAT ??_R1A@?0A@EA@ScriptImpClass@@8
rdata$r	SEGMENT
??_R1A@?0A@EA@ScriptImpClass@@8 DD FLAT:??_R0?AVScriptImpClass@@@8 ; ScriptImpClass::`RTTI Base Class Descriptor at (0,-1,0,64)'
	DD	02H
	DD	00H
	DD	0ffffffffH
	DD	00H
	DD	040H
	DD	FLAT:??_R3ScriptImpClass@@8
rdata$r	ENDS
;	COMDAT ??_R2ScriptImpClass@@8
rdata$r	SEGMENT
??_R2ScriptImpClass@@8 DD FLAT:??_R1A@?0A@EA@ScriptImpClass@@8 ; ScriptImpClass::`RTTI Base Class Array'
	DD	FLAT:??_R1A@?0A@EA@ScriptClass@@8
	DD	FLAT:??_R1A@?0A@EA@GameObjObserverClass@@8
rdata$r	ENDS
;	COMDAT ??_R3ScriptImpClass@@8
rdata$r	SEGMENT
??_R3ScriptImpClass@@8 DD 00H				; ScriptImpClass::`RTTI Class Hierarchy Descriptor'
	DD	00H
	DD	03H
	DD	FLAT:??_R2ScriptImpClass@@8
rdata$r	ENDS
;	COMDAT ??_R0?AVScriptImpClass@@@8
_DATA	SEGMENT
??_R0?AVScriptImpClass@@@8 DD FLAT:??_7type_info@@6B@	; ScriptImpClass `RTTI Type Descriptor'
	DD	00H
	DB	'.?AVScriptImpClass@@', 00H
_DATA	ENDS
;	COMDAT ??_R4ScriptImpClass@@6B@
rdata$r	SEGMENT
??_R4ScriptImpClass@@6B@ DD 00H				; ScriptImpClass::`RTTI Complete Object Locator'
	DD	00H
	DD	00H
	DD	FLAT:??_R0?AVScriptImpClass@@@8
	DD	FLAT:??_R3ScriptImpClass@@8
rdata$r	ENDS
;	COMDAT ??_R4GameObjObserverClass@@6B@
rdata$r	SEGMENT
??_R4GameObjObserverClass@@6B@ DD 00H			; GameObjObserverClass::`RTTI Complete Object Locator'
	DD	00H
	DD	00H
	DD	FLAT:??_R0?AVGameObjObserverClass@@@8
	DD	FLAT:??_R3GameObjObserverClass@@8
rdata$r	ENDS
;	COMDAT ??_R2GameObjObserverClass@@8
rdata$r	SEGMENT
??_R2GameObjObserverClass@@8 DD FLAT:??_R1A@?0A@EA@GameObjObserverClass@@8 ; GameObjObserverClass::`RTTI Base Class Array'
rdata$r	ENDS
;	COMDAT ??_R3GameObjObserverClass@@8
rdata$r	SEGMENT
??_R3GameObjObserverClass@@8 DD 00H			; GameObjObserverClass::`RTTI Class Hierarchy Descriptor'
	DD	00H
	DD	01H
	DD	FLAT:??_R2GameObjObserverClass@@8
rdata$r	ENDS
;	COMDAT ??_R0?AVGameObjObserverClass@@@8
_DATA	SEGMENT
??_R0?AVGameObjObserverClass@@@8 DD FLAT:??_7type_info@@6B@ ; GameObjObserverClass `RTTI Type Descriptor'
	DD	00H
	DB	'.?AVGameObjObserverClass@@', 00H
_DATA	ENDS
;	COMDAT ??_R1A@?0A@EA@GameObjObserverClass@@8
rdata$r	SEGMENT
??_R1A@?0A@EA@GameObjObserverClass@@8 DD FLAT:??_R0?AVGameObjObserverClass@@@8 ; GameObjObserverClass::`RTTI Base Class Descriptor at (0,-1,0,64)'
	DD	00H
	DD	00H
	DD	0ffffffffH
	DD	00H
	DD	040H
	DD	FLAT:??_R3GameObjObserverClass@@8
rdata$r	ENDS
;	COMDAT ??_R1A@?0A@EA@ScriptClass@@8
rdata$r	SEGMENT
??_R1A@?0A@EA@ScriptClass@@8 DD FLAT:??_R0?AVScriptClass@@@8 ; ScriptClass::`RTTI Base Class Descriptor at (0,-1,0,64)'
	DD	01H
	DD	00H
	DD	0ffffffffH
	DD	00H
	DD	040H
	DD	FLAT:??_R3ScriptClass@@8
rdata$r	ENDS
;	COMDAT ??_R2ScriptClass@@8
rdata$r	SEGMENT
??_R2ScriptClass@@8 DD FLAT:??_R1A@?0A@EA@ScriptClass@@8 ; ScriptClass::`RTTI Base Class Array'
	DD	FLAT:??_R1A@?0A@EA@GameObjObserverClass@@8
rdata$r	ENDS
;	COMDAT ??_R3ScriptClass@@8
rdata$r	SEGMENT
??_R3ScriptClass@@8 DD 00H				; ScriptClass::`RTTI Class Hierarchy Descriptor'
	DD	00H
	DD	02H
	DD	FLAT:??_R2ScriptClass@@8
rdata$r	ENDS
;	COMDAT ??_R0?AVScriptClass@@@8
_DATA	SEGMENT
??_R0?AVScriptClass@@@8 DD FLAT:??_7type_info@@6B@	; ScriptClass `RTTI Type Descriptor'
	DD	00H
	DB	'.?AVScriptClass@@', 00H
_DATA	ENDS
;	COMDAT ??_R4ScriptClass@@6B@
rdata$r	SEGMENT
??_R4ScriptClass@@6B@ DD 00H				; ScriptClass::`RTTI Complete Object Locator'
	DD	00H
	DD	00H
	DD	FLAT:??_R0?AVScriptClass@@@8
	DD	FLAT:??_R3ScriptClass@@8
rdata$r	ENDS
;	COMDAT ??_R1A@?0A@EA@ScriptFactory@@8
rdata$r	SEGMENT
??_R1A@?0A@EA@ScriptFactory@@8 DD FLAT:??_R0?AVScriptFactory@@@8 ; ScriptFactory::`RTTI Base Class Descriptor at (0,-1,0,64)'
	DD	00H
	DD	00H
	DD	0ffffffffH
	DD	00H
	DD	040H
	DD	FLAT:??_R3ScriptFactory@@8
rdata$r	ENDS
;	COMDAT ??_R2ScriptFactory@@8
rdata$r	SEGMENT
??_R2ScriptFactory@@8 DD FLAT:??_R1A@?0A@EA@ScriptFactory@@8 ; ScriptFactory::`RTTI Base Class Array'
rdata$r	ENDS
;	COMDAT ??_R3ScriptFactory@@8
rdata$r	SEGMENT
??_R3ScriptFactory@@8 DD 00H				; ScriptFactory::`RTTI Class Hierarchy Descriptor'
	DD	00H
	DD	01H
	DD	FLAT:??_R2ScriptFactory@@8
rdata$r	ENDS
;	COMDAT ??_R0?AVScriptFactory@@@8
_DATA	SEGMENT
??_R0?AVScriptFactory@@@8 DD FLAT:??_7type_info@@6B@	; ScriptFactory `RTTI Type Descriptor'
	DD	00H
	DB	'.?AVScriptFactory@@', 00H
_DATA	ENDS
;	COMDAT ??_R4ScriptFactory@@6B@
rdata$r	SEGMENT
??_R4ScriptFactory@@6B@ DD 00H				; ScriptFactory::`RTTI Complete Object Locator'
	DD	00H
	DD	00H
	DD	FLAT:??_R0?AVScriptFactory@@@8
	DD	FLAT:??_R3ScriptFactory@@8
rdata$r	ENDS
;	COMDAT ??_C@_0DJ@EEEDKFIH@ScriptRegistrant?$DMclass?5SUR_Grant@
CONST	SEGMENT
??_C@_0DJ@EEEDKFIH@ScriptRegistrant?$DMclass?5SUR_Grant@ DB 'ScriptRegist'
	DB	'rant<class SUR_GrantPowerup_OnEntry>::Create', 00H ; `string'
CONST	ENDS
;	COMDAT ??_C@_0DA@FKNKJHCG@ScriptRegistrant?$DMclass?5SUR_Timed@
CONST	SEGMENT
??_C@_0DA@FKNKJHCG@ScriptRegistrant?$DMclass?5SUR_Timed@ DB 'ScriptRegist'
	DB	'rant<class SUR_Timed_Death>::Create', 00H	; `string'
CONST	ENDS
;	COMDAT ??_C@_0CP@PIFLBOGP@ScriptRegistrant?$DMclass?5SUR_Dep_T@
CONST	SEGMENT
??_C@_0CP@PIFLBOGP@ScriptRegistrant?$DMclass?5SUR_Dep_T@ DB 'ScriptRegist'
	DB	'rant<class SUR_Dep_Turret>::Create', 00H	; `string'
CONST	ENDS
;	COMDAT ??_C@_0CP@KBBIOMO@ScriptRegistrant?$DMclass?5SUR_Chino@
CONST	SEGMENT
??_C@_0CP@KBBIOMO@ScriptRegistrant?$DMclass?5SUR_Chino@ DB 'ScriptRegistr'
	DB	'ant<class SUR_Chinook_AI>::Create', 00H	; `string'
CONST	ENDS
;	COMDAT ??_C@_0CM@EGEAHCJA@ScriptRegistrant?$DMclass?5SUR_Orca_@
CONST	SEGMENT
??_C@_0CM@EGEAHCJA@ScriptRegistrant?$DMclass?5SUR_Orca_@ DB 'ScriptRegist'
	DB	'rant<class SUR_Orca_AI>::Create', 00H	; `string'
CONST	ENDS
;	COMDAT ??_C@_0CL@JAPNFDGP@ScriptRegistrant?$DMclass?5SUR_APC_A@
CONST	SEGMENT
??_C@_0CL@JAPNFDGP@ScriptRegistrant?$DMclass?5SUR_APC_A@ DB 'ScriptRegist'
	DB	'rant<class SUR_APC_AI>::Create', 00H	; `string'
CONST	ENDS
;	COMDAT ??_C@_0DE@KNMMJHAP@ScriptRegistrant?$DMclass?5SUR_New_P@
CONST	SEGMENT
??_C@_0DE@KNMMJHAP@ScriptRegistrant?$DMclass?5SUR_New_P@ DB 'ScriptRegist'
	DB	'rant<class SUR_New_PT_Reciever>::Create', 00H ; `string'
CONST	ENDS
;	COMDAT ??_C@_0CL@KBJCMIPP@ScriptRegistrant?$DMclass?5SUR_New_P@
CONST	SEGMENT
??_C@_0CL@KBJCMIPP@ScriptRegistrant?$DMclass?5SUR_New_P@ DB 'ScriptRegist'
	DB	'rant<class SUR_New_PT>::Create', 00H	; `string'
CONST	ENDS
;	COMDAT ??_C@_0DC@KDOJNHEC@ScriptRegistrant?$DMclass?5SUR_Obj_D@
CONST	SEGMENT
??_C@_0DC@KDOJNHEC@ScriptRegistrant?$DMclass?5SUR_Obj_D@ DB 'ScriptRegist'
	DB	'rant<class SUR_Obj_Destroyer>::Create', 00H	; `string'
CONST	ENDS
;	COMDAT ??_C@_0DA@BIDEEIAA@ScriptRegistrant?$DMclass?5SUR_NHB_S@
CONST	SEGMENT
??_C@_0DA@BIDEEIAA@ScriptRegistrant?$DMclass?5SUR_NHB_S@ DB 'ScriptRegist'
	DB	'rant<class SUR_NHB_Soldier>::Create', 00H	; `string'
CONST	ENDS
;	COMDAT ??_C@_0CI@LNPJCONE@ScriptRegistrant?$DMclass?5SUR_NHB?$DO?3@
CONST	SEGMENT
??_C@_0CI@LNPJCONE@ScriptRegistrant?$DMclass?5SUR_NHB?$DO?3@ DB 'ScriptRe'
	DB	'gistrant<class SUR_NHB>::Create', 00H	; `string'
CONST	ENDS
;	COMDAT ??_C@_0CM@LLEDJECK@ScriptRegistrant?$DMclass?5SUR_MiniG@
CONST	SEGMENT
??_C@_0CM@LLEDJECK@ScriptRegistrant?$DMclass?5SUR_MiniG@ DB 'ScriptRegist'
	DB	'rant<class SUR_MiniGen>::Create', 00H	; `string'
CONST	ENDS
;	COMDAT ??_C@_0DD@IBJAKMHL@ScriptRegistrant?$DMclass?5SUR_Gener@
CONST	SEGMENT
??_C@_0DD@IBJAKMHL@ScriptRegistrant?$DMclass?5SUR_Gener@ DB 'ScriptRegist'
	DB	'rant<class SUR_Generator_Zone>::Create', 00H ; `string'
CONST	ENDS
;	COMDAT ??_C@_1M@HLGKFCJM@?$AAf?$AAa?$AAl?$AAs?$AAe?$AA?$AA@
CONST	SEGMENT
??_C@_1M@HLGKFCJM@?$AAf?$AAa?$AAl?$AAs?$AAe?$AA?$AA@ DB 'f', 00H, 'a', 00H
	DB	'l', 00H, 's', 00H, 'e', 00H, 00H, 00H	; `string'
CONST	ENDS
;	COMDAT ??_C@_1GG@OGNLNBPD@?$AAx?$AA?3?$AA?2?$AAg?$AAi?$AAt?$AAh?$AAu?$AAb?$AA?2?$AAr?$AAe?$AAn?$AAe?$AAg?$AAa?$AAd?$AAe?$AA?2?$AAd?$AAr?$AAa?$AAg?$AAo?$AAn?$AAa?$AAd?$AAe?$AA_?$AAr?$AAx?$AAd@
CONST	SEGMENT
??_C@_1GG@OGNLNBPD@?$AAx?$AA?3?$AA?2?$AAg?$AAi?$AAt?$AAh?$AAu?$AAb?$AA?2?$AAr?$AAe?$AAn?$AAe?$AAg?$AAa?$AAd?$AAe?$AA?2?$AAd?$AAr?$AAa?$AAg?$AAo?$AAn?$AAa?$AAd?$AAe?$AA_?$AAr?$AAx?$AAd@ DB 'x'
	DB	00H, ':', 00H, '\', 00H, 'g', 00H, 'i', 00H, 't', 00H, 'h', 00H
	DB	'u', 00H, 'b', 00H, '\', 00H, 'r', 00H, 'e', 00H, 'n', 00H, 'e'
	DB	00H, 'g', 00H, 'a', 00H, 'd', 00H, 'e', 00H, '\', 00H, 'd', 00H
	DB	'r', 00H, 'a', 00H, 'g', 00H, 'o', 00H, 'n', 00H, 'a', 00H, 'd'
	DB	00H, 'e', 00H, '_', 00H, 'r', 00H, 'x', 00H, 'd', 00H, '\', 00H
	DB	's', 00H, 'c', 00H, 'r', 00H, 'i', 00H, 'p', 00H, 't', 00H, 's'
	DB	00H, '\', 00H, 's', 00H, 'c', 00H, 'r', 00H, 'i', 00H, 'p', 00H
	DB	't', 00H, 's', 00H, '.', 00H, 'h', 00H, 00H, 00H ; `string'
CONST	ENDS
;	COMDAT ??_C@_0DD@KMKBFFOF@x?3?2github?2renegade?2dragonade_rxd@
CONST	SEGMENT
??_C@_0DD@KMKBFFOF@x?3?2github?2renegade?2dragonade_rxd@ DB 'x:\github\re'
	DB	'negade\dragonade_rxd\scripts\scripts.h', 00H ; `string'
CONST	ENDS
;	COMDAT ??_C@_0DA@GODKEOJD@ScriptRegistrant?$DMclass?5SUR_Spawn@
CONST	SEGMENT
??_C@_0DA@GODKEOJD@ScriptRegistrant?$DMclass?5SUR_Spawn@ DB 'ScriptRegist'
	DB	'rant<class SUR_Spawn_Delay>::Create', 00H	; `string'
CONST	ENDS
;	COMDAT ??_C@_0BJ@KLABFPHM@SUR_GrantPowerup_OnEntry?$AA@
CONST	SEGMENT
??_C@_0BJ@KLABFPHM@SUR_GrantPowerup_OnEntry?$AA@ DB 'SUR_GrantPowerup_OnE'
	DB	'ntry', 00H					; `string'
CONST	ENDS
;	COMDAT ??_C@_0BN@OELIADGD@Preset?3string?0Powerup?3string?$AA@
CONST	SEGMENT
??_C@_0BN@OELIADGD@Preset?3string?0Powerup?3string?$AA@ DB 'Preset:string'
	DB	',Powerup:string', 00H			; `string'
CONST	ENDS
;	COMDAT ??_7?$ScriptRegistrant@VSUR_GrantPowerup_OnEntry@@@@6B@
CONST	SEGMENT
??_7?$ScriptRegistrant@VSUR_GrantPowerup_OnEntry@@@@6B@ DD FLAT:??_R4?$ScriptRegistrant@VSUR_GrantPowerup_OnEntry@@@@6B@ ; ScriptRegistrant<SUR_GrantPowerup_OnEntry>::`vftable'
	DD	FLAT:??_E?$ScriptRegistrant@VSUR_GrantPowerup_OnEntry@@@@UAEPAXI@Z
	DD	FLAT:?Create@?$ScriptRegistrant@VSUR_GrantPowerup_OnEntry@@@@UAEPAVScriptImpClass@@XZ
CONST	ENDS
;	COMDAT ??_C@_0BA@LIDMMLAJ@SUR_Timed_Death?$AA@
CONST	SEGMENT
??_C@_0BA@LIDMMLAJ@SUR_Timed_Death?$AA@ DB 'SUR_Timed_Death', 00H ; `string'
CONST	ENDS
;	COMDAT ??_C@_0DD@BINEMFNP@Delay?3float?0Damage_Amount?3float?0@
CONST	SEGMENT
??_C@_0DD@BINEMFNP@Delay?3float?0Damage_Amount?3float?0@ DB 'Delay:float,'
	DB	'Damage_Amount:float,Damage_Type:string', 00H ; `string'
CONST	ENDS
;	COMDAT ??_7?$ScriptRegistrant@VSUR_Timed_Death@@@@6B@
CONST	SEGMENT
??_7?$ScriptRegistrant@VSUR_Timed_Death@@@@6B@ DD FLAT:??_R4?$ScriptRegistrant@VSUR_Timed_Death@@@@6B@ ; ScriptRegistrant<SUR_Timed_Death>::`vftable'
	DD	FLAT:??_E?$ScriptRegistrant@VSUR_Timed_Death@@@@UAEPAXI@Z
	DD	FLAT:?Create@?$ScriptRegistrant@VSUR_Timed_Death@@@@UAEPAVScriptImpClass@@XZ
CONST	ENDS
;	COMDAT ??_C@_0P@NFLNCIFF@SUR_Dep_Turret?$AA@
CONST	SEGMENT
??_C@_0P@NFLNCIFF@SUR_Dep_Turret?$AA@ DB 'SUR_Dep_Turret', 00H ; `string'
CONST	ENDS
;	COMDAT ??_C@_0EP@COIIGKKP@MinAttackDistance?$DN0?40?3float?0MaxA@
CONST	SEGMENT
??_C@_0EP@COIIGKKP@MinAttackDistance?$DN0?40?3float?0MaxA@ DB 'MinAttackD'
	DB	'istance=0.0:float,MaxAttackDistance=300.0:float,AttackTimer=1'
	DB	'0.0:int', 00H				; `string'
CONST	ENDS
;	COMDAT ??_7?$ScriptRegistrant@VSUR_Dep_Turret@@@@6B@
CONST	SEGMENT
??_7?$ScriptRegistrant@VSUR_Dep_Turret@@@@6B@ DD FLAT:??_R4?$ScriptRegistrant@VSUR_Dep_Turret@@@@6B@ ; ScriptRegistrant<SUR_Dep_Turret>::`vftable'
	DD	FLAT:??_E?$ScriptRegistrant@VSUR_Dep_Turret@@@@UAEPAXI@Z
	DD	FLAT:?Create@?$ScriptRegistrant@VSUR_Dep_Turret@@@@UAEPAVScriptImpClass@@XZ
CONST	ENDS
;	COMDAT ??_C@_0P@CCFBOFGI@SUR_Chinook_AI?$AA@
CONST	SEGMENT
??_C@_0P@CCFBOFGI@SUR_Chinook_AI?$AA@ DB 'SUR_Chinook_AI', 00H ; `string'
CONST	ENDS
;	COMDAT ??_C@_0CL@JNOFFELC@Preset_Name?3string?0Position_Offs@
CONST	SEGMENT
??_C@_0CL@JNOFFELC@Preset_Name?3string?0Position_Offs@ DB 'Preset_Name:st'
	DB	'ring,Position_Offset:vector3', 00H		; `string'
CONST	ENDS
;	COMDAT ??_7?$ScriptRegistrant@VSUR_Chinook_AI@@@@6B@
CONST	SEGMENT
??_7?$ScriptRegistrant@VSUR_Chinook_AI@@@@6B@ DD FLAT:??_R4?$ScriptRegistrant@VSUR_Chinook_AI@@@@6B@ ; ScriptRegistrant<SUR_Chinook_AI>::`vftable'
	DD	FLAT:??_E?$ScriptRegistrant@VSUR_Chinook_AI@@@@UAEPAXI@Z
	DD	FLAT:?Create@?$ScriptRegistrant@VSUR_Chinook_AI@@@@UAEPAVScriptImpClass@@XZ
CONST	ENDS
;	COMDAT ??_C@_0M@LENJCGNN@SUR_Orca_AI?$AA@
CONST	SEGMENT
??_C@_0M@LENJCGNN@SUR_Orca_AI?$AA@ DB 'SUR_Orca_AI', 00H ; `string'
CONST	ENDS
;	COMDAT ??_C@_0CB@GPNICFGL@NHB_ID?3int?0Attack_Offset?3vector3@
CONST	SEGMENT
??_C@_0CB@GPNICFGL@NHB_ID?3int?0Attack_Offset?3vector3@ DB 'NHB_ID:int,At'
	DB	'tack_Offset:vector3', 00H			; `string'
CONST	ENDS
;	COMDAT ??_7?$ScriptRegistrant@VSUR_Orca_AI@@@@6B@
CONST	SEGMENT
??_7?$ScriptRegistrant@VSUR_Orca_AI@@@@6B@ DD FLAT:??_R4?$ScriptRegistrant@VSUR_Orca_AI@@@@6B@ ; ScriptRegistrant<SUR_Orca_AI>::`vftable'
	DD	FLAT:??_E?$ScriptRegistrant@VSUR_Orca_AI@@@@UAEPAXI@Z
	DD	FLAT:?Create@?$ScriptRegistrant@VSUR_Orca_AI@@@@UAEPAVScriptImpClass@@XZ
CONST	ENDS
;	COMDAT ??_C@_0L@MIJHGIEM@SUR_APC_AI?$AA@
CONST	SEGMENT
??_C@_0L@MIJHGIEM@SUR_APC_AI?$AA@ DB 'SUR_APC_AI', 00H	; `string'
CONST	ENDS
;	COMDAT ??_C@_0CD@PNNDOGLF@Preset_To_Create?3string?0NHB_ID?3i@
CONST	SEGMENT
??_C@_0CD@PNNDOGLF@Preset_To_Create?3string?0NHB_ID?3i@ DB 'Preset_To_Cre'
	DB	'ate:string,NHB_ID:int', 00H			; `string'
CONST	ENDS
;	COMDAT ??_7?$ScriptRegistrant@VSUR_APC_AI@@@@6B@
CONST	SEGMENT
??_7?$ScriptRegistrant@VSUR_APC_AI@@@@6B@ DD FLAT:??_R4?$ScriptRegistrant@VSUR_APC_AI@@@@6B@ ; ScriptRegistrant<SUR_APC_AI>::`vftable'
	DD	FLAT:??_E?$ScriptRegistrant@VSUR_APC_AI@@@@UAEPAXI@Z
	DD	FLAT:?Create@?$ScriptRegistrant@VSUR_APC_AI@@@@UAEPAVScriptImpClass@@XZ
CONST	ENDS
;	COMDAT ??_C@_0BE@IIJFADCE@SUR_New_PT_Reciever?$AA@
CONST	SEGMENT
??_C@_0BE@IIJFADCE@SUR_New_PT_Reciever?$AA@ DB 'SUR_New_PT_Reciever', 00H ; `string'
CONST	ENDS
;	COMDAT ??_C@_0BP@HHNMLCDH@Preset_Name?3string?0Message?3int?$AA@
CONST	SEGMENT
??_C@_0BP@HHNMLCDH@Preset_Name?3string?0Message?3int?$AA@ DB 'Preset_Name'
	DB	':string,Message:int', 00H			; `string'
CONST	ENDS
;	COMDAT ??_7?$ScriptRegistrant@VSUR_New_PT_Reciever@@@@6B@
CONST	SEGMENT
??_7?$ScriptRegistrant@VSUR_New_PT_Reciever@@@@6B@ DD FLAT:??_R4?$ScriptRegistrant@VSUR_New_PT_Reciever@@@@6B@ ; ScriptRegistrant<SUR_New_PT_Reciever>::`vftable'
	DD	FLAT:??_E?$ScriptRegistrant@VSUR_New_PT_Reciever@@@@UAEPAXI@Z
	DD	FLAT:?Create@?$ScriptRegistrant@VSUR_New_PT_Reciever@@@@UAEPAVScriptImpClass@@XZ
CONST	ENDS
;	COMDAT ??_C@_0BK@IMCLBBPM@Marker_ID?3int?0Message?3int?$AA@
CONST	SEGMENT
??_C@_0BK@IMCLBBPM@Marker_ID?3int?0Message?3int?$AA@ DB 'Marker_ID:int,Me'
	DB	'ssage:int', 00H				; `string'
CONST	ENDS
;	COMDAT ??_7?$ScriptRegistrant@VSUR_New_PT@@@@6B@
CONST	SEGMENT
??_7?$ScriptRegistrant@VSUR_New_PT@@@@6B@ DD FLAT:??_R4?$ScriptRegistrant@VSUR_New_PT@@@@6B@ ; ScriptRegistrant<SUR_New_PT>::`vftable'
	DD	FLAT:??_E?$ScriptRegistrant@VSUR_New_PT@@@@UAEPAXI@Z
	DD	FLAT:?Create@?$ScriptRegistrant@VSUR_New_PT@@@@UAEPAVScriptImpClass@@XZ
CONST	ENDS
;	COMDAT ??_C@_0BC@DOELCKBJ@SUR_Obj_Destroyer?$AA@
CONST	SEGMENT
??_C@_0BC@DOELCKBJ@SUR_Obj_Destroyer?$AA@ DB 'SUR_Obj_Destroyer', 00H ; `string'
CONST	ENDS
;	COMDAT ??_C@_06IDGMBKCH@ID?3int?$AA@
CONST	SEGMENT
??_C@_06IDGMBKCH@ID?3int?$AA@ DB 'ID:int', 00H		; `string'
CONST	ENDS
;	COMDAT ??_7?$ScriptRegistrant@VSUR_Obj_Destroyer@@@@6B@
CONST	SEGMENT
??_7?$ScriptRegistrant@VSUR_Obj_Destroyer@@@@6B@ DD FLAT:??_R4?$ScriptRegistrant@VSUR_Obj_Destroyer@@@@6B@ ; ScriptRegistrant<SUR_Obj_Destroyer>::`vftable'
	DD	FLAT:??_E?$ScriptRegistrant@VSUR_Obj_Destroyer@@@@UAEPAXI@Z
	DD	FLAT:?Create@?$ScriptRegistrant@VSUR_Obj_Destroyer@@@@UAEPAVScriptImpClass@@XZ
CONST	ENDS
;	COMDAT ??_C@_0BA@IFMBMGDM@SUR_NHB_Soldier?$AA@
CONST	SEGMENT
??_C@_0BA@IFMBMGDM@SUR_NHB_Soldier?$AA@ DB 'SUR_NHB_Soldier', 00H ; `string'
CONST	ENDS
;	COMDAT ??_C@_0BAA@ECKFGJNH@NHB_ID?3int?0VPad_Path?3int?0VPad_Pa@
CONST	SEGMENT
??_C@_0BAA@ECKFGJNH@NHB_ID?3int?0VPad_Path?3int?0VPad_Pa@ DB 'NHB_ID:int,'
	DB	'VPad_Path:int,VPad_Path_Start:int,VPad_Path_End:int,HeliPath:'
	DB	'int,HeliPath_Start:int,HeliPath_End:int,NodGen_Path:int,NodGe'
	DB	'n_Path_Start:int,NodGen_Path_End:int,GDIGen_Path:int,GDIGen_P'
	DB	'ath_Start:int,GDIGen_Path_End:int,NodGen_ID:int,GDIGen_ID:int'
	DB	00H						; `string'
CONST	ENDS
;	COMDAT ??_7?$ScriptRegistrant@VSUR_NHB_Soldier@@@@6B@
CONST	SEGMENT
??_7?$ScriptRegistrant@VSUR_NHB_Soldier@@@@6B@ DD FLAT:??_R4?$ScriptRegistrant@VSUR_NHB_Soldier@@@@6B@ ; ScriptRegistrant<SUR_NHB_Soldier>::`vftable'
	DD	FLAT:??_E?$ScriptRegistrant@VSUR_NHB_Soldier@@@@UAEPAXI@Z
	DD	FLAT:?Create@?$ScriptRegistrant@VSUR_NHB_Soldier@@@@UAEPAVScriptImpClass@@XZ
CONST	ENDS
;	COMDAT ??_C@_07MJBDNLE@SUR_NHB?$AA@
CONST	SEGMENT
??_C@_07MJBDNLE@SUR_NHB?$AA@ DB 'SUR_NHB', 00H		; `string'
CONST	ENDS
;	COMDAT ??_C@_0FD@DHDDJGN@GDI_Gen?3int?0Nod_Gen?3int?0Strike_P@
CONST	SEGMENT
??_C@_0FD@DHDDJGN@GDI_Gen?3int?0Nod_Gen?3int?0Strike_P@ DB 'GDI_Gen:int,N'
	DB	'od_Gen:int,Strike_Preset:string,Taunt1:int,Taunt2:int,OrcaWar'
	DB	'ning:int', 00H				; `string'
CONST	ENDS
;	COMDAT ??_7?$ScriptRegistrant@VSUR_NHB@@@@6B@
CONST	SEGMENT
??_7?$ScriptRegistrant@VSUR_NHB@@@@6B@ DD FLAT:??_R4?$ScriptRegistrant@VSUR_NHB@@@@6B@ ; ScriptRegistrant<SUR_NHB>::`vftable'
	DD	FLAT:??_E?$ScriptRegistrant@VSUR_NHB@@@@UAEPAXI@Z
	DD	FLAT:?Create@?$ScriptRegistrant@VSUR_NHB@@@@UAEPAVScriptImpClass@@XZ
CONST	ENDS
;	COMDAT ??_C@_0M@GPOHJCKC@SUR_MiniGen?$AA@
CONST	SEGMENT
??_C@_0M@GPOHJCKC@SUR_MiniGen?$AA@ DB 'SUR_MiniGen', 00H ; `string'
CONST	ENDS
;	COMDAT ??_C@_0FM@NAIMEOBA@Time_Delay?3float?0Turret_ID_One?3i@
CONST	SEGMENT
??_C@_0FM@NAIMEOBA@Time_Delay?3float?0Turret_ID_One?3i@ DB 'Time_Delay:fl'
	DB	'oat,Turret_ID_One:int,Turret_ID_Two:int,Turret_ID_Three:int,T'
	DB	'urret_ID_Four:int', 00H			; `string'
CONST	ENDS
;	COMDAT ??_7?$ScriptRegistrant@VSUR_MiniGen@@@@6B@
CONST	SEGMENT
??_7?$ScriptRegistrant@VSUR_MiniGen@@@@6B@ DD FLAT:??_R4?$ScriptRegistrant@VSUR_MiniGen@@@@6B@ ; ScriptRegistrant<SUR_MiniGen>::`vftable'
	DD	FLAT:??_E?$ScriptRegistrant@VSUR_MiniGen@@@@UAEPAXI@Z
	DD	FLAT:?Create@?$ScriptRegistrant@VSUR_MiniGen@@@@UAEPAVScriptImpClass@@XZ
CONST	ENDS
;	COMDAT ??_C@_0BD@JMCCCHCE@SUR_Generator_Zone?$AA@
CONST	SEGMENT
??_C@_0BD@JMCCCHCE@SUR_Generator_Zone?$AA@ DB 'SUR_Generator_Zone', 00H ; `string'
CONST	ENDS
;	COMDAT ??_C@_0MA@PHLCLBBJ@Time_Delay?3float?0Supply_Truck_Pr@
CONST	SEGMENT
??_C@_0MA@PHLCLBBJ@Time_Delay?3float?0Supply_Truck_Pr@ DB 'Time_Delay:flo'
	DB	'at,Supply_Truck_Preset:string,Emitter_Pos:vector3,Emitter_Pre'
	DB	'set_Good:string,Emitter_Preset_Ok:string,Emitter_Preset_Bad:s'
	DB	'tring,Build_D_One:int,Build_D_Two:int,Build_D_Three:int', 00H ; `string'
CONST	ENDS
;	COMDAT ??_7?$ScriptRegistrant@VSUR_Generator_Zone@@@@6B@
CONST	SEGMENT
??_7?$ScriptRegistrant@VSUR_Generator_Zone@@@@6B@ DD FLAT:??_R4?$ScriptRegistrant@VSUR_Generator_Zone@@@@6B@ ; ScriptRegistrant<SUR_Generator_Zone>::`vftable'
	DD	FLAT:??_E?$ScriptRegistrant@VSUR_Generator_Zone@@@@UAEPAXI@Z
	DD	FLAT:?Create@?$ScriptRegistrant@VSUR_Generator_Zone@@@@UAEPAVScriptImpClass@@XZ
CONST	ENDS
;	COMDAT ??_C@_0BA@KLILNECP@SUR_Spawn_Delay?$AA@
CONST	SEGMENT
??_C@_0BA@KLILNECP@SUR_Spawn_Delay?$AA@ DB 'SUR_Spawn_Delay', 00H ; `string'
CONST	ENDS
;	COMDAT ??_C@_0FA@DHAIDPHO@Spawn_Delay?3float?0Spawn_Pos?3vect@
CONST	SEGMENT
??_C@_0FA@DHAIDPHO@Spawn_Delay?3float?0Spawn_Pos?3vect@ DB 'Spawn_Delay:f'
	DB	'loat,Spawn_Pos:vector3,Spawn_Obj:string,Spawn_Path:int,Do_Pat'
	DB	'h:int', 00H					; `string'
CONST	ENDS
;	COMDAT ??_7?$ScriptRegistrant@VSUR_Spawn_Delay@@@@6B@
CONST	SEGMENT
??_7?$ScriptRegistrant@VSUR_Spawn_Delay@@@@6B@ DD FLAT:??_R4?$ScriptRegistrant@VSUR_Spawn_Delay@@@@6B@ ; ScriptRegistrant<SUR_Spawn_Delay>::`vftable'
	DD	FLAT:??_E?$ScriptRegistrant@VSUR_Spawn_Delay@@@@UAEPAXI@Z
	DD	FLAT:?Create@?$ScriptRegistrant@VSUR_Spawn_Delay@@@@UAEPAVScriptImpClass@@XZ
CONST	ENDS
;	COMDAT ??_C@_07EJMDJBEC@Powerup?$AA@
CONST	SEGMENT
??_C@_07EJMDJBEC@Powerup?$AA@ DB 'Powerup', 00H		; `string'
CONST	ENDS
;	COMDAT ??_C@_03EBKHDLCO@Any?$AA@
CONST	SEGMENT
??_C@_03EBKHDLCO@Any?$AA@ DB 'Any', 00H			; `string'
CONST	ENDS
;	COMDAT ??_C@_06CKLLCHIK@Preset?$AA@
CONST	SEGMENT
??_C@_06CKLLCHIK@Preset?$AA@ DB 'Preset', 00H		; `string'
CONST	ENDS
;	COMDAT ??_C@_0O@DDNFGLDM@Damage_Amount?$AA@
CONST	SEGMENT
??_C@_0O@DDNFGLDM@Damage_Amount?$AA@ DB 'Damage_Amount', 00H ; `string'
CONST	ENDS
;	COMDAT ??_C@_0M@CALDOHKN@Damage_Type?$AA@
CONST	SEGMENT
??_C@_0M@CALDOHKN@Damage_Type?$AA@ DB 'Damage_Type', 00H ; `string'
CONST	ENDS
;	COMDAT ??_C@_05ENDOMFAI@Delay?$AA@
CONST	SEGMENT
??_C@_05ENDOMFAI@Delay?$AA@ DB 'Delay', 00H		; `string'
CONST	ENDS
;	COMDAT ??_C@_0M@JLBMIOIA@AttackTimer?$AA@
CONST	SEGMENT
??_C@_0M@JLBMIOIA@AttackTimer?$AA@ DB 'AttackTimer', 00H ; `string'
CONST	ENDS
;	COMDAT ??_C@_0BC@MOFMCIO@MaxAttackDistance?$AA@
CONST	SEGMENT
??_C@_0BC@MOFMCIO@MaxAttackDistance?$AA@ DB 'MaxAttackDistance', 00H ; `string'
CONST	ENDS
;	COMDAT ??_C@_0BC@FPEDNKGK@MinAttackDistance?$AA@
CONST	SEGMENT
??_C@_0BC@FPEDNKGK@MinAttackDistance?$AA@ DB 'MinAttackDistance', 00H ; `string'
CONST	ENDS
;	COMDAT ??_C@_0BB@NHJNEILC@Invisible_Object?$AA@
CONST	SEGMENT
??_C@_0BB@NHJNEILC@Invisible_Object?$AA@ DB 'Invisible_Object', 00H ; `string'
CONST	ENDS
;	COMDAT ??_C@_0BA@OAAEJLHO@Position_Offset?$AA@
CONST	SEGMENT
??_C@_0BA@OAAEJLHO@Position_Offset?$AA@ DB 'Position_Offset', 00H ; `string'
CONST	ENDS
;	COMDAT ??_C@_0O@FABAOFMP@Attack_Offset?$AA@
CONST	SEGMENT
??_C@_0O@FABAOFMP@Attack_Offset?$AA@ DB 'Attack_Offset', 00H ; `string'
CONST	ENDS
;	COMDAT ??_C@_0BB@LNLDLMKA@JFW_Base_Defense?$AA@
CONST	SEGMENT
??_C@_0BB@LNLDLMKA@JFW_Base_Defense?$AA@ DB 'JFW_Base_Defense', 00H ; `string'
CONST	ENDS
;	COMDAT ??_C@_08LFMFPFKM@0?0300?010?$AA@
CONST	SEGMENT
??_C@_08LFMFPFKM@0?0300?010?$AA@ DB '0,300,10', 00H	; `string'
CONST	ENDS
;	COMDAT ??_C@_0BB@JLAIOFF@Preset_To_Create?$AA@
CONST	SEGMENT
??_C@_0BB@JLAIOFF@Preset_To_Create?$AA@ DB 'Preset_To_Create', 00H ; `string'
CONST	ENDS
;	COMDAT ??_C@_0M@KBNHOJJA@Preset_Name?$AA@
CONST	SEGMENT
??_C@_0M@KBNHOJJA@Preset_Name?$AA@ DB 'Preset_Name', 00H ; `string'
CONST	ENDS
;	COMDAT ??_C@_0L@NMEBDFKG@SUR_New_PT?$AA@
CONST	SEGMENT
??_C@_0L@NMEBDFKG@SUR_New_PT?$AA@ DB 'SUR_New_PT', 00H	; `string'
CONST	ENDS
;	COMDAT ??_C@_05KABNCBHK@?$CFd?0?$CFd?$AA@
CONST	SEGMENT
??_C@_05KABNCBHK@?$CFd?0?$CFd?$AA@ DB '%d,%d', 00H	; `string'
CONST	ENDS
;	COMDAT ??_C@_09PIPGAOHA@Marker_ID?$AA@
CONST	SEGMENT
??_C@_09PIPGAOHA@Marker_ID?$AA@ DB 'Marker_ID', 00H	; `string'
CONST	ENDS
;	COMDAT ??_C@_07BEIHKDLJ@Message?$AA@
CONST	SEGMENT
??_C@_07BEIHKDLJ@Message?$AA@ DB 'Message', 00H		; `string'
CONST	ENDS
;	COMDAT ??_C@_02OLOABKKD@ID?$AA@
CONST	SEGMENT
??_C@_02OLOABKKD@ID?$AA@ DB 'ID', 00H			; `string'
CONST	ENDS
;	COMDAT ??_C@_0BM@OMFOHCFP@CnC_Weapon_MineTimed_Player?$AA@
CONST	SEGMENT
??_C@_0BM@OMFOHCFP@CnC_Weapon_MineTimed_Player?$AA@ DB 'CnC_Weapon_MineTi'
	DB	'med_Player', 00H				; `string'
CONST	ENDS
;	COMDAT ??_C@_09FCBIDPBF@GDIGen_ID?$AA@
CONST	SEGMENT
??_C@_09FCBIDPBF@GDIGen_ID?$AA@ DB 'GDIGen_ID', 00H	; `string'
CONST	ENDS
;	COMDAT ??_C@_09MMNKHPCG@NodGen_ID?$AA@
CONST	SEGMENT
??_C@_09MMNKHPCG@NodGen_ID?$AA@ DB 'NodGen_ID', 00H	; `string'
CONST	ENDS
;	COMDAT ??_C@_0M@IFBDBCON@GDIGen_Path?$AA@
CONST	SEGMENT
??_C@_0M@IFBDBCON@GDIGen_Path?$AA@ DB 'GDIGen_Path', 00H ; `string'
CONST	ENDS
;	COMDAT ??_C@_0BC@NJMBNIAG@GDIGen_Path_Start?$AA@
CONST	SEGMENT
??_C@_0BC@NJMBNIAG@GDIGen_Path_Start?$AA@ DB 'GDIGen_Path_Start', 00H ; `string'
CONST	ENDS
;	COMDAT ??_C@_0BA@JCNLGAFK@GDIGen_Path_End?$AA@
CONST	SEGMENT
??_C@_0BA@JCNLGAFK@GDIGen_Path_End?$AA@ DB 'GDIGen_Path_End', 00H ; `string'
CONST	ENDS
;	COMDAT ??_C@_0M@HKEKIIP@NodGen_Path?$AA@
CONST	SEGMENT
??_C@_0M@HKEKIIP@NodGen_Path?$AA@ DB 'NodGen_Path', 00H	; `string'
CONST	ENDS
;	COMDAT ??_C@_0BC@KEJONPCP@NodGen_Path_Start?$AA@
CONST	SEGMENT
??_C@_0BC@KEJONPCP@NodGen_Path_Start?$AA@ DB 'NodGen_Path_Start', 00H ; `string'
CONST	ENDS
;	COMDAT ??_C@_0BA@GDAPPOGH@NodGen_Path_End?$AA@
CONST	SEGMENT
??_C@_0BA@GDAPPOGH@NodGen_Path_End?$AA@ DB 'NodGen_Path_End', 00H ; `string'
CONST	ENDS
;	COMDAT ??_C@_08MCAPOCBM@HeliPath?$AA@
CONST	SEGMENT
??_C@_08MCAPOCBM@HeliPath?$AA@ DB 'HeliPath', 00H	; `string'
CONST	ENDS
;	COMDAT ??_C@_0P@CACBDBIF@HeliPath_Start?$AA@
CONST	SEGMENT
??_C@_0P@CACBDBIF@HeliPath_Start?$AA@ DB 'HeliPath_Start', 00H ; `string'
CONST	ENDS
;	COMDAT ??_C@_0N@BHAKOLCG@HeliPath_End?$AA@
CONST	SEGMENT
??_C@_0N@BHAKOLCG@HeliPath_End?$AA@ DB 'HeliPath_End', 00H ; `string'
CONST	ENDS
;	COMDAT ??_C@_0BI@DOGKPAOM@PDS_Test_Follow_Waypath?$AA@
CONST	SEGMENT
??_C@_0BI@DOGKPAOM@PDS_Test_Follow_Waypath?$AA@ DB 'PDS_Test_Follow_Waypa'
	DB	'th', 00H					; `string'
CONST	ENDS
;	COMDAT ??_C@_08GDAMKODC@?$CFd?0?$CFd?0?$CFd?$AA@
CONST	SEGMENT
??_C@_08GDAMKODC@?$CFd?0?$CFd?0?$CFd?$AA@ DB '%d,%d,%d', 00H ; `string'
CONST	ENDS
;	COMDAT ??_C@_09BBICMIP@VPad_Path?$AA@
CONST	SEGMENT
??_C@_09BBICMIP@VPad_Path?$AA@ DB 'VPad_Path', 00H	; `string'
CONST	ENDS
;	COMDAT ??_C@_0BA@LDNBEEON@VPad_Path_Start?$AA@
CONST	SEGMENT
??_C@_0BA@LDNBEEON@VPad_Path_Start?$AA@ DB 'VPad_Path_Start', 00H ; `string'
CONST	ENDS
;	COMDAT ??_C@_0O@CECAAJLK@VPad_Path_End?$AA@
CONST	SEGMENT
??_C@_0O@CECAAJLK@VPad_Path_End?$AA@ DB 'VPad_Path_End', 00H ; `string'
CONST	ENDS
;	COMDAT ??_C@_06MPKPIODH@NHB_ID?$AA@
CONST	SEGMENT
??_C@_06MPKPIODH@NHB_ID?$AA@ DB 'NHB_ID', 00H		; `string'
CONST	ENDS
;	COMDAT ??_C@_07EBLDPGHF@Nod_Gen?$AA@
CONST	SEGMENT
??_C@_07EBLDPGHF@Nod_Gen?$AA@ DB 'Nod_Gen', 00H		; `string'
CONST	ENDS
;	COMDAT ??_C@_0BH@KNCKPPOI@Orca?5Strike?5Controller?$AA@
CONST	SEGMENT
??_C@_0BH@KNCKPPOI@Orca?5Strike?5Controller?$AA@ DB 'Orca Strike Controll'
	DB	'er', 00H					; `string'
CONST	ENDS
;	COMDAT ??_C@_0O@BHFGBELH@Strike_Preset?$AA@
CONST	SEGMENT
??_C@_0O@BHFGBELH@Strike_Preset?$AA@ DB 'Strike_Preset', 00H ; `string'
CONST	ENDS
;	COMDAT ??_C@_0N@MEOOIIPD@Orca_Warning?$AA@
CONST	SEGMENT
??_C@_0N@MEOOIIPD@Orca_Warning?$AA@ DB 'Orca_Warning', 00H ; `string'
CONST	ENDS
;	COMDAT ??_C@_06CCOCEKKI@Taunt2?$AA@
CONST	SEGMENT
??_C@_06CCOCEKKI@Taunt2?$AA@ DB 'Taunt2', 00H		; `string'
CONST	ENDS
;	COMDAT ??_C@_06JMPBJGL@Taunt1?$AA@
CONST	SEGMENT
??_C@_06JMPBJGL@Taunt1?$AA@ DB 'Taunt1', 00H		; `string'
CONST	ENDS
;	COMDAT ??_C@_07CIHEJGNA@GDI_Gen?$AA@
CONST	SEGMENT
??_C@_07CIHEJGNA@GDI_Gen?$AA@ DB 'GDI_Gen', 00H		; `string'
CONST	ENDS
;	COMDAT ??_C@_0BE@FAAIECIN@Supply_Truck_Preset?$AA@
CONST	SEGMENT
??_C@_0BE@FAAIECIN@Supply_Truck_Preset?$AA@ DB 'Supply_Truck_Preset', 00H ; `string'
CONST	ENDS
;	COMDAT ??_C@_0M@IPKOBAPD@BlamoKiller?$AA@
CONST	SEGMENT
??_C@_0M@IPKOBAPD@BlamoKiller?$AA@ DB 'BlamoKiller', 00H ; `string'
CONST	ENDS
;	COMDAT ??_C@_09IGNDJJLI@Explosive?$AA@
CONST	SEGMENT
??_C@_09IGNDJJLI@Explosive?$AA@ DB 'Explosive', 00H	; `string'
CONST	ENDS
;	COMDAT ??_C@_0BE@DHDDJGEO@Emitter_Preset_Good?$AA@
CONST	SEGMENT
??_C@_0BE@DHDDJGEO@Emitter_Preset_Good?$AA@ DB 'Emitter_Preset_Good', 00H ; `string'
CONST	ENDS
;	COMDAT ??_C@_0L@JCFEAFCJ@Time_Delay?$AA@
CONST	SEGMENT
??_C@_0L@JCFEAFCJ@Time_Delay?$AA@ DB 'Time_Delay', 00H	; `string'
CONST	ENDS
;	COMDAT ??_C@_0M@LGLODOFO@Emitter_Pos?$AA@
CONST	SEGMENT
??_C@_0M@LGLODOFO@Emitter_Pos?$AA@ DB 'Emitter_Pos', 00H ; `string'
CONST	ENDS
;	COMDAT ??_C@_0L@NOEIONE@Spawn_Path?$AA@
CONST	SEGMENT
??_C@_0L@NOEIONE@Spawn_Path?$AA@ DB 'Spawn_Path', 00H	; `string'
CONST	ENDS
;	COMDAT ??_C@_07PCHJBECB@Do_Path?$AA@
CONST	SEGMENT
??_C@_07PCHJBECB@Do_Path?$AA@ DB 'Do_Path', 00H		; `string'
CONST	ENDS
;	COMDAT ??_C@_09BEPAMFKP@Spawn_Obj?$AA@
CONST	SEGMENT
??_C@_09BEPAMFKP@Spawn_Obj?$AA@ DB 'Spawn_Obj', 00H	; `string'
CONST	ENDS
;	COMDAT ??_C@_09IPFCLICN@Spawn_Pos?$AA@
CONST	SEGMENT
??_C@_09IPFCLICN@Spawn_Pos?$AA@ DB 'Spawn_Pos', 00H	; `string'
CONST	ENDS
;	COMDAT ??_C@_0M@IIPFJCEO@Spawn_Delay?$AA@
CONST	SEGMENT
??_C@_0M@IIPFJCEO@Spawn_Delay?$AA@ DB 'Spawn_Delay', 00H ; `string'
CONST	ENDS
;	COMDAT ??_7SUR_GrantPowerup_OnEntry@@6B@
CONST	SEGMENT
??_7SUR_GrantPowerup_OnEntry@@6B@ DD FLAT:??_R4SUR_GrantPowerup_OnEntry@@6B@ ; SUR_GrantPowerup_OnEntry::`vftable'
	DD	FLAT:??_ESUR_GrantPowerup_OnEntry@@UAEPAXI@Z
	DD	FLAT:?Get_Name@ScriptImpClass@@UAEPBDXZ
	DD	FLAT:?Attach@ScriptImpClass@@MAEXPAVScriptableGameObj@@@Z
	DD	FLAT:?Detach@ScriptImpClass@@MAEXPAVScriptableGameObj@@@Z
	DD	FLAT:?Created@ScriptImpClass@@UAEXPAVScriptableGameObj@@@Z
	DD	FLAT:?Destroyed@ScriptImpClass@@UAEXPAVScriptableGameObj@@@Z
	DD	FLAT:?Killed@ScriptImpClass@@UAEXPAVScriptableGameObj@@0@Z
	DD	FLAT:?Damaged@ScriptImpClass@@UAEXPAVScriptableGameObj@@0M@Z
	DD	FLAT:?Custom@ScriptImpClass@@UAEXPAVScriptableGameObj@@HH0@Z
	DD	FLAT:?Sound_Heard@ScriptImpClass@@UAEXPAVScriptableGameObj@@ABUCombatSound@@@Z
	DD	FLAT:?Enemy_Seen@ScriptImpClass@@UAEXPAVScriptableGameObj@@0@Z
	DD	FLAT:?Action_Complete@ScriptImpClass@@UAEXPAVScriptableGameObj@@HW4ActionCompleteReason@@@Z
	DD	FLAT:?Timer_Expired@ScriptImpClass@@UAEXPAVScriptableGameObj@@H@Z
	DD	FLAT:?Animation_Complete@ScriptImpClass@@UAEXPAVScriptableGameObj@@PBD@Z
	DD	FLAT:?Poked@ScriptImpClass@@UAEXPAVScriptableGameObj@@0@Z
	DD	FLAT:?Entered@SUR_GrantPowerup_OnEntry@@EAEXPAVScriptableGameObj@@0@Z
	DD	FLAT:?Exited@ScriptImpClass@@UAEXPAVScriptableGameObj@@0@Z
	DD	FLAT:?Owner@ScriptImpClass@@UAEPAVScriptableGameObj@@XZ
	DD	FLAT:?Get_Owner_Ptr@ScriptImpClass@@UAEPAPAVScriptableGameObj@@XZ
	DD	FLAT:?Set_Parameters_String@ScriptImpClass@@UAEXPBD@Z
	DD	FLAT:?Get_Parameters_String@ScriptImpClass@@UAEXPADI@Z
	DD	FLAT:?Save@ScriptImpClass@@MAEXAAVScriptSaver@@@Z
	DD	FLAT:?Load@ScriptImpClass@@MAEXAAVScriptLoader@@@Z
	DD	FLAT:?Save_Data@ScriptImpClass@@UAEXAAVScriptSaver@@@Z
	DD	FLAT:?Load_Data@ScriptImpClass@@UAEXAAVScriptLoader@@@Z
	DD	FLAT:?Register_Auto_Save_Variables@ScriptImpClass@@UAEXXZ
CONST	ENDS
;	COMDAT ??_7SUR_Timed_Death@@6B@
CONST	SEGMENT
??_7SUR_Timed_Death@@6B@ DD FLAT:??_R4SUR_Timed_Death@@6B@ ; SUR_Timed_Death::`vftable'
	DD	FLAT:??_ESUR_Timed_Death@@UAEPAXI@Z
	DD	FLAT:?Get_Name@ScriptImpClass@@UAEPBDXZ
	DD	FLAT:?Attach@ScriptImpClass@@MAEXPAVScriptableGameObj@@@Z
	DD	FLAT:?Detach@ScriptImpClass@@MAEXPAVScriptableGameObj@@@Z
	DD	FLAT:?Created@SUR_Timed_Death@@EAEXPAVScriptableGameObj@@@Z
	DD	FLAT:?Destroyed@ScriptImpClass@@UAEXPAVScriptableGameObj@@@Z
	DD	FLAT:?Killed@ScriptImpClass@@UAEXPAVScriptableGameObj@@0@Z
	DD	FLAT:?Damaged@ScriptImpClass@@UAEXPAVScriptableGameObj@@0M@Z
	DD	FLAT:?Custom@ScriptImpClass@@UAEXPAVScriptableGameObj@@HH0@Z
	DD	FLAT:?Sound_Heard@ScriptImpClass@@UAEXPAVScriptableGameObj@@ABUCombatSound@@@Z
	DD	FLAT:?Enemy_Seen@ScriptImpClass@@UAEXPAVScriptableGameObj@@0@Z
	DD	FLAT:?Action_Complete@ScriptImpClass@@UAEXPAVScriptableGameObj@@HW4ActionCompleteReason@@@Z
	DD	FLAT:?Timer_Expired@SUR_Timed_Death@@EAEXPAVScriptableGameObj@@H@Z
	DD	FLAT:?Animation_Complete@ScriptImpClass@@UAEXPAVScriptableGameObj@@PBD@Z
	DD	FLAT:?Poked@ScriptImpClass@@UAEXPAVScriptableGameObj@@0@Z
	DD	FLAT:?Entered@ScriptImpClass@@UAEXPAVScriptableGameObj@@0@Z
	DD	FLAT:?Exited@ScriptImpClass@@UAEXPAVScriptableGameObj@@0@Z
	DD	FLAT:?Owner@ScriptImpClass@@UAEPAVScriptableGameObj@@XZ
	DD	FLAT:?Get_Owner_Ptr@ScriptImpClass@@UAEPAPAVScriptableGameObj@@XZ
	DD	FLAT:?Set_Parameters_String@ScriptImpClass@@UAEXPBD@Z
	DD	FLAT:?Get_Parameters_String@ScriptImpClass@@UAEXPADI@Z
	DD	FLAT:?Save@ScriptImpClass@@MAEXAAVScriptSaver@@@Z
	DD	FLAT:?Load@ScriptImpClass@@MAEXAAVScriptLoader@@@Z
	DD	FLAT:?Save_Data@ScriptImpClass@@UAEXAAVScriptSaver@@@Z
	DD	FLAT:?Load_Data@ScriptImpClass@@UAEXAAVScriptLoader@@@Z
	DD	FLAT:?Register_Auto_Save_Variables@ScriptImpClass@@UAEXXZ
CONST	ENDS
;	COMDAT ??_7SUR_Dep_Turret@@6B@
CONST	SEGMENT
??_7SUR_Dep_Turret@@6B@ DD FLAT:??_R4SUR_Dep_Turret@@6B@ ; SUR_Dep_Turret::`vftable'
	DD	FLAT:??_ESUR_Dep_Turret@@UAEPAXI@Z
	DD	FLAT:?Get_Name@ScriptImpClass@@UAEPBDXZ
	DD	FLAT:?Attach@ScriptImpClass@@MAEXPAVScriptableGameObj@@@Z
	DD	FLAT:?Detach@ScriptImpClass@@MAEXPAVScriptableGameObj@@@Z
	DD	FLAT:?Created@SUR_Dep_Turret@@EAEXPAVScriptableGameObj@@@Z
	DD	FLAT:?Destroyed@ScriptImpClass@@UAEXPAVScriptableGameObj@@@Z
	DD	FLAT:?Killed@ScriptImpClass@@UAEXPAVScriptableGameObj@@0@Z
	DD	FLAT:?Damaged@ScriptImpClass@@UAEXPAVScriptableGameObj@@0M@Z
	DD	FLAT:?Custom@ScriptImpClass@@UAEXPAVScriptableGameObj@@HH0@Z
	DD	FLAT:?Sound_Heard@ScriptImpClass@@UAEXPAVScriptableGameObj@@ABUCombatSound@@@Z
	DD	FLAT:?Enemy_Seen@ScriptImpClass@@UAEXPAVScriptableGameObj@@0@Z
	DD	FLAT:?Action_Complete@SUR_Dep_Turret@@EAEXPAVScriptableGameObj@@HW4ActionCompleteReason@@@Z
	DD	FLAT:?Timer_Expired@SUR_Dep_Turret@@EAEXPAVScriptableGameObj@@H@Z
	DD	FLAT:?Animation_Complete@ScriptImpClass@@UAEXPAVScriptableGameObj@@PBD@Z
	DD	FLAT:?Poked@ScriptImpClass@@UAEXPAVScriptableGameObj@@0@Z
	DD	FLAT:?Entered@ScriptImpClass@@UAEXPAVScriptableGameObj@@0@Z
	DD	FLAT:?Exited@ScriptImpClass@@UAEXPAVScriptableGameObj@@0@Z
	DD	FLAT:?Owner@ScriptImpClass@@UAEPAVScriptableGameObj@@XZ
	DD	FLAT:?Get_Owner_Ptr@ScriptImpClass@@UAEPAPAVScriptableGameObj@@XZ
	DD	FLAT:?Set_Parameters_String@ScriptImpClass@@UAEXPBD@Z
	DD	FLAT:?Get_Parameters_String@ScriptImpClass@@UAEXPADI@Z
	DD	FLAT:?Save@ScriptImpClass@@MAEXAAVScriptSaver@@@Z
	DD	FLAT:?Load@ScriptImpClass@@MAEXAAVScriptLoader@@@Z
	DD	FLAT:?Save_Data@ScriptImpClass@@UAEXAAVScriptSaver@@@Z
	DD	FLAT:?Load_Data@ScriptImpClass@@UAEXAAVScriptLoader@@@Z
	DD	FLAT:?Register_Auto_Save_Variables@SUR_Dep_Turret@@UAEXXZ
CONST	ENDS
;	COMDAT ??_7SUR_Chinook_AI@@6B@
CONST	SEGMENT
??_7SUR_Chinook_AI@@6B@ DD FLAT:??_R4SUR_Chinook_AI@@6B@ ; SUR_Chinook_AI::`vftable'
	DD	FLAT:??_ESUR_Chinook_AI@@UAEPAXI@Z
	DD	FLAT:?Get_Name@ScriptImpClass@@UAEPBDXZ
	DD	FLAT:?Attach@ScriptImpClass@@MAEXPAVScriptableGameObj@@@Z
	DD	FLAT:?Detach@ScriptImpClass@@MAEXPAVScriptableGameObj@@@Z
	DD	FLAT:?Created@ScriptImpClass@@UAEXPAVScriptableGameObj@@@Z
	DD	FLAT:?Destroyed@ScriptImpClass@@UAEXPAVScriptableGameObj@@@Z
	DD	FLAT:?Killed@ScriptImpClass@@UAEXPAVScriptableGameObj@@0@Z
	DD	FLAT:?Damaged@ScriptImpClass@@UAEXPAVScriptableGameObj@@0M@Z
	DD	FLAT:?Custom@SUR_Chinook_AI@@EAEXPAVScriptableGameObj@@HH0@Z
	DD	FLAT:?Sound_Heard@ScriptImpClass@@UAEXPAVScriptableGameObj@@ABUCombatSound@@@Z
	DD	FLAT:?Enemy_Seen@ScriptImpClass@@UAEXPAVScriptableGameObj@@0@Z
	DD	FLAT:?Action_Complete@ScriptImpClass@@UAEXPAVScriptableGameObj@@HW4ActionCompleteReason@@@Z
	DD	FLAT:?Timer_Expired@ScriptImpClass@@UAEXPAVScriptableGameObj@@H@Z
	DD	FLAT:?Animation_Complete@ScriptImpClass@@UAEXPAVScriptableGameObj@@PBD@Z
	DD	FLAT:?Poked@ScriptImpClass@@UAEXPAVScriptableGameObj@@0@Z
	DD	FLAT:?Entered@ScriptImpClass@@UAEXPAVScriptableGameObj@@0@Z
	DD	FLAT:?Exited@ScriptImpClass@@UAEXPAVScriptableGameObj@@0@Z
	DD	FLAT:?Owner@ScriptImpClass@@UAEPAVScriptableGameObj@@XZ
	DD	FLAT:?Get_Owner_Ptr@ScriptImpClass@@UAEPAPAVScriptableGameObj@@XZ
	DD	FLAT:?Set_Parameters_String@ScriptImpClass@@UAEXPBD@Z
	DD	FLAT:?Get_Parameters_String@ScriptImpClass@@UAEXPADI@Z
	DD	FLAT:?Save@ScriptImpClass@@MAEXAAVScriptSaver@@@Z
	DD	FLAT:?Load@ScriptImpClass@@MAEXAAVScriptLoader@@@Z
	DD	FLAT:?Save_Data@ScriptImpClass@@UAEXAAVScriptSaver@@@Z
	DD	FLAT:?Load_Data@ScriptImpClass@@UAEXAAVScriptLoader@@@Z
	DD	FLAT:?Register_Auto_Save_Variables@ScriptImpClass@@UAEXXZ
CONST	ENDS
;	COMDAT ??_7SUR_Orca_AI@@6B@
CONST	SEGMENT
??_7SUR_Orca_AI@@6B@ DD FLAT:??_R4SUR_Orca_AI@@6B@	; SUR_Orca_AI::`vftable'
	DD	FLAT:??_ESUR_Orca_AI@@UAEPAXI@Z
	DD	FLAT:?Get_Name@ScriptImpClass@@UAEPBDXZ
	DD	FLAT:?Attach@ScriptImpClass@@MAEXPAVScriptableGameObj@@@Z
	DD	FLAT:?Detach@ScriptImpClass@@MAEXPAVScriptableGameObj@@@Z
	DD	FLAT:?Created@SUR_Orca_AI@@EAEXPAVScriptableGameObj@@@Z
	DD	FLAT:?Destroyed@ScriptImpClass@@UAEXPAVScriptableGameObj@@@Z
	DD	FLAT:?Killed@ScriptImpClass@@UAEXPAVScriptableGameObj@@0@Z
	DD	FLAT:?Damaged@ScriptImpClass@@UAEXPAVScriptableGameObj@@0M@Z
	DD	FLAT:?Custom@SUR_Orca_AI@@EAEXPAVScriptableGameObj@@HH0@Z
	DD	FLAT:?Sound_Heard@ScriptImpClass@@UAEXPAVScriptableGameObj@@ABUCombatSound@@@Z
	DD	FLAT:?Enemy_Seen@ScriptImpClass@@UAEXPAVScriptableGameObj@@0@Z
	DD	FLAT:?Action_Complete@SUR_Orca_AI@@EAEXPAVScriptableGameObj@@HW4ActionCompleteReason@@@Z
	DD	FLAT:?Timer_Expired@ScriptImpClass@@UAEXPAVScriptableGameObj@@H@Z
	DD	FLAT:?Animation_Complete@ScriptImpClass@@UAEXPAVScriptableGameObj@@PBD@Z
	DD	FLAT:?Poked@ScriptImpClass@@UAEXPAVScriptableGameObj@@0@Z
	DD	FLAT:?Entered@ScriptImpClass@@UAEXPAVScriptableGameObj@@0@Z
	DD	FLAT:?Exited@ScriptImpClass@@UAEXPAVScriptableGameObj@@0@Z
	DD	FLAT:?Owner@ScriptImpClass@@UAEPAVScriptableGameObj@@XZ
	DD	FLAT:?Get_Owner_Ptr@ScriptImpClass@@UAEPAPAVScriptableGameObj@@XZ
	DD	FLAT:?Set_Parameters_String@ScriptImpClass@@UAEXPBD@Z
	DD	FLAT:?Get_Parameters_String@ScriptImpClass@@UAEXPADI@Z
	DD	FLAT:?Save@ScriptImpClass@@MAEXAAVScriptSaver@@@Z
	DD	FLAT:?Load@ScriptImpClass@@MAEXAAVScriptLoader@@@Z
	DD	FLAT:?Save_Data@ScriptImpClass@@UAEXAAVScriptSaver@@@Z
	DD	FLAT:?Load_Data@ScriptImpClass@@UAEXAAVScriptLoader@@@Z
	DD	FLAT:?Register_Auto_Save_Variables@ScriptImpClass@@UAEXXZ
CONST	ENDS
;	COMDAT ??_7SUR_APC_AI@@6B@
CONST	SEGMENT
??_7SUR_APC_AI@@6B@ DD FLAT:??_R4SUR_APC_AI@@6B@	; SUR_APC_AI::`vftable'
	DD	FLAT:??_ESUR_APC_AI@@UAEPAXI@Z
	DD	FLAT:?Get_Name@ScriptImpClass@@UAEPBDXZ
	DD	FLAT:?Attach@ScriptImpClass@@MAEXPAVScriptableGameObj@@@Z
	DD	FLAT:?Detach@ScriptImpClass@@MAEXPAVScriptableGameObj@@@Z
	DD	FLAT:?Created@SUR_APC_AI@@EAEXPAVScriptableGameObj@@@Z
	DD	FLAT:?Destroyed@ScriptImpClass@@UAEXPAVScriptableGameObj@@@Z
	DD	FLAT:?Killed@ScriptImpClass@@UAEXPAVScriptableGameObj@@0@Z
	DD	FLAT:?Damaged@ScriptImpClass@@UAEXPAVScriptableGameObj@@0M@Z
	DD	FLAT:?Custom@SUR_APC_AI@@EAEXPAVScriptableGameObj@@HH0@Z
	DD	FLAT:?Sound_Heard@ScriptImpClass@@UAEXPAVScriptableGameObj@@ABUCombatSound@@@Z
	DD	FLAT:?Enemy_Seen@ScriptImpClass@@UAEXPAVScriptableGameObj@@0@Z
	DD	FLAT:?Action_Complete@ScriptImpClass@@UAEXPAVScriptableGameObj@@HW4ActionCompleteReason@@@Z
	DD	FLAT:?Timer_Expired@ScriptImpClass@@UAEXPAVScriptableGameObj@@H@Z
	DD	FLAT:?Animation_Complete@ScriptImpClass@@UAEXPAVScriptableGameObj@@PBD@Z
	DD	FLAT:?Poked@ScriptImpClass@@UAEXPAVScriptableGameObj@@0@Z
	DD	FLAT:?Entered@ScriptImpClass@@UAEXPAVScriptableGameObj@@0@Z
	DD	FLAT:?Exited@ScriptImpClass@@UAEXPAVScriptableGameObj@@0@Z
	DD	FLAT:?Owner@ScriptImpClass@@UAEPAVScriptableGameObj@@XZ
	DD	FLAT:?Get_Owner_Ptr@ScriptImpClass@@UAEPAPAVScriptableGameObj@@XZ
	DD	FLAT:?Set_Parameters_String@ScriptImpClass@@UAEXPBD@Z
	DD	FLAT:?Get_Parameters_String@ScriptImpClass@@UAEXPADI@Z
	DD	FLAT:?Save@ScriptImpClass@@MAEXAAVScriptSaver@@@Z
	DD	FLAT:?Load@ScriptImpClass@@MAEXAAVScriptLoader@@@Z
	DD	FLAT:?Save_Data@ScriptImpClass@@UAEXAAVScriptSaver@@@Z
	DD	FLAT:?Load_Data@ScriptImpClass@@UAEXAAVScriptLoader@@@Z
	DD	FLAT:?Register_Auto_Save_Variables@SUR_APC_AI@@UAEXXZ
CONST	ENDS
;	COMDAT ??_7SUR_New_PT_Reciever@@6B@
CONST	SEGMENT
??_7SUR_New_PT_Reciever@@6B@ DD FLAT:??_R4SUR_New_PT_Reciever@@6B@ ; SUR_New_PT_Reciever::`vftable'
	DD	FLAT:??_ESUR_New_PT_Reciever@@UAEPAXI@Z
	DD	FLAT:?Get_Name@ScriptImpClass@@UAEPBDXZ
	DD	FLAT:?Attach@ScriptImpClass@@MAEXPAVScriptableGameObj@@@Z
	DD	FLAT:?Detach@ScriptImpClass@@MAEXPAVScriptableGameObj@@@Z
	DD	FLAT:?Created@ScriptImpClass@@UAEXPAVScriptableGameObj@@@Z
	DD	FLAT:?Destroyed@ScriptImpClass@@UAEXPAVScriptableGameObj@@@Z
	DD	FLAT:?Killed@ScriptImpClass@@UAEXPAVScriptableGameObj@@0@Z
	DD	FLAT:?Damaged@ScriptImpClass@@UAEXPAVScriptableGameObj@@0M@Z
	DD	FLAT:?Custom@SUR_New_PT_Reciever@@EAEXPAVScriptableGameObj@@HH0@Z
	DD	FLAT:?Sound_Heard@ScriptImpClass@@UAEXPAVScriptableGameObj@@ABUCombatSound@@@Z
	DD	FLAT:?Enemy_Seen@ScriptImpClass@@UAEXPAVScriptableGameObj@@0@Z
	DD	FLAT:?Action_Complete@ScriptImpClass@@UAEXPAVScriptableGameObj@@HW4ActionCompleteReason@@@Z
	DD	FLAT:?Timer_Expired@ScriptImpClass@@UAEXPAVScriptableGameObj@@H@Z
	DD	FLAT:?Animation_Complete@ScriptImpClass@@UAEXPAVScriptableGameObj@@PBD@Z
	DD	FLAT:?Poked@ScriptImpClass@@UAEXPAVScriptableGameObj@@0@Z
	DD	FLAT:?Entered@ScriptImpClass@@UAEXPAVScriptableGameObj@@0@Z
	DD	FLAT:?Exited@ScriptImpClass@@UAEXPAVScriptableGameObj@@0@Z
	DD	FLAT:?Owner@ScriptImpClass@@UAEPAVScriptableGameObj@@XZ
	DD	FLAT:?Get_Owner_Ptr@ScriptImpClass@@UAEPAPAVScriptableGameObj@@XZ
	DD	FLAT:?Set_Parameters_String@ScriptImpClass@@UAEXPBD@Z
	DD	FLAT:?Get_Parameters_String@ScriptImpClass@@UAEXPADI@Z
	DD	FLAT:?Save@ScriptImpClass@@MAEXAAVScriptSaver@@@Z
	DD	FLAT:?Load@ScriptImpClass@@MAEXAAVScriptLoader@@@Z
	DD	FLAT:?Save_Data@ScriptImpClass@@UAEXAAVScriptSaver@@@Z
	DD	FLAT:?Load_Data@ScriptImpClass@@UAEXAAVScriptLoader@@@Z
	DD	FLAT:?Register_Auto_Save_Variables@ScriptImpClass@@UAEXXZ
CONST	ENDS
;	COMDAT ??_7SUR_New_PT@@6B@
CONST	SEGMENT
??_7SUR_New_PT@@6B@ DD FLAT:??_R4SUR_New_PT@@6B@	; SUR_New_PT::`vftable'
	DD	FLAT:??_ESUR_New_PT@@UAEPAXI@Z
	DD	FLAT:?Get_Name@ScriptImpClass@@UAEPBDXZ
	DD	FLAT:?Attach@ScriptImpClass@@MAEXPAVScriptableGameObj@@@Z
	DD	FLAT:?Detach@ScriptImpClass@@MAEXPAVScriptableGameObj@@@Z
	DD	FLAT:?Created@ScriptImpClass@@UAEXPAVScriptableGameObj@@@Z
	DD	FLAT:?Destroyed@ScriptImpClass@@UAEXPAVScriptableGameObj@@@Z
	DD	FLAT:?Killed@ScriptImpClass@@UAEXPAVScriptableGameObj@@0@Z
	DD	FLAT:?Damaged@ScriptImpClass@@UAEXPAVScriptableGameObj@@0M@Z
	DD	FLAT:?Custom@SUR_New_PT@@EAEXPAVScriptableGameObj@@HH0@Z
	DD	FLAT:?Sound_Heard@ScriptImpClass@@UAEXPAVScriptableGameObj@@ABUCombatSound@@@Z
	DD	FLAT:?Enemy_Seen@ScriptImpClass@@UAEXPAVScriptableGameObj@@0@Z
	DD	FLAT:?Action_Complete@ScriptImpClass@@UAEXPAVScriptableGameObj@@HW4ActionCompleteReason@@@Z
	DD	FLAT:?Timer_Expired@ScriptImpClass@@UAEXPAVScriptableGameObj@@H@Z
	DD	FLAT:?Animation_Complete@ScriptImpClass@@UAEXPAVScriptableGameObj@@PBD@Z
	DD	FLAT:?Poked@ScriptImpClass@@UAEXPAVScriptableGameObj@@0@Z
	DD	FLAT:?Entered@ScriptImpClass@@UAEXPAVScriptableGameObj@@0@Z
	DD	FLAT:?Exited@ScriptImpClass@@UAEXPAVScriptableGameObj@@0@Z
	DD	FLAT:?Owner@ScriptImpClass@@UAEPAVScriptableGameObj@@XZ
	DD	FLAT:?Get_Owner_Ptr@ScriptImpClass@@UAEPAPAVScriptableGameObj@@XZ
	DD	FLAT:?Set_Parameters_String@ScriptImpClass@@UAEXPBD@Z
	DD	FLAT:?Get_Parameters_String@ScriptImpClass@@UAEXPADI@Z
	DD	FLAT:?Save@ScriptImpClass@@MAEXAAVScriptSaver@@@Z
	DD	FLAT:?Load@ScriptImpClass@@MAEXAAVScriptLoader@@@Z
	DD	FLAT:?Save_Data@ScriptImpClass@@UAEXAAVScriptSaver@@@Z
	DD	FLAT:?Load_Data@ScriptImpClass@@UAEXAAVScriptLoader@@@Z
	DD	FLAT:?Register_Auto_Save_Variables@ScriptImpClass@@UAEXXZ
CONST	ENDS
;	COMDAT ??_7SUR_Obj_Destroyer@@6B@
CONST	SEGMENT
??_7SUR_Obj_Destroyer@@6B@ DD FLAT:??_R4SUR_Obj_Destroyer@@6B@ ; SUR_Obj_Destroyer::`vftable'
	DD	FLAT:??_ESUR_Obj_Destroyer@@UAEPAXI@Z
	DD	FLAT:?Get_Name@ScriptImpClass@@UAEPBDXZ
	DD	FLAT:?Attach@ScriptImpClass@@MAEXPAVScriptableGameObj@@@Z
	DD	FLAT:?Detach@ScriptImpClass@@MAEXPAVScriptableGameObj@@@Z
	DD	FLAT:?Created@ScriptImpClass@@UAEXPAVScriptableGameObj@@@Z
	DD	FLAT:?Destroyed@ScriptImpClass@@UAEXPAVScriptableGameObj@@@Z
	DD	FLAT:?Killed@ScriptImpClass@@UAEXPAVScriptableGameObj@@0@Z
	DD	FLAT:?Damaged@ScriptImpClass@@UAEXPAVScriptableGameObj@@0M@Z
	DD	FLAT:?Custom@ScriptImpClass@@UAEXPAVScriptableGameObj@@HH0@Z
	DD	FLAT:?Sound_Heard@ScriptImpClass@@UAEXPAVScriptableGameObj@@ABUCombatSound@@@Z
	DD	FLAT:?Enemy_Seen@ScriptImpClass@@UAEXPAVScriptableGameObj@@0@Z
	DD	FLAT:?Action_Complete@ScriptImpClass@@UAEXPAVScriptableGameObj@@HW4ActionCompleteReason@@@Z
	DD	FLAT:?Timer_Expired@ScriptImpClass@@UAEXPAVScriptableGameObj@@H@Z
	DD	FLAT:?Animation_Complete@ScriptImpClass@@UAEXPAVScriptableGameObj@@PBD@Z
	DD	FLAT:?Poked@ScriptImpClass@@UAEXPAVScriptableGameObj@@0@Z
	DD	FLAT:?Entered@ScriptImpClass@@UAEXPAVScriptableGameObj@@0@Z
	DD	FLAT:?Exited@ScriptImpClass@@UAEXPAVScriptableGameObj@@0@Z
	DD	FLAT:?Owner@ScriptImpClass@@UAEPAVScriptableGameObj@@XZ
	DD	FLAT:?Get_Owner_Ptr@ScriptImpClass@@UAEPAPAVScriptableGameObj@@XZ
	DD	FLAT:?Set_Parameters_String@ScriptImpClass@@UAEXPBD@Z
	DD	FLAT:?Get_Parameters_String@ScriptImpClass@@UAEXPADI@Z
	DD	FLAT:?Save@ScriptImpClass@@MAEXAAVScriptSaver@@@Z
	DD	FLAT:?Load@ScriptImpClass@@MAEXAAVScriptLoader@@@Z
	DD	FLAT:?Save_Data@ScriptImpClass@@UAEXAAVScriptSaver@@@Z
	DD	FLAT:?Load_Data@ScriptImpClass@@UAEXAAVScriptLoader@@@Z
	DD	FLAT:?Register_Auto_Save_Variables@ScriptImpClass@@UAEXXZ
CONST	ENDS
;	COMDAT ??_7SUR_NHB_Soldier@@6B@
CONST	SEGMENT
??_7SUR_NHB_Soldier@@6B@ DD FLAT:??_R4SUR_NHB_Soldier@@6B@ ; SUR_NHB_Soldier::`vftable'
	DD	FLAT:??_ESUR_NHB_Soldier@@UAEPAXI@Z
	DD	FLAT:?Get_Name@ScriptImpClass@@UAEPBDXZ
	DD	FLAT:?Attach@ScriptImpClass@@MAEXPAVScriptableGameObj@@@Z
	DD	FLAT:?Detach@ScriptImpClass@@MAEXPAVScriptableGameObj@@@Z
	DD	FLAT:?Created@SUR_NHB_Soldier@@EAEXPAVScriptableGameObj@@@Z
	DD	FLAT:?Destroyed@ScriptImpClass@@UAEXPAVScriptableGameObj@@@Z
	DD	FLAT:?Killed@SUR_NHB_Soldier@@EAEXPAVScriptableGameObj@@0@Z
	DD	FLAT:?Damaged@ScriptImpClass@@UAEXPAVScriptableGameObj@@0M@Z
	DD	FLAT:?Custom@SUR_NHB_Soldier@@EAEXPAVScriptableGameObj@@HH0@Z
	DD	FLAT:?Sound_Heard@ScriptImpClass@@UAEXPAVScriptableGameObj@@ABUCombatSound@@@Z
	DD	FLAT:?Enemy_Seen@ScriptImpClass@@UAEXPAVScriptableGameObj@@0@Z
	DD	FLAT:?Action_Complete@ScriptImpClass@@UAEXPAVScriptableGameObj@@HW4ActionCompleteReason@@@Z
	DD	FLAT:?Timer_Expired@SUR_NHB_Soldier@@EAEXPAVScriptableGameObj@@H@Z
	DD	FLAT:?Animation_Complete@ScriptImpClass@@UAEXPAVScriptableGameObj@@PBD@Z
	DD	FLAT:?Poked@ScriptImpClass@@UAEXPAVScriptableGameObj@@0@Z
	DD	FLAT:?Entered@ScriptImpClass@@UAEXPAVScriptableGameObj@@0@Z
	DD	FLAT:?Exited@ScriptImpClass@@UAEXPAVScriptableGameObj@@0@Z
	DD	FLAT:?Owner@ScriptImpClass@@UAEPAVScriptableGameObj@@XZ
	DD	FLAT:?Get_Owner_Ptr@ScriptImpClass@@UAEPAPAVScriptableGameObj@@XZ
	DD	FLAT:?Set_Parameters_String@ScriptImpClass@@UAEXPBD@Z
	DD	FLAT:?Get_Parameters_String@ScriptImpClass@@UAEXPADI@Z
	DD	FLAT:?Save@ScriptImpClass@@MAEXAAVScriptSaver@@@Z
	DD	FLAT:?Load@ScriptImpClass@@MAEXAAVScriptLoader@@@Z
	DD	FLAT:?Save_Data@ScriptImpClass@@UAEXAAVScriptSaver@@@Z
	DD	FLAT:?Load_Data@ScriptImpClass@@UAEXAAVScriptLoader@@@Z
	DD	FLAT:?Register_Auto_Save_Variables@SUR_NHB_Soldier@@UAEXXZ
CONST	ENDS
;	COMDAT ??_7SUR_NHB@@6B@
CONST	SEGMENT
??_7SUR_NHB@@6B@ DD FLAT:??_R4SUR_NHB@@6B@		; SUR_NHB::`vftable'
	DD	FLAT:??_ESUR_NHB@@UAEPAXI@Z
	DD	FLAT:?Get_Name@ScriptImpClass@@UAEPBDXZ
	DD	FLAT:?Attach@ScriptImpClass@@MAEXPAVScriptableGameObj@@@Z
	DD	FLAT:?Detach@ScriptImpClass@@MAEXPAVScriptableGameObj@@@Z
	DD	FLAT:?Created@SUR_NHB@@EAEXPAVScriptableGameObj@@@Z
	DD	FLAT:?Destroyed@ScriptImpClass@@UAEXPAVScriptableGameObj@@@Z
	DD	FLAT:?Killed@ScriptImpClass@@UAEXPAVScriptableGameObj@@0@Z
	DD	FLAT:?Damaged@ScriptImpClass@@UAEXPAVScriptableGameObj@@0M@Z
	DD	FLAT:?Custom@SUR_NHB@@EAEXPAVScriptableGameObj@@HH0@Z
	DD	FLAT:?Sound_Heard@ScriptImpClass@@UAEXPAVScriptableGameObj@@ABUCombatSound@@@Z
	DD	FLAT:?Enemy_Seen@ScriptImpClass@@UAEXPAVScriptableGameObj@@0@Z
	DD	FLAT:?Action_Complete@ScriptImpClass@@UAEXPAVScriptableGameObj@@HW4ActionCompleteReason@@@Z
	DD	FLAT:?Timer_Expired@ScriptImpClass@@UAEXPAVScriptableGameObj@@H@Z
	DD	FLAT:?Animation_Complete@ScriptImpClass@@UAEXPAVScriptableGameObj@@PBD@Z
	DD	FLAT:?Poked@ScriptImpClass@@UAEXPAVScriptableGameObj@@0@Z
	DD	FLAT:?Entered@ScriptImpClass@@UAEXPAVScriptableGameObj@@0@Z
	DD	FLAT:?Exited@ScriptImpClass@@UAEXPAVScriptableGameObj@@0@Z
	DD	FLAT:?Owner@ScriptImpClass@@UAEPAVScriptableGameObj@@XZ
	DD	FLAT:?Get_Owner_Ptr@ScriptImpClass@@UAEPAPAVScriptableGameObj@@XZ
	DD	FLAT:?Set_Parameters_String@ScriptImpClass@@UAEXPBD@Z
	DD	FLAT:?Get_Parameters_String@ScriptImpClass@@UAEXPADI@Z
	DD	FLAT:?Save@ScriptImpClass@@MAEXAAVScriptSaver@@@Z
	DD	FLAT:?Load@ScriptImpClass@@MAEXAAVScriptLoader@@@Z
	DD	FLAT:?Save_Data@ScriptImpClass@@UAEXAAVScriptSaver@@@Z
	DD	FLAT:?Load_Data@ScriptImpClass@@UAEXAAVScriptLoader@@@Z
	DD	FLAT:?Register_Auto_Save_Variables@SUR_NHB@@UAEXXZ
CONST	ENDS
;	COMDAT ??_7SUR_MiniGen@@6B@
CONST	SEGMENT
??_7SUR_MiniGen@@6B@ DD FLAT:??_R4SUR_MiniGen@@6B@	; SUR_MiniGen::`vftable'
	DD	FLAT:??_ESUR_MiniGen@@UAEPAXI@Z
	DD	FLAT:?Get_Name@ScriptImpClass@@UAEPBDXZ
	DD	FLAT:?Attach@ScriptImpClass@@MAEXPAVScriptableGameObj@@@Z
	DD	FLAT:?Detach@ScriptImpClass@@MAEXPAVScriptableGameObj@@@Z
	DD	FLAT:?Created@SUR_MiniGen@@EAEXPAVScriptableGameObj@@@Z
	DD	FLAT:?Destroyed@ScriptImpClass@@UAEXPAVScriptableGameObj@@@Z
	DD	FLAT:?Killed@SUR_MiniGen@@EAEXPAVScriptableGameObj@@0@Z
	DD	FLAT:?Damaged@ScriptImpClass@@UAEXPAVScriptableGameObj@@0M@Z
	DD	FLAT:?Custom@ScriptImpClass@@UAEXPAVScriptableGameObj@@HH0@Z
	DD	FLAT:?Sound_Heard@ScriptImpClass@@UAEXPAVScriptableGameObj@@ABUCombatSound@@@Z
	DD	FLAT:?Enemy_Seen@ScriptImpClass@@UAEXPAVScriptableGameObj@@0@Z
	DD	FLAT:?Action_Complete@ScriptImpClass@@UAEXPAVScriptableGameObj@@HW4ActionCompleteReason@@@Z
	DD	FLAT:?Timer_Expired@SUR_MiniGen@@EAEXPAVScriptableGameObj@@H@Z
	DD	FLAT:?Animation_Complete@ScriptImpClass@@UAEXPAVScriptableGameObj@@PBD@Z
	DD	FLAT:?Poked@ScriptImpClass@@UAEXPAVScriptableGameObj@@0@Z
	DD	FLAT:?Entered@ScriptImpClass@@UAEXPAVScriptableGameObj@@0@Z
	DD	FLAT:?Exited@ScriptImpClass@@UAEXPAVScriptableGameObj@@0@Z
	DD	FLAT:?Owner@ScriptImpClass@@UAEPAVScriptableGameObj@@XZ
	DD	FLAT:?Get_Owner_Ptr@ScriptImpClass@@UAEPAPAVScriptableGameObj@@XZ
	DD	FLAT:?Set_Parameters_String@ScriptImpClass@@UAEXPBD@Z
	DD	FLAT:?Get_Parameters_String@ScriptImpClass@@UAEXPADI@Z
	DD	FLAT:?Save@ScriptImpClass@@MAEXAAVScriptSaver@@@Z
	DD	FLAT:?Load@ScriptImpClass@@MAEXAAVScriptLoader@@@Z
	DD	FLAT:?Save_Data@ScriptImpClass@@UAEXAAVScriptSaver@@@Z
	DD	FLAT:?Load_Data@ScriptImpClass@@UAEXAAVScriptLoader@@@Z
	DD	FLAT:?Register_Auto_Save_Variables@ScriptImpClass@@UAEXXZ
CONST	ENDS
;	COMDAT ??_7SUR_Generator_Zone@@6B@
CONST	SEGMENT
??_7SUR_Generator_Zone@@6B@ DD FLAT:??_R4SUR_Generator_Zone@@6B@ ; SUR_Generator_Zone::`vftable'
	DD	FLAT:??_ESUR_Generator_Zone@@UAEPAXI@Z
	DD	FLAT:?Get_Name@ScriptImpClass@@UAEPBDXZ
	DD	FLAT:?Attach@ScriptImpClass@@MAEXPAVScriptableGameObj@@@Z
	DD	FLAT:?Detach@ScriptImpClass@@MAEXPAVScriptableGameObj@@@Z
	DD	FLAT:?Created@SUR_Generator_Zone@@EAEXPAVScriptableGameObj@@@Z
	DD	FLAT:?Destroyed@ScriptImpClass@@UAEXPAVScriptableGameObj@@@Z
	DD	FLAT:?Killed@ScriptImpClass@@UAEXPAVScriptableGameObj@@0@Z
	DD	FLAT:?Damaged@ScriptImpClass@@UAEXPAVScriptableGameObj@@0M@Z
	DD	FLAT:?Custom@ScriptImpClass@@UAEXPAVScriptableGameObj@@HH0@Z
	DD	FLAT:?Sound_Heard@ScriptImpClass@@UAEXPAVScriptableGameObj@@ABUCombatSound@@@Z
	DD	FLAT:?Enemy_Seen@ScriptImpClass@@UAEXPAVScriptableGameObj@@0@Z
	DD	FLAT:?Action_Complete@ScriptImpClass@@UAEXPAVScriptableGameObj@@HW4ActionCompleteReason@@@Z
	DD	FLAT:?Timer_Expired@SUR_Generator_Zone@@EAEXPAVScriptableGameObj@@H@Z
	DD	FLAT:?Animation_Complete@ScriptImpClass@@UAEXPAVScriptableGameObj@@PBD@Z
	DD	FLAT:?Poked@ScriptImpClass@@UAEXPAVScriptableGameObj@@0@Z
	DD	FLAT:?Entered@SUR_Generator_Zone@@EAEXPAVScriptableGameObj@@0@Z
	DD	FLAT:?Exited@ScriptImpClass@@UAEXPAVScriptableGameObj@@0@Z
	DD	FLAT:?Owner@ScriptImpClass@@UAEPAVScriptableGameObj@@XZ
	DD	FLAT:?Get_Owner_Ptr@ScriptImpClass@@UAEPAPAVScriptableGameObj@@XZ
	DD	FLAT:?Set_Parameters_String@ScriptImpClass@@UAEXPBD@Z
	DD	FLAT:?Get_Parameters_String@ScriptImpClass@@UAEXPADI@Z
	DD	FLAT:?Save@ScriptImpClass@@MAEXAAVScriptSaver@@@Z
	DD	FLAT:?Load@ScriptImpClass@@MAEXAAVScriptLoader@@@Z
	DD	FLAT:?Save_Data@ScriptImpClass@@UAEXAAVScriptSaver@@@Z
	DD	FLAT:?Load_Data@ScriptImpClass@@UAEXAAVScriptLoader@@@Z
	DD	FLAT:?Register_Auto_Save_Variables@SUR_Generator_Zone@@UAEXXZ
CONST	ENDS
;	COMDAT ??_7SUR_Spawn_Delay@@6B@
CONST	SEGMENT
??_7SUR_Spawn_Delay@@6B@ DD FLAT:??_R4SUR_Spawn_Delay@@6B@ ; SUR_Spawn_Delay::`vftable'
	DD	FLAT:??_ESUR_Spawn_Delay@@UAEPAXI@Z
	DD	FLAT:?Get_Name@ScriptImpClass@@UAEPBDXZ
	DD	FLAT:?Attach@ScriptImpClass@@MAEXPAVScriptableGameObj@@@Z
	DD	FLAT:?Detach@ScriptImpClass@@MAEXPAVScriptableGameObj@@@Z
	DD	FLAT:?Created@SUR_Spawn_Delay@@EAEXPAVScriptableGameObj@@@Z
	DD	FLAT:?Destroyed@ScriptImpClass@@UAEXPAVScriptableGameObj@@@Z
	DD	FLAT:?Killed@ScriptImpClass@@UAEXPAVScriptableGameObj@@0@Z
	DD	FLAT:?Damaged@ScriptImpClass@@UAEXPAVScriptableGameObj@@0M@Z
	DD	FLAT:?Custom@ScriptImpClass@@UAEXPAVScriptableGameObj@@HH0@Z
	DD	FLAT:?Sound_Heard@ScriptImpClass@@UAEXPAVScriptableGameObj@@ABUCombatSound@@@Z
	DD	FLAT:?Enemy_Seen@ScriptImpClass@@UAEXPAVScriptableGameObj@@0@Z
	DD	FLAT:?Action_Complete@ScriptImpClass@@UAEXPAVScriptableGameObj@@HW4ActionCompleteReason@@@Z
	DD	FLAT:?Timer_Expired@SUR_Spawn_Delay@@EAEXPAVScriptableGameObj@@H@Z
	DD	FLAT:?Animation_Complete@ScriptImpClass@@UAEXPAVScriptableGameObj@@PBD@Z
	DD	FLAT:?Poked@ScriptImpClass@@UAEXPAVScriptableGameObj@@0@Z
	DD	FLAT:?Entered@ScriptImpClass@@UAEXPAVScriptableGameObj@@0@Z
	DD	FLAT:?Exited@ScriptImpClass@@UAEXPAVScriptableGameObj@@0@Z
	DD	FLAT:?Owner@ScriptImpClass@@UAEPAVScriptableGameObj@@XZ
	DD	FLAT:?Get_Owner_Ptr@ScriptImpClass@@UAEPAPAVScriptableGameObj@@XZ
	DD	FLAT:?Set_Parameters_String@ScriptImpClass@@UAEXPBD@Z
	DD	FLAT:?Get_Parameters_String@ScriptImpClass@@UAEXPADI@Z
	DD	FLAT:?Save@ScriptImpClass@@MAEXAAVScriptSaver@@@Z
	DD	FLAT:?Load@ScriptImpClass@@MAEXAAVScriptLoader@@@Z
	DD	FLAT:?Save_Data@ScriptImpClass@@UAEXAAVScriptSaver@@@Z
	DD	FLAT:?Load_Data@ScriptImpClass@@UAEXAAVScriptLoader@@@Z
	DD	FLAT:?Register_Auto_Save_Variables@ScriptImpClass@@UAEXXZ
CONST	ENDS
;	COMDAT ??_7ScriptFactory@@6B@
CONST	SEGMENT
??_7ScriptFactory@@6B@ DD FLAT:??_R4ScriptFactory@@6B@	; ScriptFactory::`vftable'
	DD	FLAT:??_EScriptFactory@@UAEPAXI@Z
	DD	FLAT:__purecall
CONST	ENDS
;	COMDAT ??_7ScriptImpClass@@6B@
CONST	SEGMENT
??_7ScriptImpClass@@6B@ DD FLAT:??_R4ScriptImpClass@@6B@ ; ScriptImpClass::`vftable'
	DD	FLAT:??_EScriptImpClass@@UAEPAXI@Z
	DD	FLAT:?Get_Name@ScriptImpClass@@UAEPBDXZ
	DD	FLAT:?Attach@ScriptImpClass@@MAEXPAVScriptableGameObj@@@Z
	DD	FLAT:?Detach@ScriptImpClass@@MAEXPAVScriptableGameObj@@@Z
	DD	FLAT:?Created@ScriptImpClass@@UAEXPAVScriptableGameObj@@@Z
	DD	FLAT:?Destroyed@ScriptImpClass@@UAEXPAVScriptableGameObj@@@Z
	DD	FLAT:?Killed@ScriptImpClass@@UAEXPAVScriptableGameObj@@0@Z
	DD	FLAT:?Damaged@ScriptImpClass@@UAEXPAVScriptableGameObj@@0M@Z
	DD	FLAT:?Custom@ScriptImpClass@@UAEXPAVScriptableGameObj@@HH0@Z
	DD	FLAT:?Sound_Heard@ScriptImpClass@@UAEXPAVScriptableGameObj@@ABUCombatSound@@@Z
	DD	FLAT:?Enemy_Seen@ScriptImpClass@@UAEXPAVScriptableGameObj@@0@Z
	DD	FLAT:?Action_Complete@ScriptImpClass@@UAEXPAVScriptableGameObj@@HW4ActionCompleteReason@@@Z
	DD	FLAT:?Timer_Expired@ScriptImpClass@@UAEXPAVScriptableGameObj@@H@Z
	DD	FLAT:?Animation_Complete@ScriptImpClass@@UAEXPAVScriptableGameObj@@PBD@Z
	DD	FLAT:?Poked@ScriptImpClass@@UAEXPAVScriptableGameObj@@0@Z
	DD	FLAT:?Entered@ScriptImpClass@@UAEXPAVScriptableGameObj@@0@Z
	DD	FLAT:?Exited@ScriptImpClass@@UAEXPAVScriptableGameObj@@0@Z
	DD	FLAT:?Owner@ScriptImpClass@@UAEPAVScriptableGameObj@@XZ
	DD	FLAT:?Get_Owner_Ptr@ScriptImpClass@@UAEPAPAVScriptableGameObj@@XZ
	DD	FLAT:?Set_Parameters_String@ScriptImpClass@@UAEXPBD@Z
	DD	FLAT:?Get_Parameters_String@ScriptImpClass@@UAEXPADI@Z
	DD	FLAT:?Save@ScriptImpClass@@MAEXAAVScriptSaver@@@Z
	DD	FLAT:?Load@ScriptImpClass@@MAEXAAVScriptLoader@@@Z
	DD	FLAT:?Save_Data@ScriptImpClass@@UAEXAAVScriptSaver@@@Z
	DD	FLAT:?Load_Data@ScriptImpClass@@UAEXAAVScriptLoader@@@Z
	DD	FLAT:?Register_Auto_Save_Variables@ScriptImpClass@@UAEXXZ
CONST	ENDS
;	COMDAT ??_7ScriptClass@@6B@
CONST	SEGMENT
??_7ScriptClass@@6B@ DD FLAT:??_R4ScriptClass@@6B@	; ScriptClass::`vftable'
	DD	FLAT:??_EScriptClass@@UAEPAXI@Z
	DD	FLAT:__purecall
	DD	FLAT:__purecall
	DD	FLAT:__purecall
	DD	FLAT:__purecall
	DD	FLAT:__purecall
	DD	FLAT:__purecall
	DD	FLAT:__purecall
	DD	FLAT:__purecall
	DD	FLAT:__purecall
	DD	FLAT:__purecall
	DD	FLAT:__purecall
	DD	FLAT:__purecall
	DD	FLAT:__purecall
	DD	FLAT:__purecall
	DD	FLAT:__purecall
	DD	FLAT:__purecall
	DD	FLAT:?Owner@GameObjObserverClass@@UAEPAVScriptableGameObj@@XZ
	DD	FLAT:__purecall
	DD	FLAT:__purecall
	DD	FLAT:__purecall
	DD	FLAT:__purecall
	DD	FLAT:__purecall
CONST	ENDS
;	COMDAT ??_7GameObjObserverClass@@6B@
CONST	SEGMENT
??_7GameObjObserverClass@@6B@ DD FLAT:??_R4GameObjObserverClass@@6B@ ; GameObjObserverClass::`vftable'
	DD	FLAT:??_EGameObjObserverClass@@UAEPAXI@Z
	DD	FLAT:__purecall
	DD	FLAT:__purecall
	DD	FLAT:__purecall
	DD	FLAT:__purecall
	DD	FLAT:__purecall
	DD	FLAT:__purecall
	DD	FLAT:__purecall
	DD	FLAT:__purecall
	DD	FLAT:__purecall
	DD	FLAT:__purecall
	DD	FLAT:__purecall
	DD	FLAT:__purecall
	DD	FLAT:__purecall
	DD	FLAT:__purecall
	DD	FLAT:__purecall
	DD	FLAT:__purecall
	DD	FLAT:?Owner@GameObjObserverClass@@UAEPAVScriptableGameObj@@XZ
CONST	ENDS
CRT$XCU	SEGMENT
_SUR_Generator_Zone_Registrant$initializer$ DD FLAT:??__ESUR_Generator_Zone_Registrant@@YAXXZ
CRT$XCU	ENDS
CRT$XCU	SEGMENT
_SUR_MiniGen_Registrant$initializer$ DD FLAT:??__ESUR_MiniGen_Registrant@@YAXXZ
CRT$XCU	ENDS
CRT$XCU	SEGMENT
_SUR_NHB_Registrant$initializer$ DD FLAT:??__ESUR_NHB_Registrant@@YAXXZ
CRT$XCU	ENDS
CRT$XCU	SEGMENT
_SUR_NHB_Soldier_Registrant$initializer$ DD FLAT:??__ESUR_NHB_Soldier_Registrant@@YAXXZ
CRT$XCU	ENDS
CRT$XCU	SEGMENT
_SUR_Obj_Destroyer_Registrant$initializer$ DD FLAT:??__ESUR_Obj_Destroyer_Registrant@@YAXXZ
CRT$XCU	ENDS
CRT$XCU	SEGMENT
_SUR_New_PT_Registrant$initializer$ DD FLAT:??__ESUR_New_PT_Registrant@@YAXXZ
CRT$XCU	ENDS
CRT$XCU	SEGMENT
_SUR_New_PT_Reciever_Registrant$initializer$ DD FLAT:??__ESUR_New_PT_Reciever_Registrant@@YAXXZ
CRT$XCU	ENDS
CRT$XCU	SEGMENT
_SUR_APC_AI_Registrant$initializer$ DD FLAT:??__ESUR_APC_AI_Registrant@@YAXXZ
CRT$XCU	ENDS
CRT$XCU	SEGMENT
_SUR_Orca_AI_Registrant$initializer$ DD FLAT:??__ESUR_Orca_AI_Registrant@@YAXXZ
CRT$XCU	ENDS
CRT$XCU	SEGMENT
_SUR_Chinook_AI_Registrant$initializer$ DD FLAT:??__ESUR_Chinook_AI_Registrant@@YAXXZ
CRT$XCU	ENDS
CRT$XCU	SEGMENT
_SUR_Dep_Turret_Registrant$initializer$ DD FLAT:??__ESUR_Dep_Turret_Registrant@@YAXXZ
CRT$XCU	ENDS
CRT$XCU	SEGMENT
_SUR_Timed_Death_Registrant$initializer$ DD FLAT:??__ESUR_Timed_Death_Registrant@@YAXXZ
CRT$XCU	ENDS
CRT$XCU	SEGMENT
_SUR_GrantPowerup_OnEntry_Registrant$initializer$ DD FLAT:??__ESUR_GrantPowerup_OnEntry_Registrant@@YAXXZ
CRT$XCU	ENDS
; Function compile flags: /Odtp /ZI
;	COMDAT ??__FSUR_GrantPowerup_OnEntry_Registrant@@YAXXZ
text$yd	SEGMENT
??__FSUR_GrantPowerup_OnEntry_Registrant@@YAXXZ PROC	; `dynamic atexit destructor for 'SUR_GrantPowerup_OnEntry_Registrant'', COMDAT
	push	ebp
	mov	ebp, esp
	sub	esp, 64					; 00000040H
	push	ebx
	push	esi
	push	edi
	mov	ecx, OFFSET ?SUR_GrantPowerup_OnEntry_Registrant@@3V?$ScriptRegistrant@VSUR_GrantPowerup_OnEntry@@@@A ; SUR_GrantPowerup_OnEntry_Registrant
	call	??1?$ScriptRegistrant@VSUR_GrantPowerup_OnEntry@@@@UAE@XZ
	pop	edi
	pop	esi
	pop	ebx
	mov	esp, ebp
	pop	ebp
	ret	0
??__FSUR_GrantPowerup_OnEntry_Registrant@@YAXXZ ENDP	; `dynamic atexit destructor for 'SUR_GrantPowerup_OnEntry_Registrant''
text$yd	ENDS
; Function compile flags: /Odtp /ZI
; File x:\github\renegade\dragonade_rxd\scripts\survival.cpp
;	COMDAT ??__ESUR_GrantPowerup_OnEntry_Registrant@@YAXXZ
text$yc	SEGMENT
??__ESUR_GrantPowerup_OnEntry_Registrant@@YAXXZ PROC	; `dynamic initializer for 'SUR_GrantPowerup_OnEntry_Registrant'', COMDAT

; 832  : ScriptRegistrant<SUR_GrantPowerup_OnEntry> SUR_GrantPowerup_OnEntry_Registrant("SUR_GrantPowerup_OnEntry","Preset:string,Powerup:string");

	push	ebp
	mov	ebp, esp
	sub	esp, 64					; 00000040H
	push	ebx
	push	esi
	push	edi
	push	OFFSET ??_C@_0BN@OELIADGD@Preset?3string?0Powerup?3string?$AA@
	push	OFFSET ??_C@_0BJ@KLABFPHM@SUR_GrantPowerup_OnEntry?$AA@
	mov	ecx, OFFSET ?SUR_GrantPowerup_OnEntry_Registrant@@3V?$ScriptRegistrant@VSUR_GrantPowerup_OnEntry@@@@A ; SUR_GrantPowerup_OnEntry_Registrant
	call	??0?$ScriptRegistrant@VSUR_GrantPowerup_OnEntry@@@@QAE@PBD0@Z ; ScriptRegistrant<SUR_GrantPowerup_OnEntry>::ScriptRegistrant<SUR_GrantPowerup_OnEntry>
	push	OFFSET ??__FSUR_GrantPowerup_OnEntry_Registrant@@YAXXZ ; `dynamic atexit destructor for 'SUR_GrantPowerup_OnEntry_Registrant''
	call	_atexit
	add	esp, 4
	pop	edi
	pop	esi
	pop	ebx
	mov	esp, ebp
	pop	ebp
	ret	0
??__ESUR_GrantPowerup_OnEntry_Registrant@@YAXXZ ENDP	; `dynamic initializer for 'SUR_GrantPowerup_OnEntry_Registrant''
text$yc	ENDS
; Function compile flags: /Odtp /ZI
;	COMDAT ??_G?$ScriptRegistrant@VSUR_GrantPowerup_OnEntry@@@@UAEPAXI@Z
_TEXT	SEGMENT
_this$ = -4						; size = 4
___flags$ = 8						; size = 4
??_G?$ScriptRegistrant@VSUR_GrantPowerup_OnEntry@@@@UAEPAXI@Z PROC ; ScriptRegistrant<SUR_GrantPowerup_OnEntry>::`scalar deleting destructor', COMDAT
; _this$ = ecx
	push	ebp
	mov	ebp, esp
	sub	esp, 68					; 00000044H
	push	ebx
	push	esi
	push	edi
	mov	DWORD PTR _this$[ebp], ecx
	mov	ecx, DWORD PTR _this$[ebp]
	call	??1?$ScriptRegistrant@VSUR_GrantPowerup_OnEntry@@@@UAE@XZ
	mov	eax, DWORD PTR ___flags$[ebp]
	and	eax, 1
	je	SHORT $LN1@scalar
	mov	eax, DWORD PTR _this$[ebp]
	push	eax
	call	??3@YAXPAX@Z				; operator delete
	add	esp, 4
$LN1@scalar:
	mov	eax, DWORD PTR _this$[ebp]
	pop	edi
	pop	esi
	pop	ebx
	mov	esp, ebp
	pop	ebp
	ret	4
??_G?$ScriptRegistrant@VSUR_GrantPowerup_OnEntry@@@@UAEPAXI@Z ENDP ; ScriptRegistrant<SUR_GrantPowerup_OnEntry>::`scalar deleting destructor'
_TEXT	ENDS
; Function compile flags: /Odtp /ZI
;	COMDAT ??1?$ScriptRegistrant@VSUR_GrantPowerup_OnEntry@@@@UAE@XZ
_TEXT	SEGMENT
_this$ = -4						; size = 4
??1?$ScriptRegistrant@VSUR_GrantPowerup_OnEntry@@@@UAE@XZ PROC ; ScriptRegistrant<SUR_GrantPowerup_OnEntry>::~ScriptRegistrant<SUR_GrantPowerup_OnEntry>, COMDAT
; _this$ = ecx
	push	ebp
	mov	ebp, esp
	sub	esp, 68					; 00000044H
	push	ebx
	push	esi
	push	edi
	mov	DWORD PTR _this$[ebp], ecx
	mov	ecx, DWORD PTR _this$[ebp]
	call	??1ScriptFactory@@UAE@XZ		; ScriptFactory::~ScriptFactory
	pop	edi
	pop	esi
	pop	ebx
	mov	esp, ebp
	pop	ebp
	ret	0
??1?$ScriptRegistrant@VSUR_GrantPowerup_OnEntry@@@@UAE@XZ ENDP ; ScriptRegistrant<SUR_GrantPowerup_OnEntry>::~ScriptRegistrant<SUR_GrantPowerup_OnEntry>
_TEXT	ENDS
; Function compile flags: /Odtp /ZI
; File x:\github\renegade\dragonade_rxd\scripts\scripts.h
;	COMDAT ?Create@?$ScriptRegistrant@VSUR_GrantPowerup_OnEntry@@@@UAEPAVScriptImpClass@@XZ
_TEXT	SEGMENT
tv77 = -84						; size = 4
tv79 = -80						; size = 4
$T1 = -76						; size = 4
_script$ = -8						; size = 4
_this$ = -4						; size = 4
?Create@?$ScriptRegistrant@VSUR_GrantPowerup_OnEntry@@@@UAEPAVScriptImpClass@@XZ PROC ; ScriptRegistrant<SUR_GrantPowerup_OnEntry>::Create, COMDAT
; _this$ = ecx

; 552  : 	{

	push	ebp
	mov	ebp, esp
	sub	esp, 84					; 00000054H
	push	ebx
	push	esi
	push	edi
	mov	DWORD PTR _this$[ebp], ecx

; 553  : 		T* script = new T;

	push	OFFSET ??_C@_0DJ@EEEDKFIH@ScriptRegistrant?$DMclass?5SUR_Grant@
	push	553					; 00000229H
	push	OFFSET ??_C@_0DD@KMKBFFOF@x?3?2github?2renegade?2dragonade_rxd@
	call	?SetThreadTrackingInformation@@YAXPBDI0@Z ; SetThreadTrackingInformation
	add	esp, 12					; 0000000cH
	xor	eax, eax
	je	SHORT $LN6@Create
	xor	ecx, ecx
	jne	SHORT $LN3@Create
	push	553					; 00000229H
	push	OFFSET ??_C@_1GG@OGNLNBPD@?$AAx?$AA?3?$AA?2?$AAg?$AAi?$AAt?$AAh?$AAu?$AAb?$AA?2?$AAr?$AAe?$AAn?$AAe?$AAg?$AAa?$AAd?$AAe?$AA?2?$AAd?$AAr?$AAa?$AAg?$AAo?$AAn?$AAa?$AAd?$AAe?$AA_?$AAr?$AAx?$AAd@
	push	OFFSET ??_C@_1M@HLGKFCJM@?$AAf?$AAa?$AAl?$AAs?$AAe?$AA?$AA@
	call	DWORD PTR __imp___wassert
	add	esp, 12					; 0000000cH
$LN3@Create:
	mov	DWORD PTR tv79[ebp], 0
	jmp	SHORT $LN7@Create
$LN6@Create:
	push	28					; 0000001cH
	call	??2@YAPAXI@Z				; operator new
	add	esp, 4
	mov	DWORD PTR $T1[ebp], eax
	cmp	DWORD PTR $T1[ebp], 0
	je	SHORT $LN4@Create
	mov	ecx, DWORD PTR $T1[ebp]
	call	??0SUR_GrantPowerup_OnEntry@@QAE@XZ
	mov	DWORD PTR tv77[ebp], eax
	jmp	SHORT $LN5@Create
$LN4@Create:
	mov	DWORD PTR tv77[ebp], 0
$LN5@Create:
	mov	eax, DWORD PTR tv77[ebp]
	mov	DWORD PTR tv79[ebp], eax
$LN7@Create:
	mov	ecx, DWORD PTR tv79[ebp]
	mov	DWORD PTR _script$[ebp], ecx

; 554  : 		script->SetFactory(this);

	mov	eax, DWORD PTR _this$[ebp]
	push	eax
	mov	ecx, DWORD PTR _script$[ebp]
	call	?SetFactory@ScriptImpClass@@QAEXPAVScriptFactory@@@Z ; ScriptImpClass::SetFactory

; 555  : 		script->Register_Auto_Save_Variables();

	mov	eax, DWORD PTR _script$[ebp]
	mov	edx, DWORD PTR [eax]
	mov	ecx, DWORD PTR _script$[ebp]
	mov	eax, DWORD PTR [edx+100]
	call	eax

; 556  : 		return script;

	mov	eax, DWORD PTR _script$[ebp]

; 557  : 	}

	pop	edi
	pop	esi
	pop	ebx
	mov	esp, ebp
	pop	ebp
	ret	0
?Create@?$ScriptRegistrant@VSUR_GrantPowerup_OnEntry@@@@UAEPAVScriptImpClass@@XZ ENDP ; ScriptRegistrant<SUR_GrantPowerup_OnEntry>::Create
_TEXT	ENDS
; Function compile flags: /Odtp /ZI
; File x:\github\renegade\dragonade_rxd\scripts\scripts.h
;	COMDAT ??0?$ScriptRegistrant@VSUR_GrantPowerup_OnEntry@@@@QAE@PBD0@Z
_TEXT	SEGMENT
_this$ = -4						; size = 4
_name$ = 8						; size = 4
_param$ = 12						; size = 4
??0?$ScriptRegistrant@VSUR_GrantPowerup_OnEntry@@@@QAE@PBD0@Z PROC ; ScriptRegistrant<SUR_GrantPowerup_OnEntry>::ScriptRegistrant<SUR_GrantPowerup_OnEntry>, COMDAT
; _this$ = ecx

; 549  : 	{

	push	ebp
	mov	ebp, esp
	sub	esp, 68					; 00000044H
	push	ebx
	push	esi
	push	edi
	mov	DWORD PTR _this$[ebp], ecx
	mov	eax, DWORD PTR _param$[ebp]
	push	eax
	mov	ecx, DWORD PTR _name$[ebp]
	push	ecx
	mov	ecx, DWORD PTR _this$[ebp]
	call	??0ScriptFactory@@IAE@PBD0@Z		; ScriptFactory::ScriptFactory
	mov	eax, DWORD PTR _this$[ebp]
	mov	DWORD PTR [eax], OFFSET ??_7?$ScriptRegistrant@VSUR_GrantPowerup_OnEntry@@@@6B@

; 550  : 	}

	mov	eax, DWORD PTR _this$[ebp]
	pop	edi
	pop	esi
	pop	ebx
	mov	esp, ebp
	pop	ebp
	ret	8
??0?$ScriptRegistrant@VSUR_GrantPowerup_OnEntry@@@@QAE@PBD0@Z ENDP ; ScriptRegistrant<SUR_GrantPowerup_OnEntry>::ScriptRegistrant<SUR_GrantPowerup_OnEntry>
_TEXT	ENDS
; Function compile flags: /Odtp /ZI
;	COMDAT ??__FSUR_Timed_Death_Registrant@@YAXXZ
text$yd	SEGMENT
??__FSUR_Timed_Death_Registrant@@YAXXZ PROC		; `dynamic atexit destructor for 'SUR_Timed_Death_Registrant'', COMDAT
	push	ebp
	mov	ebp, esp
	sub	esp, 64					; 00000040H
	push	ebx
	push	esi
	push	edi
	mov	ecx, OFFSET ?SUR_Timed_Death_Registrant@@3V?$ScriptRegistrant@VSUR_Timed_Death@@@@A ; SUR_Timed_Death_Registrant
	call	??1?$ScriptRegistrant@VSUR_Timed_Death@@@@UAE@XZ
	pop	edi
	pop	esi
	pop	ebx
	mov	esp, ebp
	pop	ebp
	ret	0
??__FSUR_Timed_Death_Registrant@@YAXXZ ENDP		; `dynamic atexit destructor for 'SUR_Timed_Death_Registrant''
text$yd	ENDS
; Function compile flags: /Odtp /ZI
; File x:\github\renegade\dragonade_rxd\scripts\survival.cpp
;	COMDAT ??__ESUR_Timed_Death_Registrant@@YAXXZ
text$yc	SEGMENT
??__ESUR_Timed_Death_Registrant@@YAXXZ PROC		; `dynamic initializer for 'SUR_Timed_Death_Registrant'', COMDAT

; 831  : ScriptRegistrant<SUR_Timed_Death> SUR_Timed_Death_Registrant("SUR_Timed_Death","Delay:float,Damage_Amount:float,Damage_Type:string");

	push	ebp
	mov	ebp, esp
	sub	esp, 64					; 00000040H
	push	ebx
	push	esi
	push	edi
	push	OFFSET ??_C@_0DD@BINEMFNP@Delay?3float?0Damage_Amount?3float?0@
	push	OFFSET ??_C@_0BA@LIDMMLAJ@SUR_Timed_Death?$AA@
	mov	ecx, OFFSET ?SUR_Timed_Death_Registrant@@3V?$ScriptRegistrant@VSUR_Timed_Death@@@@A ; SUR_Timed_Death_Registrant
	call	??0?$ScriptRegistrant@VSUR_Timed_Death@@@@QAE@PBD0@Z ; ScriptRegistrant<SUR_Timed_Death>::ScriptRegistrant<SUR_Timed_Death>
	push	OFFSET ??__FSUR_Timed_Death_Registrant@@YAXXZ ; `dynamic atexit destructor for 'SUR_Timed_Death_Registrant''
	call	_atexit
	add	esp, 4
	pop	edi
	pop	esi
	pop	ebx
	mov	esp, ebp
	pop	ebp
	ret	0
??__ESUR_Timed_Death_Registrant@@YAXXZ ENDP		; `dynamic initializer for 'SUR_Timed_Death_Registrant''
text$yc	ENDS
; Function compile flags: /Odtp /ZI
;	COMDAT ??_G?$ScriptRegistrant@VSUR_Timed_Death@@@@UAEPAXI@Z
_TEXT	SEGMENT
_this$ = -4						; size = 4
___flags$ = 8						; size = 4
??_G?$ScriptRegistrant@VSUR_Timed_Death@@@@UAEPAXI@Z PROC ; ScriptRegistrant<SUR_Timed_Death>::`scalar deleting destructor', COMDAT
; _this$ = ecx
	push	ebp
	mov	ebp, esp
	sub	esp, 68					; 00000044H
	push	ebx
	push	esi
	push	edi
	mov	DWORD PTR _this$[ebp], ecx
	mov	ecx, DWORD PTR _this$[ebp]
	call	??1?$ScriptRegistrant@VSUR_Timed_Death@@@@UAE@XZ
	mov	eax, DWORD PTR ___flags$[ebp]
	and	eax, 1
	je	SHORT $LN1@scalar
	mov	eax, DWORD PTR _this$[ebp]
	push	eax
	call	??3@YAXPAX@Z				; operator delete
	add	esp, 4
$LN1@scalar:
	mov	eax, DWORD PTR _this$[ebp]
	pop	edi
	pop	esi
	pop	ebx
	mov	esp, ebp
	pop	ebp
	ret	4
??_G?$ScriptRegistrant@VSUR_Timed_Death@@@@UAEPAXI@Z ENDP ; ScriptRegistrant<SUR_Timed_Death>::`scalar deleting destructor'
_TEXT	ENDS
; Function compile flags: /Odtp /ZI
;	COMDAT ??1?$ScriptRegistrant@VSUR_Timed_Death@@@@UAE@XZ
_TEXT	SEGMENT
_this$ = -4						; size = 4
??1?$ScriptRegistrant@VSUR_Timed_Death@@@@UAE@XZ PROC	; ScriptRegistrant<SUR_Timed_Death>::~ScriptRegistrant<SUR_Timed_Death>, COMDAT
; _this$ = ecx
	push	ebp
	mov	ebp, esp
	sub	esp, 68					; 00000044H
	push	ebx
	push	esi
	push	edi
	mov	DWORD PTR _this$[ebp], ecx
	mov	ecx, DWORD PTR _this$[ebp]
	call	??1ScriptFactory@@UAE@XZ		; ScriptFactory::~ScriptFactory
	pop	edi
	pop	esi
	pop	ebx
	mov	esp, ebp
	pop	ebp
	ret	0
??1?$ScriptRegistrant@VSUR_Timed_Death@@@@UAE@XZ ENDP	; ScriptRegistrant<SUR_Timed_Death>::~ScriptRegistrant<SUR_Timed_Death>
_TEXT	ENDS
; Function compile flags: /Odtp /ZI
; File x:\github\renegade\dragonade_rxd\scripts\scripts.h
;	COMDAT ?Create@?$ScriptRegistrant@VSUR_Timed_Death@@@@UAEPAVScriptImpClass@@XZ
_TEXT	SEGMENT
tv77 = -84						; size = 4
tv79 = -80						; size = 4
$T1 = -76						; size = 4
_script$ = -8						; size = 4
_this$ = -4						; size = 4
?Create@?$ScriptRegistrant@VSUR_Timed_Death@@@@UAEPAVScriptImpClass@@XZ PROC ; ScriptRegistrant<SUR_Timed_Death>::Create, COMDAT
; _this$ = ecx

; 552  : 	{

	push	ebp
	mov	ebp, esp
	sub	esp, 84					; 00000054H
	push	ebx
	push	esi
	push	edi
	mov	DWORD PTR _this$[ebp], ecx

; 553  : 		T* script = new T;

	push	OFFSET ??_C@_0DA@FKNKJHCG@ScriptRegistrant?$DMclass?5SUR_Timed@
	push	553					; 00000229H
	push	OFFSET ??_C@_0DD@KMKBFFOF@x?3?2github?2renegade?2dragonade_rxd@
	call	?SetThreadTrackingInformation@@YAXPBDI0@Z ; SetThreadTrackingInformation
	add	esp, 12					; 0000000cH
	xor	eax, eax
	je	SHORT $LN6@Create
	xor	ecx, ecx
	jne	SHORT $LN3@Create
	push	553					; 00000229H
	push	OFFSET ??_C@_1GG@OGNLNBPD@?$AAx?$AA?3?$AA?2?$AAg?$AAi?$AAt?$AAh?$AAu?$AAb?$AA?2?$AAr?$AAe?$AAn?$AAe?$AAg?$AAa?$AAd?$AAe?$AA?2?$AAd?$AAr?$AAa?$AAg?$AAo?$AAn?$AAa?$AAd?$AAe?$AA_?$AAr?$AAx?$AAd@
	push	OFFSET ??_C@_1M@HLGKFCJM@?$AAf?$AAa?$AAl?$AAs?$AAe?$AA?$AA@
	call	DWORD PTR __imp___wassert
	add	esp, 12					; 0000000cH
$LN3@Create:
	mov	DWORD PTR tv79[ebp], 0
	jmp	SHORT $LN7@Create
$LN6@Create:
	push	28					; 0000001cH
	call	??2@YAPAXI@Z				; operator new
	add	esp, 4
	mov	DWORD PTR $T1[ebp], eax
	cmp	DWORD PTR $T1[ebp], 0
	je	SHORT $LN4@Create
	mov	ecx, DWORD PTR $T1[ebp]
	call	??0SUR_Timed_Death@@QAE@XZ
	mov	DWORD PTR tv77[ebp], eax
	jmp	SHORT $LN5@Create
$LN4@Create:
	mov	DWORD PTR tv77[ebp], 0
$LN5@Create:
	mov	eax, DWORD PTR tv77[ebp]
	mov	DWORD PTR tv79[ebp], eax
$LN7@Create:
	mov	ecx, DWORD PTR tv79[ebp]
	mov	DWORD PTR _script$[ebp], ecx

; 554  : 		script->SetFactory(this);

	mov	eax, DWORD PTR _this$[ebp]
	push	eax
	mov	ecx, DWORD PTR _script$[ebp]
	call	?SetFactory@ScriptImpClass@@QAEXPAVScriptFactory@@@Z ; ScriptImpClass::SetFactory

; 555  : 		script->Register_Auto_Save_Variables();

	mov	eax, DWORD PTR _script$[ebp]
	mov	edx, DWORD PTR [eax]
	mov	ecx, DWORD PTR _script$[ebp]
	mov	eax, DWORD PTR [edx+100]
	call	eax

; 556  : 		return script;

	mov	eax, DWORD PTR _script$[ebp]

; 557  : 	}

	pop	edi
	pop	esi
	pop	ebx
	mov	esp, ebp
	pop	ebp
	ret	0
?Create@?$ScriptRegistrant@VSUR_Timed_Death@@@@UAEPAVScriptImpClass@@XZ ENDP ; ScriptRegistrant<SUR_Timed_Death>::Create
_TEXT	ENDS
; Function compile flags: /Odtp /ZI
; File x:\github\renegade\dragonade_rxd\scripts\scripts.h
;	COMDAT ??0?$ScriptRegistrant@VSUR_Timed_Death@@@@QAE@PBD0@Z
_TEXT	SEGMENT
_this$ = -4						; size = 4
_name$ = 8						; size = 4
_param$ = 12						; size = 4
??0?$ScriptRegistrant@VSUR_Timed_Death@@@@QAE@PBD0@Z PROC ; ScriptRegistrant<SUR_Timed_Death>::ScriptRegistrant<SUR_Timed_Death>, COMDAT
; _this$ = ecx

; 549  : 	{

	push	ebp
	mov	ebp, esp
	sub	esp, 68					; 00000044H
	push	ebx
	push	esi
	push	edi
	mov	DWORD PTR _this$[ebp], ecx
	mov	eax, DWORD PTR _param$[ebp]
	push	eax
	mov	ecx, DWORD PTR _name$[ebp]
	push	ecx
	mov	ecx, DWORD PTR _this$[ebp]
	call	??0ScriptFactory@@IAE@PBD0@Z		; ScriptFactory::ScriptFactory
	mov	eax, DWORD PTR _this$[ebp]
	mov	DWORD PTR [eax], OFFSET ??_7?$ScriptRegistrant@VSUR_Timed_Death@@@@6B@

; 550  : 	}

	mov	eax, DWORD PTR _this$[ebp]
	pop	edi
	pop	esi
	pop	ebx
	mov	esp, ebp
	pop	ebp
	ret	8
??0?$ScriptRegistrant@VSUR_Timed_Death@@@@QAE@PBD0@Z ENDP ; ScriptRegistrant<SUR_Timed_Death>::ScriptRegistrant<SUR_Timed_Death>
_TEXT	ENDS
; Function compile flags: /Odtp /ZI
;	COMDAT ??__FSUR_Dep_Turret_Registrant@@YAXXZ
text$yd	SEGMENT
??__FSUR_Dep_Turret_Registrant@@YAXXZ PROC		; `dynamic atexit destructor for 'SUR_Dep_Turret_Registrant'', COMDAT
	push	ebp
	mov	ebp, esp
	sub	esp, 64					; 00000040H
	push	ebx
	push	esi
	push	edi
	mov	ecx, OFFSET ?SUR_Dep_Turret_Registrant@@3V?$ScriptRegistrant@VSUR_Dep_Turret@@@@A ; SUR_Dep_Turret_Registrant
	call	??1?$ScriptRegistrant@VSUR_Dep_Turret@@@@UAE@XZ
	pop	edi
	pop	esi
	pop	ebx
	mov	esp, ebp
	pop	ebp
	ret	0
??__FSUR_Dep_Turret_Registrant@@YAXXZ ENDP		; `dynamic atexit destructor for 'SUR_Dep_Turret_Registrant''
text$yd	ENDS
; Function compile flags: /Odtp /ZI
; File x:\github\renegade\dragonade_rxd\scripts\survival.cpp
;	COMDAT ??__ESUR_Dep_Turret_Registrant@@YAXXZ
text$yc	SEGMENT
??__ESUR_Dep_Turret_Registrant@@YAXXZ PROC		; `dynamic initializer for 'SUR_Dep_Turret_Registrant'', COMDAT

; 830  : ScriptRegistrant<SUR_Dep_Turret> SUR_Dep_Turret_Registrant("SUR_Dep_Turret","MinAttackDistance=0.0:float,MaxAttackDistance=300.0:float,AttackTimer=10.0:int");

	push	ebp
	mov	ebp, esp
	sub	esp, 64					; 00000040H
	push	ebx
	push	esi
	push	edi
	push	OFFSET ??_C@_0EP@COIIGKKP@MinAttackDistance?$DN0?40?3float?0MaxA@
	push	OFFSET ??_C@_0P@NFLNCIFF@SUR_Dep_Turret?$AA@
	mov	ecx, OFFSET ?SUR_Dep_Turret_Registrant@@3V?$ScriptRegistrant@VSUR_Dep_Turret@@@@A ; SUR_Dep_Turret_Registrant
	call	??0?$ScriptRegistrant@VSUR_Dep_Turret@@@@QAE@PBD0@Z ; ScriptRegistrant<SUR_Dep_Turret>::ScriptRegistrant<SUR_Dep_Turret>
	push	OFFSET ??__FSUR_Dep_Turret_Registrant@@YAXXZ ; `dynamic atexit destructor for 'SUR_Dep_Turret_Registrant''
	call	_atexit
	add	esp, 4
	pop	edi
	pop	esi
	pop	ebx
	mov	esp, ebp
	pop	ebp
	ret	0
??__ESUR_Dep_Turret_Registrant@@YAXXZ ENDP		; `dynamic initializer for 'SUR_Dep_Turret_Registrant''
text$yc	ENDS
; Function compile flags: /Odtp /ZI
;	COMDAT ??_G?$ScriptRegistrant@VSUR_Dep_Turret@@@@UAEPAXI@Z
_TEXT	SEGMENT
_this$ = -4						; size = 4
___flags$ = 8						; size = 4
??_G?$ScriptRegistrant@VSUR_Dep_Turret@@@@UAEPAXI@Z PROC ; ScriptRegistrant<SUR_Dep_Turret>::`scalar deleting destructor', COMDAT
; _this$ = ecx
	push	ebp
	mov	ebp, esp
	sub	esp, 68					; 00000044H
	push	ebx
	push	esi
	push	edi
	mov	DWORD PTR _this$[ebp], ecx
	mov	ecx, DWORD PTR _this$[ebp]
	call	??1?$ScriptRegistrant@VSUR_Dep_Turret@@@@UAE@XZ
	mov	eax, DWORD PTR ___flags$[ebp]
	and	eax, 1
	je	SHORT $LN1@scalar
	mov	eax, DWORD PTR _this$[ebp]
	push	eax
	call	??3@YAXPAX@Z				; operator delete
	add	esp, 4
$LN1@scalar:
	mov	eax, DWORD PTR _this$[ebp]
	pop	edi
	pop	esi
	pop	ebx
	mov	esp, ebp
	pop	ebp
	ret	4
??_G?$ScriptRegistrant@VSUR_Dep_Turret@@@@UAEPAXI@Z ENDP ; ScriptRegistrant<SUR_Dep_Turret>::`scalar deleting destructor'
_TEXT	ENDS
; Function compile flags: /Odtp /ZI
;	COMDAT ??1?$ScriptRegistrant@VSUR_Dep_Turret@@@@UAE@XZ
_TEXT	SEGMENT
_this$ = -4						; size = 4
??1?$ScriptRegistrant@VSUR_Dep_Turret@@@@UAE@XZ PROC	; ScriptRegistrant<SUR_Dep_Turret>::~ScriptRegistrant<SUR_Dep_Turret>, COMDAT
; _this$ = ecx
	push	ebp
	mov	ebp, esp
	sub	esp, 68					; 00000044H
	push	ebx
	push	esi
	push	edi
	mov	DWORD PTR _this$[ebp], ecx
	mov	ecx, DWORD PTR _this$[ebp]
	call	??1ScriptFactory@@UAE@XZ		; ScriptFactory::~ScriptFactory
	pop	edi
	pop	esi
	pop	ebx
	mov	esp, ebp
	pop	ebp
	ret	0
??1?$ScriptRegistrant@VSUR_Dep_Turret@@@@UAE@XZ ENDP	; ScriptRegistrant<SUR_Dep_Turret>::~ScriptRegistrant<SUR_Dep_Turret>
_TEXT	ENDS
; Function compile flags: /Odtp /ZI
; File x:\github\renegade\dragonade_rxd\scripts\scripts.h
;	COMDAT ?Create@?$ScriptRegistrant@VSUR_Dep_Turret@@@@UAEPAVScriptImpClass@@XZ
_TEXT	SEGMENT
tv77 = -84						; size = 4
tv79 = -80						; size = 4
$T1 = -76						; size = 4
_script$ = -8						; size = 4
_this$ = -4						; size = 4
?Create@?$ScriptRegistrant@VSUR_Dep_Turret@@@@UAEPAVScriptImpClass@@XZ PROC ; ScriptRegistrant<SUR_Dep_Turret>::Create, COMDAT
; _this$ = ecx

; 552  : 	{

	push	ebp
	mov	ebp, esp
	sub	esp, 84					; 00000054H
	push	ebx
	push	esi
	push	edi
	mov	DWORD PTR _this$[ebp], ecx

; 553  : 		T* script = new T;

	push	OFFSET ??_C@_0CP@PIFLBOGP@ScriptRegistrant?$DMclass?5SUR_Dep_T@
	push	553					; 00000229H
	push	OFFSET ??_C@_0DD@KMKBFFOF@x?3?2github?2renegade?2dragonade_rxd@
	call	?SetThreadTrackingInformation@@YAXPBDI0@Z ; SetThreadTrackingInformation
	add	esp, 12					; 0000000cH
	xor	eax, eax
	je	SHORT $LN6@Create
	xor	ecx, ecx
	jne	SHORT $LN3@Create
	push	553					; 00000229H
	push	OFFSET ??_C@_1GG@OGNLNBPD@?$AAx?$AA?3?$AA?2?$AAg?$AAi?$AAt?$AAh?$AAu?$AAb?$AA?2?$AAr?$AAe?$AAn?$AAe?$AAg?$AAa?$AAd?$AAe?$AA?2?$AAd?$AAr?$AAa?$AAg?$AAo?$AAn?$AAa?$AAd?$AAe?$AA_?$AAr?$AAx?$AAd@
	push	OFFSET ??_C@_1M@HLGKFCJM@?$AAf?$AAa?$AAl?$AAs?$AAe?$AA?$AA@
	call	DWORD PTR __imp___wassert
	add	esp, 12					; 0000000cH
$LN3@Create:
	mov	DWORD PTR tv79[ebp], 0
	jmp	SHORT $LN7@Create
$LN6@Create:
	push	44					; 0000002cH
	call	??2@YAPAXI@Z				; operator new
	add	esp, 4
	mov	DWORD PTR $T1[ebp], eax
	cmp	DWORD PTR $T1[ebp], 0
	je	SHORT $LN4@Create
	mov	ecx, DWORD PTR $T1[ebp]
	call	??0SUR_Dep_Turret@@QAE@XZ
	mov	DWORD PTR tv77[ebp], eax
	jmp	SHORT $LN5@Create
$LN4@Create:
	mov	DWORD PTR tv77[ebp], 0
$LN5@Create:
	mov	eax, DWORD PTR tv77[ebp]
	mov	DWORD PTR tv79[ebp], eax
$LN7@Create:
	mov	ecx, DWORD PTR tv79[ebp]
	mov	DWORD PTR _script$[ebp], ecx

; 554  : 		script->SetFactory(this);

	mov	eax, DWORD PTR _this$[ebp]
	push	eax
	mov	ecx, DWORD PTR _script$[ebp]
	call	?SetFactory@ScriptImpClass@@QAEXPAVScriptFactory@@@Z ; ScriptImpClass::SetFactory

; 555  : 		script->Register_Auto_Save_Variables();

	mov	eax, DWORD PTR _script$[ebp]
	mov	edx, DWORD PTR [eax]
	mov	ecx, DWORD PTR _script$[ebp]
	mov	eax, DWORD PTR [edx+100]
	call	eax

; 556  : 		return script;

	mov	eax, DWORD PTR _script$[ebp]

; 557  : 	}

	pop	edi
	pop	esi
	pop	ebx
	mov	esp, ebp
	pop	ebp
	ret	0
?Create@?$ScriptRegistrant@VSUR_Dep_Turret@@@@UAEPAVScriptImpClass@@XZ ENDP ; ScriptRegistrant<SUR_Dep_Turret>::Create
_TEXT	ENDS
; Function compile flags: /Odtp /ZI
; File x:\github\renegade\dragonade_rxd\scripts\scripts.h
;	COMDAT ??0?$ScriptRegistrant@VSUR_Dep_Turret@@@@QAE@PBD0@Z
_TEXT	SEGMENT
_this$ = -4						; size = 4
_name$ = 8						; size = 4
_param$ = 12						; size = 4
??0?$ScriptRegistrant@VSUR_Dep_Turret@@@@QAE@PBD0@Z PROC ; ScriptRegistrant<SUR_Dep_Turret>::ScriptRegistrant<SUR_Dep_Turret>, COMDAT
; _this$ = ecx

; 549  : 	{

	push	ebp
	mov	ebp, esp
	sub	esp, 68					; 00000044H
	push	ebx
	push	esi
	push	edi
	mov	DWORD PTR _this$[ebp], ecx
	mov	eax, DWORD PTR _param$[ebp]
	push	eax
	mov	ecx, DWORD PTR _name$[ebp]
	push	ecx
	mov	ecx, DWORD PTR _this$[ebp]
	call	??0ScriptFactory@@IAE@PBD0@Z		; ScriptFactory::ScriptFactory
	mov	eax, DWORD PTR _this$[ebp]
	mov	DWORD PTR [eax], OFFSET ??_7?$ScriptRegistrant@VSUR_Dep_Turret@@@@6B@

; 550  : 	}

	mov	eax, DWORD PTR _this$[ebp]
	pop	edi
	pop	esi
	pop	ebx
	mov	esp, ebp
	pop	ebp
	ret	8
??0?$ScriptRegistrant@VSUR_Dep_Turret@@@@QAE@PBD0@Z ENDP ; ScriptRegistrant<SUR_Dep_Turret>::ScriptRegistrant<SUR_Dep_Turret>
_TEXT	ENDS
; Function compile flags: /Odtp /ZI
;	COMDAT ??__FSUR_Chinook_AI_Registrant@@YAXXZ
text$yd	SEGMENT
??__FSUR_Chinook_AI_Registrant@@YAXXZ PROC		; `dynamic atexit destructor for 'SUR_Chinook_AI_Registrant'', COMDAT
	push	ebp
	mov	ebp, esp
	sub	esp, 64					; 00000040H
	push	ebx
	push	esi
	push	edi
	mov	ecx, OFFSET ?SUR_Chinook_AI_Registrant@@3V?$ScriptRegistrant@VSUR_Chinook_AI@@@@A ; SUR_Chinook_AI_Registrant
	call	??1?$ScriptRegistrant@VSUR_Chinook_AI@@@@UAE@XZ
	pop	edi
	pop	esi
	pop	ebx
	mov	esp, ebp
	pop	ebp
	ret	0
??__FSUR_Chinook_AI_Registrant@@YAXXZ ENDP		; `dynamic atexit destructor for 'SUR_Chinook_AI_Registrant''
text$yd	ENDS
; Function compile flags: /Odtp /ZI
; File x:\github\renegade\dragonade_rxd\scripts\survival.cpp
;	COMDAT ??__ESUR_Chinook_AI_Registrant@@YAXXZ
text$yc	SEGMENT
??__ESUR_Chinook_AI_Registrant@@YAXXZ PROC		; `dynamic initializer for 'SUR_Chinook_AI_Registrant'', COMDAT

; 829  : ScriptRegistrant<SUR_Chinook_AI> SUR_Chinook_AI_Registrant("SUR_Chinook_AI","Preset_Name:string,Position_Offset:vector3");

	push	ebp
	mov	ebp, esp
	sub	esp, 64					; 00000040H
	push	ebx
	push	esi
	push	edi
	push	OFFSET ??_C@_0CL@JNOFFELC@Preset_Name?3string?0Position_Offs@
	push	OFFSET ??_C@_0P@CCFBOFGI@SUR_Chinook_AI?$AA@
	mov	ecx, OFFSET ?SUR_Chinook_AI_Registrant@@3V?$ScriptRegistrant@VSUR_Chinook_AI@@@@A ; SUR_Chinook_AI_Registrant
	call	??0?$ScriptRegistrant@VSUR_Chinook_AI@@@@QAE@PBD0@Z ; ScriptRegistrant<SUR_Chinook_AI>::ScriptRegistrant<SUR_Chinook_AI>
	push	OFFSET ??__FSUR_Chinook_AI_Registrant@@YAXXZ ; `dynamic atexit destructor for 'SUR_Chinook_AI_Registrant''
	call	_atexit
	add	esp, 4
	pop	edi
	pop	esi
	pop	ebx
	mov	esp, ebp
	pop	ebp
	ret	0
??__ESUR_Chinook_AI_Registrant@@YAXXZ ENDP		; `dynamic initializer for 'SUR_Chinook_AI_Registrant''
text$yc	ENDS
; Function compile flags: /Odtp /ZI
;	COMDAT ??_G?$ScriptRegistrant@VSUR_Chinook_AI@@@@UAEPAXI@Z
_TEXT	SEGMENT
_this$ = -4						; size = 4
___flags$ = 8						; size = 4
??_G?$ScriptRegistrant@VSUR_Chinook_AI@@@@UAEPAXI@Z PROC ; ScriptRegistrant<SUR_Chinook_AI>::`scalar deleting destructor', COMDAT
; _this$ = ecx
	push	ebp
	mov	ebp, esp
	sub	esp, 68					; 00000044H
	push	ebx
	push	esi
	push	edi
	mov	DWORD PTR _this$[ebp], ecx
	mov	ecx, DWORD PTR _this$[ebp]
	call	??1?$ScriptRegistrant@VSUR_Chinook_AI@@@@UAE@XZ
	mov	eax, DWORD PTR ___flags$[ebp]
	and	eax, 1
	je	SHORT $LN1@scalar
	mov	eax, DWORD PTR _this$[ebp]
	push	eax
	call	??3@YAXPAX@Z				; operator delete
	add	esp, 4
$LN1@scalar:
	mov	eax, DWORD PTR _this$[ebp]
	pop	edi
	pop	esi
	pop	ebx
	mov	esp, ebp
	pop	ebp
	ret	4
??_G?$ScriptRegistrant@VSUR_Chinook_AI@@@@UAEPAXI@Z ENDP ; ScriptRegistrant<SUR_Chinook_AI>::`scalar deleting destructor'
_TEXT	ENDS
; Function compile flags: /Odtp /ZI
;	COMDAT ??1?$ScriptRegistrant@VSUR_Chinook_AI@@@@UAE@XZ
_TEXT	SEGMENT
_this$ = -4						; size = 4
??1?$ScriptRegistrant@VSUR_Chinook_AI@@@@UAE@XZ PROC	; ScriptRegistrant<SUR_Chinook_AI>::~ScriptRegistrant<SUR_Chinook_AI>, COMDAT
; _this$ = ecx
	push	ebp
	mov	ebp, esp
	sub	esp, 68					; 00000044H
	push	ebx
	push	esi
	push	edi
	mov	DWORD PTR _this$[ebp], ecx
	mov	ecx, DWORD PTR _this$[ebp]
	call	??1ScriptFactory@@UAE@XZ		; ScriptFactory::~ScriptFactory
	pop	edi
	pop	esi
	pop	ebx
	mov	esp, ebp
	pop	ebp
	ret	0
??1?$ScriptRegistrant@VSUR_Chinook_AI@@@@UAE@XZ ENDP	; ScriptRegistrant<SUR_Chinook_AI>::~ScriptRegistrant<SUR_Chinook_AI>
_TEXT	ENDS
; Function compile flags: /Odtp /ZI
; File x:\github\renegade\dragonade_rxd\scripts\scripts.h
;	COMDAT ?Create@?$ScriptRegistrant@VSUR_Chinook_AI@@@@UAEPAVScriptImpClass@@XZ
_TEXT	SEGMENT
tv77 = -84						; size = 4
tv79 = -80						; size = 4
$T1 = -76						; size = 4
_script$ = -8						; size = 4
_this$ = -4						; size = 4
?Create@?$ScriptRegistrant@VSUR_Chinook_AI@@@@UAEPAVScriptImpClass@@XZ PROC ; ScriptRegistrant<SUR_Chinook_AI>::Create, COMDAT
; _this$ = ecx

; 552  : 	{

	push	ebp
	mov	ebp, esp
	sub	esp, 84					; 00000054H
	push	ebx
	push	esi
	push	edi
	mov	DWORD PTR _this$[ebp], ecx

; 553  : 		T* script = new T;

	push	OFFSET ??_C@_0CP@KBBIOMO@ScriptRegistrant?$DMclass?5SUR_Chino@
	push	553					; 00000229H
	push	OFFSET ??_C@_0DD@KMKBFFOF@x?3?2github?2renegade?2dragonade_rxd@
	call	?SetThreadTrackingInformation@@YAXPBDI0@Z ; SetThreadTrackingInformation
	add	esp, 12					; 0000000cH
	xor	eax, eax
	je	SHORT $LN6@Create
	xor	ecx, ecx
	jne	SHORT $LN3@Create
	push	553					; 00000229H
	push	OFFSET ??_C@_1GG@OGNLNBPD@?$AAx?$AA?3?$AA?2?$AAg?$AAi?$AAt?$AAh?$AAu?$AAb?$AA?2?$AAr?$AAe?$AAn?$AAe?$AAg?$AAa?$AAd?$AAe?$AA?2?$AAd?$AAr?$AAa?$AAg?$AAo?$AAn?$AAa?$AAd?$AAe?$AA_?$AAr?$AAx?$AAd@
	push	OFFSET ??_C@_1M@HLGKFCJM@?$AAf?$AAa?$AAl?$AAs?$AAe?$AA?$AA@
	call	DWORD PTR __imp___wassert
	add	esp, 12					; 0000000cH
$LN3@Create:
	mov	DWORD PTR tv79[ebp], 0
	jmp	SHORT $LN7@Create
$LN6@Create:
	push	28					; 0000001cH
	call	??2@YAPAXI@Z				; operator new
	add	esp, 4
	mov	DWORD PTR $T1[ebp], eax
	cmp	DWORD PTR $T1[ebp], 0
	je	SHORT $LN4@Create
	mov	ecx, DWORD PTR $T1[ebp]
	call	??0SUR_Chinook_AI@@QAE@XZ
	mov	DWORD PTR tv77[ebp], eax
	jmp	SHORT $LN5@Create
$LN4@Create:
	mov	DWORD PTR tv77[ebp], 0
$LN5@Create:
	mov	eax, DWORD PTR tv77[ebp]
	mov	DWORD PTR tv79[ebp], eax
$LN7@Create:
	mov	ecx, DWORD PTR tv79[ebp]
	mov	DWORD PTR _script$[ebp], ecx

; 554  : 		script->SetFactory(this);

	mov	eax, DWORD PTR _this$[ebp]
	push	eax
	mov	ecx, DWORD PTR _script$[ebp]
	call	?SetFactory@ScriptImpClass@@QAEXPAVScriptFactory@@@Z ; ScriptImpClass::SetFactory

; 555  : 		script->Register_Auto_Save_Variables();

	mov	eax, DWORD PTR _script$[ebp]
	mov	edx, DWORD PTR [eax]
	mov	ecx, DWORD PTR _script$[ebp]
	mov	eax, DWORD PTR [edx+100]
	call	eax

; 556  : 		return script;

	mov	eax, DWORD PTR _script$[ebp]

; 557  : 	}

	pop	edi
	pop	esi
	pop	ebx
	mov	esp, ebp
	pop	ebp
	ret	0
?Create@?$ScriptRegistrant@VSUR_Chinook_AI@@@@UAEPAVScriptImpClass@@XZ ENDP ; ScriptRegistrant<SUR_Chinook_AI>::Create
_TEXT	ENDS
; Function compile flags: /Odtp /ZI
; File x:\github\renegade\dragonade_rxd\scripts\scripts.h
;	COMDAT ??0?$ScriptRegistrant@VSUR_Chinook_AI@@@@QAE@PBD0@Z
_TEXT	SEGMENT
_this$ = -4						; size = 4
_name$ = 8						; size = 4
_param$ = 12						; size = 4
??0?$ScriptRegistrant@VSUR_Chinook_AI@@@@QAE@PBD0@Z PROC ; ScriptRegistrant<SUR_Chinook_AI>::ScriptRegistrant<SUR_Chinook_AI>, COMDAT
; _this$ = ecx

; 549  : 	{

	push	ebp
	mov	ebp, esp
	sub	esp, 68					; 00000044H
	push	ebx
	push	esi
	push	edi
	mov	DWORD PTR _this$[ebp], ecx
	mov	eax, DWORD PTR _param$[ebp]
	push	eax
	mov	ecx, DWORD PTR _name$[ebp]
	push	ecx
	mov	ecx, DWORD PTR _this$[ebp]
	call	??0ScriptFactory@@IAE@PBD0@Z		; ScriptFactory::ScriptFactory
	mov	eax, DWORD PTR _this$[ebp]
	mov	DWORD PTR [eax], OFFSET ??_7?$ScriptRegistrant@VSUR_Chinook_AI@@@@6B@

; 550  : 	}

	mov	eax, DWORD PTR _this$[ebp]
	pop	edi
	pop	esi
	pop	ebx
	mov	esp, ebp
	pop	ebp
	ret	8
??0?$ScriptRegistrant@VSUR_Chinook_AI@@@@QAE@PBD0@Z ENDP ; ScriptRegistrant<SUR_Chinook_AI>::ScriptRegistrant<SUR_Chinook_AI>
_TEXT	ENDS
; Function compile flags: /Odtp /ZI
;	COMDAT ??__FSUR_Orca_AI_Registrant@@YAXXZ
text$yd	SEGMENT
??__FSUR_Orca_AI_Registrant@@YAXXZ PROC			; `dynamic atexit destructor for 'SUR_Orca_AI_Registrant'', COMDAT
	push	ebp
	mov	ebp, esp
	sub	esp, 64					; 00000040H
	push	ebx
	push	esi
	push	edi
	mov	ecx, OFFSET ?SUR_Orca_AI_Registrant@@3V?$ScriptRegistrant@VSUR_Orca_AI@@@@A ; SUR_Orca_AI_Registrant
	call	??1?$ScriptRegistrant@VSUR_Orca_AI@@@@UAE@XZ
	pop	edi
	pop	esi
	pop	ebx
	mov	esp, ebp
	pop	ebp
	ret	0
??__FSUR_Orca_AI_Registrant@@YAXXZ ENDP			; `dynamic atexit destructor for 'SUR_Orca_AI_Registrant''
text$yd	ENDS
; Function compile flags: /Odtp /ZI
; File x:\github\renegade\dragonade_rxd\scripts\survival.cpp
;	COMDAT ??__ESUR_Orca_AI_Registrant@@YAXXZ
text$yc	SEGMENT
??__ESUR_Orca_AI_Registrant@@YAXXZ PROC			; `dynamic initializer for 'SUR_Orca_AI_Registrant'', COMDAT

; 828  : ScriptRegistrant<SUR_Orca_AI> SUR_Orca_AI_Registrant("SUR_Orca_AI","NHB_ID:int,Attack_Offset:vector3");

	push	ebp
	mov	ebp, esp
	sub	esp, 64					; 00000040H
	push	ebx
	push	esi
	push	edi
	push	OFFSET ??_C@_0CB@GPNICFGL@NHB_ID?3int?0Attack_Offset?3vector3@
	push	OFFSET ??_C@_0M@LENJCGNN@SUR_Orca_AI?$AA@
	mov	ecx, OFFSET ?SUR_Orca_AI_Registrant@@3V?$ScriptRegistrant@VSUR_Orca_AI@@@@A ; SUR_Orca_AI_Registrant
	call	??0?$ScriptRegistrant@VSUR_Orca_AI@@@@QAE@PBD0@Z ; ScriptRegistrant<SUR_Orca_AI>::ScriptRegistrant<SUR_Orca_AI>
	push	OFFSET ??__FSUR_Orca_AI_Registrant@@YAXXZ ; `dynamic atexit destructor for 'SUR_Orca_AI_Registrant''
	call	_atexit
	add	esp, 4
	pop	edi
	pop	esi
	pop	ebx
	mov	esp, ebp
	pop	ebp
	ret	0
??__ESUR_Orca_AI_Registrant@@YAXXZ ENDP			; `dynamic initializer for 'SUR_Orca_AI_Registrant''
text$yc	ENDS
; Function compile flags: /Odtp /ZI
;	COMDAT ??_G?$ScriptRegistrant@VSUR_Orca_AI@@@@UAEPAXI@Z
_TEXT	SEGMENT
_this$ = -4						; size = 4
___flags$ = 8						; size = 4
??_G?$ScriptRegistrant@VSUR_Orca_AI@@@@UAEPAXI@Z PROC	; ScriptRegistrant<SUR_Orca_AI>::`scalar deleting destructor', COMDAT
; _this$ = ecx
	push	ebp
	mov	ebp, esp
	sub	esp, 68					; 00000044H
	push	ebx
	push	esi
	push	edi
	mov	DWORD PTR _this$[ebp], ecx
	mov	ecx, DWORD PTR _this$[ebp]
	call	??1?$ScriptRegistrant@VSUR_Orca_AI@@@@UAE@XZ
	mov	eax, DWORD PTR ___flags$[ebp]
	and	eax, 1
	je	SHORT $LN1@scalar
	mov	eax, DWORD PTR _this$[ebp]
	push	eax
	call	??3@YAXPAX@Z				; operator delete
	add	esp, 4
$LN1@scalar:
	mov	eax, DWORD PTR _this$[ebp]
	pop	edi
	pop	esi
	pop	ebx
	mov	esp, ebp
	pop	ebp
	ret	4
??_G?$ScriptRegistrant@VSUR_Orca_AI@@@@UAEPAXI@Z ENDP	; ScriptRegistrant<SUR_Orca_AI>::`scalar deleting destructor'
_TEXT	ENDS
; Function compile flags: /Odtp /ZI
;	COMDAT ??1?$ScriptRegistrant@VSUR_Orca_AI@@@@UAE@XZ
_TEXT	SEGMENT
_this$ = -4						; size = 4
??1?$ScriptRegistrant@VSUR_Orca_AI@@@@UAE@XZ PROC	; ScriptRegistrant<SUR_Orca_AI>::~ScriptRegistrant<SUR_Orca_AI>, COMDAT
; _this$ = ecx
	push	ebp
	mov	ebp, esp
	sub	esp, 68					; 00000044H
	push	ebx
	push	esi
	push	edi
	mov	DWORD PTR _this$[ebp], ecx
	mov	ecx, DWORD PTR _this$[ebp]
	call	??1ScriptFactory@@UAE@XZ		; ScriptFactory::~ScriptFactory
	pop	edi
	pop	esi
	pop	ebx
	mov	esp, ebp
	pop	ebp
	ret	0
??1?$ScriptRegistrant@VSUR_Orca_AI@@@@UAE@XZ ENDP	; ScriptRegistrant<SUR_Orca_AI>::~ScriptRegistrant<SUR_Orca_AI>
_TEXT	ENDS
; Function compile flags: /Odtp /ZI
; File x:\github\renegade\dragonade_rxd\scripts\scripts.h
;	COMDAT ?Create@?$ScriptRegistrant@VSUR_Orca_AI@@@@UAEPAVScriptImpClass@@XZ
_TEXT	SEGMENT
tv77 = -84						; size = 4
tv79 = -80						; size = 4
$T1 = -76						; size = 4
_script$ = -8						; size = 4
_this$ = -4						; size = 4
?Create@?$ScriptRegistrant@VSUR_Orca_AI@@@@UAEPAVScriptImpClass@@XZ PROC ; ScriptRegistrant<SUR_Orca_AI>::Create, COMDAT
; _this$ = ecx

; 552  : 	{

	push	ebp
	mov	ebp, esp
	sub	esp, 84					; 00000054H
	push	ebx
	push	esi
	push	edi
	mov	DWORD PTR _this$[ebp], ecx

; 553  : 		T* script = new T;

	push	OFFSET ??_C@_0CM@EGEAHCJA@ScriptRegistrant?$DMclass?5SUR_Orca_@
	push	553					; 00000229H
	push	OFFSET ??_C@_0DD@KMKBFFOF@x?3?2github?2renegade?2dragonade_rxd@
	call	?SetThreadTrackingInformation@@YAXPBDI0@Z ; SetThreadTrackingInformation
	add	esp, 12					; 0000000cH
	xor	eax, eax
	je	SHORT $LN6@Create
	xor	ecx, ecx
	jne	SHORT $LN3@Create
	push	553					; 00000229H
	push	OFFSET ??_C@_1GG@OGNLNBPD@?$AAx?$AA?3?$AA?2?$AAg?$AAi?$AAt?$AAh?$AAu?$AAb?$AA?2?$AAr?$AAe?$AAn?$AAe?$AAg?$AAa?$AAd?$AAe?$AA?2?$AAd?$AAr?$AAa?$AAg?$AAo?$AAn?$AAa?$AAd?$AAe?$AA_?$AAr?$AAx?$AAd@
	push	OFFSET ??_C@_1M@HLGKFCJM@?$AAf?$AAa?$AAl?$AAs?$AAe?$AA?$AA@
	call	DWORD PTR __imp___wassert
	add	esp, 12					; 0000000cH
$LN3@Create:
	mov	DWORD PTR tv79[ebp], 0
	jmp	SHORT $LN7@Create
$LN6@Create:
	push	28					; 0000001cH
	call	??2@YAPAXI@Z				; operator new
	add	esp, 4
	mov	DWORD PTR $T1[ebp], eax
	cmp	DWORD PTR $T1[ebp], 0
	je	SHORT $LN4@Create
	mov	ecx, DWORD PTR $T1[ebp]
	call	??0SUR_Orca_AI@@QAE@XZ
	mov	DWORD PTR tv77[ebp], eax
	jmp	SHORT $LN5@Create
$LN4@Create:
	mov	DWORD PTR tv77[ebp], 0
$LN5@Create:
	mov	eax, DWORD PTR tv77[ebp]
	mov	DWORD PTR tv79[ebp], eax
$LN7@Create:
	mov	ecx, DWORD PTR tv79[ebp]
	mov	DWORD PTR _script$[ebp], ecx

; 554  : 		script->SetFactory(this);

	mov	eax, DWORD PTR _this$[ebp]
	push	eax
	mov	ecx, DWORD PTR _script$[ebp]
	call	?SetFactory@ScriptImpClass@@QAEXPAVScriptFactory@@@Z ; ScriptImpClass::SetFactory

; 555  : 		script->Register_Auto_Save_Variables();

	mov	eax, DWORD PTR _script$[ebp]
	mov	edx, DWORD PTR [eax]
	mov	ecx, DWORD PTR _script$[ebp]
	mov	eax, DWORD PTR [edx+100]
	call	eax

; 556  : 		return script;

	mov	eax, DWORD PTR _script$[ebp]

; 557  : 	}

	pop	edi
	pop	esi
	pop	ebx
	mov	esp, ebp
	pop	ebp
	ret	0
?Create@?$ScriptRegistrant@VSUR_Orca_AI@@@@UAEPAVScriptImpClass@@XZ ENDP ; ScriptRegistrant<SUR_Orca_AI>::Create
_TEXT	ENDS
; Function compile flags: /Odtp /ZI
; File x:\github\renegade\dragonade_rxd\scripts\scripts.h
;	COMDAT ??0?$ScriptRegistrant@VSUR_Orca_AI@@@@QAE@PBD0@Z
_TEXT	SEGMENT
_this$ = -4						; size = 4
_name$ = 8						; size = 4
_param$ = 12						; size = 4
??0?$ScriptRegistrant@VSUR_Orca_AI@@@@QAE@PBD0@Z PROC	; ScriptRegistrant<SUR_Orca_AI>::ScriptRegistrant<SUR_Orca_AI>, COMDAT
; _this$ = ecx

; 549  : 	{

	push	ebp
	mov	ebp, esp
	sub	esp, 68					; 00000044H
	push	ebx
	push	esi
	push	edi
	mov	DWORD PTR _this$[ebp], ecx
	mov	eax, DWORD PTR _param$[ebp]
	push	eax
	mov	ecx, DWORD PTR _name$[ebp]
	push	ecx
	mov	ecx, DWORD PTR _this$[ebp]
	call	??0ScriptFactory@@IAE@PBD0@Z		; ScriptFactory::ScriptFactory
	mov	eax, DWORD PTR _this$[ebp]
	mov	DWORD PTR [eax], OFFSET ??_7?$ScriptRegistrant@VSUR_Orca_AI@@@@6B@

; 550  : 	}

	mov	eax, DWORD PTR _this$[ebp]
	pop	edi
	pop	esi
	pop	ebx
	mov	esp, ebp
	pop	ebp
	ret	8
??0?$ScriptRegistrant@VSUR_Orca_AI@@@@QAE@PBD0@Z ENDP	; ScriptRegistrant<SUR_Orca_AI>::ScriptRegistrant<SUR_Orca_AI>
_TEXT	ENDS
; Function compile flags: /Odtp /ZI
;	COMDAT ??__FSUR_APC_AI_Registrant@@YAXXZ
text$yd	SEGMENT
??__FSUR_APC_AI_Registrant@@YAXXZ PROC			; `dynamic atexit destructor for 'SUR_APC_AI_Registrant'', COMDAT
	push	ebp
	mov	ebp, esp
	sub	esp, 64					; 00000040H
	push	ebx
	push	esi
	push	edi
	mov	ecx, OFFSET ?SUR_APC_AI_Registrant@@3V?$ScriptRegistrant@VSUR_APC_AI@@@@A ; SUR_APC_AI_Registrant
	call	??1?$ScriptRegistrant@VSUR_APC_AI@@@@UAE@XZ
	pop	edi
	pop	esi
	pop	ebx
	mov	esp, ebp
	pop	ebp
	ret	0
??__FSUR_APC_AI_Registrant@@YAXXZ ENDP			; `dynamic atexit destructor for 'SUR_APC_AI_Registrant''
text$yd	ENDS
; Function compile flags: /Odtp /ZI
; File x:\github\renegade\dragonade_rxd\scripts\survival.cpp
;	COMDAT ??__ESUR_APC_AI_Registrant@@YAXXZ
text$yc	SEGMENT
??__ESUR_APC_AI_Registrant@@YAXXZ PROC			; `dynamic initializer for 'SUR_APC_AI_Registrant'', COMDAT

; 827  : ScriptRegistrant<SUR_APC_AI> SUR_APC_AI_Registrant("SUR_APC_AI","Preset_To_Create:string,NHB_ID:int");

	push	ebp
	mov	ebp, esp
	sub	esp, 64					; 00000040H
	push	ebx
	push	esi
	push	edi
	push	OFFSET ??_C@_0CD@PNNDOGLF@Preset_To_Create?3string?0NHB_ID?3i@
	push	OFFSET ??_C@_0L@MIJHGIEM@SUR_APC_AI?$AA@
	mov	ecx, OFFSET ?SUR_APC_AI_Registrant@@3V?$ScriptRegistrant@VSUR_APC_AI@@@@A ; SUR_APC_AI_Registrant
	call	??0?$ScriptRegistrant@VSUR_APC_AI@@@@QAE@PBD0@Z ; ScriptRegistrant<SUR_APC_AI>::ScriptRegistrant<SUR_APC_AI>
	push	OFFSET ??__FSUR_APC_AI_Registrant@@YAXXZ ; `dynamic atexit destructor for 'SUR_APC_AI_Registrant''
	call	_atexit
	add	esp, 4
	pop	edi
	pop	esi
	pop	ebx
	mov	esp, ebp
	pop	ebp
	ret	0
??__ESUR_APC_AI_Registrant@@YAXXZ ENDP			; `dynamic initializer for 'SUR_APC_AI_Registrant''
text$yc	ENDS
; Function compile flags: /Odtp /ZI
;	COMDAT ??_G?$ScriptRegistrant@VSUR_APC_AI@@@@UAEPAXI@Z
_TEXT	SEGMENT
_this$ = -4						; size = 4
___flags$ = 8						; size = 4
??_G?$ScriptRegistrant@VSUR_APC_AI@@@@UAEPAXI@Z PROC	; ScriptRegistrant<SUR_APC_AI>::`scalar deleting destructor', COMDAT
; _this$ = ecx
	push	ebp
	mov	ebp, esp
	sub	esp, 68					; 00000044H
	push	ebx
	push	esi
	push	edi
	mov	DWORD PTR _this$[ebp], ecx
	mov	ecx, DWORD PTR _this$[ebp]
	call	??1?$ScriptRegistrant@VSUR_APC_AI@@@@UAE@XZ
	mov	eax, DWORD PTR ___flags$[ebp]
	and	eax, 1
	je	SHORT $LN1@scalar
	mov	eax, DWORD PTR _this$[ebp]
	push	eax
	call	??3@YAXPAX@Z				; operator delete
	add	esp, 4
$LN1@scalar:
	mov	eax, DWORD PTR _this$[ebp]
	pop	edi
	pop	esi
	pop	ebx
	mov	esp, ebp
	pop	ebp
	ret	4
??_G?$ScriptRegistrant@VSUR_APC_AI@@@@UAEPAXI@Z ENDP	; ScriptRegistrant<SUR_APC_AI>::`scalar deleting destructor'
_TEXT	ENDS
; Function compile flags: /Odtp /ZI
;	COMDAT ??1?$ScriptRegistrant@VSUR_APC_AI@@@@UAE@XZ
_TEXT	SEGMENT
_this$ = -4						; size = 4
??1?$ScriptRegistrant@VSUR_APC_AI@@@@UAE@XZ PROC	; ScriptRegistrant<SUR_APC_AI>::~ScriptRegistrant<SUR_APC_AI>, COMDAT
; _this$ = ecx
	push	ebp
	mov	ebp, esp
	sub	esp, 68					; 00000044H
	push	ebx
	push	esi
	push	edi
	mov	DWORD PTR _this$[ebp], ecx
	mov	ecx, DWORD PTR _this$[ebp]
	call	??1ScriptFactory@@UAE@XZ		; ScriptFactory::~ScriptFactory
	pop	edi
	pop	esi
	pop	ebx
	mov	esp, ebp
	pop	ebp
	ret	0
??1?$ScriptRegistrant@VSUR_APC_AI@@@@UAE@XZ ENDP	; ScriptRegistrant<SUR_APC_AI>::~ScriptRegistrant<SUR_APC_AI>
_TEXT	ENDS
; Function compile flags: /Odtp /ZI
; File x:\github\renegade\dragonade_rxd\scripts\scripts.h
;	COMDAT ?Create@?$ScriptRegistrant@VSUR_APC_AI@@@@UAEPAVScriptImpClass@@XZ
_TEXT	SEGMENT
tv77 = -84						; size = 4
tv79 = -80						; size = 4
$T1 = -76						; size = 4
_script$ = -8						; size = 4
_this$ = -4						; size = 4
?Create@?$ScriptRegistrant@VSUR_APC_AI@@@@UAEPAVScriptImpClass@@XZ PROC ; ScriptRegistrant<SUR_APC_AI>::Create, COMDAT
; _this$ = ecx

; 552  : 	{

	push	ebp
	mov	ebp, esp
	sub	esp, 84					; 00000054H
	push	ebx
	push	esi
	push	edi
	mov	DWORD PTR _this$[ebp], ecx

; 553  : 		T* script = new T;

	push	OFFSET ??_C@_0CL@JAPNFDGP@ScriptRegistrant?$DMclass?5SUR_APC_A@
	push	553					; 00000229H
	push	OFFSET ??_C@_0DD@KMKBFFOF@x?3?2github?2renegade?2dragonade_rxd@
	call	?SetThreadTrackingInformation@@YAXPBDI0@Z ; SetThreadTrackingInformation
	add	esp, 12					; 0000000cH
	xor	eax, eax
	je	SHORT $LN6@Create
	xor	ecx, ecx
	jne	SHORT $LN3@Create
	push	553					; 00000229H
	push	OFFSET ??_C@_1GG@OGNLNBPD@?$AAx?$AA?3?$AA?2?$AAg?$AAi?$AAt?$AAh?$AAu?$AAb?$AA?2?$AAr?$AAe?$AAn?$AAe?$AAg?$AAa?$AAd?$AAe?$AA?2?$AAd?$AAr?$AAa?$AAg?$AAo?$AAn?$AAa?$AAd?$AAe?$AA_?$AAr?$AAx?$AAd@
	push	OFFSET ??_C@_1M@HLGKFCJM@?$AAf?$AAa?$AAl?$AAs?$AAe?$AA?$AA@
	call	DWORD PTR __imp___wassert
	add	esp, 12					; 0000000cH
$LN3@Create:
	mov	DWORD PTR tv79[ebp], 0
	jmp	SHORT $LN7@Create
$LN6@Create:
	push	32					; 00000020H
	call	??2@YAPAXI@Z				; operator new
	add	esp, 4
	mov	DWORD PTR $T1[ebp], eax
	cmp	DWORD PTR $T1[ebp], 0
	je	SHORT $LN4@Create
	mov	ecx, DWORD PTR $T1[ebp]
	call	??0SUR_APC_AI@@QAE@XZ
	mov	DWORD PTR tv77[ebp], eax
	jmp	SHORT $LN5@Create
$LN4@Create:
	mov	DWORD PTR tv77[ebp], 0
$LN5@Create:
	mov	eax, DWORD PTR tv77[ebp]
	mov	DWORD PTR tv79[ebp], eax
$LN7@Create:
	mov	ecx, DWORD PTR tv79[ebp]
	mov	DWORD PTR _script$[ebp], ecx

; 554  : 		script->SetFactory(this);

	mov	eax, DWORD PTR _this$[ebp]
	push	eax
	mov	ecx, DWORD PTR _script$[ebp]
	call	?SetFactory@ScriptImpClass@@QAEXPAVScriptFactory@@@Z ; ScriptImpClass::SetFactory

; 555  : 		script->Register_Auto_Save_Variables();

	mov	eax, DWORD PTR _script$[ebp]
	mov	edx, DWORD PTR [eax]
	mov	ecx, DWORD PTR _script$[ebp]
	mov	eax, DWORD PTR [edx+100]
	call	eax

; 556  : 		return script;

	mov	eax, DWORD PTR _script$[ebp]

; 557  : 	}

	pop	edi
	pop	esi
	pop	ebx
	mov	esp, ebp
	pop	ebp
	ret	0
?Create@?$ScriptRegistrant@VSUR_APC_AI@@@@UAEPAVScriptImpClass@@XZ ENDP ; ScriptRegistrant<SUR_APC_AI>::Create
_TEXT	ENDS
; Function compile flags: /Odtp /ZI
; File x:\github\renegade\dragonade_rxd\scripts\scripts.h
;	COMDAT ??0?$ScriptRegistrant@VSUR_APC_AI@@@@QAE@PBD0@Z
_TEXT	SEGMENT
_this$ = -4						; size = 4
_name$ = 8						; size = 4
_param$ = 12						; size = 4
??0?$ScriptRegistrant@VSUR_APC_AI@@@@QAE@PBD0@Z PROC	; ScriptRegistrant<SUR_APC_AI>::ScriptRegistrant<SUR_APC_AI>, COMDAT
; _this$ = ecx

; 549  : 	{

	push	ebp
	mov	ebp, esp
	sub	esp, 68					; 00000044H
	push	ebx
	push	esi
	push	edi
	mov	DWORD PTR _this$[ebp], ecx
	mov	eax, DWORD PTR _param$[ebp]
	push	eax
	mov	ecx, DWORD PTR _name$[ebp]
	push	ecx
	mov	ecx, DWORD PTR _this$[ebp]
	call	??0ScriptFactory@@IAE@PBD0@Z		; ScriptFactory::ScriptFactory
	mov	eax, DWORD PTR _this$[ebp]
	mov	DWORD PTR [eax], OFFSET ??_7?$ScriptRegistrant@VSUR_APC_AI@@@@6B@

; 550  : 	}

	mov	eax, DWORD PTR _this$[ebp]
	pop	edi
	pop	esi
	pop	ebx
	mov	esp, ebp
	pop	ebp
	ret	8
??0?$ScriptRegistrant@VSUR_APC_AI@@@@QAE@PBD0@Z ENDP	; ScriptRegistrant<SUR_APC_AI>::ScriptRegistrant<SUR_APC_AI>
_TEXT	ENDS
; Function compile flags: /Odtp /ZI
;	COMDAT ??__FSUR_New_PT_Reciever_Registrant@@YAXXZ
text$yd	SEGMENT
??__FSUR_New_PT_Reciever_Registrant@@YAXXZ PROC		; `dynamic atexit destructor for 'SUR_New_PT_Reciever_Registrant'', COMDAT
	push	ebp
	mov	ebp, esp
	sub	esp, 64					; 00000040H
	push	ebx
	push	esi
	push	edi
	mov	ecx, OFFSET ?SUR_New_PT_Reciever_Registrant@@3V?$ScriptRegistrant@VSUR_New_PT_Reciever@@@@A ; SUR_New_PT_Reciever_Registrant
	call	??1?$ScriptRegistrant@VSUR_New_PT_Reciever@@@@UAE@XZ
	pop	edi
	pop	esi
	pop	ebx
	mov	esp, ebp
	pop	ebp
	ret	0
??__FSUR_New_PT_Reciever_Registrant@@YAXXZ ENDP		; `dynamic atexit destructor for 'SUR_New_PT_Reciever_Registrant''
text$yd	ENDS
; Function compile flags: /Odtp /ZI
; File x:\github\renegade\dragonade_rxd\scripts\survival.cpp
;	COMDAT ??__ESUR_New_PT_Reciever_Registrant@@YAXXZ
text$yc	SEGMENT
??__ESUR_New_PT_Reciever_Registrant@@YAXXZ PROC		; `dynamic initializer for 'SUR_New_PT_Reciever_Registrant'', COMDAT

; 826  : ScriptRegistrant<SUR_New_PT_Reciever> SUR_New_PT_Reciever_Registrant("SUR_New_PT_Reciever","Preset_Name:string,Message:int");

	push	ebp
	mov	ebp, esp
	sub	esp, 64					; 00000040H
	push	ebx
	push	esi
	push	edi
	push	OFFSET ??_C@_0BP@HHNMLCDH@Preset_Name?3string?0Message?3int?$AA@
	push	OFFSET ??_C@_0BE@IIJFADCE@SUR_New_PT_Reciever?$AA@
	mov	ecx, OFFSET ?SUR_New_PT_Reciever_Registrant@@3V?$ScriptRegistrant@VSUR_New_PT_Reciever@@@@A ; SUR_New_PT_Reciever_Registrant
	call	??0?$ScriptRegistrant@VSUR_New_PT_Reciever@@@@QAE@PBD0@Z ; ScriptRegistrant<SUR_New_PT_Reciever>::ScriptRegistrant<SUR_New_PT_Reciever>
	push	OFFSET ??__FSUR_New_PT_Reciever_Registrant@@YAXXZ ; `dynamic atexit destructor for 'SUR_New_PT_Reciever_Registrant''
	call	_atexit
	add	esp, 4
	pop	edi
	pop	esi
	pop	ebx
	mov	esp, ebp
	pop	ebp
	ret	0
??__ESUR_New_PT_Reciever_Registrant@@YAXXZ ENDP		; `dynamic initializer for 'SUR_New_PT_Reciever_Registrant''
text$yc	ENDS
; Function compile flags: /Odtp /ZI
;	COMDAT ??_G?$ScriptRegistrant@VSUR_New_PT_Reciever@@@@UAEPAXI@Z
_TEXT	SEGMENT
_this$ = -4						; size = 4
___flags$ = 8						; size = 4
??_G?$ScriptRegistrant@VSUR_New_PT_Reciever@@@@UAEPAXI@Z PROC ; ScriptRegistrant<SUR_New_PT_Reciever>::`scalar deleting destructor', COMDAT
; _this$ = ecx
	push	ebp
	mov	ebp, esp
	sub	esp, 68					; 00000044H
	push	ebx
	push	esi
	push	edi
	mov	DWORD PTR _this$[ebp], ecx
	mov	ecx, DWORD PTR _this$[ebp]
	call	??1?$ScriptRegistrant@VSUR_New_PT_Reciever@@@@UAE@XZ
	mov	eax, DWORD PTR ___flags$[ebp]
	and	eax, 1
	je	SHORT $LN1@scalar
	mov	eax, DWORD PTR _this$[ebp]
	push	eax
	call	??3@YAXPAX@Z				; operator delete
	add	esp, 4
$LN1@scalar:
	mov	eax, DWORD PTR _this$[ebp]
	pop	edi
	pop	esi
	pop	ebx
	mov	esp, ebp
	pop	ebp
	ret	4
??_G?$ScriptRegistrant@VSUR_New_PT_Reciever@@@@UAEPAXI@Z ENDP ; ScriptRegistrant<SUR_New_PT_Reciever>::`scalar deleting destructor'
_TEXT	ENDS
; Function compile flags: /Odtp /ZI
;	COMDAT ??1?$ScriptRegistrant@VSUR_New_PT_Reciever@@@@UAE@XZ
_TEXT	SEGMENT
_this$ = -4						; size = 4
??1?$ScriptRegistrant@VSUR_New_PT_Reciever@@@@UAE@XZ PROC ; ScriptRegistrant<SUR_New_PT_Reciever>::~ScriptRegistrant<SUR_New_PT_Reciever>, COMDAT
; _this$ = ecx
	push	ebp
	mov	ebp, esp
	sub	esp, 68					; 00000044H
	push	ebx
	push	esi
	push	edi
	mov	DWORD PTR _this$[ebp], ecx
	mov	ecx, DWORD PTR _this$[ebp]
	call	??1ScriptFactory@@UAE@XZ		; ScriptFactory::~ScriptFactory
	pop	edi
	pop	esi
	pop	ebx
	mov	esp, ebp
	pop	ebp
	ret	0
??1?$ScriptRegistrant@VSUR_New_PT_Reciever@@@@UAE@XZ ENDP ; ScriptRegistrant<SUR_New_PT_Reciever>::~ScriptRegistrant<SUR_New_PT_Reciever>
_TEXT	ENDS
; Function compile flags: /Odtp /ZI
; File x:\github\renegade\dragonade_rxd\scripts\scripts.h
;	COMDAT ?Create@?$ScriptRegistrant@VSUR_New_PT_Reciever@@@@UAEPAVScriptImpClass@@XZ
_TEXT	SEGMENT
tv77 = -84						; size = 4
tv79 = -80						; size = 4
$T1 = -76						; size = 4
_script$ = -8						; size = 4
_this$ = -4						; size = 4
?Create@?$ScriptRegistrant@VSUR_New_PT_Reciever@@@@UAEPAVScriptImpClass@@XZ PROC ; ScriptRegistrant<SUR_New_PT_Reciever>::Create, COMDAT
; _this$ = ecx

; 552  : 	{

	push	ebp
	mov	ebp, esp
	sub	esp, 84					; 00000054H
	push	ebx
	push	esi
	push	edi
	mov	DWORD PTR _this$[ebp], ecx

; 553  : 		T* script = new T;

	push	OFFSET ??_C@_0DE@KNMMJHAP@ScriptRegistrant?$DMclass?5SUR_New_P@
	push	553					; 00000229H
	push	OFFSET ??_C@_0DD@KMKBFFOF@x?3?2github?2renegade?2dragonade_rxd@
	call	?SetThreadTrackingInformation@@YAXPBDI0@Z ; SetThreadTrackingInformation
	add	esp, 12					; 0000000cH
	xor	eax, eax
	je	SHORT $LN6@Create
	xor	ecx, ecx
	jne	SHORT $LN3@Create
	push	553					; 00000229H
	push	OFFSET ??_C@_1GG@OGNLNBPD@?$AAx?$AA?3?$AA?2?$AAg?$AAi?$AAt?$AAh?$AAu?$AAb?$AA?2?$AAr?$AAe?$AAn?$AAe?$AAg?$AAa?$AAd?$AAe?$AA?2?$AAd?$AAr?$AAa?$AAg?$AAo?$AAn?$AAa?$AAd?$AAe?$AA_?$AAr?$AAx?$AAd@
	push	OFFSET ??_C@_1M@HLGKFCJM@?$AAf?$AAa?$AAl?$AAs?$AAe?$AA?$AA@
	call	DWORD PTR __imp___wassert
	add	esp, 12					; 0000000cH
$LN3@Create:
	mov	DWORD PTR tv79[ebp], 0
	jmp	SHORT $LN7@Create
$LN6@Create:
	push	28					; 0000001cH
	call	??2@YAPAXI@Z				; operator new
	add	esp, 4
	mov	DWORD PTR $T1[ebp], eax
	cmp	DWORD PTR $T1[ebp], 0
	je	SHORT $LN4@Create
	mov	ecx, DWORD PTR $T1[ebp]
	call	??0SUR_New_PT_Reciever@@QAE@XZ
	mov	DWORD PTR tv77[ebp], eax
	jmp	SHORT $LN5@Create
$LN4@Create:
	mov	DWORD PTR tv77[ebp], 0
$LN5@Create:
	mov	eax, DWORD PTR tv77[ebp]
	mov	DWORD PTR tv79[ebp], eax
$LN7@Create:
	mov	ecx, DWORD PTR tv79[ebp]
	mov	DWORD PTR _script$[ebp], ecx

; 554  : 		script->SetFactory(this);

	mov	eax, DWORD PTR _this$[ebp]
	push	eax
	mov	ecx, DWORD PTR _script$[ebp]
	call	?SetFactory@ScriptImpClass@@QAEXPAVScriptFactory@@@Z ; ScriptImpClass::SetFactory

; 555  : 		script->Register_Auto_Save_Variables();

	mov	eax, DWORD PTR _script$[ebp]
	mov	edx, DWORD PTR [eax]
	mov	ecx, DWORD PTR _script$[ebp]
	mov	eax, DWORD PTR [edx+100]
	call	eax

; 556  : 		return script;

	mov	eax, DWORD PTR _script$[ebp]

; 557  : 	}

	pop	edi
	pop	esi
	pop	ebx
	mov	esp, ebp
	pop	ebp
	ret	0
?Create@?$ScriptRegistrant@VSUR_New_PT_Reciever@@@@UAEPAVScriptImpClass@@XZ ENDP ; ScriptRegistrant<SUR_New_PT_Reciever>::Create
_TEXT	ENDS
; Function compile flags: /Odtp /ZI
; File x:\github\renegade\dragonade_rxd\scripts\scripts.h
;	COMDAT ??0?$ScriptRegistrant@VSUR_New_PT_Reciever@@@@QAE@PBD0@Z
_TEXT	SEGMENT
_this$ = -4						; size = 4
_name$ = 8						; size = 4
_param$ = 12						; size = 4
??0?$ScriptRegistrant@VSUR_New_PT_Reciever@@@@QAE@PBD0@Z PROC ; ScriptRegistrant<SUR_New_PT_Reciever>::ScriptRegistrant<SUR_New_PT_Reciever>, COMDAT
; _this$ = ecx

; 549  : 	{

	push	ebp
	mov	ebp, esp
	sub	esp, 68					; 00000044H
	push	ebx
	push	esi
	push	edi
	mov	DWORD PTR _this$[ebp], ecx
	mov	eax, DWORD PTR _param$[ebp]
	push	eax
	mov	ecx, DWORD PTR _name$[ebp]
	push	ecx
	mov	ecx, DWORD PTR _this$[ebp]
	call	??0ScriptFactory@@IAE@PBD0@Z		; ScriptFactory::ScriptFactory
	mov	eax, DWORD PTR _this$[ebp]
	mov	DWORD PTR [eax], OFFSET ??_7?$ScriptRegistrant@VSUR_New_PT_Reciever@@@@6B@

; 550  : 	}

	mov	eax, DWORD PTR _this$[ebp]
	pop	edi
	pop	esi
	pop	ebx
	mov	esp, ebp
	pop	ebp
	ret	8
??0?$ScriptRegistrant@VSUR_New_PT_Reciever@@@@QAE@PBD0@Z ENDP ; ScriptRegistrant<SUR_New_PT_Reciever>::ScriptRegistrant<SUR_New_PT_Reciever>
_TEXT	ENDS
; Function compile flags: /Odtp /ZI
;	COMDAT ??__FSUR_New_PT_Registrant@@YAXXZ
text$yd	SEGMENT
??__FSUR_New_PT_Registrant@@YAXXZ PROC			; `dynamic atexit destructor for 'SUR_New_PT_Registrant'', COMDAT
	push	ebp
	mov	ebp, esp
	sub	esp, 64					; 00000040H
	push	ebx
	push	esi
	push	edi
	mov	ecx, OFFSET ?SUR_New_PT_Registrant@@3V?$ScriptRegistrant@VSUR_New_PT@@@@A ; SUR_New_PT_Registrant
	call	??1?$ScriptRegistrant@VSUR_New_PT@@@@UAE@XZ
	pop	edi
	pop	esi
	pop	ebx
	mov	esp, ebp
	pop	ebp
	ret	0
??__FSUR_New_PT_Registrant@@YAXXZ ENDP			; `dynamic atexit destructor for 'SUR_New_PT_Registrant''
text$yd	ENDS
; Function compile flags: /Odtp /ZI
; File x:\github\renegade\dragonade_rxd\scripts\survival.cpp
;	COMDAT ??__ESUR_New_PT_Registrant@@YAXXZ
text$yc	SEGMENT
??__ESUR_New_PT_Registrant@@YAXXZ PROC			; `dynamic initializer for 'SUR_New_PT_Registrant'', COMDAT

; 825  : ScriptRegistrant<SUR_New_PT> SUR_New_PT_Registrant("SUR_New_PT","Marker_ID:int,Message:int");

	push	ebp
	mov	ebp, esp
	sub	esp, 64					; 00000040H
	push	ebx
	push	esi
	push	edi
	push	OFFSET ??_C@_0BK@IMCLBBPM@Marker_ID?3int?0Message?3int?$AA@
	push	OFFSET ??_C@_0L@NMEBDFKG@SUR_New_PT?$AA@
	mov	ecx, OFFSET ?SUR_New_PT_Registrant@@3V?$ScriptRegistrant@VSUR_New_PT@@@@A ; SUR_New_PT_Registrant
	call	??0?$ScriptRegistrant@VSUR_New_PT@@@@QAE@PBD0@Z ; ScriptRegistrant<SUR_New_PT>::ScriptRegistrant<SUR_New_PT>
	push	OFFSET ??__FSUR_New_PT_Registrant@@YAXXZ ; `dynamic atexit destructor for 'SUR_New_PT_Registrant''
	call	_atexit
	add	esp, 4
	pop	edi
	pop	esi
	pop	ebx
	mov	esp, ebp
	pop	ebp
	ret	0
??__ESUR_New_PT_Registrant@@YAXXZ ENDP			; `dynamic initializer for 'SUR_New_PT_Registrant''
text$yc	ENDS
; Function compile flags: /Odtp /ZI
;	COMDAT ??_G?$ScriptRegistrant@VSUR_New_PT@@@@UAEPAXI@Z
_TEXT	SEGMENT
_this$ = -4						; size = 4
___flags$ = 8						; size = 4
??_G?$ScriptRegistrant@VSUR_New_PT@@@@UAEPAXI@Z PROC	; ScriptRegistrant<SUR_New_PT>::`scalar deleting destructor', COMDAT
; _this$ = ecx
	push	ebp
	mov	ebp, esp
	sub	esp, 68					; 00000044H
	push	ebx
	push	esi
	push	edi
	mov	DWORD PTR _this$[ebp], ecx
	mov	ecx, DWORD PTR _this$[ebp]
	call	??1?$ScriptRegistrant@VSUR_New_PT@@@@UAE@XZ
	mov	eax, DWORD PTR ___flags$[ebp]
	and	eax, 1
	je	SHORT $LN1@scalar
	mov	eax, DWORD PTR _this$[ebp]
	push	eax
	call	??3@YAXPAX@Z				; operator delete
	add	esp, 4
$LN1@scalar:
	mov	eax, DWORD PTR _this$[ebp]
	pop	edi
	pop	esi
	pop	ebx
	mov	esp, ebp
	pop	ebp
	ret	4
??_G?$ScriptRegistrant@VSUR_New_PT@@@@UAEPAXI@Z ENDP	; ScriptRegistrant<SUR_New_PT>::`scalar deleting destructor'
_TEXT	ENDS
; Function compile flags: /Odtp /ZI
;	COMDAT ??1?$ScriptRegistrant@VSUR_New_PT@@@@UAE@XZ
_TEXT	SEGMENT
_this$ = -4						; size = 4
??1?$ScriptRegistrant@VSUR_New_PT@@@@UAE@XZ PROC	; ScriptRegistrant<SUR_New_PT>::~ScriptRegistrant<SUR_New_PT>, COMDAT
; _this$ = ecx
	push	ebp
	mov	ebp, esp
	sub	esp, 68					; 00000044H
	push	ebx
	push	esi
	push	edi
	mov	DWORD PTR _this$[ebp], ecx
	mov	ecx, DWORD PTR _this$[ebp]
	call	??1ScriptFactory@@UAE@XZ		; ScriptFactory::~ScriptFactory
	pop	edi
	pop	esi
	pop	ebx
	mov	esp, ebp
	pop	ebp
	ret	0
??1?$ScriptRegistrant@VSUR_New_PT@@@@UAE@XZ ENDP	; ScriptRegistrant<SUR_New_PT>::~ScriptRegistrant<SUR_New_PT>
_TEXT	ENDS
; Function compile flags: /Odtp /ZI
; File x:\github\renegade\dragonade_rxd\scripts\scripts.h
;	COMDAT ?Create@?$ScriptRegistrant@VSUR_New_PT@@@@UAEPAVScriptImpClass@@XZ
_TEXT	SEGMENT
tv77 = -84						; size = 4
tv79 = -80						; size = 4
$T1 = -76						; size = 4
_script$ = -8						; size = 4
_this$ = -4						; size = 4
?Create@?$ScriptRegistrant@VSUR_New_PT@@@@UAEPAVScriptImpClass@@XZ PROC ; ScriptRegistrant<SUR_New_PT>::Create, COMDAT
; _this$ = ecx

; 552  : 	{

	push	ebp
	mov	ebp, esp
	sub	esp, 84					; 00000054H
	push	ebx
	push	esi
	push	edi
	mov	DWORD PTR _this$[ebp], ecx

; 553  : 		T* script = new T;

	push	OFFSET ??_C@_0CL@KBJCMIPP@ScriptRegistrant?$DMclass?5SUR_New_P@
	push	553					; 00000229H
	push	OFFSET ??_C@_0DD@KMKBFFOF@x?3?2github?2renegade?2dragonade_rxd@
	call	?SetThreadTrackingInformation@@YAXPBDI0@Z ; SetThreadTrackingInformation
	add	esp, 12					; 0000000cH
	xor	eax, eax
	je	SHORT $LN6@Create
	xor	ecx, ecx
	jne	SHORT $LN3@Create
	push	553					; 00000229H
	push	OFFSET ??_C@_1GG@OGNLNBPD@?$AAx?$AA?3?$AA?2?$AAg?$AAi?$AAt?$AAh?$AAu?$AAb?$AA?2?$AAr?$AAe?$AAn?$AAe?$AAg?$AAa?$AAd?$AAe?$AA?2?$AAd?$AAr?$AAa?$AAg?$AAo?$AAn?$AAa?$AAd?$AAe?$AA_?$AAr?$AAx?$AAd@
	push	OFFSET ??_C@_1M@HLGKFCJM@?$AAf?$AAa?$AAl?$AAs?$AAe?$AA?$AA@
	call	DWORD PTR __imp___wassert
	add	esp, 12					; 0000000cH
$LN3@Create:
	mov	DWORD PTR tv79[ebp], 0
	jmp	SHORT $LN7@Create
$LN6@Create:
	push	28					; 0000001cH
	call	??2@YAPAXI@Z				; operator new
	add	esp, 4
	mov	DWORD PTR $T1[ebp], eax
	cmp	DWORD PTR $T1[ebp], 0
	je	SHORT $LN4@Create
	mov	ecx, DWORD PTR $T1[ebp]
	call	??0SUR_New_PT@@QAE@XZ
	mov	DWORD PTR tv77[ebp], eax
	jmp	SHORT $LN5@Create
$LN4@Create:
	mov	DWORD PTR tv77[ebp], 0
$LN5@Create:
	mov	eax, DWORD PTR tv77[ebp]
	mov	DWORD PTR tv79[ebp], eax
$LN7@Create:
	mov	ecx, DWORD PTR tv79[ebp]
	mov	DWORD PTR _script$[ebp], ecx

; 554  : 		script->SetFactory(this);

	mov	eax, DWORD PTR _this$[ebp]
	push	eax
	mov	ecx, DWORD PTR _script$[ebp]
	call	?SetFactory@ScriptImpClass@@QAEXPAVScriptFactory@@@Z ; ScriptImpClass::SetFactory

; 555  : 		script->Register_Auto_Save_Variables();

	mov	eax, DWORD PTR _script$[ebp]
	mov	edx, DWORD PTR [eax]
	mov	ecx, DWORD PTR _script$[ebp]
	mov	eax, DWORD PTR [edx+100]
	call	eax

; 556  : 		return script;

	mov	eax, DWORD PTR _script$[ebp]

; 557  : 	}

	pop	edi
	pop	esi
	pop	ebx
	mov	esp, ebp
	pop	ebp
	ret	0
?Create@?$ScriptRegistrant@VSUR_New_PT@@@@UAEPAVScriptImpClass@@XZ ENDP ; ScriptRegistrant<SUR_New_PT>::Create
_TEXT	ENDS
; Function compile flags: /Odtp /ZI
; File x:\github\renegade\dragonade_rxd\scripts\scripts.h
;	COMDAT ??0?$ScriptRegistrant@VSUR_New_PT@@@@QAE@PBD0@Z
_TEXT	SEGMENT
_this$ = -4						; size = 4
_name$ = 8						; size = 4
_param$ = 12						; size = 4
??0?$ScriptRegistrant@VSUR_New_PT@@@@QAE@PBD0@Z PROC	; ScriptRegistrant<SUR_New_PT>::ScriptRegistrant<SUR_New_PT>, COMDAT
; _this$ = ecx

; 549  : 	{

	push	ebp
	mov	ebp, esp
	sub	esp, 68					; 00000044H
	push	ebx
	push	esi
	push	edi
	mov	DWORD PTR _this$[ebp], ecx
	mov	eax, DWORD PTR _param$[ebp]
	push	eax
	mov	ecx, DWORD PTR _name$[ebp]
	push	ecx
	mov	ecx, DWORD PTR _this$[ebp]
	call	??0ScriptFactory@@IAE@PBD0@Z		; ScriptFactory::ScriptFactory
	mov	eax, DWORD PTR _this$[ebp]
	mov	DWORD PTR [eax], OFFSET ??_7?$ScriptRegistrant@VSUR_New_PT@@@@6B@

; 550  : 	}

	mov	eax, DWORD PTR _this$[ebp]
	pop	edi
	pop	esi
	pop	ebx
	mov	esp, ebp
	pop	ebp
	ret	8
??0?$ScriptRegistrant@VSUR_New_PT@@@@QAE@PBD0@Z ENDP	; ScriptRegistrant<SUR_New_PT>::ScriptRegistrant<SUR_New_PT>
_TEXT	ENDS
; Function compile flags: /Odtp /ZI
;	COMDAT ??__FSUR_Obj_Destroyer_Registrant@@YAXXZ
text$yd	SEGMENT
??__FSUR_Obj_Destroyer_Registrant@@YAXXZ PROC		; `dynamic atexit destructor for 'SUR_Obj_Destroyer_Registrant'', COMDAT
	push	ebp
	mov	ebp, esp
	sub	esp, 64					; 00000040H
	push	ebx
	push	esi
	push	edi
	mov	ecx, OFFSET ?SUR_Obj_Destroyer_Registrant@@3V?$ScriptRegistrant@VSUR_Obj_Destroyer@@@@A ; SUR_Obj_Destroyer_Registrant
	call	??1?$ScriptRegistrant@VSUR_Obj_Destroyer@@@@UAE@XZ
	pop	edi
	pop	esi
	pop	ebx
	mov	esp, ebp
	pop	ebp
	ret	0
??__FSUR_Obj_Destroyer_Registrant@@YAXXZ ENDP		; `dynamic atexit destructor for 'SUR_Obj_Destroyer_Registrant''
text$yd	ENDS
; Function compile flags: /Odtp /ZI
; File x:\github\renegade\dragonade_rxd\scripts\survival.cpp
;	COMDAT ??__ESUR_Obj_Destroyer_Registrant@@YAXXZ
text$yc	SEGMENT
??__ESUR_Obj_Destroyer_Registrant@@YAXXZ PROC		; `dynamic initializer for 'SUR_Obj_Destroyer_Registrant'', COMDAT

; 824  : ScriptRegistrant<SUR_Obj_Destroyer> SUR_Obj_Destroyer_Registrant("SUR_Obj_Destroyer","ID:int");

	push	ebp
	mov	ebp, esp
	sub	esp, 64					; 00000040H
	push	ebx
	push	esi
	push	edi
	push	OFFSET ??_C@_06IDGMBKCH@ID?3int?$AA@
	push	OFFSET ??_C@_0BC@DOELCKBJ@SUR_Obj_Destroyer?$AA@
	mov	ecx, OFFSET ?SUR_Obj_Destroyer_Registrant@@3V?$ScriptRegistrant@VSUR_Obj_Destroyer@@@@A ; SUR_Obj_Destroyer_Registrant
	call	??0?$ScriptRegistrant@VSUR_Obj_Destroyer@@@@QAE@PBD0@Z ; ScriptRegistrant<SUR_Obj_Destroyer>::ScriptRegistrant<SUR_Obj_Destroyer>
	push	OFFSET ??__FSUR_Obj_Destroyer_Registrant@@YAXXZ ; `dynamic atexit destructor for 'SUR_Obj_Destroyer_Registrant''
	call	_atexit
	add	esp, 4
	pop	edi
	pop	esi
	pop	ebx
	mov	esp, ebp
	pop	ebp
	ret	0
??__ESUR_Obj_Destroyer_Registrant@@YAXXZ ENDP		; `dynamic initializer for 'SUR_Obj_Destroyer_Registrant''
text$yc	ENDS
; Function compile flags: /Odtp /ZI
;	COMDAT ??_G?$ScriptRegistrant@VSUR_Obj_Destroyer@@@@UAEPAXI@Z
_TEXT	SEGMENT
_this$ = -4						; size = 4
___flags$ = 8						; size = 4
??_G?$ScriptRegistrant@VSUR_Obj_Destroyer@@@@UAEPAXI@Z PROC ; ScriptRegistrant<SUR_Obj_Destroyer>::`scalar deleting destructor', COMDAT
; _this$ = ecx
	push	ebp
	mov	ebp, esp
	sub	esp, 68					; 00000044H
	push	ebx
	push	esi
	push	edi
	mov	DWORD PTR _this$[ebp], ecx
	mov	ecx, DWORD PTR _this$[ebp]
	call	??1?$ScriptRegistrant@VSUR_Obj_Destroyer@@@@UAE@XZ
	mov	eax, DWORD PTR ___flags$[ebp]
	and	eax, 1
	je	SHORT $LN1@scalar
	mov	eax, DWORD PTR _this$[ebp]
	push	eax
	call	??3@YAXPAX@Z				; operator delete
	add	esp, 4
$LN1@scalar:
	mov	eax, DWORD PTR _this$[ebp]
	pop	edi
	pop	esi
	pop	ebx
	mov	esp, ebp
	pop	ebp
	ret	4
??_G?$ScriptRegistrant@VSUR_Obj_Destroyer@@@@UAEPAXI@Z ENDP ; ScriptRegistrant<SUR_Obj_Destroyer>::`scalar deleting destructor'
_TEXT	ENDS
; Function compile flags: /Odtp /ZI
;	COMDAT ??1?$ScriptRegistrant@VSUR_Obj_Destroyer@@@@UAE@XZ
_TEXT	SEGMENT
_this$ = -4						; size = 4
??1?$ScriptRegistrant@VSUR_Obj_Destroyer@@@@UAE@XZ PROC	; ScriptRegistrant<SUR_Obj_Destroyer>::~ScriptRegistrant<SUR_Obj_Destroyer>, COMDAT
; _this$ = ecx
	push	ebp
	mov	ebp, esp
	sub	esp, 68					; 00000044H
	push	ebx
	push	esi
	push	edi
	mov	DWORD PTR _this$[ebp], ecx
	mov	ecx, DWORD PTR _this$[ebp]
	call	??1ScriptFactory@@UAE@XZ		; ScriptFactory::~ScriptFactory
	pop	edi
	pop	esi
	pop	ebx
	mov	esp, ebp
	pop	ebp
	ret	0
??1?$ScriptRegistrant@VSUR_Obj_Destroyer@@@@UAE@XZ ENDP	; ScriptRegistrant<SUR_Obj_Destroyer>::~ScriptRegistrant<SUR_Obj_Destroyer>
_TEXT	ENDS
; Function compile flags: /Odtp /ZI
; File x:\github\renegade\dragonade_rxd\scripts\scripts.h
;	COMDAT ?Create@?$ScriptRegistrant@VSUR_Obj_Destroyer@@@@UAEPAVScriptImpClass@@XZ
_TEXT	SEGMENT
tv77 = -84						; size = 4
tv79 = -80						; size = 4
$T1 = -76						; size = 4
_script$ = -8						; size = 4
_this$ = -4						; size = 4
?Create@?$ScriptRegistrant@VSUR_Obj_Destroyer@@@@UAEPAVScriptImpClass@@XZ PROC ; ScriptRegistrant<SUR_Obj_Destroyer>::Create, COMDAT
; _this$ = ecx

; 552  : 	{

	push	ebp
	mov	ebp, esp
	sub	esp, 84					; 00000054H
	push	ebx
	push	esi
	push	edi
	mov	DWORD PTR _this$[ebp], ecx

; 553  : 		T* script = new T;

	push	OFFSET ??_C@_0DC@KDOJNHEC@ScriptRegistrant?$DMclass?5SUR_Obj_D@
	push	553					; 00000229H
	push	OFFSET ??_C@_0DD@KMKBFFOF@x?3?2github?2renegade?2dragonade_rxd@
	call	?SetThreadTrackingInformation@@YAXPBDI0@Z ; SetThreadTrackingInformation
	add	esp, 12					; 0000000cH
	xor	eax, eax
	je	SHORT $LN6@Create
	xor	ecx, ecx
	jne	SHORT $LN3@Create
	push	553					; 00000229H
	push	OFFSET ??_C@_1GG@OGNLNBPD@?$AAx?$AA?3?$AA?2?$AAg?$AAi?$AAt?$AAh?$AAu?$AAb?$AA?2?$AAr?$AAe?$AAn?$AAe?$AAg?$AAa?$AAd?$AAe?$AA?2?$AAd?$AAr?$AAa?$AAg?$AAo?$AAn?$AAa?$AAd?$AAe?$AA_?$AAr?$AAx?$AAd@
	push	OFFSET ??_C@_1M@HLGKFCJM@?$AAf?$AAa?$AAl?$AAs?$AAe?$AA?$AA@
	call	DWORD PTR __imp___wassert
	add	esp, 12					; 0000000cH
$LN3@Create:
	mov	DWORD PTR tv79[ebp], 0
	jmp	SHORT $LN7@Create
$LN6@Create:
	push	28					; 0000001cH
	call	??2@YAPAXI@Z				; operator new
	add	esp, 4
	mov	DWORD PTR $T1[ebp], eax
	cmp	DWORD PTR $T1[ebp], 0
	je	SHORT $LN4@Create
	mov	ecx, DWORD PTR $T1[ebp]
	call	??0SUR_Obj_Destroyer@@QAE@XZ
	mov	DWORD PTR tv77[ebp], eax
	jmp	SHORT $LN5@Create
$LN4@Create:
	mov	DWORD PTR tv77[ebp], 0
$LN5@Create:
	mov	eax, DWORD PTR tv77[ebp]
	mov	DWORD PTR tv79[ebp], eax
$LN7@Create:
	mov	ecx, DWORD PTR tv79[ebp]
	mov	DWORD PTR _script$[ebp], ecx

; 554  : 		script->SetFactory(this);

	mov	eax, DWORD PTR _this$[ebp]
	push	eax
	mov	ecx, DWORD PTR _script$[ebp]
	call	?SetFactory@ScriptImpClass@@QAEXPAVScriptFactory@@@Z ; ScriptImpClass::SetFactory

; 555  : 		script->Register_Auto_Save_Variables();

	mov	eax, DWORD PTR _script$[ebp]
	mov	edx, DWORD PTR [eax]
	mov	ecx, DWORD PTR _script$[ebp]
	mov	eax, DWORD PTR [edx+100]
	call	eax

; 556  : 		return script;

	mov	eax, DWORD PTR _script$[ebp]

; 557  : 	}

	pop	edi
	pop	esi
	pop	ebx
	mov	esp, ebp
	pop	ebp
	ret	0
?Create@?$ScriptRegistrant@VSUR_Obj_Destroyer@@@@UAEPAVScriptImpClass@@XZ ENDP ; ScriptRegistrant<SUR_Obj_Destroyer>::Create
_TEXT	ENDS
; Function compile flags: /Odtp /ZI
; File x:\github\renegade\dragonade_rxd\scripts\scripts.h
;	COMDAT ??0?$ScriptRegistrant@VSUR_Obj_Destroyer@@@@QAE@PBD0@Z
_TEXT	SEGMENT
_this$ = -4						; size = 4
_name$ = 8						; size = 4
_param$ = 12						; size = 4
??0?$ScriptRegistrant@VSUR_Obj_Destroyer@@@@QAE@PBD0@Z PROC ; ScriptRegistrant<SUR_Obj_Destroyer>::ScriptRegistrant<SUR_Obj_Destroyer>, COMDAT
; _this$ = ecx

; 549  : 	{

	push	ebp
	mov	ebp, esp
	sub	esp, 68					; 00000044H
	push	ebx
	push	esi
	push	edi
	mov	DWORD PTR _this$[ebp], ecx
	mov	eax, DWORD PTR _param$[ebp]
	push	eax
	mov	ecx, DWORD PTR _name$[ebp]
	push	ecx
	mov	ecx, DWORD PTR _this$[ebp]
	call	??0ScriptFactory@@IAE@PBD0@Z		; ScriptFactory::ScriptFactory
	mov	eax, DWORD PTR _this$[ebp]
	mov	DWORD PTR [eax], OFFSET ??_7?$ScriptRegistrant@VSUR_Obj_Destroyer@@@@6B@

; 550  : 	}

	mov	eax, DWORD PTR _this$[ebp]
	pop	edi
	pop	esi
	pop	ebx
	mov	esp, ebp
	pop	ebp
	ret	8
??0?$ScriptRegistrant@VSUR_Obj_Destroyer@@@@QAE@PBD0@Z ENDP ; ScriptRegistrant<SUR_Obj_Destroyer>::ScriptRegistrant<SUR_Obj_Destroyer>
_TEXT	ENDS
; Function compile flags: /Odtp /ZI
;	COMDAT ??__FSUR_NHB_Soldier_Registrant@@YAXXZ
text$yd	SEGMENT
??__FSUR_NHB_Soldier_Registrant@@YAXXZ PROC		; `dynamic atexit destructor for 'SUR_NHB_Soldier_Registrant'', COMDAT
	push	ebp
	mov	ebp, esp
	sub	esp, 64					; 00000040H
	push	ebx
	push	esi
	push	edi
	mov	ecx, OFFSET ?SUR_NHB_Soldier_Registrant@@3V?$ScriptRegistrant@VSUR_NHB_Soldier@@@@A ; SUR_NHB_Soldier_Registrant
	call	??1?$ScriptRegistrant@VSUR_NHB_Soldier@@@@UAE@XZ
	pop	edi
	pop	esi
	pop	ebx
	mov	esp, ebp
	pop	ebp
	ret	0
??__FSUR_NHB_Soldier_Registrant@@YAXXZ ENDP		; `dynamic atexit destructor for 'SUR_NHB_Soldier_Registrant''
text$yd	ENDS
; Function compile flags: /Odtp /ZI
; File x:\github\renegade\dragonade_rxd\scripts\survival.cpp
;	COMDAT ??__ESUR_NHB_Soldier_Registrant@@YAXXZ
text$yc	SEGMENT
??__ESUR_NHB_Soldier_Registrant@@YAXXZ PROC		; `dynamic initializer for 'SUR_NHB_Soldier_Registrant'', COMDAT

; 823  : ScriptRegistrant<SUR_NHB_Soldier> SUR_NHB_Soldier_Registrant("SUR_NHB_Soldier","NHB_ID:int,VPad_Path:int,VPad_Path_Start:int,VPad_Path_End:int,HeliPath:int,HeliPath_Start:int,HeliPath_End:int,NodGen_Path:int,NodGen_Path_Start:int,NodGen_Path_End:int,GDIGen_Path:int,GDIGen_Path_Start:int,GDIGen_Path_End:int,NodGen_ID:int,GDIGen_ID:int");

	push	ebp
	mov	ebp, esp
	sub	esp, 64					; 00000040H
	push	ebx
	push	esi
	push	edi
	push	OFFSET ??_C@_0BAA@ECKFGJNH@NHB_ID?3int?0VPad_Path?3int?0VPad_Pa@
	push	OFFSET ??_C@_0BA@IFMBMGDM@SUR_NHB_Soldier?$AA@
	mov	ecx, OFFSET ?SUR_NHB_Soldier_Registrant@@3V?$ScriptRegistrant@VSUR_NHB_Soldier@@@@A ; SUR_NHB_Soldier_Registrant
	call	??0?$ScriptRegistrant@VSUR_NHB_Soldier@@@@QAE@PBD0@Z ; ScriptRegistrant<SUR_NHB_Soldier>::ScriptRegistrant<SUR_NHB_Soldier>
	push	OFFSET ??__FSUR_NHB_Soldier_Registrant@@YAXXZ ; `dynamic atexit destructor for 'SUR_NHB_Soldier_Registrant''
	call	_atexit
	add	esp, 4
	pop	edi
	pop	esi
	pop	ebx
	mov	esp, ebp
	pop	ebp
	ret	0
??__ESUR_NHB_Soldier_Registrant@@YAXXZ ENDP		; `dynamic initializer for 'SUR_NHB_Soldier_Registrant''
text$yc	ENDS
; Function compile flags: /Odtp /ZI
;	COMDAT ??_G?$ScriptRegistrant@VSUR_NHB_Soldier@@@@UAEPAXI@Z
_TEXT	SEGMENT
_this$ = -4						; size = 4
___flags$ = 8						; size = 4
??_G?$ScriptRegistrant@VSUR_NHB_Soldier@@@@UAEPAXI@Z PROC ; ScriptRegistrant<SUR_NHB_Soldier>::`scalar deleting destructor', COMDAT
; _this$ = ecx
	push	ebp
	mov	ebp, esp
	sub	esp, 68					; 00000044H
	push	ebx
	push	esi
	push	edi
	mov	DWORD PTR _this$[ebp], ecx
	mov	ecx, DWORD PTR _this$[ebp]
	call	??1?$ScriptRegistrant@VSUR_NHB_Soldier@@@@UAE@XZ
	mov	eax, DWORD PTR ___flags$[ebp]
	and	eax, 1
	je	SHORT $LN1@scalar
	mov	eax, DWORD PTR _this$[ebp]
	push	eax
	call	??3@YAXPAX@Z				; operator delete
	add	esp, 4
$LN1@scalar:
	mov	eax, DWORD PTR _this$[ebp]
	pop	edi
	pop	esi
	pop	ebx
	mov	esp, ebp
	pop	ebp
	ret	4
??_G?$ScriptRegistrant@VSUR_NHB_Soldier@@@@UAEPAXI@Z ENDP ; ScriptRegistrant<SUR_NHB_Soldier>::`scalar deleting destructor'
_TEXT	ENDS
; Function compile flags: /Odtp /ZI
;	COMDAT ??1?$ScriptRegistrant@VSUR_NHB_Soldier@@@@UAE@XZ
_TEXT	SEGMENT
_this$ = -4						; size = 4
??1?$ScriptRegistrant@VSUR_NHB_Soldier@@@@UAE@XZ PROC	; ScriptRegistrant<SUR_NHB_Soldier>::~ScriptRegistrant<SUR_NHB_Soldier>, COMDAT
; _this$ = ecx
	push	ebp
	mov	ebp, esp
	sub	esp, 68					; 00000044H
	push	ebx
	push	esi
	push	edi
	mov	DWORD PTR _this$[ebp], ecx
	mov	ecx, DWORD PTR _this$[ebp]
	call	??1ScriptFactory@@UAE@XZ		; ScriptFactory::~ScriptFactory
	pop	edi
	pop	esi
	pop	ebx
	mov	esp, ebp
	pop	ebp
	ret	0
??1?$ScriptRegistrant@VSUR_NHB_Soldier@@@@UAE@XZ ENDP	; ScriptRegistrant<SUR_NHB_Soldier>::~ScriptRegistrant<SUR_NHB_Soldier>
_TEXT	ENDS
; Function compile flags: /Odtp /ZI
; File x:\github\renegade\dragonade_rxd\scripts\scripts.h
;	COMDAT ?Create@?$ScriptRegistrant@VSUR_NHB_Soldier@@@@UAEPAVScriptImpClass@@XZ
_TEXT	SEGMENT
tv77 = -84						; size = 4
tv79 = -80						; size = 4
$T1 = -76						; size = 4
_script$ = -8						; size = 4
_this$ = -4						; size = 4
?Create@?$ScriptRegistrant@VSUR_NHB_Soldier@@@@UAEPAVScriptImpClass@@XZ PROC ; ScriptRegistrant<SUR_NHB_Soldier>::Create, COMDAT
; _this$ = ecx

; 552  : 	{

	push	ebp
	mov	ebp, esp
	sub	esp, 84					; 00000054H
	push	ebx
	push	esi
	push	edi
	mov	DWORD PTR _this$[ebp], ecx

; 553  : 		T* script = new T;

	push	OFFSET ??_C@_0DA@BIDEEIAA@ScriptRegistrant?$DMclass?5SUR_NHB_S@
	push	553					; 00000229H
	push	OFFSET ??_C@_0DD@KMKBFFOF@x?3?2github?2renegade?2dragonade_rxd@
	call	?SetThreadTrackingInformation@@YAXPBDI0@Z ; SetThreadTrackingInformation
	add	esp, 12					; 0000000cH
	xor	eax, eax
	je	SHORT $LN6@Create
	xor	ecx, ecx
	jne	SHORT $LN3@Create
	push	553					; 00000229H
	push	OFFSET ??_C@_1GG@OGNLNBPD@?$AAx?$AA?3?$AA?2?$AAg?$AAi?$AAt?$AAh?$AAu?$AAb?$AA?2?$AAr?$AAe?$AAn?$AAe?$AAg?$AAa?$AAd?$AAe?$AA?2?$AAd?$AAr?$AAa?$AAg?$AAo?$AAn?$AAa?$AAd?$AAe?$AA_?$AAr?$AAx?$AAd@
	push	OFFSET ??_C@_1M@HLGKFCJM@?$AAf?$AAa?$AAl?$AAs?$AAe?$AA?$AA@
	call	DWORD PTR __imp___wassert
	add	esp, 12					; 0000000cH
$LN3@Create:
	mov	DWORD PTR tv79[ebp], 0
	jmp	SHORT $LN7@Create
$LN6@Create:
	push	48					; 00000030H
	call	??2@YAPAXI@Z				; operator new
	add	esp, 4
	mov	DWORD PTR $T1[ebp], eax
	cmp	DWORD PTR $T1[ebp], 0
	je	SHORT $LN4@Create
	mov	ecx, DWORD PTR $T1[ebp]
	call	??0SUR_NHB_Soldier@@QAE@XZ
	mov	DWORD PTR tv77[ebp], eax
	jmp	SHORT $LN5@Create
$LN4@Create:
	mov	DWORD PTR tv77[ebp], 0
$LN5@Create:
	mov	eax, DWORD PTR tv77[ebp]
	mov	DWORD PTR tv79[ebp], eax
$LN7@Create:
	mov	ecx, DWORD PTR tv79[ebp]
	mov	DWORD PTR _script$[ebp], ecx

; 554  : 		script->SetFactory(this);

	mov	eax, DWORD PTR _this$[ebp]
	push	eax
	mov	ecx, DWORD PTR _script$[ebp]
	call	?SetFactory@ScriptImpClass@@QAEXPAVScriptFactory@@@Z ; ScriptImpClass::SetFactory

; 555  : 		script->Register_Auto_Save_Variables();

	mov	eax, DWORD PTR _script$[ebp]
	mov	edx, DWORD PTR [eax]
	mov	ecx, DWORD PTR _script$[ebp]
	mov	eax, DWORD PTR [edx+100]
	call	eax

; 556  : 		return script;

	mov	eax, DWORD PTR _script$[ebp]

; 557  : 	}

	pop	edi
	pop	esi
	pop	ebx
	mov	esp, ebp
	pop	ebp
	ret	0
?Create@?$ScriptRegistrant@VSUR_NHB_Soldier@@@@UAEPAVScriptImpClass@@XZ ENDP ; ScriptRegistrant<SUR_NHB_Soldier>::Create
_TEXT	ENDS
; Function compile flags: /Odtp /ZI
; File x:\github\renegade\dragonade_rxd\scripts\scripts.h
;	COMDAT ??0?$ScriptRegistrant@VSUR_NHB_Soldier@@@@QAE@PBD0@Z
_TEXT	SEGMENT
_this$ = -4						; size = 4
_name$ = 8						; size = 4
_param$ = 12						; size = 4
??0?$ScriptRegistrant@VSUR_NHB_Soldier@@@@QAE@PBD0@Z PROC ; ScriptRegistrant<SUR_NHB_Soldier>::ScriptRegistrant<SUR_NHB_Soldier>, COMDAT
; _this$ = ecx

; 549  : 	{

	push	ebp
	mov	ebp, esp
	sub	esp, 68					; 00000044H
	push	ebx
	push	esi
	push	edi
	mov	DWORD PTR _this$[ebp], ecx
	mov	eax, DWORD PTR _param$[ebp]
	push	eax
	mov	ecx, DWORD PTR _name$[ebp]
	push	ecx
	mov	ecx, DWORD PTR _this$[ebp]
	call	??0ScriptFactory@@IAE@PBD0@Z		; ScriptFactory::ScriptFactory
	mov	eax, DWORD PTR _this$[ebp]
	mov	DWORD PTR [eax], OFFSET ??_7?$ScriptRegistrant@VSUR_NHB_Soldier@@@@6B@

; 550  : 	}

	mov	eax, DWORD PTR _this$[ebp]
	pop	edi
	pop	esi
	pop	ebx
	mov	esp, ebp
	pop	ebp
	ret	8
??0?$ScriptRegistrant@VSUR_NHB_Soldier@@@@QAE@PBD0@Z ENDP ; ScriptRegistrant<SUR_NHB_Soldier>::ScriptRegistrant<SUR_NHB_Soldier>
_TEXT	ENDS
; Function compile flags: /Odtp /ZI
;	COMDAT ??__FSUR_NHB_Registrant@@YAXXZ
text$yd	SEGMENT
??__FSUR_NHB_Registrant@@YAXXZ PROC			; `dynamic atexit destructor for 'SUR_NHB_Registrant'', COMDAT
	push	ebp
	mov	ebp, esp
	sub	esp, 64					; 00000040H
	push	ebx
	push	esi
	push	edi
	mov	ecx, OFFSET ?SUR_NHB_Registrant@@3V?$ScriptRegistrant@VSUR_NHB@@@@A ; SUR_NHB_Registrant
	call	??1?$ScriptRegistrant@VSUR_NHB@@@@UAE@XZ
	pop	edi
	pop	esi
	pop	ebx
	mov	esp, ebp
	pop	ebp
	ret	0
??__FSUR_NHB_Registrant@@YAXXZ ENDP			; `dynamic atexit destructor for 'SUR_NHB_Registrant''
text$yd	ENDS
; Function compile flags: /Odtp /ZI
; File x:\github\renegade\dragonade_rxd\scripts\survival.cpp
;	COMDAT ??__ESUR_NHB_Registrant@@YAXXZ
text$yc	SEGMENT
??__ESUR_NHB_Registrant@@YAXXZ PROC			; `dynamic initializer for 'SUR_NHB_Registrant'', COMDAT

; 822  : ScriptRegistrant<SUR_NHB> SUR_NHB_Registrant("SUR_NHB","GDI_Gen:int,Nod_Gen:int,Strike_Preset:string,Taunt1:int,Taunt2:int,OrcaWarning:int");

	push	ebp
	mov	ebp, esp
	sub	esp, 64					; 00000040H
	push	ebx
	push	esi
	push	edi
	push	OFFSET ??_C@_0FD@DHDDJGN@GDI_Gen?3int?0Nod_Gen?3int?0Strike_P@
	push	OFFSET ??_C@_07MJBDNLE@SUR_NHB?$AA@
	mov	ecx, OFFSET ?SUR_NHB_Registrant@@3V?$ScriptRegistrant@VSUR_NHB@@@@A ; SUR_NHB_Registrant
	call	??0?$ScriptRegistrant@VSUR_NHB@@@@QAE@PBD0@Z ; ScriptRegistrant<SUR_NHB>::ScriptRegistrant<SUR_NHB>
	push	OFFSET ??__FSUR_NHB_Registrant@@YAXXZ	; `dynamic atexit destructor for 'SUR_NHB_Registrant''
	call	_atexit
	add	esp, 4
	pop	edi
	pop	esi
	pop	ebx
	mov	esp, ebp
	pop	ebp
	ret	0
??__ESUR_NHB_Registrant@@YAXXZ ENDP			; `dynamic initializer for 'SUR_NHB_Registrant''
text$yc	ENDS
; Function compile flags: /Odtp /ZI
;	COMDAT ??_G?$ScriptRegistrant@VSUR_NHB@@@@UAEPAXI@Z
_TEXT	SEGMENT
_this$ = -4						; size = 4
___flags$ = 8						; size = 4
??_G?$ScriptRegistrant@VSUR_NHB@@@@UAEPAXI@Z PROC	; ScriptRegistrant<SUR_NHB>::`scalar deleting destructor', COMDAT
; _this$ = ecx
	push	ebp
	mov	ebp, esp
	sub	esp, 68					; 00000044H
	push	ebx
	push	esi
	push	edi
	mov	DWORD PTR _this$[ebp], ecx
	mov	ecx, DWORD PTR _this$[ebp]
	call	??1?$ScriptRegistrant@VSUR_NHB@@@@UAE@XZ
	mov	eax, DWORD PTR ___flags$[ebp]
	and	eax, 1
	je	SHORT $LN1@scalar
	mov	eax, DWORD PTR _this$[ebp]
	push	eax
	call	??3@YAXPAX@Z				; operator delete
	add	esp, 4
$LN1@scalar:
	mov	eax, DWORD PTR _this$[ebp]
	pop	edi
	pop	esi
	pop	ebx
	mov	esp, ebp
	pop	ebp
	ret	4
??_G?$ScriptRegistrant@VSUR_NHB@@@@UAEPAXI@Z ENDP	; ScriptRegistrant<SUR_NHB>::`scalar deleting destructor'
_TEXT	ENDS
; Function compile flags: /Odtp /ZI
;	COMDAT ??1?$ScriptRegistrant@VSUR_NHB@@@@UAE@XZ
_TEXT	SEGMENT
_this$ = -4						; size = 4
??1?$ScriptRegistrant@VSUR_NHB@@@@UAE@XZ PROC		; ScriptRegistrant<SUR_NHB>::~ScriptRegistrant<SUR_NHB>, COMDAT
; _this$ = ecx
	push	ebp
	mov	ebp, esp
	sub	esp, 68					; 00000044H
	push	ebx
	push	esi
	push	edi
	mov	DWORD PTR _this$[ebp], ecx
	mov	ecx, DWORD PTR _this$[ebp]
	call	??1ScriptFactory@@UAE@XZ		; ScriptFactory::~ScriptFactory
	pop	edi
	pop	esi
	pop	ebx
	mov	esp, ebp
	pop	ebp
	ret	0
??1?$ScriptRegistrant@VSUR_NHB@@@@UAE@XZ ENDP		; ScriptRegistrant<SUR_NHB>::~ScriptRegistrant<SUR_NHB>
_TEXT	ENDS
; Function compile flags: /Odtp /ZI
; File x:\github\renegade\dragonade_rxd\scripts\scripts.h
;	COMDAT ?Create@?$ScriptRegistrant@VSUR_NHB@@@@UAEPAVScriptImpClass@@XZ
_TEXT	SEGMENT
tv77 = -84						; size = 4
tv79 = -80						; size = 4
$T1 = -76						; size = 4
_script$ = -8						; size = 4
_this$ = -4						; size = 4
?Create@?$ScriptRegistrant@VSUR_NHB@@@@UAEPAVScriptImpClass@@XZ PROC ; ScriptRegistrant<SUR_NHB>::Create, COMDAT
; _this$ = ecx

; 552  : 	{

	push	ebp
	mov	ebp, esp
	sub	esp, 84					; 00000054H
	push	ebx
	push	esi
	push	edi
	mov	DWORD PTR _this$[ebp], ecx

; 553  : 		T* script = new T;

	push	OFFSET ??_C@_0CI@LNPJCONE@ScriptRegistrant?$DMclass?5SUR_NHB?$DO?3@
	push	553					; 00000229H
	push	OFFSET ??_C@_0DD@KMKBFFOF@x?3?2github?2renegade?2dragonade_rxd@
	call	?SetThreadTrackingInformation@@YAXPBDI0@Z ; SetThreadTrackingInformation
	add	esp, 12					; 0000000cH
	xor	eax, eax
	je	SHORT $LN6@Create
	xor	ecx, ecx
	jne	SHORT $LN3@Create
	push	553					; 00000229H
	push	OFFSET ??_C@_1GG@OGNLNBPD@?$AAx?$AA?3?$AA?2?$AAg?$AAi?$AAt?$AAh?$AAu?$AAb?$AA?2?$AAr?$AAe?$AAn?$AAe?$AAg?$AAa?$AAd?$AAe?$AA?2?$AAd?$AAr?$AAa?$AAg?$AAo?$AAn?$AAa?$AAd?$AAe?$AA_?$AAr?$AAx?$AAd@
	push	OFFSET ??_C@_1M@HLGKFCJM@?$AAf?$AAa?$AAl?$AAs?$AAe?$AA?$AA@
	call	DWORD PTR __imp___wassert
	add	esp, 12					; 0000000cH
$LN3@Create:
	mov	DWORD PTR tv79[ebp], 0
	jmp	SHORT $LN7@Create
$LN6@Create:
	push	92					; 0000005cH
	call	??2@YAPAXI@Z				; operator new
	add	esp, 4
	mov	DWORD PTR $T1[ebp], eax
	cmp	DWORD PTR $T1[ebp], 0
	je	SHORT $LN4@Create
	mov	ecx, DWORD PTR $T1[ebp]
	call	??0SUR_NHB@@QAE@XZ
	mov	DWORD PTR tv77[ebp], eax
	jmp	SHORT $LN5@Create
$LN4@Create:
	mov	DWORD PTR tv77[ebp], 0
$LN5@Create:
	mov	eax, DWORD PTR tv77[ebp]
	mov	DWORD PTR tv79[ebp], eax
$LN7@Create:
	mov	ecx, DWORD PTR tv79[ebp]
	mov	DWORD PTR _script$[ebp], ecx

; 554  : 		script->SetFactory(this);

	mov	eax, DWORD PTR _this$[ebp]
	push	eax
	mov	ecx, DWORD PTR _script$[ebp]
	call	?SetFactory@ScriptImpClass@@QAEXPAVScriptFactory@@@Z ; ScriptImpClass::SetFactory

; 555  : 		script->Register_Auto_Save_Variables();

	mov	eax, DWORD PTR _script$[ebp]
	mov	edx, DWORD PTR [eax]
	mov	ecx, DWORD PTR _script$[ebp]
	mov	eax, DWORD PTR [edx+100]
	call	eax

; 556  : 		return script;

	mov	eax, DWORD PTR _script$[ebp]

; 557  : 	}

	pop	edi
	pop	esi
	pop	ebx
	mov	esp, ebp
	pop	ebp
	ret	0
?Create@?$ScriptRegistrant@VSUR_NHB@@@@UAEPAVScriptImpClass@@XZ ENDP ; ScriptRegistrant<SUR_NHB>::Create
_TEXT	ENDS
; Function compile flags: /Odtp /ZI
; File x:\github\renegade\dragonade_rxd\scripts\scripts.h
;	COMDAT ??0?$ScriptRegistrant@VSUR_NHB@@@@QAE@PBD0@Z
_TEXT	SEGMENT
_this$ = -4						; size = 4
_name$ = 8						; size = 4
_param$ = 12						; size = 4
??0?$ScriptRegistrant@VSUR_NHB@@@@QAE@PBD0@Z PROC	; ScriptRegistrant<SUR_NHB>::ScriptRegistrant<SUR_NHB>, COMDAT
; _this$ = ecx

; 549  : 	{

	push	ebp
	mov	ebp, esp
	sub	esp, 68					; 00000044H
	push	ebx
	push	esi
	push	edi
	mov	DWORD PTR _this$[ebp], ecx
	mov	eax, DWORD PTR _param$[ebp]
	push	eax
	mov	ecx, DWORD PTR _name$[ebp]
	push	ecx
	mov	ecx, DWORD PTR _this$[ebp]
	call	??0ScriptFactory@@IAE@PBD0@Z		; ScriptFactory::ScriptFactory
	mov	eax, DWORD PTR _this$[ebp]
	mov	DWORD PTR [eax], OFFSET ??_7?$ScriptRegistrant@VSUR_NHB@@@@6B@

; 550  : 	}

	mov	eax, DWORD PTR _this$[ebp]
	pop	edi
	pop	esi
	pop	ebx
	mov	esp, ebp
	pop	ebp
	ret	8
??0?$ScriptRegistrant@VSUR_NHB@@@@QAE@PBD0@Z ENDP	; ScriptRegistrant<SUR_NHB>::ScriptRegistrant<SUR_NHB>
_TEXT	ENDS
; Function compile flags: /Odtp /ZI
;	COMDAT ??__FSUR_MiniGen_Registrant@@YAXXZ
text$yd	SEGMENT
??__FSUR_MiniGen_Registrant@@YAXXZ PROC			; `dynamic atexit destructor for 'SUR_MiniGen_Registrant'', COMDAT
	push	ebp
	mov	ebp, esp
	sub	esp, 64					; 00000040H
	push	ebx
	push	esi
	push	edi
	mov	ecx, OFFSET ?SUR_MiniGen_Registrant@@3V?$ScriptRegistrant@VSUR_MiniGen@@@@A ; SUR_MiniGen_Registrant
	call	??1?$ScriptRegistrant@VSUR_MiniGen@@@@UAE@XZ
	pop	edi
	pop	esi
	pop	ebx
	mov	esp, ebp
	pop	ebp
	ret	0
??__FSUR_MiniGen_Registrant@@YAXXZ ENDP			; `dynamic atexit destructor for 'SUR_MiniGen_Registrant''
text$yd	ENDS
; Function compile flags: /Odtp /ZI
; File x:\github\renegade\dragonade_rxd\scripts\survival.cpp
;	COMDAT ??__ESUR_MiniGen_Registrant@@YAXXZ
text$yc	SEGMENT
??__ESUR_MiniGen_Registrant@@YAXXZ PROC			; `dynamic initializer for 'SUR_MiniGen_Registrant'', COMDAT

; 821  : ScriptRegistrant<SUR_MiniGen> SUR_MiniGen_Registrant("SUR_MiniGen","Time_Delay:float,Turret_ID_One:int,Turret_ID_Two:int,Turret_ID_Three:int,Turret_ID_Four:int");

	push	ebp
	mov	ebp, esp
	sub	esp, 64					; 00000040H
	push	ebx
	push	esi
	push	edi
	push	OFFSET ??_C@_0FM@NAIMEOBA@Time_Delay?3float?0Turret_ID_One?3i@
	push	OFFSET ??_C@_0M@GPOHJCKC@SUR_MiniGen?$AA@
	mov	ecx, OFFSET ?SUR_MiniGen_Registrant@@3V?$ScriptRegistrant@VSUR_MiniGen@@@@A ; SUR_MiniGen_Registrant
	call	??0?$ScriptRegistrant@VSUR_MiniGen@@@@QAE@PBD0@Z ; ScriptRegistrant<SUR_MiniGen>::ScriptRegistrant<SUR_MiniGen>
	push	OFFSET ??__FSUR_MiniGen_Registrant@@YAXXZ ; `dynamic atexit destructor for 'SUR_MiniGen_Registrant''
	call	_atexit
	add	esp, 4
	pop	edi
	pop	esi
	pop	ebx
	mov	esp, ebp
	pop	ebp
	ret	0
??__ESUR_MiniGen_Registrant@@YAXXZ ENDP			; `dynamic initializer for 'SUR_MiniGen_Registrant''
text$yc	ENDS
; Function compile flags: /Odtp /ZI
;	COMDAT ??_G?$ScriptRegistrant@VSUR_MiniGen@@@@UAEPAXI@Z
_TEXT	SEGMENT
_this$ = -4						; size = 4
___flags$ = 8						; size = 4
??_G?$ScriptRegistrant@VSUR_MiniGen@@@@UAEPAXI@Z PROC	; ScriptRegistrant<SUR_MiniGen>::`scalar deleting destructor', COMDAT
; _this$ = ecx
	push	ebp
	mov	ebp, esp
	sub	esp, 68					; 00000044H
	push	ebx
	push	esi
	push	edi
	mov	DWORD PTR _this$[ebp], ecx
	mov	ecx, DWORD PTR _this$[ebp]
	call	??1?$ScriptRegistrant@VSUR_MiniGen@@@@UAE@XZ
	mov	eax, DWORD PTR ___flags$[ebp]
	and	eax, 1
	je	SHORT $LN1@scalar
	mov	eax, DWORD PTR _this$[ebp]
	push	eax
	call	??3@YAXPAX@Z				; operator delete
	add	esp, 4
$LN1@scalar:
	mov	eax, DWORD PTR _this$[ebp]
	pop	edi
	pop	esi
	pop	ebx
	mov	esp, ebp
	pop	ebp
	ret	4
??_G?$ScriptRegistrant@VSUR_MiniGen@@@@UAEPAXI@Z ENDP	; ScriptRegistrant<SUR_MiniGen>::`scalar deleting destructor'
_TEXT	ENDS
; Function compile flags: /Odtp /ZI
;	COMDAT ??1?$ScriptRegistrant@VSUR_MiniGen@@@@UAE@XZ
_TEXT	SEGMENT
_this$ = -4						; size = 4
??1?$ScriptRegistrant@VSUR_MiniGen@@@@UAE@XZ PROC	; ScriptRegistrant<SUR_MiniGen>::~ScriptRegistrant<SUR_MiniGen>, COMDAT
; _this$ = ecx
	push	ebp
	mov	ebp, esp
	sub	esp, 68					; 00000044H
	push	ebx
	push	esi
	push	edi
	mov	DWORD PTR _this$[ebp], ecx
	mov	ecx, DWORD PTR _this$[ebp]
	call	??1ScriptFactory@@UAE@XZ		; ScriptFactory::~ScriptFactory
	pop	edi
	pop	esi
	pop	ebx
	mov	esp, ebp
	pop	ebp
	ret	0
??1?$ScriptRegistrant@VSUR_MiniGen@@@@UAE@XZ ENDP	; ScriptRegistrant<SUR_MiniGen>::~ScriptRegistrant<SUR_MiniGen>
_TEXT	ENDS
; Function compile flags: /Odtp /ZI
; File x:\github\renegade\dragonade_rxd\scripts\scripts.h
;	COMDAT ?Create@?$ScriptRegistrant@VSUR_MiniGen@@@@UAEPAVScriptImpClass@@XZ
_TEXT	SEGMENT
tv77 = -84						; size = 4
tv79 = -80						; size = 4
$T1 = -76						; size = 4
_script$ = -8						; size = 4
_this$ = -4						; size = 4
?Create@?$ScriptRegistrant@VSUR_MiniGen@@@@UAEPAVScriptImpClass@@XZ PROC ; ScriptRegistrant<SUR_MiniGen>::Create, COMDAT
; _this$ = ecx

; 552  : 	{

	push	ebp
	mov	ebp, esp
	sub	esp, 84					; 00000054H
	push	ebx
	push	esi
	push	edi
	mov	DWORD PTR _this$[ebp], ecx

; 553  : 		T* script = new T;

	push	OFFSET ??_C@_0CM@LLEDJECK@ScriptRegistrant?$DMclass?5SUR_MiniG@
	push	553					; 00000229H
	push	OFFSET ??_C@_0DD@KMKBFFOF@x?3?2github?2renegade?2dragonade_rxd@
	call	?SetThreadTrackingInformation@@YAXPBDI0@Z ; SetThreadTrackingInformation
	add	esp, 12					; 0000000cH
	xor	eax, eax
	je	SHORT $LN6@Create
	xor	ecx, ecx
	jne	SHORT $LN3@Create
	push	553					; 00000229H
	push	OFFSET ??_C@_1GG@OGNLNBPD@?$AAx?$AA?3?$AA?2?$AAg?$AAi?$AAt?$AAh?$AAu?$AAb?$AA?2?$AAr?$AAe?$AAn?$AAe?$AAg?$AAa?$AAd?$AAe?$AA?2?$AAd?$AAr?$AAa?$AAg?$AAo?$AAn?$AAa?$AAd?$AAe?$AA_?$AAr?$AAx?$AAd@
	push	OFFSET ??_C@_1M@HLGKFCJM@?$AAf?$AAa?$AAl?$AAs?$AAe?$AA?$AA@
	call	DWORD PTR __imp___wassert
	add	esp, 12					; 0000000cH
$LN3@Create:
	mov	DWORD PTR tv79[ebp], 0
	jmp	SHORT $LN7@Create
$LN6@Create:
	push	28					; 0000001cH
	call	??2@YAPAXI@Z				; operator new
	add	esp, 4
	mov	DWORD PTR $T1[ebp], eax
	cmp	DWORD PTR $T1[ebp], 0
	je	SHORT $LN4@Create
	mov	ecx, DWORD PTR $T1[ebp]
	call	??0SUR_MiniGen@@QAE@XZ
	mov	DWORD PTR tv77[ebp], eax
	jmp	SHORT $LN5@Create
$LN4@Create:
	mov	DWORD PTR tv77[ebp], 0
$LN5@Create:
	mov	eax, DWORD PTR tv77[ebp]
	mov	DWORD PTR tv79[ebp], eax
$LN7@Create:
	mov	ecx, DWORD PTR tv79[ebp]
	mov	DWORD PTR _script$[ebp], ecx

; 554  : 		script->SetFactory(this);

	mov	eax, DWORD PTR _this$[ebp]
	push	eax
	mov	ecx, DWORD PTR _script$[ebp]
	call	?SetFactory@ScriptImpClass@@QAEXPAVScriptFactory@@@Z ; ScriptImpClass::SetFactory

; 555  : 		script->Register_Auto_Save_Variables();

	mov	eax, DWORD PTR _script$[ebp]
	mov	edx, DWORD PTR [eax]
	mov	ecx, DWORD PTR _script$[ebp]
	mov	eax, DWORD PTR [edx+100]
	call	eax

; 556  : 		return script;

	mov	eax, DWORD PTR _script$[ebp]

; 557  : 	}

	pop	edi
	pop	esi
	pop	ebx
	mov	esp, ebp
	pop	ebp
	ret	0
?Create@?$ScriptRegistrant@VSUR_MiniGen@@@@UAEPAVScriptImpClass@@XZ ENDP ; ScriptRegistrant<SUR_MiniGen>::Create
_TEXT	ENDS
; Function compile flags: /Odtp /ZI
; File x:\github\renegade\dragonade_rxd\scripts\scripts.h
;	COMDAT ??0?$ScriptRegistrant@VSUR_MiniGen@@@@QAE@PBD0@Z
_TEXT	SEGMENT
_this$ = -4						; size = 4
_name$ = 8						; size = 4
_param$ = 12						; size = 4
??0?$ScriptRegistrant@VSUR_MiniGen@@@@QAE@PBD0@Z PROC	; ScriptRegistrant<SUR_MiniGen>::ScriptRegistrant<SUR_MiniGen>, COMDAT
; _this$ = ecx

; 549  : 	{

	push	ebp
	mov	ebp, esp
	sub	esp, 68					; 00000044H
	push	ebx
	push	esi
	push	edi
	mov	DWORD PTR _this$[ebp], ecx
	mov	eax, DWORD PTR _param$[ebp]
	push	eax
	mov	ecx, DWORD PTR _name$[ebp]
	push	ecx
	mov	ecx, DWORD PTR _this$[ebp]
	call	??0ScriptFactory@@IAE@PBD0@Z		; ScriptFactory::ScriptFactory
	mov	eax, DWORD PTR _this$[ebp]
	mov	DWORD PTR [eax], OFFSET ??_7?$ScriptRegistrant@VSUR_MiniGen@@@@6B@

; 550  : 	}

	mov	eax, DWORD PTR _this$[ebp]
	pop	edi
	pop	esi
	pop	ebx
	mov	esp, ebp
	pop	ebp
	ret	8
??0?$ScriptRegistrant@VSUR_MiniGen@@@@QAE@PBD0@Z ENDP	; ScriptRegistrant<SUR_MiniGen>::ScriptRegistrant<SUR_MiniGen>
_TEXT	ENDS
; Function compile flags: /Odtp /ZI
;	COMDAT ??__FSUR_Generator_Zone_Registrant@@YAXXZ
text$yd	SEGMENT
??__FSUR_Generator_Zone_Registrant@@YAXXZ PROC		; `dynamic atexit destructor for 'SUR_Generator_Zone_Registrant'', COMDAT
	push	ebp
	mov	ebp, esp
	sub	esp, 64					; 00000040H
	push	ebx
	push	esi
	push	edi
	mov	ecx, OFFSET ?SUR_Generator_Zone_Registrant@@3V?$ScriptRegistrant@VSUR_Generator_Zone@@@@A ; SUR_Generator_Zone_Registrant
	call	??1?$ScriptRegistrant@VSUR_Generator_Zone@@@@UAE@XZ
	pop	edi
	pop	esi
	pop	ebx
	mov	esp, ebp
	pop	ebp
	ret	0
??__FSUR_Generator_Zone_Registrant@@YAXXZ ENDP		; `dynamic atexit destructor for 'SUR_Generator_Zone_Registrant''
text$yd	ENDS
; Function compile flags: /Odtp /ZI
; File x:\github\renegade\dragonade_rxd\scripts\survival.cpp
;	COMDAT ??__ESUR_Generator_Zone_Registrant@@YAXXZ
text$yc	SEGMENT
??__ESUR_Generator_Zone_Registrant@@YAXXZ PROC		; `dynamic initializer for 'SUR_Generator_Zone_Registrant'', COMDAT

; 820  : ScriptRegistrant<SUR_Generator_Zone> SUR_Generator_Zone_Registrant("SUR_Generator_Zone","Time_Delay:float,Supply_Truck_Preset:string,Emitter_Pos:vector3,Emitter_Preset_Good:string,Emitter_Preset_Ok:string,Emitter_Preset_Bad:string,Build_D_One:int,Build_D_Two:int,Build_D_Three:int");

	push	ebp
	mov	ebp, esp
	sub	esp, 64					; 00000040H
	push	ebx
	push	esi
	push	edi
	push	OFFSET ??_C@_0MA@PHLCLBBJ@Time_Delay?3float?0Supply_Truck_Pr@
	push	OFFSET ??_C@_0BD@JMCCCHCE@SUR_Generator_Zone?$AA@
	mov	ecx, OFFSET ?SUR_Generator_Zone_Registrant@@3V?$ScriptRegistrant@VSUR_Generator_Zone@@@@A ; SUR_Generator_Zone_Registrant
	call	??0?$ScriptRegistrant@VSUR_Generator_Zone@@@@QAE@PBD0@Z ; ScriptRegistrant<SUR_Generator_Zone>::ScriptRegistrant<SUR_Generator_Zone>
	push	OFFSET ??__FSUR_Generator_Zone_Registrant@@YAXXZ ; `dynamic atexit destructor for 'SUR_Generator_Zone_Registrant''
	call	_atexit
	add	esp, 4
	pop	edi
	pop	esi
	pop	ebx
	mov	esp, ebp
	pop	ebp
	ret	0
??__ESUR_Generator_Zone_Registrant@@YAXXZ ENDP		; `dynamic initializer for 'SUR_Generator_Zone_Registrant''
text$yc	ENDS
; Function compile flags: /Odtp /ZI
;	COMDAT ??_G?$ScriptRegistrant@VSUR_Generator_Zone@@@@UAEPAXI@Z
_TEXT	SEGMENT
_this$ = -4						; size = 4
___flags$ = 8						; size = 4
??_G?$ScriptRegistrant@VSUR_Generator_Zone@@@@UAEPAXI@Z PROC ; ScriptRegistrant<SUR_Generator_Zone>::`scalar deleting destructor', COMDAT
; _this$ = ecx
	push	ebp
	mov	ebp, esp
	sub	esp, 68					; 00000044H
	push	ebx
	push	esi
	push	edi
	mov	DWORD PTR _this$[ebp], ecx
	mov	ecx, DWORD PTR _this$[ebp]
	call	??1?$ScriptRegistrant@VSUR_Generator_Zone@@@@UAE@XZ
	mov	eax, DWORD PTR ___flags$[ebp]
	and	eax, 1
	je	SHORT $LN1@scalar
	mov	eax, DWORD PTR _this$[ebp]
	push	eax
	call	??3@YAXPAX@Z				; operator delete
	add	esp, 4
$LN1@scalar:
	mov	eax, DWORD PTR _this$[ebp]
	pop	edi
	pop	esi
	pop	ebx
	mov	esp, ebp
	pop	ebp
	ret	4
??_G?$ScriptRegistrant@VSUR_Generator_Zone@@@@UAEPAXI@Z ENDP ; ScriptRegistrant<SUR_Generator_Zone>::`scalar deleting destructor'
_TEXT	ENDS
; Function compile flags: /Odtp /ZI
;	COMDAT ??1?$ScriptRegistrant@VSUR_Generator_Zone@@@@UAE@XZ
_TEXT	SEGMENT
_this$ = -4						; size = 4
??1?$ScriptRegistrant@VSUR_Generator_Zone@@@@UAE@XZ PROC ; ScriptRegistrant<SUR_Generator_Zone>::~ScriptRegistrant<SUR_Generator_Zone>, COMDAT
; _this$ = ecx
	push	ebp
	mov	ebp, esp
	sub	esp, 68					; 00000044H
	push	ebx
	push	esi
	push	edi
	mov	DWORD PTR _this$[ebp], ecx
	mov	ecx, DWORD PTR _this$[ebp]
	call	??1ScriptFactory@@UAE@XZ		; ScriptFactory::~ScriptFactory
	pop	edi
	pop	esi
	pop	ebx
	mov	esp, ebp
	pop	ebp
	ret	0
??1?$ScriptRegistrant@VSUR_Generator_Zone@@@@UAE@XZ ENDP ; ScriptRegistrant<SUR_Generator_Zone>::~ScriptRegistrant<SUR_Generator_Zone>
_TEXT	ENDS
; Function compile flags: /Odtp /ZI
; File x:\github\renegade\dragonade_rxd\scripts\scripts.h
;	COMDAT ?Create@?$ScriptRegistrant@VSUR_Generator_Zone@@@@UAEPAVScriptImpClass@@XZ
_TEXT	SEGMENT
tv77 = -84						; size = 4
tv79 = -80						; size = 4
$T1 = -76						; size = 4
_script$ = -8						; size = 4
_this$ = -4						; size = 4
?Create@?$ScriptRegistrant@VSUR_Generator_Zone@@@@UAEPAVScriptImpClass@@XZ PROC ; ScriptRegistrant<SUR_Generator_Zone>::Create, COMDAT
; _this$ = ecx

; 552  : 	{

	push	ebp
	mov	ebp, esp
	sub	esp, 84					; 00000054H
	push	ebx
	push	esi
	push	edi
	mov	DWORD PTR _this$[ebp], ecx

; 553  : 		T* script = new T;

	push	OFFSET ??_C@_0DD@IBJAKMHL@ScriptRegistrant?$DMclass?5SUR_Gener@
	push	553					; 00000229H
	push	OFFSET ??_C@_0DD@KMKBFFOF@x?3?2github?2renegade?2dragonade_rxd@
	call	?SetThreadTrackingInformation@@YAXPBDI0@Z ; SetThreadTrackingInformation
	add	esp, 12					; 0000000cH
	xor	eax, eax
	je	SHORT $LN6@Create
	xor	ecx, ecx
	jne	SHORT $LN3@Create
	push	553					; 00000229H
	push	OFFSET ??_C@_1GG@OGNLNBPD@?$AAx?$AA?3?$AA?2?$AAg?$AAi?$AAt?$AAh?$AAu?$AAb?$AA?2?$AAr?$AAe?$AAn?$AAe?$AAg?$AAa?$AAd?$AAe?$AA?2?$AAd?$AAr?$AAa?$AAg?$AAo?$AAn?$AAa?$AAd?$AAe?$AA_?$AAr?$AAx?$AAd@
	push	OFFSET ??_C@_1M@HLGKFCJM@?$AAf?$AAa?$AAl?$AAs?$AAe?$AA?$AA@
	call	DWORD PTR __imp___wassert
	add	esp, 12					; 0000000cH
$LN3@Create:
	mov	DWORD PTR tv79[ebp], 0
	jmp	SHORT $LN7@Create
$LN6@Create:
	push	36					; 00000024H
	call	??2@YAPAXI@Z				; operator new
	add	esp, 4
	mov	DWORD PTR $T1[ebp], eax
	cmp	DWORD PTR $T1[ebp], 0
	je	SHORT $LN4@Create
	mov	ecx, DWORD PTR $T1[ebp]
	call	??0SUR_Generator_Zone@@QAE@XZ
	mov	DWORD PTR tv77[ebp], eax
	jmp	SHORT $LN5@Create
$LN4@Create:
	mov	DWORD PTR tv77[ebp], 0
$LN5@Create:
	mov	eax, DWORD PTR tv77[ebp]
	mov	DWORD PTR tv79[ebp], eax
$LN7@Create:
	mov	ecx, DWORD PTR tv79[ebp]
	mov	DWORD PTR _script$[ebp], ecx

; 554  : 		script->SetFactory(this);

	mov	eax, DWORD PTR _this$[ebp]
	push	eax
	mov	ecx, DWORD PTR _script$[ebp]
	call	?SetFactory@ScriptImpClass@@QAEXPAVScriptFactory@@@Z ; ScriptImpClass::SetFactory

; 555  : 		script->Register_Auto_Save_Variables();

	mov	eax, DWORD PTR _script$[ebp]
	mov	edx, DWORD PTR [eax]
	mov	ecx, DWORD PTR _script$[ebp]
	mov	eax, DWORD PTR [edx+100]
	call	eax

; 556  : 		return script;

	mov	eax, DWORD PTR _script$[ebp]

; 557  : 	}

	pop	edi
	pop	esi
	pop	ebx
	mov	esp, ebp
	pop	ebp
	ret	0
?Create@?$ScriptRegistrant@VSUR_Generator_Zone@@@@UAEPAVScriptImpClass@@XZ ENDP ; ScriptRegistrant<SUR_Generator_Zone>::Create
_TEXT	ENDS
; Function compile flags: /Odtp /ZI
; File x:\github\renegade\dragonade_rxd\scripts\scripts.h
;	COMDAT ??0?$ScriptRegistrant@VSUR_Generator_Zone@@@@QAE@PBD0@Z
_TEXT	SEGMENT
_this$ = -4						; size = 4
_name$ = 8						; size = 4
_param$ = 12						; size = 4
??0?$ScriptRegistrant@VSUR_Generator_Zone@@@@QAE@PBD0@Z PROC ; ScriptRegistrant<SUR_Generator_Zone>::ScriptRegistrant<SUR_Generator_Zone>, COMDAT
; _this$ = ecx

; 549  : 	{

	push	ebp
	mov	ebp, esp
	sub	esp, 68					; 00000044H
	push	ebx
	push	esi
	push	edi
	mov	DWORD PTR _this$[ebp], ecx
	mov	eax, DWORD PTR _param$[ebp]
	push	eax
	mov	ecx, DWORD PTR _name$[ebp]
	push	ecx
	mov	ecx, DWORD PTR _this$[ebp]
	call	??0ScriptFactory@@IAE@PBD0@Z		; ScriptFactory::ScriptFactory
	mov	eax, DWORD PTR _this$[ebp]
	mov	DWORD PTR [eax], OFFSET ??_7?$ScriptRegistrant@VSUR_Generator_Zone@@@@6B@

; 550  : 	}

	mov	eax, DWORD PTR _this$[ebp]
	pop	edi
	pop	esi
	pop	ebx
	mov	esp, ebp
	pop	ebp
	ret	8
??0?$ScriptRegistrant@VSUR_Generator_Zone@@@@QAE@PBD0@Z ENDP ; ScriptRegistrant<SUR_Generator_Zone>::ScriptRegistrant<SUR_Generator_Zone>
_TEXT	ENDS
; Function compile flags: /Odtp /ZI
;	COMDAT ??__FSUR_Spawn_Delay_Registrant@@YAXXZ
text$yd	SEGMENT
??__FSUR_Spawn_Delay_Registrant@@YAXXZ PROC		; `dynamic atexit destructor for 'SUR_Spawn_Delay_Registrant'', COMDAT
	push	ebp
	mov	ebp, esp
	sub	esp, 64					; 00000040H
	push	ebx
	push	esi
	push	edi
	mov	ecx, OFFSET ?SUR_Spawn_Delay_Registrant@@3V?$ScriptRegistrant@VSUR_Spawn_Delay@@@@A ; SUR_Spawn_Delay_Registrant
	call	??1?$ScriptRegistrant@VSUR_Spawn_Delay@@@@UAE@XZ
	pop	edi
	pop	esi
	pop	ebx
	mov	esp, ebp
	pop	ebp
	ret	0
??__FSUR_Spawn_Delay_Registrant@@YAXXZ ENDP		; `dynamic atexit destructor for 'SUR_Spawn_Delay_Registrant''
text$yd	ENDS
; Function compile flags: /Odtp /ZI
; File x:\github\renegade\dragonade_rxd\scripts\survival.cpp
;	COMDAT ??__ESUR_Spawn_Delay_Registrant@@YAXXZ
text$yc	SEGMENT
??__ESUR_Spawn_Delay_Registrant@@YAXXZ PROC		; `dynamic initializer for 'SUR_Spawn_Delay_Registrant'', COMDAT

; 819  : ScriptRegistrant<SUR_Spawn_Delay> SUR_Spawn_Delay_Registrant("SUR_Spawn_Delay","Spawn_Delay:float,Spawn_Pos:vector3,Spawn_Obj:string,Spawn_Path:int,Do_Path:int");

	push	ebp
	mov	ebp, esp
	sub	esp, 64					; 00000040H
	push	ebx
	push	esi
	push	edi
	push	OFFSET ??_C@_0FA@DHAIDPHO@Spawn_Delay?3float?0Spawn_Pos?3vect@
	push	OFFSET ??_C@_0BA@KLILNECP@SUR_Spawn_Delay?$AA@
	mov	ecx, OFFSET ?SUR_Spawn_Delay_Registrant@@3V?$ScriptRegistrant@VSUR_Spawn_Delay@@@@A ; SUR_Spawn_Delay_Registrant
	call	??0?$ScriptRegistrant@VSUR_Spawn_Delay@@@@QAE@PBD0@Z ; ScriptRegistrant<SUR_Spawn_Delay>::ScriptRegistrant<SUR_Spawn_Delay>
	push	OFFSET ??__FSUR_Spawn_Delay_Registrant@@YAXXZ ; `dynamic atexit destructor for 'SUR_Spawn_Delay_Registrant''
	call	_atexit
	add	esp, 4
	pop	edi
	pop	esi
	pop	ebx
	mov	esp, ebp
	pop	ebp
	ret	0
??__ESUR_Spawn_Delay_Registrant@@YAXXZ ENDP		; `dynamic initializer for 'SUR_Spawn_Delay_Registrant''
text$yc	ENDS
; Function compile flags: /Odtp /ZI
;	COMDAT ??_G?$ScriptRegistrant@VSUR_Spawn_Delay@@@@UAEPAXI@Z
_TEXT	SEGMENT
_this$ = -4						; size = 4
___flags$ = 8						; size = 4
??_G?$ScriptRegistrant@VSUR_Spawn_Delay@@@@UAEPAXI@Z PROC ; ScriptRegistrant<SUR_Spawn_Delay>::`scalar deleting destructor', COMDAT
; _this$ = ecx
	push	ebp
	mov	ebp, esp
	sub	esp, 68					; 00000044H
	push	ebx
	push	esi
	push	edi
	mov	DWORD PTR _this$[ebp], ecx
	mov	ecx, DWORD PTR _this$[ebp]
	call	??1?$ScriptRegistrant@VSUR_Spawn_Delay@@@@UAE@XZ
	mov	eax, DWORD PTR ___flags$[ebp]
	and	eax, 1
	je	SHORT $LN1@scalar
	mov	eax, DWORD PTR _this$[ebp]
	push	eax
	call	??3@YAXPAX@Z				; operator delete
	add	esp, 4
$LN1@scalar:
	mov	eax, DWORD PTR _this$[ebp]
	pop	edi
	pop	esi
	pop	ebx
	mov	esp, ebp
	pop	ebp
	ret	4
??_G?$ScriptRegistrant@VSUR_Spawn_Delay@@@@UAEPAXI@Z ENDP ; ScriptRegistrant<SUR_Spawn_Delay>::`scalar deleting destructor'
_TEXT	ENDS
; Function compile flags: /Odtp /ZI
;	COMDAT ??1?$ScriptRegistrant@VSUR_Spawn_Delay@@@@UAE@XZ
_TEXT	SEGMENT
_this$ = -4						; size = 4
??1?$ScriptRegistrant@VSUR_Spawn_Delay@@@@UAE@XZ PROC	; ScriptRegistrant<SUR_Spawn_Delay>::~ScriptRegistrant<SUR_Spawn_Delay>, COMDAT
; _this$ = ecx
	push	ebp
	mov	ebp, esp
	sub	esp, 68					; 00000044H
	push	ebx
	push	esi
	push	edi
	mov	DWORD PTR _this$[ebp], ecx
	mov	ecx, DWORD PTR _this$[ebp]
	call	??1ScriptFactory@@UAE@XZ		; ScriptFactory::~ScriptFactory
	pop	edi
	pop	esi
	pop	ebx
	mov	esp, ebp
	pop	ebp
	ret	0
??1?$ScriptRegistrant@VSUR_Spawn_Delay@@@@UAE@XZ ENDP	; ScriptRegistrant<SUR_Spawn_Delay>::~ScriptRegistrant<SUR_Spawn_Delay>
_TEXT	ENDS
; Function compile flags: /Odtp /ZI
; File x:\github\renegade\dragonade_rxd\scripts\scripts.h
;	COMDAT ?Create@?$ScriptRegistrant@VSUR_Spawn_Delay@@@@UAEPAVScriptImpClass@@XZ
_TEXT	SEGMENT
tv77 = -84						; size = 4
tv79 = -80						; size = 4
$T1 = -76						; size = 4
_script$ = -8						; size = 4
_this$ = -4						; size = 4
?Create@?$ScriptRegistrant@VSUR_Spawn_Delay@@@@UAEPAVScriptImpClass@@XZ PROC ; ScriptRegistrant<SUR_Spawn_Delay>::Create, COMDAT
; _this$ = ecx

; 552  : 	{

	push	ebp
	mov	ebp, esp
	sub	esp, 84					; 00000054H
	push	ebx
	push	esi
	push	edi
	mov	DWORD PTR _this$[ebp], ecx

; 553  : 		T* script = new T;

	push	OFFSET ??_C@_0DA@GODKEOJD@ScriptRegistrant?$DMclass?5SUR_Spawn@
	push	553					; 00000229H
	push	OFFSET ??_C@_0DD@KMKBFFOF@x?3?2github?2renegade?2dragonade_rxd@
	call	?SetThreadTrackingInformation@@YAXPBDI0@Z ; SetThreadTrackingInformation
	add	esp, 12					; 0000000cH
	xor	eax, eax
	je	SHORT $LN6@Create
	xor	ecx, ecx
	jne	SHORT $LN3@Create
	push	553					; 00000229H
	push	OFFSET ??_C@_1GG@OGNLNBPD@?$AAx?$AA?3?$AA?2?$AAg?$AAi?$AAt?$AAh?$AAu?$AAb?$AA?2?$AAr?$AAe?$AAn?$AAe?$AAg?$AAa?$AAd?$AAe?$AA?2?$AAd?$AAr?$AAa?$AAg?$AAo?$AAn?$AAa?$AAd?$AAe?$AA_?$AAr?$AAx?$AAd@
	push	OFFSET ??_C@_1M@HLGKFCJM@?$AAf?$AAa?$AAl?$AAs?$AAe?$AA?$AA@
	call	DWORD PTR __imp___wassert
	add	esp, 12					; 0000000cH
$LN3@Create:
	mov	DWORD PTR tv79[ebp], 0
	jmp	SHORT $LN7@Create
$LN6@Create:
	push	28					; 0000001cH
	call	??2@YAPAXI@Z				; operator new
	add	esp, 4
	mov	DWORD PTR $T1[ebp], eax
	cmp	DWORD PTR $T1[ebp], 0
	je	SHORT $LN4@Create
	mov	ecx, DWORD PTR $T1[ebp]
	call	??0SUR_Spawn_Delay@@QAE@XZ
	mov	DWORD PTR tv77[ebp], eax
	jmp	SHORT $LN5@Create
