; Listing generated by Microsoft (R) Optimizing Compiler Version 17.00.61219.0 

	TITLE	X:\GitHub\Renegade\Dragonade_RxD\scripts\tfx.cpp
	.686P
	.XMM
	include listing.inc
	.model	flat

INCLUDELIB MSVCRTD
INCLUDELIB OLDNAMES

CONST	SEGMENT
_DONT_MOVE_ARRIVED_DIST DD 0447a0000r		; 1000
CONST	ENDS
PUBLIC	??_I@YGXPAXIHP6EX0@Z@Z				; `vector destructor iterator'
PUBLIC	_acosf
PUBLIC	_asinf
PUBLIC	_atanf
PUBLIC	_atan2f
PUBLIC	_ceilf
PUBLIC	_cosf
PUBLIC	_floorf
PUBLIC	_sinf
PUBLIC	_sqrtf
PUBLIC	?acos@@YAMM@Z					; acos
PUBLIC	?asin@@YAMM@Z					; asin
PUBLIC	?atan@@YAMM@Z					; atan
PUBLIC	?atan2@@YAMMM@Z					; atan2
PUBLIC	?cos@@YAMM@Z					; cos
PUBLIC	?sin@@YAMM@Z					; sin
PUBLIC	?sqrt@@YAMM@Z					; sqrt
PUBLIC	?Fabs@WWMath@@SAMM@Z				; WWMath::Fabs
PUBLIC	?Float_To_Int_Chop@WWMath@@SAHABM@Z		; WWMath::Float_To_Int_Chop
PUBLIC	?Float_To_Int_Floor@WWMath@@SAHABM@Z		; WWMath::Float_To_Int_Floor
PUBLIC	?Cos@WWMath@@SAMM@Z				; WWMath::Cos
PUBLIC	?Sin@WWMath@@SAMM@Z				; WWMath::Sin
PUBLIC	?Sqrt@WWMath@@SAMM@Z				; WWMath::Sqrt
PUBLIC	?Inv_Sqrt@WWMath@@SIMM@Z			; WWMath::Inv_Sqrt
PUBLIC	?Float_To_Long@WWMath@@SAJM@Z			; WWMath::Float_To_Long
PUBLIC	?Fast_Sin@WWMath@@SAMM@Z			; WWMath::Fast_Sin
PUBLIC	?Fast_Inv_Sin@WWMath@@SAMM@Z			; WWMath::Fast_Inv_Sin
PUBLIC	?Fast_Cos@WWMath@@SAMM@Z			; WWMath::Fast_Cos
PUBLIC	?Fast_Inv_Cos@WWMath@@SAMM@Z			; WWMath::Fast_Inv_Cos
PUBLIC	?Fast_Acos@WWMath@@SAMM@Z			; WWMath::Fast_Acos
PUBLIC	?Fast_Asin@WWMath@@SAMM@Z			; WWMath::Fast_Asin
PUBLIC	?Acos@WWMath@@SAMM@Z				; WWMath::Acos
PUBLIC	?Asin@WWMath@@SAMM@Z				; WWMath::Asin
PUBLIC	?Atan@WWMath@@SAMM@Z				; WWMath::Atan
PUBLIC	?Atan2@WWMath@@SAMMM@Z				; WWMath::Atan2
PUBLIC	?Sign@WWMath@@SAMM@Z				; WWMath::Sign
PUBLIC	?Ceil@WWMath@@SAMM@Z				; WWMath::Ceil
PUBLIC	?Floor@WWMath@@SAMM@Z				; WWMath::Floor
PUBLIC	?Fast_Is_Float_Positive@WWMath@@SA_NABM@Z	; WWMath::Fast_Is_Float_Positive
PUBLIC	?Random_Float@WWMath@@SAMMM@Z			; WWMath::Random_Float
PUBLIC	?Clamp@WWMath@@SAMMMM@Z				; WWMath::Clamp
PUBLIC	?Clamp@WWMath@@SANNNN@Z				; WWMath::Clamp
PUBLIC	?Clamp_Int@WWMath@@SAHHHH@Z			; WWMath::Clamp_Int
PUBLIC	?Wrap@WWMath@@SAMMMM@Z				; WWMath::Wrap
PUBLIC	?Wrap@WWMath@@SANNNN@Z				; WWMath::Wrap
PUBLIC	?Min@WWMath@@SAMMM@Z				; WWMath::Min
PUBLIC	?Max@WWMath@@SAMMM@Z				; WWMath::Max
PUBLIC	?Lerp@WWMath@@SAMMMM@Z				; WWMath::Lerp
PUBLIC	?Lerp@WWMath@@SANNNM@Z				; WWMath::Lerp
PUBLIC	?Lerp@WWMath@@SAHHHM@Z				; WWMath::Lerp
PUBLIC	?Float_To_Long@WWMath@@SAJN@Z			; WWMath::Float_To_Long
PUBLIC	?Unit_Float_To_Byte@WWMath@@SAEM@Z		; WWMath::Unit_Float_To_Byte
PUBLIC	?Byte_To_Unit_Float@WWMath@@SAME@Z		; WWMath::Byte_To_Unit_Float
PUBLIC	?Is_Valid_Float@WWMath@@SA_NM@Z			; WWMath::Is_Valid_Float
PUBLIC	?Is_Valid_Double@WWMath@@SA_NN@Z		; WWMath::Is_Valid_Double
PUBLIC	??4WWMath@@QAEAAV0@ABV0@@Z			; WWMath::operator=
PUBLIC	??B?$RefArrayHelper@M$0EAA@@@QAEPAMXZ		; RefArrayHelper<float,1024>::operator float *
PUBLIC	??0Vector3@@QAE@ABV0@@Z				; Vector3::Vector3
PUBLIC	??0GameObjObserverClass@@QAE@XZ			; GameObjObserverClass::GameObjObserverClass
PUBLIC	??1GameObjObserverClass@@UAE@XZ			; GameObjObserverClass::~GameObjObserverClass
PUBLIC	?Set_ID@GameObjObserverClass@@QAEXH@Z		; GameObjObserverClass::Set_ID
PUBLIC	?Get_ID@GameObjObserverClass@@QAEHXZ		; GameObjObserverClass::Get_ID
PUBLIC	?Owner@GameObjObserverClass@@UAEPAVScriptableGameObj@@XZ ; GameObjObserverClass::Owner
PUBLIC	??0GameObjObserverClass@@QAE@ABV0@@Z		; GameObjObserverClass::GameObjObserverClass
PUBLIC	??4GameObjObserverClass@@QAEAAV0@ABV0@@Z	; GameObjObserverClass::operator=
PUBLIC	??_GGameObjObserverClass@@UAEPAXI@Z		; GameObjObserverClass::`scalar deleting destructor'
PUBLIC	??_EGameObjObserverClass@@UAEPAXI@Z		; GameObjObserverClass::`vector deleting destructor'
PUBLIC	??1ScriptClass@@UAE@XZ				; ScriptClass::~ScriptClass
PUBLIC	??0ScriptClass@@QAE@XZ				; ScriptClass::ScriptClass
PUBLIC	??0ScriptClass@@QAE@ABV0@@Z			; ScriptClass::ScriptClass
PUBLIC	??4ScriptClass@@QAEAAV0@ABV0@@Z			; ScriptClass::operator=
PUBLIC	??_GScriptClass@@UAEPAXI@Z			; ScriptClass::`scalar deleting destructor'
PUBLIC	??_EScriptClass@@UAEPAXI@Z			; ScriptClass::`vector deleting destructor'
PUBLIC	?SetFactory@ScriptImpClass@@QAEXPAVScriptFactory@@@Z ; ScriptImpClass::SetFactory
PUBLIC	?Created@ScriptImpClass@@UAEXPAVScriptableGameObj@@@Z ; ScriptImpClass::Created
PUBLIC	?Destroyed@ScriptImpClass@@UAEXPAVScriptableGameObj@@@Z ; ScriptImpClass::Destroyed
PUBLIC	?Killed@ScriptImpClass@@UAEXPAVScriptableGameObj@@0@Z ; ScriptImpClass::Killed
PUBLIC	?Damaged@ScriptImpClass@@UAEXPAVScriptableGameObj@@0M@Z ; ScriptImpClass::Damaged
PUBLIC	?Custom@ScriptImpClass@@UAEXPAVScriptableGameObj@@HH0@Z ; ScriptImpClass::Custom
PUBLIC	?Sound_Heard@ScriptImpClass@@UAEXPAVScriptableGameObj@@ABUCombatSound@@@Z ; ScriptImpClass::Sound_Heard
PUBLIC	?Enemy_Seen@ScriptImpClass@@UAEXPAVScriptableGameObj@@0@Z ; ScriptImpClass::Enemy_Seen
PUBLIC	?Action_Complete@ScriptImpClass@@UAEXPAVScriptableGameObj@@HW4ActionCompleteReason@@@Z ; ScriptImpClass::Action_Complete
PUBLIC	?Timer_Expired@ScriptImpClass@@UAEXPAVScriptableGameObj@@H@Z ; ScriptImpClass::Timer_Expired
PUBLIC	?Animation_Complete@ScriptImpClass@@UAEXPAVScriptableGameObj@@PBD@Z ; ScriptImpClass::Animation_Complete
PUBLIC	?Poked@ScriptImpClass@@UAEXPAVScriptableGameObj@@0@Z ; ScriptImpClass::Poked
PUBLIC	?Entered@ScriptImpClass@@UAEXPAVScriptableGameObj@@0@Z ; ScriptImpClass::Entered
PUBLIC	?Exited@ScriptImpClass@@UAEXPAVScriptableGameObj@@0@Z ; ScriptImpClass::Exited
PUBLIC	?Owner@ScriptImpClass@@UAEPAVScriptableGameObj@@XZ ; ScriptImpClass::Owner
PUBLIC	?Get_Owner_Ptr@ScriptImpClass@@UAEPAPAVScriptableGameObj@@XZ ; ScriptImpClass::Get_Owner_Ptr
PUBLIC	?Save_Data@ScriptImpClass@@UAEXAAVScriptSaver@@@Z ; ScriptImpClass::Save_Data
PUBLIC	?Load_Data@ScriptImpClass@@UAEXAAVScriptLoader@@@Z ; ScriptImpClass::Load_Data
PUBLIC	?Register_Auto_Save_Variables@ScriptImpClass@@UAEXXZ ; ScriptImpClass::Register_Auto_Save_Variables
PUBLIC	?Get_Parameter_Count@ScriptImpClass@@QAEHXZ	; ScriptImpClass::Get_Parameter_Count
PUBLIC	?Get_Int_Parameter@ScriptImpClass@@QAEHH@Z	; ScriptImpClass::Get_Int_Parameter
PUBLIC	?Get_Float_Parameter@ScriptImpClass@@QAEMH@Z	; ScriptImpClass::Get_Float_Parameter
PUBLIC	?Get_Bool_Parameter@ScriptImpClass@@QAE_NPBD@Z	; ScriptImpClass::Get_Bool_Parameter
PUBLIC	?Get_Bool_Parameter@ScriptImpClass@@QAE_NH@Z	; ScriptImpClass::Get_Bool_Parameter
PUBLIC	??0ScriptImpClass@@QAE@ABV0@@Z			; ScriptImpClass::ScriptImpClass
PUBLIC	??4ScriptImpClass@@QAEAAV0@ABV0@@Z		; ScriptImpClass::operator=
PUBLIC	??_GScriptImpClass@@UAEPAXI@Z			; ScriptImpClass::`scalar deleting destructor'
PUBLIC	??_EScriptImpClass@@UAEPAXI@Z			; ScriptImpClass::`vector deleting destructor'
PUBLIC	??0ScriptFactory@@QAE@ABV0@@Z			; ScriptFactory::ScriptFactory
PUBLIC	??4ScriptFactory@@QAEAAV0@ABV0@@Z		; ScriptFactory::operator=
PUBLIC	??_GScriptFactory@@UAEPAXI@Z			; ScriptFactory::`scalar deleting destructor'
PUBLIC	??_EScriptFactory@@UAEPAXI@Z			; ScriptFactory::`vector deleting destructor'
PUBLIC	??4ScriptRegistrar@@QAEAAV0@ABV0@@Z		; ScriptRegistrar::operator=
PUBLIC	?Killed@TFX_Spawn_When_Killed@@EAEXPAVScriptableGameObj@@0@Z ; TFX_Spawn_When_Killed::Killed
PUBLIC	??0TFX_Spawn_When_Killed@@QAE@XZ		; TFX_Spawn_When_Killed::TFX_Spawn_When_Killed
PUBLIC	??1TFX_Spawn_When_Killed@@UAE@XZ		; TFX_Spawn_When_Killed::~TFX_Spawn_When_Killed
PUBLIC	??_GTFX_Spawn_When_Killed@@UAEPAXI@Z		; TFX_Spawn_When_Killed::`scalar deleting destructor'
PUBLIC	?Damaged@TFX_Replace_When_Repaired@@EAEXPAVScriptableGameObj@@0M@Z ; TFX_Replace_When_Repaired::Damaged
PUBLIC	??0TFX_Replace_When_Repaired@@QAE@XZ		; TFX_Replace_When_Repaired::TFX_Replace_When_Repaired
PUBLIC	??1TFX_Replace_When_Repaired@@UAE@XZ		; TFX_Replace_When_Repaired::~TFX_Replace_When_Repaired
PUBLIC	??_GTFX_Replace_When_Repaired@@UAEPAXI@Z	; TFX_Replace_When_Repaired::`scalar deleting destructor'
PUBLIC	??0?$ScriptRegistrant@VTFX_Spawn_When_Killed@@@@QAE@PBD0@Z ; ScriptRegistrant<TFX_Spawn_When_Killed>::ScriptRegistrant<TFX_Spawn_When_Killed>
PUBLIC	?Create@?$ScriptRegistrant@VTFX_Spawn_When_Killed@@@@UAEPAVScriptImpClass@@XZ ; ScriptRegistrant<TFX_Spawn_When_Killed>::Create
PUBLIC	??1?$ScriptRegistrant@VTFX_Spawn_When_Killed@@@@UAE@XZ ; ScriptRegistrant<TFX_Spawn_When_Killed>::~ScriptRegistrant<TFX_Spawn_When_Killed>
PUBLIC	??_G?$ScriptRegistrant@VTFX_Spawn_When_Killed@@@@UAEPAXI@Z ; ScriptRegistrant<TFX_Spawn_When_Killed>::`scalar deleting destructor'
PUBLIC	??0?$ScriptRegistrant@VTFX_Replace_When_Repaired@@@@QAE@PBD0@Z ; ScriptRegistrant<TFX_Replace_When_Repaired>::ScriptRegistrant<TFX_Replace_When_Repaired>
PUBLIC	?Create@?$ScriptRegistrant@VTFX_Replace_When_Repaired@@@@UAEPAVScriptImpClass@@XZ ; ScriptRegistrant<TFX_Replace_When_Repaired>::Create
PUBLIC	??1?$ScriptRegistrant@VTFX_Replace_When_Repaired@@@@UAE@XZ ; ScriptRegistrant<TFX_Replace_When_Repaired>::~ScriptRegistrant<TFX_Replace_When_Repaired>
PUBLIC	??_G?$ScriptRegistrant@VTFX_Replace_When_Repaired@@@@UAEPAXI@Z ; ScriptRegistrant<TFX_Replace_When_Repaired>::`scalar deleting destructor'
PUBLIC	??_7GameObjObserverClass@@6B@			; GameObjObserverClass::`vftable'
PUBLIC	??_7ScriptClass@@6B@				; ScriptClass::`vftable'
PUBLIC	??_7ScriptImpClass@@6B@				; ScriptImpClass::`vftable'
PUBLIC	??_7ScriptFactory@@6B@				; ScriptFactory::`vftable'
PUBLIC	??_7TFX_Spawn_When_Killed@@6B@			; TFX_Spawn_When_Killed::`vftable'
PUBLIC	??_7TFX_Replace_When_Repaired@@6B@		; TFX_Replace_When_Repaired::`vftable'
PUBLIC	??_C@_0L@DPEGPHCF@DropHeight?$AA@		; `string'
PUBLIC	??_C@_0L@FPLAAJEA@PresetName?$AA@		; `string'
PUBLIC	??_C@_0L@GKBMGALG@SameFacing?$AA@		; `string'
PUBLIC	??_C@_0O@KPGKEIEO@HealthPercent?$AA@		; `string'
PUBLIC	??_C@_0N@CMCKONJD@ArmorPercent?$AA@		; `string'
PUBLIC	??_7?$ScriptRegistrant@VTFX_Spawn_When_Killed@@@@6B@ ; ScriptRegistrant<TFX_Spawn_When_Killed>::`vftable'
PUBLIC	?TFX_Spawn_When_Killed_Registrant@@3V?$ScriptRegistrant@VTFX_Spawn_When_Killed@@@@A ; TFX_Spawn_When_Killed_Registrant
PUBLIC	??_C@_0GP@OIAILKAF@PresetName?3string?0DropHeight?$DN0?3f@ ; `string'
PUBLIC	??_C@_0BG@MACDBEPP@TFX_Spawn_When_Killed?$AA@	; `string'
PUBLIC	??_7?$ScriptRegistrant@VTFX_Replace_When_Repaired@@@@6B@ ; ScriptRegistrant<TFX_Replace_When_Repaired>::`vftable'
PUBLIC	?TFX_Replace_When_Repaired_Registrant@@3V?$ScriptRegistrant@VTFX_Replace_When_Repaired@@@@A ; TFX_Replace_When_Repaired_Registrant
PUBLIC	??_C@_0BK@HGPMHIIM@TFX_Replace_When_Repaired?$AA@ ; `string'
PUBLIC	??_C@_0DG@ECKPJHDF@ScriptRegistrant?$DMclass?5TFX_Spawn@ ; `string'
PUBLIC	??_C@_0DD@KMKBFFOF@x?3?2github?2renegade?2dragonade_rxd@ ; `string'
PUBLIC	??_C@_1GG@OGNLNBPD@?$AAx?$AA?3?$AA?2?$AAg?$AAi?$AAt?$AAh?$AAu?$AAb?$AA?2?$AAr?$AAe?$AAn?$AAe?$AAg?$AAa?$AAd?$AAe?$AA?2?$AAd?$AAr?$AAa?$AAg?$AAo?$AAn?$AAa?$AAd?$AAe?$AA_?$AAr?$AAx?$AAd@ ; `string'
PUBLIC	??_C@_1M@HLGKFCJM@?$AAf?$AAa?$AAl?$AAs?$AAe?$AA?$AA@ ; `string'
PUBLIC	??_C@_0DK@HNHHHPEE@ScriptRegistrant?$DMclass?5TFX_Repla@ ; `string'
PUBLIC	??_R4ScriptFactory@@6B@				; ScriptFactory::`RTTI Complete Object Locator'
PUBLIC	??_R0?AVScriptFactory@@@8			; ScriptFactory `RTTI Type Descriptor'
PUBLIC	??_R3ScriptFactory@@8				; ScriptFactory::`RTTI Class Hierarchy Descriptor'
PUBLIC	??_R2ScriptFactory@@8				; ScriptFactory::`RTTI Base Class Array'
PUBLIC	??_R1A@?0A@EA@ScriptFactory@@8			; ScriptFactory::`RTTI Base Class Descriptor at (0,-1,0,64)'
PUBLIC	??_R4ScriptClass@@6B@				; ScriptClass::`RTTI Complete Object Locator'
PUBLIC	??_R0?AVScriptClass@@@8				; ScriptClass `RTTI Type Descriptor'
PUBLIC	??_R3ScriptClass@@8				; ScriptClass::`RTTI Class Hierarchy Descriptor'
PUBLIC	??_R2ScriptClass@@8				; ScriptClass::`RTTI Base Class Array'
PUBLIC	??_R1A@?0A@EA@ScriptClass@@8			; ScriptClass::`RTTI Base Class Descriptor at (0,-1,0,64)'
PUBLIC	??_R1A@?0A@EA@GameObjObserverClass@@8		; GameObjObserverClass::`RTTI Base Class Descriptor at (0,-1,0,64)'
PUBLIC	??_R0?AVGameObjObserverClass@@@8		; GameObjObserverClass `RTTI Type Descriptor'
PUBLIC	??_R3GameObjObserverClass@@8			; GameObjObserverClass::`RTTI Class Hierarchy Descriptor'
PUBLIC	??_R2GameObjObserverClass@@8			; GameObjObserverClass::`RTTI Base Class Array'
PUBLIC	??_R4GameObjObserverClass@@6B@			; GameObjObserverClass::`RTTI Complete Object Locator'
PUBLIC	??_R4ScriptImpClass@@6B@			; ScriptImpClass::`RTTI Complete Object Locator'
PUBLIC	??_R0?AVScriptImpClass@@@8			; ScriptImpClass `RTTI Type Descriptor'
PUBLIC	??_R3ScriptImpClass@@8				; ScriptImpClass::`RTTI Class Hierarchy Descriptor'
PUBLIC	??_R2ScriptImpClass@@8				; ScriptImpClass::`RTTI Base Class Array'
PUBLIC	??_R1A@?0A@EA@ScriptImpClass@@8			; ScriptImpClass::`RTTI Base Class Descriptor at (0,-1,0,64)'
PUBLIC	??_R4TFX_Spawn_When_Killed@@6B@			; TFX_Spawn_When_Killed::`RTTI Complete Object Locator'
PUBLIC	??_R0?AVTFX_Spawn_When_Killed@@@8		; TFX_Spawn_When_Killed `RTTI Type Descriptor'
PUBLIC	??_R3TFX_Spawn_When_Killed@@8			; TFX_Spawn_When_Killed::`RTTI Class Hierarchy Descriptor'
PUBLIC	??_R2TFX_Spawn_When_Killed@@8			; TFX_Spawn_When_Killed::`RTTI Base Class Array'
PUBLIC	??_R1A@?0A@EA@TFX_Spawn_When_Killed@@8		; TFX_Spawn_When_Killed::`RTTI Base Class Descriptor at (0,-1,0,64)'
PUBLIC	??_R4TFX_Replace_When_Repaired@@6B@		; TFX_Replace_When_Repaired::`RTTI Complete Object Locator'
PUBLIC	??_R0?AVTFX_Replace_When_Repaired@@@8		; TFX_Replace_When_Repaired `RTTI Type Descriptor'
PUBLIC	??_R3TFX_Replace_When_Repaired@@8		; TFX_Replace_When_Repaired::`RTTI Class Hierarchy Descriptor'
PUBLIC	??_R2TFX_Replace_When_Repaired@@8		; TFX_Replace_When_Repaired::`RTTI Base Class Array'
PUBLIC	??_R1A@?0A@EA@TFX_Replace_When_Repaired@@8	; TFX_Replace_When_Repaired::`RTTI Base Class Descriptor at (0,-1,0,64)'
PUBLIC	??_R4?$ScriptRegistrant@VTFX_Spawn_When_Killed@@@@6B@ ; ScriptRegistrant<TFX_Spawn_When_Killed>::`RTTI Complete Object Locator'
PUBLIC	??_R0?AV?$ScriptRegistrant@VTFX_Spawn_When_Killed@@@@@8 ; ScriptRegistrant<TFX_Spawn_When_Killed> `RTTI Type Descriptor'
PUBLIC	??_R3?$ScriptRegistrant@VTFX_Spawn_When_Killed@@@@8 ; ScriptRegistrant<TFX_Spawn_When_Killed>::`RTTI Class Hierarchy Descriptor'
PUBLIC	??_R2?$ScriptRegistrant@VTFX_Spawn_When_Killed@@@@8 ; ScriptRegistrant<TFX_Spawn_When_Killed>::`RTTI Base Class Array'
PUBLIC	??_R1A@?0A@EA@?$ScriptRegistrant@VTFX_Spawn_When_Killed@@@@8 ; ScriptRegistrant<TFX_Spawn_When_Killed>::`RTTI Base Class Descriptor at (0,-1,0,64)'
PUBLIC	??_R4?$ScriptRegistrant@VTFX_Replace_When_Repaired@@@@6B@ ; ScriptRegistrant<TFX_Replace_When_Repaired>::`RTTI Complete Object Locator'
PUBLIC	??_R0?AV?$ScriptRegistrant@VTFX_Replace_When_Repaired@@@@@8 ; ScriptRegistrant<TFX_Replace_When_Repaired> `RTTI Type Descriptor'
PUBLIC	??_R3?$ScriptRegistrant@VTFX_Replace_When_Repaired@@@@8 ; ScriptRegistrant<TFX_Replace_When_Repaired>::`RTTI Class Hierarchy Descriptor'
PUBLIC	??_R2?$ScriptRegistrant@VTFX_Replace_When_Repaired@@@@8 ; ScriptRegistrant<TFX_Replace_When_Repaired>::`RTTI Base Class Array'
PUBLIC	??_R1A@?0A@EA@?$ScriptRegistrant@VTFX_Replace_When_Repaired@@@@8 ; ScriptRegistrant<TFX_Replace_When_Repaired>::`RTTI Base Class Descriptor at (0,-1,0,64)'
PUBLIC	__real@00000000
PUBLIC	__real@3f79999a
PUBLIC	__real@3f800000
PUBLIC	__real@3fc90fdb
PUBLIC	__real@40c90fdb
PUBLIC	__real@42c80000
PUBLIC	__real@437f0000
PUBLIC	__real@44000000
PUBLIC	__real@44800000
PUBLIC	__real@bf800000
EXTRN	__purecall:PROC
EXTRN	??2@YAPAXI@Z:PROC				; operator new
EXTRN	??3@YAXPAX@Z:PROC				; operator delete
EXTRN	_atexit:PROC
EXTRN	__imp___wassert:PROC
EXTRN	__imp__atof:PROC
EXTRN	__imp__ceil:PROC
EXTRN	__imp__atoi:PROC
EXTRN	??_V@YAXPAX@Z:PROC				; operator delete[]
EXTRN	?SetThreadTrackingInformation@@YAXPBDI0@Z:PROC	; SetThreadTrackingInformation
EXTRN	?Random_Float@WWMath@@SAMXZ:PROC		; WWMath::Random_Float
EXTRN	??0ScriptImpClass@@QAE@XZ:PROC			; ScriptImpClass::ScriptImpClass
EXTRN	??1ScriptImpClass@@UAE@XZ:PROC			; ScriptImpClass::~ScriptImpClass
EXTRN	?Get_Name@ScriptImpClass@@UAEPBDXZ:PROC		; ScriptImpClass::Get_Name
EXTRN	?Set_Parameters_String@ScriptImpClass@@UAEXPBD@Z:PROC ; ScriptImpClass::Set_Parameters_String
EXTRN	?Get_Parameters_String@ScriptImpClass@@UAEXPADI@Z:PROC ; ScriptImpClass::Get_Parameters_String
EXTRN	?Get_Parameter@ScriptImpClass@@QAEPBDPBD@Z:PROC	; ScriptImpClass::Get_Parameter
EXTRN	?Get_Parameter@ScriptImpClass@@QAEPBDH@Z:PROC	; ScriptImpClass::Get_Parameter
EXTRN	?Get_Int_Parameter@ScriptImpClass@@QAEHPBD@Z:PROC ; ScriptImpClass::Get_Int_Parameter
EXTRN	?Get_Float_Parameter@ScriptImpClass@@QAEMPBD@Z:PROC ; ScriptImpClass::Get_Float_Parameter
EXTRN	?Attach@ScriptImpClass@@MAEXPAVScriptableGameObj@@@Z:PROC ; ScriptImpClass::Attach
EXTRN	?Detach@ScriptImpClass@@MAEXPAVScriptableGameObj@@@Z:PROC ; ScriptImpClass::Detach
EXTRN	?Save@ScriptImpClass@@MAEXAAVScriptSaver@@@Z:PROC ; ScriptImpClass::Save
EXTRN	?Load@ScriptImpClass@@MAEXAAVScriptLoader@@@Z:PROC ; ScriptImpClass::Load
EXTRN	??1ScriptFactory@@UAE@XZ:PROC			; ScriptFactory::~ScriptFactory
EXTRN	??0ScriptFactory@@IAE@PBD0@Z:PROC		; ScriptFactory::ScriptFactory
EXTRN	??_ETFX_Spawn_When_Killed@@UAEPAXI@Z:PROC	; TFX_Spawn_When_Killed::`vector deleting destructor'
EXTRN	??_ETFX_Replace_When_Repaired@@UAEPAXI@Z:PROC	; TFX_Replace_When_Repaired::`vector deleting destructor'
EXTRN	??_E?$ScriptRegistrant@VTFX_Spawn_When_Killed@@@@UAEPAXI@Z:PROC ; ScriptRegistrant<TFX_Spawn_When_Killed>::`vector deleting destructor'
EXTRN	??_E?$ScriptRegistrant@VTFX_Replace_When_Repaired@@@@UAEPAXI@Z:PROC ; ScriptRegistrant<TFX_Replace_When_Repaired>::`vector deleting destructor'
EXTRN	__CIatan2:PROC
EXTRN	__libm_sse2_acos_precise:PROC
EXTRN	__libm_sse2_asin_precise:PROC
EXTRN	__libm_sse2_atan_precise:PROC
EXTRN	__libm_sse2_cos_precise:PROC
EXTRN	__libm_sse2_sin_precise:PROC
EXTRN	__libm_sse2_sqrt_precise:PROC
EXTRN	_floor:PROC
EXTRN	??_7type_info@@6B@:QWORD			; type_info::`vftable'
EXTRN	?_FastAcosTable@@3AAV?$RefArrayHelper@M$0EAA@@@A:DWORD ; _FastAcosTable
EXTRN	?_FastAsinTable@@3AAV?$RefArrayHelper@M$0EAA@@@A:DWORD ; _FastAsinTable
EXTRN	?_FastSinTable@@3AAV?$RefArrayHelper@M$0EAA@@@A:DWORD ; _FastSinTable
EXTRN	?Commands@@3PAUScriptCommands@@A:DWORD		; Commands
EXTRN	__fltused:DWORD
_BSS	SEGMENT
?TFX_Spawn_When_Killed_Registrant@@3V?$ScriptRegistrant@VTFX_Spawn_When_Killed@@@@A DB 010H DUP (?) ; TFX_Spawn_When_Killed_Registrant
?TFX_Replace_When_Repaired_Registrant@@3V?$ScriptRegistrant@VTFX_Replace_When_Repaired@@@@A DB 010H DUP (?) ; TFX_Replace_When_Repaired_Registrant
_BSS	ENDS
CRT$XCU	SEGMENT
_TFX_Spawn_When_Killed_Registrant$initializer$ DD FLAT:??__ETFX_Spawn_When_Killed_Registrant@@YAXXZ
CRT$XCU	ENDS
;	COMDAT __real@bf800000
CONST	SEGMENT
__real@bf800000 DD 0bf800000r			; -1
CONST	ENDS
;	COMDAT __real@44800000
CONST	SEGMENT
__real@44800000 DD 044800000r			; 1024
CONST	ENDS
;	COMDAT __real@44000000
CONST	SEGMENT
__real@44000000 DD 044000000r			; 512
CONST	ENDS
;	COMDAT __real@437f0000
CONST	SEGMENT
__real@437f0000 DD 0437f0000r			; 255
CONST	ENDS
;	COMDAT __real@42c80000
CONST	SEGMENT
__real@42c80000 DD 042c80000r			; 100
CONST	ENDS
;	COMDAT __real@40c90fdb
CONST	SEGMENT
__real@40c90fdb DD 040c90fdbr			; 6.28319
CONST	ENDS
;	COMDAT __real@3fc90fdb
CONST	SEGMENT
__real@3fc90fdb DD 03fc90fdbr			; 1.5708
CONST	ENDS
;	COMDAT __real@3f800000
CONST	SEGMENT
__real@3f800000 DD 03f800000r			; 1
CONST	ENDS
;	COMDAT __real@3f79999a
CONST	SEGMENT
__real@3f79999a DD 03f79999ar			; 0.975
CONST	ENDS
;	COMDAT __real@00000000
CONST	SEGMENT
__real@00000000 DD 000000000r			; 0
CONST	ENDS
;	COMDAT ??_R1A@?0A@EA@?$ScriptRegistrant@VTFX_Replace_When_Repaired@@@@8
rdata$r	SEGMENT
??_R1A@?0A@EA@?$ScriptRegistrant@VTFX_Replace_When_Repaired@@@@8 DD FLAT:??_R0?AV?$ScriptRegistrant@VTFX_Replace_When_Repaired@@@@@8 ; ScriptRegistrant<TFX_Replace_When_Repaired>::`RTTI Base Class Descriptor at (0,-1,0,64)'
	DD	01H
	DD	00H
	DD	0ffffffffH
	DD	00H
	DD	040H
	DD	FLAT:??_R3?$ScriptRegistrant@VTFX_Replace_When_Repaired@@@@8
rdata$r	ENDS
;	COMDAT ??_R2?$ScriptRegistrant@VTFX_Replace_When_Repaired@@@@8
rdata$r	SEGMENT
??_R2?$ScriptRegistrant@VTFX_Replace_When_Repaired@@@@8 DD FLAT:??_R1A@?0A@EA@?$ScriptRegistrant@VTFX_Replace_When_Repaired@@@@8 ; ScriptRegistrant<TFX_Replace_When_Repaired>::`RTTI Base Class Array'
	DD	FLAT:??_R1A@?0A@EA@ScriptFactory@@8
rdata$r	ENDS
;	COMDAT ??_R3?$ScriptRegistrant@VTFX_Replace_When_Repaired@@@@8
rdata$r	SEGMENT
??_R3?$ScriptRegistrant@VTFX_Replace_When_Repaired@@@@8 DD 00H ; ScriptRegistrant<TFX_Replace_When_Repaired>::`RTTI Class Hierarchy Descriptor'
	DD	00H
	DD	02H
	DD	FLAT:??_R2?$ScriptRegistrant@VTFX_Replace_When_Repaired@@@@8
rdata$r	ENDS
;	COMDAT ??_R0?AV?$ScriptRegistrant@VTFX_Replace_When_Repaired@@@@@8
_DATA	SEGMENT
??_R0?AV?$ScriptRegistrant@VTFX_Replace_When_Repaired@@@@@8 DD FLAT:??_7type_info@@6B@ ; ScriptRegistrant<TFX_Replace_When_Repaired> `RTTI Type Descriptor'
	DD	00H
	DB	'.?AV?$ScriptRegistrant@VTFX_Replace_When_Repaired@@@@', 00H
_DATA	ENDS
;	COMDAT ??_R4?$ScriptRegistrant@VTFX_Replace_When_Repaired@@@@6B@
rdata$r	SEGMENT
??_R4?$ScriptRegistrant@VTFX_Replace_When_Repaired@@@@6B@ DD 00H ; ScriptRegistrant<TFX_Replace_When_Repaired>::`RTTI Complete Object Locator'
	DD	00H
	DD	00H
	DD	FLAT:??_R0?AV?$ScriptRegistrant@VTFX_Replace_When_Repaired@@@@@8
	DD	FLAT:??_R3?$ScriptRegistrant@VTFX_Replace_When_Repaired@@@@8
rdata$r	ENDS
;	COMDAT ??_R1A@?0A@EA@?$ScriptRegistrant@VTFX_Spawn_When_Killed@@@@8
rdata$r	SEGMENT
??_R1A@?0A@EA@?$ScriptRegistrant@VTFX_Spawn_When_Killed@@@@8 DD FLAT:??_R0?AV?$ScriptRegistrant@VTFX_Spawn_When_Killed@@@@@8 ; ScriptRegistrant<TFX_Spawn_When_Killed>::`RTTI Base Class Descriptor at (0,-1,0,64)'
	DD	01H
	DD	00H
	DD	0ffffffffH
	DD	00H
	DD	040H
	DD	FLAT:??_R3?$ScriptRegistrant@VTFX_Spawn_When_Killed@@@@8
rdata$r	ENDS
;	COMDAT ??_R2?$ScriptRegistrant@VTFX_Spawn_When_Killed@@@@8
rdata$r	SEGMENT
??_R2?$ScriptRegistrant@VTFX_Spawn_When_Killed@@@@8 DD FLAT:??_R1A@?0A@EA@?$ScriptRegistrant@VTFX_Spawn_When_Killed@@@@8 ; ScriptRegistrant<TFX_Spawn_When_Killed>::`RTTI Base Class Array'
	DD	FLAT:??_R1A@?0A@EA@ScriptFactory@@8
rdata$r	ENDS
;	COMDAT ??_R3?$ScriptRegistrant@VTFX_Spawn_When_Killed@@@@8
rdata$r	SEGMENT
??_R3?$ScriptRegistrant@VTFX_Spawn_When_Killed@@@@8 DD 00H ; ScriptRegistrant<TFX_Spawn_When_Killed>::`RTTI Class Hierarchy Descriptor'
	DD	00H
	DD	02H
	DD	FLAT:??_R2?$ScriptRegistrant@VTFX_Spawn_When_Killed@@@@8
rdata$r	ENDS
;	COMDAT ??_R0?AV?$ScriptRegistrant@VTFX_Spawn_When_Killed@@@@@8
_DATA	SEGMENT
??_R0?AV?$ScriptRegistrant@VTFX_Spawn_When_Killed@@@@@8 DD FLAT:??_7type_info@@6B@ ; ScriptRegistrant<TFX_Spawn_When_Killed> `RTTI Type Descriptor'
	DD	00H
	DB	'.?AV?$ScriptRegistrant@VTFX_Spawn_When_Killed@@@@', 00H
_DATA	ENDS
;	COMDAT ??_R4?$ScriptRegistrant@VTFX_Spawn_When_Killed@@@@6B@
rdata$r	SEGMENT
??_R4?$ScriptRegistrant@VTFX_Spawn_When_Killed@@@@6B@ DD 00H ; ScriptRegistrant<TFX_Spawn_When_Killed>::`RTTI Complete Object Locator'
	DD	00H
	DD	00H
	DD	FLAT:??_R0?AV?$ScriptRegistrant@VTFX_Spawn_When_Killed@@@@@8
	DD	FLAT:??_R3?$ScriptRegistrant@VTFX_Spawn_When_Killed@@@@8
rdata$r	ENDS
;	COMDAT ??_R1A@?0A@EA@TFX_Replace_When_Repaired@@8
rdata$r	SEGMENT
??_R1A@?0A@EA@TFX_Replace_When_Repaired@@8 DD FLAT:??_R0?AVTFX_Replace_When_Repaired@@@8 ; TFX_Replace_When_Repaired::`RTTI Base Class Descriptor at (0,-1,0,64)'
	DD	03H
	DD	00H
	DD	0ffffffffH
	DD	00H
	DD	040H
	DD	FLAT:??_R3TFX_Replace_When_Repaired@@8
rdata$r	ENDS
;	COMDAT ??_R2TFX_Replace_When_Repaired@@8
rdata$r	SEGMENT
??_R2TFX_Replace_When_Repaired@@8 DD FLAT:??_R1A@?0A@EA@TFX_Replace_When_Repaired@@8 ; TFX_Replace_When_Repaired::`RTTI Base Class Array'
	DD	FLAT:??_R1A@?0A@EA@ScriptImpClass@@8
	DD	FLAT:??_R1A@?0A@EA@ScriptClass@@8
	DD	FLAT:??_R1A@?0A@EA@GameObjObserverClass@@8
rdata$r	ENDS
;	COMDAT ??_R3TFX_Replace_When_Repaired@@8
rdata$r	SEGMENT
??_R3TFX_Replace_When_Repaired@@8 DD 00H		; TFX_Replace_When_Repaired::`RTTI Class Hierarchy Descriptor'
	DD	00H
	DD	04H
	DD	FLAT:??_R2TFX_Replace_When_Repaired@@8
rdata$r	ENDS
;	COMDAT ??_R0?AVTFX_Replace_When_Repaired@@@8
_DATA	SEGMENT
??_R0?AVTFX_Replace_When_Repaired@@@8 DD FLAT:??_7type_info@@6B@ ; TFX_Replace_When_Repaired `RTTI Type Descriptor'
	DD	00H
	DB	'.?AVTFX_Replace_When_Repaired@@', 00H
_DATA	ENDS
;	COMDAT ??_R4TFX_Replace_When_Repaired@@6B@
rdata$r	SEGMENT
??_R4TFX_Replace_When_Repaired@@6B@ DD 00H		; TFX_Replace_When_Repaired::`RTTI Complete Object Locator'
	DD	00H
	DD	00H
	DD	FLAT:??_R0?AVTFX_Replace_When_Repaired@@@8
	DD	FLAT:??_R3TFX_Replace_When_Repaired@@8
rdata$r	ENDS
;	COMDAT ??_R1A@?0A@EA@TFX_Spawn_When_Killed@@8
rdata$r	SEGMENT
??_R1A@?0A@EA@TFX_Spawn_When_Killed@@8 DD FLAT:??_R0?AVTFX_Spawn_When_Killed@@@8 ; TFX_Spawn_When_Killed::`RTTI Base Class Descriptor at (0,-1,0,64)'
	DD	03H
	DD	00H
	DD	0ffffffffH
	DD	00H
	DD	040H
	DD	FLAT:??_R3TFX_Spawn_When_Killed@@8
rdata$r	ENDS
;	COMDAT ??_R2TFX_Spawn_When_Killed@@8
rdata$r	SEGMENT
??_R2TFX_Spawn_When_Killed@@8 DD FLAT:??_R1A@?0A@EA@TFX_Spawn_When_Killed@@8 ; TFX_Spawn_When_Killed::`RTTI Base Class Array'
	DD	FLAT:??_R1A@?0A@EA@ScriptImpClass@@8
	DD	FLAT:??_R1A@?0A@EA@ScriptClass@@8
	DD	FLAT:??_R1A@?0A@EA@GameObjObserverClass@@8
rdata$r	ENDS
;	COMDAT ??_R3TFX_Spawn_When_Killed@@8
rdata$r	SEGMENT
??_R3TFX_Spawn_When_Killed@@8 DD 00H			; TFX_Spawn_When_Killed::`RTTI Class Hierarchy Descriptor'
	DD	00H
	DD	04H
	DD	FLAT:??_R2TFX_Spawn_When_Killed@@8
rdata$r	ENDS
;	COMDAT ??_R0?AVTFX_Spawn_When_Killed@@@8
_DATA	SEGMENT
??_R0?AVTFX_Spawn_When_Killed@@@8 DD FLAT:??_7type_info@@6B@ ; TFX_Spawn_When_Killed `RTTI Type Descriptor'
	DD	00H
	DB	'.?AVTFX_Spawn_When_Killed@@', 00H
_DATA	ENDS
;	COMDAT ??_R4TFX_Spawn_When_Killed@@6B@
rdata$r	SEGMENT
??_R4TFX_Spawn_When_Killed@@6B@ DD 00H			; TFX_Spawn_When_Killed::`RTTI Complete Object Locator'
	DD	00H
	DD	00H
	DD	FLAT:??_R0?AVTFX_Spawn_When_Killed@@@8
	DD	FLAT:??_R3TFX_Spawn_When_Killed@@8
rdata$r	ENDS
;	COMDAT ??_R1A@?0A@EA@ScriptImpClass@@8
rdata$r	SEGMENT
??_R1A@?0A@EA@ScriptImpClass@@8 DD FLAT:??_R0?AVScriptImpClass@@@8 ; ScriptImpClass::`RTTI Base Class Descriptor at (0,-1,0,64)'
	DD	02H
	DD	00H
	DD	0ffffffffH
	DD	00H
	DD	040H
	DD	FLAT:??_R3ScriptImpClass@@8
rdata$r	ENDS
;	COMDAT ??_R2ScriptImpClass@@8
rdata$r	SEGMENT
??_R2ScriptImpClass@@8 DD FLAT:??_R1A@?0A@EA@ScriptImpClass@@8 ; ScriptImpClass::`RTTI Base Class Array'
	DD	FLAT:??_R1A@?0A@EA@ScriptClass@@8
	DD	FLAT:??_R1A@?0A@EA@GameObjObserverClass@@8
rdata$r	ENDS
;	COMDAT ??_R3ScriptImpClass@@8
rdata$r	SEGMENT
??_R3ScriptImpClass@@8 DD 00H				; ScriptImpClass::`RTTI Class Hierarchy Descriptor'
	DD	00H
	DD	03H
	DD	FLAT:??_R2ScriptImpClass@@8
rdata$r	ENDS
;	COMDAT ??_R0?AVScriptImpClass@@@8
_DATA	SEGMENT
??_R0?AVScriptImpClass@@@8 DD FLAT:??_7type_info@@6B@	; ScriptImpClass `RTTI Type Descriptor'
	DD	00H
	DB	'.?AVScriptImpClass@@', 00H
_DATA	ENDS
;	COMDAT ??_R4ScriptImpClass@@6B@
rdata$r	SEGMENT
??_R4ScriptImpClass@@6B@ DD 00H				; ScriptImpClass::`RTTI Complete Object Locator'
	DD	00H
	DD	00H
	DD	FLAT:??_R0?AVScriptImpClass@@@8
	DD	FLAT:??_R3ScriptImpClass@@8
rdata$r	ENDS
;	COMDAT ??_R4GameObjObserverClass@@6B@
rdata$r	SEGMENT
??_R4GameObjObserverClass@@6B@ DD 00H			; GameObjObserverClass::`RTTI Complete Object Locator'
	DD	00H
	DD	00H
	DD	FLAT:??_R0?AVGameObjObserverClass@@@8
	DD	FLAT:??_R3GameObjObserverClass@@8
rdata$r	ENDS
;	COMDAT ??_R2GameObjObserverClass@@8
rdata$r	SEGMENT
??_R2GameObjObserverClass@@8 DD FLAT:??_R1A@?0A@EA@GameObjObserverClass@@8 ; GameObjObserverClass::`RTTI Base Class Array'
rdata$r	ENDS
;	COMDAT ??_R3GameObjObserverClass@@8
rdata$r	SEGMENT
??_R3GameObjObserverClass@@8 DD 00H			; GameObjObserverClass::`RTTI Class Hierarchy Descriptor'
	DD	00H
	DD	01H
	DD	FLAT:??_R2GameObjObserverClass@@8
rdata$r	ENDS
;	COMDAT ??_R0?AVGameObjObserverClass@@@8
_DATA	SEGMENT
??_R0?AVGameObjObserverClass@@@8 DD FLAT:??_7type_info@@6B@ ; GameObjObserverClass `RTTI Type Descriptor'
	DD	00H
	DB	'.?AVGameObjObserverClass@@', 00H
_DATA	ENDS
;	COMDAT ??_R1A@?0A@EA@GameObjObserverClass@@8
rdata$r	SEGMENT
??_R1A@?0A@EA@GameObjObserverClass@@8 DD FLAT:??_R0?AVGameObjObserverClass@@@8 ; GameObjObserverClass::`RTTI Base Class Descriptor at (0,-1,0,64)'
	DD	00H
	DD	00H
	DD	0ffffffffH
	DD	00H
	DD	040H
	DD	FLAT:??_R3GameObjObserverClass@@8
rdata$r	ENDS
;	COMDAT ??_R1A@?0A@EA@ScriptClass@@8
rdata$r	SEGMENT
??_R1A@?0A@EA@ScriptClass@@8 DD FLAT:??_R0?AVScriptClass@@@8 ; ScriptClass::`RTTI Base Class Descriptor at (0,-1,0,64)'
	DD	01H
	DD	00H
	DD	0ffffffffH
	DD	00H
	DD	040H
	DD	FLAT:??_R3ScriptClass@@8
rdata$r	ENDS
;	COMDAT ??_R2ScriptClass@@8
rdata$r	SEGMENT
??_R2ScriptClass@@8 DD FLAT:??_R1A@?0A@EA@ScriptClass@@8 ; ScriptClass::`RTTI Base Class Array'
	DD	FLAT:??_R1A@?0A@EA@GameObjObserverClass@@8
rdata$r	ENDS
;	COMDAT ??_R3ScriptClass@@8
rdata$r	SEGMENT
??_R3ScriptClass@@8 DD 00H				; ScriptClass::`RTTI Class Hierarchy Descriptor'
	DD	00H
	DD	02H
	DD	FLAT:??_R2ScriptClass@@8
rdata$r	ENDS
;	COMDAT ??_R0?AVScriptClass@@@8
_DATA	SEGMENT
??_R0?AVScriptClass@@@8 DD FLAT:??_7type_info@@6B@	; ScriptClass `RTTI Type Descriptor'
	DD	00H
	DB	'.?AVScriptClass@@', 00H
_DATA	ENDS
;	COMDAT ??_R4ScriptClass@@6B@
rdata$r	SEGMENT
??_R4ScriptClass@@6B@ DD 00H				; ScriptClass::`RTTI Complete Object Locator'
	DD	00H
	DD	00H
	DD	FLAT:??_R0?AVScriptClass@@@8
	DD	FLAT:??_R3ScriptClass@@8
rdata$r	ENDS
;	COMDAT ??_R1A@?0A@EA@ScriptFactory@@8
rdata$r	SEGMENT
??_R1A@?0A@EA@ScriptFactory@@8 DD FLAT:??_R0?AVScriptFactory@@@8 ; ScriptFactory::`RTTI Base Class Descriptor at (0,-1,0,64)'
	DD	00H
	DD	00H
	DD	0ffffffffH
	DD	00H
	DD	040H
	DD	FLAT:??_R3ScriptFactory@@8
rdata$r	ENDS
;	COMDAT ??_R2ScriptFactory@@8
rdata$r	SEGMENT
??_R2ScriptFactory@@8 DD FLAT:??_R1A@?0A@EA@ScriptFactory@@8 ; ScriptFactory::`RTTI Base Class Array'
rdata$r	ENDS
;	COMDAT ??_R3ScriptFactory@@8
rdata$r	SEGMENT
??_R3ScriptFactory@@8 DD 00H				; ScriptFactory::`RTTI Class Hierarchy Descriptor'
	DD	00H
	DD	01H
	DD	FLAT:??_R2ScriptFactory@@8
rdata$r	ENDS
;	COMDAT ??_R0?AVScriptFactory@@@8
_DATA	SEGMENT
??_R0?AVScriptFactory@@@8 DD FLAT:??_7type_info@@6B@	; ScriptFactory `RTTI Type Descriptor'
	DD	00H
	DB	'.?AVScriptFactory@@', 00H
_DATA	ENDS
;	COMDAT ??_R4ScriptFactory@@6B@
rdata$r	SEGMENT
??_R4ScriptFactory@@6B@ DD 00H				; ScriptFactory::`RTTI Complete Object Locator'
	DD	00H
	DD	00H
	DD	FLAT:??_R0?AVScriptFactory@@@8
	DD	FLAT:??_R3ScriptFactory@@8
rdata$r	ENDS
;	COMDAT ??_C@_0DK@HNHHHPEE@ScriptRegistrant?$DMclass?5TFX_Repla@
CONST	SEGMENT
??_C@_0DK@HNHHHPEE@ScriptRegistrant?$DMclass?5TFX_Repla@ DB 'ScriptRegist'
	DB	'rant<class TFX_Replace_When_Repaired>::Create', 00H ; `string'
CONST	ENDS
;	COMDAT ??_C@_1M@HLGKFCJM@?$AAf?$AAa?$AAl?$AAs?$AAe?$AA?$AA@
CONST	SEGMENT
??_C@_1M@HLGKFCJM@?$AAf?$AAa?$AAl?$AAs?$AAe?$AA?$AA@ DB 'f', 00H, 'a', 00H
	DB	'l', 00H, 's', 00H, 'e', 00H, 00H, 00H	; `string'
CONST	ENDS
;	COMDAT ??_C@_1GG@OGNLNBPD@?$AAx?$AA?3?$AA?2?$AAg?$AAi?$AAt?$AAh?$AAu?$AAb?$AA?2?$AAr?$AAe?$AAn?$AAe?$AAg?$AAa?$AAd?$AAe?$AA?2?$AAd?$AAr?$AAa?$AAg?$AAo?$AAn?$AAa?$AAd?$AAe?$AA_?$AAr?$AAx?$AAd@
CONST	SEGMENT
??_C@_1GG@OGNLNBPD@?$AAx?$AA?3?$AA?2?$AAg?$AAi?$AAt?$AAh?$AAu?$AAb?$AA?2?$AAr?$AAe?$AAn?$AAe?$AAg?$AAa?$AAd?$AAe?$AA?2?$AAd?$AAr?$AAa?$AAg?$AAo?$AAn?$AAa?$AAd?$AAe?$AA_?$AAr?$AAx?$AAd@ DB 'x'
	DB	00H, ':', 00H, '\', 00H, 'g', 00H, 'i', 00H, 't', 00H, 'h', 00H
	DB	'u', 00H, 'b', 00H, '\', 00H, 'r', 00H, 'e', 00H, 'n', 00H, 'e'
	DB	00H, 'g', 00H, 'a', 00H, 'd', 00H, 'e', 00H, '\', 00H, 'd', 00H
	DB	'r', 00H, 'a', 00H, 'g', 00H, 'o', 00H, 'n', 00H, 'a', 00H, 'd'
	DB	00H, 'e', 00H, '_', 00H, 'r', 00H, 'x', 00H, 'd', 00H, '\', 00H
	DB	's', 00H, 'c', 00H, 'r', 00H, 'i', 00H, 'p', 00H, 't', 00H, 's'
	DB	00H, '\', 00H, 's', 00H, 'c', 00H, 'r', 00H, 'i', 00H, 'p', 00H
	DB	't', 00H, 's', 00H, '.', 00H, 'h', 00H, 00H, 00H ; `string'
CONST	ENDS
;	COMDAT ??_C@_0DD@KMKBFFOF@x?3?2github?2renegade?2dragonade_rxd@
CONST	SEGMENT
??_C@_0DD@KMKBFFOF@x?3?2github?2renegade?2dragonade_rxd@ DB 'x:\github\re'
	DB	'negade\dragonade_rxd\scripts\scripts.h', 00H ; `string'
CONST	ENDS
;	COMDAT ??_C@_0DG@ECKPJHDF@ScriptRegistrant?$DMclass?5TFX_Spawn@
CONST	SEGMENT
??_C@_0DG@ECKPJHDF@ScriptRegistrant?$DMclass?5TFX_Spawn@ DB 'ScriptRegist'
	DB	'rant<class TFX_Spawn_When_Killed>::Create', 00H ; `string'
CONST	ENDS
;	COMDAT ??_C@_0BK@HGPMHIIM@TFX_Replace_When_Repaired?$AA@
CONST	SEGMENT
??_C@_0BK@HGPMHIIM@TFX_Replace_When_Repaired?$AA@ DB 'TFX_Replace_When_Re'
	DB	'paired', 00H				; `string'
CONST	ENDS
;	COMDAT ??_7?$ScriptRegistrant@VTFX_Replace_When_Repaired@@@@6B@
CONST	SEGMENT
??_7?$ScriptRegistrant@VTFX_Replace_When_Repaired@@@@6B@ DD FLAT:??_R4?$ScriptRegistrant@VTFX_Replace_When_Repaired@@@@6B@ ; ScriptRegistrant<TFX_Replace_When_Repaired>::`vftable'
	DD	FLAT:??_E?$ScriptRegistrant@VTFX_Replace_When_Repaired@@@@UAEPAXI@Z
	DD	FLAT:?Create@?$ScriptRegistrant@VTFX_Replace_When_Repaired@@@@UAEPAVScriptImpClass@@XZ
CONST	ENDS
;	COMDAT ??_C@_0BG@MACDBEPP@TFX_Spawn_When_Killed?$AA@
CONST	SEGMENT
??_C@_0BG@MACDBEPP@TFX_Spawn_When_Killed?$AA@ DB 'TFX_Spawn_When_Killed', 00H ; `string'
CONST	ENDS
;	COMDAT ??_C@_0GP@OIAILKAF@PresetName?3string?0DropHeight?$DN0?3f@
CONST	SEGMENT
??_C@_0GP@OIAILKAF@PresetName?3string?0DropHeight?$DN0?3f@ DB 'PresetName'
	DB	':string,DropHeight=0:float,SameFacing=1:int,HealthPercent=100'
	DB	'.0000:float,ArmorPercent=100.0000:float', 00H ; `string'
CONST	ENDS
;	COMDAT ??_7?$ScriptRegistrant@VTFX_Spawn_When_Killed@@@@6B@
CONST	SEGMENT
??_7?$ScriptRegistrant@VTFX_Spawn_When_Killed@@@@6B@ DD FLAT:??_R4?$ScriptRegistrant@VTFX_Spawn_When_Killed@@@@6B@ ; ScriptRegistrant<TFX_Spawn_When_Killed>::`vftable'
	DD	FLAT:??_E?$ScriptRegistrant@VTFX_Spawn_When_Killed@@@@UAEPAXI@Z
	DD	FLAT:?Create@?$ScriptRegistrant@VTFX_Spawn_When_Killed@@@@UAEPAVScriptImpClass@@XZ
CONST	ENDS
;	COMDAT ??_C@_0N@CMCKONJD@ArmorPercent?$AA@
CONST	SEGMENT
??_C@_0N@CMCKONJD@ArmorPercent?$AA@ DB 'ArmorPercent', 00H ; `string'
CONST	ENDS
;	COMDAT ??_C@_0O@KPGKEIEO@HealthPercent?$AA@
CONST	SEGMENT
??_C@_0O@KPGKEIEO@HealthPercent?$AA@ DB 'HealthPercent', 00H ; `string'
CONST	ENDS
;	COMDAT ??_C@_0L@GKBMGALG@SameFacing?$AA@
CONST	SEGMENT
??_C@_0L@GKBMGALG@SameFacing?$AA@ DB 'SameFacing', 00H	; `string'
CONST	ENDS
;	COMDAT ??_C@_0L@FPLAAJEA@PresetName?$AA@
CONST	SEGMENT
??_C@_0L@FPLAAJEA@PresetName?$AA@ DB 'PresetName', 00H	; `string'
CONST	ENDS
;	COMDAT ??_C@_0L@DPEGPHCF@DropHeight?$AA@
CONST	SEGMENT
??_C@_0L@DPEGPHCF@DropHeight?$AA@ DB 'DropHeight', 00H	; `string'
CONST	ENDS
;	COMDAT ??_7TFX_Replace_When_Repaired@@6B@
CONST	SEGMENT
??_7TFX_Replace_When_Repaired@@6B@ DD FLAT:??_R4TFX_Replace_When_Repaired@@6B@ ; TFX_Replace_When_Repaired::`vftable'
	DD	FLAT:??_ETFX_Replace_When_Repaired@@UAEPAXI@Z
	DD	FLAT:?Get_Name@ScriptImpClass@@UAEPBDXZ
	DD	FLAT:?Attach@ScriptImpClass@@MAEXPAVScriptableGameObj@@@Z
	DD	FLAT:?Detach@ScriptImpClass@@MAEXPAVScriptableGameObj@@@Z
	DD	FLAT:?Created@ScriptImpClass@@UAEXPAVScriptableGameObj@@@Z
	DD	FLAT:?Destroyed@ScriptImpClass@@UAEXPAVScriptableGameObj@@@Z
	DD	FLAT:?Killed@ScriptImpClass@@UAEXPAVScriptableGameObj@@0@Z
	DD	FLAT:?Damaged@TFX_Replace_When_Repaired@@EAEXPAVScriptableGameObj@@0M@Z
	DD	FLAT:?Custom@ScriptImpClass@@UAEXPAVScriptableGameObj@@HH0@Z
	DD	FLAT:?Sound_Heard@ScriptImpClass@@UAEXPAVScriptableGameObj@@ABUCombatSound@@@Z
	DD	FLAT:?Enemy_Seen@ScriptImpClass@@UAEXPAVScriptableGameObj@@0@Z
	DD	FLAT:?Action_Complete@ScriptImpClass@@UAEXPAVScriptableGameObj@@HW4ActionCompleteReason@@@Z
	DD	FLAT:?Timer_Expired@ScriptImpClass@@UAEXPAVScriptableGameObj@@H@Z
	DD	FLAT:?Animation_Complete@ScriptImpClass@@UAEXPAVScriptableGameObj@@PBD@Z
	DD	FLAT:?Poked@ScriptImpClass@@UAEXPAVScriptableGameObj@@0@Z
	DD	FLAT:?Entered@ScriptImpClass@@UAEXPAVScriptableGameObj@@0@Z
	DD	FLAT:?Exited@ScriptImpClass@@UAEXPAVScriptableGameObj@@0@Z
	DD	FLAT:?Owner@ScriptImpClass@@UAEPAVScriptableGameObj@@XZ
	DD	FLAT:?Get_Owner_Ptr@ScriptImpClass@@UAEPAPAVScriptableGameObj@@XZ
	DD	FLAT:?Set_Parameters_String@ScriptImpClass@@UAEXPBD@Z
	DD	FLAT:?Get_Parameters_String@ScriptImpClass@@UAEXPADI@Z
	DD	FLAT:?Save@ScriptImpClass@@MAEXAAVScriptSaver@@@Z
	DD	FLAT:?Load@ScriptImpClass@@MAEXAAVScriptLoader@@@Z
	DD	FLAT:?Save_Data@ScriptImpClass@@UAEXAAVScriptSaver@@@Z
	DD	FLAT:?Load_Data@ScriptImpClass@@UAEXAAVScriptLoader@@@Z
	DD	FLAT:?Register_Auto_Save_Variables@ScriptImpClass@@UAEXXZ
CONST	ENDS
;	COMDAT ??_7TFX_Spawn_When_Killed@@6B@
CONST	SEGMENT
??_7TFX_Spawn_When_Killed@@6B@ DD FLAT:??_R4TFX_Spawn_When_Killed@@6B@ ; TFX_Spawn_When_Killed::`vftable'
	DD	FLAT:??_ETFX_Spawn_When_Killed@@UAEPAXI@Z
	DD	FLAT:?Get_Name@ScriptImpClass@@UAEPBDXZ
	DD	FLAT:?Attach@ScriptImpClass@@MAEXPAVScriptableGameObj@@@Z
	DD	FLAT:?Detach@ScriptImpClass@@MAEXPAVScriptableGameObj@@@Z
	DD	FLAT:?Created@ScriptImpClass@@UAEXPAVScriptableGameObj@@@Z
	DD	FLAT:?Destroyed@ScriptImpClass@@UAEXPAVScriptableGameObj@@@Z
	DD	FLAT:?Killed@TFX_Spawn_When_Killed@@EAEXPAVScriptableGameObj@@0@Z
	DD	FLAT:?Damaged@ScriptImpClass@@UAEXPAVScriptableGameObj@@0M@Z
	DD	FLAT:?Custom@ScriptImpClass@@UAEXPAVScriptableGameObj@@HH0@Z
	DD	FLAT:?Sound_Heard@ScriptImpClass@@UAEXPAVScriptableGameObj@@ABUCombatSound@@@Z
	DD	FLAT:?Enemy_Seen@ScriptImpClass@@UAEXPAVScriptableGameObj@@0@Z
	DD	FLAT:?Action_Complete@ScriptImpClass@@UAEXPAVScriptableGameObj@@HW4ActionCompleteReason@@@Z
	DD	FLAT:?Timer_Expired@ScriptImpClass@@UAEXPAVScriptableGameObj@@H@Z
	DD	FLAT:?Animation_Complete@ScriptImpClass@@UAEXPAVScriptableGameObj@@PBD@Z
	DD	FLAT:?Poked@ScriptImpClass@@UAEXPAVScriptableGameObj@@0@Z
	DD	FLAT:?Entered@ScriptImpClass@@UAEXPAVScriptableGameObj@@0@Z
	DD	FLAT:?Exited@ScriptImpClass@@UAEXPAVScriptableGameObj@@0@Z
	DD	FLAT:?Owner@ScriptImpClass@@UAEPAVScriptableGameObj@@XZ
	DD	FLAT:?Get_Owner_Ptr@ScriptImpClass@@UAEPAPAVScriptableGameObj@@XZ
	DD	FLAT:?Set_Parameters_String@ScriptImpClass@@UAEXPBD@Z
	DD	FLAT:?Get_Parameters_String@ScriptImpClass@@UAEXPADI@Z
	DD	FLAT:?Save@ScriptImpClass@@MAEXAAVScriptSaver@@@Z
	DD	FLAT:?Load@ScriptImpClass@@MAEXAAVScriptLoader@@@Z
	DD	FLAT:?Save_Data@ScriptImpClass@@UAEXAAVScriptSaver@@@Z
	DD	FLAT:?Load_Data@ScriptImpClass@@UAEXAAVScriptLoader@@@Z
	DD	FLAT:?Register_Auto_Save_Variables@ScriptImpClass@@UAEXXZ
CONST	ENDS
;	COMDAT ??_7ScriptFactory@@6B@
CONST	SEGMENT
??_7ScriptFactory@@6B@ DD FLAT:??_R4ScriptFactory@@6B@	; ScriptFactory::`vftable'
	DD	FLAT:??_EScriptFactory@@UAEPAXI@Z
	DD	FLAT:__purecall
CONST	ENDS
;	COMDAT ??_7ScriptImpClass@@6B@
CONST	SEGMENT
??_7ScriptImpClass@@6B@ DD FLAT:??_R4ScriptImpClass@@6B@ ; ScriptImpClass::`vftable'
	DD	FLAT:??_EScriptImpClass@@UAEPAXI@Z
	DD	FLAT:?Get_Name@ScriptImpClass@@UAEPBDXZ
	DD	FLAT:?Attach@ScriptImpClass@@MAEXPAVScriptableGameObj@@@Z
	DD	FLAT:?Detach@ScriptImpClass@@MAEXPAVScriptableGameObj@@@Z
	DD	FLAT:?Created@ScriptImpClass@@UAEXPAVScriptableGameObj@@@Z
	DD	FLAT:?Destroyed@ScriptImpClass@@UAEXPAVScriptableGameObj@@@Z
	DD	FLAT:?Killed@ScriptImpClass@@UAEXPAVScriptableGameObj@@0@Z
	DD	FLAT:?Damaged@ScriptImpClass@@UAEXPAVScriptableGameObj@@0M@Z
	DD	FLAT:?Custom@ScriptImpClass@@UAEXPAVScriptableGameObj@@HH0@Z
	DD	FLAT:?Sound_Heard@ScriptImpClass@@UAEXPAVScriptableGameObj@@ABUCombatSound@@@Z
	DD	FLAT:?Enemy_Seen@ScriptImpClass@@UAEXPAVScriptableGameObj@@0@Z
	DD	FLAT:?Action_Complete@ScriptImpClass@@UAEXPAVScriptableGameObj@@HW4ActionCompleteReason@@@Z
	DD	FLAT:?Timer_Expired@ScriptImpClass@@UAEXPAVScriptableGameObj@@H@Z
	DD	FLAT:?Animation_Complete@ScriptImpClass@@UAEXPAVScriptableGameObj@@PBD@Z
	DD	FLAT:?Poked@ScriptImpClass@@UAEXPAVScriptableGameObj@@0@Z
	DD	FLAT:?Entered@ScriptImpClass@@UAEXPAVScriptableGameObj@@0@Z
	DD	FLAT:?Exited@ScriptImpClass@@UAEXPAVScriptableGameObj@@0@Z
	DD	FLAT:?Owner@ScriptImpClass@@UAEPAVScriptableGameObj@@XZ
	DD	FLAT:?Get_Owner_Ptr@ScriptImpClass@@UAEPAPAVScriptableGameObj@@XZ
	DD	FLAT:?Set_Parameters_String@ScriptImpClass@@UAEXPBD@Z
	DD	FLAT:?Get_Parameters_String@ScriptImpClass@@UAEXPADI@Z
	DD	FLAT:?Save@ScriptImpClass@@MAEXAAVScriptSaver@@@Z
	DD	FLAT:?Load@ScriptImpClass@@MAEXAAVScriptLoader@@@Z
	DD	FLAT:?Save_Data@ScriptImpClass@@UAEXAAVScriptSaver@@@Z
	DD	FLAT:?Load_Data@ScriptImpClass@@UAEXAAVScriptLoader@@@Z
	DD	FLAT:?Register_Auto_Save_Variables@ScriptImpClass@@UAEXXZ
CONST	ENDS
;	COMDAT ??_7ScriptClass@@6B@
CONST	SEGMENT
??_7ScriptClass@@6B@ DD FLAT:??_R4ScriptClass@@6B@	; ScriptClass::`vftable'
	DD	FLAT:??_EScriptClass@@UAEPAXI@Z
	DD	FLAT:__purecall
	DD	FLAT:__purecall
	DD	FLAT:__purecall
	DD	FLAT:__purecall
	DD	FLAT:__purecall
	DD	FLAT:__purecall
	DD	FLAT:__purecall
	DD	FLAT:__purecall
	DD	FLAT:__purecall
	DD	FLAT:__purecall
	DD	FLAT:__purecall
	DD	FLAT:__purecall
	DD	FLAT:__purecall
	DD	FLAT:__purecall
	DD	FLAT:__purecall
	DD	FLAT:__purecall
	DD	FLAT:?Owner@GameObjObserverClass@@UAEPAVScriptableGameObj@@XZ
	DD	FLAT:__purecall
	DD	FLAT:__purecall
	DD	FLAT:__purecall
	DD	FLAT:__purecall
	DD	FLAT:__purecall
CONST	ENDS
;	COMDAT ??_7GameObjObserverClass@@6B@
CONST	SEGMENT
??_7GameObjObserverClass@@6B@ DD FLAT:??_R4GameObjObserverClass@@6B@ ; GameObjObserverClass::`vftable'
	DD	FLAT:??_EGameObjObserverClass@@UAEPAXI@Z
	DD	FLAT:__purecall
	DD	FLAT:__purecall
	DD	FLAT:__purecall
	DD	FLAT:__purecall
	DD	FLAT:__purecall
	DD	FLAT:__purecall
	DD	FLAT:__purecall
	DD	FLAT:__purecall
	DD	FLAT:__purecall
	DD	FLAT:__purecall
	DD	FLAT:__purecall
	DD	FLAT:__purecall
	DD	FLAT:__purecall
	DD	FLAT:__purecall
	DD	FLAT:__purecall
	DD	FLAT:__purecall
	DD	FLAT:?Owner@GameObjObserverClass@@UAEPAVScriptableGameObj@@XZ
CONST	ENDS
CRT$XCU	SEGMENT
_TFX_Replace_When_Repaired_Registrant$initializer$ DD FLAT:??__ETFX_Replace_When_Repaired_Registrant@@YAXXZ
CRT$XCU	ENDS
; Function compile flags: /Odtp /ZI
;	COMDAT ??__FTFX_Replace_When_Repaired_Registrant@@YAXXZ
text$yd	SEGMENT
??__FTFX_Replace_When_Repaired_Registrant@@YAXXZ PROC	; `dynamic atexit destructor for 'TFX_Replace_When_Repaired_Registrant'', COMDAT
	push	ebp
	mov	ebp, esp
	sub	esp, 64					; 00000040H
	push	ebx
	push	esi
	push	edi
	mov	ecx, OFFSET ?TFX_Replace_When_Repaired_Registrant@@3V?$ScriptRegistrant@VTFX_Replace_When_Repaired@@@@A ; TFX_Replace_When_Repaired_Registrant
	call	??1?$ScriptRegistrant@VTFX_Replace_When_Repaired@@@@UAE@XZ
	pop	edi
	pop	esi
	pop	ebx
	mov	esp, ebp
	pop	ebp
	ret	0
??__FTFX_Replace_When_Repaired_Registrant@@YAXXZ ENDP	; `dynamic atexit destructor for 'TFX_Replace_When_Repaired_Registrant''
text$yd	ENDS
; Function compile flags: /Odtp /ZI
; File x:\github\renegade\dragonade_rxd\scripts\tfx.cpp
;	COMDAT ??__ETFX_Replace_When_Repaired_Registrant@@YAXXZ
text$yc	SEGMENT
??__ETFX_Replace_When_Repaired_Registrant@@YAXXZ PROC	; `dynamic initializer for 'TFX_Replace_When_Repaired_Registrant'', COMDAT

; 59   : ScriptRegistrant<TFX_Replace_When_Repaired> TFX_Replace_When_Repaired_Registrant("TFX_Replace_When_Repaired","PresetName:string,DropHeight=0:float,SameFacing=1:int,HealthPercent=100.0000:float,ArmorPercent=100.0000:float");

	push	ebp
	mov	ebp, esp
	sub	esp, 64					; 00000040H
	push	ebx
	push	esi
	push	edi
	push	OFFSET ??_C@_0GP@OIAILKAF@PresetName?3string?0DropHeight?$DN0?3f@
	push	OFFSET ??_C@_0BK@HGPMHIIM@TFX_Replace_When_Repaired?$AA@
	mov	ecx, OFFSET ?TFX_Replace_When_Repaired_Registrant@@3V?$ScriptRegistrant@VTFX_Replace_When_Repaired@@@@A ; TFX_Replace_When_Repaired_Registrant
	call	??0?$ScriptRegistrant@VTFX_Replace_When_Repaired@@@@QAE@PBD0@Z ; ScriptRegistrant<TFX_Replace_When_Repaired>::ScriptRegistrant<TFX_Replace_When_Repaired>
	push	OFFSET ??__FTFX_Replace_When_Repaired_Registrant@@YAXXZ ; `dynamic atexit destructor for 'TFX_Replace_When_Repaired_Registrant''
	call	_atexit
	add	esp, 4
	pop	edi
	pop	esi
	pop	ebx
	mov	esp, ebp
	pop	ebp
	ret	0
??__ETFX_Replace_When_Repaired_Registrant@@YAXXZ ENDP	; `dynamic initializer for 'TFX_Replace_When_Repaired_Registrant''
text$yc	ENDS
; Function compile flags: /Odtp /ZI
;	COMDAT ??_G?$ScriptRegistrant@VTFX_Replace_When_Repaired@@@@UAEPAXI@Z
_TEXT	SEGMENT
_this$ = -4						; size = 4
___flags$ = 8						; size = 4
??_G?$ScriptRegistrant@VTFX_Replace_When_Repaired@@@@UAEPAXI@Z PROC ; ScriptRegistrant<TFX_Replace_When_Repaired>::`scalar deleting destructor', COMDAT
; _this$ = ecx
	push	ebp
	mov	ebp, esp
	sub	esp, 68					; 00000044H
	push	ebx
	push	esi
	push	edi
	mov	DWORD PTR _this$[ebp], ecx
	mov	ecx, DWORD PTR _this$[ebp]
	call	??1?$ScriptRegistrant@VTFX_Replace_When_Repaired@@@@UAE@XZ
	mov	eax, DWORD PTR ___flags$[ebp]
	and	eax, 1
	je	SHORT $LN1@scalar
	mov	eax, DWORD PTR _this$[ebp]
	push	eax
	call	??3@YAXPAX@Z				; operator delete
	add	esp, 4
$LN1@scalar:
	mov	eax, DWORD PTR _this$[ebp]
	pop	edi
	pop	esi
	pop	ebx
	mov	esp, ebp
	pop	ebp
	ret	4
??_G?$ScriptRegistrant@VTFX_Replace_When_Repaired@@@@UAEPAXI@Z ENDP ; ScriptRegistrant<TFX_Replace_When_Repaired>::`scalar deleting destructor'
_TEXT	ENDS
; Function compile flags: /Odtp /ZI
;	COMDAT ??1?$ScriptRegistrant@VTFX_Replace_When_Repaired@@@@UAE@XZ
_TEXT	SEGMENT
_this$ = -4						; size = 4
??1?$ScriptRegistrant@VTFX_Replace_When_Repaired@@@@UAE@XZ PROC ; ScriptRegistrant<TFX_Replace_When_Repaired>::~ScriptRegistrant<TFX_Replace_When_Repaired>, COMDAT
; _this$ = ecx
	push	ebp
	mov	ebp, esp
	sub	esp, 68					; 00000044H
	push	ebx
	push	esi
	push	edi
	mov	DWORD PTR _this$[ebp], ecx
	mov	ecx, DWORD PTR _this$[ebp]
	call	??1ScriptFactory@@UAE@XZ		; ScriptFactory::~ScriptFactory
	pop	edi
	pop	esi
	pop	ebx
	mov	esp, ebp
	pop	ebp
	ret	0
??1?$ScriptRegistrant@VTFX_Replace_When_Repaired@@@@UAE@XZ ENDP ; ScriptRegistrant<TFX_Replace_When_Repaired>::~ScriptRegistrant<TFX_Replace_When_Repaired>
_TEXT	ENDS
; Function compile flags: /Odtp /ZI
; File x:\github\renegade\dragonade_rxd\scripts\scripts.h
;	COMDAT ?Create@?$ScriptRegistrant@VTFX_Replace_When_Repaired@@@@UAEPAVScriptImpClass@@XZ
_TEXT	SEGMENT
tv77 = -84						; size = 4
tv79 = -80						; size = 4
$T1 = -76						; size = 4
_script$ = -8						; size = 4
_this$ = -4						; size = 4
?Create@?$ScriptRegistrant@VTFX_Replace_When_Repaired@@@@UAEPAVScriptImpClass@@XZ PROC ; ScriptRegistrant<TFX_Replace_When_Repaired>::Create, COMDAT
; _this$ = ecx

; 552  : 	{

	push	ebp
	mov	ebp, esp
	sub	esp, 84					; 00000054H
	push	ebx
	push	esi
	push	edi
	mov	DWORD PTR _this$[ebp], ecx

; 553  : 		T* script = new T;

	push	OFFSET ??_C@_0DK@HNHHHPEE@ScriptRegistrant?$DMclass?5TFX_Repla@
	push	553					; 00000229H
	push	OFFSET ??_C@_0DD@KMKBFFOF@x?3?2github?2renegade?2dragonade_rxd@
	call	?SetThreadTrackingInformation@@YAXPBDI0@Z ; SetThreadTrackingInformation
	add	esp, 12					; 0000000cH
	xor	eax, eax
	je	SHORT $LN6@Create
	xor	ecx, ecx
	jne	SHORT $LN3@Create
	push	553					; 00000229H
	push	OFFSET ??_C@_1GG@OGNLNBPD@?$AAx?$AA?3?$AA?2?$AAg?$AAi?$AAt?$AAh?$AAu?$AAb?$AA?2?$AAr?$AAe?$AAn?$AAe?$AAg?$AAa?$AAd?$AAe?$AA?2?$AAd?$AAr?$AAa?$AAg?$AAo?$AAn?$AAa?$AAd?$AAe?$AA_?$AAr?$AAx?$AAd@
	push	OFFSET ??_C@_1M@HLGKFCJM@?$AAf?$AAa?$AAl?$AAs?$AAe?$AA?$AA@
	call	DWORD PTR __imp___wassert
	add	esp, 12					; 0000000cH
$LN3@Create:
	mov	DWORD PTR tv79[ebp], 0
	jmp	SHORT $LN7@Create
$LN6@Create:
	push	28					; 0000001cH
	call	??2@YAPAXI@Z				; operator new
	add	esp, 4
	mov	DWORD PTR $T1[ebp], eax
	cmp	DWORD PTR $T1[ebp], 0
	je	SHORT $LN4@Create
	mov	ecx, DWORD PTR $T1[ebp]
	call	??0TFX_Replace_When_Repaired@@QAE@XZ
	mov	DWORD PTR tv77[ebp], eax
	jmp	SHORT $LN5@Create
$LN4@Create:
	mov	DWORD PTR tv77[ebp], 0
$LN5@Create:
	mov	eax, DWORD PTR tv77[ebp]
	mov	DWORD PTR tv79[ebp], eax
$LN7@Create:
	mov	ecx, DWORD PTR tv79[ebp]
	mov	DWORD PTR _script$[ebp], ecx

; 554  : 		script->SetFactory(this);

	mov	eax, DWORD PTR _this$[ebp]
	push	eax
	mov	ecx, DWORD PTR _script$[ebp]
	call	?SetFactory@ScriptImpClass@@QAEXPAVScriptFactory@@@Z ; ScriptImpClass::SetFactory

; 555  : 		script->Register_Auto_Save_Variables();

	mov	eax, DWORD PTR _script$[ebp]
	mov	edx, DWORD PTR [eax]
	mov	ecx, DWORD PTR _script$[ebp]
	mov	eax, DWORD PTR [edx+100]
	call	eax

; 556  : 		return script;

	mov	eax, DWORD PTR _script$[ebp]

; 557  : 	}

	pop	edi
	pop	esi
	pop	ebx
	mov	esp, ebp
	pop	ebp
	ret	0
?Create@?$ScriptRegistrant@VTFX_Replace_When_Repaired@@@@UAEPAVScriptImpClass@@XZ ENDP ; ScriptRegistrant<TFX_Replace_When_Repaired>::Create
_TEXT	ENDS
; Function compile flags: /Odtp /ZI
; File x:\github\renegade\dragonade_rxd\scripts\scripts.h
;	COMDAT ??0?$ScriptRegistrant@VTFX_Replace_When_Repaired@@@@QAE@PBD0@Z
_TEXT	SEGMENT
_this$ = -4						; size = 4
_name$ = 8						; size = 4
_param$ = 12						; size = 4
??0?$ScriptRegistrant@VTFX_Replace_When_Repaired@@@@QAE@PBD0@Z PROC ; ScriptRegistrant<TFX_Replace_When_Repaired>::ScriptRegistrant<TFX_Replace_When_Repaired>, COMDAT
; _this$ = ecx

; 549  : 	{

	push	ebp
	mov	ebp, esp
	sub	esp, 68					; 00000044H
	push	ebx
	push	esi
	push	edi
	mov	DWORD PTR _this$[ebp], ecx
	mov	eax, DWORD PTR _param$[ebp]
	push	eax
	mov	ecx, DWORD PTR _name$[ebp]
	push	ecx
	mov	ecx, DWORD PTR _this$[ebp]
	call	??0ScriptFactory@@IAE@PBD0@Z		; ScriptFactory::ScriptFactory
	mov	eax, DWORD PTR _this$[ebp]
	mov	DWORD PTR [eax], OFFSET ??_7?$ScriptRegistrant@VTFX_Replace_When_Repaired@@@@6B@

; 550  : 	}

	mov	eax, DWORD PTR _this$[ebp]
	pop	edi
	pop	esi
	pop	ebx
	mov	esp, ebp
	pop	ebp
	ret	8
??0?$ScriptRegistrant@VTFX_Replace_When_Repaired@@@@QAE@PBD0@Z ENDP ; ScriptRegistrant<TFX_Replace_When_Repaired>::ScriptRegistrant<TFX_Replace_When_Repaired>
_TEXT	ENDS
; Function compile flags: /Odtp /ZI
;	COMDAT ??__FTFX_Spawn_When_Killed_Registrant@@YAXXZ
text$yd	SEGMENT
??__FTFX_Spawn_When_Killed_Registrant@@YAXXZ PROC	; `dynamic atexit destructor for 'TFX_Spawn_When_Killed_Registrant'', COMDAT
	push	ebp
	mov	ebp, esp
	sub	esp, 64					; 00000040H
	push	ebx
	push	esi
	push	edi
	mov	ecx, OFFSET ?TFX_Spawn_When_Killed_Registrant@@3V?$ScriptRegistrant@VTFX_Spawn_When_Killed@@@@A ; TFX_Spawn_When_Killed_Registrant
	call	??1?$ScriptRegistrant@VTFX_Spawn_When_Killed@@@@UAE@XZ
	pop	edi
	pop	esi
	pop	ebx
	mov	esp, ebp
	pop	ebp
	ret	0
??__FTFX_Spawn_When_Killed_Registrant@@YAXXZ ENDP	; `dynamic atexit destructor for 'TFX_Spawn_When_Killed_Registrant''
text$yd	ENDS
; Function compile flags: /Odtp /ZI
; File x:\github\renegade\dragonade_rxd\scripts\tfx.cpp
;	COMDAT ??__ETFX_Spawn_When_Killed_Registrant@@YAXXZ
text$yc	SEGMENT
??__ETFX_Spawn_When_Killed_Registrant@@YAXXZ PROC	; `dynamic initializer for 'TFX_Spawn_When_Killed_Registrant'', COMDAT

; 58   : ScriptRegistrant<TFX_Spawn_When_Killed> TFX_Spawn_When_Killed_Registrant("TFX_Spawn_When_Killed","PresetName:string,DropHeight=0:float,SameFacing=1:int,HealthPercent=100.0000:float,ArmorPercent=100.0000:float");

	push	ebp
	mov	ebp, esp
	sub	esp, 64					; 00000040H
	push	ebx
	push	esi
	push	edi
	push	OFFSET ??_C@_0GP@OIAILKAF@PresetName?3string?0DropHeight?$DN0?3f@
	push	OFFSET ??_C@_0BG@MACDBEPP@TFX_Spawn_When_Killed?$AA@
	mov	ecx, OFFSET ?TFX_Spawn_When_Killed_Registrant@@3V?$ScriptRegistrant@VTFX_Spawn_When_Killed@@@@A ; TFX_Spawn_When_Killed_Registrant
	call	??0?$ScriptRegistrant@VTFX_Spawn_When_Killed@@@@QAE@PBD0@Z ; ScriptRegistrant<TFX_Spawn_When_Killed>::ScriptRegistrant<TFX_Spawn_When_Killed>
	push	OFFSET ??__FTFX_Spawn_When_Killed_Registrant@@YAXXZ ; `dynamic atexit destructor for 'TFX_Spawn_When_Killed_Registrant''
	call	_atexit
	add	esp, 4
	pop	edi
	pop	esi
	pop	ebx
	mov	esp, ebp
	pop	ebp
	ret	0
??__ETFX_Spawn_When_Killed_Registrant@@YAXXZ ENDP	; `dynamic initializer for 'TFX_Spawn_When_Killed_Registrant''
text$yc	ENDS
; Function compile flags: /Odtp /ZI
;	COMDAT ??_G?$ScriptRegistrant@VTFX_Spawn_When_Killed@@@@UAEPAXI@Z
_TEXT	SEGMENT
_this$ = -4						; size = 4
___flags$ = 8						; size = 4
??_G?$ScriptRegistrant@VTFX_Spawn_When_Killed@@@@UAEPAXI@Z PROC ; ScriptRegistrant<TFX_Spawn_When_Killed>::`scalar deleting destructor', COMDAT
; _this$ = ecx
	push	ebp
	mov	ebp, esp
	sub	esp, 68					; 00000044H
	push	ebx
	push	esi
	push	edi
	mov	DWORD PTR _this$[ebp], ecx
	mov	ecx, DWORD PTR _this$[ebp]
	call	??1?$ScriptRegistrant@VTFX_Spawn_When_Killed@@@@UAE@XZ
	mov	eax, DWORD PTR ___flags$[ebp]
	and	eax, 1
	je	SHORT $LN1@scalar
	mov	eax, DWORD PTR _this$[ebp]
	push	eax
	call	??3@YAXPAX@Z				; operator delete
	add	esp, 4
$LN1@scalar:
	mov	eax, DWORD PTR _this$[ebp]
	pop	edi
	pop	esi
	pop	ebx
	mov	esp, ebp
	pop	ebp
	ret	4
??_G?$ScriptRegistrant@VTFX_Spawn_When_Killed@@@@UAEPAXI@Z ENDP ; ScriptRegistrant<TFX_Spawn_When_Killed>::`scalar deleting destructor'
_TEXT	ENDS
; Function compile flags: /Odtp /ZI
;	COMDAT ??1?$ScriptRegistrant@VTFX_Spawn_When_Killed@@@@UAE@XZ
_TEXT	SEGMENT
_this$ = -4						; size = 4
??1?$ScriptRegistrant@VTFX_Spawn_When_Killed@@@@UAE@XZ PROC ; ScriptRegistrant<TFX_Spawn_When_Killed>::~ScriptRegistrant<TFX_Spawn_When_Killed>, COMDAT
; _this$ = ecx
	push	ebp
	mov	ebp, esp
	sub	esp, 68					; 00000044H
	push	ebx
	push	esi
	push	edi
	mov	DWORD PTR _this$[ebp], ecx
	mov	ecx, DWORD PTR _this$[ebp]
	call	??1ScriptFactory@@UAE@XZ		; ScriptFactory::~ScriptFactory
	pop	edi
	pop	esi
	pop	ebx
	mov	esp, ebp
	pop	ebp
	ret	0
??1?$ScriptRegistrant@VTFX_Spawn_When_Killed@@@@UAE@XZ ENDP ; ScriptRegistrant<TFX_Spawn_When_Killed>::~ScriptRegistrant<TFX_Spawn_When_Killed>
_TEXT	ENDS
; Function compile flags: /Odtp /ZI
; File x:\github\renegade\dragonade_rxd\scripts\scripts.h
;	COMDAT ?Create@?$ScriptRegistrant@VTFX_Spawn_When_Killed@@@@UAEPAVScriptImpClass@@XZ
_TEXT	SEGMENT
tv77 = -84						; size = 4
tv79 = -80						; size = 4
$T1 = -76						; size = 4
_script$ = -8						; size = 4
_this$ = -4						; size = 4
?Create@?$ScriptRegistrant@VTFX_Spawn_When_Killed@@@@UAEPAVScriptImpClass@@XZ PROC ; ScriptRegistrant<TFX_Spawn_When_Killed>::Create, COMDAT
; _this$ = ecx

; 552  : 	{

	push	ebp
	mov	ebp, esp
	sub	esp, 84					; 00000054H
	push	ebx
	push	esi
	push	edi
	mov	DWORD PTR _this$[ebp], ecx

; 553  : 		T* script = new T;

	push	OFFSET ??_C@_0DG@ECKPJHDF@ScriptRegistrant?$DMclass?5TFX_Spawn@
	push	553					; 00000229H
	push	OFFSET ??_C@_0DD@KMKBFFOF@x?3?2github?2renegade?2dragonade_rxd@
	call	?SetThreadTrackingInformation@@YAXPBDI0@Z ; SetThreadTrackingInformation
	add	esp, 12					; 0000000cH
	xor	eax, eax
	je	SHORT $LN6@Create
	xor	ecx, ecx
	jne	SHORT $LN3@Create
	push	553					; 00000229H
	push	OFFSET ??_C@_1GG@OGNLNBPD@?$AAx?$AA?3?$AA?2?$AAg?$AAi?$AAt?$AAh?$AAu?$AAb?$AA?2?$AAr?$AAe?$AAn?$AAe?$AAg?$AAa?$AAd?$AAe?$AA?2?$AAd?$AAr?$AAa?$AAg?$AAo?$AAn?$AAa?$AAd?$AAe?$AA_?$AAr?$AAx?$AAd@
	push	OFFSET ??_C@_1M@HLGKFCJM@?$AAf?$AAa?$AAl?$AAs?$AAe?$AA?$AA@
	call	DWORD PTR __imp___wassert
	add	esp, 12					; 0000000cH
$LN3@Create:
	mov	DWORD PTR tv79[ebp], 0
	jmp	SHORT $LN7@Create
$LN6@Create:
	push	28					; 0000001cH
	call	??2@YAPAXI@Z				; operator new
	add	esp, 4
	mov	DWORD PTR $T1[ebp], eax
	cmp	DWORD PTR $T1[ebp], 0
	je	SHORT $LN4@Create
	mov	ecx, DWORD PTR $T1[ebp]
	call	??0TFX_Spawn_When_Killed@@QAE@XZ
	mov	DWORD PTR tv77[ebp], eax
	jmp	SHORT $LN5@Create
$LN4@Create:
	mov	DWORD PTR tv77[ebp], 0
$LN5@Create:
	mov	eax, DWORD PTR tv77[ebp]
	mov	DWORD PTR tv79[ebp], eax
$LN7@Create:
	mov	ecx, DWORD PTR tv79[ebp]
	mov	DWORD PTR _script$[ebp], ecx

; 554  : 		script->SetFactory(this);

	mov	eax, DWORD PTR _this$[ebp]
	push	eax
	mov	ecx, DWORD PTR _script$[ebp]
	call	?SetFactory@ScriptImpClass@@QAEXPAVScriptFactory@@@Z ; ScriptImpClass::SetFactory

; 555  : 		script->Register_Auto_Save_Variables();

	mov	eax, DWORD PTR _script$[ebp]
	mov	edx, DWORD PTR [eax]
	mov	ecx, DWORD PTR _script$[ebp]
	mov	eax, DWORD PTR [edx+100]
	call	eax

; 556  : 		return script;

	mov	eax, DWORD PTR _script$[ebp]

; 557  : 	}

	pop	edi
	pop	esi
	pop	ebx
	mov	esp, ebp
	pop	ebp
	ret	0
?Create@?$ScriptRegistrant@VTFX_Spawn_When_Killed@@@@UAEPAVScriptImpClass@@XZ ENDP ; ScriptRegistrant<TFX_Spawn_When_Killed>::Create
_TEXT	ENDS
; Function compile flags: /Odtp /ZI
; File x:\github\renegade\dragonade_rxd\scripts\scripts.h
;	COMDAT ??0?$ScriptRegistrant@VTFX_Spawn_When_Killed@@@@QAE@PBD0@Z
_TEXT	SEGMENT
_this$ = -4						; size = 4
_name$ = 8						; size = 4
_param$ = 12						; size = 4
??0?$ScriptRegistrant@VTFX_Spawn_When_Killed@@@@QAE@PBD0@Z PROC ; ScriptRegistrant<TFX_Spawn_When_Killed>::ScriptRegistrant<TFX_Spawn_When_Killed>, COMDAT
; _this$ = ecx

; 549  : 	{

	push	ebp
	mov	ebp, esp
	sub	esp, 68					; 00000044H
	push	ebx
	push	esi
	push	edi
	mov	DWORD PTR _this$[ebp], ecx
	mov	eax, DWORD PTR _param$[ebp]
	push	eax
	mov	ecx, DWORD PTR _name$[ebp]
	push	ecx
	mov	ecx, DWORD PTR _this$[ebp]
	call	??0ScriptFactory@@IAE@PBD0@Z		; ScriptFactory::ScriptFactory
	mov	eax, DWORD PTR _this$[ebp]
	mov	DWORD PTR [eax], OFFSET ??_7?$ScriptRegistrant@VTFX_Spawn_When_Killed@@@@6B@

; 550  : 	}

	mov	eax, DWORD PTR _this$[ebp]
	pop	edi
	pop	esi
	pop	ebx
	mov	esp, ebp
	pop	ebp
	ret	8
??0?$ScriptRegistrant@VTFX_Spawn_When_Killed@@@@QAE@PBD0@Z ENDP ; ScriptRegistrant<TFX_Spawn_When_Killed>::ScriptRegistrant<TFX_Spawn_When_Killed>
_TEXT	ENDS
; Function compile flags: /Odtp /ZI
;	COMDAT ??_GTFX_Replace_When_Repaired@@UAEPAXI@Z
_TEXT	SEGMENT
_this$ = -4						; size = 4
___flags$ = 8						; size = 4
??_GTFX_Replace_When_Repaired@@UAEPAXI@Z PROC		; TFX_Replace_When_Repaired::`scalar deleting destructor', COMDAT
; _this$ = ecx
	push	ebp
	mov	ebp, esp
	sub	esp, 68					; 00000044H
	push	ebx
	push	esi
	push	edi
	mov	DWORD PTR _this$[ebp], ecx
	mov	ecx, DWORD PTR _this$[ebp]
	call	??1TFX_Replace_When_Repaired@@UAE@XZ
	mov	eax, DWORD PTR ___flags$[ebp]
	and	eax, 1
	je	SHORT $LN1@scalar
	mov	eax, DWORD PTR _this$[ebp]
	push	eax
	call	??3@YAXPAX@Z				; operator delete
	add	esp, 4
$LN1@scalar:
	mov	eax, DWORD PTR _this$[ebp]
	pop	edi
	pop	esi
	pop	ebx
	mov	esp, ebp
	pop	ebp
	ret	4
??_GTFX_Replace_When_Repaired@@UAEPAXI@Z ENDP		; TFX_Replace_When_Repaired::`scalar deleting destructor'
_TEXT	ENDS
; Function compile flags: /Odtp /ZI
;	COMDAT ??1TFX_Replace_When_Repaired@@UAE@XZ
_TEXT	SEGMENT
_this$ = -4						; size = 4
??1TFX_Replace_When_Repaired@@UAE@XZ PROC		; TFX_Replace_When_Repaired::~TFX_Replace_When_Repaired, COMDAT
; _this$ = ecx
	push	ebp
	mov	ebp, esp
	sub	esp, 68					; 00000044H
	push	ebx
	push	esi
	push	edi
	mov	DWORD PTR _this$[ebp], ecx
	mov	ecx, DWORD PTR _this$[ebp]
	call	??1ScriptImpClass@@UAE@XZ		; ScriptImpClass::~ScriptImpClass
	pop	edi
	pop	esi
	pop	ebx
	mov	esp, ebp
	pop	ebp
	ret	0
??1TFX_Replace_When_Repaired@@UAE@XZ ENDP		; TFX_Replace_When_Repaired::~TFX_Replace_When_Repaired
_TEXT	ENDS
; Function compile flags: /Odtp /ZI
;	COMDAT ??0TFX_Replace_When_Repaired@@QAE@XZ
_TEXT	SEGMENT
_this$ = -4						; size = 4
??0TFX_Replace_When_Repaired@@QAE@XZ PROC		; TFX_Replace_When_Repaired::TFX_Replace_When_Repaired, COMDAT
; _this$ = ecx
	push	ebp
	mov	ebp, esp
	sub	esp, 68					; 00000044H
	push	ebx
	push	esi
	push	edi
	mov	DWORD PTR _this$[ebp], ecx
	mov	ecx, DWORD PTR _this$[ebp]
	call	??0ScriptImpClass@@QAE@XZ		; ScriptImpClass::ScriptImpClass
	mov	eax, DWORD PTR _this$[ebp]
	mov	DWORD PTR [eax], OFFSET ??_7TFX_Replace_When_Repaired@@6B@
	mov	eax, DWORD PTR _this$[ebp]
	pop	edi
	pop	esi
	pop	ebx
	mov	esp, ebp
	pop	ebp
	ret	0
??0TFX_Replace_When_Repaired@@QAE@XZ ENDP		; TFX_Replace_When_Repaired::TFX_Replace_When_Repaired
_TEXT	ENDS
; Function compile flags: /Odtp /ZI
; File x:\github\renegade\dragonade_rxd\scripts\tfx.cpp
;	COMDAT ?Damaged@TFX_Replace_When_Repaired@@EAEXPAVScriptableGameObj@@0M@Z
_TEXT	SEGMENT
tv218 = -120						; size = 4
tv204 = -120						; size = 4
tv286 = -116						; size = 4
tv284 = -116						; size = 4
tv276 = -112						; size = 4
tv264 = -112						; size = 4
tv235 = -112						; size = 4
tv211 = -112						; size = 4
tv197 = -112						; size = 4
$T1 = -108						; size = 12
_maxarmor$ = -32					; size = 4
_maxhealth$ = -28					; size = 4
_newobj$ = -24						; size = 4
_position$ = -20					; size = 12
_facing$ = -8						; size = 4
_this$ = -4						; size = 4
_obj$ = 8						; size = 4
_damager$ = 12						; size = 4
_amount$ = 16						; size = 4
?Damaged@TFX_Replace_When_Repaired@@EAEXPAVScriptableGameObj@@0M@Z PROC ; TFX_Replace_When_Repaired::Damaged, COMDAT
; _this$ = ecx

; 36   : {

	push	ebp
	mov	ebp, esp
	sub	esp, 120				; 00000078H
	push	ebx
	push	esi
	push	edi
	mov	DWORD PTR _this$[ebp], ecx

; 37   : 	if (amount >= 0 || Commands->Get_Health(obj) < Commands->Get_Max_Health(obj) || Commands->Get_Shield_Strength(obj) < Commands->Get_Max_Shield_Strength(obj))

	movss	xmm0, DWORD PTR _amount$[ebp]
	comiss	xmm0, DWORD PTR __real@00000000
	jae	$LN4@Damaged
	mov	eax, DWORD PTR _obj$[ebp]
	push	eax
	mov	ecx, DWORD PTR ?Commands@@3PAUScriptCommands@@A ; Commands
	mov	edx, DWORD PTR [ecx+220]
	call	edx
	add	esp, 4
	fstp	DWORD PTR tv197[ebp]
	movss	xmm0, DWORD PTR tv197[ebp]
	mov	eax, DWORD PTR _obj$[ebp]
	push	eax
	mov	ecx, DWORD PTR ?Commands@@3PAUScriptCommands@@A ; Commands
	mov	edx, DWORD PTR [ecx+224]
	movss	DWORD PTR tv284[ebp], xmm0
	call	edx
	add	esp, 4
	fstp	DWORD PTR tv204[ebp]
	movss	xmm0, DWORD PTR tv204[ebp]
	movss	xmm1, DWORD PTR tv284[ebp]
	comiss	xmm0, xmm1
	ja	SHORT $LN4@Damaged
	mov	eax, DWORD PTR _obj$[ebp]
	push	eax
	mov	ecx, DWORD PTR ?Commands@@3PAUScriptCommands@@A ; Commands
	mov	edx, DWORD PTR [ecx+232]
	call	edx
	add	esp, 4
	fstp	DWORD PTR tv211[ebp]
	movss	xmm0, DWORD PTR tv211[ebp]
	mov	eax, DWORD PTR _obj$[ebp]
	push	eax
	mov	ecx, DWORD PTR ?Commands@@3PAUScriptCommands@@A ; Commands
	mov	edx, DWORD PTR [ecx+236]
	movss	DWORD PTR tv286[ebp], xmm0
	call	edx
	add	esp, 4
	fstp	DWORD PTR tv218[ebp]
	movss	xmm0, DWORD PTR tv218[ebp]
	movss	xmm1, DWORD PTR tv286[ebp]
	comiss	xmm0, xmm1
	jbe	SHORT $LN5@Damaged
$LN4@Damaged:

; 38   : 	{
; 39   : 		return;

	jmp	$LN6@Damaged
$LN5@Damaged:

; 40   : 	}
; 41   : 	float facing = Commands->Get_Facing(obj);

	mov	eax, DWORD PTR _obj$[ebp]
	push	eax
	mov	ecx, DWORD PTR ?Commands@@3PAUScriptCommands@@A ; Commands
	mov	edx, DWORD PTR [ecx+72]
	call	edx
	add	esp, 4
	fstp	DWORD PTR _facing$[ebp]

; 42   : 	Vector3 position = Commands->Get_Position(obj);

	mov	eax, DWORD PTR _obj$[ebp]
	push	eax
	lea	ecx, DWORD PTR $T1[ebp]
	push	ecx
	mov	edx, DWORD PTR ?Commands@@3PAUScriptCommands@@A ; Commands
	mov	eax, DWORD PTR [edx+64]
	call	eax
	add	esp, 8
	push	eax
	lea	ecx, DWORD PTR _position$[ebp]
	call	??0Vector3@@QAE@ABV0@@Z			; Vector3::Vector3

; 43   : 	GameObject*newobj;
; 44   : 	Commands->Destroy_Object(obj);

	mov	eax, DWORD PTR _obj$[ebp]
	push	eax
	mov	ecx, DWORD PTR ?Commands@@3PAUScriptCommands@@A ; Commands
	mov	edx, DWORD PTR [ecx+92]
	call	edx
	add	esp, 4

; 45   : 	position.Z += Get_Float_Parameter("DropHeight");

	push	OFFSET ??_C@_0L@DPEGPHCF@DropHeight?$AA@
	mov	ecx, DWORD PTR _this$[ebp]
	call	?Get_Float_Parameter@ScriptImpClass@@QAEMPBD@Z ; ScriptImpClass::Get_Float_Parameter
	fstp	DWORD PTR tv235[ebp]
	movss	xmm0, DWORD PTR tv235[ebp]
	addss	xmm0, DWORD PTR _position$[ebp+8]
	movss	DWORD PTR _position$[ebp+8], xmm0

; 46   : 	newobj = Commands->Create_Object(Get_Parameter("PresetName"),position);

	lea	eax, DWORD PTR _position$[ebp]
	push	eax
	push	OFFSET ??_C@_0L@FPLAAJEA@PresetName?$AA@
	mov	ecx, DWORD PTR _this$[ebp]
	call	?Get_Parameter@ScriptImpClass@@QAEPBDPBD@Z ; ScriptImpClass::Get_Parameter
	push	eax
	mov	ecx, DWORD PTR ?Commands@@3PAUScriptCommands@@A ; Commands
	mov	edx, DWORD PTR [ecx+100]
	call	edx
	add	esp, 8
	mov	DWORD PTR _newobj$[ebp], eax

; 47   : 	if (!Get_Int_Parameter("SameFacing"))

	push	OFFSET ??_C@_0L@GKBMGALG@SameFacing?$AA@
	mov	ecx, DWORD PTR _this$[ebp]
	call	?Get_Int_Parameter@ScriptImpClass@@QAEHPBD@Z ; ScriptImpClass::Get_Int_Parameter
	test	eax, eax
	jne	SHORT $LN3@Damaged

; 48   : 	{
; 49   : 		return;

	jmp	$LN6@Damaged
$LN3@Damaged:

; 50   : 	}
; 51   : 	Commands->Set_Facing(newobj,facing);

	push	ecx
	movss	xmm0, DWORD PTR _facing$[ebp]
	movss	DWORD PTR [esp], xmm0
	mov	eax, DWORD PTR _newobj$[ebp]
	push	eax
	mov	ecx, DWORD PTR ?Commands@@3PAUScriptCommands@@A ; Commands
	mov	edx, DWORD PTR [ecx+76]
	call	edx
	add	esp, 8

; 52   : 	float maxhealth = Commands->Get_Max_Health(newobj);

	mov	eax, DWORD PTR _newobj$[ebp]
	push	eax
	mov	ecx, DWORD PTR ?Commands@@3PAUScriptCommands@@A ; Commands
	mov	edx, DWORD PTR [ecx+224]
	call	edx
	add	esp, 4
	fstp	DWORD PTR _maxhealth$[ebp]

; 53   : 	float maxarmor = Commands->Get_Max_Shield_Strength(newobj);

	mov	eax, DWORD PTR _newobj$[ebp]
	push	eax
	mov	ecx, DWORD PTR ?Commands@@3PAUScriptCommands@@A ; Commands
	mov	edx, DWORD PTR [ecx+236]
	call	edx
	add	esp, 4
	fstp	DWORD PTR _maxarmor$[ebp]

; 54   : 	if (maxhealth) Commands->Set_Health(newobj,maxhealth*Get_Float_Parameter("HealthPercent") / 100);

	movss	xmm0, DWORD PTR _maxhealth$[ebp]
	ucomiss	xmm0, DWORD PTR __real@00000000
	lahf
	test	ah, 68					; 00000044H
	jnp	SHORT $LN2@Damaged
	push	OFFSET ??_C@_0O@KPGKEIEO@HealthPercent?$AA@
	mov	ecx, DWORD PTR _this$[ebp]
	call	?Get_Float_Parameter@ScriptImpClass@@QAEMPBD@Z ; ScriptImpClass::Get_Float_Parameter
	fstp	DWORD PTR tv264[ebp]
	movss	xmm0, DWORD PTR tv264[ebp]
	mulss	xmm0, DWORD PTR _maxhealth$[ebp]
	divss	xmm0, DWORD PTR __real@42c80000
	push	ecx
	movss	DWORD PTR [esp], xmm0
	mov	eax, DWORD PTR _newobj$[ebp]
	push	eax
	mov	ecx, DWORD PTR ?Commands@@3PAUScriptCommands@@A ; Commands
	mov	edx, DWORD PTR [ecx+228]
	call	edx
	add	esp, 8
$LN2@Damaged:

; 55   : 	if (maxarmor) Commands->Set_Shield_Strength(newobj,maxarmor*Get_Float_Parameter("ArmorPercent") / 100);

	movss	xmm0, DWORD PTR _maxarmor$[ebp]
	ucomiss	xmm0, DWORD PTR __real@00000000
	lahf
	test	ah, 68					; 00000044H
	jnp	SHORT $LN1@Damaged
	push	OFFSET ??_C@_0N@CMCKONJD@ArmorPercent?$AA@
	mov	ecx, DWORD PTR _this$[ebp]
	call	?Get_Float_Parameter@ScriptImpClass@@QAEMPBD@Z ; ScriptImpClass::Get_Float_Parameter
	fstp	DWORD PTR tv276[ebp]
	movss	xmm0, DWORD PTR tv276[ebp]
	mulss	xmm0, DWORD PTR _maxarmor$[ebp]
	divss	xmm0, DWORD PTR __real@42c80000
	push	ecx
	movss	DWORD PTR [esp], xmm0
	mov	eax, DWORD PTR _newobj$[ebp]
	push	eax
	mov	ecx, DWORD PTR ?Commands@@3PAUScriptCommands@@A ; Commands
	mov	edx, DWORD PTR [ecx+240]
	call	edx
	add	esp, 8
$LN1@Damaged:
$LN6@Damaged:

; 56   : }

	pop	edi
	pop	esi
	pop	ebx
	mov	esp, ebp
	pop	ebp
	ret	12					; 0000000cH
?Damaged@TFX_Replace_When_Repaired@@EAEXPAVScriptableGameObj@@0M@Z ENDP ; TFX_Replace_When_Repaired::Damaged
_TEXT	ENDS
; Function compile flags: /Odtp /ZI
;	COMDAT ??_GTFX_Spawn_When_Killed@@UAEPAXI@Z
_TEXT	SEGMENT
_this$ = -4						; size = 4
___flags$ = 8						; size = 4
??_GTFX_Spawn_When_Killed@@UAEPAXI@Z PROC		; TFX_Spawn_When_Killed::`scalar deleting destructor', COMDAT
; _this$ = ecx
	push	ebp
	mov	ebp, esp
	sub	esp, 68					; 00000044H
	push	ebx
	push	esi
	push	edi
	mov	DWORD PTR _this$[ebp], ecx
	mov	ecx, DWORD PTR _this$[ebp]
	call	??1TFX_Spawn_When_Killed@@UAE@XZ
	mov	eax, DWORD PTR ___flags$[ebp]
	and	eax, 1
	je	SHORT $LN1@scalar
	mov	eax, DWORD PTR _this$[ebp]
	push	eax
	call	??3@YAXPAX@Z				; operator delete
	add	esp, 4
$LN1@scalar:
	mov	eax, DWORD PTR _this$[ebp]
	pop	edi
	pop	esi
	pop	ebx
	mov	esp, ebp
	pop	ebp
	ret	4
??_GTFX_Spawn_When_Killed@@UAEPAXI@Z ENDP		; TFX_Spawn_When_Killed::`scalar deleting destructor'
_TEXT	ENDS
; Function compile flags: /Odtp /ZI
;	COMDAT ??1TFX_Spawn_When_Killed@@UAE@XZ
_TEXT	SEGMENT
_this$ = -4						; size = 4
??1TFX_Spawn_When_Killed@@UAE@XZ PROC			; TFX_Spawn_When_Killed::~TFX_Spawn_When_Killed, COMDAT
; _this$ = ecx
	push	ebp
	mov	ebp, esp
	sub	esp, 68					; 00000044H
	push	ebx
	push	esi
	push	edi
	mov	DWORD PTR _this$[ebp], ecx
	mov	ecx, DWORD PTR _this$[ebp]
	call	??1ScriptImpClass@@UAE@XZ		; ScriptImpClass::~ScriptImpClass
	pop	edi
	pop	esi
	pop	ebx
	mov	esp, ebp
	pop	ebp
	ret	0
??1TFX_Spawn_When_Killed@@UAE@XZ ENDP			; TFX_Spawn_When_Killed::~TFX_Spawn_When_Killed
_TEXT	ENDS
; Function compile flags: /Odtp /ZI
;	COMDAT ??0TFX_Spawn_When_Killed@@QAE@XZ
_TEXT	SEGMENT
_this$ = -4						; size = 4
??0TFX_Spawn_When_Killed@@QAE@XZ PROC			; TFX_Spawn_When_Killed::TFX_Spawn_When_Killed, COMDAT
; _this$ = ecx
	push	ebp
	mov	ebp, esp
	sub	esp, 68					; 00000044H
	push	ebx
	push	esi
	push	edi
	mov	DWORD PTR _this$[ebp], ecx
	mov	ecx, DWORD PTR _this$[ebp]
	call	??0ScriptImpClass@@QAE@XZ		; ScriptImpClass::ScriptImpClass
	mov	eax, DWORD PTR _this$[ebp]
	mov	DWORD PTR [eax], OFFSET ??_7TFX_Spawn_When_Killed@@6B@
	mov	eax, DWORD PTR _this$[ebp]
	pop	edi
	pop	esi
	pop	ebx
	mov	esp, ebp
	pop	ebp
	ret	0
??0TFX_Spawn_When_Killed@@QAE@XZ ENDP			; TFX_Spawn_When_Killed::TFX_Spawn_When_Killed
_TEXT	ENDS
; Function compile flags: /Odtp /ZI
; File x:\github\renegade\dragonade_rxd\scripts\tfx.cpp
;	COMDAT ?Killed@TFX_Spawn_When_Killed@@EAEXPAVScriptableGameObj@@0@Z
_TEXT	SEGMENT
tv223 = -112						; size = 4
tv211 = -112						; size = 4
tv182 = -112						; size = 4
$T1 = -108						; size = 12
_maxarmor$ = -32					; size = 4
_maxhealth$ = -28					; size = 4
_newobj$ = -24						; size = 4
_position$ = -20					; size = 12
_facing$ = -8						; size = 4
_this$ = -4						; size = 4
_obj$ = 8						; size = 4
_killer$ = 12						; size = 4
?Killed@TFX_Spawn_When_Killed@@EAEXPAVScriptableGameObj@@0@Z PROC ; TFX_Spawn_When_Killed::Killed, COMDAT
; _this$ = ecx

; 18   : {

	push	ebp
	mov	ebp, esp
	sub	esp, 112				; 00000070H
	push	ebx
	push	esi
	push	edi
	mov	DWORD PTR _this$[ebp], ecx

; 19   : 	float facing = Commands->Get_Facing(obj);

	mov	eax, DWORD PTR _obj$[ebp]
	push	eax
	mov	ecx, DWORD PTR ?Commands@@3PAUScriptCommands@@A ; Commands
	mov	edx, DWORD PTR [ecx+72]
	call	edx
	add	esp, 4
	fstp	DWORD PTR _facing$[ebp]

; 20   : 	Vector3 position = Commands->Get_Position(obj);

	mov	eax, DWORD PTR _obj$[ebp]
	push	eax
	lea	ecx, DWORD PTR $T1[ebp]
	push	ecx
	mov	edx, DWORD PTR ?Commands@@3PAUScriptCommands@@A ; Commands
	mov	eax, DWORD PTR [edx+64]
	call	eax
	add	esp, 8
	push	eax
	lea	ecx, DWORD PTR _position$[ebp]
	call	??0Vector3@@QAE@ABV0@@Z			; Vector3::Vector3

; 21   : 	GameObject *newobj;
; 22   : 	position.Z += Get_Float_Parameter("DropHeight");

	push	OFFSET ??_C@_0L@DPEGPHCF@DropHeight?$AA@
	mov	ecx, DWORD PTR _this$[ebp]
	call	?Get_Float_Parameter@ScriptImpClass@@QAEMPBD@Z ; ScriptImpClass::Get_Float_Parameter
	fstp	DWORD PTR tv182[ebp]
	movss	xmm0, DWORD PTR tv182[ebp]
	addss	xmm0, DWORD PTR _position$[ebp+8]
	movss	DWORD PTR _position$[ebp+8], xmm0

; 23   : 	newobj = Commands->Create_Object(Get_Parameter("PresetName"),position);

	lea	eax, DWORD PTR _position$[ebp]
	push	eax
	push	OFFSET ??_C@_0L@FPLAAJEA@PresetName?$AA@
	mov	ecx, DWORD PTR _this$[ebp]
	call	?Get_Parameter@ScriptImpClass@@QAEPBDPBD@Z ; ScriptImpClass::Get_Parameter
	push	eax
	mov	ecx, DWORD PTR ?Commands@@3PAUScriptCommands@@A ; Commands
	mov	edx, DWORD PTR [ecx+100]
	call	edx
	add	esp, 8
	mov	DWORD PTR _newobj$[ebp], eax

; 24   : 	if (!Get_Int_Parameter("SameFacing"))

	push	OFFSET ??_C@_0L@GKBMGALG@SameFacing?$AA@
	mov	ecx, DWORD PTR _this$[ebp]
	call	?Get_Int_Parameter@ScriptImpClass@@QAEHPBD@Z ; ScriptImpClass::Get_Int_Parameter
	test	eax, eax
	jne	SHORT $LN3@Killed

; 25   : 	{
; 26   : 		return;

	jmp	$LN4@Killed
$LN3@Killed:

; 27   : 	}
; 28   : 	Commands->Set_Facing(newobj,facing);

	push	ecx
	movss	xmm0, DWORD PTR _facing$[ebp]
	movss	DWORD PTR [esp], xmm0
	mov	eax, DWORD PTR _newobj$[ebp]
	push	eax
	mov	ecx, DWORD PTR ?Commands@@3PAUScriptCommands@@A ; Commands
	mov	edx, DWORD PTR [ecx+76]
	call	edx
	add	esp, 8

; 29   : 	float maxhealth = Commands->Get_Max_Health(newobj);

	mov	eax, DWORD PTR _newobj$[ebp]
	push	eax
	mov	ecx, DWORD PTR ?Commands@@3PAUScriptCommands@@A ; Commands
	mov	edx, DWORD PTR [ecx+224]
	call	edx
	add	esp, 4
	fstp	DWORD PTR _maxhealth$[ebp]

; 30   : 	float maxarmor = Commands->Get_Max_Shield_Strength(newobj);

	mov	eax, DWORD PTR _newobj$[ebp]
	push	eax
	mov	ecx, DWORD PTR ?Commands@@3PAUScriptCommands@@A ; Commands
	mov	edx, DWORD PTR [ecx+236]
	call	edx
	add	esp, 4
	fstp	DWORD PTR _maxarmor$[ebp]

; 31   : 	if (maxhealth) Commands->Set_Health(newobj,maxhealth*Get_Float_Parameter("HealthPercent") / 100);

	movss	xmm0, DWORD PTR _maxhealth$[ebp]
	ucomiss	xmm0, DWORD PTR __real@00000000
	lahf
	test	ah, 68					; 00000044H
	jnp	SHORT $LN2@Killed
	push	OFFSET ??_C@_0O@KPGKEIEO@HealthPercent?$AA@
	mov	ecx, DWORD PTR _this$[ebp]
	call	?Get_Float_Parameter@ScriptImpClass@@QAEMPBD@Z ; ScriptImpClass::Get_Float_Parameter
	fstp	DWORD PTR tv211[ebp]
	movss	xmm0, DWORD PTR tv211[ebp]
	mulss	xmm0, DWORD PTR _maxhealth$[ebp]
	divss	xmm0, DWORD PTR __real@42c80000
	push	ecx
	movss	DWORD PTR [esp], xmm0
	mov	eax, DWORD PTR _newobj$[ebp]
	push	eax
	mov	ecx, DWORD PTR ?Commands@@3PAUScriptCommands@@A ; Commands
	mov	edx, DWORD PTR [ecx+228]
	call	edx
	add	esp, 8
$LN2@Killed:

; 32   : 	if (maxarmor) Commands->Set_Shield_Strength(newobj,maxarmor*Get_Float_Parameter("ArmorPercent") / 100);

	movss	xmm0, DWORD PTR _maxarmor$[ebp]
	ucomiss	xmm0, DWORD PTR __real@00000000
	lahf
	test	ah, 68					; 00000044H
	jnp	SHORT $LN1@Killed
	push	OFFSET ??_C@_0N@CMCKONJD@ArmorPercent?$AA@
	mov	ecx, DWORD PTR _this$[ebp]
	call	?Get_Float_Parameter@ScriptImpClass@@QAEMPBD@Z ; ScriptImpClass::Get_Float_Parameter
	fstp	DWORD PTR tv223[ebp]
	movss	xmm0, DWORD PTR tv223[ebp]
	mulss	xmm0, DWORD PTR _maxarmor$[ebp]
	divss	xmm0, DWORD PTR __real@42c80000
	push	ecx
	movss	DWORD PTR [esp], xmm0
	mov	eax, DWORD PTR _newobj$[ebp]
	push	eax
	mov	ecx, DWORD PTR ?Commands@@3PAUScriptCommands@@A ; Commands
	mov	edx, DWORD PTR [ecx+240]
	call	edx
	add	esp, 8
$LN1@Killed:
$LN4@Killed:

; 33   : }

	pop	edi
	pop	esi
	pop	ebx
	mov	esp, ebp
	pop	ebp
	ret	8
?Killed@TFX_Spawn_When_Killed@@EAEXPAVScriptableGameObj@@0@Z ENDP ; TFX_Spawn_When_Killed::Killed
_TEXT	ENDS
; Function compile flags: /Odtp /ZI
;	COMDAT ??4ScriptRegistrar@@QAEAAV0@ABV0@@Z
_TEXT	SEGMENT
_this$ = -4						; size = 4
___that$ = 8						; size = 4
??4ScriptRegistrar@@QAEAAV0@ABV0@@Z PROC		; ScriptRegistrar::operator=, COMDAT
; _this$ = ecx
	push	ebp
	mov	ebp, esp
	sub	esp, 68					; 00000044H
	push	ebx
	push	esi
	push	edi
	mov	DWORD PTR _this$[ebp], ecx
	mov	eax, DWORD PTR _this$[ebp]
	pop	edi
	pop	esi
	pop	ebx
	mov	esp, ebp
	pop	ebp
	ret	4
??4ScriptRegistrar@@QAEAAV0@ABV0@@Z ENDP		; ScriptRegistrar::operator=
_TEXT	ENDS
; Function compile flags: /Odtp /ZI
;	COMDAT ??_EScriptFactory@@UAEPAXI@Z
_TEXT	SEGMENT
_this$ = -4						; size = 4
___flags$ = 8						; size = 4
??_EScriptFactory@@UAEPAXI@Z PROC			; ScriptFactory::`vector deleting destructor', COMDAT
; _this$ = ecx
	push	ebp
	mov	ebp, esp
	sub	esp, 68					; 00000044H
	push	ebx
	push	esi
	push	edi
	mov	DWORD PTR _this$[ebp], ecx
	mov	eax, DWORD PTR ___flags$[ebp]
	and	eax, 2
	je	SHORT $LN3@vector
	push	OFFSET ??1ScriptFactory@@UAE@XZ		; ScriptFactory::~ScriptFactory
	mov	eax, DWORD PTR _this$[ebp]
	mov	ecx, DWORD PTR [eax-4]
	push	ecx
	push	16					; 00000010H
	mov	edx, DWORD PTR _this$[ebp]
	push	edx
	call	??_I@YGXPAXIHP6EX0@Z@Z
	mov	eax, DWORD PTR ___flags$[ebp]
	and	eax, 1
	je	SHORT $LN2@vector
	mov	eax, DWORD PTR _this$[ebp]
	sub	eax, 4
	push	eax
	call	??_V@YAXPAX@Z				; operator delete[]
	add	esp, 4
$LN2@vector:
	mov	eax, DWORD PTR _this$[ebp]
	sub	eax, 4
	jmp	SHORT $LN4@vector
$LN3@vector:
	mov	ecx, DWORD PTR _this$[ebp]
	call	??1ScriptFactory@@UAE@XZ		; ScriptFactory::~ScriptFactory
	mov	eax, DWORD PTR ___flags$[ebp]
	and	eax, 1
	je	SHORT $LN1@vector
	mov	eax, DWORD PTR _this$[ebp]
	push	eax
	call	??3@YAXPAX@Z				; operator delete
	add	esp, 4
$LN1@vector:
	mov	eax, DWORD PTR _this$[ebp]
$LN4@vector:
	pop	edi
	pop	esi
	pop	ebx
	mov	esp, ebp
	pop	ebp
	ret	4
??_EScriptFactory@@UAEPAXI@Z ENDP			; ScriptFactory::`vector deleting destructor'
_TEXT	ENDS
; Function compile flags: /Odtp /ZI
;	COMDAT ??_GScriptFactory@@UAEPAXI@Z
_TEXT	SEGMENT
_this$ = -4						; size = 4
___flags$ = 8						; size = 4
??_GScriptFactory@@UAEPAXI@Z PROC			; ScriptFactory::`scalar deleting destructor', COMDAT
; _this$ = ecx
	push	ebp
	mov	ebp, esp
	sub	esp, 68					; 00000044H
	push	ebx
	push	esi
	push	edi
	mov	DWORD PTR _this$[ebp], ecx
	mov	ecx, DWORD PTR _this$[ebp]
	call	??1ScriptFactory@@UAE@XZ		; ScriptFactory::~ScriptFactory
	mov	eax, DWORD PTR ___flags$[ebp]
	and	eax, 1
	je	SHORT $LN1@scalar
	mov	eax, DWORD PTR _this$[ebp]
	push	eax
	call	??3@YAXPAX@Z				; operator delete
	add	esp, 4
$LN1@scalar:
	mov	eax, DWORD PTR _this$[ebp]
	pop	edi
	pop	esi
	pop	ebx
	mov	esp, ebp
	pop	ebp
	ret	4
??_GScriptFactory@@UAEPAXI@Z ENDP			; ScriptFactory::`scalar deleting destructor'
_TEXT	ENDS
; Function compile flags: /Odtp /ZI
;	COMDAT ??4ScriptFactory@@QAEAAV0@ABV0@@Z
_TEXT	SEGMENT
_this$ = -4						; size = 4
___that$ = 8						; size = 4
??4ScriptFactory@@QAEAAV0@ABV0@@Z PROC			; ScriptFactory::operator=, COMDAT
; _this$ = ecx
	push	ebp
	mov	ebp, esp
	sub	esp, 68					; 00000044H
	push	ebx
	push	esi
	push	edi
	mov	DWORD PTR _this$[ebp], ecx
	mov	eax, DWORD PTR _this$[ebp]
	mov	ecx, DWORD PTR ___that$[ebp]
	mov	edx, DWORD PTR [ecx+4]
	mov	DWORD PTR [eax+4], edx
	mov	eax, DWORD PTR _this$[ebp]
	mov	ecx, DWORD PTR ___that$[ebp]
	mov	edx, DWORD PTR [ecx+8]
	mov	DWORD PTR [eax+8], edx
	mov	eax, DWORD PTR _this$[ebp]
	mov	ecx, DWORD PTR ___that$[ebp]
	mov	edx, DWORD PTR [ecx+12]
	mov	DWORD PTR [eax+12], edx
	mov	eax, DWORD PTR _this$[ebp]
	pop	edi
	pop	esi
	pop	ebx
	mov	esp, ebp
	pop	ebp
	ret	4
??4ScriptFactory@@QAEAAV0@ABV0@@Z ENDP			; ScriptFactory::operator=
_TEXT	ENDS
; Function compile flags: /Odtp /ZI
;	COMDAT ??0ScriptFactory@@QAE@ABV0@@Z
_TEXT	SEGMENT
_this$ = -4						; size = 4
___that$ = 8						; size = 4
??0ScriptFactory@@QAE@ABV0@@Z PROC			; ScriptFactory::ScriptFactory, COMDAT
; _this$ = ecx
	push	ebp
	mov	ebp, esp
	sub	esp, 68					; 00000044H
	push	ebx
	push	esi
	push	edi
	mov	DWORD PTR _this$[ebp], ecx
	mov	eax, DWORD PTR _this$[ebp]
	mov	DWORD PTR [eax], OFFSET ??_7ScriptFactory@@6B@
	mov	eax, DWORD PTR _this$[ebp]
	mov	ecx, DWORD PTR ___that$[ebp]
	mov	edx, DWORD PTR [ecx+4]
	mov	DWORD PTR [eax+4], edx
	mov	eax, DWORD PTR _this$[ebp]
	mov	ecx, DWORD PTR ___that$[ebp]
	mov	edx, DWORD PTR [ecx+8]
	mov	DWORD PTR [eax+8], edx
	mov	eax, DWORD PTR _this$[ebp]
	mov	ecx, DWORD PTR ___that$[ebp]
	mov	edx, DWORD PTR [ecx+12]
	mov	DWORD PTR [eax+12], edx
	mov	eax, DWORD PTR _this$[ebp]
	pop	edi
	pop	esi
	pop	ebx
	mov	esp, ebp
	pop	ebp
	ret	4
??0ScriptFactory@@QAE@ABV0@@Z ENDP			; ScriptFactory::ScriptFactory
_TEXT	ENDS
; Function compile flags: /Odtp /ZI
;	COMDAT ??_EScriptImpClass@@UAEPAXI@Z
_TEXT	SEGMENT
_this$ = -4						; size = 4
___flags$ = 8						; size = 4
??_EScriptImpClass@@UAEPAXI@Z PROC			; ScriptImpClass::`vector deleting destructor', COMDAT
; _this$ = ecx
	push	ebp
	mov	ebp, esp
	sub	esp, 68					; 00000044H
	push	ebx
	push	esi
	push	edi
	mov	DWORD PTR _this$[ebp], ecx
	mov	eax, DWORD PTR ___flags$[ebp]
	and	eax, 2
	je	SHORT $LN3@vector
	push	OFFSET ??1ScriptImpClass@@UAE@XZ	; ScriptImpClass::~ScriptImpClass
	mov	eax, DWORD PTR _this$[ebp]
	mov	ecx, DWORD PTR [eax-4]
	push	ecx
	push	28					; 0000001cH
	mov	edx, DWORD PTR _this$[ebp]
	push	edx
	call	??_I@YGXPAXIHP6EX0@Z@Z
	mov	eax, DWORD PTR ___flags$[ebp]
	and	eax, 1
	je	SHORT $LN2@vector
	mov	eax, DWORD PTR _this$[ebp]
	sub	eax, 4
	push	eax
	call	??_V@YAXPAX@Z				; operator delete[]
	add	esp, 4
$LN2@vector:
	mov	eax, DWORD PTR _this$[ebp]
	sub	eax, 4
	jmp	SHORT $LN4@vector
$LN3@vector:
	mov	ecx, DWORD PTR _this$[ebp]
	call	??1ScriptImpClass@@UAE@XZ		; ScriptImpClass::~ScriptImpClass
	mov	eax, DWORD PTR ___flags$[ebp]
	and	eax, 1
	je	SHORT $LN1@vector
	mov	eax, DWORD PTR _this$[ebp]
	push	eax
	call	??3@YAXPAX@Z				; operator delete
	add	esp, 4
$LN1@vector:
	mov	eax, DWORD PTR _this$[ebp]
$LN4@vector:
	pop	edi
	pop	esi
	pop	ebx
	mov	esp, ebp
	pop	ebp
	ret	4
??_EScriptImpClass@@UAEPAXI@Z ENDP			; ScriptImpClass::`vector deleting destructor'
_TEXT	ENDS
; Function compile flags: /Odtp /ZI
;	COMDAT ??_GScriptImpClass@@UAEPAXI@Z
_TEXT	SEGMENT
_this$ = -4						; size = 4
___flags$ = 8						; size = 4
??_GScriptImpClass@@UAEPAXI@Z PROC			; ScriptImpClass::`scalar deleting destructor', COMDAT
; _this$ = ecx
	push	ebp
	mov	ebp, esp
	sub	esp, 68					; 00000044H
	push	ebx
	push	esi
	push	edi
	mov	DWORD PTR _this$[ebp], ecx
	mov	ecx, DWORD PTR _this$[ebp]
	call	??1ScriptImpClass@@UAE@XZ		; ScriptImpClass::~ScriptImpClass
	mov	eax, DWORD PTR ___flags$[ebp]
	and	eax, 1
	je	SHORT $LN1@scalar
	mov	eax, DWORD PTR _this$[ebp]
	push	eax
	call	??3@YAXPAX@Z				; operator delete
	add	esp, 4
$LN1@scalar:
	mov	eax, DWORD PTR _this$[ebp]
	pop	edi
	pop	esi
	pop	ebx
	mov	esp, ebp
	pop	ebp
	ret	4
??_GScriptImpClass@@UAEPAXI@Z ENDP			; ScriptImpClass::`scalar deleting destructor'
_TEXT	ENDS
; Function compile flags: /Odtp /ZI
;	COMDAT ??4ScriptImpClass@@QAEAAV0@ABV0@@Z
_TEXT	SEGMENT
_this$ = -4						; size = 4
___that$ = 8						; size = 4
??4ScriptImpClass@@QAEAAV0@ABV0@@Z PROC			; ScriptImpClass::operator=, COMDAT
; _this$ = ecx
	push	ebp
	mov	ebp, esp
	sub	esp, 68					; 00000044H
	push	ebx
	push	esi
	push	edi
	mov	DWORD PTR _this$[ebp], ecx
	mov	eax, DWORD PTR ___that$[ebp]
	push	eax
	mov	ecx, DWORD PTR _this$[ebp]
	call	??4ScriptClass@@QAEAAV0@ABV0@@Z
	mov	eax, DWORD PTR _this$[ebp]
	mov	ecx, DWORD PTR ___that$[ebp]
	mov	edx, DWORD PTR [ecx+8]
	mov	DWORD PTR [eax+8], edx
	mov	eax, DWORD PTR _this$[ebp]
	mov	ecx, DWORD PTR ___that$[ebp]
	mov	edx, DWORD PTR [ecx+12]
	mov	DWORD PTR [eax+12], edx
	mov	eax, DWORD PTR _this$[ebp]
	mov	ecx, DWORD PTR ___that$[ebp]
	mov	edx, DWORD PTR [ecx+16]
	mov	DWORD PTR [eax+16], edx
	mov	eax, DWORD PTR _this$[ebp]
	mov	ecx, DWORD PTR ___that$[ebp]
	mov	edx, DWORD PTR [ecx+20]
	mov	DWORD PTR [eax+20], edx
	mov	eax, DWORD PTR _this$[ebp]
	mov	ecx, DWORD PTR ___that$[ebp]
	mov	edx, DWORD PTR [ecx+24]
	mov	DWORD PTR [eax+24], edx
	mov	eax, DWORD PTR _this$[ebp]
	pop	edi
	pop	esi
	pop	ebx
	mov	esp, ebp
	pop	ebp
	ret	4
??4ScriptImpClass@@QAEAAV0@ABV0@@Z ENDP			; ScriptImpClass::operator=
_TEXT	ENDS
; Function compile flags: /Odtp /ZI
;	COMDAT ??0ScriptImpClass@@QAE@ABV0@@Z
_TEXT	SEGMENT
_this$ = -4						; size = 4
___that$ = 8						; size = 4
??0ScriptImpClass@@QAE@ABV0@@Z PROC			; ScriptImpClass::ScriptImpClass, COMDAT
; _this$ = ecx
	push	ebp
	mov	ebp, esp
	sub	esp, 68					; 00000044H
	push	ebx
	push	esi
	push	edi
	mov	DWORD PTR _this$[ebp], ecx
	mov	eax, DWORD PTR ___that$[ebp]
	push	eax
	mov	ecx, DWORD PTR _this$[ebp]
	call	??0ScriptClass@@QAE@ABV0@@Z
	mov	eax, DWORD PTR _this$[ebp]
	mov	DWORD PTR [eax], OFFSET ??_7ScriptImpClass@@6B@
	mov	eax, DWORD PTR _this$[ebp]
	mov	ecx, DWORD PTR ___that$[ebp]
	mov	edx, DWORD PTR [ecx+8]
	mov	DWORD PTR [eax+8], edx
	mov	eax, DWORD PTR _this$[ebp]
	mov	ecx, DWORD PTR ___that$[ebp]
	mov	edx, DWORD PTR [ecx+12]
	mov	DWORD PTR [eax+12], edx
	mov	eax, DWORD PTR _this$[ebp]
	mov	ecx, DWORD PTR ___that$[ebp]
	mov	edx, DWORD PTR [ecx+16]
	mov	DWORD PTR [eax+16], edx
	mov	eax, DWORD PTR _this$[ebp]
	mov	ecx, DWORD PTR ___that$[ebp]
	mov	edx, DWORD PTR [ecx+20]
	mov	DWORD PTR [eax+20], edx
	mov	eax, DWORD PTR _this$[ebp]
	mov	ecx, DWORD PTR ___that$[ebp]
	mov	edx, DWORD PTR [ecx+24]
	mov	DWORD PTR [eax+24], edx
	mov	eax, DWORD PTR _this$[ebp]
	pop	edi
	pop	esi
	pop	ebx
	mov	esp, ebp
	pop	ebp
	ret	4
??0ScriptImpClass@@QAE@ABV0@@Z ENDP			; ScriptImpClass::ScriptImpClass
_TEXT	ENDS
; Function compile flags: /Odtp /ZI
; File x:\github\renegade\dragonade_rxd\scripts\scripts.h
;	COMDAT ?Get_Bool_Parameter@ScriptImpClass@@QAE_NH@Z
_TEXT	SEGMENT
tv68 = -72						; size = 4
_this$ = -4						; size = 4
_index$ = 8						; size = 4
?Get_Bool_Parameter@ScriptImpClass@@QAE_NH@Z PROC	; ScriptImpClass::Get_Bool_Parameter, COMDAT
; _this$ = ecx

; 290  :     {

	push	ebp
	mov	ebp, esp
	sub	esp, 72					; 00000048H
	push	ebx
	push	esi
	push	edi
	mov	DWORD PTR _this$[ebp], ecx

; 291  :         return Get_Int_Parameter(index) != 0;

	mov	eax, DWORD PTR _index$[ebp]
	push	eax
	mov	ecx, DWORD PTR _this$[ebp]
	call	?Get_Int_Parameter@ScriptImpClass@@QAEHH@Z ; ScriptImpClass::Get_Int_Parameter
	test	eax, eax
	je	SHORT $LN3@Get_Bool_P
	mov	DWORD PTR tv68[ebp], 1
	jmp	SHORT $LN4@Get_Bool_P
$LN3@Get_Bool_P:
	mov	DWORD PTR tv68[ebp], 0
$LN4@Get_Bool_P:
	mov	al, BYTE PTR tv68[ebp]

; 292  :     }

	pop	edi
	pop	esi
	pop	ebx
	mov	esp, ebp
	pop	ebp
	ret	4
?Get_Bool_Parameter@ScriptImpClass@@QAE_NH@Z ENDP	; ScriptImpClass::Get_Bool_Parameter
_TEXT	ENDS
; Function compile flags: /Odtp /ZI
; File x:\github\renegade\dragonade_rxd\scripts\scripts.h
;	COMDAT ?Get_Bool_Parameter@ScriptImpClass@@QAE_NPBD@Z
_TEXT	SEGMENT
tv68 = -72						; size = 4
_this$ = -4						; size = 4
_name$ = 8						; size = 4
?Get_Bool_Parameter@ScriptImpClass@@QAE_NPBD@Z PROC	; ScriptImpClass::Get_Bool_Parameter, COMDAT
; _this$ = ecx

; 286  :     {

	push	ebp
	mov	ebp, esp
	sub	esp, 72					; 00000048H
	push	ebx
	push	esi
	push	edi
	mov	DWORD PTR _this$[ebp], ecx

; 287  :         return Get_Int_Parameter(name) != 0;

	mov	eax, DWORD PTR _name$[ebp]
	push	eax
	mov	ecx, DWORD PTR _this$[ebp]
	call	?Get_Int_Parameter@ScriptImpClass@@QAEHPBD@Z ; ScriptImpClass::Get_Int_Parameter
	test	eax, eax
	je	SHORT $LN3@Get_Bool_P
	mov	DWORD PTR tv68[ebp], 1
	jmp	SHORT $LN4@Get_Bool_P
$LN3@Get_Bool_P:
	mov	DWORD PTR tv68[ebp], 0
$LN4@Get_Bool_P:
	mov	al, BYTE PTR tv68[ebp]

; 288  :     }

	pop	edi
	pop	esi
	pop	ebx
	mov	esp, ebp
	pop	ebp
	ret	4
?Get_Bool_Parameter@ScriptImpClass@@QAE_NPBD@Z ENDP	; ScriptImpClass::Get_Bool_Parameter
_TEXT	ENDS
; Function compile flags: /Odtp /ZI
; File x:\github\renegade\dragonade_rxd\scripts\scripts.h
;	COMDAT ?Get_Float_Parameter@ScriptImpClass@@QAEMH@Z
_TEXT	SEGMENT
tv74 = -72						; size = 4
_this$ = -4						; size = 4
_index$ = 8						; size = 4
?Get_Float_Parameter@ScriptImpClass@@QAEMH@Z PROC	; ScriptImpClass::Get_Float_Parameter, COMDAT
; _this$ = ecx

; 282  : 	{

	push	ebp
	mov	ebp, esp
	sub	esp, 72					; 00000048H
	push	ebx
	push	esi
	push	edi
	mov	DWORD PTR _this$[ebp], ecx

; 283  : 		return (float)atof(Get_Parameter(index));

	mov	eax, DWORD PTR _index$[ebp]
	push	eax
	mov	ecx, DWORD PTR _this$[ebp]
	call	?Get_Parameter@ScriptImpClass@@QAEPBDH@Z ; ScriptImpClass::Get_Parameter
	push	eax
	call	DWORD PTR __imp__atof
	add	esp, 4
	fstp	DWORD PTR tv74[ebp]
	fld	DWORD PTR tv74[ebp]

; 284  : 	}

	pop	edi
	pop	esi
	pop	ebx
	mov	esp, ebp
	pop	ebp
	ret	4
?Get_Float_Parameter@ScriptImpClass@@QAEMH@Z ENDP	; ScriptImpClass::Get_Float_Parameter
_TEXT	ENDS
; Function compile flags: /Odtp /ZI
; File x:\github\renegade\dragonade_rxd\scripts\scripts.h
;	COMDAT ?Get_Int_Parameter@ScriptImpClass@@QAEHH@Z
_TEXT	SEGMENT
_this$ = -4						; size = 4
_index$ = 8						; size = 4
?Get_Int_Parameter@ScriptImpClass@@QAEHH@Z PROC		; ScriptImpClass::Get_Int_Parameter, COMDAT
; _this$ = ecx

; 278  : 	{

	push	ebp
	mov	ebp, esp
	sub	esp, 68					; 00000044H
	push	ebx
	push	esi
	push	edi
	mov	DWORD PTR _this$[ebp], ecx

; 279  : 		return atoi(Get_Parameter(index));

	mov	eax, DWORD PTR _index$[ebp]
	push	eax
	mov	ecx, DWORD PTR _this$[ebp]
	call	?Get_Parameter@ScriptImpClass@@QAEPBDH@Z ; ScriptImpClass::Get_Parameter
	push	eax
	call	DWORD PTR __imp__atoi
	add	esp, 4

; 280  : 	}

	pop	edi
	pop	esi
	pop	ebx
	mov	esp, ebp
	pop	ebp
	ret	4
?Get_Int_Parameter@ScriptImpClass@@QAEHH@Z ENDP		; ScriptImpClass::Get_Int_Parameter
_TEXT	ENDS
; Function compile flags: /Odtp /ZI
; File x:\github\renegade\dragonade_rxd\scripts\scripts.h
;	COMDAT ?Get_Parameter_Count@ScriptImpClass@@QAEHXZ
_TEXT	SEGMENT
_this$ = -4						; size = 4
?Get_Parameter_Count@ScriptImpClass@@QAEHXZ PROC	; ScriptImpClass::Get_Parameter_Count, COMDAT
; _this$ = ecx

; 274  : 	{

	push	ebp
	mov	ebp, esp
	sub	esp, 68					; 00000044H
	push	ebx
	push	esi
	push	edi
	mov	DWORD PTR _this$[ebp], ecx

; 275  : 		return mArgC;

	mov	eax, DWORD PTR _this$[ebp]
	mov	eax, DWORD PTR [eax+12]

; 276  : 	}

	pop	edi
	pop	esi
	pop	ebx
	mov	esp, ebp
	pop	ebp
	ret	0
?Get_Parameter_Count@ScriptImpClass@@QAEHXZ ENDP	; ScriptImpClass::Get_Parameter_Count
_TEXT	ENDS
; Function compile flags: /Odtp /ZI
; File x:\github\renegade\dragonade_rxd\scripts\scripts.h
;	COMDAT ?Register_Auto_Save_Variables@ScriptImpClass@@UAEXXZ
_TEXT	SEGMENT
_this$ = -4						; size = 4
?Register_Auto_Save_Variables@ScriptImpClass@@UAEXXZ PROC ; ScriptImpClass::Register_Auto_Save_Variables, COMDAT
; _this$ = ecx

; 265  : 	virtual	void Register_Auto_Save_Variables()	{}

	push	ebp
	mov	ebp, esp
	sub	esp, 68					; 00000044H
	push	ebx
	push	esi
	push	edi
	mov	DWORD PTR _this$[ebp], ecx
	pop	edi
	pop	esi
	pop	ebx
	mov	esp, ebp
	pop	ebp
	ret	0
?Register_Auto_Save_Variables@ScriptImpClass@@UAEXXZ ENDP ; ScriptImpClass::Register_Auto_Save_Variables
_TEXT	ENDS
; Function compile flags: /Odtp /ZI
; File x:\github\renegade\dragonade_rxd\scripts\scripts.h
;	COMDAT ?Load_Data@ScriptImpClass@@UAEXAAVScriptLoader@@@Z
_TEXT	SEGMENT
_this$ = -4						; size = 4
_loader$ = 8						; size = 4
?Load_Data@ScriptImpClass@@UAEXAAVScriptLoader@@@Z PROC	; ScriptImpClass::Load_Data, COMDAT
; _this$ = ecx

; 264  : 	virtual void Load_Data(ScriptLoader& loader) {}

	push	ebp
	mov	ebp, esp
	sub	esp, 68					; 00000044H
	push	ebx
	push	esi
	push	edi
	mov	DWORD PTR _this$[ebp], ecx
	pop	edi
	pop	esi
	pop	ebx
	mov	esp, ebp
	pop	ebp
	ret	4
?Load_Data@ScriptImpClass@@UAEXAAVScriptLoader@@@Z ENDP	; ScriptImpClass::Load_Data
_TEXT	ENDS
; Function compile flags: /Odtp /ZI
; File x:\github\renegade\dragonade_rxd\scripts\scripts.h
;	COMDAT ?Save_Data@ScriptImpClass@@UAEXAAVScriptSaver@@@Z
_TEXT	SEGMENT
_this$ = -4						; size = 4
_saver$ = 8						; size = 4
?Save_Data@ScriptImpClass@@UAEXAAVScriptSaver@@@Z PROC	; ScriptImpClass::Save_Data, COMDAT
; _this$ = ecx

; 263  : 	virtual void Save_Data(ScriptSaver& saver) {}

	push	ebp
	mov	ebp, esp
	sub	esp, 68					; 00000044H
	push	ebx
	push	esi
	push	edi
	mov	DWORD PTR _this$[ebp], ecx
	pop	edi
	pop	esi
	pop	ebx
	mov	esp, ebp
	pop	ebp
	ret	4
?Save_Data@ScriptImpClass@@UAEXAAVScriptSaver@@@Z ENDP	; ScriptImpClass::Save_Data
_TEXT	ENDS
; Function compile flags: /Odtp /ZI
; File x:\github\renegade\dragonade_rxd\scripts\scripts.h
;	COMDAT ?Get_Owner_Ptr@ScriptImpClass@@UAEPAPAVScriptableGameObj@@XZ
_TEXT	SEGMENT
_this$ = -4						; size = 4
?Get_Owner_Ptr@ScriptImpClass@@UAEPAPAVScriptableGameObj@@XZ PROC ; ScriptImpClass::Get_Owner_Ptr, COMDAT
; _this$ = ecx

; 258  : 	{

	push	ebp
	mov	ebp, esp
	sub	esp, 68					; 00000044H
	push	ebx
	push	esi
	push	edi
	mov	DWORD PTR _this$[ebp], ecx

; 259  : 		return &mOwner;

	mov	eax, DWORD PTR _this$[ebp]
	add	eax, 8

; 260  : 	}

	pop	edi
	pop	esi
	pop	ebx
	mov	esp, ebp
	pop	ebp
	ret	0
?Get_Owner_Ptr@ScriptImpClass@@UAEPAPAVScriptableGameObj@@XZ ENDP ; ScriptImpClass::Get_Owner_Ptr
_TEXT	ENDS
; Function compile flags: /Odtp /ZI
; File x:\github\renegade\dragonade_rxd\scripts\scripts.h
;	COMDAT ?Owner@ScriptImpClass@@UAEPAVScriptableGameObj@@XZ
_TEXT	SEGMENT
_this$ = -4						; size = 4
?Owner@ScriptImpClass@@UAEPAVScriptableGameObj@@XZ PROC	; ScriptImpClass::Owner, COMDAT
; _this$ = ecx

; 254  : 	{

	push	ebp
	mov	ebp, esp
	sub	esp, 68					; 00000044H
	push	ebx
	push	esi
	push	edi
	mov	DWORD PTR _this$[ebp], ecx

; 255  : 		return mOwner;

	mov	eax, DWORD PTR _this$[ebp]
	mov	eax, DWORD PTR [eax+8]

; 256  : 	}

	pop	edi
	pop	esi
	pop	ebx
	mov	esp, ebp
	pop	ebp
	ret	0
?Owner@ScriptImpClass@@UAEPAVScriptableGameObj@@XZ ENDP	; ScriptImpClass::Owner
_TEXT	ENDS
; Function compile flags: /Odtp /ZI
; File x:\github\renegade\dragonade_rxd\scripts\scripts.h
;	COMDAT ?Exited@ScriptImpClass@@UAEXPAVScriptableGameObj@@0@Z
_TEXT	SEGMENT
_this$ = -4						; size = 4
_obj$ = 8						; size = 4
_exiter$ = 12						; size = 4
?Exited@ScriptImpClass@@UAEXPAVScriptableGameObj@@0@Z PROC ; ScriptImpClass::Exited, COMDAT
; _this$ = ecx

; 251  :   void Exited(GameObject *obj,GameObject *exiter) {}

	push	ebp
	mov	ebp, esp
	sub	esp, 68					; 00000044H
	push	ebx
	push	esi
	push	edi
	mov	DWORD PTR _this$[ebp], ecx
	pop	edi
	pop	esi
	pop	ebx
	mov	esp, ebp
	pop	ebp
	ret	8
?Exited@ScriptImpClass@@UAEXPAVScriptableGameObj@@0@Z ENDP ; ScriptImpClass::Exited
_TEXT	ENDS
; Function compile flags: /Odtp /ZI
; File x:\github\renegade\dragonade_rxd\scripts\scripts.h
;	COMDAT ?Entered@ScriptImpClass@@UAEXPAVScriptableGameObj@@0@Z
_TEXT	SEGMENT
_this$ = -4						; size = 4
_obj$ = 8						; size = 4
_enterer$ = 12						; size = 4
?Entered@ScriptImpClass@@UAEXPAVScriptableGameObj@@0@Z PROC ; ScriptImpClass::Entered, COMDAT
; _this$ = ecx

; 244  :   void Entered(GameObject *obj,GameObject *enterer) {}

	push	ebp
	mov	ebp, esp
	sub	esp, 68					; 00000044H
	push	ebx
	push	esi
	push	edi
	mov	DWORD PTR _this$[ebp], ecx
	pop	edi
	pop	esi
	pop	ebx
	mov	esp, ebp
	pop	ebp
	ret	8
?Entered@ScriptImpClass@@UAEXPAVScriptableGameObj@@0@Z ENDP ; ScriptImpClass::Entered
_TEXT	ENDS
; Function compile flags: /Odtp /ZI
; File x:\github\renegade\dragonade_rxd\scripts\scripts.h
;	COMDAT ?Poked@ScriptImpClass@@UAEXPAVScriptableGameObj@@0@Z
_TEXT	SEGMENT
_this$ = -4						; size = 4
_obj$ = 8						; size = 4
_poker$ = 12						; size = 4
?Poked@ScriptImpClass@@UAEXPAVScriptableGameObj@@0@Z PROC ; ScriptImpClass::Poked, COMDAT
; _this$ = ecx

; 237  :   void Poked(GameObject *obj,GameObject *poker) {}

	push	ebp
	mov	ebp, esp
	sub	esp, 68					; 00000044H
	push	ebx
	push	esi
	push	edi
	mov	DWORD PTR _this$[ebp], ecx
	pop	edi
	pop	esi
	pop	ebx
	mov	esp, ebp
	pop	ebp
	ret	8
?Poked@ScriptImpClass@@UAEXPAVScriptableGameObj@@0@Z ENDP ; ScriptImpClass::Poked
_TEXT	ENDS
; Function compile flags: /Odtp /ZI
; File x:\github\renegade\dragonade_rxd\scripts\scripts.h
;	COMDAT ?Animation_Complete@ScriptImpClass@@UAEXPAVScriptableGameObj@@PBD@Z
_TEXT	SEGMENT
_this$ = -4						; size = 4
_obj$ = 8						; size = 4
_animation_name$ = 12					; size = 4
?Animation_Complete@ScriptImpClass@@UAEXPAVScriptableGameObj@@PBD@Z PROC ; ScriptImpClass::Animation_Complete, COMDAT
; _this$ = ecx

; 229  :   void Animation_Complete(GameObject *obj,const char *animation_name) {}

	push	ebp
	mov	ebp, esp
	sub	esp, 68					; 00000044H
	push	ebx
	push	esi
	push	edi
	mov	DWORD PTR _this$[ebp], ecx
	pop	edi
	pop	esi
	pop	ebx
	mov	esp, ebp
	pop	ebp
	ret	8
?Animation_Complete@ScriptImpClass@@UAEXPAVScriptableGameObj@@PBD@Z ENDP ; ScriptImpClass::Animation_Complete
_TEXT	ENDS
; Function compile flags: /Odtp /ZI
; File x:\github\renegade\dragonade_rxd\scripts\scripts.h
;	COMDAT ?Timer_Expired@ScriptImpClass@@UAEXPAVScriptableGameObj@@H@Z
_TEXT	SEGMENT
_this$ = -4						; size = 4
_obj$ = 8						; size = 4
_number$ = 12						; size = 4
?Timer_Expired@ScriptImpClass@@UAEXPAVScriptableGameObj@@H@Z PROC ; ScriptImpClass::Timer_Expired, COMDAT
; _this$ = ecx

; 221  :   void Timer_Expired(GameObject *obj,int number) {}

	push	ebp
	mov	ebp, esp
	sub	esp, 68					; 00000044H
	push	ebx
	push	esi
	push	edi
	mov	DWORD PTR _this$[ebp], ecx
	pop	edi
	pop	esi
	pop	ebx
	mov	esp, ebp
	pop	ebp
	ret	8
?Timer_Expired@ScriptImpClass@@UAEXPAVScriptableGameObj@@H@Z ENDP ; ScriptImpClass::Timer_Expired
_TEXT	ENDS
; Function compile flags: /Odtp /ZI
; File x:\github\renegade\dragonade_rxd\scripts\scripts.h
;	COMDAT ?Action_Complete@ScriptImpClass@@UAEXPAVScriptableGameObj@@HW4ActionCompleteReason@@@Z
_TEXT	SEGMENT
_this$ = -4						; size = 4
_obj$ = 8						; size = 4
_action_id$ = 12					; size = 4
_complete_reason$ = 16					; size = 4
?Action_Complete@ScriptImpClass@@UAEXPAVScriptableGameObj@@HW4ActionCompleteReason@@@Z PROC ; ScriptImpClass::Action_Complete, COMDAT
; _this$ = ecx

; 212  :   void Action_Complete(GameObject *obj,int action_id,ActionCompleteReason complete_reason) {}

	push	ebp
	mov	ebp, esp
	sub	esp, 68					; 00000044H
	push	ebx
	push	esi
	push	edi
	mov	DWORD PTR _this$[ebp], ecx
	pop	edi
	pop	esi
	pop	ebx
	mov	esp, ebp
	pop	ebp
	ret	12					; 0000000cH
?Action_Complete@ScriptImpClass@@UAEXPAVScriptableGameObj@@HW4ActionCompleteReason@@@Z ENDP ; ScriptImpClass::Action_Complete
_TEXT	ENDS
; Function compile flags: /Odtp /ZI
; File x:\github\renegade\dragonade_rxd\scripts\scripts.h
;	COMDAT ?Enemy_Seen@ScriptImpClass@@UAEXPAVScriptableGameObj@@0@Z
_TEXT	SEGMENT
_this$ = -4						; size = 4
_obj$ = 8						; size = 4
_enemy$ = 12						; size = 4
?Enemy_Seen@ScriptImpClass@@UAEXPAVScriptableGameObj@@0@Z PROC ; ScriptImpClass::Enemy_Seen, COMDAT
; _this$ = ecx

; 201  :   void Enemy_Seen(GameObject *obj,GameObject *enemy) {}

	push	ebp
	mov	ebp, esp
	sub	esp, 68					; 00000044H
	push	ebx
	push	esi
	push	edi
	mov	DWORD PTR _this$[ebp], ecx
	pop	edi
	pop	esi
	pop	ebx
	mov	esp, ebp
	pop	ebp
	ret	8
?Enemy_Seen@ScriptImpClass@@UAEXPAVScriptableGameObj@@0@Z ENDP ; ScriptImpClass::Enemy_Seen
_TEXT	ENDS
; Function compile flags: /Odtp /ZI
; File x:\github\renegade\dragonade_rxd\scripts\scripts.h
;	COMDAT ?Sound_Heard@ScriptImpClass@@UAEXPAVScriptableGameObj@@ABUCombatSound@@@Z
_TEXT	SEGMENT
_this$ = -4						; size = 4
_obj$ = 8						; size = 4
_sound$ = 12						; size = 4
?Sound_Heard@ScriptImpClass@@UAEXPAVScriptableGameObj@@ABUCombatSound@@@Z PROC ; ScriptImpClass::Sound_Heard, COMDAT
; _this$ = ecx

; 193  :   void Sound_Heard(GameObject *obj,const CombatSound & sound) {}

	push	ebp
	mov	ebp, esp
	sub	esp, 68					; 00000044H
	push	ebx
	push	esi
	push	edi
	mov	DWORD PTR _this$[ebp], ecx
	pop	edi
	pop	esi
	pop	ebx
	mov	esp, ebp
	pop	ebp
	ret	8
?Sound_Heard@ScriptImpClass@@UAEXPAVScriptableGameObj@@ABUCombatSound@@@Z ENDP ; ScriptImpClass::Sound_Heard
_TEXT	ENDS
; Function compile flags: /Odtp /ZI
; File x:\github\renegade\dragonade_rxd\scripts\scripts.h
;	COMDAT ?Custom@ScriptImpClass@@UAEXPAVScriptableGameObj@@HH0@Z
_TEXT	SEGMENT
_this$ = -4						; size = 4
_obj$ = 8						; size = 4
_type$ = 12						; size = 4
_param$ = 16						; size = 4
_sender$ = 20						; size = 4
?Custom@ScriptImpClass@@UAEXPAVScriptableGameObj@@HH0@Z PROC ; ScriptImpClass::Custom, COMDAT
; _this$ = ecx

; 184  :   void Custom(GameObject *obj,int type,int param,GameObject *sender) {}

	push	ebp
	mov	ebp, esp
	sub	esp, 68					; 00000044H
	push	ebx
	push	esi
	push	edi
	mov	DWORD PTR _this$[ebp], ecx
	pop	edi
	pop	esi
	pop	ebx
	mov	esp, ebp
	pop	ebp
	ret	16					; 00000010H
?Custom@ScriptImpClass@@UAEXPAVScriptableGameObj@@HH0@Z ENDP ; ScriptImpClass::Custom
_TEXT	ENDS
; Function compile flags: /Odtp /ZI
; File x:\github\renegade\dragonade_rxd\scripts\scripts.h
;	COMDAT ?Damaged@ScriptImpClass@@UAEXPAVScriptableGameObj@@0M@Z
_TEXT	SEGMENT
_this$ = -4						; size = 4
_obj$ = 8						; size = 4
_damager$ = 12						; size = 4
_amount$ = 16						; size = 4
?Damaged@ScriptImpClass@@UAEXPAVScriptableGameObj@@0M@Z PROC ; ScriptImpClass::Damaged, COMDAT
; _this$ = ecx

; 174  :   void Damaged(GameObject *obj,GameObject *damager,float amount) {}

	push	ebp
	mov	ebp, esp
	sub	esp, 68					; 00000044H
	push	ebx
	push	esi
	push	edi
	mov	DWORD PTR _this$[ebp], ecx
	pop	edi
	pop	esi
	pop	ebx
	mov	esp, ebp
	pop	ebp
	ret	12					; 0000000cH
?Damaged@ScriptImpClass@@UAEXPAVScriptableGameObj@@0M@Z ENDP ; ScriptImpClass::Damaged
_TEXT	ENDS
; Function compile flags: /Odtp /ZI
; File x:\github\renegade\dragonade_rxd\scripts\scripts.h
;	COMDAT ?Killed@ScriptImpClass@@UAEXPAVScriptableGameObj@@0@Z
_TEXT	SEGMENT
_this$ = -4						; size = 4
_obj$ = 8						; size = 4
_killer$ = 12						; size = 4
?Killed@ScriptImpClass@@UAEXPAVScriptableGameObj@@0@Z PROC ; ScriptImpClass::Killed, COMDAT
; _this$ = ecx

; 164  :   void Killed(GameObject *obj,GameObject *killer) {}

	push	ebp
	mov	ebp, esp
	sub	esp, 68					; 00000044H
	push	ebx
	push	esi
	push	edi
	mov	DWORD PTR _this$[ebp], ecx
	pop	edi
	pop	esi
	pop	ebx
	mov	esp, ebp
	pop	ebp
	ret	8
?Killed@ScriptImpClass@@UAEXPAVScriptableGameObj@@0@Z ENDP ; ScriptImpClass::Killed
_TEXT	ENDS
; Function compile flags: /Odtp /ZI
; File x:\github\renegade\dragonade_rxd\scripts\scripts.h
;	COMDAT ?Destroyed@ScriptImpClass@@UAEXPAVScriptableGameObj@@@Z
_TEXT	SEGMENT
_this$ = -4						; size = 4
_obj$ = 8						; size = 4
?Destroyed@ScriptImpClass@@UAEXPAVScriptableGameObj@@@Z PROC ; ScriptImpClass::Destroyed, COMDAT
; _this$ = ecx

; 155  :   void Destroyed(GameObject *obj) {}

	push	ebp
	mov	ebp, esp
	sub	esp, 68					; 00000044H
	push	ebx
	push	esi
	push	edi
	mov	DWORD PTR _this$[ebp], ecx
	pop	edi
	pop	esi
	pop	ebx
	mov	esp, ebp
	pop	ebp
	ret	4
?Destroyed@ScriptImpClass@@UAEXPAVScriptableGameObj@@@Z ENDP ; ScriptImpClass::Destroyed
_TEXT	ENDS
; Function compile flags: /Odtp /ZI
; File x:\github\renegade\dragonade_rxd\scripts\scripts.h
;	COMDAT ?Created@ScriptImpClass@@UAEXPAVScriptableGameObj@@@Z
_TEXT	SEGMENT
_this$ = -4						; size = 4
_obj$ = 8						; size = 4
?Created@ScriptImpClass@@UAEXPAVScriptableGameObj@@@Z PROC ; ScriptImpClass::Created, COMDAT
; _this$ = ecx

; 149  :   void Created(GameObject *obj) {}

	push	ebp
	mov	ebp, esp
	sub	esp, 68					; 00000044H
	push	ebx
	push	esi
	push	edi
	mov	DWORD PTR _this$[ebp], ecx
	pop	edi
	pop	esi
	pop	ebx
	mov	esp, ebp
	pop	ebp
	ret	4
?Created@ScriptImpClass@@UAEXPAVScriptableGameObj@@@Z ENDP ; ScriptImpClass::Created
_TEXT	ENDS
; Function compile flags: /Odtp /ZI
; File x:\github\renegade\dragonade_rxd\scripts\scripts.h
;	COMDAT ?SetFactory@ScriptImpClass@@QAEXPAVScriptFactory@@@Z
_TEXT	SEGMENT
_this$ = -4						; size = 4
_factory$ = 8						; size = 4
?SetFactory@ScriptImpClass@@QAEXPAVScriptFactory@@@Z PROC ; ScriptImpClass::SetFactory, COMDAT
; _this$ = ecx

; 136  : 	{

	push	ebp
	mov	ebp, esp
	sub	esp, 68					; 00000044H
	push	ebx
	push	esi
	push	edi
	mov	DWORD PTR _this$[ebp], ecx

; 137  : 		mFactory = factory;

	mov	eax, DWORD PTR _this$[ebp]
	mov	ecx, DWORD PTR _factory$[ebp]
	mov	DWORD PTR [eax+20], ecx

; 138  : 	}

	pop	edi
	pop	esi
	pop	ebx
	mov	esp, ebp
	pop	ebp
	ret	4
?SetFactory@ScriptImpClass@@QAEXPAVScriptFactory@@@Z ENDP ; ScriptImpClass::SetFactory
_TEXT	ENDS
; Function compile flags: /Odtp /ZI
;	COMDAT ??_EScriptClass@@UAEPAXI@Z
_TEXT	SEGMENT
_this$ = -4						; size = 4
___flags$ = 8						; size = 4
??_EScriptClass@@UAEPAXI@Z PROC				; ScriptClass::`vector deleting destructor', COMDAT
; _this$ = ecx
	push	ebp
	mov	ebp, esp
	sub	esp, 68					; 00000044H
	push	ebx
	push	esi
	push	edi
	mov	DWORD PTR _this$[ebp], ecx
	mov	eax, DWORD PTR ___flags$[ebp]
	and	eax, 2
	je	SHORT $LN3@vector
	push	OFFSET ??1ScriptClass@@UAE@XZ		; ScriptClass::~ScriptClass
	mov	eax, DWORD PTR _this$[ebp]
	mov	ecx, DWORD PTR [eax-4]
	push	ecx
	push	8
	mov	edx, DWORD PTR _this$[ebp]
	push	edx
	call	??_I@YGXPAXIHP6EX0@Z@Z
	mov	eax, DWORD PTR ___flags$[ebp]
	and	eax, 1
	je	SHORT $LN2@vector
	mov	eax, DWORD PTR _this$[ebp]
	sub	eax, 4
	push	eax
	call	??_V@YAXPAX@Z				; operator delete[]
	add	esp, 4
$LN2@vector:
	mov	eax, DWORD PTR _this$[ebp]
	sub	eax, 4
	jmp	SHORT $LN4@vector
$LN3@vector:
	mov	ecx, DWORD PTR _this$[ebp]
	call	??1ScriptClass@@UAE@XZ			; ScriptClass::~ScriptClass
	mov	eax, DWORD PTR ___flags$[ebp]
	and	eax, 1
	je	SHORT $LN1@vector
	mov	eax, DWORD PTR _this$[ebp]
	push	eax
	call	??3@YAXPAX@Z				; operator delete
	add	esp, 4
$LN1@vector:
	mov	eax, DWORD PTR _this$[ebp]
$LN4@vector:
	pop	edi
	pop	esi
	pop	ebx
	mov	esp, ebp
	pop	ebp
	ret	4
??_EScriptClass@@UAEPAXI@Z ENDP				; ScriptClass::`vector deleting destructor'
_TEXT	ENDS
; Function compile flags: /Odtp /ZI
;	COMDAT ??_GScriptClass@@UAEPAXI@Z
_TEXT	SEGMENT
_this$ = -4						; size = 4
___flags$ = 8						; size = 4
??_GScriptClass@@UAEPAXI@Z PROC				; ScriptClass::`scalar deleting destructor', COMDAT
; _this$ = ecx
	push	ebp
	mov	ebp, esp
	sub	esp, 68					; 00000044H
	push	ebx
	push	esi
	push	edi
	mov	DWORD PTR _this$[ebp], ecx
	mov	ecx, DWORD PTR _this$[ebp]
	call	??1ScriptClass@@UAE@XZ			; ScriptClass::~ScriptClass
	mov	eax, DWORD PTR ___flags$[ebp]
	and	eax, 1
	je	SHORT $LN1@scalar
	mov	eax, DWORD PTR _this$[ebp]
	push	eax
	call	??3@YAXPAX@Z				; operator delete
	add	esp, 4
$LN1@scalar:
	mov	eax, DWORD PTR _this$[ebp]
	pop	edi
	pop	esi
	pop	ebx
	mov	esp, ebp
	pop	ebp
	ret	4
??_GScriptClass@@UAEPAXI@Z ENDP				; ScriptClass::`scalar deleting destructor'
_TEXT	ENDS
; Function compile flags: /Odtp /ZI
;	COMDAT ??4ScriptClass@@QAEAAV0@ABV0@@Z
_TEXT	SEGMENT
_this$ = -4						; size = 4
___that$ = 8						; size = 4
??4ScriptClass@@QAEAAV0@ABV0@@Z PROC			; ScriptClass::operator=, COMDAT
; _this$ = ecx
	push	ebp
	mov	ebp, esp
	sub	esp, 68					; 00000044H
	push	ebx
	push	esi
	push	edi
	mov	DWORD PTR _this$[ebp], ecx
	mov	eax, DWORD PTR ___that$[ebp]
	push	eax
	mov	ecx, DWORD PTR _this$[ebp]
	call	??4GameObjObserverClass@@QAEAAV0@ABV0@@Z
	mov	eax, DWORD PTR _this$[ebp]
	pop	edi
	pop	esi
	pop	ebx
	mov	esp, ebp
	pop	ebp
	ret	4
??4ScriptClass@@QAEAAV0@ABV0@@Z ENDP			; ScriptClass::operator=
_TEXT	ENDS
; Function compile flags: /Odtp /ZI
;	COMDAT ??0ScriptClass@@QAE@ABV0@@Z
_TEXT	SEGMENT
_this$ = -4						; size = 4
___that$ = 8						; size = 4
??0ScriptClass@@QAE@ABV0@@Z PROC			; ScriptClass::ScriptClass, COMDAT
; _this$ = ecx
	push	ebp
	mov	ebp, esp
	sub	esp, 68					; 00000044H
	push	ebx
	push	esi
	push	edi
	mov	DWORD PTR _this$[ebp], ecx
	mov	eax, DWORD PTR ___that$[ebp]
	push	eax
	mov	ecx, DWORD PTR _this$[ebp]
	call	??0GameObjObserverClass@@QAE@ABV0@@Z
	mov	eax, DWORD PTR _this$[ebp]
	mov	DWORD PTR [eax], OFFSET ??_7ScriptClass@@6B@
	mov	eax, DWORD PTR _this$[ebp]
	pop	edi
	pop	esi
	pop	ebx
	mov	esp, ebp
	pop	ebp
	ret	4
??0ScriptClass@@QAE@ABV0@@Z ENDP			; ScriptClass::ScriptClass
_TEXT	ENDS
; Function compile flags: /Odtp /ZI
;	COMDAT ??0ScriptClass@@QAE@XZ
_TEXT	SEGMENT
_this$ = -4						; size = 4
??0ScriptClass@@QAE@XZ PROC				; ScriptClass::ScriptClass, COMDAT
; _this$ = ecx
	push	ebp
	mov	ebp, esp
	sub	esp, 68					; 00000044H
	push	ebx
	push	esi
	push	edi
	mov	DWORD PTR _this$[ebp], ecx
	mov	ecx, DWORD PTR _this$[ebp]
	call	??0GameObjObserverClass@@QAE@XZ		; GameObjObserverClass::GameObjObserverClass
	mov	eax, DWORD PTR _this$[ebp]
	mov	DWORD PTR [eax], OFFSET ??_7ScriptClass@@6B@
	mov	eax, DWORD PTR _this$[ebp]
	pop	edi
	pop	esi
	pop	ebx
	mov	esp, ebp
	pop	ebp
	ret	0
??0ScriptClass@@QAE@XZ ENDP				; ScriptClass::ScriptClass
_TEXT	ENDS
; Function compile flags: /Odtp /ZI
; File x:\github\renegade\dragonade_rxd\scripts\scripts.h
;	COMDAT ??1ScriptClass@@UAE@XZ
_TEXT	SEGMENT
_this$ = -4						; size = 4
??1ScriptClass@@UAE@XZ PROC				; ScriptClass::~ScriptClass, COMDAT
; _this$ = ecx

; 124  : 	virtual ~ScriptClass() {}

	push	ebp
	mov	ebp, esp
	sub	esp, 68					; 00000044H
	push	ebx
	push	esi
	push	edi
	mov	DWORD PTR _this$[ebp], ecx
	mov	eax, DWORD PTR _this$[ebp]
	mov	DWORD PTR [eax], OFFSET ??_7ScriptClass@@6B@
	mov	ecx, DWORD PTR _this$[ebp]
	call	??1GameObjObserverClass@@UAE@XZ		; GameObjObserverClass::~GameObjObserverClass
	pop	edi
	pop	esi
	pop	ebx
	mov	esp, ebp
	pop	ebp
	ret	0
??1ScriptClass@@UAE@XZ ENDP				; ScriptClass::~ScriptClass
_TEXT	ENDS
; Function compile flags: /Odtp /ZI
;	COMDAT ??_EGameObjObserverClass@@UAEPAXI@Z
_TEXT	SEGMENT
_this$ = -4						; size = 4
___flags$ = 8						; size = 4
??_EGameObjObserverClass@@UAEPAXI@Z PROC		; GameObjObserverClass::`vector deleting destructor', COMDAT
; _this$ = ecx
	push	ebp
	mov	ebp, esp
	sub	esp, 68					; 00000044H
	push	ebx
	push	esi
	push	edi
	mov	DWORD PTR _this$[ebp], ecx
	mov	eax, DWORD PTR ___flags$[ebp]
	and	eax, 2
	je	SHORT $LN3@vector
	push	OFFSET ??1GameObjObserverClass@@UAE@XZ	; GameObjObserverClass::~GameObjObserverClass
	mov	eax, DWORD PTR _this$[ebp]
	mov	ecx, DWORD PTR [eax-4]
	push	ecx
	push	8
	mov	edx, DWORD PTR _this$[ebp]
	push	edx
	call	??_I@YGXPAXIHP6EX0@Z@Z
	mov	eax, DWORD PTR ___flags$[ebp]
	and	eax, 1
	je	SHORT $LN2@vector
	mov	eax, DWORD PTR _this$[ebp]
	sub	eax, 4
	push	eax
	call	??_V@YAXPAX@Z				; operator delete[]
	add	esp, 4
$LN2@vector:
	mov	eax, DWORD PTR _this$[ebp]
	sub	eax, 4
	jmp	SHORT $LN4@vector
$LN3@vector:
	mov	ecx, DWORD PTR _this$[ebp]
	call	??1GameObjObserverClass@@UAE@XZ		; GameObjObserverClass::~GameObjObserverClass
	mov	eax, DWORD PTR ___flags$[ebp]
	and	eax, 1
	je	SHORT $LN1@vector
	mov	eax, DWORD PTR _this$[ebp]
	push	eax
	call	??3@YAXPAX@Z				; operator delete
	add	esp, 4
$LN1@vector:
	mov	eax, DWORD PTR _this$[ebp]
$LN4@vector:
	pop	edi
	pop	esi
	pop	ebx
	mov	esp, ebp
	pop	ebp
	ret	4
??_EGameObjObserverClass@@UAEPAXI@Z ENDP		; GameObjObserverClass::`vector deleting destructor'
_TEXT	ENDS
; Function compile flags: /Odtp /ZI
;	COMDAT ??_GGameObjObserverClass@@UAEPAXI@Z
_TEXT	SEGMENT
_this$ = -4						; size = 4
___flags$ = 8						; size = 4
??_GGameObjObserverClass@@UAEPAXI@Z PROC		; GameObjObserverClass::`scalar deleting destructor', COMDAT
; _this$ = ecx
	push	ebp
	mov	ebp, esp
	sub	esp, 68					; 00000044H
	push	ebx
	push	esi
	push	edi
	mov	DWORD PTR _this$[ebp], ecx
	mov	ecx, DWORD PTR _this$[ebp]
	call	??1GameObjObserverClass@@UAE@XZ		; GameObjObserverClass::~GameObjObserverClass
	mov	eax, DWORD PTR ___flags$[ebp]
	and	eax, 1
	je	SHORT $LN1@scalar
	mov	eax, DWORD PTR _this$[ebp]
	push	eax
	call	??3@YAXPAX@Z				; operator delete
	add	esp, 4
$LN1@scalar:
	mov	eax, DWORD PTR _this$[ebp]
	pop	edi
	pop	esi
	pop	ebx
	mov	esp, ebp
	pop	ebp
	ret	4
??_GGameObjObserverClass@@UAEPAXI@Z ENDP		; GameObjObserverClass::`scalar deleting destructor'
_TEXT	ENDS
; Function compile flags: /Odtp /ZI
;	COMDAT ??4GameObjObserverClass@@QAEAAV0@ABV0@@Z
_TEXT	SEGMENT
_this$ = -4						; size = 4
___that$ = 8						; size = 4
??4GameObjObserverClass@@QAEAAV0@ABV0@@Z PROC		; GameObjObserverClass::operator=, COMDAT
; _this$ = ecx
	push	ebp
	mov	ebp, esp
	sub	esp, 68					; 00000044H
	push	ebx
	push	esi
	push	edi
	mov	DWORD PTR _this$[ebp], ecx
	mov	eax, DWORD PTR _this$[ebp]
	mov	ecx, DWORD PTR ___that$[ebp]
	mov	edx, DWORD PTR [ecx+4]
	mov	DWORD PTR [eax+4], edx
	mov	eax, DWORD PTR _this$[ebp]
	pop	edi
	pop	esi
	pop	ebx
	mov	esp, ebp
	pop	ebp
	ret	4
??4GameObjObserverClass@@QAEAAV0@ABV0@@Z ENDP		; GameObjObserverClass::operator=
_TEXT	ENDS
; Function compile flags: /Odtp /ZI
;	COMDAT ??0GameObjObserverClass@@QAE@ABV0@@Z
_TEXT	SEGMENT
_this$ = -4						; size = 4
___that$ = 8						; size = 4
??0GameObjObserverClass@@QAE@ABV0@@Z PROC		; GameObjObserverClass::GameObjObserverClass, COMDAT
; _this$ = ecx
	push	ebp
	mov	ebp, esp
	sub	esp, 68					; 00000044H
	push	ebx
	push	esi
	push	edi
	mov	DWORD PTR _this$[ebp], ecx
	mov	eax, DWORD PTR _this$[ebp]
	mov	DWORD PTR [eax], OFFSET ??_7GameObjObserverClass@@6B@
	mov	eax, DWORD PTR _this$[ebp]
	mov	ecx, DWORD PTR ___that$[ebp]
	mov	edx, DWORD PTR [ecx+4]
	mov	DWORD PTR [eax+4], edx
	mov	eax, DWORD PTR _this$[ebp]
	pop	edi
	pop	esi
	pop	ebx
	mov	esp, ebp
	pop	ebp
	ret	4
??0GameObjObserverClass@@QAE@ABV0@@Z ENDP		; GameObjObserverClass::GameObjObserverClass
_TEXT	ENDS
; Function compile flags: /Odtp /ZI
; File x:\github\renegade\dragonade_rxd\scripts\scripts.h
;	COMDAT ?Owner@GameObjObserverClass@@UAEPAVScriptableGameObj@@XZ
_TEXT	SEGMENT
_this$ = -4						; size = 4
?Owner@GameObjObserverClass@@UAEPAVScriptableGameObj@@XZ PROC ; GameObjObserverClass::Owner, COMDAT
; _this$ = ecx

; 117  : 	virtual GameObject* Owner() {return 0;}

	push	ebp
	mov	ebp, esp
	sub	esp, 68					; 00000044H
	push	ebx
	push	esi
	push	edi
	mov	DWORD PTR _this$[ebp], ecx
	xor	eax, eax
	pop	edi
	pop	esi
	pop	ebx
	mov	esp, ebp
	pop	ebp
	ret	0
?Owner@GameObjObserverClass@@UAEPAVScriptableGameObj@@XZ ENDP ; GameObjObserverClass::Owner
_TEXT	ENDS
; Function compile flags: /Odtp /ZI
; File x:\github\renegade\dragonade_rxd\scripts\scripts.h
;	COMDAT ?Get_ID@GameObjObserverClass@@QAEHXZ
_TEXT	SEGMENT
_this$ = -4						; size = 4
?Get_ID@GameObjObserverClass@@QAEHXZ PROC		; GameObjObserverClass::Get_ID, COMDAT
; _this$ = ecx

; 99   : 	{

	push	ebp
	mov	ebp, esp
	sub	esp, 68					; 00000044H
	push	ebx
	push	esi
	push	edi
	mov	DWORD PTR _this$[ebp], ecx

; 100  : 		return ID;

	mov	eax, DWORD PTR _this$[ebp]
	mov	eax, DWORD PTR [eax+4]

; 101  : 	}

	pop	edi
	pop	esi
	pop	ebx
	mov	esp, ebp
	pop	ebp
	ret	0
?Get_ID@GameObjObserverClass@@QAEHXZ ENDP		; GameObjObserverClass::Get_ID
_TEXT	ENDS
; Function compile flags: /Odtp /ZI
; File x:\github\renegade\dragonade_rxd\scripts\scripts.h
;	COMDAT ?Set_ID@GameObjObserverClass@@QAEXH@Z
_TEXT	SEGMENT
_this$ = -4						; size = 4
_id$ = 8						; size = 4
?Set_ID@GameObjObserverClass@@QAEXH@Z PROC		; GameObjObserverClass::Set_ID, COMDAT
; _this$ = ecx

; 95   : 	{

	push	ebp
	mov	ebp, esp
	sub	esp, 68					; 00000044H
	push	ebx
	push	esi
	push	edi
	mov	DWORD PTR _this$[ebp], ecx

; 96   : 		ID = id;

	mov	eax, DWORD PTR _this$[ebp]
	mov	ecx, DWORD PTR _id$[ebp]
	mov	DWORD PTR [eax+4], ecx

; 97   : 	}

	pop	edi
	pop	esi
	pop	ebx
	mov	esp, ebp
	pop	ebp
	ret	4
?Set_ID@GameObjObserverClass@@QAEXH@Z ENDP		; GameObjObserverClass::Set_ID
_TEXT	ENDS
; Function compile flags: /Odtp /ZI
; File x:\github\renegade\dragonade_rxd\scripts\scripts.h
;	COMDAT ??1GameObjObserverClass@@UAE@XZ
_TEXT	SEGMENT
_this$ = -4						; size = 4
??1GameObjObserverClass@@UAE@XZ PROC			; GameObjObserverClass::~GameObjObserverClass, COMDAT
; _this$ = ecx

; 92   : 	virtual	~GameObjObserverClass() {}

	push	ebp
	mov	ebp, esp
	sub	esp, 68					; 00000044H
	push	ebx
	push	esi
	push	edi
	mov	DWORD PTR _this$[ebp], ecx
	mov	eax, DWORD PTR _this$[ebp]
	mov	DWORD PTR [eax], OFFSET ??_7GameObjObserverClass@@6B@
	pop	edi
	pop	esi
	pop	ebx
	mov	esp, ebp
	pop	ebp
	ret	0
??1GameObjObserverClass@@UAE@XZ ENDP			; GameObjObserverClass::~GameObjObserverClass
_TEXT	ENDS
; Function compile flags: /Odtp /ZI
; File x:\github\renegade\dragonade_rxd\scripts\scripts.h
;	COMDAT ??0GameObjObserverClass@@QAE@XZ
_TEXT	SEGMENT
_this$ = -4						; size = 4
??0GameObjObserverClass@@QAE@XZ PROC			; GameObjObserverClass::GameObjObserverClass, COMDAT
; _this$ = ecx

; 91   : 	GameObjObserverClass() : ID( 0 ) {}

	push	ebp
	mov	ebp, esp
	sub	esp, 68					; 00000044H
	push	ebx
	push	esi
	push	edi
	mov	DWORD PTR _this$[ebp], ecx
	mov	eax, DWORD PTR _this$[ebp]
	mov	DWORD PTR [eax], OFFSET ??_7GameObjObserverClass@@6B@
	mov	eax, DWORD PTR _this$[ebp]
	mov	DWORD PTR [eax+4], 0
	mov	eax, DWORD PTR _this$[ebp]
	pop	edi
	pop	esi
	pop	ebx
	mov	esp, ebp
	pop	ebp
	ret	0
??0GameObjObserverClass@@QAE@XZ ENDP			; GameObjObserverClass::GameObjObserverClass
_TEXT	ENDS
; Function compile flags: /Odtp /ZI
; File x:\github\renegade\dragonade_rxd\scripts\vector3.h
;	COMDAT ??0Vector3@@QAE@ABV0@@Z
_TEXT	SEGMENT
_this$ = -4						; size = 4
_v$ = 8							; size = 4
??0Vector3@@QAE@ABV0@@Z PROC				; Vector3::Vector3, COMDAT
; _this$ = ecx

; 27   : 	TT_INLINE Vector3(const Vector3 &v)

	push	ebp
	mov	ebp, esp
	sub	esp, 68					; 00000044H
	push	ebx
	push	esi
	push	edi
	mov	DWORD PTR _this$[ebp], ecx

; 28   : 	{
; 29   : 		X = v.X;

	mov	eax, DWORD PTR _this$[ebp]
	mov	ecx, DWORD PTR _v$[ebp]
	mov	edx, DWORD PTR [ecx]
	mov	DWORD PTR [eax], edx

; 30   : 		Y = v.Y;

	mov	eax, DWORD PTR _this$[ebp]
	mov	ecx, DWORD PTR _v$[ebp]
	mov	edx, DWORD PTR [ecx+4]
	mov	DWORD PTR [eax+4], edx

; 31   : 		Z = v.Z;

	mov	eax, DWORD PTR _this$[ebp]
	mov	ecx, DWORD PTR _v$[ebp]
	mov	edx, DWORD PTR [ecx+8]
	mov	DWORD PTR [eax+8], edx

; 32   : 	}

	mov	eax, DWORD PTR _this$[ebp]
	pop	edi
	pop	esi
	pop	ebx
	mov	esp, ebp
	pop	ebp
	ret	4
??0Vector3@@QAE@ABV0@@Z ENDP				; Vector3::Vector3
_TEXT	ENDS
; Function compile flags: /Odtp /ZI
; File x:\github\renegade\dragonade_rxd\scripts\defines.h
;	COMDAT ??B?$RefArrayHelper@M$0EAA@@@QAEPAMXZ
_TEXT	SEGMENT
_this$ = -4						; size = 4
??B?$RefArrayHelper@M$0EAA@@@QAEPAMXZ PROC		; RefArrayHelper<float,1024>::operator float *, COMDAT
; _this$ = ecx

; 161  : 	{

	push	ebp
	mov	ebp, esp
	sub	esp, 68					; 00000044H
	push	ebx
	push	esi
	push	edi
	mov	DWORD PTR _this$[ebp], ecx

; 162  : 		return (T*) this;

	mov	eax, DWORD PTR _this$[ebp]

; 163  : 	};

	pop	edi
	pop	esi
	pop	ebx
	mov	esp, ebp
	pop	ebp
	ret	0
??B?$RefArrayHelper@M$0EAA@@@QAEPAMXZ ENDP		; RefArrayHelper<float,1024>::operator float *
_TEXT	ENDS
; Function compile flags: /Odtp /ZI
;	COMDAT ??4WWMath@@QAEAAV0@ABV0@@Z
_TEXT	SEGMENT
_this$ = -4						; size = 4
___that$ = 8						; size = 4
??4WWMath@@QAEAAV0@ABV0@@Z PROC				; WWMath::operator=, COMDAT
; _this$ = ecx
	push	ebp
	mov	ebp, esp
	sub	esp, 68					; 00000044H
	push	ebx
	push	esi
	push	edi
	mov	DWORD PTR _this$[ebp], ecx
	mov	eax, DWORD PTR _this$[ebp]
	pop	edi
	pop	esi
	pop	ebx
	mov	esp, ebp
	pop	ebp
	ret	4
??4WWMath@@QAEAAV0@ABV0@@Z ENDP				; WWMath::operator=
_TEXT	ENDS
; Function compile flags: /Odtp /ZI
; File x:\github\renegade\dragonade_rxd\scripts\wwmath.h
;	COMDAT ?Is_Valid_Double@WWMath@@SA_NN@Z
_TEXT	SEGMENT
_exponent$ = -8						; size = 4
_plong$ = -4						; size = 4
_x$ = 8							; size = 8
?Is_Valid_Double@WWMath@@SA_NN@Z PROC			; WWMath::Is_Valid_Double, COMDAT

; 207  : {

	push	ebp
	mov	ebp, esp
	sub	esp, 72					; 00000048H
	push	ebx
	push	esi
	push	edi

; 208  : 	unsigned long * plong = (unsigned long *)(&x) + 1;

	lea	eax, DWORD PTR _x$[ebp+4]
	mov	DWORD PTR _plong$[ebp], eax

; 209  : 	unsigned long exponent = ((*plong) & 0x7FF00000) >> (32-12);

	mov	eax, DWORD PTR _plong$[ebp]
	mov	ecx, DWORD PTR [eax]
	and	ecx, 2146435072				; 7ff00000H
	shr	ecx, 20					; 00000014H
	mov	DWORD PTR _exponent$[ebp], ecx

; 210  : 	if (exponent == 0x7FF) {

	cmp	DWORD PTR _exponent$[ebp], 2047		; 000007ffH
	jne	SHORT $LN1@Is_Valid_D

; 211  : 		return false;

	xor	al, al
	jmp	SHORT $LN2@Is_Valid_D
$LN1@Is_Valid_D:

; 212  : 	}
; 213  : 	return true;

	mov	al, 1
$LN2@Is_Valid_D:

; 214  : }

	pop	edi
	pop	esi
	pop	ebx
	mov	esp, ebp
	pop	ebp
	ret	0
?Is_Valid_Double@WWMath@@SA_NN@Z ENDP			; WWMath::Is_Valid_Double
_TEXT	ENDS
; Function compile flags: /Odtp /ZI
; File x:\github\renegade\dragonade_rxd\scripts\wwmath.h
;	COMDAT ?Is_Valid_Float@WWMath@@SA_NM@Z
_TEXT	SEGMENT
_exponent$ = -8						; size = 4
_plong$ = -4						; size = 4
_x$ = 8							; size = 4
?Is_Valid_Float@WWMath@@SA_NM@Z PROC			; WWMath::Is_Valid_Float, COMDAT

; 197  : {

	push	ebp
	mov	ebp, esp
	sub	esp, 72					; 00000048H
	push	ebx
	push	esi
	push	edi

; 198  : 	unsigned long * plong = (unsigned long *)(&x);

	lea	eax, DWORD PTR _x$[ebp]
	mov	DWORD PTR _plong$[ebp], eax

; 199  : 	unsigned long exponent = ((*plong) & 0x7F800000) >> (32-9);

	mov	eax, DWORD PTR _plong$[ebp]
	mov	ecx, DWORD PTR [eax]
	and	ecx, 2139095040				; 7f800000H
	shr	ecx, 23					; 00000017H
	mov	DWORD PTR _exponent$[ebp], ecx

; 200  : 	if (exponent == 0xFF) {

	cmp	DWORD PTR _exponent$[ebp], 255		; 000000ffH
	jne	SHORT $LN1@Is_Valid_F

; 201  : 		return false;

	xor	al, al
	jmp	SHORT $LN2@Is_Valid_F
$LN1@Is_Valid_F:

; 202  : 	}
; 203  : 	return true;

	mov	al, 1
$LN2@Is_Valid_F:

; 204  : }

	pop	edi
	pop	esi
	pop	ebx
	mov	esp, ebp
	pop	ebp
	ret	0
?Is_Valid_Float@WWMath@@SA_NM@Z ENDP			; WWMath::Is_Valid_Float
_TEXT	ENDS
; Function compile flags: /Odtp /ZI
; File x:\github\renegade\dragonade_rxd\scripts\wwmath.h
;	COMDAT ?Byte_To_Unit_Float@WWMath@@SAME@Z
_TEXT	SEGMENT
tv69 = -68						; size = 4
_byte$ = 8						; size = 1
?Byte_To_Unit_Float@WWMath@@SAME@Z PROC			; WWMath::Byte_To_Unit_Float, COMDAT

; 97   : 	static float Byte_To_Unit_Float(unsigned char byte) { return ((float)byte) / 255.0f; }

	push	ebp
	mov	ebp, esp
	sub	esp, 68					; 00000044H
	push	ebx
	push	esi
	push	edi
	movzx	eax, BYTE PTR _byte$[ebp]
	cvtsi2ss xmm0, eax
	divss	xmm0, DWORD PTR __real@437f0000
	movss	DWORD PTR tv69[ebp], xmm0
	fld	DWORD PTR tv69[ebp]
	pop	edi
	pop	esi
	pop	ebx
	mov	esp, ebp
	pop	ebp
	ret	0
?Byte_To_Unit_Float@WWMath@@SAME@Z ENDP			; WWMath::Byte_To_Unit_Float
_TEXT	ENDS
; Function compile flags: /Odtp /ZI
; File x:\github\renegade\dragonade_rxd\scripts\wwmath.h
;	COMDAT ?Unit_Float_To_Byte@WWMath@@SAEM@Z
_TEXT	SEGMENT
_f$ = 8							; size = 4
?Unit_Float_To_Byte@WWMath@@SAEM@Z PROC			; WWMath::Unit_Float_To_Byte, COMDAT

; 96   : 	static unsigned char Unit_Float_To_Byte(float f) { return (unsigned char)(f*255.0f); }

	push	ebp
	mov	ebp, esp
	sub	esp, 64					; 00000040H
	push	ebx
	push	esi
	push	edi
	movss	xmm0, DWORD PTR _f$[ebp]
	mulss	xmm0, DWORD PTR __real@437f0000
	cvttss2si eax, xmm0
	pop	edi
	pop	esi
	pop	ebx
	mov	esp, ebp
	pop	ebp
	ret	0
?Unit_Float_To_Byte@WWMath@@SAEM@Z ENDP			; WWMath::Unit_Float_To_Byte
_TEXT	ENDS
; Function compile flags: /Odtp /ZI
; File x:\github\renegade\dragonade_rxd\scripts\wwmath.h
;	COMDAT ?Float_To_Long@WWMath@@SAJN@Z
_TEXT	SEGMENT
$T1 = -80						; size = 16
_f$ = 8							; size = 8
?Float_To_Long@WWMath@@SAJN@Z PROC			; WWMath::Float_To_Long, COMDAT

; 222  : {

	push	ebx
	mov	ebx, esp
	sub	esp, 8
	and	esp, -16				; fffffff0H
	add	esp, 4
	push	ebp
	mov	ebp, DWORD PTR [ebx+4]
	mov	DWORD PTR [esp+4], ebp
	mov	ebp, esp
	sub	esp, 88					; 00000058H
	push	esi
	push	edi

; 223  :     return _mm_cvttsd_si32(_mm_load_pd(&f));

	movupd	xmm0, XMMWORD PTR _f$[ebx]
	movapd	XMMWORD PTR $T1[ebp], xmm0
	movapd	xmm0, XMMWORD PTR $T1[ebp]
	cvttsd2si eax, xmm0

; 224  : }

	pop	edi
	pop	esi
	mov	esp, ebp
	pop	ebp
	mov	esp, ebx
	pop	ebx
	ret	0
?Float_To_Long@WWMath@@SAJN@Z ENDP			; WWMath::Float_To_Long
_TEXT	ENDS
; Function compile flags: /Odtp /ZI
; File x:\github\renegade\dragonade_rxd\scripts\wwmath.h
;	COMDAT ?Lerp@WWMath@@SAHHHM@Z
_TEXT	SEGMENT
_a$ = 8							; size = 4
_b$ = 12						; size = 4
_lerp$ = 16						; size = 4
?Lerp@WWMath@@SAHHHM@Z PROC				; WWMath::Lerp, COMDAT

; 192  : {

	push	ebp
	mov	ebp, esp
	sub	esp, 64					; 00000040H
	push	ebx
	push	esi
	push	edi

; 193  : 	return (a + (int)((b - a)*lerp));

	mov	eax, DWORD PTR _b$[ebp]
	sub	eax, DWORD PTR _a$[ebp]
	cvtsi2ss xmm0, eax
	mulss	xmm0, DWORD PTR _lerp$[ebp]
	cvttss2si eax, xmm0
	add	eax, DWORD PTR _a$[ebp]

; 194  : }

	pop	edi
	pop	esi
	pop	ebx
	mov	esp, ebp
	pop	ebp
	ret	0
?Lerp@WWMath@@SAHHHM@Z ENDP				; WWMath::Lerp
_TEXT	ENDS
; Function compile flags: /Odtp /ZI
; File x:\github\renegade\dragonade_rxd\scripts\wwmath.h
;	COMDAT ?Lerp@WWMath@@SANNNM@Z
_TEXT	SEGMENT
tv73 = -72						; size = 8
_a$ = 8							; size = 8
_b$ = 16						; size = 8
_lerp$ = 24						; size = 4
?Lerp@WWMath@@SANNNM@Z PROC				; WWMath::Lerp, COMDAT

; 187  : {

	push	ebp
	mov	ebp, esp
	sub	esp, 72					; 00000048H
	push	ebx
	push	esi
	push	edi

; 188  : 	return (a + (b - a)*lerp);

	movsd	xmm0, QWORD PTR _b$[ebp]
	subsd	xmm0, QWORD PTR _a$[ebp]
	cvtss2sd xmm1, DWORD PTR _lerp$[ebp]
	mulsd	xmm0, xmm1
	addsd	xmm0, QWORD PTR _a$[ebp]
	movsd	QWORD PTR tv73[ebp], xmm0
	fld	QWORD PTR tv73[ebp]

; 189  : }

	pop	edi
	pop	esi
	pop	ebx
	mov	esp, ebp
	pop	ebp
	ret	0
?Lerp@WWMath@@SANNNM@Z ENDP				; WWMath::Lerp
_TEXT	ENDS
; Function compile flags: /Odtp /ZI
; File x:\github\renegade\dragonade_rxd\scripts\wwmath.h
;	COMDAT ?Lerp@WWMath@@SAMMMM@Z
_TEXT	SEGMENT
tv72 = -68						; size = 4
_a$ = 8							; size = 4
_b$ = 12						; size = 4
_lerp$ = 16						; size = 4
?Lerp@WWMath@@SAMMMM@Z PROC				; WWMath::Lerp, COMDAT

; 182  : {

	push	ebp
	mov	ebp, esp
	sub	esp, 68					; 00000044H
	push	ebx
	push	esi
	push	edi

; 183  : 	return (a + (b - a)*lerp);

	movss	xmm0, DWORD PTR _b$[ebp]
	subss	xmm0, DWORD PTR _a$[ebp]
	mulss	xmm0, DWORD PTR _lerp$[ebp]
	addss	xmm0, DWORD PTR _a$[ebp]
	movss	DWORD PTR tv72[ebp], xmm0
	fld	DWORD PTR tv72[ebp]

; 184  : }

	pop	edi
	pop	esi
	pop	ebx
	mov	esp, ebp
	pop	ebp
	ret	0
?Lerp@WWMath@@SAMMMM@Z ENDP				; WWMath::Lerp
_TEXT	ENDS
; Function compile flags: /Odtp /ZI
; File x:\github\renegade\dragonade_rxd\scripts\wwmath.h
;	COMDAT ?Max@WWMath@@SAMMM@Z
_TEXT	SEGMENT
_a$ = 8							; size = 4
_b$ = 12						; size = 4
?Max@WWMath@@SAMMM@Z PROC				; WWMath::Max, COMDAT

; 176  : {

	push	ebp
	mov	ebp, esp
	sub	esp, 64					; 00000040H
	push	ebx
	push	esi
	push	edi

; 177  : 	if (a>b) return a;

	movss	xmm0, DWORD PTR _a$[ebp]
	comiss	xmm0, DWORD PTR _b$[ebp]
	jbe	SHORT $LN1@Max
	fld	DWORD PTR _a$[ebp]
	jmp	SHORT $LN2@Max
$LN1@Max:

; 178  : 	return b;

	fld	DWORD PTR _b$[ebp]
$LN2@Max:

; 179  : }

	pop	edi
	pop	esi
	pop	ebx
	mov	esp, ebp
	pop	ebp
	ret	0
?Max@WWMath@@SAMMM@Z ENDP				; WWMath::Max
_TEXT	ENDS
; Function compile flags: /Odtp /ZI
; File x:\github\renegade\dragonade_rxd\scripts\wwmath.h
;	COMDAT ?Min@WWMath@@SAMMM@Z
_TEXT	SEGMENT
_a$ = 8							; size = 4
_b$ = 12						; size = 4
?Min@WWMath@@SAMMM@Z PROC				; WWMath::Min, COMDAT

; 170  : {

	push	ebp
	mov	ebp, esp
	sub	esp, 64					; 00000040H
	push	ebx
	push	esi
	push	edi

; 171  : 	if (a<b) return a;

	movss	xmm0, DWORD PTR _b$[ebp]
	comiss	xmm0, DWORD PTR _a$[ebp]
	jbe	SHORT $LN1@Min
	fld	DWORD PTR _a$[ebp]
	jmp	SHORT $LN2@Min
$LN1@Min:

; 172  : 	return b;

	fld	DWORD PTR _b$[ebp]
$LN2@Min:

; 173  : }

	pop	edi
	pop	esi
	pop	ebx
	mov	esp, ebp
	pop	ebp
	ret	0
?Min@WWMath@@SAMMM@Z ENDP				; WWMath::Min
_TEXT	ENDS
; Function compile flags: /Odtp /ZI
; File x:\github\renegade\dragonade_rxd\scripts\wwmath.h
;	COMDAT ?Wrap@WWMath@@SANNNN@Z
_TEXT	SEGMENT
_val$ = 8						; size = 8
_min$ = 16						; size = 8
_max$ = 24						; size = 8
?Wrap@WWMath@@SANNNN@Z PROC				; WWMath::Wrap, COMDAT

; 157  : {

	push	ebp
	mov	ebp, esp
	sub	esp, 64					; 00000040H
	push	ebx
	push	esi
	push	edi

; 158  : 	if ( val >= max )	val -= (max-min);

	movsd	xmm0, QWORD PTR _val$[ebp]
	comisd	xmm0, QWORD PTR _max$[ebp]
	jb	SHORT $LN4@Wrap
	movsd	xmm0, QWORD PTR _max$[ebp]
	subsd	xmm0, QWORD PTR _min$[ebp]
	movsd	xmm1, QWORD PTR _val$[ebp]
	subsd	xmm1, xmm0
	movsd	QWORD PTR _val$[ebp], xmm1
$LN4@Wrap:

; 159  : 	if ( val < min )	val += (max-min);

	movsd	xmm0, QWORD PTR _min$[ebp]
	comisd	xmm0, QWORD PTR _val$[ebp]
	jbe	SHORT $LN3@Wrap
	movsd	xmm0, QWORD PTR _max$[ebp]
	subsd	xmm0, QWORD PTR _min$[ebp]
	addsd	xmm0, QWORD PTR _val$[ebp]
	movsd	QWORD PTR _val$[ebp], xmm0
$LN3@Wrap:

; 160  : 	if ( val < min ) {

	movsd	xmm0, QWORD PTR _min$[ebp]
	comisd	xmm0, QWORD PTR _val$[ebp]
	jbe	SHORT $LN2@Wrap

; 161  : 		val = min;

	movsd	xmm0, QWORD PTR _min$[ebp]
	movsd	QWORD PTR _val$[ebp], xmm0
$LN2@Wrap:

; 162  : 	}
; 163  : 	if ( val > max ) {

	movsd	xmm0, QWORD PTR _val$[ebp]
	comisd	xmm0, QWORD PTR _max$[ebp]
	jbe	SHORT $LN1@Wrap

; 164  : 		val = max;

	movsd	xmm0, QWORD PTR _max$[ebp]
	movsd	QWORD PTR _val$[ebp], xmm0
$LN1@Wrap:

; 165  : 	}
; 166  : 	return val;

	fld	QWORD PTR _val$[ebp]

; 167  : }

	pop	edi
	pop	esi
	pop	ebx
	mov	esp, ebp
	pop	ebp
	ret	0
?Wrap@WWMath@@SANNNN@Z ENDP				; WWMath::Wrap
_TEXT	ENDS
; Function compile flags: /Odtp /ZI
; File x:\github\renegade\dragonade_rxd\scripts\wwmath.h
;	COMDAT ?Wrap@WWMath@@SAMMMM@Z
_TEXT	SEGMENT
_val$ = 8						; size = 4
_min$ = 12						; size = 4
_max$ = 16						; size = 4
?Wrap@WWMath@@SAMMMM@Z PROC				; WWMath::Wrap, COMDAT

; 144  : {

	push	ebp
	mov	ebp, esp
	sub	esp, 64					; 00000040H
	push	ebx
	push	esi
	push	edi

; 145  : 	if ( val >= max )	val -= (max-min);

	movss	xmm0, DWORD PTR _val$[ebp]
	comiss	xmm0, DWORD PTR _max$[ebp]
	jb	SHORT $LN4@Wrap
	movss	xmm0, DWORD PTR _max$[ebp]
	subss	xmm0, DWORD PTR _min$[ebp]
	movss	xmm1, DWORD PTR _val$[ebp]
	subss	xmm1, xmm0
	movss	DWORD PTR _val$[ebp], xmm1
$LN4@Wrap:

; 146  : 	if ( val < min )	val += (max-min);

	movss	xmm0, DWORD PTR _min$[ebp]
	comiss	xmm0, DWORD PTR _val$[ebp]
	jbe	SHORT $LN3@Wrap
	movss	xmm0, DWORD PTR _max$[ebp]
	subss	xmm0, DWORD PTR _min$[ebp]
	addss	xmm0, DWORD PTR _val$[ebp]
	movss	DWORD PTR _val$[ebp], xmm0
$LN3@Wrap:

; 147  : 	if ( val < min ) {

	movss	xmm0, DWORD PTR _min$[ebp]
	comiss	xmm0, DWORD PTR _val$[ebp]
	jbe	SHORT $LN2@Wrap

; 148  : 		val = min;

	movss	xmm0, DWORD PTR _min$[ebp]
	movss	DWORD PTR _val$[ebp], xmm0
$LN2@Wrap:

; 149  : 	}
; 150  : 	if ( val > max ) {

	movss	xmm0, DWORD PTR _val$[ebp]
	comiss	xmm0, DWORD PTR _max$[ebp]
	jbe	SHORT $LN1@Wrap

; 151  : 		val = max;

	movss	xmm0, DWORD PTR _max$[ebp]
	movss	DWORD PTR _val$[ebp], xmm0
$LN1@Wrap:

; 152  : 	}
; 153  : 	return val;

	fld	DWORD PTR _val$[ebp]

; 154  : }

	pop	edi
	pop	esi
	pop	ebx
	mov	esp, ebp
	pop	ebp
	ret	0
?Wrap@WWMath@@SAMMMM@Z ENDP				; WWMath::Wrap
_TEXT	ENDS
; Function compile flags: /Odtp /ZI
; File x:\github\renegade\dragonade_rxd\scripts\wwmath.h
;	COMDAT ?Clamp_Int@WWMath@@SAHHHH@Z
_TEXT	SEGMENT
_val$ = 8						; size = 4
_min_val$ = 12						; size = 4
_max_val$ = 16						; size = 4
?Clamp_Int@WWMath@@SAHHHH@Z PROC			; WWMath::Clamp_Int, COMDAT

; 137  : {

	push	ebp
	mov	ebp, esp
	sub	esp, 64					; 00000040H
	push	ebx
	push	esi
	push	edi

; 138  : 	if(val < min_val) return min_val;

	mov	eax, DWORD PTR _val$[ebp]
	cmp	eax, DWORD PTR _min_val$[ebp]
	jge	SHORT $LN2@Clamp_Int
	mov	eax, DWORD PTR _min_val$[ebp]
	jmp	SHORT $LN3@Clamp_Int
$LN2@Clamp_Int:

; 139  : 	if(val > max_val) return max_val;

	mov	eax, DWORD PTR _val$[ebp]
	cmp	eax, DWORD PTR _max_val$[ebp]
	jle	SHORT $LN1@Clamp_Int
	mov	eax, DWORD PTR _max_val$[ebp]
	jmp	SHORT $LN3@Clamp_Int
$LN1@Clamp_Int:

; 140  : 	return val;

	mov	eax, DWORD PTR _val$[ebp]
$LN3@Clamp_Int:

; 141  : }

	pop	edi
	pop	esi
	pop	ebx
	mov	esp, ebp
	pop	ebp
	ret	0
?Clamp_Int@WWMath@@SAHHHH@Z ENDP			; WWMath::Clamp_Int
_TEXT	ENDS
; Function compile flags: /Odtp /ZI
; File x:\github\renegade\dragonade_rxd\scripts\wwmath.h
;	COMDAT ?Clamp@WWMath@@SANNNN@Z
_TEXT	SEGMENT
_val$ = 8						; size = 8
_min$ = 16						; size = 8
_max$ = 24						; size = 8
?Clamp@WWMath@@SANNNN@Z PROC				; WWMath::Clamp, COMDAT

; 130  : {

	push	ebp
	mov	ebp, esp
	sub	esp, 64					; 00000040H
	push	ebx
	push	esi
	push	edi

; 131  : 	if(val < min) return min;

	movsd	xmm0, QWORD PTR _min$[ebp]
	comisd	xmm0, QWORD PTR _val$[ebp]
	jbe	SHORT $LN2@Clamp
	fld	QWORD PTR _min$[ebp]
	jmp	SHORT $LN3@Clamp
$LN2@Clamp:

; 132  : 	if(val > max) return max;

	movsd	xmm0, QWORD PTR _val$[ebp]
	comisd	xmm0, QWORD PTR _max$[ebp]
	jbe	SHORT $LN1@Clamp
	fld	QWORD PTR _max$[ebp]
	jmp	SHORT $LN3@Clamp
$LN1@Clamp:

; 133  : 	return val;

	fld	QWORD PTR _val$[ebp]
$LN3@Clamp:

; 134  : }

	pop	edi
	pop	esi
	pop	ebx
	mov	esp, ebp
	pop	ebp
	ret	0
?Clamp@WWMath@@SANNNN@Z ENDP				; WWMath::Clamp
_TEXT	ENDS
; Function compile flags: /Odtp /ZI
; File x:\github\renegade\dragonade_rxd\scripts\wwmath.h
;	COMDAT ?Clamp@WWMath@@SAMMMM@Z
_TEXT	SEGMENT
_val$ = 8						; size = 4
_min$ = 12						; size = 4
_max$ = 16						; size = 4
?Clamp@WWMath@@SAMMMM@Z PROC				; WWMath::Clamp, COMDAT

; 123  : {

	push	ebp
	mov	ebp, esp
	sub	esp, 64					; 00000040H
	push	ebx
	push	esi
	push	edi

; 124  : 	if(val < min) return min;

	movss	xmm0, DWORD PTR _min$[ebp]
	comiss	xmm0, DWORD PTR _val$[ebp]
	jbe	SHORT $LN2@Clamp
	fld	DWORD PTR _min$[ebp]
	jmp	SHORT $LN3@Clamp
$LN2@Clamp:

; 125  : 	if(val > max) return max;

	movss	xmm0, DWORD PTR _val$[ebp]
	comiss	xmm0, DWORD PTR _max$[ebp]
	jbe	SHORT $LN1@Clamp
	fld	DWORD PTR _max$[ebp]
	jmp	SHORT $LN3@Clamp
$LN1@Clamp:

; 126  : 	return val;

	fld	DWORD PTR _val$[ebp]
$LN3@Clamp:

; 127  : }

	pop	edi
	pop	esi
	pop	ebx
	mov	esp, ebp
	pop	ebp
	ret	0
?Clamp@WWMath@@SAMMMM@Z ENDP				; WWMath::Clamp
_TEXT	ENDS
; Function compile flags: /Odtp /ZI
; File x:\github\renegade\dragonade_rxd\scripts\wwmath.h
;	COMDAT ?Random_Float@WWMath@@SAMMM@Z
_TEXT	SEGMENT
tv76 = -72						; size = 4
tv73 = -68						; size = 4
_min$ = 8						; size = 4
_max$ = 12						; size = 4
?Random_Float@WWMath@@SAMMM@Z PROC			; WWMath::Random_Float, COMDAT

; 118  : { 

	push	ebp
	mov	ebp, esp
	sub	esp, 72					; 00000048H
	push	ebx
	push	esi
	push	edi

; 119  : 	return Random_Float() * (max-min) + min; 

	call	?Random_Float@WWMath@@SAMXZ		; WWMath::Random_Float
	fstp	DWORD PTR tv73[ebp]
	movss	xmm0, DWORD PTR tv73[ebp]
	movss	xmm1, DWORD PTR _max$[ebp]
	subss	xmm1, DWORD PTR _min$[ebp]
	mulss	xmm0, xmm1
	addss	xmm0, DWORD PTR _min$[ebp]
	movss	DWORD PTR tv76[ebp], xmm0
	fld	DWORD PTR tv76[ebp]

; 120  : }

	pop	edi
	pop	esi
	pop	ebx
	mov	esp, ebp
	pop	ebp
	ret	0
?Random_Float@WWMath@@SAMMM@Z ENDP			; WWMath::Random_Float
_TEXT	ENDS
; Function compile flags: /Odtp /ZI
; File x:\github\renegade\dragonade_rxd\scripts\wwmath.h
;	COMDAT ?Fast_Is_Float_Positive@WWMath@@SA_NABM@Z
_TEXT	SEGMENT
tv66 = -68						; size = 4
_val$ = 8						; size = 4
?Fast_Is_Float_Positive@WWMath@@SA_NABM@Z PROC		; WWMath::Fast_Is_Float_Positive, COMDAT

; 113  : {

	push	ebp
	mov	ebp, esp
	sub	esp, 68					; 00000044H
	push	ebx
	push	esi
	push	edi

; 114  : 	return !((*(int *)(&val)) & 0x80000000);

	mov	eax, DWORD PTR _val$[ebp]
	mov	ecx, DWORD PTR [eax]
	and	ecx, -2147483648			; 80000000H
	jne	SHORT $LN3@Fast_Is_Fl
	mov	DWORD PTR tv66[ebp], 1
	jmp	SHORT $LN4@Fast_Is_Fl
$LN3@Fast_Is_Fl:
	mov	DWORD PTR tv66[ebp], 0
$LN4@Fast_Is_Fl:
	mov	al, BYTE PTR tv66[ebp]

; 115  : }

	pop	edi
	pop	esi
	pop	ebx
	mov	esp, ebp
	pop	ebp
	ret	0
?Fast_Is_Float_Positive@WWMath@@SA_NABM@Z ENDP		; WWMath::Fast_Is_Float_Positive
_TEXT	ENDS
; Function compile flags: /Odtp /ZI
; File x:\github\renegade\dragonade_rxd\scripts\wwmath.h
;	COMDAT ?Floor@WWMath@@SAMM@Z
_TEXT	SEGMENT
_val$ = 8						; size = 4
?Floor@WWMath@@SAMM@Z PROC				; WWMath::Floor, COMDAT

; 81   : 	static float Floor(float val) { return floorf(val); }

	push	ebp
	mov	ebp, esp
	sub	esp, 64					; 00000040H
	push	ebx
	push	esi
	push	edi
	push	ecx
	movss	xmm0, DWORD PTR _val$[ebp]
	movss	DWORD PTR [esp], xmm0
	call	_floorf
	add	esp, 4
	pop	edi
	pop	esi
	pop	ebx
	mov	esp, ebp
	pop	ebp
	ret	0
?Floor@WWMath@@SAMM@Z ENDP				; WWMath::Floor
_TEXT	ENDS
; Function compile flags: /Odtp /ZI
; File x:\github\renegade\dragonade_rxd\scripts\wwmath.h
;	COMDAT ?Ceil@WWMath@@SAMM@Z
_TEXT	SEGMENT
_val$ = 8						; size = 4
?Ceil@WWMath@@SAMM@Z PROC				; WWMath::Ceil, COMDAT

; 80   : 	static float Ceil(float val) { return ceilf(val); }

	push	ebp
	mov	ebp, esp
	sub	esp, 64					; 00000040H
	push	ebx
	push	esi
	push	edi
	push	ecx
	movss	xmm0, DWORD PTR _val$[ebp]
	movss	DWORD PTR [esp], xmm0
	call	_ceilf
	add	esp, 4
	pop	edi
	pop	esi
	pop	ebx
	mov	esp, ebp
	pop	ebp
	ret	0
?Ceil@WWMath@@SAMM@Z ENDP				; WWMath::Ceil
_TEXT	ENDS
; Function compile flags: /Odtp /ZI
; File x:\github\renegade\dragonade_rxd\scripts\wwmath.h
;	COMDAT ?Sign@WWMath@@SAMM@Z
_TEXT	SEGMENT
_val$ = 8						; size = 4
?Sign@WWMath@@SAMM@Z PROC				; WWMath::Sign, COMDAT

; 102  : { 

	push	ebp
	mov	ebp, esp
	sub	esp, 64					; 00000040H
	push	ebx
	push	esi
	push	edi

; 103  : 	if (val > 0.0f) { 

	movss	xmm0, DWORD PTR _val$[ebp]
	comiss	xmm0, DWORD PTR __real@00000000
	jbe	SHORT $LN2@Sign

; 104  : 		return +1.0f; 

	fld1
	jmp	SHORT $LN3@Sign
$LN2@Sign:

; 105  : 	} 
; 106  : 	if (val < 0.0f) { 

	movss	xmm0, DWORD PTR __real@00000000
	comiss	xmm0, DWORD PTR _val$[ebp]
	jbe	SHORT $LN1@Sign

; 107  : 		return -1.0f; 

	fld	DWORD PTR __real@bf800000
	jmp	SHORT $LN3@Sign
$LN1@Sign:

; 108  : 	} 
; 109  : 	return 0.0f; 

	fldz
$LN3@Sign:

; 110  : }

	pop	edi
	pop	esi
	pop	ebx
	mov	esp, ebp
	pop	ebp
	ret	0
?Sign@WWMath@@SAMM@Z ENDP				; WWMath::Sign
_TEXT	ENDS
; Function compile flags: /Odtp /ZI
; File x:\github\renegade\dragonade_rxd\scripts\wwmath.h
;	COMDAT ?Atan2@WWMath@@SAMMM@Z
_TEXT	SEGMENT
_y$ = 8							; size = 4
_x$ = 12						; size = 4
?Atan2@WWMath@@SAMMM@Z PROC				; WWMath::Atan2, COMDAT

; 78   : 	static float Atan2(float y,float x) { return static_cast<float>(atan2(y,x)); }

	push	ebp
	mov	ebp, esp
	sub	esp, 64					; 00000040H
	push	ebx
	push	esi
	push	edi
	push	ecx
	movss	xmm0, DWORD PTR _x$[ebp]
	movss	DWORD PTR [esp], xmm0
	push	ecx
	movss	xmm0, DWORD PTR _y$[ebp]
	movss	DWORD PTR [esp], xmm0
	call	?atan2@@YAMMM@Z				; atan2
	add	esp, 8
	pop	edi
	pop	esi
	pop	ebx
	mov	esp, ebp
	pop	ebp
	ret	0
?Atan2@WWMath@@SAMMM@Z ENDP				; WWMath::Atan2
_TEXT	ENDS
; Function compile flags: /Odtp /ZI
; File x:\github\renegade\dragonade_rxd\scripts\wwmath.h
;	COMDAT ?Atan@WWMath@@SAMM@Z
_TEXT	SEGMENT
_x$ = 8							; size = 4
?Atan@WWMath@@SAMM@Z PROC				; WWMath::Atan, COMDAT

; 77   : 	static float Atan(float x) { return static_cast<float>(atan(x)); }

	push	ebp
	mov	ebp, esp
	sub	esp, 64					; 00000040H
	push	ebx
	push	esi
	push	edi
	push	ecx
	movss	xmm0, DWORD PTR _x$[ebp]
	movss	DWORD PTR [esp], xmm0
	call	?atan@@YAMM@Z				; atan
	add	esp, 4
	pop	edi
	pop	esi
	pop	ebx
	mov	esp, ebp
	pop	ebp
	ret	0
?Atan@WWMath@@SAMM@Z ENDP				; WWMath::Atan
_TEXT	ENDS
; Function compile flags: /Odtp /ZI
; File x:\github\renegade\dragonade_rxd\scripts\wwmath.h
;	COMDAT ?Asin@WWMath@@SAMM@Z
_TEXT	SEGMENT
_val$ = 8						; size = 4
?Asin@WWMath@@SAMM@Z PROC				; WWMath::Asin, COMDAT

; 306  : {

	push	ebp
	mov	ebp, esp
	sub	esp, 64					; 00000040H
	push	ebx
	push	esi
	push	edi

; 307  : 	return (float)asin(val);

	push	ecx
	movss	xmm0, DWORD PTR _val$[ebp]
	movss	DWORD PTR [esp], xmm0
	call	?asin@@YAMM@Z				; asin
	add	esp, 4

; 308  : }

	pop	edi
	pop	esi
	pop	ebx
	mov	esp, ebp
	pop	ebp
	ret	0
?Asin@WWMath@@SAMM@Z ENDP				; WWMath::Asin
_TEXT	ENDS
; Function compile flags: /Odtp /ZI
; File x:\github\renegade\dragonade_rxd\scripts\wwmath.h
;	COMDAT ?Acos@WWMath@@SAMM@Z
_TEXT	SEGMENT
_val$ = 8						; size = 4
?Acos@WWMath@@SAMM@Z PROC				; WWMath::Acos, COMDAT

; 286  : {

	push	ebp
	mov	ebp, esp
	sub	esp, 64					; 00000040H
	push	ebx
	push	esi
	push	edi

; 287  : 	return (float)acos(val);

	push	ecx
	movss	xmm0, DWORD PTR _val$[ebp]
	movss	DWORD PTR [esp], xmm0
	call	?acos@@YAMM@Z				; acos
	add	esp, 4

; 288  : }

	pop	edi
	pop	esi
	pop	ebx
	mov	esp, ebp
	pop	ebp
	ret	0
?Acos@WWMath@@SAMM@Z ENDP				; WWMath::Acos
_TEXT	ENDS
; Function compile flags: /Odtp /ZI
; File x:\github\renegade\dragonade_rxd\scripts\wwmath.h
;	COMDAT ?Fast_Asin@WWMath@@SAMM@Z
_TEXT	SEGMENT
tv156 = -88						; size = 4
tv161 = -84						; size = 4
tv159 = -80						; size = 4
tv134 = -80						; size = 4
_frac$ = -12						; size = 4
_idx1$ = -8						; size = 4
_idx0$ = -4						; size = 4
_val$ = 8						; size = 4
?Fast_Asin@WWMath@@SAMM@Z PROC				; WWMath::Fast_Asin, COMDAT

; 291  : {

	push	ebp
	mov	ebp, esp
	sub	esp, 88					; 00000058H
	push	ebx
	push	esi
	push	edi

; 292  : 	if (WWMath::Fabs(val) > 0.975f) {

	push	ecx
	movss	xmm0, DWORD PTR _val$[ebp]
	movss	DWORD PTR [esp], xmm0
	call	?Fabs@WWMath@@SAMM@Z			; WWMath::Fabs
	add	esp, 4
	fstp	DWORD PTR tv134[ebp]
	movss	xmm0, DWORD PTR tv134[ebp]
	comiss	xmm0, DWORD PTR __real@3f79999a
	jbe	SHORT $LN11@Fast_Asin

; 293  : 		return WWMath::Asin(val);

	push	ecx
	movss	xmm0, DWORD PTR _val$[ebp]
	movss	DWORD PTR [esp], xmm0
	call	?Asin@WWMath@@SAMM@Z			; WWMath::Asin
	add	esp, 4
	jmp	$LN12@Fast_Asin
$LN11@Fast_Asin:

; 294  : 	}
; 295  : 	val*=float(ARC_TABLE_SIZE/2);

	movss	xmm0, DWORD PTR _val$[ebp]
	mulss	xmm0, DWORD PTR __real@44000000
	movss	DWORD PTR _val$[ebp], xmm0

; 296  : 	int idx0=Float_To_Int_Floor(val); 

	lea	eax, DWORD PTR _val$[ebp]
	push	eax
	call	?Float_To_Int_Floor@WWMath@@SAHABM@Z	; WWMath::Float_To_Int_Floor
	add	esp, 4
	mov	DWORD PTR _idx0$[ebp], eax

; 297  : 	int idx1=idx0+1;

	mov	eax, DWORD PTR _idx0$[ebp]
	add	eax, 1
	mov	DWORD PTR _idx1$[ebp], eax

; 298  : 	float frac=val-(float)idx0;

	cvtsi2ss xmm0, DWORD PTR _idx0$[ebp]
	movss	xmm1, DWORD PTR _val$[ebp]
	subss	xmm1, xmm0
	movss	DWORD PTR _frac$[ebp], xmm1

; 299  : 	idx0+=ARC_TABLE_SIZE/2;

	mov	eax, DWORD PTR _idx0$[ebp]
	add	eax, 512				; 00000200H
	mov	DWORD PTR _idx0$[ebp], eax

; 300  : 	idx1+=ARC_TABLE_SIZE/2;

	mov	eax, DWORD PTR _idx1$[ebp]
	add	eax, 512				; 00000200H
	mov	DWORD PTR _idx1$[ebp], eax
$LN10@Fast_Asin:

; 301  : 	TT_ASSERT((idx0 >= 0) && (idx0 < ARC_TABLE_SIZE));

	xor	eax, eax
	jne	SHORT $LN10@Fast_Asin
	cmp	DWORD PTR _idx0$[ebp], 0
	jl	SHORT $LN6@Fast_Asin
	cmp	DWORD PTR _idx0$[ebp], 1024		; 00000400H
	jl	SHORT $LN7@Fast_Asin
$LN6@Fast_Asin:
	int	3
$LN7@Fast_Asin:

; 302  : 	TT_ASSERT((idx1 >= 0) && (idx1 < ARC_TABLE_SIZE));

	xor	eax, eax
	jne	SHORT $LN7@Fast_Asin
	cmp	DWORD PTR _idx1$[ebp], 0
	jl	SHORT $LN1@Fast_Asin
	cmp	DWORD PTR _idx1$[ebp], 1024		; 00000400H
	jl	SHORT $LN2@Fast_Asin
$LN1@Fast_Asin:
	int	3
$LN2@Fast_Asin:

; 303  : 	return (1.0f - frac) * _FastAsinTable[idx0] + frac * _FastAsinTable[idx1];

	movss	xmm0, DWORD PTR __real@3f800000
	subss	xmm0, DWORD PTR _frac$[ebp]
	mov	ecx, DWORD PTR ?_FastAsinTable@@3AAV?$RefArrayHelper@M$0EAA@@@A ; _FastAsinTable
	movss	DWORD PTR tv159[ebp], xmm0
	call	??B?$RefArrayHelper@M$0EAA@@@QAEPAMXZ	; RefArrayHelper<float,1024>::operator float *
	mov	ecx, DWORD PTR _idx0$[ebp]
	movss	xmm0, DWORD PTR tv159[ebp]
	mulss	xmm0, DWORD PTR [eax+ecx*4]
	mov	ecx, DWORD PTR ?_FastAsinTable@@3AAV?$RefArrayHelper@M$0EAA@@@A ; _FastAsinTable
	movss	DWORD PTR tv161[ebp], xmm0
	call	??B?$RefArrayHelper@M$0EAA@@@QAEPAMXZ	; RefArrayHelper<float,1024>::operator float *
	mov	edx, DWORD PTR _idx1$[ebp]
	movss	xmm0, DWORD PTR _frac$[ebp]
	mulss	xmm0, DWORD PTR [eax+edx*4]
	movss	xmm1, DWORD PTR tv161[ebp]
	addss	xmm1, xmm0
	movss	DWORD PTR tv156[ebp], xmm1
	fld	DWORD PTR tv156[ebp]
$LN12@Fast_Asin:

; 304  : }

	pop	edi
	pop	esi
	pop	ebx
	mov	esp, ebp
	pop	ebp
	ret	0
?Fast_Asin@WWMath@@SAMM@Z ENDP				; WWMath::Fast_Asin
_TEXT	ENDS
; Function compile flags: /Odtp /ZI
; File x:\github\renegade\dragonade_rxd\scripts\wwmath.h
;	COMDAT ?Fast_Acos@WWMath@@SAMM@Z
_TEXT	SEGMENT
tv156 = -88						; size = 4
tv161 = -84						; size = 4
tv159 = -80						; size = 4
tv134 = -80						; size = 4
_frac$ = -12						; size = 4
_idx1$ = -8						; size = 4
_idx0$ = -4						; size = 4
_val$ = 8						; size = 4
?Fast_Acos@WWMath@@SAMM@Z PROC				; WWMath::Fast_Acos, COMDAT

; 270  : {

	push	ebp
	mov	ebp, esp
	sub	esp, 88					; 00000058H
	push	ebx
	push	esi
	push	edi

; 271  : 	if (WWMath::Fabs(val) > 0.975f) {

	push	ecx
	movss	xmm0, DWORD PTR _val$[ebp]
	movss	DWORD PTR [esp], xmm0
	call	?Fabs@WWMath@@SAMM@Z			; WWMath::Fabs
	add	esp, 4
	fstp	DWORD PTR tv134[ebp]
	movss	xmm0, DWORD PTR tv134[ebp]
	comiss	xmm0, DWORD PTR __real@3f79999a
	jbe	SHORT $LN11@Fast_Acos

; 272  : 		return WWMath::Acos(val);

	push	ecx
	movss	xmm0, DWORD PTR _val$[ebp]
	movss	DWORD PTR [esp], xmm0
	call	?Acos@WWMath@@SAMM@Z			; WWMath::Acos
	add	esp, 4
	jmp	$LN12@Fast_Acos
$LN11@Fast_Acos:

; 273  : 	}
; 274  : 	val*=float(ARC_TABLE_SIZE/2);

	movss	xmm0, DWORD PTR _val$[ebp]
	mulss	xmm0, DWORD PTR __real@44000000
	movss	DWORD PTR _val$[ebp], xmm0

; 275  : 	int idx0=Float_To_Int_Floor(val);

	lea	eax, DWORD PTR _val$[ebp]
	push	eax
	call	?Float_To_Int_Floor@WWMath@@SAHABM@Z	; WWMath::Float_To_Int_Floor
	add	esp, 4
	mov	DWORD PTR _idx0$[ebp], eax

; 276  : 	int idx1=idx0+1;

	mov	eax, DWORD PTR _idx0$[ebp]
	add	eax, 1
	mov	DWORD PTR _idx1$[ebp], eax

; 277  : 	float frac=val-(float)idx0;

	cvtsi2ss xmm0, DWORD PTR _idx0$[ebp]
	movss	xmm1, DWORD PTR _val$[ebp]
	subss	xmm1, xmm0
	movss	DWORD PTR _frac$[ebp], xmm1

; 278  : 	idx0+=ARC_TABLE_SIZE/2;

	mov	eax, DWORD PTR _idx0$[ebp]
	add	eax, 512				; 00000200H
	mov	DWORD PTR _idx0$[ebp], eax

; 279  : 	idx1+=ARC_TABLE_SIZE/2;

	mov	eax, DWORD PTR _idx1$[ebp]
	add	eax, 512				; 00000200H
	mov	DWORD PTR _idx1$[ebp], eax
$LN10@Fast_Acos:

; 280  : 	TT_ASSERT((idx0 >= 0) && (idx0 < ARC_TABLE_SIZE));

	xor	eax, eax
	jne	SHORT $LN10@Fast_Acos
	cmp	DWORD PTR _idx0$[ebp], 0
	jl	SHORT $LN6@Fast_Acos
	cmp	DWORD PTR _idx0$[ebp], 1024		; 00000400H
	jl	SHORT $LN7@Fast_Acos
$LN6@Fast_Acos:
	int	3
$LN7@Fast_Acos:

; 281  : 	TT_ASSERT((idx1 >= 0) && (idx1 < ARC_TABLE_SIZE));

	xor	eax, eax
	jne	SHORT $LN7@Fast_Acos
	cmp	DWORD PTR _idx1$[ebp], 0
	jl	SHORT $LN1@Fast_Acos
	cmp	DWORD PTR _idx1$[ebp], 1024		; 00000400H
	jl	SHORT $LN2@Fast_Acos
$LN1@Fast_Acos:
	int	3
$LN2@Fast_Acos:

; 282  : 	return (1.0f - frac) * _FastAcosTable[idx0] + frac * _FastAcosTable[idx1];

	movss	xmm0, DWORD PTR __real@3f800000
	subss	xmm0, DWORD PTR _frac$[ebp]
	mov	ecx, DWORD PTR ?_FastAcosTable@@3AAV?$RefArrayHelper@M$0EAA@@@A ; _FastAcosTable
	movss	DWORD PTR tv159[ebp], xmm0
	call	??B?$RefArrayHelper@M$0EAA@@@QAEPAMXZ	; RefArrayHelper<float,1024>::operator float *
	mov	ecx, DWORD PTR _idx0$[ebp]
	movss	xmm0, DWORD PTR tv159[ebp]
	mulss	xmm0, DWORD PTR [eax+ecx*4]
	mov	ecx, DWORD PTR ?_FastAcosTable@@3AAV?$RefArrayHelper@M$0EAA@@@A ; _FastAcosTable
	movss	DWORD PTR tv161[ebp], xmm0
	call	??B?$RefArrayHelper@M$0EAA@@@QAEPAMXZ	; RefArrayHelper<float,1024>::operator float *
	mov	edx, DWORD PTR _idx1$[ebp]
	movss	xmm0, DWORD PTR _frac$[ebp]
	mulss	xmm0, DWORD PTR [eax+edx*4]
	movss	xmm1, DWORD PTR tv161[ebp]
	addss	xmm1, xmm0
	movss	DWORD PTR tv156[ebp], xmm1
	fld	DWORD PTR tv156[ebp]
$LN12@Fast_Acos:

; 283  : }

	pop	edi
	pop	esi
	pop	ebx
	mov	esp, ebp
	pop	ebp
	ret	0
?Fast_Acos@WWMath@@SAMM@Z ENDP				; WWMath::Fast_Acos
_TEXT	ENDS
; Function compile flags: /Odtp /ZI
; File x:\github\renegade\dragonade_rxd\scripts\wwmath.h
;	COMDAT ?Fast_Inv_Cos@WWMath@@SAMM@Z
_TEXT	SEGMENT
tv76 = -72						; size = 4
tv73 = -68						; size = 4
_val$ = 8						; size = 4
?Fast_Inv_Cos@WWMath@@SAMM@Z PROC			; WWMath::Fast_Inv_Cos, COMDAT

; 265  : {

	push	ebp
	mov	ebp, esp
	sub	esp, 72					; 00000048H
	push	ebx
	push	esi
	push	edi

; 266  : 	return 1.0f / WWMath::Fast_Cos(val);

	push	ecx
	movss	xmm0, DWORD PTR _val$[ebp]
	movss	DWORD PTR [esp], xmm0
	call	?Fast_Cos@WWMath@@SAMM@Z		; WWMath::Fast_Cos
	add	esp, 4
	fstp	DWORD PTR tv73[ebp]
	movss	xmm0, DWORD PTR __real@3f800000
	divss	xmm0, DWORD PTR tv73[ebp]
	movss	DWORD PTR tv76[ebp], xmm0
	fld	DWORD PTR tv76[ebp]

; 267  : }

	pop	edi
	pop	esi
	pop	ebx
	mov	esp, ebp
	pop	ebp
	ret	0
?Fast_Inv_Cos@WWMath@@SAMM@Z ENDP			; WWMath::Fast_Inv_Cos
_TEXT	ENDS
; Function compile flags: /Odtp /ZI
; File x:\github\renegade\dragonade_rxd\scripts\wwmath.h
;	COMDAT ?Fast_Cos@WWMath@@SAMM@Z
_TEXT	SEGMENT
tv135 = -88						; size = 4
tv140 = -84						; size = 4
tv138 = -80						; size = 4
_frac$ = -12						; size = 4
_idx1$ = -8						; size = 4
_idx0$ = -4						; size = 4
_val$ = 8						; size = 4
?Fast_Cos@WWMath@@SAMM@Z PROC				; WWMath::Fast_Cos, COMDAT

; 253  : {

	push	ebp
	mov	ebp, esp
	sub	esp, 88					; 00000058H
	push	ebx
	push	esi
	push	edi

; 254  : 	val+=(WWMATH_PI * 0.5f);

	movss	xmm0, DWORD PTR _val$[ebp]
	addss	xmm0, DWORD PTR __real@3fc90fdb
	movss	DWORD PTR _val$[ebp], xmm0

; 255  : 	val*=float(SIN_TABLE_SIZE) / (2.0f * WWMATH_PI);

	movss	xmm0, DWORD PTR __real@44800000
	divss	xmm0, DWORD PTR __real@40c90fdb
	mulss	xmm0, DWORD PTR _val$[ebp]
	movss	DWORD PTR _val$[ebp], xmm0

; 256  : 	int idx0=Float_To_Int_Floor(val);

	lea	eax, DWORD PTR _val$[ebp]
	push	eax
	call	?Float_To_Int_Floor@WWMath@@SAHABM@Z	; WWMath::Float_To_Int_Floor
	add	esp, 4
	mov	DWORD PTR _idx0$[ebp], eax

; 257  : 	int idx1=idx0+1;

	mov	eax, DWORD PTR _idx0$[ebp]
	add	eax, 1
	mov	DWORD PTR _idx1$[ebp], eax

; 258  : 	float frac=val-(float)idx0;

	cvtsi2ss xmm0, DWORD PTR _idx0$[ebp]
	movss	xmm1, DWORD PTR _val$[ebp]
	subss	xmm1, xmm0
	movss	DWORD PTR _frac$[ebp], xmm1

; 259  : 	idx0 = ((unsigned)idx0) & (SIN_TABLE_SIZE-1);

	mov	eax, DWORD PTR _idx0$[ebp]
	and	eax, 1023				; 000003ffH
	mov	DWORD PTR _idx0$[ebp], eax

; 260  : 	idx1 = ((unsigned)idx1) & (SIN_TABLE_SIZE-1);

	mov	eax, DWORD PTR _idx1$[ebp]
	and	eax, 1023				; 000003ffH
	mov	DWORD PTR _idx1$[ebp], eax

; 261  : 	return (1.0f - frac) * _FastSinTable[idx0] + frac * _FastSinTable[idx1];

	movss	xmm0, DWORD PTR __real@3f800000
	subss	xmm0, DWORD PTR _frac$[ebp]
	mov	ecx, DWORD PTR ?_FastSinTable@@3AAV?$RefArrayHelper@M$0EAA@@@A ; _FastSinTable
	movss	DWORD PTR tv138[ebp], xmm0
	call	??B?$RefArrayHelper@M$0EAA@@@QAEPAMXZ	; RefArrayHelper<float,1024>::operator float *
	mov	ecx, DWORD PTR _idx0$[ebp]
	movss	xmm0, DWORD PTR tv138[ebp]
	mulss	xmm0, DWORD PTR [eax+ecx*4]
	mov	ecx, DWORD PTR ?_FastSinTable@@3AAV?$RefArrayHelper@M$0EAA@@@A ; _FastSinTable
	movss	DWORD PTR tv140[ebp], xmm0
	call	??B?$RefArrayHelper@M$0EAA@@@QAEPAMXZ	; RefArrayHelper<float,1024>::operator float *
	mov	edx, DWORD PTR _idx1$[ebp]
	movss	xmm0, DWORD PTR _frac$[ebp]
	mulss	xmm0, DWORD PTR [eax+edx*4]
	movss	xmm1, DWORD PTR tv140[ebp]
	addss	xmm1, xmm0
	movss	DWORD PTR tv135[ebp], xmm1
	fld	DWORD PTR tv135[ebp]

; 262  : }

	pop	edi
	pop	esi
	pop	ebx
	mov	esp, ebp
	pop	ebp
	ret	0
?Fast_Cos@WWMath@@SAMM@Z ENDP				; WWMath::Fast_Cos
_TEXT	ENDS
; Function compile flags: /Odtp /ZI
; File x:\github\renegade\dragonade_rxd\scripts\wwmath.h
;	COMDAT ?Fast_Inv_Sin@WWMath@@SAMM@Z
_TEXT	SEGMENT
tv76 = -72						; size = 4
tv73 = -68						; size = 4
_val$ = 8						; size = 4
?Fast_Inv_Sin@WWMath@@SAMM@Z PROC			; WWMath::Fast_Inv_Sin, COMDAT

; 248  : {

	push	ebp
	mov	ebp, esp
	sub	esp, 72					; 00000048H
	push	ebx
	push	esi
	push	edi

; 249  : 	return 1.0f / WWMath::Fast_Sin(val);

	push	ecx
	movss	xmm0, DWORD PTR _val$[ebp]
	movss	DWORD PTR [esp], xmm0
	call	?Fast_Sin@WWMath@@SAMM@Z		; WWMath::Fast_Sin
	add	esp, 4
	fstp	DWORD PTR tv73[ebp]
	movss	xmm0, DWORD PTR __real@3f800000
	divss	xmm0, DWORD PTR tv73[ebp]
	movss	DWORD PTR tv76[ebp], xmm0
	fld	DWORD PTR tv76[ebp]

; 250  : }

	pop	edi
	pop	esi
	pop	ebx
	mov	esp, ebp
	pop	ebp
	ret	0
?Fast_Inv_Sin@WWMath@@SAMM@Z ENDP			; WWMath::Fast_Inv_Sin
_TEXT	ENDS
; Function compile flags: /Odtp /ZI
; File x:\github\renegade\dragonade_rxd\scripts\wwmath.h
;	COMDAT ?Fast_Sin@WWMath@@SAMM@Z
_TEXT	SEGMENT
tv133 = -88						; size = 4
tv138 = -84						; size = 4
tv136 = -80						; size = 4
_frac$ = -12						; size = 4
_idx1$ = -8						; size = 4
_idx0$ = -4						; size = 4
_val$ = 8						; size = 4
?Fast_Sin@WWMath@@SAMM@Z PROC				; WWMath::Fast_Sin, COMDAT

; 237  : {

	push	ebp
	mov	ebp, esp
	sub	esp, 88					; 00000058H
	push	ebx
	push	esi
	push	edi

; 238  : 	val*=float(SIN_TABLE_SIZE) / (2.0f * WWMATH_PI);

	movss	xmm0, DWORD PTR __real@44800000
	divss	xmm0, DWORD PTR __real@40c90fdb
	mulss	xmm0, DWORD PTR _val$[ebp]
	movss	DWORD PTR _val$[ebp], xmm0

; 239  : 	int idx0=Float_To_Int_Floor(val);

	lea	eax, DWORD PTR _val$[ebp]
	push	eax
	call	?Float_To_Int_Floor@WWMath@@SAHABM@Z	; WWMath::Float_To_Int_Floor
	add	esp, 4
	mov	DWORD PTR _idx0$[ebp], eax

; 240  : 	int idx1=idx0+1;

	mov	eax, DWORD PTR _idx0$[ebp]
	add	eax, 1
	mov	DWORD PTR _idx1$[ebp], eax

; 241  : 	float frac=val-(float)idx0;

	cvtsi2ss xmm0, DWORD PTR _idx0$[ebp]
	movss	xmm1, DWORD PTR _val$[ebp]
	subss	xmm1, xmm0
	movss	DWORD PTR _frac$[ebp], xmm1

; 242  : 	idx0 = ((unsigned)idx0) & (SIN_TABLE_SIZE-1);

	mov	eax, DWORD PTR _idx0$[ebp]
	and	eax, 1023				; 000003ffH
	mov	DWORD PTR _idx0$[ebp], eax

; 243  : 	idx1 = ((unsigned)idx1) & (SIN_TABLE_SIZE-1);

	mov	eax, DWORD PTR _idx1$[ebp]
	and	eax, 1023				; 000003ffH
	mov	DWORD PTR _idx1$[ebp], eax

; 244  : 	return (1.0f - frac) * _FastSinTable[idx0] + frac * _FastSinTable[idx1];

	movss	xmm0, DWORD PTR __real@3f800000
	subss	xmm0, DWORD PTR _frac$[ebp]
	mov	ecx, DWORD PTR ?_FastSinTable@@3AAV?$RefArrayHelper@M$0EAA@@@A ; _FastSinTable
	movss	DWORD PTR tv136[ebp], xmm0
	call	??B?$RefArrayHelper@M$0EAA@@@QAEPAMXZ	; RefArrayHelper<float,1024>::operator float *
	mov	ecx, DWORD PTR _idx0$[ebp]
	movss	xmm0, DWORD PTR tv136[ebp]
	mulss	xmm0, DWORD PTR [eax+ecx*4]
	mov	ecx, DWORD PTR ?_FastSinTable@@3AAV?$RefArrayHelper@M$0EAA@@@A ; _FastSinTable
	movss	DWORD PTR tv138[ebp], xmm0
	call	??B?$RefArrayHelper@M$0EAA@@@QAEPAMXZ	; RefArrayHelper<float,1024>::operator float *
	mov	edx, DWORD PTR _idx1$[ebp]
	movss	xmm0, DWORD PTR _frac$[ebp]
	mulss	xmm0, DWORD PTR [eax+edx*4]
	movss	xmm1, DWORD PTR tv138[ebp]
	addss	xmm1, xmm0
	movss	DWORD PTR tv133[ebp], xmm1
	fld	DWORD PTR tv133[ebp]

; 245  : }

	pop	edi
	pop	esi
	pop	ebx
	mov	esp, ebp
	pop	ebp
	ret	0
?Fast_Sin@WWMath@@SAMM@Z ENDP				; WWMath::Fast_Sin
_TEXT	ENDS
; Function compile flags: /Odtp /ZI
; File x:\github\renegade\dragonade_rxd\scripts\wwmath.h
;	COMDAT ?Float_To_Long@WWMath@@SAJM@Z
_TEXT	SEGMENT
$T1 = -80						; size = 16
_f$ = 8							; size = 4
?Float_To_Long@WWMath@@SAJM@Z PROC			; WWMath::Float_To_Long, COMDAT

; 217  : {

	push	ebx
	mov	ebx, esp
	sub	esp, 8
	and	esp, -16				; fffffff0H
	add	esp, 4
	push	ebp
	mov	ebp, DWORD PTR [ebx+4]
	mov	DWORD PTR [esp+4], ebp
	mov	ebp, esp
	sub	esp, 88					; 00000058H
	push	esi
	push	edi

; 218  :     return _mm_cvtt_ss2si(_mm_load_ss(&f));

	movss	xmm0, DWORD PTR _f$[ebx]
	movaps	XMMWORD PTR $T1[ebp], xmm0
	movaps	xmm0, XMMWORD PTR $T1[ebp]
	cvttss2si eax, xmm0

; 219  : }

	pop	edi
	pop	esi
	mov	esp, ebp
	pop	ebp
	mov	esp, ebx
	pop	ebx
	ret	0
?Float_To_Long@WWMath@@SAJM@Z ENDP			; WWMath::Float_To_Long
_TEXT	ENDS
; Function compile flags: /Odtp /ZI
; File x:\github\renegade\dragonade_rxd\scripts\wwmath.h
;	COMDAT ?Inv_Sqrt@WWMath@@SIMM@Z
_TEXT	SEGMENT
tv76 = -72						; size = 4
tv73 = -68						; size = 4
_number$ = 8						; size = 4
?Inv_Sqrt@WWMath@@SIMM@Z PROC				; WWMath::Inv_Sqrt, COMDAT

; 341  : {

	push	ebp
	mov	ebp, esp
	sub	esp, 72					; 00000048H
	push	ebx
	push	esi
	push	edi

; 342  : 	return 1.f / sqrt(number);

	push	ecx
	movss	xmm0, DWORD PTR _number$[ebp]
	movss	DWORD PTR [esp], xmm0
	call	?sqrt@@YAMM@Z				; sqrt
	add	esp, 4
	fstp	DWORD PTR tv73[ebp]
	movss	xmm0, DWORD PTR __real@3f800000
	divss	xmm0, DWORD PTR tv73[ebp]
	movss	DWORD PTR tv76[ebp], xmm0
	fld	DWORD PTR tv76[ebp]

; 343  : }

	pop	edi
	pop	esi
	pop	ebx
	mov	esp, ebp
	pop	ebp
	ret	4
?Inv_Sqrt@WWMath@@SIMM@Z ENDP				; WWMath::Inv_Sqrt
_TEXT	ENDS
; Function compile flags: /Odtp /ZI
; File x:\github\renegade\dragonade_rxd\scripts\wwmath.h
;	COMDAT ?Sqrt@WWMath@@SAMM@Z
_TEXT	SEGMENT
_val$ = 8						; size = 4
?Sqrt@WWMath@@SAMM@Z PROC				; WWMath::Sqrt, COMDAT

; 311  : {

	push	ebp
	mov	ebp, esp
	sub	esp, 64					; 00000040H
	push	ebx
	push	esi
	push	edi

; 312  :     return ::sqrtf(val);

	push	ecx
	movss	xmm0, DWORD PTR _val$[ebp]
	movss	DWORD PTR [esp], xmm0
	call	_sqrtf
	add	esp, 4

; 313  : }

	pop	edi
	pop	esi
	pop	ebx
	mov	esp, ebp
	pop	ebp
	ret	0
?Sqrt@WWMath@@SAMM@Z ENDP				; WWMath::Sqrt
_TEXT	ENDS
; Function compile flags: /Odtp /ZI
; File x:\github\renegade\dragonade_rxd\scripts\wwmath.h
;	COMDAT ?Sin@WWMath@@SAMM@Z
_TEXT	SEGMENT
_val$ = 8						; size = 4
?Sin@WWMath@@SAMM@Z PROC				; WWMath::Sin, COMDAT

; 232  : {

	push	ebp
	mov	ebp, esp
	sub	esp, 64					; 00000040H
	push	ebx
	push	esi
	push	edi

; 233  :     return ::sin(val);

	push	ecx
	movss	xmm0, DWORD PTR _val$[ebp]
	movss	DWORD PTR [esp], xmm0
	call	?sin@@YAMM@Z				; sin
	add	esp, 4

; 234  : }

	pop	edi
	pop	esi
	pop	ebx
	mov	esp, ebp
	pop	ebp
	ret	0
?Sin@WWMath@@SAMM@Z ENDP				; WWMath::Sin
_TEXT	ENDS
; Function compile flags: /Odtp /ZI
; File x:\github\renegade\dragonade_rxd\scripts\wwmath.h
;	COMDAT ?Cos@WWMath@@SAMM@Z
_TEXT	SEGMENT
_val$ = 8						; size = 4
?Cos@WWMath@@SAMM@Z PROC				; WWMath::Cos, COMDAT

; 227  : {

	push	ebp
	mov	ebp, esp
	sub	esp, 64					; 00000040H
	push	ebx
	push	esi
	push	edi

; 228  :     return ::cos(val);

	push	ecx
	movss	xmm0, DWORD PTR _val$[ebp]
	movss	DWORD PTR [esp], xmm0
	call	?cos@@YAMM@Z				; cos
	add	esp, 4

; 229  : }

	pop	edi
	pop	esi
	pop	ebx
	mov	esp, ebp
	pop	ebp
	ret	0
?Cos@WWMath@@SAMM@Z ENDP				; WWMath::Cos
_TEXT	ENDS
; Function compile flags: /Odtp /ZI
; File x:\github\renegade\dragonade_rxd\scripts\wwmath.h
;	COMDAT ?Float_To_Int_Floor@WWMath@@SAHABM@Z
_TEXT	SEGMENT
tv83 = -96						; size = 4
_r$ = -28						; size = 4
_mantissa$ = -24					; size = 4
_imask$ = -20						; size = 4
_expsign$ = -16						; size = 4
_exponent$ = -12					; size = 4
_sign$ = -8						; size = 4
_a$ = -4						; size = 4
_f$ = 8							; size = 4
?Float_To_Int_Floor@WWMath@@SAHABM@Z PROC		; WWMath::Float_To_Int_Floor, COMDAT

; 326  : {

	push	ebp
	mov	ebp, esp
	sub	esp, 96					; 00000060H
	push	ebx
	push	esi
	push	edi

; 327  : 	int a = *reinterpret_cast<const int*>(&f);

	mov	eax, DWORD PTR _f$[ebp]
	mov	ecx, DWORD PTR [eax]
	mov	DWORD PTR _a$[ebp], ecx

; 328  : 	int sign = (a>>31);

	mov	eax, DWORD PTR _a$[ebp]
	sar	eax, 31					; 0000001fH
	mov	DWORD PTR _sign$[ebp], eax

; 329  : 	a&=0x7fffffff;

	mov	eax, DWORD PTR _a$[ebp]
	and	eax, 2147483647				; 7fffffffH
	mov	DWORD PTR _a$[ebp], eax

; 330  : 	int exponent = (a>>23)-127;

	mov	eax, DWORD PTR _a$[ebp]
	sar	eax, 23					; 00000017H
	sub	eax, 127				; 0000007fH
	mov	DWORD PTR _exponent$[ebp], eax

; 331  : 	int expsign	= ~(exponent>>31);

	mov	eax, DWORD PTR _exponent$[ebp]
	sar	eax, 31					; 0000001fH
	not	eax
	mov	DWORD PTR _expsign$[ebp], eax

; 332  : 	int imask = ( (1<<(31-(exponent))))-1;

	mov	ecx, 31					; 0000001fH
	sub	ecx, DWORD PTR _exponent$[ebp]
	mov	eax, 1
	shl	eax, cl
	sub	eax, 1
	mov	DWORD PTR _imask$[ebp], eax

; 333  : 	int mantissa = (a&((1<<23)-1));

	mov	eax, DWORD PTR _a$[ebp]
	and	eax, 8388607				; 007fffffH
	mov	DWORD PTR _mantissa$[ebp], eax

; 334  : 	int r = ((unsigned int)(mantissa|(1<<23))<<8)>>(31-exponent);

	mov	eax, DWORD PTR _mantissa$[ebp]
	or	eax, 8388608				; 00800000H
	shl	eax, 8
	mov	ecx, 31					; 0000001fH
	sub	ecx, DWORD PTR _exponent$[ebp]
	shr	eax, cl
	mov	DWORD PTR _r$[ebp], eax

; 335  : #pragma warning(suppress: 6290) //warning C6290: Bitwise operation on logical result: ! has higher precedence than &. Use && or (!(x & y)) instead
; 336  : 	r = ((r & expsign) ^ (sign)) + ((!((mantissa<<8)&imask)&(expsign^((a-1)>>31)))&sign);

	mov	eax, DWORD PTR _mantissa$[ebp]
	shl	eax, 8
	and	eax, DWORD PTR _imask$[ebp]
	jne	SHORT $LN3@Float_To_I
	mov	DWORD PTR tv83[ebp], 1
	jmp	SHORT $LN4@Float_To_I
$LN3@Float_To_I:
	mov	DWORD PTR tv83[ebp], 0
$LN4@Float_To_I:
	mov	ecx, DWORD PTR _r$[ebp]
	and	ecx, DWORD PTR _expsign$[ebp]
	xor	ecx, DWORD PTR _sign$[ebp]
	mov	edx, DWORD PTR _a$[ebp]
	sub	edx, 1
	sar	edx, 31					; 0000001fH
	xor	edx, DWORD PTR _expsign$[ebp]
	and	edx, DWORD PTR tv83[ebp]
	and	edx, DWORD PTR _sign$[ebp]
	add	ecx, edx
	mov	DWORD PTR _r$[ebp], ecx

; 337  : 	return r;

	mov	eax, DWORD PTR _r$[ebp]

; 338  : }

	pop	edi
	pop	esi
	pop	ebx
	mov	esp, ebp
	pop	ebp
	ret	0
?Float_To_Int_Floor@WWMath@@SAHABM@Z ENDP		; WWMath::Float_To_Int_Floor
_TEXT	ENDS
; Function compile flags: /Odtp /ZI
; File x:\github\renegade\dragonade_rxd\scripts\wwmath.h
;	COMDAT ?Float_To_Int_Chop@WWMath@@SAHABM@Z
_TEXT	SEGMENT
_r$ = -20						; size = 4
_exponent$ = -16					; size = 4
_mantissa$ = -12					; size = 4
_sign$ = -8						; size = 4
_a$ = -4						; size = 4
_f$ = 8							; size = 4
?Float_To_Int_Chop@WWMath@@SAHABM@Z PROC		; WWMath::Float_To_Int_Chop, COMDAT

; 316  : {

	push	ebp
	mov	ebp, esp
	sub	esp, 84					; 00000054H
	push	ebx
	push	esi
	push	edi

; 317  :     int a = *reinterpret_cast<const int*>(&f);

	mov	eax, DWORD PTR _f$[ebp]
	mov	ecx, DWORD PTR [eax]
	mov	DWORD PTR _a$[ebp], ecx

; 318  :     int sign = (a>>31);

	mov	eax, DWORD PTR _a$[ebp]
	sar	eax, 31					; 0000001fH
	mov	DWORD PTR _sign$[ebp], eax

; 319  :     int mantissa = (a&((1<<23)-1))|(1<<23);

	mov	eax, DWORD PTR _a$[ebp]
	and	eax, 8388607				; 007fffffH
	or	eax, 8388608				; 00800000H
	mov	DWORD PTR _mantissa$[ebp], eax

; 320  :     int exponent = ((a&0x7fffffff)>>23)-127;

	mov	eax, DWORD PTR _a$[ebp]
	and	eax, 2147483647				; 7fffffffH
	sar	eax, 23					; 00000017H
	sub	eax, 127				; 0000007fH
	mov	DWORD PTR _exponent$[ebp], eax

; 321  :     int r = ((unsigned int)(mantissa)<<8)>>(31-exponent);

	mov	eax, DWORD PTR _mantissa$[ebp]
	shl	eax, 8
	mov	ecx, 31					; 0000001fH
	sub	ecx, DWORD PTR _exponent$[ebp]
	shr	eax, cl
	mov	DWORD PTR _r$[ebp], eax

; 322  :     return ((r ^ (sign)) - sign ) &~ (exponent>>31);

	mov	eax, DWORD PTR _r$[ebp]
	xor	eax, DWORD PTR _sign$[ebp]
	sub	eax, DWORD PTR _sign$[ebp]
	mov	ecx, DWORD PTR _exponent$[ebp]
	sar	ecx, 31					; 0000001fH
	not	ecx
	and	eax, ecx

; 323  : }

	pop	edi
	pop	esi
	pop	ebx
	mov	esp, ebp
	pop	ebp
	ret	0
?Float_To_Int_Chop@WWMath@@SAHABM@Z ENDP		; WWMath::Float_To_Int_Chop
_TEXT	ENDS
; Function compile flags: /Odtp /ZI
; File x:\github\renegade\dragonade_rxd\scripts\wwmath.h
;	COMDAT ?Fabs@WWMath@@SAMM@Z
_TEXT	SEGMENT
_value$ = -4						; size = 4
_val$ = 8						; size = 4
?Fabs@WWMath@@SAMM@Z PROC				; WWMath::Fabs, COMDAT

; 57   : 	{

	push	ebp
	mov	ebp, esp
	sub	esp, 68					; 00000044H
	push	ebx
	push	esi
	push	edi

; 58   : 		int value=*(int*)&val;

	mov	eax, DWORD PTR _val$[ebp]
	mov	DWORD PTR _value$[ebp], eax

; 59   : 		value&=0x7fffffff;

	mov	eax, DWORD PTR _value$[ebp]
	and	eax, 2147483647				; 7fffffffH
	mov	DWORD PTR _value$[ebp], eax

; 60   : 		return *(float*)&value;

	fld	DWORD PTR _value$[ebp]

; 61   : 	}

	pop	edi
	pop	esi
	pop	ebx
	mov	esp, ebp
	pop	ebp
	ret	0
?Fabs@WWMath@@SAMM@Z ENDP				; WWMath::Fabs
_TEXT	ENDS
; Function compile flags: /Odtp /ZI
; File c:\program files (x86)\microsoft visual studio 11.0\vc\include\math.h
;	COMDAT ?sqrt@@YAMM@Z
_TEXT	SEGMENT
__X$ = 8						; size = 4
?sqrt@@YAMM@Z PROC					; sqrt, COMDAT

; 541  :         {return (sqrtf(_X)); }

	push	ebp
	mov	ebp, esp
	sub	esp, 64					; 00000040H
	push	ebx
	push	esi
	push	edi
	push	ecx
	movss	xmm0, DWORD PTR __X$[ebp]
	movss	DWORD PTR [esp], xmm0
	call	_sqrtf
	add	esp, 4
	pop	edi
	pop	esi
	pop	ebx
	mov	esp, ebp
	pop	ebp
	ret	0
?sqrt@@YAMM@Z ENDP					; sqrt
_TEXT	ENDS
; Function compile flags: /Odtp /ZI
; File c:\program files (x86)\microsoft visual studio 11.0\vc\include\math.h
;	COMDAT ?sin@@YAMM@Z
_TEXT	SEGMENT
__X$ = 8						; size = 4
?sin@@YAMM@Z PROC					; sin, COMDAT

; 537  :         {return (sinf(_X)); }

	push	ebp
	mov	ebp, esp
	sub	esp, 64					; 00000040H
	push	ebx
	push	esi
	push	edi
	push	ecx
	movss	xmm0, DWORD PTR __X$[ebp]
	movss	DWORD PTR [esp], xmm0
	call	_sinf
	add	esp, 4
	pop	edi
	pop	esi
	pop	ebx
	mov	esp, ebp
	pop	ebp
	ret	0
?sin@@YAMM@Z ENDP					; sin
_TEXT	ENDS
; Function compile flags: /Odtp /ZI
; File c:\program files (x86)\microsoft visual studio 11.0\vc\include\math.h
;	COMDAT ?cos@@YAMM@Z
_TEXT	SEGMENT
__X$ = 8						; size = 4
?cos@@YAMM@Z PROC					; cos, COMDAT

; 511  :         {return (cosf(_X)); }

	push	ebp
	mov	ebp, esp
	sub	esp, 64					; 00000040H
	push	ebx
	push	esi
	push	edi
	push	ecx
	movss	xmm0, DWORD PTR __X$[ebp]
	movss	DWORD PTR [esp], xmm0
	call	_cosf
	add	esp, 4
	pop	edi
	pop	esi
	pop	ebx
	mov	esp, ebp
	pop	ebp
	ret	0
?cos@@YAMM@Z ENDP					; cos
_TEXT	ENDS
; Function compile flags: /Odtp /ZI
; File c:\program files (x86)\microsoft visual studio 11.0\vc\include\math.h
;	COMDAT ?atan2@@YAMMM@Z
_TEXT	SEGMENT
__Y$ = 8						; size = 4
__X$ = 12						; size = 4
?atan2@@YAMMM@Z PROC					; atan2, COMDAT

; 507  :         {return (atan2f(_Y, _X)); }

	push	ebp
	mov	ebp, esp
	sub	esp, 64					; 00000040H
	push	ebx
	push	esi
	push	edi
	push	ecx
	movss	xmm0, DWORD PTR __X$[ebp]
	movss	DWORD PTR [esp], xmm0
	push	ecx
	movss	xmm0, DWORD PTR __Y$[ebp]
	movss	DWORD PTR [esp], xmm0
	call	_atan2f
	add	esp, 8
	pop	edi
	pop	esi
	pop	ebx
	mov	esp, ebp
	pop	ebp
	ret	0
?atan2@@YAMMM@Z ENDP					; atan2
_TEXT	ENDS
; Function compile flags: /Odtp /ZI
; File c:\program files (x86)\microsoft visual studio 11.0\vc\include\math.h
;	COMDAT ?atan@@YAMM@Z
_TEXT	SEGMENT
__X$ = 8						; size = 4
?atan@@YAMM@Z PROC					; atan, COMDAT

; 505  :         {return (atanf(_X)); }

	push	ebp
	mov	ebp, esp
	sub	esp, 64					; 00000040H
	push	ebx
	push	esi
	push	edi
	push	ecx
	movss	xmm0, DWORD PTR __X$[ebp]
	movss	DWORD PTR [esp], xmm0
	call	_atanf
	add	esp, 4
	pop	edi
	pop	esi
	pop	ebx
	mov	esp, ebp
	pop	ebp
	ret	0
?atan@@YAMM@Z ENDP					; atan
_TEXT	ENDS
; Function compile flags: /Odtp /ZI
; File c:\program files (x86)\microsoft visual studio 11.0\vc\include\math.h
;	COMDAT ?asin@@YAMM@Z
_TEXT	SEGMENT
__X$ = 8						; size = 4
?asin@@YAMM@Z PROC					; asin, COMDAT

; 503  :         {return (asinf(_X)); }

	push	ebp
	mov	ebp, esp
	sub	esp, 64					; 00000040H
	push	ebx
	push	esi
	push	edi
	push	ecx
	movss	xmm0, DWORD PTR __X$[ebp]
	movss	DWORD PTR [esp], xmm0
	call	_asinf
	add	esp, 4
	pop	edi
	pop	esi
	pop	ebx
	mov	esp, ebp
	pop	ebp
	ret	0
?asin@@YAMM@Z ENDP					; asin
_TEXT	ENDS
; Function compile flags: /Odtp /ZI
; File c:\program files (x86)\microsoft visual studio 11.0\vc\include\math.h
;	COMDAT ?acos@@YAMM@Z
_TEXT	SEGMENT
__X$ = 8						; size = 4
?acos@@YAMM@Z PROC					; acos, COMDAT

; 501  :         {return (acosf(_X)); }

	push	ebp
	mov	ebp, esp
	sub	esp, 64					; 00000040H
	push	ebx
	push	esi
	push	edi
	push	ecx
	movss	xmm0, DWORD PTR __X$[ebp]
	movss	DWORD PTR [esp], xmm0
	call	_acosf
	add	esp, 4
	pop	edi
	pop	esi
	pop	ebx
	mov	esp, ebp
	pop	ebp
	ret	0
?acos@@YAMM@Z ENDP					; acos
_TEXT	ENDS
; Function compile flags: /Odtp /ZI
; File c:\program files (x86)\microsoft visual studio 11.0\vc\include\math.h
;	COMDAT _sqrtf
_TEXT	SEGMENT
tv71 = -68						; size = 4
__X$ = 8						; size = 4
_sqrtf	PROC						; COMDAT

; 434  :         {return ((float)sqrt((double)_X)); }

	push	ebp
	mov	ebp, esp
	sub	esp, 68					; 00000044H
	push	ebx
	push	esi
	push	edi
	cvtss2sd xmm0, DWORD PTR __X$[ebp]
	call	__libm_sse2_sqrt_precise
	cvtsd2ss xmm0, xmm0
	movss	DWORD PTR tv71[ebp], xmm0
	fld	DWORD PTR tv71[ebp]
	pop	edi
	pop	esi
	pop	ebx
	mov	esp, ebp
	pop	ebp
	ret	0
_sqrtf	ENDP
_TEXT	ENDS
; Function compile flags: /Odtp /ZI
; File c:\program files (x86)\microsoft visual studio 11.0\vc\include\math.h
;	COMDAT _sinf
_TEXT	SEGMENT
tv71 = -68						; size = 4
__X$ = 8						; size = 4
_sinf	PROC						; COMDAT

; 430  :         {return ((float)sin((double)_X)); }

	push	ebp
	mov	ebp, esp
	sub	esp, 68					; 00000044H
	push	ebx
	push	esi
	push	edi
	cvtss2sd xmm0, DWORD PTR __X$[ebp]
	call	__libm_sse2_sin_precise
	cvtsd2ss xmm0, xmm0
	movss	DWORD PTR tv71[ebp], xmm0
	fld	DWORD PTR tv71[ebp]
	pop	edi
	pop	esi
	pop	ebx
	mov	esp, ebp
	pop	ebp
	ret	0
_sinf	ENDP
_TEXT	ENDS
; Function compile flags: /Odtp /ZI
; File c:\program files (x86)\microsoft visual studio 11.0\vc\include\math.h
;	COMDAT _floorf
_TEXT	SEGMENT
tv80 = -84						; size = 4
tv78 = -80						; size = 8
tv72 = -72						; size = 8
__X$ = 8						; size = 4
_floorf	PROC						; COMDAT

; 416  :         {return ((float)floor((double)_X)); }

	push	ebp
	mov	ebp, esp
	sub	esp, 84					; 00000054H
	push	ebx
	push	esi
	push	edi
	cvtss2sd xmm0, DWORD PTR __X$[ebp]
	movsd	QWORD PTR tv72[ebp], xmm0
	fld	QWORD PTR tv72[ebp]
	sub	esp, 8
	fstp	QWORD PTR [esp]
	call	_floor
	add	esp, 8
	fstp	QWORD PTR tv78[ebp]
	movsd	xmm0, QWORD PTR tv78[ebp]
	cvtsd2ss xmm0, xmm0
	movss	DWORD PTR tv80[ebp], xmm0
	fld	DWORD PTR tv80[ebp]
	pop	edi
	pop	esi
	pop	ebx
	mov	esp, ebp
	pop	ebp
	ret	0
_floorf	ENDP
_TEXT	ENDS
; Function compile flags: /Odtp /ZI
; File c:\program files (x86)\microsoft visual studio 11.0\vc\include\math.h
;	COMDAT _cosf
_TEXT	SEGMENT
tv71 = -68						; size = 4
__X$ = 8						; size = 4
_cosf	PROC						; COMDAT

; 410  :         {return ((float)cos((double)_X)); }

	push	ebp
	mov	ebp, esp
	sub	esp, 68					; 00000044H
	push	ebx
	push	esi
	push	edi
	cvtss2sd xmm0, DWORD PTR __X$[ebp]
	call	__libm_sse2_cos_precise
	cvtsd2ss xmm0, xmm0
	movss	DWORD PTR tv71[ebp], xmm0
	fld	DWORD PTR tv71[ebp]
	pop	edi
	pop	esi
	pop	ebx
	mov	esp, ebp
	pop	ebp
	ret	0
_cosf	ENDP
_TEXT	ENDS
; Function compile flags: /Odtp /ZI
; File c:\program files (x86)\microsoft visual studio 11.0\vc\include\math.h
;	COMDAT _ceilf
_TEXT	SEGMENT
tv76 = -76						; size = 4
tv74 = -72						; size = 8
__X$ = 8						; size = 4
_ceilf	PROC						; COMDAT

; 408  :         {return ((float)ceil((double)_X)); }

	push	ebp
	mov	ebp, esp
	sub	esp, 76					; 0000004cH
	push	ebx
	push	esi
	push	edi
	cvtss2sd xmm0, DWORD PTR __X$[ebp]
	sub	esp, 8
	movsd	QWORD PTR [esp], xmm0
	call	DWORD PTR __imp__ceil
	add	esp, 8
	fstp	QWORD PTR tv74[ebp]
	movsd	xmm0, QWORD PTR tv74[ebp]
	cvtsd2ss xmm0, xmm0
	movss	DWORD PTR tv76[ebp], xmm0
	fld	DWORD PTR tv76[ebp]
	pop	edi
	pop	esi
	pop	ebx
	mov	esp, ebp
	pop	ebp
	ret	0
_ceilf	ENDP
_TEXT	ENDS
; Function compile flags: /Odtp /ZI
; File c:\program files (x86)\microsoft visual studio 11.0\vc\include\math.h
;	COMDAT _atan2f
_TEXT	SEGMENT
tv85 = -92						; size = 4
tv83 = -88						; size = 8
tv77 = -80						; size = 8
tv75 = -72						; size = 8
__Y$ = 8						; size = 4
__X$ = 12						; size = 4
_atan2f	PROC						; COMDAT

; 406  :         {return ((float)atan2((double)_Y, (double)_X)); }

	push	ebp
	mov	ebp, esp
	sub	esp, 92					; 0000005cH
	push	ebx
	push	esi
	push	edi
	cvtss2sd xmm0, DWORD PTR __Y$[ebp]
	movsd	QWORD PTR tv75[ebp], xmm0
	fld	QWORD PTR tv75[ebp]
	cvtss2sd xmm0, DWORD PTR __X$[ebp]
	movsd	QWORD PTR tv77[ebp], xmm0
	fld	QWORD PTR tv77[ebp]
	call	__CIatan2
	fstp	QWORD PTR tv83[ebp]
	movsd	xmm0, QWORD PTR tv83[ebp]
	cvtsd2ss xmm0, xmm0
	movss	DWORD PTR tv85[ebp], xmm0
	fld	DWORD PTR tv85[ebp]
	pop	edi
	pop	esi
	pop	ebx
	mov	esp, ebp
	pop	ebp
	ret	0
_atan2f	ENDP
_TEXT	ENDS
; Function compile flags: /Odtp /ZI
; File c:\program files (x86)\microsoft visual studio 11.0\vc\include\math.h
;	COMDAT _atanf
_TEXT	SEGMENT
tv71 = -68						; size = 4
__X$ = 8						; size = 4
_atanf	PROC						; COMDAT

; 404  :         {return ((float)atan((double)_X)); }

	push	ebp
	mov	ebp, esp
	sub	esp, 68					; 00000044H
	push	ebx
	push	esi
	push	edi
	cvtss2sd xmm0, DWORD PTR __X$[ebp]
	call	__libm_sse2_atan_precise
	cvtsd2ss xmm0, xmm0
	movss	DWORD PTR tv71[ebp], xmm0
	fld	DWORD PTR tv71[ebp]
	pop	edi
	pop	esi
	pop	ebx
	mov	esp, ebp
	pop	ebp
	ret	0
_atanf	ENDP
_TEXT	ENDS
; Function compile flags: /Odtp /ZI
; File c:\program files (x86)\microsoft visual studio 11.0\vc\include\math.h
;	COMDAT _asinf
_TEXT	SEGMENT
tv71 = -68						; size = 4
__X$ = 8						; size = 4
_asinf	PROC						; COMDAT

; 402  :         {return ((float)asin((double)_X)); }

	push	ebp
	mov	ebp, esp
	sub	esp, 68					; 00000044H
	push	ebx
	push	esi
	push	edi
	cvtss2sd xmm0, DWORD PTR __X$[ebp]
	call	__libm_sse2_asin_precise
	cvtsd2ss xmm0, xmm0
	movss	DWORD PTR tv71[ebp], xmm0
	fld	DWORD PTR tv71[ebp]
	pop	edi
	pop	esi
	pop	ebx
	mov	esp, ebp
	pop	ebp
	ret	0
_asinf	ENDP
_TEXT	ENDS
; Function compile flags: /Odtp /ZI
; File c:\program files (x86)\microsoft visual studio 11.0\vc\include\math.h
;	COMDAT _acosf
_TEXT	SEGMENT
tv71 = -68						; size = 4
__X$ = 8						; size = 4
_acosf	PROC						; COMDAT

; 400  :         {return ((float)acos((double)_X)); }

	push	ebp
	mov	ebp, esp
	sub	esp, 68					; 00000044H
	push	ebx
	push	esi
	push	edi
	cvtss2sd xmm0, DWORD PTR __X$[ebp]
	call	__libm_sse2_acos_precise
	cvtsd2ss xmm0, xmm0
	movss	DWORD PTR tv71[ebp], xmm0
	fld	DWORD PTR tv71[ebp]
	pop	edi
	pop	esi
	pop	ebx
	mov	esp, ebp
	pop	ebp
	ret	0
_acosf	ENDP
_TEXT	ENDS
; Function compile flags: /Odtp /ZI
;	COMDAT ??_I@YGXPAXIHP6EX0@Z@Z
_TEXT	SEGMENT
___t$ = 8						; size = 4
___s$ = 12						; size = 4
___n$ = 16						; size = 4
___f$ = 20						; size = 4
??_I@YGXPAXIHP6EX0@Z@Z PROC				; `vector destructor iterator', COMDAT
	push	ebp
	mov	ebp, esp
	sub	esp, 64					; 00000040H
	push	ebx
	push	esi
	push	edi
	mov	eax, DWORD PTR ___s$[ebp]
	imul	eax, DWORD PTR ___n$[ebp]
	add	eax, DWORD PTR ___t$[ebp]
	mov	DWORD PTR ___t$[ebp], eax
$LN2@vector:
	mov	eax, DWORD PTR ___n$[ebp]
	sub	eax, 1
	mov	DWORD PTR ___n$[ebp], eax
	js	SHORT $LN3@vector
	mov	eax, DWORD PTR ___t$[ebp]
	sub	eax, DWORD PTR ___s$[ebp]
	mov	DWORD PTR ___t$[ebp], eax
	mov	ecx, DWORD PTR ___t$[ebp]
	call	DWORD PTR ___f$[ebp]
	jmp	SHORT $LN2@vector
$LN3@vector:
	pop	edi
	pop	esi
	pop	ebx
	mov	esp, ebp
	pop	ebp
	ret	16					; 00000010H
??_I@YGXPAXIHP6EX0@Z@Z ENDP				; `vector destructor iterator'
_TEXT	ENDS
END
