 MemoryManager

 Timestamp is 63e2cf86 (Tue Feb 07 14:24:06 2023)

 Preferred load address is 10000000

 Start         Length     Name                   Class
 0001:00000000 00000dceH .text                   CODE
 0001:00000dd0 0000002aH .text$yc                CODE
 0002:00000000 00000078H .idata$5                DATA
 0002:00000078 00000004H .CRT$XCA                DATA
 0002:0000007c 00000004H .CRT$XCL                DATA
 0002:00000080 00000004H .CRT$XCZ                DATA
 0002:00000084 00000004H .CRT$XIA                DATA
 0002:00000088 00000004H .CRT$XIAA               DATA
 0002:0000008c 00000004H .CRT$XIC                DATA
 0002:00000090 00000004H .CRT$XIZ                DATA
 0002:000000a0 00000200H .rdata                  DATA
 0002:000002a0 00000068H .rdata$debug            DATA
 0002:00000308 00000004H .rtc$IAA                DATA
 0002:0000030c 00000004H .rtc$IZZ                DATA
 0002:00000310 00000004H .rtc$TAA                DATA
 0002:00000314 00000004H .rtc$TZZ                DATA
 0002:00000318 00000064H .xdata$x                DATA
 0002:0000037c 0000003cH .idata$2                DATA
 0002:000003b8 00000014H .idata$3                DATA
 0002:000003cc 00000078H .idata$4                DATA
 0002:00000444 00000208H .idata$6                DATA
 0002:00000650 000002dfH .edata                  DATA
 0003:00000000 0000000cH .data                   DATA
 0003:00000010 00000348H .bss                    DATA
 0004:00000000 00000058H .rsrc$01                DATA
 0004:00000060 00000180H .rsrc$02                DATA

  Address         Publics by Value              Rva+Base       Lib:Object

 0000:00000000       ___safe_se_handler_count   00000000     <absolute>
 0000:00000000       ___safe_se_handler_table   00000000     <absolute>
 0000:00000000       ___ImageBase               10000000     <linker-defined>
 0001:00000000       _DllMain@12                10001000 f   dllmain_release.obj
 0001:00000010       ?Push@_TSListBase32@@QAEPAU_TSLNode32@@PAU2@@Z 10001010 f i FastAllocator.obj
 0001:000000b0       ?Pop@_TSListBase32@@QAEPAU_TSLNode32@@XZ 100010b0 f i FastAllocator.obj
 0001:00000110       ??0FastAllocatorGeneral@@QAE@XZ 10001110 f i FastAllocator.obj
 0001:00000210       ?Allocate@FastFixedAllocator@@QAEPAXXZ 10001210 f i MemoryManager_release.obj
 0001:000002e0       ?Allocate@FastAllocatorGeneral@@QAEPAXI@Z 100012e0 f i MemoryManager_release.obj
 0001:00000330       ?Reallocate@FastAllocatorGeneral@@QAEPAXPAXI@Z 10001330 f i MemoryManager_release.obj
 0001:000003e0       ?CheckMemoryManagerConfiguration@@YAXH@Z 100013e0 f   MemoryManager_release.obj
 0001:00000400       ?SetThreadTrackingInformation@@YAXPBDI0@Z 10001400 f   MemoryManager_release.obj
 0001:00000400       ?PopAllocationTag@@YAXXZ   10001400 f   MemoryManager_release.obj
 0001:00000400       ?PushAllocationTag@@YAXPBD@Z 10001400 f   MemoryManager_release.obj
 0001:00000410       ??_U@YAPAXI@Z              10001410 f   MemoryManager_release.obj
 0001:00000410       ??2@YAPAXI@Z               10001410 f   MemoryManager_release.obj
 0001:00000410       ??2@YAPAXIPBDI@Z           10001410 f   MemoryManager_release.obj
 0001:00000410       ?AllocateMemory@@YAPAXIW4AllocType@@PBDI1@Z 10001410 f   MemoryManager_release.obj
 0001:00000410       ?AllocateMemory@@YAPAXI@Z  10001410 f   MemoryManager_release.obj
 0001:00000410       ??_U@YAPAXIPBDI@Z          10001410 f   MemoryManager_release.obj
 0001:00000460       ?ReallocateMemory@@YAPAXPAXI@Z 10001460 f   MemoryManager_release.obj
 0001:00000460       ?ReallocateMemory@@YAPAXPAXIPBDI1@Z 10001460 f   MemoryManager_release.obj
 0001:00000480       ??3@YAXPAX@Z               10001480 f   MemoryManager_release.obj
 0001:00000480       ?FreeMemory@@YAXPAX@Z      10001480 f   MemoryManager_release.obj
 0001:00000480       ??_V@YAXPAX@Z              10001480 f   MemoryManager_release.obj
 0001:000004b0       ??_V@YAXPAXPBDI@Z          100014b0 f   MemoryManager_release.obj
 0001:000004b0       ?FreeMemory@@YAXPAXW4DeallocType@@PBDI2@Z 100014b0 f   MemoryManager_release.obj
 0001:000004b0       ??3@YAXPAXPBDI@Z           100014b0 f   MemoryManager_release.obj
 0001:000004e0       ?GetMemorySize@@YAIPAX@Z   100014e0 f   MemoryManager_release.obj
 0001:00000543       __CRT_INIT@12              10001543 f   MSVCRT:crtdll.obj
 0001:00000738       __DllMainCRTStartup@12     10001738 f   MSVCRT:crtdll.obj
 0001:0000088e       ___CppXcptFilter           1000188e f   MSVCRT:MSVCR110.dll
 0001:00000894       __amsg_exit                10001894 f   MSVCRT:MSVCR110.dll
 0001:000008a0       __FindPESection            100018a0 f   MSVCRT:pesect.obj
 0001:000008f0       __IsNonwritableInCurrentImage 100018f0 f   MSVCRT:pesect.obj
 0001:000009b0       __ValidateImageBase        100019b0 f   MSVCRT:pesect.obj
 0001:000009e1       ___atonexitinit            100019e1 f   MSVCRT:atonexit.obj
 0001:00000a1d       __onexit                   10001a1d f   MSVCRT:atonexit.obj
 0001:00000ac2       _atexit                    10001ac2 f   MSVCRT:atonexit.obj
 0001:00000ad7       ___security_init_cookie    10001ad7 f   MSVCRT:gs_support.obj
 0001:00000b71       __RTC_Initialize           10001b71 f   MSVCRT:initsect.obj
 0001:00000b91       __RTC_Terminate            10001b91 f   MSVCRT:initsect.obj
 0001:00000bb2       __initterm                 10001bb2 f   MSVCRT:MSVCR110.dll
 0001:00000bb8       __initterm_e               10001bb8 f   MSVCRT:MSVCR110.dll
 0001:00000bbe       ___clean_type_info_names   10001bbe f   MSVCRT:tncleanup.obj
 0001:00000bd0       __SEH_prolog4              10001bd0 f   MSVCRT:sehprolg4.obj
 0001:00000c15       __SEH_epilog4              10001c15 f   MSVCRT:sehprolg4.obj
 0001:00000c29       __except_handler4          10001c29 f   MSVCRT:chandler4gs.obj
 0001:00000c4c       __lock                     10001c4c f   MSVCRT:MSVCR110.dll
 0001:00000c52       __unlock                   10001c52 f   MSVCRT:MSVCR110.dll
 0001:00000c58       ___dllonexit               10001c58 f   MSVCRT:MSVCR110.dll
 0001:00000c5e       ___clean_type_info_names_internal 10001c5e f   MSVCRT:MSVCR110.dll
 0001:00000c64       @__security_check_cookie@4 10001c64 f   MSVCRT:secchk.obj
 0001:00000c74       __except_handler4_common   10001c74 f   MSVCRT:MSVCR110.dll
 0001:00000c7a       ___raise_securityfailure   10001c7a f   MSVCRT:gs_report.obj
 0001:00000cb7       ___report_gsfailure        10001cb7 f   MSVCRT:gs_report.obj
 0001:00000db0       __crt_debugger_hook        10001db0 f   MSVCRT:MSVCR110.dll
 0001:00000db6       ___crtUnhandledException   10001db6 f   MSVCRT:MSVCR110.dll
 0001:00000dbc       ___crtTerminateProcess     10001dbc f   MSVCRT:MSVCR110.dll
 0001:00000dc2       _IsProcessorFeaturePresent@4 10001dc2 f   kernel32:KERNEL32.dll
 0001:00000dc8       _memcpy                    10001dc8 f   MSVCRT:MSVCR110.dll
 0002:00000000       __imp__IsProcessorFeaturePresent@4 10002000     kernel32:KERNEL32.dll
 0002:00000004       __imp__GetSystemTimeAsFileTime@4 10002004     kernel32:KERNEL32.dll
 0002:00000008       __imp__GetCurrentThreadId@0 10002008     kernel32:KERNEL32.dll
 0002:0000000c       __imp__GetCurrentProcessId@0 1000200c     kernel32:KERNEL32.dll
 0002:00000010       __imp__QueryPerformanceCounter@4 10002010     kernel32:KERNEL32.dll
 0002:00000014       __imp__DecodePointer@4     10002014     kernel32:KERNEL32.dll
 0002:00000018       __imp__EncodePointer@4     10002018     kernel32:KERNEL32.dll
 0002:0000001c       __imp__IsDebuggerPresent@0 1000201c     kernel32:KERNEL32.dll
 0002:00000020       \177KERNEL32_NULL_THUNK_DATA 10002020     kernel32:KERNEL32.dll
 0002:00000024       __imp___lock               10002024     MSVCRT:MSVCR110.dll
 0002:00000028       __imp___unlock             10002028     MSVCRT:MSVCR110.dll
 0002:0000002c       __imp___calloc_crt         1000202c     MSVCRT:MSVCR110.dll
 0002:00000030       __imp___initterm_e         10002030     MSVCRT:MSVCR110.dll
 0002:00000034       __imp___onexit             10002034     MSVCRT:MSVCR110.dll
 0002:00000038       __imp__memcpy              10002038     MSVCRT:MSVCR110.dll
 0002:0000003c       __imp___except_handler4_common 1000203c     MSVCRT:MSVCR110.dll
 0002:00000040       __imp___crt_debugger_hook  10002040     MSVCRT:MSVCR110.dll
 0002:00000044       __imp____crtUnhandledException 10002044     MSVCRT:MSVCR110.dll
 0002:00000048       __imp____crtTerminateProcess 10002048     MSVCRT:MSVCR110.dll
 0002:0000004c       __imp___initterm           1000204c     MSVCRT:MSVCR110.dll
 0002:00000050       __imp___malloc_crt         10002050     MSVCRT:MSVCR110.dll
 0002:00000054       __imp___amsg_exit          10002054     MSVCRT:MSVCR110.dll
 0002:00000058       __imp____CppXcptFilter     10002058     MSVCRT:MSVCR110.dll
 0002:0000005c       __imp__malloc              1000205c     MSVCRT:MSVCR110.dll
 0002:00000060       __imp__free                10002060     MSVCRT:MSVCR110.dll
 0002:00000064       __imp____dllonexit         10002064     MSVCRT:MSVCR110.dll
 0002:00000068       __imp____clean_type_info_names_internal 10002068     MSVCRT:MSVCR110.dll
 0002:0000006c       \177MSVCR110_NULL_THUNK_DATA 1000206c     MSVCRT:MSVCR110.dll
 0002:00000070       __imp__MessageBoxW@16      10002070     user32:USER32.dll
 0002:00000074       \177USER32_NULL_THUNK_DATA 10002074     user32:USER32.dll
 0002:00000078       ___xc_a                    10002078     MSVCRT:cinitexe.obj
 0002:00000080       ___xc_z                    10002080     MSVCRT:cinitexe.obj
 0002:00000084       ___xi_a                    10002084     MSVCRT:cinitexe.obj
 0002:00000090       ___xi_z                    10002090     MSVCRT:cinitexe.obj
 0002:000000d8       __pDefaultRawDllMain       100020d8     MSVCRT:crtdll.obj
 0002:000000d8       __pRawDllMain              100020d8     MSVCRT:crtdll.obj
 0002:000000e4       ??_C@_1CE@CAHILFNE@?$AAM?$AAe?$AAm?$AAo?$AAr?$AAy?$AAM?$AAa?$AAn?$AAa?$AAg?$AAe?$AAr?$AA?4?$AAd?$AAl?$AAl?$AA?$AA@ 100020e4     MemoryManager_release.obj
 0002:00000108       ??_C@_1BEO@FMLAEOE@?$AAT?$AAh?$AAi?$AAs?$AA?5?$AAi?$AAs?$AA?5?$AAa?$AA?5?$AAf?$AAr?$AAi?$AAe?$AAn?$AAd?$AAl?$AAy?$AA?5?$AAw?$AAa?$AAr?$AAn?$AAi?$AAn?$AAg?$AA?5?$AAt?$AAo?$AA?5?$AAr?$AAe@ 10002108     MemoryManager_release.obj
 0002:00000258       __load_config_used         10002258     MSVCRT:loadcfg.obj
 0002:00000308       ___rtc_iaa                 10002308     MSVCRT:initsect.obj
 0002:0000030c       ___rtc_izz                 1000230c     MSVCRT:initsect.obj
 0002:00000310       ___rtc_taa                 10002310     MSVCRT:initsect.obj
 0002:00000314       ___rtc_tzz                 10002314     MSVCRT:initsect.obj
 0002:0000037c       __IMPORT_DESCRIPTOR_USER32 1000237c     user32:USER32.dll
 0002:00000390       __IMPORT_DESCRIPTOR_MSVCR110 10002390     MSVCRT:MSVCR110.dll
 0002:000003a4       __IMPORT_DESCRIPTOR_KERNEL32 100023a4     kernel32:KERNEL32.dll
 0002:000003b8       __NULL_IMPORT_DESCRIPTOR   100023b8     user32:USER32.dll
 0003:00000000       ___native_dllmain_reason   10003000     MSVCRT:natstart.obj
 0003:00000004       ___security_cookie         10003004     MSVCRT:gs_cookie.obj
 0003:00000008       ___security_cookie_complement 10003008     MSVCRT:gs_cookie.obj
 0003:00000014       ?__type_info_root_node@@3U__type_info_node@@A 10003014     MSVCRT:tncleanup.obj
 0003:00000344       ___native_startup_lock     10003344     <common>
 0003:00000348       ___native_startup_state    10003348     <common>
 0003:0000034c       ___onexitend               1000334c     <common>
 0003:00000350       ___onexitbegin             10003350     <common>
 0003:00000354       ___dyn_tls_init_callback   10003354     <common>

 entry point at        0001:00000738

 Static symbols

 0000:ffffa000       .debug$S                   10000000     kernel32:KERNEL32.dll
 0000:ffffa000       .debug$S                   10000000     MSVCRT:MSVCR110.dll
 0000:ffffa000       .debug$S                   10000000     MSVCRT:MSVCR110.dll
 0000:ffffa000       .debug$S                   10000000     MSVCRT:MSVCR110.dll
 0000:ffffa000       .debug$S                   10000000     MSVCRT:MSVCR110.dll
 0000:ffffa000       .debug$S                   10000000     MSVCRT:MSVCR110.dll
 0000:ffffa000       .debug$S                   10000000     MSVCRT:MSVCR110.dll
 0000:ffffa000       .debug$S                   10000000     MSVCRT:MSVCR110.dll
 0000:ffffa000       .debug$S                   10000000     MSVCRT:MSVCR110.dll
 0000:ffffa000       .debug$S                   10000000     MSVCRT:MSVCR110.dll
 0000:ffffa000       .debug$S                   10000000     MSVCRT:MSVCR110.dll
 0000:ffffa000       .debug$S                   10000000     MSVCRT:MSVCR110.dll
 0000:ffffa000       .debug$S                   10000000     MSVCRT:MSVCR110.dll
 0000:ffffa000       .debug$S                   10000000     MSVCRT:MSVCR110.dll
 0000:ffffa000       .debug$S                   10000000     MSVCRT:MSVCR110.dll
 0000:ffffa000       .debug$S                   10000000     MSVCRT:MSVCR110.dll
 0000:ffffa000       .debug$S                   10000000     MSVCRT:MSVCR110.dll
 0000:ffffa000       .debug$S                   10000000     MSVCRT:MSVCR110.dll
 0000:ffffa000       .debug$S                   10000000     user32:USER32.dll
 0000:ffffa000       .debug$S                   10000000     MSVCRT:MSVCR110.dll
 0000:ffffa000       .debug$S                   10000000     kernel32:KERNEL32.dll
 0000:ffffa000       .debug$S                   10000000     kernel32:KERNEL32.dll
 0000:ffffa000       .debug$S                   10000000     kernel32:KERNEL32.dll
 0000:ffffa000       .debug$S                   10000000     kernel32:KERNEL32.dll
 0000:ffffa000       .debug$S                   10000000     kernel32:KERNEL32.dll
 0000:ffffa000       .debug$S                   10000000     kernel32:KERNEL32.dll
 0000:ffffa000       .debug$S                   10000000     kernel32:KERNEL32.dll
 0001:000004f7       _pre_c_init                100014f7 f   MSVCRT:crtdll.obj
 0001:0000075b       ___DllMainCRTStartup       1000175b f   MSVCRT:crtdll.obj
 0001:00000bd0       $$000000                   10001bd0     MSVCRT:sehprolg4.obj
 0001:00000dd0       ??__E__general_allocator@@YAXXZ 10001dd0 f   * CIL library *:* CIL module *
 0002:0000007c       ___general_allocator$initializer$ 1000207c     * CIL library *:* CIL module *
 0002:00000088       _pcinit                    10002088     MSVCRT:crtdll.obj
 0002:0000008c       _pinit                     1000208c     MSVCRT:atonexit.obj
 0002:000000dc       _GS_ExceptionPointers      100020dc     MSVCRT:gs_report.obj
 0002:00000318       __sehtable$___DllMainCRTStartup 10002318     MSVCRT:crtdll.obj
 0002:00000340       __sehtable$__IsNonwritableInCurrentImage 10002340     MSVCRT:pesect.obj
 0002:00000360       __sehtable$__onexit        10002360     MSVCRT:atonexit.obj
 0002:00000452       .idata$6                   10002452     user32:USER32.dll
 0002:00000470       .idata$6                   10002470     MSVCRT:MSVCR110.dll
 0002:00000634       .idata$6                   10002634     kernel32:KERNEL32.dll
 0002:00000650       .edata                     10002650     MemoryManager.exp
 0002:00000678       rgpv                       10002678     MemoryManager.exp
 0002:000006c4       rgszName                   100026c4     MemoryManager.exp
 0002:00000710       rgwOrd                     10002710     MemoryManager.exp
 0002:00000736       szName                     10002736     MemoryManager.exp
 0002:00000748       $N00001                    10002748     MemoryManager.exp
 0002:00000755       $N00002                    10002755     MemoryManager.exp
 0002:00000766       $N00003                    10002766     MemoryManager.exp
 0002:00000773       $N00004                    10002773     MemoryManager.exp
 0002:00000784       $N00005                    10002784     MemoryManager.exp
 0002:00000792       $N00006                    10002792     MemoryManager.exp
 0002:000007a4       $N00007                    100027a4     MemoryManager.exp
 0002:000007b2       $N00008                    100027b2     MemoryManager.exp
 0002:000007c4       $N00009                    100027c4     MemoryManager.exp
 0002:000007de       $N00010                    100027de     MemoryManager.exp
 0002:0000080a       $N00011                    1000280a     MemoryManager.exp
 0002:00000833       $N00012                    10002833     MemoryManager.exp
 0002:00000849       $N00013                    10002849     MemoryManager.exp
 0002:00000873       $N00014                    10002873     MemoryManager.exp
 0002:0000088c       $N00015                    1000288c     MemoryManager.exp
 0002:000008a5       $N00016                    100028a5     MemoryManager.exp
 0002:000008c2       $N00017                    100028c2     MemoryManager.exp
 0002:000008e1       $N00018                    100028e1     MemoryManager.exp
 0002:00000905       $N00019                    10002905     MemoryManager.exp
 0003:00000010       ___proc_attached           10003010     MSVCRT:crtdll.obj
 0003:00000020       _GS_ExceptionRecord        10003020     MSVCRT:gs_report.obj
 0003:00000070       _GS_ContextRecord          10003070     MSVCRT:gs_report.obj
 0003:0000033c       _DebuggerWasPresent        1000333c     MSVCRT:gs_report.obj
 0003:00000340       ___general_allocator       10003340     * CIL library *:* CIL module *
 0004:00000060       $R000000                   10004060     * linker generated manifest res *
