 shared

 Timestamp is 63e2cf87 (Tue Feb 07 14:24:07 2023)

 Preferred load address is 12800000

 Start         Length     Name                   Class
 0001:00000000 00007a70H .text                   CODE
 0001:00007a70 0000053cH .text$yc                CODE
 0001:00007fb0 000002edH .text$yd                CODE
 0002:00000000 000000c0H .idata$5                DATA
 0002:000000c0 00000004H .CRT$XCA                DATA
 0002:000000c4 0000001cH .CRT$XCL                DATA
 0002:000000e0 00000044H .CRT$XCU                DATA
 0002:00000124 00000004H .CRT$XCZ                DATA
 0002:00000128 00000004H .CRT$XIA                DATA
 0002:0000012c 00000004H .CRT$XIAA               DATA
 0002:00000130 00000004H .CRT$XIC                DATA
 0002:00000134 00000004H .CRT$XIZ                DATA
 0002:00000138 00000004H .CRT$XLA                DATA
 0002:0000013c 00000004H .CRT$XLZ                DATA
 0002:00000140 00000438H .rdata                  DATA
 0002:00000578 00000018H .rdata$T                DATA
 0002:00000590 00000060H .rdata$debug            DATA
 0002:000005f0 00000004H .rtc$IAA                DATA
 0002:000005f4 00000004H .rtc$IZZ                DATA
 0002:000005f8 00000004H .rtc$TAA                DATA
 0002:000005fc 00000004H .rtc$TZZ                DATA
 0002:00000600 00000064H .xdata$x                DATA
 0002:00000664 0000003cH .idata$2                DATA
 0002:000006a0 00000014H .idata$3                DATA
 0002:000006b4 000000c0H .idata$4                DATA
 0002:00000774 00000304H .idata$6                DATA
 0002:00000a80 00000d06H .edata                  DATA
 0003:00000000 00000080H .data                   DATA
 0003:00000080 000003ccH .bss                    DATA
 0004:00000000 00000001H .tls                    DATA
 0004:00000004 00000008H .stls                   DATA
 0004:00000010 00001020H .tls$                   DATA
 0004:00001030 00000001H .tls$ZZZ                DATA
 0005:00000000 00000058H .rsrc$01                DATA
 0005:00000060 00000180H .rsrc$02                DATA

  Address         Publics by Value              Rva+Base       Lib:Object

 0000:00000000       ___safe_se_handler_count   00000000     <absolute>
 0000:00000000       ___safe_se_handler_table   00000000     <absolute>
 0000:0000002c       __tls_array                0000002c     <absolute>
 0000:00000000       ___ImageBase               12800000     <linker-defined>
 0001:00000000       ?Read@ChunkLoadClass@@QAEJPAXK@Z 12801000 f   ChunkClasses.obj
 0001:00000080       ?Begin_Chunk@ChunkSaveClass@@QAE_NK@Z 12801080 f   ChunkClasses.obj
 0001:00000110       ?End_Chunk@ChunkSaveClass@@QAE_NXZ 12801110 f   ChunkClasses.obj
 0001:000001c0       ?Begin_Micro_Chunk@ChunkSaveClass@@QAE_NK@Z 128011c0 f   ChunkClasses.obj
 0001:00000250       ?On_Post_Load@PostLoadableClass@@UAEXXZ 12801250 f i DefinitionMgrClass.obj
 0001:00000250       ?Release_Resources@WideStringClass@@SAXXZ 12801250 f i engine_string.obj
 0001:00000250       ?Release_Resources@StringClass@@SAXXZ 12801250 f i engine_string.obj
 0001:00000260       ?GetHash@StringClass@@QBEIXZ 12801260 f i DefinitionMgrClass.obj
 0001:000002d0       ?Chunk_ID@DefinitionMgrClass@@UBEIXZ 128012d0 f i DefinitionMgrClass.obj
 0001:000002e0       ?Contains_Data@SaveLoadSubSystemClass@@UBE_NXZ 128012e0 f i PersistFactoryClass.obj
 0001:000002e0       ?Contains_Data@TranslateDBClass@@MBE_NXZ 128012e0 f i TranslateDBClass.obj
 0001:000002e0       ?Contains_Data@DefinitionMgrClass@@UBE_NXZ 128012e0 f i DefinitionMgrClass.obj
 0001:000002f0       ?Name@DefinitionMgrClass@@UBEPBDXZ 128012f0 f i DefinitionMgrClass.obj
 0001:00000300       ?Find_Definition@DefinitionMgrClass@@SAPAVDefinitionClass@@I_N@Z 12801300 f   DefinitionMgrClass.obj
 0001:000003f0       ?Unregister_Definition@DefinitionMgrClass@@SAXPAVDefinitionClass@@@Z 128013f0 f   DefinitionMgrClass.obj
 0001:00000450       ?Register_Definition@DefinitionMgrClass@@SAXPAVDefinitionClass@@@Z 12801450 f   DefinitionMgrClass.obj
 0001:00000580       ?Find_Named_Definition@DefinitionMgrClass@@SAPAVDefinitionClass@@PBD_N@Z 12801580 f   DefinitionMgrClass.obj
 0001:00000600       ?Find_Typed_Definition@DefinitionMgrClass@@SAPAVDefinitionClass@@PBDI_N@Z 12801600 f   DefinitionMgrClass.obj
 0001:00000920       ?Free_Definitions@DefinitionMgrClass@@SAXXZ 12801920 f   DefinitionMgrClass.obj
 0001:00000a30       ?Prepare_Definition_Array@DefinitionMgrClass@@SAXXZ 12801a30 f   DefinitionMgrClass.obj
 0001:00000af0       ?fnCompareDefinitionsCallback@DefinitionMgrClass@@SAHPBX0@Z 12801af0 f   DefinitionMgrClass.obj
 0001:00000b40       ?Get_First@DefinitionMgrClass@@SAPAVDefinitionClass@@IW4ID_TYPE@1@@Z 12801b40 f   DefinitionMgrClass.obj
 0001:00000bb0       ?Get_Next@DefinitionMgrClass@@SAPAVDefinitionClass@@PAV2@IW4ID_TYPE@1@@Z 12801bb0 f   DefinitionMgrClass.obj
 0001:00000c30       ?Get_Next@DefinitionMgrClass@@SAPAVDefinitionClass@@PAV2@@Z 12801c30 f   DefinitionMgrClass.obj
 0001:00000c50       ??_EDefinitionMgrClass@@UAEPAXI@Z 12801c50 f i * CIL library *:* CIL module *
 0001:00000c50       ??_GDefinitionMgrClass@@UAEPAXI@Z 12801c50 f i DefinitionMgrClass.obj
 0001:00000cb0       ?Save_Objects@DefinitionMgrClass@@QAE_NAAVChunkSaveClass@@@Z 12801cb0 f   DefinitionMgrClass.obj
 0001:00000d20       ?Load_Objects@DefinitionMgrClass@@QAE_NAAVChunkLoadClass@@@Z 12801d20 f   DefinitionMgrClass.obj
 0001:00000e50       ?Save@DefinitionMgrClass@@UAE_NAAVChunkSaveClass@@@Z 12801e50 f   DefinitionMgrClass.obj
 0001:00000ea0       ?Load@DefinitionMgrClass@@UAE_NAAVChunkLoadClass@@@Z 12801ea0 f   DefinitionMgrClass.obj
 0001:00000f70       ?Insert@?$HashTemplateClass@VStringClass@@PAV?$DynamicVectorClass@PAVDefinitionClass@@@@@@QAEXABVStringClass@@ABQAV?$DynamicVectorClass@PAVDefinitionClass@@@@@Z 12801f70 f i DefinitionMgrClass.obj
 0001:00001050       ?Remove_All@?$HashTemplateClass@VStringClass@@PAV?$DynamicVectorClass@PAVDefinitionClass@@@@@@QAEXXZ 12802050 f i DefinitionMgrClass.obj
 0001:000010b0       ?Resize@?$DynamicVectorClass@PAVDefinitionClass@@@@UAE_NHPBQAVDefinitionClass@@@Z 128020b0 f i DefinitionMgrClass.obj
 0001:000010e0       ?Clear@?$DynamicVectorClass@PAVDefinitionClass@@@@UAEXXZ 128020e0 f i DefinitionMgrClass.obj
 0001:00001120       ?ID@?$DynamicVectorClass@VWideStringClass@@@@UAEHPBVWideStringClass@@@Z 12802120 f i TDBObjClass.obj
 0001:00001120       ?ID@?$VectorClass@PAVDefinitionClass@@@@UAEHPBQAVDefinitionClass@@@Z 12802120 f i DefinitionMgrClass.obj
 0001:00001120       ?ID@?$DynamicVectorClass@PAVDefinitionClass@@@@UAEHPBQAVDefinitionClass@@@Z 12802120 f i DefinitionMgrClass.obj
 0001:00001120       ?ID@?$VectorClass@VWideStringClass@@@@UAEHPBVWideStringClass@@@Z 12802120 f i TDBObjClass.obj
 0001:00001140       ?ID@?$DynamicVectorClass@PAVDefinitionClass@@@@UAEHABQAVDefinitionClass@@@Z 12802140 f i DefinitionMgrClass.obj
 0001:00001170       ??8?$VectorClass@PAVDefinitionClass@@@@UBE_NABV0@@Z 12802170 f i DefinitionMgrClass.obj
 0001:000011b0       ?Resize@?$VectorClass@PAVDefinitionClass@@@@UAE_NHPBQAVDefinitionClass@@@Z 128021b0 f i DefinitionMgrClass.obj
 0001:00001270       ?Clear@?$VectorClass@PAVDefinitionClass@@@@UAEXXZ 12802270 f i DefinitionMgrClass.obj
 0001:000012a0       ?ID@?$VectorClass@PAVDefinitionClass@@@@UAEHABQAVDefinitionClass@@@Z 128022a0 f i DefinitionMgrClass.obj
 0001:000012e0       ??_EEntry@?$HashTemplateClass@VStringClass@@PAVTDBObjClass@@@@QAEPAXI@Z 128022e0 f i TranslateDBClass.obj
 0001:000012e0       ??_EEntry@?$HashTemplateClass@VStringClass@@PAV?$DynamicVectorClass@PAVDefinitionClass@@@@@@QAEPAXI@Z 128022e0 f i DefinitionMgrClass.obj
 0001:00001380       ??_E?$DynamicVectorClass@PAVDefinitionClass@@@@UAEPAXI@Z 12802380 f i * CIL library *:* CIL module *
 0001:00001380       ??_G?$VectorClass@PAVDefinitionClass@@@@UAEPAXI@Z 12802380 f i DefinitionMgrClass.obj
 0001:00001380       ??_G?$DynamicVectorClass@PAVDefinitionClass@@@@UAEPAXI@Z 12802380 f i DefinitionMgrClass.obj
 0001:00001380       ??_E?$VectorClass@PAVDefinitionClass@@@@UAEPAXI@Z 12802380 f i * CIL library *:* CIL module *
 0001:000013d0       ?Re_Hash@?$HashTemplateClass@VStringClass@@PAVTDBObjClass@@@@AAEXXZ 128023d0 f i TranslateDBClass.obj
 0001:000013d0       ?Re_Hash@?$HashTemplateClass@VStringClass@@PAV?$DynamicVectorClass@PAVDefinitionClass@@@@@@AAEXXZ 128023d0 f i DefinitionMgrClass.obj
 0001:00001860       ?Get@?$HashTemplateClass@VStringClass@@PAVTDBObjClass@@@@QBEPAPAVTDBObjClass@@ABVStringClass@@@Z 12802860 f i TranslateDBClass.obj
 0001:00001860       ?Get@?$HashTemplateClass@VStringClass@@PAV?$DynamicVectorClass@PAVDefinitionClass@@@@@@QBEPAPAV?$DynamicVectorClass@PAVDefinitionClass@@@@ABVStringClass@@@Z 12802860 f i DefinitionMgrClass.obj
 0001:000018f0       ?InitEngine@@YAXXZ         128028f0 f   engine_common.obj
 0001:000019b0       ??0WideStringClass@@QAE@ABV0@_N@Z 128029b0 f i engine_string.obj
 0001:00001a90       ?Format@StringClass@@QAAHPBDZZ 12802a90 f   engine_string.obj
 0001:00001b10       ?Format_Args@StringClass@@QAAHPBDABQAD@Z 12802b10 f   engine_string.obj
 0001:00001b90       ?Get_String@StringClass@@AAEXH_N@Z 12802b90 f   engine_string.obj
 0001:00001c90       ?Resize@StringClass@@AAEXH@Z 12802c90 f   engine_string.obj
 0001:00001d20       ?Uninitialised_Grow@StringClass@@AAEXH@Z 12802d20 f   engine_string.obj
 0001:00001da0       ?Free_String@StringClass@@AAEXXZ 12802da0 f   engine_string.obj
 0001:00001e20       ?Replace@StringClass@@QAEHPBD0_NH@Z 12802e20 f   engine_string.obj
 0001:00002010       ?Copy_Wide@StringClass@@QAE_NPB_W@Z 12803010 f   engine_string.obj
 0001:00002090       ?Format@WideStringClass@@QAAHPB_WZZ 12803090 f   engine_string.obj
 0001:00002130       ?Format_Args@WideStringClass@@QAAHPB_WABQAD@Z 12803130 f   engine_string.obj
 0001:000021d0       ?Get_String@WideStringClass@@AAEXH_N@Z 128031d0 f   engine_string.obj
 0001:000022e0       ?Resize@WideStringClass@@AAEXH@Z 128032e0 f   engine_string.obj
 0001:00002370       ?Uninitialised_Grow@WideStringClass@@AAEXH@Z 12803370 f   engine_string.obj
 0001:00002400       ?Free_String@WideStringClass@@AAEXXZ 12803400 f   engine_string.obj
 0001:00002490       ?Convert_From@WideStringClass@@QAE_NPBD@Z 12803490 f   engine_string.obj
 0001:00002510       ?Is_ANSI@WideStringClass@@QAE_NXZ 12803510 f   engine_string.obj
 0001:00002540       ?Substring@WideStringClass@@QBE?AV1@HH@Z 12803540 f   engine_string.obj
 0001:000025f0       ?RemoveSubstring@WideStringClass@@QAEXHH@Z 128035f0 f   engine_string.obj
 0001:00002670       ?ReplaceSubstring@WideStringClass@@QAEXHHABV1@@Z 12803670 f   engine_string.obj
 0001:00002760       ?Internal_Add@GenericMultiListClass@@IAE_NPAVMultiListObjectClass@@_N@Z 12803760 f   multilist.obj
 0001:000027f0       ?Internal_Add_Tail@GenericMultiListClass@@IAE_NPAVMultiListObjectClass@@_N@Z 128037f0 f   multilist.obj
 0001:00002880       ?Internal_Add_After@GenericMultiListClass@@IAE_NPAVMultiListObjectClass@@PBV2@_N@Z 12803880 f   multilist.obj
 0001:00002930       ?Internal_Remove@GenericMultiListClass@@IAE_NPAVMultiListObjectClass@@@Z 12803930 f   multilist.obj
 0001:000029b0       ?Internal_Remove_List_Head@GenericMultiListClass@@IAEPAVMultiListObjectClass@@XZ 128039b0 f   multilist.obj
 0001:000029d0       ??2?$AutoPoolClass@VMultiListNodeClass@@$0BAA@@@SAPAXIPBDI0@Z 128039d0 f i multilist.obj
 0001:00002a30       ?getInstance@?$Singleton@V?$ObjectPoolClass@VMultiListNodeClass@@$0BAA@@@@@SAAAV?$ObjectPoolClass@VMultiListNodeClass@@$0BAA@@@XZ 12803a30 f i multilist.obj
 0001:00002a90       ?Allocate_Object_Memory@?$ObjectPoolClass@VMultiListNodeClass@@$0BAA@@@QAEPAVMultiListNodeClass@@XZ 12803a90 f i multilist.obj
 0001:00002b30       ??_EPostLoadableClass@@UAEPAXI@Z 12803b30 f i * CIL library *:* CIL module *
 0001:00002b30       ??_GPostLoadableClass@@UAEPAXI@Z 12803b30 f i PersistFactoryClass.obj
 0001:00002b50       ??_E?$SimplePersistFactoryClass@VTDBObjClass@@$0JAAAB@@@UAEPAXI@Z 12803b50 f i * CIL library *:* CIL module *
 0001:00002b50       ??_EPersistFactoryClass@@UAEPAXI@Z 12803b50 f i * CIL library *:* CIL module *
 0001:00002b50       ??_E?$SimplePersistFactoryClass@VTDBCategoryClass@@$0JAAAC@@@UAEPAXI@Z 12803b50 f i * CIL library *:* CIL module *
 0001:00002b50       ??_G?$SimplePersistFactoryClass@VTDBObjClass@@$0JAAAB@@@UAEPAXI@Z 12803b50 f i TDBObjClass.obj
 0001:00002b50       ??_GPersistFactoryClass@@UAEPAXI@Z 12803b50 f i PersistFactoryClass.obj
 0001:00002b50       ??_G?$SimplePersistFactoryClass@VTDBCategoryClass@@$0JAAAC@@@UAEPAXI@Z 12803b50 f i TDBCategoryClass.obj
 0001:00002ba0       ??_ETranslateDBClass@@UAEPAXI@Z 12803ba0 f i * CIL library *:* CIL module *
 0001:00002ba0       ??_GTranslateDBClass@@UAEPAXI@Z 12803ba0 f i TranslateDBClass.obj
 0001:00002ba0       ??_ESaveLoadSubSystemClass@@UAEPAXI@Z 12803ba0 f i * CIL library *:* CIL module *
 0001:00002ba0       ??_GSaveLoadSubSystemClass@@UAEPAXI@Z 12803ba0 f i PersistFactoryClass.obj
 0001:00002c00       ??0TDBCategoryClass@@QAE@XZ 12803c00 f   TDBCategoryClass.obj
 0001:00002c70       ??_ETDBCategoryClass@@UAEPAXI@Z 12803c70 f i * CIL library *:* CIL module *
 0001:00002c70       ??_GTDBCategoryClass@@UAEPAXI@Z 12803c70 f i TDBCategoryClass.obj
 0001:00002ca0       ?Get_Factory@TDBCategoryClass@@UBEABVPersistFactoryClass@@XZ 12803ca0 f   TDBCategoryClass.obj
 0001:00002cb0       ?Save@TDBCategoryClass@@UAE_NAAVChunkSaveClass@@@Z 12803cb0 f   TDBCategoryClass.obj
 0001:00002cf0       ?Load@TDBCategoryClass@@UAE_NAAVChunkLoadClass@@@Z 12803cf0 f   TDBCategoryClass.obj
 0001:00002db0       ?Save_Variables@TDBCategoryClass@@IAEXAAVChunkSaveClass@@@Z 12803db0 f   TDBCategoryClass.obj
 0001:00002f10       ?Load_Variables@TDBCategoryClass@@IAEXAAVChunkLoadClass@@@Z 12803f10 f   TDBCategoryClass.obj
 0001:00003220       ?Chunk_ID@?$SimplePersistFactoryClass@VTDBCategoryClass@@$0JAAAC@@@UBEIXZ 12804220 f i TDBCategoryClass.obj
 0001:00003230       ?Load@?$SimplePersistFactoryClass@VTDBCategoryClass@@$0JAAAC@@@UBEPAVPersistClass@@AAVChunkLoadClass@@@Z 12804230 f i TDBCategoryClass.obj
 0001:00003410       ?Save@?$SimplePersistFactoryClass@VTDBCategoryClass@@$0JAAAC@@@UBEXAAVChunkSaveClass@@PAVPersistClass@@@Z 12804410 f i TDBCategoryClass.obj
 0001:00003410       ?Save@?$SimplePersistFactoryClass@VTDBObjClass@@$0JAAAB@@@UBEXAAVChunkSaveClass@@PAVPersistClass@@@Z 12804410 f i TDBObjClass.obj
 0001:000034a0       ?As_StringTwiddlerClass@TDBObjClass@@UAEPAVStringTwiddlerClass@@XZ 128044a0 f i TDBObjClass.obj
 0001:000034b0       ?Clone@TDBObjClass@@UBEPAV1@XZ 128044b0 f i TDBObjClass.obj
 0001:000034d0       ?Get_English_String@TDBObjClass@@UAEABVStringClass@@XZ 128044d0 f i TDBObjClass.obj
 0001:000034e0       ?Get_ID@TDBObjClass@@UAEIXZ 128044e0 f i TDBObjClass.obj
 0001:000034f0       ?Get_ID_Desc@TDBObjClass@@UAEABVStringClass@@XZ 128044f0 f i TDBObjClass.obj
 0001:00003500       ?Get_Sound_ID@TDBObjClass@@UAEIXZ 12804500 f i TDBObjClass.obj
 0001:00003510       ?Get_Animation_Name@TDBObjClass@@UAEABVStringClass@@XZ 12804510 f i TDBObjClass.obj
 0001:00003520       ?Get_Category_ID@TDBObjClass@@UAEIXZ 12804520 f i TDBObjClass.obj
 0001:00003530       ?Set_Animation_Name@TDBObjClass@@UAEXPBD@Z 12804530 f i TDBObjClass.obj
 0001:00003580       ?Set_Sound_ID@TDBObjClass@@UAEXI@Z 12804580 f i TDBObjClass.obj
 0001:00003590       ?Set_Category_ID@TDBObjClass@@UAEXI@Z 12804590 f i TDBObjClass.obj
 0001:000035a0       ??0TDBObjClass@@QAE@XZ     128045a0 f   TDBObjClass.obj
 0001:000036e0       ??_ETDBObjClass@@UAEPAXI@Z 128046e0 f i * CIL library *:* CIL module *
 0001:000036e0       ??_GTDBObjClass@@UAEPAXI@Z 128046e0 f i TDBObjClass.obj
 0001:00003750       ??0TDBObjClass@@QAE@ABV0@@Z 12804750 f   TDBObjClass.obj
 0001:000038a0       ??4TDBObjClass@@QAEABV0@ABV0@@Z 128048a0 f   TDBObjClass.obj
 0001:000039e0       ?Get_Factory@TDBObjClass@@UBEABVPersistFactoryClass@@XZ 128049e0 f   TDBObjClass.obj
 0001:000039f0       ?Save@TDBObjClass@@UAE_NAAVChunkSaveClass@@@Z 128049f0 f   TDBObjClass.obj
 0001:00003cc0       ?Load@TDBObjClass@@UAE_NAAVChunkLoadClass@@@Z 12804cc0 f   TDBObjClass.obj
 0001:00004110       ?Save_Variables@TDBObjClass@@IAEXAAVChunkSaveClass@@@Z 12805110 f   TDBObjClass.obj
 0001:00004440       ?Load_Variables@TDBObjClass@@IAEXAAVChunkLoadClass@@@Z 12805440 f   TDBObjClass.obj
 0001:00004670       ?Set_English_String@TDBObjClass@@UAEXPBD@Z 12805670 f   TDBObjClass.obj
 0001:00004950       ?Set_ID@TDBObjClass@@UAEXI@Z 12805950 f   TDBObjClass.obj
 0001:00004960       ?Set_ID_Desc@TDBObjClass@@UAEXPBD@Z 12805960 f   TDBObjClass.obj
 0001:000049b0       ?Get_String@TDBObjClass@@UAEABVWideStringClass@@XZ 128059b0 f   TDBObjClass.obj
 0001:000049c0       ?Get_String@TDBObjClass@@UAEABVWideStringClass@@I@Z 128059c0 f   TDBObjClass.obj
 0001:000049e0       ?Set_String@TDBObjClass@@UAEXIPB_W@Z 128059e0 f   TDBObjClass.obj
 0001:00004cd0       ?Contains_Translation@TDBObjClass@@UAE_NI@Z 12805cd0 f   TDBObjClass.obj
 0001:00004d30       ?Resize@?$DynamicVectorClass@VWideStringClass@@@@UAE_NHPBVWideStringClass@@@Z 12805d30 f i TDBObjClass.obj
 0001:00004d60       ?Clear@?$DynamicVectorClass@VWideStringClass@@@@UAEXXZ 12805d60 f i TDBObjClass.obj
 0001:00004da0       ?Add@?$DynamicVectorClass@VWideStringClass@@@@QAE_NABVWideStringClass@@@Z 12805da0 f i TDBObjClass.obj
 0001:00004da0       ?Add@?$DynamicVectorClass@VWideStringClass@@@@QAE_N$$QAVWideStringClass@@@Z 12805da0 f i TDBObjClass.obj
 0001:00004e40       ?ID@?$DynamicVectorClass@VWideStringClass@@@@UAEHABVWideStringClass@@@Z 12805e40 f i TDBObjClass.obj
 0001:00004eb0       ??8?$VectorClass@VWideStringClass@@@@UBE_NABV0@@Z 12805eb0 f i TDBObjClass.obj
 0001:00004f30       ?Resize@?$VectorClass@VWideStringClass@@@@UAE_NHPBVWideStringClass@@@Z 12805f30 f i TDBObjClass.obj
 0001:00005230       ?Clear@?$VectorClass@VWideStringClass@@@@UAEXXZ 12806230 f i TDBObjClass.obj
 0001:00005260       ?ID@?$VectorClass@VWideStringClass@@@@UAEHABVWideStringClass@@@Z 12806260 f i TDBObjClass.obj
 0001:000052e0       ?Chunk_ID@?$SimplePersistFactoryClass@VTDBObjClass@@$0JAAAB@@@UBEIXZ 128062e0 f i TDBObjClass.obj
 0001:000052f0       ?Load@?$SimplePersistFactoryClass@VTDBObjClass@@$0JAAAB@@@UBEPAVPersistClass@@AAVChunkLoadClass@@@Z 128062f0 f i TDBObjClass.obj
 0001:000054d0       ??_E?$VectorClass@VWideStringClass@@@@UAEPAXI@Z 128064d0 f i * CIL library *:* CIL module *
 0001:000054d0       ??_G?$DynamicVectorClass@VWideStringClass@@@@UAEPAXI@Z 128064d0 f i TDBObjClass.obj
 0001:000054d0       ??_E?$DynamicVectorClass@VWideStringClass@@@@UAEPAXI@Z 128064d0 f i * CIL library *:* CIL module *
 0001:000054d0       ??_G?$VectorClass@VWideStringClass@@@@UAEPAXI@Z 128064d0 f i TDBObjClass.obj
 0001:00005520       ??_EWideStringClass@@QAEPAXI@Z 12806520 f i TDBObjClass.obj
 0001:000055d0       ??4?$VectorClass@VWideStringClass@@@@QAEAAV0@ABV0@@Z 128065d0 f i TDBObjClass.obj
 0001:000057d0       ??0StringClass@@QAE@ABV0@_N@Z 128067d0 f i TranslateDBClass.obj
 0001:000058a0       ?Name@TranslateDBClass@@UBEPBDXZ 128068a0 f i TranslateDBClass.obj
 0001:000058b0       ?Initialize@TranslateDBClass@@SAXXZ 128068b0 f   TranslateDBClass.obj
 0001:000058c0       ?Get_Version_Number@TranslateDBClass@@SAIXZ 128068c0 f   TranslateDBClass.obj
 0001:000058d0       ?Shutdown@TranslateDBClass@@SAXXZ 128068d0 f   TranslateDBClass.obj
 0001:00005920       ?Free_Objects@TranslateDBClass@@KAXXZ 12806920 f   TranslateDBClass.obj
 0001:00005970       ?Chunk_ID@TranslateDBClass@@UBEIXZ 12806970 f   TranslateDBClass.obj
 0001:00005980       ?Save@TranslateDBClass@@MAE_NAAVChunkSaveClass@@@Z 12806980 f   TranslateDBClass.obj
 0001:00005d20       ?Load@TranslateDBClass@@MAE_NAAVChunkLoadClass@@@Z 12806d20 f   TranslateDBClass.obj
 0001:00005e50       ?Load_Categories@TranslateDBClass@@IAE_NAAVChunkLoadClass@@@Z 12806e50 f   TranslateDBClass.obj
 0001:00005f30       ?Load_Objects@TranslateDBClass@@IAE_NAAVChunkLoadClass@@@Z 12806f30 f   TranslateDBClass.obj
 0001:00006010       ?Load_Variables@TranslateDBClass@@IAE_NAAVChunkLoadClass@@@Z 12807010 f   TranslateDBClass.obj
 0001:00006190       ?Validate_Data@TranslateDBClass@@KAXXZ 12807190 f   TranslateDBClass.obj
 0001:000067d0       ?Add_Category@TranslateDBClass@@SA_NPAVTDBCategoryClass@@_N@Z 128077d0 f   TranslateDBClass.obj
 0001:00006850       ?Add_Object@TranslateDBClass@@SA_NPAVTDBObjClass@@@Z 12807850 f   TranslateDBClass.obj
 0001:00006970       ?Remove_All@TranslateDBClass@@SAXXZ 12807970 f   TranslateDBClass.obj
 0001:00006980       ?Insert@?$HashTemplateClass@VStringClass@@PAVTDBObjClass@@@@QAEXABVStringClass@@ABQAVTDBObjClass@@@Z 12807980 f i TranslateDBClass.obj
 0001:00006a60       ?Remove_All@?$HashTemplateClass@VStringClass@@PAVTDBObjClass@@@@QAEXXZ 12807a60 f i TranslateDBClass.obj
 0001:00006ac0       ?Add_Head@?$SList@VSoldierGameObj@@@@UAE_NPAVSoldierGameObj@@@Z 12807ac0 f i shared.obj
 0001:00006ac0       ?Add_Head@?$SList@VScriptZoneGameObj@@@@UAE_NPAVScriptZoneGameObj@@@Z 12807ac0 f i shared.obj
 0001:00006ac0       ?Add_Head@?$SList@VBeaconGameObj@@@@UAE_NPAVBeaconGameObj@@@Z 12807ac0 f i shared.obj
 0001:00006ac0       ?Add_Head@?$SList@VVehicleGameObj@@@@UAE_NPAVVehicleGameObj@@@Z 12807ac0 f i shared.obj
 0001:00006ac0       ?Add_Head@?$SList@VC4GameObj@@@@UAE_NPAVC4GameObj@@@Z 12807ac0 f i shared.obj
 0001:00006b10       ?Add_Head@?$SList@VSoldierGameObj@@@@UAE_NAAV1@@Z 12807b10 f i shared.obj
 0001:00006b10       ?Add_Head@?$SList@VVehicleGameObj@@@@UAE_NAAV1@@Z 12807b10 f i shared.obj
 0001:00006b10       ?Add_Head@?$SList@VC4GameObj@@@@UAE_NAAV1@@Z 12807b10 f i shared.obj
 0001:00006b10       ?Add_Head@?$SList@VScriptZoneGameObj@@@@UAE_NAAV1@@Z 12807b10 f i shared.obj
 0001:00006b10       ?Add_Head@?$SList@VBeaconGameObj@@@@UAE_NAAV1@@Z 12807b10 f i shared.obj
 0001:00006be0       ?Add_Tail@?$SList@VBeaconGameObj@@@@UAE_NPAVBeaconGameObj@@@Z 12807be0 f i shared.obj
 0001:00006be0       ?Add_Tail@?$SList@VScriptZoneGameObj@@@@UAE_NPAVScriptZoneGameObj@@@Z 12807be0 f i shared.obj
 0001:00006be0       ?Add_Tail@?$SList@VSoldierGameObj@@@@UAE_NPAVSoldierGameObj@@@Z 12807be0 f i shared.obj
 0001:00006be0       ?Add_Tail@?$SList@VC4GameObj@@@@UAE_NPAVC4GameObj@@@Z 12807be0 f i shared.obj
 0001:00006be0       ?Add_Tail@?$SList@VVehicleGameObj@@@@UAE_NPAVVehicleGameObj@@@Z 12807be0 f i shared.obj
 0001:00006c40       ?Add_Tail@?$SList@VScriptZoneGameObj@@@@UAE_NAAV1@@Z 12807c40 f i shared.obj
 0001:00006c40       ?Add_Tail@?$SList@VVehicleGameObj@@@@UAE_NAAV1@@Z 12807c40 f i shared.obj
 0001:00006c40       ?Add_Tail@?$SList@VC4GameObj@@@@UAE_NAAV1@@Z 12807c40 f i shared.obj
 0001:00006c40       ?Add_Tail@?$SList@VBeaconGameObj@@@@UAE_NAAV1@@Z 12807c40 f i shared.obj
 0001:00006c40       ?Add_Tail@?$SList@VSoldierGameObj@@@@UAE_NAAV1@@Z 12807c40 f i shared.obj
 0001:00006c70       ?Remove_Head@?$SList@VBeaconGameObj@@@@UAEPAVBeaconGameObj@@XZ 12807c70 f i shared.obj
 0001:00006c70       ?Remove_Head@?$SList@VSoldierGameObj@@@@UAEPAVSoldierGameObj@@XZ 12807c70 f i shared.obj
 0001:00006c70       ?Remove_Head@?$SList@VScriptZoneGameObj@@@@UAEPAVScriptZoneGameObj@@XZ 12807c70 f i shared.obj
 0001:00006c70       ?Remove_Head@?$SList@VVehicleGameObj@@@@UAEPAVVehicleGameObj@@XZ 12807c70 f i shared.obj
 0001:00006c70       ?Remove_Head@?$SList@VC4GameObj@@@@UAEPAVC4GameObj@@XZ 12807c70 f i shared.obj
 0001:00006cc0       ?Remove_Tail@?$SList@VScriptZoneGameObj@@@@UAEPAVScriptZoneGameObj@@XZ 12807cc0 f i shared.obj
 0001:00006cc0       ?Remove_Tail@?$SList@VC4GameObj@@@@UAEPAVC4GameObj@@XZ 12807cc0 f i shared.obj
 0001:00006cc0       ?Remove_Tail@?$SList@VVehicleGameObj@@@@UAEPAVVehicleGameObj@@XZ 12807cc0 f i shared.obj
 0001:00006cc0       ?Remove_Tail@?$SList@VBeaconGameObj@@@@UAEPAVBeaconGameObj@@XZ 12807cc0 f i shared.obj
 0001:00006cc0       ?Remove_Tail@?$SList@VSoldierGameObj@@@@UAEPAVSoldierGameObj@@XZ 12807cc0 f i shared.obj
 0001:00006cf0       ?Remove@?$SList@VSoldierGameObj@@@@UAE_NPBVSoldierGameObj@@@Z 12807cf0 f i shared.obj
 0001:00006cf0       ?Remove@?$SList@VBeaconGameObj@@@@UAE_NPBVBeaconGameObj@@@Z 12807cf0 f i shared.obj
 0001:00006cf0       ?Remove@?$SList@VC4GameObj@@@@UAE_NPBVC4GameObj@@@Z 12807cf0 f i shared.obj
 0001:00006cf0       ?Remove@?$SList@VScriptZoneGameObj@@@@UAE_NPBVScriptZoneGameObj@@@Z 12807cf0 f i shared.obj
 0001:00006cf0       ?Remove@?$SList@VVehicleGameObj@@@@UAE_NPBVVehicleGameObj@@@Z 12807cf0 f i shared.obj
 0001:00006d60       ?Remove_All@?$SList@VSoldierGameObj@@@@UAEXXZ 12807d60 f i shared.obj
 0001:00006d60       ?Remove_All@?$SList@VScriptZoneGameObj@@@@UAEXXZ 12807d60 f i shared.obj
 0001:00006d60       ?Remove_All@?$SList@VC4GameObj@@@@UAEXXZ 12807d60 f i shared.obj
 0001:00006d60       ?Remove_All@?$SList@VBeaconGameObj@@@@UAEXXZ 12807d60 f i shared.obj
 0001:00006d60       ?Remove_All@?$SList@VVehicleGameObj@@@@UAEXXZ 12807d60 f i shared.obj
 0001:00006e30       ?Insert_Before@?$SList@VBeaconGameObj@@@@UAE_NPAVBeaconGameObj@@PBV2@@Z 12807e30 f i shared.obj
 0001:00006e30       ?Insert_Before@?$SList@VScriptZoneGameObj@@@@UAE_NPAVScriptZoneGameObj@@PBV2@@Z 12807e30 f i shared.obj
 0001:00006e30       ?Insert_Before@?$SList@VSoldierGameObj@@@@UAE_NPAVSoldierGameObj@@PBV2@@Z 12807e30 f i shared.obj
 0001:00006e30       ?Insert_Before@?$SList@VC4GameObj@@@@UAE_NPAVC4GameObj@@PBV2@@Z 12807e30 f i shared.obj
 0001:00006e30       ?Insert_Before@?$SList@VVehicleGameObj@@@@UAE_NPAVVehicleGameObj@@PBV2@@Z 12807e30 f i shared.obj
 0001:00006ed0       ?Insert_After@?$SList@VSoldierGameObj@@@@UAE_NPAVSoldierGameObj@@PBV2@@Z 12807ed0 f i shared.obj
 0001:00006ed0       ?Insert_After@?$SList@VC4GameObj@@@@UAE_NPAVC4GameObj@@PBV2@@Z 12807ed0 f i shared.obj
 0001:00006ed0       ?Insert_After@?$SList@VVehicleGameObj@@@@UAE_NPAVVehicleGameObj@@PBV2@@Z 12807ed0 f i shared.obj
 0001:00006ed0       ?Insert_After@?$SList@VScriptZoneGameObj@@@@UAE_NPAVScriptZoneGameObj@@PBV2@@Z 12807ed0 f i shared.obj
 0001:00006ed0       ?Insert_After@?$SList@VBeaconGameObj@@@@UAE_NPAVBeaconGameObj@@PBV2@@Z 12807ed0 f i shared.obj
 0001:00006f60       ?Is_Empty@?$SList@VBeaconGameObj@@@@UBE_NXZ 12807f60 f i shared.obj
 0001:00006f60       ?Is_Empty@?$SList@VScriptZoneGameObj@@@@UBE_NXZ 12807f60 f i shared.obj
 0001:00006f60       ?Is_Empty@?$SList@VSoldierGameObj@@@@UBE_NXZ 12807f60 f i shared.obj
 0001:00006f60       ?Is_Empty@?$SList@VC4GameObj@@@@UBE_NXZ 12807f60 f i shared.obj
 0001:00006f60       ?Is_Empty@?$SList@VVehicleGameObj@@@@UBE_NXZ 12807f60 f i shared.obj
 0001:00006f70       ?Get_Count@?$SList@VC4GameObj@@@@UBEIXZ 12807f70 f i shared.obj
 0001:00006f70       ?Get_Count@?$SList@VBeaconGameObj@@@@UBEIXZ 12807f70 f i shared.obj
 0001:00006f70       ?Get_Count@?$SList@VSoldierGameObj@@@@UBEIXZ 12807f70 f i shared.obj
 0001:00006f70       ?Get_Count@?$SList@VScriptZoneGameObj@@@@UBEIXZ 12807f70 f i shared.obj
 0001:00006f70       ?Get_Count@?$SList@VVehicleGameObj@@@@UBEIXZ 12807f70 f i shared.obj
 0001:00006f90       ??_G?$SList@VC4GameObj@@@@UAEPAXI@Z 12807f90 f i shared.obj
 0001:00006f90       ??_E?$SList@VBeaconGameObj@@@@UAEPAXI@Z 12807f90 f i * CIL library *:* CIL module *
 0001:00006f90       ??_G?$SList@VVehicleGameObj@@@@UAEPAXI@Z 12807f90 f i shared.obj
 0001:00006f90       ??_G?$SList@VSoldierGameObj@@@@UAEPAXI@Z 12807f90 f i shared.obj
 0001:00006f90       ??_E?$SList@VSoldierGameObj@@@@UAEPAXI@Z 12807f90 f i * CIL library *:* CIL module *
 0001:00006f90       ??_E?$SList@VScriptZoneGameObj@@@@UAEPAXI@Z 12807f90 f i * CIL library *:* CIL module *
 0001:00006f90       ??_G?$SList@VBeaconGameObj@@@@UAEPAXI@Z 12807f90 f i shared.obj
 0001:00006f90       ??_E?$SList@VVehicleGameObj@@@@UAEPAXI@Z 12807f90 f i * CIL library *:* CIL module *
 0001:00006f90       ??_E?$SList@VC4GameObj@@@@UAEPAXI@Z 12807f90 f i * CIL library *:* CIL module *
 0001:00006f90       ??_G?$SList@VScriptZoneGameObj@@@@UAEPAXI@Z 12807f90 f i shared.obj
 0001:00006fc0       ??2?$AutoPoolClass@VGenericSLNode@@$0BAA@@@SAPAXIPBDI0@Z 12807fc0 f i shared.obj
 0001:00007020       ??3?$AutoPoolClass@VGenericSLNode@@$0BAA@@@SAXPAX@Z 12808020 f i shared.obj
 0001:00007060       ?getInstance@?$Singleton@V?$ObjectPoolClass@VGenericSLNode@@$0BAA@@@@@SAAAV?$ObjectPoolClass@VGenericSLNode@@$0BAA@@@XZ 12808060 f i shared.obj
 0001:000070c0       ?Allocate_Object_Memory@?$ObjectPoolClass@VGenericSLNode@@$0BAA@@@QAEPAVGenericSLNode@@XZ 128080c0 f i shared.obj
 0001:00007160       ___atonexitinit            12808160 f   MSVCRT:atonexit.obj
 0001:0000719c       __onexit                   1280819c f   MSVCRT:atonexit.obj
 0001:00007241       _atexit                    12808241 f   MSVCRT:atonexit.obj
 0001:00007256       __purecall                 12808256 f   MSVCRT:MSVCR110.dll
 0001:000072a8       __CRT_INIT@12              128082a8 f   MSVCRT:crtdll.obj
 0001:0000749d       __DllMainCRTStartup@12     1280849d f   MSVCRT:crtdll.obj
 0001:000075f4       __lock                     128085f4 f   MSVCRT:MSVCR110.dll
 0001:000075fa       __unlock                   128085fa f   MSVCRT:MSVCR110.dll
 0001:00007600       ___dllonexit               12808600 f   MSVCRT:MSVCR110.dll
 0001:00007610       __SEH_prolog4              12808610 f   MSVCRT:sehprolg4.obj
 0001:00007655       __SEH_epilog4              12808655 f   MSVCRT:sehprolg4.obj
 0001:00007669       __except_handler4          12808669 f   MSVCRT:chandler4gs.obj
 0001:0000768c       ___CppXcptFilter           1280868c f   MSVCRT:MSVCR110.dll
 0001:00007692       __amsg_exit                12808692 f   MSVCRT:MSVCR110.dll
 0001:000076a0       __FindPESection            128086a0 f   MSVCRT:pesect.obj
 0001:000076f0       __IsNonwritableInCurrentImage 128086f0 f   MSVCRT:pesect.obj
 0001:000077b0       __ValidateImageBase        128087b0 f   MSVCRT:pesect.obj
 0001:000077e1       ___security_init_cookie    128087e1 f   MSVCRT:gs_support.obj
 0001:0000787b       _DllMain@12                1280887b f   MSVCRT:dllmain.obj
 0001:0000789d       __RTC_Initialize           1280889d f   MSVCRT:initsect.obj
 0001:000078bd       __RTC_Terminate            128088bd f   MSVCRT:initsect.obj
 0001:000078de       __initterm                 128088de f   MSVCRT:MSVCR110.dll
 0001:000078e4       __initterm_e               128088e4 f   MSVCRT:MSVCR110.dll
 0001:000078ea       ___clean_type_info_names   128088ea f   MSVCRT:tncleanup.obj
 0001:000078f6       @__security_check_cookie@4 128088f6 f   MSVCRT:secchk.obj
 0001:00007906       __except_handler4_common   12808906 f   MSVCRT:MSVCR110.dll
 0001:0000790c       ___clean_type_info_names_internal 1280890c f   MSVCRT:MSVCR110.dll
 0001:00007912       ___raise_securityfailure   12808912 f   MSVCRT:gs_report.obj
 0001:0000794f       ___report_gsfailure        1280894f f   MSVCRT:gs_report.obj
 0001:00007a48       __crt_debugger_hook        12808a48 f   MSVCRT:MSVCR110.dll
 0001:00007a4e       ___crtUnhandledException   12808a4e f   MSVCRT:MSVCR110.dll
 0001:00007a54       ___crtTerminateProcess     12808a54 f   MSVCRT:MSVCR110.dll
 0001:00007a5a       _IsProcessorFeaturePresent@4 12808a5a f   kernel32:KERNEL32.dll
 0001:00007a60       _memcpy                    12808a60 f   MSVCRT:MSVCR110.dll
 0001:00008020       ??__Finstancex@?1??getInstance@?$Singleton@V?$ObjectPoolClass@VMultiListNodeClass@@$0BAA@@@@@SAAAV?$ObjectPoolClass@VMultiListNodeClass@@$0BAA@@@XZ@YAXXZ 12809020 f i multilist.obj
 0001:00008240       ??__Finstancex@?1??getInstance@?$Singleton@V?$ObjectPoolClass@VGenericSLNode@@$0BAA@@@@@SAAAV?$ObjectPoolClass@VGenericSLNode@@$0BAA@@@XZ@YAXXZ 12809240 f i shared.obj
 0002:00000000       __imp__GetSystemTimeAsFileTime@4 1280a000     kernel32:KERNEL32.dll
 0002:00000004       __imp__IsProcessorFeaturePresent@4 1280a004     kernel32:KERNEL32.dll
 0002:00000008       __imp__IsDebuggerPresent@0 1280a008     kernel32:KERNEL32.dll
 0002:0000000c       __imp__DisableThreadLibraryCalls@4 1280a00c     kernel32:KERNEL32.dll
 0002:00000010       __imp__GetCurrentProcessId@0 1280a010     kernel32:KERNEL32.dll
 0002:00000014       __imp__QueryPerformanceCounter@4 1280a014     kernel32:KERNEL32.dll
 0002:00000018       __imp__DecodePointer@4     1280a018     kernel32:KERNEL32.dll
 0002:0000001c       __imp__EncodePointer@4     1280a01c     kernel32:KERNEL32.dll
 0002:00000020       __imp__OutputDebugStringA@4 1280a020     kernel32:KERNEL32.dll
 0002:00000024       __imp__GetCurrentThreadId@0 1280a024     kernel32:KERNEL32.dll
 0002:00000028       \177KERNEL32_NULL_THUNK_DATA 1280a028     kernel32:KERNEL32.dll
 0002:0000002c       __imp___lock               1280a02c     MSVCRT:MSVCR110.dll
 0002:00000030       __imp___unlock             1280a030     MSVCRT:MSVCR110.dll
 0002:00000034       __imp___calloc_crt         1280a034     MSVCRT:MSVCR110.dll
 0002:00000038       __imp____dllonexit         1280a038     MSVCRT:MSVCR110.dll
 0002:0000003c       __imp___onexit             1280a03c     MSVCRT:MSVCR110.dll
 0002:00000040       __imp__vsnprintf           1280a040     MSVCRT:MSVCR110.dll
 0002:00000040       __imp___vsnprintf          1280a040     MSVCRT:MSVCR110.dll
 0002:00000044       __imp___amsg_exit          1280a044     MSVCRT:MSVCR110.dll
 0002:00000048       __imp__free                1280a048     MSVCRT:MSVCR110.dll
 0002:0000004c       __imp__memcpy              1280a04c     MSVCRT:MSVCR110.dll
 0002:00000050       __imp___initterm           1280a050     MSVCRT:MSVCR110.dll
 0002:00000054       __imp___initterm_e         1280a054     MSVCRT:MSVCR110.dll
 0002:00000058       __imp___except_handler4_common 1280a058     MSVCRT:MSVCR110.dll
 0002:0000005c       __imp____clean_type_info_names_internal 1280a05c     MSVCRT:MSVCR110.dll
 0002:00000060       __imp___crt_debugger_hook  1280a060     MSVCRT:MSVCR110.dll
 0002:00000064       __imp____crtUnhandledException 1280a064     MSVCRT:MSVCR110.dll
 0002:00000068       __imp____crtTerminateProcess 1280a068     MSVCRT:MSVCR110.dll
 0002:0000006c       __imp__wcsrchr             1280a06c     MSVCRT:MSVCR110.dll
 0002:00000070       __imp__strrchr             1280a070     MSVCRT:MSVCR110.dll
 0002:00000074       __imp___purecall           1280a074     MSVCRT:MSVCR110.dll
 0002:00000078       __imp__sprintf             1280a078     MSVCRT:MSVCR110.dll
 0002:0000007c       __imp__mbsrtowcs           1280a07c     MSVCRT:MSVCR110.dll
 0002:00000080       __imp___vsnwprintf         1280a080     MSVCRT:MSVCR110.dll
 0002:00000084       __imp__wcsrtombs           1280a084     MSVCRT:MSVCR110.dll
 0002:00000088       __imp__strstr              1280a088     MSVCRT:MSVCR110.dll
 0002:0000008c       __imp___strnicmp           1280a08c     MSVCRT:MSVCR110.dll
 0002:00000090       __imp__memmove             1280a090     MSVCRT:MSVCR110.dll
 0002:00000094       __imp__qsort               1280a094     MSVCRT:MSVCR110.dll
 0002:00000098       __imp___stricmp            1280a098     MSVCRT:MSVCR110.dll
 0002:00000098       __imp___strcmpi            1280a098     MSVCRT:MSVCR110.dll
 0002:0000009c       __imp___strlwr             1280a09c     MSVCRT:MSVCR110.dll
 0002:000000a0       __imp____CppXcptFilter     1280a0a0     MSVCRT:MSVCR110.dll
 0002:000000a4       __imp___malloc_crt         1280a0a4     MSVCRT:MSVCR110.dll
 0002:000000a8       \177MSVCR110_NULL_THUNK_DATA 1280a0a8     MSVCRT:MSVCR110.dll
 0002:000000ac       __imp_??2@YAPAXI@Z         1280a0ac     MemoryManager:MemoryManager.dll
 0002:000000b0       __imp_??_V@YAXPAX@Z        1280a0b0     MemoryManager:MemoryManager.dll
 0002:000000b4       __imp_??_U@YAPAXI@Z        1280a0b4     MemoryManager:MemoryManager.dll
 0002:000000b8       __imp_??3@YAXPAX@Z         1280a0b8     MemoryManager:MemoryManager.dll
 0002:000000bc       \177MemoryManager_NULL_THUNK_DATA 1280a0bc     MemoryManager:MemoryManager.dll
 0002:000000c0       ___xc_a                    1280a0c0     MSVCRT:cinitexe.obj
 0002:00000124       ___xc_z                    1280a124     MSVCRT:cinitexe.obj
 0002:00000128       ___xi_a                    1280a128     MSVCRT:cinitexe.obj
 0002:00000134       ___xi_z                    1280a134     MSVCRT:cinitexe.obj
 0002:00000138       ___xl_a                    1280a138     MSVCRT:tlssup.obj
 0002:0000013c       ___xl_z                    1280a13c     MSVCRT:tlssup.obj
 0002:00000178       __pRawDllMain              1280a178     MSVCRT:crtdll.obj
 0002:00000178       __pDefaultRawDllMain       1280a178     MSVCRT:crtdll.obj
 0002:00000184       ??_C@_0BD@HGAKCENP@DefinitionMgrClass?$AA@ 1280a184     DefinitionMgrClass.obj
 0002:00000198       ??_7?$VectorClass@PAVDefinitionClass@@@@6B@ 1280a198     DefinitionMgrClass.obj
 0002:000001b0       ??_7?$DynamicVectorClass@PAVDefinitionClass@@@@6B@ 1280a1b0     DefinitionMgrClass.obj
 0002:000001c8       ??_7DefinitionMgrClass@@6B@ 1280a1c8     DefinitionMgrClass.obj
 0002:000001f8       ??_C@_0FK@NKPBCFOI@?$CFd?5memory?5leaks?5found?5in?5ObjectP@ 1280a1f8     multilist.obj
 0002:00000254       ??_7SaveLoadSubSystemClass@@6B@ 1280a254     PersistFactoryClass.obj
 0002:00000270       ??_7PersistFactoryClass@@6B@ 1280a270     PersistFactoryClass.obj
 0002:00000280       ??_7PostLoadableClass@@6B@ 1280a280     PersistFactoryClass.obj
 0002:00000288       ??_7TDBCategoryClass@@6B@  1280a288     TDBCategoryClass.obj
 0002:0000029c       ??_7?$SimplePersistFactoryClass@VTDBCategoryClass@@$0JAAAC@@@6B@ 1280a29c     TDBCategoryClass.obj
 0002:000002ac       ??_C@_00CNPNBAHC@?$AA@     1280a2ac     TDBObjClass.obj
 0002:000002b0       ??_7?$VectorClass@VWideStringClass@@@@6B@ 1280a2b0     TDBObjClass.obj
 0002:000002c8       ??_7?$DynamicVectorClass@VWideStringClass@@@@6B@ 1280a2c8     TDBObjClass.obj
 0002:000002e0       ??_7TDBObjClass@@6B@       1280a2e0     TDBObjClass.obj
 0002:0000033c       ??_7?$SimplePersistFactoryClass@VTDBObjClass@@$0JAAAB@@@6B@ 1280a33c     TDBObjClass.obj
 0002:0000034c       ??_C@_0BB@MDFCLIHN@TranslateDBClass?$AA@ 1280a34c     TranslateDBClass.obj
 0002:00000360       ??_C@_1O@PIPGDLPA@?$AAT?$AAD?$AAB?$AAE?$AAR?$AAR?$AA?$AA@ 1280a360     TranslateDBClass.obj
 0002:00000370       ??_C@_06EIIMMDHB@TDBERR?$AA@ 1280a370     TranslateDBClass.obj
 0002:00000378       ??_C@_07MCAEODGB@Default?$AA@ 1280a378     TranslateDBClass.obj
 0002:00000380       ??_C@_0BK@EJKHOMHD@IDS_MENU_HIGH_RES_SHADOWS?$AA@ 1280a380     TranslateDBClass.obj
 0002:0000039c       ??_C@_0BI@DECOBLOK@High?5Resolution?5Shadows?$AA@ 1280a39c     TranslateDBClass.obj
 0002:000003b4       ??_C@_1DA@KABFLKEL@?$AAH?$AAi?$AAg?$AAh?$AA?5?$AAR?$AAe?$AAs?$AAo?$AAl?$AAu?$AAt?$AAi?$AAo?$AAn?$AA?5?$AAS?$AAh?$AAa?$AAd?$AAo?$AAw?$AAs?$AA?$AA@ 1280a3b4     TranslateDBClass.obj
 0002:000003e4       ??_C@_0BD@HBJLLDGE@IDS_TEXTURE_FILTER?$AA@ 1280a3e4     TranslateDBClass.obj
 0002:000003f8       ??_C@_0BD@LHFGGPNL@IDS_ANTIALIAS_MODE?$AA@ 1280a3f8     TranslateDBClass.obj
 0002:0000040c       ??_C@_0BE@EKILDFGH@Anti?9aliasing?5Mode?3?$AA@ 1280a40c     TranslateDBClass.obj
 0002:00000420       ??_C@_1CI@INFFHLPF@?$AAA?$AAn?$AAt?$AAi?$AA?9?$AAa?$AAl?$AAi?$AAa?$AAs?$AAi?$AAn?$AAg?$AA?5?$AAM?$AAo?$AAd?$AAe?$AA?3?$AA?$AA@ 1280a420     TranslateDBClass.obj
 0002:00000448       ??_C@_0BH@JAFOKEPM@IDS_STRUCT_GUARD_TOWER?$AA@ 1280a448     TranslateDBClass.obj
 0002:00000460       ??_C@_0M@BNEIKKHJ@Guard?5Tower?$AA@ 1280a460     TranslateDBClass.obj
 0002:0000046c       ??_C@_1BI@GNJFCJCJ@?$AAG?$AAu?$AAa?$AAr?$AAd?$AA?5?$AAT?$AAo?$AAw?$AAe?$AAr?$AA?$AA@ 1280a46c     TranslateDBClass.obj
 0002:00000484       ??_7TranslateDBClass@@6B@  1280a484     TranslateDBClass.obj
 0002:000004a0       ??_C@_0FF@NOANHENP@?$CFd?5memory?5leaks?5found?5in?5ObjectP@ 1280a4a0     shared.obj
 0002:000004f8       ??_7?$SList@VVehicleGameObj@@@@6B@ 1280a4f8     shared.obj
 0002:000004f8       ??_7?$SList@VSoldierGameObj@@@@6B@ 1280a4f8     shared.obj
 0002:000004f8       ??_7?$SList@VScriptZoneGameObj@@@@6B@ 1280a4f8     shared.obj
 0002:000004f8       ??_7?$SList@VC4GameObj@@@@6B@ 1280a4f8     shared.obj
 0002:000004f8       ??_7?$SList@VBeaconGameObj@@@@6B@ 1280a4f8     shared.obj
 0002:00000530       __load_config_used         1280a530     MSVCRT:loadcfg.obj
 0002:00000578       __tls_used                 1280a578     MSVCRT:tlssup.obj
 0002:000005f0       ___rtc_iaa                 1280a5f0     MSVCRT:initsect.obj
 0002:000005f4       ___rtc_izz                 1280a5f4     MSVCRT:initsect.obj
 0002:000005f8       ___rtc_taa                 1280a5f8     MSVCRT:initsect.obj
 0002:000005fc       ___rtc_tzz                 1280a5fc     MSVCRT:initsect.obj
 0002:00000664       __IMPORT_DESCRIPTOR_MemoryManager 1280a664     MemoryManager:MemoryManager.dll
 0002:00000678       __IMPORT_DESCRIPTOR_MSVCR110 1280a678     MSVCRT:MSVCR110.dll
 0002:0000068c       __IMPORT_DESCRIPTOR_KERNEL32 1280a68c     kernel32:KERNEL32.dll
 0002:000006a0       __NULL_IMPORT_DESCRIPTOR   1280a6a0     MemoryManager:MemoryManager.dll
 0003:00000000       ___native_dllmain_reason   1280c000     MSVCRT:natstart.obj
 0003:00000004       ___security_cookie         1280c004     MSVCRT:gs_cookie.obj
 0003:00000008       ___security_cookie_complement 1280c008     MSVCRT:gs_cookie.obj
 0003:0000000c       ?Exe@@3HA                  1280c00c     engine_common.obj
 0003:00000010       ?ENGLISH_STRING_NOT_FOUND@@3PBDB 1280c010     TranslateDBClass.obj
 0003:00000014       ?STRING_NOT_FOUND@@3PB_WB  1280c014     TranslateDBClass.obj
 0003:00000018       ?_TheDefinitionMgr@@3VDefinitionMgrClass@@A 1280c018     DefinitionMgrClass.obj
 0003:00000024       ?_TDBCategoryPersistFactory@@3V?$SimplePersistFactoryClass@VTDBCategoryClass@@$0JAAAC@@@A 1280c024     TDBCategoryClass.obj
 0003:0000002c       ?_TranslateObjPersistFactory@@3V?$SimplePersistFactoryClass@VTDBObjClass@@$0JAAAB@@@A 1280c02c     TDBObjClass.obj
 0003:00000034       ?_TheTranslateDB@@3VTranslateDBClass@@A 1280c034     TranslateDBClass.obj
 0003:00000040       ?C4GameObjList@GameObjManager@@2V?$SList@VC4GameObj@@@@A 1280c040     shared.obj
 0003:0000004c       ?BeaconGameObjList@GameObjManager@@2V?$SList@VBeaconGameObj@@@@A 1280c04c     shared.obj
 0003:00000058       ?SoldierGameObjList@GameObjManager@@2V?$SList@VSoldierGameObj@@@@A 1280c058     shared.obj
 0003:00000064       ?VehicleGameObjList@GameObjManager@@2V?$SList@VVehicleGameObj@@@@A 1280c064     shared.obj
 0003:00000070       ?ScriptZoneGameObjList@GameObjManager@@2V?$SList@VScriptZoneGameObj@@@@A 1280c070     shared.obj
 0003:00000084       ?__type_info_root_node@@3U__type_info_node@@A 1280c084     MSVCRT:tncleanup.obj
 0003:000003b0       ?_MaxDefinitionCount@DefinitionMgrClass@@0HA 1280c3b0     DefinitionMgrClass.obj
 0003:000003b4       ?DefinitionHash@DefinitionMgrClass@@0PAV?$HashTemplateClass@VStringClass@@PAV?$DynamicVectorClass@PAVDefinitionClass@@@@@@A 1280c3b4     DefinitionMgrClass.obj
 0003:000003b8       ?_DefinitionCount@DefinitionMgrClass@@0HA 1280c3b8     DefinitionMgrClass.obj
 0003:000003bc       ?_SortedDefinitionArray@DefinitionMgrClass@@0PAPAVDefinitionClass@@A 1280c3bc     DefinitionMgrClass.obj
 0003:000003c0       ?m_EmptyString@StringClass@@0AAPADA 1280c3c0     engine_string.obj
 0003:000003c4       ?m_NullChar@StringClass@@0AADA 1280c3c4     engine_string.obj
 0003:000003c8       ?m_EmptyString@WideStringClass@@0AAPA_WA 1280c3c8     engine_string.obj
 0003:000003cc       ?m_NullChar@WideStringClass@@0AA_WA 1280c3cc     engine_string.obj
 0003:000003d0       ?PointerRemapper@SaveLoadSystemClass@@2AAVPointerRemapClass@@A 1280c3d0     PersistFactoryClass.obj
 0003:000003d4       ?_FactoryListHead@SaveLoadSystemClass@@2AAPAVPersistFactoryClass@@A 1280c3d4     PersistFactoryClass.obj
 0003:000003d8       ?_SubSystemListHead@SaveLoadSystemClass@@2AAPAVSaveLoadSubSystemClass@@A 1280c3d8     PersistFactoryClass.obj
 0003:000003dc       ?m_ObjectList@TranslateDBClass@@0AAV?$DynamicVectorClass@PAVTDBObjClass@@@@A 1280c3dc     TranslateDBClass.obj
 0003:000003e0       ?m_ObjectHash@TranslateDBClass@@0AAV?$HashTemplateClass@VStringClass@@PAVTDBObjClass@@@@A 1280c3e0     TranslateDBClass.obj
 0003:000003e4       ?m_CategoryList@TranslateDBClass@@0AAV?$DynamicVectorClass@PAVTDBCategoryClass@@@@A 1280c3e4     TranslateDBClass.obj
 0003:000003e8       ?m_VersionNumber@TranslateDBClass@@0AAIA 1280c3e8     TranslateDBClass.obj
 0003:000003ec       ?m_LanguageID@TranslateDBClass@@0AAIA 1280c3ec     TranslateDBClass.obj
 0003:000003f0       ?IsSingleLanguageExport@TranslateDBClass@@0AA_NA 1280c3f0     TranslateDBClass.obj
 0003:000003f4       ?FilterType@TranslateDBClass@@0AAW4FILTER_OPT@1@A 1280c3f4     TranslateDBClass.obj
 0003:000003f8       ?FilterCategoryID@TranslateDBClass@@0AAIA 1280c3f8     TranslateDBClass.obj
 0003:00000400       ___@@_PchSym_@00@UtrgsfyUivmvtzwvUwiztlmzwvPicwUgvnkUhszivwUivovzhvUtvmvizoOlyq@3918FD0DC02C95B3 1280c400     General.obj
 0003:00000404       ??_B?1??getInstance@?$Singleton@V?$ObjectPoolClass@VMultiListNodeClass@@$0BAA@@@@@SAAAV?$ObjectPoolClass@VMultiListNodeClass@@$0BAA@@@XZ@51 1280c404     multilist.obj
 0003:00000408       ?instancex@?1??getInstance@?$Singleton@V?$ObjectPoolClass@VMultiListNodeClass@@$0BAA@@@@@SAAAV?$ObjectPoolClass@VMultiListNodeClass@@$0BAA@@@XZ@4V3@A 1280c408     multilist.obj
 0003:0000041c       ??_B?1??getInstance@?$Singleton@V?$ObjectPoolClass@VGenericSLNode@@$0BAA@@@@@SAAAV?$ObjectPoolClass@VGenericSLNode@@$0BAA@@@XZ@51 1280c41c     shared.obj
 0003:00000420       ?instancex@?1??getInstance@?$Singleton@V?$ObjectPoolClass@VGenericSLNode@@$0BAA@@@@@SAAAV?$ObjectPoolClass@VGenericSLNode@@$0BAA@@@XZ@4V3@A 1280c420     shared.obj
 0003:00000434       __tls_index                1280c434     MSVCRT:tlssup.obj
 0003:00000438       ___native_startup_lock     1280c438     <common>
 0003:0000043c       ___native_startup_state    1280c43c     <common>
 0003:00000440       ___dyn_tls_init_callback   1280c440     <common>
 0003:00000444       ___onexitend               1280c444     <common>
 0003:00000448       ___onexitbegin             1280c448     <common>
 0004:00000000       __tls_start                1280d000     MSVCRT:tlssup.obj
 0004:00000004       ?FreeTempStrings@StringClass@@0IA 1280d004     engine_string.obj
 0004:00000008       ?FreeTempStrings@WideStringClass@@0IA 1280d008     engine_string.obj
 0004:00000010       ?TempStrings@StringClass@@0PAY0BAA@DA 1280d010     engine_string.obj
 0004:00000810       ?TempStrings@WideStringClass@@0PAY0CAI@DA 1280d810     engine_string.obj
 0004:00001030       __tls_end                  1280e030     MSVCRT:tlssup.obj

 entry point at        0001:0000749d

 Static symbols

 0000:fffee000       .debug$S                   12800000     kernel32:KERNEL32.dll
 0000:fffee000       .debug$S                   12800000     MSVCRT:MSVCR110.dll
 0000:fffee000       .debug$S                   12800000     MSVCRT:MSVCR110.dll
 0000:fffee000       .debug$S                   12800000     MSVCRT:MSVCR110.dll
 0000:fffee000       .debug$S                   12800000     MSVCRT:MSVCR110.dll
 0000:fffee000       .debug$S                   12800000     MSVCRT:MSVCR110.dll
 0000:fffee000       .debug$S                   12800000     MemoryManager:MemoryManager.dll
 0000:fffee000       .debug$S                   12800000     MemoryManager:MemoryManager.dll
 0000:fffee000       .debug$S                   12800000     MemoryManager:MemoryManager.dll
 0000:fffee000       .debug$S                   12800000     MemoryManager:MemoryManager.dll
 0000:fffee000       .debug$S                   12800000     MSVCRT:MSVCR110.dll
 0000:fffee000       .debug$S                   12800000     MSVCRT:MSVCR110.dll
 0000:fffee000       .debug$S                   12800000     MSVCRT:MSVCR110.dll
 0000:fffee000       .debug$S                   12800000     MSVCRT:MSVCR110.dll
 0000:fffee000       .debug$S                   12800000     MSVCRT:MSVCR110.dll
 0000:fffee000       .debug$S                   12800000     MSVCRT:MSVCR110.dll
 0000:fffee000       .debug$S                   12800000     MSVCRT:MSVCR110.dll
 0000:fffee000       .debug$S                   12800000     MSVCRT:MSVCR110.dll
 0000:fffee000       .debug$S                   12800000     MSVCRT:MSVCR110.dll
 0000:fffee000       .debug$S                   12800000     MSVCRT:MSVCR110.dll
 0000:fffee000       .debug$S                   12800000     MSVCRT:MSVCR110.dll
 0000:fffee000       .debug$S                   12800000     MSVCRT:MSVCR110.dll
 0000:fffee000       .debug$S                   12800000     MSVCRT:MSVCR110.dll
 0000:fffee000       .debug$S                   12800000     MSVCRT:MSVCR110.dll
 0000:fffee000       .debug$S                   12800000     MSVCRT:MSVCR110.dll
 0000:fffee000       .debug$S                   12800000     MSVCRT:MSVCR110.dll
 0000:fffee000       .debug$S                   12800000     kernel32:KERNEL32.dll
 0000:fffee000       .debug$S                   12800000     kernel32:KERNEL32.dll
 0000:fffee000       .debug$S                   12800000     MSVCRT:MSVCR110.dll
 0000:fffee000       .debug$S                   12800000     MSVCRT:MSVCR110.dll
 0000:fffee000       .debug$S                   12800000     MSVCRT:MSVCR110.dll
 0000:fffee000       .debug$S                   12800000     MSVCRT:MSVCR110.dll
 0000:fffee000       .debug$S                   12800000     MSVCRT:MSVCR110.dll
 0000:fffee000       .debug$S                   12800000     MSVCRT:MSVCR110.dll
 0000:fffee000       .debug$S                   12800000     MSVCRT:MSVCR110.dll
 0000:fffee000       .debug$S                   12800000     MSVCRT:MSVCR110.dll
 0000:fffee000       .debug$S                   12800000     MSVCRT:MSVCR110.dll
 0000:fffee000       .debug$S                   12800000     MSVCRT:MSVCR110.dll
 0000:fffee000       .debug$S                   12800000     MSVCRT:MSVCR110.dll
 0000:fffee000       .debug$S                   12800000     MSVCRT:MSVCR110.dll
 0000:fffee000       .debug$S                   12800000     MSVCRT:MSVCR110.dll
 0000:fffee000       .debug$S                   12800000     MSVCRT:MSVCR110.dll
 0000:fffee000       .debug$S                   12800000     MSVCRT:MSVCR110.dll
 0000:fffee000       .debug$S                   12800000     MSVCRT:MSVCR110.dll
 0000:fffee000       .debug$S                   12800000     MSVCRT:MSVCR110.dll
 0000:fffee000       .debug$S                   12800000     MSVCRT:MSVCR110.dll
 0000:fffee000       .debug$S                   12800000     MSVCRT:MSVCR110.dll
 0000:fffee000       .debug$S                   12800000     kernel32:KERNEL32.dll
 0000:fffee000       .debug$S                   12800000     kernel32:KERNEL32.dll
 0000:fffee000       .debug$S                   12800000     kernel32:KERNEL32.dll
 0000:fffee000       .debug$S                   12800000     kernel32:KERNEL32.dll
 0000:fffee000       .debug$S                   12800000     kernel32:KERNEL32.dll
 0000:fffee000       .debug$S                   12800000     kernel32:KERNEL32.dll
 0000:fffee000       .debug$S                   12800000     kernel32:KERNEL32.dll
 0000:fffee000       .debug$S                   12800000     kernel32:KERNEL32.dll
 0000:fffee000       .debug$S                   12800000     kernel32:KERNEL32.dll
 0000:fffee000       .debug$S                   12800000     kernel32:KERNEL32.dll
 0000:fffee000       .debug$S                   12800000     kernel32:KERNEL32.dll
 0000:fffee000       .debug$S                   12800000     kernel32:KERNEL32.dll
 0000:fffee000       .debug$S                   12800000     kernel32:KERNEL32.dll
 0000:fffee000       .debug$S                   12800000     MSVCRT:MSVCR110.dll
 0000:fffee000       .debug$S                   12800000     kernel32:KERNEL32.dll
 0000:fffee000       .debug$S                   12800000     kernel32:KERNEL32.dll
 0000:fffee000       .debug$S                   12800000     kernel32:KERNEL32.dll
 0000:fffee000       .debug$S                   12800000     kernel32:KERNEL32.dll
 0000:fffee000       .debug$S                   12800000     kernel32:KERNEL32.dll
 0000:fffee000       .debug$S                   12800000     kernel32:KERNEL32.dll
 0000:fffee000       .debug$S                   12800000     kernel32:KERNEL32.dll
 0000:fffee000       .debug$S                   12800000     kernel32:KERNEL32.dll
 0000:fffee000       .debug$S                   12800000     kernel32:KERNEL32.dll
 0000:fffee000       .debug$S                   12800000     kernel32:KERNEL32.dll
 0001:00004648       $LN117                     12805648     * CIL library *:* CIL module *
 0001:0000725c       _pre_c_init                1280825c f   MSVCRT:crtdll.obj
 0001:000074c0       ___DllMainCRTStartup       128084c0 f   MSVCRT:crtdll.obj
 0001:00007610       $$000000                   12808610     MSVCRT:sehprolg4.obj
 0001:00007a70       ??__E_TheDefinitionMgr@@YAXXZ 12808a70 f   * CIL library *:* CIL module *
 0001:00007aa0       ??__E?m_EmptyString@StringClass@@0AAPADA@@YAXXZ 12808aa0 f   * CIL library *:* CIL module *
 0001:00007af0       ??__E?m_NullChar@StringClass@@0AADA@@YAXXZ 12808af0 f   * CIL library *:* CIL module *
 0001:00007b40       ??__E?m_EmptyString@WideStringClass@@0AAPA_WA@@YAXXZ 12808b40 f   * CIL library *:* CIL module *
 0001:00007b90       ??__E?m_NullChar@WideStringClass@@0AA_WA@@YAXXZ 12808b90 f   * CIL library *:* CIL module *
 0001:00007be0       ??__E?PointerRemapper@SaveLoadSystemClass@@2AAVPointerRemapClass@@A@@YAXXZ 12808be0 f   * CIL library *:* CIL module *
 0001:00007c30       ??__E?_FactoryListHead@SaveLoadSystemClass@@2AAPAVPersistFactoryClass@@A@@YAXXZ 12808c30 f   * CIL library *:* CIL module *
 0001:00007c80       ??__E?_SubSystemListHead@SaveLoadSystemClass@@2AAPAVSaveLoadSubSystemClass@@A@@YAXXZ 12808c80 f   * CIL library *:* CIL module *
 0001:00007cd0       ??__E_TDBCategoryPersistFactory@@YAXXZ 12808cd0 f   * CIL library *:* CIL module *
 0001:00007d00       ??__E_TranslateObjPersistFactory@@YAXXZ 12808d00 f   * CIL library *:* CIL module *
 0001:00007d30       ??__E_TheTranslateDB@@YAXXZ 12808d30 f   * CIL library *:* CIL module *
 0001:00007d60       ??__E?m_ObjectList@TranslateDBClass@@0AAV?$DynamicVectorClass@PAVTDBObjClass@@@@A@@YAXXZ 12808d60 f   * CIL library *:* CIL module *
 0001:00007da0       ??__E?m_ObjectHash@TranslateDBClass@@0AAV?$HashTemplateClass@VStringClass@@PAVTDBObjClass@@@@A@@YAXXZ 12808da0 f   * CIL library *:* CIL module *
 0001:00007de0       ??__E?m_CategoryList@TranslateDBClass@@0AAV?$DynamicVectorClass@PAVTDBCategoryClass@@@@A@@YAXXZ 12808de0 f   * CIL library *:* CIL module *
 0001:00007e20       ??__E?m_VersionNumber@TranslateDBClass@@0AAIA@@YAXXZ 12808e20 f   * CIL library *:* CIL module *
 0001:00007e60       ??__E?m_LanguageID@TranslateDBClass@@0AAIA@@YAXXZ 12808e60 f   * CIL library *:* CIL module *
 0001:00007ea0       ??__E?IsSingleLanguageExport@TranslateDBClass@@0AA_NA@@YAXXZ 12808ea0 f   * CIL library *:* CIL module *
 0001:00007ee0       ??__E?FilterType@TranslateDBClass@@0AAW4FILTER_OPT@1@A@@YAXXZ 12808ee0 f   * CIL library *:* CIL module *
 0001:00007f20       ??__E?FilterCategoryID@TranslateDBClass@@0AAIA@@YAXXZ 12808f20 f   * CIL library *:* CIL module *
 0001:00007f60       ??__E?C4GameObjList@GameObjManager@@2V?$SList@VC4GameObj@@@@A@@YAXXZ 12808f60 f   * CIL library *:* CIL module *
 0001:00007f70       ??__E?BeaconGameObjList@GameObjManager@@2V?$SList@VBeaconGameObj@@@@A@@YAXXZ 12808f70 f   * CIL library *:* CIL module *
 0001:00007f80       ??__E?SoldierGameObjList@GameObjManager@@2V?$SList@VSoldierGameObj@@@@A@@YAXXZ 12808f80 f   * CIL library *:* CIL module *
 0001:00007f90       ??__E?VehicleGameObjList@GameObjManager@@2V?$SList@VVehicleGameObj@@@@A@@YAXXZ 12808f90 f   * CIL library *:* CIL module *
 0001:00007fa0       ??__E?ScriptZoneGameObjList@GameObjManager@@2V?$SList@VScriptZoneGameObj@@@@A@@YAXXZ 12808fa0 f   * CIL library *:* CIL module *
 0001:00007fb0       ??__F_TheDefinitionMgr@@YAXXZ 12808fb0 f   * CIL library *:* CIL module *
 0001:00008080       ??__F_TDBCategoryPersistFactory@@YAXXZ 12809080 f   * CIL library *:* CIL module *
 0001:000080e0       ??__F_TranslateObjPersistFactory@@YAXXZ 128090e0 f   * CIL library *:* CIL module *
 0001:00008140       ??__F_TheTranslateDB@@YAXXZ 12809140 f   * CIL library *:* CIL module *
 0001:000081a0       ??__F?C4GameObjList@GameObjManager@@2V?$SList@VC4GameObj@@@@A@@YAXXZ 128091a0 f   * CIL library *:* CIL module *
 0001:000081c0       ??__F?BeaconGameObjList@GameObjManager@@2V?$SList@VBeaconGameObj@@@@A@@YAXXZ 128091c0 f   * CIL library *:* CIL module *
 0001:000081e0       ??__F?SoldierGameObjList@GameObjManager@@2V?$SList@VSoldierGameObj@@@@A@@YAXXZ 128091e0 f   * CIL library *:* CIL module *
 0001:00008200       ??__F?VehicleGameObjList@GameObjManager@@2V?$SList@VVehicleGameObj@@@@A@@YAXXZ 12809200 f   * CIL library *:* CIL module *
 0001:00008220       ??__F?ScriptZoneGameObjList@GameObjManager@@2V?$SList@VScriptZoneGameObj@@@@A@@YAXXZ 12809220 f   * CIL library *:* CIL module *
 0002:000000c4       ?m_EmptyString$initializer$@StringClass@@0P6AXXZA 1280a0c4     * CIL library *:* CIL module *
 0002:000000c8       ?m_NullChar$initializer$@StringClass@@0P6AXXZA 1280a0c8     * CIL library *:* CIL module *
 0002:000000cc       ?m_EmptyString$initializer$@WideStringClass@@0P6AXXZA 1280a0cc     * CIL library *:* CIL module *
 0002:000000d0       ?m_NullChar$initializer$@WideStringClass@@0P6AXXZA 1280a0d0     * CIL library *:* CIL module *
 0002:000000d4       ?PointerRemapper$initializer$@SaveLoadSystemClass@@2P6AXXZA 1280a0d4     * CIL library *:* CIL module *
 0002:000000d8       ?_FactoryListHead$initializer$@SaveLoadSystemClass@@2P6AXXZA 1280a0d8     * CIL library *:* CIL module *
 0002:000000dc       ?_SubSystemListHead$initializer$@SaveLoadSystemClass@@2P6AXXZA 1280a0dc     * CIL library *:* CIL module *
 0002:000000e0       __TheDefinitionMgr$initializer$ 1280a0e0     * CIL library *:* CIL module *
 0002:000000e4       __TDBCategoryPersistFactory$initializer$ 1280a0e4     * CIL library *:* CIL module *
 0002:000000e8       __TranslateObjPersistFactory$initializer$ 1280a0e8     * CIL library *:* CIL module *
 0002:000000ec       __TheTranslateDB$initializer$ 1280a0ec     * CIL library *:* CIL module *
 0002:000000f0       ?m_ObjectList$initializer$@TranslateDBClass@@0P6AXXZA 1280a0f0     * CIL library *:* CIL module *
 0002:000000f4       ?m_ObjectHash$initializer$@TranslateDBClass@@0P6AXXZA 1280a0f4     * CIL library *:* CIL module *
 0002:000000f8       ?m_CategoryList$initializer$@TranslateDBClass@@0P6AXXZA 1280a0f8     * CIL library *:* CIL module *
 0002:000000fc       ?m_VersionNumber$initializer$@TranslateDBClass@@0P6AXXZA 1280a0fc     * CIL library *:* CIL module *
 0002:00000100       ?m_LanguageID$initializer$@TranslateDBClass@@0P6AXXZA 1280a100     * CIL library *:* CIL module *
 0002:00000104       ?IsSingleLanguageExport$initializer$@TranslateDBClass@@0P6AXXZA 1280a104     * CIL library *:* CIL module *
 0002:00000108       ?FilterType$initializer$@TranslateDBClass@@0P6AXXZA 1280a108     * CIL library *:* CIL module *
 0002:0000010c       ?FilterCategoryID$initializer$@TranslateDBClass@@0P6AXXZA 1280a10c     * CIL library *:* CIL module *
 0002:00000110       ?C4GameObjList$initializer$@GameObjManager@@2P6AXXZA 1280a110     * CIL library *:* CIL module *
 0002:00000114       ?BeaconGameObjList$initializer$@GameObjManager@@2P6AXXZA 1280a114     * CIL library *:* CIL module *
 0002:00000118       ?SoldierGameObjList$initializer$@GameObjManager@@2P6AXXZA 1280a118     * CIL library *:* CIL module *
 0002:0000011c       ?VehicleGameObjList$initializer$@GameObjManager@@2P6AXXZA 1280a11c     * CIL library *:* CIL module *
 0002:00000120       ?ScriptZoneGameObjList$initializer$@GameObjManager@@2P6AXXZA 1280a120     * CIL library *:* CIL module *
 0002:0000012c       _pcinit                    1280a12c     MSVCRT:crtdll.obj
 0002:00000130       _pinit                     1280a130     MSVCRT:atonexit.obj
 0002:0000017c       _GS_ExceptionPointers      1280a17c     MSVCRT:gs_report.obj
 0002:000001e4       _Code                      1280a1e4     * CIL library *:* CIL module *
 0002:00000600       __sehtable$__onexit        1280a600     MSVCRT:atonexit.obj
 0002:00000620       __sehtable$___DllMainCRTStartup 1280a620     MSVCRT:crtdll.obj
 0002:00000648       __sehtable$__IsNonwritableInCurrentImage 1280a648     MSVCRT:pesect.obj
 0002:000007b4       .idata$6                   1280a7b4     MemoryManager:MemoryManager.dll
 0002:00000854       .idata$6                   1280a854     MSVCRT:MSVCR110.dll
 0002:00000a60       .idata$6                   1280aa60     kernel32:KERNEL32.dll
 0002:00000a80       .edata                     1280aa80     shared.exp
 0002:00000aa8       rgpv                       1280aaa8     shared.exp
 0002:00000b80       rgszName                   1280ab80     shared.exp
 0002:00000c58       rgwOrd                     1280ac58     shared.exp
 0002:00000cc4       szName                     1280acc4     shared.exp
 0002:00000ccf       $N00001                    1280accf     shared.exp
 0002:00000d10       $N00002                    1280ad10     shared.exp
 0002:00000d49       $N00003                    1280ad49     shared.exp
 0002:00000d73       $N00004                    1280ad73     shared.exp
 0002:00000d97       $N00005                    1280ad97     shared.exp
 0002:00000db8       $N00006                    1280adb8     shared.exp
 0002:00000df9       $N00007                    1280adf9     shared.exp
 0002:00000e42       $N00008                    1280ae42     shared.exp
 0002:00000e8c       $N00009                    1280ae8c     shared.exp
 0002:00000eab       $N00010                    1280aeab     shared.exp
 0002:00000ecf       $N00011                    1280aecf     shared.exp
 0002:00000ef8       $N00012                    1280aef8     shared.exp
 0002:00000f26       $N00013                    1280af26     shared.exp
 0002:00000f52       $N00014                    1280af52     shared.exp
 0002:00000f73       $N00015                    1280af73     shared.exp
 0002:00000f98       $N00016                    1280af98     shared.exp
 0002:00000fdd       $N00017                    1280afdd     shared.exp
 0002:00001019       $N00018                    1280b019     shared.exp
 0002:00001062       $N00019                    1280b062     shared.exp
 0002:00001085       $N00020                    1280b085     shared.exp
 0002:000010ac       $N00021                    1280b0ac     shared.exp
 0002:000010d8       $N00022                    1280b0d8     shared.exp
 0002:000010fc       $N00023                    1280b0fc     shared.exp
 0002:00001144       $N00024                    1280b144     shared.exp
 0002:00001197       $N00025                    1280b197     shared.exp
 0002:000011e4       $N00026                    1280b1e4     shared.exp
 0002:0000122d       $N00027                    1280b22d     shared.exp
 0002:0000127e       $N00028                    1280b27e     shared.exp
 0002:000012a0       $N00029                    1280b2a0     shared.exp
 0002:000012e3       $N00030                    1280b2e3     shared.exp
 0002:00001309       $N00031                    1280b309     shared.exp
 0002:00001333       $N00032                    1280b333     shared.exp
 0002:0000135e       $N00033                    1280b35e     shared.exp
 0002:00001382       $N00034                    1280b382     shared.exp
 0002:000013a6       $N00035                    1280b3a6     shared.exp
 0002:000013d7       $N00036                    1280b3d7     shared.exp
 0002:000013f4       $N00037                    1280b3f4     shared.exp
 0002:00001415       $N00038                    1280b415     shared.exp
 0002:0000142f       $N00039                    1280b42f     shared.exp
 0002:00001478       $N00040                    1280b478     shared.exp
 0002:0000149a       $N00041                    1280b49a     shared.exp
 0002:000014dd       $N00042                    1280b4dd     shared.exp
 0002:00001506       $N00043                    1280b506     shared.exp
 0002:0000152f       $N00044                    1280b52f     shared.exp
 0002:0000155c       $N00045                    1280b55c     shared.exp
 0002:000015a1       $N00046                    1280b5a1     shared.exp
 0002:000015e4       $N00047                    1280b5e4     shared.exp
 0002:00001629       $N00048                    1280b629     shared.exp
 0002:0000164d       $N00049                    1280b64d     shared.exp
 0002:00001676       $N00050                    1280b676     shared.exp
 0002:0000169c       $N00051                    1280b69c     shared.exp
 0002:000016bb       $N00052                    1280b6bb     shared.exp
 0002:000016df       $N00053                    1280b6df     shared.exp
 0002:00001739       $N00054                    1280b739     shared.exp
 0003:00000080       ___proc_attached           1280c080     MSVCRT:crtdll.obj
 0003:00000090       _GS_ExceptionRecord        1280c090     MSVCRT:gs_report.obj
 0003:000000e0       _GS_ContextRecord          1280c0e0     MSVCRT:gs_report.obj
 0003:000003ac       _DebuggerWasPresent        1280c3ac     MSVCRT:gs_report.obj
 0003:000003fc       _allocator_arg             1280c3fc     * CIL library *:* CIL module *
 0003:000003fd       _piecewise_construct       1280c3fd     * CIL library *:* CIL module *
 0005:00000060       $R000000                   1280f060     * linker generated manifest res *
