; Listing generated by Microsoft (R) Optimizing Compiler Version 17.00.61219.0 

	TITLE	X:\GitHub\Renegade\Dragonade_RxD\shared\shared.cpp
	.686P
	.XMM
	include listing.inc
	.model	flat

INCLUDELIB MSVCRTD
INCLUDELIB OLDNAMES

PUBLIC	?Enter@FastCriticalSectionClass@@AAEXXZ		; FastCriticalSectionClass::Enter
PUBLIC	?Leave@FastCriticalSectionClass@@AAEXXZ		; FastCriticalSectionClass::Leave
PUBLIC	??0LockClass@FastCriticalSectionClass@@QAE@AAV1@@Z ; FastCriticalSectionClass::LockClass::LockClass
PUBLIC	??1LockClass@FastCriticalSectionClass@@QAE@XZ	; FastCriticalSectionClass::LockClass::~LockClass
PUBLIC	??0FastCriticalSectionClass@@QAE@XZ		; FastCriticalSectionClass::FastCriticalSectionClass
PUBLIC	??2?$AutoPoolClass@VGenericSLNode@@$0BAA@@@SAPAXIPBDI0@Z ; AutoPoolClass<GenericSLNode,256>::operator new
PUBLIC	??3?$AutoPoolClass@VGenericSLNode@@$0BAA@@@SAXPAX@Z ; AutoPoolClass<GenericSLNode,256>::operator delete
PUBLIC	??0GenericSLNode@@IAE@PAX@Z			; GenericSLNode::GenericSLNode
PUBLIC	??0?$SList@VC4GameObj@@@@QAE@XZ			; SList<C4GameObj>::SList<C4GameObj>
PUBLIC	??1?$SList@VC4GameObj@@@@UAE@XZ			; SList<C4GameObj>::~SList<C4GameObj>
PUBLIC	?Add_Head@?$SList@VC4GameObj@@@@UAE_NPAVC4GameObj@@@Z ; SList<C4GameObj>::Add_Head
PUBLIC	?Add_Head@?$SList@VC4GameObj@@@@UAE_NAAV1@@Z	; SList<C4GameObj>::Add_Head
PUBLIC	?Add_Tail@?$SList@VC4GameObj@@@@UAE_NPAVC4GameObj@@@Z ; SList<C4GameObj>::Add_Tail
PUBLIC	?Add_Tail@?$SList@VC4GameObj@@@@UAE_NAAV1@@Z	; SList<C4GameObj>::Add_Tail
PUBLIC	?Remove_Head@?$SList@VC4GameObj@@@@UAEPAVC4GameObj@@XZ ; SList<C4GameObj>::Remove_Head
PUBLIC	?Remove_Tail@?$SList@VC4GameObj@@@@UAEPAVC4GameObj@@XZ ; SList<C4GameObj>::Remove_Tail
PUBLIC	?Remove@?$SList@VC4GameObj@@@@UAE_NPBVC4GameObj@@@Z ; SList<C4GameObj>::Remove
PUBLIC	?Remove_All@?$SList@VC4GameObj@@@@UAEXXZ	; SList<C4GameObj>::Remove_All
PUBLIC	?Insert_Before@?$SList@VC4GameObj@@@@UAE_NPAVC4GameObj@@PBV2@@Z ; SList<C4GameObj>::Insert_Before
PUBLIC	?Insert_After@?$SList@VC4GameObj@@@@UAE_NPAVC4GameObj@@PBV2@@Z ; SList<C4GameObj>::Insert_After
PUBLIC	?Is_Empty@?$SList@VC4GameObj@@@@UBE_NXZ		; SList<C4GameObj>::Is_Empty
PUBLIC	?Get_Count@?$SList@VC4GameObj@@@@UBEIXZ		; SList<C4GameObj>::Get_Count
PUBLIC	??_G?$SList@VC4GameObj@@@@UAEPAXI@Z		; SList<C4GameObj>::`scalar deleting destructor'
PUBLIC	??0?$SList@VBeaconGameObj@@@@QAE@XZ		; SList<BeaconGameObj>::SList<BeaconGameObj>
PUBLIC	??1?$SList@VBeaconGameObj@@@@UAE@XZ		; SList<BeaconGameObj>::~SList<BeaconGameObj>
PUBLIC	?Add_Head@?$SList@VBeaconGameObj@@@@UAE_NPAVBeaconGameObj@@@Z ; SList<BeaconGameObj>::Add_Head
PUBLIC	?Add_Head@?$SList@VBeaconGameObj@@@@UAE_NAAV1@@Z ; SList<BeaconGameObj>::Add_Head
PUBLIC	?Add_Tail@?$SList@VBeaconGameObj@@@@UAE_NPAVBeaconGameObj@@@Z ; SList<BeaconGameObj>::Add_Tail
PUBLIC	?Add_Tail@?$SList@VBeaconGameObj@@@@UAE_NAAV1@@Z ; SList<BeaconGameObj>::Add_Tail
PUBLIC	?Remove_Head@?$SList@VBeaconGameObj@@@@UAEPAVBeaconGameObj@@XZ ; SList<BeaconGameObj>::Remove_Head
PUBLIC	?Remove_Tail@?$SList@VBeaconGameObj@@@@UAEPAVBeaconGameObj@@XZ ; SList<BeaconGameObj>::Remove_Tail
PUBLIC	?Remove@?$SList@VBeaconGameObj@@@@UAE_NPBVBeaconGameObj@@@Z ; SList<BeaconGameObj>::Remove
PUBLIC	?Remove_All@?$SList@VBeaconGameObj@@@@UAEXXZ	; SList<BeaconGameObj>::Remove_All
PUBLIC	?Insert_Before@?$SList@VBeaconGameObj@@@@UAE_NPAVBeaconGameObj@@PBV2@@Z ; SList<BeaconGameObj>::Insert_Before
PUBLIC	?Insert_After@?$SList@VBeaconGameObj@@@@UAE_NPAVBeaconGameObj@@PBV2@@Z ; SList<BeaconGameObj>::Insert_After
PUBLIC	?Is_Empty@?$SList@VBeaconGameObj@@@@UBE_NXZ	; SList<BeaconGameObj>::Is_Empty
PUBLIC	?Get_Count@?$SList@VBeaconGameObj@@@@UBEIXZ	; SList<BeaconGameObj>::Get_Count
PUBLIC	??_G?$SList@VBeaconGameObj@@@@UAEPAXI@Z		; SList<BeaconGameObj>::`scalar deleting destructor'
PUBLIC	??0?$SList@VSoldierGameObj@@@@QAE@XZ		; SList<SoldierGameObj>::SList<SoldierGameObj>
PUBLIC	??1?$SList@VSoldierGameObj@@@@UAE@XZ		; SList<SoldierGameObj>::~SList<SoldierGameObj>
PUBLIC	?Add_Head@?$SList@VSoldierGameObj@@@@UAE_NPAVSoldierGameObj@@@Z ; SList<SoldierGameObj>::Add_Head
PUBLIC	?Add_Head@?$SList@VSoldierGameObj@@@@UAE_NAAV1@@Z ; SList<SoldierGameObj>::Add_Head
PUBLIC	?Add_Tail@?$SList@VSoldierGameObj@@@@UAE_NPAVSoldierGameObj@@@Z ; SList<SoldierGameObj>::Add_Tail
PUBLIC	?Add_Tail@?$SList@VSoldierGameObj@@@@UAE_NAAV1@@Z ; SList<SoldierGameObj>::Add_Tail
PUBLIC	?Remove_Head@?$SList@VSoldierGameObj@@@@UAEPAVSoldierGameObj@@XZ ; SList<SoldierGameObj>::Remove_Head
PUBLIC	?Remove_Tail@?$SList@VSoldierGameObj@@@@UAEPAVSoldierGameObj@@XZ ; SList<SoldierGameObj>::Remove_Tail
PUBLIC	?Remove@?$SList@VSoldierGameObj@@@@UAE_NPBVSoldierGameObj@@@Z ; SList<SoldierGameObj>::Remove
PUBLIC	?Remove_All@?$SList@VSoldierGameObj@@@@UAEXXZ	; SList<SoldierGameObj>::Remove_All
PUBLIC	?Insert_Before@?$SList@VSoldierGameObj@@@@UAE_NPAVSoldierGameObj@@PBV2@@Z ; SList<SoldierGameObj>::Insert_Before
PUBLIC	?Insert_After@?$SList@VSoldierGameObj@@@@UAE_NPAVSoldierGameObj@@PBV2@@Z ; SList<SoldierGameObj>::Insert_After
PUBLIC	?Is_Empty@?$SList@VSoldierGameObj@@@@UBE_NXZ	; SList<SoldierGameObj>::Is_Empty
PUBLIC	?Get_Count@?$SList@VSoldierGameObj@@@@UBEIXZ	; SList<SoldierGameObj>::Get_Count
PUBLIC	??_G?$SList@VSoldierGameObj@@@@UAEPAXI@Z	; SList<SoldierGameObj>::`scalar deleting destructor'
PUBLIC	??0?$SList@VVehicleGameObj@@@@QAE@XZ		; SList<VehicleGameObj>::SList<VehicleGameObj>
PUBLIC	??1?$SList@VVehicleGameObj@@@@UAE@XZ		; SList<VehicleGameObj>::~SList<VehicleGameObj>
PUBLIC	?Add_Head@?$SList@VVehicleGameObj@@@@UAE_NPAVVehicleGameObj@@@Z ; SList<VehicleGameObj>::Add_Head
PUBLIC	?Add_Head@?$SList@VVehicleGameObj@@@@UAE_NAAV1@@Z ; SList<VehicleGameObj>::Add_Head
PUBLIC	?Add_Tail@?$SList@VVehicleGameObj@@@@UAE_NPAVVehicleGameObj@@@Z ; SList<VehicleGameObj>::Add_Tail
PUBLIC	?Add_Tail@?$SList@VVehicleGameObj@@@@UAE_NAAV1@@Z ; SList<VehicleGameObj>::Add_Tail
PUBLIC	?Remove_Head@?$SList@VVehicleGameObj@@@@UAEPAVVehicleGameObj@@XZ ; SList<VehicleGameObj>::Remove_Head
PUBLIC	?Remove_Tail@?$SList@VVehicleGameObj@@@@UAEPAVVehicleGameObj@@XZ ; SList<VehicleGameObj>::Remove_Tail
PUBLIC	?Remove@?$SList@VVehicleGameObj@@@@UAE_NPBVVehicleGameObj@@@Z ; SList<VehicleGameObj>::Remove
PUBLIC	?Remove_All@?$SList@VVehicleGameObj@@@@UAEXXZ	; SList<VehicleGameObj>::Remove_All
PUBLIC	?Insert_Before@?$SList@VVehicleGameObj@@@@UAE_NPAVVehicleGameObj@@PBV2@@Z ; SList<VehicleGameObj>::Insert_Before
PUBLIC	?Insert_After@?$SList@VVehicleGameObj@@@@UAE_NPAVVehicleGameObj@@PBV2@@Z ; SList<VehicleGameObj>::Insert_After
PUBLIC	?Is_Empty@?$SList@VVehicleGameObj@@@@UBE_NXZ	; SList<VehicleGameObj>::Is_Empty
PUBLIC	?Get_Count@?$SList@VVehicleGameObj@@@@UBEIXZ	; SList<VehicleGameObj>::Get_Count
PUBLIC	??_G?$SList@VVehicleGameObj@@@@UAEPAXI@Z	; SList<VehicleGameObj>::`scalar deleting destructor'
PUBLIC	??0?$SList@VScriptZoneGameObj@@@@QAE@XZ		; SList<ScriptZoneGameObj>::SList<ScriptZoneGameObj>
PUBLIC	??1?$SList@VScriptZoneGameObj@@@@UAE@XZ		; SList<ScriptZoneGameObj>::~SList<ScriptZoneGameObj>
PUBLIC	?Add_Head@?$SList@VScriptZoneGameObj@@@@UAE_NPAVScriptZoneGameObj@@@Z ; SList<ScriptZoneGameObj>::Add_Head
PUBLIC	?Add_Head@?$SList@VScriptZoneGameObj@@@@UAE_NAAV1@@Z ; SList<ScriptZoneGameObj>::Add_Head
PUBLIC	?Add_Tail@?$SList@VScriptZoneGameObj@@@@UAE_NPAVScriptZoneGameObj@@@Z ; SList<ScriptZoneGameObj>::Add_Tail
PUBLIC	?Add_Tail@?$SList@VScriptZoneGameObj@@@@UAE_NAAV1@@Z ; SList<ScriptZoneGameObj>::Add_Tail
PUBLIC	?Remove_Head@?$SList@VScriptZoneGameObj@@@@UAEPAVScriptZoneGameObj@@XZ ; SList<ScriptZoneGameObj>::Remove_Head
PUBLIC	?Remove_Tail@?$SList@VScriptZoneGameObj@@@@UAEPAVScriptZoneGameObj@@XZ ; SList<ScriptZoneGameObj>::Remove_Tail
PUBLIC	?Remove@?$SList@VScriptZoneGameObj@@@@UAE_NPBVScriptZoneGameObj@@@Z ; SList<ScriptZoneGameObj>::Remove
PUBLIC	?Remove_All@?$SList@VScriptZoneGameObj@@@@UAEXXZ ; SList<ScriptZoneGameObj>::Remove_All
PUBLIC	?Insert_Before@?$SList@VScriptZoneGameObj@@@@UAE_NPAVScriptZoneGameObj@@PBV2@@Z ; SList<ScriptZoneGameObj>::Insert_Before
PUBLIC	?Insert_After@?$SList@VScriptZoneGameObj@@@@UAE_NPAVScriptZoneGameObj@@PBV2@@Z ; SList<ScriptZoneGameObj>::Insert_After
PUBLIC	?Is_Empty@?$SList@VScriptZoneGameObj@@@@UBE_NXZ	; SList<ScriptZoneGameObj>::Is_Empty
PUBLIC	?Get_Count@?$SList@VScriptZoneGameObj@@@@UBEIXZ	; SList<ScriptZoneGameObj>::Get_Count
PUBLIC	??_G?$SList@VScriptZoneGameObj@@@@UAEPAXI@Z	; SList<ScriptZoneGameObj>::`scalar deleting destructor'
PUBLIC	?Set_Next@?$SLNode@VC4GameObj@@@@QAEXPAV1@@Z	; SLNode<C4GameObj>::Set_Next
PUBLIC	?Next@?$SLNode@VC4GameObj@@@@QBEPAV1@XZ		; SLNode<C4GameObj>::Next
PUBLIC	?Data@?$SLNode@VC4GameObj@@@@QBEPAVC4GameObj@@XZ ; SLNode<C4GameObj>::Data
PUBLIC	??0?$SLNode@VC4GameObj@@@@IAE@PAVC4GameObj@@@Z	; SLNode<C4GameObj>::SLNode<C4GameObj>
PUBLIC	?Set_Next@?$SLNode@VBeaconGameObj@@@@QAEXPAV1@@Z ; SLNode<BeaconGameObj>::Set_Next
PUBLIC	?Next@?$SLNode@VBeaconGameObj@@@@QBEPAV1@XZ	; SLNode<BeaconGameObj>::Next
PUBLIC	?Data@?$SLNode@VBeaconGameObj@@@@QBEPAVBeaconGameObj@@XZ ; SLNode<BeaconGameObj>::Data
PUBLIC	??0?$SLNode@VBeaconGameObj@@@@IAE@PAVBeaconGameObj@@@Z ; SLNode<BeaconGameObj>::SLNode<BeaconGameObj>
PUBLIC	?Set_Next@?$SLNode@VSoldierGameObj@@@@QAEXPAV1@@Z ; SLNode<SoldierGameObj>::Set_Next
PUBLIC	?Next@?$SLNode@VSoldierGameObj@@@@QBEPAV1@XZ	; SLNode<SoldierGameObj>::Next
PUBLIC	?Data@?$SLNode@VSoldierGameObj@@@@QBEPAVSoldierGameObj@@XZ ; SLNode<SoldierGameObj>::Data
PUBLIC	??0?$SLNode@VSoldierGameObj@@@@IAE@PAVSoldierGameObj@@@Z ; SLNode<SoldierGameObj>::SLNode<SoldierGameObj>
PUBLIC	?Set_Next@?$SLNode@VVehicleGameObj@@@@QAEXPAV1@@Z ; SLNode<VehicleGameObj>::Set_Next
PUBLIC	?Next@?$SLNode@VVehicleGameObj@@@@QBEPAV1@XZ	; SLNode<VehicleGameObj>::Next
PUBLIC	?Data@?$SLNode@VVehicleGameObj@@@@QBEPAVVehicleGameObj@@XZ ; SLNode<VehicleGameObj>::Data
PUBLIC	??0?$SLNode@VVehicleGameObj@@@@IAE@PAVVehicleGameObj@@@Z ; SLNode<VehicleGameObj>::SLNode<VehicleGameObj>
PUBLIC	?Set_Next@?$SLNode@VScriptZoneGameObj@@@@QAEXPAV1@@Z ; SLNode<ScriptZoneGameObj>::Set_Next
PUBLIC	?Next@?$SLNode@VScriptZoneGameObj@@@@QBEPAV1@XZ	; SLNode<ScriptZoneGameObj>::Next
PUBLIC	?Data@?$SLNode@VScriptZoneGameObj@@@@QBEPAVScriptZoneGameObj@@XZ ; SLNode<ScriptZoneGameObj>::Data
PUBLIC	??0?$SLNode@VScriptZoneGameObj@@@@IAE@PAVScriptZoneGameObj@@@Z ; SLNode<ScriptZoneGameObj>::SLNode<ScriptZoneGameObj>
PUBLIC	?getInstance@?$Singleton@V?$ObjectPoolClass@VGenericSLNode@@$0BAA@@@@@SAAAV?$ObjectPoolClass@VGenericSLNode@@$0BAA@@@XZ ; Singleton<ObjectPoolClass<GenericSLNode,256> >::getInstance
PUBLIC	??0?$ObjectPoolClass@VGenericSLNode@@$0BAA@@@QAE@XZ ; ObjectPoolClass<GenericSLNode,256>::ObjectPoolClass<GenericSLNode,256>
PUBLIC	??1?$ObjectPoolClass@VGenericSLNode@@$0BAA@@@QAE@XZ ; ObjectPoolClass<GenericSLNode,256>::~ObjectPoolClass<GenericSLNode,256>
PUBLIC	?Allocate_Object_Memory@?$ObjectPoolClass@VGenericSLNode@@$0BAA@@@QAEPAVGenericSLNode@@XZ ; ObjectPoolClass<GenericSLNode,256>::Allocate_Object_Memory
PUBLIC	?Free_Object_Memory@?$ObjectPoolClass@VGenericSLNode@@$0BAA@@@QAEXAAVGenericSLNode@@@Z ; ObjectPoolClass<GenericSLNode,256>::Free_Object_Memory
PUBLIC	?writeDummyPattern@?$ObjectPoolClass@VGenericSLNode@@$0BAA@@@QAEXAAVGenericSLNode@@K@Z ; ObjectPoolClass<GenericSLNode,256>::writeDummyPattern
PUBLIC	??__Finstancex@?1??getInstance@?$Singleton@V?$ObjectPoolClass@VGenericSLNode@@$0BAA@@@@@SAAAV?$ObjectPoolClass@VGenericSLNode@@$0BAA@@@XZ@YAXXZ ; `Singleton<ObjectPoolClass<GenericSLNode,256> >::getInstance'::`2'::`dynamic atexit destructor for 'instancex''
PUBLIC	??_C@_0DJ@NKJHEMPA@x?3?2github?2renegade?2dragonade_rxd@ ; `string'
PUBLIC	??_C@_1HC@JEIHKHFK@?$AAx?$AA?3?$AA?2?$AAg?$AAi?$AAt?$AAh?$AAu?$AAb?$AA?2?$AAr?$AAe?$AAn?$AAe?$AAg?$AAa?$AAd?$AAe?$AA?2?$AAd?$AAr?$AAa?$AAg?$AAo?$AAn?$AAa?$AAd?$AAe?$AA_?$AAr?$AAx?$AAd@ ; `string'
PUBLIC	??_C@_1M@HLGKFCJM@?$AAf?$AAa?$AAl?$AAs?$AAe?$AA?$AA@ ; `string'
PUBLIC	??_7?$SList@VC4GameObj@@@@6B@			; SList<C4GameObj>::`vftable'
PUBLIC	?C4GameObjList@GameObjManager@@2V?$SList@VC4GameObj@@@@A ; GameObjManager::C4GameObjList
PUBLIC	??_7?$SList@VBeaconGameObj@@@@6B@		; SList<BeaconGameObj>::`vftable'
PUBLIC	?BeaconGameObjList@GameObjManager@@2V?$SList@VBeaconGameObj@@@@A ; GameObjManager::BeaconGameObjList
PUBLIC	??_7?$SList@VSoldierGameObj@@@@6B@		; SList<SoldierGameObj>::`vftable'
PUBLIC	?SoldierGameObjList@GameObjManager@@2V?$SList@VSoldierGameObj@@@@A ; GameObjManager::SoldierGameObjList
PUBLIC	??_7?$SList@VVehicleGameObj@@@@6B@		; SList<VehicleGameObj>::`vftable'
PUBLIC	?VehicleGameObjList@GameObjManager@@2V?$SList@VVehicleGameObj@@@@A ; GameObjManager::VehicleGameObjList
PUBLIC	??_7?$SList@VScriptZoneGameObj@@@@6B@		; SList<ScriptZoneGameObj>::`vftable'
PUBLIC	?ScriptZoneGameObjList@GameObjManager@@2V?$SList@VScriptZoneGameObj@@@@A ; GameObjManager::ScriptZoneGameObjList
PUBLIC	??_C@_0CB@EAJDPEKC@SList?$DMclass?5C4GameObj?$DO?3?3Add_Head@ ; `string'
PUBLIC	??_C@_0DB@DFBFLIIO@x?3?2github?2renegade?2dragonade_rxd@ ; `string'
PUBLIC	??_C@_1GC@LJHGOLFN@?$AAx?$AA?3?$AA?2?$AAg?$AAi?$AAt?$AAh?$AAu?$AAb?$AA?2?$AAr?$AAe?$AAn?$AAe?$AAg?$AAa?$AAd?$AAe?$AA?2?$AAd?$AAr?$AAa?$AAg?$AAo?$AAn?$AAa?$AAd?$AAe?$AA_?$AAr?$AAx?$AAd@ ; `string'
PUBLIC	??_C@_0CB@KMCLMCMG@SList?$DMclass?5C4GameObj?$DO?3?3Add_Tail@ ; `string'
PUBLIC	??_C@_0CE@EFHMIJMP@SList?$DMclass?5C4GameObj?$DO?3?3Remove_H@ ; `string'
PUBLIC	??_C@_0BP@OCMFOCDH@SList?$DMclass?5C4GameObj?$DO?3?3Remove?$AA@ ; `string'
PUBLIC	??_C@_0CD@COHNBFCE@SList?$DMclass?5C4GameObj?$DO?3?3Remove_A@ ; `string'
PUBLIC	??_C@_0CG@CNDNLKPG@SList?$DMclass?5C4GameObj?$DO?3?3Insert_B@ ; `string'
PUBLIC	??_C@_0CF@DEDOPMJE@SList?$DMclass?5C4GameObj?$DO?3?3Insert_A@ ; `string'
PUBLIC	??_C@_0CF@IMPPCLNI@SList?$DMclass?5BeaconGameObj?$DO?3?3Add_@ ; `string'
PUBLIC	??_C@_0CF@GAEHBNLM@SList?$DMclass?5BeaconGameObj?$DO?3?3Add_@ ; `string'
PUBLIC	??_C@_0CI@FOLOJACG@SList?$DMclass?5BeaconGameObj?$DO?3?3Remo@ ; `string'
PUBLIC	??_C@_0CD@PKKEIDKI@SList?$DMclass?5BeaconGameObj?$DO?3?3Remo@ ; `string'
PUBLIC	??_C@_0CH@ONMBIHHB@SList?$DMclass?5BeaconGameObj?$DO?3?3Remo@ ; `string'
PUBLIC	??_C@_0CK@MGOKEBFB@SList?$DMclass?5BeaconGameObj?$DO?3?3Inse@ ; `string'
PUBLIC	??_C@_0CJ@ONPDGEFB@SList?$DMclass?5BeaconGameObj?$DO?3?3Inse@ ; `string'
PUBLIC	??_C@_0CG@CEBHJMNI@SList?$DMclass?5SoldierGameObj?$DO?3?3Add@ ; `string'
PUBLIC	??_C@_0CG@MIKPKKLM@SList?$DMclass?5SoldierGameObj?$DO?3?3Add@ ; `string'
PUBLIC	??_C@_0CJ@FLOLMCLL@SList?$DMclass?5SoldierGameObj?$DO?3?3Rem@ ; `string'
PUBLIC	??_C@_0CE@PHGPNBHE@SList?$DMclass?5SoldierGameObj?$DO?3?3Rem@ ; `string'
PUBLIC	??_C@_0CI@LIMEAJLG@SList?$DMclass?5SoldierGameObj?$DO?3?3Rem@ ; `string'
PUBLIC	??_C@_0CL@IHGAIAIL@SList?$DMclass?5SoldierGameObj?$DO?3?3Ins@ ; `string'
PUBLIC	??_C@_0CK@GDEINOPK@SList?$DMclass?5SoldierGameObj?$DO?3?3Ins@ ; `string'
PUBLIC	??_C@_0CG@ILNKOHJL@SList?$DMclass?5VehicleGameObj?$DO?3?3Add@ ; `string'
PUBLIC	??_C@_0CG@GHGCNBPP@SList?$DMclass?5VehicleGameObj?$DO?3?3Add@ ; `string'
PUBLIC	??_C@_0CJ@CJOPLN@SList?$DMclass?5VehicleGameObj?$DO?3?3Rem@ ; `string'
PUBLIC	??_C@_0CE@EAMIMMAP@SList?$DMclass?5VehicleGameObj?$DO?3?3Rem@ ; `string'
PUBLIC	??_C@_0CI@KEEHBCAJ@SList?$DMclass?5VehicleGameObj?$DO?3?3Rem@ ; `string'
PUBLIC	??_C@_0CL@JEOFCALK@SList?$DMclass?5VehicleGameObj?$DO?3?3Ins@ ; `string'
PUBLIC	??_C@_0CK@IKHALJOC@SList?$DMclass?5VehicleGameObj?$DO?3?3Ins@ ; `string'
PUBLIC	??_C@_0CJ@JGELODEC@SList?$DMclass?5ScriptZoneGameObj?$DO?3?3@ ; `string'
PUBLIC	??_C@_0CJ@HKPDNFCG@SList?$DMclass?5ScriptZoneGameObj?$DO?3?3@ ; `string'
PUBLIC	??_C@_0CM@GBBFIHMJ@SList?$DMclass?5ScriptZoneGameObj?$DO?3?3@ ; `string'
PUBLIC	??_C@_0CH@INEFHADP@SList?$DMclass?5ScriptZoneGameObj?$DO?3?3@ ; `string'
PUBLIC	??_C@_0CL@PDNALFNH@SList?$DMclass?5ScriptZoneGameObj?$DO?3?3@ ; `string'
PUBLIC	??_C@_0CO@JMNPBEBO@SList?$DMclass?5ScriptZoneGameObj?$DO?3?3@ ; `string'
PUBLIC	??_C@_0CN@NNHJDAKP@SList?$DMclass?5ScriptZoneGameObj?$DO?3?3@ ; `string'
PUBLIC	?instancex@?1??getInstance@?$Singleton@V?$ObjectPoolClass@VGenericSLNode@@$0BAA@@@@@SAAAV?$ObjectPoolClass@VGenericSLNode@@$0BAA@@@XZ@4V3@A ; `Singleton<ObjectPoolClass<GenericSLNode,256> >::getInstance'::`2'::instancex
PUBLIC	??_B?1??getInstance@?$Singleton@V?$ObjectPoolClass@VGenericSLNode@@$0BAA@@@@@SAAAV?$ObjectPoolClass@VGenericSLNode@@$0BAA@@@XZ@51 ; `Singleton<ObjectPoolClass<GenericSLNode,256> >::getInstance'::`2'::`local static guard'
PUBLIC	??_C@_0EB@IOGKEECK@ObjectPoolClass?$DMclass?5GenericSLN@ ; `string'
PUBLIC	??_C@_0FF@NOANHENP@?$CFd?5memory?5leaks?5found?5in?5ObjectP@ ; `string'
PUBLIC	??_C@_0DL@BOENBDGI@ObjectPoolClass?$DMclass?5GenericSLN@ ; `string'
PUBLIC	??_R4?$SList@VSoldierGameObj@@@@6B@		; SList<SoldierGameObj>::`RTTI Complete Object Locator'
PUBLIC	??_R0?AV?$SList@VSoldierGameObj@@@@@8		; SList<SoldierGameObj> `RTTI Type Descriptor'
PUBLIC	??_R3?$SList@VSoldierGameObj@@@@8		; SList<SoldierGameObj>::`RTTI Class Hierarchy Descriptor'
PUBLIC	??_R2?$SList@VSoldierGameObj@@@@8		; SList<SoldierGameObj>::`RTTI Base Class Array'
PUBLIC	??_R1A@?0A@EA@?$SList@VSoldierGameObj@@@@8	; SList<SoldierGameObj>::`RTTI Base Class Descriptor at (0,-1,0,64)'
PUBLIC	??_R4?$SList@VC4GameObj@@@@6B@			; SList<C4GameObj>::`RTTI Complete Object Locator'
PUBLIC	??_R0?AV?$SList@VC4GameObj@@@@@8		; SList<C4GameObj> `RTTI Type Descriptor'
PUBLIC	??_R3?$SList@VC4GameObj@@@@8			; SList<C4GameObj>::`RTTI Class Hierarchy Descriptor'
PUBLIC	??_R2?$SList@VC4GameObj@@@@8			; SList<C4GameObj>::`RTTI Base Class Array'
PUBLIC	??_R1A@?0A@EA@?$SList@VC4GameObj@@@@8		; SList<C4GameObj>::`RTTI Base Class Descriptor at (0,-1,0,64)'
PUBLIC	??_R4?$SList@VBeaconGameObj@@@@6B@		; SList<BeaconGameObj>::`RTTI Complete Object Locator'
PUBLIC	??_R0?AV?$SList@VBeaconGameObj@@@@@8		; SList<BeaconGameObj> `RTTI Type Descriptor'
PUBLIC	??_R3?$SList@VBeaconGameObj@@@@8		; SList<BeaconGameObj>::`RTTI Class Hierarchy Descriptor'
PUBLIC	??_R2?$SList@VBeaconGameObj@@@@8		; SList<BeaconGameObj>::`RTTI Base Class Array'
PUBLIC	??_R1A@?0A@EA@?$SList@VBeaconGameObj@@@@8	; SList<BeaconGameObj>::`RTTI Base Class Descriptor at (0,-1,0,64)'
PUBLIC	??_R4?$SList@VVehicleGameObj@@@@6B@		; SList<VehicleGameObj>::`RTTI Complete Object Locator'
PUBLIC	??_R0?AV?$SList@VVehicleGameObj@@@@@8		; SList<VehicleGameObj> `RTTI Type Descriptor'
PUBLIC	??_R3?$SList@VVehicleGameObj@@@@8		; SList<VehicleGameObj>::`RTTI Class Hierarchy Descriptor'
PUBLIC	??_R2?$SList@VVehicleGameObj@@@@8		; SList<VehicleGameObj>::`RTTI Base Class Array'
PUBLIC	??_R1A@?0A@EA@?$SList@VVehicleGameObj@@@@8	; SList<VehicleGameObj>::`RTTI Base Class Descriptor at (0,-1,0,64)'
PUBLIC	??_R4?$SList@VScriptZoneGameObj@@@@6B@		; SList<ScriptZoneGameObj>::`RTTI Complete Object Locator'
PUBLIC	??_R0?AV?$SList@VScriptZoneGameObj@@@@@8	; SList<ScriptZoneGameObj> `RTTI Type Descriptor'
PUBLIC	??_R3?$SList@VScriptZoneGameObj@@@@8		; SList<ScriptZoneGameObj>::`RTTI Class Hierarchy Descriptor'
PUBLIC	??_R2?$SList@VScriptZoneGameObj@@@@8		; SList<ScriptZoneGameObj>::`RTTI Base Class Array'
PUBLIC	??_R1A@?0A@EA@?$SList@VScriptZoneGameObj@@@@8	; SList<ScriptZoneGameObj>::`RTTI Base Class Descriptor at (0,-1,0,64)'
EXTRN	??3@YAXPAX@Z:PROC				; operator delete
EXTRN	_atexit:PROC
EXTRN	__imp___wassert:PROC
EXTRN	??_V@YAXPAX@Z:PROC				; operator delete[]
EXTRN	??_U@YAPAXI@Z:PROC				; operator new[]
EXTRN	__imp__sprintf:PROC
EXTRN	__imp__OutputDebugStringA@4:PROC
EXTRN	?SetThreadTrackingInformation@@YAXPBDI0@Z:PROC	; SetThreadTrackingInformation
EXTRN	??_E?$SList@VC4GameObj@@@@UAEPAXI@Z:PROC	; SList<C4GameObj>::`vector deleting destructor'
EXTRN	??_E?$SList@VBeaconGameObj@@@@UAEPAXI@Z:PROC	; SList<BeaconGameObj>::`vector deleting destructor'
EXTRN	??_E?$SList@VSoldierGameObj@@@@UAEPAXI@Z:PROC	; SList<SoldierGameObj>::`vector deleting destructor'
EXTRN	??_E?$SList@VVehicleGameObj@@@@UAEPAXI@Z:PROC	; SList<VehicleGameObj>::`vector deleting destructor'
EXTRN	??_E?$SList@VScriptZoneGameObj@@@@UAEPAXI@Z:PROC ; SList<ScriptZoneGameObj>::`vector deleting destructor'
EXTRN	??_7type_info@@6B@:QWORD			; type_info::`vftable'
_BSS	SEGMENT
?C4GameObjList@GameObjManager@@2V?$SList@VC4GameObj@@@@A DB 0cH DUP (?) ; GameObjManager::C4GameObjList
?BeaconGameObjList@GameObjManager@@2V?$SList@VBeaconGameObj@@@@A DB 0cH DUP (?) ; GameObjManager::BeaconGameObjList
?SoldierGameObjList@GameObjManager@@2V?$SList@VSoldierGameObj@@@@A DB 0cH DUP (?) ; GameObjManager::SoldierGameObjList
?VehicleGameObjList@GameObjManager@@2V?$SList@VVehicleGameObj@@@@A DB 0cH DUP (?) ; GameObjManager::VehicleGameObjList
?ScriptZoneGameObjList@GameObjManager@@2V?$SList@VScriptZoneGameObj@@@@A DB 0cH DUP (?) ; GameObjManager::ScriptZoneGameObjList
_BSS	ENDS
;	COMDAT ?instancex@?1??getInstance@?$Singleton@V?$ObjectPoolClass@VGenericSLNode@@$0BAA@@@@@SAAAV?$ObjectPoolClass@VGenericSLNode@@$0BAA@@@XZ@4V3@A
_BSS	SEGMENT
?instancex@?1??getInstance@?$Singleton@V?$ObjectPoolClass@VGenericSLNode@@$0BAA@@@@@SAAAV?$ObjectPoolClass@VGenericSLNode@@$0BAA@@@XZ@4V3@A DB 014H DUP (?) ; `Singleton<ObjectPoolClass<GenericSLNode,256> >::getInstance'::`2'::instancex
_BSS	ENDS
;	COMDAT ??_B?1??getInstance@?$Singleton@V?$ObjectPoolClass@VGenericSLNode@@$0BAA@@@@@SAAAV?$ObjectPoolClass@VGenericSLNode@@$0BAA@@@XZ@51
_BSS	SEGMENT
??_B?1??getInstance@?$Singleton@V?$ObjectPoolClass@VGenericSLNode@@$0BAA@@@@@SAAAV?$ObjectPoolClass@VGenericSLNode@@$0BAA@@@XZ@51 DD 01H DUP (?) ; `Singleton<ObjectPoolClass<GenericSLNode,256> >::getInstance'::`2'::`local static guard'
_BSS	ENDS
CRT$XCU	SEGMENT
?C4GameObjList$initializer$@GameObjManager@@2P6AXXZA DD FLAT:??__E?C4GameObjList@GameObjManager@@2V?$SList@VC4GameObj@@@@A@@YAXXZ ; GameObjManager::C4GameObjList$initializer$
CRT$XCU	ENDS
;	COMDAT ??_R1A@?0A@EA@?$SList@VScriptZoneGameObj@@@@8
rdata$r	SEGMENT
??_R1A@?0A@EA@?$SList@VScriptZoneGameObj@@@@8 DD FLAT:??_R0?AV?$SList@VScriptZoneGameObj@@@@@8 ; SList<ScriptZoneGameObj>::`RTTI Base Class Descriptor at (0,-1,0,64)'
	DD	00H
	DD	00H
	DD	0ffffffffH
	DD	00H
	DD	040H
	DD	FLAT:??_R3?$SList@VScriptZoneGameObj@@@@8
rdata$r	ENDS
;	COMDAT ??_R2?$SList@VScriptZoneGameObj@@@@8
rdata$r	SEGMENT
??_R2?$SList@VScriptZoneGameObj@@@@8 DD FLAT:??_R1A@?0A@EA@?$SList@VScriptZoneGameObj@@@@8 ; SList<ScriptZoneGameObj>::`RTTI Base Class Array'
rdata$r	ENDS
;	COMDAT ??_R3?$SList@VScriptZoneGameObj@@@@8
rdata$r	SEGMENT
??_R3?$SList@VScriptZoneGameObj@@@@8 DD 00H		; SList<ScriptZoneGameObj>::`RTTI Class Hierarchy Descriptor'
	DD	00H
	DD	01H
	DD	FLAT:??_R2?$SList@VScriptZoneGameObj@@@@8
rdata$r	ENDS
;	COMDAT ??_R0?AV?$SList@VScriptZoneGameObj@@@@@8
_DATA	SEGMENT
??_R0?AV?$SList@VScriptZoneGameObj@@@@@8 DD FLAT:??_7type_info@@6B@ ; SList<ScriptZoneGameObj> `RTTI Type Descriptor'
	DD	00H
	DB	'.?AV?$SList@VScriptZoneGameObj@@@@', 00H
_DATA	ENDS
;	COMDAT ??_R4?$SList@VScriptZoneGameObj@@@@6B@
rdata$r	SEGMENT
??_R4?$SList@VScriptZoneGameObj@@@@6B@ DD 00H		; SList<ScriptZoneGameObj>::`RTTI Complete Object Locator'
	DD	00H
	DD	00H
	DD	FLAT:??_R0?AV?$SList@VScriptZoneGameObj@@@@@8
	DD	FLAT:??_R3?$SList@VScriptZoneGameObj@@@@8
rdata$r	ENDS
;	COMDAT ??_R1A@?0A@EA@?$SList@VVehicleGameObj@@@@8
rdata$r	SEGMENT
??_R1A@?0A@EA@?$SList@VVehicleGameObj@@@@8 DD FLAT:??_R0?AV?$SList@VVehicleGameObj@@@@@8 ; SList<VehicleGameObj>::`RTTI Base Class Descriptor at (0,-1,0,64)'
	DD	00H
	DD	00H
	DD	0ffffffffH
	DD	00H
	DD	040H
	DD	FLAT:??_R3?$SList@VVehicleGameObj@@@@8
rdata$r	ENDS
;	COMDAT ??_R2?$SList@VVehicleGameObj@@@@8
rdata$r	SEGMENT
??_R2?$SList@VVehicleGameObj@@@@8 DD FLAT:??_R1A@?0A@EA@?$SList@VVehicleGameObj@@@@8 ; SList<VehicleGameObj>::`RTTI Base Class Array'
rdata$r	ENDS
;	COMDAT ??_R3?$SList@VVehicleGameObj@@@@8
rdata$r	SEGMENT
??_R3?$SList@VVehicleGameObj@@@@8 DD 00H		; SList<VehicleGameObj>::`RTTI Class Hierarchy Descriptor'
	DD	00H
	DD	01H
	DD	FLAT:??_R2?$SList@VVehicleGameObj@@@@8
rdata$r	ENDS
;	COMDAT ??_R0?AV?$SList@VVehicleGameObj@@@@@8
_DATA	SEGMENT
??_R0?AV?$SList@VVehicleGameObj@@@@@8 DD FLAT:??_7type_info@@6B@ ; SList<VehicleGameObj> `RTTI Type Descriptor'
	DD	00H
	DB	'.?AV?$SList@VVehicleGameObj@@@@', 00H
_DATA	ENDS
;	COMDAT ??_R4?$SList@VVehicleGameObj@@@@6B@
rdata$r	SEGMENT
??_R4?$SList@VVehicleGameObj@@@@6B@ DD 00H		; SList<VehicleGameObj>::`RTTI Complete Object Locator'
	DD	00H
	DD	00H
	DD	FLAT:??_R0?AV?$SList@VVehicleGameObj@@@@@8
	DD	FLAT:??_R3?$SList@VVehicleGameObj@@@@8
rdata$r	ENDS
;	COMDAT ??_R1A@?0A@EA@?$SList@VBeaconGameObj@@@@8
rdata$r	SEGMENT
??_R1A@?0A@EA@?$SList@VBeaconGameObj@@@@8 DD FLAT:??_R0?AV?$SList@VBeaconGameObj@@@@@8 ; SList<BeaconGameObj>::`RTTI Base Class Descriptor at (0,-1,0,64)'
	DD	00H
	DD	00H
	DD	0ffffffffH
	DD	00H
	DD	040H
	DD	FLAT:??_R3?$SList@VBeaconGameObj@@@@8
rdata$r	ENDS
;	COMDAT ??_R2?$SList@VBeaconGameObj@@@@8
rdata$r	SEGMENT
??_R2?$SList@VBeaconGameObj@@@@8 DD FLAT:??_R1A@?0A@EA@?$SList@VBeaconGameObj@@@@8 ; SList<BeaconGameObj>::`RTTI Base Class Array'
rdata$r	ENDS
;	COMDAT ??_R3?$SList@VBeaconGameObj@@@@8
rdata$r	SEGMENT
??_R3?$SList@VBeaconGameObj@@@@8 DD 00H			; SList<BeaconGameObj>::`RTTI Class Hierarchy Descriptor'
	DD	00H
	DD	01H
	DD	FLAT:??_R2?$SList@VBeaconGameObj@@@@8
rdata$r	ENDS
;	COMDAT ??_R0?AV?$SList@VBeaconGameObj@@@@@8
_DATA	SEGMENT
??_R0?AV?$SList@VBeaconGameObj@@@@@8 DD FLAT:??_7type_info@@6B@ ; SList<BeaconGameObj> `RTTI Type Descriptor'
	DD	00H
	DB	'.?AV?$SList@VBeaconGameObj@@@@', 00H
_DATA	ENDS
;	COMDAT ??_R4?$SList@VBeaconGameObj@@@@6B@
rdata$r	SEGMENT
??_R4?$SList@VBeaconGameObj@@@@6B@ DD 00H		; SList<BeaconGameObj>::`RTTI Complete Object Locator'
	DD	00H
	DD	00H
	DD	FLAT:??_R0?AV?$SList@VBeaconGameObj@@@@@8
	DD	FLAT:??_R3?$SList@VBeaconGameObj@@@@8
rdata$r	ENDS
;	COMDAT ??_R1A@?0A@EA@?$SList@VC4GameObj@@@@8
rdata$r	SEGMENT
??_R1A@?0A@EA@?$SList@VC4GameObj@@@@8 DD FLAT:??_R0?AV?$SList@VC4GameObj@@@@@8 ; SList<C4GameObj>::`RTTI Base Class Descriptor at (0,-1,0,64)'
	DD	00H
	DD	00H
	DD	0ffffffffH
	DD	00H
	DD	040H
	DD	FLAT:??_R3?$SList@VC4GameObj@@@@8
rdata$r	ENDS
;	COMDAT ??_R2?$SList@VC4GameObj@@@@8
rdata$r	SEGMENT
??_R2?$SList@VC4GameObj@@@@8 DD FLAT:??_R1A@?0A@EA@?$SList@VC4GameObj@@@@8 ; SList<C4GameObj>::`RTTI Base Class Array'
rdata$r	ENDS
;	COMDAT ??_R3?$SList@VC4GameObj@@@@8
rdata$r	SEGMENT
??_R3?$SList@VC4GameObj@@@@8 DD 00H			; SList<C4GameObj>::`RTTI Class Hierarchy Descriptor'
	DD	00H
	DD	01H
	DD	FLAT:??_R2?$SList@VC4GameObj@@@@8
rdata$r	ENDS
;	COMDAT ??_R0?AV?$SList@VC4GameObj@@@@@8
_DATA	SEGMENT
??_R0?AV?$SList@VC4GameObj@@@@@8 DD FLAT:??_7type_info@@6B@ ; SList<C4GameObj> `RTTI Type Descriptor'
	DD	00H
	DB	'.?AV?$SList@VC4GameObj@@@@', 00H
_DATA	ENDS
;	COMDAT ??_R4?$SList@VC4GameObj@@@@6B@
rdata$r	SEGMENT
??_R4?$SList@VC4GameObj@@@@6B@ DD 00H			; SList<C4GameObj>::`RTTI Complete Object Locator'
	DD	00H
	DD	00H
	DD	FLAT:??_R0?AV?$SList@VC4GameObj@@@@@8
	DD	FLAT:??_R3?$SList@VC4GameObj@@@@8
rdata$r	ENDS
;	COMDAT ??_R1A@?0A@EA@?$SList@VSoldierGameObj@@@@8
rdata$r	SEGMENT
??_R1A@?0A@EA@?$SList@VSoldierGameObj@@@@8 DD FLAT:??_R0?AV?$SList@VSoldierGameObj@@@@@8 ; SList<SoldierGameObj>::`RTTI Base Class Descriptor at (0,-1,0,64)'
	DD	00H
	DD	00H
	DD	0ffffffffH
	DD	00H
	DD	040H
	DD	FLAT:??_R3?$SList@VSoldierGameObj@@@@8
rdata$r	ENDS
;	COMDAT ??_R2?$SList@VSoldierGameObj@@@@8
rdata$r	SEGMENT
??_R2?$SList@VSoldierGameObj@@@@8 DD FLAT:??_R1A@?0A@EA@?$SList@VSoldierGameObj@@@@8 ; SList<SoldierGameObj>::`RTTI Base Class Array'
rdata$r	ENDS
;	COMDAT ??_R3?$SList@VSoldierGameObj@@@@8
rdata$r	SEGMENT
??_R3?$SList@VSoldierGameObj@@@@8 DD 00H		; SList<SoldierGameObj>::`RTTI Class Hierarchy Descriptor'
	DD	00H
	DD	01H
	DD	FLAT:??_R2?$SList@VSoldierGameObj@@@@8
rdata$r	ENDS
;	COMDAT ??_R0?AV?$SList@VSoldierGameObj@@@@@8
_DATA	SEGMENT
??_R0?AV?$SList@VSoldierGameObj@@@@@8 DD FLAT:??_7type_info@@6B@ ; SList<SoldierGameObj> `RTTI Type Descriptor'
	DD	00H
	DB	'.?AV?$SList@VSoldierGameObj@@@@', 00H
_DATA	ENDS
;	COMDAT ??_R4?$SList@VSoldierGameObj@@@@6B@
rdata$r	SEGMENT
??_R4?$SList@VSoldierGameObj@@@@6B@ DD 00H		; SList<SoldierGameObj>::`RTTI Complete Object Locator'
	DD	00H
	DD	00H
	DD	FLAT:??_R0?AV?$SList@VSoldierGameObj@@@@@8
	DD	FLAT:??_R3?$SList@VSoldierGameObj@@@@8
rdata$r	ENDS
;	COMDAT ??_C@_0DL@BOENBDGI@ObjectPoolClass?$DMclass?5GenericSLN@
CONST	SEGMENT
??_C@_0DL@BOENBDGI@ObjectPoolClass?$DMclass?5GenericSLN@ DB 'ObjectPoolCl'
	DB	'ass<class GenericSLNode,256>::~ObjectPoolClass', 00H ; `string'
CONST	ENDS
;	COMDAT ??_C@_0FF@NOANHENP@?$CFd?5memory?5leaks?5found?5in?5ObjectP@
CONST	SEGMENT
??_C@_0FF@NOANHENP@?$CFd?5memory?5leaks?5found?5in?5ObjectP@ DB '%d memor'
	DB	'y leaks found in ObjectPoolClass<class GenericSLNode,256>::~O'
	DB	'bjectPoolClass', 0aH, 00H			; `string'
CONST	ENDS
;	COMDAT ??_C@_0EB@IOGKEECK@ObjectPoolClass?$DMclass?5GenericSLN@
CONST	SEGMENT
??_C@_0EB@IOGKEECK@ObjectPoolClass?$DMclass?5GenericSLN@ DB 'ObjectPoolCl'
	DB	'ass<class GenericSLNode,256>::Allocate_Object_Memory', 00H ; `string'
CONST	ENDS
;	COMDAT ??_C@_0CN@NNHJDAKP@SList?$DMclass?5ScriptZoneGameObj?$DO?3?3@
CONST	SEGMENT
??_C@_0CN@NNHJDAKP@SList?$DMclass?5ScriptZoneGameObj?$DO?3?3@ DB 'SList<c'
	DB	'lass ScriptZoneGameObj>::Insert_After', 00H	; `string'
CONST	ENDS
;	COMDAT ??_C@_0CO@JMNPBEBO@SList?$DMclass?5ScriptZoneGameObj?$DO?3?3@
CONST	SEGMENT
??_C@_0CO@JMNPBEBO@SList?$DMclass?5ScriptZoneGameObj?$DO?3?3@ DB 'SList<c'
	DB	'lass ScriptZoneGameObj>::Insert_Before', 00H ; `string'
CONST	ENDS
;	COMDAT ??_C@_0CL@PDNALFNH@SList?$DMclass?5ScriptZoneGameObj?$DO?3?3@
CONST	SEGMENT
??_C@_0CL@PDNALFNH@SList?$DMclass?5ScriptZoneGameObj?$DO?3?3@ DB 'SList<c'
	DB	'lass ScriptZoneGameObj>::Remove_All', 00H	; `string'
CONST	ENDS
;	COMDAT ??_C@_0CH@INEFHADP@SList?$DMclass?5ScriptZoneGameObj?$DO?3?3@
CONST	SEGMENT
??_C@_0CH@INEFHADP@SList?$DMclass?5ScriptZoneGameObj?$DO?3?3@ DB 'SList<c'
	DB	'lass ScriptZoneGameObj>::Remove', 00H	; `string'
CONST	ENDS
;	COMDAT ??_C@_0CM@GBBFIHMJ@SList?$DMclass?5ScriptZoneGameObj?$DO?3?3@
CONST	SEGMENT
??_C@_0CM@GBBFIHMJ@SList?$DMclass?5ScriptZoneGameObj?$DO?3?3@ DB 'SList<c'
	DB	'lass ScriptZoneGameObj>::Remove_Head', 00H	; `string'
CONST	ENDS
;	COMDAT ??_C@_0CJ@HKPDNFCG@SList?$DMclass?5ScriptZoneGameObj?$DO?3?3@
CONST	SEGMENT
??_C@_0CJ@HKPDNFCG@SList?$DMclass?5ScriptZoneGameObj?$DO?3?3@ DB 'SList<c'
	DB	'lass ScriptZoneGameObj>::Add_Tail', 00H	; `string'
CONST	ENDS
;	COMDAT ??_C@_0CJ@JGELODEC@SList?$DMclass?5ScriptZoneGameObj?$DO?3?3@
CONST	SEGMENT
??_C@_0CJ@JGELODEC@SList?$DMclass?5ScriptZoneGameObj?$DO?3?3@ DB 'SList<c'
	DB	'lass ScriptZoneGameObj>::Add_Head', 00H	; `string'
CONST	ENDS
;	COMDAT ??_C@_0CK@IKHALJOC@SList?$DMclass?5VehicleGameObj?$DO?3?3Ins@
CONST	SEGMENT
??_C@_0CK@IKHALJOC@SList?$DMclass?5VehicleGameObj?$DO?3?3Ins@ DB 'SList<c'
	DB	'lass VehicleGameObj>::Insert_After', 00H	; `string'
CONST	ENDS
;	COMDAT ??_C@_0CL@JEOFCALK@SList?$DMclass?5VehicleGameObj?$DO?3?3Ins@
CONST	SEGMENT
??_C@_0CL@JEOFCALK@SList?$DMclass?5VehicleGameObj?$DO?3?3Ins@ DB 'SList<c'
	DB	'lass VehicleGameObj>::Insert_Before', 00H	; `string'
CONST	ENDS
;	COMDAT ??_C@_0CI@KEEHBCAJ@SList?$DMclass?5VehicleGameObj?$DO?3?3Rem@
CONST	SEGMENT
??_C@_0CI@KEEHBCAJ@SList?$DMclass?5VehicleGameObj?$DO?3?3Rem@ DB 'SList<c'
	DB	'lass VehicleGameObj>::Remove_All', 00H	; `string'
CONST	ENDS
;	COMDAT ??_C@_0CE@EAMIMMAP@SList?$DMclass?5VehicleGameObj?$DO?3?3Rem@
CONST	SEGMENT
??_C@_0CE@EAMIMMAP@SList?$DMclass?5VehicleGameObj?$DO?3?3Rem@ DB 'SList<c'
	DB	'lass VehicleGameObj>::Remove', 00H		; `string'
CONST	ENDS
;	COMDAT ??_C@_0CJ@CJOPLN@SList?$DMclass?5VehicleGameObj?$DO?3?3Rem@
CONST	SEGMENT
??_C@_0CJ@CJOPLN@SList?$DMclass?5VehicleGameObj?$DO?3?3Rem@ DB 'SList<cla'
	DB	'ss VehicleGameObj>::Remove_Head', 00H	; `string'
CONST	ENDS
;	COMDAT ??_C@_0CG@GHGCNBPP@SList?$DMclass?5VehicleGameObj?$DO?3?3Add@
CONST	SEGMENT
??_C@_0CG@GHGCNBPP@SList?$DMclass?5VehicleGameObj?$DO?3?3Add@ DB 'SList<c'
	DB	'lass VehicleGameObj>::Add_Tail', 00H	; `string'
CONST	ENDS
;	COMDAT ??_C@_0CG@ILNKOHJL@SList?$DMclass?5VehicleGameObj?$DO?3?3Add@
CONST	SEGMENT
??_C@_0CG@ILNKOHJL@SList?$DMclass?5VehicleGameObj?$DO?3?3Add@ DB 'SList<c'
	DB	'lass VehicleGameObj>::Add_Head', 00H	; `string'
CONST	ENDS
;	COMDAT ??_C@_0CK@GDEINOPK@SList?$DMclass?5SoldierGameObj?$DO?3?3Ins@
CONST	SEGMENT
??_C@_0CK@GDEINOPK@SList?$DMclass?5SoldierGameObj?$DO?3?3Ins@ DB 'SList<c'
	DB	'lass SoldierGameObj>::Insert_After', 00H	; `string'
CONST	ENDS
;	COMDAT ??_C@_0CL@IHGAIAIL@SList?$DMclass?5SoldierGameObj?$DO?3?3Ins@
CONST	SEGMENT
??_C@_0CL@IHGAIAIL@SList?$DMclass?5SoldierGameObj?$DO?3?3Ins@ DB 'SList<c'
	DB	'lass SoldierGameObj>::Insert_Before', 00H	; `string'
CONST	ENDS
;	COMDAT ??_C@_0CI@LIMEAJLG@SList?$DMclass?5SoldierGameObj?$DO?3?3Rem@
CONST	SEGMENT
??_C@_0CI@LIMEAJLG@SList?$DMclass?5SoldierGameObj?$DO?3?3Rem@ DB 'SList<c'
	DB	'lass SoldierGameObj>::Remove_All', 00H	; `string'
CONST	ENDS
;	COMDAT ??_C@_0CE@PHGPNBHE@SList?$DMclass?5SoldierGameObj?$DO?3?3Rem@
CONST	SEGMENT
??_C@_0CE@PHGPNBHE@SList?$DMclass?5SoldierGameObj?$DO?3?3Rem@ DB 'SList<c'
	DB	'lass SoldierGameObj>::Remove', 00H		; `string'
CONST	ENDS
;	COMDAT ??_C@_0CJ@FLOLMCLL@SList?$DMclass?5SoldierGameObj?$DO?3?3Rem@
CONST	SEGMENT
??_C@_0CJ@FLOLMCLL@SList?$DMclass?5SoldierGameObj?$DO?3?3Rem@ DB 'SList<c'
	DB	'lass SoldierGameObj>::Remove_Head', 00H	; `string'
CONST	ENDS
;	COMDAT ??_C@_0CG@MIKPKKLM@SList?$DMclass?5SoldierGameObj?$DO?3?3Add@
CONST	SEGMENT
??_C@_0CG@MIKPKKLM@SList?$DMclass?5SoldierGameObj?$DO?3?3Add@ DB 'SList<c'
	DB	'lass SoldierGameObj>::Add_Tail', 00H	; `string'
CONST	ENDS
;	COMDAT ??_C@_0CG@CEBHJMNI@SList?$DMclass?5SoldierGameObj?$DO?3?3Add@
CONST	SEGMENT
??_C@_0CG@CEBHJMNI@SList?$DMclass?5SoldierGameObj?$DO?3?3Add@ DB 'SList<c'
	DB	'lass SoldierGameObj>::Add_Head', 00H	; `string'
CONST	ENDS
;	COMDAT ??_C@_0CJ@ONPDGEFB@SList?$DMclass?5BeaconGameObj?$DO?3?3Inse@
CONST	SEGMENT
??_C@_0CJ@ONPDGEFB@SList?$DMclass?5BeaconGameObj?$DO?3?3Inse@ DB 'SList<c'
	DB	'lass BeaconGameObj>::Insert_After', 00H	; `string'
CONST	ENDS
;	COMDAT ??_C@_0CK@MGOKEBFB@SList?$DMclass?5BeaconGameObj?$DO?3?3Inse@
CONST	SEGMENT
??_C@_0CK@MGOKEBFB@SList?$DMclass?5BeaconGameObj?$DO?3?3Inse@ DB 'SList<c'
	DB	'lass BeaconGameObj>::Insert_Before', 00H	; `string'
CONST	ENDS
;	COMDAT ??_C@_0CH@ONMBIHHB@SList?$DMclass?5BeaconGameObj?$DO?3?3Remo@
CONST	SEGMENT
??_C@_0CH@ONMBIHHB@SList?$DMclass?5BeaconGameObj?$DO?3?3Remo@ DB 'SList<c'
	DB	'lass BeaconGameObj>::Remove_All', 00H	; `string'
CONST	ENDS
;	COMDAT ??_C@_0CD@PKKEIDKI@SList?$DMclass?5BeaconGameObj?$DO?3?3Remo@
CONST	SEGMENT
??_C@_0CD@PKKEIDKI@SList?$DMclass?5BeaconGameObj?$DO?3?3Remo@ DB 'SList<c'
	DB	'lass BeaconGameObj>::Remove', 00H		; `string'
CONST	ENDS
;	COMDAT ??_C@_0CI@FOLOJACG@SList?$DMclass?5BeaconGameObj?$DO?3?3Remo@
CONST	SEGMENT
??_C@_0CI@FOLOJACG@SList?$DMclass?5BeaconGameObj?$DO?3?3Remo@ DB 'SList<c'
	DB	'lass BeaconGameObj>::Remove_Head', 00H	; `string'
CONST	ENDS
;	COMDAT ??_C@_0CF@GAEHBNLM@SList?$DMclass?5BeaconGameObj?$DO?3?3Add_@
CONST	SEGMENT
??_C@_0CF@GAEHBNLM@SList?$DMclass?5BeaconGameObj?$DO?3?3Add_@ DB 'SList<c'
	DB	'lass BeaconGameObj>::Add_Tail', 00H		; `string'
CONST	ENDS
;	COMDAT ??_C@_0CF@IMPPCLNI@SList?$DMclass?5BeaconGameObj?$DO?3?3Add_@
CONST	SEGMENT
??_C@_0CF@IMPPCLNI@SList?$DMclass?5BeaconGameObj?$DO?3?3Add_@ DB 'SList<c'
	DB	'lass BeaconGameObj>::Add_Head', 00H		; `string'
CONST	ENDS
;	COMDAT ??_C@_0CF@DEDOPMJE@SList?$DMclass?5C4GameObj?$DO?3?3Insert_A@
CONST	SEGMENT
??_C@_0CF@DEDOPMJE@SList?$DMclass?5C4GameObj?$DO?3?3Insert_A@ DB 'SList<c'
	DB	'lass C4GameObj>::Insert_After', 00H		; `string'
CONST	ENDS
;	COMDAT ??_C@_0CG@CNDNLKPG@SList?$DMclass?5C4GameObj?$DO?3?3Insert_B@
CONST	SEGMENT
??_C@_0CG@CNDNLKPG@SList?$DMclass?5C4GameObj?$DO?3?3Insert_B@ DB 'SList<c'
	DB	'lass C4GameObj>::Insert_Before', 00H	; `string'
CONST	ENDS
;	COMDAT ??_C@_0CD@COHNBFCE@SList?$DMclass?5C4GameObj?$DO?3?3Remove_A@
CONST	SEGMENT
??_C@_0CD@COHNBFCE@SList?$DMclass?5C4GameObj?$DO?3?3Remove_A@ DB 'SList<c'
	DB	'lass C4GameObj>::Remove_All', 00H		; `string'
CONST	ENDS
;	COMDAT ??_C@_0BP@OCMFOCDH@SList?$DMclass?5C4GameObj?$DO?3?3Remove?$AA@
CONST	SEGMENT
??_C@_0BP@OCMFOCDH@SList?$DMclass?5C4GameObj?$DO?3?3Remove?$AA@ DB 'SList'
	DB	'<class C4GameObj>::Remove', 00H		; `string'
CONST	ENDS
;	COMDAT ??_C@_0CE@EFHMIJMP@SList?$DMclass?5C4GameObj?$DO?3?3Remove_H@
CONST	SEGMENT
??_C@_0CE@EFHMIJMP@SList?$DMclass?5C4GameObj?$DO?3?3Remove_H@ DB 'SList<c'
	DB	'lass C4GameObj>::Remove_Head', 00H		; `string'
CONST	ENDS
;	COMDAT ??_C@_0CB@KMCLMCMG@SList?$DMclass?5C4GameObj?$DO?3?3Add_Tail@
CONST	SEGMENT
??_C@_0CB@KMCLMCMG@SList?$DMclass?5C4GameObj?$DO?3?3Add_Tail@ DB 'SList<c'
	DB	'lass C4GameObj>::Add_Tail', 00H		; `string'
CONST	ENDS
;	COMDAT ??_C@_1GC@LJHGOLFN@?$AAx?$AA?3?$AA?2?$AAg?$AAi?$AAt?$AAh?$AAu?$AAb?$AA?2?$AAr?$AAe?$AAn?$AAe?$AAg?$AAa?$AAd?$AAe?$AA?2?$AAd?$AAr?$AAa?$AAg?$AAo?$AAn?$AAa?$AAd?$AAe?$AA_?$AAr?$AAx?$AAd@
CONST	SEGMENT
??_C@_1GC@LJHGOLFN@?$AAx?$AA?3?$AA?2?$AAg?$AAi?$AAt?$AAh?$AAu?$AAb?$AA?2?$AAr?$AAe?$AAn?$AAe?$AAg?$AAa?$AAd?$AAe?$AA?2?$AAd?$AAr?$AAa?$AAg?$AAo?$AAn?$AAa?$AAd?$AAe?$AA_?$AAr?$AAx?$AAd@ DB 'x'
	DB	00H, ':', 00H, '\', 00H, 'g', 00H, 'i', 00H, 't', 00H, 'h', 00H
	DB	'u', 00H, 'b', 00H, '\', 00H, 'r', 00H, 'e', 00H, 'n', 00H, 'e'
	DB	00H, 'g', 00H, 'a', 00H, 'd', 00H, 'e', 00H, '\', 00H, 'd', 00H
	DB	'r', 00H, 'a', 00H, 'g', 00H, 'o', 00H, 'n', 00H, 'a', 00H, 'd'
	DB	00H, 'e', 00H, '_', 00H, 'r', 00H, 'x', 00H, 'd', 00H, '\', 00H
	DB	's', 00H, 'c', 00H, 'r', 00H, 'i', 00H, 'p', 00H, 't', 00H, 's'
	DB	00H, '\', 00H, 's', 00H, 'l', 00H, 'i', 00H, 's', 00H, 't', 00H
	DB	'.', 00H, 'h', 00H, 00H, 00H			; `string'
CONST	ENDS
;	COMDAT ??_C@_0DB@DFBFLIIO@x?3?2github?2renegade?2dragonade_rxd@
CONST	SEGMENT
??_C@_0DB@DFBFLIIO@x?3?2github?2renegade?2dragonade_rxd@ DB 'x:\github\re'
	DB	'negade\dragonade_rxd\scripts\slist.h', 00H	; `string'
CONST	ENDS
;	COMDAT ??_C@_0CB@EAJDPEKC@SList?$DMclass?5C4GameObj?$DO?3?3Add_Head@
CONST	SEGMENT
??_C@_0CB@EAJDPEKC@SList?$DMclass?5C4GameObj?$DO?3?3Add_Head@ DB 'SList<c'
	DB	'lass C4GameObj>::Add_Head', 00H		; `string'
CONST	ENDS
;	COMDAT ??_7?$SList@VScriptZoneGameObj@@@@6B@
CONST	SEGMENT
??_7?$SList@VScriptZoneGameObj@@@@6B@ DD FLAT:??_R4?$SList@VScriptZoneGameObj@@@@6B@ ; SList<ScriptZoneGameObj>::`vftable'
	DD	FLAT:??_E?$SList@VScriptZoneGameObj@@@@UAEPAXI@Z
	DD	FLAT:?Add_Head@?$SList@VScriptZoneGameObj@@@@UAE_NAAV1@@Z
	DD	FLAT:?Add_Head@?$SList@VScriptZoneGameObj@@@@UAE_NPAVScriptZoneGameObj@@@Z
	DD	FLAT:?Add_Tail@?$SList@VScriptZoneGameObj@@@@UAE_NAAV1@@Z
	DD	FLAT:?Add_Tail@?$SList@VScriptZoneGameObj@@@@UAE_NPAVScriptZoneGameObj@@@Z
	DD	FLAT:?Remove_Head@?$SList@VScriptZoneGameObj@@@@UAEPAVScriptZoneGameObj@@XZ
	DD	FLAT:?Remove_Tail@?$SList@VScriptZoneGameObj@@@@UAEPAVScriptZoneGameObj@@XZ
	DD	FLAT:?Remove@?$SList@VScriptZoneGameObj@@@@UAE_NPBVScriptZoneGameObj@@@Z
	DD	FLAT:?Remove_All@?$SList@VScriptZoneGameObj@@@@UAEXXZ
	DD	FLAT:?Insert_Before@?$SList@VScriptZoneGameObj@@@@UAE_NPAVScriptZoneGameObj@@PBV2@@Z
	DD	FLAT:?Insert_After@?$SList@VScriptZoneGameObj@@@@UAE_NPAVScriptZoneGameObj@@PBV2@@Z
	DD	FLAT:?Is_Empty@?$SList@VScriptZoneGameObj@@@@UBE_NXZ
	DD	FLAT:?Get_Count@?$SList@VScriptZoneGameObj@@@@UBEIXZ
CONST	ENDS
;	COMDAT ??_7?$SList@VVehicleGameObj@@@@6B@
CONST	SEGMENT
??_7?$SList@VVehicleGameObj@@@@6B@ DD FLAT:??_R4?$SList@VVehicleGameObj@@@@6B@ ; SList<VehicleGameObj>::`vftable'
	DD	FLAT:??_E?$SList@VVehicleGameObj@@@@UAEPAXI@Z
	DD	FLAT:?Add_Head@?$SList@VVehicleGameObj@@@@UAE_NAAV1@@Z
	DD	FLAT:?Add_Head@?$SList@VVehicleGameObj@@@@UAE_NPAVVehicleGameObj@@@Z
	DD	FLAT:?Add_Tail@?$SList@VVehicleGameObj@@@@UAE_NAAV1@@Z
	DD	FLAT:?Add_Tail@?$SList@VVehicleGameObj@@@@UAE_NPAVVehicleGameObj@@@Z
	DD	FLAT:?Remove_Head@?$SList@VVehicleGameObj@@@@UAEPAVVehicleGameObj@@XZ
	DD	FLAT:?Remove_Tail@?$SList@VVehicleGameObj@@@@UAEPAVVehicleGameObj@@XZ
	DD	FLAT:?Remove@?$SList@VVehicleGameObj@@@@UAE_NPBVVehicleGameObj@@@Z
	DD	FLAT:?Remove_All@?$SList@VVehicleGameObj@@@@UAEXXZ
	DD	FLAT:?Insert_Before@?$SList@VVehicleGameObj@@@@UAE_NPAVVehicleGameObj@@PBV2@@Z
	DD	FLAT:?Insert_After@?$SList@VVehicleGameObj@@@@UAE_NPAVVehicleGameObj@@PBV2@@Z
	DD	FLAT:?Is_Empty@?$SList@VVehicleGameObj@@@@UBE_NXZ
	DD	FLAT:?Get_Count@?$SList@VVehicleGameObj@@@@UBEIXZ
CONST	ENDS
;	COMDAT ??_7?$SList@VSoldierGameObj@@@@6B@
CONST	SEGMENT
??_7?$SList@VSoldierGameObj@@@@6B@ DD FLAT:??_R4?$SList@VSoldierGameObj@@@@6B@ ; SList<SoldierGameObj>::`vftable'
	DD	FLAT:??_E?$SList@VSoldierGameObj@@@@UAEPAXI@Z
	DD	FLAT:?Add_Head@?$SList@VSoldierGameObj@@@@UAE_NAAV1@@Z
	DD	FLAT:?Add_Head@?$SList@VSoldierGameObj@@@@UAE_NPAVSoldierGameObj@@@Z
	DD	FLAT:?Add_Tail@?$SList@VSoldierGameObj@@@@UAE_NAAV1@@Z
	DD	FLAT:?Add_Tail@?$SList@VSoldierGameObj@@@@UAE_NPAVSoldierGameObj@@@Z
	DD	FLAT:?Remove_Head@?$SList@VSoldierGameObj@@@@UAEPAVSoldierGameObj@@XZ
	DD	FLAT:?Remove_Tail@?$SList@VSoldierGameObj@@@@UAEPAVSoldierGameObj@@XZ
	DD	FLAT:?Remove@?$SList@VSoldierGameObj@@@@UAE_NPBVSoldierGameObj@@@Z
	DD	FLAT:?Remove_All@?$SList@VSoldierGameObj@@@@UAEXXZ
	DD	FLAT:?Insert_Before@?$SList@VSoldierGameObj@@@@UAE_NPAVSoldierGameObj@@PBV2@@Z
	DD	FLAT:?Insert_After@?$SList@VSoldierGameObj@@@@UAE_NPAVSoldierGameObj@@PBV2@@Z
	DD	FLAT:?Is_Empty@?$SList@VSoldierGameObj@@@@UBE_NXZ
	DD	FLAT:?Get_Count@?$SList@VSoldierGameObj@@@@UBEIXZ
CONST	ENDS
;	COMDAT ??_7?$SList@VBeaconGameObj@@@@6B@
CONST	SEGMENT
??_7?$SList@VBeaconGameObj@@@@6B@ DD FLAT:??_R4?$SList@VBeaconGameObj@@@@6B@ ; SList<BeaconGameObj>::`vftable'
	DD	FLAT:??_E?$SList@VBeaconGameObj@@@@UAEPAXI@Z
	DD	FLAT:?Add_Head@?$SList@VBeaconGameObj@@@@UAE_NAAV1@@Z
	DD	FLAT:?Add_Head@?$SList@VBeaconGameObj@@@@UAE_NPAVBeaconGameObj@@@Z
	DD	FLAT:?Add_Tail@?$SList@VBeaconGameObj@@@@UAE_NAAV1@@Z
	DD	FLAT:?Add_Tail@?$SList@VBeaconGameObj@@@@UAE_NPAVBeaconGameObj@@@Z
	DD	FLAT:?Remove_Head@?$SList@VBeaconGameObj@@@@UAEPAVBeaconGameObj@@XZ
	DD	FLAT:?Remove_Tail@?$SList@VBeaconGameObj@@@@UAEPAVBeaconGameObj@@XZ
	DD	FLAT:?Remove@?$SList@VBeaconGameObj@@@@UAE_NPBVBeaconGameObj@@@Z
	DD	FLAT:?Remove_All@?$SList@VBeaconGameObj@@@@UAEXXZ
	DD	FLAT:?Insert_Before@?$SList@VBeaconGameObj@@@@UAE_NPAVBeaconGameObj@@PBV2@@Z
	DD	FLAT:?Insert_After@?$SList@VBeaconGameObj@@@@UAE_NPAVBeaconGameObj@@PBV2@@Z
	DD	FLAT:?Is_Empty@?$SList@VBeaconGameObj@@@@UBE_NXZ
	DD	FLAT:?Get_Count@?$SList@VBeaconGameObj@@@@UBEIXZ
CONST	ENDS
;	COMDAT ??_7?$SList@VC4GameObj@@@@6B@
CONST	SEGMENT
??_7?$SList@VC4GameObj@@@@6B@ DD FLAT:??_R4?$SList@VC4GameObj@@@@6B@ ; SList<C4GameObj>::`vftable'
	DD	FLAT:??_E?$SList@VC4GameObj@@@@UAEPAXI@Z
	DD	FLAT:?Add_Head@?$SList@VC4GameObj@@@@UAE_NAAV1@@Z
	DD	FLAT:?Add_Head@?$SList@VC4GameObj@@@@UAE_NPAVC4GameObj@@@Z
	DD	FLAT:?Add_Tail@?$SList@VC4GameObj@@@@UAE_NAAV1@@Z
	DD	FLAT:?Add_Tail@?$SList@VC4GameObj@@@@UAE_NPAVC4GameObj@@@Z
	DD	FLAT:?Remove_Head@?$SList@VC4GameObj@@@@UAEPAVC4GameObj@@XZ
	DD	FLAT:?Remove_Tail@?$SList@VC4GameObj@@@@UAEPAVC4GameObj@@XZ
	DD	FLAT:?Remove@?$SList@VC4GameObj@@@@UAE_NPBVC4GameObj@@@Z
	DD	FLAT:?Remove_All@?$SList@VC4GameObj@@@@UAEXXZ
	DD	FLAT:?Insert_Before@?$SList@VC4GameObj@@@@UAE_NPAVC4GameObj@@PBV2@@Z
	DD	FLAT:?Insert_After@?$SList@VC4GameObj@@@@UAE_NPAVC4GameObj@@PBV2@@Z
	DD	FLAT:?Is_Empty@?$SList@VC4GameObj@@@@UBE_NXZ
	DD	FLAT:?Get_Count@?$SList@VC4GameObj@@@@UBEIXZ
CONST	ENDS
;	COMDAT ??_C@_1M@HLGKFCJM@?$AAf?$AAa?$AAl?$AAs?$AAe?$AA?$AA@
CONST	SEGMENT
??_C@_1M@HLGKFCJM@?$AAf?$AAa?$AAl?$AAs?$AAe?$AA?$AA@ DB 'f', 00H, 'a', 00H
	DB	'l', 00H, 's', 00H, 'e', 00H, 00H, 00H	; `string'
CONST	ENDS
;	COMDAT ??_C@_1HC@JEIHKHFK@?$AAx?$AA?3?$AA?2?$AAg?$AAi?$AAt?$AAh?$AAu?$AAb?$AA?2?$AAr?$AAe?$AAn?$AAe?$AAg?$AAa?$AAd?$AAe?$AA?2?$AAd?$AAr?$AAa?$AAg?$AAo?$AAn?$AAa?$AAd?$AAe?$AA_?$AAr?$AAx?$AAd@
CONST	SEGMENT
??_C@_1HC@JEIHKHFK@?$AAx?$AA?3?$AA?2?$AAg?$AAi?$AAt?$AAh?$AAu?$AAb?$AA?2?$AAr?$AAe?$AAn?$AAe?$AAg?$AAa?$AAd?$AAe?$AA?2?$AAd?$AAr?$AAa?$AAg?$AAo?$AAn?$AAa?$AAd?$AAe?$AA_?$AAr?$AAx?$AAd@ DB 'x'
	DB	00H, ':', 00H, '\', 00H, 'g', 00H, 'i', 00H, 't', 00H, 'h', 00H
	DB	'u', 00H, 'b', 00H, '\', 00H, 'r', 00H, 'e', 00H, 'n', 00H, 'e'
	DB	00H, 'g', 00H, 'a', 00H, 'd', 00H, 'e', 00H, '\', 00H, 'd', 00H
	DB	'r', 00H, 'a', 00H, 'g', 00H, 'o', 00H, 'n', 00H, 'a', 00H, 'd'
	DB	00H, 'e', 00H, '_', 00H, 'r', 00H, 'x', 00H, 'd', 00H, '\', 00H
	DB	's', 00H, 'c', 00H, 'r', 00H, 'i', 00H, 'p', 00H, 't', 00H, 's'
	DB	00H, '\', 00H, 'e', 00H, 'n', 00H, 'g', 00H, 'i', 00H, 'n', 00H
	DB	'e', 00H, '_', 00H, 'v', 00H, 'e', 00H, 'c', 00H, 't', 00H, 'o'
	DB	00H, 'r', 00H, '.', 00H, 'h', 00H, 00H, 00H	; `string'
CONST	ENDS
;	COMDAT ??_C@_0DJ@NKJHEMPA@x?3?2github?2renegade?2dragonade_rxd@
CONST	SEGMENT
??_C@_0DJ@NKJHEMPA@x?3?2github?2renegade?2dragonade_rxd@ DB 'x:\github\re'
	DB	'negade\dragonade_rxd\scripts\engine_vector.h', 00H ; `string'
CONST	ENDS
CRT$XCU	SEGMENT
?BeaconGameObjList$initializer$@GameObjManager@@2P6AXXZA DD FLAT:??__E?BeaconGameObjList@GameObjManager@@2V?$SList@VBeaconGameObj@@@@A@@YAXXZ ; GameObjManager::BeaconGameObjList$initializer$
CRT$XCU	ENDS
CRT$XCU	SEGMENT
?SoldierGameObjList$initializer$@GameObjManager@@2P6AXXZA DD FLAT:??__E?SoldierGameObjList@GameObjManager@@2V?$SList@VSoldierGameObj@@@@A@@YAXXZ ; GameObjManager::SoldierGameObjList$initializer$
CRT$XCU	ENDS
CRT$XCU	SEGMENT
?VehicleGameObjList$initializer$@GameObjManager@@2P6AXXZA DD FLAT:??__E?VehicleGameObjList@GameObjManager@@2V?$SList@VVehicleGameObj@@@@A@@YAXXZ ; GameObjManager::VehicleGameObjList$initializer$
CRT$XCU	ENDS
CRT$XCU	SEGMENT
?ScriptZoneGameObjList$initializer$@GameObjManager@@2P6AXXZA DD FLAT:??__E?ScriptZoneGameObjList@GameObjManager@@2V?$SList@VScriptZoneGameObj@@@@A@@YAXXZ ; GameObjManager::ScriptZoneGameObjList$initializer$
CRT$XCU	ENDS
; Function compile flags: /Odtp /ZI
;	COMDAT ??__Finstancex@?1??getInstance@?$Singleton@V?$ObjectPoolClass@VGenericSLNode@@$0BAA@@@@@SAAAV?$ObjectPoolClass@VGenericSLNode@@$0BAA@@@XZ@YAXXZ
text$yd	SEGMENT
??__Finstancex@?1??getInstance@?$Singleton@V?$ObjectPoolClass@VGenericSLNode@@$0BAA@@@@@SAAAV?$ObjectPoolClass@VGenericSLNode@@$0BAA@@@XZ@YAXXZ PROC ; `Singleton<ObjectPoolClass<GenericSLNode,256> >::getInstance'::`2'::`dynamic atexit destructor for 'instancex'', COMDAT
	push	ebp
	mov	ebp, esp
	sub	esp, 64					; 00000040H
	push	ebx
	push	esi
	push	edi
	mov	ecx, OFFSET ?instancex@?1??getInstance@?$Singleton@V?$ObjectPoolClass@VGenericSLNode@@$0BAA@@@@@SAAAV?$ObjectPoolClass@VGenericSLNode@@$0BAA@@@XZ@4V3@A ; `Singleton<ObjectPoolClass<GenericSLNode,256> >::getInstance'::`2'::instancex
	call	??1?$ObjectPoolClass@VGenericSLNode@@$0BAA@@@QAE@XZ ; ObjectPoolClass<GenericSLNode,256>::~ObjectPoolClass<GenericSLNode,256>
	pop	edi
	pop	esi
	pop	ebx
	mov	esp, ebp
	pop	ebp
	ret	0
??__Finstancex@?1??getInstance@?$Singleton@V?$ObjectPoolClass@VGenericSLNode@@$0BAA@@@@@SAAAV?$ObjectPoolClass@VGenericSLNode@@$0BAA@@@XZ@YAXXZ ENDP ; `Singleton<ObjectPoolClass<GenericSLNode,256> >::getInstance'::`2'::`dynamic atexit destructor for 'instancex''
text$yd	ENDS
; Function compile flags: /Odtp /ZI
; File x:\github\renegade\dragonade_rxd\scripts\engine_vector.h
;	COMDAT ?writeDummyPattern@?$ObjectPoolClass@VGenericSLNode@@$0BAA@@@QAEXAAVGenericSLNode@@K@Z
_TEXT	SEGMENT
_endDword$ = -12					; size = 4
_dword$ = -8						; size = 4
_this$ = -4						; size = 4
_object$ = 8						; size = 4
_pattern$ = 12						; size = 4
?writeDummyPattern@?$ObjectPoolClass@VGenericSLNode@@$0BAA@@@QAEXAAVGenericSLNode@@K@Z PROC ; ObjectPoolClass<GenericSLNode,256>::writeDummyPattern, COMDAT
; _this$ = ecx

; 1445 : 	{

	push	ebp
	mov	ebp, esp
	sub	esp, 76					; 0000004cH
	push	ebx
	push	esi
	push	edi
	mov	DWORD PTR _this$[ebp], ecx

; 1446 : #ifdef DEBUG
; 1447 : 		static_assert(sizeof(T) % 4 == 0, "Expected type size to be a multiple of 4.");
; 1448 : 		DWORD* dword = (DWORD*)&object;

	mov	eax, DWORD PTR _object$[ebp]
	mov	DWORD PTR _dword$[ebp], eax

; 1449 : 		DWORD* endDword = (DWORD*)(&object+1);

	mov	eax, DWORD PTR _object$[ebp]
	add	eax, 8
	mov	DWORD PTR _endDword$[ebp], eax

; 1450 : 		for (; dword < endDword; ++dword)

	jmp	SHORT $LN3@writeDummy
$LN2@writeDummy:
	mov	eax, DWORD PTR _dword$[ebp]
	add	eax, 4
	mov	DWORD PTR _dword$[ebp], eax
$LN3@writeDummy:
	mov	eax, DWORD PTR _dword$[ebp]
	cmp	eax, DWORD PTR _endDword$[ebp]
	jae	SHORT $LN4@writeDummy

; 1451 : 			*dword = pattern;

	mov	eax, DWORD PTR _dword$[ebp]
	mov	ecx, DWORD PTR _pattern$[ebp]
	mov	DWORD PTR [eax], ecx
	jmp	SHORT $LN2@writeDummy
$LN4@writeDummy:

; 1452 : #endif
; 1453 : 	}

	pop	edi
	pop	esi
	pop	ebx
	mov	esp, ebp
	pop	ebp
	ret	8
?writeDummyPattern@?$ObjectPoolClass@VGenericSLNode@@$0BAA@@@QAEXAAVGenericSLNode@@K@Z ENDP ; ObjectPoolClass<GenericSLNode,256>::writeDummyPattern
_TEXT	ENDS
; Function compile flags: /Odtp /ZI
; File x:\github\renegade\dragonade_rxd\scripts\engine_vector.h
;	COMDAT ?Free_Object_Memory@?$ObjectPoolClass@VGenericSLNode@@$0BAA@@@QAEXAAVGenericSLNode@@@Z
_TEXT	SEGMENT
_lock$ = -8						; size = 4
_this$ = -4						; size = 4
_object$ = 8						; size = 4
?Free_Object_Memory@?$ObjectPoolClass@VGenericSLNode@@$0BAA@@@QAEXAAVGenericSLNode@@@Z PROC ; ObjectPoolClass<GenericSLNode,256>::Free_Object_Memory, COMDAT
; _this$ = ecx

; 1436 : 	{

	push	ebp
	mov	ebp, esp
	sub	esp, 72					; 00000048H
	push	ebx
	push	esi
	push	edi
	mov	DWORD PTR _this$[ebp], ecx

; 1437 : 		FastCriticalSectionClass::LockClass lock(ObjectPoolCS);

	mov	eax, DWORD PTR _this$[ebp]
	add	eax, 16					; 00000010H
	push	eax
	lea	ecx, DWORD PTR _lock$[ebp]
	call	??0LockClass@FastCriticalSectionClass@@QAE@AAV1@@Z ; FastCriticalSectionClass::LockClass::LockClass

; 1438 : 		writeDummyPattern(object, 0xEDE7E10D);

	push	-303570675				; ede7e10dH
	mov	eax, DWORD PTR _object$[ebp]
	push	eax
	mov	ecx, DWORD PTR _this$[ebp]
	call	?writeDummyPattern@?$ObjectPoolClass@VGenericSLNode@@$0BAA@@@QAEXAAVGenericSLNode@@K@Z ; ObjectPoolClass<GenericSLNode,256>::writeDummyPattern

; 1439 : 		(T*&)object = FreeListHead;

	mov	eax, DWORD PTR _object$[ebp]
	mov	ecx, DWORD PTR _this$[ebp]
	mov	edx, DWORD PTR [ecx]
	mov	DWORD PTR [eax], edx

; 1440 : 		FreeListHead = &object;

	mov	eax, DWORD PTR _this$[ebp]
	mov	ecx, DWORD PTR _object$[ebp]
	mov	DWORD PTR [eax], ecx

; 1441 : 		FreeObjectCount++;

	mov	eax, DWORD PTR _this$[ebp]
	mov	ecx, DWORD PTR [eax+8]
	add	ecx, 1
	mov	edx, DWORD PTR _this$[ebp]
	mov	DWORD PTR [edx+8], ecx

; 1442 : 	}

	lea	ecx, DWORD PTR _lock$[ebp]
	call	??1LockClass@FastCriticalSectionClass@@QAE@XZ ; FastCriticalSectionClass::LockClass::~LockClass
	pop	edi
	pop	esi
	pop	ebx
	mov	esp, ebp
	pop	ebp
	ret	4
?Free_Object_Memory@?$ObjectPoolClass@VGenericSLNode@@$0BAA@@@QAEXAAVGenericSLNode@@@Z ENDP ; ObjectPoolClass<GenericSLNode,256>::Free_Object_Memory
_TEXT	ENDS
; Function compile flags: /Odtp /ZI
; File x:\github\renegade\dragonade_rxd\scripts\engine_vector.h
;	COMDAT ?Allocate_Object_Memory@?$ObjectPoolClass@VGenericSLNode@@$0BAA@@@QAEPAVGenericSLNode@@XZ
_TEXT	SEGMENT
tv82 = -96						; size = 4
$T1 = -92						; size = 4
$T2 = -88						; size = 4
_object$ = -20						; size = 4
_i$3 = -16						; size = 4
_newBlockListHead$4 = -12				; size = 4
_lock$ = -8						; size = 4
_this$ = -4						; size = 4
?Allocate_Object_Memory@?$ObjectPoolClass@VGenericSLNode@@$0BAA@@@QAEPAVGenericSLNode@@XZ PROC ; ObjectPoolClass<GenericSLNode,256>::Allocate_Object_Memory, COMDAT
; _this$ = ecx

; 1413 : 	{

	push	ebp
	mov	ebp, esp
	sub	esp, 96					; 00000060H
	push	ebx
	push	esi
	push	edi
	mov	DWORD PTR _this$[ebp], ecx

; 1414 : 		FastCriticalSectionClass::LockClass lock(ObjectPoolCS);

	mov	eax, DWORD PTR _this$[ebp]
	add	eax, 16					; 00000010H
	push	eax
	lea	ecx, DWORD PTR _lock$[ebp]
	call	??0LockClass@FastCriticalSectionClass@@QAE@AAV1@@Z ; FastCriticalSectionClass::LockClass::LockClass

; 1415 :  		if (!FreeListHead)

	mov	eax, DWORD PTR _this$[ebp]
	cmp	DWORD PTR [eax], 0
	jne	$LN4@Allocate_O

; 1416 : 		{
; 1417 : 			void* newBlockListHead = (void*)((void*)new char[sizeof(void*) + sizeof(T[BLOCK_SIZE])]);

	push	OFFSET ??_C@_0EB@IOGKEECK@ObjectPoolClass?$DMclass?5GenericSLN@
	push	1417					; 00000589H
	push	OFFSET ??_C@_0DJ@NKJHEMPA@x?3?2github?2renegade?2dragonade_rxd@
	call	?SetThreadTrackingInformation@@YAXPBDI0@Z ; SetThreadTrackingInformation
	add	esp, 12					; 0000000cH
	xor	eax, eax
	je	SHORT $LN8@Allocate_O
	xor	ecx, ecx
	jne	SHORT $LN7@Allocate_O
	push	1417					; 00000589H
	push	OFFSET ??_C@_1HC@JEIHKHFK@?$AAx?$AA?3?$AA?2?$AAg?$AAi?$AAt?$AAh?$AAu?$AAb?$AA?2?$AAr?$AAe?$AAn?$AAe?$AAg?$AAa?$AAd?$AAe?$AA?2?$AAd?$AAr?$AAa?$AAg?$AAo?$AAn?$AAa?$AAd?$AAe?$AA_?$AAr?$AAx?$AAd@
	push	OFFSET ??_C@_1M@HLGKFCJM@?$AAf?$AAa?$AAl?$AAs?$AAe?$AA?$AA@
	call	DWORD PTR __imp___wassert
	add	esp, 12					; 0000000cH
$LN7@Allocate_O:
	mov	DWORD PTR tv82[ebp], 0
	jmp	SHORT $LN9@Allocate_O
$LN8@Allocate_O:
	push	2052					; 00000804H
	call	??_U@YAPAXI@Z				; operator new[]
	add	esp, 4
	mov	DWORD PTR $T1[ebp], eax
	mov	eax, DWORD PTR $T1[ebp]
	mov	DWORD PTR tv82[ebp], eax
$LN9@Allocate_O:
	mov	ecx, DWORD PTR tv82[ebp]
	mov	DWORD PTR _newBlockListHead$4[ebp], ecx

; 1418 : 			*(void**)newBlockListHead = BlockListHead;

	mov	eax, DWORD PTR _newBlockListHead$4[ebp]
	mov	ecx, DWORD PTR _this$[ebp]
	mov	edx, DWORD PTR [ecx+4]
	mov	DWORD PTR [eax], edx

; 1419 : 			BlockListHead = newBlockListHead;

	mov	eax, DWORD PTR _this$[ebp]
	mov	ecx, DWORD PTR _newBlockListHead$4[ebp]
	mov	DWORD PTR [eax+4], ecx

; 1420 : 			FreeListHead = (T*)((intptr_t)BlockListHead + sizeof(void*));

	mov	eax, DWORD PTR _this$[ebp]
	mov	ecx, DWORD PTR [eax+4]
	add	ecx, 4
	mov	edx, DWORD PTR _this$[ebp]
	mov	DWORD PTR [edx], ecx

; 1421 : 			for (int i = 0; i < BLOCK_SIZE; i++)

	mov	DWORD PTR _i$3[ebp], 0
	jmp	SHORT $LN3@Allocate_O
$LN2@Allocate_O:
	mov	eax, DWORD PTR _i$3[ebp]
	add	eax, 1
	mov	DWORD PTR _i$3[ebp], eax
$LN3@Allocate_O:
	cmp	DWORD PTR _i$3[ebp], 256		; 00000100H
	jge	SHORT $LN1@Allocate_O

; 1422 : 				(T*&)FreeListHead[i] = &FreeListHead[i+1];

	mov	eax, DWORD PTR _this$[ebp]
	mov	ecx, DWORD PTR [eax]
	mov	edx, DWORD PTR _i$3[ebp]
	lea	eax, DWORD PTR [ecx+edx*8+8]
	mov	ecx, DWORD PTR _this$[ebp]
	mov	edx, DWORD PTR [ecx]
	mov	ecx, DWORD PTR _i$3[ebp]
	mov	DWORD PTR [edx+ecx*8], eax
	jmp	SHORT $LN2@Allocate_O
$LN1@Allocate_O:

; 1423 : 			
; 1424 : 			(T*&)FreeListHead[BLOCK_SIZE-1] = NULL;

	mov	eax, 8
	imul	eax, 255				; 000000ffH
	mov	ecx, DWORD PTR _this$[ebp]
	mov	edx, DWORD PTR [ecx]
	mov	DWORD PTR [eax+edx], 0

; 1425 : 			FreeObjectCount += BLOCK_SIZE;

	mov	eax, DWORD PTR _this$[ebp]
	mov	ecx, DWORD PTR [eax+8]
	add	ecx, 256				; 00000100H
	mov	edx, DWORD PTR _this$[ebp]
	mov	DWORD PTR [edx+8], ecx

; 1426 : 			TotalObjectCount += BLOCK_SIZE;

	mov	eax, DWORD PTR _this$[ebp]
	mov	ecx, DWORD PTR [eax+12]
	add	ecx, 256				; 00000100H
	mov	edx, DWORD PTR _this$[ebp]
	mov	DWORD PTR [edx+12], ecx
$LN4@Allocate_O:

; 1427 : 		}
; 1428 : 
; 1429 : 		T* object = FreeListHead;

	mov	eax, DWORD PTR _this$[ebp]
	mov	ecx, DWORD PTR [eax]
	mov	DWORD PTR _object$[ebp], ecx

; 1430 : 		FreeListHead = *(T**)(FreeListHead);

	mov	eax, DWORD PTR _this$[ebp]
	mov	ecx, DWORD PTR [eax]
	mov	edx, DWORD PTR _this$[ebp]
	mov	eax, DWORD PTR [ecx]
	mov	DWORD PTR [edx], eax

; 1431 : 		FreeObjectCount--;

	mov	eax, DWORD PTR _this$[ebp]
	mov	ecx, DWORD PTR [eax+8]
	sub	ecx, 1
	mov	edx, DWORD PTR _this$[ebp]
	mov	DWORD PTR [edx+8], ecx

; 1432 : 		return object;

	mov	eax, DWORD PTR _object$[ebp]
	mov	DWORD PTR $T2[ebp], eax
	lea	ecx, DWORD PTR _lock$[ebp]
	call	??1LockClass@FastCriticalSectionClass@@QAE@XZ ; FastCriticalSectionClass::LockClass::~LockClass
	mov	eax, DWORD PTR $T2[ebp]

; 1433 : 	}

	pop	edi
	pop	esi
	pop	ebx
	mov	esp, ebp
	pop	ebp
	ret	0
?Allocate_Object_Memory@?$ObjectPoolClass@VGenericSLNode@@$0BAA@@@QAEPAVGenericSLNode@@XZ ENDP ; ObjectPoolClass<GenericSLNode,256>::Allocate_Object_Memory
_TEXT	ENDS
; Function compile flags: /Odtp /ZI
; File x:\github\renegade\dragonade_rxd\scripts\engine_vector.h
;	COMDAT ??1?$ObjectPoolClass@VGenericSLNode@@$0BAA@@@QAE@XZ
_TEXT	SEGMENT
$T1 = -336						; size = 4
_nextBlock$2 = -268					; size = 4
_block$ = -264						; size = 4
_buffer$3 = -260					; size = 256
_this$ = -4						; size = 4
??1?$ObjectPoolClass@VGenericSLNode@@$0BAA@@@QAE@XZ PROC ; ObjectPoolClass<GenericSLNode,256>::~ObjectPoolClass<GenericSLNode,256>, COMDAT
; _this$ = ecx

; 1393 : 	{

	push	ebp
	mov	ebp, esp
	sub	esp, 336				; 00000150H
	push	ebx
	push	esi
	push	edi
	mov	DWORD PTR _this$[ebp], ecx

; 1394 : 		// If you hit the following assert, one or more objects were not freed.
; 1395 : 		if (FreeObjectCount != TotalObjectCount)

	mov	eax, DWORD PTR _this$[ebp]
	mov	ecx, DWORD PTR _this$[ebp]
	mov	edx, DWORD PTR [eax+8]
	cmp	edx, DWORD PTR [ecx+12]
	je	SHORT $LN3@ObjectPool

; 1396 : 		{
; 1397 : 			char buffer[256];
; 1398 : 			sprintf(buffer, "%d memory leaks found in " __FUNCTION__ "\n", TotalObjectCount - FreeObjectCount);

	mov	eax, DWORD PTR _this$[ebp]
	mov	ecx, DWORD PTR _this$[ebp]
	mov	edx, DWORD PTR [eax+12]
	sub	edx, DWORD PTR [ecx+8]
	push	edx
	push	OFFSET ??_C@_0FF@NOANHENP@?$CFd?5memory?5leaks?5found?5in?5ObjectP@
	lea	eax, DWORD PTR _buffer$3[ebp]
	push	eax
	call	DWORD PTR __imp__sprintf
	add	esp, 12					; 0000000cH

; 1399 : 			OutputDebugStringA(buffer);

	lea	eax, DWORD PTR _buffer$3[ebp]
	push	eax
	call	DWORD PTR __imp__OutputDebugStringA@4
$LN3@ObjectPool:

; 1400 : 			// TODO: There are quite a few mem leaks of this kind. Fix them.
; 1401 : 		}
; 1402 : 
; 1403 : 		void* block = BlockListHead;

	mov	eax, DWORD PTR _this$[ebp]
	mov	ecx, DWORD PTR [eax+4]
	mov	DWORD PTR _block$[ebp], ecx
$LN2@ObjectPool:

; 1404 :  		while (block)

	cmp	DWORD PTR _block$[ebp], 0
	je	SHORT $LN4@ObjectPool

; 1405 : 		{
; 1406 : 			void* nextBlock = *(void**)block;

	mov	eax, DWORD PTR _block$[ebp]
	mov	ecx, DWORD PTR [eax]
	mov	DWORD PTR _nextBlock$2[ebp], ecx

; 1407 : 			delete[] block;

	push	OFFSET ??_C@_0DL@BOENBDGI@ObjectPoolClass?$DMclass?5GenericSLN@
	push	1407					; 0000057fH
	push	OFFSET ??_C@_0DJ@NKJHEMPA@x?3?2github?2renegade?2dragonade_rxd@
	call	?SetThreadTrackingInformation@@YAXPBDI0@Z ; SetThreadTrackingInformation
	add	esp, 12					; 0000000cH
	xor	eax, eax
	je	SHORT $LN7@ObjectPool
	xor	ecx, ecx
	jne	SHORT $LN6@ObjectPool
	push	1407					; 0000057fH
	push	OFFSET ??_C@_1HC@JEIHKHFK@?$AAx?$AA?3?$AA?2?$AAg?$AAi?$AAt?$AAh?$AAu?$AAb?$AA?2?$AAr?$AAe?$AAn?$AAe?$AAg?$AAa?$AAd?$AAe?$AA?2?$AAd?$AAr?$AAa?$AAg?$AAo?$AAn?$AAa?$AAd?$AAe?$AA_?$AAr?$AAx?$AAd@
	push	OFFSET ??_C@_1M@HLGKFCJM@?$AAf?$AAa?$AAl?$AAs?$AAe?$AA?$AA@
	call	DWORD PTR __imp___wassert
	add	esp, 12					; 0000000cH
$LN6@ObjectPool:
	jmp	SHORT $LN8@ObjectPool
$LN7@ObjectPool:
	mov	eax, DWORD PTR _block$[ebp]
	mov	DWORD PTR $T1[ebp], eax
	mov	ecx, DWORD PTR $T1[ebp]
	push	ecx
	call	??_V@YAXPAX@Z				; operator delete[]
	add	esp, 4
$LN8@ObjectPool:

; 1408 : 			block = nextBlock;

	mov	eax, DWORD PTR _nextBlock$2[ebp]
	mov	DWORD PTR _block$[ebp], eax

; 1409 : 		}

	jmp	SHORT $LN2@ObjectPool
$LN4@ObjectPool:

; 1410 : 	}

	pop	edi
	pop	esi
	pop	ebx
	mov	esp, ebp
	pop	ebp
	ret	0
??1?$ObjectPoolClass@VGenericSLNode@@$0BAA@@@QAE@XZ ENDP ; ObjectPoolClass<GenericSLNode,256>::~ObjectPoolClass<GenericSLNode,256>
_TEXT	ENDS
; Function compile flags: /Odtp /ZI
; File x:\github\renegade\dragonade_rxd\scripts\engine_vector.h
;	COMDAT ??0?$ObjectPoolClass@VGenericSLNode@@$0BAA@@@QAE@XZ
_TEXT	SEGMENT
_this$ = -4						; size = 4
??0?$ObjectPoolClass@VGenericSLNode@@$0BAA@@@QAE@XZ PROC ; ObjectPoolClass<GenericSLNode,256>::ObjectPoolClass<GenericSLNode,256>, COMDAT
; _this$ = ecx

; 1384 : 	ObjectPoolClass()

	push	ebp
	mov	ebp, esp
	sub	esp, 68					; 00000044H
	push	ebx
	push	esi
	push	edi
	mov	DWORD PTR _this$[ebp], ecx
	mov	ecx, DWORD PTR _this$[ebp]
	add	ecx, 16					; 00000010H
	call	??0FastCriticalSectionClass@@QAE@XZ	; FastCriticalSectionClass::FastCriticalSectionClass
	mov	eax, DWORD PTR [eax]

; 1385 : 	{
; 1386 : 		FreeListHead = 0;

	mov	eax, DWORD PTR _this$[ebp]
	mov	DWORD PTR [eax], 0

; 1387 : 		BlockListHead = 0;

	mov	eax, DWORD PTR _this$[ebp]
	mov	DWORD PTR [eax+4], 0

; 1388 : 		FreeObjectCount = 0;

	mov	eax, DWORD PTR _this$[ebp]
	mov	DWORD PTR [eax+8], 0

; 1389 : 		TotalObjectCount = 0;

	mov	eax, DWORD PTR _this$[ebp]
	mov	DWORD PTR [eax+12], 0

; 1390 : 	}

	mov	eax, DWORD PTR _this$[ebp]
	pop	edi
	pop	esi
	pop	ebx
	mov	esp, ebp
	pop	ebp
	ret	0
??0?$ObjectPoolClass@VGenericSLNode@@$0BAA@@@QAE@XZ ENDP ; ObjectPoolClass<GenericSLNode,256>::ObjectPoolClass<GenericSLNode,256>
_TEXT	ENDS
; Function compile flags: /Odtp /ZI
; File x:\github\renegade\dragonade_rxd\scripts\singleton.h
;	COMDAT ?getInstance@?$Singleton@V?$ObjectPoolClass@VGenericSLNode@@$0BAA@@@@@SAAAV?$ObjectPoolClass@VGenericSLNode@@$0BAA@@@XZ
_TEXT	SEGMENT
?getInstance@?$Singleton@V?$ObjectPoolClass@VGenericSLNode@@$0BAA@@@@@SAAAV?$ObjectPoolClass@VGenericSLNode@@$0BAA@@@XZ PROC ; Singleton<ObjectPoolClass<GenericSLNode,256> >::getInstance, COMDAT

; 59   : 	{

	push	ebp
	mov	ebp, esp
	sub	esp, 64					; 00000040H
	push	ebx
	push	esi
	push	edi

; 60   : 		static T instancex;

	mov	eax, DWORD PTR ??_B?1??getInstance@?$Singleton@V?$ObjectPoolClass@VGenericSLNode@@$0BAA@@@@@SAAAV?$ObjectPoolClass@VGenericSLNode@@$0BAA@@@XZ@51
	and	eax, 1
	jne	SHORT $LN1@getInstanc
	mov	eax, DWORD PTR ??_B?1??getInstance@?$Singleton@V?$ObjectPoolClass@VGenericSLNode@@$0BAA@@@@@SAAAV?$ObjectPoolClass@VGenericSLNode@@$0BAA@@@XZ@51
	or	eax, 1
	mov	DWORD PTR ??_B?1??getInstance@?$Singleton@V?$ObjectPoolClass@VGenericSLNode@@$0BAA@@@@@SAAAV?$ObjectPoolClass@VGenericSLNode@@$0BAA@@@XZ@51, eax
	mov	ecx, OFFSET ?instancex@?1??getInstance@?$Singleton@V?$ObjectPoolClass@VGenericSLNode@@$0BAA@@@@@SAAAV?$ObjectPoolClass@VGenericSLNode@@$0BAA@@@XZ@4V3@A ; `Singleton<ObjectPoolClass<GenericSLNode,256> >::getInstance'::`2'::instancex
	call	??0?$ObjectPoolClass@VGenericSLNode@@$0BAA@@@QAE@XZ ; ObjectPoolClass<GenericSLNode,256>::ObjectPoolClass<GenericSLNode,256>
	push	OFFSET ??__Finstancex@?1??getInstance@?$Singleton@V?$ObjectPoolClass@VGenericSLNode@@$0BAA@@@@@SAAAV?$ObjectPoolClass@VGenericSLNode@@$0BAA@@@XZ@YAXXZ ; `Singleton<ObjectPoolClass<GenericSLNode,256> >::getInstance'::`2'::`dynamic atexit destructor for 'instancex''
	call	_atexit
	add	esp, 4
$LN1@getInstanc:

; 61   : 		return instancex;

	mov	eax, OFFSET ?instancex@?1??getInstance@?$Singleton@V?$ObjectPoolClass@VGenericSLNode@@$0BAA@@@@@SAAAV?$ObjectPoolClass@VGenericSLNode@@$0BAA@@@XZ@4V3@A ; `Singleton<ObjectPoolClass<GenericSLNode,256> >::getInstance'::`2'::instancex

; 62   : 	}

	pop	edi
	pop	esi
	pop	ebx
	mov	esp, ebp
	pop	ebp
	ret	0
?getInstance@?$Singleton@V?$ObjectPoolClass@VGenericSLNode@@$0BAA@@@@@SAAAV?$ObjectPoolClass@VGenericSLNode@@$0BAA@@@XZ ENDP ; Singleton<ObjectPoolClass<GenericSLNode,256> >::getInstance
_TEXT	ENDS
; Function compile flags: /Odtp /ZI
; File x:\github\renegade\dragonade_rxd\scripts\slist.h
;	COMDAT ??0?$SLNode@VScriptZoneGameObj@@@@IAE@PAVScriptZoneGameObj@@@Z
_TEXT	SEGMENT
_this$ = -4						; size = 4
_obj$ = 8						; size = 4
??0?$SLNode@VScriptZoneGameObj@@@@IAE@PAVScriptZoneGameObj@@@Z PROC ; SLNode<ScriptZoneGameObj>::SLNode<ScriptZoneGameObj>, COMDAT
; _this$ = ecx

; 69   : 	SLNode(T *obj) : GenericSLNode(obj) {}

	push	ebp
	mov	ebp, esp
	sub	esp, 68					; 00000044H
	push	ebx
	push	esi
	push	edi
	mov	DWORD PTR _this$[ebp], ecx
	mov	eax, DWORD PTR _obj$[ebp]
	push	eax
	mov	ecx, DWORD PTR _this$[ebp]
	call	??0GenericSLNode@@IAE@PAX@Z		; GenericSLNode::GenericSLNode
	mov	eax, DWORD PTR _this$[ebp]
	pop	edi
	pop	esi
	pop	ebx
	mov	esp, ebp
	pop	ebp
	ret	4
??0?$SLNode@VScriptZoneGameObj@@@@IAE@PAVScriptZoneGameObj@@@Z ENDP ; SLNode<ScriptZoneGameObj>::SLNode<ScriptZoneGameObj>
_TEXT	ENDS
; Function compile flags: /Odtp /ZI
; File x:\github\renegade\dragonade_rxd\scripts\slist.h
;	COMDAT ?Data@?$SLNode@VScriptZoneGameObj@@@@QBEPAVScriptZoneGameObj@@XZ
_TEXT	SEGMENT
_this$ = -4						; size = 4
?Data@?$SLNode@VScriptZoneGameObj@@@@QBEPAVScriptZoneGameObj@@XZ PROC ; SLNode<ScriptZoneGameObj>::Data, COMDAT
; _this$ = ecx

; 65   : 	{

	push	ebp
	mov	ebp, esp
	sub	esp, 68					; 00000044H
	push	ebx
	push	esi
	push	edi
	mov	DWORD PTR _this$[ebp], ecx

; 66   : 		return (T*)NodeData;

	mov	eax, DWORD PTR _this$[ebp]
	mov	eax, DWORD PTR [eax+4]

; 67   : 	}

	pop	edi
	pop	esi
	pop	ebx
	mov	esp, ebp
	pop	ebp
	ret	0
?Data@?$SLNode@VScriptZoneGameObj@@@@QBEPAVScriptZoneGameObj@@XZ ENDP ; SLNode<ScriptZoneGameObj>::Data
_TEXT	ENDS
; Function compile flags: /Odtp /ZI
; File x:\github\renegade\dragonade_rxd\scripts\slist.h
;	COMDAT ?Next@?$SLNode@VScriptZoneGameObj@@@@QBEPAV1@XZ
_TEXT	SEGMENT
_this$ = -4						; size = 4
?Next@?$SLNode@VScriptZoneGameObj@@@@QBEPAV1@XZ PROC	; SLNode<ScriptZoneGameObj>::Next, COMDAT
; _this$ = ecx

; 61   : 	{

	push	ebp
	mov	ebp, esp
	sub	esp, 68					; 00000044H
	push	ebx
	push	esi
	push	edi
	mov	DWORD PTR _this$[ebp], ecx

; 62   : 		return (SLNode<T>*)NodeNext;

	mov	eax, DWORD PTR _this$[ebp]
	mov	eax, DWORD PTR [eax]

; 63   : 	}

	pop	edi
	pop	esi
	pop	ebx
	mov	esp, ebp
	pop	ebp
	ret	0
?Next@?$SLNode@VScriptZoneGameObj@@@@QBEPAV1@XZ ENDP	; SLNode<ScriptZoneGameObj>::Next
_TEXT	ENDS
; Function compile flags: /Odtp /ZI
; File x:\github\renegade\dragonade_rxd\scripts\slist.h
;	COMDAT ?Set_Next@?$SLNode@VScriptZoneGameObj@@@@QAEXPAV1@@Z
_TEXT	SEGMENT
_this$ = -4						; size = 4
_n$ = 8							; size = 4
?Set_Next@?$SLNode@VScriptZoneGameObj@@@@QAEXPAV1@@Z PROC ; SLNode<ScriptZoneGameObj>::Set_Next, COMDAT
; _this$ = ecx

; 57   : 	{

	push	ebp
	mov	ebp, esp
	sub	esp, 68					; 00000044H
	push	ebx
	push	esi
	push	edi
	mov	DWORD PTR _this$[ebp], ecx

; 58   : 		NodeNext = n;

	mov	eax, DWORD PTR _this$[ebp]
	mov	ecx, DWORD PTR _n$[ebp]
	mov	DWORD PTR [eax], ecx

; 59   : 	}

	pop	edi
	pop	esi
	pop	ebx
	mov	esp, ebp
	pop	ebp
	ret	4
?Set_Next@?$SLNode@VScriptZoneGameObj@@@@QAEXPAV1@@Z ENDP ; SLNode<ScriptZoneGameObj>::Set_Next
_TEXT	ENDS
; Function compile flags: /Odtp /ZI
; File x:\github\renegade\dragonade_rxd\scripts\slist.h
;	COMDAT ??0?$SLNode@VVehicleGameObj@@@@IAE@PAVVehicleGameObj@@@Z
_TEXT	SEGMENT
_this$ = -4						; size = 4
_obj$ = 8						; size = 4
??0?$SLNode@VVehicleGameObj@@@@IAE@PAVVehicleGameObj@@@Z PROC ; SLNode<VehicleGameObj>::SLNode<VehicleGameObj>, COMDAT
; _this$ = ecx

; 69   : 	SLNode(T *obj) : GenericSLNode(obj) {}

	push	ebp
	mov	ebp, esp
	sub	esp, 68					; 00000044H
	push	ebx
	push	esi
	push	edi
	mov	DWORD PTR _this$[ebp], ecx
	mov	eax, DWORD PTR _obj$[ebp]
	push	eax
	mov	ecx, DWORD PTR _this$[ebp]
	call	??0GenericSLNode@@IAE@PAX@Z		; GenericSLNode::GenericSLNode
	mov	eax, DWORD PTR _this$[ebp]
	pop	edi
	pop	esi
	pop	ebx
	mov	esp, ebp
	pop	ebp
	ret	4
??0?$SLNode@VVehicleGameObj@@@@IAE@PAVVehicleGameObj@@@Z ENDP ; SLNode<VehicleGameObj>::SLNode<VehicleGameObj>
_TEXT	ENDS
; Function compile flags: /Odtp /ZI
; File x:\github\renegade\dragonade_rxd\scripts\slist.h
;	COMDAT ?Data@?$SLNode@VVehicleGameObj@@@@QBEPAVVehicleGameObj@@XZ
_TEXT	SEGMENT
_this$ = -4						; size = 4
?Data@?$SLNode@VVehicleGameObj@@@@QBEPAVVehicleGameObj@@XZ PROC ; SLNode<VehicleGameObj>::Data, COMDAT
; _this$ = ecx

; 65   : 	{

	push	ebp
	mov	ebp, esp
	sub	esp, 68					; 00000044H
	push	ebx
	push	esi
	push	edi
	mov	DWORD PTR _this$[ebp], ecx

; 66   : 		return (T*)NodeData;

	mov	eax, DWORD PTR _this$[ebp]
	mov	eax, DWORD PTR [eax+4]

; 67   : 	}

	pop	edi
	pop	esi
	pop	ebx
	mov	esp, ebp
	pop	ebp
	ret	0
?Data@?$SLNode@VVehicleGameObj@@@@QBEPAVVehicleGameObj@@XZ ENDP ; SLNode<VehicleGameObj>::Data
_TEXT	ENDS
; Function compile flags: /Odtp /ZI
; File x:\github\renegade\dragonade_rxd\scripts\slist.h
;	COMDAT ?Next@?$SLNode@VVehicleGameObj@@@@QBEPAV1@XZ
_TEXT	SEGMENT
_this$ = -4						; size = 4
?Next@?$SLNode@VVehicleGameObj@@@@QBEPAV1@XZ PROC	; SLNode<VehicleGameObj>::Next, COMDAT
; _this$ = ecx

; 61   : 	{

	push	ebp
	mov	ebp, esp
	sub	esp, 68					; 00000044H
	push	ebx
	push	esi
	push	edi
	mov	DWORD PTR _this$[ebp], ecx

; 62   : 		return (SLNode<T>*)NodeNext;

	mov	eax, DWORD PTR _this$[ebp]
	mov	eax, DWORD PTR [eax]

; 63   : 	}

	pop	edi
	pop	esi
	pop	ebx
	mov	esp, ebp
	pop	ebp
	ret	0
?Next@?$SLNode@VVehicleGameObj@@@@QBEPAV1@XZ ENDP	; SLNode<VehicleGameObj>::Next
_TEXT	ENDS
; Function compile flags: /Odtp /ZI
; File x:\github\renegade\dragonade_rxd\scripts\slist.h
;	COMDAT ?Set_Next@?$SLNode@VVehicleGameObj@@@@QAEXPAV1@@Z
_TEXT	SEGMENT
_this$ = -4						; size = 4
_n$ = 8							; size = 4
?Set_Next@?$SLNode@VVehicleGameObj@@@@QAEXPAV1@@Z PROC	; SLNode<VehicleGameObj>::Set_Next, COMDAT
; _this$ = ecx

; 57   : 	{

	push	ebp
	mov	ebp, esp
	sub	esp, 68					; 00000044H
	push	ebx
	push	esi
	push	edi
	mov	DWORD PTR _this$[ebp], ecx

; 58   : 		NodeNext = n;

	mov	eax, DWORD PTR _this$[ebp]
	mov	ecx, DWORD PTR _n$[ebp]
	mov	DWORD PTR [eax], ecx

; 59   : 	}

	pop	edi
	pop	esi
	pop	ebx
	mov	esp, ebp
	pop	ebp
	ret	4
?Set_Next@?$SLNode@VVehicleGameObj@@@@QAEXPAV1@@Z ENDP	; SLNode<VehicleGameObj>::Set_Next
_TEXT	ENDS
; Function compile flags: /Odtp /ZI
; File x:\github\renegade\dragonade_rxd\scripts\slist.h
;	COMDAT ??0?$SLNode@VSoldierGameObj@@@@IAE@PAVSoldierGameObj@@@Z
_TEXT	SEGMENT
_this$ = -4						; size = 4
_obj$ = 8						; size = 4
??0?$SLNode@VSoldierGameObj@@@@IAE@PAVSoldierGameObj@@@Z PROC ; SLNode<SoldierGameObj>::SLNode<SoldierGameObj>, COMDAT
; _this$ = ecx

; 69   : 	SLNode(T *obj) : GenericSLNode(obj) {}

	push	ebp
	mov	ebp, esp
	sub	esp, 68					; 00000044H
	push	ebx
	push	esi
	push	edi
	mov	DWORD PTR _this$[ebp], ecx
	mov	eax, DWORD PTR _obj$[ebp]
	push	eax
	mov	ecx, DWORD PTR _this$[ebp]
	call	??0GenericSLNode@@IAE@PAX@Z		; GenericSLNode::GenericSLNode
	mov	eax, DWORD PTR _this$[ebp]
	pop	edi
	pop	esi
	pop	ebx
	mov	esp, ebp
	pop	ebp
	ret	4
??0?$SLNode@VSoldierGameObj@@@@IAE@PAVSoldierGameObj@@@Z ENDP ; SLNode<SoldierGameObj>::SLNode<SoldierGameObj>
_TEXT	ENDS
; Function compile flags: /Odtp /ZI
; File x:\github\renegade\dragonade_rxd\scripts\slist.h
;	COMDAT ?Data@?$SLNode@VSoldierGameObj@@@@QBEPAVSoldierGameObj@@XZ
_TEXT	SEGMENT
_this$ = -4						; size = 4
?Data@?$SLNode@VSoldierGameObj@@@@QBEPAVSoldierGameObj@@XZ PROC ; SLNode<SoldierGameObj>::Data, COMDAT
; _this$ = ecx

; 65   : 	{

	push	ebp
	mov	ebp, esp
	sub	esp, 68					; 00000044H
	push	ebx
	push	esi
	push	edi
	mov	DWORD PTR _this$[ebp], ecx

; 66   : 		return (T*)NodeData;

	mov	eax, DWORD PTR _this$[ebp]
	mov	eax, DWORD PTR [eax+4]

; 67   : 	}

	pop	edi
	pop	esi
	pop	ebx
	mov	esp, ebp
	pop	ebp
	ret	0
?Data@?$SLNode@VSoldierGameObj@@@@QBEPAVSoldierGameObj@@XZ ENDP ; SLNode<SoldierGameObj>::Data
_TEXT	ENDS
; Function compile flags: /Odtp /ZI
; File x:\github\renegade\dragonade_rxd\scripts\slist.h
;	COMDAT ?Next@?$SLNode@VSoldierGameObj@@@@QBEPAV1@XZ
_TEXT	SEGMENT
_this$ = -4						; size = 4
?Next@?$SLNode@VSoldierGameObj@@@@QBEPAV1@XZ PROC	; SLNode<SoldierGameObj>::Next, COMDAT
; _this$ = ecx

; 61   : 	{

	push	ebp
	mov	ebp, esp
	sub	esp, 68					; 00000044H
	push	ebx
	push	esi
	push	edi
	mov	DWORD PTR _this$[ebp], ecx

; 62   : 		return (SLNode<T>*)NodeNext;

	mov	eax, DWORD PTR _this$[ebp]
	mov	eax, DWORD PTR [eax]

; 63   : 	}

	pop	edi
	pop	esi
	pop	ebx
	mov	esp, ebp
	pop	ebp
	ret	0
?Next@?$SLNode@VSoldierGameObj@@@@QBEPAV1@XZ ENDP	; SLNode<SoldierGameObj>::Next
_TEXT	ENDS
; Function compile flags: /Odtp /ZI
; File x:\github\renegade\dragonade_rxd\scripts\slist.h
;	COMDAT ?Set_Next@?$SLNode@VSoldierGameObj@@@@QAEXPAV1@@Z
_TEXT	SEGMENT
_this$ = -4						; size = 4
_n$ = 8							; size = 4
?Set_Next@?$SLNode@VSoldierGameObj@@@@QAEXPAV1@@Z PROC	; SLNode<SoldierGameObj>::Set_Next, COMDAT
; _this$ = ecx

; 57   : 	{

	push	ebp
	mov	ebp, esp
	sub	esp, 68					; 00000044H
	push	ebx
	push	esi
	push	edi
	mov	DWORD PTR _this$[ebp], ecx

; 58   : 		NodeNext = n;

	mov	eax, DWORD PTR _this$[ebp]
	mov	ecx, DWORD PTR _n$[ebp]
	mov	DWORD PTR [eax], ecx

; 59   : 	}

	pop	edi
	pop	esi
	pop	ebx
	mov	esp, ebp
	pop	ebp
	ret	4
?Set_Next@?$SLNode@VSoldierGameObj@@@@QAEXPAV1@@Z ENDP	; SLNode<SoldierGameObj>::Set_Next
_TEXT	ENDS
; Function compile flags: /Odtp /ZI
; File x:\github\renegade\dragonade_rxd\scripts\slist.h
;	COMDAT ??0?$SLNode@VBeaconGameObj@@@@IAE@PAVBeaconGameObj@@@Z
_TEXT	SEGMENT
_this$ = -4						; size = 4
_obj$ = 8						; size = 4
??0?$SLNode@VBeaconGameObj@@@@IAE@PAVBeaconGameObj@@@Z PROC ; SLNode<BeaconGameObj>::SLNode<BeaconGameObj>, COMDAT
; _this$ = ecx

; 69   : 	SLNode(T *obj) : GenericSLNode(obj) {}

	push	ebp
	mov	ebp, esp
	sub	esp, 68					; 00000044H
	push	ebx
	push	esi
	push	edi
	mov	DWORD PTR _this$[ebp], ecx
	mov	eax, DWORD PTR _obj$[ebp]
	push	eax
	mov	ecx, DWORD PTR _this$[ebp]
	call	??0GenericSLNode@@IAE@PAX@Z		; GenericSLNode::GenericSLNode
	mov	eax, DWORD PTR _this$[ebp]
	pop	edi
	pop	esi
	pop	ebx
	mov	esp, ebp
	pop	ebp
	ret	4
??0?$SLNode@VBeaconGameObj@@@@IAE@PAVBeaconGameObj@@@Z ENDP ; SLNode<BeaconGameObj>::SLNode<BeaconGameObj>
_TEXT	ENDS
; Function compile flags: /Odtp /ZI
; File x:\github\renegade\dragonade_rxd\scripts\slist.h
;	COMDAT ?Data@?$SLNode@VBeaconGameObj@@@@QBEPAVBeaconGameObj@@XZ
_TEXT	SEGMENT
_this$ = -4						; size = 4
?Data@?$SLNode@VBeaconGameObj@@@@QBEPAVBeaconGameObj@@XZ PROC ; SLNode<BeaconGameObj>::Data, COMDAT
; _this$ = ecx

; 65   : 	{

	push	ebp
	mov	ebp, esp
	sub	esp, 68					; 00000044H
	push	ebx
	push	esi
	push	edi
	mov	DWORD PTR _this$[ebp], ecx

; 66   : 		return (T*)NodeData;

	mov	eax, DWORD PTR _this$[ebp]
	mov	eax, DWORD PTR [eax+4]

; 67   : 	}

	pop	edi
	pop	esi
	pop	ebx
	mov	esp, ebp
	pop	ebp
	ret	0
?Data@?$SLNode@VBeaconGameObj@@@@QBEPAVBeaconGameObj@@XZ ENDP ; SLNode<BeaconGameObj>::Data
_TEXT	ENDS
; Function compile flags: /Odtp /ZI
; File x:\github\renegade\dragonade_rxd\scripts\slist.h
;	COMDAT ?Next@?$SLNode@VBeaconGameObj@@@@QBEPAV1@XZ
_TEXT	SEGMENT
_this$ = -4						; size = 4
?Next@?$SLNode@VBeaconGameObj@@@@QBEPAV1@XZ PROC	; SLNode<BeaconGameObj>::Next, COMDAT
; _this$ = ecx

; 61   : 	{

	push	ebp
	mov	ebp, esp
	sub	esp, 68					; 00000044H
	push	ebx
	push	esi
	push	edi
	mov	DWORD PTR _this$[ebp], ecx

; 62   : 		return (SLNode<T>*)NodeNext;

	mov	eax, DWORD PTR _this$[ebp]
	mov	eax, DWORD PTR [eax]

; 63   : 	}

	pop	edi
	pop	esi
	pop	ebx
	mov	esp, ebp
	pop	ebp
	ret	0
?Next@?$SLNode@VBeaconGameObj@@@@QBEPAV1@XZ ENDP	; SLNode<BeaconGameObj>::Next
_TEXT	ENDS
; Function compile flags: /Odtp /ZI
; File x:\github\renegade\dragonade_rxd\scripts\slist.h
;	COMDAT ?Set_Next@?$SLNode@VBeaconGameObj@@@@QAEXPAV1@@Z
_TEXT	SEGMENT
_this$ = -4						; size = 4
_n$ = 8							; size = 4
?Set_Next@?$SLNode@VBeaconGameObj@@@@QAEXPAV1@@Z PROC	; SLNode<BeaconGameObj>::Set_Next, COMDAT
; _this$ = ecx

; 57   : 	{

	push	ebp
	mov	ebp, esp
	sub	esp, 68					; 00000044H
	push	ebx
	push	esi
	push	edi
	mov	DWORD PTR _this$[ebp], ecx

; 58   : 		NodeNext = n;

	mov	eax, DWORD PTR _this$[ebp]
	mov	ecx, DWORD PTR _n$[ebp]
	mov	DWORD PTR [eax], ecx

; 59   : 	}

	pop	edi
	pop	esi
	pop	ebx
	mov	esp, ebp
	pop	ebp
	ret	4
?Set_Next@?$SLNode@VBeaconGameObj@@@@QAEXPAV1@@Z ENDP	; SLNode<BeaconGameObj>::Set_Next
_TEXT	ENDS
; Function compile flags: /Odtp /ZI
; File x:\github\renegade\dragonade_rxd\scripts\slist.h
;	COMDAT ??0?$SLNode@VC4GameObj@@@@IAE@PAVC4GameObj@@@Z
_TEXT	SEGMENT
_this$ = -4						; size = 4
_obj$ = 8						; size = 4
??0?$SLNode@VC4GameObj@@@@IAE@PAVC4GameObj@@@Z PROC	; SLNode<C4GameObj>::SLNode<C4GameObj>, COMDAT
; _this$ = ecx

; 69   : 	SLNode(T *obj) : GenericSLNode(obj) {}

	push	ebp
	mov	ebp, esp
	sub	esp, 68					; 00000044H
	push	ebx
	push	esi
	push	edi
	mov	DWORD PTR _this$[ebp], ecx
	mov	eax, DWORD PTR _obj$[ebp]
	push	eax
	mov	ecx, DWORD PTR _this$[ebp]
	call	??0GenericSLNode@@IAE@PAX@Z		; GenericSLNode::GenericSLNode
	mov	eax, DWORD PTR _this$[ebp]
	pop	edi
	pop	esi
	pop	ebx
	mov	esp, ebp
	pop	ebp
	ret	4
??0?$SLNode@VC4GameObj@@@@IAE@PAVC4GameObj@@@Z ENDP	; SLNode<C4GameObj>::SLNode<C4GameObj>
_TEXT	ENDS
; Function compile flags: /Odtp /ZI
; File x:\github\renegade\dragonade_rxd\scripts\slist.h
;	COMDAT ?Data@?$SLNode@VC4GameObj@@@@QBEPAVC4GameObj@@XZ
_TEXT	SEGMENT
_this$ = -4						; size = 4
?Data@?$SLNode@VC4GameObj@@@@QBEPAVC4GameObj@@XZ PROC	; SLNode<C4GameObj>::Data, COMDAT
; _this$ = ecx

; 65   : 	{

	push	ebp
	mov	ebp, esp
	sub	esp, 68					; 00000044H
	push	ebx
	push	esi
	push	edi
	mov	DWORD PTR _this$[ebp], ecx

; 66   : 		return (T*)NodeData;

	mov	eax, DWORD PTR _this$[ebp]
	mov	eax, DWORD PTR [eax+4]

; 67   : 	}

	pop	edi
	pop	esi
	pop	ebx
	mov	esp, ebp
	pop	ebp
	ret	0
?Data@?$SLNode@VC4GameObj@@@@QBEPAVC4GameObj@@XZ ENDP	; SLNode<C4GameObj>::Data
_TEXT	ENDS
; Function compile flags: /Odtp /ZI
; File x:\github\renegade\dragonade_rxd\scripts\slist.h
;	COMDAT ?Next@?$SLNode@VC4GameObj@@@@QBEPAV1@XZ
_TEXT	SEGMENT
_this$ = -4						; size = 4
?Next@?$SLNode@VC4GameObj@@@@QBEPAV1@XZ PROC		; SLNode<C4GameObj>::Next, COMDAT
; _this$ = ecx

; 61   : 	{

	push	ebp
	mov	ebp, esp
	sub	esp, 68					; 00000044H
	push	ebx
	push	esi
	push	edi
	mov	DWORD PTR _this$[ebp], ecx

; 62   : 		return (SLNode<T>*)NodeNext;

	mov	eax, DWORD PTR _this$[ebp]
	mov	eax, DWORD PTR [eax]

; 63   : 	}

	pop	edi
	pop	esi
	pop	ebx
	mov	esp, ebp
	pop	ebp
	ret	0
?Next@?$SLNode@VC4GameObj@@@@QBEPAV1@XZ ENDP		; SLNode<C4GameObj>::Next
_TEXT	ENDS
; Function compile flags: /Odtp /ZI
; File x:\github\renegade\dragonade_rxd\scripts\slist.h
;	COMDAT ?Set_Next@?$SLNode@VC4GameObj@@@@QAEXPAV1@@Z
_TEXT	SEGMENT
_this$ = -4						; size = 4
_n$ = 8							; size = 4
?Set_Next@?$SLNode@VC4GameObj@@@@QAEXPAV1@@Z PROC	; SLNode<C4GameObj>::Set_Next, COMDAT
; _this$ = ecx

; 57   : 	{

	push	ebp
	mov	ebp, esp
	sub	esp, 68					; 00000044H
	push	ebx
	push	esi
	push	edi
	mov	DWORD PTR _this$[ebp], ecx

; 58   : 		NodeNext = n;

	mov	eax, DWORD PTR _this$[ebp]
	mov	ecx, DWORD PTR _n$[ebp]
	mov	DWORD PTR [eax], ecx

; 59   : 	}

	pop	edi
	pop	esi
	pop	ebx
	mov	esp, ebp
	pop	ebp
	ret	4
?Set_Next@?$SLNode@VC4GameObj@@@@QAEXPAV1@@Z ENDP	; SLNode<C4GameObj>::Set_Next
_TEXT	ENDS
; Function compile flags: /Odtp /ZI
;	COMDAT ??__F?ScriptZoneGameObjList@GameObjManager@@2V?$SList@VScriptZoneGameObj@@@@A@@YAXXZ
text$yd	SEGMENT
??__F?ScriptZoneGameObjList@GameObjManager@@2V?$SList@VScriptZoneGameObj@@@@A@@YAXXZ PROC ; `dynamic atexit destructor for 'GameObjManager::ScriptZoneGameObjList'', COMDAT
	push	ebp
	mov	ebp, esp
	sub	esp, 64					; 00000040H
	push	ebx
	push	esi
	push	edi
	mov	ecx, OFFSET ?ScriptZoneGameObjList@GameObjManager@@2V?$SList@VScriptZoneGameObj@@@@A ; GameObjManager::ScriptZoneGameObjList
	call	??1?$SList@VScriptZoneGameObj@@@@UAE@XZ	; SList<ScriptZoneGameObj>::~SList<ScriptZoneGameObj>
	pop	edi
	pop	esi
	pop	ebx
	mov	esp, ebp
	pop	ebp
	ret	0
??__F?ScriptZoneGameObjList@GameObjManager@@2V?$SList@VScriptZoneGameObj@@@@A@@YAXXZ ENDP ; `dynamic atexit destructor for 'GameObjManager::ScriptZoneGameObjList''
text$yd	ENDS
; Function compile flags: /Odtp /ZI
; File x:\github\renegade\dragonade_rxd\shared\shared.cpp
;	COMDAT ??__E?ScriptZoneGameObjList@GameObjManager@@2V?$SList@VScriptZoneGameObj@@@@A@@YAXXZ
text$yc	SEGMENT
??__E?ScriptZoneGameObjList@GameObjManager@@2V?$SList@VScriptZoneGameObj@@@@A@@YAXXZ PROC ; `dynamic initializer for 'GameObjManager::ScriptZoneGameObjList'', COMDAT

; 20   : SList<ScriptZoneGameObj> GameObjManager::ScriptZoneGameObjList;

	push	ebp
	mov	ebp, esp
	sub	esp, 64					; 00000040H
	push	ebx
	push	esi
	push	edi
	mov	ecx, OFFSET ?ScriptZoneGameObjList@GameObjManager@@2V?$SList@VScriptZoneGameObj@@@@A ; GameObjManager::ScriptZoneGameObjList
	call	??0?$SList@VScriptZoneGameObj@@@@QAE@XZ	; SList<ScriptZoneGameObj>::SList<ScriptZoneGameObj>
	push	OFFSET ??__F?ScriptZoneGameObjList@GameObjManager@@2V?$SList@VScriptZoneGameObj@@@@A@@YAXXZ ; `dynamic atexit destructor for 'GameObjManager::ScriptZoneGameObjList''
	call	_atexit
	add	esp, 4
	pop	edi
	pop	esi
	pop	ebx
	mov	esp, ebp
	pop	ebp
	ret	0
??__E?ScriptZoneGameObjList@GameObjManager@@2V?$SList@VScriptZoneGameObj@@@@A@@YAXXZ ENDP ; `dynamic initializer for 'GameObjManager::ScriptZoneGameObjList''
text$yc	ENDS
; Function compile flags: /Odtp /ZI
;	COMDAT ??__F?VehicleGameObjList@GameObjManager@@2V?$SList@VVehicleGameObj@@@@A@@YAXXZ
text$yd	SEGMENT
??__F?VehicleGameObjList@GameObjManager@@2V?$SList@VVehicleGameObj@@@@A@@YAXXZ PROC ; `dynamic atexit destructor for 'GameObjManager::VehicleGameObjList'', COMDAT
	push	ebp
	mov	ebp, esp
	sub	esp, 64					; 00000040H
	push	ebx
	push	esi
	push	edi
	mov	ecx, OFFSET ?VehicleGameObjList@GameObjManager@@2V?$SList@VVehicleGameObj@@@@A ; GameObjManager::VehicleGameObjList
	call	??1?$SList@VVehicleGameObj@@@@UAE@XZ	; SList<VehicleGameObj>::~SList<VehicleGameObj>
	pop	edi
	pop	esi
	pop	ebx
	mov	esp, ebp
	pop	ebp
	ret	0
??__F?VehicleGameObjList@GameObjManager@@2V?$SList@VVehicleGameObj@@@@A@@YAXXZ ENDP ; `dynamic atexit destructor for 'GameObjManager::VehicleGameObjList''
text$yd	ENDS
; Function compile flags: /Odtp /ZI
; File x:\github\renegade\dragonade_rxd\shared\shared.cpp
;	COMDAT ??__E?VehicleGameObjList@GameObjManager@@2V?$SList@VVehicleGameObj@@@@A@@YAXXZ
text$yc	SEGMENT
??__E?VehicleGameObjList@GameObjManager@@2V?$SList@VVehicleGameObj@@@@A@@YAXXZ PROC ; `dynamic initializer for 'GameObjManager::VehicleGameObjList'', COMDAT

; 19   : SList<VehicleGameObj> GameObjManager::VehicleGameObjList;

	push	ebp
	mov	ebp, esp
	sub	esp, 64					; 00000040H
	push	ebx
	push	esi
	push	edi
	mov	ecx, OFFSET ?VehicleGameObjList@GameObjManager@@2V?$SList@VVehicleGameObj@@@@A ; GameObjManager::VehicleGameObjList
	call	??0?$SList@VVehicleGameObj@@@@QAE@XZ	; SList<VehicleGameObj>::SList<VehicleGameObj>
	push	OFFSET ??__F?VehicleGameObjList@GameObjManager@@2V?$SList@VVehicleGameObj@@@@A@@YAXXZ ; `dynamic atexit destructor for 'GameObjManager::VehicleGameObjList''
	call	_atexit
	add	esp, 4
	pop	edi
	pop	esi
	pop	ebx
	mov	esp, ebp
	pop	ebp
	ret	0
??__E?VehicleGameObjList@GameObjManager@@2V?$SList@VVehicleGameObj@@@@A@@YAXXZ ENDP ; `dynamic initializer for 'GameObjManager::VehicleGameObjList''
text$yc	ENDS
; Function compile flags: /Odtp /ZI
;	COMDAT ??__F?SoldierGameObjList@GameObjManager@@2V?$SList@VSoldierGameObj@@@@A@@YAXXZ
text$yd	SEGMENT
??__F?SoldierGameObjList@GameObjManager@@2V?$SList@VSoldierGameObj@@@@A@@YAXXZ PROC ; `dynamic atexit destructor for 'GameObjManager::SoldierGameObjList'', COMDAT
	push	ebp
	mov	ebp, esp
	sub	esp, 64					; 00000040H
	push	ebx
	push	esi
	push	edi
	mov	ecx, OFFSET ?SoldierGameObjList@GameObjManager@@2V?$SList@VSoldierGameObj@@@@A ; GameObjManager::SoldierGameObjList
	call	??1?$SList@VSoldierGameObj@@@@UAE@XZ	; SList<SoldierGameObj>::~SList<SoldierGameObj>
	pop	edi
	pop	esi
	pop	ebx
	mov	esp, ebp
	pop	ebp
	ret	0
??__F?SoldierGameObjList@GameObjManager@@2V?$SList@VSoldierGameObj@@@@A@@YAXXZ ENDP ; `dynamic atexit destructor for 'GameObjManager::SoldierGameObjList''
text$yd	ENDS
; Function compile flags: /Odtp /ZI
; File x:\github\renegade\dragonade_rxd\shared\shared.cpp
;	COMDAT ??__E?SoldierGameObjList@GameObjManager@@2V?$SList@VSoldierGameObj@@@@A@@YAXXZ
text$yc	SEGMENT
??__E?SoldierGameObjList@GameObjManager@@2V?$SList@VSoldierGameObj@@@@A@@YAXXZ PROC ; `dynamic initializer for 'GameObjManager::SoldierGameObjList'', COMDAT

; 18   : SList<SoldierGameObj> GameObjManager::SoldierGameObjList;

	push	ebp
	mov	ebp, esp
	sub	esp, 64					; 00000040H
	push	ebx
	push	esi
	push	edi
	mov	ecx, OFFSET ?SoldierGameObjList@GameObjManager@@2V?$SList@VSoldierGameObj@@@@A ; GameObjManager::SoldierGameObjList
	call	??0?$SList@VSoldierGameObj@@@@QAE@XZ	; SList<SoldierGameObj>::SList<SoldierGameObj>
	push	OFFSET ??__F?SoldierGameObjList@GameObjManager@@2V?$SList@VSoldierGameObj@@@@A@@YAXXZ ; `dynamic atexit destructor for 'GameObjManager::SoldierGameObjList''
	call	_atexit
	add	esp, 4
	pop	edi
	pop	esi
	pop	ebx
	mov	esp, ebp
	pop	ebp
	ret	0
??__E?SoldierGameObjList@GameObjManager@@2V?$SList@VSoldierGameObj@@@@A@@YAXXZ ENDP ; `dynamic initializer for 'GameObjManager::SoldierGameObjList''
text$yc	ENDS
; Function compile flags: /Odtp /ZI
;	COMDAT ??__F?BeaconGameObjList@GameObjManager@@2V?$SList@VBeaconGameObj@@@@A@@YAXXZ
text$yd	SEGMENT
??__F?BeaconGameObjList@GameObjManager@@2V?$SList@VBeaconGameObj@@@@A@@YAXXZ PROC ; `dynamic atexit destructor for 'GameObjManager::BeaconGameObjList'', COMDAT
	push	ebp
	mov	ebp, esp
	sub	esp, 64					; 00000040H
	push	ebx
	push	esi
	push	edi
	mov	ecx, OFFSET ?BeaconGameObjList@GameObjManager@@2V?$SList@VBeaconGameObj@@@@A ; GameObjManager::BeaconGameObjList
	call	??1?$SList@VBeaconGameObj@@@@UAE@XZ	; SList<BeaconGameObj>::~SList<BeaconGameObj>
	pop	edi
	pop	esi
	pop	ebx
	mov	esp, ebp
	pop	ebp
	ret	0
??__F?BeaconGameObjList@GameObjManager@@2V?$SList@VBeaconGameObj@@@@A@@YAXXZ ENDP ; `dynamic atexit destructor for 'GameObjManager::BeaconGameObjList''
text$yd	ENDS
; Function compile flags: /Odtp /ZI
; File x:\github\renegade\dragonade_rxd\shared\shared.cpp
;	COMDAT ??__E?BeaconGameObjList@GameObjManager@@2V?$SList@VBeaconGameObj@@@@A@@YAXXZ
text$yc	SEGMENT
??__E?BeaconGameObjList@GameObjManager@@2V?$SList@VBeaconGameObj@@@@A@@YAXXZ PROC ; `dynamic initializer for 'GameObjManager::BeaconGameObjList'', COMDAT

; 17   : SList<BeaconGameObj> GameObjManager::BeaconGameObjList;

	push	ebp
	mov	ebp, esp
	sub	esp, 64					; 00000040H
	push	ebx
	push	esi
	push	edi
	mov	ecx, OFFSET ?BeaconGameObjList@GameObjManager@@2V?$SList@VBeaconGameObj@@@@A ; GameObjManager::BeaconGameObjList
	call	??0?$SList@VBeaconGameObj@@@@QAE@XZ	; SList<BeaconGameObj>::SList<BeaconGameObj>
	push	OFFSET ??__F?BeaconGameObjList@GameObjManager@@2V?$SList@VBeaconGameObj@@@@A@@YAXXZ ; `dynamic atexit destructor for 'GameObjManager::BeaconGameObjList''
	call	_atexit
	add	esp, 4
	pop	edi
	pop	esi
	pop	ebx
	mov	esp, ebp
	pop	ebp
	ret	0
??__E?BeaconGameObjList@GameObjManager@@2V?$SList@VBeaconGameObj@@@@A@@YAXXZ ENDP ; `dynamic initializer for 'GameObjManager::BeaconGameObjList''
text$yc	ENDS
; Function compile flags: /Odtp /ZI
;	COMDAT ??__F?C4GameObjList@GameObjManager@@2V?$SList@VC4GameObj@@@@A@@YAXXZ
text$yd	SEGMENT
??__F?C4GameObjList@GameObjManager@@2V?$SList@VC4GameObj@@@@A@@YAXXZ PROC ; `dynamic atexit destructor for 'GameObjManager::C4GameObjList'', COMDAT
	push	ebp
	mov	ebp, esp
	sub	esp, 64					; 00000040H
	push	ebx
	push	esi
	push	edi
	mov	ecx, OFFSET ?C4GameObjList@GameObjManager@@2V?$SList@VC4GameObj@@@@A ; GameObjManager::C4GameObjList
	call	??1?$SList@VC4GameObj@@@@UAE@XZ		; SList<C4GameObj>::~SList<C4GameObj>
	pop	edi
	pop	esi
	pop	ebx
	mov	esp, ebp
	pop	ebp
	ret	0
??__F?C4GameObjList@GameObjManager@@2V?$SList@VC4GameObj@@@@A@@YAXXZ ENDP ; `dynamic atexit destructor for 'GameObjManager::C4GameObjList''
text$yd	ENDS
; Function compile flags: /Odtp /ZI
; File x:\github\renegade\dragonade_rxd\shared\shared.cpp
;	COMDAT ??__E?C4GameObjList@GameObjManager@@2V?$SList@VC4GameObj@@@@A@@YAXXZ
text$yc	SEGMENT
??__E?C4GameObjList@GameObjManager@@2V?$SList@VC4GameObj@@@@A@@YAXXZ PROC ; `dynamic initializer for 'GameObjManager::C4GameObjList'', COMDAT

; 16   : SList<C4GameObj> GameObjManager::C4GameObjList;

	push	ebp
	mov	ebp, esp
	sub	esp, 64					; 00000040H
	push	ebx
	push	esi
	push	edi
	mov	ecx, OFFSET ?C4GameObjList@GameObjManager@@2V?$SList@VC4GameObj@@@@A ; GameObjManager::C4GameObjList
	call	??0?$SList@VC4GameObj@@@@QAE@XZ		; SList<C4GameObj>::SList<C4GameObj>
	push	OFFSET ??__F?C4GameObjList@GameObjManager@@2V?$SList@VC4GameObj@@@@A@@YAXXZ ; `dynamic atexit destructor for 'GameObjManager::C4GameObjList''
	call	_atexit
	add	esp, 4
	pop	edi
	pop	esi
	pop	ebx
	mov	esp, ebp
	pop	ebp
	ret	0
??__E?C4GameObjList@GameObjManager@@2V?$SList@VC4GameObj@@@@A@@YAXXZ ENDP ; `dynamic initializer for 'GameObjManager::C4GameObjList''
text$yc	ENDS
; Function compile flags: /Odtp /ZI
;	COMDAT ??_G?$SList@VScriptZoneGameObj@@@@UAEPAXI@Z
_TEXT	SEGMENT
_this$ = -4						; size = 4
___flags$ = 8						; size = 4
??_G?$SList@VScriptZoneGameObj@@@@UAEPAXI@Z PROC	; SList<ScriptZoneGameObj>::`scalar deleting destructor', COMDAT
; _this$ = ecx
	push	ebp
	mov	ebp, esp
	sub	esp, 68					; 00000044H
	push	ebx
	push	esi
	push	edi
	mov	DWORD PTR _this$[ebp], ecx
	mov	ecx, DWORD PTR _this$[ebp]
	call	??1?$SList@VScriptZoneGameObj@@@@UAE@XZ	; SList<ScriptZoneGameObj>::~SList<ScriptZoneGameObj>
	mov	eax, DWORD PTR ___flags$[ebp]
	and	eax, 1
	je	SHORT $LN1@scalar
	mov	eax, DWORD PTR _this$[ebp]
	push	eax
	call	??3@YAXPAX@Z				; operator delete
	add	esp, 4
$LN1@scalar:
	mov	eax, DWORD PTR _this$[ebp]
	pop	edi
	pop	esi
	pop	ebx
	mov	esp, ebp
	pop	ebp
	ret	4
??_G?$SList@VScriptZoneGameObj@@@@UAEPAXI@Z ENDP	; SList<ScriptZoneGameObj>::`scalar deleting destructor'
_TEXT	ENDS
; Function compile flags: /Odtp /ZI
; File x:\github\renegade\dragonade_rxd\scripts\slist.h
;	COMDAT ?Get_Count@?$SList@VScriptZoneGameObj@@@@UBEIXZ
_TEXT	SEGMENT
_node$1 = -12						; size = 4
_count$ = -8						; size = 4
_this$ = -4						; size = 4
?Get_Count@?$SList@VScriptZoneGameObj@@@@UBEIXZ PROC	; SList<ScriptZoneGameObj>::Get_Count, COMDAT
; _this$ = ecx

; 302  : 	{

	push	ebp
	mov	ebp, esp
	sub	esp, 76					; 0000004cH
	push	ebx
	push	esi
	push	edi
	mov	DWORD PTR _this$[ebp], ecx

; 303  : 		uint32 count = 0;

	mov	DWORD PTR _count$[ebp], 0

; 304  : 
; 305  : 		for (SLNode<T>* node = HeadNode; node; node = node->Next())

	mov	eax, DWORD PTR _this$[ebp]
	mov	ecx, DWORD PTR [eax+4]
	mov	DWORD PTR _node$1[ebp], ecx
	jmp	SHORT $LN3@Get_Count
$LN2@Get_Count:
	mov	ecx, DWORD PTR _node$1[ebp]
	call	?Next@?$SLNode@VScriptZoneGameObj@@@@QBEPAV1@XZ ; SLNode<ScriptZoneGameObj>::Next
	mov	DWORD PTR _node$1[ebp], eax
$LN3@Get_Count:
	cmp	DWORD PTR _node$1[ebp], 0
	je	SHORT $LN1@Get_Count

; 306  : 			++count;

	mov	eax, DWORD PTR _count$[ebp]
	add	eax, 1
	mov	DWORD PTR _count$[ebp], eax
	jmp	SHORT $LN2@Get_Count
$LN1@Get_Count:

; 307  : 
; 308  : 		return count;

	mov	eax, DWORD PTR _count$[ebp]

; 309  : 	}

	pop	edi
	pop	esi
	pop	ebx
	mov	esp, ebp
	pop	ebp
	ret	0
?Get_Count@?$SList@VScriptZoneGameObj@@@@UBEIXZ ENDP	; SList<ScriptZoneGameObj>::Get_Count
_TEXT	ENDS
; Function compile flags: /Odtp /ZI
; File x:\github\renegade\dragonade_rxd\scripts\slist.h
;	COMDAT ?Is_Empty@?$SList@VScriptZoneGameObj@@@@UBE_NXZ
_TEXT	SEGMENT
tv66 = -72						; size = 4
_this$ = -4						; size = 4
?Is_Empty@?$SList@VScriptZoneGameObj@@@@UBE_NXZ PROC	; SList<ScriptZoneGameObj>::Is_Empty, COMDAT
; _this$ = ecx

; 296  : 	{

	push	ebp
	mov	ebp, esp
	sub	esp, 72					; 00000048H
	push	ebx
	push	esi
	push	edi
	mov	DWORD PTR _this$[ebp], ecx

; 297  : 		return !HeadNode;

	mov	eax, DWORD PTR _this$[ebp]
	cmp	DWORD PTR [eax+4], 0
	jne	SHORT $LN3@Is_Empty
	mov	DWORD PTR tv66[ebp], 1
	jmp	SHORT $LN4@Is_Empty
$LN3@Is_Empty:
	mov	DWORD PTR tv66[ebp], 0
$LN4@Is_Empty:
	mov	al, BYTE PTR tv66[ebp]

; 298  : 	}

	pop	edi
	pop	esi
	pop	ebx
	mov	esp, ebp
	pop	ebp
	ret	0
?Is_Empty@?$SList@VScriptZoneGameObj@@@@UBE_NXZ ENDP	; SList<ScriptZoneGameObj>::Is_Empty
_TEXT	ENDS
; Function compile flags: /Odtp /ZI
; File x:\github\renegade\dragonade_rxd\scripts\slist.h
;	COMDAT ?Insert_After@?$SList@VScriptZoneGameObj@@@@UAE_NPAVScriptZoneGameObj@@PBV2@@Z
_TEXT	SEGMENT
tv140 = -88						; size = 4
tv142 = -84						; size = 4
$T1 = -80						; size = 4
_temp$2 = -12						; size = 4
_cur$ = -8						; size = 4
_this$ = -4						; size = 4
_newnode$ = 8						; size = 4
_oldnode$ = 12						; size = 4
?Insert_After@?$SList@VScriptZoneGameObj@@@@UAE_NPAVScriptZoneGameObj@@PBV2@@Z PROC ; SList<ScriptZoneGameObj>::Insert_After, COMDAT
; _this$ = ecx

; 267  : 	{

	push	ebp
	mov	ebp, esp
	sub	esp, 88					; 00000058H
	push	ebx
	push	esi
	push	edi
	mov	DWORD PTR _this$[ebp], ecx

; 268  : 		if (newnode == NULL)

	cmp	DWORD PTR _newnode$[ebp], 0
	jne	SHORT $LN8@Insert_Aft

; 269  : 		{
; 270  : 			return false;

	xor	al, al
	jmp	$LN9@Insert_Aft
$LN8@Insert_Aft:

; 271  : 		}
; 272  : 		if (oldnode == NULL || HeadNode == NULL)

	cmp	DWORD PTR _oldnode$[ebp], 0
	je	SHORT $LN6@Insert_Aft
	mov	eax, DWORD PTR _this$[ebp]
	cmp	DWORD PTR [eax+4], 0
	jne	SHORT $LN7@Insert_Aft
$LN6@Insert_Aft:

; 273  : 		{
; 274  : 			return(Add_Head(newnode));

	mov	eax, DWORD PTR _newnode$[ebp]
	push	eax
	mov	ecx, DWORD PTR _this$[ebp]
	mov	edx, DWORD PTR [ecx]
	mov	ecx, DWORD PTR _this$[ebp]
	mov	eax, DWORD PTR [edx+8]
	call	eax
	jmp	$LN9@Insert_Aft
$LN7@Insert_Aft:

; 275  : 		}
; 276  : 		SLNode<T> *cur;
; 277  : 		for (cur = HeadNode; cur && cur->Data() != oldnode; cur = cur->Next())

	mov	eax, DWORD PTR _this$[ebp]
	mov	ecx, DWORD PTR [eax+4]
	mov	DWORD PTR _cur$[ebp], ecx
	jmp	SHORT $LN5@Insert_Aft
$LN4@Insert_Aft:
	mov	ecx, DWORD PTR _cur$[ebp]
	call	?Next@?$SLNode@VScriptZoneGameObj@@@@QBEPAV1@XZ ; SLNode<ScriptZoneGameObj>::Next
	mov	DWORD PTR _cur$[ebp], eax
$LN5@Insert_Aft:
	cmp	DWORD PTR _cur$[ebp], 0
	je	SHORT $LN3@Insert_Aft
	mov	ecx, DWORD PTR _cur$[ebp]
	call	?Data@?$SLNode@VScriptZoneGameObj@@@@QBEPAVScriptZoneGameObj@@XZ ; SLNode<ScriptZoneGameObj>::Data
	cmp	eax, DWORD PTR _oldnode$[ebp]
	je	SHORT $LN3@Insert_Aft

; 278  : 		{
; 279  : 		}

	jmp	SHORT $LN4@Insert_Aft
$LN3@Insert_Aft:

; 280  : 		if (cur != NULL  && cur->Data() == oldnode)

	cmp	DWORD PTR _cur$[ebp], 0
	je	$LN2@Insert_Aft
	mov	ecx, DWORD PTR _cur$[ebp]
	call	?Data@?$SLNode@VScriptZoneGameObj@@@@QBEPAVScriptZoneGameObj@@XZ ; SLNode<ScriptZoneGameObj>::Data
	cmp	eax, DWORD PTR _oldnode$[ebp]
	jne	$LN2@Insert_Aft

; 281  : 		{
; 282  : 			if (cur == TailNode)

	mov	eax, DWORD PTR _this$[ebp]
	mov	ecx, DWORD PTR _cur$[ebp]
	cmp	ecx, DWORD PTR [eax+8]
	jne	SHORT $LN1@Insert_Aft

; 283  : 			{
; 284  : 				return(Add_Tail(newnode));

	mov	eax, DWORD PTR _newnode$[ebp]
	push	eax
	mov	ecx, DWORD PTR _this$[ebp]
	mov	edx, DWORD PTR [ecx]
	mov	ecx, DWORD PTR _this$[ebp]
	mov	eax, DWORD PTR [edx+16]
	call	eax
	jmp	$LN9@Insert_Aft
$LN1@Insert_Aft:

; 285  : 			}
; 286  : 			SLNode<T> *temp = new SLNode<T>(newnode);

	push	OFFSET ??_C@_0CN@NNHJDAKP@SList?$DMclass?5ScriptZoneGameObj?$DO?3?3@
	push	286					; 0000011eH
	push	OFFSET ??_C@_0DB@DFBFLIIO@x?3?2github?2renegade?2dragonade_rxd@
	call	?SetThreadTrackingInformation@@YAXPBDI0@Z ; SetThreadTrackingInformation
	add	esp, 12					; 0000000cH
	xor	eax, eax
	je	SHORT $LN14@Insert_Aft
	xor	ecx, ecx
	jne	SHORT $LN11@Insert_Aft
	push	286					; 0000011eH
	push	OFFSET ??_C@_1GC@LJHGOLFN@?$AAx?$AA?3?$AA?2?$AAg?$AAi?$AAt?$AAh?$AAu?$AAb?$AA?2?$AAr?$AAe?$AAn?$AAe?$AAg?$AAa?$AAd?$AAe?$AA?2?$AAd?$AAr?$AAa?$AAg?$AAo?$AAn?$AAa?$AAd?$AAe?$AA_?$AAr?$AAx?$AAd@
	push	OFFSET ??_C@_1M@HLGKFCJM@?$AAf?$AAa?$AAl?$AAs?$AAe?$AA?$AA@
	call	DWORD PTR __imp___wassert
	add	esp, 12					; 0000000cH
$LN11@Insert_Aft:
	mov	DWORD PTR tv142[ebp], 0
	jmp	SHORT $LN15@Insert_Aft
$LN14@Insert_Aft:
	push	0
	push	0
	push	0
	push	8
	call	??2?$AutoPoolClass@VGenericSLNode@@$0BAA@@@SAPAXIPBDI0@Z ; AutoPoolClass<GenericSLNode,256>::operator new
	add	esp, 16					; 00000010H
	mov	DWORD PTR $T1[ebp], eax
	cmp	DWORD PTR $T1[ebp], 0
	je	SHORT $LN12@Insert_Aft
	mov	eax, DWORD PTR _newnode$[ebp]
	push	eax
	mov	ecx, DWORD PTR $T1[ebp]
	call	??0?$SLNode@VScriptZoneGameObj@@@@IAE@PAVScriptZoneGameObj@@@Z ; SLNode<ScriptZoneGameObj>::SLNode<ScriptZoneGameObj>
	mov	DWORD PTR tv140[ebp], eax
	jmp	SHORT $LN13@Insert_Aft
$LN12@Insert_Aft:
	mov	DWORD PTR tv140[ebp], 0
$LN13@Insert_Aft:
	mov	ecx, DWORD PTR tv140[ebp]
	mov	DWORD PTR tv142[ebp], ecx
$LN15@Insert_Aft:
	mov	edx, DWORD PTR tv142[ebp]
	mov	DWORD PTR _temp$2[ebp], edx

; 287  : 			temp->Set_Next(cur->Next());

	mov	ecx, DWORD PTR _cur$[ebp]
	call	?Next@?$SLNode@VScriptZoneGameObj@@@@QBEPAV1@XZ ; SLNode<ScriptZoneGameObj>::Next
	push	eax
	mov	ecx, DWORD PTR _temp$2[ebp]
	call	?Set_Next@?$SLNode@VScriptZoneGameObj@@@@QAEXPAV1@@Z ; SLNode<ScriptZoneGameObj>::Set_Next

; 288  : 			cur->Set_Next(temp);

	mov	eax, DWORD PTR _temp$2[ebp]
	push	eax
	mov	ecx, DWORD PTR _cur$[ebp]
	call	?Set_Next@?$SLNode@VScriptZoneGameObj@@@@QAEXPAV1@@Z ; SLNode<ScriptZoneGameObj>::Set_Next

; 289  : 			return true;

	mov	al, 1
	jmp	SHORT $LN9@Insert_Aft
$LN2@Insert_Aft:

; 290  : 		}
; 291  : 		return false;

	xor	al, al
$LN9@Insert_Aft:

; 292  : 	}

	pop	edi
	pop	esi
	pop	ebx
	mov	esp, ebp
	pop	ebp
	ret	8
?Insert_After@?$SList@VScriptZoneGameObj@@@@UAE_NPAVScriptZoneGameObj@@PBV2@@Z ENDP ; SList<ScriptZoneGameObj>::Insert_After
_TEXT	ENDS
; Function compile flags: /Odtp /ZI
; File x:\github\renegade\dragonade_rxd\scripts\slist.h
;	COMDAT ?Insert_Before@?$SList@VScriptZoneGameObj@@@@UAE_NPAVScriptZoneGameObj@@PBV2@@Z
_TEXT	SEGMENT
tv145 = -88						; size = 4
tv147 = -84						; size = 4
$T1 = -80						; size = 4
_temp$2 = -12						; size = 4
_cur$ = -8						; size = 4
_this$ = -4						; size = 4
_newnode$ = 8						; size = 4
_oldnode$ = 12						; size = 4
?Insert_Before@?$SList@VScriptZoneGameObj@@@@UAE_NPAVScriptZoneGameObj@@PBV2@@Z PROC ; SList<ScriptZoneGameObj>::Insert_Before, COMDAT
; _this$ = ecx

; 243  : 	{

	push	ebp
	mov	ebp, esp
	sub	esp, 88					; 00000058H
	push	ebx
	push	esi
	push	edi
	mov	DWORD PTR _this$[ebp], ecx

; 244  : 		if (newnode == NULL)

	cmp	DWORD PTR _newnode$[ebp], 0
	jne	SHORT $LN7@Insert_Bef

; 245  : 		{
; 246  : 			return false;

	xor	al, al
	jmp	$LN8@Insert_Bef
$LN7@Insert_Bef:

; 247  : 		}
; 248  : 		if (oldnode == NULL || HeadNode == NULL || HeadNode->Data() == oldnode)

	cmp	DWORD PTR _oldnode$[ebp], 0
	je	SHORT $LN5@Insert_Bef
	mov	eax, DWORD PTR _this$[ebp]
	cmp	DWORD PTR [eax+4], 0
	je	SHORT $LN5@Insert_Bef
	mov	eax, DWORD PTR _this$[ebp]
	mov	ecx, DWORD PTR [eax+4]
	call	?Data@?$SLNode@VScriptZoneGameObj@@@@QBEPAVScriptZoneGameObj@@XZ ; SLNode<ScriptZoneGameObj>::Data
	cmp	eax, DWORD PTR _oldnode$[ebp]
	jne	SHORT $LN6@Insert_Bef
$LN5@Insert_Bef:

; 249  : 		{
; 250  : 			return Add_Head(newnode);

	mov	eax, DWORD PTR _newnode$[ebp]
	push	eax
	mov	ecx, DWORD PTR _this$[ebp]
	mov	edx, DWORD PTR [ecx]
	mov	ecx, DWORD PTR _this$[ebp]
	mov	eax, DWORD PTR [edx+8]
	call	eax
	jmp	$LN8@Insert_Bef
$LN6@Insert_Bef:

; 251  : 		}
; 252  : 		SLNode<T> *cur;
; 253  : 		for (cur=HeadNode; cur->Next() && cur->Next()->Data() != oldnode; cur=cur->Next())

	mov	eax, DWORD PTR _this$[ebp]
	mov	ecx, DWORD PTR [eax+4]
	mov	DWORD PTR _cur$[ebp], ecx
	jmp	SHORT $LN4@Insert_Bef
$LN3@Insert_Bef:
	mov	ecx, DWORD PTR _cur$[ebp]
	call	?Next@?$SLNode@VScriptZoneGameObj@@@@QBEPAV1@XZ ; SLNode<ScriptZoneGameObj>::Next
	mov	DWORD PTR _cur$[ebp], eax
$LN4@Insert_Bef:
	mov	ecx, DWORD PTR _cur$[ebp]
	call	?Next@?$SLNode@VScriptZoneGameObj@@@@QBEPAV1@XZ ; SLNode<ScriptZoneGameObj>::Next
	test	eax, eax
	je	SHORT $LN2@Insert_Bef
	mov	ecx, DWORD PTR _cur$[ebp]
	call	?Next@?$SLNode@VScriptZoneGameObj@@@@QBEPAV1@XZ ; SLNode<ScriptZoneGameObj>::Next
	mov	ecx, eax
	call	?Data@?$SLNode@VScriptZoneGameObj@@@@QBEPAVScriptZoneGameObj@@XZ ; SLNode<ScriptZoneGameObj>::Data
	cmp	eax, DWORD PTR _oldnode$[ebp]
	je	SHORT $LN2@Insert_Bef

; 254  : 		{
; 255  : 		}

	jmp	SHORT $LN3@Insert_Bef
$LN2@Insert_Bef:

; 256  : 		if (cur->Next() != NULL && cur->Next()->Data() == oldnode)

	mov	ecx, DWORD PTR _cur$[ebp]
	call	?Next@?$SLNode@VScriptZoneGameObj@@@@QBEPAV1@XZ ; SLNode<ScriptZoneGameObj>::Next
	test	eax, eax
	je	$LN1@Insert_Bef
	mov	ecx, DWORD PTR _cur$[ebp]
	call	?Next@?$SLNode@VScriptZoneGameObj@@@@QBEPAV1@XZ ; SLNode<ScriptZoneGameObj>::Next
	mov	ecx, eax
	call	?Data@?$SLNode@VScriptZoneGameObj@@@@QBEPAVScriptZoneGameObj@@XZ ; SLNode<ScriptZoneGameObj>::Data
	cmp	eax, DWORD PTR _oldnode$[ebp]
	jne	$LN1@Insert_Bef

; 257  : 		{
; 258  : 			SLNode<T> *temp	= new SLNode<T> (newnode);

	push	OFFSET ??_C@_0CO@JMNPBEBO@SList?$DMclass?5ScriptZoneGameObj?$DO?3?3@
	push	258					; 00000102H
	push	OFFSET ??_C@_0DB@DFBFLIIO@x?3?2github?2renegade?2dragonade_rxd@
	call	?SetThreadTrackingInformation@@YAXPBDI0@Z ; SetThreadTrackingInformation
	add	esp, 12					; 0000000cH
	xor	eax, eax
	je	SHORT $LN13@Insert_Bef
	xor	ecx, ecx
	jne	SHORT $LN10@Insert_Bef
	push	258					; 00000102H
	push	OFFSET ??_C@_1GC@LJHGOLFN@?$AAx?$AA?3?$AA?2?$AAg?$AAi?$AAt?$AAh?$AAu?$AAb?$AA?2?$AAr?$AAe?$AAn?$AAe?$AAg?$AAa?$AAd?$AAe?$AA?2?$AAd?$AAr?$AAa?$AAg?$AAo?$AAn?$AAa?$AAd?$AAe?$AA_?$AAr?$AAx?$AAd@
	push	OFFSET ??_C@_1M@HLGKFCJM@?$AAf?$AAa?$AAl?$AAs?$AAe?$AA?$AA@
	call	DWORD PTR __imp___wassert
	add	esp, 12					; 0000000cH
$LN10@Insert_Bef:
	mov	DWORD PTR tv147[ebp], 0
	jmp	SHORT $LN14@Insert_Bef
$LN13@Insert_Bef:
	push	0
	push	0
	push	0
	push	8
	call	??2?$AutoPoolClass@VGenericSLNode@@$0BAA@@@SAPAXIPBDI0@Z ; AutoPoolClass<GenericSLNode,256>::operator new
	add	esp, 16					; 00000010H
	mov	DWORD PTR $T1[ebp], eax
	cmp	DWORD PTR $T1[ebp], 0
	je	SHORT $LN11@Insert_Bef
	mov	eax, DWORD PTR _newnode$[ebp]
	push	eax
	mov	ecx, DWORD PTR $T1[ebp]
	call	??0?$SLNode@VScriptZoneGameObj@@@@IAE@PAVScriptZoneGameObj@@@Z ; SLNode<ScriptZoneGameObj>::SLNode<ScriptZoneGameObj>
	mov	DWORD PTR tv145[ebp], eax
	jmp	SHORT $LN12@Insert_Bef
$LN11@Insert_Bef:
	mov	DWORD PTR tv145[ebp], 0
$LN12@Insert_Bef:
	mov	ecx, DWORD PTR tv145[ebp]
	mov	DWORD PTR tv147[ebp], ecx
$LN14@Insert_Bef:
	mov	edx, DWORD PTR tv147[ebp]
	mov	DWORD PTR _temp$2[ebp], edx

; 259  : 			temp->Set_Next(cur->Next());

	mov	ecx, DWORD PTR _cur$[ebp]
	call	?Next@?$SLNode@VScriptZoneGameObj@@@@QBEPAV1@XZ ; SLNode<ScriptZoneGameObj>::Next
	push	eax
	mov	ecx, DWORD PTR _temp$2[ebp]
	call	?Set_Next@?$SLNode@VScriptZoneGameObj@@@@QAEXPAV1@@Z ; SLNode<ScriptZoneGameObj>::Set_Next

; 260  : 			cur->Set_Next(temp);

	mov	eax, DWORD PTR _temp$2[ebp]
	push	eax
	mov	ecx, DWORD PTR _cur$[ebp]
	call	?Set_Next@?$SLNode@VScriptZoneGameObj@@@@QAEXPAV1@@Z ; SLNode<ScriptZoneGameObj>::Set_Next

; 261  : 			return true;

	mov	al, 1
	jmp	SHORT $LN8@Insert_Bef
$LN1@Insert_Bef:

; 262  : 		}
; 263  : 		return false;

	xor	al, al
$LN8@Insert_Bef:

; 264  : 	}

	pop	edi
	pop	esi
	pop	ebx
	mov	esp, ebp
	pop	ebp
	ret	8
?Insert_Before@?$SList@VScriptZoneGameObj@@@@UAE_NPAVScriptZoneGameObj@@PBV2@@Z ENDP ; SList<ScriptZoneGameObj>::Insert_Before
_TEXT	ENDS
; Function compile flags: /Odtp /ZI
; File x:\github\renegade\dragonade_rxd\scripts\slist.h
;	COMDAT ?Remove_All@?$SList@VScriptZoneGameObj@@@@UAEXXZ
_TEXT	SEGMENT
$T1 = -80						; size = 4
_cur$2 = -12						; size = 4
_next$ = -8						; size = 4
_this$ = -4						; size = 4
?Remove_All@?$SList@VScriptZoneGameObj@@@@UAEXXZ PROC	; SList<ScriptZoneGameObj>::Remove_All, COMDAT
; _this$ = ecx

; 231  : 	{

	push	ebp
	mov	ebp, esp
	sub	esp, 80					; 00000050H
	push	ebx
	push	esi
	push	edi
	mov	DWORD PTR _this$[ebp], ecx

; 232  : 		SLNode<T> *next;
; 233  : 		for (SLNode<T> *cur = HeadNode; cur; cur = next)

	mov	eax, DWORD PTR _this$[ebp]
	mov	ecx, DWORD PTR [eax+4]
	mov	DWORD PTR _cur$2[ebp], ecx
	jmp	SHORT $LN3@Remove_All
$LN2@Remove_All:
	mov	eax, DWORD PTR _next$[ebp]
	mov	DWORD PTR _cur$2[ebp], eax
$LN3@Remove_All:
	cmp	DWORD PTR _cur$2[ebp], 0
	je	SHORT $LN1@Remove_All

; 234  : 		{
; 235  : 			next = cur->Next();

	mov	ecx, DWORD PTR _cur$2[ebp]
	call	?Next@?$SLNode@VScriptZoneGameObj@@@@QBEPAV1@XZ ; SLNode<ScriptZoneGameObj>::Next
	mov	DWORD PTR _next$[ebp], eax

; 236  : 			delete cur;

	push	OFFSET ??_C@_0CL@PDNALFNH@SList?$DMclass?5ScriptZoneGameObj?$DO?3?3@
	push	236					; 000000ecH
	push	OFFSET ??_C@_0DB@DFBFLIIO@x?3?2github?2renegade?2dragonade_rxd@
	call	?SetThreadTrackingInformation@@YAXPBDI0@Z ; SetThreadTrackingInformation
	add	esp, 12					; 0000000cH
	xor	eax, eax
	je	SHORT $LN7@Remove_All
	xor	ecx, ecx
	jne	SHORT $LN6@Remove_All
	push	236					; 000000ecH
	push	OFFSET ??_C@_1GC@LJHGOLFN@?$AAx?$AA?3?$AA?2?$AAg?$AAi?$AAt?$AAh?$AAu?$AAb?$AA?2?$AAr?$AAe?$AAn?$AAe?$AAg?$AAa?$AAd?$AAe?$AA?2?$AAd?$AAr?$AAa?$AAg?$AAo?$AAn?$AAa?$AAd?$AAe?$AA_?$AAr?$AAx?$AAd@
	push	OFFSET ??_C@_1M@HLGKFCJM@?$AAf?$AAa?$AAl?$AAs?$AAe?$AA?$AA@
	call	DWORD PTR __imp___wassert
	add	esp, 12					; 0000000cH
$LN6@Remove_All:
	jmp	SHORT $LN8@Remove_All
$LN7@Remove_All:
	mov	eax, DWORD PTR _cur$2[ebp]
	mov	DWORD PTR $T1[ebp], eax
	mov	ecx, DWORD PTR $T1[ebp]
	push	ecx
	call	??3?$AutoPoolClass@VGenericSLNode@@$0BAA@@@SAXPAX@Z ; AutoPoolClass<GenericSLNode,256>::operator delete
	add	esp, 4
$LN8@Remove_All:

; 237  : 		}

	jmp	SHORT $LN2@Remove_All
$LN1@Remove_All:

; 238  : 		HeadNode = TailNode = NULL;

	mov	eax, DWORD PTR _this$[ebp]
	mov	DWORD PTR [eax+8], 0
	mov	ecx, DWORD PTR _this$[ebp]
	mov	DWORD PTR [ecx+4], 0

; 239  : 	}

	pop	edi
	pop	esi
	pop	ebx
	mov	esp, ebp
	pop	ebp
	ret	0
?Remove_All@?$SList@VScriptZoneGameObj@@@@UAEXXZ ENDP	; SList<ScriptZoneGameObj>::Remove_All
_TEXT	ENDS
; Function compile flags: /Odtp /ZI
; File x:\github\renegade\dragonade_rxd\scripts\slist.h
;	COMDAT ?Remove@?$SList@VScriptZoneGameObj@@@@UAE_NPBVScriptZoneGameObj@@@Z
_TEXT	SEGMENT
tv76 = -81						; size = 1
$T1 = -80						; size = 4
_temp$2 = -12						; size = 4
_cur$ = -8						; size = 4
_this$ = -4						; size = 4
_element$ = 8						; size = 4
?Remove@?$SList@VScriptZoneGameObj@@@@UAE_NPBVScriptZoneGameObj@@@Z PROC ; SList<ScriptZoneGameObj>::Remove, COMDAT
; _this$ = ecx

; 202  : 	{

	push	ebp
	mov	ebp, esp
	sub	esp, 84					; 00000054H
	push	ebx
	push	esi
	push	edi
	mov	DWORD PTR _this$[ebp], ecx

; 203  : 		if (element == NULL || HeadNode == NULL)

	cmp	DWORD PTR _element$[ebp], 0
	je	SHORT $LN7@Remove
	mov	eax, DWORD PTR _this$[ebp]
	cmp	DWORD PTR [eax+4], 0
	jne	SHORT $LN8@Remove
$LN7@Remove:

; 204  : 		{
; 205  : 			return false;

	xor	al, al
	jmp	$LN9@Remove
$LN8@Remove:

; 206  : 		}
; 207  : 		if (HeadNode->Data() == element)

	mov	eax, DWORD PTR _this$[ebp]
	mov	ecx, DWORD PTR [eax+4]
	call	?Data@?$SLNode@VScriptZoneGameObj@@@@QBEPAVScriptZoneGameObj@@XZ ; SLNode<ScriptZoneGameObj>::Data
	cmp	eax, DWORD PTR _element$[ebp]
	jne	SHORT $LN6@Remove

; 208  : 		{
; 209  : 			return Remove_Head() != NULL ? true : false;

	mov	eax, DWORD PTR _this$[ebp]
	mov	edx, DWORD PTR [eax]
	mov	ecx, DWORD PTR _this$[ebp]
	mov	eax, DWORD PTR [edx+20]
	call	eax
	test	eax, eax
	je	SHORT $LN11@Remove
	mov	BYTE PTR tv76[ebp], 1
	jmp	SHORT $LN12@Remove
$LN11@Remove:
	mov	BYTE PTR tv76[ebp], 0
$LN12@Remove:
	mov	al, BYTE PTR tv76[ebp]
	jmp	$LN9@Remove
$LN6@Remove:

; 210  : 		}
; 211  : 		SLNode<T> *cur;
; 212  : 		for (cur = HeadNode; cur->Next() && cur->Next()->Data() != element; cur=cur->Next())

	mov	eax, DWORD PTR _this$[ebp]
	mov	ecx, DWORD PTR [eax+4]
	mov	DWORD PTR _cur$[ebp], ecx
	jmp	SHORT $LN5@Remove
$LN4@Remove:
	mov	ecx, DWORD PTR _cur$[ebp]
	call	?Next@?$SLNode@VScriptZoneGameObj@@@@QBEPAV1@XZ ; SLNode<ScriptZoneGameObj>::Next
	mov	DWORD PTR _cur$[ebp], eax
$LN5@Remove:
	mov	ecx, DWORD PTR _cur$[ebp]
	call	?Next@?$SLNode@VScriptZoneGameObj@@@@QBEPAV1@XZ ; SLNode<ScriptZoneGameObj>::Next
	test	eax, eax
	je	SHORT $LN3@Remove
	mov	ecx, DWORD PTR _cur$[ebp]
	call	?Next@?$SLNode@VScriptZoneGameObj@@@@QBEPAV1@XZ ; SLNode<ScriptZoneGameObj>::Next
	mov	ecx, eax
	call	?Data@?$SLNode@VScriptZoneGameObj@@@@QBEPAVScriptZoneGameObj@@XZ ; SLNode<ScriptZoneGameObj>::Data
	cmp	eax, DWORD PTR _element$[ebp]
	je	SHORT $LN3@Remove

; 213  : 		{
; 214  : 		}

	jmp	SHORT $LN4@Remove
$LN3@Remove:

; 215  : 		if (cur->Next() != NULL && cur->Next()->Data() == element)

	mov	ecx, DWORD PTR _cur$[ebp]
	call	?Next@?$SLNode@VScriptZoneGameObj@@@@QBEPAV1@XZ ; SLNode<ScriptZoneGameObj>::Next
	test	eax, eax
	je	$LN2@Remove
	mov	ecx, DWORD PTR _cur$[ebp]
	call	?Next@?$SLNode@VScriptZoneGameObj@@@@QBEPAV1@XZ ; SLNode<ScriptZoneGameObj>::Next
	mov	ecx, eax
	call	?Data@?$SLNode@VScriptZoneGameObj@@@@QBEPAVScriptZoneGameObj@@XZ ; SLNode<ScriptZoneGameObj>::Data
	cmp	eax, DWORD PTR _element$[ebp]
	jne	SHORT $LN2@Remove

; 216  : 		{
; 217  : 			SLNode<T> *temp	= cur->Next();

	mov	ecx, DWORD PTR _cur$[ebp]
	call	?Next@?$SLNode@VScriptZoneGameObj@@@@QBEPAV1@XZ ; SLNode<ScriptZoneGameObj>::Next
	mov	DWORD PTR _temp$2[ebp], eax

; 218  : 			cur->Set_Next(temp->Next());

	mov	ecx, DWORD PTR _temp$2[ebp]
	call	?Next@?$SLNode@VScriptZoneGameObj@@@@QBEPAV1@XZ ; SLNode<ScriptZoneGameObj>::Next
	push	eax
	mov	ecx, DWORD PTR _cur$[ebp]
	call	?Set_Next@?$SLNode@VScriptZoneGameObj@@@@QAEXPAV1@@Z ; SLNode<ScriptZoneGameObj>::Set_Next

; 219  : 			if (temp == TailNode)

	mov	eax, DWORD PTR _this$[ebp]
	mov	ecx, DWORD PTR _temp$2[ebp]
	cmp	ecx, DWORD PTR [eax+8]
	jne	SHORT $LN1@Remove

; 220  : 			{
; 221  : 				TailNode = cur;

	mov	eax, DWORD PTR _this$[ebp]
	mov	ecx, DWORD PTR _cur$[ebp]
	mov	DWORD PTR [eax+8], ecx
$LN1@Remove:

; 222  : 			}
; 223  : 			delete temp;

	push	OFFSET ??_C@_0CH@INEFHADP@SList?$DMclass?5ScriptZoneGameObj?$DO?3?3@
	push	223					; 000000dfH
	push	OFFSET ??_C@_0DB@DFBFLIIO@x?3?2github?2renegade?2dragonade_rxd@
	call	?SetThreadTrackingInformation@@YAXPBDI0@Z ; SetThreadTrackingInformation
	add	esp, 12					; 0000000cH
	xor	eax, eax
	je	SHORT $LN14@Remove
	xor	ecx, ecx
	jne	SHORT $LN13@Remove
	push	223					; 000000dfH
	push	OFFSET ??_C@_1GC@LJHGOLFN@?$AAx?$AA?3?$AA?2?$AAg?$AAi?$AAt?$AAh?$AAu?$AAb?$AA?2?$AAr?$AAe?$AAn?$AAe?$AAg?$AAa?$AAd?$AAe?$AA?2?$AAd?$AAr?$AAa?$AAg?$AAo?$AAn?$AAa?$AAd?$AAe?$AA_?$AAr?$AAx?$AAd@
	push	OFFSET ??_C@_1M@HLGKFCJM@?$AAf?$AAa?$AAl?$AAs?$AAe?$AA?$AA@
	call	DWORD PTR __imp___wassert
	add	esp, 12					; 0000000cH
$LN13@Remove:
	jmp	SHORT $LN15@Remove
$LN14@Remove:
	mov	eax, DWORD PTR _temp$2[ebp]
	mov	DWORD PTR $T1[ebp], eax
	mov	ecx, DWORD PTR $T1[ebp]
	push	ecx
	call	??3?$AutoPoolClass@VGenericSLNode@@$0BAA@@@SAXPAX@Z ; AutoPoolClass<GenericSLNode,256>::operator delete
	add	esp, 4
$LN15@Remove:

; 224  : 			return true;

	mov	al, 1
	jmp	SHORT $LN9@Remove
$LN2@Remove:

; 225  : 		}
; 226  : 		return false;

	xor	al, al
$LN9@Remove:

; 227  : 	}

	pop	edi
	pop	esi
	pop	ebx
	mov	esp, ebp
	pop	ebp
	ret	4
?Remove@?$SList@VScriptZoneGameObj@@@@UAE_NPBVScriptZoneGameObj@@@Z ENDP ; SList<ScriptZoneGameObj>::Remove
_TEXT	ENDS
; Function compile flags: /Odtp /ZI
; File x:\github\renegade\dragonade_rxd\scripts\slist.h
;	COMDAT ?Remove_Tail@?$SList@VScriptZoneGameObj@@@@UAEPAVScriptZoneGameObj@@XZ
_TEXT	SEGMENT
tv76 = -76						; size = 4
_data$ = -8						; size = 4
_this$ = -4						; size = 4
?Remove_Tail@?$SList@VScriptZoneGameObj@@@@UAEPAVScriptZoneGameObj@@XZ PROC ; SList<ScriptZoneGameObj>::Remove_Tail, COMDAT
; _this$ = ecx

; 191  : 	{

	push	ebp
	mov	ebp, esp
	sub	esp, 76					; 0000004cH
	push	ebx
	push	esi
	push	edi
	mov	DWORD PTR _this$[ebp], ecx

; 192  : 		if (HeadNode == NULL)

	mov	eax, DWORD PTR _this$[ebp]
	cmp	DWORD PTR [eax+4], 0
	jne	SHORT $LN1@Remove_Tai

; 193  : 		{
; 194  : 			return ((T *)NULL);

	xor	eax, eax
	jmp	SHORT $LN2@Remove_Tai
$LN1@Remove_Tai:

; 195  : 		}
; 196  : 		T* data = TailNode->Data();

	mov	eax, DWORD PTR _this$[ebp]
	mov	ecx, DWORD PTR [eax+8]
	call	?Data@?$SLNode@VScriptZoneGameObj@@@@QBEPAVScriptZoneGameObj@@XZ ; SLNode<ScriptZoneGameObj>::Data
	mov	DWORD PTR _data$[ebp], eax

; 197  : 		return (Remove(data) ? data : (T*)NULL);

	mov	eax, DWORD PTR _data$[ebp]
	push	eax
	mov	ecx, DWORD PTR _this$[ebp]
	mov	edx, DWORD PTR [ecx]
	mov	ecx, DWORD PTR _this$[ebp]
	mov	eax, DWORD PTR [edx+28]
	call	eax
	movzx	ecx, al
	test	ecx, ecx
	je	SHORT $LN4@Remove_Tai
	mov	edx, DWORD PTR _data$[ebp]
	mov	DWORD PTR tv76[ebp], edx
	jmp	SHORT $LN5@Remove_Tai
$LN4@Remove_Tai:
	mov	DWORD PTR tv76[ebp], 0
$LN5@Remove_Tai:
	mov	eax, DWORD PTR tv76[ebp]
$LN2@Remove_Tai:

; 198  : 	}

	pop	edi
	pop	esi
	pop	ebx
	mov	esp, ebp
	pop	ebp
	ret	0
?Remove_Tail@?$SList@VScriptZoneGameObj@@@@UAEPAVScriptZoneGameObj@@XZ ENDP ; SList<ScriptZoneGameObj>::Remove_Tail
_TEXT	ENDS
; Function compile flags: /Odtp /ZI
; File x:\github\renegade\dragonade_rxd\scripts\slist.h
;	COMDAT ?Remove_Head@?$SList@VScriptZoneGameObj@@@@UAEPAVScriptZoneGameObj@@XZ
_TEXT	SEGMENT
$T1 = -80						; size = 4
_data$ = -12						; size = 4
_temp$ = -8						; size = 4
_this$ = -4						; size = 4
?Remove_Head@?$SList@VScriptZoneGameObj@@@@UAEPAVScriptZoneGameObj@@XZ PROC ; SList<ScriptZoneGameObj>::Remove_Head, COMDAT
; _this$ = ecx

; 173  : 	{

	push	ebp
	mov	ebp, esp
	sub	esp, 80					; 00000050H
	push	ebx
	push	esi
	push	edi
	mov	DWORD PTR _this$[ebp], ecx

; 174  : 		if (HeadNode == NULL)

	mov	eax, DWORD PTR _this$[ebp]
	cmp	DWORD PTR [eax+4], 0
	jne	SHORT $LN2@Remove_Hea

; 175  : 		{
; 176  : 			return ((T* )NULL);

	xor	eax, eax
	jmp	$LN3@Remove_Hea
$LN2@Remove_Hea:

; 177  : 		}
; 178  : 		SLNode<T> *temp = HeadNode;

	mov	eax, DWORD PTR _this$[ebp]
	mov	ecx, DWORD PTR [eax+4]
	mov	DWORD PTR _temp$[ebp], ecx

; 179  : 		HeadNode = HeadNode->Next();

	mov	eax, DWORD PTR _this$[ebp]
	mov	ecx, DWORD PTR [eax+4]
	call	?Next@?$SLNode@VScriptZoneGameObj@@@@QBEPAV1@XZ ; SLNode<ScriptZoneGameObj>::Next
	mov	ecx, DWORD PTR _this$[ebp]
	mov	DWORD PTR [ecx+4], eax

; 180  : 		if (HeadNode == NULL)

	mov	eax, DWORD PTR _this$[ebp]
	cmp	DWORD PTR [eax+4], 0
	jne	SHORT $LN1@Remove_Hea

; 181  : 		{
; 182  : 			TailNode = NULL;

	mov	eax, DWORD PTR _this$[ebp]
	mov	DWORD PTR [eax+8], 0
$LN1@Remove_Hea:

; 183  : 		}
; 184  : 		T *data = temp->Data();

	mov	ecx, DWORD PTR _temp$[ebp]
	call	?Data@?$SLNode@VScriptZoneGameObj@@@@QBEPAVScriptZoneGameObj@@XZ ; SLNode<ScriptZoneGameObj>::Data
	mov	DWORD PTR _data$[ebp], eax

; 185  : 		delete temp;

	push	OFFSET ??_C@_0CM@GBBFIHMJ@SList?$DMclass?5ScriptZoneGameObj?$DO?3?3@
	push	185					; 000000b9H
	push	OFFSET ??_C@_0DB@DFBFLIIO@x?3?2github?2renegade?2dragonade_rxd@
	call	?SetThreadTrackingInformation@@YAXPBDI0@Z ; SetThreadTrackingInformation
	add	esp, 12					; 0000000cH
	xor	eax, eax
	je	SHORT $LN6@Remove_Hea
	xor	ecx, ecx
	jne	SHORT $LN5@Remove_Hea
	push	185					; 000000b9H
	push	OFFSET ??_C@_1GC@LJHGOLFN@?$AAx?$AA?3?$AA?2?$AAg?$AAi?$AAt?$AAh?$AAu?$AAb?$AA?2?$AAr?$AAe?$AAn?$AAe?$AAg?$AAa?$AAd?$AAe?$AA?2?$AAd?$AAr?$AAa?$AAg?$AAo?$AAn?$AAa?$AAd?$AAe?$AA_?$AAr?$AAx?$AAd@
	push	OFFSET ??_C@_1M@HLGKFCJM@?$AAf?$AAa?$AAl?$AAs?$AAe?$AA?$AA@
	call	DWORD PTR __imp___wassert
	add	esp, 12					; 0000000cH
$LN5@Remove_Hea:
	jmp	SHORT $LN7@Remove_Hea
$LN6@Remove_Hea:
	mov	eax, DWORD PTR _temp$[ebp]
	mov	DWORD PTR $T1[ebp], eax
	mov	ecx, DWORD PTR $T1[ebp]
	push	ecx
	call	??3?$AutoPoolClass@VGenericSLNode@@$0BAA@@@SAXPAX@Z ; AutoPoolClass<GenericSLNode,256>::operator delete
	add	esp, 4
$LN7@Remove_Hea:

; 186  : 		return data;

	mov	eax, DWORD PTR _data$[ebp]
$LN3@Remove_Hea:

; 187  : 	}

	pop	edi
	pop	esi
	pop	ebx
	mov	esp, ebp
	pop	ebp
	ret	0
?Remove_Head@?$SList@VScriptZoneGameObj@@@@UAEPAVScriptZoneGameObj@@XZ ENDP ; SList<ScriptZoneGameObj>::Remove_Head
_TEXT	ENDS
; Function compile flags: /Odtp /ZI
; File x:\github\renegade\dragonade_rxd\scripts\slist.h
;	COMDAT ?Add_Tail@?$SList@VScriptZoneGameObj@@@@UAE_NAAV1@@Z
_TEXT	SEGMENT
_cur$1 = -8						; size = 4
_this$ = -4						; size = 4
_list$ = 8						; size = 4
?Add_Tail@?$SList@VScriptZoneGameObj@@@@UAE_NAAV1@@Z PROC ; SList<ScriptZoneGameObj>::Add_Tail, COMDAT
; _this$ = ecx

; 159  : 	{

	push	ebp
	mov	ebp, esp
	sub	esp, 72					; 00000048H
	push	ebx
	push	esi
	push	edi
	mov	DWORD PTR _this$[ebp], ecx

; 160  : 		if (list.HeadNode == NULL)

	mov	eax, DWORD PTR _list$[ebp]
	cmp	DWORD PTR [eax+4], 0
	jne	SHORT $LN4@Add_Tail

; 161  : 		{
; 162  : 			return false;

	xor	al, al
	jmp	SHORT $LN5@Add_Tail
$LN4@Add_Tail:

; 163  : 		}
; 164  : 		for (SLNode<T> *cur = list.HeadNode; cur; cur = cur->Next()) 

	mov	eax, DWORD PTR _list$[ebp]
	mov	ecx, DWORD PTR [eax+4]
	mov	DWORD PTR _cur$1[ebp], ecx
	jmp	SHORT $LN3@Add_Tail
$LN2@Add_Tail:
	mov	ecx, DWORD PTR _cur$1[ebp]
	call	?Next@?$SLNode@VScriptZoneGameObj@@@@QBEPAV1@XZ ; SLNode<ScriptZoneGameObj>::Next
	mov	DWORD PTR _cur$1[ebp], eax
$LN3@Add_Tail:
	cmp	DWORD PTR _cur$1[ebp], 0
	je	SHORT $LN1@Add_Tail

; 165  : 		{
; 166  : 			Add_Tail(cur->Data());

	mov	ecx, DWORD PTR _cur$1[ebp]
	call	?Data@?$SLNode@VScriptZoneGameObj@@@@QBEPAVScriptZoneGameObj@@XZ ; SLNode<ScriptZoneGameObj>::Data
	push	eax
	mov	eax, DWORD PTR _this$[ebp]
	mov	edx, DWORD PTR [eax]
	mov	ecx, DWORD PTR _this$[ebp]
	mov	eax, DWORD PTR [edx+16]
	call	eax

; 167  : 		}

	jmp	SHORT $LN2@Add_Tail
$LN1@Add_Tail:

; 168  : 		return true;

	mov	al, 1
$LN5@Add_Tail:

; 169  : 	}

	pop	edi
	pop	esi
	pop	ebx
	mov	esp, ebp
	pop	ebp
	ret	4
?Add_Tail@?$SList@VScriptZoneGameObj@@@@UAE_NAAV1@@Z ENDP ; SList<ScriptZoneGameObj>::Add_Tail
_TEXT	ENDS
; Function compile flags: /Odtp /ZI
; File x:\github\renegade\dragonade_rxd\scripts\slist.h
;	COMDAT ?Add_Tail@?$SList@VScriptZoneGameObj@@@@UAE_NPAVScriptZoneGameObj@@@Z
_TEXT	SEGMENT
tv82 = -84						; size = 4
tv84 = -80						; size = 4
$T1 = -76						; size = 4
_temp$ = -8						; size = 4
_this$ = -4						; size = 4
_data$ = 8						; size = 4
?Add_Tail@?$SList@VScriptZoneGameObj@@@@UAE_NPAVScriptZoneGameObj@@@Z PROC ; SList<ScriptZoneGameObj>::Add_Tail, COMDAT
; _this$ = ecx

; 139  : 	{

	push	ebp
	mov	ebp, esp
	sub	esp, 84					; 00000054H
	push	ebx
	push	esi
	push	edi
	mov	DWORD PTR _this$[ebp], ecx

; 140  : 		if (data == NULL)

	cmp	DWORD PTR _data$[ebp], 0
	jne	SHORT $LN3@Add_Tail

; 141  : 		{
; 142  : 			return false;

	xor	al, al
	jmp	$LN4@Add_Tail
$LN3@Add_Tail:

; 143  : 		}
; 144  : 		SLNode<T> *temp = new SLNode<T> (data);

	push	OFFSET ??_C@_0CJ@HKPDNFCG@SList?$DMclass?5ScriptZoneGameObj?$DO?3?3@
	push	144					; 00000090H
	push	OFFSET ??_C@_0DB@DFBFLIIO@x?3?2github?2renegade?2dragonade_rxd@
	call	?SetThreadTrackingInformation@@YAXPBDI0@Z ; SetThreadTrackingInformation
	add	esp, 12					; 0000000cH
	xor	eax, eax
	je	SHORT $LN9@Add_Tail
	xor	ecx, ecx
	jne	SHORT $LN6@Add_Tail
	push	144					; 00000090H
	push	OFFSET ??_C@_1GC@LJHGOLFN@?$AAx?$AA?3?$AA?2?$AAg?$AAi?$AAt?$AAh?$AAu?$AAb?$AA?2?$AAr?$AAe?$AAn?$AAe?$AAg?$AAa?$AAd?$AAe?$AA?2?$AAd?$AAr?$AAa?$AAg?$AAo?$AAn?$AAa?$AAd?$AAe?$AA_?$AAr?$AAx?$AAd@
	push	OFFSET ??_C@_1M@HLGKFCJM@?$AAf?$AAa?$AAl?$AAs?$AAe?$AA?$AA@
	call	DWORD PTR __imp___wassert
	add	esp, 12					; 0000000cH
$LN6@Add_Tail:
	mov	DWORD PTR tv84[ebp], 0
	jmp	SHORT $LN10@Add_Tail
$LN9@Add_Tail:
	push	0
	push	0
	push	0
	push	8
	call	??2?$AutoPoolClass@VGenericSLNode@@$0BAA@@@SAPAXIPBDI0@Z ; AutoPoolClass<GenericSLNode,256>::operator new
	add	esp, 16					; 00000010H
	mov	DWORD PTR $T1[ebp], eax
	cmp	DWORD PTR $T1[ebp], 0
	je	SHORT $LN7@Add_Tail
	mov	eax, DWORD PTR _data$[ebp]
	push	eax
	mov	ecx, DWORD PTR $T1[ebp]
	call	??0?$SLNode@VScriptZoneGameObj@@@@IAE@PAVScriptZoneGameObj@@@Z ; SLNode<ScriptZoneGameObj>::SLNode<ScriptZoneGameObj>
	mov	DWORD PTR tv82[ebp], eax
	jmp	SHORT $LN8@Add_Tail
$LN7@Add_Tail:
	mov	DWORD PTR tv82[ebp], 0
$LN8@Add_Tail:
	mov	ecx, DWORD PTR tv82[ebp]
	mov	DWORD PTR tv84[ebp], ecx
$LN10@Add_Tail:
	mov	edx, DWORD PTR tv84[ebp]
	mov	DWORD PTR _temp$[ebp], edx

; 145  : 		if (HeadNode == NULL)

	mov	eax, DWORD PTR _this$[ebp]
	cmp	DWORD PTR [eax+4], 0
	jne	SHORT $LN2@Add_Tail

; 146  : 		{
; 147  : 			HeadNode = TailNode = temp;

	mov	eax, DWORD PTR _this$[ebp]
	mov	ecx, DWORD PTR _temp$[ebp]
	mov	DWORD PTR [eax+8], ecx
	mov	edx, DWORD PTR _this$[ebp]
	mov	eax, DWORD PTR _temp$[ebp]
	mov	DWORD PTR [edx+4], eax

; 148  : 		}
; 149  : 		else

	jmp	SHORT $LN1@Add_Tail
$LN2@Add_Tail:

; 150  : 		{
; 151  : 			TailNode->Set_Next(temp);

	mov	eax, DWORD PTR _temp$[ebp]
	push	eax
	mov	ecx, DWORD PTR _this$[ebp]
	mov	ecx, DWORD PTR [ecx+8]
	call	?Set_Next@?$SLNode@VScriptZoneGameObj@@@@QAEXPAV1@@Z ; SLNode<ScriptZoneGameObj>::Set_Next

; 152  : 			TailNode = temp;

	mov	eax, DWORD PTR _this$[ebp]
	mov	ecx, DWORD PTR _temp$[ebp]
	mov	DWORD PTR [eax+8], ecx
$LN1@Add_Tail:

; 153  : 		}
; 154  : 		return true;

	mov	al, 1
$LN4@Add_Tail:

; 155  : 	}

	pop	edi
	pop	esi
	pop	ebx
	mov	esp, ebp
	pop	ebp
	ret	4
?Add_Tail@?$SList@VScriptZoneGameObj@@@@UAE_NPAVScriptZoneGameObj@@@Z ENDP ; SList<ScriptZoneGameObj>::Add_Tail
_TEXT	ENDS
; Function compile flags: /Odtp /ZI
; File x:\github\renegade\dragonade_rxd\scripts\slist.h
;	COMDAT ?Add_Head@?$SList@VScriptZoneGameObj@@@@UAE_NAAV1@@Z
_TEXT	SEGMENT
tv90 = -92						; size = 4
tv92 = -88						; size = 4
$T1 = -84						; size = 4
_temp$2 = -16						; size = 4
_cur$3 = -12						; size = 4
_addpoint$ = -8						; size = 4
_this$ = -4						; size = 4
_list$ = 8						; size = 4
?Add_Head@?$SList@VScriptZoneGameObj@@@@UAE_NAAV1@@Z PROC ; SList<ScriptZoneGameObj>::Add_Head, COMDAT
; _this$ = ecx

; 113  : 	{

	push	ebp
	mov	ebp, esp
	sub	esp, 92					; 0000005cH
	push	ebx
	push	esi
	push	edi
	mov	DWORD PTR _this$[ebp], ecx

; 114  : 		if (list.HeadNode == NULL)

	mov	eax, DWORD PTR _list$[ebp]
	cmp	DWORD PTR [eax+4], 0
	jne	SHORT $LN6@Add_Head

; 115  : 		{
; 116  : 			return false;

	xor	al, al
	jmp	$LN7@Add_Head
$LN6@Add_Head:

; 117  : 		}
; 118  : 		SLNode<T> *addpoint = NULL;

	mov	DWORD PTR _addpoint$[ebp], 0

; 119  : 		for (SLNode<T> *cur = list.HeadNode; cur; cur = cur->Next())

	mov	eax, DWORD PTR _list$[ebp]
	mov	ecx, DWORD PTR [eax+4]
	mov	DWORD PTR _cur$3[ebp], ecx
	jmp	SHORT $LN5@Add_Head
$LN4@Add_Head:
	mov	ecx, DWORD PTR _cur$3[ebp]
	call	?Next@?$SLNode@VScriptZoneGameObj@@@@QBEPAV1@XZ ; SLNode<ScriptZoneGameObj>::Next
	mov	DWORD PTR _cur$3[ebp], eax
$LN5@Add_Head:
	cmp	DWORD PTR _cur$3[ebp], 0
	je	$LN3@Add_Head

; 120  : 		{
; 121  : 			if (addpoint)

	cmp	DWORD PTR _addpoint$[ebp], 0
	je	$LN2@Add_Head

; 122  : 			{
; 123  : 				SLNode<T> *temp = new SLNode<T>(cur->Data());

	push	OFFSET ??_C@_0CJ@JGELODEC@SList?$DMclass?5ScriptZoneGameObj?$DO?3?3@
	push	123					; 0000007bH
	push	OFFSET ??_C@_0DB@DFBFLIIO@x?3?2github?2renegade?2dragonade_rxd@
	call	?SetThreadTrackingInformation@@YAXPBDI0@Z ; SetThreadTrackingInformation
	add	esp, 12					; 0000000cH
	xor	eax, eax
	je	SHORT $LN12@Add_Head
	xor	ecx, ecx
	jne	SHORT $LN9@Add_Head
	push	123					; 0000007bH
	push	OFFSET ??_C@_1GC@LJHGOLFN@?$AAx?$AA?3?$AA?2?$AAg?$AAi?$AAt?$AAh?$AAu?$AAb?$AA?2?$AAr?$AAe?$AAn?$AAe?$AAg?$AAa?$AAd?$AAe?$AA?2?$AAd?$AAr?$AAa?$AAg?$AAo?$AAn?$AAa?$AAd?$AAe?$AA_?$AAr?$AAx?$AAd@
	push	OFFSET ??_C@_1M@HLGKFCJM@?$AAf?$AAa?$AAl?$AAs?$AAe?$AA?$AA@
	call	DWORD PTR __imp___wassert
	add	esp, 12					; 0000000cH
$LN9@Add_Head:
	mov	DWORD PTR tv92[ebp], 0
	jmp	SHORT $LN13@Add_Head
$LN12@Add_Head:
	push	0
	push	0
	push	0
	push	8
	call	??2?$AutoPoolClass@VGenericSLNode@@$0BAA@@@SAPAXIPBDI0@Z ; AutoPoolClass<GenericSLNode,256>::operator new
	add	esp, 16					; 00000010H
	mov	DWORD PTR $T1[ebp], eax
	cmp	DWORD PTR $T1[ebp], 0
	je	SHORT $LN10@Add_Head
	mov	ecx, DWORD PTR _cur$3[ebp]
	call	?Data@?$SLNode@VScriptZoneGameObj@@@@QBEPAVScriptZoneGameObj@@XZ ; SLNode<ScriptZoneGameObj>::Data
	push	eax
	mov	ecx, DWORD PTR $T1[ebp]
	call	??0?$SLNode@VScriptZoneGameObj@@@@IAE@PAVScriptZoneGameObj@@@Z ; SLNode<ScriptZoneGameObj>::SLNode<ScriptZoneGameObj>
	mov	DWORD PTR tv90[ebp], eax
	jmp	SHORT $LN11@Add_Head
$LN10@Add_Head:
	mov	DWORD PTR tv90[ebp], 0
$LN11@Add_Head:
	mov	eax, DWORD PTR tv90[ebp]
	mov	DWORD PTR tv92[ebp], eax
$LN13@Add_Head:
	mov	ecx, DWORD PTR tv92[ebp]
	mov	DWORD PTR _temp$2[ebp], ecx

; 124  : 				temp->Set_Next(addpoint->Next());

	mov	ecx, DWORD PTR _addpoint$[ebp]
	call	?Next@?$SLNode@VScriptZoneGameObj@@@@QBEPAV1@XZ ; SLNode<ScriptZoneGameObj>::Next
	push	eax
	mov	ecx, DWORD PTR _temp$2[ebp]
	call	?Set_Next@?$SLNode@VScriptZoneGameObj@@@@QAEXPAV1@@Z ; SLNode<ScriptZoneGameObj>::Set_Next

; 125  : 				addpoint->Set_Next(temp);

	mov	eax, DWORD PTR _temp$2[ebp]
	push	eax
	mov	ecx, DWORD PTR _addpoint$[ebp]
	call	?Set_Next@?$SLNode@VScriptZoneGameObj@@@@QAEXPAV1@@Z ; SLNode<ScriptZoneGameObj>::Set_Next

; 126  : 				addpoint = temp;

	mov	eax, DWORD PTR _temp$2[ebp]
	mov	DWORD PTR _addpoint$[ebp], eax

; 127  : 			}
; 128  : 			else

	jmp	SHORT $LN1@Add_Head
$LN2@Add_Head:

; 129  : 			{
; 130  : 				Add_Head(cur->Data());

	mov	ecx, DWORD PTR _cur$3[ebp]
	call	?Data@?$SLNode@VScriptZoneGameObj@@@@QBEPAVScriptZoneGameObj@@XZ ; SLNode<ScriptZoneGameObj>::Data
	push	eax
	mov	eax, DWORD PTR _this$[ebp]
	mov	edx, DWORD PTR [eax]
	mov	ecx, DWORD PTR _this$[ebp]
	mov	eax, DWORD PTR [edx+8]
	call	eax

; 131  : 				addpoint = HeadNode;

	mov	eax, DWORD PTR _this$[ebp]
	mov	ecx, DWORD PTR [eax+4]
	mov	DWORD PTR _addpoint$[ebp], ecx
$LN1@Add_Head:

; 132  : 			}
; 133  : 		}

	jmp	$LN4@Add_Head
$LN3@Add_Head:

; 134  : 		return true;

	mov	al, 1
$LN7@Add_Head:

; 135  : 	}

	pop	edi
	pop	esi
	pop	ebx
	mov	esp, ebp
	pop	ebp
	ret	4
?Add_Head@?$SList@VScriptZoneGameObj@@@@UAE_NAAV1@@Z ENDP ; SList<ScriptZoneGameObj>::Add_Head
_TEXT	ENDS
; Function compile flags: /Odtp /ZI
; File x:\github\renegade\dragonade_rxd\scripts\slist.h
;	COMDAT ?Add_Head@?$SList@VScriptZoneGameObj@@@@UAE_NPAVScriptZoneGameObj@@@Z
_TEXT	SEGMENT
tv82 = -84						; size = 4
tv84 = -80						; size = 4
$T1 = -76						; size = 4
_temp$ = -8						; size = 4
_this$ = -4						; size = 4
_data$ = 8						; size = 4
?Add_Head@?$SList@VScriptZoneGameObj@@@@UAE_NPAVScriptZoneGameObj@@@Z PROC ; SList<ScriptZoneGameObj>::Add_Head, COMDAT
; _this$ = ecx

; 96   : 	{

	push	ebp
	mov	ebp, esp
	sub	esp, 84					; 00000054H
	push	ebx
	push	esi
	push	edi
	mov	DWORD PTR _this$[ebp], ecx

; 97   : 		if (!data)

	cmp	DWORD PTR _data$[ebp], 0
	jne	SHORT $LN2@Add_Head

; 98   : 		{
; 99   : 			return false;

	xor	al, al
	jmp	$LN3@Add_Head
$LN2@Add_Head:

; 100  : 		}
; 101  : 		SLNode<T> *temp	= new SLNode<T>(data);

	push	OFFSET ??_C@_0CJ@JGELODEC@SList?$DMclass?5ScriptZoneGameObj?$DO?3?3@
	push	101					; 00000065H
	push	OFFSET ??_C@_0DB@DFBFLIIO@x?3?2github?2renegade?2dragonade_rxd@
	call	?SetThreadTrackingInformation@@YAXPBDI0@Z ; SetThreadTrackingInformation
	add	esp, 12					; 0000000cH
	xor	eax, eax
	je	SHORT $LN8@Add_Head
	xor	ecx, ecx
	jne	SHORT $LN5@Add_Head
	push	101					; 00000065H
	push	OFFSET ??_C@_1GC@LJHGOLFN@?$AAx?$AA?3?$AA?2?$AAg?$AAi?$AAt?$AAh?$AAu?$AAb?$AA?2?$AAr?$AAe?$AAn?$AAe?$AAg?$AAa?$AAd?$AAe?$AA?2?$AAd?$AAr?$AAa?$AAg?$AAo?$AAn?$AAa?$AAd?$AAe?$AA_?$AAr?$AAx?$AAd@
	push	OFFSET ??_C@_1M@HLGKFCJM@?$AAf?$AAa?$AAl?$AAs?$AAe?$AA?$AA@
	call	DWORD PTR __imp___wassert
	add	esp, 12					; 0000000cH
$LN5@Add_Head:
	mov	DWORD PTR tv84[ebp], 0
	jmp	SHORT $LN9@Add_Head
$LN8@Add_Head:
	push	0
	push	0
	push	0
	push	8
	call	??2?$AutoPoolClass@VGenericSLNode@@$0BAA@@@SAPAXIPBDI0@Z ; AutoPoolClass<GenericSLNode,256>::operator new
	add	esp, 16					; 00000010H
	mov	DWORD PTR $T1[ebp], eax
	cmp	DWORD PTR $T1[ebp], 0
	je	SHORT $LN6@Add_Head
	mov	eax, DWORD PTR _data$[ebp]
	push	eax
	mov	ecx, DWORD PTR $T1[ebp]
	call	??0?$SLNode@VScriptZoneGameObj@@@@IAE@PAVScriptZoneGameObj@@@Z ; SLNode<ScriptZoneGameObj>::SLNode<ScriptZoneGameObj>
	mov	DWORD PTR tv82[ebp], eax
	jmp	SHORT $LN7@Add_Head
$LN6@Add_Head:
	mov	DWORD PTR tv82[ebp], 0
$LN7@Add_Head:
	mov	ecx, DWORD PTR tv82[ebp]
	mov	DWORD PTR tv84[ebp], ecx
$LN9@Add_Head:
	mov	edx, DWORD PTR tv84[ebp]
	mov	DWORD PTR _temp$[ebp], edx

; 102  : 		temp->Set_Next(HeadNode);

	mov	eax, DWORD PTR _this$[ebp]
	mov	ecx, DWORD PTR [eax+4]
	push	ecx
	mov	ecx, DWORD PTR _temp$[ebp]
	call	?Set_Next@?$SLNode@VScriptZoneGameObj@@@@QAEXPAV1@@Z ; SLNode<ScriptZoneGameObj>::Set_Next

; 103  : 		HeadNode = temp;

	mov	eax, DWORD PTR _this$[ebp]
	mov	ecx, DWORD PTR _temp$[ebp]
	mov	DWORD PTR [eax+4], ecx

; 104  : 		if (!TailNode)

	mov	eax, DWORD PTR _this$[ebp]
	cmp	DWORD PTR [eax+8], 0
	jne	SHORT $LN1@Add_Head

; 105  : 		{
; 106  : 			TailNode = temp;

	mov	eax, DWORD PTR _this$[ebp]
	mov	ecx, DWORD PTR _temp$[ebp]
	mov	DWORD PTR [eax+8], ecx
$LN1@Add_Head:

; 107  : 		}
; 108  : 		return true;

	mov	al, 1
$LN3@Add_Head:

; 109  : 	}

	pop	edi
	pop	esi
	pop	ebx
	mov	esp, ebp
	pop	ebp
	ret	4
?Add_Head@?$SList@VScriptZoneGameObj@@@@UAE_NPAVScriptZoneGameObj@@@Z ENDP ; SList<ScriptZoneGameObj>::Add_Head
_TEXT	ENDS
; Function compile flags: /Odtp /ZI
; File x:\github\renegade\dragonade_rxd\scripts\slist.h
;	COMDAT ??1?$SList@VScriptZoneGameObj@@@@UAE@XZ
_TEXT	SEGMENT
_this$ = -4						; size = 4
??1?$SList@VScriptZoneGameObj@@@@UAE@XZ PROC		; SList<ScriptZoneGameObj>::~SList<ScriptZoneGameObj>, COMDAT
; _this$ = ecx

; 90   : 	{

	push	ebp
	mov	ebp, esp
	sub	esp, 68					; 00000044H
	push	ebx
	push	esi
	push	edi
	mov	DWORD PTR _this$[ebp], ecx
	mov	eax, DWORD PTR _this$[ebp]
	mov	DWORD PTR [eax], OFFSET ??_7?$SList@VScriptZoneGameObj@@@@6B@

; 91   : 		Remove_All();

	mov	ecx, DWORD PTR _this$[ebp]
	call	?Remove_All@?$SList@VScriptZoneGameObj@@@@UAEXXZ ; SList<ScriptZoneGameObj>::Remove_All

; 92   : 	}

	pop	edi
	pop	esi
	pop	ebx
	mov	esp, ebp
	pop	ebp
	ret	0
??1?$SList@VScriptZoneGameObj@@@@UAE@XZ ENDP		; SList<ScriptZoneGameObj>::~SList<ScriptZoneGameObj>
_TEXT	ENDS
; Function compile flags: /Odtp /ZI
; File x:\github\renegade\dragonade_rxd\scripts\slist.h
;	COMDAT ??0?$SList@VScriptZoneGameObj@@@@QAE@XZ
_TEXT	SEGMENT
_this$ = -4						; size = 4
??0?$SList@VScriptZoneGameObj@@@@QAE@XZ PROC		; SList<ScriptZoneGameObj>::SList<ScriptZoneGameObj>, COMDAT
; _this$ = ecx

; 86   : 	{

	push	ebp
	mov	ebp, esp
	sub	esp, 68					; 00000044H
	push	ebx
	push	esi
	push	edi
	mov	DWORD PTR _this$[ebp], ecx
	mov	eax, DWORD PTR _this$[ebp]
	mov	DWORD PTR [eax], OFFSET ??_7?$SList@VScriptZoneGameObj@@@@6B@
	mov	eax, DWORD PTR _this$[ebp]
	mov	DWORD PTR [eax+4], 0
	mov	eax, DWORD PTR _this$[ebp]
	mov	DWORD PTR [eax+8], 0

; 87   : 	}

	mov	eax, DWORD PTR _this$[ebp]
	pop	edi
	pop	esi
	pop	ebx
	mov	esp, ebp
	pop	ebp
	ret	0
??0?$SList@VScriptZoneGameObj@@@@QAE@XZ ENDP		; SList<ScriptZoneGameObj>::SList<ScriptZoneGameObj>
_TEXT	ENDS
; Function compile flags: /Odtp /ZI
;	COMDAT ??_G?$SList@VVehicleGameObj@@@@UAEPAXI@Z
_TEXT	SEGMENT
_this$ = -4						; size = 4
___flags$ = 8						; size = 4
??_G?$SList@VVehicleGameObj@@@@UAEPAXI@Z PROC		; SList<VehicleGameObj>::`scalar deleting destructor', COMDAT
; _this$ = ecx
	push	ebp
	mov	ebp, esp
	sub	esp, 68					; 00000044H
	push	ebx
	push	esi
	push	edi
	mov	DWORD PTR _this$[ebp], ecx
	mov	ecx, DWORD PTR _this$[ebp]
	call	??1?$SList@VVehicleGameObj@@@@UAE@XZ	; SList<VehicleGameObj>::~SList<VehicleGameObj>
	mov	eax, DWORD PTR ___flags$[ebp]
	and	eax, 1
	je	SHORT $LN1@scalar
	mov	eax, DWORD PTR _this$[ebp]
	push	eax
	call	??3@YAXPAX@Z				; operator delete
	add	esp, 4
$LN1@scalar:
	mov	eax, DWORD PTR _this$[ebp]
	pop	edi
	pop	esi
	pop	ebx
	mov	esp, ebp
	pop	ebp
	ret	4
??_G?$SList@VVehicleGameObj@@@@UAEPAXI@Z ENDP		; SList<VehicleGameObj>::`scalar deleting destructor'
_TEXT	ENDS
; Function compile flags: /Odtp /ZI
; File x:\github\renegade\dragonade_rxd\scripts\slist.h
;	COMDAT ?Get_Count@?$SList@VVehicleGameObj@@@@UBEIXZ
_TEXT	SEGMENT
_node$1 = -12						; size = 4
_count$ = -8						; size = 4
_this$ = -4						; size = 4
?Get_Count@?$SList@VVehicleGameObj@@@@UBEIXZ PROC	; SList<VehicleGameObj>::Get_Count, COMDAT
; _this$ = ecx

; 302  : 	{

	push	ebp
	mov	ebp, esp
	sub	esp, 76					; 0000004cH
	push	ebx
	push	esi
	push	edi
	mov	DWORD PTR _this$[ebp], ecx

; 303  : 		uint32 count = 0;

	mov	DWORD PTR _count$[ebp], 0

; 304  : 
; 305  : 		for (SLNode<T>* node = HeadNode; node; node = node->Next())

	mov	eax, DWORD PTR _this$[ebp]
	mov	ecx, DWORD PTR [eax+4]
	mov	DWORD PTR _node$1[ebp], ecx
	jmp	SHORT $LN3@Get_Count
$LN2@Get_Count:
	mov	ecx, DWORD PTR _node$1[ebp]
	call	?Next@?$SLNode@VVehicleGameObj@@@@QBEPAV1@XZ ; SLNode<VehicleGameObj>::Next
	mov	DWORD PTR _node$1[ebp], eax
$LN3@Get_Count:
	cmp	DWORD PTR _node$1[ebp], 0
	je	SHORT $LN1@Get_Count

; 306  : 			++count;

	mov	eax, DWORD PTR _count$[ebp]
	add	eax, 1
	mov	DWORD PTR _count$[ebp], eax
	jmp	SHORT $LN2@Get_Count
$LN1@Get_Count:

; 307  : 
; 308  : 		return count;

	mov	eax, DWORD PTR _count$[ebp]

; 309  : 	}

	pop	edi
	pop	esi
	pop	ebx
	mov	esp, ebp
	pop	ebp
	ret	0
?Get_Count@?$SList@VVehicleGameObj@@@@UBEIXZ ENDP	; SList<VehicleGameObj>::Get_Count
_TEXT	ENDS
; Function compile flags: /Odtp /ZI
; File x:\github\renegade\dragonade_rxd\scripts\slist.h
;	COMDAT ?Is_Empty@?$SList@VVehicleGameObj@@@@UBE_NXZ
_TEXT	SEGMENT
tv66 = -72						; size = 4
_this$ = -4						; size = 4
?Is_Empty@?$SList@VVehicleGameObj@@@@UBE_NXZ PROC	; SList<VehicleGameObj>::Is_Empty, COMDAT
; _this$ = ecx

; 296  : 	{

	push	ebp
	mov	ebp, esp
	sub	esp, 72					; 00000048H
	push	ebx
	push	esi
	push	edi
	mov	DWORD PTR _this$[ebp], ecx

; 297  : 		return !HeadNode;

	mov	eax, DWORD PTR _this$[ebp]
	cmp	DWORD PTR [eax+4], 0
	jne	SHORT $LN3@Is_Empty
	mov	DWORD PTR tv66[ebp], 1
	jmp	SHORT $LN4@Is_Empty
$LN3@Is_Empty:
	mov	DWORD PTR tv66[ebp], 0
$LN4@Is_Empty:
	mov	al, BYTE PTR tv66[ebp]

; 298  : 	}

	pop	edi
	pop	esi
	pop	ebx
	mov	esp, ebp
	pop	ebp
	ret	0
?Is_Empty@?$SList@VVehicleGameObj@@@@UBE_NXZ ENDP	; SList<VehicleGameObj>::Is_Empty
_TEXT	ENDS
; Function compile flags: /Odtp /ZI
; File x:\github\renegade\dragonade_rxd\scripts\slist.h
;	COMDAT ?Insert_After@?$SList@VVehicleGameObj@@@@UAE_NPAVVehicleGameObj@@PBV2@@Z
_TEXT	SEGMENT
tv140 = -88						; size = 4
tv142 = -84						; size = 4
$T1 = -80						; size = 4
_temp$2 = -12						; size = 4
_cur$ = -8						; size = 4
_this$ = -4						; size = 4
_newnode$ = 8						; size = 4
_oldnode$ = 12						; size = 4
?Insert_After@?$SList@VVehicleGameObj@@@@UAE_NPAVVehicleGameObj@@PBV2@@Z PROC ; SList<VehicleGameObj>::Insert_After, COMDAT
; _this$ = ecx

; 267  : 	{

	push	ebp
	mov	ebp, esp
	sub	esp, 88					; 00000058H
	push	ebx
	push	esi
	push	edi
	mov	DWORD PTR _this$[ebp], ecx

; 268  : 		if (newnode == NULL)

	cmp	DWORD PTR _newnode$[ebp], 0
	jne	SHORT $LN8@Insert_Aft

; 269  : 		{
; 270  : 			return false;

	xor	al, al
	jmp	$LN9@Insert_Aft
$LN8@Insert_Aft:

; 271  : 		}
; 272  : 		if (oldnode == NULL || HeadNode == NULL)

	cmp	DWORD PTR _oldnode$[ebp], 0
	je	SHORT $LN6@Insert_Aft
	mov	eax, DWORD PTR _this$[ebp]
	cmp	DWORD PTR [eax+4], 0
	jne	SHORT $LN7@Insert_Aft
$LN6@Insert_Aft:

; 273  : 		{
; 274  : 			return(Add_Head(newnode));

	mov	eax, DWORD PTR _newnode$[ebp]
	push	eax
	mov	ecx, DWORD PTR _this$[ebp]
	mov	edx, DWORD PTR [ecx]
	mov	ecx, DWORD PTR _this$[ebp]
	mov	eax, DWORD PTR [edx+8]
	call	eax
	jmp	$LN9@Insert_Aft
$LN7@Insert_Aft:

; 275  : 		}
; 276  : 		SLNode<T> *cur;
; 277  : 		for (cur = HeadNode; cur && cur->Data() != oldnode; cur = cur->Next())

	mov	eax, DWORD PTR _this$[ebp]
	mov	ecx, DWORD PTR [eax+4]
	mov	DWORD PTR _cur$[ebp], ecx
	jmp	SHORT $LN5@Insert_Aft
$LN4@Insert_Aft:
	mov	ecx, DWORD PTR _cur$[ebp]
	call	?Next@?$SLNode@VVehicleGameObj@@@@QBEPAV1@XZ ; SLNode<VehicleGameObj>::Next
	mov	DWORD PTR _cur$[ebp], eax
$LN5@Insert_Aft:
	cmp	DWORD PTR _cur$[ebp], 0
	je	SHORT $LN3@Insert_Aft
	mov	ecx, DWORD PTR _cur$[ebp]
	call	?Data@?$SLNode@VVehicleGameObj@@@@QBEPAVVehicleGameObj@@XZ ; SLNode<VehicleGameObj>::Data
	cmp	eax, DWORD PTR _oldnode$[ebp]
	je	SHORT $LN3@Insert_Aft

; 278  : 		{
; 279  : 		}

	jmp	SHORT $LN4@Insert_Aft
$LN3@Insert_Aft:

; 280  : 		if (cur != NULL  && cur->Data() == oldnode)

	cmp	DWORD PTR _cur$[ebp], 0
	je	$LN2@Insert_Aft
	mov	ecx, DWORD PTR _cur$[ebp]
	call	?Data@?$SLNode@VVehicleGameObj@@@@QBEPAVVehicleGameObj@@XZ ; SLNode<VehicleGameObj>::Data
	cmp	eax, DWORD PTR _oldnode$[ebp]
	jne	$LN2@Insert_Aft

; 281  : 		{
; 282  : 			if (cur == TailNode)

	mov	eax, DWORD PTR _this$[ebp]
	mov	ecx, DWORD PTR _cur$[ebp]
	cmp	ecx, DWORD PTR [eax+8]
	jne	SHORT $LN1@Insert_Aft

; 283  : 			{
; 284  : 				return(Add_Tail(newnode));

	mov	eax, DWORD PTR _newnode$[ebp]
	push	eax
	mov	ecx, DWORD PTR _this$[ebp]
	mov	edx, DWORD PTR [ecx]
	mov	ecx, DWORD PTR _this$[ebp]
	mov	eax, DWORD PTR [edx+16]
	call	eax
	jmp	$LN9@Insert_Aft
$LN1@Insert_Aft:

; 285  : 			}
; 286  : 			SLNode<T> *temp = new SLNode<T>(newnode);

	push	OFFSET ??_C@_0CK@IKHALJOC@SList?$DMclass?5VehicleGameObj?$DO?3?3Ins@
	push	286					; 0000011eH
	push	OFFSET ??_C@_0DB@DFBFLIIO@x?3?2github?2renegade?2dragonade_rxd@
	call	?SetThreadTrackingInformation@@YAXPBDI0@Z ; SetThreadTrackingInformation
	add	esp, 12					; 0000000cH
	xor	eax, eax
	je	SHORT $LN14@Insert_Aft
	xor	ecx, ecx
	jne	SHORT $LN11@Insert_Aft
	push	286					; 0000011eH
	push	OFFSET ??_C@_1GC@LJHGOLFN@?$AAx?$AA?3?$AA?2?$AAg?$AAi?$AAt?$AAh?$AAu?$AAb?$AA?2?$AAr?$AAe?$AAn?$AAe?$AAg?$AAa?$AAd?$AAe?$AA?2?$AAd?$AAr?$AAa?$AAg?$AAo?$AAn?$AAa?$AAd?$AAe?$AA_?$AAr?$AAx?$AAd@
	push	OFFSET ??_C@_1M@HLGKFCJM@?$AAf?$AAa?$AAl?$AAs?$AAe?$AA?$AA@
	call	DWORD PTR __imp___wassert
	add	esp, 12					; 0000000cH
$LN11@Insert_Aft:
	mov	DWORD PTR tv142[ebp], 0
	jmp	SHORT $LN15@Insert_Aft
$LN14@Insert_Aft:
	push	0
	push	0
	push	0
	push	8
	call	??2?$AutoPoolClass@VGenericSLNode@@$0BAA@@@SAPAXIPBDI0@Z ; AutoPoolClass<GenericSLNode,256>::operator new
	add	esp, 16					; 00000010H
	mov	DWORD PTR $T1[ebp], eax
	cmp	DWORD PTR $T1[ebp], 0
	je	SHORT $LN12@Insert_Aft
	mov	eax, DWORD PTR _newnode$[ebp]
	push	eax
	mov	ecx, DWORD PTR $T1[ebp]
	call	??0?$SLNode@VVehicleGameObj@@@@IAE@PAVVehicleGameObj@@@Z ; SLNode<VehicleGameObj>::SLNode<VehicleGameObj>
	mov	DWORD PTR tv140[ebp], eax
	jmp	SHORT $LN13@Insert_Aft
$LN12@Insert_Aft:
	mov	DWORD PTR tv140[ebp], 0
$LN13@Insert_Aft:
	mov	ecx, DWORD PTR tv140[ebp]
	mov	DWORD PTR tv142[ebp], ecx
$LN15@Insert_Aft:
	mov	edx, DWORD PTR tv142[ebp]
	mov	DWORD PTR _temp$2[ebp], edx

; 287  : 			temp->Set_Next(cur->Next());

	mov	ecx, DWORD PTR _cur$[ebp]
	call	?Next@?$SLNode@VVehicleGameObj@@@@QBEPAV1@XZ ; SLNode<VehicleGameObj>::Next
	push	eax
	mov	ecx, DWORD PTR _temp$2[ebp]
	call	?Set_Next@?$SLNode@VVehicleGameObj@@@@QAEXPAV1@@Z ; SLNode<VehicleGameObj>::Set_Next

; 288  : 			cur->Set_Next(temp);

	mov	eax, DWORD PTR _temp$2[ebp]
	push	eax
	mov	ecx, DWORD PTR _cur$[ebp]
	call	?Set_Next@?$SLNode@VVehicleGameObj@@@@QAEXPAV1@@Z ; SLNode<VehicleGameObj>::Set_Next

; 289  : 			return true;

	mov	al, 1
	jmp	SHORT $LN9@Insert_Aft
$LN2@Insert_Aft:

; 290  : 		}
; 291  : 		return false;

	xor	al, al
$LN9@Insert_Aft:

; 292  : 	}

	pop	edi
	pop	esi
	pop	ebx
	mov	esp, ebp
	pop	ebp
	ret	8
?Insert_After@?$SList@VVehicleGameObj@@@@UAE_NPAVVehicleGameObj@@PBV2@@Z ENDP ; SList<VehicleGameObj>::Insert_After
_TEXT	ENDS
; Function compile flags: /Odtp /ZI
; File x:\github\renegade\dragonade_rxd\scripts\slist.h
;	COMDAT ?Insert_Before@?$SList@VVehicleGameObj@@@@UAE_NPAVVehicleGameObj@@PBV2@@Z
_TEXT	SEGMENT
tv145 = -88						; size = 4
tv147 = -84						; size = 4
$T1 = -80						; size = 4
_temp$2 = -12						; size = 4
_cur$ = -8						; size = 4
_this$ = -4						; size = 4
_newnode$ = 8						; size = 4
_oldnode$ = 12						; size = 4
?Insert_Before@?$SList@VVehicleGameObj@@@@UAE_NPAVVehicleGameObj@@PBV2@@Z PROC ; SList<VehicleGameObj>::Insert_Before, COMDAT
; _this$ = ecx

; 243  : 	{

	push	ebp
	mov	ebp, esp
	sub	esp, 88					; 00000058H
	push	ebx
	push	esi
	push	edi
	mov	DWORD PTR _this$[ebp], ecx

; 244  : 		if (newnode == NULL)

	cmp	DWORD PTR _newnode$[ebp], 0
	jne	SHORT $LN7@Insert_Bef

; 245  : 		{
; 246  : 			return false;

	xor	al, al
	jmp	$LN8@Insert_Bef
$LN7@Insert_Bef:

; 247  : 		}
; 248  : 		if (oldnode == NULL || HeadNode == NULL || HeadNode->Data() == oldnode)

	cmp	DWORD PTR _oldnode$[ebp], 0
	je	SHORT $LN5@Insert_Bef
	mov	eax, DWORD PTR _this$[ebp]
	cmp	DWORD PTR [eax+4], 0
	je	SHORT $LN5@Insert_Bef
	mov	eax, DWORD PTR _this$[ebp]
	mov	ecx, DWORD PTR [eax+4]
	call	?Data@?$SLNode@VVehicleGameObj@@@@QBEPAVVehicleGameObj@@XZ ; SLNode<VehicleGameObj>::Data
	cmp	eax, DWORD PTR _oldnode$[ebp]
	jne	SHORT $LN6@Insert_Bef
$LN5@Insert_Bef:

; 249  : 		{
; 250  : 			return Add_Head(newnode);

	mov	eax, DWORD PTR _newnode$[ebp]
	push	eax
	mov	ecx, DWORD PTR _this$[ebp]
	mov	edx, DWORD PTR [ecx]
	mov	ecx, DWORD PTR _this$[ebp]
	mov	eax, DWORD PTR [edx+8]
	call	eax
	jmp	$LN8@Insert_Bef
$LN6@Insert_Bef:

; 251  : 		}
; 252  : 		SLNode<T> *cur;
; 253  : 		for (cur=HeadNode; cur->Next() && cur->Next()->Data() != oldnode; cur=cur->Next())

	mov	eax, DWORD PTR _this$[ebp]
	mov	ecx, DWORD PTR [eax+4]
	mov	DWORD PTR _cur$[ebp], ecx
	jmp	SHORT $LN4@Insert_Bef
$LN3@Insert_Bef:
	mov	ecx, DWORD PTR _cur$[ebp]
	call	?Next@?$SLNode@VVehicleGameObj@@@@QBEPAV1@XZ ; SLNode<VehicleGameObj>::Next
	mov	DWORD PTR _cur$[ebp], eax
$LN4@Insert_Bef:
	mov	ecx, DWORD PTR _cur$[ebp]
	call	?Next@?$SLNode@VVehicleGameObj@@@@QBEPAV1@XZ ; SLNode<VehicleGameObj>::Next
	test	eax, eax
	je	SHORT $LN2@Insert_Bef
	mov	ecx, DWORD PTR _cur$[ebp]
	call	?Next@?$SLNode@VVehicleGameObj@@@@QBEPAV1@XZ ; SLNode<VehicleGameObj>::Next
	mov	ecx, eax
	call	?Data@?$SLNode@VVehicleGameObj@@@@QBEPAVVehicleGameObj@@XZ ; SLNode<VehicleGameObj>::Data
	cmp	eax, DWORD PTR _oldnode$[ebp]
	je	SHORT $LN2@Insert_Bef

; 254  : 		{
; 255  : 		}

	jmp	SHORT $LN3@Insert_Bef
$LN2@Insert_Bef:

; 256  : 		if (cur->Next() != NULL && cur->Next()->Data() == oldnode)

	mov	ecx, DWORD PTR _cur$[ebp]
	call	?Next@?$SLNode@VVehicleGameObj@@@@QBEPAV1@XZ ; SLNode<VehicleGameObj>::Next
	test	eax, eax
	je	$LN1@Insert_Bef
	mov	ecx, DWORD PTR _cur$[ebp]
	call	?Next@?$SLNode@VVehicleGameObj@@@@QBEPAV1@XZ ; SLNode<VehicleGameObj>::Next
	mov	ecx, eax
	call	?Data@?$SLNode@VVehicleGameObj@@@@QBEPAVVehicleGameObj@@XZ ; SLNode<VehicleGameObj>::Data
	cmp	eax, DWORD PTR _oldnode$[ebp]
	jne	$LN1@Insert_Bef

; 257  : 		{
; 258  : 			SLNode<T> *temp	= new SLNode<T> (newnode);

	push	OFFSET ??_C@_0CL@JEOFCALK@SList?$DMclass?5VehicleGameObj?$DO?3?3Ins@
	push	258					; 00000102H
	push	OFFSET ??_C@_0DB@DFBFLIIO@x?3?2github?2renegade?2dragonade_rxd@
	call	?SetThreadTrackingInformation@@YAXPBDI0@Z ; SetThreadTrackingInformation
	add	esp, 12					; 0000000cH
	xor	eax, eax
	je	SHORT $LN13@Insert_Bef
	xor	ecx, ecx
	jne	SHORT $LN10@Insert_Bef
	push	258					; 00000102H
	push	OFFSET ??_C@_1GC@LJHGOLFN@?$AAx?$AA?3?$AA?2?$AAg?$AAi?$AAt?$AAh?$AAu?$AAb?$AA?2?$AAr?$AAe?$AAn?$AAe?$AAg?$AAa?$AAd?$AAe?$AA?2?$AAd?$AAr?$AAa?$AAg?$AAo?$AAn?$AAa?$AAd?$AAe?$AA_?$AAr?$AAx?$AAd@
	push	OFFSET ??_C@_1M@HLGKFCJM@?$AAf?$AAa?$AAl?$AAs?$AAe?$AA?$AA@
	call	DWORD PTR __imp___wassert
	add	esp, 12					; 0000000cH
$LN10@Insert_Bef:
	mov	DWORD PTR tv147[ebp], 0
	jmp	SHORT $LN14@Insert_Bef
$LN13@Insert_Bef:
	push	0
	push	0
	push	0
	push	8
	call	??2?$AutoPoolClass@VGenericSLNode@@$0BAA@@@SAPAXIPBDI0@Z ; AutoPoolClass<GenericSLNode,256>::operator new
	add	esp, 16					; 00000010H
	mov	DWORD PTR $T1[ebp], eax
	cmp	DWORD PTR $T1[ebp], 0
	je	SHORT $LN11@Insert_Bef
	mov	eax, DWORD PTR _newnode$[ebp]
	push	eax
	mov	ecx, DWORD PTR $T1[ebp]
	call	??0?$SLNode@VVehicleGameObj@@@@IAE@PAVVehicleGameObj@@@Z ; SLNode<VehicleGameObj>::SLNode<VehicleGameObj>
	mov	DWORD PTR tv145[ebp], eax
	jmp	SHORT $LN12@Insert_Bef
$LN11@Insert_Bef:
	mov	DWORD PTR tv145[ebp], 0
$LN12@Insert_Bef:
	mov	ecx, DWORD PTR tv145[ebp]
	mov	DWORD PTR tv147[ebp], ecx
$LN14@Insert_Bef:
	mov	edx, DWORD PTR tv147[ebp]
	mov	DWORD PTR _temp$2[ebp], edx

; 259  : 			temp->Set_Next(cur->Next());

	mov	ecx, DWORD PTR _cur$[ebp]
	call	?Next@?$SLNode@VVehicleGameObj@@@@QBEPAV1@XZ ; SLNode<VehicleGameObj>::Next
	push	eax
	mov	ecx, DWORD PTR _temp$2[ebp]
	call	?Set_Next@?$SLNode@VVehicleGameObj@@@@QAEXPAV1@@Z ; SLNode<VehicleGameObj>::Set_Next

; 260  : 			cur->Set_Next(temp);

	mov	eax, DWORD PTR _temp$2[ebp]
	push	eax
	mov	ecx, DWORD PTR _cur$[ebp]
	call	?Set_Next@?$SLNode@VVehicleGameObj@@@@QAEXPAV1@@Z ; SLNode<VehicleGameObj>::Set_Next

; 261  : 			return true;

	mov	al, 1
	jmp	SHORT $LN8@Insert_Bef
$LN1@Insert_Bef:

; 262  : 		}
; 263  : 		return false;

	xor	al, al
$LN8@Insert_Bef:

; 264  : 	}

	pop	edi
	pop	esi
	pop	ebx
	mov	esp, ebp
	pop	ebp
	ret	8
?Insert_Before@?$SList@VVehicleGameObj@@@@UAE_NPAVVehicleGameObj@@PBV2@@Z ENDP ; SList<VehicleGameObj>::Insert_Before
_TEXT	ENDS
; Function compile flags: /Odtp /ZI
; File x:\github\renegade\dragonade_rxd\scripts\slist.h
;	COMDAT ?Remove_All@?$SList@VVehicleGameObj@@@@UAEXXZ
_TEXT	SEGMENT
$T1 = -80						; size = 4
_cur$2 = -12						; size = 4
_next$ = -8						; size = 4
_this$ = -4						; size = 4
?Remove_All@?$SList@VVehicleGameObj@@@@UAEXXZ PROC	; SList<VehicleGameObj>::Remove_All, COMDAT
; _this$ = ecx

; 231  : 	{

	push	ebp
	mov	ebp, esp
	sub	esp, 80					; 00000050H
	push	ebx
	push	esi
	push	edi
	mov	DWORD PTR _this$[ebp], ecx

; 232  : 		SLNode<T> *next;
; 233  : 		for (SLNode<T> *cur = HeadNode; cur; cur = next)

	mov	eax, DWORD PTR _this$[ebp]
	mov	ecx, DWORD PTR [eax+4]
	mov	DWORD PTR _cur$2[ebp], ecx
	jmp	SHORT $LN3@Remove_All
$LN2@Remove_All:
	mov	eax, DWORD PTR _next$[ebp]
	mov	DWORD PTR _cur$2[ebp], eax
$LN3@Remove_All:
	cmp	DWORD PTR _cur$2[ebp], 0
	je	SHORT $LN1@Remove_All

; 234  : 		{
; 235  : 			next = cur->Next();

	mov	ecx, DWORD PTR _cur$2[ebp]
	call	?Next@?$SLNode@VVehicleGameObj@@@@QBEPAV1@XZ ; SLNode<VehicleGameObj>::Next
	mov	DWORD PTR _next$[ebp], eax

; 236  : 			delete cur;

	push	OFFSET ??_C@_0CI@KEEHBCAJ@SList?$DMclass?5VehicleGameObj?$DO?3?3Rem@
	push	236					; 000000ecH
	push	OFFSET ??_C@_0DB@DFBFLIIO@x?3?2github?2renegade?2dragonade_rxd@
	call	?SetThreadTrackingInformation@@YAXPBDI0@Z ; SetThreadTrackingInformation
	add	esp, 12					; 0000000cH
	xor	eax, eax
	je	SHORT $LN7@Remove_All
	xor	ecx, ecx
	jne	SHORT $LN6@Remove_All
	push	236					; 000000ecH
	push	OFFSET ??_C@_1GC@LJHGOLFN@?$AAx?$AA?3?$AA?2?$AAg?$AAi?$AAt?$AAh?$AAu?$AAb?$AA?2?$AAr?$AAe?$AAn?$AAe?$AAg?$AAa?$AAd?$AAe?$AA?2?$AAd?$AAr?$AAa?$AAg?$AAo?$AAn?$AAa?$AAd?$AAe?$AA_?$AAr?$AAx?$AAd@
	push	OFFSET ??_C@_1M@HLGKFCJM@?$AAf?$AAa?$AAl?$AAs?$AAe?$AA?$AA@
	call	DWORD PTR __imp___wassert
	add	esp, 12					; 0000000cH
$LN6@Remove_All:
	jmp	SHORT $LN8@Remove_All
$LN7@Remove_All:
	mov	eax, DWORD PTR _cur$2[ebp]
	mov	DWORD PTR $T1[ebp], eax
	mov	ecx, DWORD PTR $T1[ebp]
	push	ecx
	call	??3?$AutoPoolClass@VGenericSLNode@@$0BAA@@@SAXPAX@Z ; AutoPoolClass<GenericSLNode,256>::operator delete
	add	esp, 4
$LN8@Remove_All:

; 237  : 		}

	jmp	SHORT $LN2@Remove_All
$LN1@Remove_All:

; 238  : 		HeadNode = TailNode = NULL;

	mov	eax, DWORD PTR _this$[ebp]
	mov	DWORD PTR [eax+8], 0
	mov	ecx, DWORD PTR _this$[ebp]
	mov	DWORD PTR [ecx+4], 0

; 239  : 	}

	pop	edi
	pop	esi
	pop	ebx
	mov	esp, ebp
	pop	ebp
	ret	0
?Remove_All@?$SList@VVehicleGameObj@@@@UAEXXZ ENDP	; SList<VehicleGameObj>::Remove_All
_TEXT	ENDS
; Function compile flags: /Odtp /ZI
; File x:\github\renegade\dragonade_rxd\scripts\slist.h
;	COMDAT ?Remove@?$SList@VVehicleGameObj@@@@UAE_NPBVVehicleGameObj@@@Z
_TEXT	SEGMENT
tv76 = -81						; size = 1
$T1 = -80						; size = 4
_temp$2 = -12						; size = 4
_cur$ = -8						; size = 4
_this$ = -4						; size = 4
_element$ = 8						; size = 4
?Remove@?$SList@VVehicleGameObj@@@@UAE_NPBVVehicleGameObj@@@Z PROC ; SList<VehicleGameObj>::Remove, COMDAT
; _this$ = ecx

; 202  : 	{

	push	ebp
	mov	ebp, esp
	sub	esp, 84					; 00000054H
	push	ebx
	push	esi
	push	edi
	mov	DWORD PTR _this$[ebp], ecx

; 203  : 		if (element == NULL || HeadNode == NULL)

	cmp	DWORD PTR _element$[ebp], 0
	je	SHORT $LN7@Remove
	mov	eax, DWORD PTR _this$[ebp]
	cmp	DWORD PTR [eax+4], 0
	jne	SHORT $LN8@Remove
$LN7@Remove:

; 204  : 		{
; 205  : 			return false;

	xor	al, al
	jmp	$LN9@Remove
$LN8@Remove:

; 206  : 		}
; 207  : 		if (HeadNode->Data() == element)

	mov	eax, DWORD PTR _this$[ebp]
	mov	ecx, DWORD PTR [eax+4]
	call	?Data@?$SLNode@VVehicleGameObj@@@@QBEPAVVehicleGameObj@@XZ ; SLNode<VehicleGameObj>::Data
	cmp	eax, DWORD PTR _element$[ebp]
	jne	SHORT $LN6@Remove

; 208  : 		{
; 209  : 			return Remove_Head() != NULL ? true : false;

	mov	eax, DWORD PTR _this$[ebp]
	mov	edx, DWORD PTR [eax]
	mov	ecx, DWORD PTR _this$[ebp]
	mov	eax, DWORD PTR [edx+20]
	call	eax
	test	eax, eax
	je	SHORT $LN11@Remove
	mov	BYTE PTR tv76[ebp], 1
	jmp	SHORT $LN12@Remove
$LN11@Remove:
	mov	BYTE PTR tv76[ebp], 0
$LN12@Remove:
	mov	al, BYTE PTR tv76[ebp]
	jmp	$LN9@Remove
$LN6@Remove:

; 210  : 		}
; 211  : 		SLNode<T> *cur;
; 212  : 		for (cur = HeadNode; cur->Next() && cur->Next()->Data() != element; cur=cur->Next())

	mov	eax, DWORD PTR _this$[ebp]
	mov	ecx, DWORD PTR [eax+4]
	mov	DWORD PTR _cur$[ebp], ecx
	jmp	SHORT $LN5@Remove
$LN4@Remove:
	mov	ecx, DWORD PTR _cur$[ebp]
	call	?Next@?$SLNode@VVehicleGameObj@@@@QBEPAV1@XZ ; SLNode<VehicleGameObj>::Next
	mov	DWORD PTR _cur$[ebp], eax
$LN5@Remove:
	mov	ecx, DWORD PTR _cur$[ebp]
	call	?Next@?$SLNode@VVehicleGameObj@@@@QBEPAV1@XZ ; SLNode<VehicleGameObj>::Next
	test	eax, eax
	je	SHORT $LN3@Remove
	mov	ecx, DWORD PTR _cur$[ebp]
	call	?Next@?$SLNode@VVehicleGameObj@@@@QBEPAV1@XZ ; SLNode<VehicleGameObj>::Next
	mov	ecx, eax
	call	?Data@?$SLNode@VVehicleGameObj@@@@QBEPAVVehicleGameObj@@XZ ; SLNode<VehicleGameObj>::Data
	cmp	eax, DWORD PTR _element$[ebp]
	je	SHORT $LN3@Remove

; 213  : 		{
; 214  : 		}

	jmp	SHORT $LN4@Remove
$LN3@Remove:

; 215  : 		if (cur->Next() != NULL && cur->Next()->Data() == element)

	mov	ecx, DWORD PTR _cur$[ebp]
	call	?Next@?$SLNode@VVehicleGameObj@@@@QBEPAV1@XZ ; SLNode<VehicleGameObj>::Next
	test	eax, eax
	je	$LN2@Remove
	mov	ecx, DWORD PTR _cur$[ebp]
	call	?Next@?$SLNode@VVehicleGameObj@@@@QBEPAV1@XZ ; SLNode<VehicleGameObj>::Next
	mov	ecx, eax
	call	?Data@?$SLNode@VVehicleGameObj@@@@QBEPAVVehicleGameObj@@XZ ; SLNode<VehicleGameObj>::Data
	cmp	eax, DWORD PTR _element$[ebp]
	jne	SHORT $LN2@Remove

; 216  : 		{
; 217  : 			SLNode<T> *temp	= cur->Next();

	mov	ecx, DWORD PTR _cur$[ebp]
	call	?Next@?$SLNode@VVehicleGameObj@@@@QBEPAV1@XZ ; SLNode<VehicleGameObj>::Next
	mov	DWORD PTR _temp$2[ebp], eax

; 218  : 			cur->Set_Next(temp->Next());

	mov	ecx, DWORD PTR _temp$2[ebp]
	call	?Next@?$SLNode@VVehicleGameObj@@@@QBEPAV1@XZ ; SLNode<VehicleGameObj>::Next
	push	eax
	mov	ecx, DWORD PTR _cur$[ebp]
	call	?Set_Next@?$SLNode@VVehicleGameObj@@@@QAEXPAV1@@Z ; SLNode<VehicleGameObj>::Set_Next

; 219  : 			if (temp == TailNode)

	mov	eax, DWORD PTR _this$[ebp]
	mov	ecx, DWORD PTR _temp$2[ebp]
	cmp	ecx, DWORD PTR [eax+8]
	jne	SHORT $LN1@Remove

; 220  : 			{
; 221  : 				TailNode = cur;

	mov	eax, DWORD PTR _this$[ebp]
	mov	ecx, DWORD PTR _cur$[ebp]
	mov	DWORD PTR [eax+8], ecx
$LN1@Remove:

; 222  : 			}
; 223  : 			delete temp;

	push	OFFSET ??_C@_0CE@EAMIMMAP@SList?$DMclass?5VehicleGameObj?$DO?3?3Rem@
	push	223					; 000000dfH
	push	OFFSET ??_C@_0DB@DFBFLIIO@x?3?2github?2renegade?2dragonade_rxd@
	call	?SetThreadTrackingInformation@@YAXPBDI0@Z ; SetThreadTrackingInformation
	add	esp, 12					; 0000000cH
	xor	eax, eax
	je	SHORT $LN14@Remove
	xor	ecx, ecx
	jne	SHORT $LN13@Remove
	push	223					; 000000dfH
	push	OFFSET ??_C@_1GC@LJHGOLFN@?$AAx?$AA?3?$AA?2?$AAg?$AAi?$AAt?$AAh?$AAu?$AAb?$AA?2?$AAr?$AAe?$AAn?$AAe?$AAg?$AAa?$AAd?$AAe?$AA?2?$AAd?$AAr?$AAa?$AAg?$AAo?$AAn?$AAa?$AAd?$AAe?$AA_?$AAr?$AAx?$AAd@
	push	OFFSET ??_C@_1M@HLGKFCJM@?$AAf?$AAa?$AAl?$AAs?$AAe?$AA?$AA@
	call	DWORD PTR __imp___wassert
	add	esp, 12					; 0000000cH
$LN13@Remove:
	jmp	SHORT $LN15@Remove
$LN14@Remove:
	mov	eax, DWORD PTR _temp$2[ebp]
	mov	DWORD PTR $T1[ebp], eax
	mov	ecx, DWORD PTR $T1[ebp]
	push	ecx
	call	??3?$AutoPoolClass@VGenericSLNode@@$0BAA@@@SAXPAX@Z ; AutoPoolClass<GenericSLNode,256>::operator delete
	add	esp, 4
$LN15@Remove:

; 224  : 			return true;

	mov	al, 1
	jmp	SHORT $LN9@Remove
$LN2@Remove:

; 225  : 		}
; 226  : 		return false;

	xor	al, al
$LN9@Remove:

; 227  : 	}

	pop	edi
	pop	esi
	pop	ebx
	mov	esp, ebp
	pop	ebp
	ret	4
?Remove@?$SList@VVehicleGameObj@@@@UAE_NPBVVehicleGameObj@@@Z ENDP ; SList<VehicleGameObj>::Remove
_TEXT	ENDS
; Function compile flags: /Odtp /ZI
; File x:\github\renegade\dragonade_rxd\scripts\slist.h
;	COMDAT ?Remove_Tail@?$SList@VVehicleGameObj@@@@UAEPAVVehicleGameObj@@XZ
_TEXT	SEGMENT
tv76 = -76						; size = 4
_data$ = -8						; size = 4
_this$ = -4						; size = 4
?Remove_Tail@?$SList@VVehicleGameObj@@@@UAEPAVVehicleGameObj@@XZ PROC ; SList<VehicleGameObj>::Remove_Tail, COMDAT
; _this$ = ecx

; 191  : 	{

	push	ebp
	mov	ebp, esp
	sub	esp, 76					; 0000004cH
	push	ebx
	push	esi
	push	edi
	mov	DWORD PTR _this$[ebp], ecx

; 192  : 		if (HeadNode == NULL)

	mov	eax, DWORD PTR _this$[ebp]
	cmp	DWORD PTR [eax+4], 0
	jne	SHORT $LN1@Remove_Tai

; 193  : 		{
; 194  : 			return ((T *)NULL);

	xor	eax, eax
	jmp	SHORT $LN2@Remove_Tai
$LN1@Remove_Tai:

; 195  : 		}
; 196  : 		T* data = TailNode->Data();

	mov	eax, DWORD PTR _this$[ebp]
	mov	ecx, DWORD PTR [eax+8]
	call	?Data@?$SLNode@VVehicleGameObj@@@@QBEPAVVehicleGameObj@@XZ ; SLNode<VehicleGameObj>::Data
	mov	DWORD PTR _data$[ebp], eax

; 197  : 		return (Remove(data) ? data : (T*)NULL);

	mov	eax, DWORD PTR _data$[ebp]
	push	eax
	mov	ecx, DWORD PTR _this$[ebp]
	mov	edx, DWORD PTR [ecx]
	mov	ecx, DWORD PTR _this$[ebp]
	mov	eax, DWORD PTR [edx+28]
	call	eax
	movzx	ecx, al
	test	ecx, ecx
	je	SHORT $LN4@Remove_Tai
	mov	edx, DWORD PTR _data$[ebp]
	mov	DWORD PTR tv76[ebp], edx
	jmp	SHORT $LN5@Remove_Tai
$LN4@Remove_Tai:
	mov	DWORD PTR tv76[ebp], 0
$LN5@Remove_Tai:
	mov	eax, DWORD PTR tv76[ebp]
$LN2@Remove_Tai:

; 198  : 	}

	pop	edi
	pop	esi
	pop	ebx
	mov	esp, ebp
	pop	ebp
	ret	0
?Remove_Tail@?$SList@VVehicleGameObj@@@@UAEPAVVehicleGameObj@@XZ ENDP ; SList<VehicleGameObj>::Remove_Tail
_TEXT	ENDS
; Function compile flags: /Odtp /ZI
; File x:\github\renegade\dragonade_rxd\scripts\slist.h
;	COMDAT ?Remove_Head@?$SList@VVehicleGameObj@@@@UAEPAVVehicleGameObj@@XZ
_TEXT	SEGMENT
$T1 = -80						; size = 4
_data$ = -12						; size = 4
_temp$ = -8						; size = 4
_this$ = -4						; size = 4
?Remove_Head@?$SList@VVehicleGameObj@@@@UAEPAVVehicleGameObj@@XZ PROC ; SList<VehicleGameObj>::Remove_Head, COMDAT
; _this$ = ecx

; 173  : 	{

	push	ebp
	mov	ebp, esp
	sub	esp, 80					; 00000050H
	push	ebx
	push	esi
	push	edi
	mov	DWORD PTR _this$[ebp], ecx

; 174  : 		if (HeadNode == NULL)

	mov	eax, DWORD PTR _this$[ebp]
	cmp	DWORD PTR [eax+4], 0
	jne	SHORT $LN2@Remove_Hea

; 175  : 		{
; 176  : 			return ((T* )NULL);

	xor	eax, eax
	jmp	$LN3@Remove_Hea
$LN2@Remove_Hea:

; 177  : 		}
; 178  : 		SLNode<T> *temp = HeadNode;

	mov	eax, DWORD PTR _this$[ebp]
	mov	ecx, DWORD PTR [eax+4]
	mov	DWORD PTR _temp$[ebp], ecx

; 179  : 		HeadNode = HeadNode->Next();

	mov	eax, DWORD PTR _this$[ebp]
	mov	ecx, DWORD PTR [eax+4]
	call	?Next@?$SLNode@VVehicleGameObj@@@@QBEPAV1@XZ ; SLNode<VehicleGameObj>::Next
	mov	ecx, DWORD PTR _this$[ebp]
	mov	DWORD PTR [ecx+4], eax

; 180  : 		if (HeadNode == NULL)

	mov	eax, DWORD PTR _this$[ebp]
	cmp	DWORD PTR [eax+4], 0
	jne	SHORT $LN1@Remove_Hea

; 181  : 		{
; 182  : 			TailNode = NULL;

	mov	eax, DWORD PTR _this$[ebp]
	mov	DWORD PTR [eax+8], 0
$LN1@Remove_Hea:

; 183  : 		}
; 184  : 		T *data = temp->Data();

	mov	ecx, DWORD PTR _temp$[ebp]
	call	?Data@?$SLNode@VVehicleGameObj@@@@QBEPAVVehicleGameObj@@XZ ; SLNode<VehicleGameObj>::Data
	mov	DWORD PTR _data$[ebp], eax

; 185  : 		delete temp;

	push	OFFSET ??_C@_0CJ@CJOPLN@SList?$DMclass?5VehicleGameObj?$DO?3?3Rem@
	push	185					; 000000b9H
	push	OFFSET ??_C@_0DB@DFBFLIIO@x?3?2github?2renegade?2dragonade_rxd@
	call	?SetThreadTrackingInformation@@YAXPBDI0@Z ; SetThreadTrackingInformation
	add	esp, 12					; 0000000cH
	xor	eax, eax
	je	SHORT $LN6@Remove_Hea
	xor	ecx, ecx
	jne	SHORT $LN5@Remove_Hea
	push	185					; 000000b9H
	push	OFFSET ??_C@_1GC@LJHGOLFN@?$AAx?$AA?3?$AA?2?$AAg?$AAi?$AAt?$AAh?$AAu?$AAb?$AA?2?$AAr?$AAe?$AAn?$AAe?$AAg?$AAa?$AAd?$AAe?$AA?2?$AAd?$AAr?$AAa?$AAg?$AAo?$AAn?$AAa?$AAd?$AAe?$AA_?$AAr?$AAx?$AAd@
	push	OFFSET ??_C@_1M@HLGKFCJM@?$AAf?$AAa?$AAl?$AAs?$AAe?$AA?$AA@
	call	DWORD PTR __imp___wassert
	add	esp, 12					; 0000000cH
$LN5@Remove_Hea:
	jmp	SHORT $LN7@Remove_Hea
$LN6@Remove_Hea:
	mov	eax, DWORD PTR _temp$[ebp]
	mov	DWORD PTR $T1[ebp], eax
	mov	ecx, DWORD PTR $T1[ebp]
	push	ecx
	call	??3?$AutoPoolClass@VGenericSLNode@@$0BAA@@@SAXPAX@Z ; AutoPoolClass<GenericSLNode,256>::operator delete
	add	esp, 4
$LN7@Remove_Hea:

; 186  : 		return data;

	mov	eax, DWORD PTR _data$[ebp]
$LN3@Remove_Hea:

; 187  : 	}

	pop	edi
	pop	esi
	pop	ebx
	mov	esp, ebp
	pop	ebp
	ret	0
?Remove_Head@?$SList@VVehicleGameObj@@@@UAEPAVVehicleGameObj@@XZ ENDP ; SList<VehicleGameObj>::Remove_Head
_TEXT	ENDS
; Function compile flags: /Odtp /ZI
; File x:\github\renegade\dragonade_rxd\scripts\slist.h
;	COMDAT ?Add_Tail@?$SList@VVehicleGameObj@@@@UAE_NAAV1@@Z
_TEXT	SEGMENT
_cur$1 = -8						; size = 4
_this$ = -4						; size = 4
_list$ = 8						; size = 4
?Add_Tail@?$SList@VVehicleGameObj@@@@UAE_NAAV1@@Z PROC	; SList<VehicleGameObj>::Add_Tail, COMDAT
; _this$ = ecx

; 159  : 	{

	push	ebp
	mov	ebp, esp
	sub	esp, 72					; 00000048H
	push	ebx
	push	esi
	push	edi
	mov	DWORD PTR _this$[ebp], ecx

; 160  : 		if (list.HeadNode == NULL)

	mov	eax, DWORD PTR _list$[ebp]
	cmp	DWORD PTR [eax+4], 0
	jne	SHORT $LN4@Add_Tail

; 161  : 		{
; 162  : 			return false;

	xor	al, al
	jmp	SHORT $LN5@Add_Tail
$LN4@Add_Tail:

; 163  : 		}
; 164  : 		for (SLNode<T> *cur = list.HeadNode; cur; cur = cur->Next()) 

	mov	eax, DWORD PTR _list$[ebp]
	mov	ecx, DWORD PTR [eax+4]
	mov	DWORD PTR _cur$1[ebp], ecx
	jmp	SHORT $LN3@Add_Tail
$LN2@Add_Tail:
	mov	ecx, DWORD PTR _cur$1[ebp]
	call	?Next@?$SLNode@VVehicleGameObj@@@@QBEPAV1@XZ ; SLNode<VehicleGameObj>::Next
	mov	DWORD PTR _cur$1[ebp], eax
$LN3@Add_Tail:
	cmp	DWORD PTR _cur$1[ebp], 0
	je	SHORT $LN1@Add_Tail

; 165  : 		{
; 166  : 			Add_Tail(cur->Data());

	mov	ecx, DWORD PTR _cur$1[ebp]
	call	?Data@?$SLNode@VVehicleGameObj@@@@QBEPAVVehicleGameObj@@XZ ; SLNode<VehicleGameObj>::Data
	push	eax
	mov	eax, DWORD PTR _this$[ebp]
	mov	edx, DWORD PTR [eax]
	mov	ecx, DWORD PTR _this$[ebp]
	mov	eax, DWORD PTR [edx+16]
	call	eax

; 167  : 		}

	jmp	SHORT $LN2@Add_Tail
$LN1@Add_Tail:

; 168  : 		return true;

	mov	al, 1
$LN5@Add_Tail:

; 169  : 	}

	pop	edi
	pop	esi
	pop	ebx
	mov	esp, ebp
	pop	ebp
	ret	4
?Add_Tail@?$SList@VVehicleGameObj@@@@UAE_NAAV1@@Z ENDP	; SList<VehicleGameObj>::Add_Tail
_TEXT	ENDS
; Function compile flags: /Odtp /ZI
; File x:\github\renegade\dragonade_rxd\scripts\slist.h
;	COMDAT ?Add_Tail@?$SList@VVehicleGameObj@@@@UAE_NPAVVehicleGameObj@@@Z
_TEXT	SEGMENT
tv82 = -84						; size = 4
tv84 = -80						; size = 4
$T1 = -76						; size = 4
_temp$ = -8						; size = 4
_this$ = -4						; size = 4
_data$ = 8						; size = 4
?Add_Tail@?$SList@VVehicleGameObj@@@@UAE_NPAVVehicleGameObj@@@Z PROC ; SList<VehicleGameObj>::Add_Tail, COMDAT
; _this$ = ecx

; 139  : 	{

	push	ebp
	mov	ebp, esp
	sub	esp, 84					; 00000054H
	push	ebx
	push	esi
	push	edi
	mov	DWORD PTR _this$[ebp], ecx

; 140  : 		if (data == NULL)

	cmp	DWORD PTR _data$[ebp], 0
	jne	SHORT $LN3@Add_Tail

; 141  : 		{
; 142  : 			return false;

	xor	al, al
	jmp	$LN4@Add_Tail
$LN3@Add_Tail:

; 143  : 		}
; 144  : 		SLNode<T> *temp = new SLNode<T> (data);

	push	OFFSET ??_C@_0CG@GHGCNBPP@SList?$DMclass?5VehicleGameObj?$DO?3?3Add@
	push	144					; 00000090H
	push	OFFSET ??_C@_0DB@DFBFLIIO@x?3?2github?2renegade?2dragonade_rxd@
	call	?SetThreadTrackingInformation@@YAXPBDI0@Z ; SetThreadTrackingInformation
	add	esp, 12					; 0000000cH
	xor	eax, eax
	je	SHORT $LN9@Add_Tail
	xor	ecx, ecx
	jne	SHORT $LN6@Add_Tail
	push	144					; 00000090H
	push	OFFSET ??_C@_1GC@LJHGOLFN@?$AAx?$AA?3?$AA?2?$AAg?$AAi?$AAt?$AAh?$AAu?$AAb?$AA?2?$AAr?$AAe?$AAn?$AAe?$AAg?$AAa?$AAd?$AAe?$AA?2?$AAd?$AAr?$AAa?$AAg?$AAo?$AAn?$AAa?$AAd?$AAe?$AA_?$AAr?$AAx?$AAd@
	push	OFFSET ??_C@_1M@HLGKFCJM@?$AAf?$AAa?$AAl?$AAs?$AAe?$AA?$AA@
	call	DWORD PTR __imp___wassert
	add	esp, 12					; 0000000cH
$LN6@Add_Tail:
	mov	DWORD PTR tv84[ebp], 0
	jmp	SHORT $LN10@Add_Tail
$LN9@Add_Tail:
	push	0
	push	0
	push	0
	push	8
	call	??2?$AutoPoolClass@VGenericSLNode@@$0BAA@@@SAPAXIPBDI0@Z ; AutoPoolClass<GenericSLNode,256>::operator new
	add	esp, 16					; 00000010H
	mov	DWORD PTR $T1[ebp], eax
	cmp	DWORD PTR $T1[ebp], 0
	je	SHORT $LN7@Add_Tail
	mov	eax, DWORD PTR _data$[ebp]
	push	eax
	mov	ecx, DWORD PTR $T1[ebp]
	call	??0?$SLNode@VVehicleGameObj@@@@IAE@PAVVehicleGameObj@@@Z ; SLNode<VehicleGameObj>::SLNode<VehicleGameObj>
	mov	DWORD PTR tv82[ebp], eax
	jmp	SHORT $LN8@Add_Tail
$LN7@Add_Tail:
	mov	DWORD PTR tv82[ebp], 0
$LN8@Add_Tail:
	mov	ecx, DWORD PTR tv82[ebp]
	mov	DWORD PTR tv84[ebp], ecx
$LN10@Add_Tail:
	mov	edx, DWORD PTR tv84[ebp]
	mov	DWORD PTR _temp$[ebp], edx

; 145  : 		if (HeadNode == NULL)

	mov	eax, DWORD PTR _this$[ebp]
	cmp	DWORD PTR [eax+4], 0
	jne	SHORT $LN2@Add_Tail

; 146  : 		{
; 147  : 			HeadNode = TailNode = temp;

	mov	eax, DWORD PTR _this$[ebp]
	mov	ecx, DWORD PTR _temp$[ebp]
	mov	DWORD PTR [eax+8], ecx
	mov	edx, DWORD PTR _this$[ebp]
	mov	eax, DWORD PTR _temp$[ebp]
	mov	DWORD PTR [edx+4], eax

; 148  : 		}
; 149  : 		else

	jmp	SHORT $LN1@Add_Tail
$LN2@Add_Tail:

; 150  : 		{
; 151  : 			TailNode->Set_Next(temp);

	mov	eax, DWORD PTR _temp$[ebp]
	push	eax
	mov	ecx, DWORD PTR _this$[ebp]
	mov	ecx, DWORD PTR [ecx+8]
	call	?Set_Next@?$SLNode@VVehicleGameObj@@@@QAEXPAV1@@Z ; SLNode<VehicleGameObj>::Set_Next

; 152  : 			TailNode = temp;

	mov	eax, DWORD PTR _this$[ebp]
	mov	ecx, DWORD PTR _temp$[ebp]
	mov	DWORD PTR [eax+8], ecx
$LN1@Add_Tail:

; 153  : 		}
; 154  : 		return true;

	mov	al, 1
$LN4@Add_Tail:

; 155  : 	}

	pop	edi
	pop	esi
	pop	ebx
	mov	esp, ebp
	pop	ebp
	ret	4
?Add_Tail@?$SList@VVehicleGameObj@@@@UAE_NPAVVehicleGameObj@@@Z ENDP ; SList<VehicleGameObj>::Add_Tail
_TEXT	ENDS
; Function compile flags: /Odtp /ZI
; File x:\github\renegade\dragonade_rxd\scripts\slist.h
;	COMDAT ?Add_Head@?$SList@VVehicleGameObj@@@@UAE_NAAV1@@Z
_TEXT	SEGMENT
tv90 = -92						; size = 4
tv92 = -88						; size = 4
$T1 = -84						; size = 4
_temp$2 = -16						; size = 4
_cur$3 = -12						; size = 4
_addpoint$ = -8						; size = 4
_this$ = -4						; size = 4
_list$ = 8						; size = 4
?Add_Head@?$SList@VVehicleGameObj@@@@UAE_NAAV1@@Z PROC	; SList<VehicleGameObj>::Add_Head, COMDAT
; _this$ = ecx

; 113  : 	{

	push	ebp
	mov	ebp, esp
	sub	esp, 92					; 0000005cH
	push	ebx
	push	esi
	push	edi
	mov	DWORD PTR _this$[ebp], ecx

; 114  : 		if (list.HeadNode == NULL)

	mov	eax, DWORD PTR _list$[ebp]
	cmp	DWORD PTR [eax+4], 0
	jne	SHORT $LN6@Add_Head

; 115  : 		{
; 116  : 			return false;

	xor	al, al
	jmp	$LN7@Add_Head
$LN6@Add_Head:

; 117  : 		}
; 118  : 		SLNode<T> *addpoint = NULL;

	mov	DWORD PTR _addpoint$[ebp], 0

; 119  : 		for (SLNode<T> *cur = list.HeadNode; cur; cur = cur->Next())

	mov	eax, DWORD PTR _list$[ebp]
	mov	ecx, DWORD PTR [eax+4]
	mov	DWORD PTR _cur$3[ebp], ecx
	jmp	SHORT $LN5@Add_Head
$LN4@Add_Head:
	mov	ecx, DWORD PTR _cur$3[ebp]
	call	?Next@?$SLNode@VVehicleGameObj@@@@QBEPAV1@XZ ; SLNode<VehicleGameObj>::Next
	mov	DWORD PTR _cur$3[ebp], eax
$LN5@Add_Head:
	cmp	DWORD PTR _cur$3[ebp], 0
	je	$LN3@Add_Head

; 120  : 		{
; 121  : 			if (addpoint)

	cmp	DWORD PTR _addpoint$[ebp], 0
	je	$LN2@Add_Head

; 122  : 			{
; 123  : 				SLNode<T> *temp = new SLNode<T>(cur->Data());

	push	OFFSET ??_C@_0CG@ILNKOHJL@SList?$DMclass?5VehicleGameObj?$DO?3?3Add@
	push	123					; 0000007bH
	push	OFFSET ??_C@_0DB@DFBFLIIO@x?3?2github?2renegade?2dragonade_rxd@
	call	?SetThreadTrackingInformation@@YAXPBDI0@Z ; SetThreadTrackingInformation
	add	esp, 12					; 0000000cH
	xor	eax, eax
	je	SHORT $LN12@Add_Head
	xor	ecx, ecx
	jne	SHORT $LN9@Add_Head
	push	123					; 0000007bH
	push	OFFSET ??_C@_1GC@LJHGOLFN@?$AAx?$AA?3?$AA?2?$AAg?$AAi?$AAt?$AAh?$AAu?$AAb?$AA?2?$AAr?$AAe?$AAn?$AAe?$AAg?$AAa?$AAd?$AAe?$AA?2?$AAd?$AAr?$AAa?$AAg?$AAo?$AAn?$AAa?$AAd?$AAe?$AA_?$AAr?$AAx?$AAd@
	push	OFFSET ??_C@_1M@HLGKFCJM@?$AAf?$AAa?$AAl?$AAs?$AAe?$AA?$AA@
	call	DWORD PTR __imp___wassert
	add	esp, 12					; 0000000cH
$LN9@Add_Head:
	mov	DWORD PTR tv92[ebp], 0
	jmp	SHORT $LN13@Add_Head
$LN12@Add_Head:
	push	0
	push	0
	push	0
	push	8
	call	??2?$AutoPoolClass@VGenericSLNode@@$0BAA@@@SAPAXIPBDI0@Z ; AutoPoolClass<GenericSLNode,256>::operator new
	add	esp, 16					; 00000010H
	mov	DWORD PTR $T1[ebp], eax
	cmp	DWORD PTR $T1[ebp], 0
	je	SHORT $LN10@Add_Head
	mov	ecx, DWORD PTR _cur$3[ebp]
	call	?Data@?$SLNode@VVehicleGameObj@@@@QBEPAVVehicleGameObj@@XZ ; SLNode<VehicleGameObj>::Data
	push	eax
	mov	ecx, DWORD PTR $T1[ebp]
	call	??0?$SLNode@VVehicleGameObj@@@@IAE@PAVVehicleGameObj@@@Z ; SLNode<VehicleGameObj>::SLNode<VehicleGameObj>
	mov	DWORD PTR tv90[ebp], eax
	jmp	SHORT $LN11@Add_Head
$LN10@Add_Head:
	mov	DWORD PTR tv90[ebp], 0
$LN11@Add_Head:
	mov	eax, DWORD PTR tv90[ebp]
	mov	DWORD PTR tv92[ebp], eax
$LN13@Add_Head:
	mov	ecx, DWORD PTR tv92[ebp]
	mov	DWORD PTR _temp$2[ebp], ecx

; 124  : 				temp->Set_Next(addpoint->Next());

	mov	ecx, DWORD PTR _addpoint$[ebp]
	call	?Next@?$SLNode@VVehicleGameObj@@@@QBEPAV1@XZ ; SLNode<VehicleGameObj>::Next
	push	eax
	mov	ecx, DWORD PTR _temp$2[ebp]
	call	?Set_Next@?$SLNode@VVehicleGameObj@@@@QAEXPAV1@@Z ; SLNode<VehicleGameObj>::Set_Next

; 125  : 				addpoint->Set_Next(temp);

	mov	eax, DWORD PTR _temp$2[ebp]
	push	eax
	mov	ecx, DWORD PTR _addpoint$[ebp]
	call	?Set_Next@?$SLNode@VVehicleGameObj@@@@QAEXPAV1@@Z ; SLNode<VehicleGameObj>::Set_Next

; 126  : 				addpoint = temp;

	mov	eax, DWORD PTR _temp$2[ebp]
	mov	DWORD PTR _addpoint$[ebp], eax

; 127  : 			}
; 128  : 			else

	jmp	SHORT $LN1@Add_Head
$LN2@Add_Head:

; 129  : 			{
; 130  : 				Add_Head(cur->Data());

	mov	ecx, DWORD PTR _cur$3[ebp]
	call	?Data@?$SLNode@VVehicleGameObj@@@@QBEPAVVehicleGameObj@@XZ ; SLNode<VehicleGameObj>::Data
	push	eax
	mov	eax, DWORD PTR _this$[ebp]
	mov	edx, DWORD PTR [eax]
	mov	ecx, DWORD PTR _this$[ebp]
	mov	eax, DWORD PTR [edx+8]
	call	eax

; 131  : 				addpoint = HeadNode;

	mov	eax, DWORD PTR _this$[ebp]
	mov	ecx, DWORD PTR [eax+4]
	mov	DWORD PTR _addpoint$[ebp], ecx
$LN1@Add_Head:

; 132  : 			}
; 133  : 		}

	jmp	$LN4@Add_Head
$LN3@Add_Head:

; 134  : 		return true;

	mov	al, 1
$LN7@Add_Head:

; 135  : 	}

	pop	edi
	pop	esi
	pop	ebx
	mov	esp, ebp
	pop	ebp
	ret	4
?Add_Head@?$SList@VVehicleGameObj@@@@UAE_NAAV1@@Z ENDP	; SList<VehicleGameObj>::Add_Head
_TEXT	ENDS
; Function compile flags: /Odtp /ZI
; File x:\github\renegade\dragonade_rxd\scripts\slist.h
;	COMDAT ?Add_Head@?$SList@VVehicleGameObj@@@@UAE_NPAVVehicleGameObj@@@Z
_TEXT	SEGMENT
tv82 = -84						; size = 4
tv84 = -80						; size = 4
$T1 = -76						; size = 4
_temp$ = -8						; size = 4
_this$ = -4						; size = 4
_data$ = 8						; size = 4
?Add_Head@?$SList@VVehicleGameObj@@@@UAE_NPAVVehicleGameObj@@@Z PROC ; SList<VehicleGameObj>::Add_Head, COMDAT
; _this$ = ecx

; 96   : 	{

	push	ebp
	mov	ebp, esp
	sub	esp, 84					; 00000054H
	push	ebx
	push	esi
	push	edi
	mov	DWORD PTR _this$[ebp], ecx

; 97   : 		if (!data)

	cmp	DWORD PTR _data$[ebp], 0
	jne	SHORT $LN2@Add_Head

; 98   : 		{
; 99   : 			return false;

	xor	al, al
	jmp	$LN3@Add_Head
$LN2@Add_Head:

; 100  : 		}
; 101  : 		SLNode<T> *temp	= new SLNode<T>(data);

	push	OFFSET ??_C@_0CG@ILNKOHJL@SList?$DMclass?5VehicleGameObj?$DO?3?3Add@
	push	101					; 00000065H
	push	OFFSET ??_C@_0DB@DFBFLIIO@x?3?2github?2renegade?2dragonade_rxd@
	call	?SetThreadTrackingInformation@@YAXPBDI0@Z ; SetThreadTrackingInformation
	add	esp, 12					; 0000000cH
	xor	eax, eax
	je	SHORT $LN8@Add_Head
	xor	ecx, ecx
	jne	SHORT $LN5@Add_Head
	push	101					; 00000065H
	push	OFFSET ??_C@_1GC@LJHGOLFN@?$AAx?$AA?3?$AA?2?$AAg?$AAi?$AAt?$AAh?$AAu?$AAb?$AA?2?$AAr?$AAe?$AAn?$AAe?$AAg?$AAa?$AAd?$AAe?$AA?2?$AAd?$AAr?$AAa?$AAg?$AAo?$AAn?$AAa?$AAd?$AAe?$AA_?$AAr?$AAx?$AAd@
	push	OFFSET ??_C@_1M@HLGKFCJM@?$AAf?$AAa?$AAl?$AAs?$AAe?$AA?$AA@
	call	DWORD PTR __imp___wassert
	add	esp, 12					; 0000000cH
$LN5@Add_Head:
	mov	DWORD PTR tv84[ebp], 0
	jmp	SHORT $LN9@Add_Head
$LN8@Add_Head:
	push	0
	push	0
	push	0
	push	8
	call	??2?$AutoPoolClass@VGenericSLNode@@$0BAA@@@SAPAXIPBDI0@Z ; AutoPoolClass<GenericSLNode,256>::operator new
	add	esp, 16					; 00000010H
	mov	DWORD PTR $T1[ebp], eax
	cmp	DWORD PTR $T1[ebp], 0
	je	SHORT $LN6@Add_Head
	mov	eax, DWORD PTR _data$[ebp]
	push	eax
	mov	ecx, DWORD PTR $T1[ebp]
	call	??0?$SLNode@VVehicleGameObj@@@@IAE@PAVVehicleGameObj@@@Z ; SLNode<VehicleGameObj>::SLNode<VehicleGameObj>
	mov	DWORD PTR tv82[ebp], eax
	jmp	SHORT $LN7@Add_Head
$LN6@Add_Head:
	mov	DWORD PTR tv82[ebp], 0
$LN7@Add_Head:
	mov	ecx, DWORD PTR tv82[ebp]
	mov	DWORD PTR tv84[ebp], ecx
$LN9@Add_Head:
	mov	edx, DWORD PTR tv84[ebp]
	mov	DWORD PTR _temp$[ebp], edx

; 102  : 		temp->Set_Next(HeadNode);

	mov	eax, DWORD PTR _this$[ebp]
	mov	ecx, DWORD PTR [eax+4]
	push	ecx
	mov	ecx, DWORD PTR _temp$[ebp]
	call	?Set_Next@?$SLNode@VVehicleGameObj@@@@QAEXPAV1@@Z ; SLNode<VehicleGameObj>::Set_Next

; 103  : 		HeadNode = temp;

	mov	eax, DWORD PTR _this$[ebp]
	mov	ecx, DWORD PTR _temp$[ebp]
	mov	DWORD PTR [eax+4], ecx

; 104  : 		if (!TailNode)

	mov	eax, DWORD PTR _this$[ebp]
	cmp	DWORD PTR [eax+8], 0
	jne	SHORT $LN1@Add_Head

; 105  : 		{
; 106  : 			TailNode = temp;

	mov	eax, DWORD PTR _this$[ebp]
	mov	ecx, DWORD PTR _temp$[ebp]
	mov	DWORD PTR [eax+8], ecx
$LN1@Add_Head:

; 107  : 		}
; 108  : 		return true;

	mov	al, 1
$LN3@Add_Head:

; 109  : 	}

	pop	edi
	pop	esi
	pop	ebx
	mov	esp, ebp
	pop	ebp
	ret	4
?Add_Head@?$SList@VVehicleGameObj@@@@UAE_NPAVVehicleGameObj@@@Z ENDP ; SList<VehicleGameObj>::Add_Head
_TEXT	ENDS
; Function compile flags: /Odtp /ZI
; File x:\github\renegade\dragonade_rxd\scripts\slist.h
;	COMDAT ??1?$SList@VVehicleGameObj@@@@UAE@XZ
_TEXT	SEGMENT
_this$ = -4						; size = 4
??1?$SList@VVehicleGameObj@@@@UAE@XZ PROC		; SList<VehicleGameObj>::~SList<VehicleGameObj>, COMDAT
; _this$ = ecx

; 90   : 	{

	push	ebp
	mov	ebp, esp
	sub	esp, 68					; 00000044H
	push	ebx
	push	esi
	push	edi
	mov	DWORD PTR _this$[ebp], ecx
	mov	eax, DWORD PTR _this$[ebp]
	mov	DWORD PTR [eax], OFFSET ??_7?$SList@VVehicleGameObj@@@@6B@

; 91   : 		Remove_All();

	mov	ecx, DWORD PTR _this$[ebp]
	call	?Remove_All@?$SList@VVehicleGameObj@@@@UAEXXZ ; SList<VehicleGameObj>::Remove_All

; 92   : 	}

	pop	edi
	pop	esi
	pop	ebx
	mov	esp, ebp
	pop	ebp
	ret	0
??1?$SList@VVehicleGameObj@@@@UAE@XZ ENDP		; SList<VehicleGameObj>::~SList<VehicleGameObj>
_TEXT	ENDS
; Function compile flags: /Odtp /ZI
; File x:\github\renegade\dragonade_rxd\scripts\slist.h
;	COMDAT ??0?$SList@VVehicleGameObj@@@@QAE@XZ
_TEXT	SEGMENT
_this$ = -4						; size = 4
??0?$SList@VVehicleGameObj@@@@QAE@XZ PROC		; SList<VehicleGameObj>::SList<VehicleGameObj>, COMDAT
; _this$ = ecx

; 86   : 	{

	push	ebp
	mov	ebp, esp
	sub	esp, 68					; 00000044H
	push	ebx
	push	esi
	push	edi
	mov	DWORD PTR _this$[ebp], ecx
	mov	eax, DWORD PTR _this$[ebp]
	mov	DWORD PTR [eax], OFFSET ??_7?$SList@VVehicleGameObj@@@@6B@
	mov	eax, DWORD PTR _this$[ebp]
	mov	DWORD PTR [eax+4], 0
	mov	eax, DWORD PTR _this$[ebp]
	mov	DWORD PTR [eax+8], 0

; 87   : 	}

	mov	eax, DWORD PTR _this$[ebp]
	pop	edi
	pop	esi
	pop	ebx
	mov	esp, ebp
	pop	ebp
	ret	0
??0?$SList@VVehicleGameObj@@@@QAE@XZ ENDP		; SList<VehicleGameObj>::SList<VehicleGameObj>
_TEXT	ENDS
; Function compile flags: /Odtp /ZI
;	COMDAT ??_G?$SList@VSoldierGameObj@@@@UAEPAXI@Z
_TEXT	SEGMENT
_this$ = -4						; size = 4
___flags$ = 8						; size = 4
??_G?$SList@VSoldierGameObj@@@@UAEPAXI@Z PROC		; SList<SoldierGameObj>::`scalar deleting destructor', COMDAT
; _this$ = ecx
	push	ebp
	mov	ebp, esp
	sub	esp, 68					; 00000044H
	push	ebx
	push	esi
	push	edi
	mov	DWORD PTR _this$[ebp], ecx
	mov	ecx, DWORD PTR _this$[ebp]
	call	??1?$SList@VSoldierGameObj@@@@UAE@XZ	; SList<SoldierGameObj>::~SList<SoldierGameObj>
	mov	eax, DWORD PTR ___flags$[ebp]
	and	eax, 1
	je	SHORT $LN1@scalar
	mov	eax, DWORD PTR _this$[ebp]
	push	eax
	call	??3@YAXPAX@Z				; operator delete
	add	esp, 4
$LN1@scalar:
	mov	eax, DWORD PTR _this$[ebp]
	pop	edi
	pop	esi
	pop	ebx
	mov	esp, ebp
	pop	ebp
	ret	4
??_G?$SList@VSoldierGameObj@@@@UAEPAXI@Z ENDP		; SList<SoldierGameObj>::`scalar deleting destructor'
_TEXT	ENDS
; Function compile flags: /Odtp /ZI
; File x:\github\renegade\dragonade_rxd\scripts\slist.h
;	COMDAT ?Get_Count@?$SList@VSoldierGameObj@@@@UBEIXZ
_TEXT	SEGMENT
_node$1 = -12						; size = 4
_count$ = -8						; size = 4
_this$ = -4						; size = 4
?Get_Count@?$SList@VSoldierGameObj@@@@UBEIXZ PROC	; SList<SoldierGameObj>::Get_Count, COMDAT
; _this$ = ecx

; 302  : 	{

	push	ebp
	mov	ebp, esp
	sub	esp, 76					; 0000004cH
	push	ebx
	push	esi
	push	edi
	mov	DWORD PTR _this$[ebp], ecx

; 303  : 		uint32 count = 0;

	mov	DWORD PTR _count$[ebp], 0

; 304  : 
; 305  : 		for (SLNode<T>* node = HeadNode; node; node = node->Next())

	mov	eax, DWORD PTR _this$[ebp]
	mov	ecx, DWORD PTR [eax+4]
	mov	DWORD PTR _node$1[ebp], ecx
	jmp	SHORT $LN3@Get_Count
$LN2@Get_Count:
	mov	ecx, DWORD PTR _node$1[ebp]
	call	?Next@?$SLNode@VSoldierGameObj@@@@QBEPAV1@XZ ; SLNode<SoldierGameObj>::Next
	mov	DWORD PTR _node$1[ebp], eax
$LN3@Get_Count:
	cmp	DWORD PTR _node$1[ebp], 0
	je	SHORT $LN1@Get_Count

; 306  : 			++count;

	mov	eax, DWORD PTR _count$[ebp]
	add	eax, 1
	mov	DWORD PTR _count$[ebp], eax
	jmp	SHORT $LN2@Get_Count
$LN1@Get_Count:

; 307  : 
; 308  : 		return count;

	mov	eax, DWORD PTR _count$[ebp]

; 309  : 	}

	pop	edi
	pop	esi
	pop	ebx
	mov	esp, ebp
	pop	ebp
	ret	0
?Get_Count@?$SList@VSoldierGameObj@@@@UBEIXZ ENDP	; SList<SoldierGameObj>::Get_Count
_TEXT	ENDS
; Function compile flags: /Odtp /ZI
; File x:\github\renegade\dragonade_rxd\scripts\slist.h
;	COMDAT ?Is_Empty@?$SList@VSoldierGameObj@@@@UBE_NXZ
_TEXT	SEGMENT
tv66 = -72						; size = 4
_this$ = -4						; size = 4
?Is_Empty@?$SList@VSoldierGameObj@@@@UBE_NXZ PROC	; SList<SoldierGameObj>::Is_Empty, COMDAT
; _this$ = ecx

; 296  : 	{

	push	ebp
	mov	ebp, esp
	sub	esp, 72					; 00000048H
	push	ebx
	push	esi
	push	edi
	mov	DWORD PTR _this$[ebp], ecx

; 297  : 		return !HeadNode;

	mov	eax, DWORD PTR _this$[ebp]
	cmp	DWORD PTR [eax+4], 0
	jne	SHORT $LN3@Is_Empty
	mov	DWORD PTR tv66[ebp], 1
	jmp	SHORT $LN4@Is_Empty
$LN3@Is_Empty:
	mov	DWORD PTR tv66[ebp], 0
$LN4@Is_Empty:
	mov	al, BYTE PTR tv66[ebp]

; 298  : 	}

	pop	edi
	pop	esi
	pop	ebx
	mov	esp, ebp
	pop	ebp
	ret	0
?Is_Empty@?$SList@VSoldierGameObj@@@@UBE_NXZ ENDP	; SList<SoldierGameObj>::Is_Empty
_TEXT	ENDS
; Function compile flags: /Odtp /ZI
; File x:\github\renegade\dragonade_rxd\scripts\slist.h
;	COMDAT ?Insert_After@?$SList@VSoldierGameObj@@@@UAE_NPAVSoldierGameObj@@PBV2@@Z
_TEXT	SEGMENT
tv140 = -88						; size = 4
tv142 = -84						; size = 4
$T1 = -80						; size = 4
_temp$2 = -12						; size = 4
_cur$ = -8						; size = 4
_this$ = -4						; size = 4
_newnode$ = 8						; size = 4
_oldnode$ = 12						; size = 4
?Insert_After@?$SList@VSoldierGameObj@@@@UAE_NPAVSoldierGameObj@@PBV2@@Z PROC ; SList<SoldierGameObj>::Insert_After, COMDAT
; _this$ = ecx

; 267  : 	{

	push	ebp
	mov	ebp, esp
	sub	esp, 88					; 00000058H
	push	ebx
	push	esi
	push	edi
	mov	DWORD PTR _this$[ebp], ecx

; 268  : 		if (newnode == NULL)

	cmp	DWORD PTR _newnode$[ebp], 0
	jne	SHORT $LN8@Insert_Aft

; 269  : 		{
; 270  : 			return false;

	xor	al, al
	jmp	$LN9@Insert_Aft
$LN8@Insert_Aft:

; 271  : 		}
; 272  : 		if (oldnode == NULL || HeadNode == NULL)

	cmp	DWORD PTR _oldnode$[ebp], 0
	je	SHORT $LN6@Insert_Aft
	mov	eax, DWORD PTR _this$[ebp]
	cmp	DWORD PTR [eax+4], 0
	jne	SHORT $LN7@Insert_Aft
$LN6@Insert_Aft:

; 273  : 		{
; 274  : 			return(Add_Head(newnode));

	mov	eax, DWORD PTR _newnode$[ebp]
	push	eax
	mov	ecx, DWORD PTR _this$[ebp]
	mov	edx, DWORD PTR [ecx]
	mov	ecx, DWORD PTR _this$[ebp]
	mov	eax, DWORD PTR [edx+8]
	call	eax
	jmp	$LN9@Insert_Aft
$LN7@Insert_Aft:

; 275  : 		}
; 276  : 		SLNode<T> *cur;
; 277  : 		for (cur = HeadNode; cur && cur->Data() != oldnode; cur = cur->Next())

	mov	eax, DWORD PTR _this$[ebp]
	mov	ecx, DWORD PTR [eax+4]
	mov	DWORD PTR _cur$[ebp], ecx
	jmp	SHORT $LN5@Insert_Aft
$LN4@Insert_Aft:
	mov	ecx, DWORD PTR _cur$[ebp]
	call	?Next@?$SLNode@VSoldierGameObj@@@@QBEPAV1@XZ ; SLNode<SoldierGameObj>::Next
	mov	DWORD PTR _cur$[ebp], eax
$LN5@Insert_Aft:
	cmp	DWORD PTR _cur$[ebp], 0
	je	SHORT $LN3@Insert_Aft
	mov	ecx, DWORD PTR _cur$[ebp]
	call	?Data@?$SLNode@VSoldierGameObj@@@@QBEPAVSoldierGameObj@@XZ ; SLNode<SoldierGameObj>::Data
	cmp	eax, DWORD PTR _oldnode$[ebp]
	je	SHORT $LN3@Insert_Aft

; 278  : 		{
; 279  : 		}

	jmp	SHORT $LN4@Insert_Aft
$LN3@Insert_Aft:

; 280  : 		if (cur != NULL  && cur->Data() == oldnode)

	cmp	DWORD PTR _cur$[ebp], 0
	je	$LN2@Insert_Aft
	mov	ecx, DWORD PTR _cur$[ebp]
	call	?Data@?$SLNode@VSoldierGameObj@@@@QBEPAVSoldierGameObj@@XZ ; SLNode<SoldierGameObj>::Data
	cmp	eax, DWORD PTR _oldnode$[ebp]
	jne	$LN2@Insert_Aft

; 281  : 		{
; 282  : 			if (cur == TailNode)

	mov	eax, DWORD PTR _this$[ebp]
	mov	ecx, DWORD PTR _cur$[ebp]
	cmp	ecx, DWORD PTR [eax+8]
	jne	SHORT $LN1@Insert_Aft

; 283  : 			{
; 284  : 				return(Add_Tail(newnode));

	mov	eax, DWORD PTR _newnode$[ebp]
	push	eax
	mov	ecx, DWORD PTR _this$[ebp]
	mov	edx, DWORD PTR [ecx]
	mov	ecx, DWORD PTR _this$[ebp]
	mov	eax, DWORD PTR [edx+16]
	call	eax
	jmp	$LN9@Insert_Aft
$LN1@Insert_Aft:

; 285  : 			}
; 286  : 			SLNode<T> *temp = new SLNode<T>(newnode);

	push	OFFSET ??_C@_0CK@GDEINOPK@SList?$DMclass?5SoldierGameObj?$DO?3?3Ins@
	push	286					; 0000011eH
	push	OFFSET ??_C@_0DB@DFBFLIIO@x?3?2github?2renegade?2dragonade_rxd@
	call	?SetThreadTrackingInformation@@YAXPBDI0@Z ; SetThreadTrackingInformation
	add	esp, 12					; 0000000cH
	xor	eax, eax
	je	SHORT $LN14@Insert_Aft
	xor	ecx, ecx
	jne	SHORT $LN11@Insert_Aft
	push	286					; 0000011eH
	push	OFFSET ??_C@_1GC@LJHGOLFN@?$AAx?$AA?3?$AA?2?$AAg?$AAi?$AAt?$AAh?$AAu?$AAb?$AA?2?$AAr?$AAe?$AAn?$AAe?$AAg?$AAa?$AAd?$AAe?$AA?2?$AAd?$AAr?$AAa?$AAg?$AAo?$AAn?$AAa?$AAd?$AAe?$AA_?$AAr?$AAx?$AAd@
	push	OFFSET ??_C@_1M@HLGKFCJM@?$AAf?$AAa?$AAl?$AAs?$AAe?$AA?$AA@
	call	DWORD PTR __imp___wassert
	add	esp, 12					; 0000000cH
$LN11@Insert_Aft:
	mov	DWORD PTR tv142[ebp], 0
	jmp	SHORT $LN15@Insert_Aft
$LN14@Insert_Aft:
	push	0
	push	0
	push	0
	push	8
	call	??2?$AutoPoolClass@VGenericSLNode@@$0BAA@@@SAPAXIPBDI0@Z ; AutoPoolClass<GenericSLNode,256>::operator new
	add	esp, 16					; 00000010H
	mov	DWORD PTR $T1[ebp], eax
	cmp	DWORD PTR $T1[ebp], 0
	je	SHORT $LN12@Insert_Aft
	mov	eax, DWORD PTR _newnode$[ebp]
	push	eax
	mov	ecx, DWORD PTR $T1[ebp]
	call	??0?$SLNode@VSoldierGameObj@@@@IAE@PAVSoldierGameObj@@@Z ; SLNode<SoldierGameObj>::SLNode<SoldierGameObj>
	mov	DWORD PTR tv140[ebp], eax
	jmp	SHORT $LN13@Insert_Aft
$LN12@Insert_Aft:
	mov	DWORD PTR tv140[ebp], 0
$LN13@Insert_Aft:
	mov	ecx, DWORD PTR tv140[ebp]
	mov	DWORD PTR tv142[ebp], ecx
$LN15@Insert_Aft:
	mov	edx, DWORD PTR tv142[ebp]
	mov	DWORD PTR _temp$2[ebp], edx

; 287  : 			temp->Set_Next(cur->Next());

	mov	ecx, DWORD PTR _cur$[ebp]
	call	?Next@?$SLNode@VSoldierGameObj@@@@QBEPAV1@XZ ; SLNode<SoldierGameObj>::Next
	push	eax
	mov	ecx, DWORD PTR _temp$2[ebp]
	call	?Set_Next@?$SLNode@VSoldierGameObj@@@@QAEXPAV1@@Z ; SLNode<SoldierGameObj>::Set_Next

; 288  : 			cur->Set_Next(temp);

	mov	eax, DWORD PTR _temp$2[ebp]
	push	eax
	mov	ecx, DWORD PTR _cur$[ebp]
	call	?Set_Next@?$SLNode@VSoldierGameObj@@@@QAEXPAV1@@Z ; SLNode<SoldierGameObj>::Set_Next

; 289  : 			return true;

	mov	al, 1
	jmp	SHORT $LN9@Insert_Aft
$LN2@Insert_Aft:

; 290  : 		}
; 291  : 		return false;

	xor	al, al
$LN9@Insert_Aft:

; 292  : 	}

	pop	edi
	pop	esi
	pop	ebx
	mov	esp, ebp
	pop	ebp
	ret	8
?Insert_After@?$SList@VSoldierGameObj@@@@UAE_NPAVSoldierGameObj@@PBV2@@Z ENDP ; SList<SoldierGameObj>::Insert_After
_TEXT	ENDS
; Function compile flags: /Odtp /ZI
; File x:\github\renegade\dragonade_rxd\scripts\slist.h
;	COMDAT ?Insert_Before@?$SList@VSoldierGameObj@@@@UAE_NPAVSoldierGameObj@@PBV2@@Z
_TEXT	SEGMENT
tv145 = -88						; size = 4
tv147 = -84						; size = 4
$T1 = -80						; size = 4
_temp$2 = -12						; size = 4
_cur$ = -8						; size = 4
_this$ = -4						; size = 4
_newnode$ = 8						; size = 4
_oldnode$ = 12						; size = 4
?Insert_Before@?$SList@VSoldierGameObj@@@@UAE_NPAVSoldierGameObj@@PBV2@@Z PROC ; SList<SoldierGameObj>::Insert_Before, COMDAT
; _this$ = ecx

; 243  : 	{

	push	ebp
	mov	ebp, esp
	sub	esp, 88					; 00000058H
	push	ebx
	push	esi
	push	edi
	mov	DWORD PTR _this$[ebp], ecx

; 244  : 		if (newnode == NULL)

	cmp	DWORD PTR _newnode$[ebp], 0
	jne	SHORT $LN7@Insert_Bef

; 245  : 		{
; 246  : 			return false;

	xor	al, al
	jmp	$LN8@Insert_Bef
$LN7@Insert_Bef:

; 247  : 		}
; 248  : 		if (oldnode == NULL || HeadNode == NULL || HeadNode->Data() == oldnode)

	cmp	DWORD PTR _oldnode$[ebp], 0
	je	SHORT $LN5@Insert_Bef
	mov	eax, DWORD PTR _this$[ebp]
	cmp	DWORD PTR [eax+4], 0
	je	SHORT $LN5@Insert_Bef
	mov	eax, DWORD PTR _this$[ebp]
	mov	ecx, DWORD PTR [eax+4]
	call	?Data@?$SLNode@VSoldierGameObj@@@@QBEPAVSoldierGameObj@@XZ ; SLNode<SoldierGameObj>::Data
	cmp	eax, DWORD PTR _oldnode$[ebp]
	jne	SHORT $LN6@Insert_Bef
$LN5@Insert_Bef:

; 249  : 		{
; 250  : 			return Add_Head(newnode);

	mov	eax, DWORD PTR _newnode$[ebp]
	push	eax
	mov	ecx, DWORD PTR _this$[ebp]
	mov	edx, DWORD PTR [ecx]
	mov	ecx, DWORD PTR _this$[ebp]
	mov	eax, DWORD PTR [edx+8]
	call	eax
	jmp	$LN8@Insert_Bef
$LN6@Insert_Bef:

; 251  : 		}
; 252  : 		SLNode<T> *cur;
; 253  : 		for (cur=HeadNode; cur->Next() && cur->Next()->Data() != oldnode; cur=cur->Next())

	mov	eax, DWORD PTR _this$[ebp]
	mov	ecx, DWORD PTR [eax+4]
	mov	DWORD PTR _cur$[ebp], ecx
	jmp	SHORT $LN4@Insert_Bef
$LN3@Insert_Bef:
	mov	ecx, DWORD PTR _cur$[ebp]
	call	?Next@?$SLNode@VSoldierGameObj@@@@QBEPAV1@XZ ; SLNode<SoldierGameObj>::Next
	mov	DWORD PTR _cur$[ebp], eax
$LN4@Insert_Bef:
	mov	ecx, DWORD PTR _cur$[ebp]
	call	?Next@?$SLNode@VSoldierGameObj@@@@QBEPAV1@XZ ; SLNode<SoldierGameObj>::Next
	test	eax, eax
	je	SHORT $LN2@Insert_Bef
	mov	ecx, DWORD PTR _cur$[ebp]
	call	?Next@?$SLNode@VSoldierGameObj@@@@QBEPAV1@XZ ; SLNode<SoldierGameObj>::Next
	mov	ecx, eax
	call	?Data@?$SLNode@VSoldierGameObj@@@@QBEPAVSoldierGameObj@@XZ ; SLNode<SoldierGameObj>::Data
	cmp	eax, DWORD PTR _oldnode$[ebp]
	je	SHORT $LN2@Insert_Bef

; 254  : 		{
; 255  : 		}

	jmp	SHORT $LN3@Insert_Bef
$LN2@Insert_Bef:

; 256  : 		if (cur->Next() != NULL && cur->Next()->Data() == oldnode)

	mov	ecx, DWORD PTR _cur$[ebp]
	call	?Next@?$SLNode@VSoldierGameObj@@@@QBEPAV1@XZ ; SLNode<SoldierGameObj>::Next
	test	eax, eax
	je	$LN1@Insert_Bef
	mov	ecx, DWORD PTR _cur$[ebp]
	call	?Next@?$SLNode@VSoldierGameObj@@@@QBEPAV1@XZ ; SLNode<SoldierGameObj>::Next
	mov	ecx, eax
	call	?Data@?$SLNode@VSoldierGameObj@@@@QBEPAVSoldierGameObj@@XZ ; SLNode<SoldierGameObj>::Data
	cmp	eax, DWORD PTR _oldnode$[ebp]
	jne	$LN1@Insert_Bef

; 257  : 		{
; 258  : 			SLNode<T> *temp	= new SLNode<T> (newnode);

	push	OFFSET ??_C@_0CL@IHGAIAIL@SList?$DMclass?5SoldierGameObj?$DO?3?3Ins@
	push	258					; 00000102H
	push	OFFSET ??_C@_0DB@DFBFLIIO@x?3?2github?2renegade?2dragonade_rxd@
	call	?SetThreadTrackingInformation@@YAXPBDI0@Z ; SetThreadTrackingInformation
	add	esp, 12					; 0000000cH
	xor	eax, eax
	je	SHORT $LN13@Insert_Bef
	xor	ecx, ecx
	jne	SHORT $LN10@Insert_Bef
	push	258					; 00000102H
	push	OFFSET ??_C@_1GC@LJHGOLFN@?$AAx?$AA?3?$AA?2?$AAg?$AAi?$AAt?$AAh?$AAu?$AAb?$AA?2?$AAr?$AAe?$AAn?$AAe?$AAg?$AAa?$AAd?$AAe?$AA?2?$AAd?$AAr?$AAa?$AAg?$AAo?$AAn?$AAa?$AAd?$AAe?$AA_?$AAr?$AAx?$AAd@
	push	OFFSET ??_C@_1M@HLGKFCJM@?$AAf?$AAa?$AAl?$AAs?$AAe?$AA?$AA@
	call	DWORD PTR __imp___wassert
	add	esp, 12					; 0000000cH
$LN10@Insert_Bef:
	mov	DWORD PTR tv147[ebp], 0
	jmp	SHORT $LN14@Insert_Bef
$LN13@Insert_Bef:
	push	0
	push	0
	push	0
	push	8
	call	??2?$AutoPoolClass@VGenericSLNode@@$0BAA@@@SAPAXIPBDI0@Z ; AutoPoolClass<GenericSLNode,256>::operator new
	add	esp, 16					; 00000010H
	mov	DWORD PTR $T1[ebp], eax
	cmp	DWORD PTR $T1[ebp], 0
	je	SHORT $LN11@Insert_Bef
	mov	eax, DWORD PTR _newnode$[ebp]
	push	eax
	mov	ecx, DWORD PTR $T1[ebp]
	call	??0?$SLNode@VSoldierGameObj@@@@IAE@PAVSoldierGameObj@@@Z ; SLNode<SoldierGameObj>::SLNode<SoldierGameObj>
	mov	DWORD PTR tv145[ebp], eax
	jmp	SHORT $LN12@Insert_Bef
$LN11@Insert_Bef:
	mov	DWORD PTR tv145[ebp], 0
$LN12@Insert_Bef:
	mov	ecx, DWORD PTR tv145[ebp]
	mov	DWORD PTR tv147[ebp], ecx
$LN14@Insert_Bef:
	mov	edx, DWORD PTR tv147[ebp]
	mov	DWORD PTR _temp$2[ebp], edx

; 259  : 			temp->Set_Next(cur->Next());

	mov	ecx, DWORD PTR _cur$[ebp]
	call	?Next@?$SLNode@VSoldierGameObj@@@@QBEPAV1@XZ ; SLNode<SoldierGameObj>::Next
	push	eax
	mov	ecx, DWORD PTR _temp$2[ebp]
	call	?Set_Next@?$SLNode@VSoldierGameObj@@@@QAEXPAV1@@Z ; SLNode<SoldierGameObj>::Set_Next

; 260  : 			cur->Set_Next(temp);

	mov	eax, DWORD PTR _temp$2[ebp]
	push	eax
	mov	ecx, DWORD PTR _cur$[ebp]
	call	?Set_Next@?$SLNode@VSoldierGameObj@@@@QAEXPAV1@@Z ; SLNode<SoldierGameObj>::Set_Next

; 261  : 			return true;

	mov	al, 1
	jmp	SHORT $LN8@Insert_Bef
$LN1@Insert_Bef:

; 262  : 		}
; 263  : 		return false;

	xor	al, al
$LN8@Insert_Bef:

; 264  : 	}

	pop	edi
	pop	esi
	pop	ebx
	mov	esp, ebp
	pop	ebp
	ret	8
?Insert_Before@?$SList@VSoldierGameObj@@@@UAE_NPAVSoldierGameObj@@PBV2@@Z ENDP ; SList<SoldierGameObj>::Insert_Before
_TEXT	ENDS
; Function compile flags: /Odtp /ZI
; File x:\github\renegade\dragonade_rxd\scripts\slist.h
;	COMDAT ?Remove_All@?$SList@VSoldierGameObj@@@@UAEXXZ
_TEXT	SEGMENT
$T1 = -80						; size = 4
_cur$2 = -12						; size = 4
_next$ = -8						; size = 4
_this$ = -4						; size = 4
?Remove_All@?$SList@VSoldierGameObj@@@@UAEXXZ PROC	; SList<SoldierGameObj>::Remove_All, COMDAT
; _this$ = ecx

; 231  : 	{

	push	ebp
	mov	ebp, esp
	sub	esp, 80					; 00000050H
	push	ebx
	push	esi
	push	edi
	mov	DWORD PTR _this$[ebp], ecx

; 232  : 		SLNode<T> *next;
; 233  : 		for (SLNode<T> *cur = HeadNode; cur; cur = next)

	mov	eax, DWORD PTR _this$[ebp]
	mov	ecx, DWORD PTR [eax+4]
	mov	DWORD PTR _cur$2[ebp], ecx
	jmp	SHORT $LN3@Remove_All
$LN2@Remove_All:
	mov	eax, DWORD PTR _next$[ebp]
	mov	DWORD PTR _cur$2[ebp], eax
$LN3@Remove_All:
	cmp	DWORD PTR _cur$2[ebp], 0
	je	SHORT $LN1@Remove_All

; 234  : 		{
; 235  : 			next = cur->Next();

	mov	ecx, DWORD PTR _cur$2[ebp]
	call	?Next@?$SLNode@VSoldierGameObj@@@@QBEPAV1@XZ ; SLNode<SoldierGameObj>::Next
	mov	DWORD PTR _next$[ebp], eax

; 236  : 			delete cur;

	push	OFFSET ??_C@_0CI@LIMEAJLG@SList?$DMclass?5SoldierGameObj?$DO?3?3Rem@
	push	236					; 000000ecH
	push	OFFSET ??_C@_0DB@DFBFLIIO@x?3?2github?2renegade?2dragonade_rxd@
	call	?SetThreadTrackingInformation@@YAXPBDI0@Z ; SetThreadTrackingInformation
	add	esp, 12					; 0000000cH
	xor	eax, eax
	je	SHORT $LN7@Remove_All
	xor	ecx, ecx
	jne	SHORT $LN6@Remove_All
	push	236					; 000000ecH
	push	OFFSET ??_C@_1GC@LJHGOLFN@?$AAx?$AA?3?$AA?2?$AAg?$AAi?$AAt?$AAh?$AAu?$AAb?$AA?2?$AAr?$AAe?$AAn?$AAe?$AAg?$AAa?$AAd?$AAe?$AA?2?$AAd?$AAr?$AAa?$AAg?$AAo?$AAn?$AAa?$AAd?$AAe?$AA_?$AAr?$AAx?$AAd@
	push	OFFSET ??_C@_1M@HLGKFCJM@?$AAf?$AAa?$AAl?$AAs?$AAe?$AA?$AA@
	call	DWORD PTR __imp___wassert
	add	esp, 12					; 0000000cH
$LN6@Remove_All:
	jmp	SHORT $LN8@Remove_All
$LN7@Remove_All:
	mov	eax, DWORD PTR _cur$2[ebp]
	mov	DWORD PTR $T1[ebp], eax
	mov	ecx, DWORD PTR $T1[ebp]
	push	ecx
	call	??3?$AutoPoolClass@VGenericSLNode@@$0BAA@@@SAXPAX@Z ; AutoPoolClass<GenericSLNode,256>::operator delete
	add	esp, 4
$LN8@Remove_All:

; 237  : 		}

	jmp	SHORT $LN2@Remove_All
$LN1@Remove_All:

; 238  : 		HeadNode = TailNode = NULL;

	mov	eax, DWORD PTR _this$[ebp]
	mov	DWORD PTR [eax+8], 0
	mov	ecx, DWORD PTR _this$[ebp]
	mov	DWORD PTR [ecx+4], 0

; 239  : 	}

	pop	edi
	pop	esi
	pop	ebx
	mov	esp, ebp
	pop	ebp
	ret	0
?Remove_All@?$SList@VSoldierGameObj@@@@UAEXXZ ENDP	; SList<SoldierGameObj>::Remove_All
_TEXT	ENDS
; Function compile flags: /Odtp /ZI
; File x:\github\renegade\dragonade_rxd\scripts\slist.h
;	COMDAT ?Remove@?$SList@VSoldierGameObj@@@@UAE_NPBVSoldierGameObj@@@Z
_TEXT	SEGMENT
tv76 = -81						; size = 1
$T1 = -80						; size = 4
_temp$2 = -12						; size = 4
_cur$ = -8						; size = 4
_this$ = -4						; size = 4
_element$ = 8						; size = 4
?Remove@?$SList@VSoldierGameObj@@@@UAE_NPBVSoldierGameObj@@@Z PROC ; SList<SoldierGameObj>::Remove, COMDAT
; _this$ = ecx

; 202  : 	{

	push	ebp
	mov	ebp, esp
	sub	esp, 84					; 00000054H
	push	ebx
	push	esi
	push	edi
	mov	DWORD PTR _this$[ebp], ecx

; 203  : 		if (element == NULL || HeadNode == NULL)

	cmp	DWORD PTR _element$[ebp], 0
	je	SHORT $LN7@Remove
	mov	eax, DWORD PTR _this$[ebp]
	cmp	DWORD PTR [eax+4], 0
	jne	SHORT $LN8@Remove
$LN7@Remove:

; 204  : 		{
; 205  : 			return false;

	xor	al, al
	jmp	$LN9@Remove
$LN8@Remove:

; 206  : 		}
; 207  : 		if (HeadNode->Data() == element)

	mov	eax, DWORD PTR _this$[ebp]
	mov	ecx, DWORD PTR [eax+4]
	call	?Data@?$SLNode@VSoldierGameObj@@@@QBEPAVSoldierGameObj@@XZ ; SLNode<SoldierGameObj>::Data
	cmp	eax, DWORD PTR _element$[ebp]
	jne	SHORT $LN6@Remove

; 208  : 		{
; 209  : 			return Remove_Head() != NULL ? true : false;

	mov	eax, DWORD PTR _this$[ebp]
	mov	edx, DWORD PTR [eax]
	mov	ecx, DWORD PTR _this$[ebp]
	mov	eax, DWORD PTR [edx+20]
	call	eax
	test	eax, eax
	je	SHORT $LN11@Remove
	mov	BYTE PTR tv76[ebp], 1
	jmp	SHORT $LN12@Remove
$LN11@Remove:
	mov	BYTE PTR tv76[ebp], 0
$LN12@Remove:
	mov	al, BYTE PTR tv76[ebp]
	jmp	$LN9@Remove
$LN6@Remove:

; 210  : 		}
; 211  : 		SLNode<T> *cur;
; 212  : 		for (cur = HeadNode; cur->Next() && cur->Next()->Data() != element; cur=cur->Next())

	mov	eax, DWORD PTR _this$[ebp]
	mov	ecx, DWORD PTR [eax+4]
	mov	DWORD PTR _cur$[ebp], ecx
	jmp	SHORT $LN5@Remove
$LN4@Remove:
	mov	ecx, DWORD PTR _cur$[ebp]
	call	?Next@?$SLNode@VSoldierGameObj@@@@QBEPAV1@XZ ; SLNode<SoldierGameObj>::Next
	mov	DWORD PTR _cur$[ebp], eax
$LN5@Remove:
	mov	ecx, DWORD PTR _cur$[ebp]
	call	?Next@?$SLNode@VSoldierGameObj@@@@QBEPAV1@XZ ; SLNode<SoldierGameObj>::Next
	test	eax, eax
	je	SHORT $LN3@Remove
	mov	ecx, DWORD PTR _cur$[ebp]
	call	?Next@?$SLNode@VSoldierGameObj@@@@QBEPAV1@XZ ; SLNode<SoldierGameObj>::Next
	mov	ecx, eax
	call	?Data@?$SLNode@VSoldierGameObj@@@@QBEPAVSoldierGameObj@@XZ ; SLNode<SoldierGameObj>::Data
	cmp	eax, DWORD PTR _element$[ebp]
	je	SHORT $LN3@Remove

; 213  : 		{
; 214  : 		}

	jmp	SHORT $LN4@Remove
$LN3@Remove:

; 215  : 		if (cur->Next() != NULL && cur->Next()->Data() == element)

	mov	ecx, DWORD PTR _cur$[ebp]
	call	?Next@?$SLNode@VSoldierGameObj@@@@QBEPAV1@XZ ; SLNode<SoldierGameObj>::Next
	test	eax, eax
	je	$LN2@Remove
	mov	ecx, DWORD PTR _cur$[ebp]
	call	?Next@?$SLNode@VSoldierGameObj@@@@QBEPAV1@XZ ; SLNode<SoldierGameObj>::Next
	mov	ecx, eax
	call	?Data@?$SLNode@VSoldierGameObj@@@@QBEPAVSoldierGameObj@@XZ ; SLNode<SoldierGameObj>::Data
	cmp	eax, DWORD PTR _element$[ebp]
	jne	SHORT $LN2@Remove

; 216  : 		{
; 217  : 			SLNode<T> *temp	= cur->Next();

	mov	ecx, DWORD PTR _cur$[ebp]
	call	?Next@?$SLNode@VSoldierGameObj@@@@QBEPAV1@XZ ; SLNode<SoldierGameObj>::Next
	mov	DWORD PTR _temp$2[ebp], eax

; 218  : 			cur->Set_Next(temp->Next());

	mov	ecx, DWORD PTR _temp$2[ebp]
	call	?Next@?$SLNode@VSoldierGameObj@@@@QBEPAV1@XZ ; SLNode<SoldierGameObj>::Next
	push	eax
	mov	ecx, DWORD PTR _cur$[ebp]
	call	?Set_Next@?$SLNode@VSoldierGameObj@@@@QAEXPAV1@@Z ; SLNode<SoldierGameObj>::Set_Next

; 219  : 			if (temp == TailNode)

	mov	eax, DWORD PTR _this$[ebp]
	mov	ecx, DWORD PTR _temp$2[ebp]
	cmp	ecx, DWORD PTR [eax+8]
	jne	SHORT $LN1@Remove

; 220  : 			{
; 221  : 				TailNode = cur;

	mov	eax, DWORD PTR _this$[ebp]
	mov	ecx, DWORD PTR _cur$[ebp]
	mov	DWORD PTR [eax+8], ecx
$LN1@Remove:

; 222  : 			}
; 223  : 			delete temp;

	push	OFFSET ??_C@_0CE@PHGPNBHE@SList?$DMclass?5SoldierGameObj?$DO?3?3Rem@
	push	223					; 000000dfH
	push	OFFSET ??_C@_0DB@DFBFLIIO@x?3?2github?2renegade?2dragonade_rxd@
	call	?SetThreadTrackingInformation@@YAXPBDI0@Z ; SetThreadTrackingInformation
	add	esp, 12					; 0000000cH
	xor	eax, eax
	je	SHORT $LN14@Remove
	xor	ecx, ecx
	jne	SHORT $LN13@Remove
	push	223					; 000000dfH
	push	OFFSET ??_C@_1GC@LJHGOLFN@?$AAx?$AA?3?$AA?2?$AAg?$AAi?$AAt?$AAh?$AAu?$AAb?$AA?2?$AAr?$AAe?$AAn?$AAe?$AAg?$AAa?$AAd?$AAe?$AA?2?$AAd?$AAr?$AAa?$AAg?$AAo?$AAn?$AAa?$AAd?$AAe?$AA_?$AAr?$AAx?$AAd@
	push	OFFSET ??_C@_1M@HLGKFCJM@?$AAf?$AAa?$AAl?$AAs?$AAe?$AA?$AA@
	call	DWORD PTR __imp___wassert
	add	esp, 12					; 0000000cH
$LN13@Remove:
	jmp	SHORT $LN15@Remove
$LN14@Remove:
	mov	eax, DWORD PTR _temp$2[ebp]
	mov	DWORD PTR $T1[ebp], eax
	mov	ecx, DWORD PTR $T1[ebp]
	push	ecx
	call	??3?$AutoPoolClass@VGenericSLNode@@$0BAA@@@SAXPAX@Z ; AutoPoolClass<GenericSLNode,256>::operator delete
	add	esp, 4
$LN15@Remove:

; 224  : 			return true;

	mov	al, 1
	jmp	SHORT $LN9@Remove
$LN2@Remove:

; 225  : 		}
; 226  : 		return false;

	xor	al, al
$LN9@Remove:

; 227  : 	}

	pop	edi
	pop	esi
	pop	ebx
	mov	esp, ebp
	pop	ebp
	ret	4
?Remove@?$SList@VSoldierGameObj@@@@UAE_NPBVSoldierGameObj@@@Z ENDP ; SList<SoldierGameObj>::Remove
_TEXT	ENDS
; Function compile flags: /Odtp /ZI
; File x:\github\renegade\dragonade_rxd\scripts\slist.h
;	COMDAT ?Remove_Tail@?$SList@VSoldierGameObj@@@@UAEPAVSoldierGameObj@@XZ
_TEXT	SEGMENT
tv76 = -76						; size = 4
_data$ = -8						; size = 4
_this$ = -4						; size = 4
?Remove_Tail@?$SList@VSoldierGameObj@@@@UAEPAVSoldierGameObj@@XZ PROC ; SList<SoldierGameObj>::Remove_Tail, COMDAT
; _this$ = ecx

; 191  : 	{

	push	ebp
	mov	ebp, esp
	sub	esp, 76					; 0000004cH
	push	ebx
	push	esi
	push	edi
	mov	DWORD PTR _this$[ebp], ecx

; 192  : 		if (HeadNode == NULL)

	mov	eax, DWORD PTR _this$[ebp]
	cmp	DWORD PTR [eax+4], 0
	jne	SHORT $LN1@Remove_Tai

; 193  : 		{
; 194  : 			return ((T *)NULL);

	xor	eax, eax
	jmp	SHORT $LN2@Remove_Tai
$LN1@Remove_Tai:

; 195  : 		}
; 196  : 		T* data = TailNode->Data();

	mov	eax, DWORD PTR _this$[ebp]
	mov	ecx, DWORD PTR [eax+8]
	call	?Data@?$SLNode@VSoldierGameObj@@@@QBEPAVSoldierGameObj@@XZ ; SLNode<SoldierGameObj>::Data
	mov	DWORD PTR _data$[ebp], eax

; 197  : 		return (Remove(data) ? data : (T*)NULL);

	mov	eax, DWORD PTR _data$[ebp]
	push	eax
	mov	ecx, DWORD PTR _this$[ebp]
	mov	edx, DWORD PTR [ecx]
	mov	ecx, DWORD PTR _this$[ebp]
	mov	eax, DWORD PTR [edx+28]
	call	eax
	movzx	ecx, al
	test	ecx, ecx
	je	SHORT $LN4@Remove_Tai
	mov	edx, DWORD PTR _data$[ebp]
	mov	DWORD PTR tv76[ebp], edx
	jmp	SHORT $LN5@Remove_Tai
$LN4@Remove_Tai:
	mov	DWORD PTR tv76[ebp], 0
$LN5@Remove_Tai:
	mov	eax, DWORD PTR tv76[ebp]
$LN2@Remove_Tai:

; 198  : 	}

	pop	edi
	pop	esi
	pop	ebx
	mov	esp, ebp
	pop	ebp
	ret	0
?Remove_Tail@?$SList@VSoldierGameObj@@@@UAEPAVSoldierGameObj@@XZ ENDP ; SList<SoldierGameObj>::Remove_Tail
_TEXT	ENDS
; Function compile flags: /Odtp /ZI
; File x:\github\renegade\dragonade_rxd\scripts\slist.h
;	COMDAT ?Remove_Head@?$SList@VSoldierGameObj@@@@UAEPAVSoldierGameObj@@XZ
_TEXT	SEGMENT
$T1 = -80						; size = 4
_data$ = -12						; size = 4
_temp$ = -8						; size = 4
_this$ = -4						; size = 4
?Remove_Head@?$SList@VSoldierGameObj@@@@UAEPAVSoldierGameObj@@XZ PROC ; SList<SoldierGameObj>::Remove_Head, COMDAT
; _this$ = ecx

; 173  : 	{

	push	ebp
	mov	ebp, esp
	sub	esp, 80					; 00000050H
	push	ebx
	push	esi
	push	edi
	mov	DWORD PTR _this$[ebp], ecx

; 174  : 		if (HeadNode == NULL)

	mov	eax, DWORD PTR _this$[ebp]
	cmp	DWORD PTR [eax+4], 0
	jne	SHORT $LN2@Remove_Hea

; 175  : 		{
; 176  : 			return ((T* )NULL);

	xor	eax, eax
	jmp	$LN3@Remove_Hea
$LN2@Remove_Hea:

; 177  : 		}
; 178  : 		SLNode<T> *temp = HeadNode;

	mov	eax, DWORD PTR _this$[ebp]
	mov	ecx, DWORD PTR [eax+4]
	mov	DWORD PTR _temp$[ebp], ecx

; 179  : 		HeadNode = HeadNode->Next();

	mov	eax, DWORD PTR _this$[ebp]
	mov	ecx, DWORD PTR [eax+4]
	call	?Next@?$SLNode@VSoldierGameObj@@@@QBEPAV1@XZ ; SLNode<SoldierGameObj>::Next
	mov	ecx, DWORD PTR _this$[ebp]
	mov	DWORD PTR [ecx+4], eax

; 180  : 		if (HeadNode == NULL)

	mov	eax, DWORD PTR _this$[ebp]
	cmp	DWORD PTR [eax+4], 0
	jne	SHORT $LN1@Remove_Hea

; 181  : 		{
; 182  : 			TailNode = NULL;

	mov	eax, DWORD PTR _this$[ebp]
	mov	DWORD PTR [eax+8], 0
$LN1@Remove_Hea:

; 183  : 		}
; 184  : 		T *data = temp->Data();

	mov	ecx, DWORD PTR _temp$[ebp]
	call	?Data@?$SLNode@VSoldierGameObj@@@@QBEPAVSoldierGameObj@@XZ ; SLNode<SoldierGameObj>::Data
	mov	DWORD PTR _data$[ebp], eax

; 185  : 		delete temp;

	push	OFFSET ??_C@_0CJ@FLOLMCLL@SList?$DMclass?5SoldierGameObj?$DO?3?3Rem@
	push	185					; 000000b9H
	push	OFFSET ??_C@_0DB@DFBFLIIO@x?3?2github?2renegade?2dragonade_rxd@
	call	?SetThreadTrackingInformation@@YAXPBDI0@Z ; SetThreadTrackingInformation
	add	esp, 12					; 0000000cH
	xor	eax, eax
	je	SHORT $LN6@Remove_Hea
	xor	ecx, ecx
	jne	SHORT $LN5@Remove_Hea
	push	185					; 000000b9H
	push	OFFSET ??_C@_1GC@LJHGOLFN@?$AAx?$AA?3?$AA?2?$AAg?$AAi?$AAt?$AAh?$AAu?$AAb?$AA?2?$AAr?$AAe?$AAn?$AAe?$AAg?$AAa?$AAd?$AAe?$AA?2?$AAd?$AAr?$AAa?$AAg?$AAo?$AAn?$AAa?$AAd?$AAe?$AA_?$AAr?$AAx?$AAd@
	push	OFFSET ??_C@_1M@HLGKFCJM@?$AAf?$AAa?$AAl?$AAs?$AAe?$AA?$AA@
	call	DWORD PTR __imp___wassert
	add	esp, 12					; 0000000cH
$LN5@Remove_Hea:
	jmp	SHORT $LN7@Remove_Hea
$LN6@Remove_Hea:
	mov	eax, DWORD PTR _temp$[ebp]
	mov	DWORD PTR $T1[ebp], eax
	mov	ecx, DWORD PTR $T1[ebp]
	push	ecx
	call	??3?$AutoPoolClass@VGenericSLNode@@$0BAA@@@SAXPAX@Z ; AutoPoolClass<GenericSLNode,256>::operator delete
	add	esp, 4
$LN7@Remove_Hea:

; 186  : 		return data;

	mov	eax, DWORD PTR _data$[ebp]
$LN3@Remove_Hea:

; 187  : 	}

	pop	edi
	pop	esi
	pop	ebx
	mov	esp, ebp
	pop	ebp
	ret	0
?Remove_Head@?$SList@VSoldierGameObj@@@@UAEPAVSoldierGameObj@@XZ ENDP ; SList<SoldierGameObj>::Remove_Head
_TEXT	ENDS
; Function compile flags: /Odtp /ZI
; File x:\github\renegade\dragonade_rxd\scripts\slist.h
;	COMDAT ?Add_Tail@?$SList@VSoldierGameObj@@@@UAE_NAAV1@@Z
_TEXT	SEGMENT
_cur$1 = -8						; size = 4
_this$ = -4						; size = 4
_list$ = 8						; size = 4
?Add_Tail@?$SList@VSoldierGameObj@@@@UAE_NAAV1@@Z PROC	; SList<SoldierGameObj>::Add_Tail, COMDAT
; _this$ = ecx

; 159  : 	{

	push	ebp
	mov	ebp, esp
	sub	esp, 72					; 00000048H
	push	ebx
	push	esi
	push	edi
	mov	DWORD PTR _this$[ebp], ecx

; 160  : 		if (list.HeadNode == NULL)

	mov	eax, DWORD PTR _list$[ebp]
	cmp	DWORD PTR [eax+4], 0
	jne	SHORT $LN4@Add_Tail

; 161  : 		{
; 162  : 			return false;

	xor	al, al
	jmp	SHORT $LN5@Add_Tail
$LN4@Add_Tail:

; 163  : 		}
; 164  : 		for (SLNode<T> *cur = list.HeadNode; cur; cur = cur->Next()) 

	mov	eax, DWORD PTR _list$[ebp]
	mov	ecx, DWORD PTR [eax+4]
	mov	DWORD PTR _cur$1[ebp], ecx
	jmp	SHORT $LN3@Add_Tail
$LN2@Add_Tail:
	mov	ecx, DWORD PTR _cur$1[ebp]
	call	?Next@?$SLNode@VSoldierGameObj@@@@QBEPAV1@XZ ; SLNode<SoldierGameObj>::Next
	mov	DWORD PTR _cur$1[ebp], eax
$LN3@Add_Tail:
	cmp	DWORD PTR _cur$1[ebp], 0
	je	SHORT $LN1@Add_Tail

; 165  : 		{
; 166  : 			Add_Tail(cur->Data());

	mov	ecx, DWORD PTR _cur$1[ebp]
	call	?Data@?$SLNode@VSoldierGameObj@@@@QBEPAVSoldierGameObj@@XZ ; SLNode<SoldierGameObj>::Data
	push	eax
	mov	eax, DWORD PTR _this$[ebp]
	mov	edx, DWORD PTR [eax]
	mov	ecx, DWORD PTR _this$[ebp]
	mov	eax, DWORD PTR [edx+16]
	call	eax

; 167  : 		}

	jmp	SHORT $LN2@Add_Tail
$LN1@Add_Tail:

; 168  : 		return true;

	mov	al, 1
$LN5@Add_Tail:

; 169  : 	}

	pop	edi
	pop	esi
	pop	ebx
	mov	esp, ebp
	pop	ebp
	ret	4
?Add_Tail@?$SList@VSoldierGameObj@@@@UAE_NAAV1@@Z ENDP	; SList<SoldierGameObj>::Add_Tail
_TEXT	ENDS
; Function compile flags: /Odtp /ZI
; File x:\github\renegade\dragonade_rxd\scripts\slist.h
;	COMDAT ?Add_Tail@?$SList@VSoldierGameObj@@@@UAE_NPAVSoldierGameObj@@@Z
_TEXT	SEGMENT
tv82 = -84						; size = 4
tv84 = -80						; size = 4
$T1 = -76						; size = 4
_temp$ = -8						; size = 4
_this$ = -4						; size = 4
_data$ = 8						; size = 4
?Add_Tail@?$SList@VSoldierGameObj@@@@UAE_NPAVSoldierGameObj@@@Z PROC ; SList<SoldierGameObj>::Add_Tail, COMDAT
; _this$ = ecx

; 139  : 	{

	push	ebp
	mov	ebp, esp
	sub	esp, 84					; 00000054H
	push	ebx
	push	esi
	push	edi
	mov	DWORD PTR _this$[ebp], ecx

; 140  : 		if (data == NULL)

	cmp	DWORD PTR _data$[ebp], 0
	jne	SHORT $LN3@Add_Tail

; 141  : 		{
; 142  : 			return false;

	xor	al, al
	jmp	$LN4@Add_Tail
$LN3@Add_Tail:

; 143  : 		}
; 144  : 		SLNode<T> *temp = new SLNode<T> (data);

	push	OFFSET ??_C@_0CG@MIKPKKLM@SList?$DMclass?5SoldierGameObj?$DO?3?3Add@
	push	144					; 00000090H
	push	OFFSET ??_C@_0DB@DFBFLIIO@x?3?2github?2renegade?2dragonade_rxd@
	call	?SetThreadTrackingInformation@@YAXPBDI0@Z ; SetThreadTrackingInformation
	add	esp, 12					; 0000000cH
	xor	eax, eax
	je	SHORT $LN9@Add_Tail
	xor	ecx, ecx
	jne	SHORT $LN6@Add_Tail
	push	144					; 00000090H
	push	OFFSET ??_C@_1GC@LJHGOLFN@?$AAx?$AA?3?$AA?2?$AAg?$AAi?$AAt?$AAh?$AAu?$AAb?$AA?2?$AAr?$AAe?$AAn?$AAe?$AAg?$AAa?$AAd?$AAe?$AA?2?$AAd?$AAr?$AAa?$AAg?$AAo?$AAn?$AAa?$AAd?$AAe?$AA_?$AAr?$AAx?$AAd@
	push	OFFSET ??_C@_1M@HLGKFCJM@?$AAf?$AAa?$AAl?$AAs?$AAe?$AA?$AA@
	call	DWORD PTR __imp___wassert
	add	esp, 12					; 0000000cH
$LN6@Add_Tail:
	mov	DWORD PTR tv84[ebp], 0
	jmp	SHORT $LN10@Add_Tail
$LN9@Add_Tail:
	push	0
	push	0
	push	0
	push	8
	call	??2?$AutoPoolClass@VGenericSLNode@@$0BAA@@@SAPAXIPBDI0@Z ; AutoPoolClass<GenericSLNode,256>::operator new
	add	esp, 16					; 00000010H
	mov	DWORD PTR $T1[ebp], eax
	cmp	DWORD PTR $T1[ebp], 0
	je	SHORT $LN7@Add_Tail
	mov	eax, DWORD PTR _data$[ebp]
	push	eax
	mov	ecx, DWORD PTR $T1[ebp]
	call	??0?$SLNode@VSoldierGameObj@@@@IAE@PAVSoldierGameObj@@@Z ; SLNode<SoldierGameObj>::SLNode<SoldierGameObj>
	mov	DWORD PTR tv82[ebp], eax
	jmp	SHORT $LN8@Add_Tail
$LN7@Add_Tail:
	mov	DWORD PTR tv82[ebp], 0
$LN8@Add_Tail:
	mov	ecx, DWORD PTR tv82[ebp]
	mov	DWORD PTR tv84[ebp], ecx
$LN10@Add_Tail:
	mov	edx, DWORD PTR tv84[ebp]
	mov	DWORD PTR _temp$[ebp], edx

; 145  : 		if (HeadNode == NULL)

	mov	eax, DWORD PTR _this$[ebp]
	cmp	DWORD PTR [eax+4], 0
	jne	SHORT $LN2@Add_Tail

; 146  : 		{
; 147  : 			HeadNode = TailNode = temp;

	mov	eax, DWORD PTR _this$[ebp]
	mov	ecx, DWORD PTR _temp$[ebp]
	mov	DWORD PTR [eax+8], ecx
	mov	edx, DWORD PTR _this$[ebp]
	mov	eax, DWORD PTR _temp$[ebp]
	mov	DWORD PTR [edx+4], eax

; 148  : 		}
; 149  : 		else

	jmp	SHORT $LN1@Add_Tail
$LN2@Add_Tail:

; 150  : 		{
; 151  : 			TailNode->Set_Next(temp);

	mov	eax, DWORD PTR _temp$[ebp]
	push	eax
	mov	ecx, DWORD PTR _this$[ebp]
	mov	ecx, DWORD PTR [ecx+8]
	call	?Set_Next@?$SLNode@VSoldierGameObj@@@@QAEXPAV1@@Z ; SLNode<SoldierGameObj>::Set_Next

; 152  : 			TailNode = temp;

	mov	eax, DWORD PTR _this$[ebp]
	mov	ecx, DWORD PTR _temp$[ebp]
	mov	DWORD PTR [eax+8], ecx
$LN1@Add_Tail:

; 153  : 		}
; 154  : 		return true;

	mov	al, 1
$LN4@Add_Tail:

; 155  : 	}

	pop	edi
	pop	esi
	pop	ebx
	mov	esp, ebp
	pop	ebp
	ret	4
?Add_Tail@?$SList@VSoldierGameObj@@@@UAE_NPAVSoldierGameObj@@@Z ENDP ; SList<SoldierGameObj>::Add_Tail
_TEXT	ENDS
; Function compile flags: /Odtp /ZI
; File x:\github\renegade\dragonade_rxd\scripts\slist.h
;	COMDAT ?Add_Head@?$SList@VSoldierGameObj@@@@UAE_NAAV1@@Z
_TEXT	SEGMENT
tv90 = -92						; size = 4
tv92 = -88						; size = 4
$T1 = -84						; size = 4
_temp$2 = -16						; size = 4
_cur$3 = -12						; size = 4
_addpoint$ = -8						; size = 4
_this$ = -4						; size = 4
_list$ = 8						; size = 4
?Add_Head@?$SList@VSoldierGameObj@@@@UAE_NAAV1@@Z PROC	; SList<SoldierGameObj>::Add_Head, COMDAT
; _this$ = ecx

; 113  : 	{

	push	ebp
	mov	ebp, esp
	sub	esp, 92					; 0000005cH
	push	ebx
	push	esi
	push	edi
	mov	DWORD PTR _this$[ebp], ecx

; 114  : 		if (list.HeadNode == NULL)

	mov	eax, DWORD PTR _list$[ebp]
	cmp	DWORD PTR [eax+4], 0
	jne	SHORT $LN6@Add_Head

; 115  : 		{
; 116  : 			return false;

	xor	al, al
	jmp	$LN7@Add_Head
$LN6@Add_Head:

; 117  : 		}
; 118  : 		SLNode<T> *addpoint = NULL;

	mov	DWORD PTR _addpoint$[ebp], 0

; 119  : 		for (SLNode<T> *cur = list.HeadNode; cur; cur = cur->Next())

	mov	eax, DWORD PTR _list$[ebp]
	mov	ecx, DWORD PTR [eax+4]
	mov	DWORD PTR _cur$3[ebp], ecx
	jmp	SHORT $LN5@Add_Head
$LN4@Add_Head:
	mov	ecx, DWORD PTR _cur$3[ebp]
	call	?Next@?$SLNode@VSoldierGameObj@@@@QBEPAV1@XZ ; SLNode<SoldierGameObj>::Next
	mov	DWORD PTR _cur$3[ebp], eax
$LN5@Add_Head:
	cmp	DWORD PTR _cur$3[ebp], 0
	je	$LN3@Add_Head

; 120  : 		{
; 121  : 			if (addpoint)

	cmp	DWORD PTR _addpoint$[ebp], 0
	je	$LN2@Add_Head

; 122  : 			{
; 123  : 				SLNode<T> *temp = new SLNode<T>(cur->Data());

	push	OFFSET ??_C@_0CG@CEBHJMNI@SList?$DMclass?5SoldierGameObj?$DO?3?3Add@
	push	123					; 0000007bH
	push	OFFSET ??_C@_0DB@DFBFLIIO@x?3?2github?2renegade?2dragonade_rxd@
	call	?SetThreadTrackingInformation@@YAXPBDI0@Z ; SetThreadTrackingInformation
	add	esp, 12					; 0000000cH
	xor	eax, eax
	je	SHORT $LN12@Add_Head
	xor	ecx, ecx
	jne	SHORT $LN9@Add_Head
	push	123					; 0000007bH
	push	OFFSET ??_C@_1GC@LJHGOLFN@?$AAx?$AA?3?$AA?2?$AAg?$AAi?$AAt?$AAh?$AAu?$AAb?$AA?2?$AAr?$AAe?$AAn?$AAe?$AAg?$AAa?$AAd?$AAe?$AA?2?$AAd?$AAr?$AAa?$AAg?$AAo?$AAn?$AAa?$AAd?$AAe?$AA_?$AAr?$AAx?$AAd@
	push	OFFSET ??_C@_1M@HLGKFCJM@?$AAf?$AAa?$AAl?$AAs?$AAe?$AA?$AA@
	call	DWORD PTR __imp___wassert
	add	esp, 12					; 0000000cH
$LN9@Add_Head:
	mov	DWORD PTR tv92[ebp], 0
	jmp	SHORT $LN13@Add_Head
$LN12@Add_Head:
	push	0
	push	0
	push	0
	push	8
	call	??2?$AutoPoolClass@VGenericSLNode@@$0BAA@@@SAPAXIPBDI0@Z ; AutoPoolClass<GenericSLNode,256>::operator new
	add	esp, 16					; 00000010H
	mov	DWORD PTR $T1[ebp], eax
	cmp	DWORD PTR $T1[ebp], 0
	je	SHORT $LN10@Add_Head
	mov	ecx, DWORD PTR _cur$3[ebp]
	call	?Data@?$SLNode@VSoldierGameObj@@@@QBEPAVSoldierGameObj@@XZ ; SLNode<SoldierGameObj>::Data
	push	eax
	mov	ecx, DWORD PTR $T1[ebp]
	call	??0?$SLNode@VSoldierGameObj@@@@IAE@PAVSoldierGameObj@@@Z ; SLNode<SoldierGameObj>::SLNode<SoldierGameObj>
	mov	DWORD PTR tv90[ebp], eax
	jmp	SHORT $LN11@Add_Head
$LN10@Add_Head:
	mov	DWORD PTR tv90[ebp], 0
$LN11@Add_Head:
	mov	eax, DWORD PTR tv90[ebp]
	mov	DWORD PTR tv92[ebp], eax
$LN13@Add_Head:
	mov	ecx, DWORD PTR tv92[ebp]
	mov	DWORD PTR _temp$2[ebp], ecx

; 124  : 				temp->Set_Next(addpoint->Next());

	mov	ecx, DWORD PTR _addpoint$[ebp]
	call	?Next@?$SLNode@VSoldierGameObj@@@@QBEPAV1@XZ ; SLNode<SoldierGameObj>::Next
	push	eax
	mov	ecx, DWORD PTR _temp$2[ebp]
	call	?Set_Next@?$SLNode@VSoldierGameObj@@@@QAEXPAV1@@Z ; SLNode<SoldierGameObj>::Set_Next

; 125  : 				addpoint->Set_Next(temp);

	mov	eax, DWORD PTR _temp$2[ebp]
	push	eax
	mov	ecx, DWORD PTR _addpoint$[ebp]
	call	?Set_Next@?$SLNode@VSoldierGameObj@@@@QAEXPAV1@@Z ; SLNode<SoldierGameObj>::Set_Next

; 126  : 				addpoint = temp;

	mov	eax, DWORD PTR _temp$2[ebp]
	mov	DWORD PTR _addpoint$[ebp], eax

; 127  : 			}
; 128  : 			else

	jmp	SHORT $LN1@Add_Head
$LN2@Add_Head:

; 129  : 			{
; 130  : 				Add_Head(cur->Data());

	mov	ecx, DWORD PTR _cur$3[ebp]
	call	?Data@?$SLNode@VSoldierGameObj@@@@QBEPAVSoldierGameObj@@XZ ; SLNode<SoldierGameObj>::Data
	push	eax
	mov	eax, DWORD PTR _this$[ebp]
	mov	edx, DWORD PTR [eax]
	mov	ecx, DWORD PTR _this$[ebp]
	mov	eax, DWORD PTR [edx+8]
	call	eax

; 131  : 				addpoint = HeadNode;

	mov	eax, DWORD PTR _this$[ebp]
	mov	ecx, DWORD PTR [eax+4]
	mov	DWORD PTR _addpoint$[ebp], ecx
$LN1@Add_Head:

; 132  : 			}
; 133  : 		}

	jmp	$LN4@Add_Head
$LN3@Add_Head:

; 134  : 		return true;

	mov	al, 1
$LN7@Add_Head:

; 135  : 	}

	pop	edi
	pop	esi
	pop	ebx
	mov	esp, ebp
	pop	ebp
	ret	4
?Add_Head@?$SList@VSoldierGameObj@@@@UAE_NAAV1@@Z ENDP	; SList<SoldierGameObj>::Add_Head
_TEXT	ENDS
; Function compile flags: /Odtp /ZI
; File x:\github\renegade\dragonade_rxd\scripts\slist.h
;	COMDAT ?Add_Head@?$SList@VSoldierGameObj@@@@UAE_NPAVSoldierGameObj@@@Z
_TEXT	SEGMENT
tv82 = -84						; size = 4
tv84 = -80						; size = 4
$T1 = -76						; size = 4
_temp$ = -8						; size = 4
_this$ = -4						; size = 4
_data$ = 8						; size = 4
?Add_Head@?$SList@VSoldierGameObj@@@@UAE_NPAVSoldierGameObj@@@Z PROC ; SList<SoldierGameObj>::Add_Head, COMDAT
; _this$ = ecx

; 96   : 	{

	push	ebp
	mov	ebp, esp
	sub	esp, 84					; 00000054H
	push	ebx
	push	esi
	push	edi
	mov	DWORD PTR _this$[ebp], ecx

; 97   : 		if (!data)

	cmp	DWORD PTR _data$[ebp], 0
	jne	SHORT $LN2@Add_Head

; 98   : 		{
; 99   : 			return false;

	xor	al, al
	jmp	$LN3@Add_Head
$LN2@Add_Head:

; 100  : 		}
; 101  : 		SLNode<T> *temp	= new SLNode<T>(data);

	push	OFFSET ??_C@_0CG@CEBHJMNI@SList?$DMclass?5SoldierGameObj?$DO?3?3Add@
	push	101					; 00000065H
	push	OFFSET ??_C@_0DB@DFBFLIIO@x?3?2github?2renegade?2dragonade_rxd@
	call	?SetThreadTrackingInformation@@YAXPBDI0@Z ; SetThreadTrackingInformation
	add	esp, 12					; 0000000cH
	xor	eax, eax
	je	SHORT $LN8@Add_Head
	xor	ecx, ecx
	jne	SHORT $LN5@Add_Head
	push	101					; 00000065H
	push	OFFSET ??_C@_1GC@LJHGOLFN@?$AAx?$AA?3?$AA?2?$AAg?$AAi?$AAt?$AAh?$AAu?$AAb?$AA?2?$AAr?$AAe?$AAn?$AAe?$AAg?$AAa?$AAd?$AAe?$AA?2?$AAd?$AAr?$AAa?$AAg?$AAo?$AAn?$AAa?$AAd?$AAe?$AA_?$AAr?$AAx?$AAd@
	push	OFFSET ??_C@_1M@HLGKFCJM@?$AAf?$AAa?$AAl?$AAs?$AAe?$AA?$AA@
	call	DWORD PTR __imp___wassert
	add	esp, 12					; 0000000cH
$LN5@Add_Head:
	mov	DWORD PTR tv84[ebp], 0
	jmp	SHORT $LN9@Add_Head
$LN8@Add_Head:
	push	0
	push	0
	push	0
	push	8
	call	??2?$AutoPoolClass@VGenericSLNode@@$0BAA@@@SAPAXIPBDI0@Z ; AutoPoolClass<GenericSLNode,256>::operator new
	add	esp, 16					; 00000010H
	mov	DWORD PTR $T1[ebp], eax
	cmp	DWORD PTR $T1[ebp], 0
	je	SHORT $LN6@Add_Head
	mov	eax, DWORD PTR _data$[ebp]
	push	eax
	mov	ecx, DWORD PTR $T1[ebp]
	call	??0?$SLNode@VSoldierGameObj@@@@IAE@PAVSoldierGameObj@@@Z ; SLNode<SoldierGameObj>::SLNode<SoldierGameObj>
	mov	DWORD PTR tv82[ebp], eax
	jmp	SHORT $LN7@Add_Head
$LN6@Add_Head:
	mov	DWORD PTR tv82[ebp], 0
$LN7@Add_Head:
	mov	ecx, DWORD PTR tv82[ebp]
	mov	DWORD PTR tv84[ebp], ecx
$LN9@Add_Head:
	mov	edx, DWORD PTR tv84[ebp]
	mov	DWORD PTR _temp$[ebp], edx

; 102  : 		temp->Set_Next(HeadNode);

	mov	eax, DWORD PTR _this$[ebp]
	mov	ecx, DWORD PTR [eax+4]
	push	ecx
	mov	ecx, DWORD PTR _temp$[ebp]
	call	?Set_Next@?$SLNode@VSoldierGameObj@@@@QAEXPAV1@@Z ; SLNode<SoldierGameObj>::Set_Next

; 103  : 		HeadNode = temp;

	mov	eax, DWORD PTR _this$[ebp]
	mov	ecx, DWORD PTR _temp$[ebp]
	mov	DWORD PTR [eax+4], ecx

; 104  : 		if (!TailNode)

	mov	eax, DWORD PTR _this$[ebp]
	cmp	DWORD PTR [eax+8], 0
	jne	SHORT $LN1@Add_Head

; 105  : 		{
; 106  : 			TailNode = temp;

	mov	eax, DWORD PTR _this$[ebp]
	mov	ecx, DWORD PTR _temp$[ebp]
	mov	DWORD PTR [eax+8], ecx
$LN1@Add_Head:

; 107  : 		}
; 108  : 		return true;

	mov	al, 1
$LN3@Add_Head:

; 109  : 	}

	pop	edi
	pop	esi
	pop	ebx
	mov	esp, ebp
	pop	ebp
	ret	4
?Add_Head@?$SList@VSoldierGameObj@@@@UAE_NPAVSoldierGameObj@@@Z ENDP ; SList<SoldierGameObj>::Add_Head
_TEXT	ENDS
; Function compile flags: /Odtp /ZI
; File x:\github\renegade\dragonade_rxd\scripts\slist.h
;	COMDAT ??1?$SList@VSoldierGameObj@@@@UAE@XZ
_TEXT	SEGMENT
_this$ = -4						; size = 4
??1?$SList@VSoldierGameObj@@@@UAE@XZ PROC		; SList<SoldierGameObj>::~SList<SoldierGameObj>, COMDAT
; _this$ = ecx

; 90   : 	{

	push	ebp
	mov	ebp, esp
	sub	esp, 68					; 00000044H
	push	ebx
	push	esi
	push	edi
	mov	DWORD PTR _this$[ebp], ecx
	mov	eax, DWORD PTR _this$[ebp]
	mov	DWORD PTR [eax], OFFSET ??_7?$SList@VSoldierGameObj@@@@6B@

; 91   : 		Remove_All();

	mov	ecx, DWORD PTR _this$[ebp]
	call	?Remove_All@?$SList@VSoldierGameObj@@@@UAEXXZ ; SList<SoldierGameObj>::Remove_All

; 92   : 	}

	pop	edi
	pop	esi
	pop	ebx
	mov	esp, ebp
	pop	ebp
	ret	0
??1?$SList@VSoldierGameObj@@@@UAE@XZ ENDP		; SList<SoldierGameObj>::~SList<SoldierGameObj>
_TEXT	ENDS
; Function compile flags: /Odtp /ZI
; File x:\github\renegade\dragonade_rxd\scripts\slist.h
;	COMDAT ??0?$SList@VSoldierGameObj@@@@QAE@XZ
_TEXT	SEGMENT
_this$ = -4						; size = 4
??0?$SList@VSoldierGameObj@@@@QAE@XZ PROC		; SList<SoldierGameObj>::SList<SoldierGameObj>, COMDAT
; _this$ = ecx

; 86   : 	{

	push	ebp
	mov	ebp, esp
	sub	esp, 68					; 00000044H
	push	ebx
	push	esi
	push	edi
	mov	DWORD PTR _this$[ebp], ecx
	mov	eax, DWORD PTR _this$[ebp]
	mov	DWORD PTR [eax], OFFSET ??_7?$SList@VSoldierGameObj@@@@6B@
	mov	eax, DWORD PTR _this$[ebp]
	mov	DWORD PTR [eax+4], 0
	mov	eax, DWORD PTR _this$[ebp]
	mov	DWORD PTR [eax+8], 0

; 87   : 	}

	mov	eax, DWORD PTR _this$[ebp]
	pop	edi
	pop	esi
	pop	ebx
	mov	esp, ebp
	pop	ebp
	ret	0
??0?$SList@VSoldierGameObj@@@@QAE@XZ ENDP		; SList<SoldierGameObj>::SList<SoldierGameObj>
_TEXT	ENDS
; Function compile flags: /Odtp /ZI
;	COMDAT ??_G?$SList@VBeaconGameObj@@@@UAEPAXI@Z
_TEXT	SEGMENT
_this$ = -4						; size = 4
___flags$ = 8						; size = 4
??_G?$SList@VBeaconGameObj@@@@UAEPAXI@Z PROC		; SList<BeaconGameObj>::`scalar deleting destructor', COMDAT
; _this$ = ecx
	push	ebp
	mov	ebp, esp
	sub	esp, 68					; 00000044H
	push	ebx
	push	esi
	push	edi
	mov	DWORD PTR _this$[ebp], ecx
	mov	ecx, DWORD PTR _this$[ebp]
	call	??1?$SList@VBeaconGameObj@@@@UAE@XZ	; SList<BeaconGameObj>::~SList<BeaconGameObj>
	mov	eax, DWORD PTR ___flags$[ebp]
	and	eax, 1
	je	SHORT $LN1@scalar
	mov	eax, DWORD PTR _this$[ebp]
	push	eax
	call	??3@YAXPAX@Z				; operator delete
	add	esp, 4
$LN1@scalar:
	mov	eax, DWORD PTR _this$[ebp]
	pop	edi
	pop	esi
	pop	ebx
	mov	esp, ebp
	pop	ebp
	ret	4
??_G?$SList@VBeaconGameObj@@@@UAEPAXI@Z ENDP		; SList<BeaconGameObj>::`scalar deleting destructor'
_TEXT	ENDS
; Function compile flags: /Odtp /ZI
; File x:\github\renegade\dragonade_rxd\scripts\slist.h
;	COMDAT ?Get_Count@?$SList@VBeaconGameObj@@@@UBEIXZ
_TEXT	SEGMENT
_node$1 = -12						; size = 4
_count$ = -8						; size = 4
_this$ = -4						; size = 4
?Get_Count@?$SList@VBeaconGameObj@@@@UBEIXZ PROC	; SList<BeaconGameObj>::Get_Count, COMDAT
; _this$ = ecx

; 302  : 	{

	push	ebp
	mov	ebp, esp
	sub	esp, 76					; 0000004cH
	push	ebx
	push	esi
	push	edi
	mov	DWORD PTR _this$[ebp], ecx

; 303  : 		uint32 count = 0;

	mov	DWORD PTR _count$[ebp], 0

; 304  : 
; 305  : 		for (SLNode<T>* node = HeadNode; node; node = node->Next())

	mov	eax, DWORD PTR _this$[ebp]
	mov	ecx, DWORD PTR [eax+4]
	mov	DWORD PTR _node$1[ebp], ecx
	jmp	SHORT $LN3@Get_Count
$LN2@Get_Count:
	mov	ecx, DWORD PTR _node$1[ebp]
	call	?Next@?$SLNode@VBeaconGameObj@@@@QBEPAV1@XZ ; SLNode<BeaconGameObj>::Next
	mov	DWORD PTR _node$1[ebp], eax
$LN3@Get_Count:
	cmp	DWORD PTR _node$1[ebp], 0
	je	SHORT $LN1@Get_Count

; 306  : 			++count;

	mov	eax, DWORD PTR _count$[ebp]
	add	eax, 1
	mov	DWORD PTR _count$[ebp], eax
	jmp	SHORT $LN2@Get_Count
$LN1@Get_Count:

; 307  : 
; 308  : 		return count;

	mov	eax, DWORD PTR _count$[ebp]

; 309  : 	}

	pop	edi
	pop	esi
	pop	ebx
	mov	esp, ebp
	pop	ebp
	ret	0
?Get_Count@?$SList@VBeaconGameObj@@@@UBEIXZ ENDP	; SList<BeaconGameObj>::Get_Count
_TEXT	ENDS
; Function compile flags: /Odtp /ZI
; File x:\github\renegade\dragonade_rxd\scripts\slist.h
;	COMDAT ?Is_Empty@?$SList@VBeaconGameObj@@@@UBE_NXZ
_TEXT	SEGMENT
tv66 = -72						; size = 4
_this$ = -4						; size = 4
?Is_Empty@?$SList@VBeaconGameObj@@@@UBE_NXZ PROC	; SList<BeaconGameObj>::Is_Empty, COMDAT
; _this$ = ecx

; 296  : 	{

	push	ebp
	mov	ebp, esp
	sub	esp, 72					; 00000048H
	push	ebx
	push	esi
	push	edi
	mov	DWORD PTR _this$[ebp], ecx

; 297  : 		return !HeadNode;

	mov	eax, DWORD PTR _this$[ebp]
	cmp	DWORD PTR [eax+4], 0
	jne	SHORT $LN3@Is_Empty
	mov	DWORD PTR tv66[ebp], 1
	jmp	SHORT $LN4@Is_Empty
$LN3@Is_Empty:
	mov	DWORD PTR tv66[ebp], 0
$LN4@Is_Empty:
	mov	al, BYTE PTR tv66[ebp]

; 298  : 	}

	pop	edi
	pop	esi
	pop	ebx
	mov	esp, ebp
	pop	ebp
	ret	0
?Is_Empty@?$SList@VBeaconGameObj@@@@UBE_NXZ ENDP	; SList<BeaconGameObj>::Is_Empty
_TEXT	ENDS
; Function compile flags: /Odtp /ZI
; File x:\github\renegade\dragonade_rxd\scripts\slist.h
;	COMDAT ?Insert_After@?$SList@VBeaconGameObj@@@@UAE_NPAVBeaconGameObj@@PBV2@@Z
_TEXT	SEGMENT
tv140 = -88						; size = 4
tv142 = -84						; size = 4
$T1 = -80						; size = 4
_temp$2 = -12						; size = 4
_cur$ = -8						; size = 4
_this$ = -4						; size = 4
_newnode$ = 8						; size = 4
_oldnode$ = 12						; size = 4
?Insert_After@?$SList@VBeaconGameObj@@@@UAE_NPAVBeaconGameObj@@PBV2@@Z PROC ; SList<BeaconGameObj>::Insert_After, COMDAT
; _this$ = ecx

; 267  : 	{

	push	ebp
	mov	ebp, esp
	sub	esp, 88					; 00000058H
	push	ebx
	push	esi
	push	edi
	mov	DWORD PTR _this$[ebp], ecx

; 268  : 		if (newnode == NULL)

	cmp	DWORD PTR _newnode$[ebp], 0
	jne	SHORT $LN8@Insert_Aft

; 269  : 		{
; 270  : 			return false;

	xor	al, al
	jmp	$LN9@Insert_Aft
$LN8@Insert_Aft:

; 271  : 		}
; 272  : 		if (oldnode == NULL || HeadNode == NULL)

	cmp	DWORD PTR _oldnode$[ebp], 0
	je	SHORT $LN6@Insert_Aft
	mov	eax, DWORD PTR _this$[ebp]
	cmp	DWORD PTR [eax+4], 0
	jne	SHORT $LN7@Insert_Aft
$LN6@Insert_Aft:

; 273  : 		{
; 274  : 			return(Add_Head(newnode));

	mov	eax, DWORD PTR _newnode$[ebp]
	push	eax
	mov	ecx, DWORD PTR _this$[ebp]
	mov	edx, DWORD PTR [ecx]
	mov	ecx, DWORD PTR _this$[ebp]
	mov	eax, DWORD PTR [edx+8]
	call	eax
	jmp	$LN9@Insert_Aft
$LN7@Insert_Aft:

; 275  : 		}
; 276  : 		SLNode<T> *cur;
; 277  : 		for (cur = HeadNode; cur && cur->Data() != oldnode; cur = cur->Next())

	mov	eax, DWORD PTR _this$[ebp]
	mov	ecx, DWORD PTR [eax+4]
	mov	DWORD PTR _cur$[ebp], ecx
	jmp	SHORT $LN5@Insert_Aft
$LN4@Insert_Aft:
	mov	ecx, DWORD PTR _cur$[ebp]
	call	?Next@?$SLNode@VBeaconGameObj@@@@QBEPAV1@XZ ; SLNode<BeaconGameObj>::Next
	mov	DWORD PTR _cur$[ebp], eax
$LN5@Insert_Aft:
	cmp	DWORD PTR _cur$[ebp], 0
	je	SHORT $LN3@Insert_Aft
	mov	ecx, DWORD PTR _cur$[ebp]
	call	?Data@?$SLNode@VBeaconGameObj@@@@QBEPAVBeaconGameObj@@XZ ; SLNode<BeaconGameObj>::Data
	cmp	eax, DWORD PTR _oldnode$[ebp]
	je	SHORT $LN3@Insert_Aft

; 278  : 		{
; 279  : 		}

	jmp	SHORT $LN4@Insert_Aft
$LN3@Insert_Aft:

; 280  : 		if (cur != NULL  && cur->Data() == oldnode)

	cmp	DWORD PTR _cur$[ebp], 0
	je	$LN2@Insert_Aft
	mov	ecx, DWORD PTR _cur$[ebp]
	call	?Data@?$SLNode@VBeaconGameObj@@@@QBEPAVBeaconGameObj@@XZ ; SLNode<BeaconGameObj>::Data
	cmp	eax, DWORD PTR _oldnode$[ebp]
	jne	$LN2@Insert_Aft

; 281  : 		{
; 282  : 			if (cur == TailNode)

	mov	eax, DWORD PTR _this$[ebp]
	mov	ecx, DWORD PTR _cur$[ebp]
	cmp	ecx, DWORD PTR [eax+8]
	jne	SHORT $LN1@Insert_Aft

; 283  : 			{
; 284  : 				return(Add_Tail(newnode));

	mov	eax, DWORD PTR _newnode$[ebp]
	push	eax
	mov	ecx, DWORD PTR _this$[ebp]
	mov	edx, DWORD PTR [ecx]
	mov	ecx, DWORD PTR _this$[ebp]
	mov	eax, DWORD PTR [edx+16]
	call	eax
	jmp	$LN9@Insert_Aft
$LN1@Insert_Aft:

; 285  : 			}
; 286  : 			SLNode<T> *temp = new SLNode<T>(newnode);

	push	OFFSET ??_C@_0CJ@ONPDGEFB@SList?$DMclass?5BeaconGameObj?$DO?3?3Inse@
	push	286					; 0000011eH
	push	OFFSET ??_C@_0DB@DFBFLIIO@x?3?2github?2renegade?2dragonade_rxd@
	call	?SetThreadTrackingInformation@@YAXPBDI0@Z ; SetThreadTrackingInformation
	add	esp, 12					; 0000000cH
	xor	eax, eax
	je	SHORT $LN14@Insert_Aft
	xor	ecx, ecx
	jne	SHORT $LN11@Insert_Aft
	push	286					; 0000011eH
	push	OFFSET ??_C@_1GC@LJHGOLFN@?$AAx?$AA?3?$AA?2?$AAg?$AAi?$AAt?$AAh?$AAu?$AAb?$AA?2?$AAr?$AAe?$AAn?$AAe?$AAg?$AAa?$AAd?$AAe?$AA?2?$AAd?$AAr?$AAa?$AAg?$AAo?$AAn?$AAa?$AAd?$AAe?$AA_?$AAr?$AAx?$AAd@
	push	OFFSET ??_C@_1M@HLGKFCJM@?$AAf?$AAa?$AAl?$AAs?$AAe?$AA?$AA@
	call	DWORD PTR __imp___wassert
	add	esp, 12					; 0000000cH
$LN11@Insert_Aft:
	mov	DWORD PTR tv142[ebp], 0
	jmp	SHORT $LN15@Insert_Aft
$LN14@Insert_Aft:
	push	0
	push	0
	push	0
	push	8
	call	??2?$AutoPoolClass@VGenericSLNode@@$0BAA@@@SAPAXIPBDI0@Z ; AutoPoolClass<GenericSLNode,256>::operator new
	add	esp, 16					; 00000010H
	mov	DWORD PTR $T1[ebp], eax
	cmp	DWORD PTR $T1[ebp], 0
	je	SHORT $LN12@Insert_Aft
	mov	eax, DWORD PTR _newnode$[ebp]
	push	eax
	mov	ecx, DWORD PTR $T1[ebp]
	call	??0?$SLNode@VBeaconGameObj@@@@IAE@PAVBeaconGameObj@@@Z ; SLNode<BeaconGameObj>::SLNode<BeaconGameObj>
	mov	DWORD PTR tv140[ebp], eax
	jmp	SHORT $LN13@Insert_Aft
$LN12@Insert_Aft:
	mov	DWORD PTR tv140[ebp], 0
$LN13@Insert_Aft:
	mov	ecx, DWORD PTR tv140[ebp]
	mov	DWORD PTR tv142[ebp], ecx
$LN15@Insert_Aft:
	mov	edx, DWORD PTR tv142[ebp]
	mov	DWORD PTR _temp$2[ebp], edx

; 287  : 			temp->Set_Next(cur->Next());

	mov	ecx, DWORD PTR _cur$[ebp]
	call	?Next@?$SLNode@VBeaconGameObj@@@@QBEPAV1@XZ ; SLNode<BeaconGameObj>::Next
	push	eax
	mov	ecx, DWORD PTR _temp$2[ebp]
	call	?Set_Next@?$SLNode@VBeaconGameObj@@@@QAEXPAV1@@Z ; SLNode<BeaconGameObj>::Set_Next

; 288  : 			cur->Set_Next(temp);

	mov	eax, DWORD PTR _temp$2[ebp]
	push	eax
	mov	ecx, DWORD PTR _cur$[ebp]
	call	?Set_Next@?$SLNode@VBeaconGameObj@@@@QAEXPAV1@@Z ; SLNode<BeaconGameObj>::Set_Next

; 289  : 			return true;

	mov	al, 1
	jmp	SHORT $LN9@Insert_Aft
$LN2@Insert_Aft:

; 290  : 		}
; 291  : 		return false;

	xor	al, al
$LN9@Insert_Aft:

; 292  : 	}

	pop	edi
	pop	esi
	pop	ebx
	mov	esp, ebp
	pop	ebp
	ret	8
?Insert_After@?$SList@VBeaconGameObj@@@@UAE_NPAVBeaconGameObj@@PBV2@@Z ENDP ; SList<BeaconGameObj>::Insert_After
_TEXT	ENDS
; Function compile flags: /Odtp /ZI
; File x:\github\renegade\dragonade_rxd\scripts\slist.h
;	COMDAT ?Insert_Before@?$SList@VBeaconGameObj@@@@UAE_NPAVBeaconGameObj@@PBV2@@Z
_TEXT	SEGMENT
tv145 = -88						; size = 4
tv147 = -84						; size = 4
$T1 = -80						; size = 4
_temp$2 = -12						; size = 4
_cur$ = -8						; size = 4
_this$ = -4						; size = 4
_newnode$ = 8						; size = 4
_oldnode$ = 12						; size = 4
?Insert_Before@?$SList@VBeaconGameObj@@@@UAE_NPAVBeaconGameObj@@PBV2@@Z PROC ; SList<BeaconGameObj>::Insert_Before, COMDAT
; _this$ = ecx

; 243  : 	{

	push	ebp
	mov	ebp, esp
	sub	esp, 88					; 00000058H
	push	ebx
	push	esi
	push	edi
	mov	DWORD PTR _this$[ebp], ecx

; 244  : 		if (newnode == NULL)

	cmp	DWORD PTR _newnode$[ebp], 0
	jne	SHORT $LN7@Insert_Bef

; 245  : 		{
; 246  : 			return false;

	xor	al, al
	jmp	$LN8@Insert_Bef
$LN7@Insert_Bef:

; 247  : 		}
; 248  : 		if (oldnode == NULL || HeadNode == NULL || HeadNode->Data() == oldnode)

	cmp	DWORD PTR _oldnode$[ebp], 0
	je	SHORT $LN5@Insert_Bef
	mov	eax, DWORD PTR _this$[ebp]
	cmp	DWORD PTR [eax+4], 0
	je	SHORT $LN5@Insert_Bef
	mov	eax, DWORD PTR _this$[ebp]
	mov	ecx, DWORD PTR [eax+4]
	call	?Data@?$SLNode@VBeaconGameObj@@@@QBEPAVBeaconGameObj@@XZ ; SLNode<BeaconGameObj>::Data
	cmp	eax, DWORD PTR _oldnode$[ebp]
	jne	SHORT $LN6@Insert_Bef
$LN5@Insert_Bef:

; 249  : 		{
; 250  : 			return Add_Head(newnode);

	mov	eax, DWORD PTR _newnode$[ebp]
	push	eax
	mov	ecx, DWORD PTR _this$[ebp]
	mov	edx, DWORD PTR [ecx]
	mov	ecx, DWORD PTR _this$[ebp]
	mov	eax, DWORD PTR [edx+8]
	call	eax
	jmp	$LN8@Insert_Bef
$LN6@Insert_Bef:

; 251  : 		}
; 252  : 		SLNode<T> *cur;
; 253  : 		for (cur=HeadNode; cur->Next() && cur->Next()->Data() != oldnode; cur=cur->Next())

	mov	eax, DWORD PTR _this$[ebp]
	mov	ecx, DWORD PTR [eax+4]
	mov	DWORD PTR _cur$[ebp], ecx
	jmp	SHORT $LN4@Insert_Bef
$LN3@Insert_Bef:
	mov	ecx, DWORD PTR _cur$[ebp]
	call	?Next@?$SLNode@VBeaconGameObj@@@@QBEPAV1@XZ ; SLNode<BeaconGameObj>::Next
	mov	DWORD PTR _cur$[ebp], eax
$LN4@Insert_Bef:
	mov	ecx, DWORD PTR _cur$[ebp]
	call	?Next@?$SLNode@VBeaconGameObj@@@@QBEPAV1@XZ ; SLNode<BeaconGameObj>::Next
	test	eax, eax
	je	SHORT $LN2@Insert_Bef
	mov	ecx, DWORD PTR _cur$[ebp]
	call	?Next@?$SLNode@VBeaconGameObj@@@@QBEPAV1@XZ ; SLNode<BeaconGameObj>::Next
	mov	ecx, eax
	call	?Data@?$SLNode@VBeaconGameObj@@@@QBEPAVBeaconGameObj@@XZ ; SLNode<BeaconGameObj>::Data
	cmp	eax, DWORD PTR _oldnode$[ebp]
	je	SHORT $LN2@Insert_Bef

; 254  : 		{
; 255  : 		}

	jmp	SHORT $LN3@Insert_Bef
$LN2@Insert_Bef:

; 256  : 		if (cur->Next() != NULL && cur->Next()->Data() == oldnode)

	mov	ecx, DWORD PTR _cur$[ebp]
	call	?Next@?$SLNode@VBeaconGameObj@@@@QBEPAV1@XZ ; SLNode<BeaconGameObj>::Next
	test	eax, eax
	je	$LN1@Insert_Bef
	mov	ecx, DWORD PTR _cur$[ebp]
	call	?Next@?$SLNode@VBeaconGameObj@@@@QBEPAV1@XZ ; SLNode<BeaconGameObj>::Next
	mov	ecx, eax
	call	?Data@?$SLNode@VBeaconGameObj@@@@QBEPAVBeaconGameObj@@XZ ; SLNode<BeaconGameObj>::Data
	cmp	eax, DWORD PTR _oldnode$[ebp]
	jne	$LN1@Insert_Bef

; 257  : 		{
; 258  : 			SLNode<T> *temp	= new SLNode<T> (newnode);

	push	OFFSET ??_C@_0CK@MGOKEBFB@SList?$DMclass?5BeaconGameObj?$DO?3?3Inse@
	push	258					; 00000102H
	push	OFFSET ??_C@_0DB@DFBFLIIO@x?3?2github?2renegade?2dragonade_rxd@
	call	?SetThreadTrackingInformation@@YAXPBDI0@Z ; SetThreadTrackingInformation
	add	esp, 12					; 0000000cH
	xor	eax, eax
	je	SHORT $LN13@Insert_Bef
	xor	ecx, ecx
	jne	SHORT $LN10@Insert_Bef
	push	258					; 00000102H
	push	OFFSET ??_C@_1GC@LJHGOLFN@?$AAx?$AA?3?$AA?2?$AAg?$AAi?$AAt?$AAh?$AAu?$AAb?$AA?2?$AAr?$AAe?$AAn?$AAe?$AAg?$AAa?$AAd?$AAe?$AA?2?$AAd?$AAr?$AAa?$AAg?$AAo?$AAn?$AAa?$AAd?$AAe?$AA_?$AAr?$AAx?$AAd@
	push	OFFSET ??_C@_1M@HLGKFCJM@?$AAf?$AAa?$AAl?$AAs?$AAe?$AA?$AA@
	call	DWORD PTR __imp___wassert
	add	esp, 12					; 0000000cH
$LN10@Insert_Bef:
	mov	DWORD PTR tv147[ebp], 0
	jmp	SHORT $LN14@Insert_Bef
$LN13@Insert_Bef:
	push	0
	push	0
	push	0
	push	8
	call	??2?$AutoPoolClass@VGenericSLNode@@$0BAA@@@SAPAXIPBDI0@Z ; AutoPoolClass<GenericSLNode,256>::operator new
	add	esp, 16					; 00000010H
	mov	DWORD PTR $T1[ebp], eax
	cmp	DWORD PTR $T1[ebp], 0
	je	SHORT $LN11@Insert_Bef
	mov	eax, DWORD PTR _newnode$[ebp]
	push	eax
	mov	ecx, DWORD PTR $T1[ebp]
	call	??0?$SLNode@VBeaconGameObj@@@@IAE@PAVBeaconGameObj@@@Z ; SLNode<BeaconGameObj>::SLNode<BeaconGameObj>
	mov	DWORD PTR tv145[ebp], eax
	jmp	SHORT $LN12@Insert_Bef
$LN11@Insert_Bef:
	mov	DWORD PTR tv145[ebp], 0
$LN12@Insert_Bef:
	mov	ecx, DWORD PTR tv145[ebp]
	mov	DWORD PTR tv147[ebp], ecx
$LN14@Insert_Bef:
	mov	edx, DWORD PTR tv147[ebp]
	mov	DWORD PTR _temp$2[ebp], edx

; 259  : 			temp->Set_Next(cur->Next());

	mov	ecx, DWORD PTR _cur$[ebp]
	call	?Next@?$SLNode@VBeaconGameObj@@@@QBEPAV1@XZ ; SLNode<BeaconGameObj>::Next
	push	eax
	mov	ecx, DWORD PTR _temp$2[ebp]
	call	?Set_Next@?$SLNode@VBeaconGameObj@@@@QAEXPAV1@@Z ; SLNode<BeaconGameObj>::Set_Next

; 260  : 			cur->Set_Next(temp);

	mov	eax, DWORD PTR _temp$2[ebp]
	push	eax
	mov	ecx, DWORD PTR _cur$[ebp]
	call	?Set_Next@?$SLNode@VBeaconGameObj@@@@QAEXPAV1@@Z ; SLNode<BeaconGameObj>::Set_Next

; 261  : 			return true;

	mov	al, 1
	jmp	SHORT $LN8@Insert_Bef
$LN1@Insert_Bef:

; 262  : 		}
; 263  : 		return false;

	xor	al, al
$LN8@Insert_Bef:

; 264  : 	}

	pop	edi
	pop	esi
	pop	ebx
	mov	esp, ebp
	pop	ebp
	ret	8
?Insert_Before@?$SList@VBeaconGameObj@@@@UAE_NPAVBeaconGameObj@@PBV2@@Z ENDP ; SList<BeaconGameObj>::Insert_Before
_TEXT	ENDS
; Function compile flags: /Odtp /ZI
; File x:\github\renegade\dragonade_rxd\scripts\slist.h
;	COMDAT ?Remove_All@?$SList@VBeaconGameObj@@@@UAEXXZ
_TEXT	SEGMENT
$T1 = -80						; size = 4
_cur$2 = -12						; size = 4
_next$ = -8						; size = 4
_this$ = -4						; size = 4
?Remove_All@?$SList@VBeaconGameObj@@@@UAEXXZ PROC	; SList<BeaconGameObj>::Remove_All, COMDAT
; _this$ = ecx

; 231  : 	{

	push	ebp
	mov	ebp, esp
	sub	esp, 80					; 00000050H
	push	ebx
	push	esi
	push	edi
	mov	DWORD PTR _this$[ebp], ecx

; 232  : 		SLNode<T> *next;
; 233  : 		for (SLNode<T> *cur = HeadNode; cur; cur = next)

	mov	eax, DWORD PTR _this$[ebp]
	mov	ecx, DWORD PTR [eax+4]
	mov	DWORD PTR _cur$2[ebp], ecx
	jmp	SHORT $LN3@Remove_All
$LN2@Remove_All:
	mov	eax, DWORD PTR _next$[ebp]
	mov	DWORD PTR _cur$2[ebp], eax
$LN3@Remove_All:
	cmp	DWORD PTR _cur$2[ebp], 0
	je	SHORT $LN1@Remove_All

; 234  : 		{
; 235  : 			next = cur->Next();

	mov	ecx, DWORD PTR _cur$2[ebp]
	call	?Next@?$SLNode@VBeaconGameObj@@@@QBEPAV1@XZ ; SLNode<BeaconGameObj>::Next
	mov	DWORD PTR _next$[ebp], eax

; 236  : 			delete cur;

	push	OFFSET ??_C@_0CH@ONMBIHHB@SList?$DMclass?5BeaconGameObj?$DO?3?3Remo@
	push	236					; 000000ecH
	push	OFFSET ??_C@_0DB@DFBFLIIO@x?3?2github?2renegade?2dragonade_rxd@
	call	?SetThreadTrackingInformation@@YAXPBDI0@Z ; SetThreadTrackingInformation
	add	esp, 12					; 0000000cH
	xor	eax, eax
	je	SHORT $LN7@Remove_All
	xor	ecx, ecx
	jne	SHORT $LN6@Remove_All
	push	236					; 000000ecH
	push	OFFSET ??_C@_1GC@LJHGOLFN@?$AAx?$AA?3?$AA?2?$AAg?$AAi?$AAt?$AAh?$AAu?$AAb?$AA?2?$AAr?$AAe?$AAn?$AAe?$AAg?$AAa?$AAd?$AAe?$AA?2?$AAd?$AAr?$AAa?$AAg?$AAo?$AAn?$AAa?$AAd?$AAe?$AA_?$AAr?$AAx?$AAd@
	push	OFFSET ??_C@_1M@HLGKFCJM@?$AAf?$AAa?$AAl?$AAs?$AAe?$AA?$AA@
	call	DWORD PTR __imp___wassert
	add	esp, 12					; 0000000cH
$LN6@Remove_All:
	jmp	SHORT $LN8@Remove_All
$LN7@Remove_All:
	mov	eax, DWORD PTR _cur$2[ebp]
	mov	DWORD PTR $T1[ebp], eax
	mov	ecx, DWORD PTR $T1[ebp]
	push	ecx
	call	??3?$AutoPoolClass@VGenericSLNode@@$0BAA@@@SAXPAX@Z ; AutoPoolClass<GenericSLNode,256>::operator delete
	add	esp, 4
$LN8@Remove_All:

; 237  : 		}

	jmp	SHORT $LN2@Remove_All
$LN1@Remove_All:

; 238  : 		HeadNode = TailNode = NULL;

	mov	eax, DWORD PTR _this$[ebp]
	mov	DWORD PTR [eax+8], 0
	mov	ecx, DWORD PTR _this$[ebp]
	mov	DWORD PTR [ecx+4], 0

; 239  : 	}

	pop	edi
	pop	esi
	pop	ebx
	mov	esp, ebp
	pop	ebp
	ret	0
?Remove_All@?$SList@VBeaconGameObj@@@@UAEXXZ ENDP	; SList<BeaconGameObj>::Remove_All
_TEXT	ENDS
; Function compile flags: /Odtp /ZI
; File x:\github\renegade\dragonade_rxd\scripts\slist.h
;	COMDAT ?Remove@?$SList@VBeaconGameObj@@@@UAE_NPBVBeaconGameObj@@@Z
_TEXT	SEGMENT
tv76 = -81						; size = 1
$T1 = -80						; size = 4
_temp$2 = -12						; size = 4
_cur$ = -8						; size = 4
_this$ = -4						; size = 4
_element$ = 8						; size = 4
?Remove@?$SList@VBeaconGameObj@@@@UAE_NPBVBeaconGameObj@@@Z PROC ; SList<BeaconGameObj>::Remove, COMDAT
; _this$ = ecx

; 202  : 	{

	push	ebp
	mov	ebp, esp
	sub	esp, 84					; 00000054H
	push	ebx
	push	esi
	push	edi
	mov	DWORD PTR _this$[ebp], ecx

; 203  : 		if (element == NULL || HeadNode == NULL)

	cmp	DWORD PTR _element$[ebp], 0
	je	SHORT $LN7@Remove
	mov	eax, DWORD PTR _this$[ebp]
	cmp	DWORD PTR [eax+4], 0
	jne	SHORT $LN8@Remove
$LN7@Remove:

; 204  : 		{
; 205  : 			return false;

	xor	al, al
	jmp	$LN9@Remove
$LN8@Remove:

; 206  : 		}
; 207  : 		if (HeadNode->Data() == element)

	mov	eax, DWORD PTR _this$[ebp]
	mov	ecx, DWORD PTR [eax+4]
	call	?Data@?$SLNode@VBeaconGameObj@@@@QBEPAVBeaconGameObj@@XZ ; SLNode<BeaconGameObj>::Data
	cmp	eax, DWORD PTR _element$[ebp]
	jne	SHORT $LN6@Remove

; 208  : 		{
; 209  : 			return Remove_Head() != NULL ? true : false;

	mov	eax, DWORD PTR _this$[ebp]
	mov	edx, DWORD PTR [eax]
	mov	ecx, DWORD PTR _this$[ebp]
	mov	eax, DWORD PTR [edx+20]
	call	eax
	test	eax, eax
	je	SHORT $LN11@Remove
	mov	BYTE PTR tv76[ebp], 1
	jmp	SHORT $LN12@Remove
$LN11@Remove:
	mov	BYTE PTR tv76[ebp], 0
$LN12@Remove:
	mov	al, BYTE PTR tv76[ebp]
	jmp	$LN9@Remove
$LN6@Remove:

; 210  : 		}
; 211  : 		SLNode<T> *cur;
; 212  : 		for (cur = HeadNode; cur->Next() && cur->Next()->Data() != element; cur=cur->Next())

	mov	eax, DWORD PTR _this$[ebp]
	mov	ecx, DWORD PTR [eax+4]
	mov	DWORD PTR _cur$[ebp], ecx
	jmp	SHORT $LN5@Remove
$LN4@Remove:
	mov	ecx, DWORD PTR _cur$[ebp]
	call	?Next@?$SLNode@VBeaconGameObj@@@@QBEPAV1@XZ ; SLNode<BeaconGameObj>::Next
	mov	DWORD PTR _cur$[ebp], eax
$LN5@Remove:
	mov	ecx, DWORD PTR _cur$[ebp]
	call	?Next@?$SLNode@VBeaconGameObj@@@@QBEPAV1@XZ ; SLNode<BeaconGameObj>::Next
	test	eax, eax
	je	SHORT $LN3@Remove
	mov	ecx, DWORD PTR _cur$[ebp]
	call	?Next@?$SLNode@VBeaconGameObj@@@@QBEPAV1@XZ ; SLNode<BeaconGameObj>::Next
	mov	ecx, eax
	call	?Data@?$SLNode@VBeaconGameObj@@@@QBEPAVBeaconGameObj@@XZ ; SLNode<BeaconGameObj>::Data
	cmp	eax, DWORD PTR _element$[ebp]
	je	SHORT $LN3@Remove

; 213  : 		{
; 214  : 		}

	jmp	SHORT $LN4@Remove
$LN3@Remove:

; 215  : 		if (cur->Next() != NULL && cur->Next()->Data() == element)

	mov	ecx, DWORD PTR _cur$[ebp]
	call	?Next@?$SLNode@VBeaconGameObj@@@@QBEPAV1@XZ ; SLNode<BeaconGameObj>::Next
	test	eax, eax
	je	$LN2@Remove
	mov	ecx, DWORD PTR _cur$[ebp]
	call	?Next@?$SLNode@VBeaconGameObj@@@@QBEPAV1@XZ ; SLNode<BeaconGameObj>::Next
	mov	ecx, eax
	call	?Data@?$SLNode@VBeaconGameObj@@@@QBEPAVBeaconGameObj@@XZ ; SLNode<BeaconGameObj>::Data
	cmp	eax, DWORD PTR _element$[ebp]
	jne	SHORT $LN2@Remove

; 216  : 		{
; 217  : 			SLNode<T> *temp	= cur->Next();

	mov	ecx, DWORD PTR _cur$[ebp]
	call	?Next@?$SLNode@VBeaconGameObj@@@@QBEPAV1@XZ ; SLNode<BeaconGameObj>::Next
	mov	DWORD PTR _temp$2[ebp], eax

; 218  : 			cur->Set_Next(temp->Next());

	mov	ecx, DWORD PTR _temp$2[ebp]
	call	?Next@?$SLNode@VBeaconGameObj@@@@QBEPAV1@XZ ; SLNode<BeaconGameObj>::Next
	push	eax
	mov	ecx, DWORD PTR _cur$[ebp]
	call	?Set_Next@?$SLNode@VBeaconGameObj@@@@QAEXPAV1@@Z ; SLNode<BeaconGameObj>::Set_Next

; 219  : 			if (temp == TailNode)

	mov	eax, DWORD PTR _this$[ebp]
	mov	ecx, DWORD PTR _temp$2[ebp]
	cmp	ecx, DWORD PTR [eax+8]
	jne	SHORT $LN1@Remove

; 220  : 			{
; 221  : 				TailNode = cur;

	mov	eax, DWORD PTR _this$[ebp]
	mov	ecx, DWORD PTR _cur$[ebp]
	mov	DWORD PTR [eax+8], ecx
$LN1@Remove:

; 222  : 			}
; 223  : 			delete temp;

	push	OFFSET ??_C@_0CD@PKKEIDKI@SList?$DMclass?5BeaconGameObj?$DO?3?3Remo@
	push	223					; 000000dfH
	push	OFFSET ??_C@_0DB@DFBFLIIO@x?3?2github?2renegade?2dragonade_rxd@
	call	?SetThreadTrackingInformation@@YAXPBDI0@Z ; SetThreadTrackingInformation
	add	esp, 12					; 0000000cH
	xor	eax, eax
	je	SHORT $LN14@Remove
	xor	ecx, ecx
	jne	SHORT $LN13@Remove
	push	223					; 000000dfH
	push	OFFSET ??_C@_1GC@LJHGOLFN@?$AAx?$AA?3?$AA?2?$AAg?$AAi?$AAt?$AAh?$AAu?$AAb?$AA?2?$AAr?$AAe?$AAn?$AAe?$AAg?$AAa?$AAd?$AAe?$AA?2?$AAd?$AAr?$AAa?$AAg?$AAo?$AAn?$AAa?$AAd?$AAe?$AA_?$AAr?$AAx?$AAd@
	push	OFFSET ??_C@_1M@HLGKFCJM@?$AAf?$AAa?$AAl?$AAs?$AAe?$AA?$AA@
	call	DWORD PTR __imp___wassert
	add	esp, 12					; 0000000cH
$LN13@Remove:
	jmp	SHORT $LN15@Remove
$LN14@Remove:
	mov	eax, DWORD PTR _temp$2[ebp]
	mov	DWORD PTR $T1[ebp], eax
	mov	ecx, DWORD PTR $T1[ebp]
	push	ecx
	call	??3?$AutoPoolClass@VGenericSLNode@@$0BAA@@@SAXPAX@Z ; AutoPoolClass<GenericSLNode,256>::operator delete
	add	esp, 4
$LN15@Remove:

; 224  : 			return true;

	mov	al, 1
	jmp	SHORT $LN9@Remove
$LN2@Remove:

; 225  : 		}
; 226  : 		return false;

	xor	al, al
$LN9@Remove:

; 227  : 	}

	pop	edi
	pop	esi
	pop	ebx
	mov	esp, ebp
	pop	ebp
	ret	4
?Remove@?$SList@VBeaconGameObj@@@@UAE_NPBVBeaconGameObj@@@Z ENDP ; SList<BeaconGameObj>::Remove
_TEXT	ENDS
; Function compile flags: /Odtp /ZI
; File x:\github\renegade\dragonade_rxd\scripts\slist.h
;	COMDAT ?Remove_Tail@?$SList@VBeaconGameObj@@@@UAEPAVBeaconGameObj@@XZ
_TEXT	SEGMENT
tv76 = -76						; size = 4
_data$ = -8						; size = 4
_this$ = -4						; size = 4
?Remove_Tail@?$SList@VBeaconGameObj@@@@UAEPAVBeaconGameObj@@XZ PROC ; SList<BeaconGameObj>::Remove_Tail, COMDAT
; _this$ = ecx

; 191  : 	{

	push	ebp
	mov	ebp, esp
	sub	esp, 76					; 0000004cH
	push	ebx
	push	esi
	push	edi
	mov	DWORD PTR _this$[ebp], ecx

; 192  : 		if (HeadNode == NULL)

	mov	eax, DWORD PTR _this$[ebp]
	cmp	DWORD PTR [eax+4], 0
	jne	SHORT $LN1@Remove_Tai

; 193  : 		{
; 194  : 			return ((T *)NULL);

	xor	eax, eax
	jmp	SHORT $LN2@Remove_Tai
$LN1@Remove_Tai:

; 195  : 		}
; 196  : 		T* data = TailNode->Data();

	mov	eax, DWORD PTR _this$[ebp]
	mov	ecx, DWORD PTR [eax+8]
	call	?Data@?$SLNode@VBeaconGameObj@@@@QBEPAVBeaconGameObj@@XZ ; SLNode<BeaconGameObj>::Data
	mov	DWORD PTR _data$[ebp], eax

; 197  : 		return (Remove(data) ? data : (T*)NULL);

	mov	eax, DWORD PTR _data$[ebp]
	push	eax
	mov	ecx, DWORD PTR _this$[ebp]
	mov	edx, DWORD PTR [ecx]
	mov	ecx, DWORD PTR _this$[ebp]
	mov	eax, DWORD PTR [edx+28]
	call	eax
	movzx	ecx, al
	test	ecx, ecx
	je	SHORT $LN4@Remove_Tai
	mov	edx, DWORD PTR _data$[ebp]
	mov	DWORD PTR tv76[ebp], edx
	jmp	SHORT $LN5@Remove_Tai
$LN4@Remove_Tai:
	mov	DWORD PTR tv76[ebp], 0
$LN5@Remove_Tai:
	mov	eax, DWORD PTR tv76[ebp]
$LN2@Remove_Tai:

; 198  : 	}

	pop	edi
	pop	esi
	pop	ebx
	mov	esp, ebp
	pop	ebp
	ret	0
?Remove_Tail@?$SList@VBeaconGameObj@@@@UAEPAVBeaconGameObj@@XZ ENDP ; SList<BeaconGameObj>::Remove_Tail
_TEXT	ENDS
; Function compile flags: /Odtp /ZI
; File x:\github\renegade\dragonade_rxd\scripts\slist.h
;	COMDAT ?Remove_Head@?$SList@VBeaconGameObj@@@@UAEPAVBeaconGameObj@@XZ
_TEXT	SEGMENT
$T1 = -80						; size = 4
_data$ = -12						; size = 4
_temp$ = -8						; size = 4
_this$ = -4						; size = 4
?Remove_Head@?$SList@VBeaconGameObj@@@@UAEPAVBeaconGameObj@@XZ PROC ; SList<BeaconGameObj>::Remove_Head, COMDAT
; _this$ = ecx

; 173  : 	{

	push	ebp
	mov	ebp, esp
	sub	esp, 80					; 00000050H
	push	ebx
	push	esi
	push	edi
	mov	DWORD PTR _this$[ebp], ecx

; 174  : 		if (HeadNode == NULL)

	mov	eax, DWORD PTR _this$[ebp]
	cmp	DWORD PTR [eax+4], 0
	jne	SHORT $LN2@Remove_Hea

; 175  : 		{
; 176  : 			return ((T* )NULL);

	xor	eax, eax
	jmp	$LN3@Remove_Hea
$LN2@Remove_Hea:

; 177  : 		}
; 178  : 		SLNode<T> *temp = HeadNode;

	mov	eax, DWORD PTR _this$[ebp]
	mov	ecx, DWORD PTR [eax+4]
	mov	DWORD PTR _temp$[ebp], ecx

; 179  : 		HeadNode = HeadNode->Next();

	mov	eax, DWORD PTR _this$[ebp]
	mov	ecx, DWORD PTR [eax+4]
	call	?Next@?$SLNode@VBeaconGameObj@@@@QBEPAV1@XZ ; SLNode<BeaconGameObj>::Next
	mov	ecx, DWORD PTR _this$[ebp]
	mov	DWORD PTR [ecx+4], eax

; 180  : 		if (HeadNode == NULL)

	mov	eax, DWORD PTR _this$[ebp]
	cmp	DWORD PTR [eax+4], 0
	jne	SHORT $LN1@Remove_Hea

; 181  : 		{
; 182  : 			TailNode = NULL;

	mov	eax, DWORD PTR _this$[ebp]
	mov	DWORD PTR [eax+8], 0
$LN1@Remove_Hea:

; 183  : 		}
; 184  : 		T *data = temp->Data();

	mov	ecx, DWORD PTR _temp$[ebp]
	call	?Data@?$SLNode@VBeaconGameObj@@@@QBEPAVBeaconGameObj@@XZ ; SLNode<BeaconGameObj>::Data
	mov	DWORD PTR _data$[ebp], eax

; 185  : 		delete temp;

	push	OFFSET ??_C@_0CI@FOLOJACG@SList?$DMclass?5BeaconGameObj?$DO?3?3Remo@
	push	185					; 000000b9H
	push	OFFSET ??_C@_0DB@DFBFLIIO@x?3?2github?2renegade?2dragonade_rxd@
	call	?SetThreadTrackingInformation@@YAXPBDI0@Z ; SetThreadTrackingInformation
	add	esp, 12					; 0000000cH
	xor	eax, eax
	je	SHORT $LN6@Remove_Hea
	xor	ecx, ecx
	jne	SHORT $LN5@Remove_Hea
	push	185					; 000000b9H
	push	OFFSET ??_C@_1GC@LJHGOLFN@?$AAx?$AA?3?$AA?2?$AAg?$AAi?$AAt?$AAh?$AAu?$AAb?$AA?2?$AAr?$AAe?$AAn?$AAe?$AAg?$AAa?$AAd?$AAe?$AA?2?$AAd?$AAr?$AAa?$AAg?$AAo?$AAn?$AAa?$AAd?$AAe?$AA_?$AAr?$AAx?$AAd@
	push	OFFSET ??_C@_1M@HLGKFCJM@?$AAf?$AAa?$AAl?$AAs?$AAe?$AA?$AA@
	call	DWORD PTR __imp___wassert
	add	esp, 12					; 0000000cH
$LN5@Remove_Hea:
	jmp	SHORT $LN7@Remove_Hea
$LN6@Remove_Hea:
	mov	eax, DWORD PTR _temp$[ebp]
	mov	DWORD PTR $T1[ebp], eax
	mov	ecx, DWORD PTR $T1[ebp]
	push	ecx
	call	??3?$AutoPoolClass@VGenericSLNode@@$0BAA@@@SAXPAX@Z ; AutoPoolClass<GenericSLNode,256>::operator delete
	add	esp, 4
$LN7@Remove_Hea:

; 186  : 		return data;

	mov	eax, DWORD PTR _data$[ebp]
$LN3@Remove_Hea:

; 187  : 	}

	pop	edi
	pop	esi
	pop	ebx
	mov	esp, ebp
	pop	ebp
	ret	0
?Remove_Head@?$SList@VBeaconGameObj@@@@UAEPAVBeaconGameObj@@XZ ENDP ; SList<BeaconGameObj>::Remove_Head
_TEXT	ENDS
; Function compile flags: /Odtp /ZI
; File x:\github\renegade\dragonade_rxd\scripts\slist.h
;	COMDAT ?Add_Tail@?$SList@VBeaconGameObj@@@@UAE_NAAV1@@Z
_TEXT	SEGMENT
_cur$1 = -8						; size = 4
_this$ = -4						; size = 4
_list$ = 8						; size = 4
?Add_Tail@?$SList@VBeaconGameObj@@@@UAE_NAAV1@@Z PROC	; SList<BeaconGameObj>::Add_Tail, COMDAT
; _this$ = ecx

; 159  : 	{

	push	ebp
	mov	ebp, esp
	sub	esp, 72					; 00000048H
	push	ebx
	push	esi
	push	edi
	mov	DWORD PTR _this$[ebp], ecx

; 160  : 		if (list.HeadNode == NULL)

	mov	eax, DWORD PTR _list$[ebp]
	cmp	DWORD PTR [eax+4], 0
	jne	SHORT $LN4@Add_Tail

; 161  : 		{
; 162  : 			return false;

	xor	al, al
	jmp	SHORT $LN5@Add_Tail
$LN4@Add_Tail:

; 163  : 		}
; 164  : 		for (SLNode<T> *cur = list.HeadNode; cur; cur = cur->Next()) 

	mov	eax, DWORD PTR _list$[ebp]
	mov	ecx, DWORD PTR [eax+4]
	mov	DWORD PTR _cur$1[ebp], ecx
	jmp	SHORT $LN3@Add_Tail
$LN2@Add_Tail:
	mov	ecx, DWORD PTR _cur$1[ebp]
	call	?Next@?$SLNode@VBeaconGameObj@@@@QBEPAV1@XZ ; SLNode<BeaconGameObj>::Next
	mov	DWORD PTR _cur$1[ebp], eax
$LN3@Add_Tail:
	cmp	DWORD PTR _cur$1[ebp], 0
	je	SHORT $LN1@Add_Tail

; 165  : 		{
; 166  : 			Add_Tail(cur->Data());

	mov	ecx, DWORD PTR _cur$1[ebp]
	call	?Data@?$SLNode@VBeaconGameObj@@@@QBEPAVBeaconGameObj@@XZ ; SLNode<BeaconGameObj>::Data
	push	eax
	mov	eax, DWORD PTR _this$[ebp]
	mov	edx, DWORD PTR [eax]
	mov	ecx, DWORD PTR _this$[ebp]
	mov	eax, DWORD PTR [edx+16]
	call	eax

; 167  : 		}

	jmp	SHORT $LN2@Add_Tail
$LN1@Add_Tail:

; 168  : 		return true;

	mov	al, 1
$LN5@Add_Tail:

; 169  : 	}

	pop	edi
	pop	esi
	pop	ebx
	mov	esp, ebp
	pop	ebp
	ret	4
?Add_Tail@?$SList@VBeaconGameObj@@@@UAE_NAAV1@@Z ENDP	; SList<BeaconGameObj>::Add_Tail
_TEXT	ENDS
; Function compile flags: /Odtp /ZI
; File x:\github\renegade\dragonade_rxd\scripts\slist.h
;	COMDAT ?Add_Tail@?$SList@VBeaconGameObj@@@@UAE_NPAVBeaconGameObj@@@Z
_TEXT	SEGMENT
tv82 = -84						; size = 4
tv84 = -80						; size = 4
$T1 = -76						; size = 4
_temp$ = -8						; size = 4
_this$ = -4						; size = 4
_data$ = 8						; size = 4
?Add_Tail@?$SList@VBeaconGameObj@@@@UAE_NPAVBeaconGameObj@@@Z PROC ; SList<BeaconGameObj>::Add_Tail, COMDAT
; _this$ = ecx

; 139  : 	{

	push	ebp
	mov	ebp, esp
	sub	esp, 84					; 00000054H
	push	ebx
	push	esi
	push	edi
	mov	DWORD PTR _this$[ebp], ecx

; 140  : 		if (data == NULL)

	cmp	DWORD PTR _data$[ebp], 0
	jne	SHORT $LN3@Add_Tail

; 141  : 		{
; 142  : 			return false;

	xor	al, al
	jmp	$LN4@Add_Tail
$LN3@Add_Tail:

; 143  : 		}
; 144  : 		SLNode<T> *temp = new SLNode<T> (data);

	push	OFFSET ??_C@_0CF@GAEHBNLM@SList?$DMclass?5BeaconGameObj?$DO?3?3Add_@
	push	144					; 00000090H
	push	OFFSET ??_C@_0DB@DFBFLIIO@x?3?2github?2renegade?2dragonade_rxd@
	call	?SetThreadTrackingInformation@@YAXPBDI0@Z ; SetThreadTrackingInformation
	add	esp, 12					; 0000000cH
	xor	eax, eax
	je	SHORT $LN9@Add_Tail
	xor	ecx, ecx
	jne	SHORT $LN6@Add_Tail
	push	144					; 00000090H
	push	OFFSET ??_C@_1GC@LJHGOLFN@?$AAx?$AA?3?$AA?2?$AAg?$AAi?$AAt?$AAh?$AAu?$AAb?$AA?2?$AAr?$AAe?$AAn?$AAe?$AAg?$AAa?$AAd?$AAe?$AA?2?$AAd?$AAr?$AAa?$AAg?$AAo?$AAn?$AAa?$AAd?$AAe?$AA_?$AAr?$AAx?$AAd@
	push	OFFSET ??_C@_1M@HLGKFCJM@?$AAf?$AAa?$AAl?$AAs?$AAe?$AA?$AA@
	call	DWORD PTR __imp___wassert
	add	esp, 12					; 0000000cH
$LN6@Add_Tail:
	mov	DWORD PTR tv84[ebp], 0
	jmp	SHORT $LN10@Add_Tail
$LN9@Add_Tail:
	push	0
	push	0
	push	0
	push	8
	call	??2?$AutoPoolClass@VGenericSLNode@@$0BAA@@@SAPAXIPBDI0@Z ; AutoPoolClass<GenericSLNode,256>::operator new
	add	esp, 16					; 00000010H
	mov	DWORD PTR $T1[ebp], eax
	cmp	DWORD PTR $T1[ebp], 0
	je	SHORT $LN7@Add_Tail
	mov	eax, DWORD PTR _data$[ebp]
	push	eax
	mov	ecx, DWORD PTR $T1[ebp]
	call	??0?$SLNode@VBeaconGameObj@@@@IAE@PAVBeaconGameObj@@@Z ; SLNode<BeaconGameObj>::SLNode<BeaconGameObj>
	mov	DWORD PTR tv82[ebp], eax
	jmp	SHORT $LN8@Add_Tail
$LN7@Add_Tail:
	mov	DWORD PTR tv82[ebp], 0
$LN8@Add_Tail:
	mov	ecx, DWORD PTR tv82[ebp]
	mov	DWORD PTR tv84[ebp], ecx
$LN10@Add_Tail:
	mov	edx, DWORD PTR tv84[ebp]
	mov	DWORD PTR _temp$[ebp], edx

; 145  : 		if (HeadNode == NULL)

	mov	eax, DWORD PTR _this$[ebp]
	cmp	DWORD PTR [eax+4], 0
	jne	SHORT $LN2@Add_Tail

; 146  : 		{
; 147  : 			HeadNode = TailNode = temp;

	mov	eax, DWORD PTR _this$[ebp]
	mov	ecx, DWORD PTR _temp$[ebp]
	mov	DWORD PTR [eax+8], ecx
	mov	edx, DWORD PTR _this$[ebp]
	mov	eax, DWORD PTR _temp$[ebp]
	mov	DWORD PTR [edx+4], eax

; 148  : 		}
; 149  : 		else

	jmp	SHORT $LN1@Add_Tail
$LN2@Add_Tail:

; 150  : 		{
; 151  : 			TailNode->Set_Next(temp);

	mov	eax, DWORD PTR _temp$[ebp]
	push	eax
	mov	ecx, DWORD PTR _this$[ebp]
	mov	ecx, DWORD PTR [ecx+8]
	call	?Set_Next@?$SLNode@VBeaconGameObj@@@@QAEXPAV1@@Z ; SLNode<BeaconGameObj>::Set_Next

; 152  : 			TailNode = temp;

	mov	eax, DWORD PTR _this$[ebp]
	mov	ecx, DWORD PTR _temp$[ebp]
	mov	DWORD PTR [eax+8], ecx
$LN1@Add_Tail:

; 153  : 		}
; 154  : 		return true;

	mov	al, 1
$LN4@Add_Tail:

; 155  : 	}

	pop	edi
	pop	esi
	pop	ebx
	mov	esp, ebp
	pop	ebp
	ret	4
?Add_Tail@?$SList@VBeaconGameObj@@@@UAE_NPAVBeaconGameObj@@@Z ENDP ; SList<BeaconGameObj>::Add_Tail
_TEXT	ENDS
; Function compile flags: /Odtp /ZI
; File x:\github\renegade\dragonade_rxd\scripts\slist.h
;	COMDAT ?Add_Head@?$SList@VBeaconGameObj@@@@UAE_NAAV1@@Z
_TEXT	SEGMENT
tv90 = -92						; size = 4
tv92 = -88						; size = 4
$T1 = -84						; size = 4
_temp$2 = -16						; size = 4
_cur$3 = -12						; size = 4
_addpoint$ = -8						; size = 4
_this$ = -4						; size = 4
_list$ = 8						; size = 4
?Add_Head@?$SList@VBeaconGameObj@@@@UAE_NAAV1@@Z PROC	; SList<BeaconGameObj>::Add_Head, COMDAT
; _this$ = ecx

; 113  : 	{

	push	ebp
	mov	ebp, esp
	sub	esp, 92					; 0000005cH
	push	ebx
	push	esi
	push	edi
	mov	DWORD PTR _this$[ebp], ecx

; 114  : 		if (list.HeadNode == NULL)

	mov	eax, DWORD PTR _list$[ebp]
	cmp	DWORD PTR [eax+4], 0
	jne	SHORT $LN6@Add_Head

; 115  : 		{
; 116  : 			return false;

	xor	al, al
	jmp	$LN7@Add_Head
$LN6@Add_Head:

; 117  : 		}
; 118  : 		SLNode<T> *addpoint = NULL;

	mov	DWORD PTR _addpoint$[ebp], 0

; 119  : 		for (SLNode<T> *cur = list.HeadNode; cur; cur = cur->Next())

	mov	eax, DWORD PTR _list$[ebp]
	mov	ecx, DWORD PTR [eax+4]
	mov	DWORD PTR _cur$3[ebp], ecx
	jmp	SHORT $LN5@Add_Head
$LN4@Add_Head:
	mov	ecx, DWORD PTR _cur$3[ebp]
	call	?Next@?$SLNode@VBeaconGameObj@@@@QBEPAV1@XZ ; SLNode<BeaconGameObj>::Next
	mov	DWORD PTR _cur$3[ebp], eax
$LN5@Add_Head:
	cmp	DWORD PTR _cur$3[ebp], 0
	je	$LN3@Add_Head

; 120  : 		{
; 121  : 			if (addpoint)

	cmp	DWORD PTR _addpoint$[ebp], 0
	je	$LN2@Add_Head

; 122  : 			{
; 123  : 				SLNode<T> *temp = new SLNode<T>(cur->Data());

	push	OFFSET ??_C@_0CF@IMPPCLNI@SList?$DMclass?5BeaconGameObj?$DO?3?3Add_@
	push	123					; 0000007bH
	push	OFFSET ??_C@_0DB@DFBFLIIO@x?3?2github?2renegade?2dragonade_rxd@
	call	?SetThreadTrackingInformation@@YAXPBDI0@Z ; SetThreadTrackingInformation
	add	esp, 12					; 0000000cH
	xor	eax, eax
	je	SHORT $LN12@Add_Head
	xor	ecx, ecx
	jne	SHORT $LN9@Add_Head
	push	123					; 0000007bH
	push	OFFSET ??_C@_1GC@LJHGOLFN@?$AAx?$AA?3?$AA?2?$AAg?$AAi?$AAt?$AAh?$AAu?$AAb?$AA?2?$AAr?$AAe?$AAn?$AAe?$AAg?$AAa?$AAd?$AAe?$AA?2?$AAd?$AAr?$AAa?$AAg?$AAo?$AAn?$AAa?$AAd?$AAe?$AA_?$AAr?$AAx?$AAd@
	push	OFFSET ??_C@_1M@HLGKFCJM@?$AAf?$AAa?$AAl?$AAs?$AAe?$AA?$AA@
	call	DWORD PTR __imp___wassert
	add	esp, 12					; 0000000cH
$LN9@Add_Head:
	mov	DWORD PTR tv92[ebp], 0
	jmp	SHORT $LN13@Add_Head
$LN12@Add_Head:
	push	0
	push	0
	push	0
	push	8
	call	??2?$AutoPoolClass@VGenericSLNode@@$0BAA@@@SAPAXIPBDI0@Z ; AutoPoolClass<GenericSLNode,256>::operator new
	add	esp, 16					; 00000010H
	mov	DWORD PTR $T1[ebp], eax
	cmp	DWORD PTR $T1[ebp], 0
	je	SHORT $LN10@Add_Head
	mov	ecx, DWORD PTR _cur$3[ebp]
	call	?Data@?$SLNode@VBeaconGameObj@@@@QBEPAVBeaconGameObj@@XZ ; SLNode<BeaconGameObj>::Data
	push	eax
	mov	ecx, DWORD PTR $T1[ebp]
	call	??0?$SLNode@VBeaconGameObj@@@@IAE@PAVBeaconGameObj@@@Z ; SLNode<BeaconGameObj>::SLNode<BeaconGameObj>
	mov	DWORD PTR tv90[ebp], eax
	jmp	SHORT $LN11@Add_Head
$LN10@Add_Head:
	mov	DWORD PTR tv90[ebp], 0
$LN11@Add_Head:
	mov	eax, DWORD PTR tv90[ebp]
	mov	DWORD PTR tv92[ebp], eax
$LN13@Add_Head:
	mov	ecx, DWORD PTR tv92[ebp]
	mov	DWORD PTR _temp$2[ebp], ecx

; 124  : 				temp->Set_Next(addpoint->Next());

	mov	ecx, DWORD PTR _addpoint$[ebp]
	call	?Next@?$SLNode@VBeaconGameObj@@@@QBEPAV1@XZ ; SLNode<BeaconGameObj>::Next
	push	eax
	mov	ecx, DWORD PTR _temp$2[ebp]
	call	?Set_Next@?$SLNode@VBeaconGameObj@@@@QAEXPAV1@@Z ; SLNode<BeaconGameObj>::Set_Next

; 125  : 				addpoint->Set_Next(temp);

	mov	eax, DWORD PTR _temp$2[ebp]
	push	eax
	mov	ecx, DWORD PTR _addpoint$[ebp]
	call	?Set_Next@?$SLNode@VBeaconGameObj@@@@QAEXPAV1@@Z ; SLNode<BeaconGameObj>::Set_Next

; 126  : 				addpoint = temp;

	mov	eax, DWORD PTR _temp$2[ebp]
	mov	DWORD PTR _addpoint$[ebp], eax

; 127  : 			}
; 128  : 			else

	jmp	SHORT $LN1@Add_Head
$LN2@Add_Head:

; 129  : 			{
; 130  : 				Add_Head(cur->Data());

	mov	ecx, DWORD PTR _cur$3[ebp]
	call	?Data@?$SLNode@VBeaconGameObj@@@@QBEPAVBeaconGameObj@@XZ ; SLNode<BeaconGameObj>::Data
	push	eax
	mov	eax, DWORD PTR _this$[ebp]
	mov	edx, DWORD PTR [eax]
	mov	ecx, DWORD PTR _this$[ebp]
	mov	eax, DWORD PTR [edx+8]
	call	eax

; 131  : 				addpoint = HeadNode;

	mov	eax, DWORD PTR _this$[ebp]
	mov	ecx, DWORD PTR [eax+4]
	mov	DWORD PTR _addpoint$[ebp], ecx
$LN1@Add_Head:

; 132  : 			}
; 133  : 		}

	jmp	$LN4@Add_Head
$LN3@Add_Head:

; 134  : 		return true;

	mov	al, 1
$LN7@Add_Head:

; 135  : 	}

	pop	edi
	pop	esi
	pop	ebx
	mov	esp, ebp
	pop	ebp
	ret	4
?Add_Head@?$SList@VBeaconGameObj@@@@UAE_NAAV1@@Z ENDP	; SList<BeaconGameObj>::Add_Head
_TEXT	ENDS
; Function compile flags: /Odtp /ZI
; File x:\github\renegade\dragonade_rxd\scripts\slist.h
;	COMDAT ?Add_Head@?$SList@VBeaconGameObj@@@@UAE_NPAVBeaconGameObj@@@Z
_TEXT	SEGMENT
tv82 = -84						; size = 4
tv84 = -80						; size = 4
$T1 = -76						; size = 4
_temp$ = -8						; size = 4
_this$ = -4						; size = 4
_data$ = 8						; size = 4
?Add_Head@?$SList@VBeaconGameObj@@@@UAE_NPAVBeaconGameObj@@@Z PROC ; SList<BeaconGameObj>::Add_Head, COMDAT
; _this$ = ecx

; 96   : 	{

	push	ebp
	mov	ebp, esp
	sub	esp, 84					; 00000054H
	push	ebx
	push	esi
	push	edi
	mov	DWORD PTR _this$[ebp], ecx

; 97   : 		if (!data)

	cmp	DWORD PTR _data$[ebp], 0
	jne	SHORT $LN2@Add_Head

; 98   : 		{
; 99   : 			return false;

	xor	al, al
	jmp	$LN3@Add_Head
$LN2@Add_Head:

; 100  : 		}
; 101  : 		SLNode<T> *temp	= new SLNode<T>(data);

	push	OFFSET ??_C@_0CF@IMPPCLNI@SList?$DMclass?5BeaconGameObj?$DO?3?3Add_@
	push	101					; 00000065H
	push	OFFSET ??_C@_0DB@DFBFLIIO@x?3?2github?2renegade?2dragonade_rxd@
	call	?SetThreadTrackingInformation@@YAXPBDI0@Z ; SetThreadTrackingInformation
	add	esp, 12					; 0000000cH
	xor	eax, eax
	je	SHORT $LN8@Add_Head
	xor	ecx, ecx
	jne	SHORT $LN5@Add_Head
	push	101					; 00000065H
	push	OFFSET ??_C@_1GC@LJHGOLFN@?$AAx?$AA?3?$AA?2?$AAg?$AAi?$AAt?$AAh?$AAu?$AAb?$AA?2?$AAr?$AAe?$AAn?$AAe?$AAg?$AAa?$AAd?$AAe?$AA?2?$AAd?$AAr?$AAa?$AAg?$AAo?$AAn?$AAa?$AAd?$AAe?$AA_?$AAr?$AAx?$AAd@
	push	OFFSET ??_C@_1M@HLGKFCJM@?$AAf?$AAa?$AAl?$AAs?$AAe?$AA?$AA@
	call	DWORD PTR __imp___wassert
	add	esp, 12					; 0000000cH
$LN5@Add_Head:
	mov	DWORD PTR tv84[ebp], 0
	jmp	SHORT $LN9@Add_Head
$LN8@Add_Head:
	push	0
	push	0
	push	0
	push	8
	call	??2?$AutoPoolClass@VGenericSLNode@@$0BAA@@@SAPAXIPBDI0@Z ; AutoPoolClass<GenericSLNode,256>::operator new
	add	esp, 16					; 00000010H
	mov	DWORD PTR $T1[ebp], eax
	cmp	DWORD PTR $T1[ebp], 0
	je	SHORT $LN6@Add_Head
	mov	eax, DWORD PTR _data$[ebp]
	push	eax
	mov	ecx, DWORD PTR $T1[ebp]
	call	??0?$SLNode@VBeaconGameObj@@@@IAE@PAVBeaconGameObj@@@Z ; SLNode<BeaconGameObj>::SLNode<BeaconGameObj>
	mov	DWORD PTR tv82[ebp], eax
	jmp	SHORT $LN7@Add_Head
$LN6@Add_Head:
	mov	DWORD PTR tv82[ebp], 0
$LN7@Add_Head:
	mov	ecx, DWORD PTR tv82[ebp]
	mov	DWORD PTR tv84[ebp], ecx
$LN9@Add_Head:
	mov	edx, DWORD PTR tv84[ebp]
	mov	DWORD PTR _temp$[ebp], edx

; 102  : 		temp->Set_Next(HeadNode);

	mov	eax, DWORD PTR _this$[ebp]
	mov	ecx, DWORD PTR [eax+4]
	push	ecx
	mov	ecx, DWORD PTR _temp$[ebp]
	call	?Set_Next@?$SLNode@VBeaconGameObj@@@@QAEXPAV1@@Z ; SLNode<BeaconGameObj>::Set_Next

; 103  : 		HeadNode = temp;

	mov	eax, DWORD PTR _this$[ebp]
	mov	ecx, DWORD PTR _temp$[ebp]
	mov	DWORD PTR [eax+4], ecx

; 104  : 		if (!TailNode)

	mov	eax, DWORD PTR _this$[ebp]
	cmp	DWORD PTR [eax+8], 0
	jne	SHORT $LN1@Add_Head

; 105  : 		{
; 106  : 			TailNode = temp;

	mov	eax, DWORD PTR _this$[ebp]
	mov	ecx, DWORD PTR _temp$[ebp]
	mov	DWORD PTR [eax+8], ecx
$LN1@Add_Head:

; 107  : 		}
; 108  : 		return true;

	mov	al, 1
$LN3@Add_Head:

; 109  : 	}

	pop	edi
	pop	esi
	pop	ebx
	mov	esp, ebp
	pop	ebp
	ret	4
?Add_Head@?$SList@VBeaconGameObj@@@@UAE_NPAVBeaconGameObj@@@Z ENDP ; SList<BeaconGameObj>::Add_Head
_TEXT	ENDS
; Function compile flags: /Odtp /ZI
; File x:\github\renegade\dragonade_rxd\scripts\slist.h
;	COMDAT ??1?$SList@VBeaconGameObj@@@@UAE@XZ
_TEXT	SEGMENT
_this$ = -4						; size = 4
??1?$SList@VBeaconGameObj@@@@UAE@XZ PROC		; SList<BeaconGameObj>::~SList<BeaconGameObj>, COMDAT
; _this$ = ecx

; 90   : 	{

	push	ebp
	mov	ebp, esp
	sub	esp, 68					; 00000044H
	push	ebx
	push	esi
	push	edi
	mov	DWORD PTR _this$[ebp], ecx
	mov	eax, DWORD PTR _this$[ebp]
	mov	DWORD PTR [eax], OFFSET ??_7?$SList@VBeaconGameObj@@@@6B@

; 91   : 		Remove_All();

	mov	ecx, DWORD PTR _this$[ebp]
	call	?Remove_All@?$SList@VBeaconGameObj@@@@UAEXXZ ; SList<BeaconGameObj>::Remove_All

; 92   : 	}

	pop	edi
	pop	esi
	pop	ebx
	mov	esp, ebp
	pop	ebp
	ret	0
??1?$SList@VBeaconGameObj@@@@UAE@XZ ENDP		; SList<BeaconGameObj>::~SList<BeaconGameObj>
_TEXT	ENDS
; Function compile flags: /Odtp /ZI
; File x:\github\renegade\dragonade_rxd\scripts\slist.h
;	COMDAT ??0?$SList@VBeaconGameObj@@@@QAE@XZ
_TEXT	SEGMENT
_this$ = -4						; size = 4
??0?$SList@VBeaconGameObj@@@@QAE@XZ PROC		; SList<BeaconGameObj>::SList<BeaconGameObj>, COMDAT
; _this$ = ecx

; 86   : 	{

	push	ebp
	mov	ebp, esp
	sub	esp, 68					; 00000044H
	push	ebx
	push	esi
	push	edi
	mov	DWORD PTR _this$[ebp], ecx
	mov	eax, DWORD PTR _this$[ebp]
	mov	DWORD PTR [eax], OFFSET ??_7?$SList@VBeaconGameObj@@@@6B@
	mov	eax, DWORD PTR _this$[ebp]
	mov	DWORD PTR [eax+4], 0
	mov	eax, DWORD PTR _this$[ebp]
	mov	DWORD PTR [eax+8], 0

; 87   : 	}

	mov	eax, DWORD PTR _this$[ebp]
	pop	edi
	pop	esi
	pop	ebx
	mov	esp, ebp
	pop	ebp
	ret	0
??0?$SList@VBeaconGameObj@@@@QAE@XZ ENDP		; SList<BeaconGameObj>::SList<BeaconGameObj>
_TEXT	ENDS
; Function compile flags: /Odtp /ZI
;	COMDAT ??_G?$SList@VC4GameObj@@@@UAEPAXI@Z
_TEXT	SEGMENT
_this$ = -4						; size = 4
___flags$ = 8						; size = 4
??_G?$SList@VC4GameObj@@@@UAEPAXI@Z PROC		; SList<C4GameObj>::`scalar deleting destructor', COMDAT
; _this$ = ecx
	push	ebp
	mov	ebp, esp
	sub	esp, 68					; 00000044H
	push	ebx
	push	esi
	push	edi
	mov	DWORD PTR _this$[ebp], ecx
	mov	ecx, DWORD PTR _this$[ebp]
	call	??1?$SList@VC4GameObj@@@@UAE@XZ		; SList<C4GameObj>::~SList<C4GameObj>
	mov	eax, DWORD PTR ___flags$[ebp]
	and	eax, 1
	je	SHORT $LN1@scalar
