; Listing generated by Microsoft (R) Optimizing Compiler Version 17.00.61219.0 

	TITLE	X:\GitHub\Renegade\Dragonade_RxD\scripts\TDBCategoryClass.cpp
	.686P
	.XMM
	include listing.inc
	.model	flat

INCLUDELIB MSVCRTD
INCLUDELIB OLDNAMES

CONST	SEGMENT
_DONT_MOVE_ARRIVED_DIST DD 0447a0000r		; 1000
CONST	ENDS
PUBLIC	??_H@YGXPAXIHP6EPAX0@Z@Z			; `vector constructor iterator'
PUBLIC	??0PostLoadableClass@@QAE@XZ			; PostLoadableClass::PostLoadableClass
PUBLIC	??1PostLoadableClass@@UAE@XZ			; PostLoadableClass::~PostLoadableClass
PUBLIC	?On_Post_Load@PostLoadableClass@@UAEXXZ		; PostLoadableClass::On_Post_Load
PUBLIC	??_GPostLoadableClass@@UAEPAXI@Z		; PostLoadableClass::`scalar deleting destructor'
PUBLIC	?Save@PersistClass@@UAE_NAAVChunkSaveClass@@@Z	; PersistClass::Save
PUBLIC	?Load@PersistClass@@UAE_NAAVChunkLoadClass@@@Z	; PersistClass::Load
PUBLIC	??0PersistClass@@QAE@XZ				; PersistClass::PersistClass
PUBLIC	??1PersistClass@@UAE@XZ				; PersistClass::~PersistClass
PUBLIC	??_GPersistClass@@UAEPAXI@Z			; PersistClass::`scalar deleting destructor'
PUBLIC	??0StringClass@@QAE@H_N@Z			; StringClass::StringClass
PUBLIC	??1StringClass@@QAE@XZ				; StringClass::~StringClass
PUBLIC	??4StringClass@@QAEABV0@ABV0@@Z			; StringClass::operator=
PUBLIC	?Get_Length@StringClass@@QBEHXZ			; StringClass::Get_Length
PUBLIC	?Get_Buffer@StringClass@@QAEPADH@Z		; StringClass::Get_Buffer
PUBLIC	?Peek_Buffer@StringClass@@QAEPADXZ		; StringClass::Peek_Buffer
PUBLIC	?Store_Length@StringClass@@AAEXH@Z		; StringClass::Store_Length
PUBLIC	?Get_Header@StringClass@@ABEPAU_HEADER@1@XZ	; StringClass::Get_Header
PUBLIC	??0TDBCategoryClass@@QAE@XZ			; TDBCategoryClass::TDBCategoryClass
PUBLIC	??0TDBCategoryClass@@QAE@ABV0@@Z		; TDBCategoryClass::TDBCategoryClass
PUBLIC	??1TDBCategoryClass@@UAE@XZ			; TDBCategoryClass::~TDBCategoryClass
PUBLIC	??4TDBCategoryClass@@QAEABV0@ABV0@@Z		; TDBCategoryClass::operator=
PUBLIC	?Get_Factory@TDBCategoryClass@@UBEABVPersistFactoryClass@@XZ ; TDBCategoryClass::Get_Factory
PUBLIC	?Save@TDBCategoryClass@@UAE_NAAVChunkSaveClass@@@Z ; TDBCategoryClass::Save
PUBLIC	?Load@TDBCategoryClass@@UAE_NAAVChunkLoadClass@@@Z ; TDBCategoryClass::Load
PUBLIC	?Save_Variables@TDBCategoryClass@@IAEXAAVChunkSaveClass@@@Z ; TDBCategoryClass::Save_Variables
PUBLIC	?Load_Variables@TDBCategoryClass@@IAEXAAVChunkLoadClass@@@Z ; TDBCategoryClass::Load_Variables
PUBLIC	??_GTDBCategoryClass@@UAEPAXI@Z			; TDBCategoryClass::`scalar deleting destructor'
PUBLIC	?Chunk_ID@?$SimplePersistFactoryClass@VTDBCategoryClass@@$0JAAAC@@@UBEIXZ ; SimplePersistFactoryClass<TDBCategoryClass,589826>::Chunk_ID
PUBLIC	?Load@?$SimplePersistFactoryClass@VTDBCategoryClass@@$0JAAAC@@@UBEPAVPersistClass@@AAVChunkLoadClass@@@Z ; SimplePersistFactoryClass<TDBCategoryClass,589826>::Load
PUBLIC	?Save@?$SimplePersistFactoryClass@VTDBCategoryClass@@$0JAAAC@@@UBEXAAVChunkSaveClass@@PAVPersistClass@@@Z ; SimplePersistFactoryClass<TDBCategoryClass,589826>::Save
PUBLIC	??0?$SimplePersistFactoryClass@VTDBCategoryClass@@$0JAAAC@@@QAE@XZ ; SimplePersistFactoryClass<TDBCategoryClass,589826>::SimplePersistFactoryClass<TDBCategoryClass,589826>
PUBLIC	??1?$SimplePersistFactoryClass@VTDBCategoryClass@@$0JAAAC@@@UAE@XZ ; SimplePersistFactoryClass<TDBCategoryClass,589826>::~SimplePersistFactoryClass<TDBCategoryClass,589826>
PUBLIC	??_G?$SimplePersistFactoryClass@VTDBCategoryClass@@$0JAAAC@@@UAEPAXI@Z ; SimplePersistFactoryClass<TDBCategoryClass,589826>::`scalar deleting destructor'
PUBLIC	??_7PostLoadableClass@@6B@			; PostLoadableClass::`vftable'
PUBLIC	??_7PersistClass@@6B@				; PersistClass::`vftable'
PUBLIC	??_C@_1M@HLGKFCJM@?$AAf?$AAa?$AAl?$AAs?$AAe?$AA?$AA@ ; `string'
PUBLIC	??_7TDBCategoryClass@@6B@			; TDBCategoryClass::`vftable'
PUBLIC	??_7?$SimplePersistFactoryClass@VTDBCategoryClass@@$0JAAAC@@@6B@ ; SimplePersistFactoryClass<TDBCategoryClass,589826>::`vftable'
PUBLIC	?_TDBCategoryPersistFactory@@3V?$SimplePersistFactoryClass@VTDBCategoryClass@@$0JAAAC@@@A ; _TDBCategoryPersistFactory
PUBLIC	??_C@_0DP@FBPMAOHF@SimplePersistFactoryClass?$DMclass?5@ ; `string'
PUBLIC	??_C@_0EF@BPIDEJHJ@x?3?2github?2renegade?2dragonade_rxd@ ; `string'
PUBLIC	??_C@_1IK@JLMLKCKA@?$AAx?$AA?3?$AA?2?$AAg?$AAi?$AAt?$AAh?$AAu?$AAb?$AA?2?$AAr?$AAe?$AAn?$AAe?$AAg?$AAa?$AAd?$AAe?$AA?2?$AAd?$AAr?$AAa?$AAg?$AAo?$AAn?$AAa?$AAd?$AAe?$AA_?$AAr?$AAx?$AAd@ ; `string'
PUBLIC	??_R4PostLoadableClass@@6B@			; PostLoadableClass::`RTTI Complete Object Locator'
PUBLIC	??_R0?AVPostLoadableClass@@@8			; PostLoadableClass `RTTI Type Descriptor'
PUBLIC	??_R3PostLoadableClass@@8			; PostLoadableClass::`RTTI Class Hierarchy Descriptor'
PUBLIC	??_R2PostLoadableClass@@8			; PostLoadableClass::`RTTI Base Class Array'
PUBLIC	??_R1A@?0A@EA@PostLoadableClass@@8		; PostLoadableClass::`RTTI Base Class Descriptor at (0,-1,0,64)'
PUBLIC	??_R4PersistClass@@6B@				; PersistClass::`RTTI Complete Object Locator'
PUBLIC	??_R0?AVPersistClass@@@8			; PersistClass `RTTI Type Descriptor'
PUBLIC	??_R3PersistClass@@8				; PersistClass::`RTTI Class Hierarchy Descriptor'
PUBLIC	??_R2PersistClass@@8				; PersistClass::`RTTI Base Class Array'
PUBLIC	??_R1A@?0A@EA@PersistClass@@8			; PersistClass::`RTTI Base Class Descriptor at (0,-1,0,64)'
PUBLIC	??_R4TDBCategoryClass@@6B@			; TDBCategoryClass::`RTTI Complete Object Locator'
PUBLIC	??_R0?AVTDBCategoryClass@@@8			; TDBCategoryClass `RTTI Type Descriptor'
PUBLIC	??_R3TDBCategoryClass@@8			; TDBCategoryClass::`RTTI Class Hierarchy Descriptor'
PUBLIC	??_R2TDBCategoryClass@@8			; TDBCategoryClass::`RTTI Base Class Array'
PUBLIC	??_R1A@?0A@EA@TDBCategoryClass@@8		; TDBCategoryClass::`RTTI Base Class Descriptor at (0,-1,0,64)'
PUBLIC	??_R4?$SimplePersistFactoryClass@VTDBCategoryClass@@$0JAAAC@@@6B@ ; SimplePersistFactoryClass<TDBCategoryClass,589826>::`RTTI Complete Object Locator'
PUBLIC	??_R0?AV?$SimplePersistFactoryClass@VTDBCategoryClass@@$0JAAAC@@@@8 ; SimplePersistFactoryClass<TDBCategoryClass,589826> `RTTI Type Descriptor'
PUBLIC	??_R3?$SimplePersistFactoryClass@VTDBCategoryClass@@$0JAAAC@@@8 ; SimplePersistFactoryClass<TDBCategoryClass,589826>::`RTTI Class Hierarchy Descriptor'
PUBLIC	??_R2?$SimplePersistFactoryClass@VTDBCategoryClass@@$0JAAAC@@@8 ; SimplePersistFactoryClass<TDBCategoryClass,589826>::`RTTI Base Class Array'
PUBLIC	??_R1A@?0A@EA@?$SimplePersistFactoryClass@VTDBCategoryClass@@$0JAAAC@@@8 ; SimplePersistFactoryClass<TDBCategoryClass,589826>::`RTTI Base Class Descriptor at (0,-1,0,64)'
PUBLIC	??_R1A@?0A@EA@PersistFactoryClass@@8		; PersistFactoryClass::`RTTI Base Class Descriptor at (0,-1,0,64)'
PUBLIC	??_R0?AVPersistFactoryClass@@@8			; PersistFactoryClass `RTTI Type Descriptor'
PUBLIC	??_R3PersistFactoryClass@@8			; PersistFactoryClass::`RTTI Class Hierarchy Descriptor'
PUBLIC	??_R2PersistFactoryClass@@8			; PersistFactoryClass::`RTTI Base Class Array'
EXTRN	__purecall:PROC
EXTRN	??2@YAPAXI@Z:PROC				; operator new
EXTRN	??3@YAXPAX@Z:PROC				; operator delete
EXTRN	_atexit:PROC
EXTRN	__imp___wassert:PROC
EXTRN	?SetThreadTrackingInformation@@YAXPBDI0@Z:PROC	; SetThreadTrackingInformation
EXTRN	??_EPostLoadableClass@@UAEPAXI@Z:PROC		; PostLoadableClass::`vector deleting destructor'
EXTRN	??_EPersistClass@@UAEPAXI@Z:PROC		; PersistClass::`vector deleting destructor'
EXTRN	?Get_String@StringClass@@AAEXH_N@Z:PROC		; StringClass::Get_String
EXTRN	?Uninitialised_Grow@StringClass@@AAEXH@Z:PROC	; StringClass::Uninitialised_Grow
EXTRN	?Free_String@StringClass@@AAEXXZ:PROC		; StringClass::Free_String
EXTRN	??_ETDBCategoryClass@@UAEPAXI@Z:PROC		; TDBCategoryClass::`vector deleting destructor'
EXTRN	?Open_Chunk@ChunkLoadClass@@QAE_NXZ:PROC	; ChunkLoadClass::Open_Chunk
EXTRN	?Close_Chunk@ChunkLoadClass@@QAE_NXZ:PROC	; ChunkLoadClass::Close_Chunk
EXTRN	?Cur_Chunk_ID@ChunkLoadClass@@QAEKXZ:PROC	; ChunkLoadClass::Cur_Chunk_ID
EXTRN	?Open_Micro_Chunk@ChunkLoadClass@@QAE_NXZ:PROC	; ChunkLoadClass::Open_Micro_Chunk
EXTRN	?Close_Micro_Chunk@ChunkLoadClass@@QAE_NXZ:PROC	; ChunkLoadClass::Close_Micro_Chunk
EXTRN	?Cur_Micro_Chunk_ID@ChunkLoadClass@@QAEKXZ:PROC	; ChunkLoadClass::Cur_Micro_Chunk_ID
EXTRN	?Cur_Micro_Chunk_Length@ChunkLoadClass@@QAEKXZ:PROC ; ChunkLoadClass::Cur_Micro_Chunk_Length
EXTRN	?Read@ChunkLoadClass@@QAEJPAXK@Z:PROC		; ChunkLoadClass::Read
EXTRN	?Begin_Chunk@ChunkSaveClass@@QAE_NK@Z:PROC	; ChunkSaveClass::Begin_Chunk
EXTRN	?End_Chunk@ChunkSaveClass@@QAE_NXZ:PROC		; ChunkSaveClass::End_Chunk
EXTRN	?Begin_Micro_Chunk@ChunkSaveClass@@QAE_NK@Z:PROC ; ChunkSaveClass::Begin_Micro_Chunk
EXTRN	?End_Micro_Chunk@ChunkSaveClass@@QAE_NXZ:PROC	; ChunkSaveClass::End_Micro_Chunk
EXTRN	?Write@ChunkSaveClass@@QAEKPAXK@Z:PROC		; ChunkSaveClass::Write
EXTRN	??0PersistFactoryClass@@QAE@XZ:PROC		; PersistFactoryClass::PersistFactoryClass
EXTRN	??1PersistFactoryClass@@UAE@XZ:PROC		; PersistFactoryClass::~PersistFactoryClass
EXTRN	?Register_Pointer@SaveLoadSystemClass@@SAXPAX0@Z:PROC ; SaveLoadSystemClass::Register_Pointer
EXTRN	??_E?$SimplePersistFactoryClass@VTDBCategoryClass@@$0JAAAC@@@UAEPAXI@Z:PROC ; SimplePersistFactoryClass<TDBCategoryClass,589826>::`vector deleting destructor'
EXTRN	_memcpy:PROC
EXTRN	??_7type_info@@6B@:QWORD			; type_info::`vftable'
EXTRN	?m_EmptyString@StringClass@@0AAPADA:DWORD	; StringClass::m_EmptyString
EXTRN	?m_NullChar@StringClass@@0AADA:DWORD		; StringClass::m_NullChar
_BSS	SEGMENT
?_TDBCategoryPersistFactory@@3V?$SimplePersistFactoryClass@VTDBCategoryClass@@$0JAAAC@@@A DQ 01H DUP (?) ; _TDBCategoryPersistFactory
_BSS	ENDS
CRT$XCU	SEGMENT
__TDBCategoryPersistFactory$initializer$ DD FLAT:??__E_TDBCategoryPersistFactory@@YAXXZ
CRT$XCU	ENDS
;	COMDAT ??_R2PersistFactoryClass@@8
rdata$r	SEGMENT
??_R2PersistFactoryClass@@8 DD FLAT:??_R1A@?0A@EA@PersistFactoryClass@@8 ; PersistFactoryClass::`RTTI Base Class Array'
rdata$r	ENDS
;	COMDAT ??_R3PersistFactoryClass@@8
rdata$r	SEGMENT
??_R3PersistFactoryClass@@8 DD 00H			; PersistFactoryClass::`RTTI Class Hierarchy Descriptor'
	DD	00H
	DD	01H
	DD	FLAT:??_R2PersistFactoryClass@@8
rdata$r	ENDS
;	COMDAT ??_R0?AVPersistFactoryClass@@@8
_DATA	SEGMENT
??_R0?AVPersistFactoryClass@@@8 DD FLAT:??_7type_info@@6B@ ; PersistFactoryClass `RTTI Type Descriptor'
	DD	00H
	DB	'.?AVPersistFactoryClass@@', 00H
_DATA	ENDS
;	COMDAT ??_R1A@?0A@EA@PersistFactoryClass@@8
rdata$r	SEGMENT
??_R1A@?0A@EA@PersistFactoryClass@@8 DD FLAT:??_R0?AVPersistFactoryClass@@@8 ; PersistFactoryClass::`RTTI Base Class Descriptor at (0,-1,0,64)'
	DD	00H
	DD	00H
	DD	0ffffffffH
	DD	00H
	DD	040H
	DD	FLAT:??_R3PersistFactoryClass@@8
rdata$r	ENDS
;	COMDAT ??_R1A@?0A@EA@?$SimplePersistFactoryClass@VTDBCategoryClass@@$0JAAAC@@@8
rdata$r	SEGMENT
??_R1A@?0A@EA@?$SimplePersistFactoryClass@VTDBCategoryClass@@$0JAAAC@@@8 DD FLAT:??_R0?AV?$SimplePersistFactoryClass@VTDBCategoryClass@@$0JAAAC@@@@8 ; SimplePersistFactoryClass<TDBCategoryClass,589826>::`RTTI Base Class Descriptor at (0,-1,0,64)'
	DD	01H
	DD	00H
	DD	0ffffffffH
	DD	00H
	DD	040H
	DD	FLAT:??_R3?$SimplePersistFactoryClass@VTDBCategoryClass@@$0JAAAC@@@8
rdata$r	ENDS
;	COMDAT ??_R2?$SimplePersistFactoryClass@VTDBCategoryClass@@$0JAAAC@@@8
rdata$r	SEGMENT
??_R2?$SimplePersistFactoryClass@VTDBCategoryClass@@$0JAAAC@@@8 DD FLAT:??_R1A@?0A@EA@?$SimplePersistFactoryClass@VTDBCategoryClass@@$0JAAAC@@@8 ; SimplePersistFactoryClass<TDBCategoryClass,589826>::`RTTI Base Class Array'
	DD	FLAT:??_R1A@?0A@EA@PersistFactoryClass@@8
rdata$r	ENDS
;	COMDAT ??_R3?$SimplePersistFactoryClass@VTDBCategoryClass@@$0JAAAC@@@8
rdata$r	SEGMENT
??_R3?$SimplePersistFactoryClass@VTDBCategoryClass@@$0JAAAC@@@8 DD 00H ; SimplePersistFactoryClass<TDBCategoryClass,589826>::`RTTI Class Hierarchy Descriptor'
	DD	00H
	DD	02H
	DD	FLAT:??_R2?$SimplePersistFactoryClass@VTDBCategoryClass@@$0JAAAC@@@8
rdata$r	ENDS
;	COMDAT ??_R0?AV?$SimplePersistFactoryClass@VTDBCategoryClass@@$0JAAAC@@@@8
_DATA	SEGMENT
??_R0?AV?$SimplePersistFactoryClass@VTDBCategoryClass@@$0JAAAC@@@@8 DD FLAT:??_7type_info@@6B@ ; SimplePersistFactoryClass<TDBCategoryClass,589826> `RTTI Type Descriptor'
	DD	00H
	DB	'.?AV?$SimplePersistFactoryClass@VTDBCategoryClass@@$0JAA'
	DB	'AC@@@', 00H
_DATA	ENDS
;	COMDAT ??_R4?$SimplePersistFactoryClass@VTDBCategoryClass@@$0JAAAC@@@6B@
rdata$r	SEGMENT
??_R4?$SimplePersistFactoryClass@VTDBCategoryClass@@$0JAAAC@@@6B@ DD 00H ; SimplePersistFactoryClass<TDBCategoryClass,589826>::`RTTI Complete Object Locator'
	DD	00H
	DD	00H
	DD	FLAT:??_R0?AV?$SimplePersistFactoryClass@VTDBCategoryClass@@$0JAAAC@@@@8
	DD	FLAT:??_R3?$SimplePersistFactoryClass@VTDBCategoryClass@@$0JAAAC@@@8
rdata$r	ENDS
;	COMDAT ??_R1A@?0A@EA@TDBCategoryClass@@8
rdata$r	SEGMENT
??_R1A@?0A@EA@TDBCategoryClass@@8 DD FLAT:??_R0?AVTDBCategoryClass@@@8 ; TDBCategoryClass::`RTTI Base Class Descriptor at (0,-1,0,64)'
	DD	02H
	DD	00H
	DD	0ffffffffH
	DD	00H
	DD	040H
	DD	FLAT:??_R3TDBCategoryClass@@8
rdata$r	ENDS
;	COMDAT ??_R2TDBCategoryClass@@8
rdata$r	SEGMENT
??_R2TDBCategoryClass@@8 DD FLAT:??_R1A@?0A@EA@TDBCategoryClass@@8 ; TDBCategoryClass::`RTTI Base Class Array'
	DD	FLAT:??_R1A@?0A@EA@PersistClass@@8
	DD	FLAT:??_R1A@?0A@EA@PostLoadableClass@@8
rdata$r	ENDS
;	COMDAT ??_R3TDBCategoryClass@@8
rdata$r	SEGMENT
??_R3TDBCategoryClass@@8 DD 00H				; TDBCategoryClass::`RTTI Class Hierarchy Descriptor'
	DD	00H
	DD	03H
	DD	FLAT:??_R2TDBCategoryClass@@8
rdata$r	ENDS
;	COMDAT ??_R0?AVTDBCategoryClass@@@8
_DATA	SEGMENT
??_R0?AVTDBCategoryClass@@@8 DD FLAT:??_7type_info@@6B@	; TDBCategoryClass `RTTI Type Descriptor'
	DD	00H
	DB	'.?AVTDBCategoryClass@@', 00H
_DATA	ENDS
;	COMDAT ??_R4TDBCategoryClass@@6B@
rdata$r	SEGMENT
??_R4TDBCategoryClass@@6B@ DD 00H			; TDBCategoryClass::`RTTI Complete Object Locator'
	DD	00H
	DD	00H
	DD	FLAT:??_R0?AVTDBCategoryClass@@@8
	DD	FLAT:??_R3TDBCategoryClass@@8
rdata$r	ENDS
;	COMDAT ??_R1A@?0A@EA@PersistClass@@8
rdata$r	SEGMENT
??_R1A@?0A@EA@PersistClass@@8 DD FLAT:??_R0?AVPersistClass@@@8 ; PersistClass::`RTTI Base Class Descriptor at (0,-1,0,64)'
	DD	01H
	DD	00H
	DD	0ffffffffH
	DD	00H
	DD	040H
	DD	FLAT:??_R3PersistClass@@8
rdata$r	ENDS
;	COMDAT ??_R2PersistClass@@8
rdata$r	SEGMENT
??_R2PersistClass@@8 DD FLAT:??_R1A@?0A@EA@PersistClass@@8 ; PersistClass::`RTTI Base Class Array'
	DD	FLAT:??_R1A@?0A@EA@PostLoadableClass@@8
rdata$r	ENDS
;	COMDAT ??_R3PersistClass@@8
rdata$r	SEGMENT
??_R3PersistClass@@8 DD 00H				; PersistClass::`RTTI Class Hierarchy Descriptor'
	DD	00H
	DD	02H
	DD	FLAT:??_R2PersistClass@@8
rdata$r	ENDS
;	COMDAT ??_R0?AVPersistClass@@@8
_DATA	SEGMENT
??_R0?AVPersistClass@@@8 DD FLAT:??_7type_info@@6B@	; PersistClass `RTTI Type Descriptor'
	DD	00H
	DB	'.?AVPersistClass@@', 00H
_DATA	ENDS
;	COMDAT ??_R4PersistClass@@6B@
rdata$r	SEGMENT
??_R4PersistClass@@6B@ DD 00H				; PersistClass::`RTTI Complete Object Locator'
	DD	00H
	DD	00H
	DD	FLAT:??_R0?AVPersistClass@@@8
	DD	FLAT:??_R3PersistClass@@8
rdata$r	ENDS
;	COMDAT ??_R1A@?0A@EA@PostLoadableClass@@8
rdata$r	SEGMENT
??_R1A@?0A@EA@PostLoadableClass@@8 DD FLAT:??_R0?AVPostLoadableClass@@@8 ; PostLoadableClass::`RTTI Base Class Descriptor at (0,-1,0,64)'
	DD	00H
	DD	00H
	DD	0ffffffffH
	DD	00H
	DD	040H
	DD	FLAT:??_R3PostLoadableClass@@8
rdata$r	ENDS
;	COMDAT ??_R2PostLoadableClass@@8
rdata$r	SEGMENT
??_R2PostLoadableClass@@8 DD FLAT:??_R1A@?0A@EA@PostLoadableClass@@8 ; PostLoadableClass::`RTTI Base Class Array'
rdata$r	ENDS
;	COMDAT ??_R3PostLoadableClass@@8
rdata$r	SEGMENT
??_R3PostLoadableClass@@8 DD 00H			; PostLoadableClass::`RTTI Class Hierarchy Descriptor'
	DD	00H
	DD	01H
	DD	FLAT:??_R2PostLoadableClass@@8
rdata$r	ENDS
;	COMDAT ??_R0?AVPostLoadableClass@@@8
_DATA	SEGMENT
??_R0?AVPostLoadableClass@@@8 DD FLAT:??_7type_info@@6B@ ; PostLoadableClass `RTTI Type Descriptor'
	DD	00H
	DB	'.?AVPostLoadableClass@@', 00H
_DATA	ENDS
;	COMDAT ??_R4PostLoadableClass@@6B@
rdata$r	SEGMENT
??_R4PostLoadableClass@@6B@ DD 00H			; PostLoadableClass::`RTTI Complete Object Locator'
	DD	00H
	DD	00H
	DD	FLAT:??_R0?AVPostLoadableClass@@@8
	DD	FLAT:??_R3PostLoadableClass@@8
rdata$r	ENDS
;	COMDAT ??_C@_1IK@JLMLKCKA@?$AAx?$AA?3?$AA?2?$AAg?$AAi?$AAt?$AAh?$AAu?$AAb?$AA?2?$AAr?$AAe?$AAn?$AAe?$AAg?$AAa?$AAd?$AAe?$AA?2?$AAd?$AAr?$AAa?$AAg?$AAo?$AAn?$AAa?$AAd?$AAe?$AA_?$AAr?$AAx?$AAd@
CONST	SEGMENT
??_C@_1IK@JLMLKCKA@?$AAx?$AA?3?$AA?2?$AAg?$AAi?$AAt?$AAh?$AAu?$AAb?$AA?2?$AAr?$AAe?$AAn?$AAe?$AAg?$AAa?$AAd?$AAe?$AA?2?$AAd?$AAr?$AAa?$AAg?$AAo?$AAn?$AAa?$AAd?$AAe?$AA_?$AAr?$AAx?$AAd@ DB 'x'
	DB	00H, ':', 00H, '\', 00H, 'g', 00H, 'i', 00H, 't', 00H, 'h', 00H
	DB	'u', 00H, 'b', 00H, '\', 00H, 'r', 00H, 'e', 00H, 'n', 00H, 'e'
	DB	00H, 'g', 00H, 'a', 00H, 'd', 00H, 'e', 00H, '\', 00H, 'd', 00H
	DB	'r', 00H, 'a', 00H, 'g', 00H, 'o', 00H, 'n', 00H, 'a', 00H, 'd'
	DB	00H, 'e', 00H, '_', 00H, 'r', 00H, 'x', 00H, 'd', 00H, '\', 00H
	DB	's', 00H, 'c', 00H, 'r', 00H, 'i', 00H, 'p', 00H, 't', 00H, 's'
	DB	00H, '\', 00H, 's', 00H, 'i', 00H, 'm', 00H, 'p', 00H, 'l', 00H
	DB	'e', 00H, 'p', 00H, 'e', 00H, 'r', 00H, 's', 00H, 'i', 00H, 's'
	DB	00H, 't', 00H, 'f', 00H, 'a', 00H, 'c', 00H, 't', 00H, 'o', 00H
	DB	'r', 00H, 'y', 00H, 'c', 00H, 'l', 00H, 'a', 00H, 's', 00H, 's'
	DB	00H, '.', 00H, 'h', 00H, 00H, 00H		; `string'
CONST	ENDS
;	COMDAT ??_C@_0EF@BPIDEJHJ@x?3?2github?2renegade?2dragonade_rxd@
CONST	SEGMENT
??_C@_0EF@BPIDEJHJ@x?3?2github?2renegade?2dragonade_rxd@ DB 'x:\github\re'
	DB	'negade\dragonade_rxd\scripts\simplepersistfactoryclass.h', 00H ; `string'
CONST	ENDS
;	COMDAT ??_C@_0DP@FBPMAOHF@SimplePersistFactoryClass?$DMclass?5@
CONST	SEGMENT
??_C@_0DP@FBPMAOHF@SimplePersistFactoryClass?$DMclass?5@ DB 'SimplePersis'
	DB	'tFactoryClass<class TDBCategoryClass,589826>::Load', 00H ; `string'
CONST	ENDS
;	COMDAT ??_7?$SimplePersistFactoryClass@VTDBCategoryClass@@$0JAAAC@@@6B@
CONST	SEGMENT
??_7?$SimplePersistFactoryClass@VTDBCategoryClass@@$0JAAAC@@@6B@ DD FLAT:??_R4?$SimplePersistFactoryClass@VTDBCategoryClass@@$0JAAAC@@@6B@ ; SimplePersistFactoryClass<TDBCategoryClass,589826>::`vftable'
	DD	FLAT:??_E?$SimplePersistFactoryClass@VTDBCategoryClass@@$0JAAAC@@@UAEPAXI@Z
	DD	FLAT:?Chunk_ID@?$SimplePersistFactoryClass@VTDBCategoryClass@@$0JAAAC@@@UBEIXZ
	DD	FLAT:?Load@?$SimplePersistFactoryClass@VTDBCategoryClass@@$0JAAAC@@@UBEPAVPersistClass@@AAVChunkLoadClass@@@Z
	DD	FLAT:?Save@?$SimplePersistFactoryClass@VTDBCategoryClass@@$0JAAAC@@@UBEXAAVChunkSaveClass@@PAVPersistClass@@@Z
CONST	ENDS
;	COMDAT ??_7TDBCategoryClass@@6B@
CONST	SEGMENT
??_7TDBCategoryClass@@6B@ DD FLAT:??_R4TDBCategoryClass@@6B@ ; TDBCategoryClass::`vftable'
	DD	FLAT:??_ETDBCategoryClass@@UAEPAXI@Z
	DD	FLAT:?On_Post_Load@PostLoadableClass@@UAEXXZ
	DD	FLAT:?Get_Factory@TDBCategoryClass@@UBEABVPersistFactoryClass@@XZ
	DD	FLAT:?Save@TDBCategoryClass@@UAE_NAAVChunkSaveClass@@@Z
	DD	FLAT:?Load@TDBCategoryClass@@UAE_NAAVChunkLoadClass@@@Z
CONST	ENDS
;	COMDAT ??_C@_1M@HLGKFCJM@?$AAf?$AAa?$AAl?$AAs?$AAe?$AA?$AA@
CONST	SEGMENT
??_C@_1M@HLGKFCJM@?$AAf?$AAa?$AAl?$AAs?$AAe?$AA?$AA@ DB 'f', 00H, 'a', 00H
	DB	'l', 00H, 's', 00H, 'e', 00H, 00H, 00H	; `string'
CONST	ENDS
;	COMDAT ??_7PersistClass@@6B@
CONST	SEGMENT
??_7PersistClass@@6B@ DD FLAT:??_R4PersistClass@@6B@	; PersistClass::`vftable'
	DD	FLAT:??_EPersistClass@@UAEPAXI@Z
	DD	FLAT:?On_Post_Load@PostLoadableClass@@UAEXXZ
	DD	FLAT:__purecall
	DD	FLAT:?Save@PersistClass@@UAE_NAAVChunkSaveClass@@@Z
	DD	FLAT:?Load@PersistClass@@UAE_NAAVChunkLoadClass@@@Z
CONST	ENDS
;	COMDAT ??_7PostLoadableClass@@6B@
CONST	SEGMENT
??_7PostLoadableClass@@6B@ DD FLAT:??_R4PostLoadableClass@@6B@ ; PostLoadableClass::`vftable'
	DD	FLAT:??_EPostLoadableClass@@UAEPAXI@Z
	DD	FLAT:?On_Post_Load@PostLoadableClass@@UAEXXZ
CONST	ENDS
; Function compile flags: /Odtp /ZI
;	COMDAT ??__F_TDBCategoryPersistFactory@@YAXXZ
text$yd	SEGMENT
??__F_TDBCategoryPersistFactory@@YAXXZ PROC		; `dynamic atexit destructor for '_TDBCategoryPersistFactory'', COMDAT
	push	ebp
	mov	ebp, esp
	sub	esp, 64					; 00000040H
	push	ebx
	push	esi
	push	edi
	mov	ecx, OFFSET ?_TDBCategoryPersistFactory@@3V?$SimplePersistFactoryClass@VTDBCategoryClass@@$0JAAAC@@@A ; _TDBCategoryPersistFactory
	call	??1?$SimplePersistFactoryClass@VTDBCategoryClass@@$0JAAAC@@@UAE@XZ
	pop	edi
	pop	esi
	pop	ebx
	mov	esp, ebp
	pop	ebp
	ret	0
??__F_TDBCategoryPersistFactory@@YAXXZ ENDP		; `dynamic atexit destructor for '_TDBCategoryPersistFactory''
text$yd	ENDS
; Function compile flags: /Odtp /ZI
; File x:\github\renegade\dragonade_rxd\scripts\tdbcategoryclass.cpp
;	COMDAT ??__E_TDBCategoryPersistFactory@@YAXXZ
text$yc	SEGMENT
??__E_TDBCategoryPersistFactory@@YAXXZ PROC		; `dynamic initializer for '_TDBCategoryPersistFactory'', COMDAT

; 15   : SimplePersistFactoryClass<TDBCategoryClass,589826> _TDBCategoryPersistFactory;

	push	ebp
	mov	ebp, esp
	sub	esp, 64					; 00000040H
	push	ebx
	push	esi
	push	edi
	mov	ecx, OFFSET ?_TDBCategoryPersistFactory@@3V?$SimplePersistFactoryClass@VTDBCategoryClass@@$0JAAAC@@@A ; _TDBCategoryPersistFactory
	call	??0?$SimplePersistFactoryClass@VTDBCategoryClass@@$0JAAAC@@@QAE@XZ
	push	OFFSET ??__F_TDBCategoryPersistFactory@@YAXXZ ; `dynamic atexit destructor for '_TDBCategoryPersistFactory''
	call	_atexit
	add	esp, 4
	pop	edi
	pop	esi
	pop	ebx
	mov	esp, ebp
	pop	ebp
	ret	0
??__E_TDBCategoryPersistFactory@@YAXXZ ENDP		; `dynamic initializer for '_TDBCategoryPersistFactory''
text$yc	ENDS
; Function compile flags: /Odtp /ZI
;	COMDAT ??_G?$SimplePersistFactoryClass@VTDBCategoryClass@@$0JAAAC@@@UAEPAXI@Z
_TEXT	SEGMENT
_this$ = -4						; size = 4
___flags$ = 8						; size = 4
??_G?$SimplePersistFactoryClass@VTDBCategoryClass@@$0JAAAC@@@UAEPAXI@Z PROC ; SimplePersistFactoryClass<TDBCategoryClass,589826>::`scalar deleting destructor', COMDAT
; _this$ = ecx
	push	ebp
	mov	ebp, esp
	sub	esp, 68					; 00000044H
	push	ebx
	push	esi
	push	edi
	mov	DWORD PTR _this$[ebp], ecx
	mov	ecx, DWORD PTR _this$[ebp]
	call	??1?$SimplePersistFactoryClass@VTDBCategoryClass@@$0JAAAC@@@UAE@XZ
	mov	eax, DWORD PTR ___flags$[ebp]
	and	eax, 1
	je	SHORT $LN1@scalar
	mov	eax, DWORD PTR _this$[ebp]
	push	eax
	call	??3@YAXPAX@Z				; operator delete
	add	esp, 4
$LN1@scalar:
	mov	eax, DWORD PTR _this$[ebp]
	pop	edi
	pop	esi
	pop	ebx
	mov	esp, ebp
	pop	ebp
	ret	4
??_G?$SimplePersistFactoryClass@VTDBCategoryClass@@$0JAAAC@@@UAEPAXI@Z ENDP ; SimplePersistFactoryClass<TDBCategoryClass,589826>::`scalar deleting destructor'
_TEXT	ENDS
; Function compile flags: /Odtp /ZI
;	COMDAT ??1?$SimplePersistFactoryClass@VTDBCategoryClass@@$0JAAAC@@@UAE@XZ
_TEXT	SEGMENT
_this$ = -4						; size = 4
??1?$SimplePersistFactoryClass@VTDBCategoryClass@@$0JAAAC@@@UAE@XZ PROC ; SimplePersistFactoryClass<TDBCategoryClass,589826>::~SimplePersistFactoryClass<TDBCategoryClass,589826>, COMDAT
; _this$ = ecx
	push	ebp
	mov	ebp, esp
	sub	esp, 68					; 00000044H
	push	ebx
	push	esi
	push	edi
	mov	DWORD PTR _this$[ebp], ecx
	mov	ecx, DWORD PTR _this$[ebp]
	call	??1PersistFactoryClass@@UAE@XZ		; PersistFactoryClass::~PersistFactoryClass
	pop	edi
	pop	esi
	pop	ebx
	mov	esp, ebp
	pop	ebp
	ret	0
??1?$SimplePersistFactoryClass@VTDBCategoryClass@@$0JAAAC@@@UAE@XZ ENDP ; SimplePersistFactoryClass<TDBCategoryClass,589826>::~SimplePersistFactoryClass<TDBCategoryClass,589826>
_TEXT	ENDS
; Function compile flags: /Odtp /ZI
;	COMDAT ??0?$SimplePersistFactoryClass@VTDBCategoryClass@@$0JAAAC@@@QAE@XZ
_TEXT	SEGMENT
_this$ = -4						; size = 4
??0?$SimplePersistFactoryClass@VTDBCategoryClass@@$0JAAAC@@@QAE@XZ PROC ; SimplePersistFactoryClass<TDBCategoryClass,589826>::SimplePersistFactoryClass<TDBCategoryClass,589826>, COMDAT
; _this$ = ecx
	push	ebp
	mov	ebp, esp
	sub	esp, 68					; 00000044H
	push	ebx
	push	esi
	push	edi
	mov	DWORD PTR _this$[ebp], ecx
	mov	ecx, DWORD PTR _this$[ebp]
	call	??0PersistFactoryClass@@QAE@XZ		; PersistFactoryClass::PersistFactoryClass
	mov	eax, DWORD PTR _this$[ebp]
	mov	DWORD PTR [eax], OFFSET ??_7?$SimplePersistFactoryClass@VTDBCategoryClass@@$0JAAAC@@@6B@
	mov	eax, DWORD PTR _this$[ebp]
	pop	edi
	pop	esi
	pop	ebx
	mov	esp, ebp
	pop	ebp
	ret	0
??0?$SimplePersistFactoryClass@VTDBCategoryClass@@$0JAAAC@@@QAE@XZ ENDP ; SimplePersistFactoryClass<TDBCategoryClass,589826>::SimplePersistFactoryClass<TDBCategoryClass,589826>
_TEXT	ENDS
; Function compile flags: /Odtp /ZI
; File x:\github\renegade\dragonade_rxd\scripts\simplepersistfactoryclass.h
;	COMDAT ?Save@?$SimplePersistFactoryClass@VTDBCategoryClass@@$0JAAAC@@@UBEXAAVChunkSaveClass@@PAVPersistClass@@@Z
_TEXT	SEGMENT
_this$ = -4						; size = 4
_xSave$ = 8						; size = 4
_persist$ = 12						; size = 4
?Save@?$SimplePersistFactoryClass@VTDBCategoryClass@@$0JAAAC@@@UBEXAAVChunkSaveClass@@PAVPersistClass@@@Z PROC ; SimplePersistFactoryClass<TDBCategoryClass,589826>::Save, COMDAT
; _this$ = ecx

; 40   : 	{

	push	ebp
	mov	ebp, esp
	sub	esp, 68					; 00000044H
	push	ebx
	push	esi
	push	edi
	mov	DWORD PTR _this$[ebp], ecx

; 41   : 		xSave.Begin_Chunk(0x100100);

	push	1048832					; 00100100H
	mov	ecx, DWORD PTR _xSave$[ebp]
	call	?Begin_Chunk@ChunkSaveClass@@QAE_NK@Z	; ChunkSaveClass::Begin_Chunk

; 42   : 		xSave.Write(&persist,4);

	push	4
	lea	eax, DWORD PTR _persist$[ebp]
	push	eax
	mov	ecx, DWORD PTR _xSave$[ebp]
	call	?Write@ChunkSaveClass@@QAEKPAXK@Z	; ChunkSaveClass::Write

; 43   : 		xSave.End_Chunk();

	mov	ecx, DWORD PTR _xSave$[ebp]
	call	?End_Chunk@ChunkSaveClass@@QAE_NXZ	; ChunkSaveClass::End_Chunk

; 44   : 		xSave.Begin_Chunk(0x100101);

	push	1048833					; 00100101H
	mov	ecx, DWORD PTR _xSave$[ebp]
	call	?Begin_Chunk@ChunkSaveClass@@QAE_NK@Z	; ChunkSaveClass::Begin_Chunk

; 45   : 		persist->Save(xSave);

	mov	eax, DWORD PTR _xSave$[ebp]
	push	eax
	mov	ecx, DWORD PTR _persist$[ebp]
	mov	edx, DWORD PTR [ecx]
	mov	ecx, DWORD PTR _persist$[ebp]
	mov	eax, DWORD PTR [edx+12]
	call	eax

; 46   : 		xSave.End_Chunk();

	mov	ecx, DWORD PTR _xSave$[ebp]
	call	?End_Chunk@ChunkSaveClass@@QAE_NXZ	; ChunkSaveClass::End_Chunk

; 47   : 	}

	pop	edi
	pop	esi
	pop	ebx
	mov	esp, ebp
	pop	ebp
	ret	8
?Save@?$SimplePersistFactoryClass@VTDBCategoryClass@@$0JAAAC@@@UBEXAAVChunkSaveClass@@PAVPersistClass@@@Z ENDP ; SimplePersistFactoryClass<TDBCategoryClass,589826>::Save
_TEXT	ENDS
; Function compile flags: /Odtp /ZI
; File x:\github\renegade\dragonade_rxd\scripts\simplepersistfactoryclass.h
;	COMDAT ?Load@?$SimplePersistFactoryClass@VTDBCategoryClass@@$0JAAAC@@@UBEPAVPersistClass@@AAVChunkLoadClass@@@Z
_TEXT	SEGMENT
tv77 = -88						; size = 4
tv79 = -84						; size = 4
$T1 = -80						; size = 4
_pointer$ = -12						; size = 4
_newobj$ = -8						; size = 4
_this$ = -4						; size = 4
_xLoad$ = 8						; size = 4
?Load@?$SimplePersistFactoryClass@VTDBCategoryClass@@$0JAAAC@@@UBEPAVPersistClass@@AAVChunkLoadClass@@@Z PROC ; SimplePersistFactoryClass<TDBCategoryClass,589826>::Load, COMDAT
; _this$ = ecx

; 27   : 	{

	push	ebp
	mov	ebp, esp
	sub	esp, 88					; 00000058H
	push	ebx
	push	esi
	push	edi
	mov	DWORD PTR _this$[ebp], ecx

; 28   : 		T *newobj = new T;

	push	OFFSET ??_C@_0DP@FBPMAOHF@SimplePersistFactoryClass?$DMclass?5@
	push	28					; 0000001cH
	push	OFFSET ??_C@_0EF@BPIDEJHJ@x?3?2github?2renegade?2dragonade_rxd@
	call	?SetThreadTrackingInformation@@YAXPBDI0@Z ; SetThreadTrackingInformation
	add	esp, 12					; 0000000cH
	xor	eax, eax
	je	SHORT $LN6@Load
	xor	ecx, ecx
	jne	SHORT $LN3@Load
	push	28					; 0000001cH
	push	OFFSET ??_C@_1IK@JLMLKCKA@?$AAx?$AA?3?$AA?2?$AAg?$AAi?$AAt?$AAh?$AAu?$AAb?$AA?2?$AAr?$AAe?$AAn?$AAe?$AAg?$AAa?$AAd?$AAe?$AA?2?$AAd?$AAr?$AAa?$AAg?$AAo?$AAn?$AAa?$AAd?$AAe?$AA_?$AAr?$AAx?$AAd@
	push	OFFSET ??_C@_1M@HLGKFCJM@?$AAf?$AAa?$AAl?$AAs?$AAe?$AA?$AA@
	call	DWORD PTR __imp___wassert
	add	esp, 12					; 0000000cH
$LN3@Load:
	mov	DWORD PTR tv79[ebp], 0
	jmp	SHORT $LN7@Load
$LN6@Load:
	push	16					; 00000010H
	call	??2@YAPAXI@Z				; operator new
	add	esp, 4
	mov	DWORD PTR $T1[ebp], eax
	cmp	DWORD PTR $T1[ebp], 0
	je	SHORT $LN4@Load
	mov	ecx, DWORD PTR $T1[ebp]
	call	??0TDBCategoryClass@@QAE@XZ		; TDBCategoryClass::TDBCategoryClass
	mov	DWORD PTR tv77[ebp], eax
	jmp	SHORT $LN5@Load
$LN4@Load:
	mov	DWORD PTR tv77[ebp], 0
$LN5@Load:
	mov	eax, DWORD PTR tv77[ebp]
	mov	DWORD PTR tv79[ebp], eax
$LN7@Load:
	mov	ecx, DWORD PTR tv79[ebp]
	mov	DWORD PTR _newobj$[ebp], ecx

; 29   : 		void *pointer;
; 30   : 		xLoad.Open_Chunk();

	mov	ecx, DWORD PTR _xLoad$[ebp]
	call	?Open_Chunk@ChunkLoadClass@@QAE_NXZ	; ChunkLoadClass::Open_Chunk

; 31   : 		xLoad.Read(&pointer,4);

	push	4
	lea	eax, DWORD PTR _pointer$[ebp]
	push	eax
	mov	ecx, DWORD PTR _xLoad$[ebp]
	call	?Read@ChunkLoadClass@@QAEJPAXK@Z	; ChunkLoadClass::Read

; 32   : 		xLoad.Close_Chunk();

	mov	ecx, DWORD PTR _xLoad$[ebp]
	call	?Close_Chunk@ChunkLoadClass@@QAE_NXZ	; ChunkLoadClass::Close_Chunk

; 33   : 		xLoad.Open_Chunk();

	mov	ecx, DWORD PTR _xLoad$[ebp]
	call	?Open_Chunk@ChunkLoadClass@@QAE_NXZ	; ChunkLoadClass::Open_Chunk

; 34   : 		newobj->Load(xLoad);

	mov	eax, DWORD PTR _xLoad$[ebp]
	push	eax
	mov	ecx, DWORD PTR _newobj$[ebp]
	mov	edx, DWORD PTR [ecx]
	mov	ecx, DWORD PTR _newobj$[ebp]
	mov	eax, DWORD PTR [edx+16]
	call	eax

; 35   : 		xLoad.Close_Chunk();

	mov	ecx, DWORD PTR _xLoad$[ebp]
	call	?Close_Chunk@ChunkLoadClass@@QAE_NXZ	; ChunkLoadClass::Close_Chunk

; 36   : 		SaveLoadSystemClass::Register_Pointer(pointer,newobj);

	mov	eax, DWORD PTR _newobj$[ebp]
	push	eax
	mov	ecx, DWORD PTR _pointer$[ebp]
	push	ecx
	call	?Register_Pointer@SaveLoadSystemClass@@SAXPAX0@Z ; SaveLoadSystemClass::Register_Pointer
	add	esp, 8

; 37   : 		return newobj;

	mov	eax, DWORD PTR _newobj$[ebp]

; 38   : 	}

	pop	edi
	pop	esi
	pop	ebx
	mov	esp, ebp
	pop	ebp
	ret	4
?Load@?$SimplePersistFactoryClass@VTDBCategoryClass@@$0JAAAC@@@UBEPAVPersistClass@@AAVChunkLoadClass@@@Z ENDP ; SimplePersistFactoryClass<TDBCategoryClass,589826>::Load
_TEXT	ENDS
; Function compile flags: /Odtp /ZI
; File x:\github\renegade\dragonade_rxd\scripts\simplepersistfactoryclass.h
;	COMDAT ?Chunk_ID@?$SimplePersistFactoryClass@VTDBCategoryClass@@$0JAAAC@@@UBEIXZ
_TEXT	SEGMENT
_this$ = -4						; size = 4
?Chunk_ID@?$SimplePersistFactoryClass@VTDBCategoryClass@@$0JAAAC@@@UBEIXZ PROC ; SimplePersistFactoryClass<TDBCategoryClass,589826>::Chunk_ID, COMDAT
; _this$ = ecx

; 23   : 	{

	push	ebp
	mov	ebp, esp
	sub	esp, 68					; 00000044H
	push	ebx
	push	esi
	push	edi
	mov	DWORD PTR _this$[ebp], ecx

; 24   : 		return I;

	mov	eax, 589826				; 00090002H

; 25   : 	}

	pop	edi
	pop	esi
	pop	ebx
	mov	esp, ebp
	pop	ebp
	ret	0
?Chunk_ID@?$SimplePersistFactoryClass@VTDBCategoryClass@@$0JAAAC@@@UBEIXZ ENDP ; SimplePersistFactoryClass<TDBCategoryClass,589826>::Chunk_ID
_TEXT	ENDS
; Function compile flags: /Odtp /ZI
;	COMDAT ??_GTDBCategoryClass@@UAEPAXI@Z
_TEXT	SEGMENT
_this$ = -4						; size = 4
___flags$ = 8						; size = 4
??_GTDBCategoryClass@@UAEPAXI@Z PROC			; TDBCategoryClass::`scalar deleting destructor', COMDAT
; _this$ = ecx
	push	ebp
	mov	ebp, esp
	sub	esp, 68					; 00000044H
	push	ebx
	push	esi
	push	edi
	mov	DWORD PTR _this$[ebp], ecx
	mov	ecx, DWORD PTR _this$[ebp]
	call	??1TDBCategoryClass@@UAE@XZ		; TDBCategoryClass::~TDBCategoryClass
	mov	eax, DWORD PTR ___flags$[ebp]
	and	eax, 1
	je	SHORT $LN1@scalar
	mov	eax, DWORD PTR _this$[ebp]
	push	eax
	call	??3@YAXPAX@Z				; operator delete
	add	esp, 4
$LN1@scalar:
	mov	eax, DWORD PTR _this$[ebp]
	pop	edi
	pop	esi
	pop	ebx
	mov	esp, ebp
	pop	ebp
	ret	4
??_GTDBCategoryClass@@UAEPAXI@Z ENDP			; TDBCategoryClass::`scalar deleting destructor'
_TEXT	ENDS
; Function compile flags: /Odtp /ZI
; File x:\github\renegade\dragonade_rxd\scripts\tdbcategoryclass.cpp
;	COMDAT ?Load_Variables@TDBCategoryClass@@IAEXAAVChunkLoadClass@@@Z
_TEXT	SEGMENT
tv70 = -72						; size = 4
_this$ = -4						; size = 4
_cload$ = 8						; size = 4
?Load_Variables@TDBCategoryClass@@IAEXAAVChunkLoadClass@@@Z PROC ; TDBCategoryClass::Load_Variables, COMDAT
; _this$ = ecx

; 74   : {

	push	ebp
	mov	ebp, esp
	sub	esp, 72					; 00000048H
	push	ebx
	push	esi
	push	edi
	mov	DWORD PTR _this$[ebp], ecx
$LN7@Load_Varia:

; 75   : 	while (cload.Open_Micro_Chunk ())

	mov	ecx, DWORD PTR _cload$[ebp]
	call	?Open_Micro_Chunk@ChunkLoadClass@@QAE_NXZ ; ChunkLoadClass::Open_Micro_Chunk
	movzx	eax, al
	test	eax, eax
	je	SHORT $LN8@Load_Varia

; 76   : 	{
; 77   : 		switch (cload.Cur_Micro_Chunk_ID ())

	mov	ecx, DWORD PTR _cload$[ebp]
	call	?Cur_Micro_Chunk_ID@ChunkLoadClass@@QAEKXZ ; ChunkLoadClass::Cur_Micro_Chunk_ID
	mov	DWORD PTR tv70[ebp], eax
	cmp	DWORD PTR tv70[ebp], 1
	je	SHORT $LN3@Load_Varia
	cmp	DWORD PTR tv70[ebp], 2
	je	SHORT $LN2@Load_Varia
	jmp	SHORT $LN4@Load_Varia
$LN3@Load_Varia:

; 78   : 		{
; 79   : 			READ_MICRO_CHUNK (cload, 1,	ID);

	push	4
	mov	eax, DWORD PTR _this$[ebp]
	add	eax, 12					; 0000000cH
	push	eax
	mov	ecx, DWORD PTR _cload$[ebp]
	call	?Read@ChunkLoadClass@@QAEJPAXK@Z	; ChunkLoadClass::Read
	jmp	SHORT $LN4@Load_Varia
$LN2@Load_Varia:

; 80   : 			READ_MICRO_CHUNK_WWSTRING (cload, 2, Name);

	mov	ecx, DWORD PTR _cload$[ebp]
	call	?Cur_Micro_Chunk_Length@ChunkLoadClass@@QAEKXZ ; ChunkLoadClass::Cur_Micro_Chunk_Length
	push	eax
	mov	ecx, DWORD PTR _cload$[ebp]
	call	?Cur_Micro_Chunk_Length@ChunkLoadClass@@QAEKXZ ; ChunkLoadClass::Cur_Micro_Chunk_Length
	push	eax
	mov	ecx, DWORD PTR _this$[ebp]
	add	ecx, 8
	call	?Get_Buffer@StringClass@@QAEPADH@Z	; StringClass::Get_Buffer
	push	eax
	mov	ecx, DWORD PTR _cload$[ebp]
	call	?Read@ChunkLoadClass@@QAEJPAXK@Z	; ChunkLoadClass::Read
$LN4@Load_Varia:

; 81   : 			default:
; 82   : 				break;
; 83   : 		}
; 84   : 		cload.Close_Micro_Chunk();

	mov	ecx, DWORD PTR _cload$[ebp]
	call	?Close_Micro_Chunk@ChunkLoadClass@@QAE_NXZ ; ChunkLoadClass::Close_Micro_Chunk

; 85   : 	}

	jmp	SHORT $LN7@Load_Varia
$LN8@Load_Varia:

; 86   : }

	pop	edi
	pop	esi
	pop	ebx
	mov	esp, ebp
	pop	ebp
	ret	4
?Load_Variables@TDBCategoryClass@@IAEXAAVChunkLoadClass@@@Z ENDP ; TDBCategoryClass::Load_Variables
_TEXT	ENDS
; Function compile flags: /Odtp /ZI
; File x:\github\renegade\dragonade_rxd\scripts\tdbcategoryclass.cpp
;	COMDAT ?Save_Variables@TDBCategoryClass@@IAEXAAVChunkSaveClass@@@Z
_TEXT	SEGMENT
_this$ = -4						; size = 4
_csave$ = 8						; size = 4
?Save_Variables@TDBCategoryClass@@IAEXAAVChunkSaveClass@@@Z PROC ; TDBCategoryClass::Save_Variables, COMDAT
; _this$ = ecx

; 68   : {

	push	ebp
	mov	ebp, esp
	sub	esp, 68					; 00000044H
	push	ebx
	push	esi
	push	edi
	mov	DWORD PTR _this$[ebp], ecx

; 69   : 	WRITE_MICRO_CHUNK(csave,1,ID);

	push	1
	mov	ecx, DWORD PTR _csave$[ebp]
	call	?Begin_Micro_Chunk@ChunkSaveClass@@QAE_NK@Z ; ChunkSaveClass::Begin_Micro_Chunk
	push	4
	mov	eax, DWORD PTR _this$[ebp]
	add	eax, 12					; 0000000cH
	push	eax
	mov	ecx, DWORD PTR _csave$[ebp]
	call	?Write@ChunkSaveClass@@QAEKPAXK@Z	; ChunkSaveClass::Write
	mov	ecx, DWORD PTR _csave$[ebp]
	call	?End_Micro_Chunk@ChunkSaveClass@@QAE_NXZ ; ChunkSaveClass::End_Micro_Chunk

; 70   : 	WRITE_MICRO_CHUNK_WWSTRING(csave,2,Name);

	push	2
	mov	ecx, DWORD PTR _csave$[ebp]
	call	?Begin_Micro_Chunk@ChunkSaveClass@@QAE_NK@Z ; ChunkSaveClass::Begin_Micro_Chunk
	mov	ecx, DWORD PTR _this$[ebp]
	add	ecx, 8
	call	?Get_Length@StringClass@@QBEHXZ		; StringClass::Get_Length
	add	eax, 1
	push	eax
	mov	ecx, DWORD PTR _this$[ebp]
	add	ecx, 8
	call	?Peek_Buffer@StringClass@@QAEPADXZ	; StringClass::Peek_Buffer
	push	eax
	mov	ecx, DWORD PTR _csave$[ebp]
	call	?Write@ChunkSaveClass@@QAEKPAXK@Z	; ChunkSaveClass::Write
	mov	ecx, DWORD PTR _csave$[ebp]
	call	?End_Micro_Chunk@ChunkSaveClass@@QAE_NXZ ; ChunkSaveClass::End_Micro_Chunk

; 71   : }

	pop	edi
	pop	esi
	pop	ebx
	mov	esp, ebp
	pop	ebp
	ret	4
?Save_Variables@TDBCategoryClass@@IAEXAAVChunkSaveClass@@@Z ENDP ; TDBCategoryClass::Save_Variables
_TEXT	ENDS
; Function compile flags: /Odtp /ZI
; File x:\github\renegade\dragonade_rxd\scripts\tdbcategoryclass.cpp
;	COMDAT ?Load@TDBCategoryClass@@UAE_NAAVChunkLoadClass@@@Z
_TEXT	SEGMENT
tv70 = -72						; size = 4
_this$ = -4						; size = 4
_cload$ = 8						; size = 4
?Load@TDBCategoryClass@@UAE_NAAVChunkLoadClass@@@Z PROC	; TDBCategoryClass::Load, COMDAT
; _this$ = ecx

; 53   : {

	push	ebp
	mov	ebp, esp
	sub	esp, 72					; 00000048H
	push	ebx
	push	esi
	push	edi
	mov	DWORD PTR _this$[ebp], ecx
$LN5@Load:

; 54   : 	while (cload.Open_Chunk())

	mov	ecx, DWORD PTR _cload$[ebp]
	call	?Open_Chunk@ChunkLoadClass@@QAE_NXZ	; ChunkLoadClass::Open_Chunk
	movzx	eax, al
	test	eax, eax
	je	SHORT $LN4@Load

; 55   : 	{
; 56   : 		switch(cload.Cur_Chunk_ID()) 

	mov	ecx, DWORD PTR _cload$[ebp]
	call	?Cur_Chunk_ID@ChunkLoadClass@@QAEKXZ	; ChunkLoadClass::Cur_Chunk_ID
	mov	DWORD PTR tv70[ebp], eax
	cmp	DWORD PTR tv70[ebp], 287445026		; 11221022H
	je	SHORT $LN1@Load
	jmp	SHORT $LN2@Load
$LN1@Load:

; 57   : 		{
; 58   : 			case 0x11221022:
; 59   : 				Load_Variables(cload);

	mov	eax, DWORD PTR _cload$[ebp]
	push	eax
	mov	ecx, DWORD PTR _this$[ebp]
	call	?Load_Variables@TDBCategoryClass@@IAEXAAVChunkLoadClass@@@Z ; TDBCategoryClass::Load_Variables
$LN2@Load:

; 60   : 				break;
; 61   : 		}
; 62   : 		cload.Close_Chunk();

	mov	ecx, DWORD PTR _cload$[ebp]
	call	?Close_Chunk@ChunkLoadClass@@QAE_NXZ	; ChunkLoadClass::Close_Chunk

; 63   : 	}

	jmp	SHORT $LN5@Load
$LN4@Load:

; 64   : 	return true;

	mov	al, 1

; 65   : }

	pop	edi
	pop	esi
	pop	ebx
	mov	esp, ebp
	pop	ebp
	ret	4
?Load@TDBCategoryClass@@UAE_NAAVChunkLoadClass@@@Z ENDP	; TDBCategoryClass::Load
_TEXT	ENDS
; Function compile flags: /Odtp /ZI
; File x:\github\renegade\dragonade_rxd\scripts\tdbcategoryclass.cpp
;	COMDAT ?Save@TDBCategoryClass@@UAE_NAAVChunkSaveClass@@@Z
_TEXT	SEGMENT
_this$ = -4						; size = 4
_csave$ = 8						; size = 4
?Save@TDBCategoryClass@@UAE_NAAVChunkSaveClass@@@Z PROC	; TDBCategoryClass::Save, COMDAT
; _this$ = ecx

; 43   : {

	push	ebp
	mov	ebp, esp
	sub	esp, 68					; 00000044H
	push	ebx
	push	esi
	push	edi
	mov	DWORD PTR _this$[ebp], ecx

; 44   : 	csave.Begin_Chunk(0x11221023);

	push	287445027				; 11221023H
	mov	ecx, DWORD PTR _csave$[ebp]
	call	?Begin_Chunk@ChunkSaveClass@@QAE_NK@Z	; ChunkSaveClass::Begin_Chunk

; 45   : 	csave.End_Chunk();

	mov	ecx, DWORD PTR _csave$[ebp]
	call	?End_Chunk@ChunkSaveClass@@QAE_NXZ	; ChunkSaveClass::End_Chunk

; 46   : 	csave.Begin_Chunk(0x11221022);

	push	287445026				; 11221022H
	mov	ecx, DWORD PTR _csave$[ebp]
	call	?Begin_Chunk@ChunkSaveClass@@QAE_NK@Z	; ChunkSaveClass::Begin_Chunk

; 47   : 	Save_Variables(csave);

	mov	eax, DWORD PTR _csave$[ebp]
	push	eax
	mov	ecx, DWORD PTR _this$[ebp]
	call	?Save_Variables@TDBCategoryClass@@IAEXAAVChunkSaveClass@@@Z ; TDBCategoryClass::Save_Variables

; 48   : 	csave.End_Chunk();

	mov	ecx, DWORD PTR _csave$[ebp]
	call	?End_Chunk@ChunkSaveClass@@QAE_NXZ	; ChunkSaveClass::End_Chunk

; 49   : 	return true;

	mov	al, 1

; 50   : }

	pop	edi
	pop	esi
	pop	ebx
	mov	esp, ebp
	pop	ebp
	ret	4
?Save@TDBCategoryClass@@UAE_NAAVChunkSaveClass@@@Z ENDP	; TDBCategoryClass::Save
_TEXT	ENDS
; Function compile flags: /Odtp /ZI
; File x:\github\renegade\dragonade_rxd\scripts\tdbcategoryclass.cpp
;	COMDAT ?Get_Factory@TDBCategoryClass@@UBEABVPersistFactoryClass@@XZ
_TEXT	SEGMENT
_this$ = -4						; size = 4
?Get_Factory@TDBCategoryClass@@UBEABVPersistFactoryClass@@XZ PROC ; TDBCategoryClass::Get_Factory, COMDAT
; _this$ = ecx

; 38   : {

	push	ebp
	mov	ebp, esp
	sub	esp, 68					; 00000044H
	push	ebx
	push	esi
	push	edi
	mov	DWORD PTR _this$[ebp], ecx

; 39   : 	return _TDBCategoryPersistFactory;

	mov	eax, OFFSET ?_TDBCategoryPersistFactory@@3V?$SimplePersistFactoryClass@VTDBCategoryClass@@$0JAAAC@@@A ; _TDBCategoryPersistFactory

; 40   : }

	pop	edi
	pop	esi
	pop	ebx
	mov	esp, ebp
	pop	ebp
	ret	0
?Get_Factory@TDBCategoryClass@@UBEABVPersistFactoryClass@@XZ ENDP ; TDBCategoryClass::Get_Factory
_TEXT	ENDS
; Function compile flags: /Odtp /ZI
; File x:\github\renegade\dragonade_rxd\scripts\tdbcategoryclass.cpp
;	COMDAT ??4TDBCategoryClass@@QAEABV0@ABV0@@Z
_TEXT	SEGMENT
_this$ = -4						; size = 4
_src$ = 8						; size = 4
??4TDBCategoryClass@@QAEABV0@ABV0@@Z PROC		; TDBCategoryClass::operator=, COMDAT
; _this$ = ecx

; 31   : {

	push	ebp
	mov	ebp, esp
	sub	esp, 68					; 00000044H
	push	ebx
	push	esi
	push	edi
	mov	DWORD PTR _this$[ebp], ecx

; 32   : 	ID = src.ID;

	mov	eax, DWORD PTR _this$[ebp]
	mov	ecx, DWORD PTR _src$[ebp]
	mov	edx, DWORD PTR [ecx+12]
	mov	DWORD PTR [eax+12], edx

; 33   : 	Name = src.Name;

	mov	eax, DWORD PTR _src$[ebp]
	add	eax, 8
	push	eax
	mov	ecx, DWORD PTR _this$[ebp]
	add	ecx, 8
	call	??4StringClass@@QAEABV0@ABV0@@Z		; StringClass::operator=

; 34   : 	return *this;

	mov	eax, DWORD PTR _this$[ebp]

; 35   : }

	pop	edi
	pop	esi
	pop	ebx
	mov	esp, ebp
	pop	ebp
	ret	4
??4TDBCategoryClass@@QAEABV0@ABV0@@Z ENDP		; TDBCategoryClass::operator=
_TEXT	ENDS
; Function compile flags: /Odtp /ZI
; File x:\github\renegade\dragonade_rxd\scripts\tdbcategoryclass.cpp
;	COMDAT ??1TDBCategoryClass@@UAE@XZ
_TEXT	SEGMENT
_this$ = -4						; size = 4
??1TDBCategoryClass@@UAE@XZ PROC			; TDBCategoryClass::~TDBCategoryClass, COMDAT
; _this$ = ecx

; 27   : {

	push	ebp
	mov	ebp, esp
	sub	esp, 68					; 00000044H
	push	ebx
	push	esi
	push	edi
	mov	DWORD PTR _this$[ebp], ecx
	mov	eax, DWORD PTR _this$[ebp]
	mov	DWORD PTR [eax], OFFSET ??_7TDBCategoryClass@@6B@

; 28   : }

	mov	ecx, DWORD PTR _this$[ebp]
	add	ecx, 8
	call	??1StringClass@@QAE@XZ			; StringClass::~StringClass
	mov	ecx, DWORD PTR _this$[ebp]
	call	??1PersistClass@@UAE@XZ
	pop	edi
	pop	esi
	pop	ebx
	mov	esp, ebp
	pop	ebp
	ret	0
??1TDBCategoryClass@@UAE@XZ ENDP			; TDBCategoryClass::~TDBCategoryClass
_TEXT	ENDS
; Function compile flags: /Odtp /ZI
; File x:\github\renegade\dragonade_rxd\scripts\tdbcategoryclass.cpp
;	COMDAT ??0TDBCategoryClass@@QAE@ABV0@@Z
_TEXT	SEGMENT
_this$ = -4						; size = 4
_src$ = 8						; size = 4
??0TDBCategoryClass@@QAE@ABV0@@Z PROC			; TDBCategoryClass::TDBCategoryClass, COMDAT
; _this$ = ecx

; 22   : {

	push	ebp
	mov	ebp, esp
	sub	esp, 68					; 00000044H
	push	ebx
	push	esi
	push	edi
	mov	DWORD PTR _this$[ebp], ecx
	mov	ecx, DWORD PTR _this$[ebp]
	call	??0PersistClass@@QAE@XZ
	mov	eax, DWORD PTR _this$[ebp]
	mov	DWORD PTR [eax], OFFSET ??_7TDBCategoryClass@@6B@
	push	0
	push	0
	mov	ecx, DWORD PTR _this$[ebp]
	add	ecx, 8
	call	??0StringClass@@QAE@H_N@Z		; StringClass::StringClass
	mov	eax, DWORD PTR _this$[ebp]
	mov	DWORD PTR [eax+12], 0

; 23   : 	*this = src;

	mov	eax, DWORD PTR _src$[ebp]
	push	eax
	mov	ecx, DWORD PTR _this$[ebp]
	call	??4TDBCategoryClass@@QAEABV0@ABV0@@Z	; TDBCategoryClass::operator=

; 24   : }

	mov	eax, DWORD PTR _this$[ebp]
	pop	edi
	pop	esi
	pop	ebx
	mov	esp, ebp
	pop	ebp
	ret	4
??0TDBCategoryClass@@QAE@ABV0@@Z ENDP			; TDBCategoryClass::TDBCategoryClass
_TEXT	ENDS
; Function compile flags: /Odtp /ZI
; File x:\github\renegade\dragonade_rxd\scripts\tdbcategoryclass.cpp
;	COMDAT ??0TDBCategoryClass@@QAE@XZ
_TEXT	SEGMENT
_this$ = -4						; size = 4
??0TDBCategoryClass@@QAE@XZ PROC			; TDBCategoryClass::TDBCategoryClass, COMDAT
; _this$ = ecx

; 18   : {

	push	ebp
	mov	ebp, esp
	sub	esp, 68					; 00000044H
	push	ebx
	push	esi
	push	edi
	mov	DWORD PTR _this$[ebp], ecx
	mov	ecx, DWORD PTR _this$[ebp]
	call	??0PersistClass@@QAE@XZ
	mov	eax, DWORD PTR _this$[ebp]
	mov	DWORD PTR [eax], OFFSET ??_7TDBCategoryClass@@6B@
	push	0
	push	0
	mov	ecx, DWORD PTR _this$[ebp]
	add	ecx, 8
	call	??0StringClass@@QAE@H_N@Z		; StringClass::StringClass
	mov	eax, DWORD PTR _this$[ebp]
	mov	DWORD PTR [eax+12], 0

; 19   : }

	mov	eax, DWORD PTR _this$[ebp]
	pop	edi
	pop	esi
	pop	ebx
	mov	esp, ebp
	pop	ebp
	ret	0
??0TDBCategoryClass@@QAE@XZ ENDP			; TDBCategoryClass::TDBCategoryClass
_TEXT	ENDS
; Function compile flags: /Odtp /ZI
; File x:\github\renegade\dragonade_rxd\scripts\engine_string.h
;	COMDAT ?Get_Header@StringClass@@ABEPAU_HEADER@1@XZ
_TEXT	SEGMENT
_this$ = -4						; size = 4
?Get_Header@StringClass@@ABEPAU_HEADER@1@XZ PROC	; StringClass::Get_Header, COMDAT
; _this$ = ecx

; 568  : {

	push	ebp
	mov	ebp, esp
	sub	esp, 68					; 00000044H
	push	ebx
	push	esi
	push	edi
	mov	DWORD PTR _this$[ebp], ecx

; 569  : 	return reinterpret_cast<HEADER *>(((char *)m_Buffer) - sizeof (StringClass::_HEADER));

	mov	eax, DWORD PTR _this$[ebp]
	mov	eax, DWORD PTR [eax]
	sub	eax, 8

; 570  : }

	pop	edi
	pop	esi
	pop	ebx
	mov	esp, ebp
	pop	ebp
	ret	0
?Get_Header@StringClass@@ABEPAU_HEADER@1@XZ ENDP	; StringClass::Get_Header
_TEXT	ENDS
; Function compile flags: /Odtp /ZI
; File x:\github\renegade\dragonade_rxd\scripts\engine_string.h
;	COMDAT ?Store_Length@StringClass@@AAEXH@Z
_TEXT	SEGMENT
_header$1 = -8						; size = 4
_this$ = -4						; size = 4
_length$ = 8						; size = 4
?Store_Length@StringClass@@AAEXH@Z PROC			; StringClass::Store_Length, COMDAT
; _this$ = ecx

; 582  : {

	push	ebp
	mov	ebp, esp
	sub	esp, 72					; 00000048H
	push	ebx
	push	esi
	push	edi
	mov	DWORD PTR _this$[ebp], ecx

; 583  : 	if (m_Buffer != m_EmptyString)

	mov	eax, DWORD PTR _this$[ebp]
	mov	ecx, DWORD PTR ?m_EmptyString@StringClass@@0AAPADA ; StringClass::m_EmptyString
	mov	edx, DWORD PTR [eax]
	cmp	edx, DWORD PTR [ecx]
	je	SHORT $LN2@Store_Leng

; 584  : 	{
; 585  : 		HEADER *header = Get_Header();

	mov	ecx, DWORD PTR _this$[ebp]
	call	?Get_Header@StringClass@@ABEPAU_HEADER@1@XZ ; StringClass::Get_Header
	mov	DWORD PTR _header$1[ebp], eax

; 586  : 		header->length = length;

	mov	eax, DWORD PTR _header$1[ebp]
	mov	ecx, DWORD PTR _length$[ebp]
	mov	DWORD PTR [eax+4], ecx
$LN2@Store_Leng:

; 587  : 	}
; 588  : }

	pop	edi
	pop	esi
	pop	ebx
	mov	esp, ebp
	pop	ebp
	ret	4
?Store_Length@StringClass@@AAEXH@Z ENDP			; StringClass::Store_Length
_TEXT	ENDS
; Function compile flags: /Odtp /ZI
; File x:\github\renegade\dragonade_rxd\scripts\engine_string.h
;	COMDAT ?Peek_Buffer@StringClass@@QAEPADXZ
_TEXT	SEGMENT
_this$ = -4						; size = 4
?Peek_Buffer@StringClass@@QAEPADXZ PROC			; StringClass::Peek_Buffer, COMDAT
; _this$ = ecx

; 475  : {

	push	ebp
	mov	ebp, esp
	sub	esp, 68					; 00000044H
	push	ebx
	push	esi
	push	edi
	mov	DWORD PTR _this$[ebp], ecx

; 476  : 	return m_Buffer;

	mov	eax, DWORD PTR _this$[ebp]
	mov	eax, DWORD PTR [eax]

; 477  : }

	pop	edi
	pop	esi
	pop	ebx
	mov	esp, ebp
	pop	ebp
	ret	0
?Peek_Buffer@StringClass@@QAEPADXZ ENDP			; StringClass::Peek_Buffer
_TEXT	ENDS
; Function compile flags: /Odtp /ZI
; File x:\github\renegade\dragonade_rxd\scripts\engine_string.h
;	COMDAT ?Get_Buffer@StringClass@@QAEPADH@Z
_TEXT	SEGMENT
_this$ = -4						; size = 4
_new_length$ = 8					; size = 4
?Get_Buffer@StringClass@@QAEPADH@Z PROC			; StringClass::Get_Buffer, COMDAT
; _this$ = ecx

; 469  : {

	push	ebp
	mov	ebp, esp
	sub	esp, 68					; 00000044H
	push	ebx
	push	esi
	push	edi
	mov	DWORD PTR _this$[ebp], ecx

; 470  : 	Uninitialised_Grow (new_length);

	mov	eax, DWORD PTR _new_length$[ebp]
	push	eax
	mov	ecx, DWORD PTR _this$[ebp]
	call	?Uninitialised_Grow@StringClass@@AAEXH@Z ; StringClass::Uninitialised_Grow

; 471  : 	return m_Buffer;

	mov	eax, DWORD PTR _this$[ebp]
	mov	eax, DWORD PTR [eax]

; 472  : }

	pop	edi
	pop	esi
	pop	ebx
	mov	esp, ebp
	pop	ebp
	ret	4
?Get_Buffer@StringClass@@QAEPADH@Z ENDP			; StringClass::Get_Buffer
_TEXT	ENDS
; Function compile flags: /Odtp /ZI
; File x:\github\renegade\dragonade_rxd\scripts\engine_string.h
;	COMDAT ?Get_Length@StringClass@@QBEHXZ
_TEXT	SEGMENT
tv73 = -92						; size = 4
tv90 = -85						; size = 1
tv87 = -84						; size = 4
tv84 = -80						; size = 4
_header$1 = -12						; size = 4
_length$ = -8						; size = 4
_this$ = -4						; size = 4
?Get_Length@StringClass@@QBEHXZ PROC			; StringClass::Get_Length, COMDAT
; _this$ = ecx

; 532  : {

	push	ebp
	mov	ebp, esp
	sub	esp, 92					; 0000005cH
	push	ebx
	push	esi
	push	edi
	mov	DWORD PTR _this$[ebp], ecx

; 533  : 	int length = 0;

	mov	DWORD PTR _length$[ebp], 0

; 534  : 	if (m_Buffer != m_EmptyString)

	mov	eax, DWORD PTR _this$[ebp]
	mov	ecx, DWORD PTR ?m_EmptyString@StringClass@@0AAPADA ; StringClass::m_EmptyString
	mov	edx, DWORD PTR [eax]
	cmp	edx, DWORD PTR [ecx]
	je	SHORT $LN2@Get_Length

; 535  : 	{
; 536  : 		HEADER *header = Get_Header ();

	mov	ecx, DWORD PTR _this$[ebp]
	call	?Get_Header@StringClass@@ABEPAU_HEADER@1@XZ ; StringClass::Get_Header
	mov	DWORD PTR _header$1[ebp], eax

; 537  : 		length = header->length;

	mov	eax, DWORD PTR _header$1[ebp]
	mov	ecx, DWORD PTR [eax+4]
	mov	DWORD PTR _length$[ebp], ecx

; 538  : 		if (length == 0)

	cmp	DWORD PTR _length$[ebp], 0
	jne	SHORT $LN2@Get_Length

; 539  : 		{
; 540  : 			length = (int)strlen (m_Buffer);

	mov	eax, DWORD PTR _this$[ebp]
	mov	ecx, DWORD PTR [eax]
	mov	DWORD PTR tv84[ebp], ecx
	mov	edx, DWORD PTR tv84[ebp]
	add	edx, 1
	mov	DWORD PTR tv87[ebp], edx
$LL5@Get_Length:
	mov	eax, DWORD PTR tv84[ebp]
	mov	cl, BYTE PTR [eax]
	mov	BYTE PTR tv90[ebp], cl
	add	DWORD PTR tv84[ebp], 1
	cmp	BYTE PTR tv90[ebp], 0
	jne	SHORT $LL5@Get_Length
	mov	edx, DWORD PTR tv84[ebp]
	sub	edx, DWORD PTR tv87[ebp]
	mov	DWORD PTR tv73[ebp], edx
	mov	eax, DWORD PTR tv73[ebp]
	mov	DWORD PTR _length$[ebp], eax

; 541  : 			((StringClass *)this)->Store_Length (length);

	mov	eax, DWORD PTR _length$[ebp]
	push	eax
	mov	ecx, DWORD PTR _this$[ebp]
	call	?Store_Length@StringClass@@AAEXH@Z	; StringClass::Store_Length
$LN2@Get_Length:

; 542  : 		}
; 543  : 	}
; 544  : 	return length;

	mov	eax, DWORD PTR _length$[ebp]

; 545  : }

	pop	edi
	pop	esi
	pop	ebx
	mov	esp, ebp
	pop	ebp
	ret	0
?Get_Length@StringClass@@QBEHXZ ENDP			; StringClass::Get_Length
_TEXT	ENDS
; Function compile flags: /Odtp /ZI
; File x:\github\renegade\dragonade_rxd\scripts\engine_string.h
;	COMDAT ??4StringClass@@QAEABV0@ABV0@@Z
_TEXT	SEGMENT
_len$ = -8						; size = 4
_this$ = -4						; size = 4
_string$ = 8						; size = 4
??4StringClass@@QAEABV0@ABV0@@Z PROC			; StringClass::operator=, COMDAT
; _this$ = ecx

; 279  : {	

	push	ebp
	mov	ebp, esp
	sub	esp, 72					; 00000048H
	push	ebx
	push	esi
	push	edi
	mov	DWORD PTR _this$[ebp], ecx

; 280  : 	int len = string.Get_Length();

	mov	ecx, DWORD PTR _string$[ebp]
	call	?Get_Length@StringClass@@QBEHXZ		; StringClass::Get_Length
	mov	DWORD PTR _len$[ebp], eax

; 281  : 	Uninitialised_Grow(len+1);

	mov	eax, DWORD PTR _len$[ebp]
	add	eax, 1
	push	eax
	mov	ecx, DWORD PTR _this$[ebp]
	call	?Uninitialised_Grow@StringClass@@AAEXH@Z ; StringClass::Uninitialised_Grow

; 282  : 	Store_Length(len);

	mov	eax, DWORD PTR _len$[ebp]
	push	eax
	mov	ecx, DWORD PTR _this$[ebp]
	call	?Store_Length@StringClass@@AAEXH@Z	; StringClass::Store_Length

; 283  : 	memcpy (m_Buffer, string.m_Buffer, (len+1) * sizeof (char));		

	mov	eax, DWORD PTR _len$[ebp]
	add	eax, 1
	push	eax
	mov	ecx, DWORD PTR _string$[ebp]
	mov	edx, DWORD PTR [ecx]
	push	edx
	mov	eax, DWORD PTR _this$[ebp]
	mov	ecx, DWORD PTR [eax]
	push	ecx
	call	_memcpy
	add	esp, 12					; 0000000cH

; 284  : 	return (*this);

	mov	eax, DWORD PTR _this$[ebp]

; 285  : }

	pop	edi
	pop	esi
	pop	ebx
	mov	esp, ebp
	pop	ebp
	ret	4
??4StringClass@@QAEABV0@ABV0@@Z ENDP			; StringClass::operator=
_TEXT	ENDS
; Function compile flags: /Odtp /ZI
; File x:\github\renegade\dragonade_rxd\scripts\engine_string.h
;	COMDAT ??1StringClass@@QAE@XZ
_TEXT	SEGMENT
_this$ = -4						; size = 4
??1StringClass@@QAE@XZ PROC				; StringClass::~StringClass, COMDAT
; _this$ = ecx

; 366  : {

	push	ebp
	mov	ebp, esp
	sub	esp, 68					; 00000044H
	push	ebx
	push	esi
	push	edi
	mov	DWORD PTR _this$[ebp], ecx

; 367  : 	Free_String ();

	mov	ecx, DWORD PTR _this$[ebp]
	call	?Free_String@StringClass@@AAEXXZ	; StringClass::Free_String

; 368  : }

	pop	edi
	pop	esi
	pop	ebx
	mov	esp, ebp
	pop	ebp
	ret	0
??1StringClass@@QAE@XZ ENDP				; StringClass::~StringClass
_TEXT	ENDS
; Function compile flags: /Odtp /ZI
; File x:\github\renegade\dragonade_rxd\scripts\engine_string.h
;	COMDAT ??0StringClass@@QAE@H_N@Z
_TEXT	SEGMENT
_this$ = -4						; size = 4
_initial_len$ = 8					; size = 4
_hint_temporary$ = 12					; size = 1
??0StringClass@@QAE@H_N@Z PROC				; StringClass::StringClass, COMDAT
; _this$ = ecx

; 325  : {

	push	ebp
	mov	ebp, esp
	sub	esp, 68					; 00000044H
	push	ebx
	push	esi
	push	edi
	mov	DWORD PTR _this$[ebp], ecx
	mov	eax, DWORD PTR _this$[ebp]
	mov	ecx, DWORD PTR ?m_EmptyString@StringClass@@0AAPADA ; StringClass::m_EmptyString
	mov	edx, DWORD PTR [ecx]
	mov	DWORD PTR [eax], edx

; 326  : 	Get_String (initial_len, hint_temporary);

	movzx	eax, BYTE PTR _hint_temporary$[ebp]
	push	eax
	mov	ecx, DWORD PTR _initial_len$[ebp]
	push	ecx
	mov	ecx, DWORD PTR _this$[ebp]
	call	?Get_String@StringClass@@AAEXH_N@Z	; StringClass::Get_String

; 327  : 	m_Buffer[0]	= m_NullChar;

	mov	eax, 1
	imul	eax, 0
	mov	ecx, DWORD PTR _this$[ebp]
	mov	edx, DWORD PTR [ecx]
	mov	ecx, DWORD PTR ?m_NullChar@StringClass@@0AADA ; StringClass::m_NullChar
	mov	cl, BYTE PTR [ecx]
	mov	BYTE PTR [eax+edx], cl

; 328  : }

	mov	eax, DWORD PTR _this$[ebp]
	pop	edi
	pop	esi
	pop	ebx
	mov	esp, ebp
	pop	ebp
	ret	8
??0StringClass@@QAE@H_N@Z ENDP				; StringClass::StringClass
_TEXT	ENDS
; Function compile flags: /Odtp /ZI
;	COMDAT ??_GPersistClass@@UAEPAXI@Z
_TEXT	SEGMENT
_this$ = -4						; size = 4
___flags$ = 8						; size = 4
??_GPersistClass@@UAEPAXI@Z PROC			; PersistClass::`scalar deleting destructor', COMDAT
; _this$ = ecx
	push	ebp
	mov	ebp, esp
	sub	esp, 68					; 00000044H
	push	ebx
	push	esi
	push	edi
	mov	DWORD PTR _this$[ebp], ecx
	mov	ecx, DWORD PTR _this$[ebp]
	call	??1PersistClass@@UAE@XZ
	mov	eax, DWORD PTR ___flags$[ebp]
	and	eax, 1
	je	SHORT $LN1@scalar
	mov	eax, DWORD PTR _this$[ebp]
	push	eax
	call	??3@YAXPAX@Z				; operator delete
	add	esp, 4
$LN1@scalar:
	mov	eax, DWORD PTR _this$[ebp]
	pop	edi
	pop	esi
	pop	ebx
	mov	esp, ebp
	pop	ebp
	ret	4
??_GPersistClass@@UAEPAXI@Z ENDP			; PersistClass::`scalar deleting destructor'
_TEXT	ENDS
; Function compile flags: /Odtp /ZI
;	COMDAT ??1PersistClass@@UAE@XZ
_TEXT	SEGMENT
_this$ = -4						; size = 4
??1PersistClass@@UAE@XZ PROC				; PersistClass::~PersistClass, COMDAT
; _this$ = ecx
	push	ebp
	mov	ebp, esp
	sub	esp, 68					; 00000044H
	push	ebx
	push	esi
	push	edi
	mov	DWORD PTR _this$[ebp], ecx
	mov	ecx, DWORD PTR _this$[ebp]
	call	??1PostLoadableClass@@UAE@XZ		; PostLoadableClass::~PostLoadableClass
	pop	edi
	pop	esi
	pop	ebx
	mov	esp, ebp
	pop	ebp
	ret	0
??1PersistClass@@UAE@XZ ENDP				; PersistClass::~PersistClass
_TEXT	ENDS
; Function compile flags: /Odtp /ZI
;	COMDAT ??0PersistClass@@QAE@XZ
_TEXT	SEGMENT
_this$ = -4						; size = 4
??0PersistClass@@QAE@XZ PROC				; PersistClass::PersistClass, COMDAT
; _this$ = ecx
	push	ebp
	mov	ebp, esp
	sub	esp, 68					; 00000044H
	push	ebx
	push	esi
	push	edi
	mov	DWORD PTR _this$[ebp], ecx
	mov	ecx, DWORD PTR _this$[ebp]
	call	??0PostLoadableClass@@QAE@XZ		; PostLoadableClass::PostLoadableClass
	mov	eax, DWORD PTR _this$[ebp]
	mov	DWORD PTR [eax], OFFSET ??_7PersistClass@@6B@
	mov	eax, DWORD PTR _this$[ebp]
	pop	edi
	pop	esi
	pop	ebx
	mov	esp, ebp
	pop	ebp
	ret	0
??0PersistClass@@QAE@XZ ENDP				; PersistClass::PersistClass
_TEXT	ENDS
; Function compile flags: /Odtp /ZI
; File x:\github\renegade\dragonade_rxd\scripts\persist.h
;	COMDAT ?Load@PersistClass@@UAE_NAAVChunkLoadClass@@@Z
_TEXT	SEGMENT
_this$ = -4						; size = 4
_cload$ = 8						; size = 4
?Load@PersistClass@@UAE_NAAVChunkLoadClass@@@Z PROC	; PersistClass::Load, COMDAT
; _this$ = ecx

; 22   : 	virtual bool								Load (ChunkLoadClass &cload)		{ return true; }

	push	ebp
	mov	ebp, esp
	sub	esp, 68					; 00000044H
	push	ebx
	push	esi
	push	edi
	mov	DWORD PTR _this$[ebp], ecx
	mov	al, 1
	pop	edi
	pop	esi
	pop	ebx
	mov	esp, ebp
	pop	ebp
	ret	4
?Load@PersistClass@@UAE_NAAVChunkLoadClass@@@Z ENDP	; PersistClass::Load
_TEXT	ENDS
; Function compile flags: /Odtp /ZI
; File x:\github\renegade\dragonade_rxd\scripts\persist.h
;	COMDAT ?Save@PersistClass@@UAE_NAAVChunkSaveClass@@@Z
_TEXT	SEGMENT
_this$ = -4						; size = 4
_csave$ = 8						; size = 4
?Save@PersistClass@@UAE_NAAVChunkSaveClass@@@Z PROC	; PersistClass::Save, COMDAT
; _this$ = ecx

; 21   : 	virtual bool								Save (ChunkSaveClass &csave)		{ return true; }

	push	ebp
	mov	ebp, esp
	sub	esp, 68					; 00000044H
	push	ebx
	push	esi
	push	edi
	mov	DWORD PTR _this$[ebp], ecx
	mov	al, 1
	pop	edi
	pop	esi
	pop	ebx
	mov	esp, ebp
	pop	ebp
	ret	4
?Save@PersistClass@@UAE_NAAVChunkSaveClass@@@Z ENDP	; PersistClass::Save
_TEXT	ENDS
; Function compile flags: /Odtp /ZI
;	COMDAT ??_GPostLoadableClass@@UAEPAXI@Z
_TEXT	SEGMENT
_this$ = -4						; size = 4
___flags$ = 8						; size = 4
??_GPostLoadableClass@@UAEPAXI@Z PROC			; PostLoadableClass::`scalar deleting destructor', COMDAT
; _this$ = ecx
	push	ebp
	mov	ebp, esp
	sub	esp, 68					; 00000044H
	push	ebx
	push	esi
	push	edi
	mov	DWORD PTR _this$[ebp], ecx
	mov	ecx, DWORD PTR _this$[ebp]
	call	??1PostLoadableClass@@UAE@XZ		; PostLoadableClass::~PostLoadableClass
	mov	eax, DWORD PTR ___flags$[ebp]
	and	eax, 1
	je	SHORT $LN1@scalar
	mov	eax, DWORD PTR _this$[ebp]
	push	eax
	call	??3@YAXPAX@Z				; operator delete
	add	esp, 4
$LN1@scalar:
	mov	eax, DWORD PTR _this$[ebp]
	pop	edi
	pop	esi
	pop	ebx
	mov	esp, ebp
	pop	ebp
	ret	4
??_GPostLoadableClass@@UAEPAXI@Z ENDP			; PostLoadableClass::`scalar deleting destructor'
_TEXT	ENDS
; Function compile flags: /Odtp /ZI
; File x:\github\renegade\dragonade_rxd\scripts\postloadableclass.h
;	COMDAT ?On_Post_Load@PostLoadableClass@@UAEXXZ
_TEXT	SEGMENT
_this$ = -4						; size = 4
?On_Post_Load@PostLoadableClass@@UAEXXZ PROC		; PostLoadableClass::On_Post_Load, COMDAT
; _this$ = ecx

; 20   : 	virtual void						On_Post_Load (void)							{ }

	push	ebp
	mov	ebp, esp
	sub	esp, 68					; 00000044H
	push	ebx
	push	esi
	push	edi
	mov	DWORD PTR _this$[ebp], ecx
	pop	edi
	pop	esi
	pop	ebx
	mov	esp, ebp
	pop	ebp
	ret	0
?On_Post_Load@PostLoadableClass@@UAEXXZ ENDP		; PostLoadableClass::On_Post_Load
_TEXT	ENDS
; Function compile flags: /Odtp /ZI
; File x:\github\renegade\dragonade_rxd\scripts\postloadableclass.h
;	COMDAT ??1PostLoadableClass@@UAE@XZ
_TEXT	SEGMENT
_this$ = -4						; size = 4
??1PostLoadableClass@@UAE@XZ PROC			; PostLoadableClass::~PostLoadableClass, COMDAT
; _this$ = ecx

; 19   : 	virtual ~PostLoadableClass(void)													{ }

	push	ebp
	mov	ebp, esp
	sub	esp, 68					; 00000044H
	push	ebx
	push	esi
	push	edi
	mov	DWORD PTR _this$[ebp], ecx
	mov	eax, DWORD PTR _this$[ebp]
	mov	DWORD PTR [eax], OFFSET ??_7PostLoadableClass@@6B@
	pop	edi
	pop	esi
	pop	ebx
	mov	esp, ebp
	pop	ebp
	ret	0
??1PostLoadableClass@@UAE@XZ ENDP			; PostLoadableClass::~PostLoadableClass
_TEXT	ENDS
; Function compile flags: /Odtp /ZI
; File x:\github\renegade\dragonade_rxd\scripts\postloadableclass.h
;	COMDAT ??0PostLoadableClass@@QAE@XZ
_TEXT	SEGMENT
_this$ = -4						; size = 4
??0PostLoadableClass@@QAE@XZ PROC			; PostLoadableClass::PostLoadableClass, COMDAT
; _this$ = ecx

; 18   : 	PostLoadableClass(void) : IsPostLoadRegistered(false)						{ }

	push	ebp
	mov	ebp, esp
	sub	esp, 68					; 00000044H
	push	ebx
	push	esi
	push	edi
	mov	DWORD PTR _this$[ebp], ecx
	mov	eax, DWORD PTR _this$[ebp]
	mov	DWORD PTR [eax], OFFSET ??_7PostLoadableClass@@6B@
	mov	eax, DWORD PTR _this$[ebp]
	mov	BYTE PTR [eax+4], 0
	mov	eax, DWORD PTR _this$[ebp]
	pop	edi
	pop	esi
	pop	ebx
	mov	esp, ebp
	pop	ebp
	ret	0
??0PostLoadableClass@@QAE@XZ ENDP			; PostLoadableClass::PostLoadableClass
_TEXT	ENDS
; Function compile flags: /Odtp /ZI
;	COMDAT ??_H@YGXPAXIHP6EPAX0@Z@Z
_TEXT	SEGMENT
___t$ = 8						; size = 4
___s$ = 12						; size = 4
___n$ = 16						; size = 4
___f$ = 20						; size = 4
??_H@YGXPAXIHP6EPAX0@Z@Z PROC				; `vector constructor iterator', COMDAT
	push	ebp
	mov	ebp, esp
	sub	esp, 64					; 00000040H
	push	ebx
	push	esi
	push	edi
$LN2@vector:
	mov	eax, DWORD PTR ___n$[ebp]
	sub	eax, 1
	mov	DWORD PTR ___n$[ebp], eax
	js	SHORT $LN3@vector
	mov	ecx, DWORD PTR ___t$[ebp]
	call	DWORD PTR ___f$[ebp]
	mov	eax, DWORD PTR ___t$[ebp]
	add	eax, DWORD PTR ___s$[ebp]
	mov	DWORD PTR ___t$[ebp], eax
	jmp	SHORT $LN2@vector
$LN3@vector:
	pop	edi
	pop	esi
	pop	ebx
	mov	esp, ebp
	pop	ebp
	ret	16					; 00000010H
??_H@YGXPAXIHP6EPAX0@Z@Z ENDP				; `vector constructor iterator'
_TEXT	ENDS
END
